   1              		.file	"gd32vw55x_it.c"
   2              		.option nopic
   3              		.attribute arch, "rv32i2p0_m2p0_a2p0_c2p0"
   4              		.attribute unaligned_access, 0
   5              		.attribute stack_align, 16
   6              		.text
   7              	.Ltext0:
   8              		.cfi_sections	.debug_frame
   9              		.section	.text.eclic_mtip_handler,"ax",@progbits
  10              		.align	1
  11              		.globl	eclic_mtip_handler
  13              	eclic_mtip_handler:
  14              	.LFB347:
  15              		.file 1 "../src/gd32vw55x_it.c"
   1:../src/gd32vw55x_it.c **** /*!
   2:../src/gd32vw55x_it.c ****     \file    gd32vw55x_it.c
   3:../src/gd32vw55x_it.c ****     \brief   interrupt service routines
   4:../src/gd32vw55x_it.c **** 
   5:../src/gd32vw55x_it.c ****     \version 2025-01-16, V1.4.0, firmware for GD32VW55x
   6:../src/gd32vw55x_it.c **** */
   7:../src/gd32vw55x_it.c **** 
   8:../src/gd32vw55x_it.c **** /*
   9:../src/gd32vw55x_it.c ****     Copyright (c) 2025, GigaDevice Semiconductor Inc.
  10:../src/gd32vw55x_it.c **** 
  11:../src/gd32vw55x_it.c ****     Redistribution and use in source and binary forms, with or without modification,
  12:../src/gd32vw55x_it.c **** are permitted provided that the following conditions are met:
  13:../src/gd32vw55x_it.c **** 
  14:../src/gd32vw55x_it.c ****     1. Redistributions of source code must retain the above copyright notice, this
  15:../src/gd32vw55x_it.c ****        list of conditions and the following disclaimer.
  16:../src/gd32vw55x_it.c ****     2. Redistributions in binary form must reproduce the above copyright notice,
  17:../src/gd32vw55x_it.c ****        this list of conditions and the following disclaimer in the documentation
  18:../src/gd32vw55x_it.c ****        and/or other materials provided with the distribution.
  19:../src/gd32vw55x_it.c ****     3. Neither the name of the copyright holder nor the names of its contributors
  20:../src/gd32vw55x_it.c ****        may be used to endorse or promote products derived from this software without
  21:../src/gd32vw55x_it.c ****        specific prior written permission.
  22:../src/gd32vw55x_it.c **** 
  23:../src/gd32vw55x_it.c ****     THIS SOFTWARE IS PROVIDED BY THE COPYRIGHT HOLDERS AND CONTRIBUTORS "AS IS"
  24:../src/gd32vw55x_it.c **** AND ANY EXPRESS OR IMPLIED WARRANTIES, INCLUDING, BUT NOT LIMITED TO, THE IMPLIED
  25:../src/gd32vw55x_it.c **** WARRANTIES OF MERCHANTABILITY AND FITNESS FOR A PARTICULAR PURPOSE ARE DISCLAIMED.
  26:../src/gd32vw55x_it.c **** IN NO EVENT SHALL THE COPYRIGHT HOLDER OR CONTRIBUTORS BE LIABLE FOR ANY DIRECT,
  27:../src/gd32vw55x_it.c **** INDIRECT, INCIDENTAL, SPECIAL, EXEMPLARY, OR CONSEQUENTIAL DAMAGES (INCLUDING, BUT
  28:../src/gd32vw55x_it.c **** NOT LIMITED TO, PROCUREMENT OF SUBSTITUTE GOODS OR SERVICES; LOSS OF USE, DATA, OR
  29:../src/gd32vw55x_it.c **** PROFITS; OR BUSINESS INTERRUPTION) HOWEVER CAUSED AND ON ANY THEORY OF LIABILITY,
  30:../src/gd32vw55x_it.c **** WHETHER IN CONTRACT, STRICT LIABILITY, OR TORT (INCLUDING NEGLIGENCE OR OTHERWISE)
  31:../src/gd32vw55x_it.c **** ARISING IN ANY WAY OUT OF THE USE OF THIS SOFTWARE, EVEN IF ADVISED OF THE POSSIBILITY
  32:../src/gd32vw55x_it.c **** OF SUCH DAMAGE.
  33:../src/gd32vw55x_it.c **** */
  34:../src/gd32vw55x_it.c **** 
  35:../src/gd32vw55x_it.c **** #include "gd32vw55x_it.h"
  36:../src/gd32vw55x_it.c **** #include "main.h"
  37:../src/gd32vw55x_it.c **** #include "systick.h"
  38:../src/gd32vw55x_it.c **** 
  39:../src/gd32vw55x_it.c **** /*!
  40:../src/gd32vw55x_it.c ****     \brief      core private timer handle function
  41:../src/gd32vw55x_it.c ****     \param[in]  none
  42:../src/gd32vw55x_it.c ****     \param[out] none
  43:../src/gd32vw55x_it.c ****     \retval     none
  44:../src/gd32vw55x_it.c **** */
  45:../src/gd32vw55x_it.c **** void eclic_mtip_handler(void)
  46:../src/gd32vw55x_it.c **** {
  16              		.loc 1 46 1
  17              		.cfi_startproc
  18 0000 0111     		addi	sp,sp,-32
  19              		.cfi_def_cfa_offset 32
  20 0002 06CE     		sw	ra,28(sp)
  21 0004 22CC     		sw	s0,24(sp)
  22              		.cfi_offset 1, -4
  23              		.cfi_offset 8, -8
  24 0006 0010     		addi	s0,sp,32
  25              		.cfi_def_cfa 8, 0
  26 0008 9D47     		li	a5,7
  27 000a 2326F4FE 		sw	a5,-20(s0)
  28              	.LBB4:
  29              	.LBB5:
  30              		.file 2 "../Firmware/RISCV/drivers/core_feature_eclic.h"
   1:../Firmware/RISCV/drivers/core_feature_eclic.h **** /*
   2:../Firmware/RISCV/drivers/core_feature_eclic.h ****  * Copyright (c) 2019 Nuclei Limited. All rights reserved.
   3:../Firmware/RISCV/drivers/core_feature_eclic.h ****  *
   4:../Firmware/RISCV/drivers/core_feature_eclic.h ****  * SPDX-License-Identifier: Apache-2.0
   5:../Firmware/RISCV/drivers/core_feature_eclic.h ****  *
   6:../Firmware/RISCV/drivers/core_feature_eclic.h ****  * Licensed under the Apache License, Version 2.0 (the License); you may
   7:../Firmware/RISCV/drivers/core_feature_eclic.h ****  * not use this file except in compliance with the License.
   8:../Firmware/RISCV/drivers/core_feature_eclic.h ****  * You may obtain a copy of the License at
   9:../Firmware/RISCV/drivers/core_feature_eclic.h ****  *
  10:../Firmware/RISCV/drivers/core_feature_eclic.h ****  * www.apache.org/licenses/LICENSE-2.0
  11:../Firmware/RISCV/drivers/core_feature_eclic.h ****  *
  12:../Firmware/RISCV/drivers/core_feature_eclic.h ****  * Unless required by applicable law or agreed to in writing, software
  13:../Firmware/RISCV/drivers/core_feature_eclic.h ****  * distributed under the License is distributed on an AS IS BASIS, WITHOUT
  14:../Firmware/RISCV/drivers/core_feature_eclic.h ****  * WARRANTIES OR CONDITIONS OF ANY KIND, either express or implied.
  15:../Firmware/RISCV/drivers/core_feature_eclic.h ****  * See the License for the specific language governing permissions and
  16:../Firmware/RISCV/drivers/core_feature_eclic.h ****  * limitations under the License.
  17:../Firmware/RISCV/drivers/core_feature_eclic.h ****  */
  18:../Firmware/RISCV/drivers/core_feature_eclic.h **** #ifndef __CORE_FEATURE_ECLIC__
  19:../Firmware/RISCV/drivers/core_feature_eclic.h **** #define __CORE_FEATURE_ECLIC__
  20:../Firmware/RISCV/drivers/core_feature_eclic.h **** /*!
  21:../Firmware/RISCV/drivers/core_feature_eclic.h ****  * @file     core_feature_eclic.h
  22:../Firmware/RISCV/drivers/core_feature_eclic.h ****  * @brief    ECLIC feature API header file for Nuclei N/NX Core
  23:../Firmware/RISCV/drivers/core_feature_eclic.h ****  */
  24:../Firmware/RISCV/drivers/core_feature_eclic.h **** /*
  25:../Firmware/RISCV/drivers/core_feature_eclic.h ****  * ECLIC Feature Configuration Macro:
  26:../Firmware/RISCV/drivers/core_feature_eclic.h ****  * 1. __ECLIC_PRESENT:  Define whether Enhanced Core Local Interrupt Controller (ECLIC) Unit is pre
  27:../Firmware/RISCV/drivers/core_feature_eclic.h ****  *   * 0: Not present
  28:../Firmware/RISCV/drivers/core_feature_eclic.h ****  *   * 1: Present
  29:../Firmware/RISCV/drivers/core_feature_eclic.h ****  * 2. __ECLIC_BASEADDR:  Base address of the ECLIC unit.
  30:../Firmware/RISCV/drivers/core_feature_eclic.h ****  * 3. ECLIC_GetInfoCtlbits():  Define the number of hardware bits are actually implemented in the c
  31:../Firmware/RISCV/drivers/core_feature_eclic.h ****  *   Valid number is 1 - 8.
  32:../Firmware/RISCV/drivers/core_feature_eclic.h ****  * 4. __ECLIC_INTNUM  : Define the external interrupt number of ECLIC Unit
  33:../Firmware/RISCV/drivers/core_feature_eclic.h ****  *
  34:../Firmware/RISCV/drivers/core_feature_eclic.h ****  */
  35:../Firmware/RISCV/drivers/core_feature_eclic.h **** #ifdef __cplusplus
  36:../Firmware/RISCV/drivers/core_feature_eclic.h ****  extern "C" {
  37:../Firmware/RISCV/drivers/core_feature_eclic.h **** #endif
  38:../Firmware/RISCV/drivers/core_feature_eclic.h **** 
  39:../Firmware/RISCV/drivers/core_feature_eclic.h **** #if defined(__ECLIC_PRESENT) && (__ECLIC_PRESENT == 1)
  40:../Firmware/RISCV/drivers/core_feature_eclic.h **** /**
  41:../Firmware/RISCV/drivers/core_feature_eclic.h ****  * \defgroup NMSIS_Core_ECLIC_Registers     Register Define and Type Definitions Of ECLIC
  42:../Firmware/RISCV/drivers/core_feature_eclic.h ****  * \ingroup NMSIS_Core_Registers
  43:../Firmware/RISCV/drivers/core_feature_eclic.h ****  * \brief   Type definitions and defines for eclic registers.
  44:../Firmware/RISCV/drivers/core_feature_eclic.h ****  *
  45:../Firmware/RISCV/drivers/core_feature_eclic.h ****  * @{
  46:../Firmware/RISCV/drivers/core_feature_eclic.h ****  */
  47:../Firmware/RISCV/drivers/core_feature_eclic.h **** 
  48:../Firmware/RISCV/drivers/core_feature_eclic.h **** /**
  49:../Firmware/RISCV/drivers/core_feature_eclic.h ****  * \brief  Union type to access CLICFG configure register.
  50:../Firmware/RISCV/drivers/core_feature_eclic.h ****  */
  51:../Firmware/RISCV/drivers/core_feature_eclic.h **** typedef union
  52:../Firmware/RISCV/drivers/core_feature_eclic.h **** {
  53:../Firmware/RISCV/drivers/core_feature_eclic.h ****     struct {
  54:../Firmware/RISCV/drivers/core_feature_eclic.h ****         uint8_t _reserved0:1;                   /*!< bit:     0   Overflow condition code flag */
  55:../Firmware/RISCV/drivers/core_feature_eclic.h ****         uint8_t nlbits:4;                       /*!< bit:     29  Carry condition code flag */
  56:../Firmware/RISCV/drivers/core_feature_eclic.h ****         uint8_t _reserved1:2;                   /*!< bit:     30  Zero condition code flag */
  57:../Firmware/RISCV/drivers/core_feature_eclic.h ****         uint8_t _reserved2:1;                   /*!< bit:     31  Negative condition code flag */
  58:../Firmware/RISCV/drivers/core_feature_eclic.h ****     } b;                                        /*!< Structure used for bit  access */
  59:../Firmware/RISCV/drivers/core_feature_eclic.h ****     uint8_t w;                                  /*!< Type      used for byte access */
  60:../Firmware/RISCV/drivers/core_feature_eclic.h **** } CLICCFG_Type;
  61:../Firmware/RISCV/drivers/core_feature_eclic.h **** 
  62:../Firmware/RISCV/drivers/core_feature_eclic.h **** /**
  63:../Firmware/RISCV/drivers/core_feature_eclic.h ****  * \brief  Union type to access CLICINFO information register.
  64:../Firmware/RISCV/drivers/core_feature_eclic.h ****  */
  65:../Firmware/RISCV/drivers/core_feature_eclic.h **** typedef union {
  66:../Firmware/RISCV/drivers/core_feature_eclic.h ****     struct {
  67:../Firmware/RISCV/drivers/core_feature_eclic.h ****         uint32_t numint:13;                     /*!< bit:  0..12   number of maximum interrupt inpu
  68:../Firmware/RISCV/drivers/core_feature_eclic.h ****         uint32_t version:8;                     /*!< bit:  13..20  20:17 for architecture version,1
  69:../Firmware/RISCV/drivers/core_feature_eclic.h ****         uint32_t intctlbits:4;                  /*!< bit:  21..24  specifies how many hardware bits
  70:../Firmware/RISCV/drivers/core_feature_eclic.h ****         uint32_t _reserved0:7;                  /*!< bit:  25..31  Reserved */
  71:../Firmware/RISCV/drivers/core_feature_eclic.h ****     } b;                                        /*!< Structure used for bit  access */
  72:../Firmware/RISCV/drivers/core_feature_eclic.h ****     uint32_t w;                                 /*!< Type      used for word access */
  73:../Firmware/RISCV/drivers/core_feature_eclic.h **** } CLICINFO_Type;
  74:../Firmware/RISCV/drivers/core_feature_eclic.h **** 
  75:../Firmware/RISCV/drivers/core_feature_eclic.h **** /**
  76:../Firmware/RISCV/drivers/core_feature_eclic.h ****  * \brief Access to the structure of a vector interrupt controller.
  77:../Firmware/RISCV/drivers/core_feature_eclic.h ****  */
  78:../Firmware/RISCV/drivers/core_feature_eclic.h **** typedef struct {
  79:../Firmware/RISCV/drivers/core_feature_eclic.h ****     __IOM uint8_t  INTIP;                       /*!< Offset: 0x000 (R/W)  Interrupt set pending reg
  80:../Firmware/RISCV/drivers/core_feature_eclic.h ****     __IOM uint8_t  INTIE;                       /*!< Offset: 0x001 (R/W)  Interrupt set enable regi
  81:../Firmware/RISCV/drivers/core_feature_eclic.h ****     __IOM uint8_t  INTATTR;                     /*!< Offset: 0x002 (R/W)  Interrupt set attributes 
  82:../Firmware/RISCV/drivers/core_feature_eclic.h ****     __IOM uint8_t  INTCTRL;                     /*!< Offset: 0x003 (R/W)  Interrupt configure regis
  83:../Firmware/RISCV/drivers/core_feature_eclic.h **** } CLIC_CTRL_Type;
  84:../Firmware/RISCV/drivers/core_feature_eclic.h **** 
  85:../Firmware/RISCV/drivers/core_feature_eclic.h **** typedef struct {
  86:../Firmware/RISCV/drivers/core_feature_eclic.h ****     __IOM uint8_t   CFG;                        /*!< Offset: 0x000 (R/W)  CLIC configuration regist
  87:../Firmware/RISCV/drivers/core_feature_eclic.h ****     uint8_t RESERVED0[3];
  88:../Firmware/RISCV/drivers/core_feature_eclic.h ****     __IM uint32_t  INFO;                        /*!< Offset: 0x004 (R/ )  CLIC information register
  89:../Firmware/RISCV/drivers/core_feature_eclic.h ****     uint8_t RESERVED1[3];
  90:../Firmware/RISCV/drivers/core_feature_eclic.h ****     __IOM uint8_t  MTH;                         /*!< Offset: 0x00B (R/W)  CLIC machine mode thresho
  91:../Firmware/RISCV/drivers/core_feature_eclic.h ****     uint32_t RESERVED2[0x3FD];
  92:../Firmware/RISCV/drivers/core_feature_eclic.h ****     CLIC_CTRL_Type CTRL[4096];                  /*!< Offset: 0x1000 (R/W) CLIC register structure f
  93:../Firmware/RISCV/drivers/core_feature_eclic.h **** } CLIC_Type;
  94:../Firmware/RISCV/drivers/core_feature_eclic.h **** 
  95:../Firmware/RISCV/drivers/core_feature_eclic.h **** #define CLIC_CLICCFG_NLBIT_Pos                 1U                                       /*!< CLIC C
  96:../Firmware/RISCV/drivers/core_feature_eclic.h **** #define CLIC_CLICCFG_NLBIT_Msk                 (0xFUL << CLIC_CLICCFG_NLBIT_Pos)        /*!< CLIC C
  97:../Firmware/RISCV/drivers/core_feature_eclic.h **** 
  98:../Firmware/RISCV/drivers/core_feature_eclic.h **** #define CLIC_CLICINFO_CTLBIT_Pos                21U                                     /*!< CLIC I
  99:../Firmware/RISCV/drivers/core_feature_eclic.h **** #define CLIC_CLICINFO_CTLBIT_Msk                (0xFUL << CLIC_CLICINFO_CTLBIT_Pos)     /*!< CLIC I
 100:../Firmware/RISCV/drivers/core_feature_eclic.h **** 
 101:../Firmware/RISCV/drivers/core_feature_eclic.h **** #define CLIC_CLICINFO_VER_Pos                  13U                                      /*!< CLIC C
 102:../Firmware/RISCV/drivers/core_feature_eclic.h **** #define CLIC_CLICINFO_VER_Msk                  (0xFFUL << CLIC_CLICCFG_NLBIT_Pos)       /*!< CLIC C
 103:../Firmware/RISCV/drivers/core_feature_eclic.h **** 
 104:../Firmware/RISCV/drivers/core_feature_eclic.h **** #define CLIC_CLICINFO_NUM_Pos                  0U                                       /*!< CLIC C
 105:../Firmware/RISCV/drivers/core_feature_eclic.h **** #define CLIC_CLICINFO_NUM_Msk                  (0xFFFUL << CLIC_CLICINFO_NUM_Pos)       /*!< CLIC C
 106:../Firmware/RISCV/drivers/core_feature_eclic.h **** 
 107:../Firmware/RISCV/drivers/core_feature_eclic.h **** #define CLIC_INTIP_IP_Pos                      0U                                       /*!< CLIC I
 108:../Firmware/RISCV/drivers/core_feature_eclic.h **** #define CLIC_INTIP_IP_Msk                      (0x1UL << CLIC_INTIP_IP_Pos)             /*!< CLIC I
 109:../Firmware/RISCV/drivers/core_feature_eclic.h **** 
 110:../Firmware/RISCV/drivers/core_feature_eclic.h **** #define CLIC_INTIE_IE_Pos                      0U                                       /*!< CLIC I
 111:../Firmware/RISCV/drivers/core_feature_eclic.h **** #define CLIC_INTIE_IE_Msk                      (0x1UL << CLIC_INTIE_IE_Pos)             /*!< CLIC I
 112:../Firmware/RISCV/drivers/core_feature_eclic.h **** 
 113:../Firmware/RISCV/drivers/core_feature_eclic.h **** #define CLIC_INTATTR_TRIG_Pos                  1U                                       /*!< CLIC I
 114:../Firmware/RISCV/drivers/core_feature_eclic.h **** #define CLIC_INTATTR_TRIG_Msk                  (0x3UL << CLIC_INTATTR_TRIG_Pos)         /*!< CLIC I
 115:../Firmware/RISCV/drivers/core_feature_eclic.h **** 
 116:../Firmware/RISCV/drivers/core_feature_eclic.h **** #define CLIC_INTATTR_SHV_Pos                   0U                                       /*!< CLIC I
 117:../Firmware/RISCV/drivers/core_feature_eclic.h **** #define CLIC_INTATTR_SHV_Msk                   (0x1UL << CLIC_INTATTR_SHV_Pos)          /*!< CLIC I
 118:../Firmware/RISCV/drivers/core_feature_eclic.h **** 
 119:../Firmware/RISCV/drivers/core_feature_eclic.h **** #define ECLIC_MAX_NLBITS                       8U                                       /*!< Max nl
 120:../Firmware/RISCV/drivers/core_feature_eclic.h **** #define ECLIC_MODE_MTVEC_Msk                   3U                                       /*!< ECLIC 
 121:../Firmware/RISCV/drivers/core_feature_eclic.h **** 
 122:../Firmware/RISCV/drivers/core_feature_eclic.h **** #define ECLIC_NON_VECTOR_INTERRUPT             0x0                                      /*!< Non-Ve
 123:../Firmware/RISCV/drivers/core_feature_eclic.h **** #define ECLIC_VECTOR_INTERRUPT                 0x1                                      /*!< Vector
 124:../Firmware/RISCV/drivers/core_feature_eclic.h **** 
 125:../Firmware/RISCV/drivers/core_feature_eclic.h **** /**\brief ECLIC Trigger Enum for different Trigger Type */
 126:../Firmware/RISCV/drivers/core_feature_eclic.h **** typedef enum ECLIC_TRIGGER {
 127:../Firmware/RISCV/drivers/core_feature_eclic.h ****     ECLIC_LEVEL_TRIGGER = 0x0,          /*!< Level Triggerred, trig[0] = 0 */
 128:../Firmware/RISCV/drivers/core_feature_eclic.h ****     ECLIC_POSTIVE_EDGE_TRIGGER = 0x1,   /*!< Postive/Rising Edge Triggered, trig[0] = 1, trig[1] = 
 129:../Firmware/RISCV/drivers/core_feature_eclic.h ****     ECLIC_NEGTIVE_EDGE_TRIGGER = 0x3,   /*!< Negtive/Falling Edge Triggered, trig[0] = 1, trig[1] =
 130:../Firmware/RISCV/drivers/core_feature_eclic.h ****     ECLIC_MAX_TRIGGER = 0x3             /*!< MAX Supported Trigger Mode */
 131:../Firmware/RISCV/drivers/core_feature_eclic.h **** } ECLIC_TRIGGER_Type;
 132:../Firmware/RISCV/drivers/core_feature_eclic.h **** 
 133:../Firmware/RISCV/drivers/core_feature_eclic.h **** #ifndef __ECLIC_BASEADDR
 134:../Firmware/RISCV/drivers/core_feature_eclic.h **** /* Base address of ECLIC(__ECLIC_BASEADDR) should be defined in <Device.h> */
 135:../Firmware/RISCV/drivers/core_feature_eclic.h **** #error "__ECLIC_BASEADDR is not defined, please check!"
 136:../Firmware/RISCV/drivers/core_feature_eclic.h **** #endif
 137:../Firmware/RISCV/drivers/core_feature_eclic.h **** 
 138:../Firmware/RISCV/drivers/core_feature_eclic.h **** #ifndef __ECLIC_INTCTLBITS
 139:../Firmware/RISCV/drivers/core_feature_eclic.h **** /* Define __ECLIC_INTCTLBITS to get via ECLIC->INFO if not defined */
 140:../Firmware/RISCV/drivers/core_feature_eclic.h **** #define __ECLIC_INTCTLBITS                  (__ECLIC_GetInfoCtlbits())
 141:../Firmware/RISCV/drivers/core_feature_eclic.h **** #endif
 142:../Firmware/RISCV/drivers/core_feature_eclic.h **** 
 143:../Firmware/RISCV/drivers/core_feature_eclic.h **** /* ECLIC Memory mapping of Device */
 144:../Firmware/RISCV/drivers/core_feature_eclic.h **** #define ECLIC_BASE                          __ECLIC_BASEADDR                            /*!< ECLIC 
 145:../Firmware/RISCV/drivers/core_feature_eclic.h **** #define ECLIC                               ((CLIC_Type *) ECLIC_BASE)                  /*!< CLIC c
 146:../Firmware/RISCV/drivers/core_feature_eclic.h **** 
 147:../Firmware/RISCV/drivers/core_feature_eclic.h **** /** @} */ /* end of group NMSIS_Core_ECLIC_Registers */
 148:../Firmware/RISCV/drivers/core_feature_eclic.h **** 
 149:../Firmware/RISCV/drivers/core_feature_eclic.h **** /* ##########################   ECLIC functions  #################################### */
 150:../Firmware/RISCV/drivers/core_feature_eclic.h **** /**
 151:../Firmware/RISCV/drivers/core_feature_eclic.h ****  * \defgroup   NMSIS_Core_IntExc        Interrupts and Exceptions
 152:../Firmware/RISCV/drivers/core_feature_eclic.h ****  * \brief Functions that manage interrupts and exceptions via the ECLIC.
 153:../Firmware/RISCV/drivers/core_feature_eclic.h ****  *
 154:../Firmware/RISCV/drivers/core_feature_eclic.h ****  * @{
 155:../Firmware/RISCV/drivers/core_feature_eclic.h ****  */
 156:../Firmware/RISCV/drivers/core_feature_eclic.h **** 
 157:../Firmware/RISCV/drivers/core_feature_eclic.h **** /**
 158:../Firmware/RISCV/drivers/core_feature_eclic.h ****  * \brief  Definition of IRQn numbers
 159:../Firmware/RISCV/drivers/core_feature_eclic.h ****  * \details
 160:../Firmware/RISCV/drivers/core_feature_eclic.h ****  * The core interrupt enumeration names for IRQn values are defined in the file <b><Device>.h</b>.
 161:../Firmware/RISCV/drivers/core_feature_eclic.h ****  * - Interrupt ID(IRQn) from 0 to 18 are reserved for core internal interrupts.
 162:../Firmware/RISCV/drivers/core_feature_eclic.h ****  * - Interrupt ID(IRQn) start from 19 represent device-specific external interrupts.
 163:../Firmware/RISCV/drivers/core_feature_eclic.h ****  * - The first device-specific interrupt has the IRQn value 19.
 164:../Firmware/RISCV/drivers/core_feature_eclic.h ****  *
 165:../Firmware/RISCV/drivers/core_feature_eclic.h ****  * The table below describes the core interrupt names and their availability in various Nuclei Core
 166:../Firmware/RISCV/drivers/core_feature_eclic.h ****  */
 167:../Firmware/RISCV/drivers/core_feature_eclic.h **** /* The following enum IRQn definition in this file
 168:../Firmware/RISCV/drivers/core_feature_eclic.h ****  * is only used for doxygen documentation generation,
 169:../Firmware/RISCV/drivers/core_feature_eclic.h ****  * The <Device>.h is the real file to define it by vendor
 170:../Firmware/RISCV/drivers/core_feature_eclic.h ****  */
 171:../Firmware/RISCV/drivers/core_feature_eclic.h **** #if defined(__ONLY_FOR_DOXYGEN_DOCUMENT_GENERATION__)
 172:../Firmware/RISCV/drivers/core_feature_eclic.h **** typedef enum IRQn {
 173:../Firmware/RISCV/drivers/core_feature_eclic.h ****     /* ========= Nuclei N/NX Core Specific Interrupt Numbers  =========== */
 174:../Firmware/RISCV/drivers/core_feature_eclic.h ****     /* Core Internal Interrupt IRQn definitions */
 175:../Firmware/RISCV/drivers/core_feature_eclic.h ****     Reserved0_IRQn            =   0,              /*!<  Internal reserved */
 176:../Firmware/RISCV/drivers/core_feature_eclic.h ****     Reserved1_IRQn            =   1,              /*!<  Internal reserved */
 177:../Firmware/RISCV/drivers/core_feature_eclic.h ****     Reserved2_IRQn            =   2,              /*!<  Internal reserved */
 178:../Firmware/RISCV/drivers/core_feature_eclic.h ****     SysTimerSW_IRQn           =   3,              /*!<  System Timer SW interrupt */
 179:../Firmware/RISCV/drivers/core_feature_eclic.h ****     Reserved3_IRQn            =   4,              /*!<  Internal reserved */
 180:../Firmware/RISCV/drivers/core_feature_eclic.h ****     Reserved4_IRQn            =   5,              /*!<  Internal reserved */
 181:../Firmware/RISCV/drivers/core_feature_eclic.h ****     Reserved5_IRQn            =   6,              /*!<  Internal reserved */
 182:../Firmware/RISCV/drivers/core_feature_eclic.h ****     SysTimer_IRQn             =   7,              /*!<  System Timer Interrupt */
 183:../Firmware/RISCV/drivers/core_feature_eclic.h ****     Reserved6_IRQn            =   8,              /*!<  Internal reserved */
 184:../Firmware/RISCV/drivers/core_feature_eclic.h ****     Reserved7_IRQn            =   9,              /*!<  Internal reserved */
 185:../Firmware/RISCV/drivers/core_feature_eclic.h ****     Reserved8_IRQn            =  10,              /*!<  Internal reserved */
 186:../Firmware/RISCV/drivers/core_feature_eclic.h ****     Reserved9_IRQn            =  11,              /*!<  Internal reserved */
 187:../Firmware/RISCV/drivers/core_feature_eclic.h ****     Reserved10_IRQn           =  12,              /*!<  Internal reserved */
 188:../Firmware/RISCV/drivers/core_feature_eclic.h ****     Reserved11_IRQn           =  13,              /*!<  Internal reserved */
 189:../Firmware/RISCV/drivers/core_feature_eclic.h ****     Reserved12_IRQn           =  14,              /*!<  Internal reserved */
 190:../Firmware/RISCV/drivers/core_feature_eclic.h ****     Reserved13_IRQn           =  15,              /*!<  Internal reserved */
 191:../Firmware/RISCV/drivers/core_feature_eclic.h ****     Reserved14_IRQn           =  16,              /*!<  Internal reserved */
 192:../Firmware/RISCV/drivers/core_feature_eclic.h ****     Reserved15_IRQn           =  17,              /*!<  Internal reserved */
 193:../Firmware/RISCV/drivers/core_feature_eclic.h ****     Reserved16_IRQn           =  18,              /*!<  Internal reserved */
 194:../Firmware/RISCV/drivers/core_feature_eclic.h **** 
 195:../Firmware/RISCV/drivers/core_feature_eclic.h ****     /* ========= Device Specific Interrupt Numbers  =================== */
 196:../Firmware/RISCV/drivers/core_feature_eclic.h ****     /* ToDo: add here your device specific external interrupt numbers.
 197:../Firmware/RISCV/drivers/core_feature_eclic.h ****      * 19~max(NUM_INTERRUPT, 1023) is reserved number for user.
 198:../Firmware/RISCV/drivers/core_feature_eclic.h ****      * Maxmum interrupt supported could get from clicinfo.NUM_INTERRUPT.
 199:../Firmware/RISCV/drivers/core_feature_eclic.h ****      * According the interrupt handlers defined in startup_Device.S
 200:../Firmware/RISCV/drivers/core_feature_eclic.h ****      * eg.: Interrupt for Timer#1       eclic_tim1_handler   ->   TIM1_IRQn */
 201:../Firmware/RISCV/drivers/core_feature_eclic.h ****     FirstDeviceSpecificInterrupt_IRQn    = 19,    /*!< First Device Specific Interrupt */
 202:../Firmware/RISCV/drivers/core_feature_eclic.h ****     SOC_INT_MAX,                                  /*!< Number of total interrupts */
 203:../Firmware/RISCV/drivers/core_feature_eclic.h **** } IRQn_Type;
 204:../Firmware/RISCV/drivers/core_feature_eclic.h **** #endif /* __ONLY_FOR_DOXYGEN_DOCUMENT_GENERATION__ */
 205:../Firmware/RISCV/drivers/core_feature_eclic.h **** 
 206:../Firmware/RISCV/drivers/core_feature_eclic.h **** #ifdef NMSIS_ECLIC_VIRTUAL
 207:../Firmware/RISCV/drivers/core_feature_eclic.h ****     #ifndef NMSIS_ECLIC_VIRTUAL_HEADER_FILE
 208:../Firmware/RISCV/drivers/core_feature_eclic.h ****         #define NMSIS_ECLIC_VIRTUAL_HEADER_FILE "nmsis_eclic_virtual.h"
 209:../Firmware/RISCV/drivers/core_feature_eclic.h ****     #endif
 210:../Firmware/RISCV/drivers/core_feature_eclic.h ****     #include NMSIS_ECLIC_VIRTUAL_HEADER_FILE
 211:../Firmware/RISCV/drivers/core_feature_eclic.h **** #else
 212:../Firmware/RISCV/drivers/core_feature_eclic.h ****     #define ECLIC_SetCfgNlbits            __ECLIC_SetCfgNlbits
 213:../Firmware/RISCV/drivers/core_feature_eclic.h ****     #define ECLIC_GetCfgNlbits            __ECLIC_GetCfgNlbits
 214:../Firmware/RISCV/drivers/core_feature_eclic.h ****     #define ECLIC_GetInfoVer              __ECLIC_GetInfoVer
 215:../Firmware/RISCV/drivers/core_feature_eclic.h ****     #define ECLIC_GetInfoCtlbits          __ECLIC_GetInfoCtlbits
 216:../Firmware/RISCV/drivers/core_feature_eclic.h ****     #define ECLIC_GetInfoNum              __ECLIC_GetInfoNum
 217:../Firmware/RISCV/drivers/core_feature_eclic.h ****     #define ECLIC_SetMth                  __ECLIC_SetMth
 218:../Firmware/RISCV/drivers/core_feature_eclic.h ****     #define ECLIC_GetMth                  __ECLIC_GetMth
 219:../Firmware/RISCV/drivers/core_feature_eclic.h ****     #define ECLIC_EnableIRQ               __ECLIC_EnableIRQ
 220:../Firmware/RISCV/drivers/core_feature_eclic.h ****     #define ECLIC_GetEnableIRQ            __ECLIC_GetEnableIRQ
 221:../Firmware/RISCV/drivers/core_feature_eclic.h ****     #define ECLIC_DisableIRQ              __ECLIC_DisableIRQ
 222:../Firmware/RISCV/drivers/core_feature_eclic.h ****     #define ECLIC_SetPendingIRQ           __ECLIC_SetPendingIRQ
 223:../Firmware/RISCV/drivers/core_feature_eclic.h ****     #define ECLIC_GetPendingIRQ           __ECLIC_GetPendingIRQ
 224:../Firmware/RISCV/drivers/core_feature_eclic.h ****     #define ECLIC_ClearPendingIRQ         __ECLIC_ClearPendingIRQ
 225:../Firmware/RISCV/drivers/core_feature_eclic.h ****     #define ECLIC_SetTrigIRQ              __ECLIC_SetTrigIRQ
 226:../Firmware/RISCV/drivers/core_feature_eclic.h ****     #define ECLIC_GetTrigIRQ              __ECLIC_GetTrigIRQ
 227:../Firmware/RISCV/drivers/core_feature_eclic.h ****     #define ECLIC_SetShvIRQ               __ECLIC_SetShvIRQ
 228:../Firmware/RISCV/drivers/core_feature_eclic.h ****     #define ECLIC_GetShvIRQ               __ECLIC_GetShvIRQ
 229:../Firmware/RISCV/drivers/core_feature_eclic.h ****     #define ECLIC_SetCtrlIRQ              __ECLIC_SetCtrlIRQ
 230:../Firmware/RISCV/drivers/core_feature_eclic.h ****     #define ECLIC_GetCtrlIRQ              __ECLIC_GetCtrlIRQ
 231:../Firmware/RISCV/drivers/core_feature_eclic.h ****     #define ECLIC_SetLevelIRQ             __ECLIC_SetLevelIRQ
 232:../Firmware/RISCV/drivers/core_feature_eclic.h ****     #define ECLIC_GetLevelIRQ             __ECLIC_GetLevelIRQ
 233:../Firmware/RISCV/drivers/core_feature_eclic.h ****     #define ECLIC_SetPriorityIRQ          __ECLIC_SetPriorityIRQ
 234:../Firmware/RISCV/drivers/core_feature_eclic.h ****     #define ECLIC_GetPriorityIRQ          __ECLIC_GetPriorityIRQ
 235:../Firmware/RISCV/drivers/core_feature_eclic.h **** 
 236:../Firmware/RISCV/drivers/core_feature_eclic.h **** #endif /* NMSIS_ECLIC_VIRTUAL */
 237:../Firmware/RISCV/drivers/core_feature_eclic.h **** 
 238:../Firmware/RISCV/drivers/core_feature_eclic.h **** #ifdef NMSIS_VECTAB_VIRTUAL
 239:../Firmware/RISCV/drivers/core_feature_eclic.h ****     #ifndef NMSIS_VECTAB_VIRTUAL_HEADER_FILE
 240:../Firmware/RISCV/drivers/core_feature_eclic.h ****         #define NMSIS_VECTAB_VIRTUAL_HEADER_FILE "nmsis_vectab_virtual.h"
 241:../Firmware/RISCV/drivers/core_feature_eclic.h ****     #endif
 242:../Firmware/RISCV/drivers/core_feature_eclic.h ****     #include NMSIS_VECTAB_VIRTUAL_HEADER_FILE
 243:../Firmware/RISCV/drivers/core_feature_eclic.h **** #else
 244:../Firmware/RISCV/drivers/core_feature_eclic.h ****     #define ECLIC_SetVector              __ECLIC_SetVector
 245:../Firmware/RISCV/drivers/core_feature_eclic.h ****     #define ECLIC_GetVector              __ECLIC_GetVector
 246:../Firmware/RISCV/drivers/core_feature_eclic.h **** #endif  /* (NMSIS_VECTAB_VIRTUAL) */
 247:../Firmware/RISCV/drivers/core_feature_eclic.h **** 
 248:../Firmware/RISCV/drivers/core_feature_eclic.h **** /**
 249:../Firmware/RISCV/drivers/core_feature_eclic.h ****  * \brief  Set nlbits value
 250:../Firmware/RISCV/drivers/core_feature_eclic.h ****  * \details
 251:../Firmware/RISCV/drivers/core_feature_eclic.h ****  * This function set the nlbits value of CLICCFG register.
 252:../Firmware/RISCV/drivers/core_feature_eclic.h ****  * \param [in]    nlbits    nlbits value
 253:../Firmware/RISCV/drivers/core_feature_eclic.h ****  * \remarks
 254:../Firmware/RISCV/drivers/core_feature_eclic.h ****  * - nlbits is used to set the width of level in the CLICINTCTL[i].
 255:../Firmware/RISCV/drivers/core_feature_eclic.h ****  * \sa
 256:../Firmware/RISCV/drivers/core_feature_eclic.h ****  * - \ref ECLIC_GetCfgNlbits
 257:../Firmware/RISCV/drivers/core_feature_eclic.h ****  */
 258:../Firmware/RISCV/drivers/core_feature_eclic.h **** __STATIC_FORCEINLINE void __ECLIC_SetCfgNlbits(uint32_t nlbits)
 259:../Firmware/RISCV/drivers/core_feature_eclic.h **** {
 260:../Firmware/RISCV/drivers/core_feature_eclic.h ****     ECLIC->CFG &= ~CLIC_CLICCFG_NLBIT_Msk;
 261:../Firmware/RISCV/drivers/core_feature_eclic.h ****     ECLIC->CFG |= (uint8_t)((nlbits <<CLIC_CLICCFG_NLBIT_Pos) & CLIC_CLICCFG_NLBIT_Msk);
 262:../Firmware/RISCV/drivers/core_feature_eclic.h **** }
 263:../Firmware/RISCV/drivers/core_feature_eclic.h **** 
 264:../Firmware/RISCV/drivers/core_feature_eclic.h **** /**
 265:../Firmware/RISCV/drivers/core_feature_eclic.h ****  * \brief  Get nlbits value
 266:../Firmware/RISCV/drivers/core_feature_eclic.h ****  * \details
 267:../Firmware/RISCV/drivers/core_feature_eclic.h ****  * This function get the nlbits value of CLICCFG register.
 268:../Firmware/RISCV/drivers/core_feature_eclic.h ****  * \return   nlbits value of CLICCFG register
 269:../Firmware/RISCV/drivers/core_feature_eclic.h ****  * \remarks
 270:../Firmware/RISCV/drivers/core_feature_eclic.h ****  * - nlbits is used to set the width of level in the CLICINTCTL[i].
 271:../Firmware/RISCV/drivers/core_feature_eclic.h ****  * \sa
 272:../Firmware/RISCV/drivers/core_feature_eclic.h ****  * - \ref ECLIC_SetCfgNlbits
 273:../Firmware/RISCV/drivers/core_feature_eclic.h ****  */
 274:../Firmware/RISCV/drivers/core_feature_eclic.h **** __STATIC_FORCEINLINE uint32_t __ECLIC_GetCfgNlbits(void)
 275:../Firmware/RISCV/drivers/core_feature_eclic.h **** {
 276:../Firmware/RISCV/drivers/core_feature_eclic.h ****     return ((uint32_t)((ECLIC->CFG & CLIC_CLICCFG_NLBIT_Msk) >> CLIC_CLICCFG_NLBIT_Pos));
 277:../Firmware/RISCV/drivers/core_feature_eclic.h **** }
 278:../Firmware/RISCV/drivers/core_feature_eclic.h **** 
 279:../Firmware/RISCV/drivers/core_feature_eclic.h **** /**
 280:../Firmware/RISCV/drivers/core_feature_eclic.h ****  * \brief  Get the ECLIC version number
 281:../Firmware/RISCV/drivers/core_feature_eclic.h ****  * \details
 282:../Firmware/RISCV/drivers/core_feature_eclic.h ****  * This function gets the hardware version information from CLICINFO register.
 283:../Firmware/RISCV/drivers/core_feature_eclic.h ****  * \return   hardware version number in CLICINFO register.
 284:../Firmware/RISCV/drivers/core_feature_eclic.h ****  * \remarks
 285:../Firmware/RISCV/drivers/core_feature_eclic.h ****  * - This function gets harware version information from CLICINFO register.
 286:../Firmware/RISCV/drivers/core_feature_eclic.h ****  * - Bit 20:17 for architecture version, bit 16:13 for implementation version.
 287:../Firmware/RISCV/drivers/core_feature_eclic.h ****  * \sa
 288:../Firmware/RISCV/drivers/core_feature_eclic.h ****  * - \ref ECLIC_GetInfoNum
 289:../Firmware/RISCV/drivers/core_feature_eclic.h **** */
 290:../Firmware/RISCV/drivers/core_feature_eclic.h **** __STATIC_FORCEINLINE uint32_t __ECLIC_GetInfoVer(void)
 291:../Firmware/RISCV/drivers/core_feature_eclic.h **** {
 292:../Firmware/RISCV/drivers/core_feature_eclic.h ****     return ((uint32_t)((ECLIC->INFO & CLIC_CLICINFO_VER_Msk) >> CLIC_CLICINFO_VER_Pos));
 293:../Firmware/RISCV/drivers/core_feature_eclic.h **** }
 294:../Firmware/RISCV/drivers/core_feature_eclic.h **** 
 295:../Firmware/RISCV/drivers/core_feature_eclic.h **** /**
 296:../Firmware/RISCV/drivers/core_feature_eclic.h ****  * \brief  Get CLICINTCTLBITS
 297:../Firmware/RISCV/drivers/core_feature_eclic.h ****  * \details
 298:../Firmware/RISCV/drivers/core_feature_eclic.h ****  * This function gets CLICINTCTLBITS from CLICINFO register.
 299:../Firmware/RISCV/drivers/core_feature_eclic.h ****  * \return  CLICINTCTLBITS from CLICINFO register.
 300:../Firmware/RISCV/drivers/core_feature_eclic.h ****  * \remarks
 301:../Firmware/RISCV/drivers/core_feature_eclic.h ****  * - In the CLICINTCTL[i] registers, with 2 <= CLICINTCTLBITS <= 8.
 302:../Firmware/RISCV/drivers/core_feature_eclic.h ****  * - The implemented bits are kept left-justified in the most-significant bits of each 8-bit
 303:../Firmware/RISCV/drivers/core_feature_eclic.h ****  *   CLICINTCTL[I] register, with the lower unimplemented bits treated as hardwired to 1.
 304:../Firmware/RISCV/drivers/core_feature_eclic.h ****  * \sa
 305:../Firmware/RISCV/drivers/core_feature_eclic.h ****  * - \ref ECLIC_GetInfoNum
 306:../Firmware/RISCV/drivers/core_feature_eclic.h ****  */
 307:../Firmware/RISCV/drivers/core_feature_eclic.h **** __STATIC_FORCEINLINE uint32_t __ECLIC_GetInfoCtlbits(void)
 308:../Firmware/RISCV/drivers/core_feature_eclic.h **** {
 309:../Firmware/RISCV/drivers/core_feature_eclic.h ****     return ((uint32_t)((ECLIC->INFO & CLIC_CLICINFO_CTLBIT_Msk) >> CLIC_CLICINFO_CTLBIT_Pos));
 310:../Firmware/RISCV/drivers/core_feature_eclic.h **** }
 311:../Firmware/RISCV/drivers/core_feature_eclic.h **** 
 312:../Firmware/RISCV/drivers/core_feature_eclic.h **** /**
 313:../Firmware/RISCV/drivers/core_feature_eclic.h ****  * \brief  Get number of maximum interrupt inputs supported
 314:../Firmware/RISCV/drivers/core_feature_eclic.h ****  * \details
 315:../Firmware/RISCV/drivers/core_feature_eclic.h ****  * This function gets number of maximum interrupt inputs supported from CLICINFO register.
 316:../Firmware/RISCV/drivers/core_feature_eclic.h ****  * \return  number of maximum interrupt inputs supported from CLICINFO register.
 317:../Firmware/RISCV/drivers/core_feature_eclic.h ****  * \remarks
 318:../Firmware/RISCV/drivers/core_feature_eclic.h ****  * - This function gets number of maximum interrupt inputs supported from CLICINFO register.
 319:../Firmware/RISCV/drivers/core_feature_eclic.h ****  * - The num_interrupt field specifies the actual number of maximum interrupt inputs supported in t
 320:../Firmware/RISCV/drivers/core_feature_eclic.h ****  * \sa
 321:../Firmware/RISCV/drivers/core_feature_eclic.h ****  * - \ref ECLIC_GetInfoCtlbits
 322:../Firmware/RISCV/drivers/core_feature_eclic.h ****  */
 323:../Firmware/RISCV/drivers/core_feature_eclic.h **** __STATIC_FORCEINLINE uint32_t __ECLIC_GetInfoNum(void)
 324:../Firmware/RISCV/drivers/core_feature_eclic.h **** {
 325:../Firmware/RISCV/drivers/core_feature_eclic.h ****     return ((uint32_t)((ECLIC->INFO & CLIC_CLICINFO_NUM_Msk) >> CLIC_CLICINFO_NUM_Pos));
 326:../Firmware/RISCV/drivers/core_feature_eclic.h **** }
 327:../Firmware/RISCV/drivers/core_feature_eclic.h **** 
 328:../Firmware/RISCV/drivers/core_feature_eclic.h **** /**
 329:../Firmware/RISCV/drivers/core_feature_eclic.h ****  * \brief  Set Machine Mode Interrupt Level Threshold
 330:../Firmware/RISCV/drivers/core_feature_eclic.h ****  * \details
 331:../Firmware/RISCV/drivers/core_feature_eclic.h ****  * This function sets machine mode interrupt level threshold.
 332:../Firmware/RISCV/drivers/core_feature_eclic.h ****  * \param [in]  mth       Interrupt Level Threshold.
 333:../Firmware/RISCV/drivers/core_feature_eclic.h ****  * \sa
 334:../Firmware/RISCV/drivers/core_feature_eclic.h ****  * - \ref ECLIC_GetMth
 335:../Firmware/RISCV/drivers/core_feature_eclic.h ****  */
 336:../Firmware/RISCV/drivers/core_feature_eclic.h **** __STATIC_FORCEINLINE void __ECLIC_SetMth(uint8_t mth)
 337:../Firmware/RISCV/drivers/core_feature_eclic.h **** {
 338:../Firmware/RISCV/drivers/core_feature_eclic.h ****     ECLIC->MTH = mth;
 339:../Firmware/RISCV/drivers/core_feature_eclic.h **** }
 340:../Firmware/RISCV/drivers/core_feature_eclic.h **** 
 341:../Firmware/RISCV/drivers/core_feature_eclic.h **** /**
 342:../Firmware/RISCV/drivers/core_feature_eclic.h ****  * \brief  Get Machine Mode Interrupt Level Threshold
 343:../Firmware/RISCV/drivers/core_feature_eclic.h ****  * \details
 344:../Firmware/RISCV/drivers/core_feature_eclic.h ****  * This function gets machine mode interrupt level threshold.
 345:../Firmware/RISCV/drivers/core_feature_eclic.h ****  * \return       Interrupt Level Threshold.
 346:../Firmware/RISCV/drivers/core_feature_eclic.h ****  * \sa
 347:../Firmware/RISCV/drivers/core_feature_eclic.h ****  * - \ref ECLIC_SetMth
 348:../Firmware/RISCV/drivers/core_feature_eclic.h ****  */
 349:../Firmware/RISCV/drivers/core_feature_eclic.h **** __STATIC_FORCEINLINE uint8_t __ECLIC_GetMth(void)
 350:../Firmware/RISCV/drivers/core_feature_eclic.h **** {
 351:../Firmware/RISCV/drivers/core_feature_eclic.h ****     return (ECLIC->MTH);
 352:../Firmware/RISCV/drivers/core_feature_eclic.h **** }
 353:../Firmware/RISCV/drivers/core_feature_eclic.h **** 
 354:../Firmware/RISCV/drivers/core_feature_eclic.h **** 
 355:../Firmware/RISCV/drivers/core_feature_eclic.h **** /**
 356:../Firmware/RISCV/drivers/core_feature_eclic.h ****  * \brief  Enable a specific interrupt
 357:../Firmware/RISCV/drivers/core_feature_eclic.h ****  * \details
 358:../Firmware/RISCV/drivers/core_feature_eclic.h ****  * This function enables the specific interrupt \em IRQn.
 359:../Firmware/RISCV/drivers/core_feature_eclic.h ****  * \param [in]  IRQn  Interrupt number
 360:../Firmware/RISCV/drivers/core_feature_eclic.h ****  * \remarks
 361:../Firmware/RISCV/drivers/core_feature_eclic.h ****  * - IRQn must not be negative.
 362:../Firmware/RISCV/drivers/core_feature_eclic.h ****  * \sa
 363:../Firmware/RISCV/drivers/core_feature_eclic.h ****  * - \ref ECLIC_DisableIRQ
 364:../Firmware/RISCV/drivers/core_feature_eclic.h ****  */
 365:../Firmware/RISCV/drivers/core_feature_eclic.h **** __STATIC_FORCEINLINE void __ECLIC_EnableIRQ(IRQn_Type IRQn)
 366:../Firmware/RISCV/drivers/core_feature_eclic.h **** {
 367:../Firmware/RISCV/drivers/core_feature_eclic.h ****     ECLIC->CTRL[IRQn].INTIE |= CLIC_INTIE_IE_Msk;
 368:../Firmware/RISCV/drivers/core_feature_eclic.h **** }
 369:../Firmware/RISCV/drivers/core_feature_eclic.h **** 
 370:../Firmware/RISCV/drivers/core_feature_eclic.h **** /**
 371:../Firmware/RISCV/drivers/core_feature_eclic.h ****  * \brief  Get a specific interrupt enable status
 372:../Firmware/RISCV/drivers/core_feature_eclic.h ****  * \details
 373:../Firmware/RISCV/drivers/core_feature_eclic.h ****  * This function returns the interrupt enable status for the specific interrupt \em IRQn.
 374:../Firmware/RISCV/drivers/core_feature_eclic.h ****  * \param [in]  IRQn  Interrupt number
 375:../Firmware/RISCV/drivers/core_feature_eclic.h ****  * \returns
 376:../Firmware/RISCV/drivers/core_feature_eclic.h ****  * - 0  Interrupt is not enabled
 377:../Firmware/RISCV/drivers/core_feature_eclic.h ****  * - 1  Interrupt is pending
 378:../Firmware/RISCV/drivers/core_feature_eclic.h ****  * \remarks
 379:../Firmware/RISCV/drivers/core_feature_eclic.h ****  * - IRQn must not be negative.
 380:../Firmware/RISCV/drivers/core_feature_eclic.h ****  * \sa
 381:../Firmware/RISCV/drivers/core_feature_eclic.h ****  * - \ref ECLIC_EnableIRQ
 382:../Firmware/RISCV/drivers/core_feature_eclic.h ****  * - \ref ECLIC_DisableIRQ
 383:../Firmware/RISCV/drivers/core_feature_eclic.h ****  */
 384:../Firmware/RISCV/drivers/core_feature_eclic.h **** __STATIC_FORCEINLINE uint32_t __ECLIC_GetEnableIRQ(IRQn_Type IRQn)
 385:../Firmware/RISCV/drivers/core_feature_eclic.h **** {
 386:../Firmware/RISCV/drivers/core_feature_eclic.h ****     return((uint32_t) (ECLIC->CTRL[IRQn].INTIE) & CLIC_INTIE_IE_Msk);
 387:../Firmware/RISCV/drivers/core_feature_eclic.h **** }
 388:../Firmware/RISCV/drivers/core_feature_eclic.h **** 
 389:../Firmware/RISCV/drivers/core_feature_eclic.h **** /**
 390:../Firmware/RISCV/drivers/core_feature_eclic.h ****  * \brief  Disable a specific interrupt
 391:../Firmware/RISCV/drivers/core_feature_eclic.h ****  * \details
 392:../Firmware/RISCV/drivers/core_feature_eclic.h ****  * This function disables the specific interrupt \em IRQn.
 393:../Firmware/RISCV/drivers/core_feature_eclic.h ****  * \param [in]  IRQn  Number of the external interrupt to disable
 394:../Firmware/RISCV/drivers/core_feature_eclic.h ****  * \remarks
 395:../Firmware/RISCV/drivers/core_feature_eclic.h ****  * - IRQn must not be negative.
 396:../Firmware/RISCV/drivers/core_feature_eclic.h ****  * \sa
 397:../Firmware/RISCV/drivers/core_feature_eclic.h ****  * - \ref ECLIC_EnableIRQ
 398:../Firmware/RISCV/drivers/core_feature_eclic.h ****  */
 399:../Firmware/RISCV/drivers/core_feature_eclic.h **** __STATIC_FORCEINLINE void __ECLIC_DisableIRQ(IRQn_Type IRQn)
 400:../Firmware/RISCV/drivers/core_feature_eclic.h **** {
 401:../Firmware/RISCV/drivers/core_feature_eclic.h ****     ECLIC->CTRL[IRQn].INTIE &= ~CLIC_INTIE_IE_Msk;
 402:../Firmware/RISCV/drivers/core_feature_eclic.h **** }
 403:../Firmware/RISCV/drivers/core_feature_eclic.h **** 
 404:../Firmware/RISCV/drivers/core_feature_eclic.h **** /**
 405:../Firmware/RISCV/drivers/core_feature_eclic.h ****  * \brief  Get the pending specific interrupt
 406:../Firmware/RISCV/drivers/core_feature_eclic.h ****  * \details
 407:../Firmware/RISCV/drivers/core_feature_eclic.h ****  * This function returns the pending status of the specific interrupt \em IRQn.
 408:../Firmware/RISCV/drivers/core_feature_eclic.h ****  * \param [in]      IRQn  Interrupt number
 409:../Firmware/RISCV/drivers/core_feature_eclic.h ****  * \returns
 410:../Firmware/RISCV/drivers/core_feature_eclic.h ****  * - 0  Interrupt is not pending
 411:../Firmware/RISCV/drivers/core_feature_eclic.h ****  * - 1  Interrupt is pending
 412:../Firmware/RISCV/drivers/core_feature_eclic.h ****  * \remarks
 413:../Firmware/RISCV/drivers/core_feature_eclic.h ****  * - IRQn must not be negative.
 414:../Firmware/RISCV/drivers/core_feature_eclic.h ****  * \sa
 415:../Firmware/RISCV/drivers/core_feature_eclic.h ****  * - \ref ECLIC_SetPendingIRQ
 416:../Firmware/RISCV/drivers/core_feature_eclic.h ****  * - \ref ECLIC_ClearPendingIRQ
 417:../Firmware/RISCV/drivers/core_feature_eclic.h ****  */
 418:../Firmware/RISCV/drivers/core_feature_eclic.h **** __STATIC_FORCEINLINE int32_t __ECLIC_GetPendingIRQ(IRQn_Type IRQn)
 419:../Firmware/RISCV/drivers/core_feature_eclic.h **** {
 420:../Firmware/RISCV/drivers/core_feature_eclic.h ****     return((uint32_t)(ECLIC->CTRL[IRQn].INTIP) & CLIC_INTIP_IP_Msk);
 421:../Firmware/RISCV/drivers/core_feature_eclic.h **** }
 422:../Firmware/RISCV/drivers/core_feature_eclic.h **** 
 423:../Firmware/RISCV/drivers/core_feature_eclic.h **** /**
 424:../Firmware/RISCV/drivers/core_feature_eclic.h ****  * \brief  Set a specific interrupt to pending
 425:../Firmware/RISCV/drivers/core_feature_eclic.h ****  * \details
 426:../Firmware/RISCV/drivers/core_feature_eclic.h ****  * This function sets the pending bit for the specific interrupt \em IRQn.
 427:../Firmware/RISCV/drivers/core_feature_eclic.h ****  * \param [in]      IRQn  Interrupt number
 428:../Firmware/RISCV/drivers/core_feature_eclic.h ****  * \remarks
 429:../Firmware/RISCV/drivers/core_feature_eclic.h ****  * - IRQn must not be negative.
 430:../Firmware/RISCV/drivers/core_feature_eclic.h ****  * \sa
 431:../Firmware/RISCV/drivers/core_feature_eclic.h ****  * - \ref ECLIC_GetPendingIRQ
 432:../Firmware/RISCV/drivers/core_feature_eclic.h ****  * - \ref ECLIC_ClearPendingIRQ
 433:../Firmware/RISCV/drivers/core_feature_eclic.h ****  */
 434:../Firmware/RISCV/drivers/core_feature_eclic.h **** __STATIC_FORCEINLINE void __ECLIC_SetPendingIRQ(IRQn_Type IRQn)
 435:../Firmware/RISCV/drivers/core_feature_eclic.h **** {
 436:../Firmware/RISCV/drivers/core_feature_eclic.h ****     ECLIC->CTRL[IRQn].INTIP |= CLIC_INTIP_IP_Msk;
 437:../Firmware/RISCV/drivers/core_feature_eclic.h **** }
 438:../Firmware/RISCV/drivers/core_feature_eclic.h **** 
 439:../Firmware/RISCV/drivers/core_feature_eclic.h **** /**
 440:../Firmware/RISCV/drivers/core_feature_eclic.h ****  * \brief  Clear a specific interrupt from pending
 441:../Firmware/RISCV/drivers/core_feature_eclic.h ****  * \details
 442:../Firmware/RISCV/drivers/core_feature_eclic.h ****  * This function removes the pending state of the specific interrupt \em IRQn.
 443:../Firmware/RISCV/drivers/core_feature_eclic.h ****  * \em IRQn cannot be a negative number.
 444:../Firmware/RISCV/drivers/core_feature_eclic.h ****  * \param [in]      IRQn  Interrupt number
 445:../Firmware/RISCV/drivers/core_feature_eclic.h ****  * \remarks
 446:../Firmware/RISCV/drivers/core_feature_eclic.h ****  * - IRQn must not be negative.
 447:../Firmware/RISCV/drivers/core_feature_eclic.h ****  * \sa
 448:../Firmware/RISCV/drivers/core_feature_eclic.h ****  * - \ref ECLIC_SetPendingIRQ
 449:../Firmware/RISCV/drivers/core_feature_eclic.h ****  * - \ref ECLIC_GetPendingIRQ
 450:../Firmware/RISCV/drivers/core_feature_eclic.h ****  */
 451:../Firmware/RISCV/drivers/core_feature_eclic.h **** __STATIC_FORCEINLINE void __ECLIC_ClearPendingIRQ(IRQn_Type IRQn)
 452:../Firmware/RISCV/drivers/core_feature_eclic.h **** {
 453:../Firmware/RISCV/drivers/core_feature_eclic.h ****     ECLIC->CTRL[IRQn].INTIP &= ~ CLIC_INTIP_IP_Msk;
  31              		.loc 2 453 29
  32 000e 370700D2 		li	a4,-771751936
  33 0012 8327C4FE 		lw	a5,-20(s0)
  34 0016 93870740 		addi	a5,a5,1024
  35 001a 8A07     		slli	a5,a5,2
  36 001c BA97     		add	a5,a4,a5
  37 001e 83C70700 		lbu	a5,0(a5)
  38 0022 93F7F70F 		andi	a5,a5,0xff
  39 0026 B70600D2 		li	a3,-771751936
  40 002a F99B     		andi	a5,a5,-2
  41 002c 13F7F70F 		andi	a4,a5,0xff
  42 0030 8327C4FE 		lw	a5,-20(s0)
  43 0034 93870740 		addi	a5,a5,1024
  44 0038 8A07     		slli	a5,a5,2
  45 003a B697     		add	a5,a3,a5
  46 003c 2380E700 		sb	a4,0(a5)
 454:../Firmware/RISCV/drivers/core_feature_eclic.h **** }
  47              		.loc 2 454 1
  48 0040 0100     		nop
  49              	.LBE5:
  50              	.LBE4:
  47:../src/gd32vw55x_it.c ****     ECLIC_ClearPendingIRQ(CLIC_INT_TMR);
  48:../src/gd32vw55x_it.c ****     led_spark();
  51              		.loc 1 48 5
  52 0042 97000000 		call	led_spark
  52      E7800000 
  49:../src/gd32vw55x_it.c ****     delay_decrement();
  53              		.loc 1 49 5
  54 004a 97000000 		call	delay_decrement
  54      E7800000 
  50:../src/gd32vw55x_it.c **** }
  55              		.loc 1 50 1
  56 0052 0100     		nop
  57 0054 F240     		lw	ra,28(sp)
  58              		.cfi_restore 1
  59 0056 6244     		lw	s0,24(sp)
  60              		.cfi_restore 8
  61              		.cfi_def_cfa 2, 32
  62 0058 0561     		addi	sp,sp,32
  63              		.cfi_def_cfa_offset 0
  64 005a 8280     		jr	ra
  65              		.cfi_endproc
  66              	.LFE347:
  68              		.text
  69              	.Letext0:
  70              		.file 3 "e:\\gd32\\gd32embeddedbuilder_v1.5.2.30854\\tools\\nuclei_riscv_newlibc_prebuilt_win32_20
  71              		.file 4 "e:\\gd32\\gd32embeddedbuilder_v1.5.2.30854\\tools\\nuclei_riscv_newlibc_prebuilt_win32_20
  72              		.file 5 "../Firmware/GD32VW55x_standard_peripheral/gd32vw55x.h"