   1              		.file	"gd32vw553h_eval.c"
   2              		.option nopic
   3              		.attribute arch, "rv32i2p0_m2p0_a2p0_c2p0"
   4              		.attribute unaligned_access, 0
   5              		.attribute stack_align, 16
   6              		.text
   7              	.Ltext0:
   8              		.cfi_sections	.debug_frame
   9              		.section	.data.GPIO_PORT,"aw"
  10              		.align	2
  13              	GPIO_PORT:
  14 0000 00000240 		.word	1073872896
  15 0004 00000240 		.word	1073872896
  16 0008 00000240 		.word	1073872896
  17              		.section	.data.GPIO_PIN,"aw"
  18              		.align	2
  21              	GPIO_PIN:
  22 0000 10000000 		.word	16
  23 0004 20000000 		.word	32
  24 0008 40000000 		.word	64
  25              		.section	.sdata.COM_CLK,"aw"
  26              		.align	2
  29              	COM_CLK:
  30 0000 12100000 		.word	4114
  31              		.section	.sdata.COM_TX_PIN,"aw"
  32              		.align	2
  35              	COM_TX_PIN:
  36 0000 00800000 		.word	32768
  37              		.section	.sdata.COM_RX_PIN,"aw"
  38              		.align	2
  41              	COM_RX_PIN:
  42 0000 00010000 		.word	256
  43              		.section	.data.GPIO_CLK,"aw"
  44              		.align	2
  47              	GPIO_CLK:
  48 0000 000C0000 		.word	3072
  49 0004 000C0000 		.word	3072
  50 0008 000C0000 		.word	3072
  51              		.section	.sdata.KEY_PORT,"aw"
  52              		.align	2
  55              	KEY_PORT:
  56 0000 00000240 		.word	1073872896
  57              		.section	.sdata.KEY_PIN,"aw"
  58              		.align	2
  61              	KEY_PIN:
  62 0000 01000000 		.word	1
  63              		.section	.sdata.KEY_CLK,"aw"
  64              		.align	2
  67              	KEY_CLK:
  68 0000 000C0000 		.word	3072
  69              		.section	.sdata.KEY_EXTI_LINE,"aw"
  70              		.align	2
  73              	KEY_EXTI_LINE:
  74 0000 01000000 		.word	1
  75              		.section	.sbss.KEY_PORT_SOURCE,"aw",@nobits
  76              		.align	2
  79              	KEY_PORT_SOURCE:
  80 0000 00       		.zero	1
  81              		.section	.sbss.KEY_PIN_SOURCE,"aw",@nobits
  82              		.align	2
  85              	KEY_PIN_SOURCE:
  86 0000 00       		.zero	1
  87              		.section	.sdata.KEY_IRQn,"aw"
  88              		.align	2
  91              	KEY_IRQn:
  92 0000 19000000 		.word	25
  93              		.section	.text.gd_eval_led_init,"ax",@progbits
  94              		.align	1
  95              		.globl	gd_eval_led_init
  97              	gd_eval_led_init:
  98              	.LFB347:
  99              		.file 1 "../src/gd32vw553h_eval.c"
   1:../src/gd32vw553h_eval.c **** /*!
   2:../src/gd32vw553h_eval.c ****     \file    gd32vw55x_eval.c
   3:../src/gd32vw553h_eval.c ****     \brief   firmware functions to manage leds, keys, COM ports
   4:../src/gd32vw553h_eval.c **** 
   5:../src/gd32vw553h_eval.c ****     \version 2025-01-16, V1.4.0, firmware for GD32VW55x
   6:../src/gd32vw553h_eval.c **** */
   7:../src/gd32vw553h_eval.c **** 
   8:../src/gd32vw553h_eval.c **** /*
   9:../src/gd32vw553h_eval.c ****     Copyright (c) 2025, GigaDevice Semiconductor Inc.
  10:../src/gd32vw553h_eval.c **** 
  11:../src/gd32vw553h_eval.c ****     Redistribution and use in source and binary forms, with or without modification,
  12:../src/gd32vw553h_eval.c **** are permitted provided that the following conditions are met:
  13:../src/gd32vw553h_eval.c **** 
  14:../src/gd32vw553h_eval.c ****     1. Redistributions of source code must retain the above copyright notice, this
  15:../src/gd32vw553h_eval.c ****        list of conditions and the following disclaimer.
  16:../src/gd32vw553h_eval.c ****     2. Redistributions in binary form must reproduce the above copyright notice,
  17:../src/gd32vw553h_eval.c ****        this list of conditions and the following disclaimer in the documentation
  18:../src/gd32vw553h_eval.c ****        and/or other materials provided with the distribution.
  19:../src/gd32vw553h_eval.c ****     3. Neither the name of the copyright holder nor the names of its contributors
  20:../src/gd32vw553h_eval.c ****        may be used to endorse or promote products derived from this software without
  21:../src/gd32vw553h_eval.c ****        specific prior written permission.
  22:../src/gd32vw553h_eval.c **** 
  23:../src/gd32vw553h_eval.c ****     THIS SOFTWARE IS PROVIDED BY THE COPYRIGHT HOLDERS AND CONTRIBUTORS "AS IS"
  24:../src/gd32vw553h_eval.c **** AND ANY EXPRESS OR IMPLIED WARRANTIES, INCLUDING, BUT NOT LIMITED TO, THE IMPLIED
  25:../src/gd32vw553h_eval.c **** WARRANTIES OF MERCHANTABILITY AND FITNESS FOR A PARTICULAR PURPOSE ARE DISCLAIMED.
  26:../src/gd32vw553h_eval.c **** IN NO EVENT SHALL THE COPYRIGHT HOLDER OR CONTRIBUTORS BE LIABLE FOR ANY DIRECT,
  27:../src/gd32vw553h_eval.c **** INDIRECT, INCIDENTAL, SPECIAL, EXEMPLARY, OR CONSEQUENTIAL DAMAGES (INCLUDING, BUT
  28:../src/gd32vw553h_eval.c **** NOT LIMITED TO, PROCUREMENT OF SUBSTITUTE GOODS OR SERVICES; LOSS OF USE, DATA, OR
  29:../src/gd32vw553h_eval.c **** PROFITS; OR BUSINESS INTERRUPTION) HOWEVER CAUSED AND ON ANY THEORY OF LIABILITY,
  30:../src/gd32vw553h_eval.c **** WHETHER IN CONTRACT, STRICT LIABILITY, OR TORT (INCLUDING NEGLIGENCE OR OTHERWISE)
  31:../src/gd32vw553h_eval.c **** ARISING IN ANY WAY OUT OF THE USE OF THIS SOFTWARE, EVEN IF ADVISED OF THE POSSIBILITY
  32:../src/gd32vw553h_eval.c **** OF SUCH DAMAGE.
  33:../src/gd32vw553h_eval.c **** */
  34:../src/gd32vw553h_eval.c **** 
  35:../src/gd32vw553h_eval.c **** #include "gd32vw553h_eval.h"
  36:../src/gd32vw553h_eval.c **** 
  37:../src/gd32vw553h_eval.c **** /* private variables */
  38:../src/gd32vw553h_eval.c **** static uint32_t GPIO_PORT[LEDn] = {LED1_GPIO_PORT, LED2_GPIO_PORT,
  39:../src/gd32vw553h_eval.c ****                                    LED3_GPIO_PORT};
  40:../src/gd32vw553h_eval.c **** static uint32_t GPIO_PIN[LEDn] = {LED1_PIN, LED2_PIN, LED3_PIN};
  41:../src/gd32vw553h_eval.c **** 
  42:../src/gd32vw553h_eval.c **** static rcu_periph_enum COM_CLK[COMn] = {EVAL_COM0_CLK};
  43:../src/gd32vw553h_eval.c **** static uint32_t COM_TX_PIN[COMn] = {EVAL_COM0_TX_PIN};
  44:../src/gd32vw553h_eval.c **** static uint32_t COM_RX_PIN[COMn] = {EVAL_COM0_RX_PIN};
  45:../src/gd32vw553h_eval.c **** 
  46:../src/gd32vw553h_eval.c **** static rcu_periph_enum GPIO_CLK[LEDn] = {LED1_GPIO_CLK, LED2_GPIO_CLK,
  47:../src/gd32vw553h_eval.c ****                                          LED3_GPIO_CLK};
  48:../src/gd32vw553h_eval.c **** 
  49:../src/gd32vw553h_eval.c **** static uint32_t KEY_PORT[KEYn] = {TAMPER_WAKEUP_KEY_GPIO_PORT};
  50:../src/gd32vw553h_eval.c **** static uint32_t KEY_PIN[KEYn] = {TAMPER_WAKEUP_KEY_PIN};
  51:../src/gd32vw553h_eval.c **** static rcu_periph_enum KEY_CLK[KEYn] = {TAMPER_WAKEUP_KEY_GPIO_CLK};
  52:../src/gd32vw553h_eval.c **** static exti_line_enum KEY_EXTI_LINE[KEYn] = {TAMPER_WAKEUP_KEY_EXTI_LINE};
  53:../src/gd32vw553h_eval.c **** static uint8_t KEY_PORT_SOURCE[KEYn] = {TAMPER_WAKEUP_KEY_EXTI_PORT_SOURCE};
  54:../src/gd32vw553h_eval.c **** static uint8_t KEY_PIN_SOURCE[KEYn] = {TAMPER_WAKEUP_KEY_EXTI_PIN_SOURCE};
  55:../src/gd32vw553h_eval.c **** static IRQn_Type KEY_IRQn[KEYn] = {TAMPER_WAKEUP_KEY_EXTI_IRQn};
  56:../src/gd32vw553h_eval.c **** 
  57:../src/gd32vw553h_eval.c **** /*!
  58:../src/gd32vw553h_eval.c ****     \brief      configure led GPIO
  59:../src/gd32vw553h_eval.c ****     \param[in]  lednum: specify the Led to be configured
  60:../src/gd32vw553h_eval.c ****       \arg        LED1
  61:../src/gd32vw553h_eval.c ****       \arg        LED2
  62:../src/gd32vw553h_eval.c ****       \arg        LED3
  63:../src/gd32vw553h_eval.c ****     \param[out] none
  64:../src/gd32vw553h_eval.c ****     \retval     none
  65:../src/gd32vw553h_eval.c **** */
  66:../src/gd32vw553h_eval.c **** void  gd_eval_led_init (led_typedef_enum lednum)
  67:../src/gd32vw553h_eval.c **** {
 100              		.loc 1 67 1
 101              		.cfi_startproc
 102 0000 0111     		addi	sp,sp,-32
 103              		.cfi_def_cfa_offset 32
 104 0002 06CE     		sw	ra,28(sp)
 105 0004 22CC     		sw	s0,24(sp)
 106              		.cfi_offset 1, -4
 107              		.cfi_offset 8, -8
 108 0006 0010     		addi	s0,sp,32
 109              		.cfi_def_cfa 8, 0
 110 0008 2326A4FE 		sw	a0,-20(s0)
  68:../src/gd32vw553h_eval.c ****     /* enable the led clock */
  69:../src/gd32vw553h_eval.c ****     rcu_periph_clock_enable(GPIO_CLK[lednum]);
 111              		.loc 1 69 5
 112 000c 17070000 		lla	a4,GPIO_CLK
 112      13070700 
 113 0014 8327C4FE 		lw	a5,-20(s0)
 114 0018 8A07     		slli	a5,a5,2
 115 001a BA97     		add	a5,a4,a5
 116 001c 9C43     		lw	a5,0(a5)
 117 001e 3E85     		mv	a0,a5
 118 0020 97000000 		call	rcu_periph_clock_enable
 118      E7800000 
  70:../src/gd32vw553h_eval.c ****     /* configure led GPIO port */
  71:../src/gd32vw553h_eval.c ****     gpio_mode_set(GPIO_PORT[lednum], GPIO_MODE_OUTPUT, GPIO_PUPD_NONE,GPIO_PIN[lednum]);
 119              		.loc 1 71 5
 120 0028 17070000 		lla	a4,GPIO_PORT
 120      13070700 
 121 0030 8327C4FE 		lw	a5,-20(s0)
 122 0034 8A07     		slli	a5,a5,2
 123 0036 BA97     		add	a5,a4,a5
 124 0038 8843     		lw	a0,0(a5)
 125 003a 17070000 		lla	a4,GPIO_PIN
 125      13070700 
 126 0042 8327C4FE 		lw	a5,-20(s0)
 127 0046 8A07     		slli	a5,a5,2
 128 0048 BA97     		add	a5,a4,a5
 129 004a 9C43     		lw	a5,0(a5)
 130 004c BE86     		mv	a3,a5
 131 004e 0146     		li	a2,0
 132 0050 8545     		li	a1,1
 133 0052 97000000 		call	gpio_mode_set
 133      E7800000 
  72:../src/gd32vw553h_eval.c ****     gpio_output_options_set(GPIO_PORT[lednum], GPIO_OTYPE_PP, GPIO_OSPEED_25MHZ,GPIO_PIN[lednum]);
 134              		.loc 1 72 5
 135 005a 17070000 		lla	a4,GPIO_PORT
 135      13070700 
 136 0062 8327C4FE 		lw	a5,-20(s0)
 137 0066 8A07     		slli	a5,a5,2
 138 0068 BA97     		add	a5,a4,a5
 139 006a 8843     		lw	a0,0(a5)
 140 006c 17070000 		lla	a4,GPIO_PIN
 140      13070700 
 141 0074 8327C4FE 		lw	a5,-20(s0)
 142 0078 8A07     		slli	a5,a5,2
 143 007a BA97     		add	a5,a4,a5
 144 007c 9C43     		lw	a5,0(a5)
 145 007e BE86     		mv	a3,a5
 146 0080 0946     		li	a2,2
 147 0082 8145     		li	a1,0
 148 0084 97000000 		call	gpio_output_options_set
 148      E7800000 
  73:../src/gd32vw553h_eval.c **** 
  74:../src/gd32vw553h_eval.c ****     GPIO_BC(GPIO_PORT[lednum]) = GPIO_PIN[lednum];
 149              		.loc 1 74 5
 150 008c 17070000 		lla	a4,GPIO_PORT
 150      13070700 
 151 0094 8327C4FE 		lw	a5,-20(s0)
 152 0098 8A07     		slli	a5,a5,2
 153 009a BA97     		add	a5,a4,a5
 154 009c 9C43     		lw	a5,0(a5)
 155 009e 93878702 		addi	a5,a5,40
 156 00a2 BE86     		mv	a3,a5
 157              		.loc 1 74 42
 158 00a4 17070000 		lla	a4,GPIO_PIN
 158      13070700 
 159 00ac 8327C4FE 		lw	a5,-20(s0)
 160 00b0 8A07     		slli	a5,a5,2
 161 00b2 BA97     		add	a5,a4,a5
 162 00b4 9C43     		lw	a5,0(a5)
 163              		.loc 1 74 32
 164 00b6 9CC2     		sw	a5,0(a3)
  75:../src/gd32vw553h_eval.c **** }
 165              		.loc 1 75 1
 166 00b8 0100     		nop
 167 00ba F240     		lw	ra,28(sp)
 168              		.cfi_restore 1
 169 00bc 6244     		lw	s0,24(sp)
 170              		.cfi_restore 8
 171              		.cfi_def_cfa 2, 32
 172 00be 0561     		addi	sp,sp,32
 173              		.cfi_def_cfa_offset 0
 174 00c0 8280     		jr	ra
 175              		.cfi_endproc
 176              	.LFE347:
 178              		.section	.text.gd_eval_led_on,"ax",@progbits
 179              		.align	1
 180              		.globl	gd_eval_led_on
 182              	gd_eval_led_on:
 183              	.LFB348:
  76:../src/gd32vw553h_eval.c **** 
  77:../src/gd32vw553h_eval.c **** /*!
  78:../src/gd32vw553h_eval.c ****     \brief      turn on selected led
  79:../src/gd32vw553h_eval.c ****     \param[in]  lednum: specify the Led to be turned on
  80:../src/gd32vw553h_eval.c ****       \arg        LED1
  81:../src/gd32vw553h_eval.c ****       \arg        LED2
  82:../src/gd32vw553h_eval.c ****       \arg        LED3
  83:../src/gd32vw553h_eval.c ****     \param[out] none
  84:../src/gd32vw553h_eval.c ****     \retval     none
  85:../src/gd32vw553h_eval.c **** */
  86:../src/gd32vw553h_eval.c **** void gd_eval_led_on(led_typedef_enum lednum)
  87:../src/gd32vw553h_eval.c **** {
 184              		.loc 1 87 1
 185              		.cfi_startproc
 186 0000 0111     		addi	sp,sp,-32
 187              		.cfi_def_cfa_offset 32
 188 0002 22CE     		sw	s0,28(sp)
 189              		.cfi_offset 8, -4
 190 0004 0010     		addi	s0,sp,32
 191              		.cfi_def_cfa 8, 0
 192 0006 2326A4FE 		sw	a0,-20(s0)
  88:../src/gd32vw553h_eval.c ****     GPIO_BOP(GPIO_PORT[lednum]) = GPIO_PIN[lednum];
 193              		.loc 1 88 5
 194 000a 17070000 		lla	a4,GPIO_PORT
 194      13070700 
 195 0012 8327C4FE 		lw	a5,-20(s0)
 196 0016 8A07     		slli	a5,a5,2
 197 0018 BA97     		add	a5,a4,a5
 198 001a 9C43     		lw	a5,0(a5)
 199 001c E107     		addi	a5,a5,24
 200 001e BE86     		mv	a3,a5
 201              		.loc 1 88 43
 202 0020 17070000 		lla	a4,GPIO_PIN
 202      13070700 
 203 0028 8327C4FE 		lw	a5,-20(s0)
 204 002c 8A07     		slli	a5,a5,2
 205 002e BA97     		add	a5,a4,a5
 206 0030 9C43     		lw	a5,0(a5)
 207              		.loc 1 88 33
 208 0032 9CC2     		sw	a5,0(a3)
  89:../src/gd32vw553h_eval.c **** }
 209              		.loc 1 89 1
 210 0034 0100     		nop
 211 0036 7244     		lw	s0,28(sp)
 212              		.cfi_restore 8
 213              		.cfi_def_cfa 2, 32
 214 0038 0561     		addi	sp,sp,32
 215              		.cfi_def_cfa_offset 0
 216 003a 8280     		jr	ra
 217              		.cfi_endproc
 218              	.LFE348:
 220              		.section	.text.gd_eval_led_off,"ax",@progbits
 221              		.align	1
 222              		.globl	gd_eval_led_off
 224              	gd_eval_led_off:
 225              	.LFB349:
  90:../src/gd32vw553h_eval.c **** 
  91:../src/gd32vw553h_eval.c **** /*!
  92:../src/gd32vw553h_eval.c ****     \brief      turn off selected led
  93:../src/gd32vw553h_eval.c ****     \param[in]  lednum: specify the Led to be turned off
  94:../src/gd32vw553h_eval.c ****       \arg        LED1
  95:../src/gd32vw553h_eval.c ****       \arg        LED2
  96:../src/gd32vw553h_eval.c ****       \arg        LED3
  97:../src/gd32vw553h_eval.c ****     \param[out] none
  98:../src/gd32vw553h_eval.c ****     \retval     none
  99:../src/gd32vw553h_eval.c **** */
 100:../src/gd32vw553h_eval.c **** void gd_eval_led_off(led_typedef_enum lednum)
 101:../src/gd32vw553h_eval.c **** {
 226              		.loc 1 101 1
 227              		.cfi_startproc
 228 0000 0111     		addi	sp,sp,-32
 229              		.cfi_def_cfa_offset 32
 230 0002 22CE     		sw	s0,28(sp)
 231              		.cfi_offset 8, -4
 232 0004 0010     		addi	s0,sp,32
 233              		.cfi_def_cfa 8, 0
 234 0006 2326A4FE 		sw	a0,-20(s0)
 102:../src/gd32vw553h_eval.c ****     GPIO_BC(GPIO_PORT[lednum]) = GPIO_PIN[lednum];
 235              		.loc 1 102 5
 236 000a 17070000 		lla	a4,GPIO_PORT
 236      13070700 
 237 0012 8327C4FE 		lw	a5,-20(s0)
 238 0016 8A07     		slli	a5,a5,2
 239 0018 BA97     		add	a5,a4,a5
 240 001a 9C43     		lw	a5,0(a5)
 241 001c 93878702 		addi	a5,a5,40
 242 0020 BE86     		mv	a3,a5
 243              		.loc 1 102 42
 244 0022 17070000 		lla	a4,GPIO_PIN
 244      13070700 
 245 002a 8327C4FE 		lw	a5,-20(s0)
 246 002e 8A07     		slli	a5,a5,2
 247 0030 BA97     		add	a5,a4,a5
 248 0032 9C43     		lw	a5,0(a5)
 249              		.loc 1 102 32
 250 0034 9CC2     		sw	a5,0(a3)
 103:../src/gd32vw553h_eval.c **** }
 251              		.loc 1 103 1
 252 0036 0100     		nop
 253 0038 7244     		lw	s0,28(sp)
 254              		.cfi_restore 8
 255              		.cfi_def_cfa 2, 32
 256 003a 0561     		addi	sp,sp,32
 257              		.cfi_def_cfa_offset 0
 258 003c 8280     		jr	ra
 259              		.cfi_endproc
 260              	.LFE349:
 262              		.section	.text.gd_eval_led_toggle,"ax",@progbits
 263              		.align	1
 264              		.globl	gd_eval_led_toggle
 266              	gd_eval_led_toggle:
 267              	.LFB350:
 104:../src/gd32vw553h_eval.c **** 
 105:../src/gd32vw553h_eval.c **** /*!
 106:../src/gd32vw553h_eval.c ****     \brief      toggle selected led
 107:../src/gd32vw553h_eval.c ****     \param[in]  lednum: specify the Led to be toggled
 108:../src/gd32vw553h_eval.c ****       \arg        LED1
 109:../src/gd32vw553h_eval.c ****       \arg        LED2
 110:../src/gd32vw553h_eval.c ****       \arg        LED3
 111:../src/gd32vw553h_eval.c ****     \param[out] none
 112:../src/gd32vw553h_eval.c ****     \retval     none
 113:../src/gd32vw553h_eval.c **** */
 114:../src/gd32vw553h_eval.c **** void gd_eval_led_toggle(led_typedef_enum lednum)
 115:../src/gd32vw553h_eval.c **** {
 268              		.loc 1 115 1
 269              		.cfi_startproc
 270 0000 0111     		addi	sp,sp,-32
 271              		.cfi_def_cfa_offset 32
 272 0002 22CE     		sw	s0,28(sp)
 273              		.cfi_offset 8, -4
 274 0004 0010     		addi	s0,sp,32
 275              		.cfi_def_cfa 8, 0
 276 0006 2326A4FE 		sw	a0,-20(s0)
 116:../src/gd32vw553h_eval.c ****     GPIO_TG(GPIO_PORT[lednum]) = GPIO_PIN[lednum];
 277              		.loc 1 116 5
 278 000a 17070000 		lla	a4,GPIO_PORT
 278      13070700 
 279 0012 8327C4FE 		lw	a5,-20(s0)
 280 0016 8A07     		slli	a5,a5,2
 281 0018 BA97     		add	a5,a4,a5
 282 001a 9C43     		lw	a5,0(a5)
 283 001c 9387C702 		addi	a5,a5,44
 284 0020 BE86     		mv	a3,a5
 285              		.loc 1 116 42
 286 0022 17070000 		lla	a4,GPIO_PIN
 286      13070700 
 287 002a 8327C4FE 		lw	a5,-20(s0)
 288 002e 8A07     		slli	a5,a5,2
 289 0030 BA97     		add	a5,a4,a5
 290 0032 9C43     		lw	a5,0(a5)
 291              		.loc 1 116 32
 292 0034 9CC2     		sw	a5,0(a3)
 117:../src/gd32vw553h_eval.c **** }
 293              		.loc 1 117 1
 294 0036 0100     		nop
 295 0038 7244     		lw	s0,28(sp)
 296              		.cfi_restore 8
 297              		.cfi_def_cfa 2, 32
 298 003a 0561     		addi	sp,sp,32
 299              		.cfi_def_cfa_offset 0
 300 003c 8280     		jr	ra
 301              		.cfi_endproc
 302              	.LFE350:
 304              		.section	.text.gd_eval_key_init,"ax",@progbits
 305              		.align	1
 306              		.globl	gd_eval_key_init
 308              	gd_eval_key_init:
 309              	.LFB351:
 118:../src/gd32vw553h_eval.c **** 
 119:../src/gd32vw553h_eval.c **** /*!
 120:../src/gd32vw553h_eval.c ****     \brief      configure key
 121:../src/gd32vw553h_eval.c ****     \param[in]  key_num: specify the key to be configured
 122:../src/gd32vw553h_eval.c ****       \arg        KEY_TAMPER_WAKEUP: tamper_wakeup key
 123:../src/gd32vw553h_eval.c ****     \param[in]  key_mode: specify button mode
 124:../src/gd32vw553h_eval.c ****       \arg        KEY_MODE_GPIO: key will be used as simple IO
 125:../src/gd32vw553h_eval.c ****       \arg        KEY_MODE_EXTI: key will be connected to EXTI line with interrupt
 126:../src/gd32vw553h_eval.c ****     \param[out] none
 127:../src/gd32vw553h_eval.c ****     \retval     none
 128:../src/gd32vw553h_eval.c **** */
 129:../src/gd32vw553h_eval.c **** void gd_eval_key_init(key_typedef_enum key_num, keymode_typedef_enum key_mode)
 130:../src/gd32vw553h_eval.c **** {
 310              		.loc 1 130 1
 311              		.cfi_startproc
 312 0000 0111     		addi	sp,sp,-32
 313              		.cfi_def_cfa_offset 32
 314 0002 06CE     		sw	ra,28(sp)
 315 0004 22CC     		sw	s0,24(sp)
 316              		.cfi_offset 1, -4
 317              		.cfi_offset 8, -8
 318 0006 0010     		addi	s0,sp,32
 319              		.cfi_def_cfa 8, 0
 320 0008 2326A4FE 		sw	a0,-20(s0)
 321 000c 2324B4FE 		sw	a1,-24(s0)
 131:../src/gd32vw553h_eval.c ****     /* enable the key clock */
 132:../src/gd32vw553h_eval.c ****     rcu_periph_clock_enable(KEY_CLK[key_num]);
 322              		.loc 1 132 5
 323 0010 17070000 		lla	a4,KEY_CLK
 323      13070700 
 324 0018 8327C4FE 		lw	a5,-20(s0)
 325 001c 8A07     		slli	a5,a5,2
 326 001e BA97     		add	a5,a4,a5
 327 0020 9C43     		lw	a5,0(a5)
 328 0022 3E85     		mv	a0,a5
 329 0024 97000000 		call	rcu_periph_clock_enable
 329      E7800000 
 133:../src/gd32vw553h_eval.c ****     rcu_periph_clock_enable(RCU_SYSCFG);
 330              		.loc 1 133 5
 331 002c 8567     		li	a5,4096
 332 002e 1385E710 		addi	a0,a5,270
 333 0032 97000000 		call	rcu_periph_clock_enable
 333      E7800000 
 134:../src/gd32vw553h_eval.c **** 
 135:../src/gd32vw553h_eval.c ****     /* configure button pin as input */
 136:../src/gd32vw553h_eval.c ****     gpio_mode_set(KEY_PORT[key_num], GPIO_MODE_INPUT, GPIO_PUPD_NONE, KEY_PIN[key_num]);
 334              		.loc 1 136 5
 335 003a 17070000 		lla	a4,KEY_PORT
 335      13070700 
 336 0042 8327C4FE 		lw	a5,-20(s0)
 337 0046 8A07     		slli	a5,a5,2
 338 0048 BA97     		add	a5,a4,a5
 339 004a 8843     		lw	a0,0(a5)
 340 004c 17070000 		lla	a4,KEY_PIN
 340      13070700 
 341 0054 8327C4FE 		lw	a5,-20(s0)
 342 0058 8A07     		slli	a5,a5,2
 343 005a BA97     		add	a5,a4,a5
 344 005c 9C43     		lw	a5,0(a5)
 345 005e BE86     		mv	a3,a5
 346 0060 0146     		li	a2,0
 347 0062 8145     		li	a1,0
 348 0064 97000000 		call	gpio_mode_set
 348      E7800000 
 137:../src/gd32vw553h_eval.c **** 
 138:../src/gd32vw553h_eval.c ****     if(key_mode == KEY_MODE_EXTI){
 349              		.loc 1 138 7
 350 006c 032784FE 		lw	a4,-24(s0)
 351 0070 8547     		li	a5,1
 352 0072 631DF708 		bne	a4,a5,.L7
 139:../src/gd32vw553h_eval.c ****         /* enable and set key EXTI interrupt to the lowest priority */
 140:../src/gd32vw553h_eval.c ****         eclic_priority_group_set(ECLIC_PRIGROUP_LEVEL3_PRIO1);
 353              		.loc 1 140 9
 354 0076 0D45     		li	a0,3
 355 0078 97000000 		call	eclic_priority_group_set
 355      E7800000 
 141:../src/gd32vw553h_eval.c ****         eclic_irq_enable(KEY_IRQn[key_num],1, 1);
 356              		.loc 1 141 9
 357 0080 17070000 		lla	a4,KEY_IRQn
 357      13070700 
 358 0088 8327C4FE 		lw	a5,-20(s0)
 359 008c 8A07     		slli	a5,a5,2
 360 008e BA97     		add	a5,a4,a5
 361 0090 9C43     		lw	a5,0(a5)
 362 0092 0546     		li	a2,1
 363 0094 8545     		li	a1,1
 364 0096 3E85     		mv	a0,a5
 365 0098 97000000 		call	eclic_irq_enable
 365      E7800000 
 142:../src/gd32vw553h_eval.c **** 
 143:../src/gd32vw553h_eval.c ****         /* connect key EXTI line to key GPIO pin */
 144:../src/gd32vw553h_eval.c ****         syscfg_exti_line_config(KEY_PORT_SOURCE[key_num], KEY_PIN_SOURCE[key_num]);
 366              		.loc 1 144 9
 367 00a0 17070000 		lla	a4,KEY_PORT_SOURCE
 367      13070700 
 368 00a8 8327C4FE 		lw	a5,-20(s0)
 369 00ac BA97     		add	a5,a4,a5
 370 00ae 83C60700 		lbu	a3,0(a5)
 371 00b2 17070000 		lla	a4,KEY_PIN_SOURCE
 371      13070700 
 372 00ba 8327C4FE 		lw	a5,-20(s0)
 373 00be BA97     		add	a5,a4,a5
 374 00c0 83C70700 		lbu	a5,0(a5)
 375 00c4 BE85     		mv	a1,a5
 376 00c6 3685     		mv	a0,a3
 377 00c8 97000000 		call	syscfg_exti_line_config
 377      E7800000 
 145:../src/gd32vw553h_eval.c **** 
 146:../src/gd32vw553h_eval.c ****         /* configure key EXTI line */
 147:../src/gd32vw553h_eval.c ****         exti_init(KEY_EXTI_LINE[key_num], EXTI_INTERRUPT, EXTI_TRIG_FALLING);
 378              		.loc 1 147 9
 379 00d0 17070000 		lla	a4,KEY_EXTI_LINE
 379      13070700 
 380 00d8 8327C4FE 		lw	a5,-20(s0)
 381 00dc 8A07     		slli	a5,a5,2
 382 00de BA97     		add	a5,a4,a5
 383 00e0 9C43     		lw	a5,0(a5)
 384 00e2 0546     		li	a2,1
 385 00e4 8145     		li	a1,0
 386 00e6 3E85     		mv	a0,a5
 387 00e8 97000000 		call	exti_init
 387      E7800000 
 148:../src/gd32vw553h_eval.c ****         exti_interrupt_flag_clear(KEY_EXTI_LINE[key_num]);
 388              		.loc 1 148 9
 389 00f0 17070000 		lla	a4,KEY_EXTI_LINE
 389      13070700 
 390 00f8 8327C4FE 		lw	a5,-20(s0)
 391 00fc 8A07     		slli	a5,a5,2
 392 00fe BA97     		add	a5,a4,a5
 393 0100 9C43     		lw	a5,0(a5)
 394 0102 3E85     		mv	a0,a5
 395 0104 97000000 		call	exti_interrupt_flag_clear
 395      E7800000 
 396              	.L7:
 149:../src/gd32vw553h_eval.c ****     }
 150:../src/gd32vw553h_eval.c **** }
 397              		.loc 1 150 1
 398 010c 0100     		nop
 399 010e F240     		lw	ra,28(sp)
 400              		.cfi_restore 1
 401 0110 6244     		lw	s0,24(sp)
 402              		.cfi_restore 8
 403              		.cfi_def_cfa 2, 32
 404 0112 0561     		addi	sp,sp,32
 405              		.cfi_def_cfa_offset 0
 406 0114 8280     		jr	ra
 407              		.cfi_endproc
 408              	.LFE351:
 410              		.section	.text.gd_eval_key_state_get,"ax",@progbits
 411              		.align	1
 412              		.globl	gd_eval_key_state_get
 414              	gd_eval_key_state_get:
 415              	.LFB352:
 151:../src/gd32vw553h_eval.c **** 
 152:../src/gd32vw553h_eval.c **** /*!
 153:../src/gd32vw553h_eval.c ****     \brief      return the selected button state
 154:../src/gd32vw553h_eval.c ****     \param[in]  button: specify the button to be checked
 155:../src/gd32vw553h_eval.c ****       \arg        KEY_TAMPER_WAKEUP: tamper_wakeup key
 156:../src/gd32vw553h_eval.c ****     \param[out] none
 157:../src/gd32vw553h_eval.c ****     \retval     the button GPIO pin value
 158:../src/gd32vw553h_eval.c **** */
 159:../src/gd32vw553h_eval.c **** uint8_t gd_eval_key_state_get(key_typedef_enum button)
 160:../src/gd32vw553h_eval.c **** {
 416              		.loc 1 160 1
 417              		.cfi_startproc
 418 0000 0111     		addi	sp,sp,-32
 419              		.cfi_def_cfa_offset 32
 420 0002 06CE     		sw	ra,28(sp)
 421 0004 22CC     		sw	s0,24(sp)
 422              		.cfi_offset 1, -4
 423              		.cfi_offset 8, -8
 424 0006 0010     		addi	s0,sp,32
 425              		.cfi_def_cfa 8, 0
 426 0008 2326A4FE 		sw	a0,-20(s0)
 161:../src/gd32vw553h_eval.c ****     return gpio_input_bit_get(KEY_PORT[button], KEY_PIN[button]);
 427              		.loc 1 161 12
 428 000c 17070000 		lla	a4,KEY_PORT
 428      13070700 
 429 0014 8327C4FE 		lw	a5,-20(s0)
 430 0018 8A07     		slli	a5,a5,2
 431 001a BA97     		add	a5,a4,a5
 432 001c 9443     		lw	a3,0(a5)
 433 001e 17070000 		lla	a4,KEY_PIN
 433      13070700 
 434 0026 8327C4FE 		lw	a5,-20(s0)
 435 002a 8A07     		slli	a5,a5,2
 436 002c BA97     		add	a5,a4,a5
 437 002e 9C43     		lw	a5,0(a5)
 438 0030 BE85     		mv	a1,a5
 439 0032 3685     		mv	a0,a3
 440 0034 97000000 		call	gpio_input_bit_get
 440      E7800000 
 441 003c AA87     		mv	a5,a0
 442 003e 93F7F70F 		andi	a5,a5,0xff
 162:../src/gd32vw553h_eval.c **** }
 443              		.loc 1 162 1
 444 0042 3E85     		mv	a0,a5
 445 0044 F240     		lw	ra,28(sp)
 446              		.cfi_restore 1
 447 0046 6244     		lw	s0,24(sp)
 448              		.cfi_restore 8
 449              		.cfi_def_cfa 2, 32
 450 0048 0561     		addi	sp,sp,32
 451              		.cfi_def_cfa_offset 0
 452 004a 8280     		jr	ra
 453              		.cfi_endproc
 454              	.LFE352:
 456              		.section	.text.gd_eval_com_init,"ax",@progbits
 457              		.align	1
 458              		.globl	gd_eval_com_init
 460              	gd_eval_com_init:
 461              	.LFB353:
 163:../src/gd32vw553h_eval.c **** 
 164:../src/gd32vw553h_eval.c **** /*!
 165:../src/gd32vw553h_eval.c ****     \brief      configure COM port
 166:../src/gd32vw553h_eval.c ****     \param[in]  COM: COM on the board
 167:../src/gd32vw553h_eval.c ****       \arg        EVAL_COM0: COM on the board
 168:../src/gd32vw553h_eval.c ****     \param[out] none
 169:../src/gd32vw553h_eval.c ****     \retval     none
 170:../src/gd32vw553h_eval.c **** */
 171:../src/gd32vw553h_eval.c **** void gd_eval_com_init(uint32_t com)
 172:../src/gd32vw553h_eval.c **** {
 462              		.loc 1 172 1
 463              		.cfi_startproc
 464 0000 7971     		addi	sp,sp,-48
 465              		.cfi_def_cfa_offset 48
 466 0002 06D6     		sw	ra,44(sp)
 467 0004 22D4     		sw	s0,40(sp)
 468              		.cfi_offset 1, -4
 469              		.cfi_offset 8, -8
 470 0006 0018     		addi	s0,sp,48
 471              		.cfi_def_cfa 8, 0
 472 0008 232EA4FC 		sw	a0,-36(s0)
 173:../src/gd32vw553h_eval.c ****     /* enable GPIO clock */
 174:../src/gd32vw553h_eval.c ****     uint32_t COM_ID = 0U;
 473              		.loc 1 174 14
 474 000c 232604FE 		sw	zero,-20(s0)
 175:../src/gd32vw553h_eval.c ****     if(EVAL_COM0 == com)
 475              		.loc 1 175 7
 476 0010 0327C4FD 		lw	a4,-36(s0)
 477 0014 B7570040 		li	a5,1073762304
 478 0018 93870780 		addi	a5,a5,-2048
 479 001c 6314F700 		bne	a4,a5,.L11
 176:../src/gd32vw553h_eval.c ****     {
 177:../src/gd32vw553h_eval.c ****         COM_ID = 0U;
 480              		.loc 1 177 16
 481 0020 232604FE 		sw	zero,-20(s0)
 482              	.L11:
 178:../src/gd32vw553h_eval.c ****     }
 179:../src/gd32vw553h_eval.c **** 
 180:../src/gd32vw553h_eval.c ****     rcu_periph_clock_enable(EVAL_COM0_TX_GPIO_CLK);
 483              		.loc 1 180 5
 484 0024 8567     		li	a5,4096
 485 0026 138517C0 		addi	a0,a5,-1023
 486 002a 97000000 		call	rcu_periph_clock_enable
 486      E7800000 
 181:../src/gd32vw553h_eval.c ****     rcu_periph_clock_enable(EVAL_COM0_RX_GPIO_CLK);
 487              		.loc 1 181 5
 488 0032 8567     		li	a5,4096
 489 0034 138507C0 		addi	a0,a5,-1024
 490 0038 97000000 		call	rcu_periph_clock_enable
 490      E7800000 
 182:../src/gd32vw553h_eval.c **** 
 183:../src/gd32vw553h_eval.c ****     /* enable USART clock */
 184:../src/gd32vw553h_eval.c ****     rcu_periph_clock_enable(COM_CLK[COM_ID]);
 491              		.loc 1 184 5
 492 0040 17070000 		lla	a4,COM_CLK
 492      13070700 
 493 0048 8327C4FE 		lw	a5,-20(s0)
 494 004c 8A07     		slli	a5,a5,2
 495 004e BA97     		add	a5,a4,a5
 496 0050 9C43     		lw	a5,0(a5)
 497 0052 3E85     		mv	a0,a5
 498 0054 97000000 		call	rcu_periph_clock_enable
 498      E7800000 
 185:../src/gd32vw553h_eval.c **** 
 186:../src/gd32vw553h_eval.c ****     /* connect port to USARTx_Tx */
 187:../src/gd32vw553h_eval.c ****     gpio_af_set(EVAL_COM0_TX_GPIO_PORT, EVAL_COM0_TX_AF, COM_TX_PIN[COM_ID]);
 499              		.loc 1 187 5
 500 005c 17070000 		lla	a4,COM_TX_PIN
 500      13070700 
 501 0064 8327C4FE 		lw	a5,-20(s0)
 502 0068 8A07     		slli	a5,a5,2
 503 006a BA97     		add	a5,a4,a5
 504 006c 9C43     		lw	a5,0(a5)
 505 006e 3E86     		mv	a2,a5
 506 0070 A145     		li	a1,8
 507 0072 B7070240 		li	a5,1073872896
 508 0076 13850740 		addi	a0,a5,1024
 509 007a 97000000 		call	gpio_af_set
 509      E7800000 
 188:../src/gd32vw553h_eval.c **** 
 189:../src/gd32vw553h_eval.c ****     /* connect port to USARTx_Rx */
 190:../src/gd32vw553h_eval.c ****     gpio_af_set(EVAL_COM0_RX_GPIO_PORT, EVAL_COM0_RX_AF, COM_RX_PIN[COM_ID]);
 510              		.loc 1 190 5
 511 0082 17070000 		lla	a4,COM_RX_PIN
 511      13070700 
 512 008a 8327C4FE 		lw	a5,-20(s0)
 513 008e 8A07     		slli	a5,a5,2
 514 0090 BA97     		add	a5,a4,a5
 515 0092 9C43     		lw	a5,0(a5)
 516 0094 3E86     		mv	a2,a5
 517 0096 8945     		li	a1,2
 518 0098 37050240 		li	a0,1073872896
 519 009c 97000000 		call	gpio_af_set
 519      E7800000 
 191:../src/gd32vw553h_eval.c **** 
 192:../src/gd32vw553h_eval.c ****     /* configure USART Tx as alternate function push-pull */
 193:../src/gd32vw553h_eval.c ****     gpio_mode_set(EVAL_COM0_TX_GPIO_PORT, GPIO_MODE_AF, GPIO_PUPD_PULLUP, COM_TX_PIN[COM_ID]);
 520              		.loc 1 193 5
 521 00a4 17070000 		lla	a4,COM_TX_PIN
 521      13070700 
 522 00ac 8327C4FE 		lw	a5,-20(s0)
 523 00b0 8A07     		slli	a5,a5,2
 524 00b2 BA97     		add	a5,a4,a5
 525 00b4 9C43     		lw	a5,0(a5)
 526 00b6 BE86     		mv	a3,a5
 527 00b8 0546     		li	a2,1
 528 00ba 8945     		li	a1,2
 529 00bc B7070240 		li	a5,1073872896
 530 00c0 13850740 		addi	a0,a5,1024
 531 00c4 97000000 		call	gpio_mode_set
 531      E7800000 
 194:../src/gd32vw553h_eval.c ****     gpio_output_options_set(EVAL_COM0_TX_GPIO_PORT, GPIO_OTYPE_PP, GPIO_OSPEED_25MHZ, COM_TX_PIN[CO
 532              		.loc 1 194 5
 533 00cc 17070000 		lla	a4,COM_TX_PIN
 533      13070700 
 534 00d4 8327C4FE 		lw	a5,-20(s0)
 535 00d8 8A07     		slli	a5,a5,2
 536 00da BA97     		add	a5,a4,a5
 537 00dc 9C43     		lw	a5,0(a5)
 538 00de BE86     		mv	a3,a5
 539 00e0 0946     		li	a2,2
 540 00e2 8145     		li	a1,0
 541 00e4 B7070240 		li	a5,1073872896
 542 00e8 13850740 		addi	a0,a5,1024
 543 00ec 97000000 		call	gpio_output_options_set
 543      E7800000 
 195:../src/gd32vw553h_eval.c **** 
 196:../src/gd32vw553h_eval.c ****     /* configure USART Rx as alternate function push-pull */
 197:../src/gd32vw553h_eval.c ****     gpio_mode_set(EVAL_COM0_RX_GPIO_PORT, GPIO_MODE_AF, GPIO_PUPD_PULLUP, COM_RX_PIN[COM_ID]);
 544              		.loc 1 197 5
 545 00f4 17070000 		lla	a4,COM_RX_PIN
 545      13070700 
 546 00fc 8327C4FE 		lw	a5,-20(s0)
 547 0100 8A07     		slli	a5,a5,2
 548 0102 BA97     		add	a5,a4,a5
 549 0104 9C43     		lw	a5,0(a5)
 550 0106 BE86     		mv	a3,a5
 551 0108 0546     		li	a2,1
 552 010a 8945     		li	a1,2
 553 010c 37050240 		li	a0,1073872896
 554 0110 97000000 		call	gpio_mode_set
 554      E7800000 
 198:../src/gd32vw553h_eval.c ****     gpio_output_options_set(EVAL_COM0_RX_GPIO_PORT, GPIO_OTYPE_PP, GPIO_OSPEED_25MHZ, COM_RX_PIN[CO
 555              		.loc 1 198 5
 556 0118 17070000 		lla	a4,COM_RX_PIN
 556      13070700 
 557 0120 8327C4FE 		lw	a5,-20(s0)
 558 0124 8A07     		slli	a5,a5,2
 559 0126 BA97     		add	a5,a4,a5
 560 0128 9C43     		lw	a5,0(a5)
 561 012a BE86     		mv	a3,a5
 562 012c 0946     		li	a2,2
 563 012e 8145     		li	a1,0
 564 0130 37050240 		li	a0,1073872896
 565 0134 97000000 		call	gpio_output_options_set
 565      E7800000 
 199:../src/gd32vw553h_eval.c **** 
 200:../src/gd32vw553h_eval.c ****     /* USART configure */
 201:../src/gd32vw553h_eval.c ****     usart_deinit(com);
 566              		.loc 1 201 5
 567 013c 0325C4FD 		lw	a0,-36(s0)
 568 0140 97000000 		call	usart_deinit
 568      E7800000 
 202:../src/gd32vw553h_eval.c ****     usart_baudrate_set(com, 115200U);
 569              		.loc 1 202 5
 570 0148 F167     		li	a5,114688
 571 014a 93850720 		addi	a1,a5,512
 572 014e 0325C4FD 		lw	a0,-36(s0)
 573 0152 97000000 		call	usart_baudrate_set
 573      E7800000 
 203:../src/gd32vw553h_eval.c ****     usart_receive_config(com, USART_RECEIVE_ENABLE);
 574              		.loc 1 203 5
 575 015a 9145     		li	a1,4
 576 015c 0325C4FD 		lw	a0,-36(s0)
 577 0160 97000000 		call	usart_receive_config
 577      E7800000 
 204:../src/gd32vw553h_eval.c ****     usart_transmit_config(com, USART_TRANSMIT_ENABLE);
 578              		.loc 1 204 5
 579 0168 A145     		li	a1,8
 580 016a 0325C4FD 		lw	a0,-36(s0)
 581 016e 97000000 		call	usart_transmit_config
 581      E7800000 
 205:../src/gd32vw553h_eval.c ****     usart_enable(com);
 582              		.loc 1 205 5
 583 0176 0325C4FD 		lw	a0,-36(s0)
 584 017a 97000000 		call	usart_enable
 584      E7800000 
 206:../src/gd32vw553h_eval.c **** }
 585              		.loc 1 206 1
 586 0182 0100     		nop
 587 0184 B250     		lw	ra,44(sp)
 588              		.cfi_restore 1
 589 0186 2254     		lw	s0,40(sp)
 590              		.cfi_restore 8
 591              		.cfi_def_cfa 2, 48
 592 0188 4561     		addi	sp,sp,48
 593              		.cfi_def_cfa_offset 0
 594 018a 8280     		jr	ra
 595              		.cfi_endproc
 596              	.LFE353:
 598              		.text
 599              	.Letext0:
 600              		.file 2 "e:\\gd32\\gd32embeddedbuilder_v1.5.2.30854\\tools\\nuclei_riscv_newlibc_prebuilt_win32_20
 601              		.file 3 "e:\\gd32\\gd32embeddedbuilder_v1.5.2.30854\\tools\\nuclei_riscv_newlibc_prebuilt_win32_20
 602              		.file 4 "../Firmware/GD32VW55x_standard_peripheral/gd32vw55x.h"
 603              		.file 5 "../Firmware/GD32VW55x_standard_peripheral/Include/gd32vw55x_exti.h"
 604              		.file 6 "../Firmware/GD32VW55x_standard_peripheral/Include/gd32vw55x_rcu.h"
 605              		.file 7 "../inc/gd32vw553h_eval.h"
DEFINED SYMBOLS
                            *ABS*:0000000000000000 gd32vw553h_eval.c
C:\Users\CYMR90~1\AppData\Local\Temp\ccYIfAxE.s:13     .data.GPIO_PORT:0000000000000000 GPIO_PORT
C:\Users\CYMR90~1\AppData\Local\Temp\ccYIfAxE.s:21     .data.GPIO_PIN:0000000000000000 GPIO_PIN
C:\Users\CYMR90~1\AppData\Local\Temp\ccYIfAxE.s:29     .sdata.COM_CLK:0000000000000000 COM_CLK
C:\Users\CYMR90~1\AppData\Local\Temp\ccYIfAxE.s:35     .sdata.COM_TX_PIN:0000000000000000 COM_TX_PIN
C:\Users\CYMR90~1\AppData\Local\Temp\ccYIfAxE.s:41     .sdata.COM_RX_PIN:0000000000000000 COM_RX_PIN
C:\Users\CYMR90~1\AppData\Local\Temp\ccYIfAxE.s:47     .data.GPIO_CLK:0000000000000000 GPIO_CLK
C:\Users\CYMR90~1\AppData\Local\Temp\ccYIfAxE.s:55     .sdata.KEY_PORT:0000000000000000 KEY_PORT
C:\Users\CYMR90~1\AppData\Local\Temp\ccYIfAxE.s:61     .sdata.KEY_PIN:0000000000000000 KEY_PIN
C:\Users\CYMR90~1\AppData\Local\Temp\ccYIfAxE.s:67     .sdata.KEY_CLK:0000000000000000 KEY_CLK
C:\Users\CYMR90~1\AppData\Local\Temp\ccYIfAxE.s:73     .sdata.KEY_EXTI_LINE:0000000000000000 KEY_EXTI_LINE
C:\Users\CYMR90~1\AppData\Local\Temp\ccYIfAxE.s:79     .sbss.KEY_PORT_SOURCE:0000000000000000 KEY_PORT_SOURCE
C:\Users\CYMR90~1\AppData\Local\Temp\ccYIfAxE.s:85     .sbss.KEY_PIN_SOURCE:0000000000000000 KEY_PIN_SOURCE
C:\Users\CYMR90~1\AppData\Local\Temp\ccYIfAxE.s:91     .sdata.KEY_IRQn:0000000000000000 KEY_IRQn
C:\Users\CYMR90~1\AppData\Local\Temp\ccYIfAxE.s:97     .text.gd_eval_led_init:0000000000000000 gd_eval_led_init
C:\Users\CYMR90~1\AppData\Local\Temp\ccYIfAxE.s:101    .text.gd_eval_led_init:0000000000000000 .L0 
C:\Users\CYMR90~1\AppData\Local\Temp\ccYIfAxE.s:102    .text.gd_eval_led_init:0000000000000000 .L0 
C:\Users\CYMR90~1\AppData\Local\Temp\ccYIfAxE.s:103    .text.gd_eval_led_init:0000000000000002 .L0 
C:\Users\CYMR90~1\AppData\Local\Temp\ccYIfAxE.s:106    .text.gd_eval_led_init:0000000000000006 .L0 
C:\Users\CYMR90~1\AppData\Local\Temp\ccYIfAxE.s:107    .text.gd_eval_led_init:0000000000000006 .L0 
C:\Users\CYMR90~1\AppData\Local\Temp\ccYIfAxE.s:109    .text.gd_eval_led_init:0000000000000008 .L0 
C:\Users\CYMR90~1\AppData\Local\Temp\ccYIfAxE.s:112    .text.gd_eval_led_init:000000000000000c .L0 
C:\Users\CYMR90~1\AppData\Local\Temp\ccYIfAxE.s:120    .text.gd_eval_led_init:0000000000000028 .L0 
C:\Users\CYMR90~1\AppData\Local\Temp\ccYIfAxE.s:135    .text.gd_eval_led_init:000000000000005a .L0 
C:\Users\CYMR90~1\AppData\Local\Temp\ccYIfAxE.s:150    .text.gd_eval_led_init:000000000000008c .L0 
C:\Users\CYMR90~1\AppData\Local\Temp\ccYIfAxE.s:158    .text.gd_eval_led_init:00000000000000a4 .L0 
C:\Users\CYMR90~1\AppData\Local\Temp\ccYIfAxE.s:164    .text.gd_eval_led_init:00000000000000b6 .L0 
C:\Users\CYMR90~1\AppData\Local\Temp\ccYIfAxE.s:166    .text.gd_eval_led_init:00000000000000b8 .L0 
C:\Users\CYMR90~1\AppData\Local\Temp\ccYIfAxE.s:168    .text.gd_eval_led_init:00000000000000bc .L0 
C:\Users\CYMR90~1\AppData\Local\Temp\ccYIfAxE.s:170    .text.gd_eval_led_init:00000000000000be .L0 
C:\Users\CYMR90~1\AppData\Local\Temp\ccYIfAxE.s:171    .text.gd_eval_led_init:00000000000000be .L0 
C:\Users\CYMR90~1\AppData\Local\Temp\ccYIfAxE.s:173    .text.gd_eval_led_init:00000000000000c0 .L0 
C:\Users\CYMR90~1\AppData\Local\Temp\ccYIfAxE.s:175    .text.gd_eval_led_init:00000000000000c2 .L0 
C:\Users\CYMR90~1\AppData\Local\Temp\ccYIfAxE.s:182    .text.gd_eval_led_on:0000000000000000 gd_eval_led_on
C:\Users\CYMR90~1\AppData\Local\Temp\ccYIfAxE.s:185    .text.gd_eval_led_on:0000000000000000 .L0 
C:\Users\CYMR90~1\AppData\Local\Temp\ccYIfAxE.s:186    .text.gd_eval_led_on:0000000000000000 .L0 
C:\Users\CYMR90~1\AppData\Local\Temp\ccYIfAxE.s:187    .text.gd_eval_led_on:0000000000000002 .L0 
C:\Users\CYMR90~1\AppData\Local\Temp\ccYIfAxE.s:189    .text.gd_eval_led_on:0000000000000004 .L0 
C:\Users\CYMR90~1\AppData\Local\Temp\ccYIfAxE.s:191    .text.gd_eval_led_on:0000000000000006 .L0 
C:\Users\CYMR90~1\AppData\Local\Temp\ccYIfAxE.s:194    .text.gd_eval_led_on:000000000000000a .L0 
C:\Users\CYMR90~1\AppData\Local\Temp\ccYIfAxE.s:202    .text.gd_eval_led_on:0000000000000020 .L0 
C:\Users\CYMR90~1\AppData\Local\Temp\ccYIfAxE.s:208    .text.gd_eval_led_on:0000000000000032 .L0 
C:\Users\CYMR90~1\AppData\Local\Temp\ccYIfAxE.s:210    .text.gd_eval_led_on:0000000000000034 .L0 
C:\Users\CYMR90~1\AppData\Local\Temp\ccYIfAxE.s:212    .text.gd_eval_led_on:0000000000000038 .L0 
C:\Users\CYMR90~1\AppData\Local\Temp\ccYIfAxE.s:213    .text.gd_eval_led_on:0000000000000038 .L0 
C:\Users\CYMR90~1\AppData\Local\Temp\ccYIfAxE.s:215    .text.gd_eval_led_on:000000000000003a .L0 
C:\Users\CYMR90~1\AppData\Local\Temp\ccYIfAxE.s:217    .text.gd_eval_led_on:000000000000003c .L0 
C:\Users\CYMR90~1\AppData\Local\Temp\ccYIfAxE.s:224    .text.gd_eval_led_off:0000000000000000 gd_eval_led_off
C:\Users\CYMR90~1\AppData\Local\Temp\ccYIfAxE.s:227    .text.gd_eval_led_off:0000000000000000 .L0 
C:\Users\CYMR90~1\AppData\Local\Temp\ccYIfAxE.s:228    .text.gd_eval_led_off:0000000000000000 .L0 
C:\Users\CYMR90~1\AppData\Local\Temp\ccYIfAxE.s:229    .text.gd_eval_led_off:0000000000000002 .L0 
C:\Users\CYMR90~1\AppData\Local\Temp\ccYIfAxE.s:231    .text.gd_eval_led_off:0000000000000004 .L0 
C:\Users\CYMR90~1\AppData\Local\Temp\ccYIfAxE.s:233    .text.gd_eval_led_off:0000000000000006 .L0 
C:\Users\CYMR90~1\AppData\Local\Temp\ccYIfAxE.s:236    .text.gd_eval_led_off:000000000000000a .L0 
C:\Users\CYMR90~1\AppData\Local\Temp\ccYIfAxE.s:244    .text.gd_eval_led_off:0000000000000022 .L0 
C:\Users\CYMR90~1\AppData\Local\Temp\ccYIfAxE.s:250    .text.gd_eval_led_off:0000000000000034 .L0 
C:\Users\CYMR90~1\AppData\Local\Temp\ccYIfAxE.s:252    .text.gd_eval_led_off:0000000000000036 .L0 
C:\Users\CYMR90~1\AppData\Local\Temp\ccYIfAxE.s:254    .text.gd_eval_led_off:000000000000003a .L0 
C:\Users\CYMR90~1\AppData\Local\Temp\ccYIfAxE.s:255    .text.gd_eval_led_off:000000000000003a .L0 
C:\Users\CYMR90~1\AppData\Local\Temp\ccYIfAxE.s:257    .text.gd_eval_led_off:000000000000003c .L0 
C:\Users\CYMR90~1\AppData\Local\Temp\ccYIfAxE.s:259    .text.gd_eval_led_off:000000000000003e .L0 
C:\Users\CYMR90~1\AppData\Local\Temp\ccYIfAxE.s:266    .text.gd_eval_led_toggle:0000000000000000 gd_eval_led_toggle
C:\Users\CYMR90~1\AppData\Local\Temp\ccYIfAxE.s:269    .text.gd_eval_led_toggle:0000000000000000 .L0 
C:\Users\CYMR90~1\AppData\Local\Temp\ccYIfAxE.s:270    .text.gd_eval_led_toggle:0000000000000000 .L0 
C:\Users\CYMR90~1\AppData\Local\Temp\ccYIfAxE.s:271    .text.gd_eval_led_toggle:0000000000000002 .L0 
C:\Users\CYMR90~1\AppData\Local\Temp\ccYIfAxE.s:273    .text.gd_eval_led_toggle:0000000000000004 .L0 
C:\Users\CYMR90~1\AppData\Local\Temp\ccYIfAxE.s:275    .text.gd_eval_led_toggle:0000000000000006 .L0 
C:\Users\CYMR90~1\AppData\Local\Temp\ccYIfAxE.s:278    .text.gd_eval_led_toggle:000000000000000a .L0 
C:\Users\CYMR90~1\AppData\Local\Temp\ccYIfAxE.s:286    .text.gd_eval_led_toggle:0000000000000022 .L0 
C:\Users\CYMR90~1\AppData\Local\Temp\ccYIfAxE.s:292    .text.gd_eval_led_toggle:0000000000000034 .L0 
C:\Users\CYMR90~1\AppData\Local\Temp\ccYIfAxE.s:294    .text.gd_eval_led_toggle:0000000000000036 .L0 
C:\Users\CYMR90~1\AppData\Local\Temp\ccYIfAxE.s:296    .text.gd_eval_led_toggle:000000000000003a .L0 
C:\Users\CYMR90~1\AppData\Local\Temp\ccYIfAxE.s:297    .text.gd_eval_led_toggle:000000000000003a .L0 
C:\Users\CYMR90~1\AppData\Local\Temp\ccYIfAxE.s:299    .text.gd_eval_led_toggle:000000000000003c .L0 
C:\Users\CYMR90~1\AppData\Local\Temp\ccYIfAxE.s:301    .text.gd_eval_led_toggle:000000000000003e .L0 
C:\Users\CYMR90~1\AppData\Local\Temp\ccYIfAxE.s:308    .text.gd_eval_key_init:0000000000000000 gd_eval_key_init
C:\Users\CYMR90~1\AppData\Local\Temp\ccYIfAxE.s:311    .text.gd_eval_key_init:0000000000000000 .L0 
C:\Users\CYMR90~1\AppData\Local\Temp\ccYIfAxE.s:312    .text.gd_eval_key_init:0000000000000000 .L0 
C:\Users\CYMR90~1\AppData\Local\Temp\ccYIfAxE.s:313    .text.gd_eval_key_init:0000000000000002 .L0 
C:\Users\CYMR90~1\AppData\Local\Temp\ccYIfAxE.s:316    .text.gd_eval_key_init:0000000000000006 .L0 
C:\Users\CYMR90~1\AppData\Local\Temp\ccYIfAxE.s:317    .text.gd_eval_key_init:0000000000000006 .L0 
C:\Users\CYMR90~1\AppData\Local\Temp\ccYIfAxE.s:319    .text.gd_eval_key_init:0000000000000008 .L0 
C:\Users\CYMR90~1\AppData\Local\Temp\ccYIfAxE.s:323    .text.gd_eval_key_init:0000000000000010 .L0 
C:\Users\CYMR90~1\AppData\Local\Temp\ccYIfAxE.s:331    .text.gd_eval_key_init:000000000000002c .L0 
C:\Users\CYMR90~1\AppData\Local\Temp\ccYIfAxE.s:335    .text.gd_eval_key_init:000000000000003a .L0 
C:\Users\CYMR90~1\AppData\Local\Temp\ccYIfAxE.s:350    .text.gd_eval_key_init:000000000000006c .L0 
C:\Users\CYMR90~1\AppData\Local\Temp\ccYIfAxE.s:354    .text.gd_eval_key_init:0000000000000076 .L0 
C:\Users\CYMR90~1\AppData\Local\Temp\ccYIfAxE.s:357    .text.gd_eval_key_init:0000000000000080 .L0 
C:\Users\CYMR90~1\AppData\Local\Temp\ccYIfAxE.s:367    .text.gd_eval_key_init:00000000000000a0 .L0 
C:\Users\CYMR90~1\AppData\Local\Temp\ccYIfAxE.s:379    .text.gd_eval_key_init:00000000000000d0 .L0 
C:\Users\CYMR90~1\AppData\Local\Temp\ccYIfAxE.s:389    .text.gd_eval_key_init:00000000000000f0 .L0 
C:\Users\CYMR90~1\AppData\Local\Temp\ccYIfAxE.s:398    .text.gd_eval_key_init:000000000000010c .L0 
C:\Users\CYMR90~1\AppData\Local\Temp\ccYIfAxE.s:400    .text.gd_eval_key_init:0000000000000110 .L0 
C:\Users\CYMR90~1\AppData\Local\Temp\ccYIfAxE.s:402    .text.gd_eval_key_init:0000000000000112 .L0 
C:\Users\CYMR90~1\AppData\Local\Temp\ccYIfAxE.s:403    .text.gd_eval_key_init:0000000000000112 .L0 
C:\Users\CYMR90~1\AppData\Local\Temp\ccYIfAxE.s:405    .text.gd_eval_key_init:0000000000000114 .L0 
C:\Users\CYMR90~1\AppData\Local\Temp\ccYIfAxE.s:407    .text.gd_eval_key_init:0000000000000116 .L0 
C:\Users\CYMR90~1\AppData\Local\Temp\ccYIfAxE.s:414    .text.gd_eval_key_state_get:0000000000000000 gd_eval_key_state_get
C:\Users\CYMR90~1\AppData\Local\Temp\ccYIfAxE.s:417    .text.gd_eval_key_state_get:0000000000000000 .L0 
C:\Users\CYMR90~1\AppData\Local\Temp\ccYIfAxE.s:418    .text.gd_eval_key_state_get:0000000000000000 .L0 
C:\Users\CYMR90~1\AppData\Local\Temp\ccYIfAxE.s:419    .text.gd_eval_key_state_get:0000000000000002 .L0 
C:\Users\CYMR90~1\AppData\Local\Temp\ccYIfAxE.s:422    .text.gd_eval_key_state_get:0000000000000006 .L0 
C:\Users\CYMR90~1\AppData\Local\Temp\ccYIfAxE.s:423    .text.gd_eval_key_state_get:0000000000000006 .L0 
C:\Users\CYMR90~1\AppData\Local\Temp\ccYIfAxE.s:425    .text.gd_eval_key_state_get:0000000000000008 .L0 
C:\Users\CYMR90~1\AppData\Local\Temp\ccYIfAxE.s:428    .text.gd_eval_key_state_get:000000000000000c .L0 
C:\Users\CYMR90~1\AppData\Local\Temp\ccYIfAxE.s:444    .text.gd_eval_key_state_get:0000000000000042 .L0 
C:\Users\CYMR90~1\AppData\Local\Temp\ccYIfAxE.s:446    .text.gd_eval_key_state_get:0000000000000046 .L0 
C:\Users\CYMR90~1\AppData\Local\Temp\ccYIfAxE.s:448    .text.gd_eval_key_state_get:0000000000000048 .L0 
C:\Users\CYMR90~1\AppData\Local\Temp\ccYIfAxE.s:449    .text.gd_eval_key_state_get:0000000000000048 .L0 
C:\Users\CYMR90~1\AppData\Local\Temp\ccYIfAxE.s:451    .text.gd_eval_key_state_get:000000000000004a .L0 
C:\Users\CYMR90~1\AppData\Local\Temp\ccYIfAxE.s:453    .text.gd_eval_key_state_get:000000000000004c .L0 
C:\Users\CYMR90~1\AppData\Local\Temp\ccYIfAxE.s:460    .text.gd_eval_com_init:0000000000000000 gd_eval_com_init
C:\Users\CYMR90~1\AppData\Local\Temp\ccYIfAxE.s:463    .text.gd_eval_com_init:0000000000000000 .L0 
C:\Users\CYMR90~1\AppData\Local\Temp\ccYIfAxE.s:464    .text.gd_eval_com_init:0000000000000000 .L0 
C:\Users\CYMR90~1\AppData\Local\Temp\ccYIfAxE.s:465    .text.gd_eval_com_init:0000000000000002 .L0 
C:\Users\CYMR90~1\AppData\Local\Temp\ccYIfAxE.s:468    .text.gd_eval_com_init:0000000000000006 .L0 
C:\Users\CYMR90~1\AppData\Local\Temp\ccYIfAxE.s:469    .text.gd_eval_com_init:0000000000000006 .L0 
C:\Users\CYMR90~1\AppData\Local\Temp\ccYIfAxE.s:471    .text.gd_eval_com_init:0000000000000008 .L0 
C:\Users\CYMR90~1\AppData\Local\Temp\ccYIfAxE.s:474    .text.gd_eval_com_init:000000000000000c .L0 
C:\Users\CYMR90~1\AppData\Local\Temp\ccYIfAxE.s:476    .text.gd_eval_com_init:0000000000000010 .L0 
C:\Users\CYMR90~1\AppData\Local\Temp\ccYIfAxE.s:481    .text.gd_eval_com_init:0000000000000020 .L0 
C:\Users\CYMR90~1\AppData\Local\Temp\ccYIfAxE.s:484    .text.gd_eval_com_init:0000000000000024 .L0 
C:\Users\CYMR90~1\AppData\Local\Temp\ccYIfAxE.s:488    .text.gd_eval_com_init:0000000000000032 .L0 
C:\Users\CYMR90~1\AppData\Local\Temp\ccYIfAxE.s:492    .text.gd_eval_com_init:0000000000000040 .L0 
C:\Users\CYMR90~1\AppData\Local\Temp\ccYIfAxE.s:500    .text.gd_eval_com_init:000000000000005c .L0 
C:\Users\CYMR90~1\AppData\Local\Temp\ccYIfAxE.s:511    .text.gd_eval_com_init:0000000000000082 .L0 
C:\Users\CYMR90~1\AppData\Local\Temp\ccYIfAxE.s:521    .text.gd_eval_com_init:00000000000000a4 .L0 
C:\Users\CYMR90~1\AppData\Local\Temp\ccYIfAxE.s:533    .text.gd_eval_com_init:00000000000000cc .L0 
C:\Users\CYMR90~1\AppData\Local\Temp\ccYIfAxE.s:545    .text.gd_eval_com_init:00000000000000f4 .L0 
C:\Users\CYMR90~1\AppData\Local\Temp\ccYIfAxE.s:556    .text.gd_eval_com_init:0000000000000118 .L0 
C:\Users\CYMR90~1\AppData\Local\Temp\ccYIfAxE.s:567    .text.gd_eval_com_init:000000000000013c .L0 
C:\Users\CYMR90~1\AppData\Local\Temp\ccYIfAxE.s:570    .text.gd_eval_com_init:0000000000000148 .L0 
C:\Users\CYMR90~1\AppData\Local\Temp\ccYIfAxE.s:575    .text.gd_eval_com_init:000000000000015a .L0 
C:\Users\CYMR90~1\AppData\Local\Temp\ccYIfAxE.s:579    .text.gd_eval_com_init:0000000000000168 .L0 
C:\Users\CYMR90~1\AppData\Local\Temp\ccYIfAxE.s:583    .text.gd_eval_com_init:0000000000000176 .L0 
C:\Users\CYMR90~1\AppData\Local\Temp\ccYIfAxE.s:586    .text.gd_eval_com_init:0000000000000182 .L0 
C:\Users\CYMR90~1\AppData\Local\Temp\ccYIfAxE.s:588    .text.gd_eval_com_init:0000000000000186 .L0 
C:\Users\CYMR90~1\AppData\Local\Temp\ccYIfAxE.s:590    .text.gd_eval_com_init:0000000000000188 .L0 
C:\Users\CYMR90~1\AppData\Local\Temp\ccYIfAxE.s:591    .text.gd_eval_com_init:0000000000000188 .L0 
C:\Users\CYMR90~1\AppData\Local\Temp\ccYIfAxE.s:593    .text.gd_eval_com_init:000000000000018a .L0 
C:\Users\CYMR90~1\AppData\Local\Temp\ccYIfAxE.s:595    .text.gd_eval_com_init:000000000000018c .L0 
C:\Users\CYMR90~1\AppData\Local\Temp\ccYIfAxE.s:178    .text.gd_eval_led_init:00000000000000c2 .L0 
C:\Users\CYMR90~1\AppData\Local\Temp\ccYIfAxE.s:220    .text.gd_eval_led_on:000000000000003c .L0 
C:\Users\CYMR90~1\AppData\Local\Temp\ccYIfAxE.s:262    .text.gd_eval_led_off:000000000000003e .L0 
C:\Users\CYMR90~1\AppData\Local\Temp\ccYIfAxE.s:304    .text.gd_eval_led_toggle:000000000000003e .L0 
C:\Users\CYMR90~1\AppData\Local\Temp\ccYIfAxE.s:410    .text.gd_eval_key_init:0000000000000116 .L0 
C:\Users\CYMR90~1\AppData\Local\Temp\ccYIfAxE.s:456    .text.gd_eval_key_state_get:000000000000004c .L0 
C:\Users\CYMR90~1\AppData\Local\Temp\ccYIfAxE.s:598    .text.gd_eval_com_init:000000000000018c .L0 
                     .debug_frame:0000000000000000 .L0 
C:\Users\CYMR90~1\AppData\Local\Temp\ccYIfAxE.s:112    .text.gd_eval_led_init:000000000000000c .L0 
C:\Users\CYMR90~1\AppData\Local\Temp\ccYIfAxE.s:120    .text.gd_eval_led_init:0000000000000028 .L0 
C:\Users\CYMR90~1\AppData\Local\Temp\ccYIfAxE.s:125    .text.gd_eval_led_init:000000000000003a .L0 
C:\Users\CYMR90~1\AppData\Local\Temp\ccYIfAxE.s:135    .text.gd_eval_led_init:000000000000005a .L0 
C:\Users\CYMR90~1\AppData\Local\Temp\ccYIfAxE.s:140    .text.gd_eval_led_init:000000000000006c .L0 
C:\Users\CYMR90~1\AppData\Local\Temp\ccYIfAxE.s:150    .text.gd_eval_led_init:000000000000008c .L0 
C:\Users\CYMR90~1\AppData\Local\Temp\ccYIfAxE.s:158    .text.gd_eval_led_init:00000000000000a4 .L0 
C:\Users\CYMR90~1\AppData\Local\Temp\ccYIfAxE.s:194    .text.gd_eval_led_on:000000000000000a .L0 
C:\Users\CYMR90~1\AppData\Local\Temp\ccYIfAxE.s:202    .text.gd_eval_led_on:0000000000000020 .L0 
C:\Users\CYMR90~1\AppData\Local\Temp\ccYIfAxE.s:236    .text.gd_eval_led_off:000000000000000a .L0 
C:\Users\CYMR90~1\AppData\Local\Temp\ccYIfAxE.s:244    .text.gd_eval_led_off:0000000000000022 .L0 
C:\Users\CYMR90~1\AppData\Local\Temp\ccYIfAxE.s:278    .text.gd_eval_led_toggle:000000000000000a .L0 
C:\Users\CYMR90~1\AppData\Local\Temp\ccYIfAxE.s:286    .text.gd_eval_led_toggle:0000000000000022 .L0 
C:\Users\CYMR90~1\AppData\Local\Temp\ccYIfAxE.s:323    .text.gd_eval_key_init:0000000000000010 .L0 
C:\Users\CYMR90~1\AppData\Local\Temp\ccYIfAxE.s:335    .text.gd_eval_key_init:000000000000003a .L0 
C:\Users\CYMR90~1\AppData\Local\Temp\ccYIfAxE.s:340    .text.gd_eval_key_init:000000000000004c .L0 
C:\Users\CYMR90~1\AppData\Local\Temp\ccYIfAxE.s:357    .text.gd_eval_key_init:0000000000000080 .L0 
C:\Users\CYMR90~1\AppData\Local\Temp\ccYIfAxE.s:367    .text.gd_eval_key_init:00000000000000a0 .L0 
C:\Users\CYMR90~1\AppData\Local\Temp\ccYIfAxE.s:371    .text.gd_eval_key_init:00000000000000b2 .L0 
C:\Users\CYMR90~1\AppData\Local\Temp\ccYIfAxE.s:379    .text.gd_eval_key_init:00000000000000d0 .L0 
C:\Users\CYMR90~1\AppData\Local\Temp\ccYIfAxE.s:389    .text.gd_eval_key_init:00000000000000f0 .L0 
C:\Users\CYMR90~1\AppData\Local\Temp\ccYIfAxE.s:396    .text.gd_eval_key_init:000000000000010c .L7
C:\Users\CYMR90~1\AppData\Local\Temp\ccYIfAxE.s:428    .text.gd_eval_key_state_get:000000000000000c .L0 
C:\Users\CYMR90~1\AppData\Local\Temp\ccYIfAxE.s:433    .text.gd_eval_key_state_get:000000000000001e .L0 
C:\Users\CYMR90~1\AppData\Local\Temp\ccYIfAxE.s:492    .text.gd_eval_com_init:0000000000000040 .L0 
C:\Users\CYMR90~1\AppData\Local\Temp\ccYIfAxE.s:500    .text.gd_eval_com_init:000000000000005c .L0 
C:\Users\CYMR90~1\AppData\Local\Temp\ccYIfAxE.s:511    .text.gd_eval_com_init:0000000000000082 .L0 
C:\Users\CYMR90~1\AppData\Local\Temp\ccYIfAxE.s:521    .text.gd_eval_com_init:00000000000000a4 .L0 
C:\Users\CYMR90~1\AppData\Local\Temp\ccYIfAxE.s:533    .text.gd_eval_com_init:00000000000000cc .L0 
C:\Users\CYMR90~1\AppData\Local\Temp\ccYIfAxE.s:545    .text.gd_eval_com_init:00000000000000f4 .L0 
C:\Users\CYMR90~1\AppData\Local\Temp\ccYIfAxE.s:556    .text.gd_eval_com_init:0000000000000118 .L0 
C:\Users\CYMR90~1\AppData\Local\Temp\ccYIfAxE.s:482    .text.gd_eval_com_init:0000000000000024 .L11
C:\Users\CYMR90~1\AppData\Local\Temp\ccYIfAxE.s:1587   .debug_abbrev:0000000000000000 .Ldebug_abbrev0
C:\Users\CYMR90~1\AppData\Local\Temp\ccYIfAxE.s:22534  .debug_str:000000000000b133 .LASF5782
C:\Users\CYMR90~1\AppData\Local\Temp\ccYIfAxE.s:24372  .debug_str:000000000001247d .LASF5783
C:\Users\CYMR90~1\AppData\Local\Temp\ccYIfAxE.s:25544  .debug_str:0000000000016cf8 .LASF5784
C:\Users\CYMR90~1\AppData\Local\Temp\ccYIfAxE.s:1950   .debug_ranges:0000000000000000 .Ldebug_ranges0
C:\Users\CYMR90~1\AppData\Local\Temp\ccYIfAxE.s:19700  .debug_line:0000000000000000 .Ldebug_line0
C:\Users\CYMR90~1\AppData\Local\Temp\ccYIfAxE.s:1968   .debug_macro:0000000000000000 .Ldebug_macro0
C:\Users\CYMR90~1\AppData\Local\Temp\ccYIfAxE.s:23720  .debug_str:000000000000fcbe .LASF5586
C:\Users\CYMR90~1\AppData\Local\Temp\ccYIfAxE.s:19720  .debug_str:0000000000000131 .LASF5587
C:\Users\CYMR90~1\AppData\Local\Temp\ccYIfAxE.s:20676  .debug_str:0000000000003b9b .LASF5588
C:\Users\CYMR90~1\AppData\Local\Temp\ccYIfAxE.s:26005  .debug_str:00000000000189ed .LASF5589
C:\Users\CYMR90~1\AppData\Local\Temp\ccYIfAxE.s:22016  .debug_str:0000000000009136 .LASF5594
C:\Users\CYMR90~1\AppData\Local\Temp\ccYIfAxE.s:25452  .debug_str:000000000001677d .LASF5590
C:\Users\CYMR90~1\AppData\Local\Temp\ccYIfAxE.s:27349  .debug_str:000000000001e3a8 .LASF5591
C:\Users\CYMR90~1\AppData\Local\Temp\ccYIfAxE.s:24902  .debug_str:0000000000014657 .LASF5592
C:\Users\CYMR90~1\AppData\Local\Temp\ccYIfAxE.s:27765  .debug_str:000000000001fc4d .LASF5593
C:\Users\CYMR90~1\AppData\Local\Temp\ccYIfAxE.s:26217  .debug_str:0000000000019862 .LASF5595
C:\Users\CYMR90~1\AppData\Local\Temp\ccYIfAxE.s:19846  .debug_str:000000000000081e .LASF5596
C:\Users\CYMR90~1\AppData\Local\Temp\ccYIfAxE.s:29361  .debug_str:0000000000025ff0 .LASF5597
C:\Users\CYMR90~1\AppData\Local\Temp\ccYIfAxE.s:25719  .debug_str:0000000000017892 .LASF855
C:\Users\CYMR90~1\AppData\Local\Temp\ccYIfAxE.s:25212  .debug_str:00000000000158b3 .LASF5598
C:\Users\CYMR90~1\AppData\Local\Temp\ccYIfAxE.s:29477  .debug_str:0000000000026755 .LASF5599
C:\Users\CYMR90~1\AppData\Local\Temp\ccYIfAxE.s:27967  .debug_str:0000000000020896 .LASF5785
C:\Users\CYMR90~1\AppData\Local\Temp\ccYIfAxE.s:25102  .debug_str:00000000000152a3 .LASF5600
C:\Users\CYMR90~1\AppData\Local\Temp\ccYIfAxE.s:20506  .debug_str:000000000000306e .LASF5601
C:\Users\CYMR90~1\AppData\Local\Temp\ccYIfAxE.s:23432  .debug_str:000000000000eb6b .LASF5602
C:\Users\CYMR90~1\AppData\Local\Temp\ccYIfAxE.s:23536  .debug_str:000000000000f13d .LASF5603
C:\Users\CYMR90~1\AppData\Local\Temp\ccYIfAxE.s:28721  .debug_str:00000000000235ba .LASF5604
C:\Users\CYMR90~1\AppData\Local\Temp\ccYIfAxE.s:30519  .debug_str:000000000002a959 .LASF5605
C:\Users\CYMR90~1\AppData\Local\Temp\ccYIfAxE.s:21220  .debug_str:0000000000005e20 .LASF5606
C:\Users\CYMR90~1\AppData\Local\Temp\ccYIfAxE.s:30221  .debug_str:000000000002978f .LASF5607
C:\Users\CYMR90~1\AppData\Local\Temp\ccYIfAxE.s:25845  .debug_str:0000000000018083 .LASF5608
C:\Users\CYMR90~1\AppData\Local\Temp\ccYIfAxE.s:29487  .debug_str:00000000000267f2 .LASF5609
C:\Users\CYMR90~1\AppData\Local\Temp\ccYIfAxE.s:21542  .debug_str:0000000000007174 .LASF5610
C:\Users\CYMR90~1\AppData\Local\Temp\ccYIfAxE.s:25108  .debug_str:00000000000152da .LASF5611
C:\Users\CYMR90~1\AppData\Local\Temp\ccYIfAxE.s:30397  .debug_str:000000000002a283 .LASF5612
C:\Users\CYMR90~1\AppData\Local\Temp\ccYIfAxE.s:29221  .debug_str:00000000000254da .LASF5613
C:\Users\CYMR90~1\AppData\Local\Temp\ccYIfAxE.s:21266  .debug_str:0000000000006090 .LASF5614
C:\Users\CYMR90~1\AppData\Local\Temp\ccYIfAxE.s:29447  .debug_str:0000000000026534 .LASF5615
C:\Users\CYMR90~1\AppData\Local\Temp\ccYIfAxE.s:28487  .debug_str:0000000000022807 .LASF5616
C:\Users\CYMR90~1\AppData\Local\Temp\ccYIfAxE.s:20530  .debug_str:00000000000031fa .LASF5617
C:\Users\CYMR90~1\AppData\Local\Temp\ccYIfAxE.s:24214  .debug_str:00000000000119a0 .LASF5618
C:\Users\CYMR90~1\AppData\Local\Temp\ccYIfAxE.s:27713  .debug_str:000000000001f964 .LASF5619
C:\Users\CYMR90~1\AppData\Local\Temp\ccYIfAxE.s:24696  .debug_str:0000000000013a15 .LASF5620
C:\Users\CYMR90~1\AppData\Local\Temp\ccYIfAxE.s:25911  .debug_str:0000000000018442 .LASF5621
C:\Users\CYMR90~1\AppData\Local\Temp\ccYIfAxE.s:24960  .debug_str:00000000000149db .LASF5622
C:\Users\CYMR90~1\AppData\Local\Temp\ccYIfAxE.s:28489  .debug_str:0000000000022819 .LASF5623
C:\Users\CYMR90~1\AppData\Local\Temp\ccYIfAxE.s:26379  .debug_str:000000000001a2ff .LASF5624
C:\Users\CYMR90~1\AppData\Local\Temp\ccYIfAxE.s:22820  .debug_str:000000000000c4c5 .LASF5625
C:\Users\CYMR90~1\AppData\Local\Temp\ccYIfAxE.s:22138  .debug_str:0000000000009864 .LASF5626
C:\Users\CYMR90~1\AppData\Local\Temp\ccYIfAxE.s:27787  .debug_str:000000000001fdb6 .LASF5627
C:\Users\CYMR90~1\AppData\Local\Temp\ccYIfAxE.s:19874  .debug_str:00000000000009bf .LASF5628
C:\Users\CYMR90~1\AppData\Local\Temp\ccYIfAxE.s:30663  .debug_str:000000000002b1e2 .LASF5629
C:\Users\CYMR90~1\AppData\Local\Temp\ccYIfAxE.s:27807  .debug_str:000000000001fed5 .LASF5630
C:\Users\CYMR90~1\AppData\Local\Temp\ccYIfAxE.s:23810  .debug_str:0000000000010173 .LASF5631
C:\Users\CYMR90~1\AppData\Local\Temp\ccYIfAxE.s:20938  .debug_str:0000000000004d17 .LASF5632
C:\Users\CYMR90~1\AppData\Local\Temp\ccYIfAxE.s:23496  .debug_str:000000000000ef58 .LASF5633
C:\Users\CYMR90~1\AppData\Local\Temp\ccYIfAxE.s:20806  .debug_str:0000000000004406 .LASF5634
C:\Users\CYMR90~1\AppData\Local\Temp\ccYIfAxE.s:26665  .debug_str:000000000001b6cc .LASF5635
C:\Users\CYMR90~1\AppData\Local\Temp\ccYIfAxE.s:30211  .debug_str:0000000000029702 .LASF5636
C:\Users\CYMR90~1\AppData\Local\Temp\ccYIfAxE.s:26225  .debug_str:00000000000198e9 .LASF5637
C:\Users\CYMR90~1\AppData\Local\Temp\ccYIfAxE.s:23942  .debug_str:0000000000010905 .LASF5638
C:\Users\CYMR90~1\AppData\Local\Temp\ccYIfAxE.s:24234  .debug_str:0000000000011b8d .LASF5639
C:\Users\CYMR90~1\AppData\Local\Temp\ccYIfAxE.s:20202  .debug_str:0000000000001dfb .LASF5640
C:\Users\CYMR90~1\AppData\Local\Temp\ccYIfAxE.s:23900  .debug_str:000000000001068c .LASF5641
C:\Users\CYMR90~1\AppData\Local\Temp\ccYIfAxE.s:28065  .debug_str:0000000000020ed4 .LASF5642
C:\Users\CYMR90~1\AppData\Local\Temp\ccYIfAxE.s:26175  .debug_str:00000000000195ce .LASF5643
C:\Users\CYMR90~1\AppData\Local\Temp\ccYIfAxE.s:30739  .debug_str:000000000002b638 .LASF5644
C:\Users\CYMR90~1\AppData\Local\Temp\ccYIfAxE.s:22054  .debug_str:000000000000933a .LASF5645
C:\Users\CYMR90~1\AppData\Local\Temp\ccYIfAxE.s:30123  .debug_str:00000000000291a5 .LASF5646
C:\Users\CYMR90~1\AppData\Local\Temp\ccYIfAxE.s:19832  .debug_str:0000000000000750 .LASF5647
C:\Users\CYMR90~1\AppData\Local\Temp\ccYIfAxE.s:21802  .debug_str:00000000000083d0 .LASF5648
C:\Users\CYMR90~1\AppData\Local\Temp\ccYIfAxE.s:24502  .debug_str:0000000000012c9b .LASF5649
C:\Users\CYMR90~1\AppData\Local\Temp\ccYIfAxE.s:31109  .debug_str:000000000002ce4e .LASF5650
C:\Users\CYMR90~1\AppData\Local\Temp\ccYIfAxE.s:24990  .debug_str:0000000000014b7e .LASF5651
C:\Users\CYMR90~1\AppData\Local\Temp\ccYIfAxE.s:27095  .debug_str:000000000001d2ba .LASF5652
C:\Users\CYMR90~1\AppData\Local\Temp\ccYIfAxE.s:23908  .debug_str:00000000000106eb .LASF5653
C:\Users\CYMR90~1\AppData\Local\Temp\ccYIfAxE.s:27399  .debug_str:000000000001e66b .LASF5654
C:\Users\CYMR90~1\AppData\Local\Temp\ccYIfAxE.s:31093  .debug_str:000000000002cd7f .LASF5655
C:\Users\CYMR90~1\AppData\Local\Temp\ccYIfAxE.s:23160  .debug_str:000000000000db4b .LASF5656
C:\Users\CYMR90~1\AppData\Local\Temp\ccYIfAxE.s:21118  .debug_str:00000000000057aa .LASF5657
C:\Users\CYMR90~1\AppData\Local\Temp\ccYIfAxE.s:30339  .debug_str:0000000000029f33 .LASF5658
C:\Users\CYMR90~1\AppData\Local\Temp\ccYIfAxE.s:22406  .debug_str:000000000000a915 .LASF5659
C:\Users\CYMR90~1\AppData\Local\Temp\ccYIfAxE.s:25953  .debug_str:00000000000186d6 .LASF5660
C:\Users\CYMR90~1\AppData\Local\Temp\ccYIfAxE.s:25589  .debug_str:0000000000017185 .LASF5661
C:\Users\CYMR90~1\AppData\Local\Temp\ccYIfAxE.s:25100  .debug_str:000000000001529a .LASF5662
C:\Users\CYMR90~1\AppData\Local\Temp\ccYIfAxE.s:30589  .debug_str:000000000002adb1 .LASF5663
C:\Users\CYMR90~1\AppData\Local\Temp\ccYIfAxE.s:19718  .debug_str:0000000000000123 .LASF5664
C:\Users\CYMR90~1\AppData\Local\Temp\ccYIfAxE.s:21246  .debug_str:0000000000005f6f .LASF5665
C:\Users\CYMR90~1\AppData\Local\Temp\ccYIfAxE.s:24478  .debug_str:0000000000012b02 .LASF5666
C:\Users\CYMR90~1\AppData\Local\Temp\ccYIfAxE.s:28179  .debug_str:00000000000214df .LASF5667
C:\Users\CYMR90~1\AppData\Local\Temp\ccYIfAxE.s:20234  .debug_str:0000000000001fbe .LASF5668
C:\Users\CYMR90~1\AppData\Local\Temp\ccYIfAxE.s:23844  .debug_str:0000000000010375 .LASF5669
C:\Users\CYMR90~1\AppData\Local\Temp\ccYIfAxE.s:21604  .debug_str:00000000000075c7 .LASF5670
C:\Users\CYMR90~1\AppData\Local\Temp\ccYIfAxE.s:25697  .debug_str:0000000000017765 .LASF5671
C:\Users\CYMR90~1\AppData\Local\Temp\ccYIfAxE.s:25392  .debug_str:0000000000016404 .LASF5672
C:\Users\CYMR90~1\AppData\Local\Temp\ccYIfAxE.s:20236  .debug_str:0000000000001fd6 .LASF5673
C:\Users\CYMR90~1\AppData\Local\Temp\ccYIfAxE.s:29545  .debug_str:0000000000026b34 .LASF5674
C:\Users\CYMR90~1\AppData\Local\Temp\ccYIfAxE.s:29313  .debug_str:0000000000025c3c .LASF5675
C:\Users\CYMR90~1\AppData\Local\Temp\ccYIfAxE.s:21762  .debug_str:000000000000809d .LASF5676
C:\Users\CYMR90~1\AppData\Local\Temp\ccYIfAxE.s:23130  .debug_str:000000000000d991 .LASF5677
C:\Users\CYMR90~1\AppData\Local\Temp\ccYIfAxE.s:23732  .debug_str:000000000000fd5a .LASF5678
C:\Users\CYMR90~1\AppData\Local\Temp\ccYIfAxE.s:22792  .debug_str:000000000000c32e .LASF5679
C:\Users\CYMR90~1\AppData\Local\Temp\ccYIfAxE.s:26895  .debug_str:000000000001c564 .LASF5680
C:\Users\CYMR90~1\AppData\Local\Temp\ccYIfAxE.s:23178  .debug_str:000000000000dc4c .LASF5681
C:\Users\CYMR90~1\AppData\Local\Temp\ccYIfAxE.s:25476  .debug_str:000000000001694a .LASF5682
C:\Users\CYMR90~1\AppData\Local\Temp\ccYIfAxE.s:25478  .debug_str:0000000000016951 .LASF5683
C:\Users\CYMR90~1\AppData\Local\Temp\ccYIfAxE.s:25480  .debug_str:0000000000016958 .LASF5684
C:\Users\CYMR90~1\AppData\Local\Temp\ccYIfAxE.s:25482  .debug_str:000000000001695f .LASF5685
C:\Users\CYMR90~1\AppData\Local\Temp\ccYIfAxE.s:25484  .debug_str:0000000000016966 .LASF5686
C:\Users\CYMR90~1\AppData\Local\Temp\ccYIfAxE.s:25486  .debug_str:000000000001696d .LASF5687
C:\Users\CYMR90~1\AppData\Local\Temp\ccYIfAxE.s:25488  .debug_str:0000000000016974 .LASF5688
C:\Users\CYMR90~1\AppData\Local\Temp\ccYIfAxE.s:25490  .debug_str:000000000001697b .LASF5689
C:\Users\CYMR90~1\AppData\Local\Temp\ccYIfAxE.s:23204  .debug_str:000000000000dd97 .LASF5690
C:\Users\CYMR90~1\AppData\Local\Temp\ccYIfAxE.s:23772  .debug_str:000000000000ffc5 .LASF5691
C:\Users\CYMR90~1\AppData\Local\Temp\ccYIfAxE.s:23774  .debug_str:000000000000ffcd .LASF5692
C:\Users\CYMR90~1\AppData\Local\Temp\ccYIfAxE.s:23776  .debug_str:000000000000ffd5 .LASF5693
C:\Users\CYMR90~1\AppData\Local\Temp\ccYIfAxE.s:23778  .debug_str:000000000000ffdd .LASF5694
C:\Users\CYMR90~1\AppData\Local\Temp\ccYIfAxE.s:23780  .debug_str:000000000000ffe5 .LASF5695
C:\Users\CYMR90~1\AppData\Local\Temp\ccYIfAxE.s:23782  .debug_str:000000000000ffed .LASF5696
C:\Users\CYMR90~1\AppData\Local\Temp\ccYIfAxE.s:23784  .debug_str:000000000000fff5 .LASF5697
C:\Users\CYMR90~1\AppData\Local\Temp\ccYIfAxE.s:23786  .debug_str:000000000000fffd .LASF5698
C:\Users\CYMR90~1\AppData\Local\Temp\ccYIfAxE.s:23788  .debug_str:0000000000010005 .LASF5699
C:\Users\CYMR90~1\AppData\Local\Temp\ccYIfAxE.s:23874  .debug_str:0000000000010594 .LASF5700
C:\Users\CYMR90~1\AppData\Local\Temp\ccYIfAxE.s:23876  .debug_str:000000000001059c .LASF5701
C:\Users\CYMR90~1\AppData\Local\Temp\ccYIfAxE.s:23878  .debug_str:00000000000105a4 .LASF5702
C:\Users\CYMR90~1\AppData\Local\Temp\ccYIfAxE.s:23880  .debug_str:00000000000105ac .LASF5703
C:\Users\CYMR90~1\AppData\Local\Temp\ccYIfAxE.s:23882  .debug_str:00000000000105b4 .LASF5704
C:\Users\CYMR90~1\AppData\Local\Temp\ccYIfAxE.s:23884  .debug_str:00000000000105bc .LASF5705
C:\Users\CYMR90~1\AppData\Local\Temp\ccYIfAxE.s:20196  .debug_str:0000000000001da0 .LASF5706
C:\Users\CYMR90~1\AppData\Local\Temp\ccYIfAxE.s:24744  .debug_str:0000000000013cd9 .LASF5707
C:\Users\CYMR90~1\AppData\Local\Temp\ccYIfAxE.s:24320  .debug_str:0000000000012132 .LASF5708
C:\Users\CYMR90~1\AppData\Local\Temp\ccYIfAxE.s:27309  .debug_str:000000000001e084 .LASF5709
C:\Users\CYMR90~1\AppData\Local\Temp\ccYIfAxE.s:28757  .debug_str:0000000000023794 .LASF5710
C:\Users\CYMR90~1\AppData\Local\Temp\ccYIfAxE.s:29249  .debug_str:00000000000256f8 .LASF5711
C:\Users\CYMR90~1\AppData\Local\Temp\ccYIfAxE.s:24358  .debug_str:0000000000012387 .LASF5712
C:\Users\CYMR90~1\AppData\Local\Temp\ccYIfAxE.s:22874  .debug_str:000000000000c7de .LASF5713
C:\Users\CYMR90~1\AppData\Local\Temp\ccYIfAxE.s:21176  .debug_str:0000000000005b66 .LASF5714
C:\Users\CYMR90~1\AppData\Local\Temp\ccYIfAxE.s:21178  .debug_str:0000000000005b70 .LASF5715
C:\Users\CYMR90~1\AppData\Local\Temp\ccYIfAxE.s:26417  .debug_str:000000000001a50a .LASF5716
C:\Users\CYMR90~1\AppData\Local\Temp\ccYIfAxE.s:30633  .debug_str:000000000002b058 .LASF5717
C:\Users\CYMR90~1\AppData\Local\Temp\ccYIfAxE.s:19812  .debug_str:000000000000060d .LASF5718
C:\Users\CYMR90~1\AppData\Local\Temp\ccYIfAxE.s:19746  .debug_str:000000000000029e .LASF5719
C:\Users\CYMR90~1\AppData\Local\Temp\ccYIfAxE.s:19748  .debug_str:00000000000002a8 .LASF5720
C:\Users\CYMR90~1\AppData\Local\Temp\ccYIfAxE.s:19750  .debug_str:00000000000002b2 .LASF5721
C:\Users\CYMR90~1\AppData\Local\Temp\ccYIfAxE.s:19752  .debug_str:00000000000002bc .LASF5722
C:\Users\CYMR90~1\AppData\Local\Temp\ccYIfAxE.s:20660  .debug_str:0000000000003a72 .LASF5723
C:\Users\CYMR90~1\AppData\Local\Temp\ccYIfAxE.s:31085  .debug_str:000000000002cd0e .LASF5724
C:\Users\CYMR90~1\AppData\Local\Temp\ccYIfAxE.s:25661  .debug_str:000000000001757e .LASF5725
C:\Users\CYMR90~1\AppData\Local\Temp\ccYIfAxE.s:24812  .debug_str:00000000000140b6 .LASF5726
C:\Users\CYMR90~1\AppData\Local\Temp\ccYIfAxE.s:21812  .debug_str:0000000000008481 .LASF5727
C:\Users\CYMR90~1\AppData\Local\Temp\ccYIfAxE.s:28773  .debug_str:000000000002388e .LASF5728
C:\Users\CYMR90~1\AppData\Local\Temp\ccYIfAxE.s:21948  .debug_str:0000000000008cf6 .LASF5729
C:\Users\CYMR90~1\AppData\Local\Temp\ccYIfAxE.s:28093  .debug_str:0000000000021068 .LASF5730
C:\Users\CYMR90~1\AppData\Local\Temp\ccYIfAxE.s:28095  .debug_str:0000000000021073 .LASF5731
C:\Users\CYMR90~1\AppData\Local\Temp\ccYIfAxE.s:28101  .debug_str:00000000000210be .LASF5732
C:\Users\CYMR90~1\AppData\Local\Temp\ccYIfAxE.s:29103  .debug_str:0000000000024d64 .LASF5733
C:\Users\CYMR90~1\AppData\Local\Temp\ccYIfAxE.s:27791  .debug_str:000000000001fdd7 .LASF5734
C:\Users\CYMR90~1\AppData\Local\Temp\ccYIfAxE.s:25126  .debug_str:00000000000153ea .LASF5735
C:\Users\CYMR90~1\AppData\Local\Temp\ccYIfAxE.s:20698  .debug_str:0000000000003cc1 .LASF5736
C:\Users\CYMR90~1\AppData\Local\Temp\ccYIfAxE.s:22596  .debug_str:000000000000b5a4 .LASF5737
C:\Users\CYMR90~1\AppData\Local\Temp\ccYIfAxE.s:22598  .debug_str:000000000000b5ad .LASF5738
C:\Users\CYMR90~1\AppData\Local\Temp\ccYIfAxE.s:27359  .debug_str:000000000001e420 .LASF5739
C:\Users\CYMR90~1\AppData\Local\Temp\ccYIfAxE.s:29131  .debug_str:0000000000024f50 .LASF5740
C:\Users\CYMR90~1\AppData\Local\Temp\ccYIfAxE.s:28091  .debug_str:000000000002105d .LASF5741
C:\Users\CYMR90~1\AppData\Local\Temp\ccYIfAxE.s:25128  .debug_str:00000000000153f4 .LASF5742
C:\Users\CYMR90~1\AppData\Local\Temp\ccYIfAxE.s:23982  .debug_str:0000000000010b69 .LASF5743
C:\Users\CYMR90~1\AppData\Local\Temp\ccYIfAxE.s:23554  .debug_str:000000000000f242 .LASF5744
C:\Users\CYMR90~1\AppData\Local\Temp\ccYIfAxE.s:31233  .debug_str:000000000002d6c1 .LASF5745
C:\Users\CYMR90~1\AppData\Local\Temp\ccYIfAxE.s:21662  .debug_str:0000000000007994 .LASF5746
C:\Users\CYMR90~1\AppData\Local\Temp\ccYIfAxE.s:21664  .debug_str:00000000000079a0 .LASF5747
C:\Users\CYMR90~1\AppData\Local\Temp\ccYIfAxE.s:31237  .debug_str:000000000002d6f6 .LASF5748
C:\Users\CYMR90~1\AppData\Local\Temp\ccYIfAxE.s:22836  .debug_str:000000000000c5a5 .LASF5749
C:\Users\CYMR90~1\AppData\Local\Temp\ccYIfAxE.s:30435  .debug_str:000000000002a4a4 .LASF5750
C:\Users\CYMR90~1\AppData\Local\Temp\ccYIfAxE.s:30437  .debug_str:000000000002a4a9 .LASF5751
C:\Users\CYMR90~1\AppData\Local\Temp\ccYIfAxE.s:26397  .debug_str:000000000001a3f0 .LASF5752
C:\Users\CYMR90~1\AppData\Local\Temp\ccYIfAxE.s:30447  .debug_str:000000000002a521 .LASF5753
C:\Users\CYMR90~1\AppData\Local\Temp\ccYIfAxE.s:28245  .debug_str:000000000002197a .LASF5754
C:\Users\CYMR90~1\AppData\Local\Temp\ccYIfAxE.s:26837  .debug_str:000000000001c1c8 .LASF5755
C:\Users\CYMR90~1\AppData\Local\Temp\ccYIfAxE.s:31127  .debug_str:000000000002cf5f .LASF5756
C:\Users\CYMR90~1\AppData\Local\Temp\ccYIfAxE.s:19942  .debug_str:0000000000000e3c .LASF5757
C:\Users\CYMR90~1\AppData\Local\Temp\ccYIfAxE.s:21462  .debug_str:0000000000006c70 .LASF5758
C:\Users\CYMR90~1\AppData\Local\Temp\ccYIfAxE.s:22746  .debug_str:000000000000bfbe .LASF5759
C:\Users\CYMR90~1\AppData\Local\Temp\ccYIfAxE.s:22146  .debug_str:00000000000098da .LASF5760
C:\Users\CYMR90~1\AppData\Local\Temp\ccYIfAxE.s:23260  .debug_str:000000000000e0d3 .LASF5761
C:\Users\CYMR90~1\AppData\Local\Temp\ccYIfAxE.s:23108  .debug_str:000000000000d821 .LASF5762
C:\Users\CYMR90~1\AppData\Local\Temp\ccYIfAxE.s:27435  .debug_str:000000000001e876 .LASF5763
C:\Users\CYMR90~1\AppData\Local\Temp\ccYIfAxE.s:20930  .debug_str:0000000000004ca6 .LASF5764
C:\Users\CYMR90~1\AppData\Local\Temp\ccYIfAxE.s:24922  .debug_str:000000000001477e .LASF5765
C:\Users\CYMR90~1\AppData\Local\Temp\ccYIfAxE.s:25152  .debug_str:0000000000015542 .LASF5766
C:\Users\CYMR90~1\AppData\Local\Temp\ccYIfAxE.s:28103  .debug_str:00000000000210c9 .LASF5767
C:\Users\CYMR90~1\AppData\Local\Temp\ccYIfAxE.s:29801  .debug_str:0000000000027bd3 .LASF5768
C:\Users\CYMR90~1\AppData\Local\Temp\ccYIfAxE.s:23324  .debug_str:000000000000e4b2 .LASF5769
C:\Users\CYMR90~1\AppData\Local\Temp\ccYIfAxE.s:24644  .debug_str:00000000000135ad .LASF5770
C:\Users\CYMR90~1\AppData\Local\Temp\ccYIfAxE.s:20358  .debug_str:00000000000026f7 .LASF5771
C:\Users\CYMR90~1\AppData\Local\Temp\ccYIfAxE.s:24422  .debug_str:0000000000012761 .LASF5774
C:\Users\CYMR90~1\AppData\Local\Temp\ccYIfAxE.s:461    .text.gd_eval_com_init:0000000000000000 .LFB353
C:\Users\CYMR90~1\AppData\Local\Temp\ccYIfAxE.s:596    .text.gd_eval_com_init:000000000000018c .LFE353
C:\Users\CYMR90~1\AppData\Local\Temp\ccYIfAxE.s:23650  .debug_str:000000000000f805 .LASF5772
C:\Users\CYMR90~1\AppData\Local\Temp\ccYIfAxE.s:25238  .debug_str:0000000000015a2c .LASF5786
C:\Users\CYMR90~1\AppData\Local\Temp\ccYIfAxE.s:415    .text.gd_eval_key_state_get:0000000000000000 .LFB352
C:\Users\CYMR90~1\AppData\Local\Temp\ccYIfAxE.s:454    .text.gd_eval_key_state_get:000000000000004c .LFE352
C:\Users\CYMR90~1\AppData\Local\Temp\ccYIfAxE.s:30705  .debug_str:000000000002b447 .LASF5773
C:\Users\CYMR90~1\AppData\Local\Temp\ccYIfAxE.s:24398  .debug_str:00000000000125f1 .LASF5775
C:\Users\CYMR90~1\AppData\Local\Temp\ccYIfAxE.s:309    .text.gd_eval_key_init:0000000000000000 .LFB351
C:\Users\CYMR90~1\AppData\Local\Temp\ccYIfAxE.s:408    .text.gd_eval_key_init:0000000000000116 .LFE351
C:\Users\CYMR90~1\AppData\Local\Temp\ccYIfAxE.s:26097  .debug_str:0000000000019076 .LASF5776
C:\Users\CYMR90~1\AppData\Local\Temp\ccYIfAxE.s:20056  .debug_str:0000000000001561 .LASF5777
C:\Users\CYMR90~1\AppData\Local\Temp\ccYIfAxE.s:26903  .debug_str:000000000001c5bf .LASF5778
C:\Users\CYMR90~1\AppData\Local\Temp\ccYIfAxE.s:267    .text.gd_eval_led_toggle:0000000000000000 .LFB350
C:\Users\CYMR90~1\AppData\Local\Temp\ccYIfAxE.s:302    .text.gd_eval_led_toggle:000000000000003e .LFE350
C:\Users\CYMR90~1\AppData\Local\Temp\ccYIfAxE.s:28901  .debug_str:0000000000024032 .LASF5779
C:\Users\CYMR90~1\AppData\Local\Temp\ccYIfAxE.s:26189  .debug_str:00000000000196b6 .LASF5780
C:\Users\CYMR90~1\AppData\Local\Temp\ccYIfAxE.s:225    .text.gd_eval_led_off:0000000000000000 .LFB349
C:\Users\CYMR90~1\AppData\Local\Temp\ccYIfAxE.s:260    .text.gd_eval_led_off:000000000000003e .LFE349
C:\Users\CYMR90~1\AppData\Local\Temp\ccYIfAxE.s:29013  .debug_str:00000000000247b4 .LASF5781
C:\Users\CYMR90~1\AppData\Local\Temp\ccYIfAxE.s:183    .text.gd_eval_led_on:0000000000000000 .LFB348
C:\Users\CYMR90~1\AppData\Local\Temp\ccYIfAxE.s:218    .text.gd_eval_led_on:000000000000003c .LFE348
C:\Users\CYMR90~1\AppData\Local\Temp\ccYIfAxE.s:24096  .debug_str:000000000001127a .LASF5787
C:\Users\CYMR90~1\AppData\Local\Temp\ccYIfAxE.s:98     .text.gd_eval_led_init:0000000000000000 .LFB347
C:\Users\CYMR90~1\AppData\Local\Temp\ccYIfAxE.s:176    .text.gd_eval_led_init:00000000000000c2 .LFE347
C:\Users\CYMR90~1\AppData\Local\Temp\ccYIfAxE.s:607    .debug_info:0000000000000000 .Ldebug_info0
C:\Users\CYMR90~1\AppData\Local\Temp\ccYIfAxE.s:2590   .debug_macro:0000000000000000 .Ldebug_macro2
C:\Users\CYMR90~1\AppData\Local\Temp\ccYIfAxE.s:25304  .debug_str:0000000000015df1 .LASF314
C:\Users\CYMR90~1\AppData\Local\Temp\ccYIfAxE.s:25627  .debug_str:0000000000017393 .LASF315
C:\Users\CYMR90~1\AppData\Local\Temp\ccYIfAxE.s:3537   .debug_macro:0000000000000000 .Ldebug_macro3
C:\Users\CYMR90~1\AppData\Local\Temp\ccYIfAxE.s:21964  .debug_str:0000000000008ddd .LASF369
C:\Users\CYMR90~1\AppData\Local\Temp\ccYIfAxE.s:21516  .debug_str:0000000000006fd4 .LASF370
C:\Users\CYMR90~1\AppData\Local\Temp\ccYIfAxE.s:25873  .debug_str:000000000001820b .LASF371
C:\Users\CYMR90~1\AppData\Local\Temp\ccYIfAxE.s:3701   .debug_macro:0000000000000000 .Ldebug_macro4
C:\Users\CYMR90~1\AppData\Local\Temp\ccYIfAxE.s:3721   .debug_macro:0000000000000000 .Ldebug_macro5
C:\Users\CYMR90~1\AppData\Local\Temp\ccYIfAxE.s:24496  .debug_str:0000000000012c42 .LASF390
C:\Users\CYMR90~1\AppData\Local\Temp\ccYIfAxE.s:3765   .debug_macro:0000000000000000 .Ldebug_macro6
C:\Users\CYMR90~1\AppData\Local\Temp\ccYIfAxE.s:3779   .debug_macro:0000000000000000 .Ldebug_macro7
C:\Users\CYMR90~1\AppData\Local\Temp\ccYIfAxE.s:3847   .debug_macro:0000000000000000 .Ldebug_macro8
C:\Users\CYMR90~1\AppData\Local\Temp\ccYIfAxE.s:3873   .debug_macro:0000000000000000 .Ldebug_macro9
C:\Users\CYMR90~1\AppData\Local\Temp\ccYIfAxE.s:3902   .debug_macro:0000000000000000 .Ldebug_macro10
C:\Users\CYMR90~1\AppData\Local\Temp\ccYIfAxE.s:26017  .debug_str:0000000000018aa1 .LASF433
C:\Users\CYMR90~1\AppData\Local\Temp\ccYIfAxE.s:3916   .debug_macro:0000000000000000 .Ldebug_macro11
C:\Users\CYMR90~1\AppData\Local\Temp\ccYIfAxE.s:3960   .debug_macro:0000000000000000 .Ldebug_macro12
C:\Users\CYMR90~1\AppData\Local\Temp\ccYIfAxE.s:3986   .debug_macro:0000000000000000 .Ldebug_macro13
C:\Users\CYMR90~1\AppData\Local\Temp\ccYIfAxE.s:29647  .debug_str:00000000000271a7 .LASF569
C:\Users\CYMR90~1\AppData\Local\Temp\ccYIfAxE.s:4357   .debug_macro:0000000000000000 .Ldebug_macro14
C:\Users\CYMR90~1\AppData\Local\Temp\ccYIfAxE.s:24002  .debug_str:0000000000010c6e .LASF572
C:\Users\CYMR90~1\AppData\Local\Temp\ccYIfAxE.s:28965  .debug_str:00000000000243da .LASF573
C:\Users\CYMR90~1\AppData\Local\Temp\ccYIfAxE.s:4368   .debug_macro:0000000000000000 .Ldebug_macro15
C:\Users\CYMR90~1\AppData\Local\Temp\ccYIfAxE.s:4382   .debug_macro:0000000000000000 .Ldebug_macro16
C:\Users\CYMR90~1\AppData\Local\Temp\ccYIfAxE.s:21692  .debug_str:0000000000007b6c .LASF578
C:\Users\CYMR90~1\AppData\Local\Temp\ccYIfAxE.s:4414   .debug_macro:0000000000000000 .Ldebug_macro17
C:\Users\CYMR90~1\AppData\Local\Temp\ccYIfAxE.s:4440   .debug_macro:0000000000000000 .Ldebug_macro18
C:\Users\CYMR90~1\AppData\Local\Temp\ccYIfAxE.s:4451   .debug_macro:0000000000000000 .Ldebug_macro19
C:\Users\CYMR90~1\AppData\Local\Temp\ccYIfAxE.s:4495   .debug_macro:0000000000000000 .Ldebug_macro20
C:\Users\CYMR90~1\AppData\Local\Temp\ccYIfAxE.s:4665   .debug_macro:0000000000000000 .Ldebug_macro21
C:\Users\CYMR90~1\AppData\Local\Temp\ccYIfAxE.s:4676   .debug_macro:0000000000000000 .Ldebug_macro22
C:\Users\CYMR90~1\AppData\Local\Temp\ccYIfAxE.s:24748  .debug_str:0000000000013d00 .LASF675
C:\Users\CYMR90~1\AppData\Local\Temp\ccYIfAxE.s:4732   .debug_macro:0000000000000000 .Ldebug_macro23
C:\Users\CYMR90~1\AppData\Local\Temp\ccYIfAxE.s:4749   .debug_macro:0000000000000000 .Ldebug_macro24
C:\Users\CYMR90~1\AppData\Local\Temp\ccYIfAxE.s:27757  .debug_str:000000000001fbdd .LASF693
C:\Users\CYMR90~1\AppData\Local\Temp\ccYIfAxE.s:25879  .debug_str:000000000001823c .LASF694
C:\Users\CYMR90~1\AppData\Local\Temp\ccYIfAxE.s:4793   .debug_macro:0000000000000000 .Ldebug_macro25
C:\Users\CYMR90~1\AppData\Local\Temp\ccYIfAxE.s:20952  .debug_str:0000000000004df1 .LASF700
C:\Users\CYMR90~1\AppData\Local\Temp\ccYIfAxE.s:22104  .debug_str:000000000000962a .LASF701
C:\Users\CYMR90~1\AppData\Local\Temp\ccYIfAxE.s:4813   .debug_macro:0000000000000000 .Ldebug_macro26
C:\Users\CYMR90~1\AppData\Local\Temp\ccYIfAxE.s:4824   .debug_macro:0000000000000000 .Ldebug_macro27
C:\Users\CYMR90~1\AppData\Local\Temp\ccYIfAxE.s:4868   .debug_macro:0000000000000000 .Ldebug_macro28
C:\Users\CYMR90~1\AppData\Local\Temp\ccYIfAxE.s:21330  .debug_str:0000000000006473 .LASF749
C:\Users\CYMR90~1\AppData\Local\Temp\ccYIfAxE.s:4969   .debug_macro:0000000000000000 .Ldebug_macro29
C:\Users\CYMR90~1\AppData\Local\Temp\ccYIfAxE.s:4986   .debug_macro:0000000000000000 .Ldebug_macro30
C:\Users\CYMR90~1\AppData\Local\Temp\ccYIfAxE.s:19776  .debug_str:000000000000041e .LASF763
C:\Users\CYMR90~1\AppData\Local\Temp\ccYIfAxE.s:21134  .debug_str:00000000000058e3 .LASF764
C:\Users\CYMR90~1\AppData\Local\Temp\ccYIfAxE.s:5018   .debug_macro:0000000000000000 .Ldebug_macro31
C:\Users\CYMR90~1\AppData\Local\Temp\ccYIfAxE.s:5032   .debug_macro:0000000000000000 .Ldebug_macro32
C:\Users\CYMR90~1\AppData\Local\Temp\ccYIfAxE.s:5202   .debug_macro:0000000000000000 .Ldebug_macro33
C:\Users\CYMR90~1\AppData\Local\Temp\ccYIfAxE.s:23640  .debug_str:000000000000f776 .LASF850
C:\Users\CYMR90~1\AppData\Local\Temp\ccYIfAxE.s:26105  .debug_str:00000000000190d8 .LASF851
C:\Users\CYMR90~1\AppData\Local\Temp\ccYIfAxE.s:5288   .debug_macro:0000000000000000 .Ldebug_macro34
C:\Users\CYMR90~1\AppData\Local\Temp\ccYIfAxE.s:5413   .debug_macro:0000000000000000 .Ldebug_macro35
C:\Users\CYMR90~1\AppData\Local\Temp\ccYIfAxE.s:20066  .debug_str:00000000000015c0 .LASF951
C:\Users\CYMR90~1\AppData\Local\Temp\ccYIfAxE.s:5625   .debug_macro:0000000000000000 .Ldebug_macro36
C:\Users\CYMR90~1\AppData\Local\Temp\ccYIfAxE.s:21846  .debug_str:00000000000086d5 .LASF957
C:\Users\CYMR90~1\AppData\Local\Temp\ccYIfAxE.s:21386  .debug_str:00000000000067c6 .LASF958
C:\Users\CYMR90~1\AppData\Local\Temp\ccYIfAxE.s:24486  .debug_str:0000000000012b8c .LASF959
C:\Users\CYMR90~1\AppData\Local\Temp\ccYIfAxE.s:5645   .debug_macro:0000000000000000 .Ldebug_macro37
C:\Users\CYMR90~1\AppData\Local\Temp\ccYIfAxE.s:5737   .debug_macro:0000000000000000 .Ldebug_macro38
C:\Users\CYMR90~1\AppData\Local\Temp\ccYIfAxE.s:7383   .debug_macro:0000000000000000 .Ldebug_macro39
C:\Users\CYMR90~1\AppData\Local\Temp\ccYIfAxE.s:7475   .debug_macro:0000000000000000 .Ldebug_macro40
C:\Users\CYMR90~1\AppData\Local\Temp\ccYIfAxE.s:7531   .debug_macro:0000000000000000 .Ldebug_macro41
C:\Users\CYMR90~1\AppData\Local\Temp\ccYIfAxE.s:7545   .debug_macro:0000000000000000 .Ldebug_macro42
C:\Users\CYMR90~1\AppData\Local\Temp\ccYIfAxE.s:25412  .debug_str:000000000001653b .LASF1655
C:\Users\CYMR90~1\AppData\Local\Temp\ccYIfAxE.s:22226  .debug_str:0000000000009dfe .LASF1656
C:\Users\CYMR90~1\AppData\Local\Temp\ccYIfAxE.s:7769   .debug_macro:0000000000000000 .Ldebug_macro43
C:\Users\CYMR90~1\AppData\Local\Temp\ccYIfAxE.s:7816   .debug_macro:0000000000000000 .Ldebug_macro44
C:\Users\CYMR90~1\AppData\Local\Temp\ccYIfAxE.s:7971   .debug_macro:0000000000000000 .Ldebug_macro45
C:\Users\CYMR90~1\AppData\Local\Temp\ccYIfAxE.s:8027   .debug_macro:0000000000000000 .Ldebug_macro46
C:\Users\CYMR90~1\AppData\Local\Temp\ccYIfAxE.s:8038   .debug_macro:0000000000000000 .Ldebug_macro47
C:\Users\CYMR90~1\AppData\Local\Temp\ccYIfAxE.s:30453  .debug_str:000000000002a586 .LASF1782
C:\Users\CYMR90~1\AppData\Local\Temp\ccYIfAxE.s:25170  .debug_str:000000000001566d .LASF1783
C:\Users\CYMR90~1\AppData\Local\Temp\ccYIfAxE.s:8169   .debug_macro:0000000000000000 .Ldebug_macro48
C:\Users\CYMR90~1\AppData\Local\Temp\ccYIfAxE.s:8741   .debug_macro:0000000000000000 .Ldebug_macro49
C:\Users\CYMR90~1\AppData\Local\Temp\ccYIfAxE.s:9028   .debug_macro:0000000000000000 .Ldebug_macro50
C:\Users\CYMR90~1\AppData\Local\Temp\ccYIfAxE.s:9057   .debug_macro:0000000000000000 .Ldebug_macro51
C:\Users\CYMR90~1\AppData\Local\Temp\ccYIfAxE.s:9134   .debug_macro:0000000000000000 .Ldebug_macro52
C:\Users\CYMR90~1\AppData\Local\Temp\ccYIfAxE.s:9667   .debug_macro:0000000000000000 .Ldebug_macro53
C:\Users\CYMR90~1\AppData\Local\Temp\ccYIfAxE.s:9690   .debug_macro:0000000000000000 .Ldebug_macro54
C:\Users\CYMR90~1\AppData\Local\Temp\ccYIfAxE.s:9956   .debug_macro:0000000000000000 .Ldebug_macro55
C:\Users\CYMR90~1\AppData\Local\Temp\ccYIfAxE.s:10435  .debug_macro:0000000000000000 .Ldebug_macro56
C:\Users\CYMR90~1\AppData\Local\Temp\ccYIfAxE.s:10764  .debug_macro:0000000000000000 .Ldebug_macro57
C:\Users\CYMR90~1\AppData\Local\Temp\ccYIfAxE.s:10853  .debug_macro:0000000000000000 .Ldebug_macro58
C:\Users\CYMR90~1\AppData\Local\Temp\ccYIfAxE.s:11668  .debug_macro:0000000000000000 .Ldebug_macro59
C:\Users\CYMR90~1\AppData\Local\Temp\ccYIfAxE.s:11859  .debug_macro:0000000000000000 .Ldebug_macro60
C:\Users\CYMR90~1\AppData\Local\Temp\ccYIfAxE.s:12362  .debug_macro:0000000000000000 .Ldebug_macro61
C:\Users\CYMR90~1\AppData\Local\Temp\ccYIfAxE.s:12508  .debug_macro:0000000000000000 .Ldebug_macro62
C:\Users\CYMR90~1\AppData\Local\Temp\ccYIfAxE.s:13038  .debug_macro:0000000000000000 .Ldebug_macro63
C:\Users\CYMR90~1\AppData\Local\Temp\ccYIfAxE.s:13460  .debug_macro:0000000000000000 .Ldebug_macro64
C:\Users\CYMR90~1\AppData\Local\Temp\ccYIfAxE.s:16234  .debug_macro:0000000000000000 .Ldebug_macro65
C:\Users\CYMR90~1\AppData\Local\Temp\ccYIfAxE.s:17310  .debug_macro:0000000000000000 .Ldebug_macro66
C:\Users\CYMR90~1\AppData\Local\Temp\ccYIfAxE.s:17579  .debug_macro:0000000000000000 .Ldebug_macro67
C:\Users\CYMR90~1\AppData\Local\Temp\ccYIfAxE.s:17851  .debug_macro:0000000000000000 .Ldebug_macro68
C:\Users\CYMR90~1\AppData\Local\Temp\ccYIfAxE.s:18879  .debug_macro:0000000000000000 .Ldebug_macro69
C:\Users\CYMR90~1\AppData\Local\Temp\ccYIfAxE.s:18923  .debug_macro:0000000000000000 .Ldebug_macro70
C:\Users\CYMR90~1\AppData\Local\Temp\ccYIfAxE.s:19549  .debug_macro:0000000000000000 .Ldebug_macro71
C:\Users\CYMR90~1\AppData\Local\Temp\ccYIfAxE.s:19608  .debug_macro:0000000000000000 .Ldebug_macro72
C:\Users\CYMR90~1\AppData\Local\Temp\ccYIfAxE.s:21114  .debug_str:0000000000005784 .LASF0
C:\Users\CYMR90~1\AppData\Local\Temp\ccYIfAxE.s:25609  .debug_str:0000000000017294 .LASF1
C:\Users\CYMR90~1\AppData\Local\Temp\ccYIfAxE.s:23820  .debug_str:0000000000010215 .LASF2
C:\Users\CYMR90~1\AppData\Local\Temp\ccYIfAxE.s:23886  .debug_str:00000000000105c4 .LASF3
C:\Users\CYMR90~1\AppData\Local\Temp\ccYIfAxE.s:25216  .debug_str:00000000000158d1 .LASF4
C:\Users\CYMR90~1\AppData\Local\Temp\ccYIfAxE.s:30857  .debug_str:000000000002bdb9 .LASF5
C:\Users\CYMR90~1\AppData\Local\Temp\ccYIfAxE.s:21356  .debug_str:000000000000661b .LASF6
C:\Users\CYMR90~1\AppData\Local\Temp\ccYIfAxE.s:24684  .debug_str:000000000001393e .LASF7
C:\Users\CYMR90~1\AppData\Local\Temp\ccYIfAxE.s:29085  .debug_str:0000000000024c44 .LASF8
C:\Users\CYMR90~1\AppData\Local\Temp\ccYIfAxE.s:26959  .debug_str:000000000001c8c5 .LASF9
C:\Users\CYMR90~1\AppData\Local\Temp\ccYIfAxE.s:26305  .debug_str:0000000000019eab .LASF10
C:\Users\CYMR90~1\AppData\Local\Temp\ccYIfAxE.s:26159  .debug_str:00000000000194e5 .LASF11
C:\Users\CYMR90~1\AppData\Local\Temp\ccYIfAxE.s:30695  .debug_str:000000000002b3c9 .LASF12
C:\Users\CYMR90~1\AppData\Local\Temp\ccYIfAxE.s:26171  .debug_str:0000000000019599 .LASF13
C:\Users\CYMR90~1\AppData\Local\Temp\ccYIfAxE.s:22384  .debug_str:000000000000a7fe .LASF14
C:\Users\CYMR90~1\AppData\Local\Temp\ccYIfAxE.s:27551  .debug_str:000000000001ef77 .LASF15
C:\Users\CYMR90~1\AppData\Local\Temp\ccYIfAxE.s:28323  .debug_str:0000000000021e2e .LASF16
C:\Users\CYMR90~1\AppData\Local\Temp\ccYIfAxE.s:22432  .debug_str:000000000000aad5 .LASF17
C:\Users\CYMR90~1\AppData\Local\Temp\ccYIfAxE.s:29375  .debug_str:00000000000260c9 .LASF18
C:\Users\CYMR90~1\AppData\Local\Temp\ccYIfAxE.s:23416  .debug_str:000000000000ea5f .LASF19
C:\Users\CYMR90~1\AppData\Local\Temp\ccYIfAxE.s:29179  .debug_str:0000000000025280 .LASF20
C:\Users\CYMR90~1\AppData\Local\Temp\ccYIfAxE.s:25965  .debug_str:000000000001877d .LASF21
C:\Users\CYMR90~1\AppData\Local\Temp\ccYIfAxE.s:25963  .debug_str:0000000000018763 .LASF22
C:\Users\CYMR90~1\AppData\Local\Temp\ccYIfAxE.s:28637  .debug_str:0000000000023111 .LASF23
C:\Users\CYMR90~1\AppData\Local\Temp\ccYIfAxE.s:26909  .debug_str:000000000001c60e .LASF24
C:\Users\CYMR90~1\AppData\Local\Temp\ccYIfAxE.s:20648  .debug_str:00000000000039d0 .LASF25
C:\Users\CYMR90~1\AppData\Local\Temp\ccYIfAxE.s:25340  .debug_str:0000000000016071 .LASF26
C:\Users\CYMR90~1\AppData\Local\Temp\ccYIfAxE.s:28641  .debug_str:0000000000023147 .LASF27
C:\Users\CYMR90~1\AppData\Local\Temp\ccYIfAxE.s:28331  .debug_str:0000000000021e8b .LASF28
C:\Users\CYMR90~1\AppData\Local\Temp\ccYIfAxE.s:21064  .debug_str:0000000000005498 .LASF29
C:\Users\CYMR90~1\AppData\Local\Temp\ccYIfAxE.s:27325  .debug_str:000000000001e1f1 .LASF30
C:\Users\CYMR90~1\AppData\Local\Temp\ccYIfAxE.s:20012  .debug_str:00000000000012bb .LASF31
C:\Users\CYMR90~1\AppData\Local\Temp\ccYIfAxE.s:27793  .debug_str:000000000001fddf .LASF32
C:\Users\CYMR90~1\AppData\Local\Temp\ccYIfAxE.s:22268  .debug_str:000000000000a063 .LASF33
C:\Users\CYMR90~1\AppData\Local\Temp\ccYIfAxE.s:22118  .debug_str:00000000000096ea .LASF34
C:\Users\CYMR90~1\AppData\Local\Temp\ccYIfAxE.s:23448  .debug_str:000000000000ec3b .LASF35
C:\Users\CYMR90~1\AppData\Local\Temp\ccYIfAxE.s:26415  .debug_str:000000000001a4ec .LASF36
C:\Users\CYMR90~1\AppData\Local\Temp\ccYIfAxE.s:21608  .debug_str:0000000000007606 .LASF37
C:\Users\CYMR90~1\AppData\Local\Temp\ccYIfAxE.s:23818  .debug_str:00000000000101f2 .LASF38
C:\Users\CYMR90~1\AppData\Local\Temp\ccYIfAxE.s:29599  .debug_str:0000000000026eb9 .LASF39
C:\Users\CYMR90~1\AppData\Local\Temp\ccYIfAxE.s:20396  .debug_str:0000000000002987 .LASF40
C:\Users\CYMR90~1\AppData\Local\Temp\ccYIfAxE.s:23992  .debug_str:0000000000010be2 .LASF41
C:\Users\CYMR90~1\AppData\Local\Temp\ccYIfAxE.s:24432  .debug_str:00000000000127f2 .LASF42
C:\Users\CYMR90~1\AppData\Local\Temp\ccYIfAxE.s:24698  .debug_str:0000000000013a27 .LASF43
C:\Users\CYMR90~1\AppData\Local\Temp\ccYIfAxE.s:26405  .debug_str:000000000001a45a .LASF44
C:\Users\CYMR90~1\AppData\Local\Temp\ccYIfAxE.s:24290  .debug_str:0000000000011f5b .LASF45
C:\Users\CYMR90~1\AppData\Local\Temp\ccYIfAxE.s:20886  .debug_str:0000000000004960 .LASF46
C:\Users\CYMR90~1\AppData\Local\Temp\ccYIfAxE.s:27331  .debug_str:000000000001e256 .LASF47
C:\Users\CYMR90~1\AppData\Local\Temp\ccYIfAxE.s:29087  .debug_str:0000000000024c59 .LASF48
C:\Users\CYMR90~1\AppData\Local\Temp\ccYIfAxE.s:23198  .debug_str:000000000000dd49 .LASF49
C:\Users\CYMR90~1\AppData\Local\Temp\ccYIfAxE.s:20232  .debug_str:0000000000001f9f .LASF50
C:\Users\CYMR90~1\AppData\Local\Temp\ccYIfAxE.s:19722  .debug_str:000000000000013f .LASF51
C:\Users\CYMR90~1\AppData\Local\Temp\ccYIfAxE.s:30467  .debug_str:000000000002a63f .LASF52
C:\Users\CYMR90~1\AppData\Local\Temp\ccYIfAxE.s:22998  .debug_str:000000000000d07c .LASF53
C:\Users\CYMR90~1\AppData\Local\Temp\ccYIfAxE.s:24782  .debug_str:0000000000013f01 .LASF54
C:\Users\CYMR90~1\AppData\Local\Temp\ccYIfAxE.s:20958  .debug_str:0000000000004e42 .LASF55
C:\Users\CYMR90~1\AppData\Local\Temp\ccYIfAxE.s:21704  .debug_str:0000000000007c2a .LASF56
C:\Users\CYMR90~1\AppData\Local\Temp\ccYIfAxE.s:25194  .debug_str:00000000000157a6 .LASF57
C:\Users\CYMR90~1\AppData\Local\Temp\ccYIfAxE.s:19966  .debug_str:0000000000001014 .LASF58
C:\Users\CYMR90~1\AppData\Local\Temp\ccYIfAxE.s:29379  .debug_str:0000000000026109 .LASF59
C:\Users\CYMR90~1\AppData\Local\Temp\ccYIfAxE.s:24706  .debug_str:0000000000013a73 .LASF60
C:\Users\CYMR90~1\AppData\Local\Temp\ccYIfAxE.s:26689  .debug_str:000000000001b8d3 .LASF61
C:\Users\CYMR90~1\AppData\Local\Temp\ccYIfAxE.s:20464  .debug_str:0000000000002df3 .LASF62
C:\Users\CYMR90~1\AppData\Local\Temp\ccYIfAxE.s:23190  .debug_str:000000000000dcdf .LASF63
C:\Users\CYMR90~1\AppData\Local\Temp\ccYIfAxE.s:22912  .debug_str:000000000000ca2d .LASF64
C:\Users\CYMR90~1\AppData\Local\Temp\ccYIfAxE.s:26391  .debug_str:000000000001a3a3 .LASF65
C:\Users\CYMR90~1\AppData\Local\Temp\ccYIfAxE.s:25018  .debug_str:0000000000014d10 .LASF66
C:\Users\CYMR90~1\AppData\Local\Temp\ccYIfAxE.s:30231  .debug_str:00000000000297f9 .LASF67
C:\Users\CYMR90~1\AppData\Local\Temp\ccYIfAxE.s:30697  .debug_str:000000000002b3dc .LASF68
C:\Users\CYMR90~1\AppData\Local\Temp\ccYIfAxE.s:24240  .debug_str:0000000000011bdb .LASF69
C:\Users\CYMR90~1\AppData\Local\Temp\ccYIfAxE.s:23348  .debug_str:000000000000e610 .LASF70
C:\Users\CYMR90~1\AppData\Local\Temp\ccYIfAxE.s:20898  .debug_str:0000000000004ab3 .LASF71
C:\Users\CYMR90~1\AppData\Local\Temp\ccYIfAxE.s:24278  .debug_str:0000000000011e98 .LASF72
C:\Users\CYMR90~1\AppData\Local\Temp\ccYIfAxE.s:23894  .debug_str:0000000000010635 .LASF73
C:\Users\CYMR90~1\AppData\Local\Temp\ccYIfAxE.s:24514  .debug_str:0000000000012d7e .LASF74
C:\Users\CYMR90~1\AppData\Local\Temp\ccYIfAxE.s:24350  .debug_str:0000000000012315 .LASF75
C:\Users\CYMR90~1\AppData\Local\Temp\ccYIfAxE.s:24452  .debug_str:000000000001295d .LASF76
C:\Users\CYMR90~1\AppData\Local\Temp\ccYIfAxE.s:28999  .debug_str:00000000000246aa .LASF77
C:\Users\CYMR90~1\AppData\Local\Temp\ccYIfAxE.s:26883  .debug_str:000000000001c49b .LASF78
C:\Users\CYMR90~1\AppData\Local\Temp\ccYIfAxE.s:27293  .debug_str:000000000001df81 .LASF79
C:\Users\CYMR90~1\AppData\Local\Temp\ccYIfAxE.s:30213  .debug_str:000000000002970d .LASF80
C:\Users\CYMR90~1\AppData\Local\Temp\ccYIfAxE.s:22220  .debug_str:0000000000009d8a .LASF81
C:\Users\CYMR90~1\AppData\Local\Temp\ccYIfAxE.s:22418  .debug_str:000000000000a9a9 .LASF82
C:\Users\CYMR90~1\AppData\Local\Temp\ccYIfAxE.s:30347  .debug_str:0000000000029fbd .LASF83
C:\Users\CYMR90~1\AppData\Local\Temp\ccYIfAxE.s:22158  .debug_str:000000000000996a .LASF84
C:\Users\CYMR90~1\AppData\Local\Temp\ccYIfAxE.s:21428  .debug_str:0000000000006a51 .LASF85
C:\Users\CYMR90~1\AppData\Local\Temp\ccYIfAxE.s:26591  .debug_str:000000000001b1f2 .LASF86
C:\Users\CYMR90~1\AppData\Local\Temp\ccYIfAxE.s:30381  .debug_str:000000000002a183 .LASF87
C:\Users\CYMR90~1\AppData\Local\Temp\ccYIfAxE.s:27731  .debug_str:000000000001fa55 .LASF88
C:\Users\CYMR90~1\AppData\Local\Temp\ccYIfAxE.s:26509  .debug_str:000000000001ac60 .LASF89
C:\Users\CYMR90~1\AppData\Local\Temp\ccYIfAxE.s:27761  .debug_str:000000000001fc10 .LASF90
C:\Users\CYMR90~1\AppData\Local\Temp\ccYIfAxE.s:30601  .debug_str:000000000002ae54 .LASF91
C:\Users\CYMR90~1\AppData\Local\Temp\ccYIfAxE.s:29387  .debug_str:0000000000026191 .LASF92
C:\Users\CYMR90~1\AppData\Local\Temp\ccYIfAxE.s:22300  .debug_str:000000000000a271 .LASF93
C:\Users\CYMR90~1\AppData\Local\Temp\ccYIfAxE.s:27165  .debug_str:000000000001d78f .LASF94
C:\Users\CYMR90~1\AppData\Local\Temp\ccYIfAxE.s:24738  .debug_str:0000000000013c77 .LASF95
C:\Users\CYMR90~1\AppData\Local\Temp\ccYIfAxE.s:24720  .debug_str:0000000000013b5e .LASF96
C:\Users\CYMR90~1\AppData\Local\Temp\ccYIfAxE.s:30905  .debug_str:000000000002c0dd .LASF97
C:\Users\CYMR90~1\AppData\Local\Temp\ccYIfAxE.s:24364  .debug_str:00000000000123f8 .LASF98
C:\Users\CYMR90~1\AppData\Local\Temp\ccYIfAxE.s:28349  .debug_str:0000000000021faf .LASF99
C:\Users\CYMR90~1\AppData\Local\Temp\ccYIfAxE.s:21648  .debug_str:00000000000078a7 .LASF100
C:\Users\CYMR90~1\AppData\Local\Temp\ccYIfAxE.s:23834  .debug_str:00000000000102d9 .LASF101
C:\Users\CYMR90~1\AppData\Local\Temp\ccYIfAxE.s:25258  .debug_str:0000000000015b37 .LASF102
C:\Users\CYMR90~1\AppData\Local\Temp\ccYIfAxE.s:24122  .debug_str:00000000000113f9 .LASF103
C:\Users\CYMR90~1\AppData\Local\Temp\ccYIfAxE.s:23098  .debug_str:000000000000d702 .LASF104
C:\Users\CYMR90~1\AppData\Local\Temp\ccYIfAxE.s:24300  .debug_str:0000000000011ff2 .LASF105
C:\Users\CYMR90~1\AppData\Local\Temp\ccYIfAxE.s:21406  .debug_str:00000000000068e5 .LASF106
C:\Users\CYMR90~1\AppData\Local\Temp\ccYIfAxE.s:24116  .debug_str:0000000000011394 .LASF107
C:\Users\CYMR90~1\AppData\Local\Temp\ccYIfAxE.s:23094  .debug_str:000000000000d6de .LASF108
C:\Users\CYMR90~1\AppData\Local\Temp\ccYIfAxE.s:24568  .debug_str:00000000000130df .LASF109
C:\Users\CYMR90~1\AppData\Local\Temp\ccYIfAxE.s:23472  .debug_str:000000000000edd5 .LASF110
C:\Users\CYMR90~1\AppData\Local\Temp\ccYIfAxE.s:26023  .debug_str:0000000000018afd .LASF111
C:\Users\CYMR90~1\AppData\Local\Temp\ccYIfAxE.s:22562  .debug_str:000000000000b3a7 .LASF112
C:\Users\CYMR90~1\AppData\Local\Temp\ccYIfAxE.s:22296  .debug_str:000000000000a214 .LASF113
C:\Users\CYMR90~1\AppData\Local\Temp\ccYIfAxE.s:25290  .debug_str:0000000000015d29 .LASF114
C:\Users\CYMR90~1\AppData\Local\Temp\ccYIfAxE.s:27831  .debug_str:0000000000020050 .LASF115
C:\Users\CYMR90~1\AppData\Local\Temp\ccYIfAxE.s:28879  .debug_str:0000000000023f05 .LASF116
C:\Users\CYMR90~1\AppData\Local\Temp\ccYIfAxE.s:22052  .debug_str:000000000000932b .LASF117
C:\Users\CYMR90~1\AppData\Local\Temp\ccYIfAxE.s:26751  .debug_str:000000000001bcaf .LASF118
C:\Users\CYMR90~1\AppData\Local\Temp\ccYIfAxE.s:31013  .debug_str:000000000002c820 .LASF119
C:\Users\CYMR90~1\AppData\Local\Temp\ccYIfAxE.s:23394  .debug_str:000000000000e8b7 .LASF120
C:\Users\CYMR90~1\AppData\Local\Temp\ccYIfAxE.s:28981  .debug_str:00000000000244a9 .LASF121
C:\Users\CYMR90~1\AppData\Local\Temp\ccYIfAxE.s:22872  .debug_str:000000000000c7b3 .LASF122
C:\Users\CYMR90~1\AppData\Local\Temp\ccYIfAxE.s:22984  .debug_str:000000000000cfcf .LASF123
C:\Users\CYMR90~1\AppData\Local\Temp\ccYIfAxE.s:20578  .debug_str:0000000000003526 .LASF124
C:\Users\CYMR90~1\AppData\Local\Temp\ccYIfAxE.s:20862  .debug_str:00000000000047a4 .LASF125
C:\Users\CYMR90~1\AppData\Local\Temp\ccYIfAxE.s:29951  .debug_str:0000000000028562 .LASF126
C:\Users\CYMR90~1\AppData\Local\Temp\ccYIfAxE.s:24306  .debug_str:0000000000012030 .LASF127
C:\Users\CYMR90~1\AppData\Local\Temp\ccYIfAxE.s:27141  .debug_str:000000000001d631 .LASF128
C:\Users\CYMR90~1\AppData\Local\Temp\ccYIfAxE.s:22126  .debug_str:0000000000009762 .LASF129
C:\Users\CYMR90~1\AppData\Local\Temp\ccYIfAxE.s:29503  .debug_str:00000000000268ab .LASF130
C:\Users\CYMR90~1\AppData\Local\Temp\ccYIfAxE.s:29821  .debug_str:0000000000027cc8 .LASF131
C:\Users\CYMR90~1\AppData\Local\Temp\ccYIfAxE.s:29625  .debug_str:0000000000027026 .LASF132
C:\Users\CYMR90~1\AppData\Local\Temp\ccYIfAxE.s:23370  .debug_str:000000000000e746 .LASF133
C:\Users\CYMR90~1\AppData\Local\Temp\ccYIfAxE.s:28895  .debug_str:0000000000023fe9 .LASF134
C:\Users\CYMR90~1\AppData\Local\Temp\ccYIfAxE.s:20854  .debug_str:0000000000004712 .LASF135
C:\Users\CYMR90~1\AppData\Local\Temp\ccYIfAxE.s:21750  .debug_str:0000000000007f43 .LASF136
C:\Users\CYMR90~1\AppData\Local\Temp\ccYIfAxE.s:30689  .debug_str:000000000002b372 .LASF137
C:\Users\CYMR90~1\AppData\Local\Temp\ccYIfAxE.s:24564  .debug_str:00000000000130af .LASF138
C:\Users\CYMR90~1\AppData\Local\Temp\ccYIfAxE.s:30161  .debug_str:00000000000293f0 .LASF139
C:\Users\CYMR90~1\AppData\Local\Temp\ccYIfAxE.s:29267  .debug_str:00000000000258d6 .LASF140
C:\Users\CYMR90~1\AppData\Local\Temp\ccYIfAxE.s:26841  .debug_str:000000000001c206 .LASF141
C:\Users\CYMR90~1\AppData\Local\Temp\ccYIfAxE.s:22256  .debug_str:0000000000009faa .LASF142
C:\Users\CYMR90~1\AppData\Local\Temp\ccYIfAxE.s:30763  .debug_str:000000000002b779 .LASF143
C:\Users\CYMR90~1\AppData\Local\Temp\ccYIfAxE.s:25991  .debug_str:0000000000018906 .LASF144
C:\Users\CYMR90~1\AppData\Local\Temp\ccYIfAxE.s:25032  .debug_str:0000000000014e0c .LASF145
C:\Users\CYMR90~1\AppData\Local\Temp\ccYIfAxE.s:22946  .debug_str:000000000000cd09 .LASF146
C:\Users\CYMR90~1\AppData\Local\Temp\ccYIfAxE.s:20896  .debug_str:0000000000004a9c .LASF147
C:\Users\CYMR90~1\AppData\Local\Temp\ccYIfAxE.s:23514  .debug_str:000000000000f027 .LASF148
C:\Users\CYMR90~1\AppData\Local\Temp\ccYIfAxE.s:25969  .debug_str:00000000000187a6 .LASF149
C:\Users\CYMR90~1\AppData\Local\Temp\ccYIfAxE.s:19806  .debug_str:00000000000005d4 .LASF150
C:\Users\CYMR90~1\AppData\Local\Temp\ccYIfAxE.s:31243  .debug_str:000000000002d721 .LASF151
C:\Users\CYMR90~1\AppData\Local\Temp\ccYIfAxE.s:24558  .debug_str:000000000001302d .LASF152
C:\Users\CYMR90~1\AppData\Local\Temp\ccYIfAxE.s:29273  .debug_str:0000000000025929 .LASF153
C:\Users\CYMR90~1\AppData\Local\Temp\ccYIfAxE.s:27047  .debug_str:000000000001cee2 .LASF154
C:\Users\CYMR90~1\AppData\Local\Temp\ccYIfAxE.s:23952  .debug_str:0000000000010997 .LASF155
C:\Users\CYMR90~1\AppData\Local\Temp\ccYIfAxE.s:27059  .debug_str:000000000001cfc8 .LASF156
C:\Users\CYMR90~1\AppData\Local\Temp\ccYIfAxE.s:27171  .debug_str:000000000001d7f7 .LASF157
C:\Users\CYMR90~1\AppData\Local\Temp\ccYIfAxE.s:22802  .debug_str:000000000000c39e .LASF158
C:\Users\CYMR90~1\AppData\Local\Temp\ccYIfAxE.s:21850  .debug_str:00000000000086f7 .LASF159
C:\Users\CYMR90~1\AppData\Local\Temp\ccYIfAxE.s:26695  .debug_str:000000000001b927 .LASF160
C:\Users\CYMR90~1\AppData\Local\Temp\ccYIfAxE.s:28147  .debug_str:0000000000021339 .LASF161
C:\Users\CYMR90~1\AppData\Local\Temp\ccYIfAxE.s:26297  .debug_str:0000000000019e19 .LASF162
C:\Users\CYMR90~1\AppData\Local\Temp\ccYIfAxE.s:28887  .debug_str:0000000000023f77 .LASF163
C:\Users\CYMR90~1\AppData\Local\Temp\ccYIfAxE.s:30587  .debug_str:000000000002ad9c .LASF164
C:\Users\CYMR90~1\AppData\Local\Temp\ccYIfAxE.s:21598  .debug_str:000000000000756d .LASF165
C:\Users\CYMR90~1\AppData\Local\Temp\ccYIfAxE.s:30261  .debug_str:00000000000299c6 .LASF166
C:\Users\CYMR90~1\AppData\Local\Temp\ccYIfAxE.s:30083  .debug_str:0000000000028f06 .LASF167
C:\Users\CYMR90~1\AppData\Local\Temp\ccYIfAxE.s:27617  .debug_str:000000000001f34d .LASF168
C:\Users\CYMR90~1\AppData\Local\Temp\ccYIfAxE.s:25751  .debug_str:0000000000017a9d .LASF169
C:\Users\CYMR90~1\AppData\Local\Temp\ccYIfAxE.s:29687  .debug_str:00000000000273ed .LASF170
C:\Users\CYMR90~1\AppData\Local\Temp\ccYIfAxE.s:25372  .debug_str:0000000000016274 .LASF171
C:\Users\CYMR90~1\AppData\Local\Temp\ccYIfAxE.s:26965  .debug_str:000000000001c924 .LASF172
C:\Users\CYMR90~1\AppData\Local\Temp\ccYIfAxE.s:22248  .debug_str:0000000000009f36 .LASF173
C:\Users\CYMR90~1\AppData\Local\Temp\ccYIfAxE.s:28701  .debug_str:00000000000234b5 .LASF174
C:\Users\CYMR90~1\AppData\Local\Temp\ccYIfAxE.s:21250  .debug_str:0000000000005fb3 .LASF175
C:\Users\CYMR90~1\AppData\Local\Temp\ccYIfAxE.s:22096  .debug_str:00000000000095c1 .LASF176
C:\Users\CYMR90~1\AppData\Local\Temp\ccYIfAxE.s:20724  .debug_str:0000000000003e71 .LASF177
C:\Users\CYMR90~1\AppData\Local\Temp\ccYIfAxE.s:26167  .debug_str:0000000000019557 .LASF178
C:\Users\CYMR90~1\AppData\Local\Temp\ccYIfAxE.s:23040  .debug_str:000000000000d353 .LASF179
C:\Users\CYMR90~1\AppData\Local\Temp\ccYIfAxE.s:21424  .debug_str:0000000000006a1d .LASF180
C:\Users\CYMR90~1\AppData\Local\Temp\ccYIfAxE.s:30901  .debug_str:000000000002c0b2 .LASF181
C:\Users\CYMR90~1\AppData\Local\Temp\ccYIfAxE.s:19998  .debug_str:00000000000011f4 .LASF182
C:\Users\CYMR90~1\AppData\Local\Temp\ccYIfAxE.s:24676  .debug_str:000000000001380f .LASF183
C:\Users\CYMR90~1\AppData\Local\Temp\ccYIfAxE.s:25098  .debug_str:000000000001525b .LASF184
C:\Users\CYMR90~1\AppData\Local\Temp\ccYIfAxE.s:30093  .debug_str:0000000000028fb5 .LASF185
C:\Users\CYMR90~1\AppData\Local\Temp\ccYIfAxE.s:23140  .debug_str:000000000000da37 .LASF186
C:\Users\CYMR90~1\AppData\Local\Temp\ccYIfAxE.s:21582  .debug_str:000000000000740c .LASF187
C:\Users\CYMR90~1\AppData\Local\Temp\ccYIfAxE.s:27707  .debug_str:000000000001f929 .LASF188
C:\Users\CYMR90~1\AppData\Local\Temp\ccYIfAxE.s:23412  .debug_str:000000000000ea29 .LASF189
C:\Users\CYMR90~1\AppData\Local\Temp\ccYIfAxE.s:24788  .debug_str:0000000000013f60 .LASF190
C:\Users\CYMR90~1\AppData\Local\Temp\ccYIfAxE.s:25985  .debug_str:00000000000188b7 .LASF191
C:\Users\CYMR90~1\AppData\Local\Temp\ccYIfAxE.s:25536  .debug_str:0000000000016ca3 .LASF192
C:\Users\CYMR90~1\AppData\Local\Temp\ccYIfAxE.s:28453  .debug_str:00000000000225f0 .LASF193
C:\Users\CYMR90~1\AppData\Local\Temp\ccYIfAxE.s:21200  .debug_str:0000000000005cf6 .LASF194
C:\Users\CYMR90~1\AppData\Local\Temp\ccYIfAxE.s:20544  .debug_str:00000000000032f8 .LASF195
C:\Users\CYMR90~1\AppData\Local\Temp\ccYIfAxE.s:23244  .debug_str:000000000000dfb5 .LASF196
C:\Users\CYMR90~1\AppData\Local\Temp\ccYIfAxE.s:24184  .debug_str:00000000000117c5 .LASF197
C:\Users\CYMR90~1\AppData\Local\Temp\ccYIfAxE.s:21050  .debug_str:00000000000053a5 .LASF198
C:\Users\CYMR90~1\AppData\Local\Temp\ccYIfAxE.s:29983  .debug_str:00000000000287a9 .LASF199
C:\Users\CYMR90~1\AppData\Local\Temp\ccYIfAxE.s:28085  .debug_str:0000000000020fff .LASF200
C:\Users\CYMR90~1\AppData\Local\Temp\ccYIfAxE.s:27179  .debug_str:000000000001d855 .LASF201
C:\Users\CYMR90~1\AppData\Local\Temp\ccYIfAxE.s:22224  .debug_str:0000000000009dbd .LASF202
C:\Users\CYMR90~1\AppData\Local\Temp\ccYIfAxE.s:30445  .debug_str:000000000002a50a .LASF203
C:\Users\CYMR90~1\AppData\Local\Temp\ccYIfAxE.s:20560  .debug_str:0000000000003403 .LASF204
C:\Users\CYMR90~1\AppData\Local\Temp\ccYIfAxE.s:23646  .debug_str:000000000000f7d0 .LASF205
C:\Users\CYMR90~1\AppData\Local\Temp\ccYIfAxE.s:30169  .debug_str:000000000002944b .LASF206
C:\Users\CYMR90~1\AppData\Local\Temp\ccYIfAxE.s:24910  .debug_str:00000000000146d8 .LASF207
C:\Users\CYMR90~1\AppData\Local\Temp\ccYIfAxE.s:27749  .debug_str:000000000001fb6e .LASF208
C:\Users\CYMR90~1\AppData\Local\Temp\ccYIfAxE.s:22868  .debug_str:000000000000c784 .LASF209
C:\Users\CYMR90~1\AppData\Local\Temp\ccYIfAxE.s:31111  .debug_str:000000000002ce5d .LASF210
C:\Users\CYMR90~1\AppData\Local\Temp\ccYIfAxE.s:24880  .debug_str:000000000001450d .LASF211
C:\Users\CYMR90~1\AppData\Local\Temp\ccYIfAxE.s:27589  .debug_str:000000000001f18d .LASF212
C:\Users\CYMR90~1\AppData\Local\Temp\ccYIfAxE.s:26187  .debug_str:000000000001967b .LASF213
C:\Users\CYMR90~1\AppData\Local\Temp\ccYIfAxE.s:21292  .debug_str:0000000000006207 .LASF214
C:\Users\CYMR90~1\AppData\Local\Temp\ccYIfAxE.s:24888  .debug_str:000000000001457d .LASF215
C:\Users\CYMR90~1\AppData\Local\Temp\ccYIfAxE.s:26879  .debug_str:000000000001c44b .LASF216
C:\Users\CYMR90~1\AppData\Local\Temp\ccYIfAxE.s:27861  .debug_str:00000000000201f2 .LASF217
C:\Users\CYMR90~1\AppData\Local\Temp\ccYIfAxE.s:23728  .debug_str:000000000000fd1d .LASF218
C:\Users\CYMR90~1\AppData\Local\Temp\ccYIfAxE.s:29275  .debug_str:0000000000025965 .LASF219
C:\Users\CYMR90~1\AppData\Local\Temp\ccYIfAxE.s:29079  .debug_str:0000000000024beb .LASF220
C:\Users\CYMR90~1\AppData\Local\Temp\ccYIfAxE.s:28601  .debug_str:0000000000022e75 .LASF221
C:\Users\CYMR90~1\AppData\Local\Temp\ccYIfAxE.s:25180  .debug_str:00000000000156fd .LASF222
C:\Users\CYMR90~1\AppData\Local\Temp\ccYIfAxE.s:21260  .debug_str:0000000000006035 .LASF223
C:\Users\CYMR90~1\AppData\Local\Temp\ccYIfAxE.s:21956  .debug_str:0000000000008d54 .LASF224
C:\Users\CYMR90~1\AppData\Local\Temp\ccYIfAxE.s:30773  .debug_str:000000000002b7fd .LASF225
C:\Users\CYMR90~1\AppData\Local\Temp\ccYIfAxE.s:23312  .debug_str:000000000000e417 .LASF226
C:\Users\CYMR90~1\AppData\Local\Temp\ccYIfAxE.s:27043  .debug_str:000000000001ceb4 .LASF227
C:\Users\CYMR90~1\AppData\Local\Temp\ccYIfAxE.s:26889  .debug_str:000000000001c4f1 .LASF228
C:\Users\CYMR90~1\AppData\Local\Temp\ccYIfAxE.s:23258  .debug_str:000000000000e092 .LASF229
C:\Users\CYMR90~1\AppData\Local\Temp\ccYIfAxE.s:27627  .debug_str:000000000001f406 .LASF230
C:\Users\CYMR90~1\AppData\Local\Temp\ccYIfAxE.s:22740  .debug_str:000000000000bf1b .LASF231
C:\Users\CYMR90~1\AppData\Local\Temp\ccYIfAxE.s:21304  .debug_str:00000000000062dc .LASF232
C:\Users\CYMR90~1\AppData\Local\Temp\ccYIfAxE.s:21904  .debug_str:00000000000089fc .LASF233
C:\Users\CYMR90~1\AppData\Local\Temp\ccYIfAxE.s:23944  .debug_str:0000000000010914 .LASF234
C:\Users\CYMR90~1\AppData\Local\Temp\ccYIfAxE.s:23642  .debug_str:000000000000f788 .LASF235
C:\Users\CYMR90~1\AppData\Local\Temp\ccYIfAxE.s:28815  .debug_str:0000000000023b06 .LASF236
C:\Users\CYMR90~1\AppData\Local\Temp\ccYIfAxE.s:23666  .debug_str:000000000000f8e0 .LASF237
C:\Users\CYMR90~1\AppData\Local\Temp\ccYIfAxE.s:29499  .debug_str:000000000002686f .LASF238
C:\Users\CYMR90~1\AppData\Local\Temp\ccYIfAxE.s:28799  .debug_str:0000000000023a05 .LASF239
C:\Users\CYMR90~1\AppData\Local\Temp\ccYIfAxE.s:29041  .debug_str:000000000002499f .LASF240
C:\Users\CYMR90~1\AppData\Local\Temp\ccYIfAxE.s:21716  .debug_str:0000000000007d35 .LASF241
C:\Users\CYMR90~1\AppData\Local\Temp\ccYIfAxE.s:23334  .debug_str:000000000000e52f .LASF242
C:\Users\CYMR90~1\AppData\Local\Temp\ccYIfAxE.s:24346  .debug_str:00000000000122ad .LASF243
C:\Users\CYMR90~1\AppData\Local\Temp\ccYIfAxE.s:28825  .debug_str:0000000000023b7e .LASF244
C:\Users\CYMR90~1\AppData\Local\Temp\ccYIfAxE.s:24542  .debug_str:0000000000012f0d .LASF245
C:\Users\CYMR90~1\AppData\Local\Temp\ccYIfAxE.s:27639  .debug_str:000000000001f4eb .LASF246
C:\Users\CYMR90~1\AppData\Local\Temp\ccYIfAxE.s:25949  .debug_str:000000000001866a .LASF247
C:\Users\CYMR90~1\AppData\Local\Temp\ccYIfAxE.s:25464  .debug_str:0000000000016824 .LASF248
C:\Users\CYMR90~1\AppData\Local\Temp\ccYIfAxE.s:26981  .debug_str:000000000001ca46 .LASF249
C:\Users\CYMR90~1\AppData\Local\Temp\ccYIfAxE.s:26353  .debug_str:000000000001a163 .LASF250
C:\Users\CYMR90~1\AppData\Local\Temp\ccYIfAxE.s:26911  .debug_str:000000000001c61d .LASF251
C:\Users\CYMR90~1\AppData\Local\Temp\ccYIfAxE.s:28649  .debug_str:00000000000231db .LASF252
C:\Users\CYMR90~1\AppData\Local\Temp\ccYIfAxE.s:23228  .debug_str:000000000000def3 .LASF253
C:\Users\CYMR90~1\AppData\Local\Temp\ccYIfAxE.s:29351  .debug_str:0000000000025f5d .LASF254
C:\Users\CYMR90~1\AppData\Local\Temp\ccYIfAxE.s:23080  .debug_str:000000000000d5d4 .LASF255
C:\Users\CYMR90~1\AppData\Local\Temp\ccYIfAxE.s:26261  .debug_str:0000000000019bc9 .LASF256
C:\Users\CYMR90~1\AppData\Local\Temp\ccYIfAxE.s:23330  .debug_str:000000000000e4fd .LASF257
C:\Users\CYMR90~1\AppData\Local\Temp\ccYIfAxE.s:27575  .debug_str:000000000001f0a8 .LASF258
C:\Users\CYMR90~1\AppData\Local\Temp\ccYIfAxE.s:22520  .debug_str:000000000000b015 .LASF259
C:\Users\CYMR90~1\AppData\Local\Temp\ccYIfAxE.s:19882  .debug_str:0000000000000a4d .LASF260
C:\Users\CYMR90~1\AppData\Local\Temp\ccYIfAxE.s:28643  .debug_str:0000000000023161 .LASF261
C:\Users\CYMR90~1\AppData\Local\Temp\ccYIfAxE.s:29963  .debug_str:0000000000028608 .LASF262
C:\Users\CYMR90~1\AppData\Local\Temp\ccYIfAxE.s:24860  .debug_str:000000000001438d .LASF263
C:\Users\CYMR90~1\AppData\Local\Temp\ccYIfAxE.s:26863  .debug_str:000000000001c35e .LASF264
C:\Users\CYMR90~1\AppData\Local\Temp\ccYIfAxE.s:21902  .debug_str:00000000000089e1 .LASF265
C:\Users\CYMR90~1\AppData\Local\Temp\ccYIfAxE.s:31171  .debug_str:000000000002d268 .LASF266
C:\Users\CYMR90~1\AppData\Local\Temp\ccYIfAxE.s:22574  .debug_str:000000000000b46c .LASF267
C:\Users\CYMR90~1\AppData\Local\Temp\ccYIfAxE.s:26969  .debug_str:000000000001c95f .LASF268
C:\Users\CYMR90~1\AppData\Local\Temp\ccYIfAxE.s:22892  .debug_str:000000000000c909 .LASF269
C:\Users\CYMR90~1\AppData\Local\Temp\ccYIfAxE.s:23854  .debug_str:0000000000010444 .LASF270
C:\Users\CYMR90~1\AppData\Local\Temp\ccYIfAxE.s:25150  .debug_str:0000000000015527 .LASF271
C:\Users\CYMR90~1\AppData\Local\Temp\ccYIfAxE.s:29607  .debug_str:0000000000026f2c .LASF272
C:\Users\CYMR90~1\AppData\Local\Temp\ccYIfAxE.s:21472  .debug_str:0000000000006ce5 .LASF273
C:\Users\CYMR90~1\AppData\Local\Temp\ccYIfAxE.s:20342  .debug_str:00000000000025c0 .LASF274
C:\Users\CYMR90~1\AppData\Local\Temp\ccYIfAxE.s:21566  .debug_str:00000000000072f5 .LASF275
C:\Users\CYMR90~1\AppData\Local\Temp\ccYIfAxE.s:20616  .debug_str:000000000000376d .LASF276
C:\Users\CYMR90~1\AppData\Local\Temp\ccYIfAxE.s:22786  .debug_str:000000000000c2b3 .LASF277
C:\Users\CYMR90~1\AppData\Local\Temp\ccYIfAxE.s:20022  .debug_str:000000000000132f .LASF278
C:\Users\CYMR90~1\AppData\Local\Temp\ccYIfAxE.s:21392  .debug_str:0000000000006801 .LASF279
C:\Users\CYMR90~1\AppData\Local\Temp\ccYIfAxE.s:30283  .debug_str:0000000000029b86 .LASF280
C:\Users\CYMR90~1\AppData\Local\Temp\ccYIfAxE.s:22274  .debug_str:000000000000a0ad .LASF281
C:\Users\CYMR90~1\AppData\Local\Temp\ccYIfAxE.s:21352  .debug_str:00000000000065de .LASF282
C:\Users\CYMR90~1\AppData\Local\Temp\ccYIfAxE.s:21254  .debug_str:0000000000005fe3 .LASF283
C:\Users\CYMR90~1\AppData\Local\Temp\ccYIfAxE.s:21004  .debug_str:000000000000511c .LASF284
C:\Users\CYMR90~1\AppData\Local\Temp\ccYIfAxE.s:29149  .debug_str:0000000000025052 .LASF285
C:\Users\CYMR90~1\AppData\Local\Temp\ccYIfAxE.s:29995  .debug_str:000000000002889f .LASF286
C:\Users\CYMR90~1\AppData\Local\Temp\ccYIfAxE.s:30269  .debug_str:0000000000029a23 .LASF287
C:\Users\CYMR90~1\AppData\Local\Temp\ccYIfAxE.s:30183  .debug_str:000000000002951c .LASF288
C:\Users\CYMR90~1\AppData\Local\Temp\ccYIfAxE.s:31043  .debug_str:000000000002ca03 .LASF289
C:\Users\CYMR90~1\AppData\Local\Temp\ccYIfAxE.s:25893  .debug_str:0000000000018335 .LASF290
C:\Users\CYMR90~1\AppData\Local\Temp\ccYIfAxE.s:24914  .debug_str:00000000000146fe .LASF291
C:\Users\CYMR90~1\AppData\Local\Temp\ccYIfAxE.s:29185  .debug_str:00000000000252af .LASF292
C:\Users\CYMR90~1\AppData\Local\Temp\ccYIfAxE.s:20642  .debug_str:0000000000003968 .LASF293
C:\Users\CYMR90~1\AppData\Local\Temp\ccYIfAxE.s:28097  .debug_str:000000000002107e .LASF294
C:\Users\CYMR90~1\AppData\Local\Temp\ccYIfAxE.s:20922  .debug_str:0000000000004c26 .LASF295
C:\Users\CYMR90~1\AppData\Local\Temp\ccYIfAxE.s:30631  .debug_str:000000000002b037 .LASF296
C:\Users\CYMR90~1\AppData\Local\Temp\ccYIfAxE.s:30823  .debug_str:000000000002bb5c .LASF297
C:\Users\CYMR90~1\AppData\Local\Temp\ccYIfAxE.s:25771  .debug_str:0000000000017c16 .LASF298
C:\Users\CYMR90~1\AppData\Local\Temp\ccYIfAxE.s:19866  .debug_str:0000000000000950 .LASF299
C:\Users\CYMR90~1\AppData\Local\Temp\ccYIfAxE.s:23748  .debug_str:000000000000fe47 .LASF300
C:\Users\CYMR90~1\AppData\Local\Temp\ccYIfAxE.s:26535  .debug_str:000000000001ae50 .LASF301
C:\Users\CYMR90~1\AppData\Local\Temp\ccYIfAxE.s:25026  .debug_str:0000000000014d7e .LASF302
C:\Users\CYMR90~1\AppData\Local\Temp\ccYIfAxE.s:24490  .debug_str:0000000000012bde .LASF303
C:\Users\CYMR90~1\AppData\Local\Temp\ccYIfAxE.s:20264  .debug_str:0000000000002131 .LASF304
C:\Users\CYMR90~1\AppData\Local\Temp\ccYIfAxE.s:22900  .debug_str:000000000000c98d .LASF305
C:\Users\CYMR90~1\AppData\Local\Temp\ccYIfAxE.s:28313  .debug_str:0000000000021db1 .LASF306
C:\Users\CYMR90~1\AppData\Local\Temp\ccYIfAxE.s:23766  .debug_str:000000000000ff76 .LASF307
C:\Users\CYMR90~1\AppData\Local\Temp\ccYIfAxE.s:29169  .debug_str:00000000000251a8 .LASF308
C:\Users\CYMR90~1\AppData\Local\Temp\ccYIfAxE.s:28767  .debug_str:000000000002383d .LASF309
C:\Users\CYMR90~1\AppData\Local\Temp\ccYIfAxE.s:23314  .debug_str:000000000000e430 .LASF310
C:\Users\CYMR90~1\AppData\Local\Temp\ccYIfAxE.s:29495  .debug_str:0000000000026844 .LASF311
C:\Users\CYMR90~1\AppData\Local\Temp\ccYIfAxE.s:28991  .debug_str:000000000002461d .LASF312
C:\Users\CYMR90~1\AppData\Local\Temp\ccYIfAxE.s:23020  .debug_str:000000000000d1c0 .LASF313
C:\Users\CYMR90~1\AppData\Local\Temp\ccYIfAxE.s:26043  .debug_str:0000000000018c57 .LASF316
C:\Users\CYMR90~1\AppData\Local\Temp\ccYIfAxE.s:26407  .debug_str:000000000001a477 .LASF317
C:\Users\CYMR90~1\AppData\Local\Temp\ccYIfAxE.s:26757  .debug_str:000000000001bced .LASF318
C:\Users\CYMR90~1\AppData\Local\Temp\ccYIfAxE.s:23758  .debug_str:000000000000ff0a .LASF319
C:\Users\CYMR90~1\AppData\Local\Temp\ccYIfAxE.s:22652  .debug_str:000000000000b980 .LASF320
C:\Users\CYMR90~1\AppData\Local\Temp\ccYIfAxE.s:30229  .debug_str:00000000000297ed .LASF321
C:\Users\CYMR90~1\AppData\Local\Temp\ccYIfAxE.s:23226  .debug_str:000000000000dee6 .LASF322
C:\Users\CYMR90~1\AppData\Local\Temp\ccYIfAxE.s:29445  .debug_str:0000000000026527 .LASF323
C:\Users\CYMR90~1\AppData\Local\Temp\ccYIfAxE.s:19738  .debug_str:0000000000000231 .LASF324
C:\Users\CYMR90~1\AppData\Local\Temp\ccYIfAxE.s:30653  .debug_str:000000000002b15b .LASF325
C:\Users\CYMR90~1\AppData\Local\Temp\ccYIfAxE.s:20696  .debug_str:0000000000003cb1 .LASF326
C:\Users\CYMR90~1\AppData\Local\Temp\ccYIfAxE.s:24848  .debug_str:00000000000142cd .LASF327
C:\Users\CYMR90~1\AppData\Local\Temp\ccYIfAxE.s:24492  .debug_str:0000000000012bf3 .LASF328
C:\Users\CYMR90~1\AppData\Local\Temp\ccYIfAxE.s:27423  .debug_str:000000000001e7aa .LASF329
C:\Users\CYMR90~1\AppData\Local\Temp\ccYIfAxE.s:27415  .debug_str:000000000001e759 .LASF330
C:\Users\CYMR90~1\AppData\Local\Temp\ccYIfAxE.s:29649  .debug_str:00000000000271b9 .LASF331
C:\Users\CYMR90~1\AppData\Local\Temp\ccYIfAxE.s:28355  .debug_str:0000000000022025 .LASF332
C:\Users\CYMR90~1\AppData\Local\Temp\ccYIfAxE.s:30405  .debug_str:000000000002a2e2 .LASF333
C:\Users\CYMR90~1\AppData\Local\Temp\ccYIfAxE.s:26381  .debug_str:000000000001a30e .LASF334
C:\Users\CYMR90~1\AppData\Local\Temp\ccYIfAxE.s:25817  .debug_str:0000000000017ebe .LASF335
C:\Users\CYMR90~1\AppData\Local\Temp\ccYIfAxE.s:30249  .debug_str:000000000002992f .LASF336
C:\Users\CYMR90~1\AppData\Local\Temp\ccYIfAxE.s:24414  .debug_str:00000000000126f2 .LASF337
C:\Users\CYMR90~1\AppData\Local\Temp\ccYIfAxE.s:28155  .debug_str:00000000000213a5 .LASF338
C:\Users\CYMR90~1\AppData\Local\Temp\ccYIfAxE.s:22388  .debug_str:000000000000a827 .LASF339
C:\Users\CYMR90~1\AppData\Local\Temp\ccYIfAxE.s:24626  .debug_str:00000000000134ac .LASF340
C:\Users\CYMR90~1\AppData\Local\Temp\ccYIfAxE.s:26583  .debug_str:000000000001b13b .LASF341
C:\Users\CYMR90~1\AppData\Local\Temp\ccYIfAxE.s:22718  .debug_str:000000000000bdd6 .LASF342
C:\Users\CYMR90~1\AppData\Local\Temp\ccYIfAxE.s:20004  .debug_str:000000000000123f .LASF343
C:\Users\CYMR90~1\AppData\Local\Temp\ccYIfAxE.s:30371  .debug_str:000000000002a0f2 .LASF344
C:\Users\CYMR90~1\AppData\Local\Temp\ccYIfAxE.s:30983  .debug_str:000000000002c5fd .LASF345
C:\Users\CYMR90~1\AppData\Local\Temp\ccYIfAxE.s:23632  .debug_str:000000000000f700 .LASF346
C:\Users\CYMR90~1\AppData\Local\Temp\ccYIfAxE.s:19854  .debug_str:0000000000000899 .LASF347
C:\Users\CYMR90~1\AppData\Local\Temp\ccYIfAxE.s:27947  .debug_str:0000000000020733 .LASF348
C:\Users\CYMR90~1\AppData\Local\Temp\ccYIfAxE.s:29973  .debug_str:00000000000286d7 .LASF349
C:\Users\CYMR90~1\AppData\Local\Temp\ccYIfAxE.s:27417  .debug_str:000000000001e765 .LASF350
C:\Users\CYMR90~1\AppData\Local\Temp\ccYIfAxE.s:19784  .debug_str:00000000000004b2 .LASF351
C:\Users\CYMR90~1\AppData\Local\Temp\ccYIfAxE.s:27711  .debug_str:000000000001f959 .LASF352
C:\Users\CYMR90~1\AppData\Local\Temp\ccYIfAxE.s:29437  .debug_str:00000000000264bd .LASF353
C:\Users\CYMR90~1\AppData\Local\Temp\ccYIfAxE.s:27029  .debug_str:000000000001ce02 .LASF354
C:\Users\CYMR90~1\AppData\Local\Temp\ccYIfAxE.s:27197  .debug_str:000000000001d97a .LASF355
C:\Users\CYMR90~1\AppData\Local\Temp\ccYIfAxE.s:23104  .debug_str:000000000000d7f8 .LASF356
C:\Users\CYMR90~1\AppData\Local\Temp\ccYIfAxE.s:26337  .debug_str:000000000001a091 .LASF357
C:\Users\CYMR90~1\AppData\Local\Temp\ccYIfAxE.s:29881  .debug_str:0000000000028082 .LASF358
C:\Users\CYMR90~1\AppData\Local\Temp\ccYIfAxE.s:24482  .debug_str:0000000000012b36 .LASF359
C:\Users\CYMR90~1\AppData\Local\Temp\ccYIfAxE.s:22488  .debug_str:000000000000ae44 .LASF360
C:\Users\CYMR90~1\AppData\Local\Temp\ccYIfAxE.s:25693  .debug_str:0000000000017717 .LASF361
C:\Users\CYMR90~1\AppData\Local\Temp\ccYIfAxE.s:24208  .debug_str:0000000000011956 .LASF362
C:\Users\CYMR90~1\AppData\Local\Temp\ccYIfAxE.s:30151  .debug_str:000000000002934e .LASF363
C:\Users\CYMR90~1\AppData\Local\Temp\ccYIfAxE.s:22036  .debug_str:0000000000009257 .LASF364
C:\Users\CYMR90~1\AppData\Local\Temp\ccYIfAxE.s:30045  .debug_str:0000000000028c45 .LASF365
C:\Users\CYMR90~1\AppData\Local\Temp\ccYIfAxE.s:21432  .debug_str:0000000000006ab6 .LASF366
C:\Users\CYMR90~1\AppData\Local\Temp\ccYIfAxE.s:24618  .debug_str:000000000001340e .LASF367
C:\Users\CYMR90~1\AppData\Local\Temp\ccYIfAxE.s:21724  .debug_str:0000000000007db3 .LASF368
C:\Users\CYMR90~1\AppData\Local\Temp\ccYIfAxE.s:25861  .debug_str:0000000000018158 .LASF372
C:\Users\CYMR90~1\AppData\Local\Temp\ccYIfAxE.s:29689  .debug_str:0000000000027432 .LASF373
C:\Users\CYMR90~1\AppData\Local\Temp\ccYIfAxE.s:22468  .debug_str:000000000000acfb .LASF374
C:\Users\CYMR90~1\AppData\Local\Temp\ccYIfAxE.s:25649  .debug_str:00000000000174d5 .LASF375
C:\Users\CYMR90~1\AppData\Local\Temp\ccYIfAxE.s:25847  .debug_str:000000000001808e .LASF376
C:\Users\CYMR90~1\AppData\Local\Temp\ccYIfAxE.s:28417  .debug_str:00000000000223d5 .LASF377
C:\Users\CYMR90~1\AppData\Local\Temp\ccYIfAxE.s:27045  .debug_str:000000000001cecd .LASF378
C:\Users\CYMR90~1\AppData\Local\Temp\ccYIfAxE.s:30815  .debug_str:000000000002bae9 .LASF379
C:\Users\CYMR90~1\AppData\Local\Temp\ccYIfAxE.s:20360  .debug_str:0000000000002700 .LASF380
C:\Users\CYMR90~1\AppData\Local\Temp\ccYIfAxE.s:30753  .debug_str:000000000002b6f9 .LASF381
C:\Users\CYMR90~1\AppData\Local\Temp\ccYIfAxE.s:26765  .debug_str:000000000001bd3e .LASF382
C:\Users\CYMR90~1\AppData\Local\Temp\ccYIfAxE.s:21490  .debug_str:0000000000006e10 .LASF383
C:\Users\CYMR90~1\AppData\Local\Temp\ccYIfAxE.s:22870  .debug_str:000000000000c79f .LASF384
C:\Users\CYMR90~1\AppData\Local\Temp\ccYIfAxE.s:26279  .debug_str:0000000000019cfd .LASF385
C:\Users\CYMR90~1\AppData\Local\Temp\ccYIfAxE.s:23890  .debug_str:0000000000010606 .LASF386
C:\Users\CYMR90~1\AppData\Local\Temp\ccYIfAxE.s:20290  .debug_str:00000000000022ba .LASF387
C:\Users\CYMR90~1\AppData\Local\Temp\ccYIfAxE.s:23474  .debug_str:000000000000edf5 .LASF388
C:\Users\CYMR90~1\AppData\Local\Temp\ccYIfAxE.s:22008  .debug_str:00000000000090af .LASF389
C:\Users\CYMR90~1\AppData\Local\Temp\ccYIfAxE.s:20786  .debug_str:00000000000042e9 .LASF391
C:\Users\CYMR90~1\AppData\Local\Temp\ccYIfAxE.s:23898  .debug_str:0000000000010672 .LASF392
C:\Users\CYMR90~1\AppData\Local\Temp\ccYIfAxE.s:28047  .debug_str:0000000000020da7 .LASF393
C:\Users\CYMR90~1\AppData\Local\Temp\ccYIfAxE.s:29835  .debug_str:0000000000027d94 .LASF394
C:\Users\CYMR90~1\AppData\Local\Temp\ccYIfAxE.s:20316  .debug_str:0000000000002418 .LASF395
C:\Users\CYMR90~1\AppData\Local\Temp\ccYIfAxE.s:22514  .debug_str:000000000000afb1 .LASF396
C:\Users\CYMR90~1\AppData\Local\Temp\ccYIfAxE.s:26387  .debug_str:000000000001a36e .LASF397
C:\Users\CYMR90~1\AppData\Local\Temp\ccYIfAxE.s:30629  .debug_str:000000000002b025 .LASF398
C:\Users\CYMR90~1\AppData\Local\Temp\ccYIfAxE.s:25206  .debug_str:000000000001586f .LASF399
C:\Users\CYMR90~1\AppData\Local\Temp\ccYIfAxE.s:27669  .debug_str:000000000001f6b6 .LASF400
C:\Users\CYMR90~1\AppData\Local\Temp\ccYIfAxE.s:21996  .debug_str:0000000000008fa4 .LASF401
C:\Users\CYMR90~1\AppData\Local\Temp\ccYIfAxE.s:25701  .debug_str:0000000000017791 .LASF402
C:\Users\CYMR90~1\AppData\Local\Temp\ccYIfAxE.s:21320  .debug_str:00000000000063dd .LASF403
C:\Users\CYMR90~1\AppData\Local\Temp\ccYIfAxE.s:22444  .debug_str:000000000000ab6d .LASF404
C:\Users\CYMR90~1\AppData\Local\Temp\ccYIfAxE.s:23530  .debug_str:000000000000f0f6 .LASF405
C:\Users\CYMR90~1\AppData\Local\Temp\ccYIfAxE.s:26951  .debug_str:000000000001c859 .LASF406
C:\Users\CYMR90~1\AppData\Local\Temp\ccYIfAxE.s:25124  .debug_str:00000000000153da .LASF407
C:\Users\CYMR90~1\AppData\Local\Temp\ccYIfAxE.s:26119  .debug_str:0000000000019183 .LASF408
C:\Users\CYMR90~1\AppData\Local\Temp\ccYIfAxE.s:28363  .debug_str:0000000000022091 .LASF409
C:\Users\CYMR90~1\AppData\Local\Temp\ccYIfAxE.s:21274  .debug_str:00000000000060f8 .LASF410
C:\Users\CYMR90~1\AppData\Local\Temp\ccYIfAxE.s:25314  .debug_str:0000000000015e82 .LASF411
C:\Users\CYMR90~1\AppData\Local\Temp\ccYIfAxE.s:28897  .debug_str:0000000000024009 .LASF412
C:\Users\CYMR90~1\AppData\Local\Temp\ccYIfAxE.s:21464  .debug_str:0000000000006c85 .LASF413
C:\Users\CYMR90~1\AppData\Local\Temp\ccYIfAxE.s:30243  .debug_str:00000000000298c8 .LASF414
C:\Users\CYMR90~1\AppData\Local\Temp\ccYIfAxE.s:23634  .debug_str:000000000000f70e .LASF415
C:\Users\CYMR90~1\AppData\Local\Temp\ccYIfAxE.s:29557  .debug_str:0000000000026c00 .LASF416
C:\Users\CYMR90~1\AppData\Local\Temp\ccYIfAxE.s:29051  .debug_str:0000000000024a58 .LASF417
C:\Users\CYMR90~1\AppData\Local\Temp\ccYIfAxE.s:21922  .debug_str:0000000000008b25 .LASF418
C:\Users\CYMR90~1\AppData\Local\Temp\ccYIfAxE.s:30473  .debug_str:000000000002a696 .LASF419
C:\Users\CYMR90~1\AppData\Local\Temp\ccYIfAxE.s:21536  .debug_str:0000000000007137 .LASF420
C:\Users\CYMR90~1\AppData\Local\Temp\ccYIfAxE.s:30673  .debug_str:000000000002b25d .LASF421
C:\Users\CYMR90~1\AppData\Local\Temp\ccYIfAxE.s:22796  .debug_str:000000000000c34e .LASF422
C:\Users\CYMR90~1\AppData\Local\Temp\ccYIfAxE.s:22996  .debug_str:000000000000d070 .LASF423
C:\Users\CYMR90~1\AppData\Local\Temp\ccYIfAxE.s:27569  .debug_str:000000000001f069 .LASF424
C:\Users\CYMR90~1\AppData\Local\Temp\ccYIfAxE.s:26157  .debug_str:00000000000194cc .LASF425
C:\Users\CYMR90~1\AppData\Local\Temp\ccYIfAxE.s:19756  .debug_str:00000000000002e1 .LASF426
C:\Users\CYMR90~1\AppData\Local\Temp\ccYIfAxE.s:30159  .debug_str:00000000000293cd .LASF427
C:\Users\CYMR90~1\AppData\Local\Temp\ccYIfAxE.s:25404  .debug_str:00000000000164b7 .LASF428
C:\Users\CYMR90~1\AppData\Local\Temp\ccYIfAxE.s:27343  .debug_str:000000000001e343 .LASF429
C:\Users\CYMR90~1\AppData\Local\Temp\ccYIfAxE.s:23832  .debug_str:00000000000102d0 .LASF430
C:\Users\CYMR90~1\AppData\Local\Temp\ccYIfAxE.s:25603  .debug_str:000000000001725d .LASF431
C:\Users\CYMR90~1\AppData\Local\Temp\ccYIfAxE.s:30559  .debug_str:000000000002ab79 .LASF432
C:\Users\CYMR90~1\AppData\Local\Temp\ccYIfAxE.s:22980  .debug_str:000000000000cf90 .LASF434
C:\Users\CYMR90~1\AppData\Local\Temp\ccYIfAxE.s:20978  .debug_str:0000000000004f8a .LASF435
C:\Users\CYMR90~1\AppData\Local\Temp\ccYIfAxE.s:25791  .debug_str:0000000000017d39 .LASF436
C:\Users\CYMR90~1\AppData\Local\Temp\ccYIfAxE.s:21554  .debug_str:000000000000721a .LASF437
C:\Users\CYMR90~1\AppData\Local\Temp\ccYIfAxE.s:30173  .debug_str:0000000000029487 .LASF438
C:\Users\CYMR90~1\AppData\Local\Temp\ccYIfAxE.s:19712  .debug_str:00000000000000c7 .LASF439
C:\Users\CYMR90~1\AppData\Local\Temp\ccYIfAxE.s:27605  .debug_str:000000000001f293 .LASF440
C:\Users\CYMR90~1\AppData\Local\Temp\ccYIfAxE.s:23234  .debug_str:000000000000df4b .LASF441
C:\Users\CYMR90~1\AppData\Local\Temp\ccYIfAxE.s:28677  .debug_str:0000000000023369 .LASF442
C:\Users\CYMR90~1\AppData\Local\Temp\ccYIfAxE.s:24136  .debug_str:00000000000114c2 .LASF443
C:\Users\CYMR90~1\AppData\Local\Temp\ccYIfAxE.s:23972  .debug_str:0000000000010ac5 .LASF444
C:\Users\CYMR90~1\AppData\Local\Temp\ccYIfAxE.s:31103  .debug_str:000000000002ce02 .LASF445
C:\Users\CYMR90~1\AppData\Local\Temp\ccYIfAxE.s:31041  .debug_str:000000000002c9fd .LASF446
C:\Users\CYMR90~1\AppData\Local\Temp\ccYIfAxE.s:30657  .debug_str:000000000002b185 .LASF447
C:\Users\CYMR90~1\AppData\Local\Temp\ccYIfAxE.s:28651  .debug_str:00000000000231ed .LASF448
C:\Users\CYMR90~1\AppData\Local\Temp\ccYIfAxE.s:20798  .debug_str:00000000000043a1 .LASF449
C:\Users\CYMR90~1\AppData\Local\Temp\ccYIfAxE.s:21574  .debug_str:0000000000007383 .LASF450
C:\Users\CYMR90~1\AppData\Local\Temp\ccYIfAxE.s:22194  .debug_str:0000000000009be0 .LASF451
C:\Users\CYMR90~1\AppData\Local\Temp\ccYIfAxE.s:25034  .debug_str:0000000000014e20 .LASF452
C:\Users\CYMR90~1\AppData\Local\Temp\ccYIfAxE.s:20238  .debug_str:0000000000001fee .LASF453
C:\Users\CYMR90~1\AppData\Local\Temp\ccYIfAxE.s:31047  .debug_str:000000000002ca36 .LASF454
C:\Users\CYMR90~1\AppData\Local\Temp\ccYIfAxE.s:23400  .debug_str:000000000000e91e .LASF455
C:\Users\CYMR90~1\AppData\Local\Temp\ccYIfAxE.s:28255  .debug_str:0000000000021a12 .LASF456
C:\Users\CYMR90~1\AppData\Local\Temp\ccYIfAxE.s:23076  .debug_str:000000000000d5b2 .LASF457
C:\Users\CYMR90~1\AppData\Local\Temp\ccYIfAxE.s:21332  .debug_str:000000000000648a .LASF458
C:\Users\CYMR90~1\AppData\Local\Temp\ccYIfAxE.s:24040  .debug_str:0000000000010fac .LASF459
C:\Users\CYMR90~1\AppData\Local\Temp\ccYIfAxE.s:28001  .debug_str:0000000000020b02 .LASF460
C:\Users\CYMR90~1\AppData\Local\Temp\ccYIfAxE.s:29173  .debug_str:00000000000251de .LASF461
C:\Users\CYMR90~1\AppData\Local\Temp\ccYIfAxE.s:25568  .debug_str:0000000000016e88 .LASF462
C:\Users\CYMR90~1\AppData\Local\Temp\ccYIfAxE.s:26437  .debug_str:000000000001a7b2 .LASF463
C:\Users\CYMR90~1\AppData\Local\Temp\ccYIfAxE.s:23250  .debug_str:000000000000e017 .LASF464
C:\Users\CYMR90~1\AppData\Local\Temp\ccYIfAxE.s:24426  .debug_str:0000000000012797 .LASF465
C:\Users\CYMR90~1\AppData\Local\Temp\ccYIfAxE.s:21482  .debug_str:0000000000006dac .LASF466
C:\Users\CYMR90~1\AppData\Local\Temp\ccYIfAxE.s:28409  .debug_str:0000000000022348 .LASF467
C:\Users\CYMR90~1\AppData\Local\Temp\ccYIfAxE.s:24182  .debug_str:00000000000117ae .LASF468
C:\Users\CYMR90~1\AppData\Local\Temp\ccYIfAxE.s:20592  .debug_str:0000000000003613 .LASF469
C:\Users\CYMR90~1\AppData\Local\Temp\ccYIfAxE.s:23936  .debug_str:000000000001088b .LASF470
C:\Users\CYMR90~1\AppData\Local\Temp\ccYIfAxE.s:23806  .debug_str:0000000000010123 .LASF471
C:\Users\CYMR90~1\AppData\Local\Temp\ccYIfAxE.s:23374  .debug_str:000000000000e792 .LASF472
C:\Users\CYMR90~1\AppData\Local\Temp\ccYIfAxE.s:19940  .debug_str:0000000000000e1f .LASF473
C:\Users\CYMR90~1\AppData\Local\Temp\ccYIfAxE.s:21600  .debug_str:0000000000007584 .LASF474
C:\Users\CYMR90~1\AppData\Local\Temp\ccYIfAxE.s:19884  .debug_str:0000000000000a8b .LASF475
C:\Users\CYMR90~1\AppData\Local\Temp\ccYIfAxE.s:20762  .debug_str:00000000000040e5 .LASF476
C:\Users\CYMR90~1\AppData\Local\Temp\ccYIfAxE.s:20114  .debug_str:00000000000018b8 .LASF477
C:\Users\CYMR90~1\AppData\Local\Temp\ccYIfAxE.s:25342  .debug_str:000000000001608e .LASF478
C:\Users\CYMR90~1\AppData\Local\Temp\ccYIfAxE.s:22670  .debug_str:000000000000bada .LASF479
C:\Users\CYMR90~1\AppData\Local\Temp\ccYIfAxE.s:30669  .debug_str:000000000002b22d .LASF480
C:\Users\CYMR90~1\AppData\Local\Temp\ccYIfAxE.s:25943  .debug_str:0000000000018610 .LASF481
C:\Users\CYMR90~1\AppData\Local\Temp\ccYIfAxE.s:22584  .debug_str:000000000000b501 .LASF482
C:\Users\CYMR90~1\AppData\Local\Temp\ccYIfAxE.s:21376  .debug_str:0000000000006730 .LASF483
C:\Users\CYMR90~1\AppData\Local\Temp\ccYIfAxE.s:19850  .debug_str:0000000000000852 .LASF484
C:\Users\CYMR90~1\AppData\Local\Temp\ccYIfAxE.s:25891  .debug_str:0000000000018312 .LASF485
C:\Users\CYMR90~1\AppData\Local\Temp\ccYIfAxE.s:20988  .debug_str:0000000000005028 .LASF486
C:\Users\CYMR90~1\AppData\Local\Temp\ccYIfAxE.s:24786  .debug_str:0000000000013f4a .LASF487
C:\Users\CYMR90~1\AppData\Local\Temp\ccYIfAxE.s:23960  .debug_str:0000000000010a21 .LASF488
C:\Users\CYMR90~1\AppData\Local\Temp\ccYIfAxE.s:24546  .debug_str:0000000000012f6f .LASF489
C:\Users\CYMR90~1\AppData\Local\Temp\ccYIfAxE.s:22956  .debug_str:000000000000ce66 .LASF490
C:\Users\CYMR90~1\AppData\Local\Temp\ccYIfAxE.s:21920  .debug_str:0000000000008b17 .LASF491
C:\Users\CYMR90~1\AppData\Local\Temp\ccYIfAxE.s:23590  .debug_str:000000000000f46f .LASF492
C:\Users\CYMR90~1\AppData\Local\Temp\ccYIfAxE.s:21928  .debug_str:0000000000008b9c .LASF493
C:\Users\CYMR90~1\AppData\Local\Temp\ccYIfAxE.s:23812  .debug_str:0000000000010180 .LASF494
C:\Users\CYMR90~1\AppData\Local\Temp\ccYIfAxE.s:26147  .debug_str:0000000000019431 .LASF495
C:\Users\CYMR90~1\AppData\Local\Temp\ccYIfAxE.s:31129  .debug_str:000000000002cf6d .LASF496
C:\Users\CYMR90~1\AppData\Local\Temp\ccYIfAxE.s:31063  .debug_str:000000000002cb90 .LASF497
C:\Users\CYMR90~1\AppData\Local\Temp\ccYIfAxE.s:23638  .debug_str:000000000000f755 .LASF498
C:\Users\CYMR90~1\AppData\Local\Temp\ccYIfAxE.s:30267  .debug_str:00000000000299fe .LASF499
C:\Users\CYMR90~1\AppData\Local\Temp\ccYIfAxE.s:30375  .debug_str:000000000002a115 .LASF500
C:\Users\CYMR90~1\AppData\Local\Temp\ccYIfAxE.s:24996  .debug_str:0000000000014bcf .LASF501
C:\Users\CYMR90~1\AppData\Local\Temp\ccYIfAxE.s:30325  .debug_str:0000000000029e48 .LASF502
C:\Users\CYMR90~1\AppData\Local\Temp\ccYIfAxE.s:24944  .debug_str:0000000000014887 .LASF503
C:\Users\CYMR90~1\AppData\Local\Temp\ccYIfAxE.s:20450  .debug_str:0000000000002d0c .LASF504
C:\Users\CYMR90~1\AppData\Local\Temp\ccYIfAxE.s:28929  .debug_str:0000000000024189 .LASF505
C:\Users\CYMR90~1\AppData\Local\Temp\ccYIfAxE.s:29831  .debug_str:0000000000027d59 .LASF506
C:\Users\CYMR90~1\AppData\Local\Temp\ccYIfAxE.s:29391  .debug_str:00000000000261be .LASF507
C:\Users\CYMR90~1\AppData\Local\Temp\ccYIfAxE.s:26065  .debug_str:0000000000018dad .LASF508
C:\Users\CYMR90~1\AppData\Local\Temp\ccYIfAxE.s:28347  .debug_str:0000000000021f71 .LASF509
C:\Users\CYMR90~1\AppData\Local\Temp\ccYIfAxE.s:30065  .debug_str:0000000000028da9 .LASF510
C:\Users\CYMR90~1\AppData\Local\Temp\ccYIfAxE.s:25837  .debug_str:0000000000017fd2 .LASF511
C:\Users\CYMR90~1\AppData\Local\Temp\ccYIfAxE.s:29677  .debug_str:000000000002733d .LASF512
C:\Users\CYMR90~1\AppData\Local\Temp\ccYIfAxE.s:29799  .debug_str:0000000000027baa .LASF513
C:\Users\CYMR90~1\AppData\Local\Temp\ccYIfAxE.s:30247  .debug_str:00000000000298f4 .LASF514
C:\Users\CYMR90~1\AppData\Local\Temp\ccYIfAxE.s:24710  .debug_str:0000000000013abf .LASF515
C:\Users\CYMR90~1\AppData\Local\Temp\ccYIfAxE.s:30125  .debug_str:00000000000291b3 .LASF516
C:\Users\CYMR90~1\AppData\Local\Temp\ccYIfAxE.s:26215  .debug_str:000000000001984e .LASF517
C:\Users\CYMR90~1\AppData\Local\Temp\ccYIfAxE.s:30073  .debug_str:0000000000028e5d .LASF518
C:\Users\CYMR90~1\AppData\Local\Temp\ccYIfAxE.s:26871  .debug_str:000000000001c3c6 .LASF519
C:\Users\CYMR90~1\AppData\Local\Temp\ccYIfAxE.s:31035  .debug_str:000000000002c99b .LASF520
C:\Users\CYMR90~1\AppData\Local\Temp\ccYIfAxE.s:27137  .debug_str:000000000001d5e8 .LASF521
C:\Users\CYMR90~1\AppData\Local\Temp\ccYIfAxE.s:29297  .debug_str:0000000000025ae7 .LASF522
C:\Users\CYMR90~1\AppData\Local\Temp\ccYIfAxE.s:24590  .debug_str:0000000000013248 .LASF523
C:\Users\CYMR90~1\AppData\Local\Temp\ccYIfAxE.s:28839  .debug_str:0000000000023ca3 .LASF524
C:\Users\CYMR90~1\AppData\Local\Temp\ccYIfAxE.s:22134  .debug_str:00000000000097ce .LASF525
C:\Users\CYMR90~1\AppData\Local\Temp\ccYIfAxE.s:31055  .debug_str:000000000002caa4 .LASF526
C:\Users\CYMR90~1\AppData\Local\Temp\ccYIfAxE.s:23406  .debug_str:000000000000e97d .LASF527
C:\Users\CYMR90~1\AppData\Local\Temp\ccYIfAxE.s:24450  .debug_str:000000000001291f .LASF528
C:\Users\CYMR90~1\AppData\Local\Temp\ccYIfAxE.s:25320  .debug_str:0000000000015ee6 .LASF529
C:\Users\CYMR90~1\AppData\Local\Temp\ccYIfAxE.s:25354  .debug_str:000000000001613b .LASF530
C:\Users\CYMR90~1\AppData\Local\Temp\ccYIfAxE.s:24374  .debug_str:0000000000012496 .LASF531
C:\Users\CYMR90~1\AppData\Local\Temp\ccYIfAxE.s:20514  .debug_str:00000000000030d6 .LASF532
C:\Users\CYMR90~1\AppData\Local\Temp\ccYIfAxE.s:23082  .debug_str:000000000000d5ec .LASF533
C:\Users\CYMR90~1\AppData\Local\Temp\ccYIfAxE.s:30895  .debug_str:000000000002bff5 .LASF534
C:\Users\CYMR90~1\AppData\Local\Temp\ccYIfAxE.s:23588  .debug_str:000000000000f423 .LASF535
C:\Users\CYMR90~1\AppData\Local\Temp\ccYIfAxE.s:29029  .debug_str:00000000000248b4 .LASF536
C:\Users\CYMR90~1\AppData\Local\Temp\ccYIfAxE.s:30541  .debug_str:000000000002aa7d .LASF537
C:\Users\CYMR90~1\AppData\Local\Temp\ccYIfAxE.s:24198  .debug_str:000000000001189d .LASF538
C:\Users\CYMR90~1\AppData\Local\Temp\ccYIfAxE.s:29215  .debug_str:000000000002548c .LASF539
C:\Users\CYMR90~1\AppData\Local\Temp\ccYIfAxE.s:26931  .debug_str:000000000001c747 .LASF540
C:\Users\CYMR90~1\AppData\Local\Temp\ccYIfAxE.s:23184  .debug_str:000000000000dc96 .LASF541
C:\Users\CYMR90~1\AppData\Local\Temp\ccYIfAxE.s:27229  .debug_str:000000000001db8f .LASF542
C:\Users\CYMR90~1\AppData\Local\Temp\ccYIfAxE.s:20876  .debug_str:000000000000489e .LASF543
C:\Users\CYMR90~1\AppData\Local\Temp\ccYIfAxE.s:23342  .debug_str:000000000000e597 .LASF544
C:\Users\CYMR90~1\AppData\Local\Temp\ccYIfAxE.s:30309  .debug_str:0000000000029d46 .LASF545
C:\Users\CYMR90~1\AppData\Local\Temp\ccYIfAxE.s:24722  .debug_str:0000000000013b70 .LASF546
C:\Users\CYMR90~1\AppData\Local\Temp\ccYIfAxE.s:28543  .debug_str:0000000000022ad6 .LASF547
C:\Users\CYMR90~1\AppData\Local\Temp\ccYIfAxE.s:30811  .debug_str:000000000002baa8 .LASF548
C:\Users\CYMR90~1\AppData\Local\Temp\ccYIfAxE.s:26491  .debug_str:000000000001ab46 .LASF549
C:\Users\CYMR90~1\AppData\Local\Temp\ccYIfAxE.s:21754  .debug_str:0000000000007f83 .LASF550
C:\Users\CYMR90~1\AppData\Local\Temp\ccYIfAxE.s:29565  .debug_str:0000000000026c63 .LASF551
C:\Users\CYMR90~1\AppData\Local\Temp\ccYIfAxE.s:21300  .debug_str:0000000000006293 .LASF552
C:\Users\CYMR90~1\AppData\Local\Temp\ccYIfAxE.s:30561  .debug_str:000000000002ab86 .LASF553
C:\Users\CYMR90~1\AppData\Local\Temp\ccYIfAxE.s:22748  .debug_str:000000000000bfc8 .LASF554
C:\Users\CYMR90~1\AppData\Local\Temp\ccYIfAxE.s:22932  .debug_str:000000000000cbea .LASF555
C:\Users\CYMR90~1\AppData\Local\Temp\ccYIfAxE.s:21430  .debug_str:0000000000006a63 .LASF556
C:\Users\CYMR90~1\AppData\Local\Temp\ccYIfAxE.s:21120  .debug_str:00000000000057bd .LASF557
C:\Users\CYMR90~1\AppData\Local\Temp\ccYIfAxE.s:24318  .debug_str:00000000000120f5 .LASF558
C:\Users\CYMR90~1\AppData\Local\Temp\ccYIfAxE.s:26095  .debug_str:0000000000019029 .LASF559
C:\Users\CYMR90~1\AppData\Local\Temp\ccYIfAxE.s:30115  .debug_str:0000000000029113 .LASF560
C:\Users\CYMR90~1\AppData\Local\Temp\ccYIfAxE.s:22742  .debug_str:000000000000bf5a .LASF561
C:\Users\CYMR90~1\AppData\Local\Temp\ccYIfAxE.s:23754  .debug_str:000000000000fe99 .LASF562
C:\Users\CYMR90~1\AppData\Local\Temp\ccYIfAxE.s:23128  .debug_str:000000000000d94b .LASF563
C:\Users\CYMR90~1\AppData\Local\Temp\ccYIfAxE.s:22428  .debug_str:000000000000aa58 .LASF564
C:\Users\CYMR90~1\AppData\Local\Temp\ccYIfAxE.s:28283  .debug_str:0000000000021baa .LASF565
C:\Users\CYMR90~1\AppData\Local\Temp\ccYIfAxE.s:27485  .debug_str:000000000001eb41 .LASF566
C:\Users\CYMR90~1\AppData\Local\Temp\ccYIfAxE.s:24314  .debug_str:00000000000120ad .LASF567
C:\Users\CYMR90~1\AppData\Local\Temp\ccYIfAxE.s:21302  .debug_str:00000000000062a7 .LASF568
C:\Users\CYMR90~1\AppData\Local\Temp\ccYIfAxE.s:19910  .debug_str:0000000000000c59 .LASF570
C:\Users\CYMR90~1\AppData\Local\Temp\ccYIfAxE.s:25717  .debug_str:0000000000017882 .LASF571
C:\Users\CYMR90~1\AppData\Local\Temp\ccYIfAxE.s:26867  .debug_str:000000000001c3a0 .LASF574
C:\Users\CYMR90~1\AppData\Local\Temp\ccYIfAxE.s:20844  .debug_str:0000000000004677 .LASF575
C:\Users\CYMR90~1\AppData\Local\Temp\ccYIfAxE.s:24950  .debug_str:0000000000014911 .LASF576
C:\Users\CYMR90~1\AppData\Local\Temp\ccYIfAxE.s:21848  .debug_str:00000000000086e9 .LASF577
C:\Users\CYMR90~1\AppData\Local\Temp\ccYIfAxE.s:28177  .debug_str:00000000000214d6 .LASF579
C:\Users\CYMR90~1\AppData\Local\Temp\ccYIfAxE.s:27355  .debug_str:000000000001e3fc .LASF580
C:\Users\CYMR90~1\AppData\Local\Temp\ccYIfAxE.s:28927  .debug_str:0000000000024180 .LASF581
C:\Users\CYMR90~1\AppData\Local\Temp\ccYIfAxE.s:21256  .debug_str:0000000000005ffa .LASF582
C:\Users\CYMR90~1\AppData\Local\Temp\ccYIfAxE.s:23920  .debug_str:0000000000010797 .LASF583
C:\Users\CYMR90~1\AppData\Local\Temp\ccYIfAxE.s:20402  .debug_str:00000000000029ff .LASF584
C:\Users\CYMR90~1\AppData\Local\Temp\ccYIfAxE.s:30411  .debug_str:000000000002a320 .LASF585
C:\Users\CYMR90~1\AppData\Local\Temp\ccYIfAxE.s:28591  .debug_str:0000000000022df6 .LASF586
C:\Users\CYMR90~1\AppData\Local\Temp\ccYIfAxE.s:26753  .debug_str:000000000001bccb .LASF587
C:\Users\CYMR90~1\AppData\Local\Temp\ccYIfAxE.s:22426  .debug_str:000000000000aa48 .LASF588
C:\Users\CYMR90~1\AppData\Local\Temp\ccYIfAxE.s:26001  .debug_str:000000000001899a .LASF589
C:\Users\CYMR90~1\AppData\Local\Temp\ccYIfAxE.s:26383  .debug_str:000000000001a317 .LASF590
C:\Users\CYMR90~1\AppData\Local\Temp\ccYIfAxE.s:27221  .debug_str:000000000001db23 .LASF591
C:\Users\CYMR90~1\AppData\Local\Temp\ccYIfAxE.s:27011  .debug_str:000000000001ccd5 .LASF592
C:\Users\CYMR90~1\AppData\Local\Temp\ccYIfAxE.s:28915  .debug_str:00000000000240dd .LASF593
C:\Users\CYMR90~1\AppData\Local\Temp\ccYIfAxE.s:28561  .debug_str:0000000000022bfb .LASF594
C:\Users\CYMR90~1\AppData\Local\Temp\ccYIfAxE.s:24784  .debug_str:0000000000013f2a .LASF595
C:\Users\CYMR90~1\AppData\Local\Temp\ccYIfAxE.s:24506  .debug_str:0000000000012cd0 .LASF596
C:\Users\CYMR90~1\AppData\Local\Temp\ccYIfAxE.s:21602  .debug_str:00000000000075a3 .LASF597
C:\Users\CYMR90~1\AppData\Local\Temp\ccYIfAxE.s:29931  .debug_str:000000000002842f .LASF598
C:\Users\CYMR90~1\AppData\Local\Temp\ccYIfAxE.s:24668  .debug_str:0000000000013793 .LASF599
C:\Users\CYMR90~1\AppData\Local\Temp\ccYIfAxE.s:27689  .debug_str:000000000001f7e7 .LASF600
C:\Users\CYMR90~1\AppData\Local\Temp\ccYIfAxE.s:26939  .debug_str:000000000001c7b3 .LASF601
C:\Users\CYMR90~1\AppData\Local\Temp\ccYIfAxE.s:29401  .debug_str:0000000000026268 .LASF602
C:\Users\CYMR90~1\AppData\Local\Temp\ccYIfAxE.s:30133  .debug_str:0000000000029246 .LASF603
C:\Users\CYMR90~1\AppData\Local\Temp\ccYIfAxE.s:30021  .debug_str:0000000000028aca .LASF604
C:\Users\CYMR90~1\AppData\Local\Temp\ccYIfAxE.s:24616  .debug_str:00000000000133f6 .LASF605
C:\Users\CYMR90~1\AppData\Local\Temp\ccYIfAxE.s:28727  .debug_str:00000000000235fc .LASF606
C:\Users\CYMR90~1\AppData\Local\Temp\ccYIfAxE.s:22204  .debug_str:0000000000009c9a .LASF607
C:\Users\CYMR90~1\AppData\Local\Temp\ccYIfAxE.s:21708  .debug_str:0000000000007c73 .LASF608
C:\Users\CYMR90~1\AppData\Local\Temp\ccYIfAxE.s:22490  .debug_str:000000000000ae52 .LASF609
C:\Users\CYMR90~1\AppData\Local\Temp\ccYIfAxE.s:26787  .debug_str:000000000001be75 .LASF610
C:\Users\CYMR90~1\AppData\Local\Temp\ccYIfAxE.s:21218  .debug_str:0000000000005e0b .LASF611
C:\Users\CYMR90~1\AppData\Local\Temp\ccYIfAxE.s:28513  .debug_str:000000000002295d .LASF612
C:\Users\CYMR90~1\AppData\Local\Temp\ccYIfAxE.s:25188  .debug_str:000000000001574e .LASF613
C:\Users\CYMR90~1\AppData\Local\Temp\ccYIfAxE.s:21774  .debug_str:0000000000008172 .LASF614
C:\Users\CYMR90~1\AppData\Local\Temp\ccYIfAxE.s:19810  .debug_str:0000000000000601 .LASF615
C:\Users\CYMR90~1\AppData\Local\Temp\ccYIfAxE.s:25432  .debug_str:0000000000016642 .LASF616
C:\Users\CYMR90~1\AppData\Local\Temp\ccYIfAxE.s:26419  .debug_str:000000000001a512 .LASF617
C:\Users\CYMR90~1\AppData\Local\Temp\ccYIfAxE.s:25570  .debug_str:0000000000016e97 .LASF618
C:\Users\CYMR90~1\AppData\Local\Temp\ccYIfAxE.s:28599  .debug_str:0000000000022e5b .LASF619
C:\Users\CYMR90~1\AppData\Local\Temp\ccYIfAxE.s:22764  .debug_str:000000000000c14c .LASF620
C:\Users\CYMR90~1\AppData\Local\Temp\ccYIfAxE.s:21514  .debug_str:0000000000006fbe .LASF621
C:\Users\CYMR90~1\AppData\Local\Temp\ccYIfAxE.s:28787  .debug_str:000000000002394b .LASF622
C:\Users\CYMR90~1\AppData\Local\Temp\ccYIfAxE.s:27873  .debug_str:00000000000202e3 .LASF623
C:\Users\CYMR90~1\AppData\Local\Temp\ccYIfAxE.s:29889  .debug_str:00000000000280f7 .LASF624
C:\Users\CYMR90~1\AppData\Local\Temp\ccYIfAxE.s:30515  .debug_str:000000000002a924 .LASF625
C:\Users\CYMR90~1\AppData\Local\Temp\ccYIfAxE.s:24856  .debug_str:000000000001432c .LASF626
C:\Users\CYMR90~1\AppData\Local\Temp\ccYIfAxE.s:30775  .debug_str:000000000002b814 .LASF627
C:\Users\CYMR90~1\AppData\Local\Temp\ccYIfAxE.s:25278  .debug_str:0000000000015c6e .LASF628
C:\Users\CYMR90~1\AppData\Local\Temp\ccYIfAxE.s:30235  .debug_str:0000000000029829 .LASF629
C:\Users\CYMR90~1\AppData\Local\Temp\ccYIfAxE.s:23864  .debug_str:00000000000104df .LASF630
C:\Users\CYMR90~1\AppData\Local\Temp\ccYIfAxE.s:27003  .debug_str:000000000001cc40 .LASF631
C:\Users\CYMR90~1\AppData\Local\Temp\ccYIfAxE.s:28503  .debug_str:00000000000228c1 .LASF632
C:\Users\CYMR90~1\AppData\Local\Temp\ccYIfAxE.s:25647  .debug_str:00000000000174b4 .LASF633
C:\Users\CYMR90~1\AppData\Local\Temp\ccYIfAxE.s:20326  .debug_str:00000000000024d2 .LASF634
C:\Users\CYMR90~1\AppData\Local\Temp\ccYIfAxE.s:26327  .debug_str:0000000000019fed .LASF635
C:\Users\CYMR90~1\AppData\Local\Temp\ccYIfAxE.s:25492  .debug_str:0000000000016982 .LASF636
C:\Users\CYMR90~1\AppData\Local\Temp\ccYIfAxE.s:27107  .debug_str:000000000001d402 .LASF637
C:\Users\CYMR90~1\AppData\Local\Temp\ccYIfAxE.s:20634  .debug_str:00000000000038c1 .LASF638
C:\Users\CYMR90~1\AppData\Local\Temp\ccYIfAxE.s:24266  .debug_str:0000000000011dea .LASF639
C:\Users\CYMR90~1\AppData\Local\Temp\ccYIfAxE.s:21786  .debug_str:000000000000821a .LASF640
C:\Users\CYMR90~1\AppData\Local\Temp\ccYIfAxE.s:24488  .debug_str:0000000000012ba2 .LASF641
C:\Users\CYMR90~1\AppData\Local\Temp\ccYIfAxE.s:22660  .debug_str:000000000000b9fa .LASF642
C:\Users\CYMR90~1\AppData\Local\Temp\ccYIfAxE.s:29869  .debug_str:0000000000027f7a .LASF643
C:\Users\CYMR90~1\AppData\Local\Temp\ccYIfAxE.s:23038  .debug_str:000000000000d311 .LASF644
C:\Users\CYMR90~1\AppData\Local\Temp\ccYIfAxE.s:20814  .debug_str:0000000000004460 .LASF645
C:\Users\CYMR90~1\AppData\Local\Temp\ccYIfAxE.s:21670  .debug_str:00000000000079e5 .LASF646
C:\Users\CYMR90~1\AppData\Local\Temp\ccYIfAxE.s:20556  .debug_str:00000000000033a6 .LASF647
C:\Users\CYMR90~1\AppData\Local\Temp\ccYIfAxE.s:20934  .debug_str:0000000000004cc5 .LASF648
C:\Users\CYMR90~1\AppData\Local\Temp\ccYIfAxE.s:26195  .debug_str:0000000000019708 .LASF649
C:\Users\CYMR90~1\AppData\Local\Temp\ccYIfAxE.s:24178  .debug_str:000000000001173b .LASF650
C:\Users\CYMR90~1\AppData\Local\Temp\ccYIfAxE.s:30533  .debug_str:000000000002aa0c .LASF651
C:\Users\CYMR90~1\AppData\Local\Temp\ccYIfAxE.s:23764  .debug_str:000000000000ff5c .LASF652
C:\Users\CYMR90~1\AppData\Local\Temp\ccYIfAxE.s:19788  .debug_str:00000000000004d2 .LASF653
C:\Users\CYMR90~1\AppData\Local\Temp\ccYIfAxE.s:30757  .debug_str:000000000002b724 .LASF654
C:\Users\CYMR90~1\AppData\Local\Temp\ccYIfAxE.s:22026  .debug_str:00000000000091c1 .LASF655
C:\Users\CYMR90~1\AppData\Local\Temp\ccYIfAxE.s:29949  .debug_str:000000000002854a .LASF656
C:\Users\CYMR90~1\AppData\Local\Temp\ccYIfAxE.s:19844  .debug_str:0000000000000810 .LASF657
C:\Users\CYMR90~1\AppData\Local\Temp\ccYIfAxE.s:30583  .debug_str:000000000002ad24 .LASF658
C:\Users\CYMR90~1\AppData\Local\Temp\ccYIfAxE.s:24582  .debug_str:00000000000131d8 .LASF659
C:\Users\CYMR90~1\AppData\Local\Temp\ccYIfAxE.s:27041  .debug_str:000000000001cea1 .LASF660
C:\Users\CYMR90~1\AppData\Local\Temp\ccYIfAxE.s:23440  .debug_str:000000000000ebd2 .LASF661
C:\Users\CYMR90~1\AppData\Local\Temp\ccYIfAxE.s:27719  .debug_str:000000000001f9b6 .LASF662
C:\Users\CYMR90~1\AppData\Local\Temp\ccYIfAxE.s:29719  .debug_str:0000000000027608 .LASF663
C:\Users\CYMR90~1\AppData\Local\Temp\ccYIfAxE.s:24156  .debug_str:00000000000115fc .LASF664
C:\Users\CYMR90~1\AppData\Local\Temp\ccYIfAxE.s:24146  .debug_str:000000000001156a .LASF665
C:\Users\CYMR90~1\AppData\Local\Temp\ccYIfAxE.s:26103  .debug_str:00000000000190c4 .LASF666
C:\Users\CYMR90~1\AppData\Local\Temp\ccYIfAxE.s:21234  .debug_str:0000000000005ed5 .LASF667
C:\Users\CYMR90~1\AppData\Local\Temp\ccYIfAxE.s:31259  .debug_str:000000000002d823 .LASF668
C:\Users\CYMR90~1\AppData\Local\Temp\ccYIfAxE.s:21630  .debug_str:000000000000778e .LASF669
C:\Users\CYMR90~1\AppData\Local\Temp\ccYIfAxE.s:28387  .debug_str:00000000000221e7 .LASF670
C:\Users\CYMR90~1\AppData\Local\Temp\ccYIfAxE.s:24566  .debug_str:00000000000130cb .LASF671
C:\Users\CYMR90~1\AppData\Local\Temp\ccYIfAxE.s:27771  .debug_str:000000000001fc8f .LASF672
C:\Users\CYMR90~1\AppData\Local\Temp\ccYIfAxE.s:28517  .debug_str:000000000002298e .LASF673
C:\Users\CYMR90~1\AppData\Local\Temp\ccYIfAxE.s:20184  .debug_str:0000000000001cf5 .LASF674
C:\Users\CYMR90~1\AppData\Local\Temp\ccYIfAxE.s:25264  .debug_str:0000000000015b8f .LASF676
C:\Users\CYMR90~1\AppData\Local\Temp\ccYIfAxE.s:28947  .debug_str:00000000000242b3 .LASF677
C:\Users\CYMR90~1\AppData\Local\Temp\ccYIfAxE.s:26339  .debug_str:000000000001a09d .LASF678
C:\Users\CYMR90~1\AppData\Local\Temp\ccYIfAxE.s:29049  .debug_str:0000000000024a3d .LASF679
C:\Users\CYMR90~1\AppData\Local\Temp\ccYIfAxE.s:27481  .debug_str:000000000001eb15 .LASF680
C:\Users\CYMR90~1\AppData\Local\Temp\ccYIfAxE.s:30427  .debug_str:000000000002a421 .LASF681
C:\Users\CYMR90~1\AppData\Local\Temp\ccYIfAxE.s:24264  .debug_str:0000000000011dcd .LASF682
C:\Users\CYMR90~1\AppData\Local\Temp\ccYIfAxE.s:20732  .debug_str:0000000000003ee2 .LASF683
C:\Users\CYMR90~1\AppData\Local\Temp\ccYIfAxE.s:22160  .debug_str:000000000000997d .LASF684
C:\Users\CYMR90~1\AppData\Local\Temp\ccYIfAxE.s:26791  .debug_str:000000000001bea2 .LASF685
C:\Users\CYMR90~1\AppData\Local\Temp\ccYIfAxE.s:30459  .debug_str:000000000002a5d2 .LASF686
C:\Users\CYMR90~1\AppData\Local\Temp\ccYIfAxE.s:25548  .debug_str:0000000000016d55 .LASF687
C:\Users\CYMR90~1\AppData\Local\Temp\ccYIfAxE.s:24076  .debug_str:000000000001116a .LASF688
C:\Users\CYMR90~1\AppData\Local\Temp\ccYIfAxE.s:20614  .debug_str:0000000000003753 .LASF689
C:\Users\CYMR90~1\AppData\Local\Temp\ccYIfAxE.s:21522  .debug_str:0000000000007061 .LASF690
C:\Users\CYMR90~1\AppData\Local\Temp\ccYIfAxE.s:24434  .debug_str:000000000001280b .LASF691
C:\Users\CYMR90~1\AppData\Local\Temp\ccYIfAxE.s:20690  .debug_str:0000000000003c4e .LASF692
C:\Users\CYMR90~1\AppData\Local\Temp\ccYIfAxE.s:21198  .debug_str:0000000000005ce4 .LASF695
C:\Users\CYMR90~1\AppData\Local\Temp\ccYIfAxE.s:25715  .debug_str:000000000001786b .LASF696
C:\Users\CYMR90~1\AppData\Local\Temp\ccYIfAxE.s:23066  .debug_str:000000000000d4ea .LASF697
C:\Users\CYMR90~1\AppData\Local\Temp\ccYIfAxE.s:26763  .debug_str:000000000001bd2c .LASF698
C:\Users\CYMR90~1\AppData\Local\Temp\ccYIfAxE.s:28985  .debug_str:00000000000244dc .LASF699
C:\Users\CYMR90~1\AppData\Local\Temp\ccYIfAxE.s:25030  .debug_str:0000000000014d9d .LASF702
C:\Users\CYMR90~1\AppData\Local\Temp\ccYIfAxE.s:22182  .debug_str:0000000000009ad4 .LASF703
C:\Users\CYMR90~1\AppData\Local\Temp\ccYIfAxE.s:27659  .debug_str:000000000001f626 .LASF704
C:\Users\CYMR90~1\AppData\Local\Temp\ccYIfAxE.s:21012  .debug_str:0000000000005179 .LASF705
C:\Users\CYMR90~1\AppData\Local\Temp\ccYIfAxE.s:25370  .debug_str:0000000000016266 .LASF706
C:\Users\CYMR90~1\AppData\Local\Temp\ccYIfAxE.s:23636  .debug_str:000000000000f72f .LASF707
C:\Users\CYMR90~1\AppData\Local\Temp\ccYIfAxE.s:30147  .debug_str:0000000000029322 .LASF708
C:\Users\CYMR90~1\AppData\Local\Temp\ccYIfAxE.s:29369  .debug_str:000000000002605e .LASF709
C:\Users\CYMR90~1\AppData\Local\Temp\ccYIfAxE.s:28391  .debug_str:000000000002222d .LASF710
C:\Users\CYMR90~1\AppData\Local\Temp\ccYIfAxE.s:23808  .debug_str:0000000000010140 .LASF711
C:\Users\CYMR90~1\AppData\Local\Temp\ccYIfAxE.s:25522  .debug_str:0000000000016b49 .LASF712
C:\Users\CYMR90~1\AppData\Local\Temp\ccYIfAxE.s:22422  .debug_str:000000000000a9ee .LASF713
C:\Users\CYMR90~1\AppData\Local\Temp\ccYIfAxE.s:30977  .debug_str:000000000002c57e .LASF714
C:\Users\CYMR90~1\AppData\Local\Temp\ccYIfAxE.s:21770  .debug_str:000000000000810d .LASF715
C:\Users\CYMR90~1\AppData\Local\Temp\ccYIfAxE.s:22702  .debug_str:000000000000bc93 .LASF716
C:\Users\CYMR90~1\AppData\Local\Temp\ccYIfAxE.s:27891  .debug_str:000000000002041e .LASF717
C:\Users\CYMR90~1\AppData\Local\Temp\ccYIfAxE.s:29325  .debug_str:0000000000025d1d .LASF718
C:\Users\CYMR90~1\AppData\Local\Temp\ccYIfAxE.s:29095  .debug_str:0000000000024cdd .LASF719
C:\Users\CYMR90~1\AppData\Local\Temp\ccYIfAxE.s:26037  .debug_str:0000000000018c05 .LASF720
C:\Users\CYMR90~1\AppData\Local\Temp\ccYIfAxE.s:23538  .debug_str:000000000000f146 .LASF721
C:\Users\CYMR90~1\AppData\Local\Temp\ccYIfAxE.s:28005  .debug_str:0000000000020b36 .LASF722
C:\Users\CYMR90~1\AppData\Local\Temp\ccYIfAxE.s:26953  .debug_str:000000000001c869 .LASF723
C:\Users\CYMR90~1\AppData\Local\Temp\ccYIfAxE.s:27535  .debug_str:000000000001ee89 .LASF724
C:\Users\CYMR90~1\AppData\Local\Temp\ccYIfAxE.s:28495  .debug_str:000000000002286f .LASF725
C:\Users\CYMR90~1\AppData\Local\Temp\ccYIfAxE.s:25689  .debug_str:00000000000176e6 .LASF726
C:\Users\CYMR90~1\AppData\Local\Temp\ccYIfAxE.s:22416  .debug_str:000000000000a994 .LASF727
C:\Users\CYMR90~1\AppData\Local\Temp\ccYIfAxE.s:29463  .debug_str:000000000002666c .LASF728
C:\Users\CYMR90~1\AppData\Local\Temp\ccYIfAxE.s:27777  .debug_str:000000000001fd0d .LASF729
C:\Users\CYMR90~1\AppData\Local\Temp\ccYIfAxE.s:26227  .debug_str:00000000000198f8 .LASF730
C:\Users\CYMR90~1\AppData\Local\Temp\ccYIfAxE.s:24654  .debug_str:00000000000136a9 .LASF731
C:\Users\CYMR90~1\AppData\Local\Temp\ccYIfAxE.s:29403  .debug_str:00000000000262a3 .LASF732
C:\Users\CYMR90~1\AppData\Local\Temp\ccYIfAxE.s:31185  .debug_str:000000000002d357 .LASF733
C:\Users\CYMR90~1\AppData\Local\Temp\ccYIfAxE.s:24130  .debug_str:0000000000011474 .LASF734
C:\Users\CYMR90~1\AppData\Local\Temp\ccYIfAxE.s:24052  .debug_str:000000000001103a .LASF735
C:\Users\CYMR90~1\AppData\Local\Temp\ccYIfAxE.s:31113  .debug_str:000000000002ce73 .LASF736
C:\Users\CYMR90~1\AppData\Local\Temp\ccYIfAxE.s:23004  .debug_str:000000000000d0cf .LASF737
C:\Users\CYMR90~1\AppData\Local\Temp\ccYIfAxE.s:31045  .debug_str:000000000002ca25 .LASF738
C:\Users\CYMR90~1\AppData\Local\Temp\ccYIfAxE.s:30863  .debug_str:000000000002bdfe .LASF739
C:\Users\CYMR90~1\AppData\Local\Temp\ccYIfAxE.s:20148  .debug_str:0000000000001ab4 .LASF740
C:\Users\CYMR90~1\AppData\Local\Temp\ccYIfAxE.s:22938  .debug_str:000000000000cc5a .LASF741
C:\Users\CYMR90~1\AppData\Local\Temp\ccYIfAxE.s:20124  .debug_str:0000000000001959 .LASF742
C:\Users\CYMR90~1\AppData\Local\Temp\ccYIfAxE.s:24086  .debug_str:00000000000111d6 .LASF743
C:\Users\CYMR90~1\AppData\Local\Temp\ccYIfAxE.s:20596  .debug_str:0000000000003650 .LASF744
C:\Users\CYMR90~1\AppData\Local\Temp\ccYIfAxE.s:22034  .debug_str:0000000000009242 .LASF745
C:\Users\CYMR90~1\AppData\Local\Temp\ccYIfAxE.s:28507  .debug_str:0000000000022910 .LASF746
C:\Users\CYMR90~1\AppData\Local\Temp\ccYIfAxE.s:20018  .debug_str:0000000000001300 .LASF747
C:\Users\CYMR90~1\AppData\Local\Temp\ccYIfAxE.s:30273  .debug_str:0000000000029af5 .LASF748
C:\Users\CYMR90~1\AppData\Local\Temp\ccYIfAxE.s:23630  .debug_str:000000000000f6f1 .LASF750
C:\Users\CYMR90~1\AppData\Local\Temp\ccYIfAxE.s:24004  .debug_str:0000000000010c80 .LASF751
C:\Users\CYMR90~1\AppData\Local\Temp\ccYIfAxE.s:30305  .debug_str:0000000000029d04 .LASF752
C:\Users\CYMR90~1\AppData\Local\Temp\ccYIfAxE.s:28699  .debug_str:00000000000234aa .LASF753
C:\Users\CYMR90~1\AppData\Local\Temp\ccYIfAxE.s:21056  .debug_str:000000000000542a .LASF754
C:\Users\CYMR90~1\AppData\Local\Temp\ccYIfAxE.s:22684  .debug_str:000000000000bb8c .LASF755
C:\Users\CYMR90~1\AppData\Local\Temp\ccYIfAxE.s:26303  .debug_str:0000000000019e93 .LASF756
C:\Users\CYMR90~1\AppData\Local\Temp\ccYIfAxE.s:22170  .debug_str:0000000000009a2c .LASF757
C:\Users\CYMR90~1\AppData\Local\Temp\ccYIfAxE.s:29353  .debug_str:0000000000025f7a .LASF758
C:\Users\CYMR90~1\AppData\Local\Temp\ccYIfAxE.s:31221  .debug_str:000000000002d609 .LASF759
C:\Users\CYMR90~1\AppData\Local\Temp\ccYIfAxE.s:26675  .debug_str:000000000001b7e7 .LASF760
C:\Users\CYMR90~1\AppData\Local\Temp\ccYIfAxE.s:30957  .debug_str:000000000002c41b .LASF761
C:\Users\CYMR90~1\AppData\Local\Temp\ccYIfAxE.s:22606  .debug_str:000000000000b5f4 .LASF762
C:\Users\CYMR90~1\AppData\Local\Temp\ccYIfAxE.s:26683  .debug_str:000000000001b87b .LASF765
C:\Users\CYMR90~1\AppData\Local\Temp\ccYIfAxE.s:25336  .debug_str:0000000000015fef .LASF766
C:\Users\CYMR90~1\AppData\Local\Temp\ccYIfAxE.s:28397  .debug_str:000000000002227a .LASF767
C:\Users\CYMR90~1\AppData\Local\Temp\ccYIfAxE.s:25326  .debug_str:0000000000015f7f .LASF768
C:\Users\CYMR90~1\AppData\Local\Temp\ccYIfAxE.s:20388  .debug_str:0000000000002909 .LASF769
C:\Users\CYMR90~1\AppData\Local\Temp\ccYIfAxE.s:26807  .debug_str:000000000001bfe5 .LASF770
C:\Users\CYMR90~1\AppData\Local\Temp\ccYIfAxE.s:25428  .debug_str:000000000001661c .LASF771
C:\Users\CYMR90~1\AppData\Local\Temp\ccYIfAxE.s:29059  .debug_str:0000000000024ab6 .LASF772
C:\Users\CYMR90~1\AppData\Local\Temp\ccYIfAxE.s:28689  .debug_str:000000000002340c .LASF773
C:\Users\CYMR90~1\AppData\Local\Temp\ccYIfAxE.s:23364  .debug_str:000000000000e708 .LASF774
C:\Users\CYMR90~1\AppData\Local\Temp\ccYIfAxE.s:29405  .debug_str:00000000000262b9 .LASF775
C:\Users\CYMR90~1\AppData\Local\Temp\ccYIfAxE.s:22316  .debug_str:000000000000a381 .LASF776
C:\Users\CYMR90~1\AppData\Local\Temp\ccYIfAxE.s:22332  .debug_str:000000000000a485 .LASF777
C:\Users\CYMR90~1\AppData\Local\Temp\ccYIfAxE.s:27471  .debug_str:000000000001ea74 .LASF778
C:\Users\CYMR90~1\AppData\Local\Temp\ccYIfAxE.s:28089  .debug_str:000000000002104f .LASF779
C:\Users\CYMR90~1\AppData\Local\Temp\ccYIfAxE.s:27727  .debug_str:000000000001fa2b .LASF780
C:\Users\CYMR90~1\AppData\Local\Temp\ccYIfAxE.s:28393  .debug_str:0000000000022241 .LASF781
C:\Users\CYMR90~1\AppData\Local\Temp\ccYIfAxE.s:24384  .debug_str:000000000001253d .LASF782
C:\Users\CYMR90~1\AppData\Local\Temp\ccYIfAxE.s:25556  .debug_str:0000000000016deb .LASF783
C:\Users\CYMR90~1\AppData\Local\Temp\ccYIfAxE.s:24282  .debug_str:0000000000011ee8 .LASF784
C:\Users\CYMR90~1\AppData\Local\Temp\ccYIfAxE.s:24704  .debug_str:0000000000013a6a .LASF785
C:\Users\CYMR90~1\AppData\Local\Temp\ccYIfAxE.s:28755  .debug_str:000000000002378b .LASF786
C:\Users\CYMR90~1\AppData\Local\Temp\ccYIfAxE.s:25044  .debug_str:0000000000014ec2 .LASF787
C:\Users\CYMR90~1\AppData\Local\Temp\ccYIfAxE.s:27403  .debug_str:000000000001e6a0 .LASF788
C:\Users\CYMR90~1\AppData\Local\Temp\ccYIfAxE.s:23722  .debug_str:000000000000fccb .LASF789
C:\Users\CYMR90~1\AppData\Local\Temp\ccYIfAxE.s:21106  .debug_str:000000000000571f .LASF790
C:\Users\CYMR90~1\AppData\Local\Temp\ccYIfAxE.s:29767  .debug_str:00000000000279a7 .LASF791
C:\Users\CYMR90~1\AppData\Local\Temp\ccYIfAxE.s:21892  .debug_str:000000000000894f .LASF792
C:\Users\CYMR90~1\AppData\Local\Temp\ccYIfAxE.s:31191  .debug_str:000000000002d3a5 .LASF793
C:\Users\CYMR90~1\AppData\Local\Temp\ccYIfAxE.s:21680  .debug_str:0000000000007ab9 .LASF794
C:\Users\CYMR90~1\AppData\Local\Temp\ccYIfAxE.s:30027  .debug_str:0000000000028b27 .LASF795
C:\Users\CYMR90~1\AppData\Local\Temp\ccYIfAxE.s:27979  .debug_str:0000000000020942 .LASF796
C:\Users\CYMR90~1\AppData\Local\Temp\ccYIfAxE.s:30749  .debug_str:000000000002b6d3 .LASF797
C:\Users\CYMR90~1\AppData\Local\Temp\ccYIfAxE.s:21502  .debug_str:0000000000006f03 .LASF798
C:\Users\CYMR90~1\AppData\Local\Temp\ccYIfAxE.s:30089  .debug_str:0000000000028f85 .LASF799
C:\Users\CYMR90~1\AppData\Local\Temp\ccYIfAxE.s:21070  .debug_str:00000000000054f6 .LASF800
C:\Users\CYMR90~1\AppData\Local\Temp\ccYIfAxE.s:26439  .debug_str:000000000001a7bf .LASF801
C:\Users\CYMR90~1\AppData\Local\Temp\ccYIfAxE.s:26469  .debug_str:000000000001a97f .LASF802
C:\Users\CYMR90~1\AppData\Local\Temp\ccYIfAxE.s:22234  .debug_str:0000000000009e72 .LASF803
C:\Users\CYMR90~1\AppData\Local\Temp\ccYIfAxE.s:24792  .debug_str:0000000000013f90 .LASF804
C:\Users\CYMR90~1\AppData\Local\Temp\ccYIfAxE.s:21518  .debug_str:0000000000006fe2 .LASF805
C:\Users\CYMR90~1\AppData\Local\Temp\ccYIfAxE.s:24232  .debug_str:0000000000011b32 .LASF806
C:\Users\CYMR90~1\AppData\Local\Temp\ccYIfAxE.s:27425  .debug_str:000000000001e7b6 .LASF807
C:\Users\CYMR90~1\AppData\Local\Temp\ccYIfAxE.s:27007  .debug_str:000000000001cc85 .LASF808
C:\Users\CYMR90~1\AppData\Local\Temp\ccYIfAxE.s:29473  .debug_str:0000000000026703 .LASF809
C:\Users\CYMR90~1\AppData\Local\Temp\ccYIfAxE.s:30963  .debug_str:000000000002c48d .LASF810
C:\Users\CYMR90~1\AppData\Local\Temp\ccYIfAxE.s:21918  .debug_str:0000000000008ade .LASF811
C:\Users\CYMR90~1\AppData\Local\Temp\ccYIfAxE.s:20794  .debug_str:0000000000004361 .LASF812
C:\Users\CYMR90~1\AppData\Local\Temp\ccYIfAxE.s:30997  .debug_str:000000000002c746 .LASF813
C:\Users\CYMR90~1\AppData\Local\Temp\ccYIfAxE.s:21174  .debug_str:0000000000005b4f .LASF814
C:\Users\CYMR90~1\AppData\Local\Temp\ccYIfAxE.s:21408  .debug_str:00000000000068fc .LASF815
C:\Users\CYMR90~1\AppData\Local\Temp\ccYIfAxE.s:26777  .debug_str:000000000001bdea .LASF816
C:\Users\CYMR90~1\AppData\Local\Temp\ccYIfAxE.s:22100  .debug_str:00000000000095f2 .LASF817
C:\Users\CYMR90~1\AppData\Local\Temp\ccYIfAxE.s:26919  .debug_str:000000000001c6a3 .LASF818
C:\Users\CYMR90~1\AppData\Local\Temp\ccYIfAxE.s:29385  .debug_str:000000000002616a .LASF819
C:\Users\CYMR90~1\AppData\Local\Temp\ccYIfAxE.s:19886  .debug_str:0000000000000ac4 .LASF820
C:\Users\CYMR90~1\AppData\Local\Temp\ccYIfAxE.s:30585  .debug_str:000000000002ad34 .LASF821
C:\Users\CYMR90~1\AppData\Local\Temp\ccYIfAxE.s:29055  .debug_str:0000000000024a86 .LASF822
C:\Users\CYMR90~1\AppData\Local\Temp\ccYIfAxE.s:22064  .debug_str:00000000000093b7 .LASF823
C:\Users\CYMR90~1\AppData\Local\Temp\ccYIfAxE.s:21016  .debug_str:00000000000051b3 .LASF824
C:\Users\CYMR90~1\AppData\Local\Temp\ccYIfAxE.s:27109  .debug_str:000000000001d42c .LASF825
C:\Users\CYMR90~1\AppData\Local\Temp\ccYIfAxE.s:25262  .debug_str:0000000000015b6e .LASF826
C:\Users\CYMR90~1\AppData\Local\Temp\ccYIfAxE.s:20682  .debug_str:0000000000003be0 .LASF827
C:\Users\CYMR90~1\AppData\Local\Temp\ccYIfAxE.s:23518  .debug_str:000000000000f05a .LASF828
C:\Users\CYMR90~1\AppData\Local\Temp\ccYIfAxE.s:29167  .debug_str:000000000002517d .LASF829
C:\Users\CYMR90~1\AppData\Local\Temp\ccYIfAxE.s:29343  .debug_str:0000000000025eba .LASF830
C:\Users\CYMR90~1\AppData\Local\Temp\ccYIfAxE.s:22690  .debug_str:000000000000bbe7 .LASF831
C:\Users\CYMR90~1\AppData\Local\Temp\ccYIfAxE.s:23464  .debug_str:000000000000ed5c .LASF832
C:\Users\CYMR90~1\AppData\Local\Temp\ccYIfAxE.s:21264  .debug_str:0000000000006066 .LASF833
C:\Users\CYMR90~1\AppData\Local\Temp\ccYIfAxE.s:26377  .debug_str:000000000001a2d5 .LASF834
C:\Users\CYMR90~1\AppData\Local\Temp\ccYIfAxE.s:25955  .debug_str:00000000000186e9 .LASF835
C:\Users\CYMR90~1\AppData\Local\Temp\ccYIfAxE.s:24034  .debug_str:0000000000010ec7 .LASF836
C:\Users\CYMR90~1\AppData\Local\Temp\ccYIfAxE.s:27883  .debug_str:00000000000203a2 .LASF837
C:\Users\CYMR90~1\AppData\Local\Temp\ccYIfAxE.s:21968  .debug_str:0000000000008e2b .LASF838
C:\Users\CYMR90~1\AppData\Local\Temp\ccYIfAxE.s:21094  .debug_str:000000000000567e .LASF839
C:\Users\CYMR90~1\AppData\Local\Temp\ccYIfAxE.s:23932  .debug_str:0000000000010854 .LASF840
C:\Users\CYMR90~1\AppData\Local\Temp\ccYIfAxE.s:22824  .debug_str:000000000000c4ed .LASF841
C:\Users\CYMR90~1\AppData\Local\Temp\ccYIfAxE.s:27023  .debug_str:000000000001cd9b .LASF842
C:\Users\CYMR90~1\AppData\Local\Temp\ccYIfAxE.s:19962  .debug_str:0000000000000fef .LASF843
C:\Users\CYMR90~1\AppData\Local\Temp\ccYIfAxE.s:20324  .debug_str:00000000000024c2 .LASF844
C:\Users\CYMR90~1\AppData\Local\Temp\ccYIfAxE.s:28907  .debug_str:0000000000024075 .LASF845
C:\Users\CYMR90~1\AppData\Local\Temp\ccYIfAxE.s:19708  .debug_str:0000000000000096 .LASF846
C:\Users\CYMR90~1\AppData\Local\Temp\ccYIfAxE.s:21760  .debug_str:000000000000808b .LASF847
C:\Users\CYMR90~1\AppData\Local\Temp\ccYIfAxE.s:27733  .debug_str:000000000001fa79 .LASF848
C:\Users\CYMR90~1\AppData\Local\Temp\ccYIfAxE.s:21726  .debug_str:0000000000007dc5 .LASF849
C:\Users\CYMR90~1\AppData\Local\Temp\ccYIfAxE.s:23124  .debug_str:000000000000d91d .LASF852
C:\Users\CYMR90~1\AppData\Local\Temp\ccYIfAxE.s:30141  .debug_str:00000000000292ca .LASF853
C:\Users\CYMR90~1\AppData\Local\Temp\ccYIfAxE.s:25104  .debug_str:00000000000152b0 .LASF854
C:\Users\CYMR90~1\AppData\Local\Temp\ccYIfAxE.s:28403  .debug_str:000000000002230f .LASF856
C:\Users\CYMR90~1\AppData\Local\Temp\ccYIfAxE.s:27251  .debug_str:000000000001dd15 .LASF857
C:\Users\CYMR90~1\AppData\Local\Temp\ccYIfAxE.s:29961  .debug_str:00000000000285fe .LASF858
C:\Users\CYMR90~1\AppData\Local\Temp\ccYIfAxE.s:23110  .debug_str:000000000000d82c .LASF859
C:\Users\CYMR90~1\AppData\Local\Temp\ccYIfAxE.s:24084  .debug_str:00000000000111cc .LASF860
C:\Users\CYMR90~1\AppData\Local\Temp\ccYIfAxE.s:28327  .debug_str:0000000000021e5c .LASF861
C:\Users\CYMR90~1\AppData\Local\Temp\ccYIfAxE.s:27463  .debug_str:000000000001ea24 .LASF862
C:\Users\CYMR90~1\AppData\Local\Temp\ccYIfAxE.s:20060  .debug_str:000000000000157f .LASF863
C:\Users\CYMR90~1\AppData\Local\Temp\ccYIfAxE.s:20736  .debug_str:0000000000003f10 .LASF864
C:\Users\CYMR90~1\AppData\Local\Temp\ccYIfAxE.s:21144  .debug_str:0000000000005989 .LASF865
C:\Users\CYMR90~1\AppData\Local\Temp\ccYIfAxE.s:22366  .debug_str:000000000000a6c7 .LASF866
C:\Users\CYMR90~1\AppData\Local\Temp\ccYIfAxE.s:21830  .debug_str:000000000000859f .LASF867
C:\Users\CYMR90~1\AppData\Local\Temp\ccYIfAxE.s:27175  .debug_str:000000000001d827 .LASF868
C:\Users\CYMR90~1\AppData\Local\Temp\ccYIfAxE.s:27821  .debug_str:000000000001ffba .LASF869
C:\Users\CYMR90~1\AppData\Local\Temp\ccYIfAxE.s:28921  .debug_str:0000000000024139 .LASF870
C:\Users\CYMR90~1\AppData\Local\Temp\ccYIfAxE.s:22006  .debug_str:00000000000090a3 .LASF871
C:\Users\CYMR90~1\AppData\Local\Temp\ccYIfAxE.s:22440  .debug_str:000000000000ab4b .LASF872
C:\Users\CYMR90~1\AppData\Local\Temp\ccYIfAxE.s:27015  .debug_str:000000000001cd29 .LASF873
C:\Users\CYMR90~1\AppData\Local\Temp\ccYIfAxE.s:29651  .debug_str:00000000000271c2 .LASF874
C:\Users\CYMR90~1\AppData\Local\Temp\ccYIfAxE.s:24302  .debug_str:0000000000012000 .LASF875
C:\Users\CYMR90~1\AppData\Local\Temp\ccYIfAxE.s:25006  .debug_str:0000000000014c89 .LASF876
C:\Users\CYMR90~1\AppData\Local\Temp\ccYIfAxE.s:22240  .debug_str:0000000000009ec7 .LASF877
C:\Users\CYMR90~1\AppData\Local\Temp\ccYIfAxE.s:26715  .debug_str:000000000001ba74 .LASF878
C:\Users\CYMR90~1\AppData\Local\Temp\ccYIfAxE.s:24080  .debug_str:00000000000111a7 .LASF879
C:\Users\CYMR90~1\AppData\Local\Temp\ccYIfAxE.s:25663  .debug_str:0000000000017588 .LASF880
C:\Users\CYMR90~1\AppData\Local\Temp\ccYIfAxE.s:21072  .debug_str:000000000000550f .LASF881
C:\Users\CYMR90~1\AppData\Local\Temp\ccYIfAxE.s:24526  .debug_str:0000000000012e48 .LASF882
C:\Users\CYMR90~1\AppData\Local\Temp\ccYIfAxE.s:27701  .debug_str:000000000001f8cf .LASF883
C:\Users\CYMR90~1\AppData\Local\Temp\ccYIfAxE.s:24132  .debug_str:0000000000011485 .LASF884
C:\Users\CYMR90~1\AppData\Local\Temp\ccYIfAxE.s:31245  .debug_str:000000000002d737 .LASF885
C:\Users\CYMR90~1\AppData\Local\Temp\ccYIfAxE.s:26721  .debug_str:000000000001bacc .LASF886
C:\Users\CYMR90~1\AppData\Local\Temp\ccYIfAxE.s:22112  .debug_str:0000000000009699 .LASF887
C:\Users\CYMR90~1\AppData\Local\Temp\ccYIfAxE.s:28869  .debug_str:0000000000023e85 .LASF888
C:\Users\CYMR90~1\AppData\Local\Temp\ccYIfAxE.s:24462  .debug_str:0000000000012a07 .LASF889
C:\Users\CYMR90~1\AppData\Local\Temp\ccYIfAxE.s:28803  .debug_str:0000000000023a3c .LASF890
C:\Users\CYMR90~1\AppData\Local\Temp\ccYIfAxE.s:20892  .debug_str:0000000000004a4f .LASF891
C:\Users\CYMR90~1\AppData\Local\Temp\ccYIfAxE.s:23414  .debug_str:000000000000ea41 .LASF892
C:\Users\CYMR90~1\AppData\Local\Temp\ccYIfAxE.s:29591  .debug_str:0000000000026e3f .LASF893
C:\Users\CYMR90~1\AppData\Local\Temp\ccYIfAxE.s:28967  .debug_str:00000000000243e9 .LASF894
C:\Users\CYMR90~1\AppData\Local\Temp\ccYIfAxE.s:20030  .debug_str:00000000000013aa .LASF895
C:\Users\CYMR90~1\AppData\Local\Temp\ccYIfAxE.s:24858  .debug_str:0000000000014364 .LASF896
C:\Users\CYMR90~1\AppData\Local\Temp\ccYIfAxE.s:20982  .debug_str:0000000000004fb5 .LASF897
C:\Users\CYMR90~1\AppData\Local\Temp\ccYIfAxE.s:22230  .debug_str:0000000000009e33 .LASF898
C:\Users\CYMR90~1\AppData\Local\Temp\ccYIfAxE.s:29901  .debug_str:0000000000028207 .LASF899
C:\Users\CYMR90~1\AppData\Local\Temp\ccYIfAxE.s:22560  .debug_str:000000000000b38d .LASF900
C:\Users\CYMR90~1\AppData\Local\Temp\ccYIfAxE.s:26769  .debug_str:000000000001bd62 .LASF901
C:\Users\CYMR90~1\AppData\Local\Temp\ccYIfAxE.s:30451  .debug_str:000000000002a55b .LASF902
C:\Users\CYMR90~1\AppData\Local\Temp\ccYIfAxE.s:29165  .debug_str:0000000000025157 .LASF903
C:\Users\CYMR90~1\AppData\Local\Temp\ccYIfAxE.s:30049  .debug_str:0000000000028c92 .LASF904
C:\Users\CYMR90~1\AppData\Local\Temp\ccYIfAxE.s:24510  .debug_str:0000000000012d3a .LASF905
C:\Users\CYMR90~1\AppData\Local\Temp\ccYIfAxE.s:21880  .debug_str:00000000000088b5 .LASF906
C:\Users\CYMR90~1\AppData\Local\Temp\ccYIfAxE.s:27105  .debug_str:000000000001d3e6 .LASF907
C:\Users\CYMR90~1\AppData\Local\Temp\ccYIfAxE.s:23410  .debug_str:000000000000e9fe .LASF908
C:\Users\CYMR90~1\AppData\Local\Temp\ccYIfAxE.s:29873  .debug_str:0000000000027fda .LASF909
C:\Users\CYMR90~1\AppData\Local\Temp\ccYIfAxE.s:24054  .debug_str:000000000001104b .LASF910
C:\Users\CYMR90~1\AppData\Local\Temp\ccYIfAxE.s:20424  .debug_str:0000000000002b68 .LASF911
C:\Users\CYMR90~1\AppData\Local\Temp\ccYIfAxE.s:20002  .debug_str:0000000000001225 .LASF912
C:\Users\CYMR90~1\AppData\Local\Temp\ccYIfAxE.s:28239  .debug_str:000000000002191c .LASF913
C:\Users\CYMR90~1\AppData\Local\Temp\ccYIfAxE.s:29147  .debug_str:0000000000025027 .LASF914
C:\Users\CYMR90~1\AppData\Local\Temp\ccYIfAxE.s:22950  .debug_str:000000000000cd2c .LASF915
C:\Users\CYMR90~1\AppData\Local\Temp\ccYIfAxE.s:23276  .debug_str:000000000000e1de .LASF916
C:\Users\CYMR90~1\AppData\Local\Temp\ccYIfAxE.s:23858  .debug_str:000000000001046e .LASF917
C:\Users\CYMR90~1\AppData\Local\Temp\ccYIfAxE.s:30701  .debug_str:000000000002b405 .LASF918
C:\Users\CYMR90~1\AppData\Local\Temp\ccYIfAxE.s:19988  .debug_str:0000000000001146 .LASF919
C:\Users\CYMR90~1\AppData\Local\Temp\ccYIfAxE.s:22546  .debug_str:000000000000b2a2 .LASF920
C:\Users\CYMR90~1\AppData\Local\Temp\ccYIfAxE.s:29097  .debug_str:0000000000024cf2 .LASF921
C:\Users\CYMR90~1\AppData\Local\Temp\ccYIfAxE.s:26463  .debug_str:000000000001a90d .LASF922
C:\Users\CYMR90~1\AppData\Local\Temp\ccYIfAxE.s:29629  .debug_str:000000000002706d .LASF923
C:\Users\CYMR90~1\AppData\Local\Temp\ccYIfAxE.s:25595  .debug_str:00000000000171d9 .LASF924
C:\Users\CYMR90~1\AppData\Local\Temp\ccYIfAxE.s:20380  .debug_str:0000000000002876 .LASF925
C:\Users\CYMR90~1\AppData\Local\Temp\ccYIfAxE.s:26677  .debug_str:000000000001b821 .LASF926
C:\Users\CYMR90~1\AppData\Local\Temp\ccYIfAxE.s:20102  .debug_str:00000000000017e7 .LASF927
C:\Users\CYMR90~1\AppData\Local\Temp\ccYIfAxE.s:25036  .debug_str:0000000000014e3c .LASF928
C:\Users\CYMR90~1\AppData\Local\Temp\ccYIfAxE.s:27767  .debug_str:000000000001fc56 .LASF929
C:\Users\CYMR90~1\AppData\Local\Temp\ccYIfAxE.s:30959  .debug_str:000000000002c453 .LASF930
C:\Users\CYMR90~1\AppData\Local\Temp\ccYIfAxE.s:31183  .debug_str:000000000002d339 .LASF931
C:\Users\CYMR90~1\AppData\Local\Temp\ccYIfAxE.s:27661  .debug_str:000000000001f63a .LASF932
C:\Users\CYMR90~1\AppData\Local\Temp\ccYIfAxE.s:30429  .debug_str:000000000002a431 .LASF933
C:\Users\CYMR90~1\AppData\Local\Temp\ccYIfAxE.s:25390  .debug_str:00000000000163dd .LASF934
C:\Users\CYMR90~1\AppData\Local\Temp\ccYIfAxE.s:26235  .debug_str:0000000000019972 .LASF935
C:\Users\CYMR90~1\AppData\Local\Temp\ccYIfAxE.s:25266  .debug_str:0000000000015ba3 .LASF936
C:\Users\CYMR90~1\AppData\Local\Temp\ccYIfAxE.s:29235  .debug_str:000000000002562d .LASF937
C:\Users\CYMR90~1\AppData\Local\Temp\ccYIfAxE.s:19902  .debug_str:0000000000000bcc .LASF938
C:\Users\CYMR90~1\AppData\Local\Temp\ccYIfAxE.s:28043  .debug_str:0000000000020d78 .LASF939
C:\Users\CYMR90~1\AppData\Local\Temp\ccYIfAxE.s:29327  .debug_str:0000000000025d29 .LASF940
C:\Users\CYMR90~1\AppData\Local\Temp\ccYIfAxE.s:22692  .debug_str:000000000000bc05 .LASF941
C:\Users\CYMR90~1\AppData\Local\Temp\ccYIfAxE.s:26451  .debug_str:000000000001a854 .LASF942
C:\Users\CYMR90~1\AppData\Local\Temp\ccYIfAxE.s:23452  .debug_str:000000000000ec6a .LASF943
C:\Users\CYMR90~1\AppData\Local\Temp\ccYIfAxE.s:29451  .debug_str:00000000000265a8 .LASF944
C:\Users\CYMR90~1\AppData\Local\Temp\ccYIfAxE.s:26861  .debug_str:000000000001c346 .LASF945
C:\Users\CYMR90~1\AppData\Local\Temp\ccYIfAxE.s:23660  .debug_str:000000000000f884 .LASF946
C:\Users\CYMR90~1\AppData\Local\Temp\ccYIfAxE.s:25743  .debug_str:0000000000017a1b .LASF947
C:\Users\CYMR90~1\AppData\Local\Temp\ccYIfAxE.s:27387  .debug_str:000000000001e5c3 .LASF948
C:\Users\CYMR90~1\AppData\Local\Temp\ccYIfAxE.s:24030  .debug_str:0000000000010e89 .LASF949
C:\Users\CYMR90~1\AppData\Local\Temp\ccYIfAxE.s:23012  .debug_str:000000000000d14b .LASF950
C:\Users\CYMR90~1\AppData\Local\Temp\ccYIfAxE.s:21578  .debug_str:00000000000073e0 .LASF952
C:\Users\CYMR90~1\AppData\Local\Temp\ccYIfAxE.s:25190  .debug_str:0000000000015765 .LASF953
C:\Users\CYMR90~1\AppData\Local\Temp\ccYIfAxE.s:23048  .debug_str:000000000000d3c9 .LASF954
C:\Users\CYMR90~1\AppData\Local\Temp\ccYIfAxE.s:31175  .debug_str:000000000002d2bc .LASF955
C:\Users\CYMR90~1\AppData\Local\Temp\ccYIfAxE.s:30321  .debug_str:0000000000029dcb .LASF956
C:\Users\CYMR90~1\AppData\Local\Temp\ccYIfAxE.s:30415  .debug_str:000000000002a358 .LASF960
C:\Users\CYMR90~1\AppData\Local\Temp\ccYIfAxE.s:22136  .debug_str:000000000000985a .LASF961
C:\Users\CYMR90~1\AppData\Local\Temp\ccYIfAxE.s:29659  .debug_str:000000000002724d .LASF962
C:\Users\CYMR90~1\AppData\Local\Temp\ccYIfAxE.s:24274  .debug_str:0000000000011e6c .LASF963
C:\Users\CYMR90~1\AppData\Local\Temp\ccYIfAxE.s:24758  .debug_str:0000000000013d92 .LASF964
C:\Users\CYMR90~1\AppData\Local\Temp\ccYIfAxE.s:28433  .debug_str:00000000000224b9 .LASF965
C:\Users\CYMR90~1\AppData\Local\Temp\ccYIfAxE.s:26671  .debug_str:000000000001b7b5 .LASF966
C:\Users\CYMR90~1\AppData\Local\Temp\ccYIfAxE.s:21742  .debug_str:0000000000007ebf .LASF967
C:\Users\CYMR90~1\AppData\Local\Temp\ccYIfAxE.s:30743  .debug_str:000000000002b665 .LASF968
C:\Users\CYMR90~1\AppData\Local\Temp\ccYIfAxE.s:21324  .debug_str:000000000000640c .LASF969
C:\Users\CYMR90~1\AppData\Local\Temp\ccYIfAxE.s:24898  .debug_str:0000000000014618 .LASF970
C:\Users\CYMR90~1\AppData\Local\Temp\ccYIfAxE.s:30835  .debug_str:000000000002bc38 .LASF971
C:\Users\CYMR90~1\AppData\Local\Temp\ccYIfAxE.s:23462  .debug_str:000000000000ed36 .LASF972
C:\Users\CYMR90~1\AppData\Local\Temp\ccYIfAxE.s:23430  .debug_str:000000000000eb43 .LASF973
C:\Users\CYMR90~1\AppData\Local\Temp\ccYIfAxE.s:23072  .debug_str:000000000000d543 .LASF974
C:\Users\CYMR90~1\AppData\Local\Temp\ccYIfAxE.s:25528  .debug_str:0000000000016bc3 .LASF975
C:\Users\CYMR90~1\AppData\Local\Temp\ccYIfAxE.s:31209  .debug_str:000000000002d48c .LASF976
C:\Users\CYMR90~1\AppData\Local\Temp\ccYIfAxE.s:23006  .debug_str:000000000000d0e0 .LASF977
C:\Users\CYMR90~1\AppData\Local\Temp\ccYIfAxE.s:31231  .debug_str:000000000002d6af .LASF978
C:\Users\CYMR90~1\AppData\Local\Temp\ccYIfAxE.s:29433  .debug_str:0000000000026481 .LASF979
C:\Users\CYMR90~1\AppData\Local\Temp\ccYIfAxE.s:29493  .debug_str:000000000002682e .LASF980
C:\Users\CYMR90~1\AppData\Local\Temp\ccYIfAxE.s:23516  .debug_str:000000000000f040 .LASF981
C:\Users\CYMR90~1\AppData\Local\Temp\ccYIfAxE.s:21022  .debug_str:000000000000520c .LASF982
C:\Users\CYMR90~1\AppData\Local\Temp\ccYIfAxE.s:24298  .debug_str:0000000000011fe3 .LASF983
C:\Users\CYMR90~1\AppData\Local\Temp\ccYIfAxE.s:22010  .debug_str:00000000000090c3 .LASF984
C:\Users\CYMR90~1\AppData\Local\Temp\ccYIfAxE.s:27101  .debug_str:000000000001d31f .LASF985
C:\Users\CYMR90~1\AppData\Local\Temp\ccYIfAxE.s:28719  .debug_str:00000000000235af .LASF986
C:\Users\CYMR90~1\AppData\Local\Temp\ccYIfAxE.s:25332  .debug_str:0000000000015fcb .LASF987
C:\Users\CYMR90~1\AppData\Local\Temp\ccYIfAxE.s:20096  .debug_str:0000000000001796 .LASF988
C:\Users\CYMR90~1\AppData\Local\Temp\ccYIfAxE.s:28635  .debug_str:00000000000230fa .LASF989
C:\Users\CYMR90~1\AppData\Local\Temp\ccYIfAxE.s:26051  .debug_str:0000000000018cc3 .LASF990
C:\Users\CYMR90~1\AppData\Local\Temp\ccYIfAxE.s:23002  .debug_str:000000000000d0b8 .LASF991
C:\Users\CYMR90~1\AppData\Local\Temp\ccYIfAxE.s:29601  .debug_str:0000000000026edb .LASF992
C:\Users\CYMR90~1\AppData\Local\Temp\ccYIfAxE.s:21626  .debug_str:0000000000007755 .LASF993
C:\Users\CYMR90~1\AppData\Local\Temp\ccYIfAxE.s:29413  .debug_str:0000000000026309 .LASF994
C:\Users\CYMR90~1\AppData\Local\Temp\ccYIfAxE.s:26137  .debug_str:000000000001938a .LASF995
C:\Users\CYMR90~1\AppData\Local\Temp\ccYIfAxE.s:30223  .debug_str:0000000000029798 .LASF996
C:\Users\CYMR90~1\AppData\Local\Temp\ccYIfAxE.s:27295  .debug_str:000000000001df93 .LASF997
C:\Users\CYMR90~1\AppData\Local\Temp\ccYIfAxE.s:27367  .debug_str:000000000001e481 .LASF998
C:\Users\CYMR90~1\AppData\Local\Temp\ccYIfAxE.s:20336  .debug_str:0000000000002560 .LASF999
C:\Users\CYMR90~1\AppData\Local\Temp\ccYIfAxE.s:20688  .debug_str:0000000000003c38 .LASF1000
C:\Users\CYMR90~1\AppData\Local\Temp\ccYIfAxE.s:29071  .debug_str:0000000000024b74 .LASF1001
C:\Users\CYMR90~1\AppData\Local\Temp\ccYIfAxE.s:23866  .debug_str:0000000000010515 .LASF1002
C:\Users\CYMR90~1\AppData\Local\Temp\ccYIfAxE.s:20974  .debug_str:0000000000004f5c .LASF1003
C:\Users\CYMR90~1\AppData\Local\Temp\ccYIfAxE.s:26901  .debug_str:000000000001c5a9 .LASF1004
C:\Users\CYMR90~1\AppData\Local\Temp\ccYIfAxE.s:24248  .debug_str:0000000000011c44 .LASF1005
C:\Users\CYMR90~1\AppData\Local\Temp\ccYIfAxE.s:22966  .debug_str:000000000000ceda .LASF1006
C:\Users\CYMR90~1\AppData\Local\Temp\ccYIfAxE.s:21298  .debug_str:0000000000006275 .LASF1007
C:\Users\CYMR90~1\AppData\Local\Temp\ccYIfAxE.s:28429  .debug_str:0000000000022481 .LASF1008
C:\Users\CYMR90~1\AppData\Local\Temp\ccYIfAxE.s:25823  .debug_str:0000000000017f02 .LASF1009
C:\Users\CYMR90~1\AppData\Local\Temp\ccYIfAxE.s:25981  .debug_str:0000000000018851 .LASF1010
C:\Users\CYMR90~1\AppData\Local\Temp\ccYIfAxE.s:23292  .debug_str:000000000000e2ed .LASF1011
C:\Users\CYMR90~1\AppData\Local\Temp\ccYIfAxE.s:27145  .debug_str:000000000001d666 .LASF1012
C:\Users\CYMR90~1\AppData\Local\Temp\ccYIfAxE.s:23478  .debug_str:000000000000ee29 .LASF1013
C:\Users\CYMR90~1\AppData\Local\Temp\ccYIfAxE.s:26253  .debug_str:0000000000019af6 .LASF1014
C:\Users\CYMR90~1\AppData\Local\Temp\ccYIfAxE.s:20686  .debug_str:0000000000003c22 .LASF1015
C:\Users\CYMR90~1\AppData\Local\Temp\ccYIfAxE.s:21182  .debug_str:0000000000005ba1 .LASF1016
C:\Users\CYMR90~1\AppData\Local\Temp\ccYIfAxE.s:21132  .debug_str:00000000000058cc .LASF1017
C:\Users\CYMR90~1\AppData\Local\Temp\ccYIfAxE.s:29757  .debug_str:0000000000027867 .LASF1018
C:\Users\CYMR90~1\AppData\Local\Temp\ccYIfAxE.s:23526  .debug_str:000000000000f0c2 .LASF1019
C:\Users\CYMR90~1\AppData\Local\Temp\ccYIfAxE.s:20330  .debug_str:0000000000002517 .LASF1020
C:\Users\CYMR90~1\AppData\Local\Temp\ccYIfAxE.s:25859  .debug_str:000000000001813b .LASF1021
C:\Users\CYMR90~1\AppData\Local\Temp\ccYIfAxE.s:22822  .debug_str:000000000000c4d5 .LASF1022
C:\Users\CYMR90~1\AppData\Local\Temp\ccYIfAxE.s:29679  .debug_str:0000000000027368 .LASF1023
C:\Users\CYMR90~1\AppData\Local\Temp\ccYIfAxE.s:22046  .debug_str:00000000000092e5 .LASF1024
C:\Users\CYMR90~1\AppData\Local\Temp\ccYIfAxE.s:24576  .debug_str:0000000000013172 .LASF1025
C:\Users\CYMR90~1\AppData\Local\Temp\ccYIfAxE.s:24058  .debug_str:000000000001108c .LASF1026
C:\Users\CYMR90~1\AppData\Local\Temp\ccYIfAxE.s:25028  .debug_str:0000000000014d88 .LASF1027
C:\Users\CYMR90~1\AppData\Local\Temp\ccYIfAxE.s:27227  .debug_str:000000000001db7a .LASF1028
C:\Users\CYMR90~1\AppData\Local\Temp\ccYIfAxE.s:27619  .debug_str:000000000001f394 .LASF1029
C:\Users\CYMR90~1\AppData\Local\Temp\ccYIfAxE.s:28939  .debug_str:0000000000024246 .LASF1030
C:\Users\CYMR90~1\AppData\Local\Temp\ccYIfAxE.s:27999  .debug_str:0000000000020af0 .LASF1031
C:\Users\CYMR90~1\AppData\Local\Temp\ccYIfAxE.s:30323  .debug_str:0000000000029e33 .LASF1032
C:\Users\CYMR90~1\AppData\Local\Temp\ccYIfAxE.s:22192  .debug_str:0000000000009bcf .LASF1033
C:\Users\CYMR90~1\AppData\Local\Temp\ccYIfAxE.s:21030  .debug_str:000000000000528e .LASF1034
C:\Users\CYMR90~1\AppData\Local\Temp\ccYIfAxE.s:26179  .debug_str:0000000000019605 .LASF1035
C:\Users\CYMR90~1\AppData\Local\Temp\ccYIfAxE.s:26443  .debug_str:000000000001a7ef .LASF1036
C:\Users\CYMR90~1\AppData\Local\Temp\ccYIfAxE.s:28733  .debug_str:0000000000023641 .LASF1037
C:\Users\CYMR90~1\AppData\Local\Temp\ccYIfAxE.s:23702  .debug_str:000000000000fbd3 .LASF1038
C:\Users\CYMR90~1\AppData\Local\Temp\ccYIfAxE.s:27339  .debug_str:000000000001e2f3 .LASF1039
C:\Users\CYMR90~1\AppData\Local\Temp\ccYIfAxE.s:25204  .debug_str:000000000001585d .LASF1040
C:\Users\CYMR90~1\AppData\Local\Temp\ccYIfAxE.s:23604  .debug_str:000000000000f54a .LASF1041
C:\Users\CYMR90~1\AppData\Local\Temp\ccYIfAxE.s:29483  .debug_str:00000000000267a0 .LASF1042
C:\Users\CYMR90~1\AppData\Local\Temp\ccYIfAxE.s:23868  .debug_str:000000000001052c .LASF1043
C:\Users\CYMR90~1\AppData\Local\Temp\ccYIfAxE.s:19728  .debug_str:000000000000019b .LASF1044
C:\Users\CYMR90~1\AppData\Local\Temp\ccYIfAxE.s:22058  .debug_str:0000000000009366 .LASF1045
C:\Users\CYMR90~1\AppData\Local\Temp\ccYIfAxE.s:26373  .debug_str:000000000001a297 .LASF1046
C:\Users\CYMR90~1\AppData\Local\Temp\ccYIfAxE.s:25460  .debug_str:00000000000167de .LASF1047
C:\Users\CYMR90~1\AppData\Local\Temp\ccYIfAxE.s:28777  .debug_str:00000000000238ae .LASF1048
C:\Users\CYMR90~1\AppData\Local\Temp\ccYIfAxE.s:27587  .debug_str:000000000001f175 .LASF1049
C:\Users\CYMR90~1\AppData\Local\Temp\ccYIfAxE.s:20520  .debug_str:0000000000003188 .LASF1050
C:\Users\CYMR90~1\AppData\Local\Temp\ccYIfAxE.s:27595  .debug_str:000000000001f1ed .LASF1051
C:\Users\CYMR90~1\AppData\Local\Temp\ccYIfAxE.s:27803  .debug_str:000000000001fe9f .LASF1052
C:\Users\CYMR90~1\AppData\Local\Temp\ccYIfAxE.s:22558  .debug_str:000000000000b37b .LASF1053
C:\Users\CYMR90~1\AppData\Local\Temp\ccYIfAxE.s:28679  .debug_str:0000000000023383 .LASF1054
C:\Users\CYMR90~1\AppData\Local\Temp\ccYIfAxE.s:24552  .debug_str:0000000000012fd8 .LASF1055
C:\Users\CYMR90~1\AppData\Local\Temp\ccYIfAxE.s:23458  .debug_str:000000000000ece4 .LASF1056
C:\Users\CYMR90~1\AppData\Local\Temp\ccYIfAxE.s:29939  .debug_str:00000000000284b1 .LASF1057
C:\Users\CYMR90~1\AppData\Local\Temp\ccYIfAxE.s:30545  .debug_str:000000000002aaa2 .LASF1058
C:\Users\CYMR90~1\AppData\Local\Temp\ccYIfAxE.s:29233  .debug_str:000000000002560b .LASF1059
C:\Users\CYMR90~1\AppData\Local\Temp\ccYIfAxE.s:28807  .debug_str:0000000000023a84 .LASF1060
C:\Users\CYMR90~1\AppData\Local\Temp\ccYIfAxE.s:21860  .debug_str:0000000000008795 .LASF1061
C:\Users\CYMR90~1\AppData\Local\Temp\ccYIfAxE.s:19868  .debug_str:0000000000000965 .LASF1062
C:\Users\CYMR90~1\AppData\Local\Temp\ccYIfAxE.s:24938  .debug_str:0000000000014829 .LASF1063
C:\Users\CYMR90~1\AppData\Local\Temp\ccYIfAxE.s:20734  .debug_str:0000000000003ef9 .LASF1064
C:\Users\CYMR90~1\AppData\Local\Temp\ccYIfAxE.s:19808  .debug_str:00000000000005ea .LASF1065
C:\Users\CYMR90~1\AppData\Local\Temp\ccYIfAxE.s:31239  .debug_str:000000000002d6fd .LASF1066
C:\Users\CYMR90~1\AppData\Local\Temp\ccYIfAxE.s:29073  .debug_str:0000000000024b8c .LASF1067
C:\Users\CYMR90~1\AppData\Local\Temp\ccYIfAxE.s:25526  .debug_str:0000000000016ba9 .LASF1068
C:\Users\CYMR90~1\AppData\Local\Temp\ccYIfAxE.s:27117  .debug_str:000000000001d49f .LASF1069
C:\Users\CYMR90~1\AppData\Local\Temp\ccYIfAxE.s:19922  .debug_str:0000000000000cf1 .LASF1070
C:\Users\CYMR90~1\AppData\Local\Temp\ccYIfAxE.s:22322  .debug_str:000000000000a3d5 .LASF1071
C:\Users\CYMR90~1\AppData\Local\Temp\ccYIfAxE.s:28585  .debug_str:0000000000022d98 .LASF1072
C:\Users\CYMR90~1\AppData\Local\Temp\ccYIfAxE.s:27083  .debug_str:000000000001d1f8 .LASF1073
C:\Users\CYMR90~1\AppData\Local\Temp\ccYIfAxE.s:30189  .debug_str:0000000000029591 .LASF1074
C:\Users\CYMR90~1\AppData\Local\Temp\ccYIfAxE.s:25671  .debug_str:00000000000175e9 .LASF1075
C:\Users\CYMR90~1\AppData\Local\Temp\ccYIfAxE.s:20374  .debug_str:0000000000002826 .LASF1076
C:\Users\CYMR90~1\AppData\Local\Temp\ccYIfAxE.s:30985  .debug_str:000000000002c607 .LASF1077
C:\Users\CYMR90~1\AppData\Local\Temp\ccYIfAxE.s:21362  .debug_str:0000000000006661 .LASF1078
C:\Users\CYMR90~1\AppData\Local\Temp\ccYIfAxE.s:28041  .debug_str:0000000000020d66 .LASF1079
C:\Users\CYMR90~1\AppData\Local\Temp\ccYIfAxE.s:28133  .debug_str:000000000002127b .LASF1080
C:\Users\CYMR90~1\AppData\Local\Temp\ccYIfAxE.s:26881  .debug_str:000000000001c489 .LASF1081
C:\Users\CYMR90~1\AppData\Local\Temp\ccYIfAxE.s:29787  .debug_str:0000000000027ae8 .LASF1082
C:\Users\CYMR90~1\AppData\Local\Temp\ccYIfAxE.s:25142  .debug_str:00000000000154c2 .LASF1083
C:\Users\CYMR90~1\AppData\Local\Temp\ccYIfAxE.s:28265  .debug_str:0000000000021ab6 .LASF1084
C:\Users\CYMR90~1\AppData\Local\Temp\ccYIfAxE.s:24810  .debug_str:00000000000140a4 .LASF1085
C:\Users\CYMR90~1\AppData\Local\Temp\ccYIfAxE.s:20136  .debug_str:0000000000001a0b .LASF1086
C:\Users\CYMR90~1\AppData\Local\Temp\ccYIfAxE.s:23338  .debug_str:000000000000e56c .LASF1087
C:\Users\CYMR90~1\AppData\Local\Temp\ccYIfAxE.s:29491  .debug_str:000000000002681f .LASF1088
C:\Users\CYMR90~1\AppData\Local\Temp\ccYIfAxE.s:28579  .debug_str:0000000000022d40 .LASF1089
C:\Users\CYMR90~1\AppData\Local\Temp\ccYIfAxE.s:19982  .debug_str:00000000000010ea .LASF1090
C:\Users\CYMR90~1\AppData\Local\Temp\ccYIfAxE.s:31169  .debug_str:000000000002d24c .LASF1091
C:\Users\CYMR90~1\AppData\Local\Temp\ccYIfAxE.s:29899  .debug_str:00000000000281ef .LASF1092
C:\Users\CYMR90~1\AppData\Local\Temp\ccYIfAxE.s:23680  .debug_str:000000000000f9a3 .LASF1093
C:\Users\CYMR90~1\AppData\Local\Temp\ccYIfAxE.s:29537  .debug_str:0000000000026aab .LASF1094
C:\Users\CYMR90~1\AppData\Local\Temp\ccYIfAxE.s:25220  .debug_str:0000000000015908 .LASF1095
C:\Users\CYMR90~1\AppData\Local\Temp\ccYIfAxE.s:26693  .debug_str:000000000001b907 .LASF1096
C:\Users\CYMR90~1\AppData\Local\Temp\ccYIfAxE.s:27231  .debug_str:000000000001dbcc .LASF1097
C:\Users\CYMR90~1\AppData\Local\Temp\ccYIfAxE.s:21348  .debug_str:00000000000065a0 .LASF1098
C:\Users\CYMR90~1\AppData\Local\Temp\ccYIfAxE.s:24572  .debug_str:000000000001310f .LASF1099
C:\Users\CYMR90~1\AppData\Local\Temp\ccYIfAxE.s:23862  .debug_str:00000000000104c5 .LASF1100
C:\Users\CYMR90~1\AppData\Local\Temp\ccYIfAxE.s:28853  .debug_str:0000000000023d89 .LASF1101
C:\Users\CYMR90~1\AppData\Local\Temp\ccYIfAxE.s:23018  .debug_str:000000000000d1a5 .LASF1102
C:\Users\CYMR90~1\AppData\Local\Temp\ccYIfAxE.s:28523  .debug_str:00000000000229cf .LASF1103
C:\Users\CYMR90~1\AppData\Local\Temp\ccYIfAxE.s:30137  .debug_str:0000000000029294 .LASF1104
C:\Users\CYMR90~1\AppData\Local\Temp\ccYIfAxE.s:27929  .debug_str:0000000000020634 .LASF1105
C:\Users\CYMR90~1\AppData\Local\Temp\ccYIfAxE.s:24762  .debug_str:0000000000013dac .LASF1106
C:\Users\CYMR90~1\AppData\Local\Temp\ccYIfAxE.s:21158  .debug_str:0000000000005a3a .LASF1107
C:\Users\CYMR90~1\AppData\Local\Temp\ccYIfAxE.s:26609  .debug_str:000000000001b311 .LASF1108
C:\Users\CYMR90~1\AppData\Local\Temp\ccYIfAxE.s:21366  .debug_str:000000000000669d .LASF1109
C:\Users\CYMR90~1\AppData\Local\Temp\ccYIfAxE.s:22352  .debug_str:000000000000a5ae .LASF1110
C:\Users\CYMR90~1\AppData\Local\Temp\ccYIfAxE.s:20204  .debug_str:0000000000001e08 .LASF1111
C:\Users\CYMR90~1\AppData\Local\Temp\ccYIfAxE.s:21458  .debug_str:0000000000006c3c .LASF1112
C:\Users\CYMR90~1\AppData\Local\Temp\ccYIfAxE.s:22582  .debug_str:000000000000b4e0 .LASF1113
C:\Users\CYMR90~1\AppData\Local\Temp\ccYIfAxE.s:29287  .debug_str:0000000000025a4f .LASF1114
C:\Users\CYMR90~1\AppData\Local\Temp\ccYIfAxE.s:22140  .debug_str:0000000000009878 .LASF1115
C:\Users\CYMR90~1\AppData\Local\Temp\ccYIfAxE.s:29981  .debug_str:0000000000028790 .LASF1116
C:\Users\CYMR90~1\AppData\Local\Temp\ccYIfAxE.s:30497  .debug_str:000000000002a7de .LASF1117
C:\Users\CYMR90~1\AppData\Local\Temp\ccYIfAxE.s:20542  .debug_str:00000000000032d6 .LASF1118
C:\Users\CYMR90~1\AppData\Local\Temp\ccYIfAxE.s:25839  .debug_str:0000000000017ffe .LASF1119
C:\Users\CYMR90~1\AppData\Local\Temp\ccYIfAxE.s:21828  .debug_str:0000000000008582 .LASF1120
C:\Users\CYMR90~1\AppData\Local\Temp\ccYIfAxE.s:22040  .debug_str:0000000000009284 .LASF1121
C:\Users\CYMR90~1\AppData\Local\Temp\ccYIfAxE.s:24688  .debug_str:000000000001396f .LASF1122
C:\Users\CYMR90~1\AppData\Local\Temp\ccYIfAxE.s:24326  .debug_str:000000000001216a .LASF1123
C:\Users\CYMR90~1\AppData\Local\Temp\ccYIfAxE.s:23316  .debug_str:000000000000e448 .LASF1124
C:\Users\CYMR90~1\AppData\Local\Temp\ccYIfAxE.s:25148  .debug_str:0000000000015511 .LASF1125
C:\Users\CYMR90~1\AppData\Local\Temp\ccYIfAxE.s:25240  .debug_str:0000000000015a42 .LASF1126
C:\Users\CYMR90~1\AppData\Local\Temp\ccYIfAxE.s:28669  .debug_str:00000000000232e5 .LASF1127
C:\Users\CYMR90~1\AppData\Local\Temp\ccYIfAxE.s:29785  .debug_str:0000000000027ad3 .LASF1128
C:\Users\CYMR90~1\AppData\Local\Temp\ccYIfAxE.s:21146  .debug_str:0000000000005996 .LASF1129
C:\Users\CYMR90~1\AppData\Local\Temp\ccYIfAxE.s:26831  .debug_str:000000000001c16d .LASF1130
C:\Users\CYMR90~1\AppData\Local\Temp\ccYIfAxE.s:30319  .debug_str:0000000000029db6 .LASF1131
C:\Users\CYMR90~1\AppData\Local\Temp\ccYIfAxE.s:30733  .debug_str:000000000002b5f0 .LASF1132
C:\Users\CYMR90~1\AppData\Local\Temp\ccYIfAxE.s:25947  .debug_str:0000000000018651 .LASF1133
C:\Users\CYMR90~1\AppData\Local\Temp\ccYIfAxE.s:28823  .debug_str:0000000000023b68 .LASF1134
C:\Users\CYMR90~1\AppData\Local\Temp\ccYIfAxE.s:21714  .debug_str:0000000000007d1f .LASF1135
C:\Users\CYMR90~1\AppData\Local\Temp\ccYIfAxE.s:20916  .debug_str:0000000000004bc2 .LASF1136
C:\Users\CYMR90~1\AppData\Local\Temp\ccYIfAxE.s:20738  .debug_str:0000000000003f1b .LASF1137
C:\Users\CYMR90~1\AppData\Local\Temp\ccYIfAxE.s:30329  .debug_str:0000000000029e92 .LASF1138
C:\Users\CYMR90~1\AppData\Local\Temp\ccYIfAxE.s:27371  .debug_str:000000000001e4ba .LASF1139
C:\Users\CYMR90~1\AppData\Local\Temp\ccYIfAxE.s:30315  .debug_str:0000000000029d89 .LASF1140
C:\Users\CYMR90~1\AppData\Local\Temp\ccYIfAxE.s:19780  .debug_str:000000000000046e .LASF1141
C:\Users\CYMR90~1\AppData\Local\Temp\ccYIfAxE.s:24356  .debug_str:0000000000012371 .LASF1142
C:\Users\CYMR90~1\AppData\Local\Temp\ccYIfAxE.s:23344  .debug_str:000000000000e5df .LASF1143
C:\Users\CYMR90~1\AppData\Local\Temp\ccYIfAxE.s:29843  .debug_str:0000000000027df2 .LASF1144
C:\Users\CYMR90~1\AppData\Local\Temp\ccYIfAxE.s:27977  .debug_str:0000000000020928 .LASF1145
C:\Users\CYMR90~1\AppData\Local\Temp\ccYIfAxE.s:22858  .debug_str:000000000000c6ee .LASF1146
C:\Users\CYMR90~1\AppData\Local\Temp\ccYIfAxE.s:31165  .debug_str:000000000002d20a .LASF1147
C:\Users\CYMR90~1\AppData\Local\Temp\ccYIfAxE.s:25695  .debug_str:000000000001772a .LASF1148
C:\Users\CYMR90~1\AppData\Local\Temp\ccYIfAxE.s:25957  .debug_str:0000000000018711 .LASF1149
C:\Users\CYMR90~1\AppData\Local\Temp\ccYIfAxE.s:26713  .debug_str:000000000001ba39 .LASF1150
C:\Users\CYMR90~1\AppData\Local\Temp\ccYIfAxE.s:20206  .debug_str:0000000000001e26 .LASF1151
C:\Users\CYMR90~1\AppData\Local\Temp\ccYIfAxE.s:27135  .debug_str:000000000001d5d1 .LASF1152
C:\Users\CYMR90~1\AppData\Local\Temp\ccYIfAxE.s:22164  .debug_str:000000000000999e .LASF1153
C:\Users\CYMR90~1\AppData\Local\Temp\ccYIfAxE.s:28279  .debug_str:0000000000021b68 .LASF1154
C:\Users\CYMR90~1\AppData\Local\Temp\ccYIfAxE.s:30947  .debug_str:000000000002c391 .LASF1155
C:\Users\CYMR90~1\AppData\Local\Temp\ccYIfAxE.s:21034  .debug_str:00000000000052ba .LASF1156
C:\Users\CYMR90~1\AppData\Local\Temp\ccYIfAxE.s:27333  .debug_str:000000000001e278 .LASF1157
C:\Users\CYMR90~1\AppData\Local\Temp\ccYIfAxE.s:22604  .debug_str:000000000000b5e2 .LASF1158
C:\Users\CYMR90~1\AppData\Local\Temp\ccYIfAxE.s:30513  .debug_str:000000000002a912 .LASF1159
C:\Users\CYMR90~1\AppData\Local\Temp\ccYIfAxE.s:20086  .debug_str:0000000000001705 .LASF1160
C:\Users\CYMR90~1\AppData\Local\Temp\ccYIfAxE.s:30595  .debug_str:000000000002adfd .LASF1161
C:\Users\CYMR90~1\AppData\Local\Temp\ccYIfAxE.s:30265  .debug_str:00000000000299f6 .LASF1162
C:\Users\CYMR90~1\AppData\Local\Temp\ccYIfAxE.s:27217  .debug_str:000000000001daf5 .LASF1163
C:\Users\CYMR90~1\AppData\Local\Temp\ccYIfAxE.s:26341  .debug_str:000000000001a0ae .LASF1164
C:\Users\CYMR90~1\AppData\Local\Temp\ccYIfAxE.s:23158  .debug_str:000000000000db42 .LASF1165
C:\Users\CYMR90~1\AppData\Local\Temp\ccYIfAxE.s:27899  .debug_str:0000000000020495 .LASF1166
C:\Users\CYMR90~1\AppData\Local\Temp\ccYIfAxE.s:24066  .debug_str:00000000000110f5 .LASF1167
C:\Users\CYMR90~1\AppData\Local\Temp\ccYIfAxE.s:22162  .debug_str:0000000000009994 .LASF1168
C:\Users\CYMR90~1\AppData\Local\Temp\ccYIfAxE.s:25182  .debug_str:000000000001570e .LASF1169
C:\Users\CYMR90~1\AppData\Local\Temp\ccYIfAxE.s:26553  .debug_str:000000000001af6b .LASF1170
C:\Users\CYMR90~1\AppData\Local\Temp\ccYIfAxE.s:26255  .debug_str:0000000000019b0d .LASF1171
C:\Users\CYMR90~1\AppData\Local\Temp\ccYIfAxE.s:30539  .debug_str:000000000002aa70 .LASF1172
C:\Users\CYMR90~1\AppData\Local\Temp\ccYIfAxE.s:25470  .debug_str:0000000000016867 .LASF1173
C:\Users\CYMR90~1\AppData\Local\Temp\ccYIfAxE.s:19900  .debug_str:0000000000000bbe .LASF1174
C:\Users\CYMR90~1\AppData\Local\Temp\ccYIfAxE.s:20310  .debug_str:00000000000023ce .LASF1175
C:\Users\CYMR90~1\AppData\Local\Temp\ccYIfAxE.s:24658  .debug_str:00000000000136fc .LASF1176
C:\Users\CYMR90~1\AppData\Local\Temp\ccYIfAxE.s:22962  .debug_str:000000000000ceaa .LASF1177
C:\Users\CYMR90~1\AppData\Local\Temp\ccYIfAxE.s:27281  .debug_str:000000000001dee9 .LASF1178
C:\Users\CYMR90~1\AppData\Local\Temp\ccYIfAxE.s:23570  .debug_str:000000000000f31b .LASF1179
C:\Users\CYMR90~1\AppData\Local\Temp\ccYIfAxE.s:23142  .debug_str:000000000000da73 .LASF1180
C:\Users\CYMR90~1\AppData\Local\Temp\ccYIfAxE.s:29033  .debug_str:000000000002491b .LASF1181
C:\Users\CYMR90~1\AppData\Local\Temp\ccYIfAxE.s:21978  .debug_str:0000000000008eba .LASF1182
C:\Users\CYMR90~1\AppData\Local\Temp\ccYIfAxE.s:20482  .debug_str:0000000000002f06 .LASF1183
C:\Users\CYMR90~1\AppData\Local\Temp\ccYIfAxE.s:27607  .debug_str:000000000001f2a8 .LASF1184
C:\Users\CYMR90~1\AppData\Local\Temp\ccYIfAxE.s:28071  .debug_str:0000000000020f19 .LASF1185
C:\Users\CYMR90~1\AppData\Local\Temp\ccYIfAxE.s:29277  .debug_str:000000000002597e .LASF1186
C:\Users\CYMR90~1\AppData\Local\Temp\ccYIfAxE.s:20208  .debug_str:0000000000001e3f .LASF1187
C:\Users\CYMR90~1\AppData\Local\Temp\ccYIfAxE.s:21156  .debug_str:0000000000005a26 .LASF1188
C:\Users\CYMR90~1\AppData\Local\Temp\ccYIfAxE.s:28633  .debug_str:00000000000230e6 .LASF1189
C:\Users\CYMR90~1\AppData\Local\Temp\ccYIfAxE.s:21718  .debug_str:0000000000007d50 .LASF1190
C:\Users\CYMR90~1\AppData\Local\Temp\ccYIfAxE.s:28615  .debug_str:0000000000022f6f .LASF1191
C:\Users\CYMR90~1\AppData\Local\Temp\ccYIfAxE.s:22936  .debug_str:000000000000cc48 .LASF1192
C:\Users\CYMR90~1\AppData\Local\Temp\ccYIfAxE.s:28267  .debug_str:0000000000021ac8 .LASF1193
C:\Users\CYMR90~1\AppData\Local\Temp\ccYIfAxE.s:23194  .debug_str:000000000000dd27 .LASF1194
C:\Users\CYMR90~1\AppData\Local\Temp\ccYIfAxE.s:26809  .debug_str:000000000001bff2 .LASF1195
C:\Users\CYMR90~1\AppData\Local\Temp\ccYIfAxE.s:24152  .debug_str:00000000000115b5 .LASF1196
C:\Users\CYMR90~1\AppData\Local\Temp\ccYIfAxE.s:28301  .debug_str:0000000000021d0a .LASF1197
C:\Users\CYMR90~1\AppData\Local\Temp\ccYIfAxE.s:30537  .debug_str:000000000002aa61 .LASF1198
C:\Users\CYMR90~1\AppData\Local\Temp\ccYIfAxE.s:25496  .debug_str:00000000000169cc .LASF1199
C:\Users\CYMR90~1\AppData\Local\Temp\ccYIfAxE.s:30543  .debug_str:000000000002aa97 .LASF1200
C:\Users\CYMR90~1\AppData\Local\Temp\ccYIfAxE.s:22414  .debug_str:000000000000a988 .LASF1201
C:\Users\CYMR90~1\AppData\Local\Temp\ccYIfAxE.s:22076  .debug_str:0000000000009493 .LASF1202
C:\Users\CYMR90~1\AppData\Local\Temp\ccYIfAxE.s:25683  .debug_str:00000000000176a8 .LASF1203
C:\Users\CYMR90~1\AppData\Local\Temp\ccYIfAxE.s:29615  .debug_str:0000000000026fa5 .LASF1204
C:\Users\CYMR90~1\AppData\Local\Temp\ccYIfAxE.s:24716  .debug_str:0000000000013b2e .LASF1205
C:\Users\CYMR90~1\AppData\Local\Temp\ccYIfAxE.s:23746  .debug_str:000000000000fe3b .LASF1206
C:\Users\CYMR90~1\AppData\Local\Temp\ccYIfAxE.s:22678  .debug_str:000000000000bb4c .LASF1207
C:\Users\CYMR90~1\AppData\Local\Temp\ccYIfAxE.s:29129  .debug_str:0000000000024f44 .LASF1208
C:\Users\CYMR90~1\AppData\Local\Temp\ccYIfAxE.s:23672  .debug_str:000000000000f946 .LASF1209
C:\Users\CYMR90~1\AppData\Local\Temp\ccYIfAxE.s:21046  .debug_str:0000000000005377 .LASF1210
C:\Users\CYMR90~1\AppData\Local\Temp\ccYIfAxE.s:21148  .debug_str:00000000000059ac .LASF1211
C:\Users\CYMR90~1\AppData\Local\Temp\ccYIfAxE.s:21864  .debug_str:00000000000087d9 .LASF1212
C:\Users\CYMR90~1\AppData\Local\Temp\ccYIfAxE.s:21452  .debug_str:0000000000006bbc .LASF1213
C:\Users\CYMR90~1\AppData\Local\Temp\ccYIfAxE.s:20320  .debug_str:000000000000248a .LASF1214
C:\Users\CYMR90~1\AppData\Local\Temp\ccYIfAxE.s:22208  .debug_str:0000000000009cdc .LASF1215
C:\Users\CYMR90~1\AppData\Local\Temp\ccYIfAxE.s:20262  .debug_str:000000000000211b .LASF1216
C:\Users\CYMR90~1\AppData\Local\Temp\ccYIfAxE.s:28729  .debug_str:0000000000023614 .LASF1217
C:\Users\CYMR90~1\AppData\Local\Temp\ccYIfAxE.s:28743  .debug_str:00000000000236c8 .LASF1218
C:\Users\CYMR90~1\AppData\Local\Temp\ccYIfAxE.s:29183  .debug_str:000000000002529f .LASF1219
C:\Users\CYMR90~1\AppData\Local\Temp\ccYIfAxE.s:26697  .debug_str:000000000001b93b .LASF1220
C:\Users\CYMR90~1\AppData\Local\Temp\ccYIfAxE.s:23236  .debug_str:000000000000df60 .LASF1221
C:\Users\CYMR90~1\AppData\Local\Temp\ccYIfAxE.s:24986  .debug_str:0000000000014b5c .LASF1222
C:\Users\CYMR90~1\AppData\Local\Temp\ccYIfAxE.s:20502  .debug_str:0000000000003038 .LASF1223
C:\Users\CYMR90~1\AppData\Local\Temp\ccYIfAxE.s:26435  .debug_str:000000000001a7a3 .LASF1224
C:\Users\CYMR90~1\AppData\Local\Temp\ccYIfAxE.s:29805  .debug_str:0000000000027bfa .LASF1225
C:\Users\CYMR90~1\AppData\Local\Temp\ccYIfAxE.s:22698  .debug_str:000000000000bc60 .LASF1226
C:\Users\CYMR90~1\AppData\Local\Temp\ccYIfAxE.s:21594  .debug_str:000000000000751d .LASF1227
C:\Users\CYMR90~1\AppData\Local\Temp\ccYIfAxE.s:20604  .debug_str:00000000000036c1 .LASF1228
C:\Users\CYMR90~1\AppData\Local\Temp\ccYIfAxE.s:31223  .debug_str:000000000002d623 .LASF1229
C:\Users\CYMR90~1\AppData\Local\Temp\ccYIfAxE.s:30245  .debug_str:00000000000298de .LASF1230
C:\Users\CYMR90~1\AppData\Local\Temp\ccYIfAxE.s:29243  .debug_str:00000000000256a6 .LASF1231
C:\Users\CYMR90~1\AppData\Local\Temp\ccYIfAxE.s:28253  .debug_str:00000000000219fc .LASF1232
C:\Users\CYMR90~1\AppData\Local\Temp\ccYIfAxE.s:28131  .debug_str:0000000000021264 .LASF1233
C:\Users\CYMR90~1\AppData\Local\Temp\ccYIfAxE.s:27153  .debug_str:000000000001d6c9 .LASF1234
C:\Users\CYMR90~1\AppData\Local\Temp\ccYIfAxE.s:26209  .debug_str:000000000001980d .LASF1235
C:\Users\CYMR90~1\AppData\Local\Temp\ccYIfAxE.s:24882  .debug_str:0000000000014525 .LASF1236
C:\Users\CYMR90~1\AppData\Local\Temp\ccYIfAxE.s:24238  .debug_str:0000000000011bc4 .LASF1237
C:\Users\CYMR90~1\AppData\Local\Temp\ccYIfAxE.s:23262  .debug_str:000000000000e0db .LASF1238
C:\Users\CYMR90~1\AppData\Local\Temp\ccYIfAxE.s:22282  .debug_str:000000000000a121 .LASF1239
C:\Users\CYMR90~1\AppData\Local\Temp\ccYIfAxE.s:21262  .debug_str:000000000000604f .LASF1240
C:\Users\CYMR90~1\AppData\Local\Temp\ccYIfAxE.s:20278  .debug_str:000000000000220d .LASF1241
C:\Users\CYMR90~1\AppData\Local\Temp\ccYIfAxE.s:30933  .debug_str:000000000002c2c4 .LASF1242
C:\Users\CYMR90~1\AppData\Local\Temp\ccYIfAxE.s:19794  .debug_str:0000000000000522 .LASF1243
C:\Users\CYMR90~1\AppData\Local\Temp\ccYIfAxE.s:30399  .debug_str:000000000002a28e .LASF1244
C:\Users\CYMR90~1\AppData\Local\Temp\ccYIfAxE.s:29393  .debug_str:00000000000261e8 .LASF1245
C:\Users\CYMR90~1\AppData\Local\Temp\ccYIfAxE.s:28419  .debug_str:00000000000223ec .LASF1246
C:\Users\CYMR90~1\AppData\Local\Temp\ccYIfAxE.s:27409  .debug_str:000000000001e6e8 .LASF1247
C:\Users\CYMR90~1\AppData\Local\Temp\ccYIfAxE.s:26495  .debug_str:000000000001ab7a .LASF1248
C:\Users\CYMR90~1\AppData\Local\Temp\ccYIfAxE.s:25540  .debug_str:0000000000016cca .LASF1249
C:\Users\CYMR90~1\AppData\Local\Temp\ccYIfAxE.s:25699  .debug_str:000000000001777a .LASF1250
C:\Users\CYMR90~1\AppData\Local\Temp\ccYIfAxE.s:23576  .debug_str:000000000000f360 .LASF1251
C:\Users\CYMR90~1\AppData\Local\Temp\ccYIfAxE.s:25801  .debug_str:0000000000017ddb .LASF1252
C:\Users\CYMR90~1\AppData\Local\Temp\ccYIfAxE.s:23078  .debug_str:000000000000d5bd .LASF1253
C:\Users\CYMR90~1\AppData\Local\Temp\ccYIfAxE.s:22090  .debug_str:0000000000009562 .LASF1254
C:\Users\CYMR90~1\AppData\Local\Temp\ccYIfAxE.s:20044  .debug_str:00000000000014a8 .LASF1255
C:\Users\CYMR90~1\AppData\Local\Temp\ccYIfAxE.s:22994  .debug_str:000000000000d062 .LASF1256
C:\Users\CYMR90~1\AppData\Local\Temp\ccYIfAxE.s:21212  .debug_str:0000000000005dc0 .LASF1257
C:\Users\CYMR90~1\AppData\Local\Temp\ccYIfAxE.s:26079  .debug_str:0000000000018f42 .LASF1258
C:\Users\CYMR90~1\AppData\Local\Temp\ccYIfAxE.s:26081  .debug_str:0000000000018f55 .LASF1259
C:\Users\CYMR90~1\AppData\Local\Temp\ccYIfAxE.s:28619  .debug_str:0000000000022f9f .LASF1260
C:\Users\CYMR90~1\AppData\Local\Temp\ccYIfAxE.s:26691  .debug_str:000000000001b8f4 .LASF1261
C:\Users\CYMR90~1\AppData\Local\Temp\ccYIfAxE.s:24036  .debug_str:0000000000010f8d .LASF1262
C:\Users\CYMR90~1\AppData\Local\Temp\ccYIfAxE.s:21102  .debug_str:00000000000056eb .LASF1263
C:\Users\CYMR90~1\AppData\Local\Temp\ccYIfAxE.s:23320  .debug_str:000000000000e47a .LASF1264
C:\Users\CYMR90~1\AppData\Local\Temp\ccYIfAxE.s:25564  .debug_str:0000000000016e64 .LASF1265
C:\Users\CYMR90~1\AppData\Local\Temp\ccYIfAxE.s:23368  .debug_str:000000000000e734 .LASF1266
C:\Users\CYMR90~1\AppData\Local\Temp\ccYIfAxE.s:28645  .debug_str:00000000000231a2 .LASF1267
C:\Users\CYMR90~1\AppData\Local\Temp\ccYIfAxE.s:28817  .debug_str:0000000000023b1e .LASF1268
C:\Users\CYMR90~1\AppData\Local\Temp\ccYIfAxE.s:24172  .debug_str:00000000000116f3 .LASF1269
C:\Users\CYMR90~1\AppData\Local\Temp\ccYIfAxE.s:20816  .debug_str:000000000000449e .LASF1270
C:\Users\CYMR90~1\AppData\Local\Temp\ccYIfAxE.s:25803  .debug_str:0000000000017df2 .LASF1271
C:\Users\CYMR90~1\AppData\Local\Temp\ccYIfAxE.s:30355  .debug_str:000000000002a022 .LASF1272
C:\Users\CYMR90~1\AppData\Local\Temp\ccYIfAxE.s:20552  .debug_str:0000000000003371 .LASF1273
C:\Users\CYMR90~1\AppData\Local\Temp\ccYIfAxE.s:19858  .debug_str:00000000000008d7 .LASF1274
C:\Users\CYMR90~1\AppData\Local\Temp\ccYIfAxE.s:26091  .debug_str:0000000000018ffe .LASF1275
C:\Users\CYMR90~1\AppData\Local\Temp\ccYIfAxE.s:19972  .debug_str:0000000000001066 .LASF1276
C:\Users\CYMR90~1\AppData\Local\Temp\ccYIfAxE.s:22304  .debug_str:000000000000a2b1 .LASF1277
C:\Users\CYMR90~1\AppData\Local\Temp\ccYIfAxE.s:21282  .debug_str:0000000000006172 .LASF1278
C:\Users\CYMR90~1\AppData\Local\Temp\ccYIfAxE.s:20308  .debug_str:00000000000023bc .LASF1279
C:\Users\CYMR90~1\AppData\Local\Temp\ccYIfAxE.s:30951  .debug_str:000000000002c3cc .LASF1280
C:\Users\CYMR90~1\AppData\Local\Temp\ccYIfAxE.s:21170  .debug_str:0000000000005b10 .LASF1281
C:\Users\CYMR90~1\AppData\Local\Temp\ccYIfAxE.s:20192  .debug_str:0000000000001d78 .LASF1282
C:\Users\CYMR90~1\AppData\Local\Temp\ccYIfAxE.s:27453  .debug_str:000000000001e97e .LASF1283
C:\Users\CYMR90~1\AppData\Local\Temp\ccYIfAxE.s:29839  .debug_str:0000000000027db9 .LASF1284
C:\Users\CYMR90~1\AppData\Local\Temp\ccYIfAxE.s:28843  .debug_str:0000000000023d03 .LASF1285
C:\Users\CYMR90~1\AppData\Local\Temp\ccYIfAxE.s:27845  .debug_str:000000000002010c .LASF1286
C:\Users\CYMR90~1\AppData\Local\Temp\ccYIfAxE.s:26875  .debug_str:000000000001c40a .LASF1287
C:\Users\CYMR90~1\AppData\Local\Temp\ccYIfAxE.s:25909  .debug_str:000000000001842f .LASF1288
C:\Users\CYMR90~1\AppData\Local\Temp\ccYIfAxE.s:24926  .debug_str:000000000001479b .LASF1289
C:\Users\CYMR90~1\AppData\Local\Temp\ccYIfAxE.s:23964  .debug_str:0000000000010a52 .LASF1290
C:\Users\CYMR90~1\AppData\Local\Temp\ccYIfAxE.s:28367  .debug_str:00000000000220ce .LASF1291
C:\Users\CYMR90~1\AppData\Local\Temp\ccYIfAxE.s:27357  .debug_str:000000000001e40c .LASF1292
C:\Users\CYMR90~1\AppData\Local\Temp\ccYIfAxE.s:26433  .debug_str:000000000001a78f .LASF1293
C:\Users\CYMR90~1\AppData\Local\Temp\ccYIfAxE.s:25424  .debug_str:00000000000165f0 .LASF1294
C:\Users\CYMR90~1\AppData\Local\Temp\ccYIfAxE.s:24470  .debug_str:0000000000012a8b .LASF1295
C:\Users\CYMR90~1\AppData\Local\Temp\ccYIfAxE.s:23470  .debug_str:000000000000edc1 .LASF1296
C:\Users\CYMR90~1\AppData\Local\Temp\ccYIfAxE.s:22834  .debug_str:000000000000c593 .LASF1297
C:\Users\CYMR90~1\AppData\Local\Temp\ccYIfAxE.s:27813  .debug_str:000000000001ff11 .LASF1298
C:\Users\CYMR90~1\AppData\Local\Temp\ccYIfAxE.s:26849  .debug_str:000000000001c28b .LASF1299
C:\Users\CYMR90~1\AppData\Local\Temp\ccYIfAxE.s:25877  .debug_str:000000000001822b .LASF1300
C:\Users\CYMR90~1\AppData\Local\Temp\ccYIfAxE.s:26819  .debug_str:000000000001c09f .LASF1301
C:\Users\CYMR90~1\AppData\Local\Temp\ccYIfAxE.s:26857  .debug_str:000000000001c2f6 .LASF1302
C:\Users\CYMR90~1\AppData\Local\Temp\ccYIfAxE.s:25468  .debug_str:0000000000016854 .LASF1303
C:\Users\CYMR90~1\AppData\Local\Temp\ccYIfAxE.s:26351  .debug_str:000000000001a152 .LASF1304
C:\Users\CYMR90~1\AppData\Local\Temp\ccYIfAxE.s:26323  .debug_str:0000000000019fbe .LASF1305
C:\Users\CYMR90~1\AppData\Local\Temp\ccYIfAxE.s:21982  .debug_str:0000000000008eee .LASF1306
C:\Users\CYMR90~1\AppData\Local\Temp\ccYIfAxE.s:20948  .debug_str:0000000000004dbf .LASF1307
C:\Users\CYMR90~1\AppData\Local\Temp\ccYIfAxE.s:19984  .debug_str:00000000000010fc .LASF1308
C:\Users\CYMR90~1\AppData\Local\Temp\ccYIfAxE.s:30611  .debug_str:000000000002aefc .LASF1309
C:\Users\CYMR90~1\AppData\Local\Temp\ccYIfAxE.s:29611  .debug_str:0000000000026f6a .LASF1310
C:\Users\CYMR90~1\AppData\Local\Temp\ccYIfAxE.s:28621  .debug_str:0000000000022fb0 .LASF1311
C:\Users\CYMR90~1\AppData\Local\Temp\ccYIfAxE.s:24790  .debug_str:0000000000013f79 .LASF1312
C:\Users\CYMR90~1\AppData\Local\Temp\ccYIfAxE.s:23332  .debug_str:000000000000e517 .LASF1313
C:\Users\CYMR90~1\AppData\Local\Temp\ccYIfAxE.s:24630  .debug_str:00000000000134db .LASF1314
C:\Users\CYMR90~1\AppData\Local\Temp\ccYIfAxE.s:30833  .debug_str:000000000002bc20 .LASF1315
C:\Users\CYMR90~1\AppData\Local\Temp\ccYIfAxE.s:29321  .debug_str:0000000000025cce .LASF1316
C:\Users\CYMR90~1\AppData\Local\Temp\ccYIfAxE.s:28833  .debug_str:0000000000023c38 .LASF1317
C:\Users\CYMR90~1\AppData\Local\Temp\ccYIfAxE.s:27839  .debug_str:00000000000200c5 .LASF1318
C:\Users\CYMR90~1\AppData\Local\Temp\ccYIfAxE.s:26885  .debug_str:000000000001c4b4 .LASF1319
C:\Users\CYMR90~1\AppData\Local\Temp\ccYIfAxE.s:25919  .debug_str:00000000000184c5 .LASF1320
C:\Users\CYMR90~1\AppData\Local\Temp\ccYIfAxE.s:24936  .debug_str:0000000000014811 .LASF1321
C:\Users\CYMR90~1\AppData\Local\Temp\ccYIfAxE.s:23970  .debug_str:0000000000010aad .LASF1322
C:\Users\CYMR90~1\AppData\Local\Temp\ccYIfAxE.s:24444  .debug_str:00000000000128c8 .LASF1323
C:\Users\CYMR90~1\AppData\Local\Temp\ccYIfAxE.s:22838  .debug_str:000000000000c5b5 .LASF1324
C:\Users\CYMR90~1\AppData\Local\Temp\ccYIfAxE.s:22464  .debug_str:000000000000acae .LASF1325
C:\Users\CYMR90~1\AppData\Local\Temp\ccYIfAxE.s:21460  .debug_str:0000000000006c58 .LASF1326
C:\Users\CYMR90~1\AppData\Local\Temp\ccYIfAxE.s:20460  .debug_str:0000000000002db6 .LASF1327
C:\Users\CYMR90~1\AppData\Local\Temp\ccYIfAxE.s:31105  .debug_str:000000000002ce1d .LASF1328
C:\Users\CYMR90~1\AppData\Local\Temp\ccYIfAxE.s:30165  .debug_str:0000000000029419 .LASF1329
C:\Users\CYMR90~1\AppData\Local\Temp\ccYIfAxE.s:29163  .debug_str:000000000002513f .LASF1330
C:\Users\CYMR90~1\AppData\Local\Temp\ccYIfAxE.s:28171  .debug_str:0000000000021480 .LASF1331
C:\Users\CYMR90~1\AppData\Local\Temp\ccYIfAxE.s:27189  .debug_str:000000000001d902 .LASF1332
C:\Users\CYMR90~1\AppData\Local\Temp\ccYIfAxE.s:27629  .debug_str:000000000001f442 .LASF1333
C:\Users\CYMR90~1\AppData\Local\Temp\ccYIfAxE.s:26705  .debug_str:000000000001b9b7 .LASF1334
C:\Users\CYMR90~1\AppData\Local\Temp\ccYIfAxE.s:25384  .debug_str:0000000000016373 .LASF1335
C:\Users\CYMR90~1\AppData\Local\Temp\ccYIfAxE.s:22990  .debug_str:000000000000d037 .LASF1336
C:\Users\CYMR90~1\AppData\Local\Temp\ccYIfAxE.s:27855  .debug_str:0000000000020188 .LASF1337
C:\Users\CYMR90~1\AppData\Local\Temp\ccYIfAxE.s:24324  .debug_str:0000000000012155 .LASF1338
C:\Users\CYMR90~1\AppData\Local\Temp\ccYIfAxE.s:20090  .debug_str:000000000000173d .LASF1339
C:\Users\CYMR90~1\AppData\Local\Temp\ccYIfAxE.s:22252  .debug_str:0000000000009f71 .LASF1340
C:\Users\CYMR90~1\AppData\Local\Temp\ccYIfAxE.s:21232  .debug_str:0000000000005ec0 .LASF1341
C:\Users\CYMR90~1\AppData\Local\Temp\ccYIfAxE.s:20248  .debug_str:0000000000002064 .LASF1342
C:\Users\CYMR90~1\AppData\Local\Temp\ccYIfAxE.s:30911  .debug_str:000000000002c133 .LASF1343
C:\Users\CYMR90~1\AppData\Local\Temp\ccYIfAxE.s:30699  .debug_str:000000000002b3ef .LASF1344
C:\Users\CYMR90~1\AppData\Local\Temp\ccYIfAxE.s:29695  .debug_str:0000000000027496 .LASF1345
C:\Users\CYMR90~1\AppData\Local\Temp\ccYIfAxE.s:28709  .debug_str:0000000000023522 .LASF1346
C:\Users\CYMR90~1\AppData\Local\Temp\ccYIfAxE.s:30119  .debug_str:0000000000029176 .LASF1347
C:\Users\CYMR90~1\AppData\Local\Temp\ccYIfAxE.s:26755  .debug_str:000000000001bcd7 .LASF1348
C:\Users\CYMR90~1\AppData\Local\Temp\ccYIfAxE.s:27273  .debug_str:000000000001de68 .LASF1349
C:\Users\CYMR90~1\AppData\Local\Temp\ccYIfAxE.s:24802  .debug_str:0000000000014036 .LASF1350
C:\Users\CYMR90~1\AppData\Local\Temp\ccYIfAxE.s:28003  .debug_str:0000000000020b20 .LASF1351
C:\Users\CYMR90~1\AppData\Local\Temp\ccYIfAxE.s:22854  .debug_str:000000000000c6c3 .LASF1352
C:\Users\CYMR90~1\AppData\Local\Temp\ccYIfAxE.s:20226  .debug_str:0000000000001f36 .LASF1353
C:\Users\CYMR90~1\AppData\Local\Temp\ccYIfAxE.s:22336  .debug_str:000000000000a4ba .LASF1354
C:\Users\CYMR90~1\AppData\Local\Temp\ccYIfAxE.s:21314  .debug_str:0000000000006390 .LASF1355
C:\Users\CYMR90~1\AppData\Local\Temp\ccYIfAxE.s:20332  .debug_str:0000000000002534 .LASF1356
C:\Users\CYMR90~1\AppData\Local\Temp\ccYIfAxE.s:30981  .debug_str:000000000002c5e7 .LASF1357
C:\Users\CYMR90~1\AppData\Local\Temp\ccYIfAxE.s:24894  .debug_str:00000000000145ed .LASF1358
C:\Users\CYMR90~1\AppData\Local\Temp\ccYIfAxE.s:21454  .debug_str:0000000000006c00 .LASF1359
C:\Users\CYMR90~1\AppData\Local\Temp\ccYIfAxE.s:28049  .debug_str:0000000000020dcf .LASF1360
C:\Users\CYMR90~1\AppData\Local\Temp\ccYIfAxE.s:26983  .debug_str:000000000001ca60 .LASF1361
C:\Users\CYMR90~1\AppData\Local\Temp\ccYIfAxE.s:26021  .debug_str:0000000000018ae7 .LASF1362
C:\Users\CYMR90~1\AppData\Local\Temp\ccYIfAxE.s:30131  .debug_str:0000000000029230 .LASF1363
C:\Users\CYMR90~1\AppData\Local\Temp\ccYIfAxE.s:25306  .debug_str:0000000000015e03 .LASF1364
C:\Users\CYMR90~1\AppData\Local\Temp\ccYIfAxE.s:21882  .debug_str:00000000000088cf .LASF1365
C:\Users\CYMR90~1\AppData\Local\Temp\ccYIfAxE.s:29725  .debug_str:0000000000027661 .LASF1366
C:\Users\CYMR90~1\AppData\Local\Temp\ccYIfAxE.s:22972  .debug_str:000000000000cf2c .LASF1367
C:\Users\CYMR90~1\AppData\Local\Temp\ccYIfAxE.s:27941  .debug_str:00000000000206dd .LASF1368
C:\Users\CYMR90~1\AppData\Local\Temp\ccYIfAxE.s:26183  .debug_str:0000000000019631 .LASF1369
C:\Users\CYMR90~1\AppData\Local\Temp\ccYIfAxE.s:30871  .debug_str:000000000002be74 .LASF1370
C:\Users\CYMR90~1\AppData\Local\Temp\ccYIfAxE.s:27199  .debug_str:000000000001d98d .LASF1371
C:\Users\CYMR90~1\AppData\Local\Temp\ccYIfAxE.s:20378  .debug_str:0000000000002863 .LASF1372
C:\Users\CYMR90~1\AppData\Local\Temp\ccYIfAxE.s:23036  .debug_str:000000000000d2fa .LASF1373
C:\Users\CYMR90~1\AppData\Local\Temp\ccYIfAxE.s:26231  .debug_str:0000000000019931 .LASF1374
C:\Users\CYMR90~1\AppData\Local\Temp\ccYIfAxE.s:30999  .debug_str:000000000002c759 .LASF1375
C:\Users\CYMR90~1\AppData\Local\Temp\ccYIfAxE.s:20976  .debug_str:0000000000004f73 .LASF1376
C:\Users\CYMR90~1\AppData\Local\Temp\ccYIfAxE.s:24224  .debug_str:0000000000011a47 .LASF1377
C:\Users\CYMR90~1\AppData\Local\Temp\ccYIfAxE.s:27365  .debug_str:000000000001e46a .LASF1378
C:\Users\CYMR90~1\AppData\Local\Temp\ccYIfAxE.s:30607  .debug_str:000000000002aebf .LASF1379
C:\Users\CYMR90~1\AppData\Local\Temp\ccYIfAxE.s:30575  .debug_str:000000000002acb4 .LASF1380
C:\Users\CYMR90~1\AppData\Local\Temp\ccYIfAxE.s:22102  .debug_str:0000000000009612 .LASF1381
C:\Users\CYMR90~1\AppData\Local\Temp\ccYIfAxE.s:25276  .debug_str:0000000000015c56 .LASF1382
C:\Users\CYMR90~1\AppData\Local\Temp\ccYIfAxE.s:28465  .debug_str:00000000000226af .LASF1383
C:\Users\CYMR90~1\AppData\Local\Temp\ccYIfAxE.s:20062  .debug_str:0000000000001588 .LASF1384
C:\Users\CYMR90~1\AppData\Local\Temp\ccYIfAxE.s:23304  .debug_str:000000000000e3a1 .LASF1385
C:\Users\CYMR90~1\AppData\Local\Temp\ccYIfAxE.s:26531  .debug_str:000000000001adf1 .LASF1386
C:\Users\CYMR90~1\AppData\Local\Temp\ccYIfAxE.s:29685  .debug_str:00000000000273d5 .LASF1387
C:\Users\CYMR90~1\AppData\Local\Temp\ccYIfAxE.s:21268  .debug_str:00000000000060a2 .LASF1388
C:\Users\CYMR90~1\AppData\Local\Temp\ccYIfAxE.s:24428  .debug_str:00000000000127ba .LASF1389
C:\Users\CYMR90~1\AppData\Local\Temp\ccYIfAxE.s:23752  .debug_str:000000000000fe81 .LASF1390
C:\Users\CYMR90~1\AppData\Local\Temp\ccYIfAxE.s:26829  .debug_str:000000000001c155 .LASF1391
C:\Users\CYMR90~1\AppData\Local\Temp\ccYIfAxE.s:30035  .debug_str:0000000000028bae .LASF1392
C:\Users\CYMR90~1\AppData\Local\Temp\ccYIfAxE.s:21636  .debug_str:00000000000077f5 .LASF1393
C:\Users\CYMR90~1\AppData\Local\Temp\ccYIfAxE.s:24832  .debug_str:00000000000141d3 .LASF1394
C:\Users\CYMR90~1\AppData\Local\Temp\ccYIfAxE.s:28017  .debug_str:0000000000020bfe .LASF1395
C:\Users\CYMR90~1\AppData\Local\Temp\ccYIfAxE.s:31283  .debug_str:000000000002d994 .LASF1396
C:\Users\CYMR90~1\AppData\Local\Temp\ccYIfAxE.s:22910  .debug_str:000000000000ca15 .LASF1397
C:\Users\CYMR90~1\AppData\Local\Temp\ccYIfAxE.s:27581  .debug_str:000000000001f120 .LASF1398
C:\Users\CYMR90~1\AppData\Local\Temp\ccYIfAxE.s:24124  .debug_str:000000000001141e .LASF1399
C:\Users\CYMR90~1\AppData\Local\Temp\ccYIfAxE.s:25450  .debug_str:0000000000016765 .LASF1400
C:\Users\CYMR90~1\AppData\Local\Temp\ccYIfAxE.s:20016  .debug_str:00000000000012e8 .LASF1401
C:\Users\CYMR90~1\AppData\Local\Temp\ccYIfAxE.s:27921  .debug_str:00000000000205dd .LASF1402
C:\Users\CYMR90~1\AppData\Local\Temp\ccYIfAxE.s:22736  .debug_str:000000000000beec .LASF1403
C:\Users\CYMR90~1\AppData\Local\Temp\ccYIfAxE.s:27679  .debug_str:000000000001f75f .LASF1404
C:\Users\CYMR90~1\AppData\Local\Temp\ccYIfAxE.s:20752  .debug_str:000000000000406e .LASF1405
C:\Users\CYMR90~1\AppData\Local\Temp\ccYIfAxE.s:22454  .debug_str:000000000000ac11 .LASF1406
C:\Users\CYMR90~1\AppData\Local\Temp\ccYIfAxE.s:28667  .debug_str:00000000000232cd .LASF1407
C:\Users\CYMR90~1\AppData\Local\Temp\ccYIfAxE.s:28821  .debug_str:0000000000023b50 .LASF1408
C:\Users\CYMR90~1\AppData\Local\Temp\ccYIfAxE.s:20412  .debug_str:0000000000002a98 .LASF1409
C:\Users\CYMR90~1\AppData\Local\Temp\ccYIfAxE.s:23654  .debug_str:000000000000f832 .LASF1410
C:\Users\CYMR90~1\AppData\Local\Temp\ccYIfAxE.s:30263  .debug_str:00000000000299dd .LASF1411
C:\Users\CYMR90~1\AppData\Local\Temp\ccYIfAxE.s:21870  .debug_str:000000000000882e .LASF1412
C:\Users\CYMR90~1\AppData\Local\Temp\ccYIfAxE.s:25058  .debug_str:0000000000014f96 .LASF1413
C:\Users\CYMR90~1\AppData\Local\Temp\ccYIfAxE.s:28233  .debug_str:00000000000218c9 .LASF1414
C:\Users\CYMR90~1\AppData\Local\Temp\ccYIfAxE.s:19860  .debug_str:00000000000008ea .LASF1415
C:\Users\CYMR90~1\AppData\Local\Temp\ccYIfAxE.s:23000  .debug_str:000000000000d09f .LASF1416
C:\Users\CYMR90~1\AppData\Local\Temp\ccYIfAxE.s:26207  .debug_str:00000000000197f4 .LASF1417
C:\Users\CYMR90~1\AppData\Local\Temp\ccYIfAxE.s:29363  .debug_str:0000000000026007 .LASF1418
C:\Users\CYMR90~1\AppData\Local\Temp\ccYIfAxE.s:20956  .debug_str:0000000000004e29 .LASF1419
C:\Users\CYMR90~1\AppData\Local\Temp\ccYIfAxE.s:24110  .debug_str:000000000001133f .LASF1420
C:\Users\CYMR90~1\AppData\Local\Temp\ccYIfAxE.s:23426  .debug_str:000000000000eb02 .LASF1421
C:\Users\CYMR90~1\AppData\Local\Temp\ccYIfAxE.s:26641  .debug_str:000000000001b55c .LASF1422
C:\Users\CYMR90~1\AppData\Local\Temp\ccYIfAxE.s:29803  .debug_str:0000000000027be1 .LASF1423
C:\Users\CYMR90~1\AppData\Local\Temp\ccYIfAxE.s:21404  .debug_str:00000000000068cc .LASF1424
C:\Users\CYMR90~1\AppData\Local\Temp\ccYIfAxE.s:24634  .debug_str:0000000000013509 .LASF1425
C:\Users\CYMR90~1\AppData\Local\Temp\ccYIfAxE.s:27671  .debug_str:000000000001f6c6 .LASF1426
C:\Users\CYMR90~1\AppData\Local\Temp\ccYIfAxE.s:30991  .debug_str:000000000002c6df .LASF1427
C:\Users\CYMR90~1\AppData\Local\Temp\ccYIfAxE.s:22602  .debug_str:000000000000b5c9 .LASF1428
C:\Users\CYMR90~1\AppData\Local\Temp\ccYIfAxE.s:25779  .debug_str:0000000000017ca2 .LASF1429
C:\Users\CYMR90~1\AppData\Local\Temp\ccYIfAxE.s:28959  .debug_str:0000000000024378 .LASF1430
C:\Users\CYMR90~1\AppData\Local\Temp\ccYIfAxE.s:27681  .debug_str:000000000001f777 .LASF1431
C:\Users\CYMR90~1\AppData\Local\Temp\ccYIfAxE.s:19820  .debug_str:0000000000000694 .LASF1432
C:\Users\CYMR90~1\AppData\Local\Temp\ccYIfAxE.s:28911  .debug_str:00000000000240b1 .LASF1433
C:\Users\CYMR90~1\AppData\Local\Temp\ccYIfAxE.s:27925  .debug_str:0000000000020607 .LASF1434
C:\Users\CYMR90~1\AppData\Local\Temp\ccYIfAxE.s:26947  .debug_str:000000000001c825 .LASF1435
C:\Users\CYMR90~1\AppData\Local\Temp\ccYIfAxE.s:25987  .debug_str:00000000000188cd .LASF1436
C:\Users\CYMR90~1\AppData\Local\Temp\ccYIfAxE.s:25408  .debug_str:0000000000016509 .LASF1437
C:\Users\CYMR90~1\AppData\Local\Temp\ccYIfAxE.s:29837  .debug_str:0000000000027da5 .LASF1438
C:\Users\CYMR90~1\AppData\Local\Temp\ccYIfAxE.s:28841  .debug_str:0000000000023cef .LASF1439
C:\Users\CYMR90~1\AppData\Local\Temp\ccYIfAxE.s:27843  .debug_str:00000000000200f8 .LASF1440
C:\Users\CYMR90~1\AppData\Local\Temp\ccYIfAxE.s:26873  .debug_str:000000000001c3f6 .LASF1441
C:\Users\CYMR90~1\AppData\Local\Temp\ccYIfAxE.s:25907  .debug_str:000000000001841b .LASF1442
C:\Users\CYMR90~1\AppData\Local\Temp\ccYIfAxE.s:24924  .debug_str:0000000000014787 .LASF1443
C:\Users\CYMR90~1\AppData\Local\Temp\ccYIfAxE.s:23962  .debug_str:0000000000010a3e .LASF1444
C:\Users\CYMR90~1\AppData\Local\Temp\ccYIfAxE.s:27283  .debug_str:000000000001def6 .LASF1445
C:\Users\CYMR90~1\AppData\Local\Temp\ccYIfAxE.s:21990  .debug_str:0000000000008f5c .LASF1446
C:\Users\CYMR90~1\AppData\Local\Temp\ccYIfAxE.s:23560  .debug_str:000000000000f282 .LASF1447
C:\Users\CYMR90~1\AppData\Local\Temp\ccYIfAxE.s:29199  .debug_str:0000000000025398 .LASF1448
C:\Users\CYMR90~1\AppData\Local\Temp\ccYIfAxE.s:28209  .debug_str:00000000000216b9 .LASF1449
C:\Users\CYMR90~1\AppData\Local\Temp\ccYIfAxE.s:27209  .debug_str:000000000001da8c .LASF1450
C:\Users\CYMR90~1\AppData\Local\Temp\ccYIfAxE.s:26277  .debug_str:0000000000019ce8 .LASF1451
C:\Users\CYMR90~1\AppData\Local\Temp\ccYIfAxE.s:25274  .debug_str:0000000000015c41 .LASF1452
C:\Users\CYMR90~1\AppData\Local\Temp\ccYIfAxE.s:22600  .debug_str:000000000000b5b6 .LASF1453
C:\Users\CYMR90~1\AppData\Local\Temp\ccYIfAxE.s:24982  .debug_str:0000000000014b29 .LASF1454
C:\Users\CYMR90~1\AppData\Local\Temp\ccYIfAxE.s:22394  .debug_str:000000000000a877 .LASF1455
C:\Users\CYMR90~1\AppData\Local\Temp\ccYIfAxE.s:27585  .debug_str:000000000001f162 .LASF1456
C:\Users\CYMR90~1\AppData\Local\Temp\ccYIfAxE.s:29253  .debug_str:0000000000025744 .LASF1457
C:\Users\CYMR90~1\AppData\Local\Temp\ccYIfAxE.s:21140  .debug_str:0000000000005953 .LASF1458
C:\Users\CYMR90~1\AppData\Local\Temp\ccYIfAxE.s:27665  .debug_str:000000000001f678 .LASF1459
C:\Users\CYMR90~1\AppData\Local\Temp\ccYIfAxE.s:24448  .debug_str:0000000000012909 .LASF1460
C:\Users\CYMR90~1\AppData\Local\Temp\ccYIfAxE.s:22504  .debug_str:000000000000af1c .LASF1461
C:\Users\CYMR90~1\AppData\Local\Temp\ccYIfAxE.s:23710  .debug_str:000000000000fc41 .LASF1462
C:\Users\CYMR90~1\AppData\Local\Temp\ccYIfAxE.s:24230  .debug_str:0000000000011b22 .LASF1463
C:\Users\CYMR90~1\AppData\Local\Temp\ccYIfAxE.s:25334  .debug_str:0000000000015fd7 .LASF1464
C:\Users\CYMR90~1\AppData\Local\Temp\ccYIfAxE.s:30723  .debug_str:000000000002b568 .LASF1465
C:\Users\CYMR90~1\AppData\Local\Temp\ccYIfAxE.s:26543  .debug_str:000000000001aee1 .LASF1466
C:\Users\CYMR90~1\AppData\Local\Temp\ccYIfAxE.s:24928  .debug_str:00000000000147ae .LASF1467
C:\Users\CYMR90~1\AppData\Local\Temp\ccYIfAxE.s:29715  .debug_str:00000000000275d2 .LASF1468
C:\Users\CYMR90~1\AppData\Local\Temp\ccYIfAxE.s:23904  .debug_str:00000000000106b3 .LASF1469
C:\Users\CYMR90~1\AppData\Local\Temp\ccYIfAxE.s:20902  .debug_str:0000000000004ae3 .LASF1470
C:\Users\CYMR90~1\AppData\Local\Temp\ccYIfAxE.s:24202  .debug_str:00000000000118f5 .LASF1471
C:\Users\CYMR90~1\AppData\Local\Temp\ccYIfAxE.s:25805  .debug_str:0000000000017e05 .LASF1472
C:\Users\CYMR90~1\AppData\Local\Temp\ccYIfAxE.s:29153  .debug_str:000000000002509d .LASF1473
C:\Users\CYMR90~1\AppData\Local\Temp\ccYIfAxE.s:29809  .debug_str:0000000000027c26 .LASF1474
C:\Users\CYMR90~1\AppData\Local\Temp\ccYIfAxE.s:19912  .debug_str:0000000000000c6a .LASF1475
C:\Users\CYMR90~1\AppData\Local\Temp\ccYIfAxE.s:21872  .debug_str:0000000000008847 .LASF1476
C:\Users\CYMR90~1\AppData\Local\Temp\ccYIfAxE.s:20438  .debug_str:0000000000002c4b .LASF1477
C:\Users\CYMR90~1\AppData\Local\Temp\ccYIfAxE.s:30001  .debug_str:00000000000288f3 .LASF1478
C:\Users\CYMR90~1\AppData\Local\Temp\ccYIfAxE.s:28993  .debug_str:000000000002462e .LASF1479
C:\Users\CYMR90~1\AppData\Local\Temp\ccYIfAxE.s:20570  .debug_str:0000000000003496 .LASF1480
C:\Users\CYMR90~1\AppData\Local\Temp\ccYIfAxE.s:22862  .debug_str:000000000000c71f .LASF1481
C:\Users\CYMR90~1\AppData\Local\Temp\ccYIfAxE.s:29121  .debug_str:0000000000024edb .LASF1482
C:\Users\CYMR90~1\AppData\Local\Temp\ccYIfAxE.s:22184  .debug_str:0000000000009b43 .LASF1483
C:\Users\CYMR90~1\AppData\Local\Temp\ccYIfAxE.s:20962  .debug_str:0000000000004e8e .LASF1484
C:\Users\CYMR90~1\AppData\Local\Temp\ccYIfAxE.s:23436  .debug_str:000000000000eb9c .LASF1485
C:\Users\CYMR90~1\AppData\Local\Temp\ccYIfAxE.s:24892  .debug_str:00000000000145da .LASF1486
C:\Users\CYMR90~1\AppData\Local\Temp\ccYIfAxE.s:26527  .debug_str:000000000001ad9b .LASF1487
C:\Users\CYMR90~1\AppData\Local\Temp\ccYIfAxE.s:19736  .debug_str:000000000000021e .LASF1488
C:\Users\CYMR90~1\AppData\Local\Temp\ccYIfAxE.s:25292  .debug_str:0000000000015d3e .LASF1489
C:\Users\CYMR90~1\AppData\Local\Temp\ccYIfAxE.s:23242  .debug_str:000000000000df9e .LASF1490
C:\Users\CYMR90~1\AppData\Local\Temp\ccYIfAxE.s:30227  .debug_str:00000000000297d6 .LASF1491
C:\Users\CYMR90~1\AppData\Local\Temp\ccYIfAxE.s:20404  .debug_str:0000000000002a19 .LASF1492
C:\Users\CYMR90~1\AppData\Local\Temp\ccYIfAxE.s:28161  .debug_str:0000000000021401 .LASF1493
C:\Users\CYMR90~1\AppData\Local\Temp\ccYIfAxE.s:30461  .debug_str:000000000002a5f6 .LASF1494
C:\Users\CYMR90~1\AppData\Local\Temp\ccYIfAxE.s:21622  .debug_str:000000000000772a .LASF1495
C:\Users\CYMR90~1\AppData\Local\Temp\ccYIfAxE.s:29479  .debug_str:000000000002675e .LASF1496
C:\Users\CYMR90~1\AppData\Local\Temp\ccYIfAxE.s:30201  .debug_str:0000000000029670 .LASF1497
C:\Users\CYMR90~1\AppData\Local\Temp\ccYIfAxE.s:21410  .debug_str:0000000000006917 .LASF1498
C:\Users\CYMR90~1\AppData\Local\Temp\ccYIfAxE.s:22278  .debug_str:000000000000a0e8 .LASF1499
C:\Users\CYMR90~1\AppData\Local\Temp\ccYIfAxE.s:31155  .debug_str:000000000002d15c .LASF1500
C:\Users\CYMR90~1\AppData\Local\Temp\ccYIfAxE.s:30369  .debug_str:000000000002a0de .LASF1501
C:\Users\CYMR90~1\AppData\Local\Temp\ccYIfAxE.s:28059  .debug_str:0000000000020e85 .LASF1502
C:\Users\CYMR90~1\AppData\Local\Temp\ccYIfAxE.s:21388  .debug_str:00000000000067d7 .LASF1503
C:\Users\CYMR90~1\AppData\Local\Temp\ccYIfAxE.s:30463  .debug_str:000000000002a604 .LASF1504
C:\Users\CYMR90~1\AppData\Local\Temp\ccYIfAxE.s:27421  .debug_str:000000000001e796 .LASF1505
C:\Users\CYMR90~1\AppData\Local\Temp\ccYIfAxE.s:26729  .debug_str:000000000001bb42 .LASF1506
C:\Users\CYMR90~1\AppData\Local\Temp\ccYIfAxE.s:22664  .debug_str:000000000000ba64 .LASF1507
C:\Users\CYMR90~1\AppData\Local\Temp\ccYIfAxE.s:28269  .debug_str:0000000000021ad3 .LASF1508
C:\Users\CYMR90~1\AppData\Local\Temp\ccYIfAxE.s:24392  .debug_str:0000000000012593 .LASF1509
C:\Users\CYMR90~1\AppData\Local\Temp\ccYIfAxE.s:30103  .debug_str:0000000000029068 .LASF1510
C:\Users\CYMR90~1\AppData\Local\Temp\ccYIfAxE.s:28855  .debug_str:0000000000023da9 .LASF1511
C:\Users\CYMR90~1\AppData\Local\Temp\ccYIfAxE.s:20618  .debug_str:00000000000037ae .LASF1512
C:\Users\CYMR90~1\AppData\Local\Temp\ccYIfAxE.s:25356  .debug_str:000000000001619e .LASF1513
C:\Users\CYMR90~1\AppData\Local\Temp\ccYIfAxE.s:29279  .debug_str:0000000000025992 .LASF1514
C:\Users\CYMR90~1\AppData\Local\Temp\ccYIfAxE.s:27641  .debug_str:000000000001f52c .LASF1515
C:\Users\CYMR90~1\AppData\Local\Temp\ccYIfAxE.s:30891  .debug_str:000000000002bfbb .LASF1516
C:\Users\CYMR90~1\AppData\Local\Temp\ccYIfAxE.s:27473  .debug_str:000000000001ea82 .LASF1517
C:\Users\CYMR90~1\AppData\Local\Temp\ccYIfAxE.s:29515  .debug_str:000000000002695e .LASF1518
C:\Users\CYMR90~1\AppData\Local\Temp\ccYIfAxE.s:24382  .debug_str:0000000000012522 .LASF1519
C:\Users\CYMR90~1\AppData\Local\Temp\ccYIfAxE.s:27871  .debug_str:00000000000202c8 .LASF1520
C:\Users\CYMR90~1\AppData\Local\Temp\ccYIfAxE.s:26905  .debug_str:000000000001c5d2 .LASF1521
C:\Users\CYMR90~1\AppData\Local\Temp\ccYIfAxE.s:20562  .debug_str:000000000000341c .LASF1522
C:\Users\CYMR90~1\AppData\Local\Temp\ccYIfAxE.s:26181  .debug_str:0000000000019615 .LASF1523
C:\Users\CYMR90~1\AppData\Local\Temp\ccYIfAxE.s:28857  .debug_str:0000000000023dbf .LASF1524
C:\Users\CYMR90~1\AppData\Local\Temp\ccYIfAxE.s:21036  .debug_str:00000000000052d1 .LASF1525
C:\Users\CYMR90~1\AppData\Local\Temp\ccYIfAxE.s:26847  .debug_str:000000000001c270 .LASF1526
C:\Users\CYMR90~1\AppData\Local\Temp\ccYIfAxE.s:22884  .debug_str:000000000000c869 .LASF1527
C:\Users\CYMR90~1\AppData\Local\Temp\ccYIfAxE.s:28617  .debug_str:0000000000022f83 .LASF1528
C:\Users\CYMR90~1\AppData\Local\Temp\ccYIfAxE.s:29895  .debug_str:000000000002815f .LASF1529
C:\Users\CYMR90~1\AppData\Local\Temp\ccYIfAxE.s:29113  .debug_str:0000000000024dd6 .LASF1530
C:\Users\CYMR90~1\AppData\Local\Temp\ccYIfAxE.s:29177  .debug_str:0000000000025221 .LASF1531
C:\Users\CYMR90~1\AppData\Local\Temp\ccYIfAxE.s:20774  .debug_str:000000000000419c .LASF1532
C:\Users\CYMR90~1\AppData\Local\Temp\ccYIfAxE.s:26133  .debug_str:0000000000019276 .LASF1533
C:\Users\CYMR90~1\AppData\Local\Temp\ccYIfAxE.s:28987  .debug_str:00000000000244ee .LASF1534
C:\Users\CYMR90~1\AppData\Local\Temp\ccYIfAxE.s:22954  .debug_str:000000000000cd6c .LASF1535
C:\Users\CYMR90~1\AppData\Local\Temp\ccYIfAxE.s:29181  .debug_str:0000000000025293 .LASF1536
C:\Users\CYMR90~1\AppData\Local\Temp\ccYIfAxE.s:28521  .debug_str:00000000000229bf .LASF1537
C:\Users\CYMR90~1\AppData\Local\Temp\ccYIfAxE.s:30409  .debug_str:000000000002a302 .LASF1538
C:\Users\CYMR90~1\AppData\Local\Temp\ccYIfAxE.s:29653  .debug_str:00000000000271cb .LASF1539
C:\Users\CYMR90~1\AppData\Local\Temp\ccYIfAxE.s:24256  .debug_str:0000000000011d40 .LASF1540
C:\Users\CYMR90~1\AppData\Local\Temp\ccYIfAxE.s:30395  .debug_str:000000000002a266 .LASF1541
C:\Users\CYMR90~1\AppData\Local\Temp\ccYIfAxE.s:23220  .debug_str:000000000000de8a .LASF1542
C:\Users\CYMR90~1\AppData\Local\Temp\ccYIfAxE.s:30509  .debug_str:000000000002a8c9 .LASF1543
C:\Users\CYMR90~1\AppData\Local\Temp\ccYIfAxE.s:23804  .debug_str:00000000000100f6 .LASF1544
C:\Users\CYMR90~1\AppData\Local\Temp\ccYIfAxE.s:21806  .debug_str:00000000000083fa .LASF1545
C:\Users\CYMR90~1\AppData\Local\Temp\ccYIfAxE.s:22286  .debug_str:000000000000a15b .LASF1546
C:\Users\CYMR90~1\AppData\Local\Temp\ccYIfAxE.s:22940  .debug_str:000000000000cc6d .LASF1547
C:\Users\CYMR90~1\AppData\Local\Temp\ccYIfAxE.s:29977  .debug_str:0000000000028712 .LASF1548
C:\Users\CYMR90~1\AppData\Local\Temp\ccYIfAxE.s:29449  .debug_str:0000000000026546 .LASF1549
C:\Users\CYMR90~1\AppData\Local\Temp\ccYIfAxE.s:26795  .debug_str:000000000001bedf .LASF1550
C:\Users\CYMR90~1\AppData\Local\Temp\ccYIfAxE.s:24120  .debug_str:00000000000113d0 .LASF1551
C:\Users\CYMR90~1\AppData\Local\Temp\ccYIfAxE.s:26767  .debug_str:000000000001bd4c .LASF1552
C:\Users\CYMR90~1\AppData\Local\Temp\ccYIfAxE.s:19986  .debug_str:0000000000001113 .LASF1553
C:\Users\CYMR90~1\AppData\Local\Temp\ccYIfAxE.s:20302  .debug_str:0000000000002351 .LASF1554
C:\Users\CYMR90~1\AppData\Local\Temp\ccYIfAxE.s:27509  .debug_str:000000000001ecfb .LASF1555
C:\Users\CYMR90~1\AppData\Local\Temp\ccYIfAxE.s:26083  .debug_str:0000000000018f64 .LASF1556
C:\Users\CYMR90~1\AppData\Local\Temp\ccYIfAxE.s:23620  .debug_str:000000000000f65e .LASF1557
C:\Users\CYMR90~1\AppData\Local\Temp\ccYIfAxE.s:30491  .debug_str:000000000002a78f .LASF1558
C:\Users\CYMR90~1\AppData\Local\Temp\ccYIfAxE.s:23958  .debug_str:0000000000010a12 .LASF1559
C:\Users\CYMR90~1\AppData\Local\Temp\ccYIfAxE.s:28867  .debug_str:0000000000023e38 .LASF1560
C:\Users\CYMR90~1\AppData\Local\Temp\ccYIfAxE.s:29307  .debug_str:0000000000025bba .LASF1561
C:\Users\CYMR90~1\AppData\Local\Temp\ccYIfAxE.s:24070  .debug_str:0000000000011123 .LASF1562
C:\Users\CYMR90~1\AppData\Local\Temp\ccYIfAxE.s:21226  .debug_str:0000000000005e70 .LASF1563
C:\Users\CYMR90~1\AppData\Local\Temp\ccYIfAxE.s:30989  .debug_str:000000000002c639 .LASF1564
C:\Users\CYMR90~1\AppData\Local\Temp\ccYIfAxE.s:21418  .debug_str:0000000000006980 .LASF1565
C:\Users\CYMR90~1\AppData\Local\Temp\ccYIfAxE.s:27207  .debug_str:000000000001d9fe .LASF1566
C:\Users\CYMR90~1\AppData\Local\Temp\ccYIfAxE.s:26477  .debug_str:000000000001aa0b .LASF1567
C:\Users\CYMR90~1\AppData\Local\Temp\ccYIfAxE.s:27995  .debug_str:0000000000020a4b .LASF1568
C:\Users\CYMR90~1\AppData\Local\Temp\ccYIfAxE.s:24254  .debug_str:0000000000011c99 .LASF1569
C:\Users\CYMR90~1\AppData\Local\Temp\ccYIfAxE.s:29337  .debug_str:0000000000025de7 .LASF1570
C:\Users\CYMR90~1\AppData\Local\Temp\ccYIfAxE.s:24656  .debug_str:00000000000136bc .LASF1571
C:\Users\CYMR90~1\AppData\Local\Temp\ccYIfAxE.s:21086  .debug_str:00000000000055f2 .LASF1572
C:\Users\CYMR90~1\AppData\Local\Temp\ccYIfAxE.s:25090  .debug_str:00000000000151e7 .LASF1573
C:\Users\CYMR90~1\AppData\Local\Temp\ccYIfAxE.s:30091  .debug_str:0000000000028f9e .LASF1574
C:\Users\CYMR90~1\AppData\Local\Temp\ccYIfAxE.s:25577  .debug_str:00000000000170c1 .LASF1575
C:\Users\CYMR90~1\AppData\Local\Temp\ccYIfAxE.s:23592  .debug_str:000000000000f47f .LASF1576
C:\Users\CYMR90~1\AppData\Local\Temp\ccYIfAxE.s:23208  .debug_str:000000000000ddc1 .LASF1577
C:\Users\CYMR90~1\AppData\Local\Temp\ccYIfAxE.s:30599  .debug_str:000000000002ae23 .LASF1578
C:\Users\CYMR90~1\AppData\Local\Temp\ccYIfAxE.s:20312  .debug_str:00000000000023dc .LASF1579
C:\Users\CYMR90~1\AppData\Local\Temp\ccYIfAxE.s:27051  .debug_str:000000000001cf50 .LASF1580
C:\Users\CYMR90~1\AppData\Local\Temp\ccYIfAxE.s:22400  .debug_str:000000000000a8ca .LASF1581
C:\Users\CYMR90~1\AppData\Local\Temp\ccYIfAxE.s:21546  .debug_str:00000000000071a6 .LASF1582
C:\Users\CYMR90~1\AppData\Local\Temp\ccYIfAxE.s:21794  .debug_str:00000000000082c1 .LASF1583
C:\Users\CYMR90~1\AppData\Local\Temp\ccYIfAxE.s:29765  .debug_str:00000000000278e7 .LASF1584
C:\Users\CYMR90~1\AppData\Local\Temp\ccYIfAxE.s:27313  .debug_str:000000000001e0ba .LASF1585
C:\Users\CYMR90~1\AppData\Local\Temp\ccYIfAxE.s:31211  .debug_str:000000000002d49e .LASF1586
C:\Users\CYMR90~1\AppData\Local\Temp\ccYIfAxE.s:23100  .debug_str:000000000000d71a .LASF1587
C:\Users\CYMR90~1\AppData\Local\Temp\ccYIfAxE.s:21756  .debug_str:0000000000007fb2 .LASF1588
C:\Users\CYMR90~1\AppData\Local\Temp\ccYIfAxE.s:26669  .debug_str:000000000001b6fd .LASF1589
C:\Users\CYMR90~1\AppData\Local\Temp\ccYIfAxE.s:22630  .debug_str:000000000000b78a .LASF1590
C:\Users\CYMR90~1\AppData\Local\Temp\ccYIfAxE.s:25474  .debug_str:0000000000016896 .LASF1591
C:\Users\CYMR90~1\AppData\Local\Temp\ccYIfAxE.s:22002  .debug_str:0000000000008fe0 .LASF1592
C:\Users\CYMR90~1\AppData\Local\Temp\ccYIfAxE.s:24648  .debug_str:00000000000135d7 .LASF1593
C:\Users\CYMR90~1\AppData\Local\Temp\ccYIfAxE.s:30271  .debug_str:0000000000029a41 .LASF1594
C:\Users\CYMR90~1\AppData\Local\Temp\ccYIfAxE.s:30009  .debug_str:0000000000028971 .LASF1595
C:\Users\CYMR90~1\AppData\Local\Temp\ccYIfAxE.s:19950  .debug_str:0000000000000e9e .LASF1596
C:\Users\CYMR90~1\AppData\Local\Temp\ccYIfAxE.s:27077  .debug_str:000000000001d10f .LASF1597
C:\Users\CYMR90~1\AppData\Local\Temp\ccYIfAxE.s:20890  .debug_str:000000000000499b .LASF1598
C:\Users\CYMR90~1\AppData\Local\Temp\ccYIfAxE.s:29255  .debug_str:0000000000025753 .LASF1599
C:\Users\CYMR90~1\AppData\Local\Temp\ccYIfAxE.s:24682  .debug_str:0000000000013888 .LASF1600
C:\Users\CYMR90~1\AppData\Local\Temp\ccYIfAxE.s:23682  .debug_str:000000000000f9bb .LASF1601
C:\Users\CYMR90~1\AppData\Local\Temp\ccYIfAxE.s:28227  .debug_str:00000000000217cc .LASF1602
C:\Users\CYMR90~1\AppData\Local\Temp\ccYIfAxE.s:27103  .debug_str:000000000001d32e .LASF1603
C:\Users\CYMR90~1\AppData\Local\Temp\ccYIfAxE.s:26997  .debug_str:000000000001cb3b .LASF1604
C:\Users\CYMR90~1\AppData\Local\Temp\ccYIfAxE.s:29231  .debug_str:000000000002555f .LASF1605
C:\Users\CYMR90~1\AppData\Local\Temp\ccYIfAxE.s:29155  .debug_str:00000000000250b3 .LASF1606
C:\Users\CYMR90~1\AppData\Local\Temp\ccYIfAxE.s:29105  .debug_str:0000000000024d6e .LASF1607
C:\Users\CYMR90~1\AppData\Local\Temp\ccYIfAxE.s:26027  .debug_str:0000000000018b39 .LASF1608
C:\Users\CYMR90~1\AppData\Local\Temp\ccYIfAxE.s:20868  .debug_str:000000000000480e .LASF1609
C:\Users\CYMR90~1\AppData\Local\Temp\ccYIfAxE.s:28449  .debug_str:00000000000225b4 .LASF1610
C:\Users\CYMR90~1\AppData\Local\Temp\ccYIfAxE.s:31115  .debug_str:000000000002ce84 .LASF1611
C:\Users\CYMR90~1\AppData\Local\Temp\ccYIfAxE.s:26943  .debug_str:000000000001c7e9 .LASF1612
C:\Users\CYMR90~1\AppData\Local\Temp\ccYIfAxE.s:24970  .debug_str:0000000000014a7c .LASF1613
C:\Users\CYMR90~1\AppData\Local\Temp\ccYIfAxE.s:22272  .debug_str:000000000000a08a .LASF1614
C:\Users\CYMR90~1\AppData\Local\Temp\ccYIfAxE.s:26625  .debug_str:000000000001b416 .LASF1615
C:\Users\CYMR90~1\AppData\Local\Temp\ccYIfAxE.s:28329  .debug_str:0000000000021e68 .LASF1616
C:\Users\CYMR90~1\AppData\Local\Temp\ccYIfAxE.s:25064  .debug_str:0000000000014fee .LASF1617
C:\Users\CYMR90~1\AppData\Local\Temp\ccYIfAxE.s:27009  .debug_str:000000000001ccb4 .LASF1618
C:\Users\CYMR90~1\AppData\Local\Temp\ccYIfAxE.s:20912  .debug_str:0000000000004b7b .LASF1619
C:\Users\CYMR90~1\AppData\Local\Temp\ccYIfAxE.s:22668  .debug_str:000000000000ba94 .LASF1620
C:\Users\CYMR90~1\AppData\Local\Temp\ccYIfAxE.s:23510  .debug_str:000000000000eff0 .LASF1621
C:\Users\CYMR90~1\AppData\Local\Temp\ccYIfAxE.s:20466  .debug_str:0000000000002e15 .LASF1622
C:\Users\CYMR90~1\AppData\Local\Temp\ccYIfAxE.s:28025  .debug_str:0000000000020c62 .LASF1623
C:\Users\CYMR90~1\AppData\Local\Temp\ccYIfAxE.s:24650  .debug_str:0000000000013672 .LASF1624
C:\Users\CYMR90~1\AppData\Local\Temp\ccYIfAxE.s:22770  .debug_str:000000000000c1a9 .LASF1625
C:\Users\CYMR90~1\AppData\Local\Temp\ccYIfAxE.s:28737  .debug_str:0000000000023670 .LASF1626
C:\Users\CYMR90~1\AppData\Local\Temp\ccYIfAxE.s:21414  .debug_str:0000000000006952 .LASF1627
C:\Users\CYMR90~1\AppData\Local\Temp\ccYIfAxE.s:27763  .debug_str:000000000001fc36 .LASF1628
C:\Users\CYMR90~1\AppData\Local\Temp\ccYIfAxE.s:22516  .debug_str:000000000000afde .LASF1629
C:\Users\CYMR90~1\AppData\Local\Temp\ccYIfAxE.s:28531  .debug_str:0000000000022a2b .LASF1630
C:\Users\CYMR90~1\AppData\Local\Temp\ccYIfAxE.s:21984  .debug_str:0000000000008f05 .LASF1631
C:\Users\CYMR90~1\AppData\Local\Temp\ccYIfAxE.s:20050  .debug_str:0000000000001504 .LASF1632
C:\Users\CYMR90~1\AppData\Local\Temp\ccYIfAxE.s:26745  .debug_str:000000000001bc64 .LASF1633
C:\Users\CYMR90~1\AppData\Local\Temp\ccYIfAxE.s:25711  .debug_str:0000000000017830 .LASF1634
C:\Users\CYMR90~1\AppData\Local\Temp\ccYIfAxE.s:22752  .debug_str:000000000000c042 .LASF1635
C:\Users\CYMR90~1\AppData\Local\Temp\ccYIfAxE.s:22856  .debug_str:000000000000c6d9 .LASF1636
C:\Users\CYMR90~1\AppData\Local\Temp\ccYIfAxE.s:26597  .debug_str:000000000001b265 .LASF1637
C:\Users\CYMR90~1\AppData\Local\Temp\ccYIfAxE.s:22924  .debug_str:000000000000cb5a .LASF1638
C:\Users\CYMR90~1\AppData\Local\Temp\ccYIfAxE.s:22640  .debug_str:000000000000b8af .LASF1639
C:\Users\CYMR90~1\AppData\Local\Temp\ccYIfAxE.s:25923  .debug_str:00000000000184f6 .LASF1640
C:\Users\CYMR90~1\AppData\Local\Temp\ccYIfAxE.s:23912  .debug_str:0000000000010722 .LASF1641
C:\Users\CYMR90~1\AppData\Local\Temp\ccYIfAxE.s:29093  .debug_str:0000000000024cc8 .LASF1642
C:\Users\CYMR90~1\AppData\Local\Temp\ccYIfAxE.s:24268  .debug_str:0000000000011e24 .LASF1643
C:\Users\CYMR90~1\AppData\Local\Temp\ccYIfAxE.s:27909  .debug_str:000000000002052f .LASF1644
C:\Users\CYMR90~1\AppData\Local\Temp\ccYIfAxE.s:31081  .debug_str:000000000002cce0 .LASF1645
C:\Users\CYMR90~1\AppData\Local\Temp\ccYIfAxE.s:20456  .debug_str:0000000000002d85 .LASF1646
C:\Users\CYMR90~1\AppData\Local\Temp\ccYIfAxE.s:25514  .debug_str:0000000000016adb .LASF1647
C:\Users\CYMR90~1\AppData\Local\Temp\ccYIfAxE.s:25621  .debug_str:0000000000017352 .LASF1648
C:\Users\CYMR90~1\AppData\Local\Temp\ccYIfAxE.s:20252  .debug_str:0000000000002098 .LASF1649
C:\Users\CYMR90~1\AppData\Local\Temp\ccYIfAxE.s:21822  .debug_str:0000000000008523 .LASF1650
C:\Users\CYMR90~1\AppData\Local\Temp\ccYIfAxE.s:30335  .debug_str:0000000000029ef9 .LASF1651
C:\Users\CYMR90~1\AppData\Local\Temp\ccYIfAxE.s:24006  .debug_str:0000000000010c8e .LASF1652
C:\Users\CYMR90~1\AppData\Local\Temp\ccYIfAxE.s:21712  .debug_str:0000000000007caa .LASF1653
C:\Users\CYMR90~1\AppData\Local\Temp\ccYIfAxE.s:19990  .debug_str:000000000000116a .LASF1654
C:\Users\CYMR90~1\AppData\Local\Temp\ccYIfAxE.s:25819  .debug_str:0000000000017ec8 .LASF1657
C:\Users\CYMR90~1\AppData\Local\Temp\ccYIfAxE.s:30649  .debug_str:000000000002b135 .LASF1658
C:\Users\CYMR90~1\AppData\Local\Temp\ccYIfAxE.s:24038  .debug_str:0000000000010f9b .LASF1659
C:\Users\CYMR90~1\AppData\Local\Temp\ccYIfAxE.s:26155  .debug_str:00000000000194bb .LASF1660
C:\Users\CYMR90~1\AppData\Local\Temp\ccYIfAxE.s:30887  .debug_str:000000000002bf7c .LASF1661
C:\Users\CYMR90~1\AppData\Local\Temp\ccYIfAxE.s:30921  .debug_str:000000000002c1e5 .LASF1662
C:\Users\CYMR90~1\AppData\Local\Temp\ccYIfAxE.s:28111  .debug_str:000000000002113d .LASF1663
C:\Users\CYMR90~1\AppData\Local\Temp\ccYIfAxE.s:25024  .debug_str:0000000000014d5a .LASF1664
C:\Users\CYMR90~1\AppData\Local\Temp\ccYIfAxE.s:27257  .debug_str:000000000001dd65 .LASF1665
C:\Users\CYMR90~1\AppData\Local\Temp\ccYIfAxE.s:28201  .debug_str:0000000000021649 .LASF1666
C:\Users\CYMR90~1\AppData\Local\Temp\ccYIfAxE.s:23724  .debug_str:000000000000fcd7 .LASF1667
C:\Users\CYMR90~1\AppData\Local\Temp\ccYIfAxE.s:23420  .debug_str:000000000000ea8c .LASF1668
C:\Users\CYMR90~1\AppData\Local\Temp\ccYIfAxE.s:20702  .debug_str:0000000000003ce3 .LASF1669
C:\Users\CYMR90~1\AppData\Local\Temp\ccYIfAxE.s:22022  .debug_str:000000000000917e .LASF1670
C:\Users\CYMR90~1\AppData\Local\Temp\ccYIfAxE.s:21080  .debug_str:0000000000005581 .LASF1671
C:\Users\CYMR90~1\AppData\Local\Temp\ccYIfAxE.s:19792  .debug_str:0000000000000508 .LASF1672
C:\Users\CYMR90~1\AppData\Local\Temp\ccYIfAxE.s:24948  .debug_str:00000000000148d8 .LASF1673
C:\Users\CYMR90~1\AppData\Local\Temp\ccYIfAxE.s:24340  .debug_str:0000000000012239 .LASF1674
C:\Users\CYMR90~1\AppData\Local\Temp\ccYIfAxE.s:23460  .debug_str:000000000000ecf9 .LASF1675
C:\Users\CYMR90~1\AppData\Local\Temp\ccYIfAxE.s:29119  .debug_str:0000000000024ec1 .LASF1676
C:\Users\CYMR90~1\AppData\Local\Temp\ccYIfAxE.s:24474  .debug_str:0000000000012ab4 .LASF1677
C:\Users\CYMR90~1\AppData\Local\Temp\ccYIfAxE.s:31083  .debug_str:000000000002ccf5 .LASF1678
C:\Users\CYMR90~1\AppData\Local\Temp\ccYIfAxE.s:20362  .debug_str:0000000000002717 .LASF1679
C:\Users\CYMR90~1\AppData\Local\Temp\ccYIfAxE.s:28475  .debug_str:000000000002274b .LASF1680
C:\Users\CYMR90~1\AppData\Local\Temp\ccYIfAxE.s:25202  .debug_str:000000000001582e .LASF1681
C:\Users\CYMR90~1\AppData\Local\Temp\ccYIfAxE.s:23824  .debug_str:0000000000010257 .LASF1682
C:\Users\CYMR90~1\AppData\Local\Temp\ccYIfAxE.s:28199  .debug_str:000000000002161a .LASF1683
C:\Users\CYMR90~1\AppData\Local\Temp\ccYIfAxE.s:28703  .debug_str:00000000000234cd .LASF1684
C:\Users\CYMR90~1\AppData\Local\Temp\ccYIfAxE.s:29645  .debug_str:0000000000027170 .LASF1685
C:\Users\CYMR90~1\AppData\Local\Temp\ccYIfAxE.s:23986  .debug_str:0000000000010b9d .LASF1686
C:\Users\CYMR90~1\AppData\Local\Temp\ccYIfAxE.s:28007  .debug_str:0000000000020b49 .LASF1687
C:\Users\CYMR90~1\AppData\Local\Temp\ccYIfAxE.s:30385  .debug_str:000000000002a1bb .LASF1688
C:\Users\CYMR90~1\AppData\Local\Temp\ccYIfAxE.s:28883  .debug_str:0000000000023f42 .LASF1689
C:\Users\CYMR90~1\AppData\Local\Temp\ccYIfAxE.s:26701  .debug_str:000000000001b969 .LASF1690
C:\Users\CYMR90~1\AppData\Local\Temp\ccYIfAxE.s:24742  .debug_str:0000000000013cbe .LASF1691
C:\Users\CYMR90~1\AppData\Local\Temp\ccYIfAxE.s:28431  .debug_str:000000000002249d .LASF1692
C:\Users\CYMR90~1\AppData\Local\Temp\ccYIfAxE.s:26015  .debug_str:0000000000018a80 .LASF1693
C:\Users\CYMR90~1\AppData\Local\Temp\ccYIfAxE.s:21816  .debug_str:00000000000084af .LASF1694
C:\Users\CYMR90~1\AppData\Local\Temp\ccYIfAxE.s:23906  .debug_str:00000000000106c3 .LASF1695
C:\Users\CYMR90~1\AppData\Local\Temp\ccYIfAxE.s:25789  .debug_str:0000000000017d15 .LASF1696
C:\Users\CYMR90~1\AppData\Local\Temp\ccYIfAxE.s:25072  .debug_str:0000000000015081 .LASF1697
C:\Users\CYMR90~1\AppData\Local\Temp\ccYIfAxE.s:27655  .debug_str:000000000001f5e5 .LASF1698
C:\Users\CYMR90~1\AppData\Local\Temp\ccYIfAxE.s:26193  .debug_str:00000000000196ec .LASF1699
C:\Users\CYMR90~1\AppData\Local\Temp\ccYIfAxE.s:28121  .debug_str:00000000000211d8 .LASF1700
C:\Users\CYMR90~1\AppData\Local\Temp\ccYIfAxE.s:27651  .debug_str:000000000001f5a8 .LASF1701
C:\Users\CYMR90~1\AppData\Local\Temp\ccYIfAxE.s:28931  .debug_str:00000000000241c6 .LASF1702
C:\Users\CYMR90~1\AppData\Local\Temp\ccYIfAxE.s:28889  .debug_str:0000000000023f91 .LASF1703
C:\Users\CYMR90~1\AppData\Local\Temp\ccYIfAxE.s:28421  .debug_str:0000000000022403 .LASF1704
C:\Users\CYMR90~1\AppData\Local\Temp\ccYIfAxE.s:26825  .debug_str:000000000001c0fa .LASF1705
C:\Users\CYMR90~1\AppData\Local\Temp\ccYIfAxE.s:28271  .debug_str:0000000000021ae7 .LASF1706
C:\Users\CYMR90~1\AppData\Local\Temp\ccYIfAxE.s:24344  .debug_str:0000000000012289 .LASF1707
C:\Users\CYMR90~1\AppData\Local\Temp\ccYIfAxE.s:24652  .debug_str:0000000000013685 .LASF1708
C:\Users\CYMR90~1\AppData\Local\Temp\ccYIfAxE.s:27401  .debug_str:000000000001e67e .LASF1709
C:\Users\CYMR90~1\AppData\Local\Temp\ccYIfAxE.s:25925  .debug_str:000000000001850b .LASF1710
C:\Users\CYMR90~1\AppData\Local\Temp\ccYIfAxE.s:22754  .debug_str:000000000000c057 .LASF1711
C:\Users\CYMR90~1\AppData\Local\Temp\ccYIfAxE.s:24288  .debug_str:0000000000011f37 .LASF1712
C:\Users\CYMR90~1\AppData\Local\Temp\ccYIfAxE.s:21336  .debug_str:00000000000064be .LASF1713
C:\Users\CYMR90~1\AppData\Local\Temp\ccYIfAxE.s:23730  .debug_str:000000000000fd34 .LASF1714
C:\Users\CYMR90~1\AppData\Local\Temp\ccYIfAxE.s:20590  .debug_str:00000000000035e7 .LASF1715
C:\Users\CYMR90~1\AppData\Local\Temp\ccYIfAxE.s:23984  .debug_str:0000000000010b71 .LASF1716
C:\Users\CYMR90~1\AppData\Local\Temp\ccYIfAxE.s:27369  .debug_str:000000000001e498 .LASF1717
C:\Users\CYMR90~1\AppData\Local\Temp\ccYIfAxE.s:25889  .debug_str:00000000000182f0 .LASF1718
C:\Users\CYMR90~1\AppData\Local\Temp\ccYIfAxE.s:24228  .debug_str:0000000000011a74 .LASF1719
C:\Users\CYMR90~1\AppData\Local\Temp\ccYIfAxE.s:26257  .debug_str:0000000000019b1a .LASF1720
C:\Users\CYMR90~1\AppData\Local\Temp\ccYIfAxE.s:24734  .debug_str:0000000000013c3b .LASF1721
C:\Users\CYMR90~1\AppData\Local\Temp\ccYIfAxE.s:20288  .debug_str:0000000000002298 .LASF1722
C:\Users\CYMR90~1\AppData\Local\Temp\ccYIfAxE.s:26589  .debug_str:000000000001b1ab .LASF1723
C:\Users\CYMR90~1\AppData\Local\Temp\ccYIfAxE.s:20352  .debug_str:0000000000002698 .LASF1724
C:\Users\CYMR90~1\AppData\Local\Temp\ccYIfAxE.s:25270  .debug_str:0000000000015be4 .LASF1725
C:\Users\CYMR90~1\AppData\Local\Temp\ccYIfAxE.s:30177  .debug_str:00000000000294c1 .LASF1726
C:\Users\CYMR90~1\AppData\Local\Temp\ccYIfAxE.s:28569  .debug_str:0000000000022c74 .LASF1727
C:\Users\CYMR90~1\AppData\Local\Temp\ccYIfAxE.s:29811  .debug_str:0000000000027c3a .LASF1728
C:\Users\CYMR90~1\AppData\Local\Temp\ccYIfAxE.s:27049  .debug_str:000000000001cf19 .LASF1729
C:\Users\CYMR90~1\AppData\Local\Temp\ccYIfAxE.s:30993  .debug_str:000000000002c6f8 .LASF1730
C:\Users\CYMR90~1\AppData\Local\Temp\ccYIfAxE.s:29633  .debug_str:00000000000270af .LASF1731
C:\Users\CYMR90~1\AppData\Local\Temp\ccYIfAxE.s:24160  .debug_str:000000000001162b .LASF1732
C:\Users\CYMR90~1\AppData\Local\Temp\ccYIfAxE.s:22130  .debug_str:0000000000009789 .LASF1733
C:\Users\CYMR90~1\AppData\Local\Temp\ccYIfAxE.s:20054  .debug_str:000000000000153d .LASF1734
C:\Users\CYMR90~1\AppData\Local\Temp\ccYIfAxE.s:25651  .debug_str:00000000000174e8 .LASF1735
C:\Users\CYMR90~1\AppData\Local\Temp\ccYIfAxE.s:27833  .debug_str:0000000000020069 .LASF1736
C:\Users\CYMR90~1\AppData\Local\Temp\ccYIfAxE.s:22122  .debug_str:0000000000009713 .LASF1737
C:\Users\CYMR90~1\AppData\Local\Temp\ccYIfAxE.s:21836  .debug_str:00000000000085ff .LASF1738
C:\Users\CYMR90~1\AppData\Local\Temp\ccYIfAxE.s:29641  .debug_str:0000000000027141 .LASF1739
C:\Users\CYMR90~1\AppData\Local\Temp\ccYIfAxE.s:23484  .debug_str:000000000000ee87 .LASF1740
C:\Users\CYMR90~1\AppData\Local\Temp\ccYIfAxE.s:22466  .debug_str:000000000000acc6 .LASF1741
C:\Users\CYMR90~1\AppData\Local\Temp\ccYIfAxE.s:27677  .debug_str:000000000001f72c .LASF1742
C:\Users\CYMR90~1\AppData\Local\Temp\ccYIfAxE.s:27323  .debug_str:000000000001e1c1 .LASF1743
C:\Users\CYMR90~1\AppData\Local\Temp\ccYIfAxE.s:29929  .debug_str:00000000000283d7 .LASF1744
C:\Users\CYMR90~1\AppData\Local\Temp\ccYIfAxE.s:21842  .debug_str:0000000000008671 .LASF1745
C:\Users\CYMR90~1\AppData\Local\Temp\ccYIfAxE.s:23796  .debug_str:000000000001006d .LASF1746
C:\Users\CYMR90~1\AppData\Local\Temp\ccYIfAxE.s:28935  .debug_str:0000000000024204 .LASF1747
C:\Users\CYMR90~1\AppData\Local\Temp\ccYIfAxE.s:28539  .debug_str:0000000000022a97 .LASF1748
C:\Users\CYMR90~1\AppData\Local\Temp\ccYIfAxE.s:23980  .debug_str:0000000000010b46 .LASF1749
C:\Users\CYMR90~1\AppData\Local\Temp\ccYIfAxE.s:22636  .debug_str:000000000000b866 .LASF1750
C:\Users\CYMR90~1\AppData\Local\Temp\ccYIfAxE.s:25825  .debug_str:0000000000017f1e .LASF1751
C:\Users\CYMR90~1\AppData\Local\Temp\ccYIfAxE.s:20964  .debug_str:0000000000004ea2 .LASF1752
C:\Users\CYMR90~1\AppData\Local\Temp\ccYIfAxE.s:26567  .debug_str:000000000001b041 .LASF1753
C:\Users\CYMR90~1\AppData\Local\Temp\ccYIfAxE.s:26461  .debug_str:000000000001a8e7 .LASF1754
C:\Users\CYMR90~1\AppData\Local\Temp\ccYIfAxE.s:22914  .debug_str:000000000000ca59 .LASF1755
C:\Users\CYMR90~1\AppData\Local\Temp\ccYIfAxE.s:24544  .debug_str:0000000000012f4c .LASF1756
C:\Users\CYMR90~1\AppData\Local\Temp\ccYIfAxE.s:26657  .debug_str:000000000001b65a .LASF1757
C:\Users\CYMR90~1\AppData\Local\Temp\ccYIfAxE.s:23578  .debug_str:000000000000f377 .LASF1758
C:\Users\CYMR90~1\AppData\Local\Temp\ccYIfAxE.s:21654  .debug_str:000000000000790e .LASF1759
C:\Users\CYMR90~1\AppData\Local\Temp\ccYIfAxE.s:26403  .debug_str:000000000001a431 .LASF1760
C:\Users\CYMR90~1\AppData\Local\Temp\ccYIfAxE.s:21950  .debug_str:0000000000008cff .LASF1761
C:\Users\CYMR90~1\AppData\Local\Temp\ccYIfAxE.s:20118  .debug_str:0000000000001900 .LASF1762
C:\Users\CYMR90~1\AppData\Local\Temp\ccYIfAxE.s:29135  .debug_str:0000000000024f6f .LASF1763
C:\Users\CYMR90~1\AppData\Local\Temp\ccYIfAxE.s:21686  .debug_str:0000000000007b0e .LASF1764
C:\Users\CYMR90~1\AppData\Local\Temp\ccYIfAxE.s:21350  .debug_str:00000000000065b7 .LASF1765
C:\Users\CYMR90~1\AppData\Local\Temp\ccYIfAxE.s:20098  .debug_str:00000000000017ac .LASF1766
C:\Users\CYMR90~1\AppData\Local\Temp\ccYIfAxE.s:26773  .debug_str:000000000001bda5 .LASF1767
C:\Users\CYMR90~1\AppData\Local\Temp\ccYIfAxE.s:20160  .debug_str:0000000000001b80 .LASF1768
C:\Users\CYMR90~1\AppData\Local\Temp\ccYIfAxE.s:29339  .debug_str:0000000000025e75 .LASF1769
C:\Users\CYMR90~1\AppData\Local\Temp\ccYIfAxE.s:31067  .debug_str:000000000002cbef .LASF1770
C:\Users\CYMR90~1\AppData\Local\Temp\ccYIfAxE.s:22804  .debug_str:000000000000c3b5 .LASF1771
C:\Users\CYMR90~1\AppData\Local\Temp\ccYIfAxE.s:22374  .debug_str:000000000000a733 .LASF1772
C:\Users\CYMR90~1\AppData\Local\Temp\ccYIfAxE.s:19826  .debug_str:00000000000006df .LASF1773
C:\Users\CYMR90~1\AppData\Local\Temp\ccYIfAxE.s:19876  .debug_str:00000000000009cb .LASF1774
C:\Users\CYMR90~1\AppData\Local\Temp\ccYIfAxE.s:30081  .debug_str:0000000000028edf .LASF1775
C:\Users\CYMR90~1\AppData\Local\Temp\ccYIfAxE.s:24962  .debug_str:00000000000149e8 .LASF1776
C:\Users\CYMR90~1\AppData\Local\Temp\ccYIfAxE.s:23664  .debug_str:000000000000f8b9 .LASF1777
C:\Users\CYMR90~1\AppData\Local\Temp\ccYIfAxE.s:25815  .debug_str:0000000000017e97 .LASF1778
C:\Users\CYMR90~1\AppData\Local\Temp\ccYIfAxE.s:21060  .debug_str:000000000000545b .LASF1779
C:\Users\CYMR90~1\AppData\Local\Temp\ccYIfAxE.s:29377  .debug_str:00000000000260e0 .LASF1780
C:\Users\CYMR90~1\AppData\Local\Temp\ccYIfAxE.s:28573  .debug_str:0000000000022cdd .LASF1781
C:\Users\CYMR90~1\AppData\Local\Temp\ccYIfAxE.s:27057  .debug_str:000000000001cfbb .LASF1784
C:\Users\CYMR90~1\AppData\Local\Temp\ccYIfAxE.s:26203  .debug_str:00000000000197ae .LASF1785
C:\Users\CYMR90~1\AppData\Local\Temp\ccYIfAxE.s:26049  .debug_str:0000000000018ca1 .LASF1786
C:\Users\CYMR90~1\AppData\Local\Temp\ccYIfAxE.s:25008  .debug_str:0000000000014c93 .LASF1787
C:\Users\CYMR90~1\AppData\Local\Temp\ccYIfAxE.s:30527  .debug_str:000000000002a9aa .LASF1788
C:\Users\CYMR90~1\AppData\Local\Temp\ccYIfAxE.s:26599  .debug_str:000000000001b27a .LASF1789
C:\Users\CYMR90~1\AppData\Local\Temp\ccYIfAxE.s:20640  .debug_str:0000000000003945 .LASF1790
C:\Users\CYMR90~1\AppData\Local\Temp\ccYIfAxE.s:19732  .debug_str:00000000000001e8 .LASF1791
C:\Users\CYMR90~1\AppData\Local\Temp\ccYIfAxE.s:29727  .debug_str:0000000000027675 .LASF1792
C:\Users\CYMR90~1\AppData\Local\Temp\ccYIfAxE.s:28783  .debug_str:0000000000023904 .LASF1793
C:\Users\CYMR90~1\AppData\Local\Temp\ccYIfAxE.s:30715  .debug_str:000000000002b4c4 .LASF1794
C:\Users\CYMR90~1\AppData\Local\Temp\ccYIfAxE.s:30013  .debug_str:0000000000028a42 .LASF1795
C:\Users\CYMR90~1\AppData\Local\Temp\ccYIfAxE.s:24664  .debug_str:000000000001374f .LASF1796
C:\Users\CYMR90~1\AppData\Local\Temp\ccYIfAxE.s:24952  .debug_str:000000000001491a .LASF1797
C:\Users\CYMR90~1\AppData\Local\Temp\ccYIfAxE.s:24042  .debug_str:0000000000010fb8 .LASF1798
C:\Users\CYMR90~1\AppData\Local\Temp\ccYIfAxE.s:22830  .debug_str:000000000000c556 .LASF1799
C:\Users\CYMR90~1\AppData\Local\Temp\ccYIfAxE.s:21520  .debug_str:000000000000703d .LASF1800
C:\Users\CYMR90~1\AppData\Local\Temp\ccYIfAxE.s:26041  .debug_str:0000000000018c33 .LASF1801
C:\Users\CYMR90~1\AppData\Local\Temp\ccYIfAxE.s:25094  .debug_str:0000000000015221 .LASF1802
C:\Users\CYMR90~1\AppData\Local\Temp\ccYIfAxE.s:24104  .debug_str:00000000000112ef .LASF1803
C:\Users\CYMR90~1\AppData\Local\Temp\ccYIfAxE.s:23556  .debug_str:000000000000f24a .LASF1804
C:\Users\CYMR90~1\AppData\Local\Temp\ccYIfAxE.s:28365  .debug_str:00000000000220a7 .LASF1805
C:\Users\CYMR90~1\AppData\Local\Temp\ccYIfAxE.s:24972  .debug_str:0000000000014aa0 .LASF1806
C:\Users\CYMR90~1\AppData\Local\Temp\ccYIfAxE.s:27951  .debug_str:000000000002075a .LASF1807
C:\Users\CYMR90~1\AppData\Local\Temp\ccYIfAxE.s:25120  .debug_str:0000000000015389 .LASF1808
C:\Users\CYMR90~1\AppData\Local\Temp\ccYIfAxE.s:30005  .debug_str:0000000000028930 .LASF1809
C:\Users\CYMR90~1\AppData\Local\Temp\ccYIfAxE.s:27149  .debug_str:000000000001d698 .LASF1810
C:\Users\CYMR90~1\AppData\Local\Temp\ccYIfAxE.s:25831  .debug_str:0000000000017f93 .LASF1811
C:\Users\CYMR90~1\AppData\Local\Temp\ccYIfAxE.s:20076  .debug_str:0000000000001663 .LASF1812
C:\Users\CYMR90~1\AppData\Local\Temp\ccYIfAxE.s:22808  .debug_str:000000000000c410 .LASF1813
C:\Users\CYMR90~1\AppData\Local\Temp\ccYIfAxE.s:24272  .debug_str:0000000000011e56 .LASF1814
C:\Users\CYMR90~1\AppData\Local\Temp\ccYIfAxE.s:27131  .debug_str:000000000001d5a0 .LASF1815
C:\Users\CYMR90~1\AppData\Local\Temp\ccYIfAxE.s:25795  .debug_str:0000000000017d87 .LASF1816
C:\Users\CYMR90~1\AppData\Local\Temp\ccYIfAxE.s:27139  .debug_str:000000000001d61e .LASF1817
C:\Users\CYMR90~1\AppData\Local\Temp\ccYIfAxE.s:27599  .debug_str:000000000001f23b .LASF1818
C:\Users\CYMR90~1\AppData\Local\Temp\ccYIfAxE.s:23792  .debug_str:0000000000010035 .LASF1819
C:\Users\CYMR90~1\AppData\Local\Temp\ccYIfAxE.s:28319  .debug_str:0000000000021df1 .LASF1820
C:\Users\CYMR90~1\AppData\Local\Temp\ccYIfAxE.s:21380  .debug_str:000000000000676b .LASF1821
C:\Users\CYMR90~1\AppData\Local\Temp\ccYIfAxE.s:21776  .debug_str:0000000000008188 .LASF1822
C:\Users\CYMR90~1\AppData\Local\Temp\ccYIfAxE.s:27533  .debug_str:000000000001ee72 .LASF1823
C:\Users\CYMR90~1\AppData\Local\Temp\ccYIfAxE.s:30289  .debug_str:0000000000029beb .LASF1824
C:\Users\CYMR90~1\AppData\Local\Temp\ccYIfAxE.s:22706  .debug_str:000000000000bd3b .LASF1825
C:\Users\CYMR90~1\AppData\Local\Temp\ccYIfAxE.s:28189  .debug_str:000000000002157f .LASF1826
C:\Users\CYMR90~1\AppData\Local\Temp\ccYIfAxE.s:30655  .debug_str:000000000002b16f .LASF1827
C:\Users\CYMR90~1\AppData\Local\Temp\ccYIfAxE.s:23528  .debug_str:000000000000f0e2 .LASF1828
C:\Users\CYMR90~1\AppData\Local\Temp\ccYIfAxE.s:23600  .debug_str:000000000000f50e .LASF1829
C:\Users\CYMR90~1\AppData\Local\Temp\ccYIfAxE.s:24420  .debug_str:000000000001274d .LASF1830
C:\Users\CYMR90~1\AppData\Local\Temp\ccYIfAxE.s:22150  .debug_str:00000000000098fe .LASF1831
C:\Users\CYMR90~1\AppData\Local\Temp\ccYIfAxE.s:29669  .debug_str:00000000000272bf .LASF1832
C:\Users\CYMR90~1\AppData\Local\Temp\ccYIfAxE.s:22970  .debug_str:000000000000cf11 .LASF1833
C:\Users\CYMR90~1\AppData\Local\Temp\ccYIfAxE.s:21590  .debug_str:00000000000074de .LASF1834
C:\Users\CYMR90~1\AppData\Local\Temp\ccYIfAxE.s:25426  .debug_str:0000000000016604 .LASF1835
C:\Users\CYMR90~1\AppData\Local\Temp\ccYIfAxE.s:29531  .debug_str:0000000000026a45 .LASF1836
C:\Users\CYMR90~1\AppData\Local\Temp\ccYIfAxE.s:25396  .debug_str:000000000001643e .LASF1837
C:\Users\CYMR90~1\AppData\Local\Temp\ccYIfAxE.s:26131  .debug_str:000000000001925e .LASF1838
C:\Users\CYMR90~1\AppData\Local\Temp\ccYIfAxE.s:24046  .debug_str:0000000000010ff0 .LASF1839
C:\Users\CYMR90~1\AppData\Local\Temp\ccYIfAxE.s:27089  .debug_str:000000000001d260 .LASF1840
C:\Users\CYMR90~1\AppData\Local\Temp\ccYIfAxE.s:26365  .debug_str:000000000001a21f .LASF1841
C:\Users\CYMR90~1\AppData\Local\Temp\ccYIfAxE.s:29213  .debug_str:0000000000025473 .LASF1842
C:\Users\CYMR90~1\AppData\Local\Temp\ccYIfAxE.s:29623  .debug_str:000000000002700e .LASF1843
C:\Users\CYMR90~1\AppData\Local\Temp\ccYIfAxE.s:30855  .debug_str:000000000002bda1 .LASF1844
C:\Users\CYMR90~1\AppData\Local\Temp\ccYIfAxE.s:30709  .debug_str:000000000002b471 .LASF1845
C:\Users\CYMR90~1\AppData\Local\Temp\ccYIfAxE.s:21878  .debug_str:000000000000889e .LASF1846
C:\Users\CYMR90~1\AppData\Local\Temp\ccYIfAxE.s:27297  .debug_str:000000000001dfaa .LASF1847
C:\Users\CYMR90~1\AppData\Local\Temp\ccYIfAxE.s:19994  .debug_str:00000000000011bb .LASF1848
C:\Users\CYMR90~1\AppData\Local\Temp\ccYIfAxE.s:28491  .debug_str:0000000000022829 .LASF1849
C:\Users\CYMR90~1\AppData\Local\Temp\ccYIfAxE.s:27687  .debug_str:000000000001f7ca .LASF1850
C:\Users\CYMR90~1\AppData\Local\Temp\ccYIfAxE.s:21942  .debug_str:0000000000008c85 .LASF1851
C:\Users\CYMR90~1\AppData\Local\Temp\ccYIfAxE.s:29573  .debug_str:0000000000026d0a .LASF1852
C:\Users\CYMR90~1\AppData\Local\Temp\ccYIfAxE.s:23222  .debug_str:000000000000dea7 .LASF1853
C:\Users\CYMR90~1\AppData\Local\Temp\ccYIfAxE.s:20536  .debug_str:000000000000326f .LASF1854
C:\Users\CYMR90~1\AppData\Local\Temp\ccYIfAxE.s:27169  .debug_str:000000000001d7dd .LASF1855
C:\Users\CYMR90~1\AppData\Local\Temp\ccYIfAxE.s:29851  .debug_str:0000000000027e79 .LASF1856
C:\Users\CYMR90~1\AppData\Local\Temp\ccYIfAxE.s:22028  .debug_str:00000000000091e9 .LASF1857
C:\Users\CYMR90~1\AppData\Local\Temp\ccYIfAxE.s:22896  .debug_str:000000000000c94d .LASF1858
C:\Users\CYMR90~1\AppData\Local\Temp\ccYIfAxE.s:29953  .debug_str:0000000000028580 .LASF1859
C:\Users\CYMR90~1\AppData\Local\Temp\ccYIfAxE.s:25130  .debug_str:00000000000153fe .LASF1860
C:\Users\CYMR90~1\AppData\Local\Temp\ccYIfAxE.s:26071  .debug_str:0000000000018e95 .LASF1861
C:\Users\CYMR90~1\AppData\Local\Temp\ccYIfAxE.s:20784  .debug_str:00000000000042cf .LASF1862
C:\Users\CYMR90~1\AppData\Local\Temp\ccYIfAxE.s:21544  .debug_str:000000000000717f .LASF1863
C:\Users\CYMR90~1\AppData\Local\Temp\ccYIfAxE.s:25979  .debug_str:0000000000018830 .LASF1864
C:\Users\CYMR90~1\AppData\Local\Temp\ccYIfAxE.s:21172  .debug_str:0000000000005b23 .LASF1865
C:\Users\CYMR90~1\AppData\Local\Temp\ccYIfAxE.s:28675  .debug_str:0000000000023349 .LASF1866
C:\Users\CYMR90~1\AppData\Local\Temp\ccYIfAxE.s:27879  .debug_str:000000000002034b .LASF1867
C:\Users\CYMR90~1\AppData\Local\Temp\ccYIfAxE.s:22828  .debug_str:000000000000c526 .LASF1868
C:\Users\CYMR90~1\AppData\Local\Temp\ccYIfAxE.s:19856  .debug_str:00000000000008a6 .LASF1869
C:\Users\CYMR90~1\AppData\Local\Temp\ccYIfAxE.s:20230  .debug_str:0000000000001f67 .LASF1870
C:\Users\CYMR90~1\AppData\Local\Temp\ccYIfAxE.s:19936  .debug_str:0000000000000dcd .LASF1871
C:\Users\CYMR90~1\AppData\Local\Temp\ccYIfAxE.s:29315  .debug_str:0000000000025c52 .LASF1872
C:\Users\CYMR90~1\AppData\Local\Temp\ccYIfAxE.s:25593  .debug_str:00000000000171b0 .LASF1873
C:\Users\CYMR90~1\AppData\Local\Temp\ccYIfAxE.s:21720  .debug_str:0000000000007d64 .LASF1874
C:\Users\CYMR90~1\AppData\Local\Temp\ccYIfAxE.s:22614  .debug_str:000000000000b66e .LASF1875
C:\Users\CYMR90~1\AppData\Local\Temp\ccYIfAxE.s:30425  .debug_str:000000000002a3f8 .LASF1876
C:\Users\CYMR90~1\AppData\Local\Temp\ccYIfAxE.s:20558  .debug_str:00000000000033da .LASF1877
C:\Users\CYMR90~1\AppData\Local\Temp\ccYIfAxE.s:22646  .debug_str:000000000000b904 .LASF1878
C:\Users\CYMR90~1\AppData\Local\Temp\ccYIfAxE.s:23668  .debug_str:000000000000f8f2 .LASF1879
C:\Users\CYMR90~1\AppData\Local\Temp\ccYIfAxE.s:21986  .debug_str:0000000000008f1c .LASF1880
C:\Users\CYMR90~1\AppData\Local\Temp\ccYIfAxE.s:27667  .debug_str:000000000001f68d .LASF1881
C:\Users\CYMR90~1\AppData\Local\Temp\ccYIfAxE.s:19974  .debug_str:0000000000001074 .LASF1882
C:\Users\CYMR90~1\AppData\Local\Temp\ccYIfAxE.s:28081  .debug_str:0000000000020faf .LASF1883
C:\Users\CYMR90~1\AppData\Local\Temp\ccYIfAxE.s:30851  .debug_str:000000000002bd59 .LASF1884
C:\Users\CYMR90~1\AppData\Local\Temp\ccYIfAxE.s:27781  .debug_str:000000000001fd46 .LASF1885
C:\Users\CYMR90~1\AppData\Local\Temp\ccYIfAxE.s:29969  .debug_str:0000000000028680 .LASF1886
C:\Users\CYMR90~1\AppData\Local\Temp\ccYIfAxE.s:22206  .debug_str:0000000000009cb2 .LASF1887
C:\Users\CYMR90~1\AppData\Local\Temp\ccYIfAxE.s:22018  .debug_str:0000000000009140 .LASF1888
C:\Users\CYMR90~1\AppData\Local\Temp\ccYIfAxE.s:30883  .debug_str:000000000002bf3a .LASF1889
C:\Users\CYMR90~1\AppData\Local\Temp\ccYIfAxE.s:26219  .debug_str:000000000001986d .LASF1890
C:\Users\CYMR90~1\AppData\Local\Temp\ccYIfAxE.s:22198  .debug_str:0000000000009c0c .LASF1891
C:\Users\CYMR90~1\AppData\Local\Temp\ccYIfAxE.s:28223  .debug_str:000000000002178b .LASF1892
C:\Users\CYMR90~1\AppData\Local\Temp\ccYIfAxE.s:21496  .debug_str:0000000000006e79 .LASF1893
C:\Users\CYMR90~1\AppData\Local\Temp\ccYIfAxE.s:22012  .debug_str:00000000000090d4 .LASF1894
C:\Users\CYMR90~1\AppData\Local\Temp\ccYIfAxE.s:23288  .debug_str:000000000000e2b3 .LASF1895
C:\Users\CYMR90~1\AppData\Local\Temp\ccYIfAxE.s:26291  .debug_str:0000000000019daf .LASF1896
C:\Users\CYMR90~1\AppData\Local\Temp\ccYIfAxE.s:20180  .debug_str:0000000000001ca9 .LASF1897
C:\Users\CYMR90~1\AppData\Local\Temp\ccYIfAxE.s:29693  .debug_str:0000000000027470 .LASF1898
C:\Users\CYMR90~1\AppData\Local\Temp\ccYIfAxE.s:26467  .debug_str:000000000001a959 .LASF1899
C:\Users\CYMR90~1\AppData\Local\Temp\ccYIfAxE.s:23102  .debug_str:000000000000d7d2 .LASF1900
C:\Users\CYMR90~1\AppData\Local\Temp\ccYIfAxE.s:19774  .debug_str:00000000000003f7 .LASF1901
C:\Users\CYMR90~1\AppData\Local\Temp\ccYIfAxE.s:20624  .debug_str:000000000000381d .LASF1902
C:\Users\CYMR90~1\AppData\Local\Temp\ccYIfAxE.s:22730  .debug_str:000000000000be6d .LASF1903
C:\Users\CYMR90~1\AppData\Local\Temp\ccYIfAxE.s:31133  .debug_str:000000000002cfb0 .LASF1904
C:\Users\CYMR90~1\AppData\Local\Temp\ccYIfAxE.s:25532  .debug_str:0000000000016c44 .LASF1905
C:\Users\CYMR90~1\AppData\Local\Temp\ccYIfAxE.s:22166  .debug_str:00000000000099b9 .LASF1906
C:\Users\CYMR90~1\AppData\Local\Temp\ccYIfAxE.s:30047  .debug_str:0000000000028c56 .LASF1907
C:\Users\CYMR90~1\AppData\Local\Temp\ccYIfAxE.s:27017  .debug_str:000000000001cd36 .LASF1908
C:\Users\CYMR90~1\AppData\Local\Temp\ccYIfAxE.s:21160  .debug_str:0000000000005a59 .LASF1909
C:\Users\CYMR90~1\AppData\Local\Temp\ccYIfAxE.s:30413  .debug_str:000000000002a338 .LASF1910
C:\Users\CYMR90~1\AppData\Local\Temp\ccYIfAxE.s:26643  .debug_str:000000000001b575 .LASF1911
C:\Users\CYMR90~1\AppData\Local\Temp\ccYIfAxE.s:26321  .debug_str:0000000000019f9f .LASF1912
C:\Users\CYMR90~1\AppData\Local\Temp\ccYIfAxE.s:22634  .debug_str:000000000000b847 .LASF1913
C:\Users\CYMR90~1\AppData\Local\Temp\ccYIfAxE.s:22462  .debug_str:000000000000ac6e .LASF1914
C:\Users\CYMR90~1\AppData\Local\Temp\ccYIfAxE.s:27985  .debug_str:0000000000020992 .LASF1915
C:\Users\CYMR90~1\AppData\Local\Temp\ccYIfAxE.s:29289  .debug_str:0000000000025a6b .LASF1916
C:\Users\CYMR90~1\AppData\Local\Temp\ccYIfAxE.s:25829  .debug_str:0000000000017f67 .LASF1917
C:\Users\CYMR90~1\AppData\Local\Temp\ccYIfAxE.s:22368  .debug_str:000000000000a6ce .LASF1918
C:\Users\CYMR90~1\AppData\Local\Temp\ccYIfAxE.s:30475  .debug_str:000000000002a6a0 .LASF1919
C:\Users\CYMR90~1\AppData\Local\Temp\ccYIfAxE.s:26989  .debug_str:000000000001cab1 .LASF1920
C:\Users\CYMR90~1\AppData\Local\Temp\ccYIfAxE.s:22676  .debug_str:000000000000bb20 .LASF1921
C:\Users\CYMR90~1\AppData\Local\Temp\ccYIfAxE.s:21564  .debug_str:00000000000072c9 .LASF1922
C:\Users\CYMR90~1\AppData\Local\Temp\ccYIfAxE.s:28053  .debug_str:0000000000020e09 .LASF1923
C:\Users\CYMR90~1\AppData\Local\Temp\ccYIfAxE.s:30191  .debug_str:00000000000295ad .LASF1924
C:\Users\CYMR90~1\AppData\Local\Temp\ccYIfAxE.s:22484  .debug_str:000000000000adf0 .LASF1925
C:\Users\CYMR90~1\AppData\Local\Temp\ccYIfAxE.s:27875  .debug_str:0000000000020300 .LASF1926
C:\Users\CYMR90~1\AppData\Local\Temp\ccYIfAxE.s:26877  .debug_str:000000000001c41d .LASF1927
C:\Users\CYMR90~1\AppData\Local\Temp\ccYIfAxE.s:20664  .debug_str:0000000000003a9f .LASF1928
C:\Users\CYMR90~1\AppData\Local\Temp\ccYIfAxE.s:21616  .debug_str:000000000000768f .LASF1929
C:\Users\CYMR90~1\AppData\Local\Temp\ccYIfAxE.s:27801  .debug_str:000000000001fe70 .LASF1930
C:\Users\CYMR90~1\AppData\Local\Temp\ccYIfAxE.s:31161  .debug_str:000000000002d1b3 .LASF1931
C:\Users\CYMR90~1\AppData\Local\Temp\ccYIfAxE.s:30843  .debug_str:000000000002bcbf .LASF1932
C:\Users\CYMR90~1\AppData\Local\Temp\ccYIfAxE.s:21734  .debug_str:0000000000007e30 .LASF1933
C:\Users\CYMR90~1\AppData\Local\Temp\ccYIfAxE.s:23822  .debug_str:0000000000010227 .LASF1934
C:\Users\CYMR90~1\AppData\Local\Temp\ccYIfAxE.s:26957  .debug_str:000000000001c8a0 .LASF1935
C:\Users\CYMR90~1\AppData\Local\Temp\ccYIfAxE.s:21202  .debug_str:0000000000005d10 .LASF1936
C:\Users\CYMR90~1\AppData\Local\Temp\ccYIfAxE.s:26811  .debug_str:000000000001bffd .LASF1937
C:\Users\CYMR90~1\AppData\Local\Temp\ccYIfAxE.s:25777  .debug_str:0000000000017c76 .LASF1938
C:\Users\CYMR90~1\AppData\Local\Temp\ccYIfAxE.s:25074  .debug_str:00000000000150ad .LASF1939
C:\Users\CYMR90~1\AppData\Local\Temp\ccYIfAxE.s:21924  .debug_str:0000000000008b3b .LASF1940
C:\Users\CYMR90~1\AppData\Local\Temp\ccYIfAxE.s:30253  .debug_str:000000000002995f .LASF1941
C:\Users\CYMR90~1\AppData\Local\Temp\ccYIfAxE.s:27069  .debug_str:000000000001d078 .LASF1942
C:\Users\CYMR90~1\AppData\Local\Temp\ccYIfAxE.s:22866  .debug_str:000000000000c765 .LASF1943
C:\Users\CYMR90~1\AppData\Local\Temp\ccYIfAxE.s:24028  .debug_str:0000000000010e6a .LASF1944
C:\Users\CYMR90~1\AppData\Local\Temp\ccYIfAxE.s:27913  .debug_str:000000000002056b .LASF1945
C:\Users\CYMR90~1\AppData\Local\Temp\ccYIfAxE.s:24780  .debug_str:0000000000013ee2 .LASF1946
C:\Users\CYMR90~1\AppData\Local\Temp\ccYIfAxE.s:21510  .debug_str:0000000000006f79 .LASF1947
C:\Users\CYMR90~1\AppData\Local\Temp\ccYIfAxE.s:20384  .debug_str:00000000000028c0 .LASF1948
C:\Users\CYMR90~1\AppData\Local\Temp\ccYIfAxE.s:26699  .debug_str:000000000001b94a .LASF1949
C:\Users\CYMR90~1\AppData\Local\Temp\ccYIfAxE.s:23544  .debug_str:000000000000f195 .LASF1950
C:\Users\CYMR90~1\AppData\Local\Temp\ccYIfAxE.s:20250  .debug_str:0000000000002079 .LASF1951
C:\Users\CYMR90~1\AppData\Local\Temp\ccYIfAxE.s:28691  .debug_str:000000000002341a .LASF1952
C:\Users\CYMR90~1\AppData\Local\Temp\ccYIfAxE.s:29425  .debug_str:00000000000263f7 .LASF1953
C:\Users\CYMR90~1\AppData\Local\Temp\ccYIfAxE.s:24908  .debug_str:00000000000146bd .LASF1954
C:\Users\CYMR90~1\AppData\Local\Temp\ccYIfAxE.s:28205  .debug_str:0000000000021683 .LASF1955
C:\Users\CYMR90~1\AppData\Local\Temp\ccYIfAxE.s:28885  .debug_str:0000000000023f5a .LASF1956
C:\Users\CYMR90~1\AppData\Local\Temp\ccYIfAxE.s:20304  .debug_str:000000000000237b .LASF1957
C:\Users\CYMR90~1\AppData\Local\Temp\ccYIfAxE.s:30681  .debug_str:000000000002b2e2 .LASF1958
C:\Users\CYMR90~1\AppData\Local\Temp\ccYIfAxE.s:21740  .debug_str:0000000000007ea1 .LASF1959
C:\Users\CYMR90~1\AppData\Local\Temp\ccYIfAxE.s:30237  .debug_str:0000000000029861 .LASF1960
C:\Users\CYMR90~1\AppData\Local\Temp\ccYIfAxE.s:27025  .debug_str:000000000001cdbc .LASF1961
C:\Users\CYMR90~1\AppData\Local\Temp\ccYIfAxE.s:19818  .debug_str:0000000000000655 .LASF1962
C:\Users\CYMR90~1\AppData\Local\Temp\ccYIfAxE.s:25308  .debug_str:0000000000015e19 .LASF1963
C:\Users\CYMR90~1\AppData\Local\Temp\ccYIfAxE.s:29269  .debug_str:00000000000258ee .LASF1964
C:\Users\CYMR90~1\AppData\Local\Temp\ccYIfAxE.s:21568  .debug_str:0000000000007334 .LASF1965
C:\Users\CYMR90~1\AppData\Local\Temp\ccYIfAxE.s:27159  .debug_str:000000000001d721 .LASF1966
C:\Users\CYMR90~1\AppData\Local\Temp\ccYIfAxE.s:30781  .debug_str:000000000002b87b .LASF1967
C:\Users\CYMR90~1\AppData\Local\Temp\ccYIfAxE.s:28263  .debug_str:0000000000021a94 .LASF1968
C:\Users\CYMR90~1\AppData\Local\Temp\ccYIfAxE.s:28577  .debug_str:0000000000022d1d .LASF1969
C:\Users\CYMR90~1\AppData\Local\Temp\ccYIfAxE.s:21552  .debug_str:00000000000071f7 .LASF1970
C:\Users\CYMR90~1\AppData\Local\Temp\ccYIfAxE.s:28581  .debug_str:0000000000022d4e .LASF1971
C:\Users\CYMR90~1\AppData\Local\Temp\ccYIfAxE.s:29305  .debug_str:0000000000025b92 .LASF1972
C:\Users\CYMR90~1\AppData\Local\Temp\ccYIfAxE.s:26309  .debug_str:0000000000019ee4 .LASF1973
C:\Users\CYMR90~1\AppData\Local\Temp\ccYIfAxE.s:26113  .debug_str:0000000000019148 .LASF1974
C:\Users\CYMR90~1\AppData\Local\Temp\ccYIfAxE.s:22876  .debug_str:000000000000c7e8 .LASF1975
C:\Users\CYMR90~1\AppData\Local\Temp\ccYIfAxE.s:21758  .debug_str:0000000000008068 .LASF1976
C:\Users\CYMR90~1\AppData\Local\Temp\ccYIfAxE.s:22116  .debug_str:00000000000096ca .LASF1977
C:\Users\CYMR90~1\AppData\Local\Temp\ccYIfAxE.s:28439  .debug_str:0000000000022503 .LASF1978
C:\Users\CYMR90~1\AppData\Local\Temp\ccYIfAxE.s:21018  .debug_str:00000000000051c0 .LASF1979
C:\Users\CYMR90~1\AppData\Local\Temp\ccYIfAxE.s:29203  .debug_str:00000000000253cb .LASF1980
C:\Users\CYMR90~1\AppData\Local\Temp\ccYIfAxE.s:29057  .debug_str:0000000000024a93 .LASF1981
C:\Users\CYMR90~1\AppData\Local\Temp\ccYIfAxE.s:28891  .debug_str:0000000000023fb5 .LASF1982
C:\Users\CYMR90~1\AppData\Local\Temp\ccYIfAxE.s:29745  .debug_str:0000000000027774 .LASF1983
C:\Users\CYMR90~1\AppData\Local\Temp\ccYIfAxE.s:30685  .debug_str:000000000002b338 .LASF1984
C:\Users\CYMR90~1\AppData\Local\Temp\ccYIfAxE.s:27561  .debug_str:000000000001efee .LASF1985
C:\Users\CYMR90~1\AppData\Local\Temp\ccYIfAxE.s:26731  .debug_str:000000000001bb5b .LASF1986
C:\Users\CYMR90~1\AppData\Local\Temp\ccYIfAxE.s:24984  .debug_str:0000000000014b39 .LASF1987
C:\Users\CYMR90~1\AppData\Local\Temp\ccYIfAxE.s:26011  .debug_str:0000000000018a47 .LASF1988
C:\Users\CYMR90~1\AppData\Local\Temp\ccYIfAxE.s:22964  .debug_str:000000000000ceb7 .LASF1989
C:\Users\CYMR90~1\AppData\Local\Temp\ccYIfAxE.s:20756  .debug_str:000000000000409a .LASF1990
C:\Users\CYMR90~1\AppData\Local\Temp\ccYIfAxE.s:23028  .debug_str:000000000000d247 .LASF1991
C:\Users\CYMR90~1\AppData\Local\Temp\ccYIfAxE.s:23950  .debug_str:0000000000010975 .LASF1992
C:\Users\CYMR90~1\AppData\Local\Temp\ccYIfAxE.s:20920  .debug_str:0000000000004c04 .LASF1993
C:\Users\CYMR90~1\AppData\Local\Temp\ccYIfAxE.s:19970  .debug_str:0000000000001044 .LASF1994
C:\Users\CYMR90~1\AppData\Local\Temp\ccYIfAxE.s:29323  .debug_str:0000000000025ce6 .LASF1995
C:\Users\CYMR90~1\AppData\Local\Temp\ccYIfAxE.s:20622  .debug_str:00000000000037e9 .LASF1996
C:\Users\CYMR90~1\AppData\Local\Temp\ccYIfAxE.s:29795  .debug_str:0000000000027b68 .LASF1997
C:\Users\CYMR90~1\AppData\Local\Temp\ccYIfAxE.s:21894  .debug_str:0000000000008965 .LASF1998
C:\Users\CYMR90~1\AppData\Local\Temp\ccYIfAxE.s:25931  .debug_str:0000000000018575 .LASF1999
C:\Users\CYMR90~1\AppData\Local\Temp\ccYIfAxE.s:25414  .debug_str:0000000000016553 .LASF2000
C:\Users\CYMR90~1\AppData\Local\Temp\ccYIfAxE.s:24194  .debug_str:0000000000011860 .LASF2001
C:\Users\CYMR90~1\AppData\Local\Temp\ccYIfAxE.s:28589  .debug_str:0000000000022de0 .LASF2002
C:\Users\CYMR90~1\AppData\Local\Temp\ccYIfAxE.s:28129  .debug_str:0000000000021246 .LASF2003
C:\Users\CYMR90~1\AppData\Local\Temp\ccYIfAxE.s:24940  .debug_str:0000000000014846 .LASF2004
C:\Users\CYMR90~1\AppData\Local\Temp\ccYIfAxE.s:28477  .debug_str:0000000000022760 .LASF2005
C:\Users\CYMR90~1\AppData\Local\Temp\ccYIfAxE.s:25623  .debug_str:0000000000017366 .LASF2006
C:\Users\CYMR90~1\AppData\Local\Temp\ccYIfAxE.s:30935  .debug_str:000000000002c2db .LASF2007
C:\Users\CYMR90~1\AppData\Local\Temp\ccYIfAxE.s:21062  .debug_str:0000000000005483 .LASF2008
C:\Users\CYMR90~1\AppData\Local\Temp\ccYIfAxE.s:24700  .debug_str:0000000000013a3f .LASF2009
C:\Users\CYMR90~1\AppData\Local\Temp\ccYIfAxE.s:27455  .debug_str:000000000001e991 .LASF2010
C:\Users\CYMR90~1\AppData\Local\Temp\ccYIfAxE.s:22992  .debug_str:000000000000d04d .LASF2011
C:\Users\CYMR90~1\AppData\Local\Temp\ccYIfAxE.s:20162  .debug_str:0000000000001bab .LASF2012
C:\Users\CYMR90~1\AppData\Local\Temp\ccYIfAxE.s:28769  .debug_str:0000000000023856 .LASF2013
C:\Users\CYMR90~1\AppData\Local\Temp\ccYIfAxE.s:28529  .debug_str:0000000000022a13 .LASF2014
C:\Users\CYMR90~1\AppData\Local\Temp\ccYIfAxE.s:26445  .debug_str:000000000001a801 .LASF2015
C:\Users\CYMR90~1\AppData\Local\Temp\ccYIfAxE.s:30401  .debug_str:000000000002a2a5 .LASF2016
C:\Users\CYMR90~1\AppData\Local\Temp\ccYIfAxE.s:28683  .debug_str:00000000000233c3 .LASF2017
C:\Users\CYMR90~1\AppData\Local\Temp\ccYIfAxE.s:30845  .debug_str:000000000002bcef .LASF2018
C:\Users\CYMR90~1\AppData\Local\Temp\ccYIfAxE.s:27203  .debug_str:000000000001d9c8 .LASF2019
C:\Users\CYMR90~1\AppData\Local\Temp\ccYIfAxE.s:26985  .debug_str:000000000001ca76 .LASF2020
C:\Users\CYMR90~1\AppData\Local\Temp\ccYIfAxE.s:28723  .debug_str:00000000000235cc .LASF2021
C:\Users\CYMR90~1\AppData\Local\Temp\ccYIfAxE.s:29735  .debug_str:00000000000276f6 .LASF2022
C:\Users\CYMR90~1\AppData\Local\Temp\ccYIfAxE.s:24072  .debug_str:000000000001113a .LASF2023
C:\Users\CYMR90~1\AppData\Local\Temp\ccYIfAxE.s:29671  .debug_str:00000000000272d4 .LASF2024
C:\Users\CYMR90~1\AppData\Local\Temp\ccYIfAxE.s:22704  .debug_str:000000000000bd20 .LASF2025
C:\Users\CYMR90~1\AppData\Local\Temp\ccYIfAxE.s:30795  .debug_str:000000000002b94a .LASF2026
C:\Users\CYMR90~1\AppData\Local\Temp\ccYIfAxE.s:20582  .debug_str:0000000000003565 .LASF2027
C:\Users\CYMR90~1\AppData\Local\Temp\ccYIfAxE.s:28781  .debug_str:00000000000238e6 .LASF2028
C:\Users\CYMR90~1\AppData\Local\Temp\ccYIfAxE.s:27769  .debug_str:000000000001fc72 .LASF2029
C:\Users\CYMR90~1\AppData\Local\Temp\ccYIfAxE.s:30353  .debug_str:000000000002a005 .LASF2030
C:\Users\CYMR90~1\AppData\Local\Temp\ccYIfAxE.s:25833  .debug_str:0000000000017fa8 .LASF2031
C:\Users\CYMR90~1\AppData\Local\Temp\ccYIfAxE.s:22456  .debug_str:000000000000ac29 .LASF2032
C:\Users\CYMR90~1\AppData\Local\Temp\ccYIfAxE.s:23686  .debug_str:000000000000faa7 .LASF2033
C:\Users\CYMR90~1\AppData\Local\Temp\ccYIfAxE.s:22682  .debug_str:000000000000bb6f .LASF2034
C:\Users\CYMR90~1\AppData\Local\Temp\ccYIfAxE.s:24270  .debug_str:0000000000011e39 .LASF2035
C:\Users\CYMR90~1\AppData\Local\Temp\ccYIfAxE.s:28241  .debug_str:0000000000021938 .LASF2036
C:\Users\CYMR90~1\AppData\Local\Temp\ccYIfAxE.s:28661  .debug_str:000000000002327c .LASF2037
C:\Users\CYMR90~1\AppData\Local\Temp\ccYIfAxE.s:29247  .debug_str:00000000000256da .LASF2038
C:\Users\CYMR90~1\AppData\Local\Temp\ccYIfAxE.s:24366  .debug_str:0000000000012412 .LASF2039
C:\Users\CYMR90~1\AppData\Local\Temp\ccYIfAxE.s:26385  .debug_str:000000000001a34e .LASF2040
C:\Users\CYMR90~1\AppData\Local\Temp\ccYIfAxE.s:23022  .debug_str:000000000000d1d7 .LASF2041
C:\Users\CYMR90~1\AppData\Local\Temp\ccYIfAxE.s:20392  .debug_str:0000000000002933 .LASF2042
C:\Users\CYMR90~1\AppData\Local\Temp\ccYIfAxE.s:21162  .debug_str:0000000000005a97 .LASF2043
C:\Users\CYMR90~1\AppData\Local\Temp\ccYIfAxE.s:31213  .debug_str:000000000002d554 .LASF2044
C:\Users\CYMR90~1\AppData\Local\Temp\ccYIfAxE.s:24672  .debug_str:00000000000137ca .LASF2045
C:\Users\CYMR90~1\AppData\Local\Temp\ccYIfAxE.s:28545  .debug_str:0000000000022ae9 .LASF2046
C:\Users\CYMR90~1\AppData\Local\Temp\ccYIfAxE.s:30203  .debug_str:0000000000029684 .LASF2047
C:\Users\CYMR90~1\AppData\Local\Temp\ccYIfAxE.s:26859  .debug_str:000000000001c304 .LASF2048
C:\Users\CYMR90~1\AppData\Local\Temp\ccYIfAxE.s:27411  .debug_str:000000000001e6ff .LASF2049
C:\Users\CYMR90~1\AppData\Local\Temp\ccYIfAxE.s:21228  .debug_str:0000000000005e8a .LASF2050
C:\Users\CYMR90~1\AppData\Local\Temp\ccYIfAxE.s:20568  .debug_str:000000000000346b .LASF2051
C:\Users\CYMR90~1\AppData\Local\Temp\ccYIfAxE.s:22576  .debug_str:000000000000b47e .LASF2052
C:\Users\CYMR90~1\AppData\Local\Temp\ccYIfAxE.s:26533  .debug_str:000000000001ae09 .LASF2053
C:\Users\CYMR90~1\AppData\Local\Temp\ccYIfAxE.s:30639  .debug_str:000000000002b095 .LASF2054
C:\Users\CYMR90~1\AppData\Local\Temp\ccYIfAxE.s:21028  .debug_str:0000000000005268 .LASF2055
C:\Users\CYMR90~1\AppData\Local\Temp\ccYIfAxE.s:29627  .debug_str:0000000000027045 .LASF2056
C:\Users\CYMR90~1\AppData\Local\Temp\ccYIfAxE.s:27579  .debug_str:000000000001f0fc .LASF2057
C:\Users\CYMR90~1\AppData\Local\Temp\ccYIfAxE.s:25679  .debug_str:000000000001766d .LASF2058
C:\Users\CYMR90~1\AppData\Local\Temp\ccYIfAxE.s:22446  .debug_str:000000000000ab7e .LASF2059
C:\Users\CYMR90~1\AppData\Local\Temp\ccYIfAxE.s:23280  .debug_str:000000000000e231 .LASF2060
C:\Users\CYMR90~1\AppData\Local\Temp\ccYIfAxE.s:28039  .debug_str:0000000000020d46 .LASF2061
C:\Users\CYMR90~1\AppData\Local\Temp\ccYIfAxE.s:24808  .debug_str:0000000000014083 .LASF2062
C:\Users\CYMR90~1\AppData\Local\Temp\ccYIfAxE.s:20364  .debug_str:0000000000002750 .LASF2063
C:\Users\CYMR90~1\AppData\Local\Temp\ccYIfAxE.s:26587  .debug_str:000000000001b17f .LASF2064
C:\Users\CYMR90~1\AppData\Local\Temp\ccYIfAxE.s:27545  .debug_str:000000000001ef0c .LASF2065
C:\Users\CYMR90~1\AppData\Local\Temp\ccYIfAxE.s:22132  .debug_str:00000000000097aa .LASF2066
C:\Users\CYMR90~1\AppData\Local\Temp\ccYIfAxE.s:22608  .debug_str:000000000000b610 .LASF2067
C:\Users\CYMR90~1\AppData\Local\Temp\ccYIfAxE.s:25783  .debug_str:0000000000017cd7 .LASF2068
C:\Users\CYMR90~1\AppData\Local\Temp\ccYIfAxE.s:25386  .debug_str:0000000000016389 .LASF2069
C:\Users\CYMR90~1\AppData\Local\Temp\ccYIfAxE.s:23164  .debug_str:000000000000db71 .LASF2070
C:\Users\CYMR90~1\AppData\Local\Temp\ccYIfAxE.s:21196  .debug_str:0000000000005cc9 .LASF2071
C:\Users\CYMR90~1\AppData\Local\Temp\ccYIfAxE.s:19726  .debug_str:0000000000000182 .LASF2072
C:\Users\CYMR90~1\AppData\Local\Temp\ccYIfAxE.s:23506  .debug_str:000000000000efc3 .LASF2073
C:\Users\CYMR90~1\AppData\Local\Temp\ccYIfAxE.s:22744  .debug_str:000000000000bfab .LASF2074
C:\Users\CYMR90~1\AppData\Local\Temp\ccYIfAxE.s:31015  .debug_str:000000000002c830 .LASF2075
C:\Users\CYMR90~1\AppData\Local\Temp\ccYIfAxE.s:22004  .debug_str:0000000000009096 .LASF2076
C:\Users\CYMR90~1\AppData\Local\Temp\ccYIfAxE.s:30279  .debug_str:0000000000029b4c .LASF2077
C:\Users\CYMR90~1\AppData\Local\Temp\ccYIfAxE.s:21042  .debug_str:0000000000005339 .LASF2078
C:\Users\CYMR90~1\AppData\Local\Temp\ccYIfAxE.s:20128  .debug_str:0000000000001982 .LASF2079
C:\Users\CYMR90~1\AppData\Local\Temp\ccYIfAxE.s:28809  .debug_str:0000000000023aa1 .LASF2080
C:\Users\CYMR90~1\AppData\Local\Temp\ccYIfAxE.s:30167  .debug_str:0000000000029431 .LASF2081
C:\Users\CYMR90~1\AppData\Local\Temp\ccYIfAxE.s:30255  .debug_str:0000000000029987 .LASF2082
C:\Users\CYMR90~1\AppData\Local\Temp\ccYIfAxE.s:24394  .debug_str:00000000000125a7 .LASF2083
C:\Users\CYMR90~1\AppData\Local\Temp\ccYIfAxE.s:21780  .debug_str:00000000000081c8 .LASF2084
C:\Users\CYMR90~1\AppData\Local\Temp\ccYIfAxE.s:30025  .debug_str:0000000000028b0b .LASF2085
C:\Users\CYMR90~1\AppData\Local\Temp\ccYIfAxE.s:20020  .debug_str:0000000000001313 .LASF2086
C:\Users\CYMR90~1\AppData\Local\Temp\ccYIfAxE.s:28237  .debug_str:0000000000021900 .LASF2087
C:\Users\CYMR90~1\AppData\Local\Temp\ccYIfAxE.s:26649  .debug_str:000000000001b5e8 .LASF2088
C:\Users\CYMR90~1\AppData\Local\Temp\ccYIfAxE.s:27739  .debug_str:000000000001fac6 .LASF2089
C:\Users\CYMR90~1\AppData\Local\Temp\ccYIfAxE.s:25611  .debug_str:00000000000172ad .LASF2090
C:\Users\CYMR90~1\AppData\Local\Temp\ccYIfAxE.s:24328  .debug_str:000000000001217f .LASF2091
C:\Users\CYMR90~1\AppData\Local\Temp\ccYIfAxE.s:25707  .debug_str:00000000000177f1 .LASF2092
C:\Users\CYMR90~1\AppData\Local\Temp\ccYIfAxE.s:24840  .debug_str:0000000000014258 .LASF2093
C:\Users\CYMR90~1\AppData\Local\Temp\ccYIfAxE.s:31009  .debug_str:000000000002c7dc .LASF2094
C:\Users\CYMR90~1\AppData\Local\Temp\ccYIfAxE.s:20782  .debug_str:00000000000042b1 .LASF2095
C:\Users\CYMR90~1\AppData\Local\Temp\ccYIfAxE.s:22244  .debug_str:0000000000009eea .LASF2096
C:\Users\CYMR90~1\AppData\Local\Temp\ccYIfAxE.s:20532  .debug_str:000000000000320c .LASF2097
C:\Users\CYMR90~1\AppData\Local\Temp\ccYIfAxE.s:29435  .debug_str:0000000000026495 .LASF2098
C:\Users\CYMR90~1\AppData\Local\Temp\ccYIfAxE.s:23856  .debug_str:000000000001045d .LASF2099
C:\Users\CYMR90~1\AppData\Local\Temp\ccYIfAxE.s:22616  .debug_str:000000000000b697 .LASF2100
C:\Users\CYMR90~1\AppData\Local\Temp\ccYIfAxE.s:21378  .debug_str:0000000000006748 .LASF2101
C:\Users\CYMR90~1\AppData\Local\Temp\ccYIfAxE.s:20444  .debug_str:0000000000002c93 .LASF2102
C:\Users\CYMR90~1\AppData\Local\Temp\ccYIfAxE.s:22284  .debug_str:000000000000a138 .LASF2103
C:\Users\CYMR90~1\AppData\Local\Temp\ccYIfAxE.s:30965  .debug_str:000000000002c4bf .LASF2104
C:\Users\CYMR90~1\AppData\Local\Temp\ccYIfAxE.s:25705  .debug_str:00000000000177cd .LASF2105
C:\Users\CYMR90~1\AppData\Local\Temp\ccYIfAxE.s:20554  .debug_str:0000000000003382 .LASF2106
C:\Users\CYMR90~1\AppData\Local\Temp\ccYIfAxE.s:30225  .debug_str:00000000000297b0 .LASF2107
C:\Users\CYMR90~1\AppData\Local\Temp\ccYIfAxE.s:29035  .debug_str:000000000002492f .LASF2108
C:\Users\CYMR90~1\AppData\Local\Temp\ccYIfAxE.s:20572  .debug_str:00000000000034a9 .LASF2109
C:\Users\CYMR90~1\AppData\Local\Temp\ccYIfAxE.s:23068  .debug_str:000000000000d4fc .LASF2110
C:\Users\CYMR90~1\AppData\Local\Temp\ccYIfAxE.s:25655  .debug_str:0000000000017520 .LASF2111
C:\Users\CYMR90~1\AppData\Local\Temp\ccYIfAxE.s:27759  .debug_str:000000000001fbec .LASF2112
C:\Users\CYMR90~1\AppData\Local\Temp\ccYIfAxE.s:30393  .debug_str:000000000002a240 .LASF2113
C:\Users\CYMR90~1\AppData\Local\Temp\ccYIfAxE.s:23562  .debug_str:000000000000f297 .LASF2114
C:\Users\CYMR90~1\AppData\Local\Temp\ccYIfAxE.s:24726  .debug_str:0000000000013ba2 .LASF2115
C:\Users\CYMR90~1\AppData\Local\Temp\ccYIfAxE.s:26631  .debug_str:000000000001b49a .LASF2116
C:\Users\CYMR90~1\AppData\Local\Temp\ccYIfAxE.s:24920  .debug_str:000000000001475a .LASF2117
C:\Users\CYMR90~1\AppData\Local\Temp\ccYIfAxE.s:29047  .debug_str:0000000000024a19 .LASF2118
C:\Users\CYMR90~1\AppData\Local\Temp\ccYIfAxE.s:27697  .debug_str:000000000001f869 .LASF2119
C:\Users\CYMR90~1\AppData\Local\Temp\ccYIfAxE.s:20398  .debug_str:000000000000299f .LASF2120
C:\Users\CYMR90~1\AppData\Local\Temp\ccYIfAxE.s:28143  .debug_str:0000000000021303 .LASF2121
C:\Users\CYMR90~1\AppData\Local\Temp\ccYIfAxE.s:21852  .debug_str:000000000000870f .LASF2122
C:\Users\CYMR90~1\AppData\Local\Temp\ccYIfAxE.s:24778  .debug_str:0000000000013ebe .LASF2123
C:\Users\CYMR90~1\AppData\Local\Temp\ccYIfAxE.s:27439  .debug_str:000000000001e894 .LASF2124
C:\Users\CYMR90~1\AppData\Local\Temp\ccYIfAxE.s:24622  .debug_str:0000000000013462 .LASF2125
C:\Users\CYMR90~1\AppData\Local\Temp\ccYIfAxE.s:25775  .debug_str:0000000000017c4f .LASF2126
C:\Users\CYMR90~1\AppData\Local\Temp\ccYIfAxE.s:29759  .debug_str:000000000002787f .LASF2127
C:\Users\CYMR90~1\AppData\Local\Temp\ccYIfAxE.s:28257  .debug_str:0000000000021a20 .LASF2128
C:\Users\CYMR90~1\AppData\Local\Temp\ccYIfAxE.s:24068  .debug_str:00000000000110ff .LASF2129
C:\Users\CYMR90~1\AppData\Local\Temp\ccYIfAxE.s:28159  .debug_str:00000000000213dd .LASF2130
C:\Users\CYMR90~1\AppData\Local\Temp\ccYIfAxE.s:25999  .debug_str:0000000000018974 .LASF2131
C:\Users\CYMR90~1\AppData\Local\Temp\ccYIfAxE.s:27981  .debug_str:000000000002094d .LASF2132
C:\Users\CYMR90~1\AppData\Local\Temp\ccYIfAxE.s:24262  .debug_str:0000000000011da6 .LASF2133
C:\Users\CYMR90~1\AppData\Local\Temp\ccYIfAxE.s:20540  .debug_str:00000000000032b1 .LASF2134
C:\Users\CYMR90~1\AppData\Local\Temp\ccYIfAxE.s:20274  .debug_str:00000000000021ce .LASF2135
C:\Users\CYMR90~1\AppData\Local\Temp\ccYIfAxE.s:26161  .debug_str:00000000000194f8 .LASF2136
C:\Users\CYMR90~1\AppData\Local\Temp\ccYIfAxE.s:30505  .debug_str:000000000002a86a .LASF2137
C:\Users\CYMR90~1\AppData\Local\Temp\ccYIfAxE.s:21854  .debug_str:0000000000008734 .LASF2138
C:\Users\CYMR90~1\AppData\Local\Temp\ccYIfAxE.s:28359  .debug_str:0000000000022049 .LASF2139
C:\Users\CYMR90~1\AppData\Local\Temp\ccYIfAxE.s:24170  .debug_str:00000000000116ce .LASF2140
C:\Users\CYMR90~1\AppData\Local\Temp\ccYIfAxE.s:23626  .debug_str:000000000000f6b1 .LASF2141
C:\Users\CYMR90~1\AppData\Local\Temp\ccYIfAxE.s:27717  .debug_str:000000000001f992 .LASF2142
C:\Users\CYMR90~1\AppData\Local\Temp\ccYIfAxE.s:28281  .debug_str:0000000000021b84 .LASF2143
C:\Users\CYMR90~1\AppData\Local\Temp\ccYIfAxE.s:24460  .debug_str:00000000000129e0 .LASF2144
C:\Users\CYMR90~1\AppData\Local\Temp\ccYIfAxE.s:20574  .debug_str:00000000000034d0 .LASF2145
C:\Users\CYMR90~1\AppData\Local\Temp\ccYIfAxE.s:19724  .debug_str:000000000000015d .LASF2146
C:\Users\CYMR90~1\AppData\Local\Temp\ccYIfAxE.s:20154  .debug_str:0000000000001b0f .LASF2147
C:\Users\CYMR90~1\AppData\Local\Temp\ccYIfAxE.s:25713  .debug_str:0000000000017847 .LASF2148
C:\Users\CYMR90~1\AppData\Local\Temp\ccYIfAxE.s:25166  .debug_str:0000000000015624 .LASF2149
C:\Users\CYMR90~1\AppData\Local\Temp\ccYIfAxE.s:29781  .debug_str:0000000000027a87 .LASF2150
C:\Users\CYMR90~1\AppData\Local\Temp\ccYIfAxE.s:24728  .debug_str:0000000000013bc9 .LASF2151
C:\Users\CYMR90~1\AppData\Local\Temp\ccYIfAxE.s:23248  .debug_str:000000000000dff2 .LASF2152
C:\Users\CYMR90~1\AppData\Local\Temp\ccYIfAxE.s:30345  .debug_str:0000000000029fa7 .LASF2153
C:\Users\CYMR90~1\AppData\Local\Temp\ccYIfAxE.s:25494  .debug_str:00000000000169b6 .LASF2154
C:\Users\CYMR90~1\AppData\Local\Temp\ccYIfAxE.s:23286  .debug_str:000000000000e29d .LASF2155
C:\Users\CYMR90~1\AppData\Local\Temp\ccYIfAxE.s:20650  .debug_str:00000000000039e9 .LASF2156
C:\Users\CYMR90~1\AppData\Local\Temp\ccYIfAxE.s:29747  .debug_str:0000000000027797 .LASF2157
C:\Users\CYMR90~1\AppData\Local\Temp\ccYIfAxE.s:24106  .debug_str:0000000000011313 .LASF2158
C:\Users\CYMR90~1\AppData\Local\Temp\ccYIfAxE.s:26063  .debug_str:0000000000018d96 .LASF2159
C:\Users\CYMR90~1\AppData\Local\Temp\ccYIfAxE.s:29541  .debug_str:0000000000026b06 .LASF2160
C:\Users\CYMR90~1\AppData\Local\Temp\ccYIfAxE.s:22032  .debug_str:000000000000922b .LASF2161
C:\Users\CYMR90~1\AppData\Local\Temp\ccYIfAxE.s:30489  .debug_str:000000000002a778 .LASF2162
C:\Users\CYMR90~1\AppData\Local\Temp\ccYIfAxE.s:31201  .debug_str:000000000002d41e .LASF2163
C:\Users\CYMR90~1\AppData\Local\Temp\ccYIfAxE.s:20684  .debug_str:0000000000003c0a .LASF2164
C:\Users\CYMR90~1\AppData\Local\Temp\ccYIfAxE.s:28791  .debug_str:0000000000023982 .LASF2165
C:\Users\CYMR90~1\AppData\Local\Temp\ccYIfAxE.s:26145  .debug_str:0000000000019419 .LASF2166
C:\Users\CYMR90~1\AppData\Local\Temp\ccYIfAxE.s:29779  .debug_str:0000000000027a6f .LASF2167
C:\Users\CYMR90~1\AppData\Local\Temp\ccYIfAxE.s:21886  .debug_str:00000000000088f9 .LASF2168
C:\Users\CYMR90~1\AppData\Local\Temp\ccYIfAxE.s:27259  .debug_str:000000000001dd89 .LASF2169
C:\Users\CYMR90~1\AppData\Local\Temp\ccYIfAxE.s:25436  .debug_str:00000000000166a6 .LASF2170
C:\Users\CYMR90~1\AppData\Local\Temp\ccYIfAxE.s:23398  .debug_str:000000000000e906 .LASF2171
C:\Users\CYMR90~1\AppData\Local\Temp\ccYIfAxE.s:23534  .debug_str:000000000000f124 .LASF2172
C:\Users\CYMR90~1\AppData\Local\Temp\ccYIfAxE.s:27721  .debug_str:000000000001f9c9 .LASF2173
C:\Users\CYMR90~1\AppData\Local\Temp\ccYIfAxE.s:25374  .debug_str:00000000000162bd .LASF2174
C:\Users\CYMR90~1\AppData\Local\Temp\ccYIfAxE.s:24322  .debug_str:000000000001213d .LASF2175
C:\Users\CYMR90~1\AppData\Local\Temp\ccYIfAxE.s:27507  .debug_str:000000000001ecdf .LASF2176
C:\Users\CYMR90~1\AppData\Local\Temp\ccYIfAxE.s:22620  .debug_str:000000000000b6d0 .LASF2177
C:\Users\CYMR90~1\AppData\Local\Temp\ccYIfAxE.s:28437  .debug_str:00000000000224ec .LASF2178
C:\Users\CYMR90~1\AppData\Local\Temp\ccYIfAxE.s:22378  .debug_str:000000000000a793 .LASF2179
C:\Users\CYMR90~1\AppData\Local\Temp\ccYIfAxE.s:21728  .debug_str:0000000000007dd8 .LASF2180
C:\Users\CYMR90~1\AppData\Local\Temp\ccYIfAxE.s:29455  .debug_str:00000000000265eb .LASF2181
C:\Users\CYMR90~1\AppData\Local\Temp\ccYIfAxE.s:23424  .debug_str:000000000000eae8 .LASF2182
C:\Users\CYMR90~1\AppData\Local\Temp\ccYIfAxE.s:25410  .debug_str:000000000001651d .LASF2183
C:\Users\CYMR90~1\AppData\Local\Temp\ccYIfAxE.s:20808  .debug_str:0000000000004412 .LASF2184
C:\Users\CYMR90~1\AppData\Local\Temp\ccYIfAxE.s:23714  .debug_str:000000000000fc6e .LASF2185
C:\Users\CYMR90~1\AppData\Local\Temp\ccYIfAxE.s:30751  .debug_str:000000000002b6de .LASF2186
C:\Users\CYMR90~1\AppData\Local\Temp\ccYIfAxE.s:27517  .debug_str:000000000001ed7d .LASF2187
C:\Users\CYMR90~1\AppData\Local\Temp\ccYIfAxE.s:22228  .debug_str:0000000000009e18 .LASF2188
C:\Users\CYMR90~1\AppData\Local\Temp\ccYIfAxE.s:26481  .debug_str:000000000001aac5 .LASF2189
C:\Users\CYMR90~1\AppData\Local\Temp\ccYIfAxE.s:20740  .debug_str:0000000000003f32 .LASF2190
C:\Users\CYMR90~1\AppData\Local\Temp\ccYIfAxE.s:22330  .debug_str:000000000000a449 .LASF2191
C:\Users\CYMR90~1\AppData\Local\Temp\ccYIfAxE.s:27597  .debug_str:000000000001f1ff .LASF2192
C:\Users\CYMR90~1\AppData\Local\Temp\ccYIfAxE.s:20668  .debug_str:0000000000003aec .LASF2193
C:\Users\CYMR90~1\AppData\Local\Temp\ccYIfAxE.s:24200  .debug_str:00000000000118b6 .LASF2194
C:\Users\CYMR90~1\AppData\Local\Temp\ccYIfAxE.s:28995  .debug_str:0000000000024645 .LASF2195
C:\Users\CYMR90~1\AppData\Local\Temp\ccYIfAxE.s:21678  .debug_str:0000000000007a7c .LASF2196
C:\Users\CYMR90~1\AppData\Local\Temp\ccYIfAxE.s:25088  .debug_str:00000000000151a6 .LASF2197
C:\Users\CYMR90~1\AppData\Local\Temp\ccYIfAxE.s:21958  .debug_str:0000000000008d70 .LASF2198
C:\Users\CYMR90~1\AppData\Local\Temp\ccYIfAxE.s:27975  .debug_str:0000000000020904 .LASF2199
C:\Users\CYMR90~1\AppData\Local\Temp\ccYIfAxE.s:22470  .debug_str:000000000000ad08 .LASF2200
C:\Users\CYMR90~1\AppData\Local\Temp\ccYIfAxE.s:28505  .debug_str:00000000000228ec .LASF2201
C:\Users\CYMR90~1\AppData\Local\Temp\ccYIfAxE.s:27805  .debug_str:000000000001feb1 .LASF2202
C:\Users\CYMR90~1\AppData\Local\Temp\ccYIfAxE.s:29011  .debug_str:0000000000024790 .LASF2203
C:\Users\CYMR90~1\AppData\Local\Temp\ccYIfAxE.s:29613  .debug_str:0000000000026f81 .LASF2204
C:\Users\CYMR90~1\AppData\Local\Temp\ccYIfAxE.s:29439  .debug_str:00000000000264c8 .LASF2205
C:\Users\CYMR90~1\AppData\Local\Temp\ccYIfAxE.s:29065  .debug_str:0000000000024afa .LASF2206
C:\Users\CYMR90~1\AppData\Local\Temp\ccYIfAxE.s:28107  .debug_str:00000000000210fc .LASF2207
C:\Users\CYMR90~1\AppData\Local\Temp\ccYIfAxE.s:23914  .debug_str:0000000000010737 .LASF2208
C:\Users\CYMR90~1\AppData\Local\Temp\ccYIfAxE.s:26109  .debug_str:00000000000190fa .LASF2209
C:\Users\CYMR90~1\AppData\Local\Temp\ccYIfAxE.s:27953  .debug_str:000000000002076e .LASF2210
C:\Users\CYMR90~1\AppData\Local\Temp\ccYIfAxE.s:22758  .debug_str:000000000000c0a8 .LASF2211
C:\Users\CYMR90~1\AppData\Local\Temp\ccYIfAxE.s:21444  .debug_str:0000000000006b4c .LASF2212
C:\Users\CYMR90~1\AppData\Local\Temp\ccYIfAxE.s:24092  .debug_str:000000000001122b .LASF2213
C:\Users\CYMR90~1\AppData\Local\Temp\ccYIfAxE.s:31017  .debug_str:000000000002c841 .LASF2214
C:\Users\CYMR90~1\AppData\Local\Temp\ccYIfAxE.s:24826  .debug_str:000000000001416d .LASF2215
C:\Users\CYMR90~1\AppData\Local\Temp\ccYIfAxE.s:22430  .debug_str:000000000000aa96 .LASF2216
C:\Users\CYMR90~1\AppData\Local\Temp\ccYIfAxE.s:26727  .debug_str:000000000001bb23 .LASF2217
C:\Users\CYMR90~1\AppData\Local\Temp\ccYIfAxE.s:26035  .debug_str:0000000000018be3 .LASF2218
C:\Users\CYMR90~1\AppData\Local\Temp\ccYIfAxE.s:30785  .debug_str:000000000002b8b8 .LASF2219
C:\Users\CYMR90~1\AppData\Local\Temp\ccYIfAxE.s:27287  .debug_str:000000000001df2c .LASF2220
C:\Users\CYMR90~1\AppData\Local\Temp\ccYIfAxE.s:26125  .debug_str:00000000000191df .LASF2221
C:\Users\CYMR90~1\AppData\Local\Temp\ccYIfAxE.s:24498  .debug_str:0000000000012c54 .LASF2222
C:\Users\CYMR90~1\AppData\Local\Temp\ccYIfAxE.s:26771  .debug_str:000000000001bd7e .LASF2223
C:\Users\CYMR90~1\AppData\Local\Temp\ccYIfAxE.s:29431  .debug_str:000000000002645a .LASF2224
C:\Users\CYMR90~1\AppData\Local\Temp\ccYIfAxE.s:26529  .debug_str:000000000001adb0 .LASF2225
C:\Users\CYMR90~1\AppData\Local\Temp\ccYIfAxE.s:20884  .debug_str:000000000000493a .LASF2226
C:\Users\CYMR90~1\AppData\Local\Temp\ccYIfAxE.s:26311  .debug_str:0000000000019ef5 .LASF2227
C:\Users\CYMR90~1\AppData\Local\Temp\ccYIfAxE.s:25583  .debug_str:0000000000017122 .LASF2228
C:\Users\CYMR90~1\AppData\Local\Temp\ccYIfAxE.s:27341  .debug_str:000000000001e309 .LASF2229
C:\Users\CYMR90~1\AppData\Local\Temp\ccYIfAxE.s:20852  .debug_str:00000000000046f1 .LASF2230
C:\Users\CYMR90~1\AppData\Local\Temp\ccYIfAxE.s:27571  .debug_str:000000000001f073 .LASF2231
C:\Users\CYMR90~1\AppData\Local\Temp\ccYIfAxE.s:20138  .debug_str:0000000000001a1d .LASF2232
C:\Users\CYMR90~1\AppData\Local\Temp\ccYIfAxE.s:26299  .debug_str:0000000000019e31 .LASF2233
C:\Users\CYMR90~1\AppData\Local\Temp\ccYIfAxE.s:22928  .debug_str:000000000000cb9e .LASF2234
C:\Users\CYMR90~1\AppData\Local\Temp\ccYIfAxE.s:21092  .debug_str:000000000000565f .LASF2235
C:\Users\CYMR90~1\AppData\Local\Temp\ccYIfAxE.s:30971  .debug_str:000000000002c51c .LASF2236
C:\Users\CYMR90~1\AppData\Local\Temp\ccYIfAxE.s:28797  .debug_str:00000000000239e6 .LASF2237
C:\Users\CYMR90~1\AppData\Local\Temp\ccYIfAxE.s:28231  .debug_str:00000000000218a4 .LASF2238
C:\Users\CYMR90~1\AppData\Local\Temp\ccYIfAxE.s:27239  .debug_str:000000000001dc33 .LASF2239
C:\Users\CYMR90~1\AppData\Local\Temp\ccYIfAxE.s:27163  .debug_str:000000000001d75e .LASF2240
C:\Users\CYMR90~1\AppData\Local\Temp\ccYIfAxE.s:19800  .debug_str:0000000000000575 .LASF2241
C:\Users\CYMR90~1\AppData\Local\Temp\ccYIfAxE.s:28251  .debug_str:00000000000219cc .LASF2242
C:\Users\CYMR90~1\AppData\Local\Temp\ccYIfAxE.s:29827  .debug_str:0000000000027d0d .LASF2243
C:\Users\CYMR90~1\AppData\Local\Temp\ccYIfAxE.s:24342  .debug_str:0000000000012256 .LASF2244
C:\Users\CYMR90~1\AppData\Local\Temp\ccYIfAxE.s:22298  .debug_str:000000000000a23d .LASF2245
C:\Users\CYMR90~1\AppData\Local\Temp\ccYIfAxE.s:22420  .debug_str:000000000000a9bb .LASF2246
C:\Users\CYMR90~1\AppData\Local\Temp\ccYIfAxE.s:25162  .debug_str:00000000000155d8 .LASF2247
C:\Users\CYMR90~1\AppData\Local\Temp\ccYIfAxE.s:20576  .debug_str:00000000000034f7 .LASF2248
C:\Users\CYMR90~1\AppData\Local\Temp\ccYIfAxE.s:27591  .debug_str:000000000001f1a5 .LASF2249
C:\Users\CYMR90~1\AppData\Local\Temp\ccYIfAxE.s:26703  .debug_str:000000000001b988 .LASF2250
C:\Users\CYMR90~1\AppData\Local\Temp\ccYIfAxE.s:25749  .debug_str:0000000000017a6e .LASF2251
C:\Users\CYMR90~1\AppData\Local\Temp\ccYIfAxE.s:29021  .debug_str:0000000000024826 .LASF2252
C:\Users\CYMR90~1\AppData\Local\Temp\ccYIfAxE.s:24504  .debug_str:0000000000012ca3 .LASF2253
C:\Users\CYMR90~1\AppData\Local\Temp\ccYIfAxE.s:23212  .debug_str:000000000000de01 .LASF2254
C:\Users\CYMR90~1\AppData\Local\Temp\ccYIfAxE.s:21944  .debug_str:0000000000008ca2 .LASF2255
C:\Users\CYMR90~1\AppData\Local\Temp\ccYIfAxE.s:23888  .debug_str:00000000000105d6 .LASF2256
C:\Users\CYMR90~1\AppData\Local\Temp\ccYIfAxE.s:26979  .debug_str:000000000001ca16 .LASF2257
C:\Users\CYMR90~1\AppData\Local\Temp\ccYIfAxE.s:24190  .debug_str:0000000000011814 .LASF2258
C:\Users\CYMR90~1\AppData\Local\Temp\ccYIfAxE.s:28835  .debug_str:0000000000023c50 .LASF2259
C:\Users\CYMR90~1\AppData\Local\Temp\ccYIfAxE.s:24088  .debug_str:00000000000111e9 .LASF2260
C:\Users\CYMR90~1\AppData\Local\Temp\ccYIfAxE.s:25210  .debug_str:0000000000015897 .LASF2261
C:\Users\CYMR90~1\AppData\Local\Temp\ccYIfAxE.s:20258  .debug_str:00000000000020ea .LASF2262
C:\Users\CYMR90~1\AppData\Local\Temp\ccYIfAxE.s:23446  .debug_str:000000000000ec1f .LASF2263
C:\Users\CYMR90~1\AppData\Local\Temp\ccYIfAxE.s:27361  .debug_str:000000000001e428 .LASF2264
C:\Users\CYMR90~1\AppData\Local\Temp\ccYIfAxE.s:26399  .debug_str:000000000001a3f5 .LASF2265
C:\Users\CYMR90~1\AppData\Local\Temp\ccYIfAxE.s:23296  .debug_str:000000000000e322 .LASF2266
C:\Users\CYMR90~1\AppData\Local\Temp\ccYIfAxE.s:22632  .debug_str:000000000000b827 .LASF2267
C:\Users\CYMR90~1\AppData\Local\Temp\ccYIfAxE.s:25757  .debug_str:0000000000017b28 .LASF2268
C:\Users\CYMR90~1\AppData\Local\Temp\ccYIfAxE.s:30703  .debug_str:000000000002b427 .LASF2269
C:\Users\CYMR90~1\AppData\Local\Temp\ccYIfAxE.s:20904  .debug_str:0000000000004af5 .LASF2270
C:\Users\CYMR90~1\AppData\Local\Temp\ccYIfAxE.s:26855  .debug_str:000000000001c2d9 .LASF2271
C:\Users\CYMR90~1\AppData\Local\Temp\ccYIfAxE.s:27261  .debug_str:000000000001dda1 .LASF2272
C:\Users\CYMR90~1\AppData\Local\Temp\ccYIfAxE.s:25042  .debug_str:0000000000014ea5 .LASF2273
C:\Users\CYMR90~1\AppData\Local\Temp\ccYIfAxE.s:30041  .debug_str:0000000000028c06 .LASF2274
C:\Users\CYMR90~1\AppData\Local\Temp\ccYIfAxE.s:26605  .debug_str:000000000001b2d8 .LASF2275
C:\Users\CYMR90~1\AppData\Local\Temp\ccYIfAxE.s:23218  .debug_str:000000000000de6c .LASF2276
C:\Users\CYMR90~1\AppData\Local\Temp\ccYIfAxE.s:21098  .debug_str:00000000000056a6 .LASF2277
C:\Users\CYMR90~1\AppData\Local\Temp\ccYIfAxE.s:19926  .debug_str:0000000000000d2c .LASF2278
C:\Users\CYMR90~1\AppData\Local\Temp\ccYIfAxE.s:29893  .debug_str:0000000000028141 .LASF2279
C:\Users\CYMR90~1\AppData\Local\Temp\ccYIfAxE.s:28235  .debug_str:00000000000218e2 .LASF2280
C:\Users\CYMR90~1\AppData\Local\Temp\ccYIfAxE.s:21096  .debug_str:0000000000005693 .LASF2281
C:\Users\CYMR90~1\AppData\Local\Temp\ccYIfAxE.s:26333  .debug_str:000000000001a060 .LASF2282
C:\Users\CYMR90~1\AppData\Local\Temp\ccYIfAxE.s:25643  .debug_str:000000000001746e .LASF2283
C:\Users\CYMR90~1\AppData\Local\Temp\ccYIfAxE.s:27037  .debug_str:000000000001ce5b .LASF2284
C:\Users\CYMR90~1\AppData\Local\Temp\ccYIfAxE.s:26565  .debug_str:000000000001b01b .LASF2285
C:\Users\CYMR90~1\AppData\Local\Temp\ccYIfAxE.s:29845  .debug_str:0000000000027e09 .LASF2286
C:\Users\CYMR90~1\AppData\Local\Temp\ccYIfAxE.s:24094  .debug_str:0000000000011253 .LASF2287
C:\Users\CYMR90~1\AppData\Local\Temp\ccYIfAxE.s:28401  .debug_str:00000000000222e6 .LASF2288
C:\Users\CYMR90~1\AppData\Local\Temp\ccYIfAxE.s:30359  .debug_str:000000000002a048 .LASF2289
C:\Users\CYMR90~1\AppData\Local\Temp\ccYIfAxE.s:24312  .debug_str:0000000000012087 .LASF2290
C:\Users\CYMR90~1\AppData\Local\Temp\ccYIfAxE.s:30839  .debug_str:000000000002bc75 .LASF2291
C:\Users\CYMR90~1\AppData\Local\Temp\ccYIfAxE.s:27459  .debug_str:000000000001e9de .LASF2292
C:\Users\CYMR90~1\AppData\Local\Temp\ccYIfAxE.s:20990  .debug_str:000000000000503b .LASF2293
C:\Users\CYMR90~1\AppData\Local\Temp\ccYIfAxE.s:24360  .debug_str:0000000000012396 .LASF2294
C:\Users\CYMR90~1\AppData\Local\Temp\ccYIfAxE.s:30801  .debug_str:000000000002b9e1 .LASF2295
C:\Users\CYMR90~1\AppData\Local\Temp\ccYIfAxE.s:23278  .debug_str:000000000000e206 .LASF2296
C:\Users\CYMR90~1\AppData\Local\Temp\ccYIfAxE.s:23252  .debug_str:000000000000e028 .LASF2297
C:\Users\CYMR90~1\AppData\Local\Temp\ccYIfAxE.s:22610  .debug_str:000000000000b621 .LASF2298
C:\Users\CYMR90~1\AppData\Local\Temp\ccYIfAxE.s:24838  .debug_str:000000000001422d .LASF2299
C:\Users\CYMR90~1\AppData\Local\Temp\ccYIfAxE.s:30055  .debug_str:0000000000028cfb .LASF2300
C:\Users\CYMR90~1\AppData\Local\Temp\ccYIfAxE.s:23596  .debug_str:000000000000f4bb .LASF2301
C:\Users\CYMR90~1\AppData\Local\Temp\ccYIfAxE.s:26801  .debug_str:000000000001bf7f .LASF2302
C:\Users\CYMR90~1\AppData\Local\Temp\ccYIfAxE.s:29159  .debug_str:00000000000250f7 .LASF2303
C:\Users\CYMR90~1\AppData\Local\Temp\ccYIfAxE.s:23210  .debug_str:000000000000ddda .LASF2304
C:\Users\CYMR90~1\AppData\Local\Temp\ccYIfAxE.s:28285  .debug_str:0000000000021bbf .LASF2305
C:\Users\CYMR90~1\AppData\Local\Temp\ccYIfAxE.s:20010  .debug_str:0000000000001294 .LASF2306
C:\Users\CYMR90~1\AppData\Local\Temp\ccYIfAxE.s:26507  .debug_str:000000000001ac39 .LASF2307
C:\Users\CYMR90~1\AppData\Local\Temp\ccYIfAxE.s:27001  .debug_str:000000000001cc17 .LASF2308
C:\Users\CYMR90~1\AppData\Local\Temp\ccYIfAxE.s:20518  .debug_str:000000000000315f .LASF2309
C:\Users\CYMR90~1\AppData\Local\Temp\ccYIfAxE.s:29453  .debug_str:00000000000265c2 .LASF2310
C:\Users\CYMR90~1\AppData\Local\Temp\ccYIfAxE.s:30293  .debug_str:0000000000029c23 .LASF2311
C:\Users\CYMR90~1\AppData\Local\Temp\ccYIfAxE.s:24876  .debug_str:00000000000144b2 .LASF2312
C:\Users\CYMR90~1\AppData\Local\Temp\ccYIfAxE.s:30007  .debug_str:0000000000028945 .LASF2313
C:\Users\CYMR90~1\AppData\Local\Temp\ccYIfAxE.s:21634  .debug_str:00000000000077c9 .LASF2314
C:\Users\CYMR90~1\AppData\Local\Temp\ccYIfAxE.s:28057  .debug_str:0000000000020e59 .LASF2315
C:\Users\CYMR90~1\AppData\Local\Temp\ccYIfAxE.s:21698  .debug_str:0000000000007bb6 .LASF2316
C:\Users\CYMR90~1\AppData\Local\Temp\ccYIfAxE.s:26817  .debug_str:000000000001c073 .LASF2317
C:\Users\CYMR90~1\AppData\Local\Temp\ccYIfAxE.s:30051  .debug_str:0000000000028cba .LASF2318
C:\Users\CYMR90~1\AppData\Local\Temp\ccYIfAxE.s:23482  .debug_str:000000000000ee5b .LASF2319
C:\Users\CYMR90~1\AppData\Local\Temp\ccYIfAxE.s:20918  .debug_str:0000000000004bda .LASF2320
C:\Users\CYMR90~1\AppData\Local\Temp\ccYIfAxE.s:20436  .debug_str:0000000000002c35 .LASF2321
C:\Users\CYMR90~1\AppData\Local\Temp\ccYIfAxE.s:31285  .debug_str:000000000002d9ac .LASF2322
C:\Users\CYMR90~1\AppData\Local\Temp\ccYIfAxE.s:21294  .debug_str:0000000000006247 .LASF2323
C:\Users\CYMR90~1\AppData\Local\Temp\ccYIfAxE.s:25002  .debug_str:0000000000014c4d .LASF2324
C:\Users\CYMR90~1\AppData\Local\Temp\ccYIfAxE.s:30865  .debug_str:000000000002be0f .LASF2325
C:\Users\CYMR90~1\AppData\Local\Temp\ccYIfAxE.s:22396  .debug_str:000000000000a88c .LASF2326
C:\Users\CYMR90~1\AppData\Local\Temp\ccYIfAxE.s:25993  .debug_str:0000000000018916 .LASF2327
C:\Users\CYMR90~1\AppData\Local\Temp\ccYIfAxE.s:20292  .debug_str:00000000000022d0 .LASF2328
C:\Users\CYMR90~1\AppData\Local\Temp\ccYIfAxE.s:24912  .debug_str:00000000000146e8 .LASF2329
C:\Users\CYMR90~1\AppData\Local\Temp\ccYIfAxE.s:23988  .debug_str:0000000000010bb5 .LASF2330
C:\Users\CYMR90~1\AppData\Local\Temp\ccYIfAxE.s:22860  .debug_str:000000000000c706 .LASF2331
C:\Users\CYMR90~1\AppData\Local\Temp\ccYIfAxE.s:23934  .debug_str:000000000001086f .LASF2332
C:\Users\CYMR90~1\AppData\Local\Temp\ccYIfAxE.s:28187  .debug_str:0000000000021562 .LASF2333
C:\Users\CYMR90~1\AppData\Local\Temp\ccYIfAxE.s:29637  .debug_str:0000000000027104 .LASF2334
C:\Users\CYMR90~1\AppData\Local\Temp\ccYIfAxE.s:23946  .debug_str:000000000001092d .LASF2335
C:\Users\CYMR90~1\AppData\Local\Temp\ccYIfAxE.s:24352  .debug_str:000000000001232e .LASF2336
C:\Users\CYMR90~1\AppData\Local\Temp\ccYIfAxE.s:23378  .debug_str:000000000000e7d3 .LASF2337
C:\Users\CYMR90~1\AppData\Local\Temp\ccYIfAxE.s:21308  .debug_str:0000000000006342 .LASF2338
C:\Users\CYMR90~1\AppData\Local\Temp\ccYIfAxE.s:20338  .debug_str:0000000000002576 .LASF2339
C:\Users\CYMR90~1\AppData\Local\Temp\ccYIfAxE.s:27223  .debug_str:000000000001db40 .LASF2340
C:\Users\CYMR90~1\AppData\Local\Temp\ccYIfAxE.s:29513  .debug_str:0000000000026946 .LASF2341
C:\Users\CYMR90~1\AppData\Local\Temp\ccYIfAxE.s:27835  .debug_str:000000000002008b .LASF2342
C:\Users\CYMR90~1\AppData\Local\Temp\ccYIfAxE.s:27849  .debug_str:000000000002013d .LASF2343
C:\Users\CYMR90~1\AppData\Local\Temp\ccYIfAxE.s:28913  .debug_str:00000000000240c4 .LASF2344
C:\Users\CYMR90~1\AppData\Local\Temp\ccYIfAxE.s:29749  .debug_str:00000000000277ad .LASF2345
C:\Users\CYMR90~1\AppData\Local\Temp\ccYIfAxE.s:26921  .debug_str:000000000001c6c7 .LASF2346
C:\Users\CYMR90~1\AppData\Local\Temp\ccYIfAxE.s:27093  .debug_str:000000000001d29e .LASF2347
C:\Users\CYMR90~1\AppData\Local\Temp\ccYIfAxE.s:21910  .debug_str:0000000000008a61 .LASF2348
C:\Users\CYMR90~1\AppData\Local\Temp\ccYIfAxE.s:24712  .debug_str:0000000000013af2 .LASF2349
C:\Users\CYMR90~1\AppData\Local\Temp\ccYIfAxE.s:28339  .debug_str:0000000000021ef4 .LASF2350
C:\Users\CYMR90~1\AppData\Local\Temp\ccYIfAxE.s:30667  .debug_str:000000000002b20e .LASF2351
C:\Users\CYMR90~1\AppData\Local\Temp\ccYIfAxE.s:29145  .debug_str:0000000000025008 .LASF2352
C:\Users\CYMR90~1\AppData\Local\Temp\ccYIfAxE.s:21470  .debug_str:0000000000006ccb .LASF2353
C:\Users\CYMR90~1\AppData\Local\Temp\ccYIfAxE.s:23836  .debug_str:00000000000102ef .LASF2354
C:\Users\CYMR90~1\AppData\Local\Temp\ccYIfAxE.s:21412  .debug_str:000000000000692e .LASF2355
C:\Users\CYMR90~1\AppData\Local\Temp\ccYIfAxE.s:31075  .debug_str:000000000002cc6d .LASF2356
C:\Users\CYMR90~1\AppData\Local\Temp\ccYIfAxE.s:30493  .debug_str:000000000002a79d .LASF2357
C:\Users\CYMR90~1\AppData\Local\Temp\ccYIfAxE.s:23118  .debug_str:000000000000d8bc .LASF2358
C:\Users\CYMR90~1\AppData\Local\Temp\ccYIfAxE.s:22142  .debug_str:0000000000009894 .LASF2359
C:\Users\CYMR90~1\AppData\Local\Temp\ccYIfAxE.s:20674  .debug_str:0000000000003b75 .LASF2360
C:\Users\CYMR90~1\AppData\Local\Temp\ccYIfAxE.s:23848  .debug_str:00000000000103c6 .LASF2361
C:\Users\CYMR90~1\AppData\Local\Temp\ccYIfAxE.s:22586  .debug_str:000000000000b51a .LASF2362
C:\Users\CYMR90~1\AppData\Local\Temp\ccYIfAxE.s:21338  .debug_str:00000000000064e4 .LASF2363
C:\Users\CYMR90~1\AppData\Local\Temp\ccYIfAxE.s:28919  .debug_str:0000000000024114 .LASF2364
C:\Users\CYMR90~1\AppData\Local\Temp\ccYIfAxE.s:28067  .debug_str:0000000000020ee3 .LASF2365
C:\Users\CYMR90~1\AppData\Local\Temp\ccYIfAxE.s:24416  .debug_str:0000000000012700 .LASF2366
C:\Users\CYMR90~1\AppData\Local\Temp\ccYIfAxE.s:22694  .debug_str:000000000000bc1b .LASF2367
C:\Users\CYMR90~1\AppData\Local\Temp\ccYIfAxE.s:29823  .debug_str:0000000000027ce0 .LASF2368
C:\Users\CYMR90~1\AppData\Local\Temp\ccYIfAxE.s:22128  .debug_str:000000000000977a .LASF2369
C:\Users\CYMR90~1\AppData\Local\Temp\ccYIfAxE.s:23476  .debug_str:000000000000ee04 .LASF2370
C:\Users\CYMR90~1\AppData\Local\Temp\ccYIfAxE.s:21480  .debug_str:0000000000006d88 .LASF2371
C:\Users\CYMR90~1\AppData\Local\Temp\ccYIfAxE.s:23910  .debug_str:00000000000106fe .LASF2372
C:\Users\CYMR90~1\AppData\Local\Temp\ccYIfAxE.s:30949  .debug_str:000000000002c3a8 .LASF2373
C:\Users\CYMR90~1\AppData\Local\Temp\ccYIfAxE.s:29585  .debug_str:0000000000026de4 .LASF2374
C:\Users\CYMR90~1\AppData\Local\Temp\ccYIfAxE.s:19864  .debug_str:000000000000092e .LASF2375
C:\Users\CYMR90~1\AppData\Local\Temp\ccYIfAxE.s:24316  .debug_str:00000000000120dc .LASF2376
C:\Users\CYMR90~1\AppData\Local\Temp\ccYIfAxE.s:27539  .debug_str:000000000001eec1 .LASF2377
C:\Users\CYMR90~1\AppData\Local\Temp\ccYIfAxE.s:30897  .debug_str:000000000002c06c .LASF2378
C:\Users\CYMR90~1\AppData\Local\Temp\ccYIfAxE.s:22588  .debug_str:000000000000b53f .LASF2379
C:\Users\CYMR90~1\AppData\Local\Temp\ccYIfAxE.s:25855  .debug_str:0000000000018110 .LASF2380
C:\Users\CYMR90~1\AppData\Local\Temp\ccYIfAxE.s:29137  .debug_str:0000000000024f96 .LASF2381
C:\Users\CYMR90~1\AppData\Local\Temp\ccYIfAxE.s:28873  .debug_str:0000000000023eb9 .LASF2382
C:\Users\CYMR90~1\AppData\Local\Temp\ccYIfAxE.s:24078  .debug_str:000000000001118e .LASF2383
C:\Users\CYMR90~1\AppData\Local\Temp\ccYIfAxE.s:27307  .debug_str:000000000001e06b .LASF2384
C:\Users\CYMR90~1\AppData\Local\Temp\ccYIfAxE.s:30637  .debug_str:000000000002b07c .LASF2385
C:\Users\CYMR90~1\AppData\Local\Temp\ccYIfAxE.s:20174  .debug_str:0000000000001c63 .LASF2386
C:\Users\CYMR90~1\AppData\Local\Temp\ccYIfAxE.s:25010  .debug_str:0000000000014cb5 .LASF2387
C:\Users\CYMR90~1\AppData\Local\Temp\ccYIfAxE.s:29825  .debug_str:0000000000027cf2 .LASF2388
C:\Users\CYMR90~1\AppData\Local\Temp\ccYIfAxE.s:26663  .debug_str:000000000001b6b1 .LASF2389
C:\Users\CYMR90~1\AppData\Local\Temp\ccYIfAxE.s:27841  .debug_str:00000000000200dd .LASF2390
C:\Users\CYMR90~1\AppData\Local\Temp\ccYIfAxE.s:21066  .debug_str:00000000000054bf .LASF2391
C:\Users\CYMR90~1\AppData\Local\Temp\ccYIfAxE.s:25913  .debug_str:000000000001844b .LASF2392
C:\Users\CYMR90~1\AppData\Local\Temp\ccYIfAxE.s:30737  .debug_str:000000000002b61d .LASF2393
C:\Users\CYMR90~1\AppData\Local\Temp\ccYIfAxE.s:28753  .debug_str:0000000000023770 .LASF2394
C:\Users\CYMR90~1\AppData\Local\Temp\ccYIfAxE.s:29887  .debug_str:00000000000280dc .LASF2395
C:\Users\CYMR90~1\AppData\Local\Temp\ccYIfAxE.s:23132  .debug_str:000000000000d99b .LASF2396
C:\Users\CYMR90~1\AppData\Local\Temp\ccYIfAxE.s:27901  .debug_str:00000000000204a0 .LASF2397
C:\Users\CYMR90~1\AppData\Local\Temp\ccYIfAxE.s:21116  .debug_str:000000000000578f .LASF2398
C:\Users\CYMR90~1\AppData\Local\Temp\ccYIfAxE.s:25971  .debug_str:00000000000187ba .LASF2399
C:\Users\CYMR90~1\AppData\Local\Temp\ccYIfAxE.s:30797  .debug_str:000000000002b9b0 .LASF2400
C:\Users\CYMR90~1\AppData\Local\Temp\ccYIfAxE.s:30671  .debug_str:000000000002b246 .LASF2401
C:\Users\CYMR90~1\AppData\Local\Temp\ccYIfAxE.s:22372  .debug_str:000000000000a71c .LASF2402
C:\Users\CYMR90~1\AppData\Local\Temp\ccYIfAxE.s:25659  .debug_str:0000000000017567 .LASF2403
C:\Users\CYMR90~1\AppData\Local\Temp\ccYIfAxE.s:28923  .debug_str:0000000000024145 .LASF2404
C:\Users\CYMR90~1\AppData\Local\Temp\ccYIfAxE.s:20700  .debug_str:0000000000003ccc .LASF2405
C:\Users\CYMR90~1\AppData\Local\Temp\ccYIfAxE.s:23954  .debug_str:00000000000109d1 .LASF2406
C:\Users\CYMR90~1\AppData\Local\Temp\ccYIfAxE.s:27195  .debug_str:000000000001d963 .LASF2407
C:\Users\CYMR90~1\AppData\Local\Temp\ccYIfAxE.s:30517  .debug_str:000000000002a942 .LASF2408
C:\Users\CYMR90~1\AppData\Local\Temp\ccYIfAxE.s:24766  .debug_str:0000000000013df5 .LASF2409
C:\Users\CYMR90~1\AppData\Local\Temp\ccYIfAxE.s:23106  .debug_str:000000000000d80a .LASF2410
C:\Users\CYMR90~1\AppData\Local\Temp\ccYIfAxE.s:26555  .debug_str:000000000001af78 .LASF2411
C:\Users\CYMR90~1\AppData\Local\Temp\ccYIfAxE.s:19740  .debug_str:0000000000000242 .LASF2412
C:\Users\CYMR90~1\AppData\Local\Temp\ccYIfAxE.s:19760  .debug_str:000000000000032f .LASF2413
C:\Users\CYMR90~1\AppData\Local\Temp\ccYIfAxE.s:29355  .debug_str:0000000000025f94 .LASF2414
C:\Users\CYMR90~1\AppData\Local\Temp\ccYIfAxE.s:22628  .debug_str:000000000000b771 .LASF2415
C:\Users\CYMR90~1\AppData\Local\Temp\ccYIfAxE.s:27381  .debug_str:000000000001e567 .LASF2416
C:\Users\CYMR90~1\AppData\Local\Temp\ccYIfAxE.s:22958  .debug_str:000000000000ce7f .LASF2417
C:\Users\CYMR90~1\AppData\Local\Temp\ccYIfAxE.s:25454  .debug_str:000000000001678b .LASF2418
C:\Users\CYMR90~1\AppData\Local\Temp\ccYIfAxE.s:27593  .debug_str:000000000001f1d4 .LASF2419
C:\Users\CYMR90~1\AppData\Local\Temp\ccYIfAxE.s:24628  .debug_str:00000000000134c2 .LASF2420
C:\Users\CYMR90~1\AppData\Local\Temp\ccYIfAxE.s:29409  .debug_str:00000000000262dd .LASF2421
C:\Users\CYMR90~1\AppData\Local\Temp\ccYIfAxE.s:22672  .debug_str:000000000000baf1 .LASF2422
C:\Users\CYMR90~1\AppData\Local\Temp\ccYIfAxE.s:27429  .debug_str:000000000001e828 .LASF2423
C:\Users\CYMR90~1\AppData\Local\Temp\ccYIfAxE.s:20670  .debug_str:0000000000003b2a .LASF2424
C:\Users\CYMR90~1\AppData\Local\Temp\ccYIfAxE.s:25516  .debug_str:0000000000016af0 .LASF2425
C:\Users\CYMR90~1\AppData\Local\Temp\ccYIfAxE.s:22500  .debug_str:000000000000aee3 .LASF2426
C:\Users\CYMR90~1\AppData\Local\Temp\ccYIfAxE.s:25685  .debug_str:00000000000176b4 .LASF2427
C:\Users\CYMR90~1\AppData\Local\Temp\ccYIfAxE.s:28963  .debug_str:00000000000243c3 .LASF2428
C:\Users\CYMR90~1\AppData\Local\Temp\ccYIfAxE.s:20652  .debug_str:00000000000039ff .LASF2429
C:\Users\CYMR90~1\AppData\Local\Temp\ccYIfAxE.s:23990  .debug_str:0000000000010bcb .LASF2430
C:\Users\CYMR90~1\AppData\Local\Temp\ccYIfAxE.s:24242  .debug_str:0000000000011bef .LASF2431
C:\Users\CYMR90~1\AppData\Local\Temp\ccYIfAxE.s:30557  .debug_str:000000000002ab62 .LASF2432
C:\Users\CYMR90~1\AppData\Local\Temp\ccYIfAxE.s:20860  .debug_str:000000000000478d .LASF2433
C:\Users\CYMR90~1\AppData\Local\Temp\ccYIfAxE.s:30837  .debug_str:000000000002bc5e .LASF2434
C:\Users\CYMR90~1\AppData\Local\Temp\ccYIfAxE.s:28225  .debug_str:00000000000217b5 .LASF2435
C:\Users\CYMR90~1\AppData\Local\Temp\ccYIfAxE.s:30111  .debug_str:00000000000290cb .LASF2436
C:\Users\CYMR90~1\AppData\Local\Temp\ccYIfAxE.s:23352  .debug_str:000000000000e64d .LASF2437
C:\Users\CYMR90~1\AppData\Local\Temp\ccYIfAxE.s:28125  .debug_str:0000000000021207 .LASF2438
C:\Users\CYMR90~1\AppData\Local\Temp\ccYIfAxE.s:21358  .debug_str:000000000000662c .LASF2439
C:\Users\CYMR90~1\AppData\Local\Temp\ccYIfAxE.s:26213  .debug_str:0000000000019835 .LASF2440
C:\Users\CYMR90~1\AppData\Local\Temp\ccYIfAxE.s:31019  .debug_str:000000000002c869 .LASF2441
C:\Users\CYMR90~1\AppData\Local\Temp\ccYIfAxE.s:24250  .debug_str:0000000000011c5c .LASF2442
C:\Users\CYMR90~1\AppData\Local\Temp\ccYIfAxE.s:29031  .debug_str:0000000000024902 .LASF2443
C:\Users\CYMR90~1\AppData\Local\Temp\ccYIfAxE.s:27067  .debug_str:000000000001d05f .LASF2444
C:\Users\CYMR90~1\AppData\Local\Temp\ccYIfAxE.s:28181  .debug_str:00000000000214f7 .LASF2445
C:\Users\CYMR90~1\AppData\Local\Temp\ccYIfAxE.s:21416  .debug_str:0000000000006967 .LASF2446
C:\Users\CYMR90~1\AppData\Local\Temp\ccYIfAxE.s:26263  .debug_str:0000000000019be3 .LASF2447
C:\Users\CYMR90~1\AppData\Local\Temp\ccYIfAxE.s:31071  .debug_str:000000000002cc2e .LASF2448
C:\Users\CYMR90~1\AppData\Local\Temp\ccYIfAxE.s:24308  .debug_str:0000000000012048 .LASF2449
C:\Users\CYMR90~1\AppData\Local\Temp\ccYIfAxE.s:29083  .debug_str:0000000000024c2b .LASF2450
C:\Users\CYMR90~1\AppData\Local\Temp\ccYIfAxE.s:27865  .debug_str:000000000002025b .LASF2451
C:\Users\CYMR90~1\AppData\Local\Temp\ccYIfAxE.s:29197  .debug_str:0000000000025381 .LASF2452
C:\Users\CYMR90~1\AppData\Local\Temp\ccYIfAxE.s:27505  .debug_str:000000000001ecc8 .LASF2453
C:\Users\CYMR90~1\AppData\Local\Temp\ccYIfAxE.s:26107  .debug_str:00000000000190e3 .LASF2454
C:\Users\CYMR90~1\AppData\Local\Temp\ccYIfAxE.s:29357  .debug_str:0000000000025fad .LASF2455
C:\Users\CYMR90~1\AppData\Local\Temp\ccYIfAxE.s:22566  .debug_str:000000000000b402 .LASF2456
C:\Users\CYMR90~1\AppData\Local\Temp\ccYIfAxE.s:24388  .debug_str:0000000000012564 .LASF2457
C:\Users\CYMR90~1\AppData\Local\Temp\ccYIfAxE.s:27601  .debug_str:000000000001f250 .LASF2458
C:\Users\CYMR90~1\AppData\Local\Temp\ccYIfAxE.s:29127  .debug_str:0000000000024f2d .LASF2459
C:\Users\CYMR90~1\AppData\Local\Temp\ccYIfAxE.s:22570  .debug_str:000000000000b43f .LASF2460
C:\Users\CYMR90~1\AppData\Local\Temp\ccYIfAxE.s:29043  .debug_str:00000000000249b8 .LASF2461
C:\Users\CYMR90~1\AppData\Local\Temp\ccYIfAxE.s:22292  .debug_str:000000000000a1df .LASF2462
C:\Users\CYMR90~1\AppData\Local\Temp\ccYIfAxE.s:27079  .debug_str:000000000001d1c9 .LASF2463
C:\Users\CYMR90~1\AppData\Local\Temp\ccYIfAxE.s:20298  .debug_str:000000000000231c .LASF2464
C:\Users\CYMR90~1\AppData\Local\Temp\ccYIfAxE.s:25138  .debug_str:000000000001546d .LASF2465
C:\Users\CYMR90~1\AppData\Local\Temp\ccYIfAxE.s:29957  .debug_str:00000000000285c6 .LASF2466
C:\Users\CYMR90~1\AppData\Local\Temp\ccYIfAxE.s:23200  .debug_str:000000000000dd69 .LASF2467
C:\Users\CYMR90~1\AppData\Local\Temp\ccYIfAxE.s:27971  .debug_str:00000000000208bc .LASF2468
C:\Users\CYMR90~1\AppData\Local\Temp\ccYIfAxE.s:26047  .debug_str:0000000000018c88 .LASF2469
C:\Users\CYMR90~1\AppData\Local\Temp\ccYIfAxE.s:20728  .debug_str:0000000000003ea5 .LASF2470
C:\Users\CYMR90~1\AppData\Local\Temp\ccYIfAxE.s:20354  .debug_str:00000000000026ba .LASF2471
C:\Users\CYMR90~1\AppData\Local\Temp\ccYIfAxE.s:25186  .debug_str:0000000000015735 .LASF2472
C:\Users\CYMR90~1\AppData\Local\Temp\ccYIfAxE.s:30011  .debug_str:0000000000028a29 .LASF2473
C:\Users\CYMR90~1\AppData\Local\Temp\ccYIfAxE.s:23256  .debug_str:000000000000e079 .LASF2474
C:\Users\CYMR90~1\AppData\Local\Temp\ccYIfAxE.s:28027  .debug_str:0000000000020c79 .LASF2475
C:\Users\CYMR90~1\AppData\Local\Temp\ccYIfAxE.s:30233  .debug_str:0000000000029810 .LASF2476
C:\Users\CYMR90~1\AppData\Local\Temp\ccYIfAxE.s:20500  .debug_str:000000000000301f .LASF2477
C:\Users\CYMR90~1\AppData\Local\Temp\ccYIfAxE.s:25222  .debug_str:0000000000015922 .LASF2478
C:\Users\CYMR90~1\AppData\Local\Temp\ccYIfAxE.s:29997  .debug_str:00000000000288bd .LASF2479
C:\Users\CYMR90~1\AppData\Local\Temp\ccYIfAxE.s:28303  .debug_str:0000000000021d19 .LASF2480
C:\Users\CYMR90~1\AppData\Local\Temp\ccYIfAxE.s:29813  .debug_str:0000000000027c54 .LASF2481
C:\Users\CYMR90~1\AppData\Local\Temp\ccYIfAxE.s:26783  .debug_str:000000000001be36 .LASF2482
C:\Users\CYMR90~1\AppData\Local\Temp\ccYIfAxE.s:30085  .debug_str:0000000000028f48 .LASF2483
C:\Users\CYMR90~1\AppData\Local\Temp\ccYIfAxE.s:21784  .debug_str:0000000000008201 .LASF2484
C:\Users\CYMR90~1\AppData\Local\Temp\ccYIfAxE.s:24978  .debug_str:0000000000014af9 .LASF2485
C:\Users\CYMR90~1\AppData\Local\Temp\ccYIfAxE.s:24686  .debug_str:0000000000013954 .LASF2486
C:\Users\CYMR90~1\AppData\Local\Temp\ccYIfAxE.s:29467  .debug_str:00000000000266a3 .LASF2487
C:\Users\CYMR90~1\AppData\Local\Temp\ccYIfAxE.s:22726  .debug_str:000000000000be3b .LASF2488
C:\Users\CYMR90~1\AppData\Local\Temp\ccYIfAxE.s:27483  .debug_str:000000000001eb26 .LASF2489
C:\Users\CYMR90~1\AppData\Local\Temp\ccYIfAxE.s:20718  .debug_str:0000000000003e12 .LASF2490
C:\Users\CYMR90~1\AppData\Local\Temp\ccYIfAxE.s:25579  .debug_str:00000000000170dd .LASF2491
C:\Users\CYMR90~1\AppData\Local\Temp\ccYIfAxE.s:30379  .debug_str:000000000002a168 .LASF2492
C:\Users\CYMR90~1\AppData\Local\Temp\ccYIfAxE.s:23610  .debug_str:000000000000f58e .LASF2493
C:\Users\CYMR90~1\AppData\Local\Temp\ccYIfAxE.s:21640  .debug_str:000000000000782a .LASF2494
C:\Users\CYMR90~1\AppData\Local\Temp\ccYIfAxE.s:22780  .debug_str:000000000000c24f .LASF2495
C:\Users\CYMR90~1\AppData\Local\Temp\ccYIfAxE.s:27529  .debug_str:000000000001ee3c .LASF2496
C:\Users\CYMR90~1\AppData\Local\Temp\ccYIfAxE.s:20766  .debug_str:000000000000411e .LASF2497
C:\Users\CYMR90~1\AppData\Local\Temp\ccYIfAxE.s:20140  .debug_str:0000000000001a3e .LASF2498
C:\Users\CYMR90~1\AppData\Local\Temp\ccYIfAxE.s:30439  .debug_str:000000000002a4ae .LASF2499
C:\Users\CYMR90~1\AppData\Local\Temp\ccYIfAxE.s:23674  .debug_str:000000000000f952 .LASF2500
C:\Users\CYMR90~1\AppData\Local\Temp\ccYIfAxE.s:23392  .debug_str:000000000000e8a4 .LASF2501
C:\Users\CYMR90~1\AppData\Local\Temp\ccYIfAxE.s:26679  .debug_str:000000000001b84a .LASF2502
C:\Users\CYMR90~1\AppData\Local\Temp\ccYIfAxE.s:29967  .debug_str:000000000002866d .LASF2503
C:\Users\CYMR90~1\AppData\Local\Temp\ccYIfAxE.s:21660  .debug_str:0000000000007981 .LASF2504
C:\Users\CYMR90~1\AppData\Local\Temp\ccYIfAxE.s:24862  .debug_str:00000000000143a5 .LASF2505
C:\Users\CYMR90~1\AppData\Local\Temp\ccYIfAxE.s:28123  .debug_str:00000000000211f4 .LASF2506
C:\Users\CYMR90~1\AppData\Local\Temp\ccYIfAxE.s:30365  .debug_str:000000000002a0a5 .LASF2507
C:\Users\CYMR90~1\AppData\Local\Temp\ccYIfAxE.s:23162  .debug_str:000000000000db5e .LASF2508
C:\Users\CYMR90~1\AppData\Local\Temp\ccYIfAxE.s:26457  .debug_str:000000000001a8ae .LASF2509
C:\Users\CYMR90~1\AppData\Local\Temp\ccYIfAxE.s:25362  .debug_str:00000000000161e9 .LASF2510
C:\Users\CYMR90~1\AppData\Local\Temp\ccYIfAxE.s:30053  .debug_str:0000000000028ce6 .LASF2511
C:\Users\CYMR90~1\AppData\Local\Temp\ccYIfAxE.s:23298  .debug_str:000000000000e342 .LASF2512
C:\Users\CYMR90~1\AppData\Local\Temp\ccYIfAxE.s:28069  .debug_str:0000000000020f04 .LASF2513
C:\Users\CYMR90~1\AppData\Local\Temp\ccYIfAxE.s:21286  .debug_str:00000000000061b0 .LASF2514
C:\Users\CYMR90~1\AppData\Local\Temp\ccYIfAxE.s:26151  .debug_str:0000000000019480 .LASF2515
C:\Users\CYMR90~1\AppData\Local\Temp\ccYIfAxE.s:26925  .debug_str:000000000001c703 .LASF2516
C:\Users\CYMR90~1\AppData\Local\Temp\ccYIfAxE.s:24188  .debug_str:00000000000117ff .LASF2517
C:\Users\CYMR90~1\AppData\Local\Temp\ccYIfAxE.s:28973  .debug_str:0000000000024433 .LASF2518
C:\Users\CYMR90~1\AppData\Local\Temp\ccYIfAxE.s:27019  .debug_str:000000000001cd71 .LASF2519
C:\Users\CYMR90~1\AppData\Local\Temp\ccYIfAxE.s:28217  .debug_str:000000000002172e .LASF2520
C:\Users\CYMR90~1\AppData\Local\Temp\ccYIfAxE.s:21450  .debug_str:0000000000006ba7 .LASF2521
C:\Users\CYMR90~1\AppData\Local\Temp\ccYIfAxE.s:26289  .debug_str:0000000000019d9a .LASF2522
C:\Users\CYMR90~1\AppData\Local\Temp\ccYIfAxE.s:31101  .debug_str:000000000002cded .LASF2523
C:\Users\CYMR90~1\AppData\Local\Temp\ccYIfAxE.s:24334  .debug_str:00000000000121db .LASF2524
C:\Users\CYMR90~1\AppData\Local\Temp\ccYIfAxE.s:29109  .debug_str:0000000000024da4 .LASF2525
C:\Users\CYMR90~1\AppData\Local\Temp\ccYIfAxE.s:24538  .debug_str:0000000000012ed6 .LASF2526
C:\Users\CYMR90~1\AppData\Local\Temp\ccYIfAxE.s:20600  .debug_str:000000000000368e .LASF2527
C:\Users\CYMR90~1\AppData\Local\Temp\ccYIfAxE.s:25937  .debug_str:00000000000185b9 .LASF2528
C:\Users\CYMR90~1\AppData\Local\Temp\ccYIfAxE.s:22202  .debug_str:0000000000009c77 .LASF2529
C:\Users\CYMR90~1\AppData\Local\Temp\ccYIfAxE.s:20944  .debug_str:0000000000004d71 .LASF2530
C:\Users\CYMR90~1\AppData\Local\Temp\ccYIfAxE.s:29427  .debug_str:0000000000026417 .LASF2531
C:\Users\CYMR90~1\AppData\Local\Temp\ccYIfAxE.s:25346  .debug_str:00000000000160c1 .LASF2532
C:\Users\CYMR90~1\AppData\Local\Temp\ccYIfAxE.s:27245  .debug_str:000000000001dcc2 .LASF2533
C:\Users\CYMR90~1\AppData\Local\Temp\ccYIfAxE.s:25500  .debug_str:00000000000169f9 .LASF2534
C:\Users\CYMR90~1\AppData\Local\Temp\ccYIfAxE.s:22264  .debug_str:000000000000a027 .LASF2535
C:\Users\CYMR90~1\AppData\Local\Temp\ccYIfAxE.s:21498  .debug_str:0000000000006ea5 .LASF2536
C:\Users\CYMR90~1\AppData\Local\Temp\ccYIfAxE.s:30185  .debug_str:000000000002953e .LASF2537
C:\Users\CYMR90~1\AppData\Local\Temp\ccYIfAxE.s:19828  .debug_str:0000000000000706 .LASF2538
C:\Users\CYMR90~1\AppData\Local\Temp\ccYIfAxE.s:21682  .debug_str:0000000000007ac4 .LASF2539
C:\Users\CYMR90~1\AppData\Local\Temp\ccYIfAxE.s:20646  .debug_str:00000000000039ac .LASF2540
C:\Users\CYMR90~1\AppData\Local\Temp\ccYIfAxE.s:29319  .debug_str:0000000000025caa .LASF2541
C:\Users\CYMR90~1\AppData\Local\Temp\ccYIfAxE.s:24336  .debug_str:00000000000121f0 .LASF2542
C:\Users\CYMR90~1\AppData\Local\Temp\ccYIfAxE.s:23070  .debug_str:000000000000d521 .LASF2543
C:\Users\CYMR90~1\AppData\Local\Temp\ccYIfAxE.s:27797  .debug_str:000000000001fe28 .LASF2544
C:\Users\CYMR90~1\AppData\Local\Temp\ccYIfAxE.s:26891  .debug_str:000000000001c52d .LASF2545
C:\Users\CYMR90~1\AppData\Local\Temp\ccYIfAxE.s:20692  .debug_str:0000000000003c68 .LASF2546
C:\Users\CYMR90~1\AppData\Local\Temp\ccYIfAxE.s:29475  .debug_str:0000000000026733 .LASF2547
C:\Users\CYMR90~1\AppData\Local\Temp\ccYIfAxE.s:23044  .debug_str:000000000000d381 .LASF2548
C:\Users\CYMR90~1\AppData\Local\Temp\ccYIfAxE.s:22108  .debug_str:000000000000965d .LASF2549
C:\Users\CYMR90~1\AppData\Local\Temp\ccYIfAxE.s:21038  .debug_str:00000000000052ec .LASF2550
C:\Users\CYMR90~1\AppData\Local\Temp\ccYIfAxE.s:29833  .debug_str:0000000000027d72 .LASF2551
C:\Users\CYMR90~1\AppData\Local\Temp\ccYIfAxE.s:30139  .debug_str:00000000000292a8 .LASF2552
C:\Users\CYMR90~1\AppData\Local\Temp\ccYIfAxE.s:24186  .debug_str:00000000000117dd .LASF2553
C:\Users\CYMR90~1\AppData\Local\Temp\ccYIfAxE.s:28165  .debug_str:000000000002142a .LASF2554
C:\Users\CYMR90~1\AppData\Local\Temp\ccYIfAxE.s:25268  .debug_str:0000000000015bc2 .LASF2555
C:\Users\CYMR90~1\AppData\Local\Temp\ccYIfAxE.s:25841  .debug_str:000000000001801b .LASF2556
C:\Users\CYMR90~1\AppData\Local\Temp\ccYIfAxE.s:24662  .debug_str:000000000001372d .LASF2557
C:\Users\CYMR90~1\AppData\Local\Temp\ccYIfAxE.s:25168  .debug_str:000000000001564a .LASF2558
C:\Users\CYMR90~1\AppData\Local\Temp\ccYIfAxE.s:23840  .debug_str:000000000001032e .LASF2559
C:\Users\CYMR90~1\AppData\Local\Temp\ccYIfAxE.s:24134  .debug_str:000000000001149f .LASF2560
C:\Users\CYMR90~1\AppData\Local\Temp\ccYIfAxE.s:23206  .debug_str:000000000000dd9e .LASF2561
C:\Users\CYMR90~1\AppData\Local\Temp\ccYIfAxE.s:22180  .debug_str:0000000000009ab1 .LASF2562
C:\Users\CYMR90~1\AppData\Local\Temp\ccYIfAxE.s:30859  .debug_str:000000000002bdc5 .LASF2563
C:\Users\CYMR90~1\AppData\Local\Temp\ccYIfAxE.s:25020  .debug_str:0000000000014d2e .LASF2564
C:\Users\CYMR90~1\AppData\Local\Temp\ccYIfAxE.s:30179  .debug_str:00000000000294e1 .LASF2565
C:\Users\CYMR90~1\AppData\Local\Temp\ccYIfAxE.s:28861  .debug_str:0000000000023df2 .LASF2566
C:\Users\CYMR90~1\AppData\Local\Temp\ccYIfAxE.s:25667  .debug_str:00000000000175bb .LASF2567
C:\Users\CYMR90~1\AppData\Local\Temp\ccYIfAxE.s:25286  .debug_str:0000000000015cf8 .LASF2568
C:\Users\CYMR90~1\AppData\Local\Temp\ccYIfAxE.s:25422  .debug_str:00000000000165de .LASF2569
C:\Users\CYMR90~1\AppData\Local\Temp\ccYIfAxE.s:29855  .debug_str:0000000000027eb0 .LASF2570
C:\Users\CYMR90~1\AppData\Local\Temp\ccYIfAxE.s:23060  .debug_str:000000000000d485 .LASF2571
C:\Users\CYMR90~1\AppData\Local\Temp\ccYIfAxE.s:27573  .debug_str:000000000001f094 .LASF2572
C:\Users\CYMR90~1\AppData\Local\Temp\ccYIfAxE.s:21572  .debug_str:000000000000736e .LASF2573
C:\Users\CYMR90~1\AppData\Local\Temp\ccYIfAxE.s:19976  .debug_str:000000000000109f .LASF2574
C:\Users\CYMR90~1\AppData\Local\Temp\ccYIfAxE.s:26545  .debug_str:000000000001aef4 .LASF2575
C:\Users\CYMR90~1\AppData\Local\Temp\ccYIfAxE.s:22442  .debug_str:000000000000ab57 .LASF2576
C:\Users\CYMR90~1\AppData\Local\Temp\ccYIfAxE.s:25402  .debug_str:00000000000164a1 .LASF2577
C:\Users\CYMR90~1\AppData\Local\Temp\ccYIfAxE.s:22778  .debug_str:000000000000c237 .LASF2578
C:\Users\CYMR90~1\AppData\Local\Temp\ccYIfAxE.s:22906  .debug_str:000000000000c9d9 .LASF2579
C:\Users\CYMR90~1\AppData\Local\Temp\ccYIfAxE.s:26935  .debug_str:000000000001c77c .LASF2580
C:\Users\CYMR90~1\AppData\Local\Temp\ccYIfAxE.s:20980  .debug_str:0000000000004f9f .LASF2581
C:\Users\CYMR90~1\AppData\Local\Temp\ccYIfAxE.s:26789  .debug_str:000000000001be8d .LASF2582
C:\Users\CYMR90~1\AppData\Local\Temp\ccYIfAxE.s:25272  .debug_str:0000000000015c2b .LASF2583
C:\Users\CYMR90~1\AppData\Local\Temp\ccYIfAxE.s:30327  .debug_str:0000000000029e7b .LASF2584
C:\Users\CYMR90~1\AppData\Local\Temp\ccYIfAxE.s:28467  .debug_str:00000000000226c7 .LASF2585
C:\Users\CYMR90~1\AppData\Local\Temp\ccYIfAxE.s:20950  .debug_str:0000000000004dd6 .LASF2586
C:\Users\CYMR90~1\AppData\Local\Temp\ccYIfAxE.s:28191  .debug_str:0000000000021597 .LASF2587
C:\Users\CYMR90~1\AppData\Local\Temp\ccYIfAxE.s:29713  .debug_str:00000000000275b7 .LASF2588
C:\Users\CYMR90~1\AppData\Local\Temp\ccYIfAxE.s:19924  .debug_str:0000000000000d0c .LASF2589
C:\Users\CYMR90~1\AppData\Local\Temp\ccYIfAxE.s:21702  .debug_str:0000000000007c08 .LASF2590
C:\Users\CYMR90~1\AppData\Local\Temp\ccYIfAxE.s:22178  .debug_str:0000000000009a91 .LASF2591
C:\Users\CYMR90~1\AppData\Local\Temp\ccYIfAxE.s:24518  .debug_str:0000000000012dba .LASF2592
C:\Users\CYMR90~1\AppData\Local\Temp\ccYIfAxE.s:22236  .debug_str:0000000000009e8e .LASF2593
C:\Users\CYMR90~1\AppData\Local\Temp\ccYIfAxE.s:20730  .debug_str:0000000000003ebe .LASF2594
C:\Users\CYMR90~1\AppData\Local\Temp\ccYIfAxE.s:26799  .debug_str:000000000001bf5d .LASF2595
C:\Users\CYMR90~1\AppData\Local\Temp\ccYIfAxE.s:25929  .debug_str:0000000000018551 .LASF2596
C:\Users\CYMR90~1\AppData\Local\Temp\ccYIfAxE.s:22302  .debug_str:000000000000a28f .LASF2597
C:\Users\CYMR90~1\AppData\Local\Temp\ccYIfAxE.s:31193  .debug_str:000000000002d3b5 .LASF2598
C:\Users\CYMR90~1\AppData\Local\Temp\ccYIfAxE.s:20170  .debug_str:0000000000001c29 .LASF2599
C:\Users\CYMR90~1\AppData\Local\Temp\ccYIfAxE.s:24776  .debug_str:0000000000013e9a .LASF2600
C:\Users\CYMR90~1\AppData\Local\Temp\ccYIfAxE.s:28443  .debug_str:0000000000022547 .LASF2601
C:\Users\CYMR90~1\AppData\Local\Temp\ccYIfAxE.s:30969  .debug_str:000000000002c4fe .LASF2602
C:\Users\CYMR90~1\AppData\Local\Temp\ccYIfAxE.s:24192  .debug_str:0000000000011843 .LASF2603
C:\Users\CYMR90~1\AppData\Local\Temp\ccYIfAxE.s:23498  .debug_str:000000000000ef61 .LASF2604
C:\Users\CYMR90~1\AppData\Local\Temp\ccYIfAxE.s:27063  .debug_str:000000000001d02d .LASF2605
C:\Users\CYMR90~1\AppData\Local\Temp\ccYIfAxE.s:26325  .debug_str:0000000000019fd1 .LASF2606
C:\Users\CYMR90~1\AppData\Local\Temp\ccYIfAxE.s:20998  .debug_str:00000000000050bc .LASF2607
C:\Users\CYMR90~1\AppData\Local\Temp\ccYIfAxE.s:20910  .debug_str:0000000000004b60 .LASF2608
C:\Users\CYMR90~1\AppData\Local\Temp\ccYIfAxE.s:25727  .debug_str:0000000000017912 .LASF2609
C:\Users\CYMR90~1\AppData\Local\Temp\ccYIfAxE.s:27695  .debug_str:000000000001f84b .LASF2610
C:\Users\CYMR90~1\AppData\Local\Temp\ccYIfAxE.s:21856  .debug_str:000000000000875b .LASF2611
C:\Users\CYMR90~1\AppData\Local\Temp\ccYIfAxE.s:21844  .debug_str:00000000000086ba .LASF2612
C:\Users\CYMR90~1\AppData\Local\Temp\ccYIfAxE.s:24402  .debug_str:0000000000012639 .LASF2613
C:\Users\CYMR90~1\AppData\Local\Temp\ccYIfAxE.s:24148  .debug_str:000000000001157d .LASF2614
C:\Users\CYMR90~1\AppData\Local\Temp\ccYIfAxE.s:25420  .debug_str:00000000000165ba .LASF2615
C:\Users\CYMR90~1\AppData\Local\Temp\ccYIfAxE.s:26749  .debug_str:000000000001bc95 .LASF2616
C:\Users\CYMR90~1\AppData\Local\Temp\ccYIfAxE.s:30117  .debug_str:000000000002915a .LASF2617
C:\Users\CYMR90~1\AppData\Local\Temp\ccYIfAxE.s:28311  .debug_str:0000000000021d8c .LASF2618
C:\Users\CYMR90~1\AppData\Local\Temp\ccYIfAxE.s:27311  .debug_str:000000000001e095 .LASF2619
C:\Users\CYMR90~1\AppData\Local\Temp\ccYIfAxE.s:26301  .debug_str:0000000000019e6e .LASF2620
C:\Users\CYMR90~1\AppData\Local\Temp\ccYIfAxE.s:25376  .debug_str:00000000000162db .LASF2621
C:\Users\CYMR90~1\AppData\Local\Temp\ccYIfAxE.s:24424  .debug_str:0000000000012772 .LASF2622
C:\Users\CYMR90~1\AppData\Local\Temp\ccYIfAxE.s:28707  .debug_str:00000000000234fd .LASF2623
C:\Users\CYMR90~1\AppData\Local\Temp\ccYIfAxE.s:25200  .debug_str:0000000000015809 .LASF2624
C:\Users\CYMR90~1\AppData\Local\Temp\ccYIfAxE.s:20834  .debug_str:00000000000045c2 .LASF2625
C:\Users\CYMR90~1\AppData\Local\Temp\ccYIfAxE.s:20528  .debug_str:00000000000031e0 .LASF2626
C:\Users\CYMR90~1\AppData\Local\Temp\ccYIfAxE.s:22110  .debug_str:000000000000967f .LASF2627
C:\Users\CYMR90~1\AppData\Local\Temp\ccYIfAxE.s:19920  .debug_str:0000000000000cd5 .LASF2628
C:\Users\CYMR90~1\AppData\Local\Temp\ccYIfAxE.s:23294  .debug_str:000000000000e304 .LASF2629
C:\Users\CYMR90~1\AppData\Local\Temp\ccYIfAxE.s:21916  .debug_str:0000000000008ac3 .LASF2630
C:\Users\CYMR90~1\AppData\Local\Temp\ccYIfAxE.s:20220  .debug_str:0000000000001ef1 .LASF2631
C:\Users\CYMR90~1\AppData\Local\Temp\ccYIfAxE.s:25977  .debug_str:0000000000018811 .LASF2632
C:\Users\CYMR90~1\AppData\Local\Temp\ccYIfAxE.s:20026  .debug_str:0000000000001365 .LASF2633
C:\Users\CYMR90~1\AppData\Local\Temp\ccYIfAxE.s:26427  .debug_str:000000000001a73a .LASF2634
C:\Users\CYMR90~1\AppData\Local\Temp\ccYIfAxE.s:26211  .debug_str:0000000000019824 .LASF2635
C:\Users\CYMR90~1\AppData\Local\Temp\ccYIfAxE.s:24692  .debug_str:00000000000139c1 .LASF2636
C:\Users\CYMR90~1\AppData\Local\Temp\ccYIfAxE.s:30019  .debug_str:0000000000028aa3 .LASF2637
C:\Users\CYMR90~1\AppData\Local\Temp\ccYIfAxE.s:22308  .debug_str:000000000000a2f5 .LASF2638
C:\Users\CYMR90~1\AppData\Local\Temp\ccYIfAxE.s:26471  .debug_str:000000000001a99b .LASF2639
C:\Users\CYMR90~1\AppData\Local\Temp\ccYIfAxE.s:27111  .debug_str:000000000001d43a .LASF2640
C:\Users\CYMR90~1\AppData\Local\Temp\ccYIfAxE.s:25605  .debug_str:000000000001726c .LASF2641
C:\Users\CYMR90~1\AppData\Local\Temp\ccYIfAxE.s:29595  .debug_str:0000000000026e82 .LASF2642
C:\Users\CYMR90~1\AppData\Local\Temp\ccYIfAxE.s:24632  .debug_str:00000000000134f3 .LASF2643
C:\Users\CYMR90~1\AppData\Local\Temp\ccYIfAxE.s:19786  .debug_str:00000000000004bc .LASF2644
C:\Users\CYMR90~1\AppData\Local\Temp\ccYIfAxE.s:30507  .debug_str:000000000002a890 .LASF2645
C:\Users\CYMR90~1\AppData\Local\Temp\ccYIfAxE.s:25230  .debug_str:0000000000015992 .LASF2646
C:\Users\CYMR90~1\AppData\Local\Temp\ccYIfAxE.s:19906  .debug_str:0000000000000c01 .LASF2647
C:\Users\CYMR90~1\AppData\Local\Temp\ccYIfAxE.s:27211  .debug_str:000000000001daa1 .LASF2648
C:\Users\CYMR90~1\AppData\Local\Temp\ccYIfAxE.s:22434  .debug_str:000000000000aae7 .LASF2649
C:\Users\CYMR90~1\AppData\Local\Temp\ccYIfAxE.s:29157  .debug_str:00000000000250d1 .LASF2650
C:\Users\CYMR90~1\AppData\Local\Temp\ccYIfAxE.s:21100  .debug_str:00000000000056c4 .LASF2651
C:\Users\CYMR90~1\AppData\Local\Temp\ccYIfAxE.s:20694  .debug_str:0000000000003c8a .LASF2652
C:\Users\CYMR90~1\AppData\Local\Temp\ccYIfAxE.s:24906  .debug_str:0000000000014690 .LASF2653
C:\Users\CYMR90~1\AppData\Local\Temp\ccYIfAxE.s:22814  .debug_str:000000000000c46b .LASF2654
C:\Users\CYMR90~1\AppData\Local\Temp\ccYIfAxE.s:27683  .debug_str:000000000001f790 .LASF2655
C:\Users\CYMR90~1\AppData\Local\Temp\ccYIfAxE.s:23376  .debug_str:000000000000e7ae .LASF2656
C:\Users\CYMR90~1\AppData\Local\Temp\ccYIfAxE.s:28613  .debug_str:0000000000022f45 .LASF2657
C:\Users\CYMR90~1\AppData\Local\Temp\ccYIfAxE.s:31177  .debug_str:000000000002d2d7 .LASF2658
C:\Users\CYMR90~1\AppData\Local\Temp\ccYIfAxE.s:21224  .debug_str:0000000000005e52 .LASF2659
C:\Users\CYMR90~1\AppData\Local\Temp\ccYIfAxE.s:26455  .debug_str:000000000001a890 .LASF2660
C:\Users\CYMR90~1\AppData\Local\Temp\ccYIfAxE.s:22522  .debug_str:000000000000b058 .LASF2661
C:\Users\CYMR90~1\AppData\Local\Temp\ccYIfAxE.s:29295  .debug_str:0000000000025ad5 .LASF2662
C:\Users\CYMR90~1\AppData\Local\Temp\ccYIfAxE.s:20474  .debug_str:0000000000002e84 .LASF2663
C:\Users\CYMR90~1\AppData\Local\Temp\ccYIfAxE.s:31057  .debug_str:000000000002cb03 .LASF2664
C:\Users\CYMR90~1\AppData\Local\Temp\ccYIfAxE.s:20064  .debug_str:00000000000015a0 .LASF2665
C:\Users\CYMR90~1\AppData\Local\Temp\ccYIfAxE.s:28473  .debug_str:000000000002271e .LASF2666
C:\Users\CYMR90~1\AppData\Local\Temp\ccYIfAxE.s:28483  .debug_str:00000000000227be .LASF2667
C:\Users\CYMR90~1\AppData\Local\Temp\ccYIfAxE.s:24796  .debug_str:0000000000013fda .LASF2668
C:\Users\CYMR90~1\AppData\Local\Temp\ccYIfAxE.s:24580  .debug_str:00000000000131ab .LASF2669
C:\Users\CYMR90~1\AppData\Local\Temp\ccYIfAxE.s:27489  .debug_str:000000000001eb9c .LASF2670
C:\Users\CYMR90~1\AppData\Local\Temp\ccYIfAxE.s:22662  .debug_str:000000000000ba36 .LASF2671
C:\Users\CYMR90~1\AppData\Local\Temp\ccYIfAxE.s:21506  .debug_str:0000000000006f34 .LASF2672
C:\Users\CYMR90~1\AppData\Local\Temp\ccYIfAxE.s:27795  .debug_str:000000000001fdfa .LASF2673
C:\Users\CYMR90~1\AppData\Local\Temp\ccYIfAxE.s:30387  .debug_str:000000000002a1cf .LASF2674
C:\Users\CYMR90~1\AppData\Local\Temp\ccYIfAxE.s:25755  .debug_str:0000000000017af8 .LASF2675
C:\Users\CYMR90~1\AppData\Local\Temp\ccYIfAxE.s:27125  .debug_str:000000000001d52f .LASF2676
C:\Users\CYMR90~1\AppData\Local\Temp\ccYIfAxE.s:24966  .debug_str:0000000000014a37 .LASF2677
C:\Users\CYMR90~1\AppData\Local\Temp\ccYIfAxE.s:20442  .debug_str:0000000000002c7b .LASF2678
C:\Users\CYMR90~1\AppData\Local\Temp\ccYIfAxE.s:26633  .debug_str:000000000001b4bf .LASF2679
C:\Users\CYMR90~1\AppData\Local\Temp\ccYIfAxE.s:30777  .debug_str:000000000002b84a .LASF2680
C:\Users\CYMR90~1\AppData\Local\Temp\ccYIfAxE.s:21010  .debug_str:0000000000005161 .LASF2681
C:\Users\CYMR90~1\AppData\Local\Temp\ccYIfAxE.s:21674  .debug_str:0000000000007a3e .LASF2682
C:\Users\CYMR90~1\AppData\Local\Temp\ccYIfAxE.s:30195  .debug_str:0000000000029617 .LASF2683
C:\Users\CYMR90~1\AppData\Local\Temp\ccYIfAxE.s:23994  .debug_str:0000000000010bfc .LASF2684
C:\Users\CYMR90~1\AppData\Local\Temp\ccYIfAxE.s:29229  .debug_str:0000000000025545 .LASF2685
C:\Users\CYMR90~1\AppData\Local\Temp\ccYIfAxE.s:23052  .debug_str:000000000000d3f7 .LASF2686
C:\Users\CYMR90~1\AppData\Local\Temp\ccYIfAxE.s:28377  .debug_str:0000000000022141 .LASF2687
C:\Users\CYMR90~1\AppData\Local\Temp\ccYIfAxE.s:28629  .debug_str:000000000002302d .LASF2688
C:\Users\CYMR90~1\AppData\Local\Temp\ccYIfAxE.s:24180  .debug_str:0000000000011793 .LASF2689
C:\Users\CYMR90~1\AppData\Local\Temp\ccYIfAxE.s:20678  .debug_str:0000000000003ba7 .LASF2690
C:\Users\CYMR90~1\AppData\Local\Temp\ccYIfAxE.s:26093  .debug_str:000000000001900e .LASF2691
C:\Users\CYMR90~1\AppData\Local\Temp\ccYIfAxE.s:19840  .debug_str:00000000000007bc .LASF2692
C:\Users\CYMR90~1\AppData\Local\Temp\ccYIfAxE.s:27895  .debug_str:0000000000020458 .LASF2693
C:\Users\CYMR90~1\AppData\Local\Temp\ccYIfAxE.s:30105  .debug_str:0000000000029083 .LASF2694
C:\Users\CYMR90~1\AppData\Local\Temp\ccYIfAxE.s:26441  .debug_str:000000000001a7d9 .LASF2695
C:\Users\CYMR90~1\AppData\Local\Temp\ccYIfAxE.s:19796  .debug_str:0000000000000539 .LASF2696
C:\Users\CYMR90~1\AppData\Local\Temp\ccYIfAxE.s:28371  .debug_str:00000000000220fd .LASF2697
C:\Users\CYMR90~1\AppData\Local\Temp\ccYIfAxE.s:19978  .debug_str:00000000000010b1 .LASF2698
C:\Users\CYMR90~1\AppData\Local\Temp\ccYIfAxE.s:23306  .debug_str:000000000000e3b9 .LASF2699
C:\Users\CYMR90~1\AppData\Local\Temp\ccYIfAxE.s:26601  .debug_str:000000000001b29e .LASF2700
C:\Users\CYMR90~1\AppData\Local\Temp\ccYIfAxE.s:29859  .debug_str:0000000000027ef5 .LASF2701
C:\Users\CYMR90~1\AppData\Local\Temp\ccYIfAxE.s:21550  .debug_str:00000000000071e1 .LASF2702
C:\Users\CYMR90~1\AppData\Local\Temp\ccYIfAxE.s:24854  .debug_str:0000000000014316 .LASF2703
C:\Users\CYMR90~1\AppData\Local\Temp\ccYIfAxE.s:21214  .debug_str:0000000000005dd0 .LASF2704
C:\Users\CYMR90~1\AppData\Local\Temp\ccYIfAxE.s:26085  .debug_str:0000000000018f8b .LASF2705
C:\Users\CYMR90~1\AppData\Local\Temp\ccYIfAxE.s:30903  .debug_str:000000000002c0c5 .LASF2706
C:\Users\CYMR90~1\AppData\Local\Temp\ccYIfAxE.s:24126  .debug_str:0000000000011436 .LASF2707
C:\Users\CYMR90~1\AppData\Local\Temp\ccYIfAxE.s:28899  .debug_str:000000000002401a .LASF2708
C:\Users\CYMR90~1\AppData\Local\Temp\ccYIfAxE.s:22156  .debug_str:0000000000009952 .LASF2709
C:\Users\CYMR90~1\AppData\Local\Temp\ccYIfAxE.s:22536  .debug_str:000000000000b200 .LASF2710
C:\Users\CYMR90~1\AppData\Local\Temp\ccYIfAxE.s:23216  .debug_str:000000000000de52 .LASF2711
C:\Users\CYMR90~1\AppData\Local\Temp\ccYIfAxE.s:28623  .debug_str:0000000000022fc7 .LASF2712
C:\Users\CYMR90~1\AppData\Local\Temp\ccYIfAxE.s:25809  .debug_str:0000000000017e3c .LASF2713
C:\Users\CYMR90~1\AppData\Local\Temp\ccYIfAxE.s:20928  .debug_str:0000000000004c8c .LASF2714
C:\Users\CYMR90~1\AppData\Local\Temp\ccYIfAxE.s:22402  .debug_str:000000000000a8e1 .LASF2715
C:\Users\CYMR90~1\AppData\Local\Temp\ccYIfAxE.s:27715  .debug_str:000000000001f976 .LASF2716
C:\Users\CYMR90~1\AppData\Local\Temp\ccYIfAxE.s:21524  .debug_str:000000000000707b .LASF2717
C:\Users\CYMR90~1\AppData\Local\Temp\ccYIfAxE.s:26803  .debug_str:000000000001bfaa .LASF2718
C:\Users\CYMR90~1\AppData\Local\Temp\ccYIfAxE.s:20566  .debug_str:000000000000344f .LASF2719
C:\Users\CYMR90~1\AppData\Local\Temp\ccYIfAxE.s:22642  .debug_str:000000000000b8c2 .LASF2720
C:\Users\CYMR90~1\AppData\Local\Temp\ccYIfAxE.s:27877  .debug_str:000000000002032e .LASF2721
C:\Users\CYMR90~1\AppData\Local\Temp\ccYIfAxE.s:21766  .debug_str:00000000000080cc .LASF2722
C:\Users\CYMR90~1\AppData\Local\Temp\ccYIfAxE.s:27031  .debug_str:000000000001ce11 .LASF2723
C:\Users\CYMR90~1\AppData\Local\Temp\ccYIfAxE.s:20790  .debug_str:000000000000432b .LASF2724
C:\Users\CYMR90~1\AppData\Local\Temp\ccYIfAxE.s:28875  .debug_str:0000000000023ed2 .LASF2725
C:\Users\CYMR90~1\AppData\Local\Temp\ccYIfAxE.s:26117  .debug_str:000000000001916b .LASF2726
C:\Users\CYMR90~1\AppData\Local\Temp\ccYIfAxE.s:20244  .debug_str:0000000000002037 .LASF2727
C:\Users\CYMR90~1\AppData\Local\Temp\ccYIfAxE.s:20606  .debug_str:00000000000036d7 .LASF2728
C:\Users\CYMR90~1\AppData\Local\Temp\ccYIfAxE.s:29367  .debug_str:0000000000026046 .LASF2729
C:\Users\CYMR90~1\AppData\Local\Temp\ccYIfAxE.s:26661  .debug_str:000000000001b699 .LASF2730
C:\Users\CYMR90~1\AppData\Local\Temp\ccYIfAxE.s:25797  .debug_str:0000000000017d9e .LASF2731
C:\Users\CYMR90~1\AppData\Local\Temp\ccYIfAxE.s:24850  .debug_str:00000000000142e2 .LASF2732
C:\Users\CYMR90~1\AppData\Local\Temp\ccYIfAxE.s:24852  .debug_str:00000000000142fc .LASF2733
C:\Users\CYMR90~1\AppData\Local\Temp\ccYIfAxE.s:30217  .debug_str:0000000000029751 .LASF2734
C:\Users\CYMR90~1\AppData\Local\Temp\ccYIfAxE.s:23930  .debug_str:000000000001083a .LASF2735
C:\Users\CYMR90~1\AppData\Local\Temp\ccYIfAxE.s:26561  .debug_str:000000000001afe3 .LASF2736
C:\Users\CYMR90~1\AppData\Local\Temp\ccYIfAxE.s:20276  .debug_str:00000000000021f2 .LASF2737
C:\Users\CYMR90~1\AppData\Local\Temp\ccYIfAxE.s:25597  .debug_str:00000000000171fd .LASF2738
C:\Users\CYMR90~1\AppData\Local\Temp\ccYIfAxE.s:24886  .debug_str:0000000000014562 .LASF2739
C:\Users\CYMR90~1\AppData\Local\Temp\ccYIfAxE.s:24646  .debug_str:00000000000135bc .LASF2740
C:\Users\CYMR90~1\AppData\Local\Temp\ccYIfAxE.s:23502  .debug_str:000000000000ef92 .LASF2741
C:\Users\CYMR90~1\AppData\Local\Temp\ccYIfAxE.s:30779  .debug_str:000000000002b862 .LASF2742
C:\Users\CYMR90~1\AppData\Local\Temp\ccYIfAxE.s:22474  .debug_str:000000000000ad43 .LASF2743
C:\Users\CYMR90~1\AppData\Local\Temp\ccYIfAxE.s:25753  .debug_str:0000000000017adf .LASF2744
C:\Users\CYMR90~1\AppData\Local\Temp\ccYIfAxE.s:29027  .debug_str:000000000002489b .LASF2745
C:\Users\CYMR90~1\AppData\Local\Temp\ccYIfAxE.s:20716  .debug_str:0000000000003df9 .LASF2746
C:\Users\CYMR90~1\AppData\Local\Temp\ccYIfAxE.s:24056  .debug_str:0000000000011073 .LASF2747
C:\Users\CYMR90~1\AppData\Local\Temp\ccYIfAxE.s:27289  .debug_str:000000000001df52 .LASF2748
C:\Users\CYMR90~1\AppData\Local\Temp\ccYIfAxE.s:30529  .debug_str:000000000002a9ce .LASF2749
C:\Users\CYMR90~1\AppData\Local\Temp\ccYIfAxE.s:22232  .debug_str:0000000000009e59 .LASF2750
C:\Users\CYMR90~1\AppData\Local\Temp\ccYIfAxE.s:25518  .debug_str:0000000000016b09 .LASF2751
C:\Users\CYMR90~1\AppData\Local\Temp\ccYIfAxE.s:27531  .debug_str:000000000001ee57 .LASF2752
C:\Users\CYMR90~1\AppData\Local\Temp\ccYIfAxE.s:20768  .debug_str:0000000000004139 .LASF2753
C:\Users\CYMR90~1\AppData\Local\Temp\ccYIfAxE.s:25629  .debug_str:00000000000173a0 .LASF2754
C:\Users\CYMR90~1\AppData\Local\Temp\ccYIfAxE.s:30441  .debug_str:000000000002a4c9 .LASF2755
C:\Users\CYMR90~1\AppData\Local\Temp\ccYIfAxE.s:23676  .debug_str:000000000000f96d .LASF2756
C:\Users\CYMR90~1\AppData\Local\Temp\ccYIfAxE.s:28461  .debug_str:000000000002267d .LASF2757
C:\Users\CYMR90~1\AppData\Local\Temp\ccYIfAxE.s:21688  .debug_str:0000000000007b35 .LASF2758
C:\Users\CYMR90~1\AppData\Local\Temp\ccYIfAxE.s:24980  .debug_str:0000000000014b12 .LASF2759
C:\Users\CYMR90~1\AppData\Local\Temp\ccYIfAxE.s:28153  .debug_str:000000000002138e .LASF2760
C:\Users\CYMR90~1\AppData\Local\Temp\ccYIfAxE.s:19872  .debug_str:00000000000009a8 .LASF2761
C:\Users\CYMR90~1\AppData\Local\Temp\ccYIfAxE.s:23196  .debug_str:000000000000dd32 .LASF2762
C:\Users\CYMR90~1\AppData\Local\Temp\ccYIfAxE.s:26487  .debug_str:000000000001ab16 .LASF2763
C:\Users\CYMR90~1\AppData\Local\Temp\ccYIfAxE.s:29741  .debug_str:0000000000027749 .LASF2764
C:\Users\CYMR90~1\AppData\Local\Temp\ccYIfAxE.s:21438  .debug_str:0000000000006af8 .LASF2765
C:\Users\CYMR90~1\AppData\Local\Temp\ccYIfAxE.s:24754  .debug_str:0000000000013d57 .LASF2766
C:\Users\CYMR90~1\AppData\Local\Temp\ccYIfAxE.s:28013  .debug_str:0000000000020bc3 .LASF2767
C:\Users\CYMR90~1\AppData\Local\Temp\ccYIfAxE.s:25302  .debug_str:0000000000015dd8 .LASF2768
C:\Users\CYMR90~1\AppData\Local\Temp\ccYIfAxE.s:30121  .debug_str:000000000002918c .LASF2769
C:\Users\CYMR90~1\AppData\Local\Temp\ccYIfAxE.s:23360  .debug_str:000000000000e6d7 .LASF2770
C:\Users\CYMR90~1\AppData\Local\Temp\ccYIfAxE.s:21368  .debug_str:00000000000066b2 .LASF2771
C:\Users\CYMR90~1\AppData\Local\Temp\ccYIfAxE.s:26223  .debug_str:00000000000198d0 .LASF2772
C:\Users\CYMR90~1\AppData\Local\Temp\ccYIfAxE.s:24702  .debug_str:0000000000013a55 .LASF2773
C:\Users\CYMR90~1\AppData\Local\Temp\ccYIfAxE.s:27955  .debug_str:0000000000020797 .LASF2774
C:\Users\CYMR90~1\AppData\Local\Temp\ccYIfAxE.s:31267  .debug_str:000000000002d89d .LASF2775
C:\Users\CYMR90~1\AppData\Local\Temp\ccYIfAxE.s:26893  .debug_str:000000000001c54f .LASF2776
C:\Users\CYMR90~1\AppData\Local\Temp\ccYIfAxE.s:29007  .debug_str:0000000000024759 .LASF2777
C:\Users\CYMR90~1\AppData\Local\Temp\ccYIfAxE.s:29441  .debug_str:00000000000264ec .LASF2778
C:\Users\CYMR90~1\AppData\Local\Temp\ccYIfAxE.s:23202  .debug_str:000000000000dd82 .LASF2779
C:\Users\CYMR90~1\AppData\Local\Temp\ccYIfAxE.s:24472  .debug_str:0000000000012a9f .LASF2780
C:\Users\CYMR90~1\AppData\Local\Temp\ccYIfAxE.s:27685  .debug_str:000000000001f7b5 .LASF2781
C:\Users\CYMR90~1\AppData\Local\Temp\ccYIfAxE.s:31037  .debug_str:000000000002c9c9 .LASF2782
C:\Users\CYMR90~1\AppData\Local\Temp\ccYIfAxE.s:28463  .debug_str:0000000000022698 .LASF2783
C:\Users\CYMR90~1\AppData\Local\Temp\ccYIfAxE.s:30501  .debug_str:000000000002a82d .LASF2784
C:\Users\CYMR90~1\AppData\Local\Temp\ccYIfAxE.s:20760  .debug_str:00000000000040ce .LASF2785
C:\Users\CYMR90~1\AppData\Local\Temp\ccYIfAxE.s:25542  .debug_str:0000000000016ce1 .LASF2786
C:\Users\CYMR90~1\AppData\Local\Temp\ccYIfAxE.s:30349  .debug_str:0000000000029fd4 .LASF2787
C:\Users\CYMR90~1\AppData\Local\Temp\ccYIfAxE.s:23586  .debug_str:000000000000f40c .LASF2788
C:\Users\CYMR90~1\AppData\Local\Temp\ccYIfAxE.s:25508  .debug_str:0000000000016a84 .LASF2789
C:\Users\CYMR90~1\AppData\Local\Temp\ccYIfAxE.s:30317  .debug_str:0000000000029da1 .LASF2790
C:\Users\CYMR90~1\AppData\Local\Temp\ccYIfAxE.s:23558  .debug_str:000000000000f26d .LASF2791
C:\Users\CYMR90~1\AppData\Local\Temp\ccYIfAxE.s:28343  .debug_str:0000000000021f35 .LASF2792
C:\Users\CYMR90~1\AppData\Local\Temp\ccYIfAxE.s:26977  .debug_str:000000000001ca01 .LASF2793
C:\Users\CYMR90~1\AppData\Local\Temp\ccYIfAxE.s:20186  .debug_str:0000000000001d0a .LASF2794
C:\Users\CYMR90~1\AppData\Local\Temp\ccYIfAxE.s:25022  .debug_str:0000000000014d45 .LASF2795
C:\Users\CYMR90~1\AppData\Local\Temp\ccYIfAxE.s:24816  .debug_str:00000000000140da .LASF2796
C:\Users\CYMR90~1\AppData\Local\Temp\ccYIfAxE.s:23088  .debug_str:000000000000d695 .LASF2797
C:\Users\CYMR90~1\AppData\Local\Temp\ccYIfAxE.s:27853  .debug_str:0000000000020173 .LASF2798
C:\Users\CYMR90~1\AppData\Local\Temp\ccYIfAxE.s:22712  .debug_str:000000000000bd86 .LASF2799
C:\Users\CYMR90~1\AppData\Local\Temp\ccYIfAxE.s:27475  .debug_str:000000000001ea98 .LASF2800
C:\Users\CYMR90~1\AppData\Local\Temp\ccYIfAxE.s:20706  .debug_str:0000000000003d2e .LASF2801
C:\Users\CYMR90~1\AppData\Local\Temp\ccYIfAxE.s:25558  .debug_str:0000000000016df9 .LASF2802
C:\Users\CYMR90~1\AppData\Local\Temp\ccYIfAxE.s:22078  .debug_str:00000000000094a0 .LASF2803
C:\Users\CYMR90~1\AppData\Local\Temp\ccYIfAxE.s:28979  .debug_str:0000000000024493 .LASF2804
C:\Users\CYMR90~1\AppData\Local\Temp\ccYIfAxE.s:20194  .debug_str:0000000000001d8b .LASF2805
C:\Users\CYMR90~1\AppData\Local\Temp\ccYIfAxE.s:23524  .debug_str:000000000000f0ad .LASF2806
C:\Users\CYMR90~1\AppData\Local\Temp\ccYIfAxE.s:29793  .debug_str:0000000000027b53 .LASF2807
C:\Users\CYMR90~1\AppData\Local\Temp\ccYIfAxE.s:30095  .debug_str:0000000000028fef .LASF2808
C:\Users\CYMR90~1\AppData\Local\Temp\ccYIfAxE.s:21696  .debug_str:0000000000007ba1 .LASF2809
C:\Users\CYMR90~1\AppData\Local\Temp\ccYIfAxE.s:24988  .debug_str:0000000000014b69 .LASF2810
C:\Users\CYMR90~1\AppData\Local\Temp\ccYIfAxE.s:22242  .debug_str:0000000000009ed5 .LASF2811
C:\Users\CYMR90~1\AppData\Local\Temp\ccYIfAxE.s:19964  .debug_str:0000000000000fff .LASF2812
C:\Users\CYMR90~1\AppData\Local\Temp\ccYIfAxE.s:23290  .debug_str:000000000000e2d8 .LASF2813
C:\Users\CYMR90~1\AppData\Local\Temp\ccYIfAxE.s:26581  .debug_str:000000000001b126 .LASF2814
C:\Users\CYMR90~1\AppData\Local\Temp\ccYIfAxE.s:29399  .debug_str:0000000000026251 .LASF2815
C:\Users\CYMR90~1\AppData\Local\Temp\ccYIfAxE.s:30687  .debug_str:000000000002b35b .LASF2816
C:\Users\CYMR90~1\AppData\Local\Temp\ccYIfAxE.s:23928  .debug_str:0000000000010823 .LASF2817
C:\Users\CYMR90~1\AppData\Local\Temp\ccYIfAxE.s:28705  .debug_str:00000000000234e6 .LASF2818
C:\Users\CYMR90~1\AppData\Local\Temp\ccYIfAxE.s:29331  .debug_str:0000000000025d78 .LASF2819
C:\Users\CYMR90~1\AppData\Local\Temp\ccYIfAxE.s:26759  .debug_str:000000000001bcfd .LASF2820
C:\Users\CYMR90~1\AppData\Local\Temp\ccYIfAxE.s:24112  .debug_str:0000000000011358 .LASF2821
C:\Users\CYMR90~1\AppData\Local\Temp\ccYIfAxE.s:30551  .debug_str:000000000002aaf6 .LASF2822
C:\Users\CYMR90~1\AppData\Local\Temp\ccYIfAxE.s:21466  .debug_str:0000000000006c95 .LASF2823
C:\Users\CYMR90~1\AppData\Local\Temp\ccYIfAxE.s:21888  .debug_str:0000000000008910 .LASF2824
C:\Users\CYMR90~1\AppData\Local\Temp\ccYIfAxE.s:22880  .debug_str:000000000000c81d .LASF2825
C:\Users\CYMR90~1\AppData\Local\Temp\ccYIfAxE.s:20282  .debug_str:000000000000223d .LASF2826
C:\Users\CYMR90~1\AppData\Local\Temp\ccYIfAxE.s:20620  .debug_str:00000000000037cc .LASF2827
C:\Users\CYMR90~1\AppData\Local\Temp\ccYIfAxE.s:25691  .debug_str:00000000000176fa .LASF2828
C:\Users\CYMR90~1\AppData\Local\Temp\ccYIfAxE.s:20986  .debug_str:000000000000500b .LASF2829
C:\Users\CYMR90~1\AppData\Local\Temp\ccYIfAxE.s:24466  .debug_str:0000000000012a3c .LASF2830
C:\Users\CYMR90~1\AppData\Local\Temp\ccYIfAxE.s:21032  .debug_str:000000000000529f .LASF2831
C:\Users\CYMR90~1\AppData\Local\Temp\ccYIfAxE.s:28023  .debug_str:0000000000020c45 .LASF2832
C:\Users\CYMR90~1\AppData\Local\Temp\ccYIfAxE.s:29077  .debug_str:0000000000024bcd .LASF2833
C:\Users\CYMR90~1\AppData\Local\Temp\ccYIfAxE.s:23492  .debug_str:000000000000ef1a .LASF2834
C:\Users\CYMR90~1\AppData\Local\Temp\ccYIfAxE.s:22526  .debug_str:000000000000b0ad .LASF2835
C:\Users\CYMR90~1\AppData\Local\Temp\ccYIfAxE.s:20024  .debug_str:0000000000001347 .LASF2836
C:\Users\CYMR90~1\AppData\Local\Temp\ccYIfAxE.s:22916  .debug_str:000000000000ca7f .LASF2837
C:\Users\CYMR90~1\AppData\Local\Temp\ccYIfAxE.s:24760  .debug_str:0000000000013d99 .LASF2838
C:\Users\CYMR90~1\AppData\Local\Temp\ccYIfAxE.s:28019  .debug_str:0000000000020c16 .LASF2839
C:\Users\CYMR90~1\AppData\Local\Temp\ccYIfAxE.s:19734  .debug_str:000000000000020b .LASF2840
C:\Users\CYMR90~1\AppData\Local\Temp\ccYIfAxE.s:23050  .debug_str:000000000000d3e4 .LASF2841
C:\Users\CYMR90~1\AppData\Local\Temp\ccYIfAxE.s:26329  .debug_str:000000000001a027 .LASF2842
C:\Users\CYMR90~1\AppData\Local\Temp\ccYIfAxE.s:19938  .debug_str:0000000000000e0c .LASF2843
C:\Users\CYMR90~1\AppData\Local\Temp\ccYIfAxE.s:29865  .debug_str:0000000000027f4d .LASF2844
C:\Users\CYMR90~1\AppData\Local\Temp\ccYIfAxE.s:24528  .debug_str:0000000000012e61 .LASF2845
C:\Users\CYMR90~1\AppData\Local\Temp\ccYIfAxE.s:26569  .debug_str:000000000001b067 .LASF2846
C:\Users\CYMR90~1\AppData\Local\Temp\ccYIfAxE.s:31095  .debug_str:000000000002cd92 .LASF2847
C:\Users\CYMR90~1\AppData\Local\Temp\ccYIfAxE.s:20058  .debug_str:000000000000156a .LASF2848
C:\Users\CYMR90~1\AppData\Local\Temp\ccYIfAxE.s:24896  .debug_str:0000000000014603 .LASF2849
C:\Users\CYMR90~1\AppData\Local\Temp\ccYIfAxE.s:29705  .debug_str:0000000000027537 .LASF2850
C:\Users\CYMR90~1\AppData\Local\Temp\ccYIfAxE.s:30771  .debug_str:000000000002b7e8 .LASF2851
C:\Users\CYMR90~1\AppData\Local\Temp\ccYIfAxE.s:26897  .debug_str:000000000001c56e .LASF2852
C:\Users\CYMR90~1\AppData\Local\Temp\ccYIfAxE.s:23096  .debug_str:000000000000d6ed .LASF2853
C:\Users\CYMR90~1\AppData\Local\Temp\ccYIfAxE.s:28499  .debug_str:0000000000022897 .LASF2854
C:\Users\CYMR90~1\AppData\Local\Temp\ccYIfAxE.s:20178  .debug_str:0000000000001c96 .LASF2855
C:\Users\CYMR90~1\AppData\Local\Temp\ccYIfAxE.s:23508  .debug_str:000000000000efdd .LASF2856
C:\Users\CYMR90~1\AppData\Local\Temp\ccYIfAxE.s:26779  .debug_str:000000000001be06 .LASF2857
C:\Users\CYMR90~1\AppData\Local\Temp\ccYIfAxE.s:29989  .debug_str:0000000000028835 .LASF2858
C:\Users\CYMR90~1\AppData\Local\Temp\ccYIfAxE.s:28333  .debug_str:0000000000021ea5 .LASF2859
C:\Users\CYMR90~1\AppData\Local\Temp\ccYIfAxE.s:24974  .debug_str:0000000000014ac2 .LASF2860
C:\Users\CYMR90~1\AppData\Local\Temp\ccYIfAxE.s:25014  .debug_str:0000000000014ce9 .LASF2861
C:\Users\CYMR90~1\AppData\Local\Temp\ccYIfAxE.s:19954  .debug_str:0000000000000f71 .LASF2862
C:\Users\CYMR90~1\AppData\Local\Temp\ccYIfAxE.s:20100  .debug_str:00000000000017d4 .LASF2863
C:\Users\CYMR90~1\AppData\Local\Temp\ccYIfAxE.s:25566  .debug_str:0000000000016e73 .LASF2864
C:\Users\CYMR90~1\AppData\Local\Temp\ccYIfAxE.s:28497  .debug_str:0000000000022882 .LASF2865
C:\Users\CYMR90~1\AppData\Local\Temp\ccYIfAxE.s:23606  .debug_str:000000000000f55c .LASF2866
C:\Users\CYMR90~1\AppData\Local\Temp\ccYIfAxE.s:28399  .debug_str:00000000000222d1 .LASF2867
C:\Users\CYMR90~1\AppData\Local\Temp\ccYIfAxE.s:28567  .debug_str:0000000000022c5f .LASF2868
C:\Users\CYMR90~1\AppData\Local\Temp\ccYIfAxE.s:26479  .debug_str:000000000001aab0 .LASF2869
C:\Users\CYMR90~1\AppData\Local\Temp\ccYIfAxE.s:25721  .debug_str:0000000000017897 .LASF2870
C:\Users\CYMR90~1\AppData\Local\Temp\ccYIfAxE.s:23380  .debug_str:000000000000e7ed .LASF2871
C:\Users\CYMR90~1\AppData\Local\Temp\ccYIfAxE.s:24592  .debug_str:0000000000013275 .LASF2872
C:\Users\CYMR90~1\AppData\Local\Temp\ccYIfAxE.s:24556  .debug_str:0000000000013014 .LASF2873
C:\Users\CYMR90~1\AppData\Local\Temp\ccYIfAxE.s:20522  .debug_str:000000000000319a .LASF2874
C:\Users\CYMR90~1\AppData\Local\Temp\ccYIfAxE.s:20400  .debug_str:00000000000029c6 .LASF2875
C:\Users\CYMR90~1\AppData\Local\Temp\ccYIfAxE.s:28141  .debug_str:00000000000212e8 .LASF2876
C:\Users\CYMR90~1\AppData\Local\Temp\ccYIfAxE.s:29161  .debug_str:0000000000025122 .LASF2877
C:\Users\CYMR90~1\AppData\Local\Temp\ccYIfAxE.s:28827  .debug_str:0000000000023bc2 .LASF2878
C:\Users\CYMR90~1\AppData\Local\Temp\ccYIfAxE.s:22590  .debug_str:000000000000b558 .LASF2879
C:\Users\CYMR90~1\AppData\Local\Temp\ccYIfAxE.s:25857  .debug_str:0000000000018129 .LASF2880
C:\Users\CYMR90~1\AppData\Local\Temp\ccYIfAxE.s:29139  .debug_str:0000000000024faf .LASF2881
C:\Users\CYMR90~1\AppData\Local\Temp\ccYIfAxE.s:20826  .debug_str:0000000000004540 .LASF2882
C:\Users\CYMR90~1\AppData\Local\Temp\ccYIfAxE.s:22960  .debug_str:000000000000ce98 .LASF2883
C:\Users\CYMR90~1\AppData\Local\Temp\ccYIfAxE.s:21238  .debug_str:0000000000005eff .LASF2884
C:\Users\CYMR90~1\AppData\Local\Temp\ccYIfAxE.s:31197  .debug_str:000000000002d3ff .LASF2885
C:\Users\CYMR90~1\AppData\Local\Temp\ccYIfAxE.s:22346  .debug_str:000000000000a554 .LASF2886
C:\Users\CYMR90~1\AppData\Local\Temp\ccYIfAxE.s:25635  .debug_str:00000000000173fd .LASF2887
C:\Users\CYMR90~1\AppData\Local\Temp\ccYIfAxE.s:28893  .debug_str:0000000000023fd7 .LASF2888
C:\Users\CYMR90~1\AppData\Local\Temp\ccYIfAxE.s:27035  .debug_str:000000000001ce47 .LASF2889
C:\Users\CYMR90~1\AppData\Local\Temp\ccYIfAxE.s:20242  .debug_str:0000000000002023 .LASF2890
C:\Users\CYMR90~1\AppData\Local\Temp\ccYIfAxE.s:25080  .debug_str:0000000000015124 .LASF2891
C:\Users\CYMR90~1\AppData\Local\Temp\ccYIfAxE.s:29903  .debug_str:0000000000028226 .LASF2892
C:\Users\CYMR90~1\AppData\Local\Temp\ccYIfAxE.s:23150  .debug_str:000000000000dad5 .LASF2893
C:\Users\CYMR90~1\AppData\Local\Temp\ccYIfAxE.s:27919  .debug_str:00000000000205c9 .LASF2894
C:\Users\CYMR90~1\AppData\Local\Temp\ccYIfAxE.s:30593  .debug_str:000000000002ade5 .LASF2895
C:\Users\CYMR90~1\AppData\Local\Temp\ccYIfAxE.s:30809  .debug_str:000000000002ba65 .LASF2896
C:\Users\CYMR90~1\AppData\Local\Temp\ccYIfAxE.s:26519  .debug_str:000000000001acef .LASF2897
C:\Users\CYMR90~1\AppData\Local\Temp\ccYIfAxE.s:21584  .debug_str:000000000000744d .LASF2898
C:\Users\CYMR90~1\AppData\Local\Temp\ccYIfAxE.s:21896  .debug_str:0000000000008988 .LASF2899
C:\Users\CYMR90~1\AppData\Local\Temp\ccYIfAxE.s:25917  .debug_str:000000000001847e .LASF2900
C:\Users\CYMR90~1\AppData\Local\Temp\ccYIfAxE.s:30907  .debug_str:000000000002c0f2 .LASF2901
C:\Users\CYMR90~1\AppData\Local\Temp\ccYIfAxE.s:24332  .debug_str:00000000000121ba .LASF2902
C:\Users\CYMR90~1\AppData\Local\Temp\ccYIfAxE.s:31181  .debug_str:000000000002d318 .LASF2903
C:\Users\CYMR90~1\AppData\Local\Temp\ccYIfAxE.s:21276  .debug_str:0000000000006109 .LASF2904
C:\Users\CYMR90~1\AppData\Local\Temp\ccYIfAxE.s:28167  .debug_str:000000000002144c .LASF2905
C:\Users\CYMR90~1\AppData\Local\Temp\ccYIfAxE.s:29583  .debug_str:0000000000026dc4 .LASF2906
C:\Users\CYMR90~1\AppData\Local\Temp\ccYIfAxE.s:31007  .debug_str:000000000002c7bc .LASF2907
C:\Users\CYMR90~1\AppData\Local\Temp\ccYIfAxE.s:20778  .debug_str:000000000000426b .LASF2908
C:\Users\CYMR90~1\AppData\Local\Temp\ccYIfAxE.s:24600  .debug_str:00000000000132ee .LASF2909
C:\Users\CYMR90~1\AppData\Local\Temp\ccYIfAxE.s:30099  .debug_str:000000000002901d .LASF2910
C:\Users\CYMR90~1\AppData\Local\Temp\ccYIfAxE.s:27987  .debug_str:00000000000209c0 .LASF2911
C:\Users\CYMR90~1\AppData\Local\Temp\ccYIfAxE.s:25657  .debug_str:0000000000017544 .LASF2912
C:\Users\CYMR90~1\AppData\Local\Temp\ccYIfAxE.s:26425  .debug_str:000000000001a6fc .LASF2913
C:\Users\CYMR90~1\AppData\Local\Temp\ccYIfAxE.s:26347  .debug_str:000000000001a106 .LASF2914
C:\Users\CYMR90~1\AppData\Local\Temp\ccYIfAxE.s:28607  .debug_str:0000000000022ed1 .LASF2915
C:\Users\CYMR90~1\AppData\Local\Temp\ccYIfAxE.s:26853  .debug_str:000000000001c2c9 .LASF2916
C:\Users\CYMR90~1\AppData\Local\Temp\ccYIfAxE.s:25607  .debug_str:0000000000017284 .LASF2917
C:\Users\CYMR90~1\AppData\Local\Temp\ccYIfAxE.s:27391  .debug_str:000000000001e603 .LASF2918
C:\Users\CYMR90~1\AppData\Local\Temp\ccYIfAxE.s:24534  .debug_str:0000000000012ea8 .LASF2919
C:\Users\CYMR90~1\AppData\Local\Temp\ccYIfAxE.s:23240  .debug_str:000000000000df8e .LASF2920
C:\Users\CYMR90~1\AppData\Local\Temp\ccYIfAxE.s:22340  .debug_str:000000000000a4f1 .LASF2921
C:\Users\CYMR90~1\AppData\Local\Temp\ccYIfAxE.s:21422  .debug_str:0000000000006a0d .LASF2922
C:\Users\CYMR90~1\AppData\Local\Temp\ccYIfAxE.s:20526  .debug_str:00000000000031d0 .LASF2923
C:\Users\CYMR90~1\AppData\Local\Temp\ccYIfAxE.s:31241  .debug_str:000000000002d711 .LASF2924
C:\Users\CYMR90~1\AppData\Local\Temp\ccYIfAxE.s:25446  .debug_str:000000000001673e .LASF2925
C:\Users\CYMR90~1\AppData\Local\Temp\ccYIfAxE.s:29063  .debug_str:0000000000024ae8 .LASF2926
C:\Users\CYMR90~1\AppData\Local\Temp\ccYIfAxE.s:20742  .debug_str:0000000000003fcf .LASF2927
C:\Users\CYMR90~1\AppData\Local\Temp\ccYIfAxE.s:24098  .debug_str:000000000001128b .LASF2928
C:\Users\CYMR90~1\AppData\Local\Temp\ccYIfAxE.s:27329  .debug_str:000000000001e244 .LASF2929
C:\Users\CYMR90~1\AppData\Local\Temp\ccYIfAxE.s:22270  .debug_str:000000000000a078 .LASF2930
C:\Users\CYMR90~1\AppData\Local\Temp\ccYIfAxE.s:22360  .debug_str:000000000000a668 .LASF2931
C:\Users\CYMR90~1\AppData\Local\Temp\ccYIfAxE.s:28687  .debug_str:00000000000233fb .LASF2932
C:\Users\CYMR90~1\AppData\Local\Temp\ccYIfAxE.s:31199  .debug_str:000000000002d411 .LASF2933
C:\Users\CYMR90~1\AppData\Local\Temp\ccYIfAxE.s:29143  .debug_str:0000000000024fe7 .LASF2934
C:\Users\CYMR90~1\AppData\Local\Temp\ccYIfAxE.s:25244  .debug_str:0000000000015a6d .LASF2935
C:\Users\CYMR90~1\AppData\Local\Temp\ccYIfAxE.s:27969  .debug_str:000000000002089b .LASF2936
C:\Users\CYMR90~1\AppData\Local\Temp\ccYIfAxE.s:26449  .debug_str:000000000001a833 .LASF2937
C:\Users\CYMR90~1\AppData\Local\Temp\ccYIfAxE.s:26483  .debug_str:000000000001aade .LASF2938
C:\Users\CYMR90~1\AppData\Local\Temp\ccYIfAxE.s:26525  .debug_str:000000000001ad7a .LASF2939
C:\Users\CYMR90~1\AppData\Local\Temp\ccYIfAxE.s:25472  .debug_str:0000000000016875 .LASF2940
C:\Users\CYMR90~1\AppData\Local\Temp\ccYIfAxE.s:24454  .debug_str:000000000001296d .LASF2941
C:\Users\CYMR90~1\AppData\Local\Temp\ccYIfAxE.s:24846  .debug_str:00000000000142ac .LASF2942
C:\Users\CYMR90~1\AppData\Local\Temp\ccYIfAxE.s:29497  .debug_str:000000000002684e .LASF2943
C:\Users\CYMR90~1\AppData\Local\Temp\ccYIfAxE.s:26685  .debug_str:000000000001b88c .LASF2944
C:\Users\CYMR90~1\AppData\Local\Temp\ccYIfAxE.s:21258  .debug_str:0000000000006012 .LASF2945
C:\Users\CYMR90~1\AppData\Local\Temp\ccYIfAxE.s:23238  .debug_str:000000000000df6c .LASF2946
C:\Users\CYMR90~1\AppData\Local\Temp\ccYIfAxE.s:28297  .debug_str:0000000000021cae .LASF2947
C:\Users\CYMR90~1\AppData\Local\Temp\ccYIfAxE.s:29875  .debug_str:0000000000028000 .LASF2948
C:\Users\CYMR90~1\AppData\Local\Temp\ccYIfAxE.s:22794  .debug_str:000000000000c33a .LASF2949
C:\Users\CYMR90~1\AppData\Local\Temp\ccYIfAxE.s:23362  .debug_str:000000000000e6f0 .LASF2950
C:\Users\CYMR90~1\AppData\Local\Temp\ccYIfAxE.s:27437  .debug_str:000000000001e881 .LASF2951
C:\Users\CYMR90~1\AppData\Local\Temp\ccYIfAxE.s:21008  .debug_str:000000000000514b .LASF2952
C:\Users\CYMR90~1\AppData\Local\Temp\ccYIfAxE.s:30765  .debug_str:000000000002b78f .LASF2953
C:\Users\CYMR90~1\AppData\Local\Temp\ccYIfAxE.s:27789  .debug_str:000000000001fdc2 .LASF2954
C:\Users\CYMR90~1\AppData\Local\Temp\ccYIfAxE.s:29743  .debug_str:0000000000027760 .LASF2955
C:\Users\CYMR90~1\AppData\Local\Temp\ccYIfAxE.s:30617  .debug_str:000000000002af4f .LASF2956
C:\Users\CYMR90~1\AppData\Local\Temp\ccYIfAxE.s:31271  .debug_str:000000000002d8d1 .LASF2957
C:\Users\CYMR90~1\AppData\Local\Temp\ccYIfAxE.s:20496  .debug_str:0000000000002fe4 .LASF2958
C:\Users\CYMR90~1\AppData\Local\Temp\ccYIfAxE.s:20222  .debug_str:0000000000001f13 .LASF2959
C:\Users\CYMR90~1\AppData\Local\Temp\ccYIfAxE.s:27465  .debug_str:000000000001ea2c .LASF2960
C:\Users\CYMR90~1\AppData\Local\Temp\ccYIfAxE.s:20472  .debug_str:0000000000002e6d .LASF2961
C:\Users\CYMR90~1\AppData\Local\Temp\ccYIfAxE.s:27187  .debug_str:000000000001d8ec .LASF2962
C:\Users\CYMR90~1\AppData\Local\Temp\ccYIfAxE.s:31053  .debug_str:000000000002ca8e .LASF2963
C:\Users\CYMR90~1\AppData\Local\Temp\ccYIfAxE.s:29643  .debug_str:000000000002715c .LASF2964
C:\Users\CYMR90~1\AppData\Local\Temp\ccYIfAxE.s:21244  .debug_str:0000000000005f5b .LASF2965
C:\Users\CYMR90~1\AppData\Local\Temp\ccYIfAxE.s:30735  .debug_str:000000000002b608 .LASF2966
C:\Users\CYMR90~1\AppData\Local\Temp\ccYIfAxE.s:27021  .debug_str:000000000001cd86 .LASF2967
C:\Users\CYMR90~1\AppData\Local\Temp\ccYIfAxE.s:28037  .debug_str:0000000000020d20 .LASF2968
C:\Users\CYMR90~1\AppData\Local\Temp\ccYIfAxE.s:23736  .debug_str:000000000000fd8b .LASF2969
C:\Users\CYMR90~1\AppData\Local\Temp\ccYIfAxE.s:22864  .debug_str:000000000000c733 .LASF2970
C:\Users\CYMR90~1\AppData\Local\Temp\ccYIfAxE.s:26747  .debug_str:000000000001bc79 .LASF2971
C:\Users\CYMR90~1\AppData\Local\Temp\ccYIfAxE.s:30059  .debug_str:0000000000028d46 .LASF2972
C:\Users\CYMR90~1\AppData\Local\Temp\ccYIfAxE.s:28455  .debug_str:0000000000022608 .LASF2973
C:\Users\CYMR90~1\AppData\Local\Temp\ccYIfAxE.s:26735  .debug_str:000000000001bba2 .LASF2974
C:\Users\CYMR90~1\AppData\Local\Temp\ccYIfAxE.s:20836  .debug_str:00000000000045de .LASF2975
C:\Users\CYMR90~1\AppData\Local\Temp\ccYIfAxE.s:25821  .debug_str:0000000000017ee0 .LASF2976
C:\Users\CYMR90~1\AppData\Local\Temp\ccYIfAxE.s:28361  .debug_str:0000000000022070 .LASF2977
C:\Users\CYMR90~1\AppData\Local\Temp\ccYIfAxE.s:21746  .debug_str:0000000000007efe .LASF2978
C:\Users\CYMR90~1\AppData\Local\Temp\ccYIfAxE.s:27201  .debug_str:000000000001d99d .LASF2979
C:\Users\CYMR90~1\AppData\Local\Temp\ccYIfAxE.s:30721  .debug_str:000000000002b549 .LASF2980
C:\Users\CYMR90~1\AppData\Local\Temp\ccYIfAxE.s:30831  .debug_str:000000000002bbf3 .LASF2981
C:\Users\CYMR90~1\AppData\Local\Temp\ccYIfAxE.s:25851  .debug_str:00000000000180be .LASF2982
C:\Users\CYMR90~1\AppData\Local\Temp\ccYIfAxE.s:20704  .debug_str:0000000000003d0b .LASF2983
C:\Users\CYMR90~1\AppData\Local\Temp\ccYIfAxE.s:26087  .debug_str:0000000000018fa3 .LASF2984
C:\Users\CYMR90~1\AppData\Local\Temp\ccYIfAxE.s:20200  .debug_str:0000000000001dd9 .LASF2985
C:\Users\CYMR90~1\AppData\Local\Temp\ccYIfAxE.s:23548  .debug_str:000000000000f1ce .LASF2986
C:\Users\CYMR90~1\AppData\Local\Temp\ccYIfAxE.s:25062  .debug_str:0000000000014fcd .LASF2987
C:\Users\CYMR90~1\AppData\Local\Temp\ccYIfAxE.s:20858  .debug_str:0000000000004762 .LASF2988
C:\Users\CYMR90~1\AppData\Local\Temp\ccYIfAxE.s:23574  .debug_str:000000000000f345 .LASF2989
C:\Users\CYMR90~1\AppData\Local\Temp\ccYIfAxE.s:23264  .debug_str:000000000000e0f2 .LASF2990
C:\Users\CYMR90~1\AppData\Local\Temp\ccYIfAxE.s:28845  .debug_str:0000000000023d16 .LASF2991
C:\Users\CYMR90~1\AppData\Local\Temp\ccYIfAxE.s:25665  .debug_str:0000000000017596 .LASF2992
C:\Users\CYMR90~1\AppData\Local\Temp\ccYIfAxE.s:24740  .debug_str:0000000000013c8f .LASF2993
C:\Users\CYMR90~1\AppData\Local\Temp\ccYIfAxE.s:21970  .debug_str:0000000000008e49 .LASF2994
C:\Users\CYMR90~1\AppData\Local\Temp\ccYIfAxE.s:30579  .debug_str:000000000002acf0 .LASF2995
C:\Users\CYMR90~1\AppData\Local\Temp\ccYIfAxE.s:25060  .debug_str:0000000000014faf .LASF2996
C:\Users\CYMR90~1\AppData\Local\Temp\ccYIfAxE.s:25158  .debug_str:0000000000015594 .LASF2997
C:\Users\CYMR90~1\AppData\Local\Temp\ccYIfAxE.s:21082  .debug_str:0000000000005599 .LASF2998
C:\Users\CYMR90~1\AppData\Local\Temp\ccYIfAxE.s:25338  .debug_str:0000000000016044 .LASF2999
C:\Users\CYMR90~1\AppData\Local\Temp\ccYIfAxE.s:28587  .debug_str:0000000000022db3 .LASF3000
C:\Users\CYMR90~1\AppData\Local\Temp\ccYIfAxE.s:23948  .debug_str:0000000000010948 .LASF3001
C:\Users\CYMR90~1\AppData\Local\Temp\ccYIfAxE.s:22380  .debug_str:000000000000a7b1 .LASF3002
C:\Users\CYMR90~1\AppData\Local\Temp\ccYIfAxE.s:19862  .debug_str:0000000000000903 .LASF3003
C:\Users\CYMR90~1\AppData\Local\Temp\ccYIfAxE.s:28031  .debug_str:0000000000020cc2 .LASF3004
C:\Users\CYMR90~1\AppData\Local\Temp\ccYIfAxE.s:31117  .debug_str:000000000002cea9 .LASF3005
C:\Users\CYMR90~1\AppData\Local\Temp\ccYIfAxE.s:28975  .debug_str:0000000000024448 .LASF3006
C:\Users\CYMR90~1\AppData\Local\Temp\ccYIfAxE.s:28353  .debug_str:0000000000021ff9 .LASF3007
C:\Users\CYMR90~1\AppData\Local\Temp\ccYIfAxE.s:21040  .debug_str:000000000000530e .LASF3008
C:\Users\CYMR90~1\AppData\Local\Temp\ccYIfAxE.s:31247  .debug_str:000000000002d751 .LASF3009
C:\Users\CYMR90~1\AppData\Local\Temp\ccYIfAxE.s:23450  .debug_str:000000000000ec56 .LASF3010
C:\Users\CYMR90~1\AppData\Local\Temp\ccYIfAxE.s:26869  .debug_str:000000000001c3af .LASF3011
C:\Users\CYMR90~1\AppData\Local\Temp\ccYIfAxE.s:23148  .debug_str:000000000000dabe .LASF3012
C:\Users\CYMR90~1\AppData\Local\Temp\ccYIfAxE.s:24074  .debug_str:0000000000011153 .LASF3013
C:\Users\CYMR90~1\AppData\Local\Temp\ccYIfAxE.s:23176  .debug_str:000000000000dc33 .LASF3014
C:\Users\CYMR90~1\AppData\Local\Temp\ccYIfAxE.s:20246  .debug_str:000000000000204f .LASF3015
C:\Users\CYMR90~1\AppData\Local\Temp\ccYIfAxE.s:27577  .debug_str:000000000001f0e6 .LASF3016
C:\Users\CYMR90~1\AppData\Local\Temp\ccYIfAxE.s:22816  .debug_str:000000000000c499 .LASF3017
C:\Users\CYMR90~1\AppData\Local\Temp\ccYIfAxE.s:21570  .debug_str:0000000000007357 .LASF3018
C:\Users\CYMR90~1\AppData\Local\Temp\ccYIfAxE.s:26013  .debug_str:0000000000018a6a .LASF3019
C:\Users\CYMR90~1\AppData\Local\Temp\ccYIfAxE.s:22000  .debug_str:0000000000008fca .LASF3020
C:\Users\CYMR90~1\AppData\Local\Temp\ccYIfAxE.s:20480  .debug_str:0000000000002eef .LASF3021
C:\Users\CYMR90~1\AppData\Local\Temp\ccYIfAxE.s:22878  .debug_str:000000000000c809 .LASF3022
C:\Users\CYMR90~1\AppData\Local\Temp\ccYIfAxE.s:23386  .debug_str:000000000000e84f .LASF3023
C:\Users\CYMR90~1\AppData\Local\Temp\ccYIfAxE.s:30861  .debug_str:000000000002bde8 .LASF3024
C:\Users\CYMR90~1\AppData\Local\Temp\ccYIfAxE.s:21540  .debug_str:000000000000715b .LASF3025
C:\Users\CYMR90~1\AppData\Local\Temp\ccYIfAxE.s:27915  .debug_str:000000000002058a .LASF3026
C:\Users\CYMR90~1\AppData\Local\Temp\ccYIfAxE.s:23768  .debug_str:000000000000ff87 .LASF3027
C:\Users\CYMR90~1\AppData\Local\Temp\ccYIfAxE.s:25677  .debug_str:0000000000017656 .LASF3028
C:\Users\CYMR90~1\AppData\Local\Temp\ccYIfAxE.s:20994  .debug_str:000000000000507e .LASF3029
C:\Users\CYMR90~1\AppData\Local\Temp\ccYIfAxE.s:30787  .debug_str:000000000002b8d8 .LASF3030
C:\Users\CYMR90~1\AppData\Local\Temp\ccYIfAxE.s:23340  .debug_str:000000000000e57e .LASF3031
C:\Users\CYMR90~1\AppData\Local\Temp\ccYIfAxE.s:22412  .debug_str:000000000000a96f .LASF3032
C:\Users\CYMR90~1\AppData\Local\Temp\ccYIfAxE.s:29207  .debug_str:0000000000025414 .LASF3033
C:\Users\CYMR90~1\AppData\Local\Temp\ccYIfAxE.s:23504  .debug_str:000000000000efad .LASF3034
C:\Users\CYMR90~1\AppData\Local\Temp\ccYIfAxE.s:23310  .debug_str:000000000000e3ff .LASF3035
C:\Users\CYMR90~1\AppData\Local\Temp\ccYIfAxE.s:29985  .debug_str:00000000000287e8 .LASF3036
C:\Users\CYMR90~1\AppData\Local\Temp\ccYIfAxE.s:21936  .debug_str:0000000000008c16 .LASF3037
C:\Users\CYMR90~1\AppData\Local\Temp\ccYIfAxE.s:30937  .debug_str:000000000002c2f0 .LASF3038
C:\Users\CYMR90~1\AppData\Local\Temp\ccYIfAxE.s:30079  .debug_str:0000000000028ec5 .LASF3039
C:\Users\CYMR90~1\AppData\Local\Temp\ccYIfAxE.s:19742  .debug_str:000000000000025b .LASF3040
C:\Users\CYMR90~1\AppData\Local\Temp\ccYIfAxE.s:20750  .debug_str:0000000000004051 .LASF3041
C:\Users\CYMR90~1\AppData\Local\Temp\ccYIfAxE.s:26923  .debug_str:000000000001c6e4 .LASF3042
C:\Users\CYMR90~1\AppData\Local\Temp\ccYIfAxE.s:26725  .debug_str:000000000001bb06 .LASF3043
C:\Users\CYMR90~1\AppData\Local\Temp\ccYIfAxE.s:20842  .debug_str:000000000000465a .LASF3044
C:\Users\CYMR90~1\AppData\Local\Temp\ccYIfAxE.s:23182  .debug_str:000000000000dc78 .LASF3045
C:\Users\CYMR90~1\AppData\Local\Temp\ccYIfAxE.s:26335  .debug_str:000000000001a073 .LASF3046
C:\Users\CYMR90~1\AppData\Local\Temp\ccYIfAxE.s:19996  .debug_str:00000000000011d6 .LASF3047
C:\Users\CYMR90~1\AppData\Local\Temp\ccYIfAxE.s:23546  .debug_str:000000000000f1b4 .LASF3048
C:\Users\CYMR90~1\AppData\Local\Temp\ccYIfAxE.s:26927  .debug_str:000000000001c718 .LASF3049
C:\Users\CYMR90~1\AppData\Local\Temp\ccYIfAxE.s:30363  .debug_str:000000000002a086 .LASF3050
C:\Users\CYMR90~1\AppData\Local\Temp\ccYIfAxE.s:20132  .debug_str:00000000000019c3 .LASF3051
C:\Users\CYMR90~1\AppData\Local\Temp\ccYIfAxE.s:22262  .debug_str:000000000000a00c .LASF3052
C:\Users\CYMR90~1\AppData\Local\Temp\ccYIfAxE.s:29773  .debug_str:0000000000027a0b .LASF3053
C:\Users\CYMR90~1\AppData\Local\Temp\ccYIfAxE.s:21820  .debug_str:0000000000008508 .LASF3054
C:\Users\CYMR90~1\AppData\Local\Temp\ccYIfAxE.s:23346  .debug_str:000000000000e5f7 .LASF3055
C:\Users\CYMR90~1\AppData\Local\Temp\ccYIfAxE.s:28977  .debug_str:0000000000024474 .LASF3056
C:\Users\CYMR90~1\AppData\Local\Temp\ccYIfAxE.s:26265  .debug_str:0000000000019bfc .LASF3057
C:\Users\CYMR90~1\AppData\Local\Temp\ccYIfAxE.s:22216  .debug_str:0000000000009d50 .LASF3058
C:\Users\CYMR90~1\AppData\Local\Temp\ccYIfAxE.s:27693  .debug_str:000000000001f838 .LASF3059
C:\Users\CYMR90~1\AppData\Local\Temp\ccYIfAxE.s:21792  .debug_str:00000000000082ac .LASF3060
C:\Users\CYMR90~1\AppData\Local\Temp\ccYIfAxE.s:29971  .debug_str:00000000000286bf .LASF3061
C:\Users\CYMR90~1\AppData\Local\Temp\ccYIfAxE.s:29621  .debug_str:0000000000026ff9 .LASF3062
C:\Users\CYMR90~1\AppData\Local\Temp\ccYIfAxE.s:24176  .debug_str:0000000000011724 .LASF3063
C:\Users\CYMR90~1\AppData\Local\Temp\ccYIfAxE.s:29115  .debug_str:0000000000024e96 .LASF3064
C:\Users\CYMR90~1\AppData\Local\Temp\ccYIfAxE.s:28169  .debug_str:000000000002146c .LASF3065
C:\Users\CYMR90~1\AppData\Local\Temp\ccYIfAxE.s:24060  .debug_str:00000000000110a1 .LASF3066
C:\Users\CYMR90~1\AppData\Local\Temp\ccYIfAxE.s:29711  .debug_str:000000000002759f .LASF3067
C:\Users\CYMR90~1\AppData\Local\Temp\ccYIfAxE.s:28849  .debug_str:0000000000023d53 .LASF3068
C:\Users\CYMR90~1\AppData\Local\Temp\ccYIfAxE.s:25625  .debug_str:000000000001737b .LASF3069
C:\Users\CYMR90~1\AppData\Local\Temp\ccYIfAxE.s:25358  .debug_str:00000000000161b3 .LASF3070
C:\Users\CYMR90~1\AppData\Local\Temp\ccYIfAxE.s:27649  .debug_str:000000000001f590 .LASF3071
C:\Users\CYMR90~1\AppData\Local\Temp\ccYIfAxE.s:24020  .debug_str:0000000000010de7 .LASF3072
C:\Users\CYMR90~1\AppData\Local\Temp\ccYIfAxE.s:24150  .debug_str:00000000000115a1 .LASF3073
C:\Users\CYMR90~1\AppData\Local\Temp\ccYIfAxE.s:23520  .debug_str:000000000000f07c .LASF3074
C:\Users\CYMR90~1\AppData\Local\Temp\ccYIfAxE.s:23658  .debug_str:000000000000f86a .LASF3075
C:\Users\CYMR90~1\AppData\Local\Temp\ccYIfAxE.s:27379  .debug_str:000000000001e550 .LASF3076
C:\Users\CYMR90~1\AppData\Local\Temp\ccYIfAxE.s:30097  .debug_str:0000000000029004 .LASF3077
C:\Users\CYMR90~1\AppData\Local\Temp\ccYIfAxE.s:24216  .debug_str:00000000000119b2 .LASF3078
C:\Users\CYMR90~1\AppData\Local\Temp\ccYIfAxE.s:28971  .debug_str:0000000000024419 .LASF3079
C:\Users\CYMR90~1\AppData\Local\Temp\ccYIfAxE.s:20280  .debug_str:0000000000002224 .LASF3080
C:\Users\CYMR90~1\AppData\Local\Temp\ccYIfAxE.s:21562  .debug_str:00000000000072af .LASF3081
C:\Users\CYMR90~1\AppData\Local\Temp\ccYIfAxE.s:30149  .debug_str:0000000000029333 .LASF3082
C:\Users\CYMR90~1\AppData\Local\Temp\ccYIfAxE.s:22318  .debug_str:000000000000a38f .LASF3083
C:\Users\CYMR90~1\AppData\Local\Temp\ccYIfAxE.s:30357  .debug_str:000000000002a031 .LASF3084
C:\Users\CYMR90~1\AppData\Local\Temp\ccYIfAxE.s:23480  .debug_str:000000000000ee41 .LASF3085
C:\Users\CYMR90~1\AppData\Local\Temp\ccYIfAxE.s:25208  .debug_str:000000000001587d .LASF3086
C:\Users\CYMR90~1\AppData\Local\Temp\ccYIfAxE.s:28109  .debug_str:0000000000021124 .LASF3087
C:\Users\CYMR90~1\AppData\Local\Temp\ccYIfAxE.s:25983  .debug_str:0000000000018868 .LASF3088
C:\Users\CYMR90~1\AppData\Local\Temp\ccYIfAxE.s:27965  .debug_str:0000000000020841 .LASF3089
C:\Users\CYMR90~1\AppData\Local\Temp\ccYIfAxE.s:30239  .debug_str:0000000000029881 .LASF3090
C:\Users\CYMR90~1\AppData\Local\Temp\ccYIfAxE.s:28631  .debug_str:0000000000023048 .LASF3091
C:\Users\CYMR90~1\AppData\Local\Temp\ccYIfAxE.s:22890  .debug_str:000000000000c8c2 .LASF3092
C:\Users\CYMR90~1\AppData\Local\Temp\ccYIfAxE.s:31065  .debug_str:000000000002cbb5 .LASF3093
C:\Users\CYMR90~1\AppData\Local\Temp\ccYIfAxE.s:27747  .debug_str:000000000001fb42 .LASF3094
C:\Users\CYMR90~1\AppData\Local\Temp\ccYIfAxE.s:29755  .debug_str:000000000002783b .LASF3095
C:\Users\CYMR90~1\AppData\Local\Temp\ccYIfAxE.s:29485  .debug_str:00000000000267c9 .LASF3096
C:\Users\CYMR90~1\AppData\Local\Temp\ccYIfAxE.s:27377  .debug_str:000000000001e528 .LASF3097
C:\Users\CYMR90~1\AppData\Local\Temp\ccYIfAxE.s:25256  .debug_str:0000000000015b1c .LASF3098
C:\Users\CYMR90~1\AppData\Local\Temp\ccYIfAxE.s:25160  .debug_str:00000000000155bf .LASF3099
C:\Users\CYMR90~1\AppData\Local\Temp\ccYIfAxE.s:26077  .debug_str:0000000000018f21 .LASF3100
C:\Users\CYMR90~1\AppData\Local\Temp\ccYIfAxE.s:27783  .debug_str:000000000001fd71 .LASF3101
C:\Users\CYMR90~1\AppData\Local\Temp\ccYIfAxE.s:28317  .debug_str:0000000000021dd4 .LASF3102
C:\Users\CYMR90~1\AppData\Local\Temp\ccYIfAxE.s:31203  .debug_str:000000000002d435 .LASF3103
C:\Users\CYMR90~1\AppData\Local\Temp\ccYIfAxE.s:23716  .debug_str:000000000000fc8e .LASF3104
C:\Users\CYMR90~1\AppData\Local\Temp\ccYIfAxE.s:20494  .debug_str:0000000000002fb8 .LASF3105
C:\Users\CYMR90~1\AppData\Local\Temp\ccYIfAxE.s:23564  .debug_str:000000000000f2be .LASF3106
C:\Users\CYMR90~1\AppData\Local\Temp\ccYIfAxE.s:27989  .debug_str:00000000000209e5 .LASF3107
C:\Users\CYMR90~1\AppData\Local\Temp\ccYIfAxE.s:25232  .debug_str:00000000000159b7 .LASF3108
C:\Users\CYMR90~1\AppData\Local\Temp\ccYIfAxE.s:24218  .debug_str:00000000000119c9 .LASF3109
C:\Users\CYMR90~1\AppData\Local\Temp\ccYIfAxE.s:26865  .debug_str:000000000001c378 .LASF3110
C:\Users\CYMR90~1\AppData\Local\Temp\ccYIfAxE.s:25885  .debug_str:0000000000018296 .LASF3111
C:\Users\CYMR90~1\AppData\Local\Temp\ccYIfAxE.s:27819  .debug_str:000000000001ff92 .LASF3112
C:\Users\CYMR90~1\AppData\Local\Temp\ccYIfAxE.s:24022  .debug_str:0000000000010dff .LASF3113
C:\Users\CYMR90~1\AppData\Local\Temp\ccYIfAxE.s:30029  .debug_str:0000000000028b32 .LASF3114
C:\Users\CYMR90~1\AppData\Local\Temp\ccYIfAxE.s:22038  .debug_str:000000000000925c .LASF3115
C:\Users\CYMR90~1\AppData\Local\Temp\ccYIfAxE.s:21090  .debug_str:0000000000005637 .LASF3116
C:\Users\CYMR90~1\AppData\Local\Temp\ccYIfAxE.s:20116  .debug_str:00000000000018d8 .LASF3117
C:\Users\CYMR90~1\AppData\Local\Temp\ccYIfAxE.s:30747  .debug_str:000000000002b6ab .LASF3118
C:\Users\CYMR90~1\AppData\Local\Temp\ccYIfAxE.s:28261  .debug_str:0000000000021a6b .LASF3119
C:\Users\CYMR90~1\AppData\Local\Temp\ccYIfAxE.s:27265  .debug_str:000000000001dde5 .LASF3120
C:\Users\CYMR90~1\AppData\Local\Temp\ccYIfAxE.s:21222  .debug_str:0000000000005e29 .LASF3121
C:\Users\CYMR90~1\AppData\Local\Temp\ccYIfAxE.s:25406  .debug_str:00000000000164e0 .LASF3122
C:\Users\CYMR90~1\AppData\Local\Temp\ccYIfAxE.s:24446  .debug_str:00000000000128e0 .LASF3123
C:\Users\CYMR90~1\AppData\Local\Temp\ccYIfAxE.s:23442  .debug_str:000000000000ebe5 .LASF3124
C:\Users\CYMR90~1\AppData\Local\Temp\ccYIfAxE.s:23582  .debug_str:000000000000f3c1 .LASF3125
C:\Users\CYMR90~1\AppData\Local\Temp\ccYIfAxE.s:29703  .debug_str:000000000002750a .LASF3126
C:\Users\CYMR90~1\AppData\Local\Temp\ccYIfAxE.s:29481  .debug_str:0000000000026773 .LASF3127
C:\Users\CYMR90~1\AppData\Local\Temp\ccYIfAxE.s:23924  .debug_str:00000000000107d4 .LASF3128
C:\Users\CYMR90~1\AppData\Local\Temp\ccYIfAxE.s:22750  .debug_str:000000000000c015 .LASF3129
C:\Users\CYMR90~1\AppData\Local\Temp\ccYIfAxE.s:21618  .debug_str:00000000000076be .LASF3130
C:\Users\CYMR90~1\AppData\Local\Temp\ccYIfAxE.s:27097  .debug_str:000000000001d2cd .LASF3131
C:\Users\CYMR90~1\AppData\Local\Temp\ccYIfAxE.s:28747  .debug_str:0000000000023704 .LASF3132
C:\Users\CYMR90~1\AppData\Local\Temp\ccYIfAxE.s:22926  .debug_str:000000000000cb6d .LASF3133
C:\Users\CYMR90~1\AppData\Local\Temp\ccYIfAxE.s:21164  .debug_str:0000000000005ab6 .LASF3134
C:\Users\CYMR90~1\AppData\Local\Temp\ccYIfAxE.s:20940  .debug_str:0000000000004d24 .LASF3135
C:\Users\CYMR90~1\AppData\Local\Temp\ccYIfAxE.s:27013  .debug_str:000000000001ccfc .LASF3136
C:\Users\CYMR90~1\AppData\Local\Temp\ccYIfAxE.s:25504  .debug_str:0000000000016a3e .LASF3137
C:\Users\CYMR90~1\AppData\Local\Temp\ccYIfAxE.s:20426  .debug_str:0000000000002b87 .LASF3138
C:\Users\CYMR90~1\AppData\Local\Temp\ccYIfAxE.s:31141  .debug_str:000000000002d05d .LASF3139
C:\Users\CYMR90~1\AppData\Local\Temp\ccYIfAxE.s:30069  .debug_str:0000000000028df7 .LASF3140
C:\Users\CYMR90~1\AppData\Local\Temp\ccYIfAxE.s:20906  .debug_str:0000000000004b12 .LASF3141
C:\Users\CYMR90~1\AppData\Local\Temp\ccYIfAxE.s:26845  .debug_str:000000000001c242 .LASF3142
C:\Users\CYMR90~1\AppData\Local\Temp\ccYIfAxE.s:24026  .debug_str:0000000000010e44 .LASF3143
C:\Users\CYMR90~1\AppData\Local\Temp\ccYIfAxE.s:27147  .debug_str:000000000001d67e .LASF3144
C:\Users\CYMR90~1\AppData\Local\Temp\ccYIfAxE.s:19802  .debug_str:00000000000005a7 .LASF3145
C:\Users\CYMR90~1\AppData\Local\Temp\ccYIfAxE.s:24620  .debug_str:0000000000013446 .LASF3146
C:\Users\CYMR90~1\AppData\Local\Temp\ccYIfAxE.s:29429  .debug_str:0000000000026438 .LASF3147
C:\Users\CYMR90~1\AppData\Local\Temp\ccYIfAxE.s:24530  .debug_str:0000000000012e74 .LASF3148
C:\Users\CYMR90~1\AppData\Local\Temp\ccYIfAxE.s:21322  .debug_str:00000000000063ec .LASF3149
C:\Users\CYMR90~1\AppData\Local\Temp\ccYIfAxE.s:25849  .debug_str:00000000000180a6 .LASF3150
C:\Users\CYMR90~1\AppData\Local\Temp\ccYIfAxE.s:24284  .debug_str:0000000000011ef6 .LASF3151
C:\Users\CYMR90~1\AppData\Local\Temp\ccYIfAxE.s:22790  .debug_str:000000000000c312 .LASF3152
C:\Users\CYMR90~1\AppData\Local\Temp\ccYIfAxE.s:26711  .debug_str:000000000001ba17 .LASF3153
C:\Users\CYMR90~1\AppData\Local\Temp\ccYIfAxE.s:23146  .debug_str:000000000000daa0 .LASF3154
C:\Users\CYMR90~1\AppData\Local\Temp\ccYIfAxE.s:22106  .debug_str:000000000000963d .LASF3155
C:\Users\CYMR90~1\AppData\Local\Temp\ccYIfAxE.s:29125  .debug_str:0000000000024f0b .LASF3156
C:\Users\CYMR90~1\AppData\Local\Temp\ccYIfAxE.s:24330  .debug_str:000000000001219a .LASF3157
C:\Users\CYMR90~1\AppData\Local\Temp\ccYIfAxE.s:28717  .debug_str:000000000002358f .LASF3158
C:\Users\CYMR90~1\AppData\Local\Temp\ccYIfAxE.s:22438  .debug_str:000000000000ab33 .LASF3159
C:\Users\CYMR90~1\AppData\Local\Temp\ccYIfAxE.s:26281  .debug_str:0000000000019d20 .LASF3160
C:\Users\CYMR90~1\AppData\Local\Temp\ccYIfAxE.s:29665  .debug_str:000000000002728f .LASF3161
C:\Users\CYMR90~1\AppData\Local\Temp\ccYIfAxE.s:23180  .debug_str:000000000000dc53 .LASF3162
C:\Users\CYMR90~1\AppData\Local\Temp\ccYIfAxE.s:21210  .debug_str:0000000000005d9a .LASF3163
C:\Users\CYMR90~1\AppData\Local\Temp\ccYIfAxE.s:22774  .debug_str:000000000000c1e6 .LASF3164
C:\Users\CYMR90~1\AppData\Local\Temp\ccYIfAxE.s:21526  .debug_str:0000000000007097 .LASF3165
C:\Users\CYMR90~1\AppData\Local\Temp\ccYIfAxE.s:23468  .debug_str:000000000000edaa .LASF3166
C:\Users\CYMR90~1\AppData\Local\Temp\ccYIfAxE.s:19952  .debug_str:0000000000000f54 .LASF3167
C:\Users\CYMR90~1\AppData\Local\Temp\ccYIfAxE.s:30885  .debug_str:000000000002bf64 .LASF3168
C:\Users\CYMR90~1\AppData\Local\Temp\ccYIfAxE.s:30477  .debug_str:000000000002a6cc .LASF3169
C:\Users\CYMR90~1\AppData\Local\Temp\ccYIfAxE.s:23584  .debug_str:000000000000f3f0 .LASF3170
C:\Users\CYMR90~1\AppData\Local\Temp\ccYIfAxE.s:28969  .debug_str:0000000000024401 .LASF3171
C:\Users\CYMR90~1\AppData\Local\Temp\ccYIfAxE.s:27395  .debug_str:000000000001e639 .LASF3172
C:\Users\CYMR90~1\AppData\Local\Temp\ccYIfAxE.s:25785  .debug_str:0000000000017ce4 .LASF3173
C:\Users\CYMR90~1\AppData\Local\Temp\ccYIfAxE.s:29815  .debug_str:0000000000027c6d .LASF3174
C:\Users\CYMR90~1\AppData\Local\Temp\ccYIfAxE.s:24930  .debug_str:00000000000147c2 .LASF3175
C:\Users\CYMR90~1\AppData\Local\Temp\ccYIfAxE.s:25510  .debug_str:0000000000016a99 .LASF3176
C:\Users\CYMR90~1\AppData\Local\Temp\ccYIfAxE.s:20214  .debug_str:0000000000001e96 .LASF3177
C:\Users\CYMR90~1\AppData\Local\Temp\ccYIfAxE.s:27775  .debug_str:000000000001fcd3 .LASF3178
C:\Users\CYMR90~1\AppData\Local\Temp\ccYIfAxE.s:27723  .debug_str:000000000001f9e7 .LASF3179
C:\Users\CYMR90~1\AppData\Local\Temp\ccYIfAxE.s:26815  .debug_str:000000000001c051 .LASF3180
C:\Users\CYMR90~1\AppData\Local\Temp\ccYIfAxE.s:20382  .debug_str:000000000000289c .LASF3181
C:\Users\CYMR90~1\AppData\Local\Temp\ccYIfAxE.s:29293  .debug_str:0000000000025ab6 .LASF3182
C:\Users\CYMR90~1\AppData\Local\Temp\ccYIfAxE.s:23062  .debug_str:000000000000d498 .LASF3183
C:\Users\CYMR90~1\AppData\Local\Temp\ccYIfAxE.s:20748  .debug_str:000000000000402b .LASF3184
C:\Users\CYMR90~1\AppData\Local\Temp\ccYIfAxE.s:20476  .debug_str:0000000000002ea4 .LASF3185
C:\Users\CYMR90~1\AppData\Local\Temp\ccYIfAxE.s:21932  .debug_str:0000000000008bdc .LASF3186
C:\Users\CYMR90~1\AppData\Local\Temp\ccYIfAxE.s:27385  .debug_str:000000000001e59b .LASF3187
C:\Users\CYMR90~1\AppData\Local\Temp\ccYIfAxE.s:28559  .debug_str:0000000000022bd5 .LASF3188
C:\Users\CYMR90~1\AppData\Local\Temp\ccYIfAxE.s:22310  .debug_str:000000000000a31c .LASF3189
C:\Users\CYMR90~1\AppData\Local\Temp\ccYIfAxE.s:23270  .debug_str:000000000000e143 .LASF3190
C:\Users\CYMR90~1\AppData\Local\Temp\ccYIfAxE.s:25296  .debug_str:0000000000015d87 .LASF3191
C:\Users\CYMR90~1\AppData\Local\Temp\ccYIfAxE.s:21334  .debug_str:0000000000006497 .LASF3192
C:\Users\CYMR90~1\AppData\Local\Temp\ccYIfAxE.s:26595  .debug_str:000000000001b239 .LASF3193
C:\Users\CYMR90~1\AppData\Local\Temp\ccYIfAxE.s:26239  .debug_str:00000000000199cc .LASF3194
C:\Users\CYMR90~1\AppData\Local\Temp\ccYIfAxE.s:22782  .debug_str:000000000000c26a .LASF3195
C:\Users\CYMR90~1\AppData\Local\Temp\ccYIfAxE.s:27993  .debug_str:0000000000020a27 .LASF3196
C:\Users\CYMR90~1\AppData\Local\Temp\ccYIfAxE.s:20052  .debug_str:0000000000001517 .LASF3197
C:\Users\CYMR90~1\AppData\Local\Temp\ccYIfAxE.s:30063  .debug_str:0000000000028d85 .LASF3198
C:\Users\CYMR90~1\AppData\Local\Temp\ccYIfAxE.s:27491  .debug_str:000000000001ebcb .LASF3199
C:\Users\CYMR90~1\AppData\Local\Temp\ccYIfAxE.s:26793  .debug_str:000000000001beb9 .LASF3200
C:\Users\CYMR90~1\AppData\Local\Temp\ccYIfAxE.s:29941  .debug_str:00000000000284c6 .LASF3201
C:\Users\CYMR90~1\AppData\Local\Temp\ccYIfAxE.s:20240  .debug_str:0000000000002004 .LASF3202
C:\Users\CYMR90~1\AppData\Local\Temp\ccYIfAxE.s:23494  .debug_str:000000000000ef38 .LASF3203
C:\Users\CYMR90~1\AppData\Local\Temp\ccYIfAxE.s:25418  .debug_str:0000000000016590 .LASF3204
C:\Users\CYMR90~1\AppData\Local\Temp\ccYIfAxE.s:29571  .debug_str:0000000000026ce2 .LASF3205
C:\Users\CYMR90~1\AppData\Local\Temp\ccYIfAxE.s:29947  .debug_str:0000000000028526 .LASF3206
C:\Users\CYMR90~1\AppData\Local\Temp\ccYIfAxE.s:25875  .debug_str:000000000001821a .LASF3207
C:\Users\CYMR90~1\AppData\Local\Temp\ccYIfAxE.s:28665  .debug_str:00000000000232c0 .LASF3208
C:\Users\CYMR90~1\AppData\Local\Temp\ccYIfAxE.s:20072  .debug_str:000000000000160e .LASF3209
C:\Users\CYMR90~1\AppData\Local\Temp\ccYIfAxE.s:20376  .debug_str:0000000000002840 .LASF3210
C:\Users\CYMR90~1\AppData\Local\Temp\ccYIfAxE.s:30553  .debug_str:000000000002ab11 .LASF3211
C:\Users\CYMR90~1\AppData\Local\Temp\ccYIfAxE.s:21306  .debug_str:000000000000631f .LASF3212
C:\Users\CYMR90~1\AppData\Local\Temp\ccYIfAxE.s:24624  .debug_str:0000000000013488 .LASF3213
C:\Users\CYMR90~1\AppData\Local\Temp\ccYIfAxE.s:23136  .debug_str:000000000000d9e8 .LASF3214
C:\Users\CYMR90~1\AppData\Local\Temp\ccYIfAxE.s:28219  .debug_str:0000000000021743 .LASF3215
C:\Users\CYMR90~1\AppData\Local\Temp\ccYIfAxE.s:26249  .debug_str:0000000000019aab .LASF3216
C:\Users\CYMR90~1\AppData\Local\Temp\ccYIfAxE.s:22288  .debug_str:000000000000a194 .LASF3217
C:\Users\CYMR90~1\AppData\Local\Temp\ccYIfAxE.s:22042  .debug_str:0000000000009299 .LASF3218
C:\Users\CYMR90~1\AppData\Local\Temp\ccYIfAxE.s:22644  .debug_str:000000000000b8df .LASF3219
C:\Users\CYMR90~1\AppData\Local\Temp\ccYIfAxE.s:20830  .debug_str:0000000000004578 .LASF3220
C:\Users\CYMR90~1\AppData\Local\Temp\ccYIfAxE.s:24044  .debug_str:0000000000010fda .LASF3221
C:\Users\CYMR90~1\AppData\Local\Temp\ccYIfAxE.s:25767  .debug_str:0000000000017bdb .LASF3222
C:\Users\CYMR90~1\AppData\Local\Temp\ccYIfAxE.s:21906  .debug_str:0000000000008a13 .LASF3223
C:\Users\CYMR90~1\AppData\Local\Temp\ccYIfAxE.s:22728  .debug_str:000000000000be56 .LASF3224
C:\Users\CYMR90~1\AppData\Local\Temp\ccYIfAxE.s:22674  .debug_str:000000000000bb0a .LASF3225
C:\Users\CYMR90~1\AppData\Local\Temp\ccYIfAxE.s:25669  .debug_str:00000000000175d1 .LASF3226
C:\Users\CYMR90~1\AppData\Local\Temp\ccYIfAxE.s:29661  .debug_str:0000000000027256 .LASF3227
C:\Users\CYMR90~1\AppData\Local\Temp\ccYIfAxE.s:22386  .debug_str:000000000000a811 .LASF3228
C:\Users\CYMR90~1\AppData\Local\Temp\ccYIfAxE.s:20350  .debug_str:0000000000002682 .LASF3229
C:\Users\CYMR90~1\AppData\Local\Temp\ccYIfAxE.s:27521  .debug_str:000000000001edae .LASF3230
C:\Users\CYMR90~1\AppData\Local\Temp\ccYIfAxE.s:30729  .debug_str:000000000002b5b7 .LASF3231
C:\Users\CYMR90~1\AppData\Local\Temp\ccYIfAxE.s:26061  .debug_str:0000000000018d82 .LASF3232
C:\Users\CYMR90~1\AppData\Local\Temp\ccYIfAxE.s:20144  .debug_str:0000000000001a7f .LASF3233
C:\Users\CYMR90~1\AppData\Local\Temp\ccYIfAxE.s:31153  .debug_str:000000000002d146 .LASF3234
C:\Users\CYMR90~1\AppData\Local\Temp\ccYIfAxE.s:25214  .debug_str:00000000000158bb .LASF3235
C:\Users\CYMR90~1\AppData\Local\Temp\ccYIfAxE.s:29069  .debug_str:0000000000024b5d .LASF3236
C:\Users\CYMR90~1\AppData\Local\Temp\ccYIfAxE.s:22324  .debug_str:000000000000a3f0 .LASF3237
C:\Users\CYMR90~1\AppData\Local\Temp\ccYIfAxE.s:20172  .debug_str:0000000000001c4b .LASF3238
C:\Users\CYMR90~1\AppData\Local\Temp\ccYIfAxE.s:21328  .debug_str:000000000000645a .LASF3239
C:\Users\CYMR90~1\AppData\Local\Temp\ccYIfAxE.s:26673  .debug_str:000000000001b7d2 .LASF3240
C:\Users\CYMR90~1\AppData\Local\Temp\ccYIfAxE.s:24746  .debug_str:0000000000013ce8 .LASF3241
C:\Users\CYMR90~1\AppData\Local\Temp\ccYIfAxE.s:22048  .debug_str:00000000000092fc .LASF3242
C:\Users\CYMR90~1\AppData\Local\Temp\ccYIfAxE.s:21068  .debug_str:00000000000054da .LASF3243
C:\Users\CYMR90~1\AppData\Local\Temp\ccYIfAxE.s:30645  .debug_str:000000000002b0f4 .LASF3244
C:\Users\CYMR90~1\AppData\Local\Temp\ccYIfAxE.s:22800  .debug_str:000000000000c382 .LASF3245
C:\Users\CYMR90~1\AppData\Local\Temp\ccYIfAxE.s:20390  .debug_str:0000000000002917 .LASF3246
C:\Users\CYMR90~1\AppData\Local\Temp\ccYIfAxE.s:28519  .debug_str:00000000000229a2 .LASF3247
C:\Users\CYMR90~1\AppData\Local\Temp\ccYIfAxE.s:25116  .debug_str:0000000000015349 .LASF3248
C:\Users\CYMR90~1\AppData\Local\Temp\ccYIfAxE.s:21614  .debug_str:0000000000007677 .LASF3249
C:\Users\CYMR90~1\AppData\Local\Temp\ccYIfAxE.s:26651  .debug_str:000000000001b602 .LASF3250
C:\Users\CYMR90~1\AppData\Local\Temp\ccYIfAxE.s:21208  .debug_str:0000000000005d7b .LASF3251
C:\Users\CYMR90~1\AppData\Local\Temp\ccYIfAxE.s:22650  .debug_str:000000000000b963 .LASF3252
C:\Users\CYMR90~1\AppData\Local\Temp\ccYIfAxE.s:24464  .debug_str:0000000000012a20 .LASF3253
C:\Users\CYMR90~1\AppData\Local\Temp\ccYIfAxE.s:28537  .debug_str:0000000000022a79 .LASF3254
C:\Users\CYMR90~1\AppData\Local\Temp\ccYIfAxE.s:29925  .debug_str:0000000000028391 .LASF3255
C:\Users\CYMR90~1\AppData\Local\Temp\ccYIfAxE.s:25865  .debug_str:000000000001818e .LASF3256
C:\Users\CYMR90~1\AppData\Local\Temp\ccYIfAxE.s:23656  .debug_str:000000000000f84a .LASF3257
C:\Users\CYMR90~1\AppData\Local\Temp\ccYIfAxE.s:28535  .debug_str:0000000000022a60 .LASF3258
C:\Users\CYMR90~1\AppData\Local\Temp\ccYIfAxE.s:30373  .debug_str:000000000002a0fb .LASF3259
C:\Users\CYMR90~1\AppData\Local\Temp\ccYIfAxE.s:26511  .debug_str:000000000001ac76 .LASF3260
C:\Users\CYMR90~1\AppData\Local\Temp\ccYIfAxE.s:21478  .debug_str:0000000000006d6b .LASF3261
C:\Users\CYMR90~1\AppData\Local\Temp\ccYIfAxE.s:21074  .debug_str:000000000000551e .LASF3262
C:\Users\CYMR90~1\AppData\Local\Temp\ccYIfAxE.s:28305  .debug_str:0000000000021d32 .LASF3263
C:\Users\CYMR90~1\AppData\Local\Temp\ccYIfAxE.s:23366  .debug_str:000000000000e716 .LASF3264
C:\Users\CYMR90~1\AppData\Local\Temp\ccYIfAxE.s:28735  .debug_str:0000000000023653 .LASF3265
C:\Users\CYMR90~1\AppData\Local\Temp\ccYIfAxE.s:25723  .debug_str:00000000000178d0 .LASF3266
C:\Users\CYMR90~1\AppData\Local\Temp\ccYIfAxE.s:29189  .debug_str:00000000000252e8 .LASF3267
C:\Users\CYMR90~1\AppData\Local\Temp\ccYIfAxE.s:28575  .debug_str:0000000000022cfe .LASF3268
C:\Users\CYMR90~1\AppData\Local\Temp\ccYIfAxE.s:25781  .debug_str:0000000000017cbb .LASF3269
C:\Users\CYMR90~1\AppData\Local\Temp\ccYIfAxE.s:30821  .debug_str:000000000002bb3f .LASF3270
C:\Users\CYMR90~1\AppData\Local\Temp\ccYIfAxE.s:31121  .debug_str:000000000002cf05 .LASF3271
C:\Users\CYMR90~1\AppData\Local\Temp\ccYIfAxE.s:29501  .debug_str:000000000002688b .LASF3272
C:\Users\CYMR90~1\AppData\Local\Temp\ccYIfAxE.s:20710  .debug_str:0000000000003d7e .LASF3273
C:\Users\CYMR90~1\AppData\Local\Temp\ccYIfAxE.s:29025  .debug_str:000000000002487e .LASF3274
C:\Users\CYMR90~1\AppData\Local\Temp\ccYIfAxE.s:20680  .debug_str:0000000000003bc2 .LASF3275
C:\Users\CYMR90~1\AppData\Local\Temp\ccYIfAxE.s:24164  .debug_str:0000000000011675 .LASF3276
C:\Users\CYMR90~1\AppData\Local\Temp\ccYIfAxE.s:23978  .debug_str:0000000000010b2a .LASF3277
C:\Users\CYMR90~1\AppData\Local\Temp\ccYIfAxE.s:21448  .debug_str:0000000000006b8b .LASF3278
C:\Users\CYMR90~1\AppData\Local\Temp\ccYIfAxE.s:24380  .debug_str:0000000000012506 .LASF3279
C:\Users\CYMR90~1\AppData\Local\Temp\ccYIfAxE.s:24024  .debug_str:0000000000010e27 .LASF3280
C:\Users\CYMR90~1\AppData\Local\Temp\ccYIfAxE.s:21706  .debug_str:0000000000007c57 .LASF3281
C:\Users\CYMR90~1\AppData\Local\Temp\ccYIfAxE.s:22392  .debug_str:000000000000a85b .LASF3282
C:\Users\CYMR90~1\AppData\Local\Temp\ccYIfAxE.s:24870  .debug_str:0000000000014448 .LASF3283
C:\Users\CYMR90~1\AppData\Local\Temp\ccYIfAxE.s:27443  .debug_str:000000000001e8d3 .LASF3284
C:\Users\CYMR90~1\AppData\Local\Temp\ccYIfAxE.s:20872  .debug_str:0000000000004864 .LASF3285
C:\Users\CYMR90~1\AppData\Local\Temp\ccYIfAxE.s:27991  .debug_str:0000000000020a11 .LASF3286
C:\Users\CYMR90~1\AppData\Local\Temp\ccYIfAxE.s:28369  .debug_str:00000000000220e2 .LASF3287
C:\Users\CYMR90~1\AppData\Local\Temp\ccYIfAxE.s:22196  .debug_str:0000000000009bef .LASF3288
C:\Users\CYMR90~1\AppData\Local\Temp\ccYIfAxE.s:21528  .debug_str:00000000000070b0 .LASF3289
C:\Users\CYMR90~1\AppData\Local\Temp\ccYIfAxE.s:22060  .debug_str:000000000000937e .LASF3290
C:\Users\CYMR90~1\AppData\Local\Temp\ccYIfAxE.s:20454  .debug_str:0000000000002d65 .LASF3291
C:\Users\CYMR90~1\AppData\Local\Temp\ccYIfAxE.s:30973  .debug_str:000000000002c53b .LASF3292
C:\Users\CYMR90~1\AppData\Local\Temp\ccYIfAxE.s:21312  .debug_str:0000000000006372 .LASF3293
C:\Users\CYMR90~1\AppData\Local\Temp\ccYIfAxE.s:19836  .debug_str:0000000000000777 .LASF3294
C:\Users\CYMR90~1\AppData\Local\Temp\ccYIfAxE.s:20878  .debug_str:00000000000048e1 .LASF3295
C:\Users\CYMR90~1\AppData\Local\Temp\ccYIfAxE.s:20654  .debug_str:0000000000003a16 .LASF3296
C:\Users\CYMR90~1\AppData\Local\Temp\ccYIfAxE.s:26243  .debug_str:0000000000019a2c .LASF3297
C:\Users\CYMR90~1\AppData\Local\Temp\ccYIfAxE.s:28075  .debug_str:0000000000020f46 .LASF3298
C:\Users\CYMR90~1\AppData\Local\Temp\ccYIfAxE.s:19770  .debug_str:00000000000003c4 .LASF3299
C:\Users\CYMR90~1\AppData\Local\Temp\ccYIfAxE.s:27657  .debug_str:000000000001f609 .LASF3300
C:\Users\CYMR90~1\AppData\Local\Temp\ccYIfAxE.s:26499  .debug_str:000000000001abb4 .LASF3301
C:\Users\CYMR90~1\AppData\Local\Temp\ccYIfAxE.s:27431  .debug_str:000000000001e841 .LASF3302
C:\Users\CYMR90~1\AppData\Local\Temp\ccYIfAxE.s:27005  .debug_str:000000000001cc67 .LASF3303
C:\Users\CYMR90~1\AppData\Local\Temp\ccYIfAxE.s:21488  .debug_str:0000000000006df2 .LASF3304
C:\Users\CYMR90~1\AppData\Local\Temp\ccYIfAxE.s:24338  .debug_str:0000000000012212 .LASF3305
C:\Users\CYMR90~1\AppData\Local\Temp\ccYIfAxE.s:22280  .debug_str:000000000000a101 .LASF3306
C:\Users\CYMR90~1\AppData\Local\Temp\ccYIfAxE.s:27299  .debug_str:000000000001dfc7 .LASF3307
C:\Users\CYMR90~1\AppData\Local\Temp\ccYIfAxE.s:31069  .debug_str:000000000002cc16 .LASF3308
C:\Users\CYMR90~1\AppData\Local\Temp\ccYIfAxE.s:26259  .debug_str:0000000000019bb1 .LASF3309
C:\Users\CYMR90~1\AppData\Local\Temp\ccYIfAxE.s:26571  .debug_str:000000000001b07a .LASF3310
C:\Users\CYMR90~1\AppData\Local\Temp\ccYIfAxE.s:29117  .debug_str:0000000000024ea9 .LASF3311
C:\Users\CYMR90~1\AppData\Local\Temp\ccYIfAxE.s:30549  .debug_str:000000000002aade .LASF3312
C:\Users\CYMR90~1\AppData\Local\Temp\ccYIfAxE.s:24210  .debug_str:0000000000011964 .LASF3313
C:\Users\CYMR90~1\AppData\Local\Temp\ccYIfAxE.s:27247  .debug_str:000000000001dce6 .LASF3314
C:\Users\CYMR90~1\AppData\Local\Temp\ccYIfAxE.s:23268  .debug_str:000000000000e12b .LASF3315
C:\Users\CYMR90~1\AppData\Local\Temp\ccYIfAxE.s:30307  .debug_str:0000000000029d11 .LASF3316
C:\Users\CYMR90~1\AppData\Local\Temp\ccYIfAxE.s:21628  .debug_str:000000000000776d .LASF3317
C:\Users\CYMR90~1\AppData\Local\Temp\ccYIfAxE.s:30597  .debug_str:000000000002ae05 .LASF3318
C:\Users\CYMR90~1\AppData\Local\Temp\ccYIfAxE.s:29345  .debug_str:0000000000025ed9 .LASF3319
C:\Users\CYMR90~1\AppData\Local\Temp\ccYIfAxE.s:20638  .debug_str:0000000000003921 .LASF3320
C:\Users\CYMR90~1\AppData\Local\Temp\ccYIfAxE.s:23918  .debug_str:0000000000010776 .LASF3321
C:\Users\CYMR90~1\AppData\Local\Temp\ccYIfAxE.s:30033  .debug_str:0000000000028b80 .LASF3322
C:\Users\CYMR90~1\AppData\Local\Temp\ccYIfAxE.s:24404  .debug_str:0000000000012656 .LASF3323
C:\Users\CYMR90~1\AppData\Local\Temp\ccYIfAxE.s:22452  .debug_str:000000000000abf2 .LASF3324
C:\Users\CYMR90~1\AppData\Local\Temp\ccYIfAxE.s:30877  .debug_str:000000000002bed0 .LASF3325
C:\Users\CYMR90~1\AppData\Local\Temp\ccYIfAxE.s:22542  .debug_str:000000000000b24c .LASF3326
C:\Users\CYMR90~1\AppData\Local\Temp\ccYIfAxE.s:30893  .debug_str:000000000002bfd6 .LASF3327
C:\Users\CYMR90~1\AppData\Local\Temp\ccYIfAxE.s:30625  .debug_str:000000000002afc7 .LASF3328
C:\Users\CYMR90~1\AppData\Local\Temp\ccYIfAxE.s:26055  .debug_str:0000000000018cf9 .LASF3329
C:\Users\CYMR90~1\AppData\Local\Temp\ccYIfAxE.s:30665  .debug_str:000000000002b1ef .LASF3330
C:\Users\CYMR90~1\AppData\Local\Temp\ccYIfAxE.s:28183  .debug_str:0000000000021510 .LASF3331
C:\Users\CYMR90~1\AppData\Local\Temp\ccYIfAxE.s:29589  .debug_str:0000000000026e21 .LASF3332
C:\Users\CYMR90~1\AppData\Local\Temp\ccYIfAxE.s:23112  .debug_str:000000000000d831 .LASF3333
C:\Users\CYMR90~1\AppData\Local\Temp\ccYIfAxE.s:28957  .debug_str:0000000000024355 .LASF3334
C:\Users\CYMR90~1\AppData\Local\Temp\ccYIfAxE.s:24998  .debug_str:0000000000014bfc .LASF3335
C:\Users\CYMR90~1\AppData\Local\Temp\ccYIfAxE.s:23800  .debug_str:00000000000100af .LASF3336
C:\Users\CYMR90~1\AppData\Local\Temp\ccYIfAxE.s:26993  .debug_str:000000000001caf8 .LASF3337
C:\Users\CYMR90~1\AppData\Local\Temp\ccYIfAxE.s:29861  .debug_str:0000000000027f0b .LASF3338
C:\Users\CYMR90~1\AppData\Local\Temp\ccYIfAxE.s:20662  .debug_str:0000000000003a7a .LASF3339
C:\Users\CYMR90~1\AppData\Local\Temp\ccYIfAxE.s:27225  .debug_str:000000000001db57 .LASF3340
C:\Users\CYMR90~1\AppData\Local\Temp\ccYIfAxE.s:30043  .debug_str:0000000000028c24 .LASF3341
C:\Users\CYMR90~1\AppData\Local\Temp\ccYIfAxE.s:20036  .debug_str:000000000000142e .LASF3342
C:\Users\CYMR90~1\AppData\Local\Temp\ccYIfAxE.s:28445  .debug_str:0000000000022564 .LASF3343
C:\Users\CYMR90~1\AppData\Local\Temp\ccYIfAxE.s:25192  .debug_str:0000000000015780 .LASF3344
C:\Users\CYMR90~1\AppData\Local\Temp\ccYIfAxE.s:22044  .debug_str:00000000000092bd .LASF3345
C:\Users\CYMR90~1\AppData\Local\Temp\ccYIfAxE.s:27129  .debug_str:000000000001d57f .LASF3346
C:\Users\CYMR90~1\AppData\Local\Temp\ccYIfAxE.s:24550  .debug_str:0000000000012fb7 .LASF3347
C:\Users\CYMR90~1\AppData\Local\Temp\ccYIfAxE.s:22518  .debug_str:000000000000aff3 .LASF3348
C:\Users\CYMR90~1\AppData\Local\Temp\ccYIfAxE.s:27061  .debug_str:000000000001d006 .LASF3349
C:\Users\CYMR90~1\AppData\Local\Temp\ccYIfAxE.s:29211  .debug_str:0000000000025449 .LASF3350
C:\Users\CYMR90~1\AppData\Local\Temp\ccYIfAxE.s:22842  .debug_str:000000000000c5f2 .LASF3351
C:\Users\CYMR90~1\AppData\Local\Temp\ccYIfAxE.s:30567  .debug_str:000000000002ac1b .LASF3352
C:\Users\CYMR90~1\AppData\Local\Temp\ccYIfAxE.s:26313  .debug_str:0000000000019f1c .LASF3353
C:\Users\CYMR90~1\AppData\Local\Temp\ccYIfAxE.s:26355  .debug_str:000000000001a17e .LASF3354
C:\Users\CYMR90~1\AppData\Local\Temp\ccYIfAxE.s:26363  .debug_str:000000000001a204 .LASF3355
C:\Users\CYMR90~1\AppData\Local\Temp\ccYIfAxE.s:29707  .debug_str:000000000002754c .LASF3356
C:\Users\CYMR90~1\AppData\Local\Temp\ccYIfAxE.s:24436  .debug_str:0000000000012825 .LASF3357
C:\Users\CYMR90~1\AppData\Local\Temp\ccYIfAxE.s:30535  .debug_str:000000000002aa29 .LASF3358
C:\Users\CYMR90~1\AppData\Local\Temp\ccYIfAxE.s:26019  .debug_str:0000000000018ab0 .LASF3359
C:\Users\CYMR90~1\AppData\Local\Temp\ccYIfAxE.s:29789  .debug_str:0000000000027afa .LASF3360
C:\Users\CYMR90~1\AppData\Local\Temp\ccYIfAxE.s:20850  .debug_str:00000000000046ba .LASF3361
C:\Users\CYMR90~1\AppData\Local\Temp\ccYIfAxE.s:24014  .debug_str:0000000000010d4d .LASF3362
C:\Users\CYMR90~1\AppData\Local\Temp\ccYIfAxE.s:27413  .debug_str:000000000001e722 .LASF3363
C:\Users\CYMR90~1\AppData\Local\Temp\ccYIfAxE.s:24362  .debug_str:00000000000123bf .LASF3364
C:\Users\CYMR90~1\AppData\Local\Temp\ccYIfAxE.s:23744  .debug_str:000000000000fe04 .LASF3365
C:\Users\CYMR90~1\AppData\Local\Temp\ccYIfAxE.s:24548  .debug_str:0000000000012f7e .LASF3366
C:\Users\CYMR90~1\AppData\Local\Temp\ccYIfAxE.s:28673  .debug_str:0000000000023316 .LASF3367
C:\Users\CYMR90~1\AppData\Local\Temp\ccYIfAxE.s:25382  .debug_str:000000000001633e .LASF3368
C:\Users\CYMR90~1\AppData\Local\Temp\ccYIfAxE.s:26973  .debug_str:000000000001c9a1 .LASF3369
C:\Users\CYMR90~1\AppData\Local\Temp\ccYIfAxE.s:29877  .debug_str:0000000000028015 .LASF3370
C:\Users\CYMR90~1\AppData\Local\Temp\ccYIfAxE.s:21738  .debug_str:0000000000007e7c .LASF3371
C:\Users\CYMR90~1\AppData\Local\Temp\ccYIfAxE.s:21014  .debug_str:000000000000518c .LASF3372
C:\Users\CYMR90~1\AppData\Local\Temp\ccYIfAxE.s:24500  .debug_str:0000000000012c7a .LASF3373
C:\Users\CYMR90~1\AppData\Local\Temp\ccYIfAxE.s:21790  .debug_str:000000000000827c .LASF3374
C:\Users\CYMR90~1\AppData\Local\Temp\ccYIfAxE.s:20088  .debug_str:000000000000170d .LASF3375
C:\Users\CYMR90~1\AppData\Local\Temp\ccYIfAxE.s:29993  .debug_str:000000000002886d .LASF3376
C:\Users\CYMR90~1\AppData\Local\Temp\ccYIfAxE.s:26635  .debug_str:000000000001b4d7 .LASF3377
C:\Users\CYMR90~1\AppData\Local\Temp\ccYIfAxE.s:23030  .debug_str:000000000000d269 .LASF3378
C:\Users\CYMR90~1\AppData\Local\Temp\ccYIfAxE.s:24958  .debug_str:00000000000149a2 .LASF3379
C:\Users\CYMR90~1\AppData\Local\Temp\ccYIfAxE.s:25959  .debug_str:0000000000018731 .LASF3380
C:\Users\CYMR90~1\AppData\Local\Temp\ccYIfAxE.s:23742  .debug_str:000000000000fdeb .LASF3381
C:\Users\CYMR90~1\AppData\Local\Temp\ccYIfAxE.s:27469  .debug_str:000000000001ea62 .LASF3382
C:\Users\CYMR90~1\AppData\Local\Temp\ccYIfAxE.s:21420  .debug_str:00000000000069fa .LASF3383
C:\Users\CYMR90~1\AppData\Local\Temp\ccYIfAxE.s:22390  .debug_str:000000000000a838 .LASF3384
C:\Users\CYMR90~1\AppData\Local\Temp\ccYIfAxE.s:25444  .debug_str:000000000001671a .LASF3385
C:\Users\CYMR90~1\AppData\Local\Temp\ccYIfAxE.s:26413  .debug_str:000000000001a4c8 .LASF3386
C:\Users\CYMR90~1\AppData\Local\Temp\ccYIfAxE.s:27725  .debug_str:000000000001fa06 .LASF3387
C:\Users\CYMR90~1\AppData\Local\Temp\ccYIfAxE.s:23830  .debug_str:00000000000102ab .LASF3388
C:\Users\CYMR90~1\AppData\Local\Temp\ccYIfAxE.s:31147  .debug_str:000000000002d0d6 .LASF3389
C:\Users\CYMR90~1\AppData\Local\Temp\ccYIfAxE.s:25769  .debug_str:0000000000017bf2 .LASF3390
C:\Users\CYMR90~1\AppData\Local\Temp\ccYIfAxE.s:28471  .debug_str:00000000000226fa .LASF3391
C:\Users\CYMR90~1\AppData\Local\Temp\ccYIfAxE.s:22716  .debug_str:000000000000bdb2 .LASF3392
C:\Users\CYMR90~1\AppData\Local\Temp\ccYIfAxE.s:28749  .debug_str:0000000000023731 .LASF3393
C:\Users\CYMR90~1\AppData\Local\Temp\ccYIfAxE.s:24834  .debug_str:00000000000141eb .LASF3394
C:\Users\CYMR90~1\AppData\Local\Temp\ccYIfAxE.s:27613  .debug_str:000000000001f2f9 .LASF3395
C:\Users\CYMR90~1\AppData\Local\Temp\ccYIfAxE.s:23566  .debug_str:000000000000f2e0 .LASF3396
C:\Users\CYMR90~1\AppData\Local\Temp\ccYIfAxE.s:30531  .debug_str:000000000002a9e7 .LASF3397
C:\Users\CYMR90~1\AppData\Local\Temp\ccYIfAxE.s:23916  .debug_str:000000000001075f .LASF3398
C:\Users\CYMR90~1\AppData\Local\Temp\ccYIfAxE.s:27937  .debug_str:00000000000206a1 .LASF3399
C:\Users\CYMR90~1\AppData\Local\Temp\ccYIfAxE.s:25134  .debug_str:0000000000015440 .LASF3400
C:\Users\CYMR90~1\AppData\Local\Temp\ccYIfAxE.s:24244  .debug_str:0000000000011c06 .LASF3401
C:\Users\CYMR90~1\AppData\Local\Temp\ccYIfAxE.s:22086  .debug_str:0000000000009521 .LASF3402
C:\Users\CYMR90~1\AppData\Local\Temp\ccYIfAxE.s:22472  .debug_str:000000000000ad2c .LASF3403
C:\Users\CYMR90~1\AppData\Local\Temp\ccYIfAxE.s:31265  .debug_str:000000000002d885 .LASF3404
C:\Users\CYMR90~1\AppData\Local\Temp\ccYIfAxE.s:20802  .debug_str:00000000000043d0 .LASF3405
C:\Users\CYMR90~1\AppData\Local\Temp\ccYIfAxE.s:30793  .debug_str:000000000002b932 .LASF3406
C:\Users\CYMR90~1\AppData\Local\Temp\ccYIfAxE.s:23188  .debug_str:000000000000dcc9 .LASF3407
C:\Users\CYMR90~1\AppData\Local\Temp\ccYIfAxE.s:25935  .debug_str:00000000000185a3 .LASF3408
C:\Users\CYMR90~1\AppData\Local\Temp\ccYIfAxE.s:25380  .debug_str:0000000000016326 .LASF3409
C:\Users\CYMR90~1\AppData\Local\Temp\ccYIfAxE.s:28761  .debug_str:00000000000237c6 .LASF3410
C:\Users\CYMR90~1\AppData\Local\Temp\ccYIfAxE.s:20006  .debug_str:000000000000124c .LASF3411
C:\Users\CYMR90~1\AppData\Local\Temp\ccYIfAxE.s:20972  .debug_str:0000000000004f46 .LASF3412
C:\Users\CYMR90~1\AppData\Local\Temp\ccYIfAxE.s:28625  .debug_str:0000000000022fe1 .LASF3413
C:\Users\CYMR90~1\AppData\Local\Temp\ccYIfAxE.s:21230  .debug_str:0000000000005ea9 .LASF3414
C:\Users\CYMR90~1\AppData\Local\Temp\ccYIfAxE.s:28941  .debug_str:000000000002425b .LASF3415
C:\Users\CYMR90~1\AppData\Local\Temp\ccYIfAxE.s:29373  .debug_str:00000000000260ae .LASF3416
C:\Users\CYMR90~1\AppData\Local\Temp\ccYIfAxE.s:28063  .debug_str:0000000000020ebe .LASF3417
C:\Users\CYMR90~1\AppData\Local\Temp\ccYIfAxE.s:25280  .debug_str:0000000000015ca6 .LASF3418
C:\Users\CYMR90~1\AppData\Local\Temp\ccYIfAxE.s:25016  .debug_str:0000000000014cfc .LASF3419
C:\Users\CYMR90~1\AppData\Local\Temp\ccYIfAxE.s:25759  .debug_str:0000000000017b48 .LASF3420
C:\Users\CYMR90~1\AppData\Local\Temp\ccYIfAxE.s:27957  .debug_str:00000000000207ac .LASF3421
C:\Users\CYMR90~1\AppData\Local\Temp\ccYIfAxE.s:21624  .debug_str:000000000000773f .LASF3422
C:\Users\CYMR90~1\AppData\Local\Temp\ccYIfAxE.s:19764  .debug_str:000000000000036b .LASF3423
C:\Users\CYMR90~1\AppData\Local\Temp\ccYIfAxE.s:30145  .debug_str:000000000002930a .LASF3424
C:\Users\CYMR90~1\AppData\Local\Temp\ccYIfAxE.s:19898  .debug_str:0000000000000ba8 .LASF3425
C:\Users\CYMR90~1\AppData\Local\Temp\ccYIfAxE.s:28451  .debug_str:00000000000225d8 .LASF3426
C:\Users\CYMR90~1\AppData\Local\Temp\ccYIfAxE.s:25174  .debug_str:0000000000015695 .LASF3427
C:\Users\CYMR90~1\AppData\Local\Temp\ccYIfAxE.s:24814  .debug_str:00000000000140be .LASF3428
C:\Users\CYMR90~1\AppData\Local\Temp\ccYIfAxE.s:23054  .debug_str:000000000000d411 .LASF3429
C:\Users\CYMR90~1\AppData\Local\Temp\ccYIfAxE.s:28751  .debug_str:0000000000023757 .LASF3430
C:\Users\CYMR90~1\AppData\Local\Temp\ccYIfAxE.s:26681  .debug_str:000000000001b85d .LASF3431
C:\Users\CYMR90~1\AppData\Local\Temp\ccYIfAxE.s:25442  .debug_str:00000000000166fd .LASF3432
C:\Users\CYMR90~1\AppData\Local\Temp\ccYIfAxE.s:29209  .debug_str:000000000002542b .LASF3433
C:\Users\CYMR90~1\AppData\Local\Temp\ccYIfAxE.s:23708  .debug_str:000000000000fc24 .LASF3434
C:\Users\CYMR90~1\AppData\Local\Temp\ccYIfAxE.s:28671  .debug_str:00000000000232fa .LASF3435
C:\Users\CYMR90~1\AppData\Local\Temp\ccYIfAxE.s:24642  .debug_str:000000000001358f .LASF3436
C:\Users\CYMR90~1\AppData\Local\Temp\ccYIfAxE.s:27173  .debug_str:000000000001d80c .LASF3437
C:\Users\CYMR90~1\AppData\Local\Temp\ccYIfAxE.s:21446  .debug_str:0000000000006b74 .LASF3438
C:\Users\CYMR90~1\AppData\Local\Temp\ccYIfAxE.s:31187  .debug_str:000000000002d367 .LASF3439
C:\Users\CYMR90~1\AppData\Local\Temp\ccYIfAxE.s:21646  .debug_str:000000000000788d .LASF3440
C:\Users\CYMR90~1\AppData\Local\Temp\ccYIfAxE.s:20726  .debug_str:0000000000003e8b .LASF3441
C:\Users\CYMR90~1\AppData\Local\Temp\ccYIfAxE.s:30867  .debug_str:000000000002be28 .LASF3442
C:\Users\CYMR90~1\AppData\Local\Temp\ccYIfAxE.s:22550  .debug_str:000000000000b2e4 .LASF3443
C:\Users\CYMR90~1\AppData\Local\Temp\ccYIfAxE.s:24806  .debug_str:0000000000014061 .LASF3444
C:\Users\CYMR90~1\AppData\Local\Temp\ccYIfAxE.s:21006  .debug_str:000000000000512c .LASF3445
C:\Users\CYMR90~1\AppData\Local\Temp\ccYIfAxE.s:29723  .debug_str:0000000000027649 .LASF3446
C:\Users\CYMR90~1\AppData\Local\Temp\ccYIfAxE.s:21206  .debug_str:0000000000005d51 .LASF3447
C:\Users\CYMR90~1\AppData\Local\Temp\ccYIfAxE.s:22656  .debug_str:000000000000b9b2 .LASF3448
C:\Users\CYMR90~1\AppData\Local\Temp\ccYIfAxE.s:21138  .debug_str:0000000000005917 .LASF3449
C:\Users\CYMR90~1\AppData\Local\Temp\ccYIfAxE.s:24354  .debug_str:0000000000012348 .LASF3450
C:\Users\CYMR90~1\AppData\Local\Temp\ccYIfAxE.s:29897  .debug_str:00000000000281c1 .LASF3451
C:\Users\CYMR90~1\AppData\Local\Temp\ccYIfAxE.s:26201  .debug_str:0000000000019781 .LASF3452
C:\Users\CYMR90~1\AppData\Local\Temp\ccYIfAxE.s:24956  .debug_str:0000000000014967 .LASF3453
C:\Users\CYMR90~1\AppData\Local\Temp\ccYIfAxE.s:31217  .debug_str:000000000002d5c0 .LASF3454
C:\Users\CYMR90~1\AppData\Local\Temp\ccYIfAxE.s:27691  .debug_str:000000000001f811 .LASF3455
C:\Users\CYMR90~1\AppData\Local\Temp\ccYIfAxE.s:24286  .debug_str:0000000000011f10 .LASF3456
C:\Users\CYMR90~1\AppData\Local\Temp\ccYIfAxE.s:21632  .debug_str:00000000000077a2 .LASF3457
C:\Users\CYMR90~1\AppData\Local\Temp\ccYIfAxE.s:28805  .debug_str:0000000000023a5d .LASF3458
C:\Users\CYMR90~1\AppData\Local\Temp\ccYIfAxE.s:25330  .debug_str:0000000000015fa4 .LASF3459
C:\Users\CYMR90~1\AppData\Local\Temp\ccYIfAxE.s:21866  .debug_str:00000000000087ea .LASF3460
C:\Users\CYMR90~1\AppData\Local\Temp\ccYIfAxE.s:25881  .debug_str:000000000001824d .LASF3461
C:\Users\CYMR90~1\AppData\Local\Temp\ccYIfAxE.s:30929  .debug_str:000000000002c263 .LASF3462
C:\Users\CYMR90~1\AppData\Local\Temp\ccYIfAxE.s:29241  .debug_str:0000000000025682 .LASF3463
C:\Users\CYMR90~1\AppData\Local\Temp\ccYIfAxE.s:20108  .debug_str:0000000000001852 .LASF3464
C:\Users\CYMR90~1\AppData\Local\Temp\ccYIfAxE.s:21180  .debug_str:0000000000005b7a .LASF3465
C:\Users\CYMR90~1\AppData\Local\Temp\ccYIfAxE.s:27477  .debug_str:000000000001eaae .LASF3466
C:\Users\CYMR90~1\AppData\Local\Temp\ccYIfAxE.s:27699  .debug_str:000000000001f88f .LASF3467
C:\Users\CYMR90~1\AppData\Local\Temp\ccYIfAxE.s:28851  .debug_str:0000000000023d6a .LASF3468
C:\Users\CYMR90~1\AppData\Local\Temp\ccYIfAxE.s:20104  .debug_str:000000000000180b .LASF3469
C:\Users\CYMR90~1\AppData\Local\Temp\ccYIfAxE.s:25997  .debug_str:0000000000018952 .LASF3470
C:\Users\CYMR90~1\AppData\Local\Temp\ccYIfAxE.s:31167  .debug_str:000000000002d22a .LASF3471
C:\Users\CYMR90~1\AppData\Local\Temp\ccYIfAxE.s:22626  .debug_str:000000000000b732 .LASF3472
C:\Users\CYMR90~1\AppData\Local\Temp\ccYIfAxE.s:25863  .debug_str:000000000001816e .LASF3473
C:\Users\CYMR90~1\AppData\Local\Temp\ccYIfAxE.s:20038  .debug_str:000000000000144d .LASF3474
C:\Users\CYMR90~1\AppData\Local\Temp\ccYIfAxE.s:26949  .debug_str:000000000001c838 .LASF3475
C:\Users\CYMR90~1\AppData\Local\Temp\ccYIfAxE.s:22848  .debug_str:000000000000c65a .LASF3476
C:\Users\CYMR90~1\AppData\Local\Temp\ccYIfAxE.s:23116  .debug_str:000000000000d87c .LASF3477
C:\Users\CYMR90~1\AppData\Local\Temp\ccYIfAxE.s:30925  .debug_str:000000000002c218 .LASF3478
C:\Users\CYMR90~1\AppData\Local\Temp\ccYIfAxE.s:27905  .debug_str:00000000000204e2 .LASF3479
C:\Users\CYMR90~1\AppData\Local\Temp\ccYIfAxE.s:23598  .debug_str:000000000000f4e6 .LASF3480
C:\Users\CYMR90~1\AppData\Local\Temp\ccYIfAxE.s:29371  .debug_str:0000000000026086 .LASF3481
C:\Users\CYMR90~1\AppData\Local\Temp\ccYIfAxE.s:28293  .debug_str:0000000000021c50 .LASF3482
C:\Users\CYMR90~1\AppData\Local\Temp\ccYIfAxE.s:23826  .debug_str:000000000001026c .LASF3483
C:\Users\CYMR90~1\AppData\Local\Temp\ccYIfAxE.s:27903  .debug_str:00000000000204bb .LASF3484
C:\Users\CYMR90~1\AppData\Local\Temp\ccYIfAxE.s:24964  .debug_str:0000000000014a10 .LASF3485
C:\Users\CYMR90~1\AppData\Local\Temp\ccYIfAxE.s:30805  .debug_str:000000000002ba23 .LASF3486
C:\Users\CYMR90~1\AppData\Local\Temp\ccYIfAxE.s:19778  .debug_str:000000000000042e .LASF3487
C:\Users\CYMR90~1\AppData\Local\Temp\ccYIfAxE.s:27935  .debug_str:0000000000020682 .LASF3488
C:\Users\CYMR90~1\AppData\Local\Temp\ccYIfAxE.s:29507  .debug_str:00000000000268ea .LASF3489
C:\Users\CYMR90~1\AppData\Local\Temp\ccYIfAxE.s:31219  .debug_str:000000000002d5e7 .LASF3490
C:\Users\CYMR90~1\AppData\Local\Temp\ccYIfAxE.s:22258  .debug_str:0000000000009fcb .LASF3491
C:\Users\CYMR90~1\AppData\Local\Temp\ccYIfAxE.s:26241  .debug_str:00000000000199ef .LASF3492
C:\Users\CYMR90~1\AppData\Local\Temp\ccYIfAxE.s:23572  .debug_str:000000000000f326 .LASF3493
C:\Users\CYMR90~1\AppData\Local\Temp\ccYIfAxE.s:27611  .debug_str:000000000001f2db .LASF3494
C:\Users\CYMR90~1\AppData\Local\Temp\ccYIfAxE.s:26053  .debug_str:0000000000018cda .LASF3495
C:\Users\CYMR90~1\AppData\Local\Temp\ccYIfAxE.s:30727  .debug_str:000000000002b597 .LASF3496
C:\Users\CYMR90~1\AppData\Local\Temp\ccYIfAxE.s:26827  .debug_str:000000000001c124 .LASF3497
C:\Users\CYMR90~1\AppData\Local\Temp\ccYIfAxE.s:20714  .debug_str:0000000000003dcc .LASF3498
C:\Users\CYMR90~1\AppData\Local\Temp\ccYIfAxE.s:22532  .debug_str:000000000000b108 .LASF3499
C:\Users\CYMR90~1\AppData\Local\Temp\ccYIfAxE.s:23594  .debug_str:000000000000f498 .LASF3500
C:\Users\CYMR90~1\AppData\Local\Temp\ccYIfAxE.s:28381  .debug_str:000000000002217f .LASF3501
C:\Users\CYMR90~1\AppData\Local\Temp\ccYIfAxE.s:25554  .debug_str:0000000000016dca .LASF3502
C:\Users\CYMR90~1\AppData\Local\Temp\ccYIfAxE.s:27375  .debug_str:000000000001e4f6 .LASF3503
C:\Users\CYMR90~1\AppData\Local\Temp\ccYIfAxE.s:27263  .debug_str:000000000001ddbe .LASF3504
C:\Users\CYMR90~1\AppData\Local\Temp\ccYIfAxE.s:28405  .debug_str:0000000000022315 .LASF3505
C:\Users\CYMR90~1\AppData\Local\Temp\ccYIfAxE.s:22494  .debug_str:000000000000ae8b .LASF3506
C:\Users\CYMR90~1\AppData\Local\Temp\ccYIfAxE.s:24932  .debug_str:00000000000147dc .LASF3507
C:\Users\CYMR90~1\AppData\Local\Temp\ccYIfAxE.s:21280  .debug_str:0000000000006154 .LASF3508
C:\Users\CYMR90~1\AppData\Local\Temp\ccYIfAxE.s:28119  .debug_str:00000000000211b8 .LASF3509
C:\Users\CYMR90~1\AppData\Local\Temp\ccYIfAxE.s:24536  .debug_str:0000000000012eb8 .LASF3510
C:\Users\CYMR90~1\AppData\Local\Temp\ccYIfAxE.s:26655  .debug_str:000000000001b63c .LASF3511
C:\Users\CYMR90~1\AppData\Local\Temp\ccYIfAxE.s:20610  .debug_str:0000000000003713 .LASF3512
C:\Users\CYMR90~1\AppData\Local\Temp\ccYIfAxE.s:21026  .debug_str:000000000000524e .LASF3513
C:\Users\CYMR90~1\AppData\Local\Temp\ccYIfAxE.s:27983  .debug_str:0000000000020974 .LASF3514
C:\Users\CYMR90~1\AppData\Local\Temp\ccYIfAxE.s:24610  .debug_str:0000000000013391 .LASF3515
C:\Users\CYMR90~1\AppData\Local\Temp\ccYIfAxE.s:22370  .debug_str:000000000000a6fa .LASF3516
C:\Users\CYMR90~1\AppData\Local\Temp\ccYIfAxE.s:26995  .debug_str:000000000001cb1d .LASF3517
C:\Users\CYMR90~1\AppData\Local\Temp\ccYIfAxE.s:21558  .debug_str:000000000000724e .LASF3518
C:\Users\CYMR90~1\AppData\Local\Temp\ccYIfAxE.s:29701  .debug_str:00000000000274e8 .LASF3519
C:\Users\CYMR90~1\AppData\Local\Temp\ccYIfAxE.s:27931  .debug_str:0000000000020647 .LASF3520
C:\Users\CYMR90~1\AppData\Local\Temp\ccYIfAxE.s:21278  .debug_str:0000000000006143 .LASF3521
C:\Users\CYMR90~1\AppData\Local\Temp\ccYIfAxE.s:20224  .debug_str:0000000000001f29 .LASF3522
C:\Users\CYMR90~1\AppData\Local\Temp\ccYIfAxE.s:25939  .debug_str:00000000000185da .LASF3523
C:\Users\CYMR90~1\AppData\Local\Temp\ccYIfAxE.s:22492  .debug_str:000000000000ae6a .LASF3524
C:\Users\CYMR90~1\AppData\Local\Temp\ccYIfAxE.s:26707  .debug_str:000000000001b9cf .LASF3525
C:\Users\CYMR90~1\AppData\Local\Temp\ccYIfAxE.s:23282  .debug_str:000000000000e252 .LASF3526
C:\Users\CYMR90~1\AppData\Local\Temp\ccYIfAxE.s:28115  .debug_str:000000000002117b .LASF3527
C:\Users\CYMR90~1\AppData\Local\Temp\ccYIfAxE.s:29005  .debug_str:0000000000024734 .LASF3528
C:\Users\CYMR90~1\AppData\Local\Temp\ccYIfAxE.s:29909  .debug_str:0000000000028274 .LASF3529
C:\Users\CYMR90~1\AppData\Local\Temp\ccYIfAxE.s:28243  .debug_str:0000000000021955 .LASF3530
C:\Users\CYMR90~1\AppData\Local\Temp\ccYIfAxE.s:29533  .debug_str:0000000000026a60 .LASF3531
C:\Users\CYMR90~1\AppData\Local\Temp\ccYIfAxE.s:21576  .debug_str:00000000000073bc .LASF3532
C:\Users\CYMR90~1\AppData\Local\Temp\ccYIfAxE.s:26717  .debug_str:000000000001ba82 .LASF3533
C:\Users\CYMR90~1\AppData\Local\Temp\ccYIfAxE.s:20314  .debug_str:00000000000023f4 .LASF3534
C:\Users\CYMR90~1\AppData\Local\Temp\ccYIfAxE.s:29285  .debug_str:0000000000025a2b .LASF3535
C:\Users\CYMR90~1\AppData\Local\Temp\ccYIfAxE.s:22852  .debug_str:000000000000c69f .LASF3536
C:\Users\CYMR90~1\AppData\Local\Temp\ccYIfAxE.s:25416  .debug_str:000000000001656a .LASF3537
C:\Users\CYMR90~1\AppData\Local\Temp\ccYIfAxE.s:29739  .debug_str:0000000000027726 .LASF3538
C:\Users\CYMR90~1\AppData\Local\Temp\ccYIfAxE.s:22482  .debug_str:000000000000adcc .LASF3539
C:\Users\CYMR90~1\AppData\Local\Temp\ccYIfAxE.s:23356  .debug_str:000000000000e68d .LASF3540
C:\Users\CYMR90~1\AppData\Local\Temp\ccYIfAxE.s:20942  .debug_str:0000000000004d4f .LASF3541
C:\Users\CYMR90~1\AppData\Local\Temp\ccYIfAxE.s:19892  .debug_str:0000000000000b2e .LASF3542
C:\Users\CYMR90~1\AppData\Local\Temp\ccYIfAxE.s:28415  .debug_str:00000000000223ad .LASF3543
C:\Users\CYMR90~1\AppData\Local\Temp\ccYIfAxE.s:22502  .debug_str:000000000000aefa .LASF3544
C:\Users\CYMR90~1\AppData\Local\Temp\ccYIfAxE.s:20630  .debug_str:0000000000003881 .LASF3545
C:\Users\CYMR90~1\AppData\Local\Temp\ccYIfAxE.s:20068  .debug_str:00000000000015d4 .LASF3546
C:\Users\CYMR90~1\AppData\Local\Temp\ccYIfAxE.s:25961  .debug_str:000000000001874a .LASF3547
C:\Users\CYMR90~1\AppData\Local\Temp\ccYIfAxE.s:25438  .debug_str:00000000000166bd .LASF3548
C:\Users\CYMR90~1\AppData\Local\Temp\ccYIfAxE.s:24598  .debug_str:00000000000132d2 .LASF3549
C:\Users\CYMR90~1\AppData\Local\Temp\ccYIfAxE.s:26319  .debug_str:0000000000019f80 .LASF3550
C:\Users\CYMR90~1\AppData\Local\Temp\ccYIfAxE.s:30691  .debug_str:000000000002b386 .LASF3551
C:\Users\CYMR90~1\AppData\Local\Temp\ccYIfAxE.s:25506  .debug_str:0000000000016a6b .LASF3552
C:\Users\CYMR90~1\AppData\Local\Temp\ccYIfAxE.s:24516  .debug_str:0000000000012da1 .LASF3553
C:\Users\CYMR90~1\AppData\Local\Temp\ccYIfAxE.s:26611  .debug_str:000000000001b32b .LASF3554
C:\Users\CYMR90~1\AppData\Local\Temp\ccYIfAxE.s:29563  .debug_str:0000000000026c4a .LASF3555
C:\Users\CYMR90~1\AppData\Local\Temp\ccYIfAxE.s:21800  .debug_str:00000000000083b8 .LASF3556
C:\Users\CYMR90~1\AppData\Local\Temp\ccYIfAxE.s:20440  .debug_str:0000000000002c61 .LASF3557
C:\Users\CYMR90~1\AppData\Local\Temp\ccYIfAxE.s:28335  .debug_str:0000000000021eb8 .LASF3558
C:\Users\CYMR90~1\AppData\Local\Temp\ccYIfAxE.s:27647  .debug_str:000000000001f575 .LASF3559
C:\Users\CYMR90~1\AppData\Local\Temp\ccYIfAxE.s:27949  .debug_str:0000000000020740 .LASF3560
C:\Users\CYMR90~1\AppData\Local\Temp\ccYIfAxE.s:28501  .debug_str:00000000000228aa .LASF3561
C:\Users\CYMR90~1\AppData\Local\Temp\ccYIfAxE.s:24012  .debug_str:0000000000010d35 .LASF3562
C:\Users\CYMR90~1\AppData\Local\Temp\ccYIfAxE.s:21504  .debug_str:0000000000006f1a .LASF3563
C:\Users\CYMR90~1\AppData\Local\Temp\ccYIfAxE.s:30853  .debug_str:000000000002bd84 .LASF3564
C:\Users\CYMR90~1\AppData\Local\Temp\ccYIfAxE.s:30679  .debug_str:000000000002b2c5 .LASF3565
C:\Users\CYMR90~1\AppData\Local\Temp\ccYIfAxE.s:20082  .debug_str:00000000000016cb .LASF3566
C:\Users\CYMR90~1\AppData\Local\Temp\ccYIfAxE.s:22530  .debug_str:000000000000b0e9 .LASF3567
C:\Users\CYMR90~1\AppData\Local\Temp\ccYIfAxE.s:29667  .debug_str:00000000000272a0 .LASF3568
C:\Users\CYMR90~1\AppData\Local\Temp\ccYIfAxE.s:30919  .debug_str:000000000002c1c6 .LASF3569
C:\Users\CYMR90~1\AppData\Local\Temp\ccYIfAxE.s:31157  .debug_str:000000000002d173 .LASF3570
C:\Users\CYMR90~1\AppData\Local\Temp\ccYIfAxE.s:26135  .debug_str:000000000001936f .LASF3571
C:\Users\CYMR90~1\AppData\Local\Temp\ccYIfAxE.s:30789  .debug_str:000000000002b8ef .LASF3572
C:\Users\CYMR90~1\AppData\Local\Temp\ccYIfAxE.s:24608  .debug_str:0000000000013376 .LASF3573
C:\Users\CYMR90~1\AppData\Local\Temp\ccYIfAxE.s:28485  .debug_str:00000000000227ed .LASF3574
C:\Users\CYMR90~1\AppData\Local\Temp\ccYIfAxE.s:24864  .debug_str:00000000000143b8 .LASF3575
C:\Users\CYMR90~1\AppData\Local\Temp\ccYIfAxE.s:22948  .debug_str:000000000000cd17 .LASF3576
C:\Users\CYMR90~1\AppData\Local\Temp\ccYIfAxE.s:20508  .debug_str:000000000000307b .LASF3577
C:\Users\CYMR90~1\AppData\Local\Temp\ccYIfAxE.s:26493  .debug_str:000000000001ab60 .LASF3578
C:\Users\CYMR90~1\AppData\Local\Temp\ccYIfAxE.s:27729  .debug_str:000000000001fa39 .LASF3579
C:\Users\CYMR90~1\AppData\Local\Temp\ccYIfAxE.s:30481  .debug_str:000000000002a709 .LASF3580
C:\Users\CYMR90~1\AppData\Local\Temp\ccYIfAxE.s:29655  .debug_str:000000000002720d .LASF3581
C:\Users\CYMR90~1\AppData\Local\Temp\ccYIfAxE.s:28549  .debug_str:0000000000022b2d .LASF3582
C:\Users\CYMR90~1\AppData\Local\Temp\ccYIfAxE.s:29225  .debug_str:0000000000025510 .LASF3583
C:\Users\CYMR90~1\AppData\Local\Temp\ccYIfAxE.s:27321  .debug_str:000000000001e1a5 .LASF3584
C:\Users\CYMR90~1\AppData\Local\Temp\ccYIfAxE.s:27383  .debug_str:000000000001e580 .LASF3585
C:\Users\CYMR90~1\AppData\Local\Temp\ccYIfAxE.s:26401  .debug_str:000000000001a415 .LASF3586
C:\Users\CYMR90~1\AppData\Local\Temp\ccYIfAxE.s:19772  .debug_str:00000000000003e1 .LASF3587
C:\Users\CYMR90~1\AppData\Local\Temp\ccYIfAxE.s:25747  .debug_str:0000000000017a55 .LASF3588
C:\Users\CYMR90~1\AppData\Local\Temp\ccYIfAxE.s:29417  .debug_str:0000000000026345 .LASF3589
C:\Users\CYMR90~1\AppData\Local\Temp\ccYIfAxE.s:21058  .debug_str:0000000000005442 .LASF3590
C:\Users\CYMR90~1\AppData\Local\Temp\ccYIfAxE.s:20120  .debug_str:0000000000001927 .LASF3591
C:\Users\CYMR90~1\AppData\Local\Temp\ccYIfAxE.s:25288  .debug_str:0000000000015d0d .LASF3592
C:\Users\CYMR90~1\AppData\Local\Temp\ccYIfAxE.s:23678  .debug_str:000000000000f988 .LASF3593
C:\Users\CYMR90~1\AppData\Local\Temp\ccYIfAxE.s:22172  .debug_str:0000000000009a45 .LASF3594
C:\Users\CYMR90~1\AppData\Local\Temp\ccYIfAxE.s:28533  .debug_str:0000000000022a44 .LASF3595
C:\Users\CYMR90~1\AppData\Local\Temp\ccYIfAxE.s:20216  .debug_str:0000000000001eb3 .LASF3596
C:\Users\CYMR90~1\AppData\Local\Temp\ccYIfAxE.s:27709  .debug_str:000000000001f93f .LASF3597
C:\Users\CYMR90~1\AppData\Local\Temp\ccYIfAxE.s:22148  .debug_str:00000000000098e3 .LASF3598
C:\Users\CYMR90~1\AppData\Local\Temp\ccYIfAxE.s:25871  .debug_str:00000000000181f0 .LASF3599
C:\Users\CYMR90~1\AppData\Local\Temp\ccYIfAxE.s:29521  .debug_str:00000000000269a8 .LASF3600
C:\Users\CYMR90~1\AppData\Local\Temp\ccYIfAxE.s:23318  .debug_str:000000000000e45d .LASF3601
C:\Users\CYMR90~1\AppData\Local\Temp\ccYIfAxE.s:27461  .debug_str:000000000001ea07 .LASF3602
C:\Users\CYMR90~1\AppData\Local\Temp\ccYIfAxE.s:31051  .debug_str:000000000002ca71 .LASF3603
C:\Users\CYMR90~1\AppData\Local\Temp\ccYIfAxE.s:23624  .debug_str:000000000000f696 .LASF3604
C:\Users\CYMR90~1\AppData\Local\Temp\ccYIfAxE.s:27753  .debug_str:000000000001fba5 .LASF3605
C:\Users\CYMR90~1\AppData\Local\Temp\ccYIfAxE.s:20926  .debug_str:0000000000004c6e .LASF3606
C:\Users\CYMR90~1\AppData\Local\Temp\ccYIfAxE.s:27643  .debug_str:000000000001f541 .LASF3607
C:\Users\CYMR90~1\AppData\Local\Temp\ccYIfAxE.s:23328  .debug_str:000000000000e4e1 .LASF3608
C:\Users\CYMR90~1\AppData\Local\Temp\ccYIfAxE.s:30807  .debug_str:000000000002ba4a .LASF3609
C:\Users\CYMR90~1\AppData\Local\Temp\ccYIfAxE.s:28325  .debug_str:0000000000021e3f .LASF3610
C:\Users\CYMR90~1\AppData\Local\Temp\ccYIfAxE.s:25639  .debug_str:000000000001742c .LASF3611
C:\Users\CYMR90~1\AppData\Local\Temp\ccYIfAxE.s:27183  .debug_str:000000000001d8b9 .LASF3612
C:\Users\CYMR90~1\AppData\Local\Temp\ccYIfAxE.s:25687  .debug_str:00000000000176cb .LASF3613
C:\Users\CYMR90~1\AppData\Local\Temp\ccYIfAxE.s:29245  .debug_str:00000000000256bc .LASF3614
C:\Users\CYMR90~1\AppData\Local\Temp\ccYIfAxE.s:27345  .debug_str:000000000001e365 .LASF3615
C:\Users\CYMR90~1\AppData\Local\Temp\ccYIfAxE.s:28295  .debug_str:0000000000021c8f .LASF3616
C:\Users\CYMR90~1\AppData\Local\Temp\ccYIfAxE.s:23902  .debug_str:0000000000010699 .LASF3617
C:\Users\CYMR90~1\AppData\Local\Temp\ccYIfAxE.s:25068  .debug_str:0000000000015034 .LASF3618
C:\Users\CYMR90~1\AppData\Local\Temp\ccYIfAxE.s:31179  .debug_str:000000000002d301 .LASF3619
C:\Users\CYMR90~1\AppData\Local\Temp\ccYIfAxE.s:23042  .debug_str:000000000000d36a .LASF3620
C:\Users\CYMR90~1\AppData\Local\Temp\ccYIfAxE.s:25921  .debug_str:00000000000184dd .LASF3621
C:\Users\CYMR90~1\AppData\Local\Temp\ccYIfAxE.s:22176  .debug_str:0000000000009a77 .LASF3622
C:\Users\CYMR90~1\AppData\Local\Temp\ccYIfAxE.s:29517  .debug_str:0000000000026973 .LASF3623
C:\Users\CYMR90~1\AppData\Local\Temp\ccYIfAxE.s:30621  .debug_str:000000000002af87 .LASF3624
C:\Users\CYMR90~1\AppData\Local\Temp\ccYIfAxE.s:22738  .debug_str:000000000000bf00 .LASF3625
C:\Users\CYMR90~1\AppData\Local\Temp\ccYIfAxE.s:30017  .debug_str:0000000000028a88 .LASF3626
C:\Users\CYMR90~1\AppData\Local\Temp\ccYIfAxE.s:28943  .debug_str:0000000000024275 .LASF3627
C:\Users\CYMR90~1\AppData\Local\Temp\ccYIfAxE.s:30495  .debug_str:000000000002a7c5 .LASF3628
C:\Users\CYMR90~1\AppData\Local\Temp\ccYIfAxE.s:20286  .debug_str:000000000000227f .LASF3629
C:\Users\CYMR90~1\AppData\Local\Temp\ccYIfAxE.s:29577  .debug_str:0000000000026d5e .LASF3630
C:\Users\CYMR90~1\AppData\Local\Temp\ccYIfAxE.s:26271  .debug_str:0000000000019c8d .LASF3631
C:\Users\CYMR90~1\AppData\Local\Temp\ccYIfAxE.s:22266  .debug_str:000000000000a04b .LASF3632
C:\Users\CYMR90~1\AppData\Local\Temp\ccYIfAxE.s:26615  .debug_str:000000000001b36b .LASF3633
C:\Users\CYMR90~1\AppData\Local\Temp\ccYIfAxE.s:20294  .debug_str:00000000000022e9 .LASF3634
C:\Users\CYMR90~1\AppData\Local\Temp\ccYIfAxE.s:29937  .debug_str:0000000000028496 .LASF3635
C:\Users\CYMR90~1\AppData\Local\Temp\ccYIfAxE.s:27279  .debug_str:000000000001dece .LASF3636
C:\Users\CYMR90~1\AppData\Local\Temp\ccYIfAxE.s:29265  .debug_str:00000000000258bb .LASF3637
C:\Users\CYMR90~1\AppData\Local\Temp\ccYIfAxE.s:28551  .debug_str:0000000000022b49 .LASF3638
C:\Users\CYMR90~1\AppData\Local\Temp\ccYIfAxE.s:28073  .debug_str:0000000000020f2d .LASF3639
C:\Users\CYMR90~1\AppData\Local\Temp\ccYIfAxE.s:31005  .debug_str:000000000002c7a1 .LASF3640
C:\Users\CYMR90~1\AppData\Local\Temp\ccYIfAxE.s:30745  .debug_str:000000000002b68f .LASF3641
C:\Users\CYMR90~1\AppData\Local\Temp\ccYIfAxE.s:19834  .debug_str:000000000000075d .LASF3642
C:\Users\CYMR90~1\AppData\Local\Temp\ccYIfAxE.s:23540  .debug_str:000000000000f158 .LASF3643
C:\Users\CYMR90~1\AppData\Local\Temp\ccYIfAxE.s:24968  .debug_str:0000000000014a63 .LASF3644
C:\Users\CYMR90~1\AppData\Local\Temp\ccYIfAxE.s:28863  .debug_str:0000000000023e07 .LASF3645
C:\Users\CYMR90~1\AppData\Local\Temp\ccYIfAxE.s:26447  .debug_str:000000000001a819 .LASF3646
C:\Users\CYMR90~1\AppData\Local\Temp\ccYIfAxE.s:25587  .debug_str:000000000001716d .LASF3647
C:\Users\CYMR90~1\AppData\Local\Temp\ccYIfAxE.s:26039  .debug_str:0000000000018c1a .LASF3648
C:\Users\CYMR90~1\AppData\Local\Temp\ccYIfAxE.s:30569  .debug_str:000000000002ac39 .LASF3649
C:\Users\CYMR90~1\AppData\Local\Temp\ccYIfAxE.s:23090  .debug_str:000000000000d6aa .LASF3650
C:\Users\CYMR90~1\AppData\Local\Temp\ccYIfAxE.s:25637  .debug_str:000000000001740f .LASF3651
C:\Users\CYMR90~1\AppData\Local\Temp\ccYIfAxE.s:24946  .debug_str:00000000000148c0 .LASF3652
C:\Users\CYMR90~1\AppData\Local\Temp\ccYIfAxE.s:25040  .debug_str:0000000000014e88 .LASF3653
C:\Users\CYMR90~1\AppData\Local\Temp\ccYIfAxE.s:27427  .debug_str:000000000001e80f .LASF3654
C:\Users\CYMR90~1\AppData\Local\Temp\ccYIfAxE.s:30351  .debug_str:0000000000029feb .LASF3655
C:\Users\CYMR90~1\AppData\Local\Temp\ccYIfAxE.s:20434  .debug_str:0000000000002c1b .LASF3656
C:\Users\CYMR90~1\AppData\Local\Temp\ccYIfAxE.s:27625  .debug_str:000000000001f3e9 .LASF3657
C:\Users\CYMR90~1\AppData\Local\Temp\ccYIfAxE.s:28207  .debug_str:000000000002169e .LASF3658
C:\Users\CYMR90~1\AppData\Local\Temp\ccYIfAxE.s:20564  .debug_str:0000000000003437 .LASF3659
C:\Users\CYMR90~1\AppData\Local\Temp\ccYIfAxE.s:22548  .debug_str:000000000000b2cb .LASF3660
C:\Users\CYMR90~1\AppData\Local\Temp\ccYIfAxE.s:21468  .debug_str:0000000000006cb0 .LASF3661
C:\Users\CYMR90~1\AppData\Local\Temp\ccYIfAxE.s:29187  .debug_str:00000000000252cc .LASF3662
C:\Users\CYMR90~1\AppData\Local\Temp\ccYIfAxE.s:26513  .debug_str:000000000001ac95 .LASF3663
C:\Users\CYMR90~1\AppData\Local\Temp\ccYIfAxE.s:26371  .debug_str:000000000001a27d .LASF3664
C:\Users\CYMR90~1\AppData\Local\Temp\ccYIfAxE.s:21426  .debug_str:0000000000006a36 .LASF3665
C:\Users\CYMR90~1\AppData\Local\Temp\ccYIfAxE.s:23418  .debug_str:000000000000ea72 .LASF3666
C:\Users\CYMR90~1\AppData\Local\Temp\ccYIfAxE.s:23266  .debug_str:000000000000e10e .LASF3667
C:\Users\CYMR90~1\AppData\Local\Temp\ccYIfAxE.s:21868  .debug_str:0000000000008811 .LASF3668
C:\Users\CYMR90~1\AppData\Local\Temp\ccYIfAxE.s:22062  .debug_str:000000000000939d .LASF3669
C:\Users\CYMR90~1\AppData\Local\Temp\ccYIfAxE.s:22658  .debug_str:000000000000b9d4 .LASF3670
C:\Users\CYMR90~1\AppData\Local\Temp\ccYIfAxE.s:20588  .debug_str:00000000000035be .LASF3671
C:\Users\CYMR90~1\AppData\Local\Temp\ccYIfAxE.s:21992  .debug_str:0000000000008f70 .LASF3672
C:\Users\CYMR90~1\AppData\Local\Temp\ccYIfAxE.s:19754  .debug_str:00000000000002c6 .LASF3673
C:\Users\CYMR90~1\AppData\Local\Temp\ccYIfAxE.s:25633  .debug_str:00000000000173e1 .LASF3674
C:\Users\CYMR90~1\AppData\Local\Temp\ccYIfAxE.s:22812  .debug_str:000000000000c450 .LASF3675
C:\Users\CYMR90~1\AppData\Local\Temp\ccYIfAxE.s:28801  .debug_str:0000000000023a23 .LASF3676
C:\Users\CYMR90~1\AppData\Local\Temp\ccYIfAxE.s:30923  .debug_str:000000000002c1fe .LASF3677
C:\Users\CYMR90~1\AppData\Local\Temp\ccYIfAxE.s:24410  .debug_str:00000000000126b2 .LASF3678
C:\Users\CYMR90~1\AppData\Local\Temp\ccYIfAxE.s:24260  .debug_str:0000000000011d90 .LASF3679
C:\Users\CYMR90~1\AppData\Local\Temp\ccYIfAxE.s:26629  .debug_str:000000000001b47d .LASF3680
C:\Users\CYMR90~1\AppData\Local\Temp\ccYIfAxE.s:28813  .debug_str:0000000000023ae9 .LASF3681
C:\Users\CYMR90~1\AppData\Local\Temp\ccYIfAxE.s:30281  .debug_str:0000000000029b6c .LASF3682
C:\Users\CYMR90~1\AppData\Local\Temp\ccYIfAxE.s:26287  .debug_str:0000000000019d7d .LASF3683
C:\Users\CYMR90~1\AppData\Local\Temp\ccYIfAxE.s:27609  .debug_str:000000000001f2bc .LASF3684
C:\Users\CYMR90~1\AppData\Local\Temp\ccYIfAxE.s:28739  .debug_str:0000000000023685 .LASF3685
C:\Users\CYMR90~1\AppData\Local\Temp\ccYIfAxE.s:29609  .debug_str:0000000000026f46 .LASF3686
C:\Users\CYMR90~1\AppData\Local\Temp\ccYIfAxE.s:19934  .debug_str:0000000000000da9 .LASF3687
C:\Users\CYMR90~1\AppData\Local\Temp\ccYIfAxE.s:23486  .debug_str:000000000000eebc .LASF3688
C:\Users\CYMR90~1\AppData\Local\Temp\ccYIfAxE.s:31001  .debug_str:000000000002c770 .LASF3689
C:\Users\CYMR90~1\AppData\Local\Temp\ccYIfAxE.s:29753  .debug_str:00000000000277eb .LASF3690
C:\Users\CYMR90~1\AppData\Local\Temp\ccYIfAxE.s:20420  .debug_str:0000000000002afb .LASF3691
C:\Users\CYMR90~1\AppData\Local\Temp\ccYIfAxE.s:20092  .debug_str:0000000000001752 .LASF3692
C:\Users\CYMR90~1\AppData\Local\Temp\ccYIfAxE.s:21586  .debug_str:0000000000007490 .LASF3693
C:\Users\CYMR90~1\AppData\Local\Temp\ccYIfAxE.s:23014  .debug_str:000000000000d167 .LASF3694
C:\Users\CYMR90~1\AppData\Local\Temp\ccYIfAxE.s:21318  .debug_str:00000000000063c5 .LASF3695
C:\Users\CYMR90~1\AppData\Local\Temp\ccYIfAxE.s:28175  .debug_str:00000000000214be .LASF3696
C:\Users\CYMR90~1\AppData\Local\Temp\ccYIfAxE.s:28457  .debug_str:0000000000022622 .LASF3697
C:\Users\CYMR90~1\AppData\Local\Temp\ccYIfAxE.s:22154  .debug_str:000000000000993a .LASF3698
C:\Users\CYMR90~1\AppData\Local\Temp\ccYIfAxE.s:28859  .debug_str:0000000000023dd9 .LASF3699
C:\Users\CYMR90~1\AppData\Local\Temp\ccYIfAxE.s:31125  .debug_str:000000000002cf46 .LASF3700
C:\Users\CYMR90~1\AppData\Local\Temp\ccYIfAxE.s:23828  .debug_str:0000000000010292 .LASF3701
C:\Users\CYMR90~1\AppData\Local\Temp\ccYIfAxE.s:25300  .debug_str:0000000000015dbf .LASF3702
C:\Users\CYMR90~1\AppData\Local\Temp\ccYIfAxE.s:27553  .debug_str:000000000001ef8e .LASF3703
C:\Users\CYMR90~1\AppData\Local\Temp\ccYIfAxE.s:20888  .debug_str:0000000000004983 .LASF3704
C:\Users\CYMR90~1\AppData\Local\Temp\ccYIfAxE.s:20166  .debug_str:0000000000001be7 .LASF3705
C:\Users\CYMR90~1\AppData\Local\Temp\ccYIfAxE.s:22238  .debug_str:0000000000009eb0 .LASF3706
C:\Users\CYMR90~1\AppData\Local\Temp\ccYIfAxE.s:28715  .debug_str:0000000000023577 .LASF3707
C:\Users\CYMR90~1\AppData\Local\Temp\ccYIfAxE.s:24294  .debug_str:0000000000011faa .LASF3708
C:\Users\CYMR90~1\AppData\Local\Temp\ccYIfAxE.s:24844  .debug_str:0000000000014297 .LASF3709
C:\Users\CYMR90~1\AppData\Local\Temp\ccYIfAxE.s:22120  .debug_str:00000000000096fd .LASF3710
C:\Users\CYMR90~1\AppData\Local\Temp\ccYIfAxE.s:28541  .debug_str:0000000000022aba .LASF3711
C:\Users\CYMR90~1\AppData\Local\Temp\ccYIfAxE.s:26115  .debug_str:0000000000019155 .LASF3712
C:\Users\CYMR90~1\AppData\Local\Temp\ccYIfAxE.s:28021  .debug_str:0000000000020c29 .LASF3713
C:\Users\CYMR90~1\AppData\Local\Temp\ccYIfAxE.s:25793  .debug_str:0000000000017d4d .LASF3714
C:\Users\CYMR90~1\AppData\Local\Temp\ccYIfAxE.s:30057  .debug_str:0000000000028d26 .LASF3715
C:\Users\CYMR90~1\AppData\Local\Temp\ccYIfAxE.s:23326  .debug_str:000000000000e4c2 .LASF3716
C:\Users\CYMR90~1\AppData\Local\Temp\ccYIfAxE.s:21782  .debug_str:00000000000081e1 .LASF3717
C:\Users\CYMR90~1\AppData\Local\Temp\ccYIfAxE.s:31059  .debug_str:000000000002cb23 .LASF3718
C:\Users\CYMR90~1\AppData\Local\Temp\ccYIfAxE.s:25178  .debug_str:00000000000156e0 .LASF3719
C:\Users\CYMR90~1\AppData\Local\Temp\ccYIfAxE.s:26913  .debug_str:000000000001c634 .LASF3720
C:\Users\CYMR90~1\AppData\Local\Temp\ccYIfAxE.s:26345  .debug_str:000000000001a0e9 .LASF3721
C:\Users\CYMR90~1\AppData\Local\Temp\ccYIfAxE.s:29003  .debug_str:00000000000246f7 .LASF3722
C:\Users\CYMR90~1\AppData\Local\Temp\ccYIfAxE.s:28229  .debug_str:0000000000021882 .LASF3723
C:\Users\CYMR90~1\AppData\Local\Temp\ccYIfAxE.s:22688  .debug_str:000000000000bbc5 .LASF3724
C:\Users\CYMR90~1\AppData\Local\Temp\ccYIfAxE.s:26393  .debug_str:000000000001a3b7 .LASF3725
C:\Users\CYMR90~1\AppData\Local\Temp\ccYIfAxE.s:19714  .debug_str:00000000000000dc .LASF3726
C:\Users\CYMR90~1\AppData\Local\Temp\ccYIfAxE.s:24252  .debug_str:0000000000011c75 .LASF3727
C:\Users\CYMR90~1\AppData\Local\Temp\ccYIfAxE.s:28273  .debug_str:0000000000021b15 .LASF3728
C:\Users\CYMR90~1\AppData\Local\Temp\ccYIfAxE.s:28547  .debug_str:0000000000022b08 .LASF3729
C:\Users\CYMR90~1\AppData\Local\Temp\ccYIfAxE.s:25368  .debug_str:0000000000016241 .LASF3730
C:\Users\CYMR90~1\AppData\Local\Temp\ccYIfAxE.s:30423  .debug_str:000000000002a3d3 .LASF3731
C:\Users\CYMR90~1\AppData\Local\Temp\ccYIfAxE.s:22918  .debug_str:000000000000ca9d .LASF3732
C:\Users\CYMR90~1\AppData\Local\Temp\ccYIfAxE.s:24440  .debug_str:000000000001288b .LASF3733
C:\Users\CYMR90~1\AppData\Local\Temp\ccYIfAxE.s:28837  .debug_str:0000000000023c7f .LASF3734
C:\Users\CYMR90~1\AppData\Local\Temp\ccYIfAxE.s:29281  .debug_str:00000000000259ac .LASF3735
C:\Users\CYMR90~1\AppData\Local\Temp\ccYIfAxE.s:24296  .debug_str:0000000000011fbf .LASF3736
C:\Users\CYMR90~1\AppData\Local\Temp\ccYIfAxE.s:24660  .debug_str:0000000000013708 .LASF3737
C:\Users\CYMR90~1\AppData\Local\Temp\ccYIfAxE.s:20190  .debug_str:0000000000001d37 .LASF3738
C:\Users\CYMR90~1\AppData\Local\Temp\ccYIfAxE.s:21556  .debug_str:000000000000722a .LASF3739
C:\Users\CYMR90~1\AppData\Local\Temp\ccYIfAxE.s:30879  .debug_str:000000000002beef .LASF3740
C:\Users\CYMR90~1\AppData\Local\Temp\ccYIfAxE.s:25400  .debug_str:000000000001647d .LASF3741
C:\Users\CYMR90~1\AppData\Local\Temp\ccYIfAxE.s:26205  .debug_str:00000000000197d0 .LASF3742
C:\Users\CYMR90~1\AppData\Local\Temp\ccYIfAxE.s:22810  .debug_str:000000000000c42b .LASF3743
C:\Users\CYMR90~1\AppData\Local\Temp\ccYIfAxE.s:24508  .debug_str:0000000000012cfa .LASF3744
C:\Users\CYMR90~1\AppData\Local\Temp\ccYIfAxE.s:19960  .debug_str:0000000000000fcd .LASF3745
C:\Users\CYMR90~1\AppData\Local\Temp\ccYIfAxE.s:26475  .debug_str:000000000001a9e9 .LASF3746
C:\Users\CYMR90~1\AppData\Local\Temp\ccYIfAxE.s:28509  .debug_str:0000000000022923 .LASF3747
C:\Users\CYMR90~1\AppData\Local\Temp\ccYIfAxE.s:26723  .debug_str:000000000001bae4 .LASF3748
C:\Users\CYMR90~1\AppData\Local\Temp\ccYIfAxE.s:21078  .debug_str:000000000000555f .LASF3749
C:\Users\CYMR90~1\AppData\Local\Temp\ccYIfAxE.s:22222  .debug_str:0000000000009d9b .LASF3750
C:\Users\CYMR90~1\AppData\Local\Temp\ccYIfAxE.s:21364  .debug_str:000000000000667b .LASF3751
C:\Users\CYMR90~1\AppData\Local\Temp\ccYIfAxE.s:27237  .debug_str:000000000001dc11 .LASF3752
C:\Users\CYMR90~1\AppData\Local\Temp\ccYIfAxE.s:29777  .debug_str:0000000000027a4d .LASF3753
C:\Users\CYMR90~1\AppData\Local\Temp\ccYIfAxE.s:28479  .debug_str:0000000000022775 .LASF3754
C:\Users\CYMR90~1\AppData\Local\Temp\ccYIfAxE.s:20924  .debug_str:0000000000004c4a .LASF3755
C:\Users\CYMR90~1\AppData\Local\Temp\ccYIfAxE.s:30433  .debug_str:000000000002a480 .LASF3756
C:\Users\CYMR90~1\AppData\Local\Temp\ccYIfAxE.s:27703  .debug_str:000000000001f8e9 .LASF3757
C:\Users\CYMR90~1\AppData\Local\Temp\ccYIfAxE.s:23512  .debug_str:000000000000f003 .LASF3758
C:\Users\CYMR90~1\AppData\Local\Temp\ccYIfAxE.s:22496  .debug_str:000000000000aea5 .LASF3759
C:\Users\CYMR90~1\AppData\Local\Temp\ccYIfAxE.s:19816  .debug_str:0000000000000631 .LASF3760
C:\Users\CYMR90~1\AppData\Local\Temp\ccYIfAxE.s:23762  .debug_str:000000000000ff38 .LASF3761
C:\Users\CYMR90~1\AppData\Local\Temp\ccYIfAxE.s:22696  .debug_str:000000000000bc3c .LASF3762
C:\Users\CYMR90~1\AppData\Local\Temp\ccYIfAxE.s:23466  .debug_str:000000000000ed86 .LASF3763
C:\Users\CYMR90~1\AppData\Local\Temp\ccYIfAxE.s:21592  .debug_str:00000000000074f9 .LASF3764
C:\Users\CYMR90~1\AppData\Local\Temp\ccYIfAxE.s:29847  .debug_str:0000000000027e2f .LASF3765
C:\Users\CYMR90~1\AppData\Local\Temp\ccYIfAxE.s:27155  .debug_str:000000000001d6e0 .LASF3766
C:\Users\CYMR90~1\AppData\Local\Temp\ccYIfAxE.s:24604  .debug_str:0000000000013332 .LASF3767
C:\Users\CYMR90~1\AppData\Local\Temp\ccYIfAxE.s:26737  .debug_str:000000000001bbdf .LASF3768
C:\Users\CYMR90~1\AppData\Local\Temp\ccYIfAxE.s:30841  .debug_str:000000000002bc9b .LASF3769
C:\Users\CYMR90~1\AppData\Local\Temp\ccYIfAxE.s:23922  .debug_str:00000000000107b0 .LASF3770
C:\Users\CYMR90~1\AppData\Local\Temp\ccYIfAxE.s:30087  .debug_str:0000000000028f61 .LASF3771
C:\Users\CYMR90~1\AppData\Local\Temp\ccYIfAxE.s:22898  .debug_str:000000000000c969 .LASF3772
C:\Users\CYMR90~1\AppData\Local\Temp\ccYIfAxE.s:20270  .debug_str:0000000000002188 .LASF3773
C:\Users\CYMR90~1\AppData\Local\Temp\ccYIfAxE.s:23896  .debug_str:000000000001064e .LASF3774
C:\Users\CYMR90~1\AppData\Local\Temp\ccYIfAxE.s:27745  .debug_str:000000000001fb1e .LASF3775
C:\Users\CYMR90~1\AppData\Local\Temp\ccYIfAxE.s:24032  .debug_str:0000000000010ea3 .LASF3776
C:\Users\CYMR90~1\AppData\Local\Temp\ccYIfAxE.s:28459  .debug_str:000000000002263a .LASF3777
C:\Users\CYMR90~1\AppData\Local\Temp\ccYIfAxE.s:24724  .debug_str:0000000000013b7b .LASF3778
C:\Users\CYMR90~1\AppData\Local\Temp\ccYIfAxE.s:21772  .debug_str:000000000000814c .LASF3779
C:\Users\CYMR90~1\AppData\Local\Temp\ccYIfAxE.s:28693  .debug_str:0000000000023439 .LASF3780
C:\Users\CYMR90~1\AppData\Local\Temp\ccYIfAxE.s:30881  .debug_str:000000000002bf13 .LASF3781
C:\Users\CYMR90~1\AppData\Local\Temp\ccYIfAxE.s:30403  .debug_str:000000000002a2bb .LASF3782
C:\Users\CYMR90~1\AppData\Local\Temp\ccYIfAxE.s:26823  .debug_str:000000000001c0d4 .LASF3783
C:\Users\CYMR90~1\AppData\Local\Temp\ccYIfAxE.s:21560  .debug_str:000000000000726c .LASF3784
C:\Users\CYMR90~1\AppData\Local\Temp\ccYIfAxE.s:21128  .debug_str:0000000000005884 .LASF3785
C:\Users\CYMR90~1\AppData\Local\Temp\ccYIfAxE.s:21652  .debug_str:00000000000078ec .LASF3786
C:\Users\CYMR90~1\AppData\Local\Temp\ccYIfAxE.s:20580  .debug_str:0000000000003543 .LASF3787
C:\Users\CYMR90~1\AppData\Local\Temp\ccYIfAxE.s:29089  .debug_str:0000000000024c80 .LASF3788
C:\Users\CYMR90~1\AppData\Local\Temp\ccYIfAxE.s:23838  .debug_str:000000000001030c .LASF3789
C:\Users\CYMR90~1\AppData\Local\Temp\ccYIfAxE.s:21966  .debug_str:0000000000008de8 .LASF3790
C:\Users\CYMR90~1\AppData\Local\Temp\ccYIfAxE.s:22074  .debug_str:000000000000946d .LASF3791
C:\Users\CYMR90~1\AppData\Local\Temp\ccYIfAxE.s:28345  .debug_str:0000000000021f4a .LASF3792
C:\Users\CYMR90~1\AppData\Local\Temp\ccYIfAxE.s:30333  .debug_str:0000000000029ed3 .LASF3793
C:\Users\CYMR90~1\AppData\Local\Temp\ccYIfAxE.s:28605  .debug_str:0000000000022eaa .LASF3794
C:\Users\CYMR90~1\AppData\Local\Temp\ccYIfAxE.s:30565  .debug_str:000000000002abd8 .LASF3795
C:\Users\CYMR90~1\AppData\Local\Temp\ccYIfAxE.s:19848  .debug_str:0000000000000830 .LASF3796
C:\Users\CYMR90~1\AppData\Local\Temp\ccYIfAxE.s:28639  .debug_str:0000000000023125 .LASF3797
C:\Users\CYMR90~1\AppData\Local\Temp\ccYIfAxE.s:25591  .debug_str:000000000001718e .LASF3798
C:\Users\CYMR90~1\AppData\Local\Temp\ccYIfAxE.s:22506  .debug_str:000000000000af33 .LASF3799
C:\Users\CYMR90~1\AppData\Local\Temp\ccYIfAxE.s:23074  .debug_str:000000000000d590 .LASF3800
C:\Users\CYMR90~1\AppData\Local\Temp\ccYIfAxE.s:29333  .debug_str:0000000000025d8f .LASF3801
C:\Users\CYMR90~1\AppData\Local\Temp\ccYIfAxE.s:25196  .debug_str:00000000000157bd .LASF3802
C:\Users\CYMR90~1\AppData\Local\Temp\ccYIfAxE.s:22944  .debug_str:000000000000cce7 .LASF3803
C:\Users\CYMR90~1\AppData\Local\Temp\ccYIfAxE.s:28711  .debug_str:0000000000023538 .LASF3804
C:\Users\CYMR90~1\AppData\Local\Temp\ccYIfAxE.s:26627  .debug_str:000000000001b43a .LASF3805
C:\Users\CYMR90~1\AppData\Local\Temp\ccYIfAxE.s:28647  .debug_str:00000000000231b4 .LASF3806
C:\Users\CYMR90~1\AppData\Local\Temp\ccYIfAxE.s:25731  .debug_str:000000000001794f .LASF3807
C:\Users\CYMR90~1\AppData\Local\Temp\ccYIfAxE.s:23388  .debug_str:000000000000e865 .LASF3808
C:\Users\CYMR90~1\AppData\Local\Temp\ccYIfAxE.s:27673  .debug_str:000000000001f6df .LASF3809
C:\Users\CYMR90~1\AppData\Local\Temp\ccYIfAxE.s:22564  .debug_str:000000000000b3c0 .LASF3810
C:\Users\CYMR90~1\AppData\Local\Temp\ccYIfAxE.s:24890  .debug_str:00000000000145b8 .LASF3811
C:\Users\CYMR90~1\AppData\Local\Temp\ccYIfAxE.s:25869  .debug_str:00000000000181ce .LASF3812
C:\Users\CYMR90~1\AppData\Local\Temp\ccYIfAxE.s:29663  .debug_str:000000000002726d .LASF3813
C:\Users\CYMR90~1\AppData\Local\Temp\ccYIfAxE.s:22348  .debug_str:000000000000a566 .LASF3814
C:\Users\CYMR90~1\AppData\Local\Temp\ccYIfAxE.s:21048  .debug_str:0000000000005383 .LASF3815
C:\Users\CYMR90~1\AppData\Local\Temp\ccYIfAxE.s:26173  .debug_str:00000000000195ac .LASF3816
C:\Users\CYMR90~1\AppData\Local\Temp\ccYIfAxE.s:22612  .debug_str:000000000000b64c .LASF3817
C:\Users\CYMR90~1\AppData\Local\Temp\ccYIfAxE.s:23358  .debug_str:000000000000e6b5 .LASF3818
C:\Users\CYMR90~1\AppData\Local\Temp\ccYIfAxE.s:30979  .debug_str:000000000002c5c5 .LASF3819
C:\Users\CYMR90~1\AppData\Local\Temp\ccYIfAxE.s:30827  .debug_str:000000000002bbaa .LASF3820
C:\Users\CYMR90~1\AppData\Local\Temp\ccYIfAxE.s:23224  .debug_str:000000000000dec2 .LASF3821
C:\Users\CYMR90~1\AppData\Local\Temp\ccYIfAxE.s:21136  .debug_str:00000000000058f3 .LASF3822
C:\Users\CYMR90~1\AppData\Local\Temp\ccYIfAxE.s:30465  .debug_str:000000000002a61b .LASF3823
C:\Users\CYMR90~1\AppData\Local\Temp\ccYIfAxE.s:28137  .debug_str:00000000000212a6 .LASF3824
C:\Users\CYMR90~1\AppData\Local\Temp\ccYIfAxE.s:28051  .debug_str:0000000000020de5 .LASF3825
C:\Users\CYMR90~1\AppData\Local\Temp\ccYIfAxE.s:25312  .debug_str:0000000000015e5e .LASF3826
C:\Users\CYMR90~1\AppData\Local\Temp\ccYIfAxE.s:21242  .debug_str:0000000000005f37 .LASF3827
C:\Users\CYMR90~1\AppData\Local\Temp\ccYIfAxE.s:24774  .debug_str:0000000000013e76 .LASF3828
C:\Users\CYMR90~1\AppData\Local\Temp\ccYIfAxE.s:28337  .debug_str:0000000000021ed0 .LASF3829
C:\Users\CYMR90~1\AppData\Local\Temp\ccYIfAxE.s:29465  .debug_str:000000000002667f .LASF3830
C:\Users\CYMR90~1\AppData\Local\Temp\ccYIfAxE.s:20960  .debug_str:0000000000004e6a .LASF3831
C:\Users\CYMR90~1\AppData\Local\Temp\ccYIfAxE.s:28925  .debug_str:000000000002415c .LASF3832
C:\Users\CYMR90~1\AppData\Local\Temp\ccYIfAxE.s:28055  .debug_str:0000000000020e35 .LASF3833
C:\Users\CYMR90~1\AppData\Local\Temp\ccYIfAxE.s:30619  .debug_str:000000000002af63 .LASF3834
C:\Users\CYMR90~1\AppData\Local\Temp\ccYIfAxE.s:23488  .debug_str:000000000000eed4 .LASF3835
C:\Users\CYMR90~1\AppData\Local\Temp\ccYIfAxE.s:21150  .debug_str:00000000000059bb .LASF3836
C:\Users\CYMR90~1\AppData\Local\Temp\ccYIfAxE.s:22850  .debug_str:000000000000c67b .LASF3837
C:\Users\CYMR90~1\AppData\Local\Temp\ccYIfAxE.s:28149  .debug_str:0000000000021348 .LASF3838
C:\Users\CYMR90~1\AppData\Local\Temp\ccYIfAxE.s:25975  .debug_str:00000000000187ed .LASF3839
C:\Users\CYMR90~1\AppData\Local\Temp\ccYIfAxE.s:27073  .debug_str:000000000001d0c0 .LASF3840
C:\Users\CYMR90~1\AppData\Local\Temp\ccYIfAxE.s:30197  .debug_str:0000000000029631 .LASF3841
C:\Users\CYMR90~1\AppData\Local\Temp\ccYIfAxE.s:25054  .debug_str:0000000000014f43 .LASF3842
C:\Users\CYMR90~1\AppData\Local\Temp\ccYIfAxE.s:31151  .debug_str:000000000002d120 .LASF3843
C:\Users\CYMR90~1\AppData\Local\Temp\ccYIfAxE.s:20626  .debug_str:0000000000003844 .LASF3844
C:\Users\CYMR90~1\AppData\Local\Temp\ccYIfAxE.s:29263  .debug_str:0000000000025891 .LASF3845
C:\Users\CYMR90~1\AppData\Local\Temp\ccYIfAxE.s:19980  .debug_str:00000000000010c7 .LASF3846
C:\Users\CYMR90~1\AppData\Local\Temp\ccYIfAxE.s:27241  .debug_str:000000000001dc58 .LASF3847
C:\Users\CYMR90~1\AppData\Local\Temp\ccYIfAxE.s:24636  .debug_str:0000000000013522 .LASF3848
C:\Users\CYMR90~1\AppData\Local\Temp\ccYIfAxE.s:31235  .debug_str:000000000002d6cc .LASF3849
C:\Users\CYMR90~1\AppData\Local\Temp\ccYIfAxE.s:20408  .debug_str:0000000000002a46 .LASF3850
C:\Users\CYMR90~1\AppData\Local\Temp\ccYIfAxE.s:29721  .debug_str:000000000002761c .LASF3851
C:\Users\CYMR90~1\AppData\Local\Temp\ccYIfAxE.s:24494  .debug_str:0000000000012c04 .LASF3852
C:\Users\CYMR90~1\AppData\Local\Temp\ccYIfAxE.s:27959  .debug_str:00000000000207c3 .LASF3853
C:\Users\CYMR90~1\AppData\Local\Temp\ccYIfAxE.s:28099  .debug_str:000000000002109d .LASF3854
C:\Users\CYMR90~1\AppData\Local\Temp\ccYIfAxE.s:19932  .debug_str:0000000000000d87 .LASF3855
C:\Users\CYMR90~1\AppData\Local\Temp\ccYIfAxE.s:27305  .debug_str:000000000001e03f .LASF3856
C:\Users\CYMR90~1\AppData\Local\Temp\ccYIfAxE.s:20034  .debug_str:00000000000013e1 .LASF3857
C:\Users\CYMR90~1\AppData\Local\Temp\ccYIfAxE.s:29987  .debug_str:0000000000028805 .LASF3858
C:\Users\CYMR90~1\AppData\Local\Temp\ccYIfAxE.s:24396  .debug_str:00000000000125c1 .LASF3859
C:\Users\CYMR90~1\AppData\Local\Temp\ccYIfAxE.s:27449  .debug_str:000000000001e928 .LASF3860
C:\Users\CYMR90~1\AppData\Local\Temp\ccYIfAxE.s:26343  .debug_str:000000000001a0b9 .LASF3861
C:\Users\CYMR90~1\AppData\Local\Temp\ccYIfAxE.s:25076  .debug_str:00000000000150d5 .LASF3862
C:\Users\CYMR90~1\AppData\Local\Temp\ccYIfAxE.s:23860  .debug_str:0000000000010495 .LASF3863
C:\Users\CYMR90~1\AppData\Local\Temp\ccYIfAxE.s:30869  .debug_str:000000000002be44 .LASF3864
C:\Users\CYMR90~1\AppData\Local\Temp\ccYIfAxE.s:29175  .debug_str:00000000000251f1 .LASF3865
C:\Users\CYMR90~1\AppData\Local\Temp\ccYIfAxE.s:20152  .debug_str:0000000000001adf .LASF3866
C:\Users\CYMR90~1\AppData\Local\Temp\ccYIfAxE.s:29975  .debug_str:00000000000286e1 .LASF3867
C:\Users\CYMR90~1\AppData\Local\Temp\ccYIfAxE.s:30215  .debug_str:000000000002971f .LASF3868
C:\Users\CYMR90~1\AppData\Local\Temp\ccYIfAxE.s:23032  .debug_str:000000000000d2a2 .LASF3869
C:\Users\CYMR90~1\AppData\Local\Temp\ccYIfAxE.s:31099  .debug_str:000000000002cdbb .LASF3870
C:\Users\CYMR90~1\AppData\Local\Temp\ccYIfAxE.s:22448  .debug_str:000000000000ab9e .LASF3871
C:\Users\CYMR90~1\AppData\Local\Temp\ccYIfAxE.s:29191  .debug_str:0000000000025306 .LASF3872
C:\Users\CYMR90~1\AppData\Local\Temp\ccYIfAxE.s:22306  .debug_str:000000000000a2c3 .LASF3873
C:\Users\CYMR90~1\AppData\Local\Temp\ccYIfAxE.s:28211  .debug_str:00000000000216ce .LASF3874
C:\Users\CYMR90~1\AppData\Local\Temp\ccYIfAxE.s:20446  .debug_str:0000000000002cb6 .LASF3875
C:\Users\CYMR90~1\AppData\Local\Temp\ccYIfAxE.s:26361  .debug_str:000000000001a1d2 .LASF3876
C:\Users\CYMR90~1\AppData\Local\Temp\ccYIfAxE.s:23134  .debug_str:000000000000d9b6 .LASF3877
C:\Users\CYMR90~1\AppData\Local\Temp\ccYIfAxE.s:21190  .debug_str:0000000000005c35 .LASF3878
C:\Users\CYMR90~1\AppData\Local\Temp\ccYIfAxE.s:29891  .debug_str:000000000002810f .LASF3879
C:\Users\CYMR90~1\AppData\Local\Temp\ccYIfAxE.s:23618  .debug_str:000000000000f62c .LASF3880
C:\Users\CYMR90~1\AppData\Local\Temp\ccYIfAxE.s:22806  .debug_str:000000000000c3de .LASF3881
C:\Users\CYMR90~1\AppData\Local\Temp\ccYIfAxE.s:22624  .debug_str:000000000000b700 .LASF3882
C:\Users\CYMR90~1\AppData\Local\Temp\ccYIfAxE.s:19878  .debug_str:00000000000009f7 .LASF3883
C:\Users\CYMR90~1\AppData\Local\Temp\ccYIfAxE.s:24292  .debug_str:0000000000011f78 .LASF3884
C:\Users\CYMR90~1\AppData\Local\Temp\ccYIfAxE.s:29857  .debug_str:0000000000027ec3 .LASF3885
C:\Users\CYMR90~1\AppData\Local\Temp\ccYIfAxE.s:21344  .debug_str:0000000000006537 .LASF3886
C:\Users\CYMR90~1\AppData\Local\Temp\ccYIfAxE.s:22734  .debug_str:000000000000beba .LASF3887
C:\Users\CYMR90~1\AppData\Local\Temp\ccYIfAxE.s:23850  .debug_str:00000000000103ec .LASF3888
C:\Users\CYMR90~1\AppData\Local\Temp\ccYIfAxE.s:28185  .debug_str:0000000000021530 .LASF3889
C:\Users\CYMR90~1\AppData\Local\Temp\ccYIfAxE.s:20970  .debug_str:0000000000004f14 .LASF3890
C:\Users\CYMR90~1\AppData\Local\Temp\ccYIfAxE.s:25294  .debug_str:0000000000015d55 .LASF3891
C:\Users\CYMR90~1\AppData\Local\Temp\ccYIfAxE.s:29681  .debug_str:000000000002737d .LASF3892
C:\Users\CYMR90~1\AppData\Local\Temp\ccYIfAxE.s:25176  .debug_str:00000000000156ae .LASF3893
C:\Users\CYMR90~1\AppData\Local\Temp\ccYIfAxE.s:24866  .debug_str:00000000000143d3 .LASF3894
C:\Users\CYMR90~1\AppData\Local\Temp\ccYIfAxE.s:27335  .debug_str:000000000001e296 .LASF3895
C:\Users\CYMR90~1\AppData\Local\Temp\ccYIfAxE.s:23008  .debug_str:000000000000d0f3 .LASF3896
C:\Users\CYMR90~1\AppData\Local\Temp\ccYIfAxE.s:28389  .debug_str:00000000000221fb .LASF3897
C:\Users\CYMR90~1\AppData\Local\Temp\ccYIfAxE.s:21186  .debug_str:0000000000005bdd .LASF3898
C:\Users\CYMR90~1\AppData\Local\Temp\ccYIfAxE.s:30825  .debug_str:000000000002bb78 .LASF3899
C:\Users\CYMR90~1\AppData\Local\Temp\ccYIfAxE.s:23612  .debug_str:000000000000f5a9 .LASF3900
C:\Users\CYMR90~1\AppData\Local\Temp\ccYIfAxE.s:27867  .debug_str:0000000000020272 .LASF3901
C:\Users\CYMR90~1\AppData\Local\Temp\ccYIfAxE.s:20672  .debug_str:0000000000003b43 .LASF3902
C:\Users\CYMR90~1\AppData\Local\Temp\ccYIfAxE.s:23690  .debug_str:000000000000fae8 .LASF3903
C:\Users\CYMR90~1\AppData\Local\Temp\ccYIfAxE.s:28961  .debug_str:0000000000024391 .LASF3904
C:\Users\CYMR90~1\AppData\Local\Temp\ccYIfAxE.s:22190  .debug_str:0000000000009b9d .LASF3905
C:\Users\CYMR90~1\AppData\Local\Temp\ccYIfAxE.s:26585  .debug_str:000000000001b14d .LASF3906
C:\Users\CYMR90~1\AppData\Local\Temp\ccYIfAxE.s:20770  .debug_str:0000000000004154 .LASF3907
C:\Users\CYMR90~1\AppData\Local\Temp\ccYIfAxE.s:29001  .debug_str:00000000000246c5 .LASF3908
C:\Users\CYMR90~1\AppData\Local\Temp\ccYIfAxE.s:21826  .debug_str:0000000000008550 .LASF3909
C:\Users\CYMR90~1\AppData\Local\Temp\ccYIfAxE.s:23456  .debug_str:000000000000ecb2 .LASF3910
C:\Users\CYMR90~1\AppData\Local\Temp\ccYIfAxE.s:30499  .debug_str:000000000002a7fb .LASF3911
C:\Users\CYMR90~1\AppData\Local\Temp\ccYIfAxE.s:21650  .debug_str:00000000000078ba .LASF3912
C:\Users\CYMR90~1\AppData\Local\Temp\ccYIfAxE.s:27737  .debug_str:000000000001fa94 .LASF3913
C:\Users\CYMR90~1\AppData\Local\Temp\ccYIfAxE.s:20366  .debug_str:000000000000277b .LASF3914
C:\Users\CYMR90~1\AppData\Local\Temp\ccYIfAxE.s:25903  .debug_str:00000000000183ca .LASF3915
C:\Users\CYMR90~1\AppData\Local\Temp\ccYIfAxE.s:31215  .debug_str:000000000002d58e .LASF3916
C:\Users\CYMR90~1\AppData\Local\Temp\ccYIfAxE.s:21834  .debug_str:00000000000085cd .LASF3917
C:\Users\CYMR90~1\AppData\Local\Temp\ccYIfAxE.s:20008  .debug_str:0000000000001262 .LASF3918
C:\Users\CYMR90~1\AppData\Local\Temp\ccYIfAxE.s:24438  .debug_str:0000000000012859 .LASF3919
C:\Users\CYMR90~1\AppData\Local\Temp\ccYIfAxE.s:28697  .debug_str:0000000000023478 .LASF3920
C:\Users\CYMR90~1\AppData\Local\Temp\ccYIfAxE.s:21248  .debug_str:0000000000005f81 .LASF3921
C:\Users\CYMR90~1\AppData\Local\Temp\ccYIfAxE.s:24484  .debug_str:0000000000012b47 .LASF3922
C:\Users\CYMR90~1\AppData\Local\Temp\ccYIfAxE.s:27869  .debug_str:00000000000202a4 .LASF3923
C:\Users\CYMR90~1\AppData\Local\Temp\ccYIfAxE.s:30287  .debug_str:0000000000029bc7 .LASF3924
C:\Users\CYMR90~1\AppData\Local\Temp\ccYIfAxE.s:29457  .debug_str:0000000000026609 .LASF3925
C:\Users\CYMR90~1\AppData\Local\Temp\ccYIfAxE.s:20658  .debug_str:0000000000003a4e .LASF3926
C:\Users\CYMR90~1\AppData\Local\Temp\ccYIfAxE.s:29395  .debug_str:00000000000261ff .LASF3927
C:\Users\CYMR90~1\AppData\Local\Temp\ccYIfAxE.s:23404  .debug_str:000000000000e95b .LASF3928
C:\Users\CYMR90~1\AppData\Local\Temp\ccYIfAxE.s:29009  .debug_str:000000000002476e .LASF3929
C:\Users\CYMR90~1\AppData\Local\Temp\ccYIfAxE.s:25310  .debug_str:0000000000015e3c .LASF3930
C:\Users\CYMR90~1\AppData\Local\Temp\ccYIfAxE.s:25745  .debug_str:0000000000017a33 .LASF3931
C:\Users\CYMR90~1\AppData\Local\Temp\ccYIfAxE.s:22686  .debug_str:000000000000bba3 .LASF3932
C:\Users\CYMR90~1\AppData\Local\Temp\ccYIfAxE.s:25084  .debug_str:000000000001515e .LASF3933
C:\Users\CYMR90~1\AppData\Local\Temp\ccYIfAxE.s:28079  .debug_str:0000000000020f8d .LASF3934
C:\Users\CYMR90~1\AppData\Local\Temp\ccYIfAxE.s:25110  .debug_str:00000000000152e5 .LASF3935
C:\Users\CYMR90~1\AppData\Local\Temp\ccYIfAxE.s:29489  .debug_str:00000000000267fd .LASF3936
C:\Users\CYMR90~1\AppData\Local\Temp\ccYIfAxE.s:26199  .debug_str:000000000001975e .LASF3937
C:\Users\CYMR90~1\AppData\Local\Temp\ccYIfAxE.s:24138  .debug_str:00000000000114dd .LASF3938
C:\Users\CYMR90~1\AppData\Local\Temp\ccYIfAxE.s:21748  .debug_str:0000000000007f1f .LASF3939
C:\Users\CYMR90~1\AppData\Local\Temp\ccYIfAxE.s:20046  .debug_str:00000000000014ba .LASF3940
C:\Users\CYMR90~1\AppData\Local\Temp\ccYIfAxE.s:19716  .debug_str:00000000000000ff .LASF3941
C:\Users\CYMR90~1\AppData\Local\Temp\ccYIfAxE.s:24718  .debug_str:0000000000013b3a .LASF3942
C:\Users\CYMR90~1\AppData\Local\Temp\ccYIfAxE.s:21104  .debug_str:00000000000056fb .LASF3943
C:\Users\CYMR90~1\AppData\Local\Temp\ccYIfAxE.s:26009  .debug_str:0000000000018a23 .LASF3944
C:\Users\CYMR90~1\AppData\Local\Temp\ccYIfAxE.s:23302  .debug_str:000000000000e37d .LASF3945
C:\Users\CYMR90~1\AppData\Local\Temp\ccYIfAxE.s:22314  .debug_str:000000000000a35d .LASF3946
C:\Users\CYMR90~1\AppData\Local\Temp\ccYIfAxE.s:23802  .debug_str:00000000000100d2 .LASF3947
C:\Users\CYMR90~1\AppData\Local\Temp\ccYIfAxE.s:25709  .debug_str:000000000001780c .LASF3948
C:\Users\CYMR90~1\AppData\Local\Temp\ccYIfAxE.s:25154  .debug_str:000000000001554a .LASF3949
C:\Users\CYMR90~1\AppData\Local\Temp\ccYIfAxE.s:24522  .debug_str:0000000000012e05 .LASF3950
C:\Users\CYMR90~1\AppData\Local\Temp\ccYIfAxE.s:26907  .debug_str:000000000001c5ea .LASF3951
C:\Users\CYMR90~1\AppData\Local\Temp\ccYIfAxE.s:23408  .debug_str:000000000000e9da .LASF3952
C:\Users\CYMR90~1\AppData\Local\Temp\ccYIfAxE.s:19916  .debug_str:0000000000000c98 .LASF3953
C:\Users\CYMR90~1\AppData\Local\Temp\ccYIfAxE.s:30219  .debug_str:000000000002976b .LASF3954
C:\Users\CYMR90~1\AppData\Local\Temp\ccYIfAxE.s:24584  .debug_str:00000000000131ea .LASF3955
C:\Users\CYMR90~1\AppData\Local\Temp\ccYIfAxE.s:27253  .debug_str:000000000001dd1d .LASF3956
C:\Users\CYMR90~1\AppData\Local\Temp\ccYIfAxE.s:20306  .debug_str:0000000000002398 .LASF3957
C:\Users\CYMR90~1\AppData\Local\Temp\ccYIfAxE.s:20218  .debug_str:0000000000001ecd .LASF3958
C:\Users\CYMR90~1\AppData\Local\Temp\ccYIfAxE.s:29257  .debug_str:000000000002580b .LASF3959
C:\Users\CYMR90~1\AppData\Local\Temp\ccYIfAxE.s:21644  .debug_str:0000000000007869 .LASF3960
C:\Users\CYMR90~1\AppData\Local\Temp\ccYIfAxE.s:25585  .debug_str:0000000000017149 .LASF3961
C:\Users\CYMR90~1\AppData\Local\Temp\ccYIfAxE.s:24872  .debug_str:0000000000014462 .LASF3962
C:\Users\CYMR90~1\AppData\Local\Temp\ccYIfAxE.s:30209  .debug_str:00000000000296de .LASF3963
C:\Users\CYMR90~1\AppData\Local\Temp\ccYIfAxE.s:26733  .debug_str:000000000001bb7e .LASF3964
C:\Users\CYMR90~1\AppData\Local\Temp\ccYIfAxE.s:20448  .debug_str:0000000000002ce8 .LASF3965
C:\Users\CYMR90~1\AppData\Local\Temp\ccYIfAxE.s:30603  .debug_str:000000000002ae6c .LASF3966
C:\Users\CYMR90~1\AppData\Local\Temp\ccYIfAxE.s:30913  .debug_str:000000000002c148 .LASF3967
C:\Users\CYMR90~1\AppData\Local\Temp\ccYIfAxE.s:22476  .debug_str:000000000000ad5c .LASF3968
C:\Users\CYMR90~1\AppData\Local\Temp\ccYIfAxE.s:20968  .debug_str:0000000000004ef0 .LASF3969
C:\Users\CYMR90~1\AppData\Local\Temp\ccYIfAxE.s:31135  .debug_str:000000000002cfed .LASF3970
C:\Users\CYMR90~1\AppData\Local\Temp\ccYIfAxE.s:24276  .debug_str:0000000000011e74 .LASF3971
C:\Users\CYMR90~1\AppData\Local\Temp\ccYIfAxE.s:20744  .debug_str:0000000000003fe1 .LASF3972
C:\Users\CYMR90~1\AppData\Local\Temp\ccYIfAxE.s:28881  .debug_str:0000000000023f1e .LASF3973
C:\Users\CYMR90~1\AppData\Local\Temp\ccYIfAxE.s:25252  .debug_str:0000000000015ade .LASF3974
C:\Users\CYMR90~1\AppData\Local\Temp\ccYIfAxE.s:23816  .debug_str:00000000000101ce .LASF3975
C:\Users\CYMR90~1\AppData\Local\Temp\ccYIfAxE.s:30067  .debug_str:0000000000028dd3 .LASF3976
C:\Users\CYMR90~1\AppData\Local\Temp\ccYIfAxE.s:28015  .debug_str:0000000000020bda .LASF3977
C:\Users\CYMR90~1\AppData\Local\Temp\ccYIfAxE.s:29775  .debug_str:0000000000027a29 .LASF3978
C:\Users\CYMR90~1\AppData\Local\Temp\ccYIfAxE.s:29905  .debug_str:000000000002823a .LASF3979
C:\Users\CYMR90~1\AppData\Local\Temp\ccYIfAxE.s:26453  .debug_str:000000000001a86c .LASF3980
C:\Users\CYMR90~1\AppData\Local\Temp\ccYIfAxE.s:22978  .debug_str:000000000000cf6c .LASF3981
C:\Users\CYMR90~1\AppData\Local\Temp\ccYIfAxE.s:31077  .debug_str:000000000002cc94 .LASF3982
C:\Users\CYMR90~1\AppData\Local\Temp\ccYIfAxE.s:20866  .debug_str:00000000000047ea .LASF3983
C:\Users\CYMR90~1\AppData\Local\Temp\ccYIfAxE.s:24142  .debug_str:0000000000011518 .LASF3984
C:\Users\CYMR90~1\AppData\Local\Temp\ccYIfAxE.s:27091  .debug_str:000000000001d27a .LASF3985
C:\Users\CYMR90~1\AppData\Local\Temp\ccYIfAxE.s:28741  .debug_str:00000000000236a4 .LASF3986
C:\Users\CYMR90~1\AppData\Local\Temp\ccYIfAxE.s:30143  .debug_str:00000000000292e6 .LASF3987
C:\Users\CYMR90~1\AppData\Local\Temp\ccYIfAxE.s:20452  .debug_str:0000000000002d41 .LASF3988
C:\Users\CYMR90~1\AppData\Local\Temp\ccYIfAxE.s:25703  .debug_str:00000000000177a9 .LASF3989
C:\Users\CYMR90~1\AppData\Local\Temp\ccYIfAxE.s:25118  .debug_str:0000000000015365 .LASF3990
C:\Users\CYMR90~1\AppData\Local\Temp\ccYIfAxE.s:21642  .debug_str:0000000000007845 .LASF3991
C:\Users\CYMR90~1\AppData\Local\Temp\ccYIfAxE.s:21768  .debug_str:00000000000080e9 .LASF3992
C:\Users\CYMR90~1\AppData\Local\Temp\ccYIfAxE.s:21764  .debug_str:00000000000080a8 .LASF3993
C:\Users\CYMR90~1\AppData\Local\Temp\ccYIfAxE.s:22826  .debug_str:000000000000c502 .LASF3994
C:\Users\CYMR90~1\AppData\Local\Temp\ccYIfAxE.s:30939  .debug_str:000000000002c309 .LASF3995
C:\Users\CYMR90~1\AppData\Local\Temp\ccYIfAxE.s:20356  .debug_str:00000000000026d3 .LASF3996
C:\Users\CYMR90~1\AppData\Local\Temp\ccYIfAxE.s:28905  .debug_str:0000000000024051 .LASF3997
C:\Users\CYMR90~1\AppData\Local\Temp\ccYIfAxE.s:30875  .debug_str:000000000002beac .LASF3998
C:\Users\CYMR90~1\AppData\Local\Temp\ccYIfAxE.s:27255  .debug_str:000000000001dd41 .LASF3999
C:\Users\CYMR90~1\AppData\Local\Temp\ccYIfAxE.s:23842  .debug_str:0000000000010351 .LASF4000
C:\Users\CYMR90~1\AppData\Local\Temp\ccYIfAxE.s:20156  .debug_str:0000000000001b33 .LASF4001
C:\Users\CYMR90~1\AppData\Local\Temp\ccYIfAxE.s:28441  .debug_str:0000000000022523 .LASF4002
C:\Users\CYMR90~1\AppData\Local\Temp\ccYIfAxE.s:24976  .debug_str:0000000000014ad5 .LASF4003
C:\Users\CYMR90~1\AppData\Local\Temp\ccYIfAxE.s:23622  .debug_str:000000000000f672 .LASF4004
C:\Users\CYMR90~1\AppData\Local\Temp\ccYIfAxE.s:26283  .debug_str:0000000000019d33 .LASF4005
C:\Users\CYMR90~1\AppData\Local\Temp\ccYIfAxE.s:26163  .debug_str:000000000001951c .LASF4006
C:\Users\CYMR90~1\AppData\Local\Temp\ccYIfAxE.s:27565  .debug_str:000000000001f029 .LASF4007
C:\Users\CYMR90~1\AppData\Local\Temp\ccYIfAxE.s:29539  .debug_str:0000000000026ae2 .LASF4008
C:\Users\CYMR90~1\AppData\Local\Temp\ccYIfAxE.s:27631  .debug_str:000000000001f45a .LASF4009
C:\Users\CYMR90~1\AppData\Local\Temp\ccYIfAxE.s:22124  .debug_str:000000000000973e .LASF4010
C:\Users\CYMR90~1\AppData\Local\Temp\ccYIfAxE.s:22186  .debug_str:0000000000009b57 .LASF4011
C:\Users\CYMR90~1\AppData\Local\Temp\ccYIfAxE.s:27127  .debug_str:000000000001d55b .LASF4012
C:\Users\CYMR90~1\AppData\Local\Temp\ccYIfAxE.s:28379  .debug_str:000000000002215b .LASF4013
C:\Users\CYMR90~1\AppData\Local\Temp\ccYIfAxE.s:20164  .debug_str:0000000000001bc3 .LASF4014
C:\Users\CYMR90~1\AppData\Local\Temp\ccYIfAxE.s:28287  .debug_str:0000000000021be6 .LASF4015
C:\Users\CYMR90~1\AppData\Local\Temp\ccYIfAxE.s:24828  .debug_str:0000000000014196 .LASF4016
C:\Users\CYMR90~1\AppData\Local\Temp\ccYIfAxE.s:30615  .debug_str:000000000002af2b .LASF4017
C:\Users\CYMR90~1\AppData\Local\Temp\ccYIfAxE.s:28221  .debug_str:0000000000021767 .LASF4018
C:\Users\CYMR90~1\AppData\Local\Temp\ccYIfAxE.s:24770  .debug_str:0000000000013e3b .LASF4019
C:\Users\CYMR90~1\AppData\Local\Temp\ccYIfAxE.s:29555  .debug_str:0000000000026bdc .LASF4020
C:\Users\CYMR90~1\AppData\Local\Temp\ccYIfAxE.s:29383  .debug_str:0000000000026146 .LASF4021
C:\Users\CYMR90~1\AppData\Local\Temp\ccYIfAxE.s:25927  .debug_str:000000000001852d .LASF4022
C:\Users\CYMR90~1\AppData\Local\Temp\ccYIfAxE.s:31189  .debug_str:000000000002d381 .LASF4023
C:\Users\CYMR90~1\AppData\Local\Temp\ccYIfAxE.s:30571  .debug_str:000000000002ac55 .LASF4024
C:\Users\CYMR90~1\AppData\Local\Temp\ccYIfAxE.s:28447  .debug_str:0000000000022590 .LASF4025
C:\Users\CYMR90~1\AppData\Local\Temp\ccYIfAxE.s:27275  .debug_str:000000000001de7e .LASF4026
C:\Users\CYMR90~1\AppData\Local\Temp\ccYIfAxE.s:21548  .debug_str:00000000000071bc .LASF4027
C:\Users\CYMR90~1\AppData\Local\Temp\ccYIfAxE.s:21700  .debug_str:0000000000007be2 .LASF4028
C:\Users\CYMR90~1\AppData\Local\Temp\ccYIfAxE.s:25813  .debug_str:0000000000017e71 .LASF4029
C:\Users\CYMR90~1\AppData\Local\Temp\ccYIfAxE.s:29841  .debug_str:0000000000027dcc .LASF4030
C:\Users\CYMR90~1\AppData\Local\Temp\ccYIfAxE.s:22290  .debug_str:000000000000a1b9 .LASF4031
C:\Users\CYMR90~1\AppData\Local\Temp\ccYIfAxE.s:31011  .debug_str:000000000002c7fa .LASF4032
C:\Users\CYMR90~1\AppData\Local\Temp\ccYIfAxE.s:21808  .debug_str:0000000000008435 .LASF4033
C:\Users\CYMR90~1\AppData\Local\Temp\ccYIfAxE.s:24204  .debug_str:000000000001190a .LASF4034
C:\Users\CYMR90~1\AppData\Local\Temp\ccYIfAxE.s:26785  .debug_str:000000000001be4f .LASF4035
C:\Users\CYMR90~1\AppData\Local\Temp\ccYIfAxE.s:30931  .debug_str:000000000002c29e .LASF4036
C:\Users\CYMR90~1\AppData\Local\Temp\ccYIfAxE.s:24916  .debug_str:000000000001471d .LASF4037
C:\Users\CYMR90~1\AppData\Local\Temp\ccYIfAxE.s:27393  .debug_str:000000000001e613 .LASF4038
C:\Users\CYMR90~1\AppData\Local\Temp\ccYIfAxE.s:29769  .debug_str:00000000000279b9 .LASF4039
C:\Users\CYMR90~1\AppData\Local\Temp\ccYIfAxE.s:20602  .debug_str:000000000000369b .LASF4040
C:\Users\CYMR90~1\AppData\Local\Temp\ccYIfAxE.s:28113  .debug_str:0000000000021155 .LASF4041
C:\Users\CYMR90~1\AppData\Local\Temp\ccYIfAxE.s:20510  .debug_str:0000000000003096 .LASF4042
C:\Users\CYMR90~1\AppData\Local\Temp\ccYIfAxE.s:27743  .debug_str:000000000001faf8 .LASF4043
C:\Users\CYMR90~1\AppData\Local\Temp\ccYIfAxE.s:30175  .debug_str:000000000002949b .LASF4044
C:\Users\CYMR90~1\AppData\Local\Temp\ccYIfAxE.s:24540  .debug_str:0000000000012ee7 .LASF4045
C:\Users\CYMR90~1\AppData\Local\Temp\ccYIfAxE.s:23300  .debug_str:000000000000e357 .LASF4046
C:\Users\CYMR90~1\AppData\Local\Temp\ccYIfAxE.s:20254  .debug_str:00000000000020ab .LASF4047
C:\Users\CYMR90~1\AppData\Local\Temp\ccYIfAxE.s:21832  .debug_str:00000000000085a7 .LASF4048
C:\Users\CYMR90~1\AppData\Local\Temp\ccYIfAxE.s:23010  .debug_str:000000000000d125 .LASF4049
C:\Users\CYMR90~1\AppData\Local\Temp\ccYIfAxE.s:26191  .debug_str:00000000000196c6 .LASF4050
C:\Users\CYMR90~1\AppData\Local\Temp\ccYIfAxE.s:24196  .debug_str:0000000000011877 .LASF4051
C:\Users\CYMR90~1\AppData\Local\Temp\ccYIfAxE.s:19798  .debug_str:000000000000054f .LASF4052
C:\Users\CYMR90~1\AppData\Local\Temp\ccYIfAxE.s:26667  .debug_str:000000000001b6d7 .LASF4053
C:\Users\CYMR90~1\AppData\Local\Temp\ccYIfAxE.s:26515  .debug_str:000000000001acae .LASF4054
C:\Users\CYMR90~1\AppData\Local\Temp\ccYIfAxE.s:23232  .debug_str:000000000000df25 .LASF4055
C:\Users\CYMR90~1\AppData\Local\Temp\ccYIfAxE.s:22218  .debug_str:0000000000009d64 .LASF4056
C:\Users\CYMR90~1\AppData\Local\Temp\ccYIfAxE.s:26229  .debug_str:000000000001990b .LASF4057
C:\Users\CYMR90~1\AppData\Local\Temp\ccYIfAxE.s:22094  .debug_str:000000000000959b .LASF4058
C:\Users\CYMR90~1\AppData\Local\Temp\ccYIfAxE.s:26127  .debug_str:0000000000019220 .LASF4059
C:\Users\CYMR90~1\AppData\Local\Temp\ccYIfAxE.s:30135  .debug_str:000000000002926e .LASF4060
C:\Users\CYMR90~1\AppData\Local\Temp\ccYIfAxE.s:25048  .debug_str:0000000000014ee3 .LASF4061
C:\Users\CYMR90~1\AppData\Local\Temp\ccYIfAxE.s:26619  .debug_str:000000000001b3aa .LASF4062
C:\Users\CYMR90~1\AppData\Local\Temp\ccYIfAxE.s:30719  .debug_str:000000000002b523 .LASF4063
C:\Users\CYMR90~1\AppData\Local\Temp\ccYIfAxE.s:23168  .debug_str:000000000000dbb4 .LASF4064
C:\Users\CYMR90~1\AppData\Local\Temp\ccYIfAxE.s:22276  .debug_str:000000000000a0c2 .LASF4065
C:\Users\CYMR90~1\AppData\Local\Temp\ccYIfAxE.s:24674  .debug_str:00000000000137e9 .LASF4066
C:\Users\CYMR90~1\AppData\Local\Temp\ccYIfAxE.s:28173  .debug_str:0000000000021498 .LASF4067
C:\Users\CYMR90~1\AppData\Local\Temp\ccYIfAxE.s:29979  .debug_str:000000000002876a .LASF4068
C:\Users\CYMR90~1\AppData\Local\Temp\ccYIfAxE.s:27219  .debug_str:000000000001dafd .LASF4069
C:\Users\CYMR90~1\AppData\Local\Temp\ccYIfAxE.s:22512  .debug_str:000000000000af8b .LASF4070
C:\Users\CYMR90~1\AppData\Local\Temp\ccYIfAxE.s:26559  .debug_str:000000000001afbd .LASF4071
C:\Users\CYMR90~1\AppData\Local\Temp\ccYIfAxE.s:30647  .debug_str:000000000002b10f .LASF4072
C:\Users\CYMR90~1\AppData\Local\Temp\ccYIfAxE.s:25867  .debug_str:00000000000181a8 .LASF4073
C:\Users\CYMR90~1\AppData\Local\Temp\ccYIfAxE.s:27087  .debug_str:000000000001d23a .LASF4074
C:\Users\CYMR90~1\AppData\Local\Temp\ccYIfAxE.s:31137  .debug_str:000000000002d011 .LASF4075
C:\Users\CYMR90~1\AppData\Local\Temp\ccYIfAxE.s:26153  .debug_str:0000000000019495 .LASF4076
C:\Users\CYMR90~1\AppData\Local\Temp\ccYIfAxE.s:20546  .debug_str:000000000000330d .LASF4077
C:\Users\CYMR90~1\AppData\Local\Temp\ccYIfAxE.s:30003  .debug_str:000000000002890a .LASF4078
C:\Users\CYMR90~1\AppData\Local\Temp\ccYIfAxE.s:30591  .debug_str:000000000002adbf .LASF4079
C:\Users\CYMR90~1\AppData\Local\Temp\ccYIfAxE.s:21370  .debug_str:00000000000066cb .LASF4080
C:\Users\CYMR90~1\AppData\Local\Temp\ccYIfAxE.s:30581  .debug_str:000000000002acfe .LASF4081
C:\Users\CYMR90~1\AppData\Local\Temp\ccYIfAxE.s:23034  .debug_str:000000000000d2d4 .LASF4082
C:\Users\CYMR90~1\AppData\Local\Temp\ccYIfAxE.s:27027  .debug_str:000000000001cddc .LASF4083
C:\Users\CYMR90~1\AppData\Local\Temp\ccYIfAxE.s:31073  .debug_str:000000000002cc47 .LASF4084
C:\Users\CYMR90~1\AppData\Local\Temp\ccYIfAxE.s:21810  .debug_str:000000000000845b .LASF4085
C:\Users\CYMR90~1\AppData\Local\Temp\ccYIfAxE.s:25038  .debug_str:0000000000014e62 .LASF4086
C:\Users\CYMR90~1\AppData\Local\Temp\ccYIfAxE.s:24554  .debug_str:0000000000012fee .LASF4087
C:\Users\CYMR90~1\AppData\Local\Temp\ccYIfAxE.s:22846  .debug_str:000000000000c634 .LASF4088
C:\Users\CYMR90~1\AppData\Local\Temp\ccYIfAxE.s:26411  .debug_str:000000000001a4a2 .LASF4089
C:\Users\CYMR90~1\AppData\Local\Temp\ccYIfAxE.s:23852  .debug_str:000000000001041e .LASF4090
C:\Users\CYMR90~1\AppData\Local\Temp\ccYIfAxE.s:26797  .debug_str:000000000001bf37 .LASF4091
C:\Users\CYMR90~1\AppData\Local\Temp\ccYIfAxE.s:26955  .debug_str:000000000001c87a .LASF4092
C:\Users\CYMR90~1\AppData\Local\Temp\ccYIfAxE.s:28289  .debug_str:0000000000021c0a .LASF4093
C:\Users\CYMR90~1\AppData\Local\Temp\ccYIfAxE.s:23438  .debug_str:000000000000ebac .LASF4094
C:\Users\CYMR90~1\AppData\Local\Temp\ccYIfAxE.s:27419  .debug_str:000000000001e770 .LASF4095
C:\Users\CYMR90~1\AppData\Local\Temp\ccYIfAxE.s:19890  .debug_str:0000000000000b08 .LASF4096
C:\Users\CYMR90~1\AppData\Local\Temp\ccYIfAxE.s:26961  .debug_str:000000000001c8d8 .LASF4097
C:\Users\CYMR90~1\AppData\Local\Temp\ccYIfAxE.s:28571  .debug_str:0000000000022cb7 .LASF4098
C:\Users\CYMR90~1\AppData\Local\Temp\ccYIfAxE.s:23192  .debug_str:000000000000dd01 .LASF4099
C:\Users\CYMR90~1\AppData\Local\Temp\ccYIfAxE.s:22894  .debug_str:000000000000c927 .LASF4100
C:\Users\CYMR90~1\AppData\Local\Temp\ccYIfAxE.s:21374  .debug_str:000000000000670a .LASF4101
C:\Users\CYMR90~1\AppData\Local\Temp\ccYIfAxE.s:30943  .debug_str:000000000002c345 .LASF4102
C:\Users\CYMR90~1\AppData\Local\Temp\ccYIfAxE.s:27447  .debug_str:000000000001e902 .LASF4103
C:\Users\CYMR90~1\AppData\Local\Temp\ccYIfAxE.s:27351  .debug_str:000000000001e3b2 .LASF4104
C:\Users\CYMR90~1\AppData\Local\Temp\ccYIfAxE.s:19830  .debug_str:000000000000072a .LASF4105
C:\Users\CYMR90~1\AppData\Local\Temp\ccYIfAxE.s:31123  .debug_str:000000000002cf20 .LASF4106
C:\Users\CYMR90~1\AppData\Local\Temp\ccYIfAxE.s:20828  .debug_str:0000000000004552 .LASF4107
C:\Users\CYMR90~1\AppData\Local\Temp\ccYIfAxE.s:30377  .debug_str:000000000002a142 .LASF4108
C:\Users\CYMR90~1\AppData\Local\Temp\ccYIfAxE.s:29733  .debug_str:00000000000276d0 .LASF4109
C:\Users\CYMR90~1\AppData\Local\Temp\ccYIfAxE.s:28655  .debug_str:0000000000023212 .LASF4110
C:\Users\CYMR90~1\AppData\Local\Temp\ccYIfAxE.s:30889  .debug_str:000000000002bf95 .LASF4111
C:\Users\CYMR90~1\AppData\Local\Temp\ccYIfAxE.s:23322  .debug_str:000000000000e48c .LASF4112
C:\Users\CYMR90~1\AppData\Local\Temp\ccYIfAxE.s:21130  .debug_str:00000000000058a6 .LASF4113
C:\Users\CYMR90~1\AppData\Local\Temp\ccYIfAxE.s:19758  .debug_str:0000000000000309 .LASF4114
C:\Users\CYMR90~1\AppData\Local\Temp\ccYIfAxE.s:24418  .debug_str:0000000000012727 .LASF4115
C:\Users\CYMR90~1\AppData\Local\Temp\ccYIfAxE.s:25146  .debug_str:00000000000154eb .LASF4116
C:\Users\CYMR90~1\AppData\Local\Temp\ccYIfAxE.s:24904  .debug_str:000000000001466a .LASF4117
C:\Users\CYMR90~1\AppData\Local\Temp\ccYIfAxE.s:22766  .debug_str:000000000000c162 .LASF4118
C:\Users\CYMR90~1\AppData\Local\Temp\ccYIfAxE.s:20048  .debug_str:00000000000014de .LASF4119
C:\Users\CYMR90~1\AppData\Local\Temp\ccYIfAxE.s:30813  .debug_str:000000000002bac3 .LASF4120
C:\Users\CYMR90~1\AppData\Local\Temp\ccYIfAxE.s:20504  .debug_str:0000000000003048 .LASF4121
C:\Users\CYMR90~1\AppData\Local\Temp\ccYIfAxE.s:28997  .debug_str:0000000000024684 .LASF4122
C:\Users\CYMR90~1\AppData\Local\Temp\ccYIfAxE.s:31281  .debug_str:000000000002d96e .LASF4123
C:\Users\CYMR90~1\AppData\Local\Temp\ccYIfAxE.s:20042  .debug_str:0000000000001482 .LASF4124
C:\Users\CYMR90~1\AppData\Local\Temp\ccYIfAxE.s:25378  .debug_str:0000000000016300 .LASF4125
C:\Users\CYMR90~1\AppData\Local\Temp\ccYIfAxE.s:26719  .debug_str:000000000001baa6 .LASF4126
C:\Users\CYMR90~1\AppData\Local\Temp\ccYIfAxE.s:29443  .debug_str:0000000000026501 .LASF4127
C:\Users\CYMR90~1\AppData\Local\Temp\ccYIfAxE.s:25086  .debug_str:0000000000015180 .LASF4128
C:\Users\CYMR90~1\AppData\Local\Temp\ccYIfAxE.s:28373  .debug_str:0000000000022113 .LASF4129
C:\Users\CYMR90~1\AppData\Local\Temp\ccYIfAxE.s:20498  .debug_str:0000000000002ff9 .LASF4130
C:\Users\CYMR90~1\AppData\Local\Temp\ccYIfAxE.s:21874  .debug_str:000000000000885b .LASF4131
C:\Users\CYMR90~1\AppData\Local\Temp\ccYIfAxE.s:25897  .debug_str:000000000001836d .LASF4132
C:\Users\CYMR90~1\AppData\Local\Temp\ccYIfAxE.s:29923  .debug_str:000000000002836b .LASF4133
C:\Users\CYMR90~1\AppData\Local\Temp\ccYIfAxE.s:29915  .debug_str:00000000000282e1 .LASF4134
C:\Users\CYMR90~1\AppData\Local\Temp\ccYIfAxE.s:31139  .debug_str:000000000002d037 .LASF4135
C:\Users\CYMR90~1\AppData\Local\Temp\ccYIfAxE.s:30503  .debug_str:000000000002a844 .LASF4136
C:\Users\CYMR90~1\AppData\Local\Temp\ccYIfAxE.s:26111  .debug_str:0000000000019122 .LASF4137
C:\Users\CYMR90~1\AppData\Local\Temp\ccYIfAxE.s:20372  .debug_str:0000000000002800 .LASF4138
C:\Users\CYMR90~1\AppData\Local\Temp\ccYIfAxE.s:29349  .debug_str:0000000000025f37 .LASF4139
C:\Users\CYMR90~1\AppData\Local\Temp\ccYIfAxE.s:21814  .debug_str:0000000000008489 .LASF4140
C:\Users\CYMR90~1\AppData\Local\Temp\ccYIfAxE.s:25827  .debug_str:0000000000017f41 .LASF4141
C:\Users\CYMR90~1\AppData\Local\Temp\ccYIfAxE.s:30711  .debug_str:000000000002b488 .LASF4142
C:\Users\CYMR90~1\AppData\Local\Temp\ccYIfAxE.s:20720  .debug_str:0000000000003e2d .LASF4143
C:\Users\CYMR90~1\AppData\Local\Temp\ccYIfAxE.s:26331  .debug_str:000000000001a03a .LASF4144
C:\Users\CYMR90~1\AppData\Local\Temp\ccYIfAxE.s:30443  .debug_str:000000000002a4e4 .LASF4145
C:\Users\CYMR90~1\AppData\Local\Temp\ccYIfAxE.s:28811  .debug_str:0000000000023ac3 .LASF4146
C:\Users\CYMR90~1\AppData\Local\Temp\ccYIfAxE.s:19870  .debug_str:0000000000000982 .LASF4147
C:\Users\CYMR90~1\AppData\Local\Temp\ccYIfAxE.s:29171  .debug_str:00000000000251b8 .LASF4148
C:\Users\CYMR90~1\AppData\Local\Temp\ccYIfAxE.s:24222  .debug_str:0000000000011a21 .LASF4149
C:\Users\CYMR90~1\AppData\Local\Temp\ccYIfAxE.s:25765  .debug_str:0000000000017bb5 .LASF4150
C:\Users\CYMR90~1\AppData\Local\Temp\ccYIfAxE.s:21972  .debug_str:0000000000008e5a .LASF4151
C:\Users\CYMR90~1\AppData\Local\Temp\ccYIfAxE.s:26501  .debug_str:000000000001abd4 .LASF4152
C:\Users\CYMR90~1\AppData\Local\Temp\ccYIfAxE.s:26739  .debug_str:000000000001bc03 .LASF4153
C:\Users\CYMR90~1\AppData\Local\Temp\ccYIfAxE.s:30367  .debug_str:000000000002a0b8 .LASF4154
C:\Users\CYMR90~1\AppData\Local\Temp\ccYIfAxE.s:20800  .debug_str:00000000000043aa .LASF4155
C:\Users\CYMR90~1\AppData\Local\Temp\ccYIfAxE.s:23246  .debug_str:000000000000dfcc .LASF4156
C:\Users\CYMR90~1\AppData\Local\Temp\ccYIfAxE.s:23704  .debug_str:000000000000fbe5 .LASF4157
C:\Users\CYMR90~1\AppData\Local\Temp\ccYIfAxE.s:21676  .debug_str:0000000000007a56 .LASF4158
C:\Users\CYMR90~1\AppData\Local\Temp\ccYIfAxE.s:20612  .debug_str:000000000000372d .LASF4159
C:\Users\CYMR90~1\AppData\Local\Temp\ccYIfAxE.s:28793  .debug_str:000000000002399a .LASF4160
C:\Users\CYMR90~1\AppData\Local\Temp\ccYIfAxE.s:22152  .debug_str:0000000000009914 .LASF4161
C:\Users\CYMR90~1\AppData\Local\Temp\ccYIfAxE.s:31195  .debug_str:000000000002d3d9 .LASF4162
C:\Users\CYMR90~1\AppData\Local\Temp\ccYIfAxE.s:30301  .debug_str:0000000000029cbe .LASF4163
C:\Users\CYMR90~1\AppData\Local\Temp\ccYIfAxE.s:22760  .debug_str:000000000000c0e9 .LASF4164
C:\Users\CYMR90~1\AppData\Local\Temp\ccYIfAxE.s:26813  .debug_str:000000000001c02b .LASF4165
C:\Users\CYMR90~1\AppData\Local\Temp\ccYIfAxE.s:29193  .debug_str:0000000000025338 .LASF4166
C:\Users\CYMR90~1\AppData\Local\Temp\ccYIfAxE.s:25156  .debug_str:000000000001556e .LASF4167
C:\Users\CYMR90~1\AppData\Local\Temp\ccYIfAxE.s:25641  .debug_str:0000000000017448 .LASF4168
C:\Users\CYMR90~1\AppData\Local\Temp\ccYIfAxE.s:27113  .debug_str:000000000001d453 .LASF4169
C:\Users\CYMR90~1\AppData\Local\Temp\ccYIfAxE.s:19946  .debug_str:0000000000000e62 .LASF4170
C:\Users\CYMR90~1\AppData\Local\Temp\ccYIfAxE.s:26141  .debug_str:00000000000193cf .LASF4171
C:\Users\CYMR90~1\AppData\Local\Temp\ccYIfAxE.s:21002  .debug_str:00000000000050f6 .LASF4172
C:\Users\CYMR90~1\AppData\Local\Temp\ccYIfAxE.s:28011  .debug_str:0000000000020b9d .LASF4173
C:\Users\CYMR90~1\AppData\Local\Temp\ccYIfAxE.s:30421  .debug_str:000000000002a3ad .LASF4174
C:\Users\CYMR90~1\AppData\Local\Temp\ccYIfAxE.s:30731  .debug_str:000000000002b5ca .LASF4175
C:\Users\CYMR90~1\AppData\Local\Temp\ccYIfAxE.s:23616  .debug_str:000000000000f606 .LASF4176
C:\Users\CYMR90~1\AppData\Local\Temp\ccYIfAxE.s:31145  .debug_str:000000000002d0b0 .LASF4177
C:\Users\CYMR90~1\AppData\Local\Temp\ccYIfAxE.s:29579  .debug_str:0000000000026d78 .LASF4178
C:\Users\CYMR90~1\AppData\Local\Temp\ccYIfAxE.s:29639  .debug_str:000000000002711b .LASF4179
C:\Users\CYMR90~1\AppData\Local\Temp\ccYIfAxE.s:26073  .debug_str:0000000000018ed5 .LASF4180
C:\Users\CYMR90~1\AppData\Local\Temp\ccYIfAxE.s:30171  .debug_str:0000000000029461 .LASF4181
C:\Users\CYMR90~1\AppData\Local\Temp\ccYIfAxE.s:29039  .debug_str:0000000000024979 .LASF4182
C:\Users\CYMR90~1\AppData\Local\Temp\ccYIfAxE.s:26645  .debug_str:000000000001b595 .LASF4183
C:\Users\CYMR90~1\AppData\Local\Temp\ccYIfAxE.s:30661  .debug_str:000000000002b1bc .LASF4184
C:\Users\CYMR90~1\AppData\Local\Temp\ccYIfAxE.s:23114  .debug_str:000000000000d856 .LASF4185
C:\Users\CYMR90~1\AppData\Local\Temp\ccYIfAxE.s:29581  .debug_str:0000000000026d9e .LASF4186
C:\Users\CYMR90~1\AppData\Local\Temp\ccYIfAxE.s:25546  .debug_str:0000000000016d2f .LASF4187
C:\Users\CYMR90~1\AppData\Local\Temp\ccYIfAxE.s:21976  .debug_str:0000000000008e94 .LASF4188
C:\Users\CYMR90~1\AppData\Local\Temp\ccYIfAxE.s:25995  .debug_str:000000000001892c .LASF4189
C:\Users\CYMR90~1\AppData\Local\Temp\ccYIfAxE.s:23996  .debug_str:0000000000010c16 .LASF4190
C:\Users\CYMR90~1\AppData\Local\Temp\ccYIfAxE.s:22554  .debug_str:000000000000b32a .LASF4191
C:\Users\CYMR90~1\AppData\Local\Temp\ccYIfAxE.s:26033  .debug_str:0000000000018bbd .LASF4192
C:\Users\CYMR90~1\AppData\Local\Temp\ccYIfAxE.s:26251  .debug_str:0000000000019ad0 .LASF4193
C:\Users\CYMR90~1\AppData\Local\Temp\ccYIfAxE.s:30819  .debug_str:000000000002bb19 .LASF4194
C:\Users\CYMR90~1\AppData\Local\Temp\ccYIfAxE.s:21588  .debug_str:00000000000074b8 .LASF4195
C:\Users\CYMR90~1\AppData\Local\Temp\ccYIfAxE.s:31087  .debug_str:000000000002cd16 .LASF4196
C:\Users\CYMR90~1\AppData\Local\Temp\ccYIfAxE.s:28061  .debug_str:0000000000020e98 .LASF4197
C:\Users\CYMR90~1\AppData\Local\Temp\ccYIfAxE.s:21532  .debug_str:00000000000070eb .LASF4198
C:\Users\CYMR90~1\AppData\Local\Temp\ccYIfAxE.s:30039  .debug_str:0000000000028be0 .LASF4199
C:\Users\CYMR90~1\AppData\Local\Temp\ccYIfAxE.s:22480  .debug_str:000000000000ada6 .LASF4200
C:\Users\CYMR90~1\AppData\Local\Temp\ccYIfAxE.s:27363  .debug_str:000000000001e444 .LASF4201
C:\Users\CYMR90~1\AppData\Local\Temp\ccYIfAxE.s:21914  .debug_str:0000000000008a9d .LASF4202
C:\Users\CYMR90~1\AppData\Local\Temp\ccYIfAxE.s:22986  .debug_str:000000000000cfe6 .LASF4203
C:\Users\CYMR90~1\AppData\Local\Temp\ccYIfAxE.s:26975  .debug_str:000000000001c9db .LASF4204
C:\Users\CYMR90~1\AppData\Local\Temp\ccYIfAxE.s:31021  .debug_str:000000000002c882 .LASF4205
C:\Users\CYMR90~1\AppData\Local\Temp\ccYIfAxE.s:23550  .debug_str:000000000000f1fa .LASF4206
C:\Users\CYMR90~1\AppData\Local\Temp\ccYIfAxE.s:27779  .debug_str:000000000001fd20 .LASF4207
C:\Users\CYMR90~1\AppData\Local\Temp\ccYIfAxE.s:28427  .debug_str:000000000002245b .LASF4208
C:\Users\CYMR90~1\AppData\Local\Temp\ccYIfAxE.s:30847  .debug_str:000000000002bd05 .LASF4209
C:\Users\CYMR90~1\AppData\Local\Temp\ccYIfAxE.s:26459  .debug_str:000000000001a8c1 .LASF4210
C:\Users\CYMR90~1\AppData\Local\Temp\ccYIfAxE.s:29151  .debug_str:0000000000025077 .LASF4211
C:\Users\CYMR90~1\AppData\Local\Temp\ccYIfAxE.s:26429  .debug_str:000000000001a74d .LASF4212
C:\Users\CYMR90~1\AppData\Local\Temp\ccYIfAxE.s:26899  .debug_str:000000000001c583 .LASF4213
C:\Users\CYMR90~1\AppData\Local\Temp\ccYIfAxE.s:19838  .debug_str:0000000000000796 .LASF4214
C:\Users\CYMR90~1\AppData\Local\Temp\ccYIfAxE.s:22908  .debug_str:000000000000c9ef .LASF4215
C:\Users\CYMR90~1\AppData\Local\Temp\ccYIfAxE.s:23084  .debug_str:000000000000d644 .LASF4216
C:\Users\CYMR90~1\AppData\Local\Temp\ccYIfAxE.s:21194  .debug_str:0000000000005ca3 .LASF4217
C:\Users\CYMR90~1\AppData\Local\Temp\ccYIfAxE.s:22350  .debug_str:000000000000a588 .LASF4218
C:\Users\CYMR90~1\AppData\Local\Temp\ccYIfAxE.s:26375  .debug_str:000000000001a2af .LASF4219
C:\Users\CYMR90~1\AppData\Local\Temp\ccYIfAxE.s:30389  .debug_str:000000000002a1ff .LASF4220
C:\Users\CYMR90~1\AppData\Local\Temp\ccYIfAxE.s:22844  .debug_str:000000000000c60e .LASF4221
C:\Users\CYMR90~1\AppData\Local\Temp\ccYIfAxE.s:26843  .debug_str:000000000001c21c .LASF4222
C:\Users\CYMR90~1\AppData\Local\Temp\ccYIfAxE.s:27085  .debug_str:000000000001d214 .LASF4223
C:\Users\CYMR90~1\AppData\Local\Temp\ccYIfAxE.s:26523  .debug_str:000000000001ad54 .LASF4224
C:\Users\CYMR90~1\AppData\Local\Temp\ccYIfAxE.s:27389  .debug_str:000000000001e5dd .LASF4225
C:\Users\CYMR90~1\AppData\Local\Temp\ccYIfAxE.s:31089  .debug_str:000000000002cd3c .LASF4226
C:\Users\CYMR90~1\AppData\Local\Temp\ccYIfAxE.s:22436  .debug_str:000000000000ab0d .LASF4227
C:\Users\CYMR90~1\AppData\Local\Temp\ccYIfAxE.s:20856  .debug_str:000000000000473c .LASF4228
C:\Users\CYMR90~1\AppData\Local\Temp\ccYIfAxE.s:25004  .debug_str:0000000000014c63 .LASF4229
C:\Users\CYMR90~1\AppData\Local\Temp\ccYIfAxE.s:23756  .debug_str:000000000000fee4 .LASF4230
C:\Users\CYMR90~1\AppData\Local\Temp\ccYIfAxE.s:21456  .debug_str:0000000000006c16 .LASF4231
C:\Users\CYMR90~1\AppData\Local\Temp\ccYIfAxE.s:26003  .debug_str:00000000000189c7 .LASF4232
C:\Users\CYMR90~1\AppData\Local\Temp\ccYIfAxE.s:30927  .debug_str:000000000002c23d .LASF4233
C:\Users\CYMR90~1\AppData\Local\Temp\ccYIfAxE.s:21440  .debug_str:0000000000006b0f .LASF4234
C:\Users\CYMR90~1\AppData\Local\Temp\ccYIfAxE.s:25989  .debug_str:00000000000188e0 .LASF4235
C:\Users\CYMR90~1\AppData\Local\Temp\ccYIfAxE.s:30101  .debug_str:0000000000029042 .LASF4236
C:\Users\CYMR90~1\AppData\Local\Temp\ccYIfAxE.s:29419  .debug_str:000000000002635e .LASF4237
C:\Users\CYMR90~1\AppData\Local\Temp\ccYIfAxE.s:24942  .debug_str:0000000000014861 .LASF4238
C:\Users\CYMR90~1\AppData\Local\Temp\ccYIfAxE.s:28949  .debug_str:00000000000242c4 .LASF4239
C:\Users\CYMR90~1\AppData\Local\Temp\ccYIfAxE.s:29717  .debug_str:00000000000275e2 .LASF4240
C:\Users\CYMR90~1\AppData\Local\Temp\ccYIfAxE.s:27181  .debug_str:000000000001d893 .LASF4241
C:\Users\CYMR90~1\AppData\Local\Temp\ccYIfAxE.s:27939  .debug_str:00000000000206b7 .LASF4242
C:\Users\CYMR90~1\AppData\Local\Temp\ccYIfAxE.s:23976  .debug_str:0000000000010b04 .LASF4243
C:\Users\CYMR90~1\AppData\Local\Temp\ccYIfAxE.s:27633  .debug_str:000000000001f47e .LASF4244
C:\Users\CYMR90~1\AppData\Local\Temp\ccYIfAxE.s:23254  .debug_str:000000000000e053 .LASF4245
C:\Users\CYMR90~1\AppData\Local\Temp\ccYIfAxE.s:21788  .debug_str:0000000000008256 .LASF4246
C:\Users\CYMR90~1\AppData\Local\Temp\ccYIfAxE.s:29303  .debug_str:0000000000025b6c .LASF4247
C:\Users\CYMR90~1\AppData\Local\Temp\ccYIfAxE.s:30945  .debug_str:000000000002c36b .LASF4248
C:\Users\CYMR90~1\AppData\Local\Temp\ccYIfAxE.s:22144  .debug_str:00000000000098b4 .LASF4249
C:\Users\CYMR90~1\AppData\Local\Temp\ccYIfAxE.s:25350  .debug_str:00000000000160f9 .LASF4250
C:\Users\CYMR90~1\AppData\Local\Temp\ccYIfAxE.s:29365  .debug_str:0000000000026020 .LASF4251
C:\Users\CYMR90~1\AppData\Local\Temp\ccYIfAxE.s:24412  .debug_str:00000000000126cc .LASF4252
C:\Users\CYMR90~1\AppData\Local\Temp\ccYIfAxE.s:24456  .debug_str:000000000001298e .LASF4253
C:\Users\CYMR90~1\AppData\Local\Temp\ccYIfAxE.s:23016  .debug_str:000000000000d17f .LASF4254
C:\Users\CYMR90~1\AppData\Local\Temp\ccYIfAxE.s:22408  .debug_str:000000000000a928 .LASF4255
C:\Users\CYMR90~1\AppData\Local\Temp\ccYIfAxE.s:29101  .debug_str:0000000000024d3e .LASF4256
C:\Users\CYMR90~1\AppData\Local\Temp\ccYIfAxE.s:23434  .debug_str:000000000000eb76 .LASF4257
C:\Users\CYMR90~1\AppData\Local\Temp\ccYIfAxE.s:21240  .debug_str:0000000000005f11 .LASF4258
C:\Users\CYMR90~1\AppData\Local\Temp\ccYIfAxE.s:27663  .debug_str:000000000001f652 .LASF4259
C:\Users\CYMR90~1\AppData\Local\Temp\ccYIfAxE.s:29299  .debug_str:0000000000025b1a .LASF4260
C:\Users\CYMR90~1\AppData\Local\Temp\ccYIfAxE.s:29081  .debug_str:0000000000024c05 .LASF4261
C:\Users\CYMR90~1\AppData\Local\Temp\ccYIfAxE.s:20780  .debug_str:000000000000428b .LASF4262
C:\Users\CYMR90~1\AppData\Local\Temp\ccYIfAxE.s:26617  .debug_str:000000000001b384 .LASF4263
C:\Users\CYMR90~1\AppData\Local\Temp\ccYIfAxE.s:24062  .debug_str:00000000000110b6 .LASF4264
C:\Users\CYMR90~1\AppData\Local\Temp\ccYIfAxE.s:26367  .debug_str:000000000001a238 .LASF4265
C:\Users\CYMR90~1\AppData\Local\Temp\ccYIfAxE.s:30383  .debug_str:000000000002a195 .LASF4266
C:\Users\CYMR90~1\AppData\Local\Temp\ccYIfAxE.s:29699  .debug_str:00000000000274c2 .LASF4267
C:\Users\CYMR90~1\AppData\Local\Temp\ccYIfAxE.s:25226  .debug_str:0000000000015954 .LASF4268
C:\Users\CYMR90~1\AppData\Local\Temp\ccYIfAxE.s:31033  .debug_str:000000000002c975 .LASF4269
C:\Users\CYMR90~1\AppData\Local\Temp\ccYIfAxE.s:21684  .debug_str:0000000000007ae8 .LASF4270
C:\Users\CYMR90~1\AppData\Local\Temp\ccYIfAxE.s:29239  .debug_str:000000000002565c .LASF4271
C:\Users\CYMR90~1\AppData\Local\Temp\ccYIfAxE.s:31273  .debug_str:000000000002d8e8 .LASF4272
C:\Users\CYMR90~1\AppData\Local\Temp\ccYIfAxE.s:20954  .debug_str:0000000000004e03 .LASF4273
C:\Users\CYMR90~1\AppData\Local\Temp\ccYIfAxE.s:26307  .debug_str:0000000000019ebe .LASF4274
C:\Users\CYMR90~1\AppData\Local\Temp\ccYIfAxE.s:21188  .debug_str:0000000000005c0f .LASF4275
C:\Users\CYMR90~1\AppData\Local\Temp\ccYIfAxE.s:22772  .debug_str:000000000000c1c0 .LASF4276
C:\Users\CYMR90~1\AppData\Local\Temp\ccYIfAxE.s:24128  .debug_str:000000000001144e .LASF4277
C:\Users\CYMR90~1\AppData\Local\Temp\ccYIfAxE.s:22246  .debug_str:0000000000009f10 .LASF4278
C:\Users\CYMR90~1\AppData\Local\Temp\ccYIfAxE.s:29461  .debug_str:0000000000026646 .LASF4279
C:\Users\CYMR90~1\AppData\Local\Temp\ccYIfAxE.s:25735  .debug_str:000000000001798e .LASF4280
C:\Users\CYMR90~1\AppData\Local\Temp\ccYIfAxE.s:26709  .debug_str:000000000001b9f1 .LASF4281
C:\Users\CYMR90~1\AppData\Local\Temp\ccYIfAxE.s:26963  .debug_str:000000000001c8fe .LASF4282
C:\Users\CYMR90~1\AppData\Local\Temp\ccYIfAxE.s:26247  .debug_str:0000000000019a85 .LASF4283
C:\Users\CYMR90~1\AppData\Local\Temp\ccYIfAxE.s:30251  .debug_str:0000000000029939 .LASF4284
C:\Users\CYMR90~1\AppData\Local\Temp\ccYIfAxE.s:20142  .debug_str:0000000000001a59 .LASF4285
C:\Users\CYMR90~1\AppData\Local\Temp\ccYIfAxE.s:22568  .debug_str:000000000000b419 .LASF4286
C:\Users\CYMR90~1\AppData\Local\Temp\ccYIfAxE.s:23734  .debug_str:000000000000fd65 .LASF4287
C:\Users\CYMR90~1\AppData\Local\Temp\ccYIfAxE.s:28795  .debug_str:00000000000239c0 .LASF4288
C:\Users\CYMR90~1\AppData\Local\Temp\ccYIfAxE.s:25675  .debug_str:0000000000017630 .LASF4289
C:\Users\CYMR90~1\AppData\Local\Temp\ccYIfAxE.s:29691  .debug_str:000000000002744a .LASF4290
C:\Users\CYMR90~1\AppData\Local\Temp\ccYIfAxE.s:28157  .debug_str:00000000000213b7 .LASF4291
C:\Users\CYMR90~1\AppData\Local\Temp\ccYIfAxE.s:26177  .debug_str:00000000000195df .LASF4292
C:\Users\CYMR90~1\AppData\Local\Temp\ccYIfAxE.s:21354  .debug_str:00000000000065f5 .LASF4293
C:\Users\CYMR90~1\AppData\Local\Temp\ccYIfAxE.s:22638  .debug_str:000000000000b889 .LASF4294
C:\Users\CYMR90~1\AppData\Local\Temp\ccYIfAxE.s:26169  .debug_str:0000000000019573 .LASF4295
C:\Users\CYMR90~1\AppData\Local\Temp\ccYIfAxE.s:24304  .debug_str:000000000001200a .LASF4296
C:\Users\CYMR90~1\AppData\Local\Temp\ccYIfAxE.s:21272  .debug_str:00000000000060d2 .LASF4297
C:\Users\CYMR90~1\AppData\Local\Temp\ccYIfAxE.s:25615  .debug_str:00000000000172e1 .LASF4298
C:\Users\CYMR90~1\AppData\Local\Temp\ccYIfAxE.s:29619  .debug_str:0000000000026fd3 .LASF4299
C:\Users\CYMR90~1\AppData\Local\Temp\ccYIfAxE.s:22080  .debug_str:00000000000094b6 .LASF4300
C:\Users\CYMR90~1\AppData\Local\Temp\ccYIfAxE.s:20106  .debug_str:000000000000182c .LASF4301
C:\Users\CYMR90~1\AppData\Local\Temp\ccYIfAxE.s:26285  .debug_str:0000000000019d57 .LASF4302
C:\Users\CYMR90~1\AppData\Local\Temp\ccYIfAxE.s:27327  .debug_str:000000000001e21e .LASF4303
C:\Users\CYMR90~1\AppData\Local\Temp\ccYIfAxE.s:26607  .debug_str:000000000001b2eb .LASF4304
C:\Users\CYMR90~1\AppData\Local\Temp\ccYIfAxE.s:30609  .debug_str:000000000002aed6 .LASF4305
C:\Users\CYMR90~1\AppData\Local\Temp\ccYIfAxE.s:23154  .debug_str:000000000000daf6 .LASF4306
C:\Users\CYMR90~1\AppData\Local\Temp\ccYIfAxE.s:20112  .debug_str:0000000000001892 .LASF4307
C:\Users\CYMR90~1\AppData\Local\Temp\ccYIfAxE.s:29553  .debug_str:0000000000026bb6 .LASF4308
C:\Users\CYMR90~1\AppData\Local\Temp\ccYIfAxE.s:23814  .debug_str:00000000000101a8 .LASF4309
C:\Users\CYMR90~1\AppData\Local\Temp\ccYIfAxE.s:26349  .debug_str:000000000001a12c .LASF4310
C:\Users\CYMR90~1\AppData\Local\Temp\ccYIfAxE.s:28565  .debug_str:0000000000022c39 .LASF4311
C:\Users\CYMR90~1\AppData\Local\Temp\ccYIfAxE.s:30975  .debug_str:000000000002c558 .LASF4312
C:\Users\CYMR90~1\AppData\Local\Temp\ccYIfAxE.s:26549  .debug_str:000000000001af1f .LASF4313
C:\Users\CYMR90~1\AppData\Local\Temp\ccYIfAxE.s:30547  .debug_str:000000000002aab8 .LASF4314
C:\Users\CYMR90~1\AppData\Local\Temp\ccYIfAxE.s:27405  .debug_str:000000000001e6a9 .LASF4315
C:\Users\CYMR90~1\AppData\Local\Temp\ccYIfAxE.s:23750  .debug_str:000000000000fe5b .LASF4316
C:\Users\CYMR90~1\AppData\Local\Temp\ccYIfAxE.s:24114  .debug_str:000000000001136e .LASF4317
C:\Users\CYMR90~1\AppData\Local\Temp\ccYIfAxE.s:21946  .debug_str:0000000000008cd0 .LASF4318
C:\Users\CYMR90~1\AppData\Local\Temp\ccYIfAxE.s:22024  .debug_str:000000000000919b .LASF4319
C:\Users\CYMR90~1\AppData\Local\Temp\ccYIfAxE.s:27115  .debug_str:000000000001d479 .LASF4320
C:\Users\CYMR90~1\AppData\Local\Temp\ccYIfAxE.s:24090  .debug_str:0000000000011205 .LASF4321
C:\Users\CYMR90~1\AppData\Local\Temp\ccYIfAxE.s:26473  .debug_str:000000000001a9c3 .LASF4322
C:\Users\CYMR90~1\AppData\Local\Temp\ccYIfAxE.s:24822  .debug_str:0000000000014132 .LASF4323
C:\Users\CYMR90~1\AppData\Local\Temp\ccYIfAxE.s:27451  .debug_str:000000000001e958 .LASF4324
C:\Users\CYMR90~1\AppData\Local\Temp\ccYIfAxE.s:24310  .debug_str:0000000000012061 .LASF4325
C:\Users\CYMR90~1\AppData\Local\Temp\ccYIfAxE.s:24246  .debug_str:0000000000011c1e .LASF4326
C:\Users\CYMR90~1\AppData\Local\Temp\ccYIfAxE.s:22478  .debug_str:000000000000ad80 .LASF4327
C:\Users\CYMR90~1\AppData\Local\Temp\ccYIfAxE.s:20550  .debug_str:000000000000334b .LASF4328
C:\Users\CYMR90~1\AppData\Local\Temp\ccYIfAxE.s:24614  .debug_str:00000000000133d0 .LASF4329
C:\Users\CYMR90~1\AppData\Local\Temp\ccYIfAxE.s:28259  .debug_str:0000000000021a45 .LASF4330
C:\Users\CYMR90~1\AppData\Local\Temp\ccYIfAxE.s:21024  .debug_str:0000000000005228 .LASF4331
C:\Users\CYMR90~1\AppData\Local\Temp\ccYIfAxE.s:25082  .debug_str:0000000000015138 .LASF4332
C:\Users\CYMR90~1\AppData\Local\Temp\ccYIfAxE.s:29091  .debug_str:0000000000024ca2 .LASF4333
C:\Users\CYMR90~1\AppData\Local\Temp\ccYIfAxE.s:21534  .debug_str:0000000000007111 .LASF4334
C:\Users\CYMR90~1\AppData\Local\Temp\ccYIfAxE.s:20796  .debug_str:000000000000437b .LASF4335
C:\Users\CYMR90~1\AppData\Local\Temp\ccYIfAxE.s:29683  .debug_str:00000000000273af .LASF4336
C:\Users\CYMR90~1\AppData\Local\Temp\ccYIfAxE.s:27859  .debug_str:00000000000201cc .LASF4337
C:\Users\CYMR90~1\AppData\Local\Temp\ccYIfAxE.s:24562  .debug_str:0000000000013089 .LASF4338
C:\Users\CYMR90~1\AppData\Local\Temp\ccYIfAxE.s:28555  .debug_str:0000000000022b7c .LASF4339
C:\Users\CYMR90~1\AppData\Local\Temp\ccYIfAxE.s:26089  .debug_str:0000000000018fd8 .LASF4340
C:\Users\CYMR90~1\AppData\Local\Temp\ccYIfAxE.s:25132  .debug_str:000000000001541a .LASF4341
C:\Users\CYMR90~1\AppData\Local\Temp\ccYIfAxE.s:31143  .debug_str:000000000002d08a .LASF4342
C:\Users\CYMR90~1\AppData\Local\Temp\ccYIfAxE.s:29849  .debug_str:0000000000027e53 .LASF4343
C:\Users\CYMR90~1\AppData\Local\Temp\ccYIfAxE.s:25512  .debug_str:0000000000016ab5 .LASF4344
C:\Users\CYMR90~1\AppData\Local\Temp\ccYIfAxE.s:23968  .debug_str:0000000000010a87 .LASF4345
C:\Users\CYMR90~1\AppData\Local\Temp\ccYIfAxE.s:22072  .debug_str:0000000000009447 .LASF4346
C:\Users\CYMR90~1\AppData\Local\Temp\ccYIfAxE.s:30659  .debug_str:000000000002b196 .LASF4347
C:\Users\CYMR90~1\AppData\Local\Temp\ccYIfAxE.s:28481  .debug_str:0000000000022798 .LASF4348
C:\Users\CYMR90~1\AppData\Local\Temp\ccYIfAxE.s:25394  .debug_str:0000000000016418 .LASF4349
C:\Users\CYMR90~1\AppData\Local\Temp\ccYIfAxE.s:28663  .debug_str:000000000002329a .LASF4350
C:\Users\CYMR90~1\AppData\Local\Temp\ccYIfAxE.s:23652  .debug_str:000000000000f80c .LASF4351
C:\Users\CYMR90~1\AppData\Local\Temp\ccYIfAxE.s:21398  .debug_str:0000000000006854 .LASF4352
C:\Users\CYMR90~1\AppData\Local\Temp\ccYIfAxE.s:25440  .debug_str:00000000000166d7 .LASF4353
C:\Users\CYMR90~1\AppData\Local\Temp\ccYIfAxE.s:27503  .debug_str:000000000001eca2 .LASF4354
C:\Users\CYMR90~1\AppData\Local\Temp\ccYIfAxE.s:22014  .debug_str:0000000000009110 .LASF4355
C:\Users\CYMR90~1\AppData\Local\Temp\ccYIfAxE.s:26029  .debug_str:0000000000018b5d .LASF4356
C:\Users\CYMR90~1\AppData\Local\Temp\ccYIfAxE.s:23046  .debug_str:000000000000d3a3 .LASF4357
C:\Users\CYMR90~1\AppData\Local\Temp\ccYIfAxE.s:20832  .debug_str:000000000000459c .LASF4358
C:\Users\CYMR90~1\AppData\Local\Temp\ccYIfAxE.s:24884  .debug_str:000000000001453c .LASF4359
C:\Users\CYMR90~1\AppData\Local\Temp\ccYIfAxE.s:22888  .debug_str:000000000000c89c .LASF4360
C:\Users\CYMR90~1\AppData\Local\Temp\ccYIfAxE.s:21326  .debug_str:0000000000006434 .LASF4361
C:\Users\CYMR90~1\AppData\Local\Temp\ccYIfAxE.s:20428  .debug_str:0000000000002bb4 .LASF4362
C:\Users\CYMR90~1\AppData\Local\Temp\ccYIfAxE.s:31149  .debug_str:000000000002d0fa .LASF4363
C:\Users\CYMR90~1\AppData\Local\Temp\ccYIfAxE.s:21960  .debug_str:0000000000008d94 .LASF4364
C:\Users\CYMR90~1\AppData\Local\Temp\ccYIfAxE.s:25951  .debug_str:00000000000186b0 .LASF4365
C:\Users\CYMR90~1\AppData\Local\Temp\ccYIfAxE.s:20182  .debug_str:0000000000001ccf .LASF4366
C:\Users\CYMR90~1\AppData\Local\Temp\ccYIfAxE.s:26971  .debug_str:000000000001c97b .LASF4367
C:\Users\CYMR90~1\AppData\Local\Temp\ccYIfAxE.s:24818  .debug_str:00000000000140ef .LASF4368
C:\Users\CYMR90~1\AppData\Local\Temp\ccYIfAxE.s:28829  .debug_str:0000000000023be1 .LASF4369
C:\Users\CYMR90~1\AppData\Local\Temp\ccYIfAxE.s:25236  .debug_str:0000000000015a06 .LASF4370
C:\Users\CYMR90~1\AppData\Local\Temp\ccYIfAxE.s:30031  .debug_str:0000000000028b5a .LASF4371
C:\Users\CYMR90~1\AppData\Local\Temp\ccYIfAxE.s:23172  .debug_str:000000000000dbf9 .LASF4372
C:\Users\CYMR90~1\AppData\Local\Temp\ccYIfAxE.s:21862  .debug_str:00000000000087b3 .LASF4373
C:\Users\CYMR90~1\AppData\Local\Temp\ccYIfAxE.s:27907  .debug_str:0000000000020509 .LASF4374
C:\Users\CYMR90~1\AppData\Local\Temp\ccYIfAxE.s:29911  .debug_str:0000000000028299 .LASF4375
C:\Users\CYMR90~1\AppData\Local\Temp\ccYIfAxE.s:22356  .debug_str:000000000000a5f1 .LASF4376
C:\Users\CYMR90~1\AppData\Local\Temp\ccYIfAxE.s:30955  .debug_str:000000000002c3f5 .LASF4377
C:\Users\CYMR90~1\AppData\Local\Temp\ccYIfAxE.s:23156  .debug_str:000000000000db1c .LASF4378
C:\Users\CYMR90~1\AppData\Local\Temp\ccYIfAxE.s:21184  .debug_str:0000000000005bb7 .LASF4379
C:\Users\CYMR90~1\AppData\Local\Temp\ccYIfAxE.s:24378  .debug_str:00000000000124e0 .LASF4380
C:\Users\CYMR90~1\AppData\Local\Temp\ccYIfAxE.s:25284  .debug_str:0000000000015cd2 .LASF4381
C:\Users\CYMR90~1\AppData\Local\Temp\ccYIfAxE.s:21798  .debug_str:0000000000008392 .LASF4382
C:\Users\CYMR90~1\AppData\Local\Temp\ccYIfAxE.s:31023  .debug_str:000000000002c8a8 .LASF4383
C:\Users\CYMR90~1\AppData\Local\Temp\ccYIfAxE.s:22342  .debug_str:000000000000a501 .LASF4384
C:\Users\CYMR90~1\AppData\Local\Temp\ccYIfAxE.s:20410  .debug_str:0000000000002a72 .LASF4385
C:\Users\CYMR90~1\AppData\Local\Temp\ccYIfAxE.s:27881  .debug_str:000000000002037c .LASF4386
C:\Users\CYMR90~1\AppData\Local\Temp\ccYIfAxE.s:22552  .debug_str:000000000000b304 .LASF4387
C:\Users\CYMR90~1\AppData\Local\Temp\ccYIfAxE.s:21112  .debug_str:000000000000575e .LASF4388
C:\Users\CYMR90~1\AppData\Local\Temp\ccYIfAxE.s:21752  .debug_str:0000000000007f5d .LASF4389
C:\Users\CYMR90~1\AppData\Local\Temp\ccYIfAxE.s:30343  .debug_str:0000000000029f81 .LASF4390
C:\Users\CYMR90~1\AppData\Local\Temp\ccYIfAxE.s:21722  .debug_str:0000000000007d8d .LASF4391
C:\Users\CYMR90~1\AppData\Local\Temp\ccYIfAxE.s:21288  .debug_str:00000000000061c5 .LASF4392
C:\Users\CYMR90~1\AppData\Local\Temp\ccYIfAxE.s:22088  .debug_str:000000000000953c .LASF4393
C:\Users\CYMR90~1\AppData\Local\Temp\ccYIfAxE.s:28909  .debug_str:000000000002408b .LASF4394
C:\Users\CYMR90~1\AppData\Local\Temp\ccYIfAxE.s:20882  .debug_str:0000000000004914 .LASF4395
C:\Users\CYMR90~1\AppData\Local\Temp\ccYIfAxE.s:21492  .debug_str:0000000000006e26 .LASF4396
C:\Users\CYMR90~1\AppData\Local\Temp\ccYIfAxE.s:30829  .debug_str:000000000002bbcd .LASF4397
C:\Users\CYMR90~1\AppData\Local\Temp\ccYIfAxE.s:21054  .debug_str:0000000000005404 .LASF4398
C:\Users\CYMR90~1\AppData\Local\Temp\ccYIfAxE.s:22364  .debug_str:000000000000a6a1 .LASF4399
C:\Users\CYMR90~1\AppData\Local\Temp\ccYIfAxE.s:21658  .debug_str:000000000000795b .LASF4400
C:\Users\CYMR90~1\AppData\Local\Temp\ccYIfAxE.s:27121  .debug_str:000000000001d4de .LASF4401
C:\Users\CYMR90~1\AppData\Local\Temp\ccYIfAxE.s:29509  .debug_str:000000000002690b .LASF4402
C:\Users\CYMR90~1\AppData\Local\Temp\ccYIfAxE.s:26465  .debug_str:000000000001a933 .LASF4403
C:\Users\CYMR90~1\AppData\Local\Temp\ccYIfAxE.s:22732  .debug_str:000000000000be94 .LASF4404
C:\Users\CYMR90~1\AppData\Local\Temp\ccYIfAxE.s:30285  .debug_str:0000000000029ba1 .LASF4405
C:\Users\CYMR90~1\AppData\Local\Temp\ccYIfAxE.s:22486  .debug_str:000000000000ae1e .LASF4406
C:\Users\CYMR90~1\AppData\Local\Temp\ccYIfAxE.s:24258  .debug_str:0000000000011d6a .LASF4407
C:\Users\CYMR90~1\AppData\Local\Temp\ccYIfAxE.s:29141  .debug_str:0000000000024fc1 .LASF4408
C:\Users\CYMR90~1\AppData\Local\Temp\ccYIfAxE.s:28321  .debug_str:0000000000021e08 .LASF4409
C:\Users\CYMR90~1\AppData\Local\Temp\ccYIfAxE.s:25631  .debug_str:00000000000173bb .LASF4410
C:\Users\CYMR90~1\AppData\Local\Temp\ccYIfAxE.s:29635  .debug_str:00000000000270de .LASF4411
C:\Users\CYMR90~1\AppData\Local\Temp\ccYIfAxE.s:25761  .debug_str:0000000000017b5e .LASF4412
C:\Users\CYMR90~1\AppData\Local\Temp\ccYIfAxE.s:26551  .debug_str:000000000001af45 .LASF4413
C:\Users\CYMR90~1\AppData\Local\Temp\ccYIfAxE.s:29593  .debug_str:0000000000026e5c .LASF4414
C:\Users\CYMR90~1\AppData\Local\Temp\ccYIfAxE.s:29731  .debug_str:00000000000276aa .LASF4415
C:\Users\CYMR90~1\AppData\Local\Temp\ccYIfAxE.s:26687  .debug_str:000000000001b8ad .LASF4416
C:\Users\CYMR90~1\AppData\Local\Temp\ccYIfAxE.s:28765  .debug_str:0000000000023817 .LASF4417
C:\Users\CYMR90~1\AppData\Local\Temp\ccYIfAxE.s:21512  .debug_str:0000000000006f98 .LASF4418
C:\Users\CYMR90~1\AppData\Local\Temp\ccYIfAxE.s:25560  .debug_str:0000000000016e0f .LASF4419
C:\Users\CYMR90~1\AppData\Local\Temp\ccYIfAxE.s:29567  .debug_str:0000000000026c83 .LASF4420
C:\Users\CYMR90~1\AppData\Local\Temp\ccYIfAxE.s:20822  .debug_str:00000000000044fc .LASF4421
C:\Users\CYMR90~1\AppData\Local\Temp\ccYIfAxE.s:26075  .debug_str:0000000000018efb .LASF4422
C:\Users\CYMR90~1\AppData\Local\Temp\ccYIfAxE.s:24678  .debug_str:0000000000013849 .LASF4423
C:\Users\CYMR90~1\AppData\Local\Temp\ccYIfAxE.s:26821  .debug_str:000000000001c0ae .LASF4424
C:\Users\CYMR90~1\AppData\Local\Temp\ccYIfAxE.s:26637  .debug_str:000000000001b509 .LASF4425
C:\Users\CYMR90~1\AppData\Local\Temp\ccYIfAxE.s:25052  .debug_str:0000000000014f1d .LASF4426
C:\Users\CYMR90~1\AppData\Local\Temp\ccYIfAxE.s:19930  .debug_str:0000000000000d61 .LASF4427
C:\Users\CYMR90~1\AppData\Local\Temp\ccYIfAxE.s:29535  .debug_str:0000000000026a85 .LASF4428
C:\Users\CYMR90~1\AppData\Local\Temp\ccYIfAxE.s:24206  .debug_str:0000000000011930 .LASF4429
C:\Users\CYMR90~1\AppData\Local\Temp\ccYIfAxE.s:28197  .debug_str:00000000000215f4 .LASF4430
C:\Users\CYMR90~1\AppData\Local\Temp\ccYIfAxE.s:20636  .debug_str:00000000000038fb .LASF4431
C:\Users\CYMR90~1\AppData\Local\Temp\ccYIfAxE.s:26045  .debug_str:0000000000018c62 .LASF4432
C:\Users\CYMR90~1\AppData\Local\Temp\ccYIfAxE.s:27799  .debug_str:000000000001fe4a .LASF4433
C:\Users\CYMR90~1\AppData\Local\Temp\ccYIfAxE.s:26941  .debug_str:000000000001c7c3 .LASF4434
C:\Users\CYMR90~1\AppData\Local\Temp\ccYIfAxE.s:26967  .debug_str:000000000001c939 .LASF4435
C:\Users\CYMR90~1\AppData\Local\Temp\ccYIfAxE.s:27675  .debug_str:000000000001f706 .LASF4436
C:\Users\CYMR90~1\AppData\Local\Temp\ccYIfAxE.s:20820  .debug_str:00000000000044d6 .LASF4437
C:\Users\CYMR90~1\AppData\Local\Temp\ccYIfAxE.s:20746  .debug_str:0000000000004005 .LASF4438
C:\Users\CYMR90~1\AppData\Local\Temp\ccYIfAxE.s:28127  .debug_str:0000000000021220 .LASF4439
C:\Users\CYMR90~1\AppData\Local\Temp\ccYIfAxE.s:26057  .debug_str:0000000000018d15 .LASF4440
C:\Users\CYMR90~1\AppData\Local\Temp\ccYIfAxE.s:24730  .debug_str:0000000000013bf0 .LASF4441
C:\Users\CYMR90~1\AppData\Local\Temp\ccYIfAxE.s:28657  .debug_str:0000000000023238 .LASF4442
C:\Users\CYMR90~1\AppData\Local\Temp\ccYIfAxE.s:31251  .debug_str:000000000002d787 .LASF4443
C:\Users\CYMR90~1\AppData\Local\Temp\ccYIfAxE.s:22460  .debug_str:000000000000ac5d .LASF4444
C:\Users\CYMR90~1\AppData\Local\Temp\ccYIfAxE.s:23152  .debug_str:000000000000dae9 .LASF4445
C:\Users\CYMR90~1\AppData\Local\Temp\ccYIfAxE.s:28785  .debug_str:0000000000023927 .LASF4446
C:\Users\CYMR90~1\AppData\Local\Temp\ccYIfAxE.s:27301  .debug_str:000000000001dffd .LASF4447
C:\Users\CYMR90~1\AppData\Local\Temp\ccYIfAxE.s:19790  .debug_str:00000000000004e5 .LASF4448
C:\Users\CYMR90~1\AppData\Local\Temp\ccYIfAxE.s:20874  .debug_str:000000000000487a .LASF4449
C:\Users\CYMR90~1\AppData\Local\Temp\ccYIfAxE.s:23336  .debug_str:000000000000e549 .LASF4450
C:\Users\CYMR90~1\AppData\Local\Temp\ccYIfAxE.s:20266  .debug_str:0000000000002142 .LASF4451
C:\Users\CYMR90~1\AppData\Local\Temp\ccYIfAxE.s:24756  .debug_str:0000000000013d6e .LASF4452
C:\Users\CYMR90~1\AppData\Local\Temp\ccYIfAxE.s:24376  .debug_str:00000000000124b9 .LASF4453
C:\Users\CYMR90~1\AppData\Local\Temp\ccYIfAxE.s:20488  .debug_str:0000000000002f56 .LASF4454
C:\Users\CYMR90~1\AppData\Local\Temp\ccYIfAxE.s:21076  .debug_str:000000000000553c .LASF4455
C:\Users\CYMR90~1\AppData\Local\Temp\ccYIfAxE.s:20584  .debug_str:0000000000003583 .LASF4456
C:\Users\CYMR90~1\AppData\Local\Temp\ccYIfAxE.s:19744  .debug_str:0000000000000276 .LASF4457
C:\Users\CYMR90~1\AppData\Local\Temp\ccYIfAxE.s:22082  .debug_str:00000000000094dc .LASF4458
C:\Users\CYMR90~1\AppData\Local\Temp\ccYIfAxE.s:25534  .debug_str:0000000000016c80 .LASF4459
C:\Users\CYMR90~1\AppData\Local\Temp\ccYIfAxE.s:20478  .debug_str:0000000000002ecb .LASF4460
C:\Users\CYMR90~1\AppData\Local\Temp\ccYIfAxE.s:29657  .debug_str:0000000000027229 .LASF4461
C:\Users\CYMR90~1\AppData\Local\Temp\ccYIfAxE.s:25398  .debug_str:0000000000016459 .LASF4462
C:\Users\CYMR90~1\AppData\Local\Temp\ccYIfAxE.s:26069  .debug_str:0000000000018e6e .LASF4463
C:\Users\CYMR90~1\AppData\Local\Temp\ccYIfAxE.s:25364  .debug_str:00000000000161fc .LASF4464
C:\Users\CYMR90~1\AppData\Local\Temp\ccYIfAxE.s:28583  .debug_str:0000000000022d74 .LASF4465
C:\Users\CYMR90~1\AppData\Local\Temp\ccYIfAxE.s:24578  .debug_str:0000000000013187 .LASF4466
C:\Users\CYMR90~1\AppData\Local\Temp\ccYIfAxE.s:30337  .debug_str:0000000000029f0f .LASF4467
C:\Users\CYMR90~1\AppData\Local\Temp\ccYIfAxE.s:30577  .debug_str:000000000002accc .LASF4468
C:\Users\CYMR90~1\AppData\Local\Temp\ccYIfAxE.s:27193  .debug_str:000000000001d93f .LASF4469
C:\Users\CYMR90~1\AppData\Local\Temp\ccYIfAxE.s:29415  .debug_str:0000000000026321 .LASF4470
C:\Users\CYMR90~1\AppData\Local\Temp\ccYIfAxE.s:24100  .debug_str:000000000001129d .LASF4471
C:\Users\CYMR90~1\AppData\Local\Temp\ccYIfAxE.s:27353  .debug_str:000000000001e3d8 .LASF4472
C:\Users\CYMR90~1\AppData\Local\Temp\ccYIfAxE.s:22250  .debug_str:0000000000009f4d .LASF4473
C:\Users\CYMR90~1\AppData\Local\Temp\ccYIfAxE.s:26603  .debug_str:000000000001b2b4 .LASF4474
C:\Users\CYMR90~1\AppData\Local\Temp\ccYIfAxE.s:27191  .debug_str:000000000001d91a .LASF4475
C:\Users\CYMR90~1\AppData\Local\Temp\ccYIfAxE.s:22654  .debug_str:000000000000b98d .LASF4476
C:\Users\CYMR90~1\AppData\Local\Temp\ccYIfAxE.s:25739  .debug_str:00000000000179cc .LASF4477
C:\Users\CYMR90~1\AppData\Local\Temp\ccYIfAxE.s:26887  .debug_str:000000000001c4cc .LASF4478
C:\Users\CYMR90~1\AppData\Local\Temp\ccYIfAxE.s:24512  .debug_str:0000000000012d59 .LASF4479
C:\Users\CYMR90~1\AppData\Local\Temp\ccYIfAxE.s:28083  .debug_str:0000000000020fda .LASF4480
C:\Users\CYMR90~1\AppData\Local\Temp\ccYIfAxE.s:22578  .debug_str:000000000000b49d .LASF4481
C:\Users\CYMR90~1\AppData\Local\Temp\ccYIfAxE.s:26573  .debug_str:000000000001b092 .LASF4482
C:\Users\CYMR90~1\AppData\Local\Temp\ccYIfAxE.s:25234  .debug_str:00000000000159e1 .LASF4483
C:\Users\CYMR90~1\AppData\Local\Temp\ccYIfAxE.s:24560  .debug_str:0000000000013064 .LASF4484
C:\Users\CYMR90~1\AppData\Local\Temp\ccYIfAxE.s:30953  .debug_str:000000000002c3de .LASF4485
C:\Users\CYMR90~1\AppData\Local\Temp\ccYIfAxE.s:26197  .debug_str:0000000000019747 .LASF4486
C:\Users\CYMR90~1\AppData\Local\Temp\ccYIfAxE.s:25737  .debug_str:00000000000179b4 .LASF4487
C:\Users\CYMR90~1\AppData\Local\Temp\ccYIfAxE.s:27215  .debug_str:000000000001dadc .LASF4488
C:\Users\CYMR90~1\AppData\Local\Temp\ccYIfAxE.s:28917  .debug_str:00000000000240fb .LASF4489
C:\Users\CYMR90~1\AppData\Local\Temp\ccYIfAxE.s:21110  .debug_str:0000000000005745 .LASF4490
C:\Users\CYMR90~1\AppData\Local\Temp\ccYIfAxE.s:20040  .debug_str:000000000000146e .LASF4491
C:\Users\CYMR90~1\AppData\Local\Temp\ccYIfAxE.s:27543  .debug_str:000000000001eef4 .LASF4492
C:\Users\CYMR90~1\AppData\Local\Temp\ccYIfAxE.s:28277  .debug_str:0000000000021b50 .LASF4493
C:\Users\CYMR90~1\AppData\Local\Temp\ccYIfAxE.s:30523  .debug_str:000000000002a97e .LASF4494
C:\Users\CYMR90~1\AppData\Local\Temp\ccYIfAxE.s:24226  .debug_str:0000000000011a5e .LASF4495
C:\Users\CYMR90~1\AppData\Local\Temp\ccYIfAxE.s:30163  .debug_str:0000000000029400 .LASF4496
C:\Users\CYMR90~1\AppData\Local\Temp\ccYIfAxE.s:25012  .debug_str:0000000000014cd0 .LASF4497
C:\Users\CYMR90~1\AppData\Local\Temp\ccYIfAxE.s:22538  .debug_str:000000000000b21a .LASF4498
C:\Users\CYMR90~1\AppData\Local\Temp\ccYIfAxE.s:28045  .debug_str:0000000000020d90 .LASF4499
C:\Users\CYMR90~1\AppData\Local\Temp\ccYIfAxE.s:21974  .debug_str:0000000000008e80 .LASF4500
C:\Users\CYMR90~1\AppData\Local\Temp\ccYIfAxE.s:25653  .debug_str:000000000001750b .LASF4501
C:\Users\CYMR90~1\AppData\Local\Temp\ccYIfAxE.s:28877  .debug_str:0000000000023eef .LASF4502
C:\Users\CYMR90~1\AppData\Local\Temp\ccYIfAxE.s:29729  .debug_str:0000000000027698 .LASF4503
C:\Users\CYMR90~1\AppData\Local\Temp\ccYIfAxE.s:25050  .debug_str:0000000000014f09 .LASF4504
C:\Users\CYMR90~1\AppData\Local\Temp\ccYIfAxE.s:27445  .debug_str:000000000001e8eb .LASF4505
C:\Users\CYMR90~1\AppData\Local\Temp\ccYIfAxE.s:22968  .debug_str:000000000000cefa .LASF4506
C:\Users\CYMR90~1\AppData\Local\Temp\ccYIfAxE.s:24824  .debug_str:0000000000014158 .LASF4507
C:\Users\CYMR90~1\AppData\Local\Temp\ccYIfAxE.s:27269  .debug_str:000000000001de26 .LASF4508
C:\Users\CYMR90~1\AppData\Local\Temp\ccYIfAxE.s:24588  .debug_str:0000000000013230 .LASF4509
C:\Users\CYMR90~1\AppData\Local\Temp\ccYIfAxE.s:28117  .debug_str:00000000000211a0 .LASF4510
C:\Users\CYMR90~1\AppData\Local\Temp\ccYIfAxE.s:23522  .debug_str:000000000000f098 .LASF4511
C:\Users\CYMR90~1\AppData\Local\Temp\ccYIfAxE.s:27213  .debug_str:000000000001dac7 .LASF4512
C:\Users\CYMR90~1\AppData\Local\Temp\ccYIfAxE.s:20880  .debug_str:0000000000004900 .LASF4513
C:\Users\CYMR90~1\AppData\Local\Temp\ccYIfAxE.s:28307  .debug_str:0000000000021d4f .LASF4514
C:\Users\CYMR90~1\AppData\Local\Temp\ccYIfAxE.s:26929  .debug_str:000000000001c733 .LASF4515
C:\Users\CYMR90~1\AppData\Local\Temp\ccYIfAxE.s:21884  .debug_str:00000000000088e5 .LASF4516
C:\Users\CYMR90~1\AppData\Local\Temp\ccYIfAxE.s:30651  .debug_str:000000000002b146 .LASF4517
C:\Users\CYMR90~1\AppData\Local\Temp\ccYIfAxE.s:21736  .debug_str:0000000000007e65 .LASF4518
C:\Users\CYMR90~1\AppData\Local\Temp\ccYIfAxE.s:19804  .debug_str:00000000000005bf .LASF4519
C:\Users\CYMR90~1\AppData\Local\Temp\ccYIfAxE.s:29133  .debug_str:0000000000024f58 .LASF4520
C:\Users\CYMR90~1\AppData\Local\Temp\ccYIfAxE.s:25973  .debug_str:00000000000187d5 .LASF4521
C:\Users\CYMR90~1\AppData\Local\Temp\ccYIfAxE.s:29519  .debug_str:0000000000026990 .LASF4522
C:\Users\CYMR90~1\AppData\Local\Temp\ccYIfAxE.s:28725  .debug_str:00000000000235e7 .LASF4523
C:\Users\CYMR90~1\AppData\Local\Temp\ccYIfAxE.s:30471  .debug_str:000000000002a681 .LASF4524
C:\Users\CYMR90~1\AppData\Local\Temp\ccYIfAxE.s:22818  .debug_str:000000000000c4b1 .LASF4525
C:\Users\CYMR90~1\AppData\Local\Temp\ccYIfAxE.s:21310  .debug_str:000000000000635c .LASF4526
C:\Users\CYMR90~1\AppData\Local\Temp\ccYIfAxE.s:20932  .debug_str:0000000000004caf .LASF4527
C:\Users\CYMR90~1\AppData\Local\Temp\ccYIfAxE.s:26741  .debug_str:000000000001bc29 .LASF4528
C:\Users\CYMR90~1\AppData\Local\Temp\ccYIfAxE.s:23230  .debug_str:000000000000df0e .LASF4529
C:\Users\CYMR90~1\AppData\Local\Temp\ccYIfAxE.s:24670  .debug_str:00000000000137b3 .LASF4530
C:\Users\CYMR90~1\AppData\Local\Temp\ccYIfAxE.s:21952  .debug_str:0000000000008d28 .LASF4531
C:\Users\CYMR90~1\AppData\Local\Temp\ccYIfAxE.s:25242  .debug_str:0000000000015a58 .LASF4532
C:\Users\CYMR90~1\AppData\Local\Temp\ccYIfAxE.s:29271  .debug_str:0000000000025911 .LASF4533
C:\Users\CYMR90~1\AppData\Local\Temp\ccYIfAxE.s:20334  .debug_str:000000000000254a .LASF4534
C:\Users\CYMR90~1\AppData\Local\Temp\ccYIfAxE.s:23568  .debug_str:000000000000f305 .LASF4535
C:\Users\CYMR90~1\AppData\Local\Temp\ccYIfAxE.s:19948  .debug_str:0000000000000e88 .LASF4536
C:\Users\CYMR90~1\AppData\Local\Temp\ccYIfAxE.s:24050  .debug_str:000000000001101e .LASF4537
C:\Users\CYMR90~1\AppData\Local\Temp\ccYIfAxE.s:22700  .debug_str:000000000000bc76 .LASF4538
C:\Users\CYMR90~1\AppData\Local\Temp\ccYIfAxE.s:27809  .debug_str:000000000001fee2 .LASF4539
C:\Users\CYMR90~1\AppData\Local\Temp\ccYIfAxE.s:26761  .debug_str:000000000001bd14 .LASF4540
C:\Users\CYMR90~1\AppData\Local\Temp\ccYIfAxE.s:24476  .debug_str:0000000000012aed .LASF4541
C:\Users\CYMR90~1\AppData\Local\Temp\ccYIfAxE.s:20328  .debug_str:00000000000024fd .LASF4542
C:\Users\CYMR90~1\AppData\Local\Temp\ccYIfAxE.s:27161  .debug_str:000000000001d744 .LASF4543
C:\Users\CYMR90~1\AppData\Local\Temp\ccYIfAxE.s:22942  .debug_str:000000000000cccf .LASF4544
C:\Users\CYMR90~1\AppData\Local\Temp\ccYIfAxE.s:30635  .debug_str:000000000002b061 .LASF4545
C:\Users\CYMR90~1\AppData\Local\Temp\ccYIfAxE.s:26431  .debug_str:000000000001a773 .LASF4546
C:\Users\CYMR90~1\AppData\Local\Temp\ccYIfAxE.s:28695  .debug_str:000000000002345f .LASF4547
C:\Users\CYMR90~1\AppData\Local\Temp\ccYIfAxE.s:30295  .debug_str:0000000000029c4c .LASF4548
C:\Users\CYMR90~1\AppData\Local\Temp\ccYIfAxE.s:25498  .debug_str:00000000000169dd .LASF4549
C:\Users\CYMR90~1\AppData\Local\Temp\ccYIfAxE.s:26165  .debug_str:0000000000019540 .LASF4550
C:\Users\CYMR90~1\AppData\Local\Temp\ccYIfAxE.s:21108  .debug_str:000000000000572c .LASF4551
C:\Users\CYMR90~1\AppData\Local\Temp\ccYIfAxE.s:24900  .debug_str:000000000001463a .LASF4552
C:\Users\CYMR90~1\AppData\Local\Temp\ccYIfAxE.s:22066  .debug_str:00000000000093ca .LASF4553
C:\Users\CYMR90~1\AppData\Local\Temp\ccYIfAxE.s:27065  .debug_str:000000000001d046 .LASF4554
C:\Users\CYMR90~1\AppData\Local\Temp\ccYIfAxE.s:28407  .debug_str:000000000002232f .LASF4555
C:\Users\CYMR90~1\AppData\Local\Temp\ccYIfAxE.s:23186  .debug_str:000000000000dcb3 .LASF4556
C:\Users\CYMR90~1\AppData\Local\Temp\ccYIfAxE.s:30799  .debug_str:000000000002b9cb .LASF4557
C:\Users\CYMR90~1\AppData\Local\Temp\ccYIfAxE.s:22720  .debug_str:000000000000bde7 .LASF4558
C:\Users\CYMR90~1\AppData\Local\Temp\ccYIfAxE.s:27997  .debug_str:0000000000020ad7 .LASF4559
C:\Users\CYMR90~1\AppData\Local\Temp\ccYIfAxE.s:25348  .debug_str:00000000000160e3 .LASF4560
C:\Users\CYMR90~1\AppData\Local\Temp\ccYIfAxE.s:28865  .debug_str:0000000000023e22 .LASF4561
C:\Users\CYMR90~1\AppData\Local\Temp\ccYIfAxE.s:30769  .debug_str:000000000002b7d1 .LASF4562
C:\Users\CYMR90~1\AppData\Local\Temp\ccYIfAxE.s:28193  .debug_str:00000000000215b1 .LASF4563
C:\Users\CYMR90~1\AppData\Local\Temp\ccYIfAxE.s:28553  .debug_str:0000000000022b64 .LASF4564
C:\Users\CYMR90~1\AppData\Local\Temp\ccYIfAxE.s:30361  .debug_str:000000000002a06e .LASF4565
C:\Users\CYMR90~1\AppData\Local\Temp\ccYIfAxE.s:21934  .debug_str:0000000000008c03 .LASF4566
C:\Users\CYMR90~1\AppData\Local\Temp\ccYIfAxE.s:29309  .debug_str:0000000000025c07 .LASF4567
C:\Users\CYMR90~1\AppData\Local\Temp\ccYIfAxE.s:26485  .debug_str:000000000001aaff .LASF4568
C:\Users\CYMR90~1\AppData\Local\Temp\ccYIfAxE.s:19944  .debug_str:0000000000000e4a .LASF4569
C:\Users\CYMR90~1\AppData\Local\Temp\ccYIfAxE.s:28527  .debug_str:00000000000229fe .LASF4570
C:\Users\CYMR90~1\AppData\Local\Temp\ccYIfAxE.s:30277  .debug_str:0000000000029b34 .LASF4571
C:\Users\CYMR90~1\AppData\Local\Temp\ccYIfAxE.s:20418  .debug_str:0000000000002ae3 .LASF4572
C:\Users\CYMR90~1\AppData\Local\Temp\ccYIfAxE.s:23500  .debug_str:000000000000ef7a .LASF4573
C:\Users\CYMR90~1\AppData\Local\Temp\ccYIfAxE.s:27519  .debug_str:000000000001ed96 .LASF4574
C:\Users\CYMR90~1\AppData\Local\Temp\ccYIfAxE.s:22974  .debug_str:000000000000cf3e .LASF4575
C:\Users\CYMR90~1\AppData\Local\Temp\ccYIfAxE.s:24798  .debug_str:0000000000014008 .LASF4576
C:\Users\CYMR90~1\AppData\Local\Temp\ccYIfAxE.s:29219  .debug_str:00000000000254c4 .LASF4577
C:\Users\CYMR90~1\AppData\Local\Temp\ccYIfAxE.s:30241  .debug_str:00000000000298b2 .LASF4578
C:\Users\CYMR90~1\AppData\Local\Temp\ccYIfAxE.s:24804  .debug_str:000000000001404c .LASF4579
C:\Users\CYMR90~1\AppData\Local\Temp\ccYIfAxE.s:21236  .debug_str:0000000000005ee9 .LASF4580
C:\Users\CYMR90~1\AppData\Local\Temp\ccYIfAxE.s:20812  .debug_str:000000000000444a .LASF4581
C:\Users\CYMR90~1\AppData\Local\Temp\ccYIfAxE.s:28315  .debug_str:0000000000021dbf .LASF4582
C:\Users\CYMR90~1\AppData\Local\Temp\ccYIfAxE.s:27825  .debug_str:000000000001ffe0 .LASF4583
C:\Users\CYMR90~1\AppData\Local\Temp\ccYIfAxE.s:24680  .debug_str:000000000001386f .LASF4584
C:\Users\CYMR90~1\AppData\Local\Temp\ccYIfAxE.s:27541  .debug_str:000000000001eeda .LASF4585
C:\Users\CYMR90~1\AppData\Local\Temp\ccYIfAxE.s:29543  .debug_str:0000000000026b1d .LASF4586
C:\Users\CYMR90~1\AppData\Local\Temp\ccYIfAxE.s:30755  .debug_str:000000000002b70f .LASF4587
C:\Users\CYMR90~1\AppData\Local\Temp\ccYIfAxE.s:29459  .debug_str:000000000002662d .LASF4588
C:\Users\CYMR90~1\AppData\Local\Temp\ccYIfAxE.s:20094  .debug_str:000000000000177d .LASF4589
C:\Users\CYMR90~1\AppData\Local\Temp\ccYIfAxE.s:27407  .debug_str:000000000001e6cf .LASF4590
C:\Users\CYMR90~1\AppData\Local\Temp\ccYIfAxE.s:22904  .debug_str:000000000000c9be .LASF4591
C:\Users\CYMR90~1\AppData\Local\Temp\ccYIfAxE.s:22382  .debug_str:000000000000a7df .LASF4592
C:\Users\CYMR90~1\AppData\Local\Temp\ccYIfAxE.s:31107  .debug_str:000000000002ce35 .LASF4593
C:\Users\CYMR90~1\AppData\Local\Temp\ccYIfAxE.s:30457  .debug_str:000000000002a5b9 .LASF4594
C:\Users\CYMR90~1\AppData\Local\Temp\ccYIfAxE.s:28033  .debug_str:0000000000020cee .LASF4595
C:\Users\CYMR90~1\AppData\Local\Temp\ccYIfAxE.s:20792  .debug_str:0000000000004348 .LASF4596
C:\Users\CYMR90~1\AppData\Local\Temp\ccYIfAxE.s:29631  .debug_str:0000000000027096 .LASF4597
C:\Users\CYMR90~1\AppData\Local\Temp\ccYIfAxE.s:26945  .debug_str:000000000001c80c .LASF4598
C:\Users\CYMR90~1\AppData\Local\Temp\ccYIfAxE.s:29605  .debug_str:0000000000026f13 .LASF4599
C:\Users\CYMR90~1\AppData\Local\Temp\ccYIfAxE.s:24836  .debug_str:0000000000014214 .LASF4600
C:\Users\CYMR90~1\AppData\Local\Temp\ccYIfAxE.s:23706  .debug_str:000000000000fc0b .LASF4601
C:\Users\CYMR90~1\AppData\Local\Temp\ccYIfAxE.s:27511  .debug_str:000000000001ed24 .LASF4602
C:\Users\CYMR90~1\AppData\Local\Temp\ccYIfAxE.s:21168  .debug_str:0000000000005af6 .LASF4603
C:\Users\CYMR90~1\AppData\Local\Temp\ccYIfAxE.s:28745  .debug_str:00000000000236ea .LASF4604
C:\Users\CYMR90~1\AppData\Local\Temp\ccYIfAxE.s:26099  .debug_str:000000000001907e .LASF4605
C:\Users\CYMR90~1\AppData\Local\Temp\ccYIfAxE.s:20296  .debug_str:0000000000002302 .LASF4606
C:\Users\CYMR90~1\AppData\Local\Temp\ccYIfAxE.s:20512  .debug_str:00000000000030bc .LASF4607
C:\Users\CYMR90~1\AppData\Local\Temp\ccYIfAxE.s:29423  .debug_str:00000000000263dd .LASF4608
C:\Users\CYMR90~1\AppData\Local\Temp\ccYIfAxE.s:25250  .debug_str:0000000000015ac4 .LASF4609
C:\Users\CYMR90~1\AppData\Local\Temp\ccYIfAxE.s:31257  .debug_str:000000000002d809 .LASF4610
C:\Users\CYMR90~1\AppData\Local\Temp\ccYIfAxE.s:22056  .debug_str:000000000000934c .LASF4611
C:\Users\CYMR90~1\AppData\Local\Temp\ccYIfAxE.s:30037  .debug_str:0000000000028bc6 .LASF4612
C:\Users\CYMR90~1\AppData\Local\Temp\ccYIfAxE.s:31255  .debug_str:000000000002d7d0 .LASF4613
C:\Users\CYMR90~1\AppData\Local\Temp\ccYIfAxE.s:27337  .debug_str:000000000001e2c8 .LASF4614
C:\Users\CYMR90~1\AppData\Local\Temp\ccYIfAxE.s:21500  .debug_str:0000000000006ec9 .LASF4615
C:\Users\CYMR90~1\AppData\Local\Temp\ccYIfAxE.s:20946  .debug_str:0000000000004d93 .LASF4616
C:\Users\CYMR90~1\AppData\Local\Temp\ccYIfAxE.s:24154  .debug_str:00000000000115c0 .LASF4617
C:\Users\CYMR90~1\AppData\Local\Temp\ccYIfAxE.s:30899  .debug_str:000000000002c085 .LASF4618
C:\Users\CYMR90~1\AppData\Local\Temp\ccYIfAxE.s:24612  .debug_str:00000000000133b1 .LASF4619
C:\Users\CYMR90~1\AppData\Local\Temp\ccYIfAxE.s:30525  .debug_str:000000000002a997 .LASF4620
C:\Users\CYMR90~1\AppData\Local\Temp\ccYIfAxE.s:29575  .debug_str:0000000000026d24 .LASF4621
C:\Users\CYMR90~1\AppData\Local\Temp\ccYIfAxE.s:29797  .debug_str:0000000000027b7e .LASF4622
C:\Users\CYMR90~1\AppData\Local\Temp\ccYIfAxE.s:30341  .debug_str:0000000000029f46 .LASF4623
C:\Users\CYMR90~1\AppData\Local\Temp\ccYIfAxE.s:26851  .debug_str:000000000001c29c .LASF4624
C:\Users\CYMR90~1\AppData\Local\Temp\ccYIfAxE.s:26315  .debug_str:0000000000019f36 .LASF4625
C:\Users\CYMR90~1\AppData\Local\Temp\ccYIfAxE.s:21796  .debug_str:0000000000008379 .LASF4626
C:\Users\CYMR90~1\AppData\Local\Temp\ccYIfAxE.s:27033  .debug_str:000000000001ce2e .LASF4627
C:\Users\CYMR90~1\AppData\Local\Temp\ccYIfAxE.s:26621  .debug_str:000000000001b3d0 .LASF4628
C:\Users\CYMR90~1\AppData\Local\Temp\ccYIfAxE.s:28595  .debug_str:0000000000022e1c .LASF4629
C:\Users\CYMR90~1\AppData\Local\Temp\ccYIfAxE.s:29529  .debug_str:0000000000026a2c .LASF4630
C:\Users\CYMR90~1\AppData\Local\Temp\ccYIfAxE.s:20210  .debug_str:0000000000001e53 .LASF4631
C:\Users\CYMR90~1\AppData\Local\Temp\ccYIfAxE.s:25430  .debug_str:0000000000016629 .LASF4632
C:\Users\CYMR90~1\AppData\Local\Temp\ccYIfAxE.s:20524  .debug_str:00000000000031b7 .LASF4633
C:\Users\CYMR90~1\AppData\Local\Temp\ccYIfAxE.s:22788  .debug_str:000000000000c2f9 .LASF4634
C:\Users\CYMR90~1\AppData\Local\Temp\ccYIfAxE.s:27523  .debug_str:000000000001edc8 .LASF4635
C:\Users\CYMR90~1\AppData\Local\Temp\ccYIfAxE.s:20000  .debug_str:000000000000120c .LASF4636
C:\Users\CYMR90~1\AppData\Local\Temp\ccYIfAxE.s:29251  .debug_str:0000000000025707 .LASF4637
C:\Users\CYMR90~1\AppData\Local\Temp\ccYIfAxE.s:21908  .debug_str:0000000000008a29 .LASF4638
C:\Users\CYMR90~1\AppData\Local\Temp\ccYIfAxE.s:27133  .debug_str:000000000001d5b6 .LASF4639
C:\Users\CYMR90~1\AppData\Local\Temp\ccYIfAxE.s:27151  .debug_str:000000000001d6ad .LASF4640
C:\Users\CYMR90~1\AppData\Local\Temp\ccYIfAxE.s:28139  .debug_str:00000000000212ca .LASF4641
C:\Users\CYMR90~1\AppData\Local\Temp\ccYIfAxE.s:26563  .debug_str:000000000001affe .LASF4642
C:\Users\CYMR90~1\AppData\Local\Temp\ccYIfAxE.s:21204  .debug_str:0000000000005d36 .LASF4643
C:\Users\CYMR90~1\AppData\Local\Temp\ccYIfAxE.s:29999  .debug_str:00000000000288d6 .LASF4644
C:\Users\CYMR90~1\AppData\Local\Temp\ccYIfAxE.s:28871  .debug_str:0000000000023e9e .LASF4645
C:\Users\CYMR90~1\AppData\Local\Temp\ccYIfAxE.s:25140  .debug_str:0000000000015486 .LASF4646
C:\Users\CYMR90~1\AppData\Local\Temp\ccYIfAxE.s:27271  .debug_str:000000000001de3b .LASF4647
C:\Users\CYMR90~1\AppData\Local\Temp\ccYIfAxE.s:20484  .debug_str:0000000000002f1a .LASF4648
C:\Users\CYMR90~1\AppData\Local\Temp\ccYIfAxE.s:19730  .debug_str:00000000000001c9 .LASF4649
C:\Users\CYMR90~1\AppData\Local\Temp\ccYIfAxE.s:26267  .debug_str:0000000000019c17 .LASF4650
C:\Users\CYMR90~1\AppData\Local\Temp\ccYIfAxE.s:23998  .debug_str:0000000000010c3c .LASF4651
C:\Users\CYMR90~1\AppData\Local\Temp\ccYIfAxE.s:20810  .debug_str:0000000000004432 .LASF4652
C:\Users\CYMR90~1\AppData\Local\Temp\ccYIfAxE.s:22886  .debug_str:000000000000c884 .LASF4653
C:\Users\CYMR90~1\AppData\Local\Temp\ccYIfAxE.s:29587  .debug_str:0000000000026e09 .LASF4654
C:\Users\CYMR90~1\AppData\Local\Temp\ccYIfAxE.s:19762  .debug_str:0000000000000348 .LASF4655
C:\Users\CYMR90~1\AppData\Local\Temp\ccYIfAxE.s:30129  .debug_str:00000000000291ff .LASF4656
C:\Users\CYMR90~1\AppData\Local\Temp\ccYIfAxE.s:30259  .debug_str:00000000000299a8 .LASF4657
C:\Users\CYMR90~1\AppData\Local\Temp\ccYIfAxE.s:20840  .debug_str:000000000000462c .LASF4658
C:\Users\CYMR90~1\AppData\Local\Temp\ccYIfAxE.s:22528  .debug_str:000000000000b0cb .LASF4659
C:\Users\CYMR90~1\AppData\Local\Temp\ccYIfAxE.s:19782  .debug_str:0000000000000484 .LASF4660
C:\Users\CYMR90~1\AppData\Local\Temp\ccYIfAxE.s:27497  .debug_str:000000000001ec3d .LASF4661
C:\Users\CYMR90~1\AppData\Local\Temp\ccYIfAxE.s:25617  .debug_str:0000000000017307 .LASF4662
C:\Users\CYMR90~1\AppData\Local\Temp\ccYIfAxE.s:20346  .debug_str:0000000000002626 .LASF4663
C:\Users\CYMR90~1\AppData\Local\Temp\ccYIfAxE.s:29697  .debug_str:00000000000274ac .LASF4664
C:\Users\CYMR90~1\AppData\Local\Temp\ccYIfAxE.s:31061  .debug_str:000000000002cb5e .LASF4665
C:\Users\CYMR90~1\AppData\Local\Temp\ccYIfAxE.s:27961  .debug_str:00000000000207e3 .LASF4666
C:\Users\CYMR90~1\AppData\Local\Temp\ccYIfAxE.s:22882  .debug_str:000000000000c83a .LASF4667
C:\Users\CYMR90~1\AppData\Local\Temp\ccYIfAxE.s:28603  .debug_str:0000000000022e8b .LASF4668
C:\Users\CYMR90~1\AppData\Local\Temp\ccYIfAxE.s:22784  .debug_str:000000000000c295 .LASF4669
C:\Users\CYMR90~1\AppData\Local\Temp\ccYIfAxE.s:28593  .debug_str:0000000000022dfe .LASF4670
C:\Users\CYMR90~1\AppData\Local\Temp\ccYIfAxE.s:30155  .debug_str:000000000002937f .LASF4671
C:\Users\CYMR90~1\AppData\Local\Temp\ccYIfAxE.s:21252  .debug_str:0000000000005fc9 .LASF4672
C:\Users\CYMR90~1\AppData\Local\Temp\ccYIfAxE.s:24118  .debug_str:00000000000113af .LASF4673
C:\Users\CYMR90~1\AppData\Local\Temp\ccYIfAxE.s:23274  .debug_str:000000000000e19f .LASF4674
C:\Users\CYMR90~1\AppData\Local\Temp\ccYIfAxE.s:20894  .debug_str:0000000000004a6b .LASF4675
C:\Users\CYMR90~1\AppData\Local\Temp\ccYIfAxE.s:22200  .debug_str:0000000000009c36 .LASF4676
C:\Users\CYMR90~1\AppData\Local\Temp\ccYIfAxE.s:24794  .debug_str:0000000000013fa8 .LASF4677
C:\Users\CYMR90~1\AppData\Local\Temp\ccYIfAxE.s:20708  .debug_str:0000000000003d44 .LASF4678
C:\Users\CYMR90~1\AppData\Local\Temp\ccYIfAxE.s:21494  .debug_str:0000000000006e4c .LASF4679
C:\Users\CYMR90~1\AppData\Local\Temp\ccYIfAxE.s:19704  .debug_str:000000000000002e .LASF4680
C:\Users\CYMR90~1\AppData\Local\Temp\ccYIfAxE.s:24102  .debug_str:00000000000112c1 .LASF4681
C:\Users\CYMR90~1\AppData\Local\Temp\ccYIfAxE.s:26521  .debug_str:000000000001ad16 .LASF4682
C:\Users\CYMR90~1\AppData\Local\Temp\ccYIfAxE.s:25562  .debug_str:0000000000016e35 .LASF4683
C:\Users\CYMR90~1\AppData\Local\Temp\ccYIfAxE.s:21620  .debug_str:00000000000076eb .LASF4684
C:\Users\CYMR90~1\AppData\Local\Temp\ccYIfAxE.s:29015  .debug_str:00000000000247c3 .LASF4685
C:\Users\CYMR90~1\AppData\Local\Temp\ccYIfAxE.s:23372  .debug_str:000000000000e766 .LASF4686
C:\Users\CYMR90~1\AppData\Local\Temp\ccYIfAxE.s:27621  .debug_str:000000000001f3ab .LASF4687
C:\Users\CYMR90~1\AppData\Local\Temp\ccYIfAxE.s:25066  .debug_str:000000000001500f .LASF4688
C:\Users\CYMR90~1\AppData\Local\Temp\ccYIfAxE.s:30331  .debug_str:0000000000029eac .LASF4689
C:\Users\CYMR90~1\AppData\Local\Temp\ccYIfAxE.s:26123  .debug_str:00000000000191b8 .LASF4690
C:\Users\CYMR90~1\AppData\Local\Temp\ccYIfAxE.s:29421  .debug_str:0000000000026384 .LASF4691
C:\Users\CYMR90~1\AppData\Local\Temp\ccYIfAxE.s:20340  .debug_str:0000000000002590 .LASF4692
C:\Users\CYMR90~1\AppData\Local\Temp\ccYIfAxE.s:27603  .debug_str:000000000001f267 .LASF4693
C:\Users\CYMR90~1\AppData\Local\Temp\ccYIfAxE.s:22376  .debug_str:000000000000a75a .LASF4694
C:\Users\CYMR90~1\AppData\Local\Temp\ccYIfAxE.s:19842  .debug_str:00000000000007d7 .LASF4695
C:\Users\CYMR90~1\AppData\Local\Temp\ccYIfAxE.s:26537  .debug_str:000000000001ae67 .LASF4696
C:\Users\CYMR90~1\AppData\Local\Temp\ccYIfAxE.s:29917  .debug_str:0000000000028307 .LASF4697
C:\Users\CYMR90~1\AppData\Local\Temp\ccYIfAxE.s:25218  .debug_str:00000000000158e3 .LASF4698
C:\Users\CYMR90~1\AppData\Local\Temp\ccYIfAxE.s:26185  .debug_str:0000000000019643 .LASF4699
C:\Users\CYMR90~1\AppData\Local\Temp\ccYIfAxE.s:22776  .debug_str:000000000000c20d .LASF4700
C:\Users\CYMR90~1\AppData\Local\Temp\ccYIfAxE.s:26245  .debug_str:0000000000019a4c .LASF4701
C:\Users\CYMR90~1\AppData\Local\Temp\ccYIfAxE.s:28195  .debug_str:00000000000215c9 .LASF4702
C:\Users\CYMR90~1\AppData\Local\Temp\ccYIfAxE.s:26269  .debug_str:0000000000019c52 .LASF4703
C:\Users\CYMR90~1\AppData\Local\Temp\ccYIfAxE.s:20788  .debug_str:00000000000042ff .LASF4704
C:\Users\CYMR90~1\AppData\Local\Temp\ccYIfAxE.s:22424  .debug_str:000000000000aa0f .LASF4705
C:\Users\CYMR90~1\AppData\Local\Temp\ccYIfAxE.s:23138  .debug_str:000000000000da0c .LASF4706
C:\Users\CYMR90~1\AppData\Local\Temp\ccYIfAxE.s:23700  .debug_str:000000000000fb99 .LASF4707
C:\Users\CYMR90~1\AppData\Local\Temp\ccYIfAxE.s:27615  .debug_str:000000000001f321 .LASF4708
C:\Users\CYMR90~1\AppData\Local\Temp\ccYIfAxE.s:23272  .debug_str:000000000000e163 .LASF4709
C:\Users\CYMR90~1\AppData\Local\Temp\ccYIfAxE.s:26639  .debug_str:000000000001b52f .LASF4710
C:\Users\CYMR90~1\AppData\Local\Temp\ccYIfAxE.s:30573  .debug_str:000000000002ac79 .LASF4711
C:\Users\CYMR90~1\AppData\Local\Temp\ccYIfAxE.s:24018  .debug_str:0000000000010dac .LASF4712
C:\Users\CYMR90~1\AppData\Local\Temp\ccYIfAxE.s:24764  .debug_str:0000000000013dc2 .LASF4713
C:\Users\CYMR90~1\AppData\Local\Temp\ccYIfAxE.s:28493  .debug_str:0000000000022844 .LASF4714
C:\Users\CYMR90~1\AppData\Local\Temp\ccYIfAxE.s:30677  .debug_str:000000000002b29c .LASF4715
C:\Users\CYMR90~1\AppData\Local\Temp\ccYIfAxE.s:23790  .debug_str:000000000001000d .LASF4716
C:\Users\CYMR90~1\AppData\Local\Temp\ccYIfAxE.s:28557  .debug_str:0000000000022ba2 .LASF4717
C:\Users\CYMR90~1\AppData\Local\Temp\ccYIfAxE.s:30917  .debug_str:000000000002c183 .LASF4718
C:\Users\CYMR90~1\AppData\Local\Temp\ccYIfAxE.s:29061  .debug_str:0000000000024ac3 .LASF4719
C:\Users\CYMR90~1\AppData\Local\Temp\ccYIfAxE.s:25502  .debug_str:0000000000016a1a .LASF4720
C:\Users\CYMR90~1\AppData\Local\Temp\ccYIfAxE.s:26999  .debug_str:000000000001cbf3 .LASF4721
C:\Users\CYMR90~1\AppData\Local\Temp\ccYIfAxE.s:26295  .debug_str:0000000000019df1 .LASF4722
C:\Users\CYMR90~1\AppData\Local\Temp\ccYIfAxE.s:23938  .debug_str:00000000000108ab .LASF4723
C:\Users\CYMR90~1\AppData\Local\Temp\ccYIfAxE.s:24386  .debug_str:000000000001254b .LASF4724
C:\Users\CYMR90~1\AppData\Local\Temp\ccYIfAxE.s:20586  .debug_str:00000000000035a5 .LASF4725
C:\Users\CYMR90~1\AppData\Local\Temp\ccYIfAxE.s:21484  .debug_str:0000000000006dc2 .LASF4726
C:\Users\CYMR90~1\AppData\Local\Temp\ccYIfAxE.s:24442  .debug_str:00000000000128af .LASF4727
C:\Users\CYMR90~1\AppData\Local\Temp\ccYIfAxE.s:30717  .debug_str:000000000002b4e6 .LASF4728
C:\Users\CYMR90~1\AppData\Local\Temp\ccYIfAxE.s:23390  .debug_str:000000000000e88b .LASF4729
C:\Users\CYMR90~1\AppData\Local\Temp\ccYIfAxE.s:26395  .debug_str:000000000001a3d9 .LASF4730
C:\Users\CYMR90~1\AppData\Local\Temp\ccYIfAxE.s:19928  .debug_str:0000000000000d4a .LASF4731
C:\Users\CYMR90~1\AppData\Local\Temp\ccYIfAxE.s:29921  .debug_str:0000000000028354 .LASF4732
C:\Users\CYMR90~1\AppData\Local\Temp\ccYIfAxE.s:31173  .debug_str:000000000002d280 .LASF4733
C:\Users\CYMR90~1\AppData\Local\Temp\ccYIfAxE.s:23170  .debug_str:000000000000dbda .LASF4734
C:\Users\CYMR90~1\AppData\Local\Temp\ccYIfAxE.s:25905  .debug_str:00000000000183fc .LASF4735
C:\Users\CYMR90~1\AppData\Local\Temp\ccYIfAxE.s:20084  .debug_str:00000000000016e7 .LASF4736
C:\Users\CYMR90~1\AppData\Local\Temp\ccYIfAxE.s:20824  .debug_str:0000000000004522 .LASF4737
C:\Users\CYMR90~1\AppData\Local\Temp\ccYIfAxE.s:25366  .debug_str:0000000000016223 .LASF4738
C:\Users\CYMR90~1\AppData\Local\Temp\ccYIfAxE.s:30641  .debug_str:000000000002b0b9 .LASF4739
C:\Users\CYMR90~1\AppData\Local\Temp\ccYIfAxE.s:29559  .debug_str:0000000000026c12 .LASF4740
C:\Users\CYMR90~1\AppData\Local\Temp\ccYIfAxE.s:30643  .debug_str:000000000002b0d7 .LASF4741
C:\Users\CYMR90~1\AppData\Local\Temp\ccYIfAxE.s:26933  .debug_str:000000000001c761 .LASF4742
C:\Users\CYMR90~1\AppData\Local\Temp\ccYIfAxE.s:20028  .debug_str:000000000000138f .LASF4743
C:\Users\CYMR90~1\AppData\Local\Temp\ccYIfAxE.s:29329  .debug_str:0000000000025d41 .LASF4744
C:\Users\CYMR90~1\AppData\Local\Temp\ccYIfAxE.s:26833  .debug_str:000000000001c182 .LASF4745
C:\Users\CYMR90~1\AppData\Local\Temp\ccYIfAxE.s:22648  .debug_str:000000000000b92e .LASF4746
C:\Users\CYMR90~1\AppData\Local\Temp\ccYIfAxE.s:23396  .debug_str:000000000000e8d9 .LASF4747
C:\Users\CYMR90~1\AppData\Local\Temp\ccYIfAxE.s:27973  .debug_str:00000000000208d5 .LASF4748
C:\Users\CYMR90~1\AppData\Local\Temp\ccYIfAxE.s:24574  .debug_str:0000000000013146 .LASF4749
C:\Users\CYMR90~1\AppData\Local\Temp\ccYIfAxE.s:29709  .debug_str:000000000002757e .LASF4750
C:\Users\CYMR90~1\AppData\Local\Temp\ccYIfAxE.s:25122  .debug_str:000000000001539d .LASF4751
C:\Users\CYMR90~1\AppData\Local\Temp\ccYIfAxE.s:24868  .debug_str:0000000000014405 .LASF4752
C:\Users\CYMR90~1\AppData\Local\Temp\ccYIfAxE.s:23926  .debug_str:0000000000010801 .LASF4753
C:\Users\CYMR90~1\AppData\Local\Temp\ccYIfAxE.s:27837  .debug_str:00000000000200a3 .LASF4754
C:\Users\CYMR90~1\AppData\Local\Temp\ccYIfAxE.s:23490  .debug_str:000000000000eef8 .LASF4755
C:\Users\CYMR90~1\AppData\Local\Temp\ccYIfAxE.s:21152  .debug_str:00000000000059df .LASF4756
C:\Users\CYMR90~1\AppData\Local\Temp\ccYIfAxE.s:30479  .debug_str:000000000002a6e7 .LASF4757
C:\Users\CYMR90~1\AppData\Local\Temp\ccYIfAxE.s:28151  .debug_str:000000000002136c .LASF4758
C:\Users\CYMR90~1\AppData\Local\Temp\ccYIfAxE.s:30995  .debug_str:000000000002c724 .LASF4759
C:\Users\CYMR90~1\AppData\Local\Temp\ccYIfAxE.s:23696  .debug_str:000000000000fb5c .LASF4760
C:\Users\CYMR90~1\AppData\Local\Temp\ccYIfAxE.s:22092  .debug_str:0000000000009579 .LASF4761
C:\Users\CYMR90~1\AppData\Local\Temp\ccYIfAxE.s:30675  .debug_str:000000000002b27a .LASF4762
C:\Users\CYMR90~1\AppData\Local\Temp\ccYIfAxE.s:28247  .debug_str:000000000002198c .LASF4763
C:\Users\CYMR90~1\AppData\Local\Temp\ccYIfAxE.s:30127  .debug_str:00000000000291db .LASF4764
C:\Users\CYMR90~1\AppData\Local\Temp\ccYIfAxE.s:21474  .debug_str:0000000000006d24 .LASF4765
C:\Users\CYMR90~1\AppData\Local\Temp\ccYIfAxE.s:30417  .debug_str:000000000002a36a .LASF4766
C:\Users\CYMR90~1\AppData\Local\Temp\ccYIfAxE.s:30291  .debug_str:0000000000029c02 .LASF4767
C:\Users\CYMR90~1\AppData\Local\Temp\ccYIfAxE.s:30023  .debug_str:0000000000028ae8 .LASF4768
C:\Users\CYMR90~1\AppData\Local\Temp\ccYIfAxE.s:29291  .debug_str:0000000000025a97 .LASF4769
C:\Users\CYMR90~1\AppData\Local\Temp\ccYIfAxE.s:26369  .debug_str:000000000001a25e .LASF4770
C:\Users\CYMR90~1\AppData\Local\Temp\ccYIfAxE.s:22260  .debug_str:0000000000009fed .LASF4771
C:\Users\CYMR90~1\AppData\Local\Temp\ccYIfAxE.s:23698  .debug_str:000000000000fb7e .LASF4772
C:\Users\CYMR90~1\AppData\Local\Temp\ccYIfAxE.s:20300  .debug_str:0000000000002335 .LASF4773
C:\Users\CYMR90~1\AppData\Local\Temp\ccYIfAxE.s:22410  .debug_str:000000000000a94e .LASF4774
C:\Users\CYMR90~1\AppData\Local\Temp\ccYIfAxE.s:27467  .debug_str:000000000001ea41 .LASF4775
C:\Users\CYMR90~1\AppData\Local\Temp\ccYIfAxE.s:25681  .debug_str:000000000001768a .LASF4776
C:\Users\CYMR90~1\AppData\Local\Temp\ccYIfAxE.s:23086  .debug_str:000000000000d66a .LASF4777
C:\Users\CYMR90~1\AppData\Local\Temp\ccYIfAxE.s:31049  .debug_str:000000000002ca4a .LASF4778
C:\Users\CYMR90~1\AppData\Local\Temp\ccYIfAxE.s:25520  .debug_str:0000000000016b22 .LASF4779
C:\Users\CYMR90~1\AppData\Local\Temp\ccYIfAxE.s:23166  .debug_str:000000000000db8e .LASF4780
C:\Users\CYMR90~1\AppData\Local\Temp\ccYIfAxE.s:20516  .debug_str:0000000000003139 .LASF4781
C:\Users\CYMR90~1\AppData\Local\Temp\ccYIfAxE.s:27705  .debug_str:000000000001f90d .LASF4782
C:\Users\CYMR90~1\AppData\Local\Temp\ccYIfAxE.s:25530  .debug_str:0000000000016c28 .LASF4783
C:\Users\CYMR90~1\AppData\Local\Temp\ccYIfAxE.s:21980  .debug_str:0000000000008ece .LASF4784
C:\Users\CYMR90~1\AppData\Local\Temp\ccYIfAxE.s:29791  .debug_str:0000000000027b33 .LASF4785
C:\Users\CYMR90~1\AppData\Local\Temp\ccYIfAxE.s:27373  .debug_str:000000000001e4d4 .LASF4786
C:\Users\CYMR90~1\AppData\Local\Temp\ccYIfAxE.s:20272  .debug_str:00000000000021ac .LASF4787
C:\Users\CYMR90~1\AppData\Local\Temp\ccYIfAxE.s:21434  .debug_str:0000000000006ac2 .LASF4788
C:\Users\CYMR90~1\AppData\Local\Temp\ccYIfAxE.s:29943  .debug_str:00000000000284ea .LASF4789
C:\Users\CYMR90~1\AppData\Local\Temp\ccYIfAxE.s:27397  .debug_str:000000000001e651 .LASF4790
C:\Users\CYMR90~1\AppData\Local\Temp\ccYIfAxE.s:21804  .debug_str:00000000000083dd .LASF4791
C:\Users\CYMR90~1\AppData\Local\Temp\ccYIfAxE.s:29853  .debug_str:0000000000027e93 .LASF4792
C:\Users\CYMR90~1\AppData\Local\Temp\ccYIfAxE.s:25260  .debug_str:0000000000015b53 .LASF4793
C:\Users\CYMR90~1\AppData\Local\Temp\ccYIfAxE.s:27071  .debug_str:000000000001d0a0 .LASF4794
C:\Users\CYMR90~1\AppData\Local\Temp\ccYIfAxE.s:27205  .debug_str:000000000001d9de .LASF4795
C:\Users\CYMR90~1\AppData\Local\Temp\ccYIfAxE.s:20256  .debug_str:00000000000020d1 .LASF4796
C:\Users\CYMR90~1\AppData\Local\Temp\ccYIfAxE.s:23726  .debug_str:000000000000fd04 .LASF4797
C:\Users\CYMR90~1\AppData\Local\Temp\ccYIfAxE.s:30455  .debug_str:000000000002a59a .LASF4798
C:\Users\CYMR90~1\AppData\Local\Temp\ccYIfAxE.s:23532  .debug_str:000000000000f109 .LASF4799
C:\Users\CYMR90~1\AppData\Local\Temp\ccYIfAxE.s:26991  .debug_str:000000000001cadd .LASF4800
C:\Users\CYMR90~1\AppData\Local\Temp\ccYIfAxE.s:22594  .debug_str:000000000000b593 .LASF4801
C:\Users\CYMR90~1\AppData\Local\Temp\ccYIfAxE.s:25835  .debug_str:0000000000017fc5 .LASF4802
C:\Users\CYMR90~1\AppData\Local\Temp\ccYIfAxE.s:23966  .debug_str:0000000000010a65 .LASF4803
C:\Users\CYMR90~1\AppData\Local\Temp\ccYIfAxE.s:20344  .debug_str:0000000000002604 .LASF4804
C:\Users\CYMR90~1\AppData\Local\Temp\ccYIfAxE.s:28685  .debug_str:00000000000233d9 .LASF4805
C:\Users\CYMR90~1\AppData\Local\Temp\ccYIfAxE.s:20070  .debug_str:00000000000015ec .LASF4806
C:\Users\CYMR90~1\AppData\Local\Temp\ccYIfAxE.s:19896  .debug_str:0000000000000b83 .LASF4807
C:\Users\CYMR90~1\AppData\Local\Temp\ccYIfAxE.s:20996  .debug_str:000000000000509a .LASF4808
C:\Users\CYMR90~1\AppData\Local\Temp\ccYIfAxE.s:21666  .debug_str:00000000000079ac .LASF4809
C:\Users\CYMR90~1\AppData\Local\Temp\ccYIfAxE.s:29511  .debug_str:0000000000026931 .LASF4810
C:\Users\CYMR90~1\AppData\Local\Temp\ccYIfAxE.s:20260  .debug_str:0000000000002106 .LASF4811
C:\Users\CYMR90~1\AppData\Local\Temp\ccYIfAxE.s:28213  .debug_str:0000000000021700 .LASF4812
C:\Users\CYMR90~1\AppData\Local\Temp\ccYIfAxE.s:22680  .debug_str:000000000000bb58 .LASF4813
C:\Users\CYMR90~1\AppData\Local\Temp\ccYIfAxE.s:28933  .debug_str:00000000000241ee .LASF4814
C:\Users\CYMR90~1\AppData\Local\Temp\ccYIfAxE.s:22020  .debug_str:000000000000916b .LASF4815
C:\Users\CYMR90~1\AppData\Local\Temp\ccYIfAxE.s:27823  .debug_str:000000000001ffca .LASF4816
C:\Users\CYMR90~1\AppData\Local\Temp\ccYIfAxE.s:28469  .debug_str:00000000000226e2 .LASF4817
C:\Users\CYMR90~1\AppData\Local\Temp\ccYIfAxE.s:29107  .debug_str:0000000000024d90 .LASF4818
C:\Users\CYMR90~1\AppData\Local\Temp\ccYIfAxE.s:28563  .debug_str:0000000000022c23 .LASF4819
C:\Users\CYMR90~1\AppData\Local\Temp\ccYIfAxE.s:25448  .debug_str:000000000001674e .LASF4820
C:\Users\CYMR90~1\AppData\Local\Temp\ccYIfAxE.s:25344  .debug_str:00000000000160aa .LASF4821
C:\Users\CYMR90~1\AppData\Local\Temp\ccYIfAxE.s:24918  .debug_str:0000000000014743 .LASF4822
C:\Users\CYMR90~1\AppData\Local\Temp\ccYIfAxE.s:27501  .debug_str:000000000001ec8c .LASF4823
C:\Users\CYMR90~1\AppData\Local\Temp\ccYIfAxE.s:24140  .debug_str:0000000000011501 .LASF4824
C:\Users\CYMR90~1\AppData\Local\Temp\ccYIfAxE.s:27249  .debug_str:000000000001dcfe .LASF4825
C:\Users\CYMR90~1\AppData\Local\Temp\ccYIfAxE.s:31229  .debug_str:000000000002d698 .LASF4826
C:\Users\CYMR90~1\AppData\Local\Temp\ccYIfAxE.s:23382  .debug_str:000000000000e809 .LASF4827
C:\Users\CYMR90~1\AppData\Local\Temp\ccYIfAxE.s:25933  .debug_str:000000000001858d .LASF4828
C:\Users\CYMR90~1\AppData\Local\Temp\ccYIfAxE.s:20122  .debug_str:0000000000001942 .LASF4829
C:\Users\CYMR90~1\AppData\Local\Temp\ccYIfAxE.s:20772  .debug_str:0000000000004186 .LASF4830
C:\Users\CYMR90~1\AppData\Local\Temp\ccYIfAxE.s:20776  .debug_str:0000000000004256 .LASF4831
C:\Users\CYMR90~1\AppData\Local\Temp\ccYIfAxE.s:24048  .debug_str:000000000001100a .LASF4832
C:\Users\CYMR90~1\AppData\Local\Temp\ccYIfAxE.s:28955  .debug_str:000000000002433e .LASF4833
C:\Users\CYMR90~1\AppData\Local\Temp\ccYIfAxE.s:22708  .debug_str:000000000000bd55 .LASF4834
C:\Users\CYMR90~1\AppData\Local\Temp\ccYIfAxE.s:22404  .debug_str:000000000000a8fd .LASF4835
C:\Users\CYMR90~1\AppData\Local\Temp\ccYIfAxE.s:28087  .debug_str:0000000000021039 .LASF4836
C:\Users\CYMR90~1\AppData\Local\Temp\ccYIfAxE.s:24108  .debug_str:000000000001132a .LASF4837
C:\Users\CYMR90~1\AppData\Local\Temp\ccYIfAxE.s:29389  .debug_str:00000000000261a5 .LASF4838
C:\Users\CYMR90~1\AppData\Local\Temp\ccYIfAxE.s:29019  .debug_str:0000000000024807 .LASF4839
C:\Users\CYMR90~1\AppData\Local\Temp\ccYIfAxE.s:23872  .debug_str:000000000001057b .LASF4840
C:\Users\CYMR90~1\AppData\Local\Temp\ccYIfAxE.s:25224  .debug_str:000000000001593b .LASF4841
C:\Users\CYMR90~1\AppData\Local\Temp\ccYIfAxE.s:30849  .debug_str:000000000002bd2b .LASF4842
C:\Users\CYMR90~1\AppData\Local\Temp\ccYIfAxE.s:29067  .debug_str:0000000000024b3b .LASF4843
C:\Users\CYMR90~1\AppData\Local\Temp\ccYIfAxE.s:26233  .debug_str:0000000000019948 .LASF4844
C:\Users\CYMR90~1\AppData\Local\Temp\ccYIfAxE.s:27277  .debug_str:000000000001dea2 .LASF4845
C:\Users\CYMR90~1\AppData\Local\Temp\ccYIfAxE.s:25434  .debug_str:0000000000016675 .LASF4846
C:\Users\CYMR90~1\AppData\Local\Temp\ccYIfAxE.s:22030  .debug_str:0000000000009205 .LASF4847
C:\Users\CYMR90~1\AppData\Local\Temp\ccYIfAxE.s:24016  .debug_str:0000000000010d86 .LASF4848
C:\Users\CYMR90~1\AppData\Local\Temp\ccYIfAxE.s:26031  .debug_str:0000000000018b83 .LASF4849
C:\Users\CYMR90~1\AppData\Local\Temp\ccYIfAxE.s:23122  .debug_str:000000000000d8fb .LASF4850
C:\Users\CYMR90~1\AppData\Local\Temp\ccYIfAxE.s:25462  .debug_str:00000000000167f9 .LASF4851
C:\Users\CYMR90~1\AppData\Local\Temp\ccYIfAxE.s:20722  .debug_str:0000000000003e53 .LASF4852
C:\Users\CYMR90~1\AppData\Local\Temp\ccYIfAxE.s:29817  .debug_str:0000000000027c88 .LASF4853
C:\Users\CYMR90~1\AppData\Local\Temp\ccYIfAxE.s:23354  .debug_str:000000000000e666 .LASF4854
C:\Users\CYMR90~1\AppData\Local\Temp\ccYIfAxE.s:20764  .debug_str:0000000000004103 .LASF4855
C:\Users\CYMR90~1\AppData\Local\Temp\ccYIfAxE.s:25056  .debug_str:0000000000014f67 .LASF4856
C:\Users\CYMR90~1\AppData\Local\Temp\ccYIfAxE.s:23350  .debug_str:000000000000e627 .LASF4857
C:\Users\CYMR90~1\AppData\Local\Temp\ccYIfAxE.s:20284  .debug_str:000000000000225a .LASF4858
C:\Users\CYMR90~1\AppData\Local\Temp\ccYIfAxE.s:30683  .debug_str:000000000002b300 .LASF4859
C:\Users\CYMR90~1\AppData\Local\Temp\ccYIfAxE.s:21926  .debug_str:0000000000008b63 .LASF4860
C:\Users\CYMR90~1\AppData\Local\Temp\ccYIfAxE.s:20470  .debug_str:0000000000002e57 .LASF4861
C:\Users\CYMR90~1\AppData\Local\Temp\ccYIfAxE.s:29907  .debug_str:000000000002825e .LASF4862
C:\Users\CYMR90~1\AppData\Local\Temp\ccYIfAxE.s:30407  .debug_str:000000000002a2ec .LASF4863
C:\Users\CYMR90~1\AppData\Local\Temp\ccYIfAxE.s:26359  .debug_str:000000000001a1bb .LASF4864
C:\Users\CYMR90~1\AppData\Local\Temp\ccYIfAxE.s:21954  .debug_str:0000000000008d3d .LASF4865
C:\Users\CYMR90~1\AppData\Local\Temp\ccYIfAxE.s:29335  .debug_str:0000000000025dd0 .LASF4866
C:\Users\CYMR90~1\AppData\Local\Temp\ccYIfAxE.s:25164  .debug_str:000000000001560c .LASF4867
C:\Users\CYMR90~1\AppData\Local\Temp\ccYIfAxE.s:31207  .debug_str:000000000002d474 .LASF4868
C:\Users\CYMR90~1\AppData\Local\Temp\ccYIfAxE.s:30075  .debug_str:0000000000028e8c .LASF4869
C:\Users\CYMR90~1\AppData\Local\Temp\ccYIfAxE.s:28779  .debug_str:00000000000238c5 .LASF4870
C:\Users\CYMR90~1\AppData\Local\Temp\ccYIfAxE.s:27567  .debug_str:000000000001f04d .LASF4871
C:\Users\CYMR90~1\AppData\Local\Temp\ccYIfAxE.s:23940  .debug_str:00000000000108e9 .LASF4872
C:\Users\CYMR90~1\AppData\Local\Temp\ccYIfAxE.s:31091  .debug_str:000000000002cd62 .LASF4873
C:\Users\CYMR90~1\AppData\Local\Temp\ccYIfAxE.s:29201  .debug_str:00000000000253ad .LASF4874
C:\Users\CYMR90~1\AppData\Local\Temp\ccYIfAxE.s:29111  .debug_str:0000000000024db9 .LASF4875
C:\Users\CYMR90~1\AppData\Local\Temp\ccYIfAxE.s:21530  .debug_str:00000000000070c9 .LASF4876
C:\Users\CYMR90~1\AppData\Local\Temp\ccYIfAxE.s:23580  .debug_str:000000000000f39e .LASF4877
C:\Users\CYMR90~1\AppData\Local\Temp\ccYIfAxE.s:29885  .debug_str:00000000000280b6 .LASF4878
C:\Users\CYMR90~1\AppData\Local\Temp\ccYIfAxE.s:27053  .debug_str:000000000001cf64 .LASF4879
C:\Users\CYMR90~1\AppData\Local\Temp\ccYIfAxE.s:29673  .debug_str:00000000000272f8 .LASF4880
C:\Users\CYMR90~1\AppData\Local\Temp\ccYIfAxE.s:25799  .debug_str:0000000000017db8 .LASF4881
C:\Users\CYMR90~1\AppData\Local\Temp\ccYIfAxE.s:20458  .debug_str:0000000000002d9a .LASF4882
C:\Users\CYMR90~1\AppData\Local\Temp\ccYIfAxE.s:21824  .debug_str:0000000000008536 .LASF4883
C:\Users\CYMR90~1\AppData\Local\Temp\ccYIfAxE.s:27039  .debug_str:000000000001ce81 .LASF4884
C:\Users\CYMR90~1\AppData\Local\Temp\ccYIfAxE.s:22450  .debug_str:000000000000abd0 .LASF4885
C:\Users\CYMR90~1\AppData\Local\Temp\ccYIfAxE.s:21400  .debug_str:000000000000687a .LASF4886
C:\Users\CYMR90~1\AppData\Local\Temp\ccYIfAxE.s:30311  .debug_str:0000000000029d50 .LASF4887
C:\Users\CYMR90~1\AppData\Local\Temp\ccYIfAxE.s:26653  .debug_str:000000000001b620 .LASF4888
C:\Users\CYMR90~1\AppData\Local\Temp\ccYIfAxE.s:20754  .debug_str:0000000000004086 .LASF4889
C:\Users\CYMR90~1\AppData\Local\Temp\ccYIfAxE.s:29411  .debug_str:00000000000262f6 .LASF4890
C:\Users\CYMR90~1\AppData\Local\Temp\ccYIfAxE.s:23428  .debug_str:000000000000eb1b .LASF4891
C:\Users\CYMR90~1\AppData\Local\Temp\ccYIfAxE.s:27123  .debug_str:000000000001d504 .LASF4892
C:\Users\CYMR90~1\AppData\Local\Temp\ccYIfAxE.s:24954  .debug_str:000000000001493c .LASF4893
C:\Users\CYMR90~1\AppData\Local\Temp\ccYIfAxE.s:22556  .debug_str:000000000000b350 .LASF4894
C:\Users\CYMR90~1\AppData\Local\Temp\ccYIfAxE.s:28105  .debug_str:00000000000210d1 .LASF4895
C:\Users\CYMR90~1\AppData\Local\Temp\ccYIfAxE.s:29525  .debug_str:00000000000269dc .LASF4896
C:\Users\CYMR90~1\AppData\Local\Temp\ccYIfAxE.s:27785  .debug_str:000000000001fd8e .LASF4897
C:\Users\CYMR90~1\AppData\Local\Temp\ccYIfAxE.s:28411  .debug_str:0000000000022360 .LASF4898
C:\Users\CYMR90~1\AppData\Local\Temp\ccYIfAxE.s:26623  .debug_str:000000000001b3e9 .LASF4899
C:\Users\CYMR90~1\AppData\Local\Temp\ccYIfAxE.s:27943  .debug_str:00000000000206ee .LASF4900
C:\Users\CYMR90~1\AppData\Local\Temp\ccYIfAxE.s:29471  .debug_str:00000000000266d6 .LASF4901
C:\Users\CYMR90~1\AppData\Local\Temp\ccYIfAxE.s:28937  .debug_str:0000000000024226 .LASF4902
C:\Users\CYMR90~1\AppData\Local\Temp\ccYIfAxE.s:24666  .debug_str:0000000000013771 .LASF4903
C:\Users\CYMR90~1\AppData\Local\Temp\ccYIfAxE.s:31261  .debug_str:000000000002d836 .LASF4904
C:\Users\CYMR90~1\AppData\Local\Temp\ccYIfAxE.s:21394  .debug_str:000000000000681b .LASF4905
C:\Users\CYMR90~1\AppData\Local\Temp\ccYIfAxE.s:20608  .debug_str:00000000000036ef .LASF4906
C:\Users\CYMR90~1\AppData\Local\Temp\ccYIfAxE.s:28659  .debug_str:000000000002325a .LASF4907
C:\Users\CYMR90~1\AppData\Local\Temp\ccYIfAxE.s:28611  .debug_str:0000000000022f23 .LASF4908
C:\Users\CYMR90~1\AppData\Local\Temp\ccYIfAxE.s:27885  .debug_str:00000000000203b4 .LASF4909
C:\Users\CYMR90~1\AppData\Local\Temp\ccYIfAxE.s:19880  .debug_str:0000000000000a29 .LASF4910
C:\Users\CYMR90~1\AppData\Local\Temp\ccYIfAxE.s:24736  .debug_str:0000000000013c55 .LASF4911
C:\Users\CYMR90~1\AppData\Local\Temp\ccYIfAxE.s:25883  .debug_str:0000000000018274 .LASF4912
C:\Users\CYMR90~1\AppData\Local\Temp\ccYIfAxE.s:24638  .debug_str:0000000000013552 .LASF4913
C:\Users\CYMR90~1\AppData\Local\Temp\ccYIfAxE.s:27099  .debug_str:000000000001d2fa .LASF4914
C:\Users\CYMR90~1\AppData\Local\Temp\ccYIfAxE.s:25092  .debug_str:00000000000151fe .LASF4915
C:\Users\CYMR90~1\AppData\Local\Temp\ccYIfAxE.s:20268  .debug_str:0000000000002165 .LASF4916
C:\Users\CYMR90~1\AppData\Local\Temp\ccYIfAxE.s:21778  .debug_str:00000000000081a4 .LASF4917
C:\Users\CYMR90~1\AppData\Local\Temp\ccYIfAxE.s:22840  .debug_str:000000000000c5cd .LASF4918
C:\Users\CYMR90~1\AppData\Local\Temp\ccYIfAxE.s:25246  .debug_str:0000000000015a8d .LASF4919
C:\Users\CYMR90~1\AppData\Local\Temp\ccYIfAxE.s:26781  .debug_str:000000000001be19 .LASF4920
C:\Users\CYMR90~1\AppData\Local\Temp\ccYIfAxE.s:20848  .debug_str:000000000000469e .LASF4921
C:\Users\CYMR90~1\AppData\Local\Temp\ccYIfAxE.s:21900  .debug_str:00000000000089c6 .LASF4922
C:\Users\CYMR90~1\AppData\Local\Temp\ccYIfAxE.s:23552  .debug_str:000000000000f220 .LASF4923
C:\Users\CYMR90~1\AppData\Local\Temp\ccYIfAxE.s:24714  .debug_str:0000000000013b0c .LASF4924
C:\Users\CYMR90~1\AppData\Local\Temp\ccYIfAxE.s:29037  .debug_str:0000000000024956 .LASF4925
C:\Users\CYMR90~1\AppData\Local\Temp\ccYIfAxE.s:21656  .debug_str:0000000000007937 .LASF4926
C:\Users\CYMR90~1\AppData\Local\Temp\ccYIfAxE.s:23770  .debug_str:000000000000ffa1 .LASF4927
C:\Users\CYMR90~1\AppData\Local\Temp\ccYIfAxE.s:28435  .debug_str:00000000000224c8 .LASF4928
C:\Users\CYMR90~1\AppData\Local\Temp\ccYIfAxE.s:30015  .debug_str:0000000000028a64 .LASF4929
C:\Users\CYMR90~1\AppData\Local\Temp\ccYIfAxE.s:28819  .debug_str:0000000000023b2c .LASF4930
C:\Users\CYMR90~1\AppData\Local\Temp\ccYIfAxE.s:25114  .debug_str:0000000000015320 .LASF4931
C:\Users\CYMR90~1\AppData\Local\Temp\ccYIfAxE.s:30791  .debug_str:000000000002b909 .LASF4932
C:\Users\CYMR90~1\AppData\Local\Temp\ccYIfAxE.s:22592  .debug_str:000000000000b56a .LASF4933
C:\Users\CYMR90~1\AppData\Local\Temp\ccYIfAxE.s:30275  .debug_str:0000000000029b0b .LASF4934
C:\Users\CYMR90~1\AppData\Local\Temp\ccYIfAxE.s:25198  .debug_str:00000000000157e0 .LASF4935
C:\Users\CYMR90~1\AppData\Local\Temp\ccYIfAxE.s:21930  .debug_str:0000000000008bb0 .LASF4936
C:\Users\CYMR90~1\AppData\Local\Temp\ccYIfAxE.s:30693  .debug_str:000000000002b39e .LASF4937
C:\Users\CYMR90~1\AppData\Local\Temp\ccYIfAxE.s:19852  .debug_str:000000000000086e .LASF4938
C:\Users\CYMR90~1\AppData\Local\Temp\ccYIfAxE.s:25741  .debug_str:00000000000179f1 .LASF4939
C:\Users\CYMR90~1\AppData\Local\Temp\ccYIfAxE.s:27583  .debug_str:000000000001f138 .LASF4940
C:\Users\CYMR90~1\AppData\Local\Temp\ccYIfAxE.s:22328  .debug_str:000000000000a41f .LASF4941
C:\Users\CYMR90~1\AppData\Local\Temp\ccYIfAxE.s:21126  .debug_str:000000000000585a .LASF4942
C:\Users\CYMR90~1\AppData\Local\Temp\ccYIfAxE.s:23694  .debug_str:000000000000fb32 .LASF4943
C:\Users\CYMR90~1\AppData\Local\Temp\ccYIfAxE.s:26025  .debug_str:0000000000018b11 .LASF4944
C:\Users\CYMR90~1\AppData\Local\Temp\ccYIfAxE.s:20368  .debug_str:00000000000027ad .LASF4945
C:\Users\CYMR90~1\AppData\Local\Temp\ccYIfAxE.s:26273  .debug_str:0000000000019ca5 .LASF4946
C:\Users\CYMR90~1\AppData\Local\Temp\ccYIfAxE.s:27637  .debug_str:000000000001f4c1 .LASF4947
C:\Users\CYMR90~1\AppData\Local\Temp\ccYIfAxE.s:19888  .debug_str:0000000000000aef .LASF4948
C:\Users\CYMR90~1\AppData\Local\Temp\ccYIfAxE.s:21372  .debug_str:00000000000066f1 .LASF4949
C:\Users\CYMR90~1\AppData\Local\Temp\ccYIfAxE.s:30803  .debug_str:000000000002ba0a .LASF4950
C:\Users\CYMR90~1\AppData\Local\Temp\ccYIfAxE.s:27559  .debug_str:000000000001efd5 .LASF4951
C:\Users\CYMR90~1\AppData\Local\Temp\ccYIfAxE.s:26275  .debug_str:0000000000019cd1 .LASF4952
C:\Users\CYMR90~1\AppData\Local\Temp\ccYIfAxE.s:30741  .debug_str:000000000002b644 .LASF4953
C:\Users\CYMR90~1\AppData\Local\Temp\ccYIfAxE.s:22762  .debug_str:000000000000c10f .LASF4954
C:\Users\CYMR90~1\AppData\Local\Temp\ccYIfAxE.s:25853  .debug_str:00000000000180ed .LASF4955
C:\Users\CYMR90~1\AppData\Local\Temp\ccYIfAxE.s:24842  .debug_str:0000000000014274 .LASF4956
C:\Users\CYMR90~1\AppData\Local\Temp\ccYIfAxE.s:27527  .debug_str:000000000001ee19 .LASF4957
C:\Users\CYMR90~1\AppData\Local\Temp\ccYIfAxE.s:29933  .debug_str:000000000002845d .LASF4958
C:\Users\CYMR90~1\AppData\Local\Temp\ccYIfAxE.s:31205  .debug_str:000000000002d452 .LASF4959
C:\Users\CYMR90~1\AppData\Local\Temp\ccYIfAxE.s:20492  .debug_str:0000000000002f96 .LASF4960
C:\Users\CYMR90~1\AppData\Local\Temp\ccYIfAxE.s:24594  .debug_str:0000000000013292 .LASF4961
C:\Users\CYMR90~1\AppData\Local\Temp\ccYIfAxE.s:30483  .debug_str:000000000002a724 .LASF4962
C:\Users\CYMR90~1\AppData\Local\Temp\ccYIfAxE.s:21938  .debug_str:0000000000008c2e .LASF4963
C:\Users\CYMR90~1\AppData\Local\Temp\ccYIfAxE.s:31279  .debug_str:000000000002d94c .LASF4964
C:\Users\CYMR90~1\AppData\Local\Temp\ccYIfAxE.s:20432  .debug_str:0000000000002bf9 .LASF4965
C:\Users\CYMR90~1\AppData\Local\Temp\ccYIfAxE.s:23760  .debug_str:000000000000ff16 .LASF4966
C:\Users\CYMR90~1\AppData\Local\Temp\ccYIfAxE.s:25645  .debug_str:0000000000017492 .LASF4967
C:\Users\CYMR90~1\AppData\Local\Temp\ccYIfAxE.s:23214  .debug_str:000000000000de2f .LASF4968
C:\Users\CYMR90~1\AppData\Local\Temp\ccYIfAxE.s:25725  .debug_str:00000000000178ef .LASF4969
C:\Users\CYMR90~1\AppData\Local\Temp\ccYIfAxE.s:22212  .debug_str:0000000000009d15 .LASF4970
C:\Users\CYMR90~1\AppData\Local\Temp\ccYIfAxE.s:25106  .debug_str:00000000000152b7 .LASF4971
C:\Users\CYMR90~1\AppData\Local\Temp\ccYIfAxE.s:21962  .debug_str:0000000000008dba .LASF4972
C:\Users\CYMR90~1\AppData\Local\Temp\ccYIfAxE.s:21890  .debug_str:000000000000892c .LASF4973
C:\Users\CYMR90~1\AppData\Local\Temp\ccYIfAxE.s:21052  .debug_str:00000000000053df .LASF4974
C:\Users\CYMR90~1\AppData\Local\Temp\ccYIfAxE.s:28989  .debug_str:00000000000245e6 .LASF4975
C:\Users\CYMR90~1\AppData\Local\Temp\ccYIfAxE.s:30725  .debug_str:000000000002b57b .LASF4976
C:\Users\CYMR90~1\AppData\Local\Temp\ccYIfAxE.s:25915  .debug_str:0000000000018466 .LASF4977
C:\Users\CYMR90~1\AppData\Local\Temp\ccYIfAxE.s:30205  .debug_str:00000000000296a3 .LASF4978
C:\Users\CYMR90~1\AppData\Local\Temp\ccYIfAxE.s:29883  .debug_str:0000000000028094 .LASF4979
C:\Users\CYMR90~1\AppData\Local\Temp\ccYIfAxE.s:22188  .debug_str:0000000000009b7b .LASF4980
C:\Users\CYMR90~1\AppData\Local\Temp\ccYIfAxE.s:29617  .debug_str:0000000000026fb1 .LASF4981
C:\Users\CYMR90~1\AppData\Local\Temp\ccYIfAxE.s:25899  .debug_str:0000000000018393 .LASF4982
C:\Users\CYMR90~1\AppData\Local\Temp\ccYIfAxE.s:25807  .debug_str:0000000000017e19 .LASF4983
C:\Users\CYMR90~1\AppData\Local\Temp\ccYIfAxE.s:29751  .debug_str:00000000000277c8 .LASF4984
C:\Users\CYMR90~1\AppData\Local\Temp\ccYIfAxE.s:23614  .debug_str:000000000000f5db .LASF4985
C:\Users\CYMR90~1\AppData\Local\Temp\ccYIfAxE.s:27075  .debug_str:000000000001d0e4 .LASF4986
C:\Users\CYMR90~1\AppData\Local\Temp\ccYIfAxE.s:26101  .debug_str:0000000000019098 .LASF4987
C:\Users\CYMR90~1\AppData\Local\Temp\ccYIfAxE.s:22922  .debug_str:000000000000cb2b .LASF4988
C:\Users\CYMR90~1\AppData\Local\Temp\ccYIfAxE.s:29259  .debug_str:000000000002582f .LASF4989
C:\Users\CYMR90~1\AppData\Local\Temp\ccYIfAxE.s:22320  .debug_str:000000000000a3a9 .LASF4990
C:\Users\CYMR90~1\AppData\Local\Temp\ccYIfAxE.s:29075  .debug_str:0000000000024ba0 .LASF4991
C:\Users\CYMR90~1\AppData\Local\Temp\ccYIfAxE.s:26839  .debug_str:000000000001c1d9 .LASF4992
C:\Users\CYMR90~1\AppData\Local\Temp\ccYIfAxE.s:23064  .debug_str:000000000000d4bd .LASF4993
C:\Users\CYMR90~1\AppData\Local\Temp\ccYIfAxE.s:23956  .debug_str:00000000000109e8 .LASF4994
C:\Users\CYMR90~1\AppData\Local\Temp\ccYIfAxE.s:20212  .debug_str:0000000000001e6c .LASF4995
C:\Users\CYMR90~1\AppData\Local\Temp\ccYIfAxE.s:25599  .debug_str:0000000000017218 .LASF4996
C:\Users\CYMR90~1\AppData\Local\Temp\ccYIfAxE.s:26917  .debug_str:000000000001c678 .LASF4997
C:\Users\CYMR90~1\AppData\Local\Temp\ccYIfAxE.s:25000  .debug_str:0000000000014c21 .LASF4998
C:\Users\CYMR90~1\AppData\Local\Temp\ccYIfAxE.s:20838  .debug_str:0000000000004600 .LASF4999
C:\Users\CYMR90~1\AppData\Local\Temp\ccYIfAxE.s:26557  .debug_str:000000000001af91 .LASF5000
C:\Users\CYMR90~1\AppData\Local\Temp\ccYIfAxE.s:29359  .debug_str:0000000000025fc4 .LASF5001
C:\Users\CYMR90~1\AppData\Local\Temp\ccYIfAxE.s:23670  .debug_str:000000000000f91b .LASF5002
C:\Users\CYMR90~1\AppData\Local\Temp\ccYIfAxE.s:22756  .debug_str:000000000000c07b .LASF5003
C:\Users\CYMR90~1\AppData\Local\Temp\ccYIfAxE.s:19706  .debug_str:000000000000006a .LASF5004
C:\Users\CYMR90~1\AppData\Local\Temp\ccYIfAxE.s:30193  .debug_str:00000000000295ed .LASF5005
C:\Users\CYMR90~1\AppData\Local\Temp\ccYIfAxE.s:21396  .debug_str:000000000000683e .LASF5006
C:\Users\CYMR90~1\AppData\Local\Temp\ccYIfAxE.s:21612  .debug_str:000000000000765f .LASF5007
C:\Users\CYMR90~1\AppData\Local\Temp\ccYIfAxE.s:30109  .debug_str:00000000000290b5 .LASF5008
C:\Users\CYMR90~1\AppData\Local\Temp\ccYIfAxE.s:22714  .debug_str:000000000000bd9c .LASF5009
C:\Users\CYMR90~1\AppData\Local\Temp\ccYIfAxE.s:25096  .debug_str:0000000000015245 .LASF5010
C:\Users\CYMR90~1\AppData\Local\Temp\ccYIfAxE.s:22666  .debug_str:000000000000ba7b .LASF5011
C:\Users\CYMR90~1\AppData\Local\Temp\ccYIfAxE.s:25298  .debug_str:0000000000015da8 .LASF5012
C:\Users\CYMR90~1\AppData\Local\Temp\ccYIfAxE.s:24158  .debug_str:0000000000011610 .LASF5013
C:\Users\CYMR90~1\AppData\Local\Temp\ccYIfAxE.s:24082  .debug_str:00000000000111b5 .LASF5014
C:\Users\CYMR90~1\AppData\Local\Temp\ccYIfAxE.s:24408  .debug_str:000000000001269b .LASF5015
C:\Users\CYMR90~1\AppData\Local\Temp\ccYIfAxE.s:25172  .debug_str:000000000001567e .LASF5016
C:\Users\CYMR90~1\AppData\Local\Temp\ccYIfAxE.s:24064  .debug_str:00000000000110dc .LASF5017
C:\Users\CYMR90~1\AppData\Local\Temp\ccYIfAxE.s:30077  .debug_str:0000000000028eae .LASF5018
C:\Users\CYMR90~1\AppData\Local\Temp\ccYIfAxE.s:21668  .debug_str:00000000000079ce .LASF5019
C:\Users\CYMR90~1\AppData\Local\Temp\ccYIfAxE.s:30987  .debug_str:000000000002c621 .LASF5020
C:\Users\CYMR90~1\AppData\Local\Temp\ccYIfAxE.s:31003  .debug_str:000000000002c789 .LASF5021
C:\Users\CYMR90~1\AppData\Local\Temp\ccYIfAxE.s:24640  .debug_str:0000000000013576 .LASF5022
C:\Users\CYMR90~1\AppData\Local\Temp\ccYIfAxE.s:19914  .debug_str:0000000000000c80 .LASF5023
C:\Users\CYMR90~1\AppData\Local\Temp\ccYIfAxE.s:22710  .debug_str:000000000000bd6d .LASF5024
C:\Users\CYMR90~1\AppData\Local\Temp\ccYIfAxE.s:27563  .debug_str:000000000001f011 .LASF5025
C:\Users\CYMR90~1\AppData\Local\Temp\ccYIfAxE.s:21382  .debug_str:0000000000006782 .LASF5026
C:\Users\CYMR90~1\AppData\Local\Temp\ccYIfAxE.s:21858  .debug_str:0000000000008779 .LASF5027
C:\Users\CYMR90~1\AppData\Local\Temp\ccYIfAxE.s:24596  .debug_str:00000000000132b4 .LASF5028
C:\Users\CYMR90~1\AppData\Local\Temp\ccYIfAxE.s:24000  .debug_str:0000000000010c55 .LASF5029
C:\Users\CYMR90~1\AppData\Local\Temp\ccYIfAxE.s:28423  .debug_str:000000000002242d .LASF5030
C:\Users\CYMR90~1\AppData\Local\Temp\ccYIfAxE.s:27441  .debug_str:000000000001e8b8 .LASF5031
C:\Users\CYMR90~1\AppData\Local\Temp\ccYIfAxE.s:21044  .debug_str:000000000000535b .LASF5032
C:\Users\CYMR90~1\AppData\Local\Temp\ccYIfAxE.s:28249  .debug_str:00000000000219b0 .LASF5033
C:\Users\CYMR90~1\AppData\Local\Temp\ccYIfAxE.s:25352  .debug_str:000000000001611f .LASF5034
C:\Users\CYMR90~1\AppData\Local\Temp\ccYIfAxE.s:21290  .debug_str:00000000000061eb .LASF5035
C:\Users\CYMR90~1\AppData\Local\Temp\ccYIfAxE.s:26357  .debug_str:000000000001a19f .LASF5036
C:\Users\CYMR90~1\AppData\Local\Temp\ccYIfAxE.s:25184  .debug_str:0000000000015719 .LASF5037
C:\Users\CYMR90~1\AppData\Local\Temp\ccYIfAxE.s:27889  .debug_str:0000000000020402 .LASF5038
C:\Users\CYMR90~1\AppData\Local\Temp\ccYIfAxE.s:30107  .debug_str:0000000000029099 .LASF5039
C:\Users\CYMR90~1\AppData\Local\Temp\ccYIfAxE.s:24820  .debug_str:0000000000014115 .LASF5040
C:\Users\CYMR90~1\AppData\Local\Temp\ccYIfAxE.s:24752  .debug_str:0000000000013d39 .LASF5041
C:\Users\CYMR90~1\AppData\Local\Temp\ccYIfAxE.s:20318  .debug_str:000000000000246c .LASF5042
C:\Users\CYMR90~1\AppData\Local\Temp\ccYIfAxE.s:27493  .debug_str:000000000001ebe9 .LASF5043
C:\Users\CYMR90~1\AppData\Local\Temp\ccYIfAxE.s:26937  .debug_str:000000000001c795 .LASF5044
C:\Users\CYMR90~1\AppData\Local\Temp\ccYIfAxE.s:29311  .debug_str:0000000000025c1e .LASF5045
C:\Users\CYMR90~1\AppData\Local\Temp\ccYIfAxE.s:21442  .debug_str:0000000000006b35 .LASF5046
C:\Users\CYMR90~1\AppData\Local\Temp\ccYIfAxE.s:20176  .debug_str:0000000000001c7e .LASF5047
C:\Users\CYMR90~1\AppData\Local\Temp\ccYIfAxE.s:22050  .debug_str:0000000000009313 .LASF5048
C:\Users\CYMR90~1\AppData\Local\Temp\ccYIfAxE.s:22214  .debug_str:0000000000009d38 .LASF5049
C:\Users\CYMR90~1\AppData\Local\Temp\ccYIfAxE.s:20188  .debug_str:0000000000001d1f .LASF5050
C:\Users\CYMR90~1\AppData\Local\Temp\ccYIfAxE.s:31029  .debug_str:000000000002c91f .LASF5051
C:\Users\CYMR90~1\AppData\Local\Temp\ccYIfAxE.s:25046  .debug_str:0000000000014ecb .LASF5052
C:\Users\CYMR90~1\AppData\Local\Temp\ccYIfAxE.s:25466  .debug_str:000000000001683c .LASF5053
C:\Users\CYMR90~1\AppData\Local\Temp\ccYIfAxE.s:24532  .debug_str:0000000000012e90 .LASF5054
C:\Users\CYMR90~1\AppData\Local\Temp\ccYIfAxE.s:22540  .debug_str:000000000000b233 .LASF5055
C:\Users\CYMR90~1\AppData\Local\Temp\ccYIfAxE.s:25112  .debug_str:0000000000015307 .LASF5056
C:\Users\CYMR90~1\AppData\Local\Temp\ccYIfAxE.s:21580  .debug_str:00000000000073f3 .LASF5057
C:\Users\CYMR90~1\AppData\Local\Temp\ccYIfAxE.s:25895  .debug_str:0000000000018356 .LASF5058
C:\Users\CYMR90~1\AppData\Local\Temp\ccYIfAxE.s:23718  .debug_str:000000000000fca6 .LASF5059
C:\Users\CYMR90~1\AppData\Local\Temp\ccYIfAxE.s:25282  .debug_str:0000000000015cba .LASF5060
C:\Users\CYMR90~1\AppData\Local\Temp\ccYIfAxE.s:21732  .debug_str:0000000000007e18 .LASF5061
C:\Users\CYMR90~1\AppData\Local\Temp\ccYIfAxE.s:26577  .debug_str:000000000001b0e1 .LASF5062
C:\Users\CYMR90~1\AppData\Local\Temp\ccYIfAxE.s:31277  .debug_str:000000000002d934 .LASF5063
C:\Users\CYMR90~1\AppData\Local\Temp\ccYIfAxE.s:20628  .debug_str:0000000000003869 .LASF5064
C:\Users\CYMR90~1\AppData\Local\Temp\ccYIfAxE.s:24390  .debug_str:000000000001257b .LASF5065
C:\Users\CYMR90~1\AppData\Local\Temp\ccYIfAxE.s:21638  .debug_str:000000000000780d .LASF5066
C:\Users\CYMR90~1\AppData\Local\Temp\ccYIfAxE.s:21000  .debug_str:00000000000050d8 .LASF5067
C:\Users\CYMR90~1\AppData\Local\Temp\ccYIfAxE.s:29763  .debug_str:00000000000278c9 .LASF5068
C:\Users\CYMR90~1\AppData\Local\Temp\ccYIfAxE.s:22210  .debug_str:0000000000009cf4 .LASF5069
C:\Users\CYMR90~1\AppData\Local\Temp\ccYIfAxE.s:23126  .debug_str:000000000000d92d .LASF5070
C:\Users\CYMR90~1\AppData\Local\Temp\ccYIfAxE.s:21876  .debug_str:0000000000008881 .LASF5071
C:\Users\CYMR90~1\AppData\Local\Temp\ccYIfAxE.s:30419  .debug_str:000000000002a38e .LASF5072
C:\Users\CYMR90~1\AppData\Local\Temp\ccYIfAxE.s:28009  .debug_str:0000000000020b7e .LASF5073
C:\Users\CYMR90~1\AppData\Local\Temp\ccYIfAxE.s:29761  .debug_str:00000000000278a6 .LASF5074
C:\Users\CYMR90~1\AppData\Local\Temp\ccYIfAxE.s:20130  .debug_str:00000000000019a4 .LASF5075
C:\Users\CYMR90~1\AppData\Local\Temp\ccYIfAxE.s:23740  .debug_str:000000000000fdca .LASF5076
C:\Users\CYMR90~1\AppData\Local\Temp\ccYIfAxE.s:22098  .debug_str:00000000000095d1 .LASF5077
C:\Users\CYMR90~1\AppData\Local\Temp\ccYIfAxE.s:29195  .debug_str:000000000002535e .LASF5078
C:\Users\CYMR90~1\AppData\Local\Temp\ccYIfAxE.s:30707  .debug_str:000000000002b44e .LASF5079
C:\Users\CYMR90~1\AppData\Local\Temp\ccYIfAxE.s:25619  .debug_str:0000000000017335 .LASF5080
C:\Users\CYMR90~1\AppData\Local\Temp\ccYIfAxE.s:25729  .debug_str:0000000000017931 .LASF5081
C:\Users\CYMR90~1\AppData\Local\Temp\ccYIfAxE.s:27303  .debug_str:000000000001e021 .LASF5082
C:\Users\CYMR90~1\AppData\Local\Temp\ccYIfAxE.s:22338  .debug_str:000000000000a4d0 .LASF5083
C:\Users\CYMR90~1\AppData\Local\Temp\ccYIfAxE.s:27751  .debug_str:000000000001fb87 .LASF5084
C:\Users\CYMR90~1\AppData\Local\Temp\ccYIfAxE.s:28953  .debug_str:0000000000024321 .LASF5085
C:\Users\CYMR90~1\AppData\Local\Temp\ccYIfAxE.s:24524  .debug_str:0000000000012e29 .LASF5086
C:\Users\CYMR90~1\AppData\Local\Temp\ccYIfAxE.s:20632  .debug_str:00000000000038a2 .LASF5087
C:\Users\CYMR90~1\AppData\Local\Temp\ccYIfAxE.s:20818  .debug_str:00000000000044b3 .LASF5088
C:\Users\CYMR90~1\AppData\Local\Temp\ccYIfAxE.s:29919  .debug_str:0000000000028335 .LASF5089
C:\Users\CYMR90~1\AppData\Local\Temp\ccYIfAxE.s:24174  .debug_str:0000000000011703 .LASF5090
C:\Users\CYMR90~1\AppData\Local\Temp\ccYIfAxE.s:22722  .debug_str:000000000000be03 .LASF5091
C:\Users\CYMR90~1\AppData\Local\Temp\ccYIfAxE.s:28945  .debug_str:0000000000024290 .LASF5092
C:\Users\CYMR90~1\AppData\Local\Temp\ccYIfAxE.s:29053  .debug_str:0000000000024a63 .LASF5093
C:\Users\CYMR90~1\AppData\Local\Temp\ccYIfAxE.s:25254  .debug_str:0000000000015b02 .LASF5094
C:\Users\CYMR90~1\AppData\Local\Temp\ccYIfAxE.s:20656  .debug_str:0000000000003a35 .LASF5095
C:\Users\CYMR90~1\AppData\Local\Temp\ccYIfAxE.s:25601  .debug_str:0000000000017242 .LASF5096
C:\Users\CYMR90~1\AppData\Local\Temp\ccYIfAxE.s:20594  .debug_str:0000000000003636 .LASF5097
C:\Users\CYMR90~1\AppData\Local\Temp\ccYIfAxE.s:20936  .debug_str:0000000000004cfd .LASF5098
C:\Users\CYMR90~1\AppData\Local\Temp\ccYIfAxE.s:21342  .debug_str:000000000000651e .LASF5099
C:\Users\CYMR90~1\AppData\Local\Temp\ccYIfAxE.s:29547  .debug_str:0000000000026b44 .LASF5100
C:\Users\CYMR90~1\AppData\Local\Temp\ccYIfAxE.s:29807  .debug_str:0000000000027c0c .LASF5101
C:\Users\CYMR90~1\AppData\Local\Temp\ccYIfAxE.s:19824  .debug_str:00000000000006c5 .LASF5102
C:\Users\CYMR90~1\AppData\Local\Temp\ccYIfAxE.s:26489  .debug_str:000000000001ab2d .LASF5103
C:\Users\CYMR90~1\AppData\Local\Temp\ccYIfAxE.s:30967  .debug_str:000000000002c4e2 .LASF5104
C:\Users\CYMR90~1\AppData\Local\Temp\ccYIfAxE.s:22524  .debug_str:000000000000b092 .LASF5105
C:\Users\CYMR90~1\AppData\Local\Temp\ccYIfAxE.s:21436  .debug_str:0000000000006add .LASF5106
C:\Users\CYMR90~1\AppData\Local\Temp\ccYIfAxE.s:29867  .debug_str:0000000000027f60 .LASF5107
C:\Users\CYMR90~1\AppData\Local\Temp\ccYIfAxE.s:26517  .debug_str:000000000001acd4 .LASF5108
C:\Users\CYMR90~1\AppData\Local\Temp\ccYIfAxE.s:27653  .debug_str:000000000001f5ca .LASF5109
C:\Users\CYMR90~1\AppData\Local\Temp\ccYIfAxE.s:26775  .debug_str:000000000001bdcf .LASF5110
C:\Users\CYMR90~1\AppData\Local\Temp\ccYIfAxE.s:21124  .debug_str:0000000000005841 .LASF5111
C:\Users\CYMR90~1\AppData\Local\Temp\ccYIfAxE.s:28713  .debug_str:000000000002355b .LASF5112
C:\Users\CYMR90~1\AppData\Local\Temp\ccYIfAxE.s:28731  .debug_str:0000000000023625 .LASF5113
C:\Users\CYMR90~1\AppData\Local\Temp\ccYIfAxE.s:29227  .debug_str:000000000002552b .LASF5114
C:\Users\CYMR90~1\AppData\Local\Temp\ccYIfAxE.s:30181  .debug_str:00000000000294fc .LASF5115
C:\Users\CYMR90~1\AppData\Local\Temp\ccYIfAxE.s:28771  .debug_str:000000000002386e .LASF5116
C:\Users\CYMR90~1\AppData\Local\Temp\ccYIfAxE.s:30303  .debug_str:0000000000029ce4 .LASF5117
C:\Users\CYMR90~1\AppData\Local\Temp\ccYIfAxE.s:24602  .debug_str:0000000000013312 .LASF5118
C:\Users\CYMR90~1\AppData\Local\Temp\ccYIfAxE.s:24430  .debug_str:00000000000127d2 .LASF5119
C:\Users\CYMR90~1\AppData\Local\Temp\ccYIfAxE.s:28291  .debug_str:0000000000021c30 .LASF5120
C:\Users\CYMR90~1\AppData\Local\Temp\ccYIfAxE.s:31249  .debug_str:000000000002d767 .LASF5121
C:\Users\CYMR90~1\AppData\Local\Temp\ccYIfAxE.s:24606  .debug_str:0000000000013356 .LASF5122
C:\Users\CYMR90~1\AppData\Local\Temp\ccYIfAxE.s:25811  .debug_str:0000000000017e56 .LASF5123
C:\Users\CYMR90~1\AppData\Local\Temp\ccYIfAxE.s:20992  .debug_str:0000000000005064 .LASF5124
C:\Users\CYMR90~1\AppData\Local\Temp\ccYIfAxE.s:28275  .debug_str:0000000000021b39 .LASF5125
C:\Users\CYMR90~1\AppData\Local\Temp\ccYIfAxE.s:25538  .debug_str:0000000000016cb3 .LASF5126
C:\Users\CYMR90~1\AppData\Local\Temp\ccYIfAxE.s:20490  .debug_str:0000000000002f7d .LASF5127
C:\Users\CYMR90~1\AppData\Local\Temp\ccYIfAxE.s:27557  .debug_str:000000000001efbd .LASF5128
C:\Users\CYMR90~1\AppData\Local\Temp\ccYIfAxE.s:28525  .debug_str:00000000000229e6 .LASF5129
C:\Users\CYMR90~1\AppData\Local\Temp\ccYIfAxE.s:21296  .debug_str:000000000000625d .LASF5130
C:\Users\CYMR90~1\AppData\Local\Temp\ccYIfAxE.s:28983  .debug_str:00000000000244bf .LASF5131
C:\Users\CYMR90~1\AppData\Local\Temp\ccYIfAxE.s:27177  .debug_str:000000000001d837 .LASF5132
C:\Users\CYMR90~1\AppData\Local\Temp\ccYIfAxE.s:27157  .debug_str:000000000001d704 .LASF5133
C:\Users\CYMR90~1\AppData\Local\Temp\ccYIfAxE.s:19968  .debug_str:000000000000102c .LASF5134
C:\Users\CYMR90~1\AppData\Local\Temp\ccYIfAxE.s:24480  .debug_str:0000000000012b1e .LASF5135
C:\Users\CYMR90~1\AppData\Local\Temp\ccYIfAxE.s:20146  .debug_str:0000000000001a93 .LASF5136
C:\Users\CYMR90~1\AppData\Local\Temp\ccYIfAxE.s:21606  .debug_str:00000000000075e3 .LASF5137
C:\Users\CYMR90~1\AppData\Local\Temp\ccYIfAxE.s:26497  .debug_str:000000000001ab91 .LASF5138
C:\Users\CYMR90~1\AppData\Local\Temp\ccYIfAxE.s:30431  .debug_str:000000000002a45d .LASF5139
C:\Users\CYMR90~1\AppData\Local\Temp\ccYIfAxE.s:22902  .debug_str:000000000000c99b .LASF5140
C:\Users\CYMR90~1\AppData\Local\Temp\ccYIfAxE.s:22508  .debug_str:000000000000af55 .LASF5141
C:\Users\CYMR90~1\AppData\Local\Temp\ccYIfAxE.s:23542  .debug_str:000000000000f172 .LASF5142
C:\Users\CYMR90~1\AppData\Local\Temp\ccYIfAxE.s:21476  .debug_str:0000000000006d48 .LASF5143
C:\Users\CYMR90~1\AppData\Local\Temp\ccYIfAxE.s:29597  .debug_str:0000000000026e9b .LASF5144
C:\Users\CYMR90~1\AppData\Local\Temp\ccYIfAxE.s:20322  .debug_str:00000000000024a2 .LASF5145
C:\Users\CYMR90~1\AppData\Local\Temp\ccYIfAxE.s:28759  .debug_str:00000000000237a6 .LASF5146
C:\Users\CYMR90~1\AppData\Local\Temp\ccYIfAxE.s:25524  .debug_str:0000000000016b89 .LASF5147
C:\Users\CYMR90~1\AppData\Local\Temp\ccYIfAxE.s:23026  .debug_str:000000000000d227 .LASF5148
C:\Users\CYMR90~1\AppData\Local\Temp\ccYIfAxE.s:23738  .debug_str:000000000000fdaa .LASF5149
C:\Users\CYMR90~1\AppData\Local\Temp\ccYIfAxE.s:29965  .debug_str:000000000002864d .LASF5150
C:\Users\CYMR90~1\AppData\Local\Temp\ccYIfAxE.s:21690  .debug_str:0000000000007b4c .LASF5151
C:\Users\CYMR90~1\AppData\Local\Temp\ccYIfAxE.s:23144  .debug_str:000000000000da7f .LASF5152
C:\Users\CYMR90~1\AppData\Local\Temp\ccYIfAxE.s:31159  .debug_str:000000000002d192 .LASF5153
C:\Users\CYMR90~1\AppData\Local\Temp\ccYIfAxE.s:22768  .debug_str:000000000000c188 .LASF5154
C:\Users\CYMR90~1\AppData\Local\Temp\ccYIfAxE.s:22312  .debug_str:000000000000a33c .LASF5155
C:\Users\CYMR90~1\AppData\Local\Temp\ccYIfAxE.s:29871  .debug_str:0000000000027fb8 .LASF5156
C:\Users\CYMR90~1\AppData\Local\Temp\ccYIfAxE.s:24212  .debug_str:000000000001197c .LASF5157
C:\Users\CYMR90~1\AppData\Local\Temp\ccYIfAxE.s:20908  .debug_str:0000000000004b3c .LASF5158
C:\Users\CYMR90~1\AppData\Local\Temp\ccYIfAxE.s:22254  .debug_str:0000000000009f86 .LASF5159
C:\Users\CYMR90~1\AppData\Local\Temp\ccYIfAxE.s:26143  .debug_str:00000000000193f5 .LASF5160
C:\Users\CYMR90~1\AppData\Local\Temp\ccYIfAxE.s:27119  .debug_str:000000000001d4ba .LASF5161
C:\Users\CYMR90~1\AppData\Local\Temp\ccYIfAxE.s:27347  .debug_str:000000000001e384 .LASF5162
C:\Users\CYMR90~1\AppData\Local\Temp\ccYIfAxE.s:22982  .debug_str:000000000000cfab .LASF5163
C:\Users\CYMR90~1\AppData\Local\Temp\ccYIfAxE.s:20422  .debug_str:0000000000002b39 .LASF5164
C:\Users\CYMR90~1\AppData\Local\Temp\ccYIfAxE.s:23384  .debug_str:000000000000e81e .LASF5165
C:\Users\CYMR90~1\AppData\Local\Temp\ccYIfAxE.s:26317  .debug_str:0000000000019f4f .LASF5166
C:\Users\CYMR90~1\AppData\Local\Temp\ccYIfAxE.s:26059  .debug_str:0000000000018d51 .LASF5167
C:\Users\CYMR90~1\AppData\Local\Temp\ccYIfAxE.s:28831  .debug_str:0000000000023c07 .LASF5168
C:\Users\CYMR90~1\AppData\Local\Temp\ccYIfAxE.s:20870  .debug_str:0000000000004833 .LASF5169
C:\Users\CYMR90~1\AppData\Local\Temp\ccYIfAxE.s:19894  .debug_str:0000000000000b52 .LASF5170
C:\Users\CYMR90~1\AppData\Local\Temp\ccYIfAxE.s:21940  .debug_str:0000000000008c50 .LASF5171
C:\Users\CYMR90~1\AppData\Local\Temp\ccYIfAxE.s:25070  .debug_str:000000000001504b .LASF5172
C:\Users\CYMR90~1\AppData\Local\Temp\ccYIfAxE.s:31031  .debug_str:000000000002c937 .LASF5173
C:\Users\CYMR90~1\AppData\Local\Temp\ccYIfAxE.s:21838  .debug_str:0000000000008613 .LASF5174
C:\Users\CYMR90~1\AppData\Local\Temp\ccYIfAxE.s:22398  .debug_str:000000000000a8a2 .LASF5175
C:\Users\CYMR90~1\AppData\Local\Temp\ccYIfAxE.s:26149  .debug_str:0000000000019457 .LASF5176
C:\Users\CYMR90~1\AppData\Local\Temp\ccYIfAxE.s:24874  .debug_str:0000000000014486 .LASF5177
C:\Users\CYMR90~1\AppData\Local\Temp\ccYIfAxE.s:31079  .debug_str:000000000002ccb8 .LASF5178
C:\Users\CYMR90~1\AppData\Local\Temp\ccYIfAxE.s:20134  .debug_str:00000000000019e2 .LASF5179
C:\Users\CYMR90~1\AppData\Local\Temp\ccYIfAxE.s:29955  .debug_str:000000000002859c .LASF5180
C:\Users\CYMR90~1\AppData\Local\Temp\ccYIfAxE.s:27243  .debug_str:000000000001dc98 .LASF5181
C:\Users\CYMR90~1\AppData\Local\Temp\ccYIfAxE.s:25581  .debug_str:00000000000170f8 .LASF5182
C:\Users\CYMR90~1\AppData\Local\Temp\ccYIfAxE.s:22362  .debug_str:000000000000a67a .LASF5183
C:\Users\CYMR90~1\AppData\Local\Temp\ccYIfAxE.s:28341  .debug_str:0000000000021f0d .LASF5184
C:\Users\CYMR90~1\AppData\Local\Temp\ccYIfAxE.s:27893  .debug_str:0000000000020430 .LASF5185
C:\Users\CYMR90~1\AppData\Local\Temp\ccYIfAxE.s:24732  .debug_str:0000000000013c12 .LASF5186
C:\Users\CYMR90~1\AppData\Local\Temp\ccYIfAxE.s:24708  .debug_str:0000000000013a95 .LASF5187
C:\Users\CYMR90~1\AppData\Local\Temp\ccYIfAxE.s:29023  .debug_str:0000000000024854 .LASF5188
C:\Users\CYMR90~1\AppData\Local\Temp\ccYIfAxE.s:29549  .debug_str:0000000000026b5f .LASF5189
C:\Users\CYMR90~1\AppData\Local\Temp\ccYIfAxE.s:20386  .debug_str:00000000000028df .LASF5190
C:\Users\CYMR90~1\AppData\Local\Temp\ccYIfAxE.s:24280  .debug_str:0000000000011ebf .LASF5191
C:\Users\CYMR90~1\AppData\Local\Temp\ccYIfAxE.s:27887  .debug_str:00000000000203d7 .LASF5192
C:\Users\CYMR90~1\AppData\Local\Temp\ccYIfAxE.s:20538  .debug_str:0000000000003287 .LASF5193
C:\Users\CYMR90~1\AppData\Local\Temp\ccYIfAxE.s:27817  .debug_str:000000000001ff53 .LASF5194
C:\Users\CYMR90~1\AppData\Local\Temp\ccYIfAxE.s:24694  .debug_str:00000000000139e8 .LASF5195
C:\Users\CYMR90~1\AppData\Local\Temp\ccYIfAxE.s:30297  .debug_str:0000000000029c68 .LASF5196
C:\Users\CYMR90~1\AppData\Local\Temp\ccYIfAxE.s:22344  .debug_str:000000000000a527 .LASF5197
C:\Users\CYMR90~1\AppData\Local\Temp\ccYIfAxE.s:26139  .debug_str:00000000000193a2 .LASF5198
C:\Users\CYMR90~1\AppData\Local\Temp\ccYIfAxE.s:30563  .debug_str:000000000002abab .LASF5199
C:\Users\CYMR90~1\AppData\Local\Temp\ccYIfAxE.s:21384  .debug_str:0000000000006799 .LASF5200
C:\Users\CYMR90~1\AppData\Local\Temp\ccYIfAxE.s:30555  .debug_str:000000000002ab35 .LASF5201
C:\Users\CYMR90~1\AppData\Local\Temp\ccYIfAxE.s:20468  .debug_str:0000000000002e2a .LASF5202
C:\Users\CYMR90~1\AppData\Local\Temp\ccYIfAxE.s:26579  .debug_str:000000000001b0f9 .LASF5203
C:\Users\CYMR90~1\AppData\Local\Temp\ccYIfAxE.s:23644  .debug_str:000000000000f7a2 .LASF5204
C:\Users\CYMR90~1\AppData\Local\Temp\ccYIfAxE.s:24878  .debug_str:00000000000144de .LASF5205
C:\Users\CYMR90~1\AppData\Local\Temp\ccYIfAxE.s:30187  .debug_str:0000000000029562 .LASF5206
C:\Users\CYMR90~1\AppData\Local\Temp\ccYIfAxE.s:22070  .debug_str:0000000000009418 .LASF5207
C:\Users\CYMR90~1\AppData\Local\Temp\ccYIfAxE.s:19956  .debug_str:0000000000000f84 .LASF5208
C:\Users\CYMR90~1\AppData\Local\Temp\ccYIfAxE.s:30605  .debug_str:000000000002ae90 .LASF5209
C:\Users\CYMR90~1\AppData\Local\Temp\ccYIfAxE.s:20864  .debug_str:00000000000047bb .LASF5210
C:\Users\CYMR90~1\AppData\Local\Temp\ccYIfAxE.s:29317  .debug_str:0000000000025c7b .LASF5211
C:\Users\CYMR90~1\AppData\Local\Temp\ccYIfAxE.s:27773  .debug_str:000000000001fca4 .LASF5212
C:\Users\CYMR90~1\AppData\Local\Temp\ccYIfAxE.s:26915  .debug_str:000000000001c650 .LASF5213
C:\Users\CYMR90~1\AppData\Local\Temp\ccYIfAxE.s:27911  .debug_str:0000000000020542 .LASF5214
C:\Users\CYMR90~1\AppData\Local\Temp\ccYIfAxE.s:31225  .debug_str:000000000002d639 .LASF5215
C:\Users\CYMR90~1\AppData\Local\Temp\ccYIfAxE.s:20598  .debug_str:0000000000003665 .LASF5216
C:\Users\CYMR90~1\AppData\Local\Temp\ccYIfAxE.s:27515  .debug_str:000000000001ed54 .LASF5217
C:\Users\CYMR90~1\AppData\Local\Temp\ccYIfAxE.s:28309  .debug_str:0000000000021d63 .LASF5218
C:\Users\CYMR90~1\AppData\Local\Temp\ccYIfAxE.s:20158  .debug_str:0000000000001b57 .LASF5219
C:\Users\CYMR90~1\AppData\Local\Temp\ccYIfAxE.s:24520  .debug_str:0000000000012ddc .LASF5220
C:\Users\CYMR90~1\AppData\Local\Temp\ccYIfAxE.s:25843  .debug_str:000000000001803d .LASF5221
C:\Users\CYMR90~1\AppData\Local\Temp\ccYIfAxE.s:24008  .debug_str:0000000000010d03 .LASF5222
C:\Users\CYMR90~1\AppData\Local\Temp\ccYIfAxE.s:25945  .debug_str:000000000001862b .LASF5223
C:\Users\CYMR90~1\AppData\Local\Temp\ccYIfAxE.s:26539  .debug_str:000000000001aea6 .LASF5224
C:\Users\CYMR90~1\AppData\Local\Temp\ccYIfAxE.s:27917  .debug_str:00000000000205a3 .LASF5225
C:\Users\CYMR90~1\AppData\Local\Temp\ccYIfAxE.s:31263  .debug_str:000000000002d858 .LASF5226
C:\Users\CYMR90~1\AppData\Local\Temp\ccYIfAxE.s:24992  .debug_str:0000000000014b8c .LASF5227
C:\Users\CYMR90~1\AppData\Local\Temp\ccYIfAxE.s:26389  .debug_str:000000000001a37e .LASF5228
C:\Users\CYMR90~1\AppData\Local\Temp\ccYIfAxE.s:21084  .debug_str:00000000000055c4 .LASF5229
C:\Users\CYMR90~1\AppData\Local\Temp\ccYIfAxE.s:29045  .debug_str:00000000000249d1 .LASF5230
C:\Users\CYMR90~1\AppData\Local\Temp\ccYIfAxE.s:29959  .debug_str:00000000000285df .LASF5231
C:\Users\CYMR90~1\AppData\Local\Temp\ccYIfAxE.s:21710  .debug_str:0000000000007c8b .LASF5232
C:\Users\CYMR90~1\AppData\Local\Temp\ccYIfAxE.s:31039  .debug_str:000000000002c9de .LASF5233
C:\Users\CYMR90~1\AppData\Local\Temp\ccYIfAxE.s:26647  .debug_str:000000000001b5bb .LASF5234
C:\Users\CYMR90~1\AppData\Local\Temp\ccYIfAxE.s:25763  .debug_str:0000000000017b84 .LASF5235
C:\Users\CYMR90~1\AppData\Local\Temp\ccYIfAxE.s:21818  .debug_str:00000000000084d7 .LASF5236
C:\Users\CYMR90~1\AppData\Local\Temp\ccYIfAxE.s:21402  .debug_str:000000000000689c .LASF5237
C:\Users\CYMR90~1\AppData\Local\Temp\ccYIfAxE.s:20984  .debug_str:0000000000004fd9 .LASF5238
C:\Users\CYMR90~1\AppData\Local\Temp\ccYIfAxE.s:29771  .debug_str:00000000000279df .LASF5239
C:\Users\CYMR90~1\AppData\Local\Temp\ccYIfAxE.s:25887  .debug_str:00000000000182be .LASF5240
C:\Users\CYMR90~1\AppData\Local\Temp\ccYIfAxE.s:24458  .debug_str:00000000000129b4 .LASF5241
C:\Users\CYMR90~1\AppData\Local\Temp\ccYIfAxE.s:22930  .debug_str:000000000000cbbd .LASF5242
C:\Users\CYMR90~1\AppData\Local\Temp\ccYIfAxE.s:27495  .debug_str:000000000001ec07 .LASF5243
C:\Users\CYMR90~1\AppData\Local\Temp\ccYIfAxE.s:22068  .debug_str:00000000000093e7 .LASF5244
C:\Users\CYMR90~1\AppData\Local\Temp\ccYIfAxE.s:30767  .debug_str:000000000002b7a7 .LASF5245
C:\Users\CYMR90~1\AppData\Local\Temp\ccYIfAxE.s:27487  .debug_str:000000000001eb55 .LASF5246
C:\Users\CYMR90~1\AppData\Local\Temp\ccYIfAxE.s:21912  .debug_str:0000000000008a7c .LASF5247
C:\Users\CYMR90~1\AppData\Local\Temp\ccYIfAxE.s:29863  .debug_str:0000000000027f2e .LASF5248
C:\Users\CYMR90~1\AppData\Local\Temp\ccYIfAxE.s:31269  .debug_str:000000000002d8b2 .LASF5249
C:\Users\CYMR90~1\AppData\Local\Temp\ccYIfAxE.s:27827  .debug_str:000000000001fff9 .LASF5250
C:\Users\CYMR90~1\AppData\Local\Temp\ccYIfAxE.s:30157  .debug_str:000000000002939d .LASF5251
C:\Users\CYMR90~1\AppData\Local\Temp\ccYIfAxE.s:20966  .debug_str:0000000000004ec8 .LASF5252
C:\Users\CYMR90~1\AppData\Local\Temp\ccYIfAxE.s:21316  .debug_str:00000000000063a6 .LASF5253
C:\Users\CYMR90~1\AppData\Local\Temp\ccYIfAxE.s:26409  .debug_str:000000000001a483 .LASF5254
C:\Users\CYMR90~1\AppData\Local\Temp\ccYIfAxE.s:25078  .debug_str:0000000000015105 .LASF5255
C:\Users\CYMR90~1\AppData\Local\Temp\ccYIfAxE.s:23798  .debug_str:0000000000010090 .LASF5256
C:\Users\CYMR90~1\AppData\Local\Temp\ccYIfAxE.s:30623  .debug_str:000000000002afa2 .LASF5257
C:\Users\CYMR90~1\AppData\Local\Temp\ccYIfAxE.s:27537  .debug_str:000000000001ee9b .LASF5258
C:\Users\CYMR90~1\AppData\Local\Temp\ccYIfAxE.s:28383  .debug_str:00000000000221ab .LASF5259
C:\Users\CYMR90~1\AppData\Local\Temp\ccYIfAxE.s:26613  .debug_str:000000000001b344 .LASF5260
C:\Users\CYMR90~1\AppData\Local\Temp\ccYIfAxE.s:25552  .debug_str:0000000000016d9f .LASF5261
C:\Users\CYMR90~1\AppData\Local\Temp\ccYIfAxE.s:19766  .debug_str:0000000000000383 .LASF5262
C:\Users\CYMR90~1\AppData\Local\Temp\ccYIfAxE.s:24236  .debug_str:0000000000011b98 .LASF5263
C:\Users\CYMR90~1\AppData\Local\Temp\ccYIfAxE.s:20370  .debug_str:00000000000027d5 .LASF5264
C:\Users\CYMR90~1\AppData\Local\Temp\ccYIfAxE.s:27547  .debug_str:000000000001ef2f .LASF5265
C:\Users\CYMR90~1\AppData\Local\Temp\ccYIfAxE.s:22354  .debug_str:000000000000a5c6 .LASF5266
C:\Users\CYMR90~1\AppData\Local\Temp\ccYIfAxE.s:19702  .debug_str:0000000000000000 .LASF5267
C:\Users\CYMR90~1\AppData\Local\Temp\ccYIfAxE.s:20168  .debug_str:0000000000001bfc .LASF5268
C:\Users\CYMR90~1\AppData\Local\Temp\ccYIfAxE.s:30299  .debug_str:0000000000029c95 .LASF5269
C:\Users\CYMR90~1\AppData\Local\Temp\ccYIfAxE.s:20914  .debug_str:0000000000004b99 .LASF5270
C:\Users\CYMR90~1\AppData\Local\Temp\ccYIfAxE.s:29927  .debug_str:00000000000283ac .LASF5271
C:\Users\CYMR90~1\AppData\Local\Temp\ccYIfAxE.s:21088  .debug_str:000000000000560e .LASF5272
C:\Users\CYMR90~1\AppData\Local\Temp\ccYIfAxE.s:25550  .debug_str:0000000000016d79 .LASF5273
C:\Users\CYMR90~1\AppData\Local\Temp\ccYIfAxE.s:27863  .debug_str:0000000000020234 .LASF5274
C:\Users\CYMR90~1\AppData\Local\Temp\ccYIfAxE.s:26503  .debug_str:000000000001abfa .LASF5275
C:\Users\CYMR90~1\AppData\Local\Temp\ccYIfAxE.s:31253  .debug_str:000000000002d7a9 .LASF5276
C:\Users\CYMR90~1\AppData\Local\Temp\ccYIfAxE.s:25673  .debug_str:0000000000017605 .LASF5277
C:\Users\CYMR90~1\AppData\Local\Temp\ccYIfAxE.s:21284  .debug_str:0000000000006184 .LASF5278
C:\Users\CYMR90~1\AppData\Local\Temp\ccYIfAxE.s:23602  .debug_str:000000000000f522 .LASF5279
C:\Users\CYMR90~1\AppData\Local\Temp\ccYIfAxE.s:24348  .debug_str:00000000000122ec .LASF5280
C:\Users\CYMR90~1\AppData\Local\Temp\ccYIfAxE.s:26007  .debug_str:00000000000189f9 .LASF5281
C:\Users\CYMR90~1\AppData\Local\Temp\ccYIfAxE.s:28395  .debug_str:000000000002224f .LASF5282
C:\Users\CYMR90~1\AppData\Local\Temp\ccYIfAxE.s:29301  .debug_str:0000000000025b40 .LASF5283
C:\Users\CYMR90~1\AppData\Local\Temp\ccYIfAxE.s:30113  .debug_str:00000000000290e4 .LASF5284
C:\Users\CYMR90~1\AppData\Local\Temp\ccYIfAxE.s:29551  .debug_str:0000000000026b89 .LASF5285
C:\Users\CYMR90~1\AppData\Local\Temp\ccYIfAxE.s:24144  .debug_str:000000000001153c .LASF5286
C:\Users\CYMR90~1\AppData\Local\Temp\ccYIfAxE.s:23024  .debug_str:000000000000d1f7 .LASF5287
C:\Users\CYMR90~1\AppData\Local\Temp\ccYIfAxE.s:28029  .debug_str:0000000000020c92 .LASF5288
C:\Users\CYMR90~1\AppData\Local\Temp\ccYIfAxE.s:23684  .debug_str:000000000000fa75 .LASF5289
C:\Users\CYMR90~1\AppData\Local\Temp\ccYIfAxE.s:22988  .debug_str:000000000000d00c .LASF5290
C:\Users\CYMR90~1\AppData\Local\Temp\ccYIfAxE.s:29527  .debug_str:0000000000026a06 .LASF5291
C:\Users\CYMR90~1\AppData\Local\Temp\ccYIfAxE.s:30627  .debug_str:000000000002afff .LASF5292
C:\Users\CYMR90~1\AppData\Local\Temp\ccYIfAxE.s:22798  .debug_str:000000000000c35c .LASF5293
C:\Users\CYMR90~1\AppData\Local\Temp\ccYIfAxE.s:20644  .debug_str:0000000000003986 .LASF5294
C:\Users\CYMR90~1\AppData\Local\Temp\ccYIfAxE.s:21596  .debug_str:0000000000007533 .LASF5295
C:\Users\CYMR90~1\AppData\Local\Temp\ccYIfAxE.s:23688  .debug_str:000000000000fac4 .LASF5296
C:\Users\CYMR90~1\AppData\Local\Temp\ccYIfAxE.s:21154  .debug_str:0000000000005a01 .LASF5297
C:\Users\CYMR90~1\AppData\Local\Temp\ccYIfAxE.s:29991  .debug_str:0000000000028848 .LASF5298
C:\Users\CYMR90~1\AppData\Local\Temp\ccYIfAxE.s:24406  .debug_str:0000000000012679 .LASF5299
C:\Users\CYMR90~1\AppData\Local\Temp\ccYIfAxE.s:20462  .debug_str:0000000000002dce .LASF5300
C:\Users\CYMR90~1\AppData\Local\Temp\ccYIfAxE.s:29381  .debug_str:0000000000026121 .LASF5301
C:\Users\CYMR90~1\AppData\Local\Temp\ccYIfAxE.s:29783  .debug_str:0000000000027aae .LASF5302
C:\Users\CYMR90~1\AppData\Local\Temp\ccYIfAxE.s:24162  .debug_str:0000000000011650 .LASF5303
C:\Users\CYMR90~1\AppData\Local\Temp\ccYIfAxE.s:29261  .debug_str:000000000002585a .LASF5304
C:\Users\CYMR90~1\AppData\Local\Temp\ccYIfAxE.s:28763  .debug_str:00000000000237df .LASF5305
C:\Users\CYMR90~1\AppData\Local\Temp\ccYIfAxE.s:27479  .debug_str:000000000001ead5 .LASF5306
C:\Users\CYMR90~1\AppData\Local\Temp\ccYIfAxE.s:28413  .debug_str:0000000000022388 .LASF5307
C:\Users\CYMR90~1\AppData\Local\Temp\ccYIfAxE.s:31275  .debug_str:000000000002d90e .LASF5308
C:\Users\CYMR90~1\AppData\Local\Temp\ccYIfAxE.s:28597  .debug_str:0000000000022e35 .LASF5309
C:\Users\CYMR90~1\AppData\Local\Temp\ccYIfAxE.s:29205  .debug_str:00000000000253ee .LASF5310
C:\Users\CYMR90~1\AppData\Local\Temp\ccYIfAxE.s:21694  .debug_str:0000000000007b7f .LASF5311
C:\Users\CYMR90~1\AppData\Local\Temp\ccYIfAxE.s:21020  .debug_str:00000000000051e3 .LASF5312
C:\Users\CYMR90~1\AppData\Local\Temp\ccYIfAxE.s:28627  .debug_str:0000000000022ffa .LASF5313
C:\Users\CYMR90~1\AppData\Local\Temp\ccYIfAxE.s:24468  .debug_str:0000000000012a57 .LASF5314
C:\Users\CYMR90~1\AppData\Local\Temp\ccYIfAxE.s:29099  .debug_str:0000000000024d16 .LASF5315
C:\Users\CYMR90~1\AppData\Local\Temp\ccYIfAxE.s:30449  .debug_str:000000000002a532 .LASF5316
C:\Users\CYMR90~1\AppData\Local\Temp\ccYIfAxE.s:28681  .debug_str:000000000002339b .LASF5317
C:\Users\CYMR90~1\AppData\Local\Temp\ccYIfAxE.s:29347  .debug_str:0000000000025f0e .LASF5318
C:\Users\CYMR90~1\AppData\Local\Temp\ccYIfAxE.s:29397  .debug_str:000000000002623f .LASF5319
C:\Users\CYMR90~1\AppData\Local\Temp\ccYIfAxE.s:28145  .debug_str:000000000002132a .LASF5320
C:\Users\CYMR90~1\AppData\Local\Temp\ccYIfAxE.s:23794  .debug_str:000000000001004a .LASF5321
C:\Users\CYMR90~1\AppData\Local\Temp\ccYIfAxE.s:23974  .debug_str:0000000000010ae0 .LASF5322
C:\Users\CYMR90~1\AppData\Local\Temp\ccYIfAxE.s:29223  .debug_str:00000000000254ec .LASF5323
C:\Users\CYMR90~1\AppData\Local\Temp\ccYIfAxE.s:22458  .debug_str:000000000000ac46 .LASF5324
C:\Users\CYMR90~1\AppData\Local\Temp\ccYIfAxE.s:24010  .debug_str:0000000000010d22 .LASF5325
C:\Users\CYMR90~1\AppData\Local\Temp\ccYIfAxE.s:30713  .debug_str:000000000002b4ae .LASF5326
C:\Users\CYMR90~1\AppData\Local\Temp\ccYIfAxE.s:21988  .debug_str:0000000000008f46 .LASF5327
C:\Users\CYMR90~1\AppData\Local\Temp\ccYIfAxE.s:22572  .debug_str:000000000000b456 .LASF5328
C:\Users\CYMR90~1\AppData\Local\Temp\ccYIfAxE.s:29407  .debug_str:00000000000262c7 .LASF5329
C:\Users\CYMR90~1\AppData\Local\Temp\ccYIfAxE.s:19992  .debug_str:00000000000011a5 .LASF5330
C:\Users\CYMR90~1\AppData\Local\Temp\ccYIfAxE.s:25458  .debug_str:00000000000167c1 .LASF5331
C:\Users\CYMR90~1\AppData\Local\Temp\ccYIfAxE.s:24994  .debug_str:0000000000014bbc .LASF5332
C:\Users\CYMR90~1\AppData\Local\Temp\ccYIfAxE.s:29913  .debug_str:00000000000282bf .LASF5333
C:\Users\CYMR90~1\AppData\Local\Temp\ccYIfAxE.s:23444  .debug_str:000000000000ec0e .LASF5334
C:\Users\CYMR90~1\AppData\Local\Temp\ccYIfAxE.s:29945  .debug_str:0000000000028505 .LASF5335
C:\Users\CYMR90~1\AppData\Local\Temp\ccYIfAxE.s:27499  .debug_str:000000000001ec5b .LASF5336
C:\Users\CYMR90~1\AppData\Local\Temp\ccYIfAxE.s:24220  .debug_str:00000000000119f0 .LASF5337
C:\Users\CYMR90~1\AppData\Local\Temp\ccYIfAxE.s:27815  .debug_str:000000000001ff22 .LASF5338
C:\Users\CYMR90~1\AppData\Local\Temp\ccYIfAxE.s:21610  .debug_str:000000000000762e .LASF5339
C:\Users\CYMR90~1\AppData\Local\Temp\ccYIfAxE.s:24768  .debug_str:0000000000013e0c .LASF5340
C:\Users\CYMR90~1\AppData\Local\Temp\ccYIfAxE.s:27857  .debug_str:000000000002019d .LASF5341
C:\Users\CYMR90~1\AppData\Local\Temp\ccYIfAxE.s:23308  .debug_str:000000000000e3cf .LASF5342
C:\Users\CYMR90~1\AppData\Local\Temp\ccYIfAxE.s:27055  .debug_str:000000000001cf8a .LASF5343
C:\Users\CYMR90~1\AppData\Local\Temp\ccYIfAxE.s:23422  .debug_str:000000000000eab7 .LASF5344
C:\Users\CYMR90~1\AppData\Local\Temp\ccYIfAxE.s:26593  .debug_str:000000000001b207 .LASF5345
C:\Users\CYMR90~1\AppData\Local\Temp\ccYIfAxE.s:31119  .debug_str:000000000002ced3 .LASF5346
C:\Users\CYMR90~1\AppData\Local\Temp\ccYIfAxE.s:23454  .debug_str:000000000000ec82 .LASF5347
C:\Users\CYMR90~1\AppData\Local\Temp\ccYIfAxE.s:20074  .debug_str:0000000000001632 .LASF5348
C:\Users\CYMR90~1\AppData\Local\Temp\ccYIfAxE.s:26659  .debug_str:000000000001b683 .LASF5349
C:\Users\CYMR90~1\AppData\Local\Temp\ccYIfAxE.s:29737  .debug_str:000000000002770f .LASF5350
C:\Users\CYMR90~1\AppData\Local\Temp\ccYIfAxE.s:26547  .debug_str:000000000001af09 .LASF5351
C:\Users\CYMR90~1\AppData\Local\Temp\ccYIfAxE.s:27555  .debug_str:000000000001efa7 .LASF5352
C:\Users\CYMR90~1\AppData\Local\Temp\ccYIfAxE.s:19918  .debug_str:0000000000000cbc .LASF5353
C:\Users\CYMR90~1\AppData\Local\Temp\ccYIfAxE.s:28163  .debug_str:0000000000021411 .LASF5354
C:\Users\CYMR90~1\AppData\Local\Temp\ccYIfAxE.s:22934  .debug_str:000000000000cc31 .LASF5355
C:\Users\CYMR90~1\AppData\Local\Temp\ccYIfAxE.s:25316  .debug_str:0000000000015e99 .LASF5356
C:\Users\CYMR90~1\AppData\Local\Temp\ccYIfAxE.s:23712  .debug_str:000000000000fc55 .LASF5357
C:\Users\CYMR90~1\AppData\Local\Temp\ccYIfAxE.s:25941  .debug_str:00000000000185fb .LASF5358
C:\Users\CYMR90~1\AppData\Local\Temp\ccYIfAxE.s:30613  .debug_str:000000000002af13 .LASF5359
C:\Users\CYMR90~1\AppData\Local\Temp\ccYIfAxE.s:24690  .debug_str:00000000000139ab .LASF5360
C:\Users\CYMR90~1\AppData\Local\Temp\ccYIfAxE.s:27741  .debug_str:000000000001fae2 .LASF5361
C:\Users\CYMR90~1\AppData\Local\Temp\ccYIfAxE.s:21672  .debug_str:0000000000007a27 .LASF5362
C:\Users\CYMR90~1\AppData\Local\Temp\ccYIfAxE.s:30511  .debug_str:000000000002a8fa .LASF5363
C:\Users\CYMR90~1\AppData\Local\Temp\ccYIfAxE.s:21538  .debug_str:0000000000007141 .LASF5364
C:\Users\CYMR90~1\AppData\Local\Temp\ccYIfAxE.s:29819  .debug_str:0000000000027cad .LASF5365
C:\Users\CYMR90~1\AppData\Local\Temp\ccYIfAxE.s:30313  .debug_str:0000000000029d6e .LASF5366
C:\Users\CYMR90~1\AppData\Local\Temp\ccYIfAxE.s:28511  .debug_str:0000000000022945 .LASF5367
C:\Users\CYMR90~1\AppData\Local\Temp\ccYIfAxE.s:25228  .debug_str:000000000001597a .LASF5368
C:\Users\CYMR90~1\AppData\Local\Temp\ccYIfAxE.s:21994  .debug_str:0000000000008f8d .LASF5369
C:\Users\CYMR90~1\AppData\Local\Temp\ccYIfAxE.s:20548  .debug_str:0000000000003333 .LASF5370
C:\Users\CYMR90~1\AppData\Local\Temp\ccYIfAxE.s:31027  .debug_str:000000000002c907 .LASF5371
C:\Users\CYMR90~1\AppData\Local\Temp\ccYIfAxE.s:22174  .debug_str:0000000000009a60 .LASF5372
C:\Users\CYMR90~1\AppData\Local\Temp\ccYIfAxE.s:21998  .debug_str:0000000000008fb4 .LASF5373
C:\Users\CYMR90~1\AppData\Local\Temp\ccYIfAxE.s:30521  .debug_str:000000000002a967 .LASF5374
C:\Users\CYMR90~1\AppData\Local\Temp\ccYIfAxE.s:20080  .debug_str:00000000000016b3 .LASF5375
C:\Users\CYMR90~1\AppData\Local\Temp\ccYIfAxE.s:30199  .debug_str:0000000000029655 .LASF5376
C:\Users\CYMR90~1\AppData\Local\Temp\ccYIfAxE.s:22114  .debug_str:00000000000096b2 .LASF5377
C:\Users\CYMR90~1\AppData\Local\Temp\ccYIfAxE.s:21508  .debug_str:0000000000006f61 .LASF5378
C:\Users\CYMR90~1\AppData\Local\Temp\ccYIfAxE.s:29469  .debug_str:00000000000266be .LASF5379
C:\Users\CYMR90~1\AppData\Local\Temp\ccYIfAxE.s:23692  .debug_str:000000000000fb1a .LASF5380
C:\Users\CYMR90~1\AppData\Local\Temp\ccYIfAxE.s:20846  .debug_str:0000000000004686 .LASF5381
C:\Users\CYMR90~1\AppData\Local\Temp\ccYIfAxE.s:26505  .debug_str:000000000001ac21 .LASF5382
C:\Users\CYMR90~1\AppData\Local\Temp\ccYIfAxE.s:29217  .debug_str:00000000000254ac .LASF5383
C:\Users\CYMR90~1\AppData\Local\Temp\ccYIfAxE.s:23628  .debug_str:000000000000f6d5 .LASF5384
C:\Users\CYMR90~1\AppData\Local\Temp\ccYIfAxE.s:19822  .debug_str:00000000000006ad .LASF5385
C:\Users\CYMR90~1\AppData\Local\Temp\ccYIfAxE.s:19768  .debug_str:00000000000003ad .LASF5386
C:\Users\CYMR90~1\AppData\Local\Temp\ccYIfAxE.s:20126  .debug_str:000000000000196b .LASF5387
C:\Users\CYMR90~1\AppData\Local\Temp\ccYIfAxE.s:28847  .debug_str:0000000000023d3c .LASF5388
C:\Users\CYMR90~1\AppData\Local\Temp\ccYIfAxE.s:29523  .debug_str:00000000000269c5 .LASF5389
C:\Users\CYMR90~1\AppData\Local\Temp\ccYIfAxE.s:24570  .debug_str:00000000000130f8 .LASF5390
C:\Users\CYMR90~1\AppData\Local\Temp\ccYIfAxE.s:26541  .debug_str:000000000001aeca .LASF5391
C:\Users\CYMR90~1\AppData\Local\Temp\ccYIfAxE.s:20416  .debug_str:0000000000002acc .LASF5392
C:\Users\CYMR90~1\AppData\Local\Temp\ccYIfAxE.s:25324  .debug_str:0000000000015f67 .LASF5393
C:\Users\CYMR90~1\AppData\Local\Temp\ccYIfAxE.s:27945  .debug_str:000000000002071b .LASF5394
C:\Users\CYMR90~1\AppData\Local\Temp\ccYIfAxE.s:30485  .debug_str:000000000002a746 .LASF5395
C:\Users\CYMR90~1\AppData\Local\Temp\ccYIfAxE.s:21898  .debug_str:00000000000089af .LASF5396
C:\Users\CYMR90~1\AppData\Local\Temp\ccYIfAxE.s:28653  .debug_str:00000000000231fa .LASF5397
C:\Users\CYMR90~1\AppData\Local\Temp\ccYIfAxE.s:27923  .debug_str:00000000000205ef .LASF5398
C:\Users\CYMR90~1\AppData\Local\Temp\ccYIfAxE.s:20900  .debug_str:0000000000004acc .LASF5399
C:\Users\CYMR90~1\AppData\Local\Temp\ccYIfAxE.s:21340  .debug_str:0000000000006507 .LASF5400
C:\Users\CYMR90~1\AppData\Local\Temp\ccYIfAxE.s:28609  .debug_str:0000000000022f04 .LASF5401
C:\Users\CYMR90~1\AppData\Local\Temp\ccYIfAxE.s:30391  .debug_str:000000000002a225 .LASF5402
C:\Users\CYMR90~1\AppData\Local\Temp\ccYIfAxE.s:26129  .debug_str:0000000000019246 .LASF5403
C:\Users\CYMR90~1\AppData\Local\Temp\ccYIfAxE.s:22832  .debug_str:000000000000c577 .LASF5404
C:\Users\CYMR90~1\AppData\Local\Temp\ccYIfAxE.s:27635  .debug_str:000000000001f4a4 .LASF5405
C:\Users\CYMR90~1\AppData\Local\Temp\ccYIfAxE.s:20804  .debug_str:00000000000043ef .LASF5406
C:\Users\CYMR90~1\AppData\Local\Temp\ccYIfAxE.s:28035  .debug_str:0000000000020d07 .LASF5407
C:\Users\CYMR90~1\AppData\Local\Temp\ccYIfAxE.s:24772  .debug_str:0000000000013e5f .LASF5408
C:\Users\CYMR90~1\AppData\Local\Temp\ccYIfAxE.s:30759  .debug_str:000000000002b745 .LASF5409
C:\Users\CYMR90~1\AppData\Local\Temp\ccYIfAxE.s:23892  .debug_str:000000000001061d .LASF5410
C:\Users\CYMR90~1\AppData\Local\Temp\ccYIfAxE.s:23092  .debug_str:000000000000d6c7 .LASF5411
C:\Users\CYMR90~1\AppData\Local\Temp\ccYIfAxE.s:27645  .debug_str:000000000001f55d .LASF5412
C:\Users\CYMR90~1\AppData\Local\Temp\ccYIfAxE.s:30941  .debug_str:000000000002c32d .LASF5413
C:\Users\CYMR90~1\AppData\Local\Temp\ccYIfAxE.s:27513  .debug_str:000000000001ed3d .LASF5414
C:\Users\CYMR90~1\AppData\Local\Temp\ccYIfAxE.s:28775  .debug_str:0000000000023897 .LASF5415
C:\Users\CYMR90~1\AppData\Local\Temp\ccYIfAxE.s:22622  .debug_str:000000000000b6e9 .LASF5416
C:\Users\CYMR90~1\AppData\Local\Temp\ccYIfAxE.s:28903  .debug_str:0000000000024039 .LASF5417
C:\Users\CYMR90~1\AppData\Local\Temp\ccYIfAxE.s:28515  .debug_str:0000000000022976 .LASF5418
C:\Users\CYMR90~1\AppData\Local\Temp\ccYIfAxE.s:27319  .debug_str:000000000001e18e .LASF5419
C:\Users\CYMR90~1\AppData\Local\Temp\ccYIfAxE.s:25901  .debug_str:00000000000183b5 .LASF5420
C:\Users\CYMR90~1\AppData\Local\Temp\ccYIfAxE.s:28385  .debug_str:00000000000221d1 .LASF5421
C:\Users\CYMR90~1\AppData\Local\Temp\ccYIfAxE.s:30915  .debug_str:000000000002c16c .LASF5422
C:\Users\CYMR90~1\AppData\Local\Temp\ccYIfAxE.s:21744  .debug_str:0000000000007ee7 .LASF5423
C:\Users\CYMR90~1\AppData\Local\Temp\ccYIfAxE.s:21166  .debug_str:0000000000005adf .LASF5424
C:\Users\CYMR90~1\AppData\Local\Temp\ccYIfAxE.s:21486  .debug_str:0000000000006ddb .LASF5425
C:\Users\CYMR90~1\AppData\Local\Temp\ccYIfAxE.s:22976  .debug_str:000000000000cf55 .LASF5426
C:\Users\CYMR90~1\AppData\Local\Temp\ccYIfAxE.s:24370  .debug_str:0000000000012466 .LASF5427
C:\Users\CYMR90~1\AppData\Local\Temp\ccYIfAxE.s:22724  .debug_str:000000000000be24 .LASF5428
C:\Users\CYMR90~1\AppData\Local\Temp\ccYIfAxE.s:29935  .debug_str:000000000002847f .LASF5429
C:\Users\CYMR90~1\AppData\Local\Temp\ccYIfAxE.s:29505  .debug_str:00000000000268d3 .LASF5430
C:\Users\CYMR90~1\AppData\Local\Temp\ccYIfAxE.s:25136  .debug_str:0000000000015456 .LASF5431
C:\Users\CYMR90~1\AppData\Local\Temp\ccYIfAxE.s:27811  .debug_str:000000000001fefa .LASF5432
C:\Users\CYMR90~1\AppData\Local\Temp\ccYIfAxE.s:26835  .debug_str:000000000001c1b1 .LASF5433
C:\Users\CYMR90~1\AppData\Local\Temp\ccYIfAxE.s:31097  .debug_str:000000000002cda5 .LASF5434
C:\Users\CYMR90~1\AppData\Local\Temp\ccYIfAxE.s:27291  .debug_str:000000000001df6b .LASF5435
C:\Users\CYMR90~1\AppData\Local\Temp\ccYIfAxE.s:27081  .debug_str:000000000001d1e2 .LASF5436
C:\Users\CYMR90~1\AppData\Local\Temp\ccYIfAxE.s:28215  .debug_str:0000000000021717 .LASF5437
C:\Users\CYMR90~1\AppData\Local\Temp\ccYIfAxE.s:23056  .debug_str:000000000000d431 .LASF5438
C:\Users\CYMR90~1\AppData\Local\Temp\ccYIfAxE.s:27233  .debug_str:000000000001dbe7 .LASF5439
C:\Users\CYMR90~1\AppData\Local\Temp\ccYIfAxE.s:25787  .debug_str:0000000000017cfe .LASF5440
C:\Users\CYMR90~1\AppData\Local\Temp\ccYIfAxE.s:24934  .debug_str:00000000000147fa .LASF5441
C:\Users\CYMR90~1\AppData\Local\Temp\ccYIfAxE.s:20486  .debug_str:0000000000002f3f .LASF5442
C:\Users\CYMR90~1\AppData\Local\Temp\ccYIfAxE.s:25144  .debug_str:00000000000154d4 .LASF5443
C:\Users\CYMR90~1\AppData\Local\Temp\ccYIfAxE.s:23120  .debug_str:000000000000d8e4 .LASF5444
C:\Users\CYMR90~1\AppData\Local\Temp\ccYIfAxE.s:24800  .debug_str:000000000001401f .LASF5445
C:\Users\CYMR90~1\AppData\Local\Temp\ccYIfAxE.s:20414  .debug_str:0000000000002ab0 .LASF5446
C:\Users\CYMR90~1\AppData\Local\Temp\ccYIfAxE.s:22294  .debug_str:000000000000a1f8 .LASF5447
C:\Users\CYMR90~1\AppData\Local\Temp\ccYIfAxE.s:29237  .debug_str:0000000000025647 .LASF5448
C:\Users\CYMR90~1\AppData\Local\Temp\ccYIfAxE.s:27143  .debug_str:000000000001d64f .LASF5449
C:\Users\CYMR90~1\AppData\Local\Temp\ccYIfAxE.s:30487  .debug_str:000000000002a75f .LASF5450
C:\Users\CYMR90~1\AppData\Local\Temp\ccYIfAxE.s:25328  .debug_str:0000000000015f8d .LASF5451
C:\Users\CYMR90~1\AppData\Local\Temp\ccYIfAxE.s:22326  .debug_str:000000000000a407 .LASF5452
C:\Users\CYMR90~1\AppData\Local\Temp\ccYIfAxE.s:28203  .debug_str:000000000002166c .LASF5453
C:\Users\CYMR90~1\AppData\Local\Temp\ccYIfAxE.s:27933  .debug_str:000000000002066b .LASF5454
C:\Users\CYMR90~1\AppData\Local\Temp\ccYIfAxE.s:29341  .debug_str:0000000000025e9d .LASF5455
C:\Users\CYMR90~1\AppData\Local\Temp\ccYIfAxE.s:22952  .debug_str:000000000000cd52 .LASF5456
C:\Users\CYMR90~1\AppData\Local\Temp\ccYIfAxE.s:22358  .debug_str:000000000000a617 .LASF5457
C:\Users\CYMR90~1\AppData\Local\Temp\ccYIfAxE.s:29283  .debug_str:00000000000259d0 .LASF5458
C:\Users\CYMR90~1\AppData\Local\Temp\ccYIfAxE.s:29879  .debug_str:000000000002804f .LASF5459
C:\Users\CYMR90~1\AppData\Local\Temp\ccYIfAxE.s:26067  .debug_str:0000000000018dce .LASF5460
C:\Users\CYMR90~1\AppData\Local\Temp\ccYIfAxE.s:22920  .debug_str:000000000000cade .LASF5461
C:\Users\CYMR90~1\AppData\Local\Temp\ccYIfAxE.s:23058  .debug_str:000000000000d449 .LASF5462
C:\Users\CYMR90~1\AppData\Local\Temp\ccYIfAxE.s:24166  .debug_str:0000000000011694 .LASF5463
C:\Users\CYMR90~1\AppData\Local\Temp\ccYIfAxE.s:27285  .debug_str:000000000001df0a .LASF5464
C:\Users\CYMR90~1\AppData\Local\Temp\ccYIfAxE.s:22084  .debug_str:00000000000094ff .LASF5465
C:\Users\CYMR90~1\AppData\Local\Temp\ccYIfAxE.s:21730  .debug_str:0000000000007df6 .LASF5466
C:\Users\CYMR90~1\AppData\Local\Temp\ccYIfAxE.s:27167  .debug_str:000000000001d7bc .LASF5467
C:\Users\CYMR90~1\AppData\Local\Temp\ccYIfAxE.s:30153  .debug_str:000000000002935d .LASF5468
C:\Users\CYMR90~1\AppData\Local\Temp\ccYIfAxE.s:27963  .debug_str:000000000002080b .LASF5469
C:\Users\CYMR90~1\AppData\Local\Temp\ccYIfAxE.s:19710  .debug_str:00000000000000a6 .LASF5470
C:\Users\CYMR90~1\AppData\Local\Temp\ccYIfAxE.s:27897  .debug_str:0000000000020473 .LASF5471
C:\Users\CYMR90~1\AppData\Local\Temp\ccYIfAxE.s:31227  .debug_str:000000000002d662 .LASF5472
C:\Users\CYMR90~1\AppData\Local\Temp\ccYIfAxE.s:27315  .debug_str:000000000001e155 .LASF5473
C:\Users\CYMR90~1\AppData\Local\Temp\ccYIfAxE.s:21216  .debug_str:0000000000005de8 .LASF5474
C:\Users\CYMR90~1\AppData\Local\Temp\ccYIfAxE.s:20348  .debug_str:0000000000002649 .LASF5475
C:\Users\CYMR90~1\AppData\Local\Temp\ccYIfAxE.s:28135  .debug_str:000000000002128d .LASF5476
C:\Users\CYMR90~1\AppData\Local\Temp\ccYIfAxE.s:30061  .debug_str:0000000000028d6c .LASF5477
C:\Users\CYMR90~1\AppData\Local\Temp\ccYIfAxE.s:19814  .debug_str:0000000000000619 .LASF5478
C:\Users\CYMR90~1\AppData\Local\Temp\ccYIfAxE.s:24400  .debug_str:0000000000012602 .LASF5479
C:\Users\CYMR90~1\AppData\Local\Temp\ccYIfAxE.s:24830  .debug_str:00000000000141ba .LASF5480
C:\Users\CYMR90~1\AppData\Local\Temp\ccYIfAxE.s:24368  .debug_str:000000000001244d .LASF5481
C:\Users\CYMR90~1\AppData\Local\Temp\ccYIfAxE.s:21346  .debug_str:0000000000006569 .LASF5482
C:\Users\CYMR90~1\AppData\Local\Temp\ccYIfAxE.s:27623  .debug_str:000000000001f3d0 .LASF5483
C:\Users\CYMR90~1\AppData\Local\Temp\ccYIfAxE.s:25733  .debug_str:0000000000017975 .LASF5484
C:\Users\CYMR90~1\AppData\Local\Temp\ccYIfAxE.s:20078  .debug_str:0000000000001678 .LASF5485
C:\Users\CYMR90~1\AppData\Local\Temp\ccYIfAxE.s:27847  .debug_str:000000000002011f .LASF5486
C:\Users\CYMR90~1\AppData\Local\Temp\ccYIfAxE.s:20430  .debug_str:0000000000002bda .LASF5487
C:\Users\CYMR90~1\AppData\Local\Temp\ccYIfAxE.s:21122  .debug_str:000000000000580a .LASF5488
C:\Users\CYMR90~1\AppData\Local\Temp\ccYIfAxE.s:20032  .debug_str:00000000000013c4 .LASF5489
C:\Users\CYMR90~1\AppData\Local\Temp\ccYIfAxE.s:29675  .debug_str:000000000002731d .LASF5490
C:\Users\CYMR90~1\AppData\Local\Temp\ccYIfAxE.s:25388  .debug_str:00000000000163a5 .LASF5491
C:\Users\CYMR90~1\AppData\Local\Temp\ccYIfAxE.s:20666  .debug_str:0000000000003ace .LASF5492
C:\Users\CYMR90~1\AppData\Local\Temp\ccYIfAxE.s:22580  .debug_str:000000000000b4c2 .LASF5493
C:\Users\CYMR90~1\AppData\Local\Temp\ccYIfAxE.s:28951  .debug_str:00000000000242ea .LASF5494
C:\Users\CYMR90~1\AppData\Local\Temp\ccYIfAxE.s:27851  .debug_str:0000000000020156 .LASF5495
C:\Users\CYMR90~1\AppData\Local\Temp\ccYIfAxE.s:29829  .debug_str:0000000000027d3e .LASF5496
C:\Users\CYMR90~1\AppData\Local\Temp\ccYIfAxE.s:21840  .debug_str:000000000000863b .LASF5497
C:\Users\CYMR90~1\AppData\Local\Temp\ccYIfAxE.s:30817  .debug_str:000000000002baff .LASF5498
C:\Users\CYMR90~1\AppData\Local\Temp\ccYIfAxE.s:27927  .debug_str:000000000002061a .LASF5499
C:\Users\CYMR90~1\AppData\Local\Temp\ccYIfAxE.s:26221  .debug_str:0000000000019898 .LASF5500
C:\Users\CYMR90~1\AppData\Local\Temp\ccYIfAxE.s:19958  .debug_str:0000000000000fb3 .LASF5501
C:\Users\CYMR90~1\AppData\Local\Temp\ccYIfAxE.s:27755  .debug_str:000000000001fbc2 .LASF5502
C:\Users\CYMR90~1\AppData\Local\Temp\ccYIfAxE.s:21192  .debug_str:0000000000005c67 .LASF5503
C:\Users\CYMR90~1\AppData\Local\Temp\ccYIfAxE.s:30783  .debug_str:000000000002b89d .LASF5504
C:\Users\CYMR90~1\AppData\Local\Temp\ccYIfAxE.s:25456  .debug_str:00000000000167a4 .LASF5505
C:\Users\CYMR90~1\AppData\Local\Temp\ccYIfAxE.s:25248  .debug_str:0000000000015aa9 .LASF5506
C:\Users\CYMR90~1\AppData\Local\Temp\ccYIfAxE.s:26293  .debug_str:0000000000019dd4 .LASF5507
C:\Users\CYMR90~1\AppData\Local\Temp\ccYIfAxE.s:29569  .debug_str:0000000000026ca9 .LASF5508
C:\Users\CYMR90~1\AppData\Local\Temp\ccYIfAxE.s:29123  .debug_str:0000000000024eef .LASF5509
C:\Users\CYMR90~1\AppData\Local\Temp\ccYIfAxE.s:30761  .debug_str:000000000002b75d .LASF5510
C:\Users\CYMR90~1\AppData\Local\Temp\ccYIfAxE.s:20712  .debug_str:0000000000003d95 .LASF5511
C:\Users\CYMR90~1\AppData\Local\Temp\ccYIfAxE.s:27549  .debug_str:000000000001ef5b .LASF5512
C:\Users\CYMR90~1\AppData\Local\Temp\ccYIfAxE.s:26805  .debug_str:000000000001bfc6 .LASF5513
C:\Users\CYMR90~1\AppData\Local\Temp\ccYIfAxE.s:22544  .debug_str:000000000000b26b .LASF5514
C:\Users\CYMR90~1\AppData\Local\Temp\ccYIfAxE.s:21142  .debug_str:0000000000005963 .LASF5515
C:\Users\CYMR90~1\AppData\Local\Temp\ccYIfAxE.s:28351  .debug_str:0000000000021fd2 .LASF5516
C:\Users\CYMR90~1\AppData\Local\Temp\ccYIfAxE.s:22168  .debug_str:00000000000099f5 .LASF5517
C:\Users\CYMR90~1\AppData\Local\Temp\ccYIfAxE.s:31163  .debug_str:000000000002d1e3 .LASF5518
C:\Users\CYMR90~1\AppData\Local\Temp\ccYIfAxE.s:30207  .debug_str:00000000000296b6 .LASF5519
C:\Users\CYMR90~1\AppData\Local\Temp\ccYIfAxE.s:20534  .debug_str:0000000000003237 .LASF5520
C:\Users\CYMR90~1\AppData\Local\Temp\ccYIfAxE.s:28299  .debug_str:0000000000021ceb .LASF5521
C:\Users\CYMR90~1\AppData\Local\Temp\ccYIfAxE.s:31131  .debug_str:000000000002cf90 .LASF5522
C:\Users\CYMR90~1\AppData\Local\Temp\ccYIfAxE.s:27525  .debug_str:000000000001ede1 .LASF5523
C:\Users\CYMR90~1\AppData\Local\Temp\ccYIfAxE.s:30469  .debug_str:000000000002a662 .LASF5524
C:\Users\CYMR90~1\AppData\Local\Temp\ccYIfAxE.s:25322  .debug_str:0000000000015f47 .LASF5525
C:\Users\CYMR90~1\AppData\Local\Temp\ccYIfAxE.s:27457  .debug_str:000000000001e9a6 .LASF5526
C:\Users\CYMR90~1\AppData\Local\Temp\ccYIfAxE.s:23662  .debug_str:000000000000f89e .LASF5527
C:\Users\CYMR90~1\AppData\Local\Temp\ccYIfAxE.s:23648  .debug_str:000000000000f7ea .LASF5528
C:\Users\CYMR90~1\AppData\Local\Temp\ccYIfAxE.s:27829  .debug_str:0000000000020018 .LASF5529
C:\Users\CYMR90~1\AppData\Local\Temp\ccYIfAxE.s:29561  .debug_str:0000000000026c2f .LASF5530
C:\Users\CYMR90~1\AppData\Local\Temp\ccYIfAxE.s:20110  .debug_str:0000000000001878 .LASF5531
C:\Users\CYMR90~1\AppData\Local\Temp\ccYIfAxE.s:26237  .debug_str:0000000000019990 .LASF5532
C:\Users\CYMR90~1\AppData\Local\Temp\ccYIfAxE.s:19904  .debug_str:0000000000000be6 .LASF5533
C:\Users\CYMR90~1\AppData\Local\Temp\ccYIfAxE.s:25773  .debug_str:0000000000017c32 .LASF5534
C:\Users\CYMR90~1\AppData\Local\Temp\ccYIfAxE.s:20228  .debug_str:0000000000001f4c .LASF5535
C:\Users\CYMR90~1\AppData\Local\Temp\ccYIfAxE.s:25318  .debug_str:0000000000015eb1 .LASF5536
C:\Users\CYMR90~1\AppData\Local\Temp\ccYIfAxE.s:23402  .debug_str:000000000000e941 .LASF5537
C:\Users\CYMR90~1\AppData\Local\Temp\ccYIfAxE.s:24168  .debug_str:00000000000116b6 .LASF5538
C:\Users\CYMR90~1\AppData\Local\Temp\ccYIfAxE.s:22510  .debug_str:000000000000af78 .LASF5539
C:\Users\CYMR90~1\AppData\Local\Temp\ccYIfAxE.s:20758  .debug_str:00000000000040bd .LASF5540
C:\Users\CYMR90~1\AppData\Local\Temp\ccYIfAxE.s:30873  .debug_str:000000000002be85 .LASF5541
C:\Users\CYMR90~1\AppData\Local\Temp\ccYIfAxE.s:22334  .debug_str:000000000000a493 .LASF5542
C:\Users\CYMR90~1\AppData\Local\Temp\ccYIfAxE.s:28077  .debug_str:0000000000020f65 .LASF5543
C:\Users\CYMR90~1\AppData\Local\Temp\ccYIfAxE.s:28789  .debug_str:000000000002396a .LASF5544
C:\Users\CYMR90~1\AppData\Local\Temp\ccYIfAxE.s:30909  .debug_str:000000000002c11b .LASF5545
C:\Users\CYMR90~1\AppData\Local\Temp\ccYIfAxE.s:20014  .debug_str:00000000000012d0 .LASF5546
C:\Users\CYMR90~1\AppData\Local\Temp\ccYIfAxE.s:25613  .debug_str:00000000000172c9 .LASF5547
C:\Users\CYMR90~1\AppData\Local\Temp\ccYIfAxE.s:28425  .debug_str:0000000000022445 .LASF5548
C:\Users\CYMR90~1\AppData\Local\Temp\ccYIfAxE.s:27317  .debug_str:000000000001e177 .LASF5549
C:\Users\CYMR90~1\AppData\Local\Temp\ccYIfAxE.s:23846  .debug_str:000000000001038d .LASF5550
C:\Users\CYMR90~1\AppData\Local\Temp\ccYIfAxE.s:20198  .debug_str:0000000000001daf .LASF5551
C:\Users\CYMR90~1\AppData\Local\Temp\ccYIfAxE.s:26575  .debug_str:000000000001b0b7 .LASF5552
C:\Users\CYMR90~1\AppData\Local\Temp\ccYIfAxE.s:23284  .debug_str:000000000000e273 .LASF5553
C:\Users\CYMR90~1\AppData\Local\Temp\ccYIfAxE.s:22618  .debug_str:000000000000b6a6 .LASF5554
C:\Users\CYMR90~1\AppData\Local\Temp\ccYIfAxE.s:30071  .debug_str:0000000000028e24 .LASF5555
C:\Users\CYMR90~1\AppData\Local\Temp\ccYIfAxE.s:31025  .debug_str:000000000002c8ce .LASF5556
C:\Users\CYMR90~1\AppData\Local\Temp\ccYIfAxE.s:30257  .debug_str:00000000000299a0 .LASF5557
C:\Users\CYMR90~1\AppData\Local\Temp\ccYIfAxE.s:27235  .debug_str:000000000001dbfd .LASF5558
C:\Users\CYMR90~1\AppData\Local\Temp\ccYIfAxE.s:27433  .debug_str:000000000001e861 .LASF5559
C:\Users\CYMR90~1\AppData\Local\Temp\ccYIfAxE.s:21270  .debug_str:00000000000060ba .LASF5560
C:\Users\CYMR90~1\AppData\Local\Temp\ccYIfAxE.s:23174  .debug_str:000000000000dc1f .LASF5561
C:\Users\CYMR90~1\AppData\Local\Temp\ccYIfAxE.s:28357  .debug_str:0000000000022034 .LASF5562
C:\Users\CYMR90~1\AppData\Local\Temp\ccYIfAxE.s:27267  .debug_str:000000000001de0e .LASF5563
C:\Users\CYMR90~1\AppData\Local\Temp\ccYIfAxE.s:29017  .debug_str:00000000000247f3 .LASF5564
C:\Users\CYMR90~1\AppData\Local\Temp\ccYIfAxE.s:25967  .debug_str:0000000000018791 .LASF5565
C:\Users\CYMR90~1\AppData\Local\Temp\ccYIfAxE.s:20406  .debug_str:0000000000002a2e .LASF5566
C:\Users\CYMR90~1\AppData\Local\Temp\ccYIfAxE.s:27735  .debug_str:000000000001fa8c .LASF5567
C:\Users\CYMR90~1\AppData\Local\Temp\ccYIfAxE.s:21390  .debug_str:00000000000067f0 .LASF5568
C:\Users\CYMR90~1\AppData\Local\Temp\ccYIfAxE.s:27185  .debug_str:000000000001d8d3 .LASF5569
C:\Users\CYMR90~1\AppData\Local\Temp\ccYIfAxE.s:23608  .debug_str:000000000000f571 .LASF5570
C:\Users\CYMR90~1\AppData\Local\Temp\ccYIfAxE.s:21360  .debug_str:0000000000006645 .LASF5571
C:\Users\CYMR90~1\AppData\Local\Temp\ccYIfAxE.s:25360  .debug_str:00000000000161cc .LASF5572
C:\Users\CYMR90~1\AppData\Local\Temp\ccYIfAxE.s:26121  .debug_str:0000000000019198 .LASF5573
C:\Users\CYMR90~1\AppData\Local\Temp\ccYIfAxE.s:20150  .debug_str:0000000000001ac5 .LASF5574
C:\Users\CYMR90~1\AppData\Local\Temp\ccYIfAxE.s:30961  .debug_str:000000000002c470 .LASF5575
C:\Users\CYMR90~1\AppData\Local\Temp\ccYIfAxE.s:26987  .debug_str:000000000001ca91 .LASF5576
C:\Users\CYMR90~1\AppData\Local\Temp\ccYIfAxE.s:22498  .debug_str:000000000000aec9 .LASF5577
C:\Users\CYMR90~1\AppData\Local\Temp\ccYIfAxE.s:28375  .debug_str:0000000000022139 .LASF5578
C:\Users\CYMR90~1\AppData\Local\Temp\ccYIfAxE.s:29603  .debug_str:0000000000026ef2 .LASF5579
C:\Users\CYMR90~1\AppData\Local\Temp\ccYIfAxE.s:24586  .debug_str:000000000001320e .LASF5580
C:\Users\CYMR90~1\AppData\Local\Temp\ccYIfAxE.s:26743  .debug_str:000000000001bc3f .LASF5581
C:\Users\CYMR90~1\AppData\Local\Temp\ccYIfAxE.s:24750  .debug_str:0000000000013d16 .LASF5582
C:\Users\CYMR90~1\AppData\Local\Temp\ccYIfAxE.s:20394  .debug_str:0000000000002952 .LASF5583
C:\Users\CYMR90~1\AppData\Local\Temp\ccYIfAxE.s:19908  .debug_str:0000000000000c26 .LASF5584
C:\Users\CYMR90~1\AppData\Local\Temp\ccYIfAxE.s:23870  .debug_str:0000000000010554 .LASF5585
                           .group:0000000000000000 wm4.0.10abbef32179bc1260444192115bdf5e
                           .group:0000000000000000 wm4.stddef.h.39.144cf5ddcd53cbfdac30259dc1a6c87f
                           .group:0000000000000000 wm4._newlib_version.h.4.bfdf54b0af045d4a71376ae00f63a22c
                           .group:0000000000000000 wm4.newlib.h.18.08a2ecba46890ca2aa56bbe21686e6c3
                           .group:0000000000000000 wm4.ieeefp.h.202.4f2759f5758fd82153cfbf98692f2ced
                           .group:0000000000000000 wm4.features.h.22.fad1cec3bc7ff06488171438dbdcfd02
                           .group:0000000000000000 wm4.config.h.83.13bbc8852bfac55b724c9822481355b5
                           .group:0000000000000000 wm4._ansi.h.31.de524f58584151836e90d8620a16f8e8
                           .group:0000000000000000 wm4.stdio.h.31.7c0e28c411445f3f9c5b11accf882760
                           .group:0000000000000000 wm4._default_types.h.6.959254cf5f09734ea7516c89e8bb21bd
                           .group:0000000000000000 wm4.stddef.h.155.ba788add86a0e365f264484f110c3c29
                           .group:0000000000000000 wm4.cdefs.h.49.39045112216f6a021dbdffe3bf5accce
                           .group:0000000000000000 wm4.stdarg.h.34.3a23a216c0c293b3d2ea2e89281481e6
                           .group:0000000000000000 wm4._types.h.20.dd0d04dca3800a0d2a6129b87f3adbb2
                           .group:0000000000000000 wm4.stddef.h.155.3588ebfdd1e8c7ede80509bb9c3b8009
                           .group:0000000000000000 wm4._types.h.127.34941de1b2539d59d5cac00e0dd27a45
                           .group:0000000000000000 wm4.reent.h.17.e292bf8b0bec6c96e131a54347145a30
                           .group:0000000000000000 wm4.lock.h.2.c0958401bd0ce484d507ee19aacab817
                           .group:0000000000000000 wm4.reent.h.77.dcd6129ff07fe81bd5636db29abe53b2
                           .group:0000000000000000 wm4.types.h.40.8b6acba56cefbb11746718204edc8f5e
                           .group:0000000000000000 wm4._stdint.h.10.c24fa3af3bc1706662bb5593a907e841
                           .group:0000000000000000 wm4._endian.h.18.1bf9649e8e5bbc91042012680270b9ed
                           .group:0000000000000000 wm4.endian.h.9.49f3a4695c1b61e8a0808de3c4a106cb
                           .group:0000000000000000 wm4._timeval.h.32.bec3221fa7a9bb0bdde696c9c57e47d2
                           .group:0000000000000000 wm4.timespec.h.41.d855182eb0e690443ab8651bcedca6e1
                           .group:0000000000000000 wm4.select.h.19.40cd3f2bfc456b193b790c2754690ebf
                           .group:0000000000000000 wm4.types.h.51.5571ec98f267d17d3c670b7a3ba33afa
                           .group:0000000000000000 wm4.sched.h.22.c60982713a5c428609783c78f9c78d95
                           .group:0000000000000000 wm4._pthreadtypes.h.36.fcee9961c35163dde6267ef772ad1972
                           .group:0000000000000000 wm4.stdio.h.2.4aa87247282eca6c8f36f9de33d8df1a
                           .group:0000000000000000 wm4.stdio.h.81.932d0c162786b883f622b8d05c120c78
                           .group:0000000000000000 wm4.gd32vw55x.h.47.379378190858578060a317909b2c8d8a
                           .group:0000000000000000 wm4._intsup.h.10.48bafbb683905c4daa4565a85aeeb264
                           .group:0000000000000000 wm4.stdint.h.23.d53047a68f4a85177f80b422d52785ed
                           .group:0000000000000000 wm4.nmsis_version.h.19.ffa173da8efb17b1050904994d6f500e
                           .group:0000000000000000 wm4.riscv_bits.h.19.ee94eb3d39937793d4cd0a62363e5d00
                           .group:0000000000000000 wm4.riscv_encoding.h.35.f5d37fad7abbab8278b4bb6f1e32fa65
                           .group:0000000000000000 wm4.nmsis_gcc.h.61.5d70d7598ffc79c3c991d847a574cf23
                           .group:0000000000000000 wm4.core_feature_base.h.20.e99d3e75c26a8f3341d35bf20d0e1d20
                           .group:0000000000000000 wm4.core_feature_fpu.h.19.695f2200274659b530cb97cda749ff4f
                           .group:0000000000000000 wm4.core_feature_dsp.h.19.e8f8d7aa42f197807aefedb6584486cd
                           .group:0000000000000000 wm4.core_compatiable.h.19.5b8282d61b1f6889a82895616b730084
                           .group:0000000000000000 wm4.core_feature_eclic.h.19.e0c091d0cbda79e8b3b031b979ebd5a1
                           .group:0000000000000000 wm4.core_feature_timer.h.19.21a5151282de34c37dfa6d84e262aa54
                           .group:0000000000000000 wm4.system_gd32vw55x.h.32.f1fcb1212d387c35ac955b0e96ada468
                           .group:0000000000000000 wm4.gd32vw55x.h.231.3529c650aff38c9372f7e03177fd2c8a
                           .group:0000000000000000 wm4.gd32vw55x_adc.h.42.ae73acec1704ef509ccecb41a875b50e
                           .group:0000000000000000 wm4.gd32vw55x_cau.h.36.c98428fe1eae7edb4721da5c8078c974
                           .group:0000000000000000 wm4.gd32vw55x_crc.h.37.c58f296814c2300a4b067c08bd88d54e
                           .group:0000000000000000 wm4.gd32vw55x_dbg.h.36.311650c8545549d482ceca8befc5a232
                           .group:0000000000000000 wm4.gd32vw55x_dma.h.36.f4adc751172b2a7b1533dda72e948737
                           .group:0000000000000000 wm4.gd32vw55x_eclic.h.36.0411499f2b2493c67246e32ccae096c1
                           .group:0000000000000000 wm4.gd32vw55x_efuse.h.36.091404cecbab70359dfd93faec5fdb62
                           .group:0000000000000000 wm4.gd32vw55x_exti.h.36.de7508334dd12f1a6a673521a1a835f5
                           .group:0000000000000000 wm4.gd32vw55x_fmc.h.36.a4b0b94c47ffe23a2fa09260c5ed4850
                           .group:0000000000000000 wm4.gd32vw55x_fwdgt.h.36.4846b6900fd24b5bfce4986c9a8ce677
                           .group:0000000000000000 wm4.gd32vw55x_gpio.h.36.adfee1371bb58d3d9043c47bdb25a90f
                           .group:0000000000000000 wm4.gd32vw55x_hau.h.36.f3cbcbd7b67c9e5bdc7a1100b1bf3458
                           .group:0000000000000000 wm4.gd32vw55x_i2c.h.36.3848990933925e084eb427083790c53f
                           .group:0000000000000000 wm4.gd32vw55x_pkcau.h.36.bb2235f4cf4967063a51bfa9aca5ef27
                           .group:0000000000000000 wm4.gd32vw55x_pmu.h.36.4c76091f1415551526d489ccf2c42052
                           .group:0000000000000000 wm4.gd32vw55x_qspi.h.36.2d2c181cfe19b935a9641008fc786613
                           .group:0000000000000000 wm4.gd32vw55x_rcu.h.36.780a8a45c00d563711cceb445027ef47
                           .group:0000000000000000 wm4.gd32vw55x_rtc.h.36.3172855e8715659e080e0eab46fdf175
                           .group:0000000000000000 wm4.gd32vw55x_spi.h.36.9fa1be2b09fb73e4b5886e97f0e96d58
                           .group:0000000000000000 wm4.gd32vw55x_syscfg.h.36.010551f05591f5e34051d2e15df0352b
                           .group:0000000000000000 wm4.gd32vw55x_timer.h.38.2cbee78ea60d47145be361b2d2c55070
                           .group:0000000000000000 wm4.gd32vw55x_trng.h.36.c9e7807af1b1ab68d3bbb54f4ed5cd73
                           .group:0000000000000000 wm4.gd32vw55x_usart.h.36.f5c497cca17945a34f154b0e17017d02
                           .group:0000000000000000 wm4.gd32vw55x_wwdgt.h.36.f7a443b7302efc0e5c335888582ee197
                           .group:0000000000000000 wm4.gd32vw553h_eval.h.64.113bbb8b87de320b07fed1a6f90a564c

UNDEFINED SYMBOLS
rcu_periph_clock_enable
gpio_mode_set
gpio_output_options_set
eclic_priority_group_set
eclic_irq_enable
syscfg_exti_line_config
exti_init
exti_interrupt_flag_clear
gpio_input_bit_get
gpio_af_set
usart_deinit
usart_baudrate_set
usart_receive_config
usart_transmit_config
usart_enable
