   1              		.file	"gd32vw553h_eval.c"
   2              		.option nopic
   3              		.attribute arch, "rv32i2p0_m2p0_a2p0_c2p0"
   4              		.attribute unaligned_access, 0
   5              		.attribute stack_align, 16
   6              		.text
   7              	.Ltext0:
   8              		.cfi_sections	.debug_frame
   9              		.section	.data.GPIO_PORT,"aw"
  10              		.align	2
  13              	GPIO_PORT:
  14 0000 00000240 		.word	1073872896
  15 0004 00000240 		.word	1073872896
  16 0008 00000240 		.word	1073872896
  17              		.section	.data.GPIO_PIN,"aw"
  18              		.align	2
  21              	GPIO_PIN:
  22 0000 10000000 		.word	16
  23 0004 20000000 		.word	32
  24 0008 40000000 		.word	64
  25              		.section	.sdata.COM_CLK,"aw"
  26              		.align	2
  29              	COM_CLK:
  30 0000 12100000 		.word	4114
  31              		.section	.sdata.COM_TX_PIN,"aw"
  32              		.align	2
  35              	COM_TX_PIN:
  36 0000 00800000 		.word	32768
  37              		.section	.sdata.COM_RX_PIN,"aw"
  38              		.align	2
  41              	COM_RX_PIN:
  42 0000 00010000 		.word	256
  43              		.section	.data.GPIO_CLK,"aw"
  44              		.align	2
  47              	GPIO_CLK:
  48 0000 000C0000 		.word	3072
  49 0004 000C0000 		.word	3072
  50 0008 000C0000 		.word	3072
  51              		.section	.sdata.KEY_PORT,"aw"
  52              		.align	2
  55              	KEY_PORT:
  56 0000 00000240 		.word	1073872896
  57              		.section	.sdata.KEY_PIN,"aw"
  58              		.align	2
  61              	KEY_PIN:
  62 0000 01000000 		.word	1
  63              		.section	.sdata.KEY_CLK,"aw"
  64              		.align	2
  67              	KEY_CLK:
  68 0000 000C0000 		.word	3072
  69              		.section	.sdata.KEY_EXTI_LINE,"aw"
  70              		.align	2
  73              	KEY_EXTI_LINE:
  74 0000 01000000 		.word	1
  75              		.section	.sbss.KEY_PORT_SOURCE,"aw",@nobits
  76              		.align	2
  79              	KEY_PORT_SOURCE:
  80 0000 00       		.zero	1
  81              		.section	.sbss.KEY_PIN_SOURCE,"aw",@nobits
  82              		.align	2
  85              	KEY_PIN_SOURCE:
  86 0000 00       		.zero	1
  87              		.section	.sdata.KEY_IRQn,"aw"
  88              		.align	2
  91              	KEY_IRQn:
  92 0000 19000000 		.word	25
  93              		.section	.text.gd_eval_led_init,"ax",@progbits
  94              		.align	1
  95              		.globl	gd_eval_led_init
  97              	gd_eval_led_init:
  98              	.LFB347:
  99              		.file 1 "../src/gd32vw553h_eval.c"
   1:../src/gd32vw553h_eval.c **** /*!
   2:../src/gd32vw553h_eval.c ****     \file    gd32vw55x_eval.c
   3:../src/gd32vw553h_eval.c ****     \brief   firmware functions to manage leds, keys, COM ports
   4:../src/gd32vw553h_eval.c **** 
   5:../src/gd32vw553h_eval.c ****     \version 2025-01-16, V1.4.0, firmware for GD32VW55x
   6:../src/gd32vw553h_eval.c **** */
   7:../src/gd32vw553h_eval.c **** 
   8:../src/gd32vw553h_eval.c **** /*
   9:../src/gd32vw553h_eval.c ****     Copyright (c) 2025, GigaDevice Semiconductor Inc.
  10:../src/gd32vw553h_eval.c **** 
  11:../src/gd32vw553h_eval.c ****     Redistribution and use in source and binary forms, with or without modification,
  12:../src/gd32vw553h_eval.c **** are permitted provided that the following conditions are met:
  13:../src/gd32vw553h_eval.c **** 
  14:../src/gd32vw553h_eval.c ****     1. Redistributions of source code must retain the above copyright notice, this
  15:../src/gd32vw553h_eval.c ****        list of conditions and the following disclaimer.
  16:../src/gd32vw553h_eval.c ****     2. Redistributions in binary form must reproduce the above copyright notice,
  17:../src/gd32vw553h_eval.c ****        this list of conditions and the following disclaimer in the documentation
  18:../src/gd32vw553h_eval.c ****        and/or other materials provided with the distribution.
  19:../src/gd32vw553h_eval.c ****     3. Neither the name of the copyright holder nor the names of its contributors
  20:../src/gd32vw553h_eval.c ****        may be used to endorse or promote products derived from this software without
  21:../src/gd32vw553h_eval.c ****        specific prior written permission.
  22:../src/gd32vw553h_eval.c **** 
  23:../src/gd32vw553h_eval.c ****     THIS SOFTWARE IS PROVIDED BY THE COPYRIGHT HOLDERS AND CONTRIBUTORS "AS IS"
  24:../src/gd32vw553h_eval.c **** AND ANY EXPRESS OR IMPLIED WARRANTIES, INCLUDING, BUT NOT LIMITED TO, THE IMPLIED
  25:../src/gd32vw553h_eval.c **** WARRANTIES OF MERCHANTABILITY AND FITNESS FOR A PARTICULAR PURPOSE ARE DISCLAIMED.
  26:../src/gd32vw553h_eval.c **** IN NO EVENT SHALL THE COPYRIGHT HOLDER OR CONTRIBUTORS BE LIABLE FOR ANY DIRECT,
  27:../src/gd32vw553h_eval.c **** INDIRECT, INCIDENTAL, SPECIAL, EXEMPLARY, OR CONSEQUENTIAL DAMAGES (INCLUDING, BUT
  28:../src/gd32vw553h_eval.c **** NOT LIMITED TO, PROCUREMENT OF SUBSTITUTE GOODS OR SERVICES; LOSS OF USE, DATA, OR
  29:../src/gd32vw553h_eval.c **** PROFITS; OR BUSINESS INTERRUPTION) HOWEVER CAUSED AND ON ANY THEORY OF LIABILITY,
  30:../src/gd32vw553h_eval.c **** WHETHER IN CONTRACT, STRICT LIABILITY, OR TORT (INCLUDING NEGLIGENCE OR OTHERWISE)
  31:../src/gd32vw553h_eval.c **** ARISING IN ANY WAY OUT OF THE USE OF THIS SOFTWARE, EVEN IF ADVISED OF THE POSSIBILITY
  32:../src/gd32vw553h_eval.c **** OF SUCH DAMAGE.
  33:../src/gd32vw553h_eval.c **** */
  34:../src/gd32vw553h_eval.c **** 
  35:../src/gd32vw553h_eval.c **** #include "gd32vw553h_eval.h"
  36:../src/gd32vw553h_eval.c **** 
  37:../src/gd32vw553h_eval.c **** /* private variables */
  38:../src/gd32vw553h_eval.c **** static uint32_t GPIO_PORT[LEDn] = {LED1_GPIO_PORT, LED2_GPIO_PORT,
  39:../src/gd32vw553h_eval.c ****                                    LED3_GPIO_PORT};
  40:../src/gd32vw553h_eval.c **** static uint32_t GPIO_PIN[LEDn] = {LED1_PIN, LED2_PIN, LED3_PIN};
  41:../src/gd32vw553h_eval.c **** 
  42:../src/gd32vw553h_eval.c **** static rcu_periph_enum COM_CLK[COMn] = {EVAL_COM0_CLK};
  43:../src/gd32vw553h_eval.c **** static uint32_t COM_TX_PIN[COMn] = {EVAL_COM0_TX_PIN};
  44:../src/gd32vw553h_eval.c **** static uint32_t COM_RX_PIN[COMn] = {EVAL_COM0_RX_PIN};
  45:../src/gd32vw553h_eval.c **** 
  46:../src/gd32vw553h_eval.c **** static rcu_periph_enum GPIO_CLK[LEDn] = {LED1_GPIO_CLK, LED2_GPIO_CLK,
  47:../src/gd32vw553h_eval.c ****                                          LED3_GPIO_CLK};
  48:../src/gd32vw553h_eval.c **** 
  49:../src/gd32vw553h_eval.c **** static uint32_t KEY_PORT[KEYn] = {TAMPER_WAKEUP_KEY_GPIO_PORT};
  50:../src/gd32vw553h_eval.c **** static uint32_t KEY_PIN[KEYn] = {TAMPER_WAKEUP_KEY_PIN};
  51:../src/gd32vw553h_eval.c **** static rcu_periph_enum KEY_CLK[KEYn] = {TAMPER_WAKEUP_KEY_GPIO_CLK};
  52:../src/gd32vw553h_eval.c **** static exti_line_enum KEY_EXTI_LINE[KEYn] = {TAMPER_WAKEUP_KEY_EXTI_LINE};
  53:../src/gd32vw553h_eval.c **** static uint8_t KEY_PORT_SOURCE[KEYn] = {TAMPER_WAKEUP_KEY_EXTI_PORT_SOURCE};
  54:../src/gd32vw553h_eval.c **** static uint8_t KEY_PIN_SOURCE[KEYn] = {TAMPER_WAKEUP_KEY_EXTI_PIN_SOURCE};
  55:../src/gd32vw553h_eval.c **** static IRQn_Type KEY_IRQn[KEYn] = {TAMPER_WAKEUP_KEY_EXTI_IRQn};
  56:../src/gd32vw553h_eval.c **** 
  57:../src/gd32vw553h_eval.c **** /*!
  58:../src/gd32vw553h_eval.c ****     \brief      configure led GPIO
  59:../src/gd32vw553h_eval.c ****     \param[in]  lednum: specify the Led to be configured
  60:../src/gd32vw553h_eval.c ****       \arg        LED1
  61:../src/gd32vw553h_eval.c ****       \arg        LED2
  62:../src/gd32vw553h_eval.c ****       \arg        LED3
  63:../src/gd32vw553h_eval.c ****     \param[out] none
  64:../src/gd32vw553h_eval.c ****     \retval     none
  65:../src/gd32vw553h_eval.c **** */
  66:../src/gd32vw553h_eval.c **** void  gd_eval_led_init (led_typedef_enum lednum)
  67:../src/gd32vw553h_eval.c **** {
 100              		.loc 1 67 1
 101              		.cfi_startproc
 102 0000 0111     		addi	sp,sp,-32
 103              		.cfi_def_cfa_offset 32
 104 0002 06CE     		sw	ra,28(sp)
 105 0004 22CC     		sw	s0,24(sp)
 106              		.cfi_offset 1, -4
 107              		.cfi_offset 8, -8
 108 0006 0010     		addi	s0,sp,32
 109              		.cfi_def_cfa 8, 0
 110 0008 2326A4FE 		sw	a0,-20(s0)
  68:../src/gd32vw553h_eval.c ****     /* enable the led clock */
  69:../src/gd32vw553h_eval.c ****     rcu_periph_clock_enable(GPIO_CLK[lednum]);
 111              		.loc 1 69 5
 112 000c 17070000 		lla	a4,GPIO_CLK
 112      13070700 
 113 0014 8327C4FE 		lw	a5,-20(s0)
 114 0018 8A07     		slli	a5,a5,2
 115 001a BA97     		add	a5,a4,a5
 116 001c 9C43     		lw	a5,0(a5)
 117 001e 3E85     		mv	a0,a5
 118 0020 97000000 		call	rcu_periph_clock_enable
 118      E7800000 
  70:../src/gd32vw553h_eval.c ****     /* configure led GPIO port */
  71:../src/gd32vw553h_eval.c ****     gpio_mode_set(GPIO_PORT[lednum], GPIO_MODE_OUTPUT, GPIO_PUPD_NONE,GPIO_PIN[lednum]);
 119              		.loc 1 71 5
 120 0028 17070000 		lla	a4,GPIO_PORT
 120      13070700 
 121 0030 8327C4FE 		lw	a5,-20(s0)
 122 0034 8A07     		slli	a5,a5,2
 123 0036 BA97     		add	a5,a4,a5
 124 0038 8843     		lw	a0,0(a5)
 125 003a 17070000 		lla	a4,GPIO_PIN
 125      13070700 
 126 0042 8327C4FE 		lw	a5,-20(s0)
 127 0046 8A07     		slli	a5,a5,2
 128 0048 BA97     		add	a5,a4,a5
 129 004a 9C43     		lw	a5,0(a5)
 130 004c BE86     		mv	a3,a5
 131 004e 0146     		li	a2,0
 132 0050 8545     		li	a1,1
 133 0052 97000000 		call	gpio_mode_set
 133      E7800000 
  72:../src/gd32vw553h_eval.c ****     gpio_output_options_set(GPIO_PORT[lednum], GPIO_OTYPE_PP, GPIO_OSPEED_25MHZ,GPIO_PIN[lednum]);
 134              		.loc 1 72 5
 135 005a 17070000 		lla	a4,GPIO_PORT
 135      13070700 
 136 0062 8327C4FE 		lw	a5,-20(s0)
 137 0066 8A07     		slli	a5,a5,2
 138 0068 BA97     		add	a5,a4,a5
 139 006a 8843     		lw	a0,0(a5)
 140 006c 17070000 		lla	a4,GPIO_PIN
 140      13070700 
 141 0074 8327C4FE 		lw	a5,-20(s0)
 142 0078 8A07     		slli	a5,a5,2
 143 007a BA97     		add	a5,a4,a5
 144 007c 9C43     		lw	a5,0(a5)
 145 007e BE86     		mv	a3,a5
 146 0080 0946     		li	a2,2
 147 0082 8145     		li	a1,0
 148 0084 97000000 		call	gpio_output_options_set
 148      E7800000 
  73:../src/gd32vw553h_eval.c **** 
  74:../src/gd32vw553h_eval.c ****     GPIO_BC(GPIO_PORT[lednum]) = GPIO_PIN[lednum];
 149              		.loc 1 74 5
 150 008c 17070000 		lla	a4,GPIO_PORT
 150      13070700 
 151 0094 8327C4FE 		lw	a5,-20(s0)
 152 0098 8A07     		slli	a5,a5,2
 153 009a BA97     		add	a5,a4,a5
 154 009c 9C43     		lw	a5,0(a5)
 155 009e 93878702 		addi	a5,a5,40
 156 00a2 BE86     		mv	a3,a5
 157              		.loc 1 74 42
 158 00a4 17070000 		lla	a4,GPIO_PIN
 158      13070700 
 159 00ac 8327C4FE 		lw	a5,-20(s0)
 160 00b0 8A07     		slli	a5,a5,2
 161 00b2 BA97     		add	a5,a4,a5
 162 00b4 9C43     		lw	a5,0(a5)
 163              		.loc 1 74 32
 164 00b6 9CC2     		sw	a5,0(a3)
  75:../src/gd32vw553h_eval.c **** }
 165              		.loc 1 75 1
 166 00b8 0100     		nop
 167 00ba F240     		lw	ra,28(sp)
 168              		.cfi_restore 1
 169 00bc 6244     		lw	s0,24(sp)
 170              		.cfi_restore 8
 171              		.cfi_def_cfa 2, 32
 172 00be 0561     		addi	sp,sp,32
 173              		.cfi_def_cfa_offset 0
 174 00c0 8280     		jr	ra
 175              		.cfi_endproc
 176              	.LFE347:
 178              		.section	.text.gd_eval_led_on,"ax",@progbits
 179              		.align	1
 180              		.globl	gd_eval_led_on
 182              	gd_eval_led_on:
 183              	.LFB348:
  76:../src/gd32vw553h_eval.c **** 
  77:../src/gd32vw553h_eval.c **** /*!
  78:../src/gd32vw553h_eval.c ****     \brief      turn on selected led
  79:../src/gd32vw553h_eval.c ****     \param[in]  lednum: specify the Led to be turned on
  80:../src/gd32vw553h_eval.c ****       \arg        LED1
  81:../src/gd32vw553h_eval.c ****       \arg        LED2
  82:../src/gd32vw553h_eval.c ****       \arg        LED3
  83:../src/gd32vw553h_eval.c ****     \param[out] none
  84:../src/gd32vw553h_eval.c ****     \retval     none
  85:../src/gd32vw553h_eval.c **** */
  86:../src/gd32vw553h_eval.c **** void gd_eval_led_on(led_typedef_enum lednum)
  87:../src/gd32vw553h_eval.c **** {
 184              		.loc 1 87 1
 185              		.cfi_startproc
 186 0000 0111     		addi	sp,sp,-32
 187              		.cfi_def_cfa_offset 32
 188 0002 22CE     		sw	s0,28(sp)
 189              		.cfi_offset 8, -4
 190 0004 0010     		addi	s0,sp,32
 191              		.cfi_def_cfa 8, 0
 192 0006 2326A4FE 		sw	a0,-20(s0)
  88:../src/gd32vw553h_eval.c ****     GPIO_BOP(GPIO_PORT[lednum]) = GPIO_PIN[lednum];
 193              		.loc 1 88 5
 194 000a 17070000 		lla	a4,GPIO_PORT
 194      13070700 
 195 0012 8327C4FE 		lw	a5,-20(s0)
 196 0016 8A07     		slli	a5,a5,2
 197 0018 BA97     		add	a5,a4,a5
 198 001a 9C43     		lw	a5,0(a5)
 199 001c E107     		addi	a5,a5,24
 200 001e BE86     		mv	a3,a5
 201              		.loc 1 88 43
 202 0020 17070000 		lla	a4,GPIO_PIN
 202      13070700 
 203 0028 8327C4FE 		lw	a5,-20(s0)
 204 002c 8A07     		slli	a5,a5,2
 205 002e BA97     		add	a5,a4,a5
 206 0030 9C43     		lw	a5,0(a5)
 207              		.loc 1 88 33
 208 0032 9CC2     		sw	a5,0(a3)
  89:../src/gd32vw553h_eval.c **** }
 209              		.loc 1 89 1
 210 0034 0100     		nop
 211 0036 7244     		lw	s0,28(sp)
 212              		.cfi_restore 8
 213              		.cfi_def_cfa 2, 32
 214 0038 0561     		addi	sp,sp,32
 215              		.cfi_def_cfa_offset 0
 216 003a 8280     		jr	ra
 217              		.cfi_endproc
 218              	.LFE348:
 220              		.section	.text.gd_eval_led_off,"ax",@progbits
 221              		.align	1
 222              		.globl	gd_eval_led_off
 224              	gd_eval_led_off:
 225              	.LFB349:
  90:../src/gd32vw553h_eval.c **** 
  91:../src/gd32vw553h_eval.c **** /*!
  92:../src/gd32vw553h_eval.c ****     \brief      turn off selected led
  93:../src/gd32vw553h_eval.c ****     \param[in]  lednum: specify the Led to be turned off
  94:../src/gd32vw553h_eval.c ****       \arg        LED1
  95:../src/gd32vw553h_eval.c ****       \arg        LED2
  96:../src/gd32vw553h_eval.c ****       \arg        LED3
  97:../src/gd32vw553h_eval.c ****     \param[out] none
  98:../src/gd32vw553h_eval.c ****     \retval     none
  99:../src/gd32vw553h_eval.c **** */
 100:../src/gd32vw553h_eval.c **** void gd_eval_led_off(led_typedef_enum lednum)
 101:../src/gd32vw553h_eval.c **** {
 226              		.loc 1 101 1
 227              		.cfi_startproc
 228 0000 0111     		addi	sp,sp,-32
 229              		.cfi_def_cfa_offset 32
 230 0002 22CE     		sw	s0,28(sp)
 231              		.cfi_offset 8, -4
 232 0004 0010     		addi	s0,sp,32
 233              		.cfi_def_cfa 8, 0
 234 0006 2326A4FE 		sw	a0,-20(s0)
 102:../src/gd32vw553h_eval.c ****     GPIO_BC(GPIO_PORT[lednum]) = GPIO_PIN[lednum];
 235              		.loc 1 102 5
 236 000a 17070000 		lla	a4,GPIO_PORT
 236      13070700 
 237 0012 8327C4FE 		lw	a5,-20(s0)
 238 0016 8A07     		slli	a5,a5,2
 239 0018 BA97     		add	a5,a4,a5
 240 001a 9C43     		lw	a5,0(a5)
 241 001c 93878702 		addi	a5,a5,40
 242 0020 BE86     		mv	a3,a5
 243              		.loc 1 102 42
 244 0022 17070000 		lla	a4,GPIO_PIN
 244      13070700 
 245 002a 8327C4FE 		lw	a5,-20(s0)
 246 002e 8A07     		slli	a5,a5,2
 247 0030 BA97     		add	a5,a4,a5
 248 0032 9C43     		lw	a5,0(a5)
 249              		.loc 1 102 32
 250 0034 9CC2     		sw	a5,0(a3)
 103:../src/gd32vw553h_eval.c **** }
 251              		.loc 1 103 1
 252 0036 0100     		nop
 253 0038 7244     		lw	s0,28(sp)
 254              		.cfi_restore 8
 255              		.cfi_def_cfa 2, 32
 256 003a 0561     		addi	sp,sp,32
 257              		.cfi_def_cfa_offset 0
 258 003c 8280     		jr	ra
 259              		.cfi_endproc
 260              	.LFE349:
 262              		.section	.text.gd_eval_led_toggle,"ax",@progbits
 263              		.align	1
 264              		.globl	gd_eval_led_toggle
 266              	gd_eval_led_toggle:
 267              	.LFB350:
 104:../src/gd32vw553h_eval.c **** 
 105:../src/gd32vw553h_eval.c **** /*!
 106:../src/gd32vw553h_eval.c ****     \brief      toggle selected led
 107:../src/gd32vw553h_eval.c ****     \param[in]  lednum: specify the Led to be toggled
 108:../src/gd32vw553h_eval.c ****       \arg        LED1
 109:../src/gd32vw553h_eval.c ****       \arg        LED2
 110:../src/gd32vw553h_eval.c ****       \arg        LED3
 111:../src/gd32vw553h_eval.c ****     \param[out] none
 112:../src/gd32vw553h_eval.c ****     \retval     none
 113:../src/gd32vw553h_eval.c **** */
 114:../src/gd32vw553h_eval.c **** void gd_eval_led_toggle(led_typedef_enum lednum)
 115:../src/gd32vw553h_eval.c **** {
 268              		.loc 1 115 1
 269              		.cfi_startproc
 270 0000 0111     		addi	sp,sp,-32
 271              		.cfi_def_cfa_offset 32
 272 0002 22CE     		sw	s0,28(sp)
 273              		.cfi_offset 8, -4
 274 0004 0010     		addi	s0,sp,32
 275              		.cfi_def_cfa 8, 0
 276 0006 2326A4FE 		sw	a0,-20(s0)
 116:../src/gd32vw553h_eval.c ****     GPIO_TG(GPIO_PORT[lednum]) = GPIO_PIN[lednum];
 277              		.loc 1 116 5
 278 000a 17070000 		lla	a4,GPIO_PORT
 278      13070700 
 279 0012 8327C4FE 		lw	a5,-20(s0)
 280 0016 8A07     		slli	a5,a5,2
 281 0018 BA97     		add	a5,a4,a5
 282 001a 9C43     		lw	a5,0(a5)
 283 001c 9387C702 		addi	a5,a5,44
 284 0020 BE86     		mv	a3,a5
 285              		.loc 1 116 42
 286 0022 17070000 		lla	a4,GPIO_PIN
 286      13070700 
 287 002a 8327C4FE 		lw	a5,-20(s0)
 288 002e 8A07     		slli	a5,a5,2
 289 0030 BA97     		add	a5,a4,a5
 290 0032 9C43     		lw	a5,0(a5)
 291              		.loc 1 116 32
 292 0034 9CC2     		sw	a5,0(a3)
 117:../src/gd32vw553h_eval.c **** }
 293              		.loc 1 117 1
 294 0036 0100     		nop
 295 0038 7244     		lw	s0,28(sp)
 296              		.cfi_restore 8
 297              		.cfi_def_cfa 2, 32
 298 003a 0561     		addi	sp,sp,32
 299              		.cfi_def_cfa_offset 0
 300 003c 8280     		jr	ra
 301              		.cfi_endproc
 302              	.LFE350:
 304              		.section	.text.gd_eval_key_init,"ax",@progbits
 305              		.align	1
 306              		.globl	gd_eval_key_init
 308              	gd_eval_key_init:
 309              	.LFB351:
 118:../src/gd32vw553h_eval.c **** 
 119:../src/gd32vw553h_eval.c **** /*!
 120:../src/gd32vw553h_eval.c ****     \brief      configure key
 121:../src/gd32vw553h_eval.c ****     \param[in]  key_num: specify the key to be configured
 122:../src/gd32vw553h_eval.c ****       \arg        KEY_TAMPER_WAKEUP: tamper_wakeup key
 123:../src/gd32vw553h_eval.c ****     \param[in]  key_mode: specify button mode
 124:../src/gd32vw553h_eval.c ****       \arg        KEY_MODE_GPIO: key will be used as simple IO
 125:../src/gd32vw553h_eval.c ****       \arg        KEY_MODE_EXTI: key will be connected to EXTI line with interrupt
 126:../src/gd32vw553h_eval.c ****     \param[out] none
 127:../src/gd32vw553h_eval.c ****     \retval     none
 128:../src/gd32vw553h_eval.c **** */
 129:../src/gd32vw553h_eval.c **** void gd_eval_key_init(key_typedef_enum key_num, keymode_typedef_enum key_mode)
 130:../src/gd32vw553h_eval.c **** {
 310              		.loc 1 130 1
 311              		.cfi_startproc
 312 0000 0111     		addi	sp,sp,-32
 313              		.cfi_def_cfa_offset 32
 314 0002 06CE     		sw	ra,28(sp)
 315 0004 22CC     		sw	s0,24(sp)
 316              		.cfi_offset 1, -4
 317              		.cfi_offset 8, -8
 318 0006 0010     		addi	s0,sp,32
 319              		.cfi_def_cfa 8, 0
 320 0008 2326A4FE 		sw	a0,-20(s0)
 321 000c 2324B4FE 		sw	a1,-24(s0)
 131:../src/gd32vw553h_eval.c ****     /* enable the key clock */
 132:../src/gd32vw553h_eval.c ****     rcu_periph_clock_enable(KEY_CLK[key_num]);
 322              		.loc 1 132 5
 323 0010 17070000 		lla	a4,KEY_CLK
 323      13070700 
 324 0018 8327C4FE 		lw	a5,-20(s0)
 325 001c 8A07     		slli	a5,a5,2
 326 001e BA97     		add	a5,a4,a5
 327 0020 9C43     		lw	a5,0(a5)
 328 0022 3E85     		mv	a0,a5
 329 0024 97000000 		call	rcu_periph_clock_enable
 329      E7800000 
 133:../src/gd32vw553h_eval.c ****     rcu_periph_clock_enable(RCU_SYSCFG);
 330              		.loc 1 133 5
 331 002c 8567     		li	a5,4096
 332 002e 1385E710 		addi	a0,a5,270
 333 0032 97000000 		call	rcu_periph_clock_enable
 333      E7800000 
 134:../src/gd32vw553h_eval.c **** 
 135:../src/gd32vw553h_eval.c ****     /* configure button pin as input */
 136:../src/gd32vw553h_eval.c ****     gpio_mode_set(KEY_PORT[key_num], GPIO_MODE_INPUT, GPIO_PUPD_NONE, KEY_PIN[key_num]);
 334              		.loc 1 136 5
 335 003a 17070000 		lla	a4,KEY_PORT
 335      13070700 
 336 0042 8327C4FE 		lw	a5,-20(s0)
 337 0046 8A07     		slli	a5,a5,2
 338 0048 BA97     		add	a5,a4,a5
 339 004a 8843     		lw	a0,0(a5)
 340 004c 17070000 		lla	a4,KEY_PIN
 340      13070700 
 341 0054 8327C4FE 		lw	a5,-20(s0)
 342 0058 8A07     		slli	a5,a5,2
 343 005a BA97     		add	a5,a4,a5
 344 005c 9C43     		lw	a5,0(a5)
 345 005e BE86     		mv	a3,a5
 346 0060 0146     		li	a2,0
 347 0062 8145     		li	a1,0
 348 0064 97000000 		call	gpio_mode_set
 348      E7800000 
 137:../src/gd32vw553h_eval.c **** 
 138:../src/gd32vw553h_eval.c ****     if(key_mode == KEY_MODE_EXTI){
 349              		.loc 1 138 7
 350 006c 032784FE 		lw	a4,-24(s0)
 351 0070 8547     		li	a5,1
 352 0072 631DF708 		bne	a4,a5,.L7
 139:../src/gd32vw553h_eval.c ****         /* enable and set key EXTI interrupt to the lowest priority */
 140:../src/gd32vw553h_eval.c ****         eclic_priority_group_set(ECLIC_PRIGROUP_LEVEL3_PRIO1);
 353              		.loc 1 140 9
 354 0076 0D45     		li	a0,3
 355 0078 97000000 		call	eclic_priority_group_set
 355      E7800000 
 141:../src/gd32vw553h_eval.c ****         eclic_irq_enable(KEY_IRQn[key_num],1, 1);
 356              		.loc 1 141 9
 357 0080 17070000 		lla	a4,KEY_IRQn
 357      13070700 
 358 0088 8327C4FE 		lw	a5,-20(s0)
 359 008c 8A07     		slli	a5,a5,2
 360 008e BA97     		add	a5,a4,a5
 361 0090 9C43     		lw	a5,0(a5)
 362 0092 0546     		li	a2,1
 363 0094 8545     		li	a1,1
 364 0096 3E85     		mv	a0,a5
 365 0098 97000000 		call	eclic_irq_enable
 365      E7800000 
 142:../src/gd32vw553h_eval.c **** 
 143:../src/gd32vw553h_eval.c ****         /* connect key EXTI line to key GPIO pin */
 144:../src/gd32vw553h_eval.c ****         syscfg_exti_line_config(KEY_PORT_SOURCE[key_num], KEY_PIN_SOURCE[key_num]);
 366              		.loc 1 144 9
 367 00a0 17070000 		lla	a4,KEY_PORT_SOURCE
 367      13070700 
 368 00a8 8327C4FE 		lw	a5,-20(s0)
 369 00ac BA97     		add	a5,a4,a5
 370 00ae 83C60700 		lbu	a3,0(a5)
 371 00b2 17070000 		lla	a4,KEY_PIN_SOURCE
 371      13070700 
 372 00ba 8327C4FE 		lw	a5,-20(s0)
 373 00be BA97     		add	a5,a4,a5
 374 00c0 83C70700 		lbu	a5,0(a5)
 375 00c4 BE85     		mv	a1,a5
 376 00c6 3685     		mv	a0,a3
 377 00c8 97000000 		call	syscfg_exti_line_config
 377      E7800000 
 145:../src/gd32vw553h_eval.c **** 
 146:../src/gd32vw553h_eval.c ****         /* configure key EXTI line */
 147:../src/gd32vw553h_eval.c ****         exti_init(KEY_EXTI_LINE[key_num], EXTI_INTERRUPT, EXTI_TRIG_FALLING);
 378              		.loc 1 147 9
 379 00d0 17070000 		lla	a4,KEY_EXTI_LINE
 379      13070700 
 380 00d8 8327C4FE 		lw	a5,-20(s0)
 381 00dc 8A07     		slli	a5,a5,2
 382 00de BA97     		add	a5,a4,a5
 383 00e0 9C43     		lw	a5,0(a5)
 384 00e2 0546     		li	a2,1
 385 00e4 8145     		li	a1,0
 386 00e6 3E85     		mv	a0,a5
 387 00e8 97000000 		call	exti_init
 387      E7800000 
 148:../src/gd32vw553h_eval.c ****         exti_interrupt_flag_clear(KEY_EXTI_LINE[key_num]);
 388              		.loc 1 148 9
 389 00f0 17070000 		lla	a4,KEY_EXTI_LINE
 389      13070700 
 390 00f8 8327C4FE 		lw	a5,-20(s0)
 391 00fc 8A07     		slli	a5,a5,2
 392 00fe BA97     		add	a5,a4,a5
 393 0100 9C43     		lw	a5,0(a5)
 394 0102 3E85     		mv	a0,a5
 395 0104 97000000 		call	exti_interrupt_flag_clear
 395      E7800000 
 396              	.L7:
 149:../src/gd32vw553h_eval.c ****     }
 150:../src/gd32vw553h_eval.c **** }
 397              		.loc 1 150 1
 398 010c 0100     		nop
 399 010e F240     		lw	ra,28(sp)
 400              		.cfi_restore 1
 401 0110 6244     		lw	s0,24(sp)
 402              		.cfi_restore 8
 403              		.cfi_def_cfa 2, 32
 404 0112 0561     		addi	sp,sp,32
 405              		.cfi_def_cfa_offset 0
 406 0114 8280     		jr	ra
 407              		.cfi_endproc
 408              	.LFE351:
 410              		.section	.text.gd_eval_key_state_get,"ax",@progbits
 411              		.align	1
 412              		.globl	gd_eval_key_state_get
 414              	gd_eval_key_state_get:
 415              	.LFB352:
 151:../src/gd32vw553h_eval.c **** 
 152:../src/gd32vw553h_eval.c **** /*!
 153:../src/gd32vw553h_eval.c ****     \brief      return the selected button state
 154:../src/gd32vw553h_eval.c ****     \param[in]  button: specify the button to be checked
 155:../src/gd32vw553h_eval.c ****       \arg        KEY_TAMPER_WAKEUP: tamper_wakeup key
 156:../src/gd32vw553h_eval.c ****     \param[out] none
 157:../src/gd32vw553h_eval.c ****     \retval     the button GPIO pin value
 158:../src/gd32vw553h_eval.c **** */
 159:../src/gd32vw553h_eval.c **** uint8_t gd_eval_key_state_get(key_typedef_enum button)
 160:../src/gd32vw553h_eval.c **** {
 416              		.loc 1 160 1
 417              		.cfi_startproc
 418 0000 0111     		addi	sp,sp,-32
 419              		.cfi_def_cfa_offset 32
 420 0002 06CE     		sw	ra,28(sp)
 421 0004 22CC     		sw	s0,24(sp)
 422              		.cfi_offset 1, -4
 423              		.cfi_offset 8, -8
 424 0006 0010     		addi	s0,sp,32
 425              		.cfi_def_cfa 8, 0
 426 0008 2326A4FE 		sw	a0,-20(s0)
 161:../src/gd32vw553h_eval.c ****     return gpio_input_bit_get(KEY_PORT[button], KEY_PIN[button]);
 427              		.loc 1 161 12
 428 000c 17070000 		lla	a4,KEY_PORT
 428      13070700 
 429 0014 8327C4FE 		lw	a5,-20(s0)
 430 0018 8A07     		slli	a5,a5,2
 431 001a BA97     		add	a5,a4,a5
 432 001c 9443     		lw	a3,0(a5)
 433 001e 17070000 		lla	a4,KEY_PIN
 433      13070700 
 434 0026 8327C4FE 		lw	a5,-20(s0)
 435 002a 8A07     		slli	a5,a5,2
 436 002c BA97     		add	a5,a4,a5
 437 002e 9C43     		lw	a5,0(a5)
 438 0030 BE85     		mv	a1,a5
 439 0032 3685     		mv	a0,a3
 440 0034 97000000 		call	gpio_input_bit_get
 440      E7800000 
 441 003c AA87     		mv	a5,a0
 442 003e 93F7F70F 		andi	a5,a5,0xff
 162:../src/gd32vw553h_eval.c **** }
 443              		.loc 1 162 1
 444 0042 3E85     		mv	a0,a5
 445 0044 F240     		lw	ra,28(sp)
 446              		.cfi_restore 1
 447 0046 6244     		lw	s0,24(sp)
 448              		.cfi_restore 8
 449              		.cfi_def_cfa 2, 32
 450 0048 0561     		addi	sp,sp,32
 451              		.cfi_def_cfa_offset 0
 452 004a 8280     		jr	ra
 453              		.cfi_endproc
 454              	.LFE352:
 456              		.section	.text.gd_eval_com_init,"ax",@progbits
 457              		.align	1
 458              		.globl	gd_eval_com_init
 460              	gd_eval_com_init:
 461              	.LFB353:
 163:../src/gd32vw553h_eval.c **** 
 164:../src/gd32vw553h_eval.c **** /*!
 165:../src/gd32vw553h_eval.c ****     \brief      configure COM port
 166:../src/gd32vw553h_eval.c ****     \param[in]  COM: COM on the board
 167:../src/gd32vw553h_eval.c ****       \arg        EVAL_COM0: COM on the board
 168:../src/gd32vw553h_eval.c ****     \param[out] none
 169:../src/gd32vw553h_eval.c ****     \retval     none
 170:../src/gd32vw553h_eval.c **** */
 171:../src/gd32vw553h_eval.c **** void gd_eval_com_init(uint32_t com)
 172:../src/gd32vw553h_eval.c **** {
 462              		.loc 1 172 1
 463              		.cfi_startproc
 464 0000 7971     		addi	sp,sp,-48
 465              		.cfi_def_cfa_offset 48
 466 0002 06D6     		sw	ra,44(sp)
 467 0004 22D4     		sw	s0,40(sp)
 468              		.cfi_offset 1, -4
 469              		.cfi_offset 8, -8
 470 0006 0018     		addi	s0,sp,48
 471              		.cfi_def_cfa 8, 0
 472 0008 232EA4FC 		sw	a0,-36(s0)
 173:../src/gd32vw553h_eval.c ****     /* enable GPIO clock */
 174:../src/gd32vw553h_eval.c ****     uint32_t COM_ID = 0U;
 473              		.loc 1 174 14
 474 000c 232604FE 		sw	zero,-20(s0)
 175:../src/gd32vw553h_eval.c ****     if(EVAL_COM0 == com)
 475              		.loc 1 175 7
 476 0010 0327C4FD 		lw	a4,-36(s0)
 477 0014 B7570040 		li	a5,1073762304
 478 0018 93870780 		addi	a5,a5,-2048
 479 001c 6314F700 		bne	a4,a5,.L11
 176:../src/gd32vw553h_eval.c ****     {
 177:../src/gd32vw553h_eval.c ****         COM_ID = 0U;
 480              		.loc 1 177 16
 481 0020 232604FE 		sw	zero,-20(s0)
 482              	.L11:
 178:../src/gd32vw553h_eval.c ****     }
 179:../src/gd32vw553h_eval.c **** 
 180:../src/gd32vw553h_eval.c ****     rcu_periph_clock_enable(EVAL_COM0_TX_GPIO_CLK);
 483              		.loc 1 180 5
 484 0024 8567     		li	a5,4096
 485 0026 138517C0 		addi	a0,a5,-1023
 486 002a 97000000 		call	rcu_periph_clock_enable
 486      E7800000 
 181:../src/gd32vw553h_eval.c ****     rcu_periph_clock_enable(EVAL_COM0_RX_GPIO_CLK);
 487              		.loc 1 181 5
 488 0032 8567     		li	a5,4096
 489 0034 138507C0 		addi	a0,a5,-1024
 490 0038 97000000 		call	rcu_periph_clock_enable
 490      E7800000 
 182:../src/gd32vw553h_eval.c **** 
 183:../src/gd32vw553h_eval.c ****     /* enable USART clock */
 184:../src/gd32vw553h_eval.c ****     rcu_periph_clock_enable(COM_CLK[COM_ID]);
 491              		.loc 1 184 5
 492 0040 17070000 		lla	a4,COM_CLK
 492      13070700 
 493 0048 8327C4FE 		lw	a5,-20(s0)
 494 004c 8A07     		slli	a5,a5,2
 495 004e BA97     		add	a5,a4,a5
 496 0050 9C43     		lw	a5,0(a5)
 497 0052 3E85     		mv	a0,a5
 498 0054 97000000 		call	rcu_periph_clock_enable
 498      E7800000 
 185:../src/gd32vw553h_eval.c **** 
 186:../src/gd32vw553h_eval.c ****     /* connect port to USARTx_Tx */
 187:../src/gd32vw553h_eval.c ****     gpio_af_set(EVAL_COM0_TX_GPIO_PORT, EVAL_COM0_TX_AF, COM_TX_PIN[COM_ID]);
 499              		.loc 1 187 5
 500 005c 17070000 		lla	a4,COM_TX_PIN
 500      13070700 
 501 0064 8327C4FE 		lw	a5,-20(s0)
 502 0068 8A07     		slli	a5,a5,2
 503 006a BA97     		add	a5,a4,a5
 504 006c 9C43     		lw	a5,0(a5)
 505 006e 3E86     		mv	a2,a5
 506 0070 A145     		li	a1,8
 507 0072 B7070240 		li	a5,1073872896
 508 0076 13850740 		addi	a0,a5,1024
 509 007a 97000000 		call	gpio_af_set
 509      E7800000 
 188:../src/gd32vw553h_eval.c **** 
 189:../src/gd32vw553h_eval.c ****     /* connect port to USARTx_Rx */
 190:../src/gd32vw553h_eval.c ****     gpio_af_set(EVAL_COM0_RX_GPIO_PORT, EVAL_COM0_RX_AF, COM_RX_PIN[COM_ID]);
 510              		.loc 1 190 5
 511 0082 17070000 		lla	a4,COM_RX_PIN
 511      13070700 
 512 008a 8327C4FE 		lw	a5,-20(s0)
 513 008e 8A07     		slli	a5,a5,2
 514 0090 BA97     		add	a5,a4,a5
 515 0092 9C43     		lw	a5,0(a5)
 516 0094 3E86     		mv	a2,a5
 517 0096 8945     		li	a1,2
 518 0098 37050240 		li	a0,1073872896
 519 009c 97000000 		call	gpio_af_set
 519      E7800000 
 191:../src/gd32vw553h_eval.c **** 
 192:../src/gd32vw553h_eval.c ****     /* configure USART Tx as alternate function push-pull */
 193:../src/gd32vw553h_eval.c ****     gpio_mode_set(EVAL_COM0_TX_GPIO_PORT, GPIO_MODE_AF, GPIO_PUPD_PULLUP, COM_TX_PIN[COM_ID]);
 520              		.loc 1 193 5
 521 00a4 17070000 		lla	a4,COM_TX_PIN
 521      13070700 
 522 00ac 8327C4FE 		lw	a5,-20(s0)
 523 00b0 8A07     		slli	a5,a5,2
 524 00b2 BA97     		add	a5,a4,a5
 525 00b4 9C43     		lw	a5,0(a5)
 526 00b6 BE86     		mv	a3,a5
 527 00b8 0546     		li	a2,1
 528 00ba 8945     		li	a1,2
 529 00bc B7070240 		li	a5,1073872896
 530 00c0 13850740 		addi	a0,a5,1024
 531 00c4 97000000 		call	gpio_mode_set
 531      E7800000 
 194:../src/gd32vw553h_eval.c ****     gpio_output_options_set(EVAL_COM0_TX_GPIO_PORT, GPIO_OTYPE_PP, GPIO_OSPEED_25MHZ, COM_TX_PIN[CO
 532              		.loc 1 194 5
 533 00cc 17070000 		lla	a4,COM_TX_PIN
 533      13070700 
 534 00d4 8327C4FE 		lw	a5,-20(s0)
 535 00d8 8A07     		slli	a5,a5,2
 536 00da BA97     		add	a5,a4,a5
 537 00dc 9C43     		lw	a5,0(a5)
 538 00de BE86     		mv	a3,a5
 539 00e0 0946     		li	a2,2
 540 00e2 8145     		li	a1,0
 541 00e4 B7070240 		li	a5,1073872896
 542 00e8 13850740 		addi	a0,a5,1024
 543 00ec 97000000 		call	gpio_output_options_set
 543      E7800000 
 195:../src/gd32vw553h_eval.c **** 
 196:../src/gd32vw553h_eval.c ****     /* configure USART Rx as alternate function push-pull */
 197:../src/gd32vw553h_eval.c ****     gpio_mode_set(EVAL_COM0_RX_GPIO_PORT, GPIO_MODE_AF, GPIO_PUPD_PULLUP, COM_RX_PIN[COM_ID]);
 544              		.loc 1 197 5
 545 00f4 17070000 		lla	a4,COM_RX_PIN
 545      13070700 
 546 00fc 8327C4FE 		lw	a5,-20(s0)
 547 0100 8A07     		slli	a5,a5,2
 548 0102 BA97     		add	a5,a4,a5
 549 0104 9C43     		lw	a5,0(a5)
 550 0106 BE86     		mv	a3,a5
 551 0108 0546     		li	a2,1
 552 010a 8945     		li	a1,2
 553 010c 37050240 		li	a0,1073872896
 554 0110 97000000 		call	gpio_mode_set
 554      E7800000 
 198:../src/gd32vw553h_eval.c ****     gpio_output_options_set(EVAL_COM0_RX_GPIO_PORT, GPIO_OTYPE_PP, GPIO_OSPEED_25MHZ, COM_RX_PIN[CO
 555              		.loc 1 198 5
 556 0118 17070000 		lla	a4,COM_RX_PIN
 556      13070700 
 557 0120 8327C4FE 		lw	a5,-20(s0)
 558 0124 8A07     		slli	a5,a5,2
 559 0126 BA97     		add	a5,a4,a5
 560 0128 9C43     		lw	a5,0(a5)
 561 012a BE86     		mv	a3,a5
 562 012c 0946     		li	a2,2
 563 012e 8145     		li	a1,0
 564 0130 37050240 		li	a0,1073872896
 565 0134 97000000 		call	gpio_output_options_set
 565      E7800000 
 199:../src/gd32vw553h_eval.c **** 
 200:../src/gd32vw553h_eval.c ****     /* USART configure */
 201:../src/gd32vw553h_eval.c ****     usart_deinit(com);
 566              		.loc 1 201 5
 567 013c 0325C4FD 		lw	a0,-36(s0)
 568 0140 97000000 		call	usart_deinit
 568      E7800000 
 202:../src/gd32vw553h_eval.c ****     usart_baudrate_set(com, 115200U);
 569              		.loc 1 202 5
 570 0148 F167     		li	a5,114688
 571 014a 93850720 		addi	a1,a5,512
 572 014e 0325C4FD 		lw	a0,-36(s0)
 573 0152 97000000 		call	usart_baudrate_set
 573      E7800000 
 203:../src/gd32vw553h_eval.c ****     usart_receive_config(com, USART_RECEIVE_ENABLE);
 574              		.loc 1 203 5
 575 015a 9145     		li	a1,4
 576 015c 0325C4FD 		lw	a0,-36(s0)
 577 0160 97000000 		call	usart_receive_config
 577      E7800000 
 204:../src/gd32vw553h_eval.c ****     usart_transmit_config(com, USART_TRANSMIT_ENABLE);
 578              		.loc 1 204 5
 579 0168 A145     		li	a1,8
 580 016a 0325C4FD 		lw	a0,-36(s0)
 581 016e 97000000 		call	usart_transmit_config
 581      E7800000 
 205:../src/gd32vw553h_eval.c ****     usart_enable(com);
 582              		.loc 1 205 5
 583 0176 0325C4FD 		lw	a0,-36(s0)
 584 017a 97000000 		call	usart_enable
 584      E7800000 
 206:../src/gd32vw553h_eval.c **** }
 585              		.loc 1 206 1
 586 0182 0100     		nop
 587 0184 B250     		lw	ra,44(sp)
 588              		.cfi_restore 1
 589 0186 2254     		lw	s0,40(sp)
 590              		.cfi_restore 8
 591              		.cfi_def_cfa 2, 48
 592 0188 4561     		addi	sp,sp,48
 593              		.cfi_def_cfa_offset 0
 594 018a 8280     		jr	ra
 595              		.cfi_endproc
 596              	.LFE353:
 598              		.text
 599              	.Letext0:
 600              		.file 2 "e:\\gd32\\gd32embeddedbuilder_v1.5.2.30854\\tools\\nuclei_riscv_newlibc_prebuilt_win32_20
 601              		.file 3 "e:\\gd32\\gd32embeddedbuilder_v1.5.2.30854\\tools\\nuclei_riscv_newlibc_prebuilt_win32_20
 602              		.file 4 "../Firmware/GD32VW55x_standard_peripheral/gd32vw55x.h"
 603              		.file 5 "../Firmware/GD32VW55x_standard_peripheral/Include/gd32vw55x_exti.h"
 604              		.file 6 "../Firmware/GD32VW55x_standard_peripheral/Include/gd32vw55x_rcu.h"
 605              		.file 7 "../inc/gd32vw553h_eval.h"