   1              		.file	"main.c"
   2              		.option nopic
   3              		.attribute arch, "rv32i2p0_m2p0_a2p0_c2p0"
   4              		.attribute unaligned_access, 0
   5              		.attribute stack_align, 16
   6              		.text
   7              	.Ltext0:
   8              		.cfi_sections	.debug_frame
   9              		.section	.text.led_spark,"ax",@progbits
  10              		.align	1
  11              		.globl	led_spark
  13              	led_spark:
  14              	.LFB347:
  15              		.file 1 "../src/main.c"
   1:../src/main.c **** /*!
   2:../src/main.c ****     \file    main.c
   3:../src/main.c ****     \brief   led spark with systick, USART print and key example
   4:../src/main.c **** 
   5:../src/main.c ****     \version 2025-01-16, V1.4.0, firmware for GD32VW55x
   6:../src/main.c **** */
   7:../src/main.c **** 
   8:../src/main.c **** /*
   9:../src/main.c ****     Copyright (c) 2025, GigaDevice Semiconductor Inc.
  10:../src/main.c **** 
  11:../src/main.c ****     Redistribution and use in source and binary forms, with or without modification,
  12:../src/main.c **** are permitted provided that the following conditions are met:
  13:../src/main.c **** 
  14:../src/main.c ****     1. Redistributions of source code must retain the above copyright notice, this
  15:../src/main.c ****        list of conditions and the following disclaimer.
  16:../src/main.c ****     2. Redistributions in binary form must reproduce the above copyright notice,
  17:../src/main.c ****        this list of conditions and the following disclaimer in the documentation
  18:../src/main.c ****        and/or other materials provided with the distribution.
  19:../src/main.c ****     3. Neither the name of the copyright holder nor the names of its contributors
  20:../src/main.c ****        may be used to endorse or promote products derived from this software without
  21:../src/main.c ****        specific prior written permission.
  22:../src/main.c **** 
  23:../src/main.c ****     THIS SOFTWARE IS PROVIDED BY THE COPYRIGHT HOLDERS AND CONTRIBUTORS "AS IS"
  24:../src/main.c **** AND ANY EXPRESS OR IMPLIED WARRANTIES, INCLUDING, BUT NOT LIMITED TO, THE IMPLIED
  25:../src/main.c **** WARRANTIES OF MERCHANTABILITY AND FITNESS FOR A PARTICULAR PURPOSE ARE DISCLAIMED.
  26:../src/main.c **** IN NO EVENT SHALL THE COPYRIGHT HOLDER OR CONTRIBUTORS BE LIABLE FOR ANY DIRECT,
  27:../src/main.c **** INDIRECT, INCIDENTAL, SPECIAL, EXEMPLARY, OR CONSEQUENTIAL DAMAGES (INCLUDING, BUT
  28:../src/main.c **** NOT LIMITED TO, PROCUREMENT OF SUBSTITUTE GOODS OR SERVICES; LOSS OF USE, DATA, OR
  29:../src/main.c **** PROFITS; OR BUSINESS INTERRUPTION) HOWEVER CAUSED AND ON ANY THEORY OF LIABILITY,
  30:../src/main.c **** WHETHER IN CONTRACT, STRICT LIABILITY, OR TORT (INCLUDING NEGLIGENCE OR OTHERWISE)
  31:../src/main.c **** ARISING IN ANY WAY OUT OF THE USE OF THIS SOFTWARE, EVEN IF ADVISED OF THE POSSIBILITY
  32:../src/main.c **** OF SUCH DAMAGE.
  33:../src/main.c **** */
  34:../src/main.c **** 
  35:../src/main.c **** #include "gd32vw55x.h"
  36:../src/main.c **** #include "systick.h"
  37:../src/main.c **** #include <stdio.h>
  38:../src/main.c **** #include "main.h"
  39:../src/main.c **** #include "gd32vw553h_eval.h"
  40:../src/main.c **** 
  41:../src/main.c **** /*!
  42:../src/main.c ****     \brief      toggle the led every 500ms
  43:../src/main.c ****     \param[in]  none
  44:../src/main.c ****     \param[out] none
  45:../src/main.c ****     \retval     none
  46:../src/main.c **** */
  47:../src/main.c **** void led_spark(void)
  48:../src/main.c **** {
  16              		.loc 1 48 1
  17              		.cfi_startproc
  18 0000 4111     		addi	sp,sp,-16
  19              		.cfi_def_cfa_offset 16
  20 0002 06C6     		sw	ra,12(sp)
  21 0004 22C4     		sw	s0,8(sp)
  22              		.cfi_offset 1, -4
  23              		.cfi_offset 8, -8
  24 0006 0008     		addi	s0,sp,16
  25              		.cfi_def_cfa 8, 0
  49:../src/main.c ****     static __IO uint32_t timingdelaylocal = 0U;
  50:../src/main.c **** 
  51:../src/main.c ****     if(timingdelaylocal) {
  26              		.loc 1 51 8
  27 0008 97070000 		lla	a5,timingdelaylocal.0
  27      93870700 
  28 0010 9C43     		lw	a5,0(a5)
  29              		.loc 1 51 7
  30 0012 A1CF     		beq	a5,zero,.L2
  52:../src/main.c **** 
  53:../src/main.c ****         if(timingdelaylocal < 500U) {
  31              		.loc 1 53 29
  32 0014 97070000 		lla	a5,timingdelaylocal.0
  32      93870700 
  33 001c 9843     		lw	a4,0(a5)
  34              		.loc 1 53 11
  35 001e 9307301F 		li	a5,499
  36 0022 63EDE700 		bgtu	a4,a5,.L3
  54:../src/main.c ****             gd_eval_led_on(LED2);
  37              		.loc 1 54 13
  38 0026 0545     		li	a0,1
  39 0028 97000000 		call	gd_eval_led_on
  39      E7800000 
  55:../src/main.c ****             gd_eval_led_on(LED3);
  40              		.loc 1 55 13
  41 0030 0945     		li	a0,2
  42 0032 97000000 		call	gd_eval_led_on
  42      E7800000 
  43 003a 19A8     		j	.L4
  44              	.L3:
  56:../src/main.c ****         } else {
  57:../src/main.c ****             gd_eval_led_off(LED2);
  45              		.loc 1 57 13
  46 003c 0545     		li	a0,1
  47 003e 97000000 		call	gd_eval_led_off
  47      E7800000 
  58:../src/main.c ****             gd_eval_led_off(LED3);
  48              		.loc 1 58 13
  49 0046 0945     		li	a0,2
  50 0048 97000000 		call	gd_eval_led_off
  50      E7800000 
  51              	.L4:
  59:../src/main.c ****         }
  60:../src/main.c **** 
  61:../src/main.c ****         timingdelaylocal--;
  52              		.loc 1 61 25
  53 0050 97070000 		lla	a5,timingdelaylocal.0
  53      93870700 
  54 0058 9C43     		lw	a5,0(a5)
  55 005a 1387F7FF 		addi	a4,a5,-1
  56 005e 97070000 		lla	a5,timingdelaylocal.0
  56      93870700 
  57 0066 98C3     		sw	a4,0(a5)
  62:../src/main.c ****     } else {
  63:../src/main.c ****         timingdelaylocal = 1000U;
  64:../src/main.c ****     }
  65:../src/main.c **** }
  58              		.loc 1 65 1
  59 0068 01A8     		j	.L6
  60              	.L2:
  63:../src/main.c ****     }
  61              		.loc 1 63 26
  62 006a 97070000 		lla	a5,timingdelaylocal.0
  62      93870700 
  63 0072 1307803E 		li	a4,1000
  64 0076 98C3     		sw	a4,0(a5)
  65              	.L6:
  66              		.loc 1 65 1
  67 0078 0100     		nop
  68 007a B240     		lw	ra,12(sp)
  69              		.cfi_restore 1
  70 007c 2244     		lw	s0,8(sp)
  71              		.cfi_restore 8
  72              		.cfi_def_cfa 2, 16
  73 007e 4101     		addi	sp,sp,16
  74              		.cfi_def_cfa_offset 0
  75 0080 8280     		jr	ra
  76              		.cfi_endproc
  77              	.LFE347:
  79              		.section	.rodata
  80              		.align	2
  81              	.LC0:
  82 0000 0D0A4744 		.string	"\r\nGD32VW55X series firmware version: V%d.%d.%d"
  82      33325657 
  82      35355820 
  82      73657269 
  82      65732066 
  83 002f 00       		.align	2
  84              	.LC1:
  85 0030 0D0A434B 		.string	"\r\nCK_SYS is %d\r\n"
  85      5F535953 
  85      20697320 
  85      25640D0A 
  85      00
  86 0041 000000   		.align	2
  87              	.LC2:
  88 0044 0D0A434B 		.string	"\r\nCK_AHB is %d\r\n"
  88      5F414842 
  88      20697320 
  88      25640D0A 
  88      00
  89 0055 000000   		.align	2
  90              	.LC3:
  91 0058 0D0A434B 		.string	"\r\nCK_APB1 is %d\r\n"
  91      5F415042 
  91      31206973 
  91      2025640D 
  91      0A00
  92 006a 0000     		.align	2
  93              	.LC4:
  94 006c 0D0A434B 		.string	"\r\nCK_APB2 is %d\r\n"
  94      5F415042 
  94      32206973 
  94      2025640D 
  94      0A00
  95              		.section	.text.main,"ax",@progbits
  96              		.align	1
  97              		.globl	main
  99              	main:
 100              	.LFB348:
  66:../src/main.c **** 
  67:../src/main.c **** /*!
  68:../src/main.c ****     \brief      main function
  69:../src/main.c ****     \param[in]  none
  70:../src/main.c ****     \param[out] none
  71:../src/main.c ****     \retval     none
  72:../src/main.c **** */
  73:../src/main.c **** int main(void)
  74:../src/main.c **** {
 101              		.loc 1 74 1
 102              		.cfi_startproc
 103 0000 0111     		addi	sp,sp,-32
 104              		.cfi_def_cfa_offset 32
 105 0002 06CE     		sw	ra,28(sp)
 106 0004 22CC     		sw	s0,24(sp)
 107              		.cfi_offset 1, -4
 108              		.cfi_offset 8, -8
 109 0006 0010     		addi	s0,sp,32
 110              		.cfi_def_cfa 8, 0
  75:../src/main.c **** #ifdef __FIRMWARE_VERSION_DEFINE
  76:../src/main.c ****     uint32_t fw_ver = 0;
 111              		.loc 1 76 14
 112 0008 232604FE 		sw	zero,-20(s0)
  77:../src/main.c **** #endif /* __FIRMWARE_VERSION_DEFINE */
  78:../src/main.c **** 
  79:../src/main.c ****     /* configure systick */
  80:../src/main.c ****     systick_config();
 113              		.loc 1 80 5
 114 000c 97000000 		call	systick_config
 114      E7800000 
  81:../src/main.c ****     eclic_priority_group_set(ECLIC_PRIGROUP_LEVEL3_PRIO1);
 115              		.loc 1 81 5
 116 0014 0D45     		li	a0,3
 117 0016 97000000 		call	eclic_priority_group_set
 117      E7800000 
  82:../src/main.c ****     /* initilize the LEDs, USART and key */
  83:../src/main.c ****     gd_eval_led_init(LED1);
 118              		.loc 1 83 5
 119 001e 0145     		li	a0,0
 120 0020 97000000 		call	gd_eval_led_init
 120      E7800000 
  84:../src/main.c ****     gd_eval_led_init(LED2);
 121              		.loc 1 84 5
 122 0028 0545     		li	a0,1
 123 002a 97000000 		call	gd_eval_led_init
 123      E7800000 
  85:../src/main.c ****     gd_eval_led_init(LED3);
 124              		.loc 1 85 5
 125 0032 0945     		li	a0,2
 126 0034 97000000 		call	gd_eval_led_init
 126      E7800000 
  86:../src/main.c ****     gd_eval_com_init(EVAL_COM0);
 127              		.loc 1 86 5
 128 003c B7570040 		li	a5,1073762304
 129 0040 13850780 		addi	a0,a5,-2048
 130 0044 97000000 		call	gd_eval_com_init
 130      E7800000 
  87:../src/main.c ****     gd_eval_key_init(KEY_TAMPER_WAKEUP, KEY_MODE_GPIO);
 131              		.loc 1 87 5
 132 004c 8145     		li	a1,0
 133 004e 0145     		li	a0,0
 134 0050 97000000 		call	gd_eval_key_init
 134      E7800000 
  88:../src/main.c **** 
  89:../src/main.c **** #ifdef __FIRMWARE_VERSION_DEFINE
  90:../src/main.c ****     fw_ver = gd32vw55x_firmware_version_get();
 135              		.loc 1 90 14
 136 0058 97000000 		call	gd32vw55x_firmware_version_get
 136      E7800000 
 137 0060 2326A4FE 		sw	a0,-20(s0)
  91:../src/main.c ****     /* print firmware version */
  92:../src/main.c ****     printf("\r\nGD32VW55X series firmware version: V%d.%d.%d", (uint8_t)(fw_ver >> 24), (uint8_t)(f
 138              		.loc 1 92 81
 139 0064 8327C4FE 		lw	a5,-20(s0)
 140 0068 E183     		srli	a5,a5,24
 141              		.loc 1 92 64
 142 006a 93F7F70F 		andi	a5,a5,0xff
 143              		.loc 1 92 5
 144 006e 3E87     		mv	a4,a5
 145              		.loc 1 92 106
 146 0070 8327C4FE 		lw	a5,-20(s0)
 147 0074 C183     		srli	a5,a5,16
 148              		.loc 1 92 89
 149 0076 93F7F70F 		andi	a5,a5,0xff
 150              		.loc 1 92 5
 151 007a 3E86     		mv	a2,a5
 152              		.loc 1 92 131
 153 007c 8327C4FE 		lw	a5,-20(s0)
 154 0080 A183     		srli	a5,a5,8
 155              		.loc 1 92 114
 156 0082 93F7F70F 		andi	a5,a5,0xff
 157              		.loc 1 92 5
 158 0086 BE86     		mv	a3,a5
 159 0088 BA85     		mv	a1,a4
 160 008a 17050000 		lla	a0,.LC0
 160      13050500 
 161 0092 97000000 		call	printf
 161      E7800000 
  93:../src/main.c **** #endif /* __FIRMWARE_VERSION_DEFINE */
  94:../src/main.c **** 
  95:../src/main.c ****     /* print out the clock frequency of system, AHB, APB1 and APB2 */
  96:../src/main.c ****     printf("\r\nCK_SYS is %d\r\n", rcu_clock_freq_get(CK_SYS));
 162              		.loc 1 96 5
 163 009a 0145     		li	a0,0
 164 009c 97000000 		call	rcu_clock_freq_get
 164      E7800000 
 165 00a4 AA87     		mv	a5,a0
 166 00a6 BE85     		mv	a1,a5
 167 00a8 17050000 		lla	a0,.LC1
 167      13050500 
 168 00b0 97000000 		call	printf
 168      E7800000 
  97:../src/main.c ****     printf("\r\nCK_AHB is %d\r\n", rcu_clock_freq_get(CK_AHB));
 169              		.loc 1 97 5
 170 00b8 0545     		li	a0,1
 171 00ba 97000000 		call	rcu_clock_freq_get
 171      E7800000 
 172 00c2 AA87     		mv	a5,a0
 173 00c4 BE85     		mv	a1,a5
 174 00c6 17050000 		lla	a0,.LC2
 174      13050500 
 175 00ce 97000000 		call	printf
 175      E7800000 
  98:../src/main.c ****     printf("\r\nCK_APB1 is %d\r\n", rcu_clock_freq_get(CK_APB1));
 176              		.loc 1 98 5
 177 00d6 0945     		li	a0,2
 178 00d8 97000000 		call	rcu_clock_freq_get
 178      E7800000 
 179 00e0 AA87     		mv	a5,a0
 180 00e2 BE85     		mv	a1,a5
 181 00e4 17050000 		lla	a0,.LC3
 181      13050500 
 182 00ec 97000000 		call	printf
 182      E7800000 
  99:../src/main.c ****     printf("\r\nCK_APB2 is %d\r\n", rcu_clock_freq_get(CK_APB2));
 183              		.loc 1 99 5
 184 00f4 0D45     		li	a0,3
 185 00f6 97000000 		call	rcu_clock_freq_get
 185      E7800000 
 186 00fe AA87     		mv	a5,a0
 187 0100 BE85     		mv	a1,a5
 188 0102 17050000 		lla	a0,.LC4
 188      13050500 
 189 010a 97000000 		call	printf
 189      E7800000 
 190              	.L9:
 100:../src/main.c **** 
 101:../src/main.c ****     while(1) {
 102:../src/main.c ****         if(RESET == gd_eval_key_state_get(KEY_TAMPER_WAKEUP)) {
 191              		.loc 1 102 21
 192 0112 0145     		li	a0,0
 193 0114 97000000 		call	gd_eval_key_state_get
 193      E7800000 
 194 011c AA87     		mv	a5,a0
 195              		.loc 1 102 11
 196 011e F5FB     		bne	a5,zero,.L9
 103:../src/main.c ****             delay_1ms(50);
 197              		.loc 1 103 13
 198 0120 13052003 		li	a0,50
 199 0124 97000000 		call	delay_1ms
 199      E7800000 
 104:../src/main.c ****             if(SET == gd_eval_key_state_get(KEY_TAMPER_WAKEUP)) {
 200              		.loc 1 104 23
 201 012c 0145     		li	a0,0
 202 012e 97000000 		call	gd_eval_key_state_get
 202      E7800000 
 203 0136 AA87     		mv	a5,a0
 204 0138 3E87     		mv	a4,a5
 205              		.loc 1 104 15
 206 013a 8547     		li	a5,1
 207 013c E31BF7FC 		bne	a4,a5,.L9
 105:../src/main.c ****                 gd_eval_led_toggle(LED1);
 208              		.loc 1 105 17
 209 0140 0145     		li	a0,0
 210 0142 97000000 		call	gd_eval_led_toggle
 210      E7800000 
 102:../src/main.c ****             delay_1ms(50);
 211              		.loc 1 102 11
 212 014a E1B7     		j	.L9
 213              		.cfi_endproc
 214              	.LFE348:
 216              		.section	.sbss.timingdelaylocal.0,"aw",@nobits
 217              		.align	2
 220              	timingdelaylocal.0:
 221 0000 00000000 		.zero	4
 222              		.text
 223              	.Letext0:
 224              		.file 2 "e:\\gd32\\gd32embeddedbuilder_v1.5.2.30854\\tools\\nuclei_riscv_newlibc_prebuilt_win32_20
 225              		.file 3 "e:\\gd32\\gd32embeddedbuilder_v1.5.2.30854\\tools\\nuclei_riscv_newlibc_prebuilt_win32_20
 226              		.file 4 "../Firmware/GD32VW55x_standard_peripheral/gd32vw55x.h"
 227              		.file 5 "../Firmware/GD32VW55x_standard_peripheral/Include/gd32vw55x_rcu.h"
 228              		.file 6 "../inc/gd32vw553h_eval.h"