   1              		.file	"systick.c"
   2              		.option nopic
   3              		.attribute arch, "rv32i2p0_m2p0_a2p0_c2p0"
   4              		.attribute unaligned_access, 0
   5              		.attribute stack_align, 16
   6              		.text
   7              	.Ltext0:
   8              		.cfi_sections	.debug_frame
   9              		.section	.sbss.delay,"aw",@nobits
  10              		.align	2
  13              	delay:
  14 0000 00000000 		.zero	4
  15              		.section	.text.systick_config,"ax",@progbits
  16              		.align	1
  17              		.globl	systick_config
  19              	systick_config:
  20              	.LFB347:
  21              		.file 1 "../src/systick.c"
   1:../src/systick.c **** /*!
   2:../src/systick.c ****     \file    systick.c
   3:../src/systick.c ****     \brief   the systick configuration file
   4:../src/systick.c **** 
   5:../src/systick.c ****     \version 2025-01-16, V1.4.0, firmware for GD32VW55x
   6:../src/systick.c **** */
   7:../src/systick.c **** 
   8:../src/systick.c **** /*
   9:../src/systick.c ****     Copyright (c) 2025, GigaDevice Semiconductor Inc.
  10:../src/systick.c **** 
  11:../src/systick.c ****     Redistribution and use in source and binary forms, with or without modification,
  12:../src/systick.c **** are permitted provided that the following conditions are met:
  13:../src/systick.c **** 
  14:../src/systick.c ****     1. Redistributions of source code must retain the above copyright notice, this
  15:../src/systick.c ****        list of conditions and the following disclaimer.
  16:../src/systick.c ****     2. Redistributions in binary form must reproduce the above copyright notice,
  17:../src/systick.c ****        this list of conditions and the following disclaimer in the documentation
  18:../src/systick.c ****        and/or other materials provided with the distribution.
  19:../src/systick.c ****     3. Neither the name of the copyright holder nor the names of its contributors
  20:../src/systick.c ****        may be used to endorse or promote products derived from this software without
  21:../src/systick.c ****        specific prior written permission.
  22:../src/systick.c **** 
  23:../src/systick.c ****     THIS SOFTWARE IS PROVIDED BY THE COPYRIGHT HOLDERS AND CONTRIBUTORS "AS IS"
  24:../src/systick.c **** AND ANY EXPRESS OR IMPLIED WARRANTIES, INCLUDING, BUT NOT LIMITED TO, THE IMPLIED
  25:../src/systick.c **** WARRANTIES OF MERCHANTABILITY AND FITNESS FOR A PARTICULAR PURPOSE ARE DISCLAIMED.
  26:../src/systick.c **** IN NO EVENT SHALL THE COPYRIGHT HOLDER OR CONTRIBUTORS BE LIABLE FOR ANY DIRECT,
  27:../src/systick.c **** INDIRECT, INCIDENTAL, SPECIAL, EXEMPLARY, OR CONSEQUENTIAL DAMAGES (INCLUDING, BUT
  28:../src/systick.c **** NOT LIMITED TO, PROCUREMENT OF SUBSTITUTE GOODS OR SERVICES; LOSS OF USE, DATA, OR
  29:../src/systick.c **** PROFITS; OR BUSINESS INTERRUPTION) HOWEVER CAUSED AND ON ANY THEORY OF LIABILITY,
  30:../src/systick.c **** WHETHER IN CONTRACT, STRICT LIABILITY, OR TORT (INCLUDING NEGLIGENCE OR OTHERWISE)
  31:../src/systick.c **** ARISING IN ANY WAY OUT OF THE USE OF THIS SOFTWARE, EVEN IF ADVISED OF THE POSSIBILITY
  32:../src/systick.c **** OF SUCH DAMAGE.
  33:../src/systick.c **** */
  34:../src/systick.c **** 
  35:../src/systick.c **** #include "gd32vw55x.h"
  36:../src/systick.c **** #include "systick.h"
  37:../src/systick.c **** 
  38:../src/systick.c **** volatile static uint32_t delay;
  39:../src/systick.c **** 
  40:../src/systick.c **** /*!
  41:../src/systick.c ****     \brief      configure systick
  42:../src/systick.c ****     \param[in]  none
  43:../src/systick.c ****     \param[out] none
  44:../src/systick.c ****     \retval     none
  45:../src/systick.c **** */
  46:../src/systick.c **** void systick_config(void)
  47:../src/systick.c **** {
  22              		.loc 1 47 1
  23              		.cfi_startproc
  24 0000 7971     		addi	sp,sp,-48
  25              		.cfi_def_cfa_offset 48
  26 0002 06D6     		sw	ra,44(sp)
  27 0004 22D4     		sw	s0,40(sp)
  28              		.cfi_offset 1, -4
  29              		.cfi_offset 8, -8
  30 0006 0018     		addi	s0,sp,48
  31              		.cfi_def_cfa 8, 0
  32 0008 8946     		li	a3,2
  33 000a 232ED4FC 		sw	a3,-36(s0)
  34              	.LBB8:
  35              	.LBB9:
  36              		.file 2 "../Firmware/RISCV/drivers/core_feature_timer.h"
   1:../Firmware/RISCV/drivers/core_feature_timer.h **** /*
   2:../Firmware/RISCV/drivers/core_feature_timer.h ****  * Copyright (c) 2019 Nuclei Limited. All rights reserved.
   3:../Firmware/RISCV/drivers/core_feature_timer.h ****  *
   4:../Firmware/RISCV/drivers/core_feature_timer.h ****  * SPDX-License-Identifier: Apache-2.0
   5:../Firmware/RISCV/drivers/core_feature_timer.h ****  *
   6:../Firmware/RISCV/drivers/core_feature_timer.h ****  * Licensed under the Apache License, Version 2.0 (the License); you may
   7:../Firmware/RISCV/drivers/core_feature_timer.h ****  * not use this file except in compliance with the License.
   8:../Firmware/RISCV/drivers/core_feature_timer.h ****  * You may obtain a copy of the License at
   9:../Firmware/RISCV/drivers/core_feature_timer.h ****  *
  10:../Firmware/RISCV/drivers/core_feature_timer.h ****  * www.apache.org/licenses/LICENSE-2.0
  11:../Firmware/RISCV/drivers/core_feature_timer.h ****  *
  12:../Firmware/RISCV/drivers/core_feature_timer.h ****  * Unless required by applicable law or agreed to in writing, software
  13:../Firmware/RISCV/drivers/core_feature_timer.h ****  * distributed under the License is distributed on an AS IS BASIS, WITHOUT
  14:../Firmware/RISCV/drivers/core_feature_timer.h ****  * WARRANTIES OR CONDITIONS OF ANY KIND, either express or implied.
  15:../Firmware/RISCV/drivers/core_feature_timer.h ****  * See the License for the specific language governing permissions and
  16:../Firmware/RISCV/drivers/core_feature_timer.h ****  * limitations under the License.
  17:../Firmware/RISCV/drivers/core_feature_timer.h ****  */
  18:../Firmware/RISCV/drivers/core_feature_timer.h **** #ifndef __CORE_FEATURE_TIMER_H__
  19:../Firmware/RISCV/drivers/core_feature_timer.h **** #define __CORE_FEATURE_TIMER_H__
  20:../Firmware/RISCV/drivers/core_feature_timer.h **** /*!
  21:../Firmware/RISCV/drivers/core_feature_timer.h ****  * @file     core_feature_timer.h
  22:../Firmware/RISCV/drivers/core_feature_timer.h ****  * @brief    System Timer feature API header file for Nuclei N/NX Core
  23:../Firmware/RISCV/drivers/core_feature_timer.h ****  */
  24:../Firmware/RISCV/drivers/core_feature_timer.h **** /*
  25:../Firmware/RISCV/drivers/core_feature_timer.h ****  * System Timer Feature Configuration Macro:
  26:../Firmware/RISCV/drivers/core_feature_timer.h ****  * 1. __SYSTIMER_PRESENT:  Define whether Private System Timer is present or not.
  27:../Firmware/RISCV/drivers/core_feature_timer.h ****  *   * 0: Not present
  28:../Firmware/RISCV/drivers/core_feature_timer.h ****  *   * 1: Present
  29:../Firmware/RISCV/drivers/core_feature_timer.h ****  * 2. __SYSTIMER_BASEADDR:  Define the base address of the System Timer.
  30:../Firmware/RISCV/drivers/core_feature_timer.h ****  */
  31:../Firmware/RISCV/drivers/core_feature_timer.h **** #ifdef __cplusplus
  32:../Firmware/RISCV/drivers/core_feature_timer.h ****  extern "C" {
  33:../Firmware/RISCV/drivers/core_feature_timer.h **** #endif
  34:../Firmware/RISCV/drivers/core_feature_timer.h **** 
  35:../Firmware/RISCV/drivers/core_feature_timer.h **** #if defined(__SYSTIMER_PRESENT) && (__SYSTIMER_PRESENT == 1)
  36:../Firmware/RISCV/drivers/core_feature_timer.h **** /**
  37:../Firmware/RISCV/drivers/core_feature_timer.h ****  * \defgroup NMSIS_Core_SysTimer_Registers     Register Define and Type Definitions Of System Timer
  38:../Firmware/RISCV/drivers/core_feature_timer.h ****  * \ingroup NMSIS_Core_Registers
  39:../Firmware/RISCV/drivers/core_feature_timer.h ****  * \brief   Type definitions and defines for system timer registers.
  40:../Firmware/RISCV/drivers/core_feature_timer.h ****  *
  41:../Firmware/RISCV/drivers/core_feature_timer.h ****  * @{
  42:../Firmware/RISCV/drivers/core_feature_timer.h ****  */
  43:../Firmware/RISCV/drivers/core_feature_timer.h **** /**
  44:../Firmware/RISCV/drivers/core_feature_timer.h ****  * \brief  Structure type to access the System Timer (SysTimer).
  45:../Firmware/RISCV/drivers/core_feature_timer.h ****  * \details
  46:../Firmware/RISCV/drivers/core_feature_timer.h ****  * Structure definition to access the system timer(SysTimer).
  47:../Firmware/RISCV/drivers/core_feature_timer.h ****  * \remarks
  48:../Firmware/RISCV/drivers/core_feature_timer.h ****  * - MSFTRST register is introduced in Nuclei N Core version 1.3(\ref __NUCLEI_N_REV >= 0x0103)
  49:../Firmware/RISCV/drivers/core_feature_timer.h ****  * - MSTOP register is renamed to MTIMECTL register in Nuclei N Core version 1.4(\ref __NUCLEI_N_RE
  50:../Firmware/RISCV/drivers/core_feature_timer.h ****  * - CMPCLREN and CLKSRC bit in MTIMECTL register is introduced in Nuclei N Core version 1.4(\ref _
  51:../Firmware/RISCV/drivers/core_feature_timer.h ****  */
  52:../Firmware/RISCV/drivers/core_feature_timer.h **** typedef struct {
  53:../Firmware/RISCV/drivers/core_feature_timer.h ****     __IOM uint64_t MTIMER;                  /*!< Offset: 0x000 (R/W)  System Timer current value 64
  54:../Firmware/RISCV/drivers/core_feature_timer.h ****     __IOM uint64_t MTIMERCMP;               /*!< Offset: 0x008 (R/W)  System Timer compare Value 64
  55:../Firmware/RISCV/drivers/core_feature_timer.h ****     __IOM uint32_t RESERVED0[0x3F8];        /*!< Offset: 0x010 - 0xFEC Reserved */
  56:../Firmware/RISCV/drivers/core_feature_timer.h ****     __IOM uint32_t MSFTRST;                 /*!< Offset: 0xFF0 (R/W)  System Timer Software Core Re
  57:../Firmware/RISCV/drivers/core_feature_timer.h ****     __IOM uint32_t RESERVED1;               /*!< Offset: 0xFF4 Reserved */
  58:../Firmware/RISCV/drivers/core_feature_timer.h ****     __IOM uint32_t MTIMECTL;                /*!< Offset: 0xFF8 (R/W)  System Timer Control Register
  59:../Firmware/RISCV/drivers/core_feature_timer.h ****     __IOM uint32_t MSIP;                    /*!< Offset: 0xFFC (R/W)  System Timer SW interrupt Reg
  60:../Firmware/RISCV/drivers/core_feature_timer.h **** } SysTimer_Type;
  61:../Firmware/RISCV/drivers/core_feature_timer.h **** 
  62:../Firmware/RISCV/drivers/core_feature_timer.h **** /* Timer Control / Status Register Definitions */
  63:../Firmware/RISCV/drivers/core_feature_timer.h **** #define SysTimer_MTIMECTL_TIMESTOP_Pos      0U                                          /*!< SysTic
  64:../Firmware/RISCV/drivers/core_feature_timer.h **** #define SysTimer_MTIMECTL_TIMESTOP_Msk      (1UL << SysTimer_MTIMECTL_TIMESTOP_Pos)     /*!< SysTic
  65:../Firmware/RISCV/drivers/core_feature_timer.h **** #define SysTimer_MTIMECTL_CMPCLREN_Pos      1U                                          /*!< SysTic
  66:../Firmware/RISCV/drivers/core_feature_timer.h **** #define SysTimer_MTIMECTL_CMPCLREN_Msk      (1UL << SysTimer_MTIMECTL_CMPCLREN_Pos)     /*!< SysTic
  67:../Firmware/RISCV/drivers/core_feature_timer.h **** #define SysTimer_MTIMECTL_CLKSRC_Pos        2U                                          /*!< SysTic
  68:../Firmware/RISCV/drivers/core_feature_timer.h **** #define SysTimer_MTIMECTL_CLKSRC_Msk        (1UL << SysTimer_MTIMECTL_CLKSRC_Pos)       /*!< SysTic
  69:../Firmware/RISCV/drivers/core_feature_timer.h **** 
  70:../Firmware/RISCV/drivers/core_feature_timer.h **** #define SysTimer_MSIP_MSIP_Pos              0U                                          /*!< SysTic
  71:../Firmware/RISCV/drivers/core_feature_timer.h **** #define SysTimer_MSIP_MSIP_Msk              (1UL << SysTimer_MSIP_MSIP_Pos)             /*!< SysTic
  72:../Firmware/RISCV/drivers/core_feature_timer.h **** 
  73:../Firmware/RISCV/drivers/core_feature_timer.h **** #define SysTimer_MTIMER_Msk                 (0xFFFFFFFFFFFFFFFFULL)                     /*!< SysTic
  74:../Firmware/RISCV/drivers/core_feature_timer.h **** #define SysTimer_MTIMERCMP_Msk              (0xFFFFFFFFFFFFFFFFULL)                     /*!< SysTic
  75:../Firmware/RISCV/drivers/core_feature_timer.h **** #define SysTimer_MTIMECTL_Msk               (0xFFFFFFFFUL)                              /*!< SysTic
  76:../Firmware/RISCV/drivers/core_feature_timer.h **** #define SysTimer_MSIP_Msk                   (0xFFFFFFFFUL)                              /*!< SysTic
  77:../Firmware/RISCV/drivers/core_feature_timer.h **** #define SysTimer_MSFTRST_Msk                (0xFFFFFFFFUL)                              /*!< SysTic
  78:../Firmware/RISCV/drivers/core_feature_timer.h **** 
  79:../Firmware/RISCV/drivers/core_feature_timer.h **** #define SysTimer_MSFRST_KEY                 (0x80000A5FUL)                              /*!< SysTic
  80:../Firmware/RISCV/drivers/core_feature_timer.h **** 
  81:../Firmware/RISCV/drivers/core_feature_timer.h **** #ifndef __SYSTIMER_BASEADDR
  82:../Firmware/RISCV/drivers/core_feature_timer.h **** /* Base address of SYSTIMER(__SYSTIMER_BASEADDR) should be defined in <Device.h> */
  83:../Firmware/RISCV/drivers/core_feature_timer.h **** #error "__SYSTIMER_BASEADDR is not defined, please check!"
  84:../Firmware/RISCV/drivers/core_feature_timer.h **** #endif
  85:../Firmware/RISCV/drivers/core_feature_timer.h **** /* System Timer Memory mapping of Device  */
  86:../Firmware/RISCV/drivers/core_feature_timer.h **** #define SysTimer_BASE                       __SYSTIMER_BASEADDR                         /*!< SysTic
  87:../Firmware/RISCV/drivers/core_feature_timer.h **** #define SysTimer                            ((SysTimer_Type *) SysTimer_BASE)           /*!< SysTic
  88:../Firmware/RISCV/drivers/core_feature_timer.h **** /** @} */ /* end of group NMSIS_Core_SysTimer_Registers */
  89:../Firmware/RISCV/drivers/core_feature_timer.h **** 
  90:../Firmware/RISCV/drivers/core_feature_timer.h **** /* ##################################    SysTimer function  #######################################
  91:../Firmware/RISCV/drivers/core_feature_timer.h **** /**
  92:../Firmware/RISCV/drivers/core_feature_timer.h ****  * \defgroup NMSIS_Core_SysTimer SysTimer Functions
  93:../Firmware/RISCV/drivers/core_feature_timer.h ****  * \brief    Functions that configure the Core System Timer.
  94:../Firmware/RISCV/drivers/core_feature_timer.h ****  * @{
  95:../Firmware/RISCV/drivers/core_feature_timer.h ****  */
  96:../Firmware/RISCV/drivers/core_feature_timer.h **** /**
  97:../Firmware/RISCV/drivers/core_feature_timer.h ****  * \brief  Set system timer load value
  98:../Firmware/RISCV/drivers/core_feature_timer.h ****  * \details
  99:../Firmware/RISCV/drivers/core_feature_timer.h ****  * This function set the system timer load value in MTIMER register.
 100:../Firmware/RISCV/drivers/core_feature_timer.h ****  * \param [in]  value   value to set system timer MTIMER register.
 101:../Firmware/RISCV/drivers/core_feature_timer.h ****  * \remarks
 102:../Firmware/RISCV/drivers/core_feature_timer.h ****  * - Load value is 64bits wide.
 103:../Firmware/RISCV/drivers/core_feature_timer.h ****  * - \ref SysTimer_GetLoadValue
 104:../Firmware/RISCV/drivers/core_feature_timer.h ****  */
 105:../Firmware/RISCV/drivers/core_feature_timer.h **** __STATIC_FORCEINLINE void SysTimer_SetLoadValue(uint64_t value)
 106:../Firmware/RISCV/drivers/core_feature_timer.h **** {
 107:../Firmware/RISCV/drivers/core_feature_timer.h ****     SysTimer->MTIMER = value;
 108:../Firmware/RISCV/drivers/core_feature_timer.h **** }
 109:../Firmware/RISCV/drivers/core_feature_timer.h **** 
 110:../Firmware/RISCV/drivers/core_feature_timer.h **** /**
 111:../Firmware/RISCV/drivers/core_feature_timer.h ****  * \brief  Get system timer load value
 112:../Firmware/RISCV/drivers/core_feature_timer.h ****  * \details
 113:../Firmware/RISCV/drivers/core_feature_timer.h ****  * This function get the system timer current value in MTIMER register.
 114:../Firmware/RISCV/drivers/core_feature_timer.h ****  * \return  current value(64bit) of system timer MTIMER register.
 115:../Firmware/RISCV/drivers/core_feature_timer.h ****  * \remarks
 116:../Firmware/RISCV/drivers/core_feature_timer.h ****  * - Load value is 64bits wide.
 117:../Firmware/RISCV/drivers/core_feature_timer.h ****  * - \ref SysTimer_SetLoadValue
 118:../Firmware/RISCV/drivers/core_feature_timer.h ****  */
 119:../Firmware/RISCV/drivers/core_feature_timer.h **** __STATIC_FORCEINLINE uint64_t SysTimer_GetLoadValue(void)
 120:../Firmware/RISCV/drivers/core_feature_timer.h **** {
 121:../Firmware/RISCV/drivers/core_feature_timer.h ****     return SysTimer->MTIMER;
 122:../Firmware/RISCV/drivers/core_feature_timer.h **** }
 123:../Firmware/RISCV/drivers/core_feature_timer.h **** 
 124:../Firmware/RISCV/drivers/core_feature_timer.h **** /**
 125:../Firmware/RISCV/drivers/core_feature_timer.h ****  * \brief  Set system timer compare value
 126:../Firmware/RISCV/drivers/core_feature_timer.h ****  * \details
 127:../Firmware/RISCV/drivers/core_feature_timer.h ****  * This function set the system Timer compare value in MTIMERCMP register.
 128:../Firmware/RISCV/drivers/core_feature_timer.h ****  * \param [in]  value   compare value to set system timer MTIMERCMP register.
 129:../Firmware/RISCV/drivers/core_feature_timer.h ****  * \remarks
 130:../Firmware/RISCV/drivers/core_feature_timer.h ****  * - Compare value is 64bits wide.
 131:../Firmware/RISCV/drivers/core_feature_timer.h ****  * - If compare value is larger than current value timer interrupt generate.
 132:../Firmware/RISCV/drivers/core_feature_timer.h ****  * - Modify the load value or compare value less to clear the interrupt.
 133:../Firmware/RISCV/drivers/core_feature_timer.h ****  * - \ref SysTimer_GetCompareValue
 134:../Firmware/RISCV/drivers/core_feature_timer.h ****  */
 135:../Firmware/RISCV/drivers/core_feature_timer.h **** __STATIC_FORCEINLINE void SysTimer_SetCompareValue(uint64_t value)
 136:../Firmware/RISCV/drivers/core_feature_timer.h **** {
 137:../Firmware/RISCV/drivers/core_feature_timer.h ****     SysTimer->MTIMERCMP = value;
 138:../Firmware/RISCV/drivers/core_feature_timer.h **** }
 139:../Firmware/RISCV/drivers/core_feature_timer.h **** 
 140:../Firmware/RISCV/drivers/core_feature_timer.h **** /**
 141:../Firmware/RISCV/drivers/core_feature_timer.h ****  * \brief  Get system timer compare value
 142:../Firmware/RISCV/drivers/core_feature_timer.h ****  * \details
 143:../Firmware/RISCV/drivers/core_feature_timer.h ****  * This function get the system timer compare value in MTIMERCMP register.
 144:../Firmware/RISCV/drivers/core_feature_timer.h ****  * \return  compare value of system timer MTIMERCMP register.
 145:../Firmware/RISCV/drivers/core_feature_timer.h ****  * \remarks
 146:../Firmware/RISCV/drivers/core_feature_timer.h ****  * - Compare value is 64bits wide.
 147:../Firmware/RISCV/drivers/core_feature_timer.h ****  * - \ref SysTimer_SetCompareValue
 148:../Firmware/RISCV/drivers/core_feature_timer.h ****  */
 149:../Firmware/RISCV/drivers/core_feature_timer.h **** __STATIC_FORCEINLINE uint64_t SysTimer_GetCompareValue(void)
 150:../Firmware/RISCV/drivers/core_feature_timer.h **** {
 151:../Firmware/RISCV/drivers/core_feature_timer.h ****     return SysTimer->MTIMERCMP;
 152:../Firmware/RISCV/drivers/core_feature_timer.h **** }
 153:../Firmware/RISCV/drivers/core_feature_timer.h **** 
 154:../Firmware/RISCV/drivers/core_feature_timer.h **** /**
 155:../Firmware/RISCV/drivers/core_feature_timer.h ****  * \brief  Enable system timer counter running
 156:../Firmware/RISCV/drivers/core_feature_timer.h ****  * \details
 157:../Firmware/RISCV/drivers/core_feature_timer.h ****  * Enable system timer counter running by clear
 158:../Firmware/RISCV/drivers/core_feature_timer.h ****  * TIMESTOP bit in MTIMECTL register.
 159:../Firmware/RISCV/drivers/core_feature_timer.h ****  */
 160:../Firmware/RISCV/drivers/core_feature_timer.h **** __STATIC_FORCEINLINE void SysTimer_Start(void)
 161:../Firmware/RISCV/drivers/core_feature_timer.h **** {
 162:../Firmware/RISCV/drivers/core_feature_timer.h ****     SysTimer->MTIMECTL &= ~(SysTimer_MTIMECTL_TIMESTOP_Msk);
 163:../Firmware/RISCV/drivers/core_feature_timer.h **** }
 164:../Firmware/RISCV/drivers/core_feature_timer.h **** 
 165:../Firmware/RISCV/drivers/core_feature_timer.h **** /**
 166:../Firmware/RISCV/drivers/core_feature_timer.h ****  * \brief  Stop system timer counter running
 167:../Firmware/RISCV/drivers/core_feature_timer.h ****  * \details
 168:../Firmware/RISCV/drivers/core_feature_timer.h ****  * Stop system timer counter running by set
 169:../Firmware/RISCV/drivers/core_feature_timer.h ****  * TIMESTOP bit in MTIMECTL register.
 170:../Firmware/RISCV/drivers/core_feature_timer.h ****  */
 171:../Firmware/RISCV/drivers/core_feature_timer.h **** __STATIC_FORCEINLINE void SysTimer_Stop(void)
 172:../Firmware/RISCV/drivers/core_feature_timer.h **** {
 173:../Firmware/RISCV/drivers/core_feature_timer.h ****     SysTimer->MTIMECTL |= SysTimer_MTIMECTL_TIMESTOP_Msk;
 174:../Firmware/RISCV/drivers/core_feature_timer.h **** }
 175:../Firmware/RISCV/drivers/core_feature_timer.h **** 
 176:../Firmware/RISCV/drivers/core_feature_timer.h **** /**
 177:../Firmware/RISCV/drivers/core_feature_timer.h ****  * \brief  Set system timer control value
 178:../Firmware/RISCV/drivers/core_feature_timer.h ****  * \details
 179:../Firmware/RISCV/drivers/core_feature_timer.h ****  * This function set the system timer MTIMECTL register value.
 180:../Firmware/RISCV/drivers/core_feature_timer.h ****  * \param [in]  mctl    value to set MTIMECTL register
 181:../Firmware/RISCV/drivers/core_feature_timer.h ****  * \remarks
 182:../Firmware/RISCV/drivers/core_feature_timer.h ****  * - Bit TIMESTOP is used to start and stop timer.
 183:../Firmware/RISCV/drivers/core_feature_timer.h ****  *   Clear TIMESTOP bit to 0 to start timer, otherwise to stop timer.
 184:../Firmware/RISCV/drivers/core_feature_timer.h ****  * - Bit CMPCLREN is used to enable auto MTIMER clear to zero when MTIMER >= MTIMERCMP.
 185:../Firmware/RISCV/drivers/core_feature_timer.h ****  *   Clear CMPCLREN bit to 0 to stop auto clear MTIMER feature, otherwise to enable it.
 186:../Firmware/RISCV/drivers/core_feature_timer.h ****  * - Bit CLKSRC is used to select timer clock source.
 187:../Firmware/RISCV/drivers/core_feature_timer.h ****  *   Clear CLKSRC bit to 0 to use *mtime_toggle_a*, otherwise use *core_clk_aon*
 188:../Firmware/RISCV/drivers/core_feature_timer.h ****  * - \ref SysTimer_GetControlValue
 189:../Firmware/RISCV/drivers/core_feature_timer.h ****  */
 190:../Firmware/RISCV/drivers/core_feature_timer.h **** __STATIC_FORCEINLINE void SysTimer_SetControlValue(uint32_t mctl)
 191:../Firmware/RISCV/drivers/core_feature_timer.h **** {
 192:../Firmware/RISCV/drivers/core_feature_timer.h ****     SysTimer->MTIMECTL = (mctl & SysTimer_MTIMECTL_Msk);
  37              		.loc 2 192 13
  38 000e 370600D1 		li	a2,-788529152
  39              		.loc 2 192 24
  40 0012 8566     		li	a3,4096
  41 0014 B296     		add	a3,a2,a3
  42 0016 0326C4FD 		lw	a2,-36(s0)
  43 001a 23ACC6FE 		sw	a2,-8(a3)
 193:../Firmware/RISCV/drivers/core_feature_timer.h **** }
  44              		.loc 2 193 1
  45 001e 0100     		nop
  46              	.LBE9:
  47              	.LBE8:
  48:../src/systick.c ****     SysTimer_SetControlValue(SysTimer_MTIMECTL_CMPCLREN_Msk);
  49:../src/systick.c ****     SysTimer_SetCompareValue(SystemCoreClock / 4000);
  48              		.loc 1 49 46
  49 0020 97060000 		lla	a3,SystemCoreClock
  49      93860600 
  50 0028 9042     		lw	a2,0(a3)
  51 002a 8566     		li	a3,4096
  52 002c 938606FA 		addi	a3,a3,-96
  53 0030 B356D602 		divu	a3,a2,a3
  54              		.loc 1 49 5
  55 0034 3687     		mv	a4,a3
  56 0036 8147     		li	a5,0
  57 0038 2320E4FE 		sw	a4,-32(s0)
  58 003c 2322F4FE 		sw	a5,-28(s0)
  59              	.LBB10:
  60              	.LBB11:
 137:../Firmware/RISCV/drivers/core_feature_timer.h **** }
  61              		.loc 2 137 13
  62 0040 B70600D1 		li	a3,-788529152
 137:../Firmware/RISCV/drivers/core_feature_timer.h **** }
  63              		.loc 2 137 25
  64 0044 032704FE 		lw	a4,-32(s0)
  65 0048 832744FE 		lw	a5,-28(s0)
  66 004c 98C6     		sw	a4,8(a3)
  67 004e DCC6     		sw	a5,12(a3)
 138:../Firmware/RISCV/drivers/core_feature_timer.h **** 
  68              		.loc 2 138 1
  69 0050 0100     		nop
  70 0052 9D47     		li	a5,7
  71 0054 2326F4FE 		sw	a5,-20(s0)
  72 0058 8547     		li	a5,1
  73 005a 2324F4FE 		sw	a5,-24(s0)
  74              	.LBE11:
  75              	.LBE10:
  76              	.LBB12:
  77              	.LBB13:
  78              		.file 3 "../Firmware/RISCV/drivers/core_feature_eclic.h"
   1:../Firmware/RISCV/drivers/core_feature_eclic.h **** /*
   2:../Firmware/RISCV/drivers/core_feature_eclic.h ****  * Copyright (c) 2019 Nuclei Limited. All rights reserved.
   3:../Firmware/RISCV/drivers/core_feature_eclic.h ****  *
   4:../Firmware/RISCV/drivers/core_feature_eclic.h ****  * SPDX-License-Identifier: Apache-2.0
   5:../Firmware/RISCV/drivers/core_feature_eclic.h ****  *
   6:../Firmware/RISCV/drivers/core_feature_eclic.h ****  * Licensed under the Apache License, Version 2.0 (the License); you may
   7:../Firmware/RISCV/drivers/core_feature_eclic.h ****  * not use this file except in compliance with the License.
   8:../Firmware/RISCV/drivers/core_feature_eclic.h ****  * You may obtain a copy of the License at
   9:../Firmware/RISCV/drivers/core_feature_eclic.h ****  *
  10:../Firmware/RISCV/drivers/core_feature_eclic.h ****  * www.apache.org/licenses/LICENSE-2.0
  11:../Firmware/RISCV/drivers/core_feature_eclic.h ****  *
  12:../Firmware/RISCV/drivers/core_feature_eclic.h ****  * Unless required by applicable law or agreed to in writing, software
  13:../Firmware/RISCV/drivers/core_feature_eclic.h ****  * distributed under the License is distributed on an AS IS BASIS, WITHOUT
  14:../Firmware/RISCV/drivers/core_feature_eclic.h ****  * WARRANTIES OR CONDITIONS OF ANY KIND, either express or implied.
  15:../Firmware/RISCV/drivers/core_feature_eclic.h ****  * See the License for the specific language governing permissions and
  16:../Firmware/RISCV/drivers/core_feature_eclic.h ****  * limitations under the License.
  17:../Firmware/RISCV/drivers/core_feature_eclic.h ****  */
  18:../Firmware/RISCV/drivers/core_feature_eclic.h **** #ifndef __CORE_FEATURE_ECLIC__
  19:../Firmware/RISCV/drivers/core_feature_eclic.h **** #define __CORE_FEATURE_ECLIC__
  20:../Firmware/RISCV/drivers/core_feature_eclic.h **** /*!
  21:../Firmware/RISCV/drivers/core_feature_eclic.h ****  * @file     core_feature_eclic.h
  22:../Firmware/RISCV/drivers/core_feature_eclic.h ****  * @brief    ECLIC feature API header file for Nuclei N/NX Core
  23:../Firmware/RISCV/drivers/core_feature_eclic.h ****  */
  24:../Firmware/RISCV/drivers/core_feature_eclic.h **** /*
  25:../Firmware/RISCV/drivers/core_feature_eclic.h ****  * ECLIC Feature Configuration Macro:
  26:../Firmware/RISCV/drivers/core_feature_eclic.h ****  * 1. __ECLIC_PRESENT:  Define whether Enhanced Core Local Interrupt Controller (ECLIC) Unit is pre
  27:../Firmware/RISCV/drivers/core_feature_eclic.h ****  *   * 0: Not present
  28:../Firmware/RISCV/drivers/core_feature_eclic.h ****  *   * 1: Present
  29:../Firmware/RISCV/drivers/core_feature_eclic.h ****  * 2. __ECLIC_BASEADDR:  Base address of the ECLIC unit.
  30:../Firmware/RISCV/drivers/core_feature_eclic.h ****  * 3. ECLIC_GetInfoCtlbits():  Define the number of hardware bits are actually implemented in the c
  31:../Firmware/RISCV/drivers/core_feature_eclic.h ****  *   Valid number is 1 - 8.
  32:../Firmware/RISCV/drivers/core_feature_eclic.h ****  * 4. __ECLIC_INTNUM  : Define the external interrupt number of ECLIC Unit
  33:../Firmware/RISCV/drivers/core_feature_eclic.h ****  *
  34:../Firmware/RISCV/drivers/core_feature_eclic.h ****  */
  35:../Firmware/RISCV/drivers/core_feature_eclic.h **** #ifdef __cplusplus
  36:../Firmware/RISCV/drivers/core_feature_eclic.h ****  extern "C" {
  37:../Firmware/RISCV/drivers/core_feature_eclic.h **** #endif
  38:../Firmware/RISCV/drivers/core_feature_eclic.h **** 
  39:../Firmware/RISCV/drivers/core_feature_eclic.h **** #if defined(__ECLIC_PRESENT) && (__ECLIC_PRESENT == 1)
  40:../Firmware/RISCV/drivers/core_feature_eclic.h **** /**
  41:../Firmware/RISCV/drivers/core_feature_eclic.h ****  * \defgroup NMSIS_Core_ECLIC_Registers     Register Define and Type Definitions Of ECLIC
  42:../Firmware/RISCV/drivers/core_feature_eclic.h ****  * \ingroup NMSIS_Core_Registers
  43:../Firmware/RISCV/drivers/core_feature_eclic.h ****  * \brief   Type definitions and defines for eclic registers.
  44:../Firmware/RISCV/drivers/core_feature_eclic.h ****  *
  45:../Firmware/RISCV/drivers/core_feature_eclic.h ****  * @{
  46:../Firmware/RISCV/drivers/core_feature_eclic.h ****  */
  47:../Firmware/RISCV/drivers/core_feature_eclic.h **** 
  48:../Firmware/RISCV/drivers/core_feature_eclic.h **** /**
  49:../Firmware/RISCV/drivers/core_feature_eclic.h ****  * \brief  Union type to access CLICFG configure register.
  50:../Firmware/RISCV/drivers/core_feature_eclic.h ****  */
  51:../Firmware/RISCV/drivers/core_feature_eclic.h **** typedef union
  52:../Firmware/RISCV/drivers/core_feature_eclic.h **** {
  53:../Firmware/RISCV/drivers/core_feature_eclic.h ****     struct {
  54:../Firmware/RISCV/drivers/core_feature_eclic.h ****         uint8_t _reserved0:1;                   /*!< bit:     0   Overflow condition code flag */
  55:../Firmware/RISCV/drivers/core_feature_eclic.h ****         uint8_t nlbits:4;                       /*!< bit:     29  Carry condition code flag */
  56:../Firmware/RISCV/drivers/core_feature_eclic.h ****         uint8_t _reserved1:2;                   /*!< bit:     30  Zero condition code flag */
  57:../Firmware/RISCV/drivers/core_feature_eclic.h ****         uint8_t _reserved2:1;                   /*!< bit:     31  Negative condition code flag */
  58:../Firmware/RISCV/drivers/core_feature_eclic.h ****     } b;                                        /*!< Structure used for bit  access */
  59:../Firmware/RISCV/drivers/core_feature_eclic.h ****     uint8_t w;                                  /*!< Type      used for byte access */
  60:../Firmware/RISCV/drivers/core_feature_eclic.h **** } CLICCFG_Type;
  61:../Firmware/RISCV/drivers/core_feature_eclic.h **** 
  62:../Firmware/RISCV/drivers/core_feature_eclic.h **** /**
  63:../Firmware/RISCV/drivers/core_feature_eclic.h ****  * \brief  Union type to access CLICINFO information register.
  64:../Firmware/RISCV/drivers/core_feature_eclic.h ****  */
  65:../Firmware/RISCV/drivers/core_feature_eclic.h **** typedef union {
  66:../Firmware/RISCV/drivers/core_feature_eclic.h ****     struct {
  67:../Firmware/RISCV/drivers/core_feature_eclic.h ****         uint32_t numint:13;                     /*!< bit:  0..12   number of maximum interrupt inpu
  68:../Firmware/RISCV/drivers/core_feature_eclic.h ****         uint32_t version:8;                     /*!< bit:  13..20  20:17 for architecture version,1
  69:../Firmware/RISCV/drivers/core_feature_eclic.h ****         uint32_t intctlbits:4;                  /*!< bit:  21..24  specifies how many hardware bits
  70:../Firmware/RISCV/drivers/core_feature_eclic.h ****         uint32_t _reserved0:7;                  /*!< bit:  25..31  Reserved */
  71:../Firmware/RISCV/drivers/core_feature_eclic.h ****     } b;                                        /*!< Structure used for bit  access */
  72:../Firmware/RISCV/drivers/core_feature_eclic.h ****     uint32_t w;                                 /*!< Type      used for word access */
  73:../Firmware/RISCV/drivers/core_feature_eclic.h **** } CLICINFO_Type;
  74:../Firmware/RISCV/drivers/core_feature_eclic.h **** 
  75:../Firmware/RISCV/drivers/core_feature_eclic.h **** /**
  76:../Firmware/RISCV/drivers/core_feature_eclic.h ****  * \brief Access to the structure of a vector interrupt controller.
  77:../Firmware/RISCV/drivers/core_feature_eclic.h ****  */
  78:../Firmware/RISCV/drivers/core_feature_eclic.h **** typedef struct {
  79:../Firmware/RISCV/drivers/core_feature_eclic.h ****     __IOM uint8_t  INTIP;                       /*!< Offset: 0x000 (R/W)  Interrupt set pending reg
  80:../Firmware/RISCV/drivers/core_feature_eclic.h ****     __IOM uint8_t  INTIE;                       /*!< Offset: 0x001 (R/W)  Interrupt set enable regi
  81:../Firmware/RISCV/drivers/core_feature_eclic.h ****     __IOM uint8_t  INTATTR;                     /*!< Offset: 0x002 (R/W)  Interrupt set attributes 
  82:../Firmware/RISCV/drivers/core_feature_eclic.h ****     __IOM uint8_t  INTCTRL;                     /*!< Offset: 0x003 (R/W)  Interrupt configure regis
  83:../Firmware/RISCV/drivers/core_feature_eclic.h **** } CLIC_CTRL_Type;
  84:../Firmware/RISCV/drivers/core_feature_eclic.h **** 
  85:../Firmware/RISCV/drivers/core_feature_eclic.h **** typedef struct {
  86:../Firmware/RISCV/drivers/core_feature_eclic.h ****     __IOM uint8_t   CFG;                        /*!< Offset: 0x000 (R/W)  CLIC configuration regist
  87:../Firmware/RISCV/drivers/core_feature_eclic.h ****     uint8_t RESERVED0[3];
  88:../Firmware/RISCV/drivers/core_feature_eclic.h ****     __IM uint32_t  INFO;                        /*!< Offset: 0x004 (R/ )  CLIC information register
  89:../Firmware/RISCV/drivers/core_feature_eclic.h ****     uint8_t RESERVED1[3];
  90:../Firmware/RISCV/drivers/core_feature_eclic.h ****     __IOM uint8_t  MTH;                         /*!< Offset: 0x00B (R/W)  CLIC machine mode thresho
  91:../Firmware/RISCV/drivers/core_feature_eclic.h ****     uint32_t RESERVED2[0x3FD];
  92:../Firmware/RISCV/drivers/core_feature_eclic.h ****     CLIC_CTRL_Type CTRL[4096];                  /*!< Offset: 0x1000 (R/W) CLIC register structure f
  93:../Firmware/RISCV/drivers/core_feature_eclic.h **** } CLIC_Type;
  94:../Firmware/RISCV/drivers/core_feature_eclic.h **** 
  95:../Firmware/RISCV/drivers/core_feature_eclic.h **** #define CLIC_CLICCFG_NLBIT_Pos                 1U                                       /*!< CLIC C
  96:../Firmware/RISCV/drivers/core_feature_eclic.h **** #define CLIC_CLICCFG_NLBIT_Msk                 (0xFUL << CLIC_CLICCFG_NLBIT_Pos)        /*!< CLIC C
  97:../Firmware/RISCV/drivers/core_feature_eclic.h **** 
  98:../Firmware/RISCV/drivers/core_feature_eclic.h **** #define CLIC_CLICINFO_CTLBIT_Pos                21U                                     /*!< CLIC I
  99:../Firmware/RISCV/drivers/core_feature_eclic.h **** #define CLIC_CLICINFO_CTLBIT_Msk                (0xFUL << CLIC_CLICINFO_CTLBIT_Pos)     /*!< CLIC I
 100:../Firmware/RISCV/drivers/core_feature_eclic.h **** 
 101:../Firmware/RISCV/drivers/core_feature_eclic.h **** #define CLIC_CLICINFO_VER_Pos                  13U                                      /*!< CLIC C
 102:../Firmware/RISCV/drivers/core_feature_eclic.h **** #define CLIC_CLICINFO_VER_Msk                  (0xFFUL << CLIC_CLICCFG_NLBIT_Pos)       /*!< CLIC C
 103:../Firmware/RISCV/drivers/core_feature_eclic.h **** 
 104:../Firmware/RISCV/drivers/core_feature_eclic.h **** #define CLIC_CLICINFO_NUM_Pos                  0U                                       /*!< CLIC C
 105:../Firmware/RISCV/drivers/core_feature_eclic.h **** #define CLIC_CLICINFO_NUM_Msk                  (0xFFFUL << CLIC_CLICINFO_NUM_Pos)       /*!< CLIC C
 106:../Firmware/RISCV/drivers/core_feature_eclic.h **** 
 107:../Firmware/RISCV/drivers/core_feature_eclic.h **** #define CLIC_INTIP_IP_Pos                      0U                                       /*!< CLIC I
 108:../Firmware/RISCV/drivers/core_feature_eclic.h **** #define CLIC_INTIP_IP_Msk                      (0x1UL << CLIC_INTIP_IP_Pos)             /*!< CLIC I
 109:../Firmware/RISCV/drivers/core_feature_eclic.h **** 
 110:../Firmware/RISCV/drivers/core_feature_eclic.h **** #define CLIC_INTIE_IE_Pos                      0U                                       /*!< CLIC I
 111:../Firmware/RISCV/drivers/core_feature_eclic.h **** #define CLIC_INTIE_IE_Msk                      (0x1UL << CLIC_INTIE_IE_Pos)             /*!< CLIC I
 112:../Firmware/RISCV/drivers/core_feature_eclic.h **** 
 113:../Firmware/RISCV/drivers/core_feature_eclic.h **** #define CLIC_INTATTR_TRIG_Pos                  1U                                       /*!< CLIC I
 114:../Firmware/RISCV/drivers/core_feature_eclic.h **** #define CLIC_INTATTR_TRIG_Msk                  (0x3UL << CLIC_INTATTR_TRIG_Pos)         /*!< CLIC I
 115:../Firmware/RISCV/drivers/core_feature_eclic.h **** 
 116:../Firmware/RISCV/drivers/core_feature_eclic.h **** #define CLIC_INTATTR_SHV_Pos                   0U                                       /*!< CLIC I
 117:../Firmware/RISCV/drivers/core_feature_eclic.h **** #define CLIC_INTATTR_SHV_Msk                   (0x1UL << CLIC_INTATTR_SHV_Pos)          /*!< CLIC I
 118:../Firmware/RISCV/drivers/core_feature_eclic.h **** 
 119:../Firmware/RISCV/drivers/core_feature_eclic.h **** #define ECLIC_MAX_NLBITS                       8U                                       /*!< Max nl
 120:../Firmware/RISCV/drivers/core_feature_eclic.h **** #define ECLIC_MODE_MTVEC_Msk                   3U                                       /*!< ECLIC 
 121:../Firmware/RISCV/drivers/core_feature_eclic.h **** 
 122:../Firmware/RISCV/drivers/core_feature_eclic.h **** #define ECLIC_NON_VECTOR_INTERRUPT             0x0                                      /*!< Non-Ve
 123:../Firmware/RISCV/drivers/core_feature_eclic.h **** #define ECLIC_VECTOR_INTERRUPT                 0x1                                      /*!< Vector
 124:../Firmware/RISCV/drivers/core_feature_eclic.h **** 
 125:../Firmware/RISCV/drivers/core_feature_eclic.h **** /**\brief ECLIC Trigger Enum for different Trigger Type */
 126:../Firmware/RISCV/drivers/core_feature_eclic.h **** typedef enum ECLIC_TRIGGER {
 127:../Firmware/RISCV/drivers/core_feature_eclic.h ****     ECLIC_LEVEL_TRIGGER = 0x0,          /*!< Level Triggerred, trig[0] = 0 */
 128:../Firmware/RISCV/drivers/core_feature_eclic.h ****     ECLIC_POSTIVE_EDGE_TRIGGER = 0x1,   /*!< Postive/Rising Edge Triggered, trig[0] = 1, trig[1] = 
 129:../Firmware/RISCV/drivers/core_feature_eclic.h ****     ECLIC_NEGTIVE_EDGE_TRIGGER = 0x3,   /*!< Negtive/Falling Edge Triggered, trig[0] = 1, trig[1] =
 130:../Firmware/RISCV/drivers/core_feature_eclic.h ****     ECLIC_MAX_TRIGGER = 0x3             /*!< MAX Supported Trigger Mode */
 131:../Firmware/RISCV/drivers/core_feature_eclic.h **** } ECLIC_TRIGGER_Type;
 132:../Firmware/RISCV/drivers/core_feature_eclic.h **** 
 133:../Firmware/RISCV/drivers/core_feature_eclic.h **** #ifndef __ECLIC_BASEADDR
 134:../Firmware/RISCV/drivers/core_feature_eclic.h **** /* Base address of ECLIC(__ECLIC_BASEADDR) should be defined in <Device.h> */
 135:../Firmware/RISCV/drivers/core_feature_eclic.h **** #error "__ECLIC_BASEADDR is not defined, please check!"
 136:../Firmware/RISCV/drivers/core_feature_eclic.h **** #endif
 137:../Firmware/RISCV/drivers/core_feature_eclic.h **** 
 138:../Firmware/RISCV/drivers/core_feature_eclic.h **** #ifndef __ECLIC_INTCTLBITS
 139:../Firmware/RISCV/drivers/core_feature_eclic.h **** /* Define __ECLIC_INTCTLBITS to get via ECLIC->INFO if not defined */
 140:../Firmware/RISCV/drivers/core_feature_eclic.h **** #define __ECLIC_INTCTLBITS                  (__ECLIC_GetInfoCtlbits())
 141:../Firmware/RISCV/drivers/core_feature_eclic.h **** #endif
 142:../Firmware/RISCV/drivers/core_feature_eclic.h **** 
 143:../Firmware/RISCV/drivers/core_feature_eclic.h **** /* ECLIC Memory mapping of Device */
 144:../Firmware/RISCV/drivers/core_feature_eclic.h **** #define ECLIC_BASE                          __ECLIC_BASEADDR                            /*!< ECLIC 
 145:../Firmware/RISCV/drivers/core_feature_eclic.h **** #define ECLIC                               ((CLIC_Type *) ECLIC_BASE)                  /*!< CLIC c
 146:../Firmware/RISCV/drivers/core_feature_eclic.h **** 
 147:../Firmware/RISCV/drivers/core_feature_eclic.h **** /** @} */ /* end of group NMSIS_Core_ECLIC_Registers */
 148:../Firmware/RISCV/drivers/core_feature_eclic.h **** 
 149:../Firmware/RISCV/drivers/core_feature_eclic.h **** /* ##########################   ECLIC functions  #################################### */
 150:../Firmware/RISCV/drivers/core_feature_eclic.h **** /**
 151:../Firmware/RISCV/drivers/core_feature_eclic.h ****  * \defgroup   NMSIS_Core_IntExc        Interrupts and Exceptions
 152:../Firmware/RISCV/drivers/core_feature_eclic.h ****  * \brief Functions that manage interrupts and exceptions via the ECLIC.
 153:../Firmware/RISCV/drivers/core_feature_eclic.h ****  *
 154:../Firmware/RISCV/drivers/core_feature_eclic.h ****  * @{
 155:../Firmware/RISCV/drivers/core_feature_eclic.h ****  */
 156:../Firmware/RISCV/drivers/core_feature_eclic.h **** 
 157:../Firmware/RISCV/drivers/core_feature_eclic.h **** /**
 158:../Firmware/RISCV/drivers/core_feature_eclic.h ****  * \brief  Definition of IRQn numbers
 159:../Firmware/RISCV/drivers/core_feature_eclic.h ****  * \details
 160:../Firmware/RISCV/drivers/core_feature_eclic.h ****  * The core interrupt enumeration names for IRQn values are defined in the file <b><Device>.h</b>.
 161:../Firmware/RISCV/drivers/core_feature_eclic.h ****  * - Interrupt ID(IRQn) from 0 to 18 are reserved for core internal interrupts.
 162:../Firmware/RISCV/drivers/core_feature_eclic.h ****  * - Interrupt ID(IRQn) start from 19 represent device-specific external interrupts.
 163:../Firmware/RISCV/drivers/core_feature_eclic.h ****  * - The first device-specific interrupt has the IRQn value 19.
 164:../Firmware/RISCV/drivers/core_feature_eclic.h ****  *
 165:../Firmware/RISCV/drivers/core_feature_eclic.h ****  * The table below describes the core interrupt names and their availability in various Nuclei Core
 166:../Firmware/RISCV/drivers/core_feature_eclic.h ****  */
 167:../Firmware/RISCV/drivers/core_feature_eclic.h **** /* The following enum IRQn definition in this file
 168:../Firmware/RISCV/drivers/core_feature_eclic.h ****  * is only used for doxygen documentation generation,
 169:../Firmware/RISCV/drivers/core_feature_eclic.h ****  * The <Device>.h is the real file to define it by vendor
 170:../Firmware/RISCV/drivers/core_feature_eclic.h ****  */
 171:../Firmware/RISCV/drivers/core_feature_eclic.h **** #if defined(__ONLY_FOR_DOXYGEN_DOCUMENT_GENERATION__)
 172:../Firmware/RISCV/drivers/core_feature_eclic.h **** typedef enum IRQn {
 173:../Firmware/RISCV/drivers/core_feature_eclic.h ****     /* ========= Nuclei N/NX Core Specific Interrupt Numbers  =========== */
 174:../Firmware/RISCV/drivers/core_feature_eclic.h ****     /* Core Internal Interrupt IRQn definitions */
 175:../Firmware/RISCV/drivers/core_feature_eclic.h ****     Reserved0_IRQn            =   0,              /*!<  Internal reserved */
 176:../Firmware/RISCV/drivers/core_feature_eclic.h ****     Reserved1_IRQn            =   1,              /*!<  Internal reserved */
 177:../Firmware/RISCV/drivers/core_feature_eclic.h ****     Reserved2_IRQn            =   2,              /*!<  Internal reserved */
 178:../Firmware/RISCV/drivers/core_feature_eclic.h ****     SysTimerSW_IRQn           =   3,              /*!<  System Timer SW interrupt */
 179:../Firmware/RISCV/drivers/core_feature_eclic.h ****     Reserved3_IRQn            =   4,              /*!<  Internal reserved */
 180:../Firmware/RISCV/drivers/core_feature_eclic.h ****     Reserved4_IRQn            =   5,              /*!<  Internal reserved */
 181:../Firmware/RISCV/drivers/core_feature_eclic.h ****     Reserved5_IRQn            =   6,              /*!<  Internal reserved */
 182:../Firmware/RISCV/drivers/core_feature_eclic.h ****     SysTimer_IRQn             =   7,              /*!<  System Timer Interrupt */
 183:../Firmware/RISCV/drivers/core_feature_eclic.h ****     Reserved6_IRQn            =   8,              /*!<  Internal reserved */
 184:../Firmware/RISCV/drivers/core_feature_eclic.h ****     Reserved7_IRQn            =   9,              /*!<  Internal reserved */
 185:../Firmware/RISCV/drivers/core_feature_eclic.h ****     Reserved8_IRQn            =  10,              /*!<  Internal reserved */
 186:../Firmware/RISCV/drivers/core_feature_eclic.h ****     Reserved9_IRQn            =  11,              /*!<  Internal reserved */
 187:../Firmware/RISCV/drivers/core_feature_eclic.h ****     Reserved10_IRQn           =  12,              /*!<  Internal reserved */
 188:../Firmware/RISCV/drivers/core_feature_eclic.h ****     Reserved11_IRQn           =  13,              /*!<  Internal reserved */
 189:../Firmware/RISCV/drivers/core_feature_eclic.h ****     Reserved12_IRQn           =  14,              /*!<  Internal reserved */
 190:../Firmware/RISCV/drivers/core_feature_eclic.h ****     Reserved13_IRQn           =  15,              /*!<  Internal reserved */
 191:../Firmware/RISCV/drivers/core_feature_eclic.h ****     Reserved14_IRQn           =  16,              /*!<  Internal reserved */
 192:../Firmware/RISCV/drivers/core_feature_eclic.h ****     Reserved15_IRQn           =  17,              /*!<  Internal reserved */
 193:../Firmware/RISCV/drivers/core_feature_eclic.h ****     Reserved16_IRQn           =  18,              /*!<  Internal reserved */
 194:../Firmware/RISCV/drivers/core_feature_eclic.h **** 
 195:../Firmware/RISCV/drivers/core_feature_eclic.h ****     /* ========= Device Specific Interrupt Numbers  =================== */
 196:../Firmware/RISCV/drivers/core_feature_eclic.h ****     /* ToDo: add here your device specific external interrupt numbers.
 197:../Firmware/RISCV/drivers/core_feature_eclic.h ****      * 19~max(NUM_INTERRUPT, 1023) is reserved number for user.
 198:../Firmware/RISCV/drivers/core_feature_eclic.h ****      * Maxmum interrupt supported could get from clicinfo.NUM_INTERRUPT.
 199:../Firmware/RISCV/drivers/core_feature_eclic.h ****      * According the interrupt handlers defined in startup_Device.S
 200:../Firmware/RISCV/drivers/core_feature_eclic.h ****      * eg.: Interrupt for Timer#1       eclic_tim1_handler   ->   TIM1_IRQn */
 201:../Firmware/RISCV/drivers/core_feature_eclic.h ****     FirstDeviceSpecificInterrupt_IRQn    = 19,    /*!< First Device Specific Interrupt */
 202:../Firmware/RISCV/drivers/core_feature_eclic.h ****     SOC_INT_MAX,                                  /*!< Number of total interrupts */
 203:../Firmware/RISCV/drivers/core_feature_eclic.h **** } IRQn_Type;
 204:../Firmware/RISCV/drivers/core_feature_eclic.h **** #endif /* __ONLY_FOR_DOXYGEN_DOCUMENT_GENERATION__ */
 205:../Firmware/RISCV/drivers/core_feature_eclic.h **** 
 206:../Firmware/RISCV/drivers/core_feature_eclic.h **** #ifdef NMSIS_ECLIC_VIRTUAL
 207:../Firmware/RISCV/drivers/core_feature_eclic.h ****     #ifndef NMSIS_ECLIC_VIRTUAL_HEADER_FILE
 208:../Firmware/RISCV/drivers/core_feature_eclic.h ****         #define NMSIS_ECLIC_VIRTUAL_HEADER_FILE "nmsis_eclic_virtual.h"
 209:../Firmware/RISCV/drivers/core_feature_eclic.h ****     #endif
 210:../Firmware/RISCV/drivers/core_feature_eclic.h ****     #include NMSIS_ECLIC_VIRTUAL_HEADER_FILE
 211:../Firmware/RISCV/drivers/core_feature_eclic.h **** #else
 212:../Firmware/RISCV/drivers/core_feature_eclic.h ****     #define ECLIC_SetCfgNlbits            __ECLIC_SetCfgNlbits
 213:../Firmware/RISCV/drivers/core_feature_eclic.h ****     #define ECLIC_GetCfgNlbits            __ECLIC_GetCfgNlbits
 214:../Firmware/RISCV/drivers/core_feature_eclic.h ****     #define ECLIC_GetInfoVer              __ECLIC_GetInfoVer
 215:../Firmware/RISCV/drivers/core_feature_eclic.h ****     #define ECLIC_GetInfoCtlbits          __ECLIC_GetInfoCtlbits
 216:../Firmware/RISCV/drivers/core_feature_eclic.h ****     #define ECLIC_GetInfoNum              __ECLIC_GetInfoNum
 217:../Firmware/RISCV/drivers/core_feature_eclic.h ****     #define ECLIC_SetMth                  __ECLIC_SetMth
 218:../Firmware/RISCV/drivers/core_feature_eclic.h ****     #define ECLIC_GetMth                  __ECLIC_GetMth
 219:../Firmware/RISCV/drivers/core_feature_eclic.h ****     #define ECLIC_EnableIRQ               __ECLIC_EnableIRQ
 220:../Firmware/RISCV/drivers/core_feature_eclic.h ****     #define ECLIC_GetEnableIRQ            __ECLIC_GetEnableIRQ
 221:../Firmware/RISCV/drivers/core_feature_eclic.h ****     #define ECLIC_DisableIRQ              __ECLIC_DisableIRQ
 222:../Firmware/RISCV/drivers/core_feature_eclic.h ****     #define ECLIC_SetPendingIRQ           __ECLIC_SetPendingIRQ
 223:../Firmware/RISCV/drivers/core_feature_eclic.h ****     #define ECLIC_GetPendingIRQ           __ECLIC_GetPendingIRQ
 224:../Firmware/RISCV/drivers/core_feature_eclic.h ****     #define ECLIC_ClearPendingIRQ         __ECLIC_ClearPendingIRQ
 225:../Firmware/RISCV/drivers/core_feature_eclic.h ****     #define ECLIC_SetTrigIRQ              __ECLIC_SetTrigIRQ
 226:../Firmware/RISCV/drivers/core_feature_eclic.h ****     #define ECLIC_GetTrigIRQ              __ECLIC_GetTrigIRQ
 227:../Firmware/RISCV/drivers/core_feature_eclic.h ****     #define ECLIC_SetShvIRQ               __ECLIC_SetShvIRQ
 228:../Firmware/RISCV/drivers/core_feature_eclic.h ****     #define ECLIC_GetShvIRQ               __ECLIC_GetShvIRQ
 229:../Firmware/RISCV/drivers/core_feature_eclic.h ****     #define ECLIC_SetCtrlIRQ              __ECLIC_SetCtrlIRQ
 230:../Firmware/RISCV/drivers/core_feature_eclic.h ****     #define ECLIC_GetCtrlIRQ              __ECLIC_GetCtrlIRQ
 231:../Firmware/RISCV/drivers/core_feature_eclic.h ****     #define ECLIC_SetLevelIRQ             __ECLIC_SetLevelIRQ
 232:../Firmware/RISCV/drivers/core_feature_eclic.h ****     #define ECLIC_GetLevelIRQ             __ECLIC_GetLevelIRQ
 233:../Firmware/RISCV/drivers/core_feature_eclic.h ****     #define ECLIC_SetPriorityIRQ          __ECLIC_SetPriorityIRQ
 234:../Firmware/RISCV/drivers/core_feature_eclic.h ****     #define ECLIC_GetPriorityIRQ          __ECLIC_GetPriorityIRQ
 235:../Firmware/RISCV/drivers/core_feature_eclic.h **** 
 236:../Firmware/RISCV/drivers/core_feature_eclic.h **** #endif /* NMSIS_ECLIC_VIRTUAL */
 237:../Firmware/RISCV/drivers/core_feature_eclic.h **** 
 238:../Firmware/RISCV/drivers/core_feature_eclic.h **** #ifdef NMSIS_VECTAB_VIRTUAL
 239:../Firmware/RISCV/drivers/core_feature_eclic.h ****     #ifndef NMSIS_VECTAB_VIRTUAL_HEADER_FILE
 240:../Firmware/RISCV/drivers/core_feature_eclic.h ****         #define NMSIS_VECTAB_VIRTUAL_HEADER_FILE "nmsis_vectab_virtual.h"
 241:../Firmware/RISCV/drivers/core_feature_eclic.h ****     #endif
 242:../Firmware/RISCV/drivers/core_feature_eclic.h ****     #include NMSIS_VECTAB_VIRTUAL_HEADER_FILE
 243:../Firmware/RISCV/drivers/core_feature_eclic.h **** #else
 244:../Firmware/RISCV/drivers/core_feature_eclic.h ****     #define ECLIC_SetVector              __ECLIC_SetVector
 245:../Firmware/RISCV/drivers/core_feature_eclic.h ****     #define ECLIC_GetVector              __ECLIC_GetVector
 246:../Firmware/RISCV/drivers/core_feature_eclic.h **** #endif  /* (NMSIS_VECTAB_VIRTUAL) */
 247:../Firmware/RISCV/drivers/core_feature_eclic.h **** 
 248:../Firmware/RISCV/drivers/core_feature_eclic.h **** /**
 249:../Firmware/RISCV/drivers/core_feature_eclic.h ****  * \brief  Set nlbits value
 250:../Firmware/RISCV/drivers/core_feature_eclic.h ****  * \details
 251:../Firmware/RISCV/drivers/core_feature_eclic.h ****  * This function set the nlbits value of CLICCFG register.
 252:../Firmware/RISCV/drivers/core_feature_eclic.h ****  * \param [in]    nlbits    nlbits value
 253:../Firmware/RISCV/drivers/core_feature_eclic.h ****  * \remarks
 254:../Firmware/RISCV/drivers/core_feature_eclic.h ****  * - nlbits is used to set the width of level in the CLICINTCTL[i].
 255:../Firmware/RISCV/drivers/core_feature_eclic.h ****  * \sa
 256:../Firmware/RISCV/drivers/core_feature_eclic.h ****  * - \ref ECLIC_GetCfgNlbits
 257:../Firmware/RISCV/drivers/core_feature_eclic.h ****  */
 258:../Firmware/RISCV/drivers/core_feature_eclic.h **** __STATIC_FORCEINLINE void __ECLIC_SetCfgNlbits(uint32_t nlbits)
 259:../Firmware/RISCV/drivers/core_feature_eclic.h **** {
 260:../Firmware/RISCV/drivers/core_feature_eclic.h ****     ECLIC->CFG &= ~CLIC_CLICCFG_NLBIT_Msk;
 261:../Firmware/RISCV/drivers/core_feature_eclic.h ****     ECLIC->CFG |= (uint8_t)((nlbits <<CLIC_CLICCFG_NLBIT_Pos) & CLIC_CLICCFG_NLBIT_Msk);
 262:../Firmware/RISCV/drivers/core_feature_eclic.h **** }
 263:../Firmware/RISCV/drivers/core_feature_eclic.h **** 
 264:../Firmware/RISCV/drivers/core_feature_eclic.h **** /**
 265:../Firmware/RISCV/drivers/core_feature_eclic.h ****  * \brief  Get nlbits value
 266:../Firmware/RISCV/drivers/core_feature_eclic.h ****  * \details
 267:../Firmware/RISCV/drivers/core_feature_eclic.h ****  * This function get the nlbits value of CLICCFG register.
 268:../Firmware/RISCV/drivers/core_feature_eclic.h ****  * \return   nlbits value of CLICCFG register
 269:../Firmware/RISCV/drivers/core_feature_eclic.h ****  * \remarks
 270:../Firmware/RISCV/drivers/core_feature_eclic.h ****  * - nlbits is used to set the width of level in the CLICINTCTL[i].
 271:../Firmware/RISCV/drivers/core_feature_eclic.h ****  * \sa
 272:../Firmware/RISCV/drivers/core_feature_eclic.h ****  * - \ref ECLIC_SetCfgNlbits
 273:../Firmware/RISCV/drivers/core_feature_eclic.h ****  */
 274:../Firmware/RISCV/drivers/core_feature_eclic.h **** __STATIC_FORCEINLINE uint32_t __ECLIC_GetCfgNlbits(void)
 275:../Firmware/RISCV/drivers/core_feature_eclic.h **** {
 276:../Firmware/RISCV/drivers/core_feature_eclic.h ****     return ((uint32_t)((ECLIC->CFG & CLIC_CLICCFG_NLBIT_Msk) >> CLIC_CLICCFG_NLBIT_Pos));
 277:../Firmware/RISCV/drivers/core_feature_eclic.h **** }
 278:../Firmware/RISCV/drivers/core_feature_eclic.h **** 
 279:../Firmware/RISCV/drivers/core_feature_eclic.h **** /**
 280:../Firmware/RISCV/drivers/core_feature_eclic.h ****  * \brief  Get the ECLIC version number
 281:../Firmware/RISCV/drivers/core_feature_eclic.h ****  * \details
 282:../Firmware/RISCV/drivers/core_feature_eclic.h ****  * This function gets the hardware version information from CLICINFO register.
 283:../Firmware/RISCV/drivers/core_feature_eclic.h ****  * \return   hardware version number in CLICINFO register.
 284:../Firmware/RISCV/drivers/core_feature_eclic.h ****  * \remarks
 285:../Firmware/RISCV/drivers/core_feature_eclic.h ****  * - This function gets harware version information from CLICINFO register.
 286:../Firmware/RISCV/drivers/core_feature_eclic.h ****  * - Bit 20:17 for architecture version, bit 16:13 for implementation version.
 287:../Firmware/RISCV/drivers/core_feature_eclic.h ****  * \sa
 288:../Firmware/RISCV/drivers/core_feature_eclic.h ****  * - \ref ECLIC_GetInfoNum
 289:../Firmware/RISCV/drivers/core_feature_eclic.h **** */
 290:../Firmware/RISCV/drivers/core_feature_eclic.h **** __STATIC_FORCEINLINE uint32_t __ECLIC_GetInfoVer(void)
 291:../Firmware/RISCV/drivers/core_feature_eclic.h **** {
 292:../Firmware/RISCV/drivers/core_feature_eclic.h ****     return ((uint32_t)((ECLIC->INFO & CLIC_CLICINFO_VER_Msk) >> CLIC_CLICINFO_VER_Pos));
 293:../Firmware/RISCV/drivers/core_feature_eclic.h **** }
 294:../Firmware/RISCV/drivers/core_feature_eclic.h **** 
 295:../Firmware/RISCV/drivers/core_feature_eclic.h **** /**
 296:../Firmware/RISCV/drivers/core_feature_eclic.h ****  * \brief  Get CLICINTCTLBITS
 297:../Firmware/RISCV/drivers/core_feature_eclic.h ****  * \details
 298:../Firmware/RISCV/drivers/core_feature_eclic.h ****  * This function gets CLICINTCTLBITS from CLICINFO register.
 299:../Firmware/RISCV/drivers/core_feature_eclic.h ****  * \return  CLICINTCTLBITS from CLICINFO register.
 300:../Firmware/RISCV/drivers/core_feature_eclic.h ****  * \remarks
 301:../Firmware/RISCV/drivers/core_feature_eclic.h ****  * - In the CLICINTCTL[i] registers, with 2 <= CLICINTCTLBITS <= 8.
 302:../Firmware/RISCV/drivers/core_feature_eclic.h ****  * - The implemented bits are kept left-justified in the most-significant bits of each 8-bit
 303:../Firmware/RISCV/drivers/core_feature_eclic.h ****  *   CLICINTCTL[I] register, with the lower unimplemented bits treated as hardwired to 1.
 304:../Firmware/RISCV/drivers/core_feature_eclic.h ****  * \sa
 305:../Firmware/RISCV/drivers/core_feature_eclic.h ****  * - \ref ECLIC_GetInfoNum
 306:../Firmware/RISCV/drivers/core_feature_eclic.h ****  */
 307:../Firmware/RISCV/drivers/core_feature_eclic.h **** __STATIC_FORCEINLINE uint32_t __ECLIC_GetInfoCtlbits(void)
 308:../Firmware/RISCV/drivers/core_feature_eclic.h **** {
 309:../Firmware/RISCV/drivers/core_feature_eclic.h ****     return ((uint32_t)((ECLIC->INFO & CLIC_CLICINFO_CTLBIT_Msk) >> CLIC_CLICINFO_CTLBIT_Pos));
 310:../Firmware/RISCV/drivers/core_feature_eclic.h **** }
 311:../Firmware/RISCV/drivers/core_feature_eclic.h **** 
 312:../Firmware/RISCV/drivers/core_feature_eclic.h **** /**
 313:../Firmware/RISCV/drivers/core_feature_eclic.h ****  * \brief  Get number of maximum interrupt inputs supported
 314:../Firmware/RISCV/drivers/core_feature_eclic.h ****  * \details
 315:../Firmware/RISCV/drivers/core_feature_eclic.h ****  * This function gets number of maximum interrupt inputs supported from CLICINFO register.
 316:../Firmware/RISCV/drivers/core_feature_eclic.h ****  * \return  number of maximum interrupt inputs supported from CLICINFO register.
 317:../Firmware/RISCV/drivers/core_feature_eclic.h ****  * \remarks
 318:../Firmware/RISCV/drivers/core_feature_eclic.h ****  * - This function gets number of maximum interrupt inputs supported from CLICINFO register.
 319:../Firmware/RISCV/drivers/core_feature_eclic.h ****  * - The num_interrupt field specifies the actual number of maximum interrupt inputs supported in t
 320:../Firmware/RISCV/drivers/core_feature_eclic.h ****  * \sa
 321:../Firmware/RISCV/drivers/core_feature_eclic.h ****  * - \ref ECLIC_GetInfoCtlbits
 322:../Firmware/RISCV/drivers/core_feature_eclic.h ****  */
 323:../Firmware/RISCV/drivers/core_feature_eclic.h **** __STATIC_FORCEINLINE uint32_t __ECLIC_GetInfoNum(void)
 324:../Firmware/RISCV/drivers/core_feature_eclic.h **** {
 325:../Firmware/RISCV/drivers/core_feature_eclic.h ****     return ((uint32_t)((ECLIC->INFO & CLIC_CLICINFO_NUM_Msk) >> CLIC_CLICINFO_NUM_Pos));
 326:../Firmware/RISCV/drivers/core_feature_eclic.h **** }
 327:../Firmware/RISCV/drivers/core_feature_eclic.h **** 
 328:../Firmware/RISCV/drivers/core_feature_eclic.h **** /**
 329:../Firmware/RISCV/drivers/core_feature_eclic.h ****  * \brief  Set Machine Mode Interrupt Level Threshold
 330:../Firmware/RISCV/drivers/core_feature_eclic.h ****  * \details
 331:../Firmware/RISCV/drivers/core_feature_eclic.h ****  * This function sets machine mode interrupt level threshold.
 332:../Firmware/RISCV/drivers/core_feature_eclic.h ****  * \param [in]  mth       Interrupt Level Threshold.
 333:../Firmware/RISCV/drivers/core_feature_eclic.h ****  * \sa
 334:../Firmware/RISCV/drivers/core_feature_eclic.h ****  * - \ref ECLIC_GetMth
 335:../Firmware/RISCV/drivers/core_feature_eclic.h ****  */
 336:../Firmware/RISCV/drivers/core_feature_eclic.h **** __STATIC_FORCEINLINE void __ECLIC_SetMth(uint8_t mth)
 337:../Firmware/RISCV/drivers/core_feature_eclic.h **** {
 338:../Firmware/RISCV/drivers/core_feature_eclic.h ****     ECLIC->MTH = mth;
 339:../Firmware/RISCV/drivers/core_feature_eclic.h **** }
 340:../Firmware/RISCV/drivers/core_feature_eclic.h **** 
 341:../Firmware/RISCV/drivers/core_feature_eclic.h **** /**
 342:../Firmware/RISCV/drivers/core_feature_eclic.h ****  * \brief  Get Machine Mode Interrupt Level Threshold
 343:../Firmware/RISCV/drivers/core_feature_eclic.h ****  * \details
 344:../Firmware/RISCV/drivers/core_feature_eclic.h ****  * This function gets machine mode interrupt level threshold.
 345:../Firmware/RISCV/drivers/core_feature_eclic.h ****  * \return       Interrupt Level Threshold.
 346:../Firmware/RISCV/drivers/core_feature_eclic.h ****  * \sa
 347:../Firmware/RISCV/drivers/core_feature_eclic.h ****  * - \ref ECLIC_SetMth
 348:../Firmware/RISCV/drivers/core_feature_eclic.h ****  */
 349:../Firmware/RISCV/drivers/core_feature_eclic.h **** __STATIC_FORCEINLINE uint8_t __ECLIC_GetMth(void)
 350:../Firmware/RISCV/drivers/core_feature_eclic.h **** {
 351:../Firmware/RISCV/drivers/core_feature_eclic.h ****     return (ECLIC->MTH);
 352:../Firmware/RISCV/drivers/core_feature_eclic.h **** }
 353:../Firmware/RISCV/drivers/core_feature_eclic.h **** 
 354:../Firmware/RISCV/drivers/core_feature_eclic.h **** 
 355:../Firmware/RISCV/drivers/core_feature_eclic.h **** /**
 356:../Firmware/RISCV/drivers/core_feature_eclic.h ****  * \brief  Enable a specific interrupt
 357:../Firmware/RISCV/drivers/core_feature_eclic.h ****  * \details
 358:../Firmware/RISCV/drivers/core_feature_eclic.h ****  * This function enables the specific interrupt \em IRQn.
 359:../Firmware/RISCV/drivers/core_feature_eclic.h ****  * \param [in]  IRQn  Interrupt number
 360:../Firmware/RISCV/drivers/core_feature_eclic.h ****  * \remarks
 361:../Firmware/RISCV/drivers/core_feature_eclic.h ****  * - IRQn must not be negative.
 362:../Firmware/RISCV/drivers/core_feature_eclic.h ****  * \sa
 363:../Firmware/RISCV/drivers/core_feature_eclic.h ****  * - \ref ECLIC_DisableIRQ
 364:../Firmware/RISCV/drivers/core_feature_eclic.h ****  */
 365:../Firmware/RISCV/drivers/core_feature_eclic.h **** __STATIC_FORCEINLINE void __ECLIC_EnableIRQ(IRQn_Type IRQn)
 366:../Firmware/RISCV/drivers/core_feature_eclic.h **** {
 367:../Firmware/RISCV/drivers/core_feature_eclic.h ****     ECLIC->CTRL[IRQn].INTIE |= CLIC_INTIE_IE_Msk;
 368:../Firmware/RISCV/drivers/core_feature_eclic.h **** }
 369:../Firmware/RISCV/drivers/core_feature_eclic.h **** 
 370:../Firmware/RISCV/drivers/core_feature_eclic.h **** /**
 371:../Firmware/RISCV/drivers/core_feature_eclic.h ****  * \brief  Get a specific interrupt enable status
 372:../Firmware/RISCV/drivers/core_feature_eclic.h ****  * \details
 373:../Firmware/RISCV/drivers/core_feature_eclic.h ****  * This function returns the interrupt enable status for the specific interrupt \em IRQn.
 374:../Firmware/RISCV/drivers/core_feature_eclic.h ****  * \param [in]  IRQn  Interrupt number
 375:../Firmware/RISCV/drivers/core_feature_eclic.h ****  * \returns
 376:../Firmware/RISCV/drivers/core_feature_eclic.h ****  * - 0  Interrupt is not enabled
 377:../Firmware/RISCV/drivers/core_feature_eclic.h ****  * - 1  Interrupt is pending
 378:../Firmware/RISCV/drivers/core_feature_eclic.h ****  * \remarks
 379:../Firmware/RISCV/drivers/core_feature_eclic.h ****  * - IRQn must not be negative.
 380:../Firmware/RISCV/drivers/core_feature_eclic.h ****  * \sa
 381:../Firmware/RISCV/drivers/core_feature_eclic.h ****  * - \ref ECLIC_EnableIRQ
 382:../Firmware/RISCV/drivers/core_feature_eclic.h ****  * - \ref ECLIC_DisableIRQ
 383:../Firmware/RISCV/drivers/core_feature_eclic.h ****  */
 384:../Firmware/RISCV/drivers/core_feature_eclic.h **** __STATIC_FORCEINLINE uint32_t __ECLIC_GetEnableIRQ(IRQn_Type IRQn)
 385:../Firmware/RISCV/drivers/core_feature_eclic.h **** {
 386:../Firmware/RISCV/drivers/core_feature_eclic.h ****     return((uint32_t) (ECLIC->CTRL[IRQn].INTIE) & CLIC_INTIE_IE_Msk);
 387:../Firmware/RISCV/drivers/core_feature_eclic.h **** }
 388:../Firmware/RISCV/drivers/core_feature_eclic.h **** 
 389:../Firmware/RISCV/drivers/core_feature_eclic.h **** /**
 390:../Firmware/RISCV/drivers/core_feature_eclic.h ****  * \brief  Disable a specific interrupt
 391:../Firmware/RISCV/drivers/core_feature_eclic.h ****  * \details
 392:../Firmware/RISCV/drivers/core_feature_eclic.h ****  * This function disables the specific interrupt \em IRQn.
 393:../Firmware/RISCV/drivers/core_feature_eclic.h ****  * \param [in]  IRQn  Number of the external interrupt to disable
 394:../Firmware/RISCV/drivers/core_feature_eclic.h ****  * \remarks
 395:../Firmware/RISCV/drivers/core_feature_eclic.h ****  * - IRQn must not be negative.
 396:../Firmware/RISCV/drivers/core_feature_eclic.h ****  * \sa
 397:../Firmware/RISCV/drivers/core_feature_eclic.h ****  * - \ref ECLIC_EnableIRQ
 398:../Firmware/RISCV/drivers/core_feature_eclic.h ****  */
 399:../Firmware/RISCV/drivers/core_feature_eclic.h **** __STATIC_FORCEINLINE void __ECLIC_DisableIRQ(IRQn_Type IRQn)
 400:../Firmware/RISCV/drivers/core_feature_eclic.h **** {
 401:../Firmware/RISCV/drivers/core_feature_eclic.h ****     ECLIC->CTRL[IRQn].INTIE &= ~CLIC_INTIE_IE_Msk;
 402:../Firmware/RISCV/drivers/core_feature_eclic.h **** }
 403:../Firmware/RISCV/drivers/core_feature_eclic.h **** 
 404:../Firmware/RISCV/drivers/core_feature_eclic.h **** /**
 405:../Firmware/RISCV/drivers/core_feature_eclic.h ****  * \brief  Get the pending specific interrupt
 406:../Firmware/RISCV/drivers/core_feature_eclic.h ****  * \details
 407:../Firmware/RISCV/drivers/core_feature_eclic.h ****  * This function returns the pending status of the specific interrupt \em IRQn.
 408:../Firmware/RISCV/drivers/core_feature_eclic.h ****  * \param [in]      IRQn  Interrupt number
 409:../Firmware/RISCV/drivers/core_feature_eclic.h ****  * \returns
 410:../Firmware/RISCV/drivers/core_feature_eclic.h ****  * - 0  Interrupt is not pending
 411:../Firmware/RISCV/drivers/core_feature_eclic.h ****  * - 1  Interrupt is pending
 412:../Firmware/RISCV/drivers/core_feature_eclic.h ****  * \remarks
 413:../Firmware/RISCV/drivers/core_feature_eclic.h ****  * - IRQn must not be negative.
 414:../Firmware/RISCV/drivers/core_feature_eclic.h ****  * \sa
 415:../Firmware/RISCV/drivers/core_feature_eclic.h ****  * - \ref ECLIC_SetPendingIRQ
 416:../Firmware/RISCV/drivers/core_feature_eclic.h ****  * - \ref ECLIC_ClearPendingIRQ
 417:../Firmware/RISCV/drivers/core_feature_eclic.h ****  */
 418:../Firmware/RISCV/drivers/core_feature_eclic.h **** __STATIC_FORCEINLINE int32_t __ECLIC_GetPendingIRQ(IRQn_Type IRQn)
 419:../Firmware/RISCV/drivers/core_feature_eclic.h **** {
 420:../Firmware/RISCV/drivers/core_feature_eclic.h ****     return((uint32_t)(ECLIC->CTRL[IRQn].INTIP) & CLIC_INTIP_IP_Msk);
 421:../Firmware/RISCV/drivers/core_feature_eclic.h **** }
 422:../Firmware/RISCV/drivers/core_feature_eclic.h **** 
 423:../Firmware/RISCV/drivers/core_feature_eclic.h **** /**
 424:../Firmware/RISCV/drivers/core_feature_eclic.h ****  * \brief  Set a specific interrupt to pending
 425:../Firmware/RISCV/drivers/core_feature_eclic.h ****  * \details
 426:../Firmware/RISCV/drivers/core_feature_eclic.h ****  * This function sets the pending bit for the specific interrupt \em IRQn.
 427:../Firmware/RISCV/drivers/core_feature_eclic.h ****  * \param [in]      IRQn  Interrupt number
 428:../Firmware/RISCV/drivers/core_feature_eclic.h ****  * \remarks
 429:../Firmware/RISCV/drivers/core_feature_eclic.h ****  * - IRQn must not be negative.
 430:../Firmware/RISCV/drivers/core_feature_eclic.h ****  * \sa
 431:../Firmware/RISCV/drivers/core_feature_eclic.h ****  * - \ref ECLIC_GetPendingIRQ
 432:../Firmware/RISCV/drivers/core_feature_eclic.h ****  * - \ref ECLIC_ClearPendingIRQ
 433:../Firmware/RISCV/drivers/core_feature_eclic.h ****  */
 434:../Firmware/RISCV/drivers/core_feature_eclic.h **** __STATIC_FORCEINLINE void __ECLIC_SetPendingIRQ(IRQn_Type IRQn)
 435:../Firmware/RISCV/drivers/core_feature_eclic.h **** {
 436:../Firmware/RISCV/drivers/core_feature_eclic.h ****     ECLIC->CTRL[IRQn].INTIP |= CLIC_INTIP_IP_Msk;
 437:../Firmware/RISCV/drivers/core_feature_eclic.h **** }
 438:../Firmware/RISCV/drivers/core_feature_eclic.h **** 
 439:../Firmware/RISCV/drivers/core_feature_eclic.h **** /**
 440:../Firmware/RISCV/drivers/core_feature_eclic.h ****  * \brief  Clear a specific interrupt from pending
 441:../Firmware/RISCV/drivers/core_feature_eclic.h ****  * \details
 442:../Firmware/RISCV/drivers/core_feature_eclic.h ****  * This function removes the pending state of the specific interrupt \em IRQn.
 443:../Firmware/RISCV/drivers/core_feature_eclic.h ****  * \em IRQn cannot be a negative number.
 444:../Firmware/RISCV/drivers/core_feature_eclic.h ****  * \param [in]      IRQn  Interrupt number
 445:../Firmware/RISCV/drivers/core_feature_eclic.h ****  * \remarks
 446:../Firmware/RISCV/drivers/core_feature_eclic.h ****  * - IRQn must not be negative.
 447:../Firmware/RISCV/drivers/core_feature_eclic.h ****  * \sa
 448:../Firmware/RISCV/drivers/core_feature_eclic.h ****  * - \ref ECLIC_SetPendingIRQ
 449:../Firmware/RISCV/drivers/core_feature_eclic.h ****  * - \ref ECLIC_GetPendingIRQ
 450:../Firmware/RISCV/drivers/core_feature_eclic.h ****  */
 451:../Firmware/RISCV/drivers/core_feature_eclic.h **** __STATIC_FORCEINLINE void __ECLIC_ClearPendingIRQ(IRQn_Type IRQn)
 452:../Firmware/RISCV/drivers/core_feature_eclic.h **** {
 453:../Firmware/RISCV/drivers/core_feature_eclic.h ****     ECLIC->CTRL[IRQn].INTIP &= ~ CLIC_INTIP_IP_Msk;
 454:../Firmware/RISCV/drivers/core_feature_eclic.h **** }
 455:../Firmware/RISCV/drivers/core_feature_eclic.h **** 
 456:../Firmware/RISCV/drivers/core_feature_eclic.h **** /**
 457:../Firmware/RISCV/drivers/core_feature_eclic.h ****  * \brief  Set trigger mode and polarity for a specific interrupt
 458:../Firmware/RISCV/drivers/core_feature_eclic.h ****  * \details
 459:../Firmware/RISCV/drivers/core_feature_eclic.h ****  * This function set trigger mode and polarity of the specific interrupt \em IRQn.
 460:../Firmware/RISCV/drivers/core_feature_eclic.h ****  * \param [in]      IRQn  Interrupt number
 461:../Firmware/RISCV/drivers/core_feature_eclic.h ****  * \param [in]      trig
 462:../Firmware/RISCV/drivers/core_feature_eclic.h ****  *                   - 00  level trigger, \ref ECLIC_LEVEL_TRIGGER
 463:../Firmware/RISCV/drivers/core_feature_eclic.h ****  *                   - 01  positive edge trigger, \ref ECLIC_POSTIVE_EDGE_TRIGGER
 464:../Firmware/RISCV/drivers/core_feature_eclic.h ****  *                   - 02  level trigger, \ref ECLIC_LEVEL_TRIGGER
 465:../Firmware/RISCV/drivers/core_feature_eclic.h ****  *                   - 03  negative edge trigger, \ref ECLIC_NEGTIVE_EDGE_TRIGGER
 466:../Firmware/RISCV/drivers/core_feature_eclic.h ****  * \remarks
 467:../Firmware/RISCV/drivers/core_feature_eclic.h ****  * - IRQn must not be negative.
 468:../Firmware/RISCV/drivers/core_feature_eclic.h ****  *
 469:../Firmware/RISCV/drivers/core_feature_eclic.h ****  * \sa
 470:../Firmware/RISCV/drivers/core_feature_eclic.h ****  * - \ref ECLIC_GetTrigIRQ
 471:../Firmware/RISCV/drivers/core_feature_eclic.h ****  */
 472:../Firmware/RISCV/drivers/core_feature_eclic.h **** __STATIC_FORCEINLINE void __ECLIC_SetTrigIRQ(IRQn_Type IRQn, uint32_t trig)
 473:../Firmware/RISCV/drivers/core_feature_eclic.h **** {
 474:../Firmware/RISCV/drivers/core_feature_eclic.h ****     ECLIC->CTRL[IRQn].INTATTR &= ~CLIC_INTATTR_TRIG_Msk;
  79              		.loc 3 474 31
  80 005e 370700D2 		li	a4,-771751936
  81 0062 8327C4FE 		lw	a5,-20(s0)
  82 0066 93870740 		addi	a5,a5,1024
  83 006a 8A07     		slli	a5,a5,2
  84 006c BA97     		add	a5,a4,a5
  85 006e 83C72700 		lbu	a5,2(a5)
  86 0072 93F7F70F 		andi	a5,a5,0xff
  87 0076 B70600D2 		li	a3,-771751936
  88 007a E59B     		andi	a5,a5,-7
  89 007c 13F7F70F 		andi	a4,a5,0xff
  90 0080 8327C4FE 		lw	a5,-20(s0)
  91 0084 93870740 		addi	a5,a5,1024
  92 0088 8A07     		slli	a5,a5,2
  93 008a B697     		add	a5,a3,a5
  94 008c 2381E700 		sb	a4,2(a5)
 475:../Firmware/RISCV/drivers/core_feature_eclic.h ****     ECLIC->CTRL[IRQn].INTATTR |= (uint8_t)(trig<<CLIC_INTATTR_TRIG_Pos);
  95              		.loc 3 475 31
  96 0090 370700D2 		li	a4,-771751936
  97 0094 8327C4FE 		lw	a5,-20(s0)
  98 0098 93870740 		addi	a5,a5,1024
  99 009c 8A07     		slli	a5,a5,2
 100 009e BA97     		add	a5,a4,a5
 101 00a0 83C72700 		lbu	a5,2(a5)
 102 00a4 13F7F70F 		andi	a4,a5,0xff
 103              		.loc 3 475 34
 104 00a8 832784FE 		lw	a5,-24(s0)
 105 00ac 93F7F70F 		andi	a5,a5,0xff
 106 00b0 8607     		slli	a5,a5,1
 107 00b2 93F7F70F 		andi	a5,a5,0xff
 108              		.loc 3 475 31
 109 00b6 B70600D2 		li	a3,-771751936
 110 00ba D98F     		or	a5,a4,a5
 111 00bc 13F7F70F 		andi	a4,a5,0xff
 112 00c0 8327C4FE 		lw	a5,-20(s0)
 113 00c4 93870740 		addi	a5,a5,1024
 114 00c8 8A07     		slli	a5,a5,2
 115 00ca B697     		add	a5,a3,a5
 116 00cc 2381E700 		sb	a4,2(a5)
 476:../Firmware/RISCV/drivers/core_feature_eclic.h **** }
 117              		.loc 3 476 1
 118 00d0 0100     		nop
 119              	.LBE13:
 120              	.LBE12:
  50:../src/systick.c ****     __ECLIC_SetTrigIRQ(CLIC_INT_TMR, ECLIC_POSTIVE_EDGE_TRIGGER);
  51:../src/systick.c ****     eclic_irq_enable(CLIC_INT_TMR, 0, 0);
 121              		.loc 1 51 5
 122 00d2 0146     		li	a2,0
 123 00d4 8145     		li	a1,0
 124 00d6 1D45     		li	a0,7
 125 00d8 97000000 		call	eclic_irq_enable
 125      E7800000 
  52:../src/systick.c **** }
 126              		.loc 1 52 1
 127 00e0 0100     		nop
 128 00e2 B250     		lw	ra,44(sp)
 129              		.cfi_restore 1
 130 00e4 2254     		lw	s0,40(sp)
 131              		.cfi_restore 8
 132              		.cfi_def_cfa 2, 48
 133 00e6 4561     		addi	sp,sp,48
 134              		.cfi_def_cfa_offset 0
 135 00e8 8280     		jr	ra
 136              		.cfi_endproc
 137              	.LFE347:
 139              		.section	.text.delay_1ms,"ax",@progbits
 140              		.align	1
 141              		.globl	delay_1ms
 143              	delay_1ms:
 144              	.LFB348:
  53:../src/systick.c **** 
  54:../src/systick.c **** /*!
  55:../src/systick.c ****     \brief      delay a time in milliseconds
  56:../src/systick.c ****     \param[in]  count: count in milliseconds
  57:../src/systick.c ****     \param[out] none
  58:../src/systick.c ****     \retval     none
  59:../src/systick.c **** */
  60:../src/systick.c **** void delay_1ms(uint32_t count)
  61:../src/systick.c **** {
 145              		.loc 1 61 1
 146              		.cfi_startproc
 147 0000 0111     		addi	sp,sp,-32
 148              		.cfi_def_cfa_offset 32
 149 0002 22CE     		sw	s0,28(sp)
 150              		.cfi_offset 8, -4
 151 0004 0010     		addi	s0,sp,32
 152              		.cfi_def_cfa 8, 0
 153 0006 2326A4FE 		sw	a0,-20(s0)
  62:../src/systick.c ****     delay = count;
 154              		.loc 1 62 11
 155 000a 97070000 		lla	a5,delay
 155      93870700 
 156 0012 0327C4FE 		lw	a4,-20(s0)
 157 0016 98C3     		sw	a4,0(a5)
  63:../src/systick.c ****     while(0U != delay) {
 158              		.loc 1 63 10
 159 0018 0100     		nop
 160              	.L3:
 161              		.loc 1 63 14 discriminator 1
 162 001a 97070000 		lla	a5,delay
 162      93870700 
 163 0022 9C43     		lw	a5,0(a5)
 164              		.loc 1 63 10 discriminator 1
 165 0024 FDFB     		bne	a5,zero,.L3
  64:../src/systick.c ****     }
  65:../src/systick.c **** }
 166              		.loc 1 65 1
 167 0026 0100     		nop
 168 0028 0100     		nop
 169 002a 7244     		lw	s0,28(sp)
 170              		.cfi_restore 8
 171              		.cfi_def_cfa 2, 32
 172 002c 0561     		addi	sp,sp,32
 173              		.cfi_def_cfa_offset 0
 174 002e 8280     		jr	ra
 175              		.cfi_endproc
 176              	.LFE348:
 178              		.section	.text.delay_decrement,"ax",@progbits
 179              		.align	1
 180              		.globl	delay_decrement
 182              	delay_decrement:
 183              	.LFB349:
  66:../src/systick.c **** 
  67:../src/systick.c **** /*!
  68:../src/systick.c ****     \brief      delay decrement
  69:../src/systick.c ****     \param[in]  none
  70:../src/systick.c ****     \param[out] none
  71:../src/systick.c ****     \retval     none
  72:../src/systick.c **** */
  73:../src/systick.c **** void delay_decrement(void)
  74:../src/systick.c **** {
 184              		.loc 1 74 1
 185              		.cfi_startproc
 186 0000 4111     		addi	sp,sp,-16
 187              		.cfi_def_cfa_offset 16
 188 0002 22C6     		sw	s0,12(sp)
 189              		.cfi_offset 8, -4
 190 0004 0008     		addi	s0,sp,16
 191              		.cfi_def_cfa 8, 0
  75:../src/systick.c ****     if(0U != delay) {
 192              		.loc 1 75 11
 193 0006 97070000 		lla	a5,delay
 193      93870700 
 194 000e 9C43     		lw	a5,0(a5)
 195              		.loc 1 75 7
 196 0010 89CF     		beq	a5,zero,.L6
  76:../src/systick.c ****         delay--;
 197              		.loc 1 76 14
 198 0012 97070000 		lla	a5,delay
 198      93870700 
 199 001a 9C43     		lw	a5,0(a5)
 200 001c 1387F7FF 		addi	a4,a5,-1
 201 0020 97070000 		lla	a5,delay
 201      93870700 
 202 0028 98C3     		sw	a4,0(a5)
 203              	.L6:
  77:../src/systick.c ****     }
  78:../src/systick.c **** }
 204              		.loc 1 78 1
 205 002a 0100     		nop
 206 002c 3244     		lw	s0,12(sp)
 207              		.cfi_restore 8
 208              		.cfi_def_cfa 2, 16
 209 002e 4101     		addi	sp,sp,16
 210              		.cfi_def_cfa_offset 0
 211 0030 8280     		jr	ra
 212              		.cfi_endproc
 213              	.LFE349:
 215              		.text
 216              	.Letext0:
 217              		.file 4 "e:\\gd32\\gd32embeddedbuilder_v1.5.2.30854\\tools\\nuclei_riscv_newlibc_prebuilt_win32_20
 218              		.file 5 "e:\\gd32\\gd32embeddedbuilder_v1.5.2.30854\\tools\\nuclei_riscv_newlibc_prebuilt_win32_20
 219              		.file 6 "../Firmware/GD32VW55x_standard_peripheral/gd32vw55x.h"
 220              		.file 7 "../Firmware/GD32VW55x_standard_peripheral/system_gd32vw55x.h"