   1              		.file	"handlers.c"
   2              		.option nopic
   3              		.attribute arch, "rv32i2p0_m2p0_a2p0_c2p0"
   4              		.attribute unaligned_access, 0
   5              		.attribute stack_align, 16
   6              		.text
   7              	.Ltext0:
   8              		.cfi_sections	.debug_frame
   9              		.section	.bss.SystemExceptionHandlers,"aw",@nobits
  10              		.align	2
  13              	SystemExceptionHandlers:
  14 0000 00000000 		.zero	52
  14      00000000 
  14      00000000 
  14      00000000 
  14      00000000 
  15              		.section	.text.system_default_exception_handler,"ax",@progbits
  16              		.align	1
  18              	system_default_exception_handler:
  19              	.LFB347:
  20              		.file 1 "../Firmware/RISCV/env_Eclipse/handlers.c"
   1:../Firmware/RISCV/env_Eclipse/handlers.c **** /*
   2:../Firmware/RISCV/env_Eclipse/handlers.c ****  * Copyright (c) 2019 Nuclei Limited. All rights reserved.
   3:../Firmware/RISCV/env_Eclipse/handlers.c ****  * Copyright (c) 2025, GigaDevice Semiconductor Inc.
   4:../Firmware/RISCV/env_Eclipse/handlers.c ****  *
   5:../Firmware/RISCV/env_Eclipse/handlers.c ****  * SPDX-License-Identifier: Apache-2.0
   6:../Firmware/RISCV/env_Eclipse/handlers.c ****  *
   7:../Firmware/RISCV/env_Eclipse/handlers.c ****  * Licensed under the Apache License, Version 2.0 (the License); you may
   8:../Firmware/RISCV/env_Eclipse/handlers.c ****  * not use this file except in compliance with the License.
   9:../Firmware/RISCV/env_Eclipse/handlers.c ****  * You may obtain a copy of the License at
  10:../Firmware/RISCV/env_Eclipse/handlers.c ****  *
  11:../Firmware/RISCV/env_Eclipse/handlers.c ****  * www.apache.org/licenses/LICENSE-2.0
  12:../Firmware/RISCV/env_Eclipse/handlers.c ****  *
  13:../Firmware/RISCV/env_Eclipse/handlers.c ****  * Unless required by applicable law or agreed to in writing, software
  14:../Firmware/RISCV/env_Eclipse/handlers.c ****  * distributed under the License is distributed on an AS IS BASIS, WITHOUT
  15:../Firmware/RISCV/env_Eclipse/handlers.c ****  * WARRANTIES OR CONDITIONS OF ANY KIND, either express or implied.
  16:../Firmware/RISCV/env_Eclipse/handlers.c ****  * See the License for the specific language governing permissions and
  17:../Firmware/RISCV/env_Eclipse/handlers.c ****  * limitations under the License.
  18:../Firmware/RISCV/env_Eclipse/handlers.c ****  */
  19:../Firmware/RISCV/env_Eclipse/handlers.c **** 
  20:../Firmware/RISCV/env_Eclipse/handlers.c **** /* This file refers the RISC-V standard, some adjustments are made according to GigaDevice chips */
  21:../Firmware/RISCV/env_Eclipse/handlers.c **** 
  22:../Firmware/RISCV/env_Eclipse/handlers.c **** #include "gd32vw55x.h"
  23:../Firmware/RISCV/env_Eclipse/handlers.c **** 
  24:../Firmware/RISCV/env_Eclipse/handlers.c **** typedef struct EXC_Frame {
  25:../Firmware/RISCV/env_Eclipse/handlers.c ****     unsigned long ra;                /* ra: x1, return address for jump */
  26:../Firmware/RISCV/env_Eclipse/handlers.c ****     unsigned long tp;                /* tp: x4, thread pointer */
  27:../Firmware/RISCV/env_Eclipse/handlers.c ****     unsigned long t0;                /* t0: x5, temporary register 0 */
  28:../Firmware/RISCV/env_Eclipse/handlers.c ****     unsigned long t1;                /* t1: x6, temporary register 1 */
  29:../Firmware/RISCV/env_Eclipse/handlers.c ****     unsigned long t2;                /* t2: x7, temporary register 2 */
  30:../Firmware/RISCV/env_Eclipse/handlers.c ****     unsigned long a0;                /* a0: x10, return value or function argument 0 */
  31:../Firmware/RISCV/env_Eclipse/handlers.c ****     unsigned long a1;                /* a1: x11, return value or function argument 1 */
  32:../Firmware/RISCV/env_Eclipse/handlers.c ****     unsigned long a2;                /* a2: x12, function argument 2 */
  33:../Firmware/RISCV/env_Eclipse/handlers.c ****     unsigned long a3;                /* a3: x13, function argument 3 */
  34:../Firmware/RISCV/env_Eclipse/handlers.c ****     unsigned long a4;                /* a4: x14, function argument 4 */
  35:../Firmware/RISCV/env_Eclipse/handlers.c ****     unsigned long a5;                /* a5: x15, function argument 5 */
  36:../Firmware/RISCV/env_Eclipse/handlers.c ****     unsigned long mcause;            /* mcause: machine cause csr register */
  37:../Firmware/RISCV/env_Eclipse/handlers.c ****     unsigned long mepc;              /* mepc: machine exception program counter csr register */
  38:../Firmware/RISCV/env_Eclipse/handlers.c ****     unsigned long msubm;             /* msubm: machine sub-mode csr register, nuclei customized */
  39:../Firmware/RISCV/env_Eclipse/handlers.c **** #ifndef __riscv_32e
  40:../Firmware/RISCV/env_Eclipse/handlers.c ****     unsigned long a6;                /* a6: x16, function argument 6 */
  41:../Firmware/RISCV/env_Eclipse/handlers.c ****     unsigned long a7;                /* a7: x17, function argument 7 */
  42:../Firmware/RISCV/env_Eclipse/handlers.c ****     unsigned long t3;                /* t3: x28, temporary register 3 */
  43:../Firmware/RISCV/env_Eclipse/handlers.c ****     unsigned long t4;                /* t4: x29, temporary register 4 */
  44:../Firmware/RISCV/env_Eclipse/handlers.c ****     unsigned long t5;                /* t5: x30, temporary register 5 */
  45:../Firmware/RISCV/env_Eclipse/handlers.c ****     unsigned long t6;                /* t6: x31, temporary register 6 */
  46:../Firmware/RISCV/env_Eclipse/handlers.c **** #endif
  47:../Firmware/RISCV/env_Eclipse/handlers.c **** } EXC_Frame_Type;
  48:../Firmware/RISCV/env_Eclipse/handlers.c **** 
  49:../Firmware/RISCV/env_Eclipse/handlers.c **** /**
  50:../Firmware/RISCV/env_Eclipse/handlers.c ****  * \defgroup  NMSIS_Core_IntExcNMI_Handling   Interrupt and Exception and NMI Handling
  51:../Firmware/RISCV/env_Eclipse/handlers.c ****  * \brief Functions for interrupt, exception and nmi handle available in system_<device>.c.
  52:../Firmware/RISCV/env_Eclipse/handlers.c ****  * \details
  53:../Firmware/RISCV/env_Eclipse/handlers.c ****  * Nuclei provide a template for interrupt, exception and NMI handling. Silicon Vendor could adapat
  54:../Firmware/RISCV/env_Eclipse/handlers.c ****  * to their requirement. Silicon vendor could implement interface for different exception code and
  55:../Firmware/RISCV/env_Eclipse/handlers.c ****  * replace current implementation.
  56:../Firmware/RISCV/env_Eclipse/handlers.c ****  *
  57:../Firmware/RISCV/env_Eclipse/handlers.c ****  * @{
  58:../Firmware/RISCV/env_Eclipse/handlers.c ****  */
  59:../Firmware/RISCV/env_Eclipse/handlers.c **** /** \brief Max exception handler number, don't include the NMI(0xFFF) one */
  60:../Firmware/RISCV/env_Eclipse/handlers.c **** #define MAX_SYSTEM_EXCEPTION_NUM        12
  61:../Firmware/RISCV/env_Eclipse/handlers.c **** /**
  62:../Firmware/RISCV/env_Eclipse/handlers.c ****  * \brief      Store the exception handlers for each exception ID
  63:../Firmware/RISCV/env_Eclipse/handlers.c ****  * \note
  64:../Firmware/RISCV/env_Eclipse/handlers.c ****  * - This SystemExceptionHandlers are used to store all the handlers for all
  65:../Firmware/RISCV/env_Eclipse/handlers.c ****  * the exception codes Nuclei N/NX core provided.
  66:../Firmware/RISCV/env_Eclipse/handlers.c ****  * - Exception code 0 - 11, totally 12 exceptions are mapped to SystemExceptionHandlers[0:11]
  67:../Firmware/RISCV/env_Eclipse/handlers.c ****  * - Exception for NMI is also re-routed to exception handling(exception code 0xFFF) in startup cod
  68:../Firmware/RISCV/env_Eclipse/handlers.c ****  */
  69:../Firmware/RISCV/env_Eclipse/handlers.c **** static unsigned long SystemExceptionHandlers[MAX_SYSTEM_EXCEPTION_NUM + 1];
  70:../Firmware/RISCV/env_Eclipse/handlers.c **** 
  71:../Firmware/RISCV/env_Eclipse/handlers.c **** /**
  72:../Firmware/RISCV/env_Eclipse/handlers.c ****  * \brief      Exception Handler Function Typedef
  73:../Firmware/RISCV/env_Eclipse/handlers.c ****  * \note
  74:../Firmware/RISCV/env_Eclipse/handlers.c ****  * This typedef is only used internal in this system_<Device>.c file.
  75:../Firmware/RISCV/env_Eclipse/handlers.c ****  * It is used to do type conversion for registered exception handler before calling it.
  76:../Firmware/RISCV/env_Eclipse/handlers.c ****  */
  77:../Firmware/RISCV/env_Eclipse/handlers.c **** typedef void (*EXC_HANDLER)(unsigned long mcause, unsigned long sp);
  78:../Firmware/RISCV/env_Eclipse/handlers.c **** 
  79:../Firmware/RISCV/env_Eclipse/handlers.c **** void Exception_DumpFrame(unsigned long sp);
  80:../Firmware/RISCV/env_Eclipse/handlers.c **** 
  81:../Firmware/RISCV/env_Eclipse/handlers.c **** /**
  82:../Firmware/RISCV/env_Eclipse/handlers.c ****  * \brief      System Default Exception Handler
  83:../Firmware/RISCV/env_Eclipse/handlers.c ****  * \details
  84:../Firmware/RISCV/env_Eclipse/handlers.c ****  * This function provided a default exception and NMI handling code for all exception ids.
  85:../Firmware/RISCV/env_Eclipse/handlers.c ****  * By default, It will just print some information for debug, Vendor can customize it according to 
  86:../Firmware/RISCV/env_Eclipse/handlers.c ****  */
  87:../Firmware/RISCV/env_Eclipse/handlers.c **** static void system_default_exception_handler(unsigned long mcause, unsigned long sp)
  88:../Firmware/RISCV/env_Eclipse/handlers.c **** {
  21              		.loc 1 88 1
  22              		.cfi_startproc
  23 0000 0111     		addi	sp,sp,-32
  24              		.cfi_def_cfa_offset 32
  25 0002 06CE     		sw	ra,28(sp)
  26 0004 22CC     		sw	s0,24(sp)
  27              		.cfi_offset 1, -4
  28              		.cfi_offset 8, -8
  29 0006 0010     		addi	s0,sp,32
  30              		.cfi_def_cfa 8, 0
  31 0008 2326A4FE 		sw	a0,-20(s0)
  32 000c 2324B4FE 		sw	a1,-24(s0)
  89:../Firmware/RISCV/env_Eclipse/handlers.c ****     /* TODO: Uncomment this if you have implement printf function */
  90:../Firmware/RISCV/env_Eclipse/handlers.c **** //    printf("MCAUSE : 0x%lx\r\n", mcause);
  91:../Firmware/RISCV/env_Eclipse/handlers.c **** //    printf("MDCAUSE: 0x%lx\r\n", __RV_CSR_READ(CSR_MDCAUSE));
  92:../Firmware/RISCV/env_Eclipse/handlers.c **** //    printf("MEPC   : 0x%lx\r\n", __RV_CSR_READ(CSR_MEPC));
  93:../Firmware/RISCV/env_Eclipse/handlers.c **** //    printf("MTVAL  : 0x%lx\r\n", __RV_CSR_READ(CSR_MTVAL));
  94:../Firmware/RISCV/env_Eclipse/handlers.c ****     Exception_DumpFrame(sp);
  33              		.loc 1 94 5
  34 0010 032584FE 		lw	a0,-24(s0)
  35 0014 97000000 		call	Exception_DumpFrame
  35      E7800000 
  36              	.L2:
  95:../Firmware/RISCV/env_Eclipse/handlers.c ****     while (1);
  37              		.loc 1 95 11 discriminator 1
  38 001c 01A0     		j	.L2
  39              		.cfi_endproc
  40              	.LFE347:
  42              		.section	.text.nmi_handler,"ax",@progbits
  43              		.align	1
  44              		.globl	nmi_handler
  46              	nmi_handler:
  47              	.LFB348:
  96:../Firmware/RISCV/env_Eclipse/handlers.c **** }
  97:../Firmware/RISCV/env_Eclipse/handlers.c **** 
  98:../Firmware/RISCV/env_Eclipse/handlers.c **** /**
  99:../Firmware/RISCV/env_Eclipse/handlers.c ****  * \brief      NMI Handler
 100:../Firmware/RISCV/env_Eclipse/handlers.c ****  * \details
 101:../Firmware/RISCV/env_Eclipse/handlers.c ****  * This function provided a NMI handling code for NMI_EXCn.
 102:../Firmware/RISCV/env_Eclipse/handlers.c ****  * By default, It will just print some information for debug, Vendor can customize it according to 
 103:../Firmware/RISCV/env_Eclipse/handlers.c ****  */
 104:../Firmware/RISCV/env_Eclipse/handlers.c **** void nmi_handler(unsigned long mcause, unsigned long sp)
 105:../Firmware/RISCV/env_Eclipse/handlers.c **** {
  48              		.loc 1 105 1
  49              		.cfi_startproc
  50 0000 0111     		addi	sp,sp,-32
  51              		.cfi_def_cfa_offset 32
  52 0002 06CE     		sw	ra,28(sp)
  53 0004 22CC     		sw	s0,24(sp)
  54              		.cfi_offset 1, -4
  55              		.cfi_offset 8, -8
  56 0006 0010     		addi	s0,sp,32
  57              		.cfi_def_cfa 8, 0
  58 0008 2326A4FE 		sw	a0,-20(s0)
  59 000c 2324B4FE 		sw	a1,-24(s0)
 106:../Firmware/RISCV/env_Eclipse/handlers.c ****     /* TODO: Uncomment this if you have implement printf function */
 107:../Firmware/RISCV/env_Eclipse/handlers.c **** //    printf("NMI \r\n");
 108:../Firmware/RISCV/env_Eclipse/handlers.c **** //    printf("MCAUSE : 0x%lx\r\n", mcause);
 109:../Firmware/RISCV/env_Eclipse/handlers.c **** //    printf("MDCAUSE: 0x%lx\r\n", __RV_CSR_READ(CSR_MDCAUSE));
 110:../Firmware/RISCV/env_Eclipse/handlers.c **** //    printf("MEPC   : 0x%lx\r\n", __RV_CSR_READ(CSR_MEPC));
 111:../Firmware/RISCV/env_Eclipse/handlers.c **** //    printf("MTVAL  : 0x%lx\r\n", __RV_CSR_READ(CSR_MTVAL));
 112:../Firmware/RISCV/env_Eclipse/handlers.c ****     Exception_DumpFrame(sp);
  60              		.loc 1 112 5
  61 0010 032584FE 		lw	a0,-24(s0)
  62 0014 97000000 		call	Exception_DumpFrame
  62      E7800000 
  63              	.L4:
 113:../Firmware/RISCV/env_Eclipse/handlers.c ****     while (1);
  64              		.loc 1 113 11 discriminator 1
  65 001c 01A0     		j	.L4
  66              		.cfi_endproc
  67              	.LFE348:
  69              		.section	.text.Exception_Init,"ax",@progbits
  70              		.align	1
  71              		.globl	Exception_Init
  73              	Exception_Init:
  74              	.LFB349:
 114:../Firmware/RISCV/env_Eclipse/handlers.c **** }
 115:../Firmware/RISCV/env_Eclipse/handlers.c **** 
 116:../Firmware/RISCV/env_Eclipse/handlers.c **** /**
 117:../Firmware/RISCV/env_Eclipse/handlers.c ****  * \brief      Initialize all the default core exception handlers
 118:../Firmware/RISCV/env_Eclipse/handlers.c ****  * \details
 119:../Firmware/RISCV/env_Eclipse/handlers.c ****  * The core exception handler for each exception id will be initialized to \ref system_default_exce
 120:../Firmware/RISCV/env_Eclipse/handlers.c ****  * \note
 121:../Firmware/RISCV/env_Eclipse/handlers.c ****  * Called in \ref _init function, used to initialize default exception handlers for all exception I
 122:../Firmware/RISCV/env_Eclipse/handlers.c ****  */
 123:../Firmware/RISCV/env_Eclipse/handlers.c **** void Exception_Init(void)
 124:../Firmware/RISCV/env_Eclipse/handlers.c **** {
  75              		.loc 1 124 1
  76              		.cfi_startproc
  77 0000 0111     		addi	sp,sp,-32
  78              		.cfi_def_cfa_offset 32
  79 0002 22CE     		sw	s0,28(sp)
  80              		.cfi_offset 8, -4
  81 0004 0010     		addi	s0,sp,32
  82              		.cfi_def_cfa 8, 0
  83              	.LBB2:
 125:../Firmware/RISCV/env_Eclipse/handlers.c ****     for (int i = 0; i < MAX_SYSTEM_EXCEPTION_NUM + 1; i++) {
  84              		.loc 1 125 14
  85 0006 232604FE 		sw	zero,-20(s0)
  86              		.loc 1 125 5
  87 000a 1DA0     		j	.L6
  88              	.L7:
 126:../Firmware/RISCV/env_Eclipse/handlers.c ****         SystemExceptionHandlers[i] = (unsigned long)system_default_exception_handler;
  89              		.loc 1 126 38 discriminator 3
  90 000c 17070000 		lla	a4,system_default_exception_handler
  90      13070700 
  91              		.loc 1 126 36 discriminator 3
  92 0014 97060000 		lla	a3,SystemExceptionHandlers
  92      93860600 
  93 001c 8327C4FE 		lw	a5,-20(s0)
  94 0020 8A07     		slli	a5,a5,2
  95 0022 B697     		add	a5,a3,a5
  96 0024 98C3     		sw	a4,0(a5)
 125:../Firmware/RISCV/env_Eclipse/handlers.c ****     for (int i = 0; i < MAX_SYSTEM_EXCEPTION_NUM + 1; i++) {
  97              		.loc 1 125 56 discriminator 3
  98 0026 8327C4FE 		lw	a5,-20(s0)
  99 002a 8507     		addi	a5,a5,1
 100 002c 2326F4FE 		sw	a5,-20(s0)
 101              	.L6:
 125:../Firmware/RISCV/env_Eclipse/handlers.c ****     for (int i = 0; i < MAX_SYSTEM_EXCEPTION_NUM + 1; i++) {
 102              		.loc 1 125 5 discriminator 1
 103 0030 0327C4FE 		lw	a4,-20(s0)
 104 0034 B147     		li	a5,12
 105 0036 E3DBE7FC 		ble	a4,a5,.L7
 106              	.LBE2:
 127:../Firmware/RISCV/env_Eclipse/handlers.c ****     }
 128:../Firmware/RISCV/env_Eclipse/handlers.c **** }
 107              		.loc 1 128 1
 108 003a 0100     		nop
 109 003c 0100     		nop
 110 003e 7244     		lw	s0,28(sp)
 111              		.cfi_restore 8
 112              		.cfi_def_cfa 2, 32
 113 0040 0561     		addi	sp,sp,32
 114              		.cfi_def_cfa_offset 0
 115 0042 8280     		jr	ra
 116              		.cfi_endproc
 117              	.LFE349:
 119              		.section	.text.Exception_Register_EXC,"ax",@progbits
 120              		.align	1
 121              		.globl	Exception_Register_EXC
 123              	Exception_Register_EXC:
 124              	.LFB350:
 129:../Firmware/RISCV/env_Eclipse/handlers.c **** 
 130:../Firmware/RISCV/env_Eclipse/handlers.c **** /**
 131:../Firmware/RISCV/env_Eclipse/handlers.c ****  * \brief       Register an exception handler for exception code EXCn
 132:../Firmware/RISCV/env_Eclipse/handlers.c ****  * \details
 133:../Firmware/RISCV/env_Eclipse/handlers.c ****  * * For EXCn < \ref MAX_SYSTEM_EXCEPTION_NUM, it will be registered into SystemExceptionHandlers[E
 134:../Firmware/RISCV/env_Eclipse/handlers.c ****  * * For EXCn == NMI_EXCn, it will be registered into SystemExceptionHandlers[MAX_SYSTEM_EXCEPTION_
 135:../Firmware/RISCV/env_Eclipse/handlers.c ****  * \param   EXCn    See \ref EXCn_Type
 136:../Firmware/RISCV/env_Eclipse/handlers.c ****  * \param   exc_handler     The exception handler for this exception code EXCn
 137:../Firmware/RISCV/env_Eclipse/handlers.c ****  */
 138:../Firmware/RISCV/env_Eclipse/handlers.c **** void Exception_Register_EXC(uint32_t EXCn, unsigned long exc_handler)
 139:../Firmware/RISCV/env_Eclipse/handlers.c **** {
 125              		.loc 1 139 1
 126              		.cfi_startproc
 127 0000 0111     		addi	sp,sp,-32
 128              		.cfi_def_cfa_offset 32
 129 0002 22CE     		sw	s0,28(sp)
 130              		.cfi_offset 8, -4
 131 0004 0010     		addi	s0,sp,32
 132              		.cfi_def_cfa 8, 0
 133 0006 2326A4FE 		sw	a0,-20(s0)
 134 000a 2324B4FE 		sw	a1,-24(s0)
 140:../Firmware/RISCV/env_Eclipse/handlers.c ****     if ((EXCn < MAX_SYSTEM_EXCEPTION_NUM) && (EXCn >= 0)) {
 135              		.loc 1 140 8
 136 000e 0327C4FE 		lw	a4,-20(s0)
 137 0012 AD47     		li	a5,11
 138 0014 63EEE700 		bgtu	a4,a5,.L9
 141:../Firmware/RISCV/env_Eclipse/handlers.c ****         SystemExceptionHandlers[EXCn] = exc_handler;
 139              		.loc 1 141 39
 140 0018 17070000 		lla	a4,SystemExceptionHandlers
 140      13070700 
 141 0020 8327C4FE 		lw	a5,-20(s0)
 142 0024 8A07     		slli	a5,a5,2
 143 0026 BA97     		add	a5,a4,a5
 144 0028 032784FE 		lw	a4,-24(s0)
 145 002c 98C3     		sw	a4,0(a5)
 142:../Firmware/RISCV/env_Eclipse/handlers.c ****     } else if (EXCn == NMI_EXCn) {
 143:../Firmware/RISCV/env_Eclipse/handlers.c ****         SystemExceptionHandlers[MAX_SYSTEM_EXCEPTION_NUM] = exc_handler;
 144:../Firmware/RISCV/env_Eclipse/handlers.c ****     }
 145:../Firmware/RISCV/env_Eclipse/handlers.c **** }
 146              		.loc 1 145 1
 147 002e 31A8     		j	.L11
 148              	.L9:
 142:../Firmware/RISCV/env_Eclipse/handlers.c ****     } else if (EXCn == NMI_EXCn) {
 149              		.loc 1 142 15
 150 0030 0327C4FE 		lw	a4,-20(s0)
 151 0034 8567     		li	a5,4096
 152 0036 FD17     		addi	a5,a5,-1
 153 0038 6319F700 		bne	a4,a5,.L11
 143:../Firmware/RISCV/env_Eclipse/handlers.c ****     }
 154              		.loc 1 143 59
 155 003c 97070000 		lla	a5,SystemExceptionHandlers
 155      93870700 
 156 0044 032784FE 		lw	a4,-24(s0)
 157 0048 98DB     		sw	a4,48(a5)
 158              	.L11:
 159              		.loc 1 145 1
 160 004a 0100     		nop
 161 004c 7244     		lw	s0,28(sp)
 162              		.cfi_restore 8
 163              		.cfi_def_cfa 2, 32
 164 004e 0561     		addi	sp,sp,32
 165              		.cfi_def_cfa_offset 0
 166 0050 8280     		jr	ra
 167              		.cfi_endproc
 168              	.LFE350:
 170              		.section	.text.Exception_Get_EXC,"ax",@progbits
 171              		.align	1
 172              		.globl	Exception_Get_EXC
 174              	Exception_Get_EXC:
 175              	.LFB351:
 146:../Firmware/RISCV/env_Eclipse/handlers.c **** 
 147:../Firmware/RISCV/env_Eclipse/handlers.c **** /**
 148:../Firmware/RISCV/env_Eclipse/handlers.c ****  * \brief       Get current exception handler for exception code EXCn
 149:../Firmware/RISCV/env_Eclipse/handlers.c ****  * \details
 150:../Firmware/RISCV/env_Eclipse/handlers.c ****  * * For EXCn < \ref MAX_SYSTEM_EXCEPTION_NUM, it will return SystemExceptionHandlers[EXCn-1].
 151:../Firmware/RISCV/env_Eclipse/handlers.c ****  * * For EXCn == NMI_EXCn, it will return SystemExceptionHandlers[MAX_SYSTEM_EXCEPTION_NUM].
 152:../Firmware/RISCV/env_Eclipse/handlers.c ****  * \param   EXCn    See \ref EXCn_Type
 153:../Firmware/RISCV/env_Eclipse/handlers.c ****  * \return  Current exception handler for exception code EXCn, if not found, return 0.
 154:../Firmware/RISCV/env_Eclipse/handlers.c ****  */
 155:../Firmware/RISCV/env_Eclipse/handlers.c **** unsigned long Exception_Get_EXC(uint32_t EXCn)
 156:../Firmware/RISCV/env_Eclipse/handlers.c **** {
 176              		.loc 1 156 1
 177              		.cfi_startproc
 178 0000 0111     		addi	sp,sp,-32
 179              		.cfi_def_cfa_offset 32
 180 0002 22CE     		sw	s0,28(sp)
 181              		.cfi_offset 8, -4
 182 0004 0010     		addi	s0,sp,32
 183              		.cfi_def_cfa 8, 0
 184 0006 2326A4FE 		sw	a0,-20(s0)
 157:../Firmware/RISCV/env_Eclipse/handlers.c ****     if ((EXCn < MAX_SYSTEM_EXCEPTION_NUM) && (EXCn >= 0)) {
 185              		.loc 1 157 8
 186 000a 0327C4FE 		lw	a4,-20(s0)
 187 000e AD47     		li	a5,11
 188 0010 63ECE700 		bgtu	a4,a5,.L13
 158:../Firmware/RISCV/env_Eclipse/handlers.c ****         return SystemExceptionHandlers[EXCn];
 189              		.loc 1 158 39
 190 0014 17070000 		lla	a4,SystemExceptionHandlers
 190      13070700 
 191 001c 8327C4FE 		lw	a5,-20(s0)
 192 0020 8A07     		slli	a5,a5,2
 193 0022 BA97     		add	a5,a4,a5
 194 0024 9C43     		lw	a5,0(a5)
 195 0026 31A8     		j	.L14
 196              	.L13:
 159:../Firmware/RISCV/env_Eclipse/handlers.c ****     } else if (EXCn == NMI_EXCn) {
 197              		.loc 1 159 15
 198 0028 0327C4FE 		lw	a4,-20(s0)
 199 002c 8567     		li	a5,4096
 200 002e FD17     		addi	a5,a5,-1
 201 0030 6318F700 		bne	a4,a5,.L15
 160:../Firmware/RISCV/env_Eclipse/handlers.c ****         return SystemExceptionHandlers[MAX_SYSTEM_EXCEPTION_NUM];
 202              		.loc 1 160 39
 203 0034 97070000 		lla	a5,SystemExceptionHandlers
 203      93870700 
 204 003c 9C5B     		lw	a5,48(a5)
 205 003e 11A0     		j	.L14
 206              	.L15:
 161:../Firmware/RISCV/env_Eclipse/handlers.c ****     } else {
 162:../Firmware/RISCV/env_Eclipse/handlers.c ****         return 0;
 207              		.loc 1 162 16
 208 0040 8147     		li	a5,0
 209              	.L14:
 163:../Firmware/RISCV/env_Eclipse/handlers.c ****     }
 164:../Firmware/RISCV/env_Eclipse/handlers.c **** }
 210              		.loc 1 164 1
 211 0042 3E85     		mv	a0,a5
 212 0044 7244     		lw	s0,28(sp)
 213              		.cfi_restore 8
 214              		.cfi_def_cfa 2, 32
 215 0046 0561     		addi	sp,sp,32
 216              		.cfi_def_cfa_offset 0
 217 0048 8280     		jr	ra
 218              		.cfi_endproc
 219              	.LFE351:
 221              		.section	.text.core_exception_handler,"ax",@progbits
 222              		.align	1
 223              		.globl	core_exception_handler
 225              	core_exception_handler:
 226              	.LFB352:
 165:../Firmware/RISCV/env_Eclipse/handlers.c **** 
 166:../Firmware/RISCV/env_Eclipse/handlers.c **** /**
 167:../Firmware/RISCV/env_Eclipse/handlers.c ****  * \brief      Common NMI and Exception handler entry
 168:../Firmware/RISCV/env_Eclipse/handlers.c ****  * \details
 169:../Firmware/RISCV/env_Eclipse/handlers.c ****  * This function provided a command entry for NMI and exception. Silicon Vendor could modify
 170:../Firmware/RISCV/env_Eclipse/handlers.c ****  * this template implementation according to requirement.
 171:../Firmware/RISCV/env_Eclipse/handlers.c ****  * \remarks
 172:../Firmware/RISCV/env_Eclipse/handlers.c ****  * - RISCV provided common entry for all types of exception. This is proposed code template
 173:../Firmware/RISCV/env_Eclipse/handlers.c ****  *   for exception entry function, Silicon Vendor could modify the implementation.
 174:../Firmware/RISCV/env_Eclipse/handlers.c ****  * - For the core_exception_handler template, we provided exception register function \ref Exceptio
 175:../Firmware/RISCV/env_Eclipse/handlers.c ****  *   which can help developer to register your exception handler for specific exception number.
 176:../Firmware/RISCV/env_Eclipse/handlers.c ****  */
 177:../Firmware/RISCV/env_Eclipse/handlers.c **** uint32_t core_exception_handler(unsigned long mcause, unsigned long sp)
 178:../Firmware/RISCV/env_Eclipse/handlers.c **** {
 227              		.loc 1 178 1
 228              		.cfi_startproc
 229 0000 7971     		addi	sp,sp,-48
 230              		.cfi_def_cfa_offset 48
 231 0002 06D6     		sw	ra,44(sp)
 232 0004 22D4     		sw	s0,40(sp)
 233              		.cfi_offset 1, -4
 234              		.cfi_offset 8, -8
 235 0006 0018     		addi	s0,sp,48
 236              		.cfi_def_cfa 8, 0
 237 0008 232EA4FC 		sw	a0,-36(s0)
 238 000c 232CB4FC 		sw	a1,-40(s0)
 179:../Firmware/RISCV/env_Eclipse/handlers.c ****     uint32_t EXCn = (uint32_t)(mcause & 0X00000fff);
 239              		.loc 1 179 14
 240 0010 0327C4FD 		lw	a4,-36(s0)
 241 0014 8567     		li	a5,4096
 242 0016 FD17     		addi	a5,a5,-1
 243 0018 F98F     		and	a5,a4,a5
 244 001a 2324F4FE 		sw	a5,-24(s0)
 180:../Firmware/RISCV/env_Eclipse/handlers.c ****     EXC_HANDLER exc_handler;
 181:../Firmware/RISCV/env_Eclipse/handlers.c **** 
 182:../Firmware/RISCV/env_Eclipse/handlers.c ****     if ((EXCn < MAX_SYSTEM_EXCEPTION_NUM) && (EXCn >= 0)) {
 245              		.loc 1 182 8
 246 001e 032784FE 		lw	a4,-24(s0)
 247 0022 AD47     		li	a5,11
 248 0024 63EEE700 		bgtu	a4,a5,.L17
 183:../Firmware/RISCV/env_Eclipse/handlers.c ****         exc_handler = (EXC_HANDLER)SystemExceptionHandlers[EXCn];
 249              		.loc 1 183 59
 250 0028 17070000 		lla	a4,SystemExceptionHandlers
 250      13070700 
 251 0030 832784FE 		lw	a5,-24(s0)
 252 0034 8A07     		slli	a5,a5,2
 253 0036 BA97     		add	a5,a4,a5
 254 0038 9C43     		lw	a5,0(a5)
 255              		.loc 1 183 21
 256 003a 2326F4FE 		sw	a5,-20(s0)
 257 003e 2DA0     		j	.L18
 258              	.L17:
 184:../Firmware/RISCV/env_Eclipse/handlers.c ****     } else if (EXCn == NMI_EXCn) {
 259              		.loc 1 184 15
 260 0040 032784FE 		lw	a4,-24(s0)
 261 0044 8567     		li	a5,4096
 262 0046 FD17     		addi	a5,a5,-1
 263 0048 631AF700 		bne	a4,a5,.L19
 185:../Firmware/RISCV/env_Eclipse/handlers.c ****         exc_handler = (EXC_HANDLER)SystemExceptionHandlers[MAX_SYSTEM_EXCEPTION_NUM];
 264              		.loc 1 185 59
 265 004c 97070000 		lla	a5,SystemExceptionHandlers
 265      93870700 
 266 0054 9C5B     		lw	a5,48(a5)
 267              		.loc 1 185 21
 268 0056 2326F4FE 		sw	a5,-20(s0)
 269 005a 39A0     		j	.L18
 270              	.L19:
 186:../Firmware/RISCV/env_Eclipse/handlers.c ****     } else {
 187:../Firmware/RISCV/env_Eclipse/handlers.c ****         exc_handler = (EXC_HANDLER)system_default_exception_handler;
 271              		.loc 1 187 21
 272 005c 97070000 		lla	a5,system_default_exception_handler
 272      93870700 
 273 0064 2326F4FE 		sw	a5,-20(s0)
 274              	.L18:
 188:../Firmware/RISCV/env_Eclipse/handlers.c ****     }
 189:../Firmware/RISCV/env_Eclipse/handlers.c ****     if (exc_handler != NULL) {
 275              		.loc 1 189 8
 276 0068 8327C4FE 		lw	a5,-20(s0)
 277 006c 81CB     		beq	a5,zero,.L20
 190:../Firmware/RISCV/env_Eclipse/handlers.c ****         exc_handler(mcause, sp);
 278              		.loc 1 190 9
 279 006e 8327C4FE 		lw	a5,-20(s0)
 280 0072 832584FD 		lw	a1,-40(s0)
 281 0076 0325C4FD 		lw	a0,-36(s0)
 282 007a 8297     		jalr	a5
 283              	.LVL0:
 284              	.L20:
 191:../Firmware/RISCV/env_Eclipse/handlers.c ****     }
 192:../Firmware/RISCV/env_Eclipse/handlers.c ****     return 0;
 285              		.loc 1 192 12
 286 007c 8147     		li	a5,0
 193:../Firmware/RISCV/env_Eclipse/handlers.c **** }
 287              		.loc 1 193 1
 288 007e 3E85     		mv	a0,a5
 289 0080 B250     		lw	ra,44(sp)
 290              		.cfi_restore 1
 291 0082 2254     		lw	s0,40(sp)
 292              		.cfi_restore 8
 293              		.cfi_def_cfa 2, 48
 294 0084 4561     		addi	sp,sp,48
 295              		.cfi_def_cfa_offset 0
 296 0086 8280     		jr	ra
 297              		.cfi_endproc
 298              	.LFE352:
 300              		.section	.text.Exception_DumpFrame,"ax",@progbits
 301              		.align	1
 302              		.globl	Exception_DumpFrame
 304              	Exception_DumpFrame:
 305              	.LFB353:
 194:../Firmware/RISCV/env_Eclipse/handlers.c **** /** @} */ /* End of Doxygen Group NMSIS_Core_ExceptionAndNMI */
 195:../Firmware/RISCV/env_Eclipse/handlers.c **** 
 196:../Firmware/RISCV/env_Eclipse/handlers.c **** /**
 197:../Firmware/RISCV/env_Eclipse/handlers.c ****  * \brief      Dump Exception Frame
 198:../Firmware/RISCV/env_Eclipse/handlers.c ****  * \details
 199:../Firmware/RISCV/env_Eclipse/handlers.c ****  * This function provided feature to dump exception frame stored in stack.
 200:../Firmware/RISCV/env_Eclipse/handlers.c ****  */
 201:../Firmware/RISCV/env_Eclipse/handlers.c **** void Exception_DumpFrame(unsigned long sp)
 202:../Firmware/RISCV/env_Eclipse/handlers.c **** {
 306              		.loc 1 202 1
 307              		.cfi_startproc
 308 0000 0111     		addi	sp,sp,-32
 309              		.cfi_def_cfa_offset 32
 310 0002 22CE     		sw	s0,28(sp)
 311              		.cfi_offset 8, -4
 312 0004 0010     		addi	s0,sp,32
 313              		.cfi_def_cfa 8, 0
 314 0006 2326A4FE 		sw	a0,-20(s0)
 203:../Firmware/RISCV/env_Eclipse/handlers.c **** #ifdef ENABLE_EXCEPTION_DUMP
 204:../Firmware/RISCV/env_Eclipse/handlers.c ****     EXC_Frame_Type *exc_frame = (EXC_Frame_Type *)sp;
 205:../Firmware/RISCV/env_Eclipse/handlers.c **** 
 206:../Firmware/RISCV/env_Eclipse/handlers.c **** #ifndef __riscv_32e
 207:../Firmware/RISCV/env_Eclipse/handlers.c ****     /* Uncomment this if you have implement printf function */
 208:../Firmware/RISCV/env_Eclipse/handlers.c ****     printf("ra: 0x%x, tp: 0x%x, t0: 0x%x, t1: 0x%x, t2: 0x%x, t3: 0x%x, t4: 0x%x, t5: 0x%x, t6: 0x%
 209:../Firmware/RISCV/env_Eclipse/handlers.c ****            "a0: 0x%x, a1: 0x%x, a2: 0x%x, a3: 0x%x, a4: 0x%x, a5: 0x%x, a6: 0x%x, a7: 0x%x\n" \
 210:../Firmware/RISCV/env_Eclipse/handlers.c ****            "mcause: 0x%x, mepc: 0x%x, msubm: 0x%x\n", exc_frame->ra, exc_frame->tp, exc_frame->t0, 
 211:../Firmware/RISCV/env_Eclipse/handlers.c ****            exc_frame->t1, exc_frame->t2, exc_frame->t3, exc_frame->t4, exc_frame->t5, exc_frame->t6
 212:../Firmware/RISCV/env_Eclipse/handlers.c ****            exc_frame->a0, exc_frame->a1, exc_frame->a2, exc_frame->a3, exc_frame->a4, exc_frame->a5
 213:../Firmware/RISCV/env_Eclipse/handlers.c ****            exc_frame->a6, exc_frame->a7, exc_frame->mcause, exc_frame->mepc, exc_frame->msubm);
 214:../Firmware/RISCV/env_Eclipse/handlers.c **** #else
 215:../Firmware/RISCV/env_Eclipse/handlers.c ****     /* Uncomment this if you have implement printf function */
 216:../Firmware/RISCV/env_Eclipse/handlers.c ****     printf("ra: 0x%x, tp: 0x%x, t0: 0x%x, t1: 0x%x, t2: 0x%x\n" \
 217:../Firmware/RISCV/env_Eclipse/handlers.c ****            "a0: 0x%x, a1: 0x%x, a2: 0x%x, a3: 0x%x, a4: 0x%x, a5: 0x%x\n" \
 218:../Firmware/RISCV/env_Eclipse/handlers.c ****            "mcause: 0x%x, mepc: 0x%x, msubm: 0x%x\n", exc_frame->ra, exc_frame->tp, exc_frame->t0, 
 219:../Firmware/RISCV/env_Eclipse/handlers.c ****            exc_frame->t1, exc_frame->t2, exc_frame->a0, exc_frame->a1, exc_frame->a2, exc_frame->a3
 220:../Firmware/RISCV/env_Eclipse/handlers.c ****            exc_frame->a4, exc_frame->a5, exc_frame->mcause, exc_frame->mepc, exc_frame->msubm);
 221:../Firmware/RISCV/env_Eclipse/handlers.c **** #endif
 222:../Firmware/RISCV/env_Eclipse/handlers.c **** #else
 223:../Firmware/RISCV/env_Eclipse/handlers.c ****     (void)sp; // 避免未使用参数警告
 224:../Firmware/RISCV/env_Eclipse/handlers.c **** #endif
 225:../Firmware/RISCV/env_Eclipse/handlers.c **** }
 315              		.loc 1 225 1
 316 000a 0100     		nop
 317 000c 7244     		lw	s0,28(sp)
 318              		.cfi_restore 8
 319              		.cfi_def_cfa 2, 32
 320 000e 0561     		addi	sp,sp,32
 321              		.cfi_def_cfa_offset 0
 322 0010 8280     		jr	ra
 323              		.cfi_endproc
 324              	.LFE353:
 326              		.text
 327              	.Letext0:
 328              		.file 2 "e:\\gd32\\gd32embeddedbuilder_v1.5.2.30854\\tools\\nuclei_riscv_newlibc_prebuilt_win32_20
 329              		.file 3 "e:\\gd32\\gd32embeddedbuilder_v1.5.2.30854\\tools\\nuclei_riscv_newlibc_prebuilt_win32_20
 330              		.file 4 "../Firmware/GD32VW55x_standard_peripheral/gd32vw55x.h"