   1              		.file	"init.c"
   2              		.option nopic
   3              		.attribute arch, "rv32i2p0_m2p0_a2p0_c2p0"
   4              		.attribute unaligned_access, 0
   5              		.attribute stack_align, 16
   6              		.text
   7              	.Ltext0:
   8              		.cfi_sections	.debug_frame
   9              		.section	.text._premain_init,"ax",@progbits
  10              		.align	1
  11              		.globl	_premain_init
  13              	_premain_init:
  14              	.LFB347:
  15              		.file 1 "../Firmware/RISCV/env_Eclipse/init.c"
   1:../Firmware/RISCV/env_Eclipse/init.c **** /*
   2:../Firmware/RISCV/env_Eclipse/init.c ****  * Copyright (c) 2019 Nuclei Limited. All rights reserved.
   3:../Firmware/RISCV/env_Eclipse/init.c ****  * Copyright (c) 2025, GigaDevice Semiconductor Inc.
   4:../Firmware/RISCV/env_Eclipse/init.c ****  *
   5:../Firmware/RISCV/env_Eclipse/init.c ****  * SPDX-License-Identifier: Apache-2.0
   6:../Firmware/RISCV/env_Eclipse/init.c ****  *
   7:../Firmware/RISCV/env_Eclipse/init.c ****  * Licensed under the Apache License, Version 2.0 (the License); you may
   8:../Firmware/RISCV/env_Eclipse/init.c ****  * not use this file except in compliance with the License.
   9:../Firmware/RISCV/env_Eclipse/init.c ****  * You may obtain a copy of the License at
  10:../Firmware/RISCV/env_Eclipse/init.c ****  *
  11:../Firmware/RISCV/env_Eclipse/init.c ****  * www.apache.org/licenses/LICENSE-2.0
  12:../Firmware/RISCV/env_Eclipse/init.c ****  *
  13:../Firmware/RISCV/env_Eclipse/init.c ****  * Unless required by applicable law or agreed to in writing, software
  14:../Firmware/RISCV/env_Eclipse/init.c ****  * distributed under the License is distributed on an AS IS BASIS, WITHOUT
  15:../Firmware/RISCV/env_Eclipse/init.c ****  * WARRANTIES OR CONDITIONS OF ANY KIND, either express or implied.
  16:../Firmware/RISCV/env_Eclipse/init.c ****  * See the License for the specific language governing permissions and
  17:../Firmware/RISCV/env_Eclipse/init.c ****  * limitations under the License.
  18:../Firmware/RISCV/env_Eclipse/init.c ****  */
  19:../Firmware/RISCV/env_Eclipse/init.c **** 
  20:../Firmware/RISCV/env_Eclipse/init.c **** /* This file refers the RISC-V standard, some adjustments are made according to GigaDevice chips */
  21:../Firmware/RISCV/env_Eclipse/init.c **** 
  22:../Firmware/RISCV/env_Eclipse/init.c **** #include "gd32vw55x.h"
  23:../Firmware/RISCV/env_Eclipse/init.c **** 
  24:../Firmware/RISCV/env_Eclipse/init.c **** extern void nmi_handler(unsigned long mcause, unsigned long sp);
  25:../Firmware/RISCV/env_Eclipse/init.c **** extern void Exception_Init(void);
  26:../Firmware/RISCV/env_Eclipse/init.c **** extern void Exception_Register_EXC(uint32_t EXCn, unsigned long exc_handler);
  27:../Firmware/RISCV/env_Eclipse/init.c **** 
  28:../Firmware/RISCV/env_Eclipse/init.c **** /**
  29:../Firmware/RISCV/env_Eclipse/init.c ****  * \brief early init function before main
  30:../Firmware/RISCV/env_Eclipse/init.c ****  * \details
  31:../Firmware/RISCV/env_Eclipse/init.c ****  * This function is executed right before main function.
  32:../Firmware/RISCV/env_Eclipse/init.c ****  * For RISC-V gnu toolchain, _init function might not be called
  33:../Firmware/RISCV/env_Eclipse/init.c ****  * by __libc_init_array function, so we defined a new function
  34:../Firmware/RISCV/env_Eclipse/init.c ****  * to do initialization
  35:../Firmware/RISCV/env_Eclipse/init.c ****  */
  36:../Firmware/RISCV/env_Eclipse/init.c **** void _premain_init(void)
  37:../Firmware/RISCV/env_Eclipse/init.c **** {
  16              		.loc 1 37 1
  17              		.cfi_startproc
  18 0000 4111     		addi	sp,sp,-16
  19              		.cfi_def_cfa_offset 16
  20 0002 06C6     		sw	ra,12(sp)
  21 0004 22C4     		sw	s0,8(sp)
  22 0006 26C2     		sw	s1,4(sp)
  23              		.cfi_offset 1, -4
  24              		.cfi_offset 8, -8
  25              		.cfi_offset 9, -12
  26 0008 0008     		addi	s0,sp,16
  27              		.cfi_def_cfa 8, 0
  28              	.LBB8:
  29              	.LBB9:
  30              	.LBB10:
  31              		.file 2 "../Firmware/RISCV/drivers/core_feature_cache.h"
   1:../Firmware/RISCV/drivers/core_feature_cache.h **** /*
   2:../Firmware/RISCV/drivers/core_feature_cache.h ****  * Copyright (c) 2019 Nuclei Limited. All rights reserved.
   3:../Firmware/RISCV/drivers/core_feature_cache.h ****  *
   4:../Firmware/RISCV/drivers/core_feature_cache.h ****  * SPDX-License-Identifier: Apache-2.0
   5:../Firmware/RISCV/drivers/core_feature_cache.h ****  *
   6:../Firmware/RISCV/drivers/core_feature_cache.h ****  * Licensed under the Apache License, Version 2.0 (the License); you may
   7:../Firmware/RISCV/drivers/core_feature_cache.h ****  * not use this file except in compliance with the License.
   8:../Firmware/RISCV/drivers/core_feature_cache.h ****  * You may obtain a copy of the License at
   9:../Firmware/RISCV/drivers/core_feature_cache.h ****  *
  10:../Firmware/RISCV/drivers/core_feature_cache.h ****  * www.apache.org/licenses/LICENSE-2.0
  11:../Firmware/RISCV/drivers/core_feature_cache.h ****  *
  12:../Firmware/RISCV/drivers/core_feature_cache.h ****  * Unless required by applicable law or agreed to in writing, software
  13:../Firmware/RISCV/drivers/core_feature_cache.h ****  * distributed under the License is distributed on an AS IS BASIS, WITHOUT
  14:../Firmware/RISCV/drivers/core_feature_cache.h ****  * WARRANTIES OR CONDITIONS OF ANY KIND, either express or implied.
  15:../Firmware/RISCV/drivers/core_feature_cache.h ****  * See the License for the specific language governing permissions and
  16:../Firmware/RISCV/drivers/core_feature_cache.h ****  * limitations under the License.
  17:../Firmware/RISCV/drivers/core_feature_cache.h ****  */
  18:../Firmware/RISCV/drivers/core_feature_cache.h **** #ifndef __CORE_FEATURE_CACHE_H__
  19:../Firmware/RISCV/drivers/core_feature_cache.h **** #define __CORE_FEATURE_CACHE_H__
  20:../Firmware/RISCV/drivers/core_feature_cache.h **** /*!
  21:../Firmware/RISCV/drivers/core_feature_cache.h ****  * @file     core_feature_cache.h
  22:../Firmware/RISCV/drivers/core_feature_cache.h ****  * @brief    Cache feature API header file for Nuclei N/NX Core
  23:../Firmware/RISCV/drivers/core_feature_cache.h ****  */
  24:../Firmware/RISCV/drivers/core_feature_cache.h **** /*
  25:../Firmware/RISCV/drivers/core_feature_cache.h ****  * Cache Feature Configuration Macro:
  26:../Firmware/RISCV/drivers/core_feature_cache.h ****  * 1. __ICACHE_PRESENT:  Define whether I-Cache Unit is present or not.
  27:../Firmware/RISCV/drivers/core_feature_cache.h ****  *   * 0: Not present
  28:../Firmware/RISCV/drivers/core_feature_cache.h ****  *   * 1: Present
  29:../Firmware/RISCV/drivers/core_feature_cache.h ****  * 1. __DCACHE_PRESENT:  Define whether D-Cache Unit is present or not.
  30:../Firmware/RISCV/drivers/core_feature_cache.h ****  *   * 0: Not present
  31:../Firmware/RISCV/drivers/core_feature_cache.h ****  *   * 1: Present
  32:../Firmware/RISCV/drivers/core_feature_cache.h ****  */
  33:../Firmware/RISCV/drivers/core_feature_cache.h **** #ifdef __cplusplus
  34:../Firmware/RISCV/drivers/core_feature_cache.h ****  extern "C" {
  35:../Firmware/RISCV/drivers/core_feature_cache.h **** #endif
  36:../Firmware/RISCV/drivers/core_feature_cache.h **** 
  37:../Firmware/RISCV/drivers/core_feature_cache.h **** #include "core_feature_base.h"
  38:../Firmware/RISCV/drivers/core_feature_cache.h **** 
  39:../Firmware/RISCV/drivers/core_feature_cache.h **** 
  40:../Firmware/RISCV/drivers/core_feature_cache.h **** #if defined(__CCM_PRESENT) && (__CCM_PRESENT == 1)
  41:../Firmware/RISCV/drivers/core_feature_cache.h **** 
  42:../Firmware/RISCV/drivers/core_feature_cache.h **** /* ##########################  Cache functions  #################################### */
  43:../Firmware/RISCV/drivers/core_feature_cache.h **** /**
  44:../Firmware/RISCV/drivers/core_feature_cache.h ****  * \defgroup NMSIS_Core_Cache       Cache Functions
  45:../Firmware/RISCV/drivers/core_feature_cache.h ****  * \brief    Functions that configure Instruction and Data Cache.
  46:../Firmware/RISCV/drivers/core_feature_cache.h ****  * @{
  47:../Firmware/RISCV/drivers/core_feature_cache.h ****  *
  48:../Firmware/RISCV/drivers/core_feature_cache.h ****  * Nuclei provide Cache Control and Maintainence(CCM) for software to control and maintain
  49:../Firmware/RISCV/drivers/core_feature_cache.h ****  * the internal L1 I/D Cache of the RISC-V Core, software can manage the cache flexibly to
  50:../Firmware/RISCV/drivers/core_feature_cache.h ****  * meet the actual application scenarios.
  51:../Firmware/RISCV/drivers/core_feature_cache.h ****  *
  52:../Firmware/RISCV/drivers/core_feature_cache.h ****  * The CCM operations have 3 types: by single address, by all and flush pipeline.
  53:../Firmware/RISCV/drivers/core_feature_cache.h ****  * The CCM operations are done via CSR registers, M/S/U mode has its own CSR registers to
  54:../Firmware/RISCV/drivers/core_feature_cache.h ****  * do CCM operations. By default, CCM operations are not allowed in S/U mode, you can execute
  55:../Firmware/RISCV/drivers/core_feature_cache.h ****  * \ref EnableSUCCM in M-Mode to enable it.
  56:../Firmware/RISCV/drivers/core_feature_cache.h ****  *
  57:../Firmware/RISCV/drivers/core_feature_cache.h ****  * * API names started with M<operations>, such as \ref MInvalICacheLine must be called in M-Mode o
  58:../Firmware/RISCV/drivers/core_feature_cache.h ****  * * API names started with S<operations>, such as \ref SInvalICacheLine should be called in S-Mode
  59:../Firmware/RISCV/drivers/core_feature_cache.h ****  * * API names started with U<operations>, such as \ref UInvalICacheLine should be called in U-Mode
  60:../Firmware/RISCV/drivers/core_feature_cache.h ****  *
  61:../Firmware/RISCV/drivers/core_feature_cache.h ****  */
  62:../Firmware/RISCV/drivers/core_feature_cache.h **** 
  63:../Firmware/RISCV/drivers/core_feature_cache.h **** 
  64:../Firmware/RISCV/drivers/core_feature_cache.h **** /**
  65:../Firmware/RISCV/drivers/core_feature_cache.h ****  * \brief Cache CCM Operation Fail Info
  66:../Firmware/RISCV/drivers/core_feature_cache.h ****  */
  67:../Firmware/RISCV/drivers/core_feature_cache.h **** typedef enum CCM_OP_FINFO {
  68:../Firmware/RISCV/drivers/core_feature_cache.h ****     CCM_OP_SUCCESS = 0x0,               /*!< Lock Succeed */
  69:../Firmware/RISCV/drivers/core_feature_cache.h ****     CCM_OP_EXCEED_ERR = 0x1,            /*!< Exceed the the number of lockable ways(N-Way I/D-Cache
  70:../Firmware/RISCV/drivers/core_feature_cache.h ****     CCM_OP_PERM_CHECK_ERR = 0x2,        /*!< PMP/sPMP/Page-Table X(I-Cache)/R(D-Cache) permission c
  71:../Firmware/RISCV/drivers/core_feature_cache.h ****     CCM_OP_REFILL_BUS_ERR = 0x3,        /*!< Refill has Bus Error */
  72:../Firmware/RISCV/drivers/core_feature_cache.h ****     CCM_OP_ECC_ERR = 0x4                /*!< Deprecated, ECC Error, this error code is removed in l
  73:../Firmware/RISCV/drivers/core_feature_cache.h **** } CCM_OP_FINFO_Type;
  74:../Firmware/RISCV/drivers/core_feature_cache.h **** 
  75:../Firmware/RISCV/drivers/core_feature_cache.h **** /**
  76:../Firmware/RISCV/drivers/core_feature_cache.h ****  * \brief Cache CCM Command Types
  77:../Firmware/RISCV/drivers/core_feature_cache.h ****  */
  78:../Firmware/RISCV/drivers/core_feature_cache.h **** typedef enum CCM_CMD {
  79:../Firmware/RISCV/drivers/core_feature_cache.h ****     CCM_DC_INVAL = 0x0,                 /*!< Unlock and invalidate D-Cache line specified by CSR CC
  80:../Firmware/RISCV/drivers/core_feature_cache.h ****     CCM_DC_WB = 0x1,                    /*!< Flush the specific D-Cache line specified by CSR CCM_X
  81:../Firmware/RISCV/drivers/core_feature_cache.h ****     CCM_DC_WBINVAL = 0x2,               /*!< Unlock, flush and invalidate the specific D-Cache line
  82:../Firmware/RISCV/drivers/core_feature_cache.h ****     CCM_DC_LOCK = 0x3,                  /*!< Lock the specific D-Cache line specified by CSR CCM_XB
  83:../Firmware/RISCV/drivers/core_feature_cache.h ****     CCM_DC_UNLOCK = 0x4,                /*!< Unlock the specific D-Cache line specified by CSR CCM_
  84:../Firmware/RISCV/drivers/core_feature_cache.h ****     CCM_DC_WBINVAL_ALL = 0x6,           /*!< Unlock and flush and invalidate all the valid and dirt
  85:../Firmware/RISCV/drivers/core_feature_cache.h ****     CCM_DC_WB_ALL = 0x7,                /*!< Flush all the valid and dirty D-Cache lines */
  86:../Firmware/RISCV/drivers/core_feature_cache.h ****     CCM_DC_INVAL_ALL = 0x17,            /*!< Unlock and invalidate all the D-Cache lines */
  87:../Firmware/RISCV/drivers/core_feature_cache.h ****     CCM_IC_INVAL = 0x8,                 /*!< Unlock and invalidate I-Cache line specified by CSR CC
  88:../Firmware/RISCV/drivers/core_feature_cache.h ****     CCM_IC_LOCK = 0xb,                  /*!< Lock the specific I-Cache line specified by CSR CCM_XB
  89:../Firmware/RISCV/drivers/core_feature_cache.h ****     CCM_IC_UNLOCK = 0xc,                /*!< Unlock the specific I-Cache line specified by CSR CCM_
  90:../Firmware/RISCV/drivers/core_feature_cache.h ****     CCM_IC_INVAL_ALL = 0xd              /*!< Unlock and invalidate all the I-Cache lines */
  91:../Firmware/RISCV/drivers/core_feature_cache.h **** } CCM_CMD_Type;
  92:../Firmware/RISCV/drivers/core_feature_cache.h **** 
  93:../Firmware/RISCV/drivers/core_feature_cache.h **** /**
  94:../Firmware/RISCV/drivers/core_feature_cache.h ****  * \brief Cache Information Type
  95:../Firmware/RISCV/drivers/core_feature_cache.h ****  */
  96:../Firmware/RISCV/drivers/core_feature_cache.h **** typedef struct CacheInfo {
  97:../Firmware/RISCV/drivers/core_feature_cache.h ****     uint32_t linesize;                  /*!< Cache Line size in bytes */
  98:../Firmware/RISCV/drivers/core_feature_cache.h ****     uint32_t ways;                      /*!< Cache ways */
  99:../Firmware/RISCV/drivers/core_feature_cache.h ****     uint32_t setperway;                 /*!< Cache set per way */
 100:../Firmware/RISCV/drivers/core_feature_cache.h ****     uint32_t size;                      /*!< Cache total size in bytes */
 101:../Firmware/RISCV/drivers/core_feature_cache.h **** } CacheInfo_Type;
 102:../Firmware/RISCV/drivers/core_feature_cache.h **** 
 103:../Firmware/RISCV/drivers/core_feature_cache.h **** #if __riscv_xlen == 32
 104:../Firmware/RISCV/drivers/core_feature_cache.h **** #define CCM_SUEN_SUEN_Msk               (0xFFFFFFFFUL)              /*!< CSR CCM_SUEN: SUEN Mask */
 105:../Firmware/RISCV/drivers/core_feature_cache.h **** #else
 106:../Firmware/RISCV/drivers/core_feature_cache.h **** #define CCM_SUEN_SUEN_Msk               (0xFFFFFFFFFFFFFFFFUL)      /*!< CSR CCM_SUEN: SUEN Mask */
 107:../Firmware/RISCV/drivers/core_feature_cache.h **** #endif
 108:../Firmware/RISCV/drivers/core_feature_cache.h **** 
 109:../Firmware/RISCV/drivers/core_feature_cache.h **** /**
 110:../Firmware/RISCV/drivers/core_feature_cache.h ****  * \brief  Enable CCM operation in Supervisor/User Mode
 111:../Firmware/RISCV/drivers/core_feature_cache.h ****  * \details
 112:../Firmware/RISCV/drivers/core_feature_cache.h ****  * This function enable CCM operation in Supervisor/User Mode.
 113:../Firmware/RISCV/drivers/core_feature_cache.h ****  * If enabled, CCM operations in supervisor/user mode will
 114:../Firmware/RISCV/drivers/core_feature_cache.h ****  * be allowed.
 115:../Firmware/RISCV/drivers/core_feature_cache.h ****  * \remarks
 116:../Firmware/RISCV/drivers/core_feature_cache.h ****  * - This function can be called in M-Mode only.
 117:../Firmware/RISCV/drivers/core_feature_cache.h ****  * \sa
 118:../Firmware/RISCV/drivers/core_feature_cache.h ****  * - \ref DisableSUCCM
 119:../Firmware/RISCV/drivers/core_feature_cache.h **** */
 120:../Firmware/RISCV/drivers/core_feature_cache.h **** __STATIC_FORCEINLINE void EnableSUCCM(void)
 121:../Firmware/RISCV/drivers/core_feature_cache.h **** {
 122:../Firmware/RISCV/drivers/core_feature_cache.h ****     __RV_CSR_SET(CSR_CCM_SUEN, CCM_SUEN_SUEN_Msk);
 123:../Firmware/RISCV/drivers/core_feature_cache.h **** }
 124:../Firmware/RISCV/drivers/core_feature_cache.h **** 
 125:../Firmware/RISCV/drivers/core_feature_cache.h **** /**
 126:../Firmware/RISCV/drivers/core_feature_cache.h ****  * \brief  Disable CCM operation in Supervisor/User Mode
 127:../Firmware/RISCV/drivers/core_feature_cache.h ****  * \details
 128:../Firmware/RISCV/drivers/core_feature_cache.h ****  * This function disable CCM operation in Supervisor/User Mode.
 129:../Firmware/RISCV/drivers/core_feature_cache.h ****  * If not enabled, CCM operations in supervisor/user mode will
 130:../Firmware/RISCV/drivers/core_feature_cache.h ****  * trigger a *illegal intruction* exception.
 131:../Firmware/RISCV/drivers/core_feature_cache.h ****  * \remarks
 132:../Firmware/RISCV/drivers/core_feature_cache.h ****  * - This function can be called in M-Mode only.
 133:../Firmware/RISCV/drivers/core_feature_cache.h ****  * \sa
 134:../Firmware/RISCV/drivers/core_feature_cache.h ****  * - \ref EnableSUCCM
 135:../Firmware/RISCV/drivers/core_feature_cache.h **** */
 136:../Firmware/RISCV/drivers/core_feature_cache.h **** __STATIC_FORCEINLINE void DisableSUCCM(void)
 137:../Firmware/RISCV/drivers/core_feature_cache.h **** {
 138:../Firmware/RISCV/drivers/core_feature_cache.h ****     __RV_CSR_CLEAR(CSR_CCM_SUEN, CCM_SUEN_SUEN_Msk);
 139:../Firmware/RISCV/drivers/core_feature_cache.h **** }
 140:../Firmware/RISCV/drivers/core_feature_cache.h **** 
 141:../Firmware/RISCV/drivers/core_feature_cache.h **** /**
 142:../Firmware/RISCV/drivers/core_feature_cache.h ****  * \brief  Flush pipeline after CCM operation
 143:../Firmware/RISCV/drivers/core_feature_cache.h ****  * \details
 144:../Firmware/RISCV/drivers/core_feature_cache.h ****  * This function is used to flush pipeline after CCM operations
 145:../Firmware/RISCV/drivers/core_feature_cache.h ****  * on Cache, it will ensure latest instructions or data can be
 146:../Firmware/RISCV/drivers/core_feature_cache.h ****  * seen by pipeline.
 147:../Firmware/RISCV/drivers/core_feature_cache.h ****  * \remarks
 148:../Firmware/RISCV/drivers/core_feature_cache.h ****  * - This function can be called in M/S/U-Mode only.
 149:../Firmware/RISCV/drivers/core_feature_cache.h **** */
 150:../Firmware/RISCV/drivers/core_feature_cache.h **** __STATIC_FORCEINLINE void FlushPipeCCM(void)
 151:../Firmware/RISCV/drivers/core_feature_cache.h **** {
 152:../Firmware/RISCV/drivers/core_feature_cache.h ****     __RV_CSR_WRITE(CSR_CCM_FPIPE, 0x1);
 153:../Firmware/RISCV/drivers/core_feature_cache.h **** }
 154:../Firmware/RISCV/drivers/core_feature_cache.h **** /** @} */ /* End of Doxygen Group NMSIS_Core_Cache */
 155:../Firmware/RISCV/drivers/core_feature_cache.h **** #endif
 156:../Firmware/RISCV/drivers/core_feature_cache.h **** 
 157:../Firmware/RISCV/drivers/core_feature_cache.h **** #if defined(__ICACHE_PRESENT) && (__ICACHE_PRESENT == 1)
 158:../Firmware/RISCV/drivers/core_feature_cache.h **** 
 159:../Firmware/RISCV/drivers/core_feature_cache.h **** /**
 160:../Firmware/RISCV/drivers/core_feature_cache.h ****  * \defgroup NMSIS_Core_ICache      I-Cache Functions
 161:../Firmware/RISCV/drivers/core_feature_cache.h ****  * \ingroup  NMSIS_Core_Cache
 162:../Firmware/RISCV/drivers/core_feature_cache.h ****  * \brief    Functions that configure Instruction Cache.
 163:../Firmware/RISCV/drivers/core_feature_cache.h ****  * @{
 164:../Firmware/RISCV/drivers/core_feature_cache.h ****  */
 165:../Firmware/RISCV/drivers/core_feature_cache.h **** 
 166:../Firmware/RISCV/drivers/core_feature_cache.h **** /**
 167:../Firmware/RISCV/drivers/core_feature_cache.h ****  * \brief  Check ICache Unit Present or Not
 168:../Firmware/RISCV/drivers/core_feature_cache.h ****  * \details
 169:../Firmware/RISCV/drivers/core_feature_cache.h ****  * This function check icache unit present or not via mcfg_info csr
 170:../Firmware/RISCV/drivers/core_feature_cache.h ****  * \remarks
 171:../Firmware/RISCV/drivers/core_feature_cache.h ****  * - This function might not work for some old nuclei processors
 172:../Firmware/RISCV/drivers/core_feature_cache.h ****  * - Please make sure the version of your nuclei processor contain ICACHE bit in mcfg_info
 173:../Firmware/RISCV/drivers/core_feature_cache.h ****  * \return 1 if present otherwise 0
 174:../Firmware/RISCV/drivers/core_feature_cache.h **** */
 175:../Firmware/RISCV/drivers/core_feature_cache.h **** __STATIC_FORCEINLINE int32_t ICachePresent(void)
 176:../Firmware/RISCV/drivers/core_feature_cache.h **** {
 177:../Firmware/RISCV/drivers/core_feature_cache.h ****     if (__RV_CSR_READ(CSR_MCFG_INFO) & MCFG_INFO_ICACHE) {
 178:../Firmware/RISCV/drivers/core_feature_cache.h ****         return 1;
 179:../Firmware/RISCV/drivers/core_feature_cache.h ****     }
 180:../Firmware/RISCV/drivers/core_feature_cache.h ****     return 0;
 181:../Firmware/RISCV/drivers/core_feature_cache.h **** }
 182:../Firmware/RISCV/drivers/core_feature_cache.h **** 
 183:../Firmware/RISCV/drivers/core_feature_cache.h **** /**
 184:../Firmware/RISCV/drivers/core_feature_cache.h ****  * \brief  Enable ICache
 185:../Firmware/RISCV/drivers/core_feature_cache.h ****  * \details
 186:../Firmware/RISCV/drivers/core_feature_cache.h ****  * This function enable I-Cache
 187:../Firmware/RISCV/drivers/core_feature_cache.h ****  * \remarks
 188:../Firmware/RISCV/drivers/core_feature_cache.h ****  * - This function can be called in M-Mode only.
 189:../Firmware/RISCV/drivers/core_feature_cache.h ****  * - This \ref CSR_MCACHE_CTL register control I Cache enable.
 190:../Firmware/RISCV/drivers/core_feature_cache.h ****  * \sa
 191:../Firmware/RISCV/drivers/core_feature_cache.h ****  * - \ref DisableICache
 192:../Firmware/RISCV/drivers/core_feature_cache.h **** */
 193:../Firmware/RISCV/drivers/core_feature_cache.h **** __STATIC_FORCEINLINE void EnableICache(void)
 194:../Firmware/RISCV/drivers/core_feature_cache.h **** {
 195:../Firmware/RISCV/drivers/core_feature_cache.h ****     __RV_CSR_SET(CSR_MCACHE_CTL, MCACHE_CTL_IC_EN);
  32              		.loc 2 195 5
  33 000a 8540     		li	ra,1
  34              	 #APP
  35              	# 195 "../Firmware/RISCV/drivers/core_feature_cache.h" 1
 196              	}
  36              		csrs 0x7CA, ra
  37              	# 0 "" 2
  38              	 #NO_APP
  39              	.LBE10:
  40              		.loc 2 196 1
  41 0010 0100     		nop
  42              	.LBE9:
  43              	.LBE8:
  38:../Firmware/RISCV/env_Eclipse/init.c ****     /* TODO: Add your own initialization code here, called before main */
  39:../Firmware/RISCV/env_Eclipse/init.c ****     /* __ICACHE_PRESENT and __DCACHE_PRESENT are defined in demosoc.h */
  40:../Firmware/RISCV/env_Eclipse/init.c ****     EnableICache();
  41:../Firmware/RISCV/env_Eclipse/init.c **** 
  42:../Firmware/RISCV/env_Eclipse/init.c ****     /* Initialize exception default handlers */
  43:../Firmware/RISCV/env_Eclipse/init.c ****     Exception_Init();
  44              		.loc 1 43 5
  45 0012 97000000 		call	Exception_Init
  45      E7800000 
  44:../Firmware/RISCV/env_Eclipse/init.c ****     /* Initialize NMI handlers */
  45:../Firmware/RISCV/env_Eclipse/init.c ****     Exception_Register_EXC(NMI_EXCn, (unsigned long)nmi_handler);
  46              		.loc 1 45 5
  47 001a 97070000 		lla	a5,nmi_handler
  47      93870700 
  48 0022 BE85     		mv	a1,a5
  49 0024 8567     		li	a5,4096
  50 0026 1385F7FF 		addi	a0,a5,-1
  51 002a 97000000 		call	Exception_Register_EXC
  51      E7800000 
  46:../Firmware/RISCV/env_Eclipse/init.c ****     /* ECLIC initialization, mainly MTH and NLBIT */
  47:../Firmware/RISCV/env_Eclipse/init.c ****     eclic_level_threshold_set(0);
  52              		.loc 1 47 5
  53 0032 0145     		li	a0,0
  54 0034 97000000 		call	eclic_level_threshold_set
  54      E7800000 
  48:../Firmware/RISCV/env_Eclipse/init.c ****     eclic_priority_group_set(ECLIC_PRIGROUP_LEVEL2_PRIO2);
  55              		.loc 1 48 5
  56 003c 0945     		li	a0,2
  57 003e 97000000 		call	eclic_priority_group_set
  57      E7800000 
  49:../Firmware/RISCV/env_Eclipse/init.c ****     eclic_global_interrupt_enable();
  58              		.loc 1 49 5
  59 0046 97000000 		call	eclic_global_interrupt_enable
  59      E7800000 
  60              	.LBB11:
  61              	.LBB12:
  62              	.LBB13:
  63              		.file 3 "../Firmware/RISCV/drivers/core_feature_base.h"
   1:../Firmware/RISCV/drivers/core_feature_base.h **** /*
   2:../Firmware/RISCV/drivers/core_feature_base.h ****  * Copyright (c) 2019 Nuclei Limited. All rights reserved.
   3:../Firmware/RISCV/drivers/core_feature_base.h ****  *
   4:../Firmware/RISCV/drivers/core_feature_base.h ****  * SPDX-License-Identifier: Apache-2.0
   5:../Firmware/RISCV/drivers/core_feature_base.h ****  *
   6:../Firmware/RISCV/drivers/core_feature_base.h ****  * Licensed under the Apache License, Version 2.0 (the License); you may
   7:../Firmware/RISCV/drivers/core_feature_base.h ****  * not use this file except in compliance with the License.
   8:../Firmware/RISCV/drivers/core_feature_base.h ****  * You may obtain a copy of the License at
   9:../Firmware/RISCV/drivers/core_feature_base.h ****  *
  10:../Firmware/RISCV/drivers/core_feature_base.h ****  * www.apache.org/licenses/LICENSE-2.0
  11:../Firmware/RISCV/drivers/core_feature_base.h ****  *
  12:../Firmware/RISCV/drivers/core_feature_base.h ****  * Unless required by applicable law or agreed to in writing, software
  13:../Firmware/RISCV/drivers/core_feature_base.h ****  * distributed under the License is distributed on an AS IS BASIS, WITHOUT
  14:../Firmware/RISCV/drivers/core_feature_base.h ****  * WARRANTIES OR CONDITIONS OF ANY KIND, either express or implied.
  15:../Firmware/RISCV/drivers/core_feature_base.h ****  * See the License for the specific language governing permissions and
  16:../Firmware/RISCV/drivers/core_feature_base.h ****  * limitations under the License.
  17:../Firmware/RISCV/drivers/core_feature_base.h ****  */
  18:../Firmware/RISCV/drivers/core_feature_base.h **** 
  19:../Firmware/RISCV/drivers/core_feature_base.h **** #ifndef __CORE_FEATURE_BASE__
  20:../Firmware/RISCV/drivers/core_feature_base.h **** #define __CORE_FEATURE_BASE__
  21:../Firmware/RISCV/drivers/core_feature_base.h **** /*!
  22:../Firmware/RISCV/drivers/core_feature_base.h ****  * @file     core_feature_base.h
  23:../Firmware/RISCV/drivers/core_feature_base.h ****  * @brief    Base core feature API for Nuclei N/NX Core
  24:../Firmware/RISCV/drivers/core_feature_base.h ****  */
  25:../Firmware/RISCV/drivers/core_feature_base.h **** #include <stdint.h>
  26:../Firmware/RISCV/drivers/core_feature_base.h **** #include "riscv_encoding.h"
  27:../Firmware/RISCV/drivers/core_feature_base.h **** 
  28:../Firmware/RISCV/drivers/core_feature_base.h **** #ifdef __cplusplus
  29:../Firmware/RISCV/drivers/core_feature_base.h ****  extern "C" {
  30:../Firmware/RISCV/drivers/core_feature_base.h **** #endif
  31:../Firmware/RISCV/drivers/core_feature_base.h **** 
  32:../Firmware/RISCV/drivers/core_feature_base.h **** /**
  33:../Firmware/RISCV/drivers/core_feature_base.h ****  * \defgroup NMSIS_Core_Registers     Register Define and Type Definitions
  34:../Firmware/RISCV/drivers/core_feature_base.h ****  * \brief   Type definitions and defines for core registers.
  35:../Firmware/RISCV/drivers/core_feature_base.h ****  *
  36:../Firmware/RISCV/drivers/core_feature_base.h ****  * @{
  37:../Firmware/RISCV/drivers/core_feature_base.h ****  */
  38:../Firmware/RISCV/drivers/core_feature_base.h **** #ifndef __RISCV_XLEN
  39:../Firmware/RISCV/drivers/core_feature_base.h ****   /** \brief Refer to the width of an integer register in bits(either 32 or 64) */
  40:../Firmware/RISCV/drivers/core_feature_base.h ****   #ifndef __riscv_xlen
  41:../Firmware/RISCV/drivers/core_feature_base.h ****     #define __RISCV_XLEN    32
  42:../Firmware/RISCV/drivers/core_feature_base.h ****   #else
  43:../Firmware/RISCV/drivers/core_feature_base.h ****     #define __RISCV_XLEN    __riscv_xlen
  44:../Firmware/RISCV/drivers/core_feature_base.h ****   #endif
  45:../Firmware/RISCV/drivers/core_feature_base.h **** #endif /* __RISCV_XLEN */
  46:../Firmware/RISCV/drivers/core_feature_base.h **** 
  47:../Firmware/RISCV/drivers/core_feature_base.h **** /** \brief Type of Control and Status Register(CSR), depends on the XLEN defined in RISC-V */
  48:../Firmware/RISCV/drivers/core_feature_base.h **** #if __RISCV_XLEN == 32
  49:../Firmware/RISCV/drivers/core_feature_base.h ****   typedef uint32_t rv_csr_t;
  50:../Firmware/RISCV/drivers/core_feature_base.h **** #elif __RISCV_XLEN == 64
  51:../Firmware/RISCV/drivers/core_feature_base.h ****   typedef uint64_t rv_csr_t;
  52:../Firmware/RISCV/drivers/core_feature_base.h **** #else
  53:../Firmware/RISCV/drivers/core_feature_base.h ****   typedef uint32_t rv_csr_t;
  54:../Firmware/RISCV/drivers/core_feature_base.h **** #endif
  55:../Firmware/RISCV/drivers/core_feature_base.h **** /** @} */ /* End of Doxygen Group NMSIS_Core_Registers */
  56:../Firmware/RISCV/drivers/core_feature_base.h **** /**
  57:../Firmware/RISCV/drivers/core_feature_base.h ****  * \defgroup NMSIS_Core_Base_Registers     Base Register Define and Type Definitions
  58:../Firmware/RISCV/drivers/core_feature_base.h ****  * \ingroup NMSIS_Core_Registers
  59:../Firmware/RISCV/drivers/core_feature_base.h ****  * \brief   Type definitions and defines for base core registers.
  60:../Firmware/RISCV/drivers/core_feature_base.h ****  *
  61:../Firmware/RISCV/drivers/core_feature_base.h ****  * @{
  62:../Firmware/RISCV/drivers/core_feature_base.h ****  */
  63:../Firmware/RISCV/drivers/core_feature_base.h **** /**
  64:../Firmware/RISCV/drivers/core_feature_base.h ****  * \brief  Union type to access MISA CSR register.
  65:../Firmware/RISCV/drivers/core_feature_base.h ****  */
  66:../Firmware/RISCV/drivers/core_feature_base.h **** typedef union {
  67:../Firmware/RISCV/drivers/core_feature_base.h ****     struct {
  68:../Firmware/RISCV/drivers/core_feature_base.h ****         rv_csr_t a:1;                           /*!< bit:     0  Atomic extension */
  69:../Firmware/RISCV/drivers/core_feature_base.h ****         rv_csr_t b:1;                           /*!< bit:     1  Tentatively reserved for Bit-Manip
  70:../Firmware/RISCV/drivers/core_feature_base.h ****         rv_csr_t c:1;                           /*!< bit:     2  Compressed extension */
  71:../Firmware/RISCV/drivers/core_feature_base.h ****         rv_csr_t d:1;                           /*!< bit:     3  Double-precision floating-point ex
  72:../Firmware/RISCV/drivers/core_feature_base.h ****         rv_csr_t e:1;                           /*!< bit:     4  RV32E base ISA */
  73:../Firmware/RISCV/drivers/core_feature_base.h ****         rv_csr_t f:1;                           /*!< bit:     5  Single-precision floating-point ex
  74:../Firmware/RISCV/drivers/core_feature_base.h ****         rv_csr_t g:1;                           /*!< bit:     6  Additional standard extensions pre
  75:../Firmware/RISCV/drivers/core_feature_base.h ****         rv_csr_t h:1;                           /*!< bit:     7  Hypervisor extension */
  76:../Firmware/RISCV/drivers/core_feature_base.h ****         rv_csr_t i:1;                           /*!< bit:     8  RV32I/64I/128I base ISA */
  77:../Firmware/RISCV/drivers/core_feature_base.h ****         rv_csr_t j:1;                           /*!< bit:     9  Tentatively reserved for Dynamical
  78:../Firmware/RISCV/drivers/core_feature_base.h ****         rv_csr_t _reserved1:1;                  /*!< bit:     10 Reserved  */
  79:../Firmware/RISCV/drivers/core_feature_base.h ****         rv_csr_t l:1;                           /*!< bit:     11 Tentatively reserved for Decimal F
  80:../Firmware/RISCV/drivers/core_feature_base.h ****         rv_csr_t m:1;                           /*!< bit:     12 Integer Multiply/Divide extension 
  81:../Firmware/RISCV/drivers/core_feature_base.h ****         rv_csr_t n:1;                           /*!< bit:     13 User-level interrupts supported  *
  82:../Firmware/RISCV/drivers/core_feature_base.h ****         rv_csr_t _reserved2:1;                  /*!< bit:     14 Reserved  */
  83:../Firmware/RISCV/drivers/core_feature_base.h ****         rv_csr_t p:1;                           /*!< bit:     15 Tentatively reserved for Packed-SI
  84:../Firmware/RISCV/drivers/core_feature_base.h ****         rv_csr_t q:1;                           /*!< bit:     16 Quad-precision floating-point exte
  85:../Firmware/RISCV/drivers/core_feature_base.h ****         rv_csr_t _resreved3:1;                  /*!< bit:     17 Reserved  */
  86:../Firmware/RISCV/drivers/core_feature_base.h ****         rv_csr_t s:1;                           /*!< bit:     18 Supervisor mode implemented  */
  87:../Firmware/RISCV/drivers/core_feature_base.h ****         rv_csr_t t:1;                           /*!< bit:     19 Tentatively reserved for Transacti
  88:../Firmware/RISCV/drivers/core_feature_base.h ****         rv_csr_t u:1;                           /*!< bit:     20 User mode implemented  */
  89:../Firmware/RISCV/drivers/core_feature_base.h ****         rv_csr_t v:1;                           /*!< bit:     21 Tentatively reserved for Vector ex
  90:../Firmware/RISCV/drivers/core_feature_base.h ****         rv_csr_t _reserved4:1;                  /*!< bit:     22 Reserved  */
  91:../Firmware/RISCV/drivers/core_feature_base.h ****         rv_csr_t x:1;                           /*!< bit:     23 Non-standard extensions present  *
  92:../Firmware/RISCV/drivers/core_feature_base.h **** #if defined(__RISCV_XLEN) && __RISCV_XLEN == 64
  93:../Firmware/RISCV/drivers/core_feature_base.h ****         rv_csr_t _reserved5:38;                 /*!< bit:     24..61 Reserved  */
  94:../Firmware/RISCV/drivers/core_feature_base.h ****         rv_csr_t mxl:2;                         /*!< bit:     62..63 Machine XLEN  */
  95:../Firmware/RISCV/drivers/core_feature_base.h **** #else
  96:../Firmware/RISCV/drivers/core_feature_base.h ****         rv_csr_t _reserved5:6;                  /*!< bit:     24..29 Reserved  */
  97:../Firmware/RISCV/drivers/core_feature_base.h ****         rv_csr_t mxl:2;                         /*!< bit:     30..31 Machine XLEN  */
  98:../Firmware/RISCV/drivers/core_feature_base.h **** #endif
  99:../Firmware/RISCV/drivers/core_feature_base.h ****     } b;                                        /*!< Structure used for bit  access */
 100:../Firmware/RISCV/drivers/core_feature_base.h ****     rv_csr_t d;                                 /*!< Type      used for csr data access */
 101:../Firmware/RISCV/drivers/core_feature_base.h **** } CSR_MISA_Type;
 102:../Firmware/RISCV/drivers/core_feature_base.h **** 
 103:../Firmware/RISCV/drivers/core_feature_base.h **** /**
 104:../Firmware/RISCV/drivers/core_feature_base.h ****  * \brief  Union type to access MSTATUS CSR register.
 105:../Firmware/RISCV/drivers/core_feature_base.h ****  */
 106:../Firmware/RISCV/drivers/core_feature_base.h **** typedef union {
 107:../Firmware/RISCV/drivers/core_feature_base.h ****     struct {
 108:../Firmware/RISCV/drivers/core_feature_base.h **** #if defined(__RISCV_XLEN) && __RISCV_XLEN == 64
 109:../Firmware/RISCV/drivers/core_feature_base.h ****         rv_csr_t _reserved0:3;                  /*!< bit:     0..2  Reserved */
 110:../Firmware/RISCV/drivers/core_feature_base.h ****         rv_csr_t mie:1;                         /*!< bit:     3  Machine mode interrupt enable flag
 111:../Firmware/RISCV/drivers/core_feature_base.h ****         rv_csr_t _reserved1:3;                  /*!< bit:     4..6  Reserved */
 112:../Firmware/RISCV/drivers/core_feature_base.h ****         rv_csr_t mpie:1;                        /*!< bit:     7  mirror of MIE flag */
 113:../Firmware/RISCV/drivers/core_feature_base.h ****         rv_csr_t _reserved2:3;                  /*!< bit:     8..10  Reserved */
 114:../Firmware/RISCV/drivers/core_feature_base.h ****         rv_csr_t mpp:2;                         /*!< bit:     11..12 mirror of Privilege Mode */
 115:../Firmware/RISCV/drivers/core_feature_base.h ****         rv_csr_t fs:2;                          /*!< bit:     13..14 FS status flag */
 116:../Firmware/RISCV/drivers/core_feature_base.h ****         rv_csr_t xs:2;                          /*!< bit:     15..16 XS status flag */
 117:../Firmware/RISCV/drivers/core_feature_base.h ****         rv_csr_t mprv:1;                        /*!< bit:     Machine mode PMP */
 118:../Firmware/RISCV/drivers/core_feature_base.h ****         rv_csr_t _reserved3:14;                 /*!< bit:     18..31 Reserved */
 119:../Firmware/RISCV/drivers/core_feature_base.h ****         rv_csr_t uxl:2;                         /*!< bit:     32..33 user mode xlen */
 120:../Firmware/RISCV/drivers/core_feature_base.h ****         rv_csr_t _reserved6:29;                 /*!< bit:     34..62 Reserved  */
 121:../Firmware/RISCV/drivers/core_feature_base.h ****         rv_csr_t sd:1;                          /*!< bit:     Dirty status for XS or FS */
 122:../Firmware/RISCV/drivers/core_feature_base.h **** #else
 123:../Firmware/RISCV/drivers/core_feature_base.h ****         rv_csr_t _reserved0:1;                  /*!< bit:     0  Reserved */
 124:../Firmware/RISCV/drivers/core_feature_base.h ****         rv_csr_t sie:1;                         /*!< bit:     1  supervisor interrupt enable flag *
 125:../Firmware/RISCV/drivers/core_feature_base.h ****         rv_csr_t _reserved1:1;                  /*!< bit:     2  Reserved */
 126:../Firmware/RISCV/drivers/core_feature_base.h ****         rv_csr_t mie:1;                         /*!< bit:     3  Machine mode interrupt enable flag
 127:../Firmware/RISCV/drivers/core_feature_base.h ****         rv_csr_t _reserved2:1;                  /*!< bit:     4  Reserved */
 128:../Firmware/RISCV/drivers/core_feature_base.h ****         rv_csr_t spie:1;                        /*!< bit:     3  Supervisor Privilede mode interrup
 129:../Firmware/RISCV/drivers/core_feature_base.h ****         rv_csr_t _reserved3:1;                  /*!< bit:     Reserved */
 130:../Firmware/RISCV/drivers/core_feature_base.h ****         rv_csr_t mpie:1;                        /*!< bit:     mirror of MIE flag */
 131:../Firmware/RISCV/drivers/core_feature_base.h ****         rv_csr_t _reserved4:3;                  /*!< bit:     Reserved */
 132:../Firmware/RISCV/drivers/core_feature_base.h ****         rv_csr_t mpp:2;                         /*!< bit:     mirror of Privilege Mode */
 133:../Firmware/RISCV/drivers/core_feature_base.h ****         rv_csr_t fs:2;                          /*!< bit:     FS status flag */
 134:../Firmware/RISCV/drivers/core_feature_base.h ****         rv_csr_t xs:2;                          /*!< bit:     XS status flag */
 135:../Firmware/RISCV/drivers/core_feature_base.h ****         rv_csr_t mprv:1;                        /*!< bit:     Machine mode PMP */
 136:../Firmware/RISCV/drivers/core_feature_base.h ****         rv_csr_t sum:1;                         /*!< bit:     Supervisor Mode load and store protec
 137:../Firmware/RISCV/drivers/core_feature_base.h ****         rv_csr_t _reserved6:12;                 /*!< bit:     19..30 Reserved  */
 138:../Firmware/RISCV/drivers/core_feature_base.h ****         rv_csr_t sd:1;                          /*!< bit:     Dirty status for XS or FS */
 139:../Firmware/RISCV/drivers/core_feature_base.h **** #endif
 140:../Firmware/RISCV/drivers/core_feature_base.h ****     } b;                                        /*!< Structure used for bit  access */
 141:../Firmware/RISCV/drivers/core_feature_base.h ****     rv_csr_t d;                                 /*!< Type      used for csr data access */
 142:../Firmware/RISCV/drivers/core_feature_base.h **** } CSR_MSTATUS_Type;
 143:../Firmware/RISCV/drivers/core_feature_base.h **** 
 144:../Firmware/RISCV/drivers/core_feature_base.h **** /**
 145:../Firmware/RISCV/drivers/core_feature_base.h ****  * \brief  Union type to access MTVEC CSR register.
 146:../Firmware/RISCV/drivers/core_feature_base.h ****  */
 147:../Firmware/RISCV/drivers/core_feature_base.h **** typedef union {
 148:../Firmware/RISCV/drivers/core_feature_base.h ****     struct {
 149:../Firmware/RISCV/drivers/core_feature_base.h ****         rv_csr_t mode:6;                        /*!< bit:     0..5   interrupt mode control */
 150:../Firmware/RISCV/drivers/core_feature_base.h **** #if defined(__RISCV_XLEN) && __RISCV_XLEN == 64
 151:../Firmware/RISCV/drivers/core_feature_base.h ****         rv_csr_t addr:58;                       /*!< bit:     6..63  mtvec address */
 152:../Firmware/RISCV/drivers/core_feature_base.h **** #else
 153:../Firmware/RISCV/drivers/core_feature_base.h ****         rv_csr_t addr:26;                       /*!< bit:     6..31  mtvec address */
 154:../Firmware/RISCV/drivers/core_feature_base.h **** #endif
 155:../Firmware/RISCV/drivers/core_feature_base.h ****     } b;                                        /*!< Structure used for bit  access */
 156:../Firmware/RISCV/drivers/core_feature_base.h ****     rv_csr_t d;                                 /*!< Type      used for csr data access */
 157:../Firmware/RISCV/drivers/core_feature_base.h **** } CSR_MTVEC_Type;
 158:../Firmware/RISCV/drivers/core_feature_base.h **** 
 159:../Firmware/RISCV/drivers/core_feature_base.h **** /**
 160:../Firmware/RISCV/drivers/core_feature_base.h ****  * \brief  Union type to access MCAUSE CSR register.
 161:../Firmware/RISCV/drivers/core_feature_base.h ****  */
 162:../Firmware/RISCV/drivers/core_feature_base.h **** typedef union {
 163:../Firmware/RISCV/drivers/core_feature_base.h ****     struct {
 164:../Firmware/RISCV/drivers/core_feature_base.h ****         rv_csr_t exccode:12;                    /*!< bit:     11..0  exception or interrupt code */
 165:../Firmware/RISCV/drivers/core_feature_base.h ****         rv_csr_t _reserved0:4;                  /*!< bit:     15..12  Reserved */
 166:../Firmware/RISCV/drivers/core_feature_base.h ****         rv_csr_t mpil:8;                        /*!< bit:     23..16  Previous interrupt level */
 167:../Firmware/RISCV/drivers/core_feature_base.h ****         rv_csr_t _reserved1:3;                  /*!< bit:     26..24  Reserved */
 168:../Firmware/RISCV/drivers/core_feature_base.h ****         rv_csr_t mpie:1;                        /*!< bit:     27  Interrupt enable flag before ente
 169:../Firmware/RISCV/drivers/core_feature_base.h ****         rv_csr_t mpp:2;                         /*!< bit:     29..28  Privilede mode flag before en
 170:../Firmware/RISCV/drivers/core_feature_base.h ****         rv_csr_t minhv:1;                       /*!< bit:     30  Machine interrupt vector table */
 171:../Firmware/RISCV/drivers/core_feature_base.h **** #if defined(__RISCV_XLEN) && __RISCV_XLEN == 64
 172:../Firmware/RISCV/drivers/core_feature_base.h ****         rv_csr_t _reserved2:32;                 /*!< bit:     31..62  Reserved */
 173:../Firmware/RISCV/drivers/core_feature_base.h ****         rv_csr_t interrupt:1;                   /*!< bit:     63  trap type. 0 means exception and 
 174:../Firmware/RISCV/drivers/core_feature_base.h **** #else
 175:../Firmware/RISCV/drivers/core_feature_base.h ****         rv_csr_t interrupt:1;                   /*!< bit:     31  trap type. 0 means exception and 
 176:../Firmware/RISCV/drivers/core_feature_base.h **** #endif
 177:../Firmware/RISCV/drivers/core_feature_base.h ****     } b;                                        /*!< Structure used for bit  access */
 178:../Firmware/RISCV/drivers/core_feature_base.h ****     rv_csr_t d;                                 /*!< Type      used for csr data access */
 179:../Firmware/RISCV/drivers/core_feature_base.h **** } CSR_MCAUSE_Type;
 180:../Firmware/RISCV/drivers/core_feature_base.h **** 
 181:../Firmware/RISCV/drivers/core_feature_base.h **** /**
 182:../Firmware/RISCV/drivers/core_feature_base.h ****  * \brief  Union type to access MCOUNTINHIBIT CSR register.
 183:../Firmware/RISCV/drivers/core_feature_base.h ****  */
 184:../Firmware/RISCV/drivers/core_feature_base.h **** typedef union {
 185:../Firmware/RISCV/drivers/core_feature_base.h ****     struct {
 186:../Firmware/RISCV/drivers/core_feature_base.h ****         rv_csr_t cy:1;                          /*!< bit:     0     1 means disable mcycle counter 
 187:../Firmware/RISCV/drivers/core_feature_base.h ****         rv_csr_t _reserved0:1;                  /*!< bit:     1     Reserved */
 188:../Firmware/RISCV/drivers/core_feature_base.h ****         rv_csr_t ir:1;                          /*!< bit:     2     1 means disable minstret counte
 189:../Firmware/RISCV/drivers/core_feature_base.h **** #if defined(__RISCV_XLEN) && __RISCV_XLEN == 64
 190:../Firmware/RISCV/drivers/core_feature_base.h ****         rv_csr_t _reserved1:61;                 /*!< bit:     3..63 Reserved */
 191:../Firmware/RISCV/drivers/core_feature_base.h **** #else
 192:../Firmware/RISCV/drivers/core_feature_base.h ****         rv_csr_t _reserved1:29;                 /*!< bit:     3..31 Reserved */
 193:../Firmware/RISCV/drivers/core_feature_base.h **** #endif
 194:../Firmware/RISCV/drivers/core_feature_base.h ****     } b;                                        /*!< Structure used for bit  access */
 195:../Firmware/RISCV/drivers/core_feature_base.h ****     rv_csr_t d;                                 /*!< Type      used for csr data access */
 196:../Firmware/RISCV/drivers/core_feature_base.h **** } CSR_MCOUNTINHIBIT_Type;
 197:../Firmware/RISCV/drivers/core_feature_base.h **** 
 198:../Firmware/RISCV/drivers/core_feature_base.h **** /**
 199:../Firmware/RISCV/drivers/core_feature_base.h ****  * \brief  Union type to access MSUBM CSR register.
 200:../Firmware/RISCV/drivers/core_feature_base.h ****  */
 201:../Firmware/RISCV/drivers/core_feature_base.h **** typedef union {
 202:../Firmware/RISCV/drivers/core_feature_base.h ****     struct {
 203:../Firmware/RISCV/drivers/core_feature_base.h ****         rv_csr_t _reserved0:6;                  /*!< bit:     0..5   Reserved */
 204:../Firmware/RISCV/drivers/core_feature_base.h ****         rv_csr_t typ:2;                         /*!< bit:     6..7   current trap type */
 205:../Firmware/RISCV/drivers/core_feature_base.h ****         rv_csr_t ptyp:2;                        /*!< bit:     8..9   previous trap type */
 206:../Firmware/RISCV/drivers/core_feature_base.h **** #if defined(__RISCV_XLEN) && __RISCV_XLEN == 64
 207:../Firmware/RISCV/drivers/core_feature_base.h ****         rv_csr_t _reserved1:54;                 /*!< bit:     10..63 Reserved */
 208:../Firmware/RISCV/drivers/core_feature_base.h **** #else
 209:../Firmware/RISCV/drivers/core_feature_base.h ****         rv_csr_t _reserved1:22;                 /*!< bit:     10..31 Reserved */
 210:../Firmware/RISCV/drivers/core_feature_base.h **** #endif
 211:../Firmware/RISCV/drivers/core_feature_base.h ****     } b;                                        /*!< Structure used for bit  access */
 212:../Firmware/RISCV/drivers/core_feature_base.h ****     rv_csr_t d;                                 /*!< Type      used for csr data access */
 213:../Firmware/RISCV/drivers/core_feature_base.h **** } CSR_MSUBM_Type;
 214:../Firmware/RISCV/drivers/core_feature_base.h **** 
 215:../Firmware/RISCV/drivers/core_feature_base.h **** /**
 216:../Firmware/RISCV/drivers/core_feature_base.h ****  * \brief  Union type to access MDCAUSE CSR register.
 217:../Firmware/RISCV/drivers/core_feature_base.h ****  */
 218:../Firmware/RISCV/drivers/core_feature_base.h **** typedef union {
 219:../Firmware/RISCV/drivers/core_feature_base.h ****     struct {
 220:../Firmware/RISCV/drivers/core_feature_base.h ****         rv_csr_t mdcause:2;                     /*!< bit:     0..1   More detailed exception inform
 221:../Firmware/RISCV/drivers/core_feature_base.h ****         rv_csr_t _reserved0:__RISCV_XLEN-2;     /*!< bit:     2..XLEN-1 Reserved */
 222:../Firmware/RISCV/drivers/core_feature_base.h ****     } b;                                        /*!< Structure used for bit  access */
 223:../Firmware/RISCV/drivers/core_feature_base.h ****     rv_csr_t d;                                 /*!< Type      used for csr data access */
 224:../Firmware/RISCV/drivers/core_feature_base.h **** } CSR_MDCAUSE_Type;
 225:../Firmware/RISCV/drivers/core_feature_base.h **** 
 226:../Firmware/RISCV/drivers/core_feature_base.h **** /**
 227:../Firmware/RISCV/drivers/core_feature_base.h ****  * \brief  Union type to access MMISC_CTRL CSR register.
 228:../Firmware/RISCV/drivers/core_feature_base.h ****  */
 229:../Firmware/RISCV/drivers/core_feature_base.h **** typedef union {
 230:../Firmware/RISCV/drivers/core_feature_base.h ****     struct {
 231:../Firmware/RISCV/drivers/core_feature_base.h ****         rv_csr_t _reserved0:3;                  /*!< bit:     0..2  Reserved */
 232:../Firmware/RISCV/drivers/core_feature_base.h ****         rv_csr_t bpu:1;                         /*!< bit:     3     dynamic prediction enable flag 
 233:../Firmware/RISCV/drivers/core_feature_base.h ****         rv_csr_t _reserved1:2;                  /*!< bit:     4..5  Reserved */
 234:../Firmware/RISCV/drivers/core_feature_base.h ****         rv_csr_t misalign:1;                    /*!< bit:     6     misaligned access support flag 
 235:../Firmware/RISCV/drivers/core_feature_base.h ****         rv_csr_t _reserved2:2;                  /*!< bit:     7..8  Reserved */
 236:../Firmware/RISCV/drivers/core_feature_base.h ****         rv_csr_t nmi_cause:1;                   /*!< bit:     9     mnvec control and nmi mcase exc
 237:../Firmware/RISCV/drivers/core_feature_base.h **** #if defined(__RISCV_XLEN) && __RISCV_XLEN == 64
 238:../Firmware/RISCV/drivers/core_feature_base.h ****         rv_csr_t _reserved3:54;                 /*!< bit:     10..63 Reserved */
 239:../Firmware/RISCV/drivers/core_feature_base.h **** #else
 240:../Firmware/RISCV/drivers/core_feature_base.h ****         rv_csr_t _reserved3:22;                 /*!< bit:     10..31 Reserved */
 241:../Firmware/RISCV/drivers/core_feature_base.h **** #endif
 242:../Firmware/RISCV/drivers/core_feature_base.h ****     } b;                                        /*!< Structure used for bit  access */
 243:../Firmware/RISCV/drivers/core_feature_base.h ****     rv_csr_t d;                                 /*!< Type      used for csr data access */
 244:../Firmware/RISCV/drivers/core_feature_base.h **** } CSR_MMISCCTRL_Type;
 245:../Firmware/RISCV/drivers/core_feature_base.h **** 
 246:../Firmware/RISCV/drivers/core_feature_base.h **** typedef CSR_MMISCCTRL_Type CSR_MMISCCTL_Type;
 247:../Firmware/RISCV/drivers/core_feature_base.h **** 
 248:../Firmware/RISCV/drivers/core_feature_base.h **** /**
 249:../Firmware/RISCV/drivers/core_feature_base.h ****  * \brief  Union type to access MCACHE_CTL CSR register.
 250:../Firmware/RISCV/drivers/core_feature_base.h ****  */
 251:../Firmware/RISCV/drivers/core_feature_base.h **** typedef union {
 252:../Firmware/RISCV/drivers/core_feature_base.h ****     struct {
 253:../Firmware/RISCV/drivers/core_feature_base.h ****         rv_csr_t ic_en:1;                       /*!< I-Cache enable */
 254:../Firmware/RISCV/drivers/core_feature_base.h ****         rv_csr_t ic_scpd_mod:1;                 /*!< Scratchpad mode, 0: Scratchpad as ICache Data 
 255:../Firmware/RISCV/drivers/core_feature_base.h ****         rv_csr_t ic_ecc_en:1;                   /*!< I-Cache ECC enable */
 256:../Firmware/RISCV/drivers/core_feature_base.h ****         rv_csr_t ic_ecc_excp_en:1;              /*!< I-Cache 2bit ECC error exception enable */
 257:../Firmware/RISCV/drivers/core_feature_base.h ****         rv_csr_t ic_rwtecc:1;                   /*!< Control I-Cache Tag Ram ECC code injection */
 258:../Firmware/RISCV/drivers/core_feature_base.h ****         rv_csr_t ic_rwdecc:1;                   /*!< Control I-Cache Data Ram ECC code injection */
 259:../Firmware/RISCV/drivers/core_feature_base.h ****         rv_csr_t _reserved0:10;
 260:../Firmware/RISCV/drivers/core_feature_base.h ****         rv_csr_t dc_en:1;                       /*!< DCache enable */
 261:../Firmware/RISCV/drivers/core_feature_base.h ****         rv_csr_t dc_ecc_en:1;                   /*!< D-Cache ECC enable */
 262:../Firmware/RISCV/drivers/core_feature_base.h ****         rv_csr_t dc_ecc_excp_en:1;              /*!< D-Cache 2bit ECC error exception enable */
 263:../Firmware/RISCV/drivers/core_feature_base.h ****         rv_csr_t dc_rwtecc:1;                   /*!< Control D-Cache Tag Ram ECC code injection */
 264:../Firmware/RISCV/drivers/core_feature_base.h ****         rv_csr_t dc_rwdecc:1;                   /*!< Control D-Cache Data Ram ECC code injection */
 265:../Firmware/RISCV/drivers/core_feature_base.h ****         rv_csr_t _reserved1:__RISCV_XLEN-21;
 266:../Firmware/RISCV/drivers/core_feature_base.h ****     } b;                                        /*!< Structure used for bit  access */
 267:../Firmware/RISCV/drivers/core_feature_base.h ****     rv_csr_t d;                                 /*!< Type      used for csr data access */
 268:../Firmware/RISCV/drivers/core_feature_base.h **** } CSR_MCACHECTL_Type;
 269:../Firmware/RISCV/drivers/core_feature_base.h **** 
 270:../Firmware/RISCV/drivers/core_feature_base.h **** /**
 271:../Firmware/RISCV/drivers/core_feature_base.h ****  * \brief  Union type to access MSAVESTATUS CSR register.
 272:../Firmware/RISCV/drivers/core_feature_base.h ****  */
 273:../Firmware/RISCV/drivers/core_feature_base.h **** typedef union {
 274:../Firmware/RISCV/drivers/core_feature_base.h ****     struct {
 275:../Firmware/RISCV/drivers/core_feature_base.h ****         rv_csr_t mpie1:1;                       /*!< bit:     0     interrupt enable flag of fisrt 
 276:../Firmware/RISCV/drivers/core_feature_base.h ****         rv_csr_t mpp1:2;                        /*!< bit:     1..2  privilede mode of fisrt level N
 277:../Firmware/RISCV/drivers/core_feature_base.h ****         rv_csr_t _reserved0:3;                  /*!< bit:     3..5  Reserved */
 278:../Firmware/RISCV/drivers/core_feature_base.h ****         rv_csr_t ptyp1:2;                       /*!< bit:     6..7  NMI/exception type of before fi
 279:../Firmware/RISCV/drivers/core_feature_base.h ****         rv_csr_t mpie2:1;                       /*!< bit:     8     interrupt enable flag of second
 280:../Firmware/RISCV/drivers/core_feature_base.h ****         rv_csr_t mpp2:2;                        /*!< bit:     9..10 privilede mode of second level 
 281:../Firmware/RISCV/drivers/core_feature_base.h ****         rv_csr_t _reserved1:3;                  /*!< bit:     11..13     Reserved */
 282:../Firmware/RISCV/drivers/core_feature_base.h ****         rv_csr_t ptyp2:2;                       /*!< bit:     14..15     NMI/exception type of befo
 283:../Firmware/RISCV/drivers/core_feature_base.h **** #if defined(__RISCV_XLEN) && __RISCV_XLEN == 64
 284:../Firmware/RISCV/drivers/core_feature_base.h ****         rv_csr_t _reserved2:48;                 /*!< bit:     16..63 Reserved*/
 285:../Firmware/RISCV/drivers/core_feature_base.h **** #else
 286:../Firmware/RISCV/drivers/core_feature_base.h ****         rv_csr_t _reserved2:16;                 /*!< bit:     16..31 Reserved*/
 287:../Firmware/RISCV/drivers/core_feature_base.h **** #endif
 288:../Firmware/RISCV/drivers/core_feature_base.h ****     } b;                                        /*!< Structure used for bit  access */
 289:../Firmware/RISCV/drivers/core_feature_base.h ****     rv_csr_t w;                                 /*!< Type      used for csr data access */
 290:../Firmware/RISCV/drivers/core_feature_base.h **** } CSR_MSAVESTATUS_Type;
 291:../Firmware/RISCV/drivers/core_feature_base.h **** 
 292:../Firmware/RISCV/drivers/core_feature_base.h **** /**
 293:../Firmware/RISCV/drivers/core_feature_base.h ****  * \brief  Union type to access MILM_CTL CSR register.
 294:../Firmware/RISCV/drivers/core_feature_base.h ****  */
 295:../Firmware/RISCV/drivers/core_feature_base.h **** typedef union {
 296:../Firmware/RISCV/drivers/core_feature_base.h ****     struct {
 297:../Firmware/RISCV/drivers/core_feature_base.h ****         rv_csr_t ilm_en:1;                      /*!< ILM enable */
 298:../Firmware/RISCV/drivers/core_feature_base.h ****         rv_csr_t ilm_ecc_en:1;                  /*!< ILM ECC eanble */
 299:../Firmware/RISCV/drivers/core_feature_base.h ****         rv_csr_t ilm_ecc_excp_en:1;             /*!< ILM ECC exception enable */
 300:../Firmware/RISCV/drivers/core_feature_base.h ****         rv_csr_t ilm_rwecc:1;                   /*!< Control mecc_code write to ilm, simulate error
 301:../Firmware/RISCV/drivers/core_feature_base.h ****         rv_csr_t _reserved0:6;                  /*!< Reserved */
 302:../Firmware/RISCV/drivers/core_feature_base.h ****         rv_csr_t ilm_bpa:__RISCV_XLEN-10;       /*!< ILM base address */
 303:../Firmware/RISCV/drivers/core_feature_base.h ****     } b;                                        /*!< Structure used for bit  access */
 304:../Firmware/RISCV/drivers/core_feature_base.h ****     rv_csr_t d;                                 /*!< Type      used for csr data access */
 305:../Firmware/RISCV/drivers/core_feature_base.h **** } CSR_MILMCTL_Type;
 306:../Firmware/RISCV/drivers/core_feature_base.h **** 
 307:../Firmware/RISCV/drivers/core_feature_base.h **** /**
 308:../Firmware/RISCV/drivers/core_feature_base.h ****  * \brief  Union type to access MDLM_CTL CSR register.
 309:../Firmware/RISCV/drivers/core_feature_base.h ****  */
 310:../Firmware/RISCV/drivers/core_feature_base.h **** typedef union {
 311:../Firmware/RISCV/drivers/core_feature_base.h ****     struct {
 312:../Firmware/RISCV/drivers/core_feature_base.h ****         rv_csr_t dlm_en:1;                      /*!< DLM enable */
 313:../Firmware/RISCV/drivers/core_feature_base.h ****         rv_csr_t dlm_ecc_en:1;                  /*!< DLM ECC eanble */
 314:../Firmware/RISCV/drivers/core_feature_base.h ****         rv_csr_t dlm_ecc_excp_en:1;             /*!< DLM ECC exception enable */
 315:../Firmware/RISCV/drivers/core_feature_base.h ****         rv_csr_t dlm_rwecc:1;                   /*!< Control mecc_code write to dlm, simulate error
 316:../Firmware/RISCV/drivers/core_feature_base.h ****         rv_csr_t _reserved0:6;                  /*!< Reserved */
 317:../Firmware/RISCV/drivers/core_feature_base.h ****         rv_csr_t dlm_bpa:__RISCV_XLEN-10;       /*!< DLM base address */
 318:../Firmware/RISCV/drivers/core_feature_base.h ****     } b;                                        /*!< Structure used for bit  access */
 319:../Firmware/RISCV/drivers/core_feature_base.h ****     rv_csr_t d;                                 /*!< Type      used for csr data access */
 320:../Firmware/RISCV/drivers/core_feature_base.h **** } CSR_MDLMCTL_Type;
 321:../Firmware/RISCV/drivers/core_feature_base.h **** 
 322:../Firmware/RISCV/drivers/core_feature_base.h **** /**
 323:../Firmware/RISCV/drivers/core_feature_base.h ****  * \brief  Union type to access MCFG_INFO CSR register.
 324:../Firmware/RISCV/drivers/core_feature_base.h ****  */
 325:../Firmware/RISCV/drivers/core_feature_base.h **** typedef union {
 326:../Firmware/RISCV/drivers/core_feature_base.h ****     struct {
 327:../Firmware/RISCV/drivers/core_feature_base.h ****         rv_csr_t tee:1;                         /*!< TEE present */
 328:../Firmware/RISCV/drivers/core_feature_base.h ****         rv_csr_t ecc:1;                         /*!< ECC present */
 329:../Firmware/RISCV/drivers/core_feature_base.h ****         rv_csr_t clic:1;                        /*!< CLIC present */
 330:../Firmware/RISCV/drivers/core_feature_base.h ****         rv_csr_t plic:1;                        /*!< PLIC present */
 331:../Firmware/RISCV/drivers/core_feature_base.h ****         rv_csr_t fio:1;                         /*!< FIO present */
 332:../Firmware/RISCV/drivers/core_feature_base.h ****         rv_csr_t ppi:1;                         /*!< PPI present */
 333:../Firmware/RISCV/drivers/core_feature_base.h ****         rv_csr_t nice:1;                        /*!< NICE present */
 334:../Firmware/RISCV/drivers/core_feature_base.h ****         rv_csr_t ilm:1;                         /*!< ILM present */
 335:../Firmware/RISCV/drivers/core_feature_base.h ****         rv_csr_t dlm:1;                         /*!< DLM present */
 336:../Firmware/RISCV/drivers/core_feature_base.h ****         rv_csr_t icache:1;                      /*!< ICache present */
 337:../Firmware/RISCV/drivers/core_feature_base.h ****         rv_csr_t dcache:1;                      /*!< DCache present */
 338:../Firmware/RISCV/drivers/core_feature_base.h ****         rv_csr_t _reserved0:__RISCV_XLEN-11;
 339:../Firmware/RISCV/drivers/core_feature_base.h ****     } b;                                        /*!< Structure used for bit  access */
 340:../Firmware/RISCV/drivers/core_feature_base.h ****     rv_csr_t d;                                 /*!< Type      used for csr data access */
 341:../Firmware/RISCV/drivers/core_feature_base.h **** } CSR_MCFGINFO_Type;
 342:../Firmware/RISCV/drivers/core_feature_base.h **** 
 343:../Firmware/RISCV/drivers/core_feature_base.h **** /**
 344:../Firmware/RISCV/drivers/core_feature_base.h ****  * \brief  Union type to access MICFG_INFO CSR register.
 345:../Firmware/RISCV/drivers/core_feature_base.h ****  */
 346:../Firmware/RISCV/drivers/core_feature_base.h **** typedef union {
 347:../Firmware/RISCV/drivers/core_feature_base.h ****     struct {
 348:../Firmware/RISCV/drivers/core_feature_base.h ****         rv_csr_t set:4;                         /*!< I-Cache sets per way */
 349:../Firmware/RISCV/drivers/core_feature_base.h ****         rv_csr_t way:3;                         /*!< I-Cache way */
 350:../Firmware/RISCV/drivers/core_feature_base.h ****         rv_csr_t lsize:3;                       /*!< I-Cache line size */
 351:../Firmware/RISCV/drivers/core_feature_base.h ****         rv_csr_t cache_ecc:1;                   /*!< I-Cache ECC present */
 352:../Firmware/RISCV/drivers/core_feature_base.h ****         rv_csr_t _reserved0:5;
 353:../Firmware/RISCV/drivers/core_feature_base.h ****         rv_csr_t lm_size:5;                     /*!< ILM size, need to be 2^n size */
 354:../Firmware/RISCV/drivers/core_feature_base.h ****         rv_csr_t lm_xonly:1;                    /*!< ILM Execute only permission */
 355:../Firmware/RISCV/drivers/core_feature_base.h ****         rv_csr_t lm_ecc:1;                      /*!< ILM ECC present */
 356:../Firmware/RISCV/drivers/core_feature_base.h ****         rv_csr_t _reserved1:__RISCV_XLEN-23;
 357:../Firmware/RISCV/drivers/core_feature_base.h ****     } b;                                        /*!< Structure used for bit  access */
 358:../Firmware/RISCV/drivers/core_feature_base.h ****     rv_csr_t d;                                 /*!< Type      used for csr data access */
 359:../Firmware/RISCV/drivers/core_feature_base.h **** } CSR_MICFGINFO_Type;
 360:../Firmware/RISCV/drivers/core_feature_base.h **** 
 361:../Firmware/RISCV/drivers/core_feature_base.h **** /**
 362:../Firmware/RISCV/drivers/core_feature_base.h ****  * \brief  Union type to access MDCFG_INFO CSR register.
 363:../Firmware/RISCV/drivers/core_feature_base.h ****  */
 364:../Firmware/RISCV/drivers/core_feature_base.h **** typedef union {
 365:../Firmware/RISCV/drivers/core_feature_base.h ****     struct {
 366:../Firmware/RISCV/drivers/core_feature_base.h ****         rv_csr_t set:4;                         /*!< D-Cache sets per way */
 367:../Firmware/RISCV/drivers/core_feature_base.h ****         rv_csr_t way:3;                         /*!< D-Cache way */
 368:../Firmware/RISCV/drivers/core_feature_base.h ****         rv_csr_t lsize:3;                       /*!< D-Cache line size */
 369:../Firmware/RISCV/drivers/core_feature_base.h ****         rv_csr_t cache_ecc:1;                   /*!< D-Cache ECC present */
 370:../Firmware/RISCV/drivers/core_feature_base.h ****         rv_csr_t _reserved0:5;
 371:../Firmware/RISCV/drivers/core_feature_base.h ****         rv_csr_t lm_size:5;                     /*!< DLM size, need to be 2^n size */
 372:../Firmware/RISCV/drivers/core_feature_base.h ****         rv_csr_t lm_xonly:1;                    /*!< DLM Execute only permission */
 373:../Firmware/RISCV/drivers/core_feature_base.h ****         rv_csr_t lm_ecc:1;                      /*!< DLM ECC present */
 374:../Firmware/RISCV/drivers/core_feature_base.h ****         rv_csr_t _reserved1:__RISCV_XLEN-23;
 375:../Firmware/RISCV/drivers/core_feature_base.h ****     } b;                                        /*!< Structure used for bit  access */
 376:../Firmware/RISCV/drivers/core_feature_base.h ****     rv_csr_t d;                                 /*!< Type      used for csr data access */
 377:../Firmware/RISCV/drivers/core_feature_base.h **** } CSR_MDCFGINFO_Type;
 378:../Firmware/RISCV/drivers/core_feature_base.h **** 
 379:../Firmware/RISCV/drivers/core_feature_base.h **** /**
 380:../Firmware/RISCV/drivers/core_feature_base.h ****  * \brief  Union type to access MPPICFG_INFO CSR register.
 381:../Firmware/RISCV/drivers/core_feature_base.h ****  */
 382:../Firmware/RISCV/drivers/core_feature_base.h **** typedef union {
 383:../Firmware/RISCV/drivers/core_feature_base.h ****     struct {
 384:../Firmware/RISCV/drivers/core_feature_base.h ****         rv_csr_t _reserved0:1;                  /*!< Reserved */
 385:../Firmware/RISCV/drivers/core_feature_base.h ****         rv_csr_t ppi_size:5;                    /*!< PPI size, need to be 2^n size */
 386:../Firmware/RISCV/drivers/core_feature_base.h ****         rv_csr_t _reserved1:4;                  /*!< Reserved */
 387:../Firmware/RISCV/drivers/core_feature_base.h ****         rv_csr_t ppi_bpa:__RISCV_XLEN-10;       /*!< PPI base address */
 388:../Firmware/RISCV/drivers/core_feature_base.h ****     } b;                                        /*!< Structure used for bit  access */
 389:../Firmware/RISCV/drivers/core_feature_base.h ****     rv_csr_t d;                                 /*!< Type      used for csr data access */
 390:../Firmware/RISCV/drivers/core_feature_base.h **** } CSR_MPPICFGINFO_Type;
 391:../Firmware/RISCV/drivers/core_feature_base.h **** 
 392:../Firmware/RISCV/drivers/core_feature_base.h **** /**
 393:../Firmware/RISCV/drivers/core_feature_base.h ****  * \brief  Union type to access MFIOCFG_INFO CSR register.
 394:../Firmware/RISCV/drivers/core_feature_base.h ****  */
 395:../Firmware/RISCV/drivers/core_feature_base.h **** typedef union {
 396:../Firmware/RISCV/drivers/core_feature_base.h ****     struct {
 397:../Firmware/RISCV/drivers/core_feature_base.h ****         rv_csr_t _reserved0:1;                  /*!< Reserved */
 398:../Firmware/RISCV/drivers/core_feature_base.h ****         rv_csr_t fio_size:5;                    /*!< FIO size, need to be 2^n size */
 399:../Firmware/RISCV/drivers/core_feature_base.h ****         rv_csr_t _reserved1:4;                  /*!< Reserved */
 400:../Firmware/RISCV/drivers/core_feature_base.h ****         rv_csr_t fio_bpa:__RISCV_XLEN-10;       /*!< FIO base address */
 401:../Firmware/RISCV/drivers/core_feature_base.h ****     } b;                                        /*!< Structure used for bit  access */
 402:../Firmware/RISCV/drivers/core_feature_base.h ****     rv_csr_t d;                                 /*!< Type      used for csr data access */
 403:../Firmware/RISCV/drivers/core_feature_base.h **** } CSR_MFIOCFGINFO_Type;
 404:../Firmware/RISCV/drivers/core_feature_base.h **** 
 405:../Firmware/RISCV/drivers/core_feature_base.h **** /**
 406:../Firmware/RISCV/drivers/core_feature_base.h ****  * \brief  Union type to access MECC_LOCK CSR register.
 407:../Firmware/RISCV/drivers/core_feature_base.h ****  */
 408:../Firmware/RISCV/drivers/core_feature_base.h **** typedef union {
 409:../Firmware/RISCV/drivers/core_feature_base.h ****     struct {
 410:../Firmware/RISCV/drivers/core_feature_base.h ****         rv_csr_t ecc_lock:1;                    /*!< RW permission, ECC Lock configure */
 411:../Firmware/RISCV/drivers/core_feature_base.h ****         rv_csr_t _reserved0:__RISCV_XLEN-1;     /*!< Reserved */
 412:../Firmware/RISCV/drivers/core_feature_base.h ****     } b;                                        /*!< Structure used for bit  access */
 413:../Firmware/RISCV/drivers/core_feature_base.h ****     rv_csr_t d;                                 /*!< Type      used for csr data access */
 414:../Firmware/RISCV/drivers/core_feature_base.h **** } CSR_MECCLOCK_Type;
 415:../Firmware/RISCV/drivers/core_feature_base.h **** 
 416:../Firmware/RISCV/drivers/core_feature_base.h **** /**
 417:../Firmware/RISCV/drivers/core_feature_base.h ****  * \brief  Union type to access MECC_CODE CSR register.
 418:../Firmware/RISCV/drivers/core_feature_base.h ****  */
 419:../Firmware/RISCV/drivers/core_feature_base.h **** typedef union {
 420:../Firmware/RISCV/drivers/core_feature_base.h ****     struct {
 421:../Firmware/RISCV/drivers/core_feature_base.h ****         rv_csr_t code:9;                        /*!< Used to inject ECC check code */
 422:../Firmware/RISCV/drivers/core_feature_base.h ****         rv_csr_t _reserved0:7;                  /*!< Reserved */
 423:../Firmware/RISCV/drivers/core_feature_base.h ****         rv_csr_t ramid:5;                       /*!< Indicate 2bit ECC error, software can clear th
 424:../Firmware/RISCV/drivers/core_feature_base.h ****         rv_csr_t _reserved1:3;                  /*!< Reserved */
 425:../Firmware/RISCV/drivers/core_feature_base.h ****         rv_csr_t sramid:5;                      /*!< Indicate 1bit ECC error, software can clear th
 426:../Firmware/RISCV/drivers/core_feature_base.h ****         rv_csr_t _reserved2:__RISCV_XLEN-29;    /*!< Reserved */
 427:../Firmware/RISCV/drivers/core_feature_base.h ****     } b;                                        /*!< Structure used for bit  access */
 428:../Firmware/RISCV/drivers/core_feature_base.h ****     rv_csr_t d;                                 /*!< Type      used for csr data access */
 429:../Firmware/RISCV/drivers/core_feature_base.h **** } CSR_MECCCODE_Type;
 430:../Firmware/RISCV/drivers/core_feature_base.h **** 
 431:../Firmware/RISCV/drivers/core_feature_base.h **** /** @} */ /* End of Doxygen Group NMSIS_Core_Base_Registers */
 432:../Firmware/RISCV/drivers/core_feature_base.h **** 
 433:../Firmware/RISCV/drivers/core_feature_base.h **** /* ###########################  Core Function Access  ########################### */
 434:../Firmware/RISCV/drivers/core_feature_base.h **** /**
 435:../Firmware/RISCV/drivers/core_feature_base.h ****  * \defgroup NMSIS_Core_CSR_Register_Access    Core CSR Register Access
 436:../Firmware/RISCV/drivers/core_feature_base.h ****  * \ingroup  NMSIS_Core
 437:../Firmware/RISCV/drivers/core_feature_base.h ****  * \brief    Functions to access the Core CSR Registers
 438:../Firmware/RISCV/drivers/core_feature_base.h ****  * \details
 439:../Firmware/RISCV/drivers/core_feature_base.h ****  *
 440:../Firmware/RISCV/drivers/core_feature_base.h ****  * The following functions or macros provide access to Core CSR registers.
 441:../Firmware/RISCV/drivers/core_feature_base.h ****  * - \ref NMSIS_Core_CSR_Encoding
 442:../Firmware/RISCV/drivers/core_feature_base.h ****  * - \ref NMSIS_Core_CSR_Registers
 443:../Firmware/RISCV/drivers/core_feature_base.h ****  *   @{
 444:../Firmware/RISCV/drivers/core_feature_base.h ****  */
 445:../Firmware/RISCV/drivers/core_feature_base.h **** 
 446:../Firmware/RISCV/drivers/core_feature_base.h **** 
 447:../Firmware/RISCV/drivers/core_feature_base.h **** #ifndef __ASSEMBLY__
 448:../Firmware/RISCV/drivers/core_feature_base.h **** 
 449:../Firmware/RISCV/drivers/core_feature_base.h **** /**
 450:../Firmware/RISCV/drivers/core_feature_base.h ****  * \brief CSR operation Macro for csrrw instruction.
 451:../Firmware/RISCV/drivers/core_feature_base.h ****  * \details
 452:../Firmware/RISCV/drivers/core_feature_base.h ****  * Read the content of csr register to __v,
 453:../Firmware/RISCV/drivers/core_feature_base.h ****  * then write content of val into csr register, then return __v
 454:../Firmware/RISCV/drivers/core_feature_base.h ****  * \param csr   CSR macro definition defined in
 455:../Firmware/RISCV/drivers/core_feature_base.h ****  *              \ref NMSIS_Core_CSR_Registers, eg. \ref CSR_MSTATUS
 456:../Firmware/RISCV/drivers/core_feature_base.h ****  * \param val   value to store into the CSR register
 457:../Firmware/RISCV/drivers/core_feature_base.h ****  * \return the CSR register value before written
 458:../Firmware/RISCV/drivers/core_feature_base.h ****  */
 459:../Firmware/RISCV/drivers/core_feature_base.h **** #define __RV_CSR_SWAP(csr, val)                                 \
 460:../Firmware/RISCV/drivers/core_feature_base.h ****     ({                                                          \
 461:../Firmware/RISCV/drivers/core_feature_base.h ****         register rv_csr_t __v = (unsigned long)(val);           \
 462:../Firmware/RISCV/drivers/core_feature_base.h ****         __ASM volatile("csrrw %0, " STRINGIFY(csr) ", %1"       \
 463:../Firmware/RISCV/drivers/core_feature_base.h ****                      : "=r"(__v)                                \
 464:../Firmware/RISCV/drivers/core_feature_base.h ****                      : "r"(__v)                                \
 465:../Firmware/RISCV/drivers/core_feature_base.h ****                      : "memory");                               \
 466:../Firmware/RISCV/drivers/core_feature_base.h ****         __v;                                                    \
 467:../Firmware/RISCV/drivers/core_feature_base.h ****     })
 468:../Firmware/RISCV/drivers/core_feature_base.h **** 
 469:../Firmware/RISCV/drivers/core_feature_base.h **** /**
 470:../Firmware/RISCV/drivers/core_feature_base.h ****  * \brief CSR operation Macro for csrr instruction.
 471:../Firmware/RISCV/drivers/core_feature_base.h ****  * \details
 472:../Firmware/RISCV/drivers/core_feature_base.h ****  * Read the content of csr register to __v and return it
 473:../Firmware/RISCV/drivers/core_feature_base.h ****  * \param csr   CSR macro definition defined in
 474:../Firmware/RISCV/drivers/core_feature_base.h ****  *              \ref NMSIS_Core_CSR_Registers, eg. \ref CSR_MSTATUS
 475:../Firmware/RISCV/drivers/core_feature_base.h ****  * \return the CSR register value
 476:../Firmware/RISCV/drivers/core_feature_base.h ****  */
 477:../Firmware/RISCV/drivers/core_feature_base.h **** #define __RV_CSR_READ(csr)                                      \
 478:../Firmware/RISCV/drivers/core_feature_base.h ****     ({                                                          \
 479:../Firmware/RISCV/drivers/core_feature_base.h ****         register rv_csr_t __v;                                  \
 480:../Firmware/RISCV/drivers/core_feature_base.h ****         __ASM volatile("csrr %0, " STRINGIFY(csr)               \
 481:../Firmware/RISCV/drivers/core_feature_base.h ****                      : "=r"(__v)                                \
 482:../Firmware/RISCV/drivers/core_feature_base.h ****                      :                                          \
 483:../Firmware/RISCV/drivers/core_feature_base.h ****                      : "memory");                               \
 484:../Firmware/RISCV/drivers/core_feature_base.h ****         __v;                                                    \
 485:../Firmware/RISCV/drivers/core_feature_base.h ****     })
 486:../Firmware/RISCV/drivers/core_feature_base.h **** 
 487:../Firmware/RISCV/drivers/core_feature_base.h **** /**
 488:../Firmware/RISCV/drivers/core_feature_base.h ****  * \brief CSR operation Macro for csrw instruction.
 489:../Firmware/RISCV/drivers/core_feature_base.h ****  * \details
 490:../Firmware/RISCV/drivers/core_feature_base.h ****  * Write the content of val to csr register
 491:../Firmware/RISCV/drivers/core_feature_base.h ****  * \param csr   CSR macro definition defined in
 492:../Firmware/RISCV/drivers/core_feature_base.h ****  *              \ref NMSIS_Core_CSR_Registers, eg. \ref CSR_MSTATUS
 493:../Firmware/RISCV/drivers/core_feature_base.h ****  * \param val   value to store into the CSR register
 494:../Firmware/RISCV/drivers/core_feature_base.h ****  */
 495:../Firmware/RISCV/drivers/core_feature_base.h **** #define __RV_CSR_WRITE(csr, val)                                \
 496:../Firmware/RISCV/drivers/core_feature_base.h ****     ({                                                          \
 497:../Firmware/RISCV/drivers/core_feature_base.h ****         register rv_csr_t __v = (rv_csr_t)(val);                \
 498:../Firmware/RISCV/drivers/core_feature_base.h ****         __ASM volatile("csrw " STRINGIFY(csr) ", %0"            \
 499:../Firmware/RISCV/drivers/core_feature_base.h ****                      :                                          \
 500:../Firmware/RISCV/drivers/core_feature_base.h ****                      : "r"(__v)                                \
 501:../Firmware/RISCV/drivers/core_feature_base.h ****                      : "memory");                               \
 502:../Firmware/RISCV/drivers/core_feature_base.h ****     })
 503:../Firmware/RISCV/drivers/core_feature_base.h **** 
 504:../Firmware/RISCV/drivers/core_feature_base.h **** /**
 505:../Firmware/RISCV/drivers/core_feature_base.h ****  * \brief CSR operation Macro for csrrs instruction.
 506:../Firmware/RISCV/drivers/core_feature_base.h ****  * \details
 507:../Firmware/RISCV/drivers/core_feature_base.h ****  * Read the content of csr register to __v,
 508:../Firmware/RISCV/drivers/core_feature_base.h ****  * then set csr register to be __v | val, then return __v
 509:../Firmware/RISCV/drivers/core_feature_base.h ****  * \param csr   CSR macro definition defined in
 510:../Firmware/RISCV/drivers/core_feature_base.h ****  *              \ref NMSIS_Core_CSR_Registers, eg. \ref CSR_MSTATUS
 511:../Firmware/RISCV/drivers/core_feature_base.h ****  * \param val   Mask value to be used wih csrrs instruction
 512:../Firmware/RISCV/drivers/core_feature_base.h ****  * \return the CSR register value before written
 513:../Firmware/RISCV/drivers/core_feature_base.h ****  */
 514:../Firmware/RISCV/drivers/core_feature_base.h **** #define __RV_CSR_READ_SET(csr, val)                             \
 515:../Firmware/RISCV/drivers/core_feature_base.h ****     ({                                                          \
 516:../Firmware/RISCV/drivers/core_feature_base.h ****         register rv_csr_t __v = (rv_csr_t)(val);                \
 517:../Firmware/RISCV/drivers/core_feature_base.h ****         __ASM volatile("csrrs %0, " STRINGIFY(csr) ", %1"       \
 518:../Firmware/RISCV/drivers/core_feature_base.h ****                      : "=r"(__v)                                \
 519:../Firmware/RISCV/drivers/core_feature_base.h ****                      : "r"(__v)                                \
 520:../Firmware/RISCV/drivers/core_feature_base.h ****                      : "memory");                               \
 521:../Firmware/RISCV/drivers/core_feature_base.h ****         __v;                                                    \
 522:../Firmware/RISCV/drivers/core_feature_base.h ****     })
 523:../Firmware/RISCV/drivers/core_feature_base.h **** 
 524:../Firmware/RISCV/drivers/core_feature_base.h **** /**
 525:../Firmware/RISCV/drivers/core_feature_base.h ****  * \brief CSR operation Macro for csrs instruction.
 526:../Firmware/RISCV/drivers/core_feature_base.h ****  * \details
 527:../Firmware/RISCV/drivers/core_feature_base.h ****  * Set csr register to be csr_content | val
 528:../Firmware/RISCV/drivers/core_feature_base.h ****  * \param csr   CSR macro definition defined in
 529:../Firmware/RISCV/drivers/core_feature_base.h ****  *              \ref NMSIS_Core_CSR_Registers, eg. \ref CSR_MSTATUS
 530:../Firmware/RISCV/drivers/core_feature_base.h ****  * \param val   Mask value to be used wih csrs instruction
 531:../Firmware/RISCV/drivers/core_feature_base.h ****  */
 532:../Firmware/RISCV/drivers/core_feature_base.h **** #define __RV_CSR_SET(csr, val)                                  \
 533:../Firmware/RISCV/drivers/core_feature_base.h ****     ({                                                          \
 534:../Firmware/RISCV/drivers/core_feature_base.h ****         register rv_csr_t __v = (rv_csr_t)(val);                \
 535:../Firmware/RISCV/drivers/core_feature_base.h ****         __ASM volatile("csrs " STRINGIFY(csr) ", %0"            \
 536:../Firmware/RISCV/drivers/core_feature_base.h ****                      :                                          \
 537:../Firmware/RISCV/drivers/core_feature_base.h ****                      : "r"(__v)                                \
 538:../Firmware/RISCV/drivers/core_feature_base.h ****                      : "memory");                               \
 539:../Firmware/RISCV/drivers/core_feature_base.h ****     })
 540:../Firmware/RISCV/drivers/core_feature_base.h **** 
 541:../Firmware/RISCV/drivers/core_feature_base.h **** /**
 542:../Firmware/RISCV/drivers/core_feature_base.h ****  * \brief CSR operation Macro for csrrc instruction.
 543:../Firmware/RISCV/drivers/core_feature_base.h ****  * \details
 544:../Firmware/RISCV/drivers/core_feature_base.h ****  * Read the content of csr register to __v,
 545:../Firmware/RISCV/drivers/core_feature_base.h ****  * then set csr register to be __v & ~val, then return __v
 546:../Firmware/RISCV/drivers/core_feature_base.h ****  * \param csr   CSR macro definition defined in
 547:../Firmware/RISCV/drivers/core_feature_base.h ****  *              \ref NMSIS_Core_CSR_Registers, eg. \ref CSR_MSTATUS
 548:../Firmware/RISCV/drivers/core_feature_base.h ****  * \param val   Mask value to be used wih csrrc instruction
 549:../Firmware/RISCV/drivers/core_feature_base.h ****  * \return the CSR register value before written
 550:../Firmware/RISCV/drivers/core_feature_base.h ****  */
 551:../Firmware/RISCV/drivers/core_feature_base.h **** #define __RV_CSR_READ_CLEAR(csr, val)                           \
 552:../Firmware/RISCV/drivers/core_feature_base.h ****     ({                                                          \
 553:../Firmware/RISCV/drivers/core_feature_base.h ****         register rv_csr_t __v = (rv_csr_t)(val);                \
 554:../Firmware/RISCV/drivers/core_feature_base.h ****         __ASM volatile("csrrc %0, " STRINGIFY(csr) ", %1"       \
 555:../Firmware/RISCV/drivers/core_feature_base.h ****                      : "=r"(__v)                                \
 556:../Firmware/RISCV/drivers/core_feature_base.h ****                      : "r"(__v)                                \
 557:../Firmware/RISCV/drivers/core_feature_base.h ****                      : "memory");                               \
 558:../Firmware/RISCV/drivers/core_feature_base.h ****         __v;                                                    \
 559:../Firmware/RISCV/drivers/core_feature_base.h ****     })
 560:../Firmware/RISCV/drivers/core_feature_base.h **** 
 561:../Firmware/RISCV/drivers/core_feature_base.h **** /**
 562:../Firmware/RISCV/drivers/core_feature_base.h ****  * \brief CSR operation Macro for csrc instruction.
 563:../Firmware/RISCV/drivers/core_feature_base.h ****  * \details
 564:../Firmware/RISCV/drivers/core_feature_base.h ****  * Set csr register to be csr_content & ~val
 565:../Firmware/RISCV/drivers/core_feature_base.h ****  * \param csr   CSR macro definition defined in
 566:../Firmware/RISCV/drivers/core_feature_base.h ****  *              \ref NMSIS_Core_CSR_Registers, eg. \ref CSR_MSTATUS
 567:../Firmware/RISCV/drivers/core_feature_base.h ****  * \param val   Mask value to be used wih csrc instruction
 568:../Firmware/RISCV/drivers/core_feature_base.h ****  */
 569:../Firmware/RISCV/drivers/core_feature_base.h **** #define __RV_CSR_CLEAR(csr, val)                                \
 570:../Firmware/RISCV/drivers/core_feature_base.h ****     ({                                                          \
 571:../Firmware/RISCV/drivers/core_feature_base.h ****         register rv_csr_t __v = (rv_csr_t)(val);                \
 572:../Firmware/RISCV/drivers/core_feature_base.h ****         __ASM volatile("csrc " STRINGIFY(csr) ", %0"            \
 573:../Firmware/RISCV/drivers/core_feature_base.h ****                      :                                          \
 574:../Firmware/RISCV/drivers/core_feature_base.h ****                      : "r"(__v)                                \
 575:../Firmware/RISCV/drivers/core_feature_base.h ****                      : "memory");                               \
 576:../Firmware/RISCV/drivers/core_feature_base.h ****     })
 577:../Firmware/RISCV/drivers/core_feature_base.h **** #endif /* __ASSEMBLY__ */
 578:../Firmware/RISCV/drivers/core_feature_base.h **** 
 579:../Firmware/RISCV/drivers/core_feature_base.h **** /**
 580:../Firmware/RISCV/drivers/core_feature_base.h ****  * \brief   Enable IRQ Interrupts
 581:../Firmware/RISCV/drivers/core_feature_base.h ****  * \details Enables IRQ interrupts by setting the MIE-bit in the MSTATUS Register.
 582:../Firmware/RISCV/drivers/core_feature_base.h ****  * \remarks
 583:../Firmware/RISCV/drivers/core_feature_base.h ****  *          Can only be executed in Privileged modes.
 584:../Firmware/RISCV/drivers/core_feature_base.h ****  */
 585:../Firmware/RISCV/drivers/core_feature_base.h **** __STATIC_FORCEINLINE void __enable_irq(void)
 586:../Firmware/RISCV/drivers/core_feature_base.h **** {
 587:../Firmware/RISCV/drivers/core_feature_base.h ****     __RV_CSR_SET(CSR_MSTATUS, MSTATUS_MIE);
 588:../Firmware/RISCV/drivers/core_feature_base.h **** }
 589:../Firmware/RISCV/drivers/core_feature_base.h **** 
 590:../Firmware/RISCV/drivers/core_feature_base.h **** /**
 591:../Firmware/RISCV/drivers/core_feature_base.h ****  * \brief   Disable IRQ Interrupts
 592:../Firmware/RISCV/drivers/core_feature_base.h ****  * \details Disables IRQ interrupts by clearing the MIE-bit in the MSTATUS Register.
 593:../Firmware/RISCV/drivers/core_feature_base.h ****  * \remarks
 594:../Firmware/RISCV/drivers/core_feature_base.h ****  *          Can only be executed in Privileged modes.
 595:../Firmware/RISCV/drivers/core_feature_base.h ****  */
 596:../Firmware/RISCV/drivers/core_feature_base.h **** __STATIC_FORCEINLINE void __disable_irq(void)
 597:../Firmware/RISCV/drivers/core_feature_base.h **** {
 598:../Firmware/RISCV/drivers/core_feature_base.h ****     __RV_CSR_CLEAR(CSR_MSTATUS, MSTATUS_MIE);
 599:../Firmware/RISCV/drivers/core_feature_base.h **** }
 600:../Firmware/RISCV/drivers/core_feature_base.h **** 
 601:../Firmware/RISCV/drivers/core_feature_base.h **** /**
 602:../Firmware/RISCV/drivers/core_feature_base.h ****  * \brief   Read whole 64 bits value of mcycle counter
 603:../Firmware/RISCV/drivers/core_feature_base.h ****  * \details This function will read the whole 64 bits of MCYCLE register
 604:../Firmware/RISCV/drivers/core_feature_base.h ****  * \return  The whole 64 bits value of MCYCLE
 605:../Firmware/RISCV/drivers/core_feature_base.h ****  * \remarks It will work for both RV32 and RV64 to get full 64bits value of MCYCLE
 606:../Firmware/RISCV/drivers/core_feature_base.h ****  */
 607:../Firmware/RISCV/drivers/core_feature_base.h **** __STATIC_FORCEINLINE uint64_t __get_rv_cycle(void)
 608:../Firmware/RISCV/drivers/core_feature_base.h **** {
 609:../Firmware/RISCV/drivers/core_feature_base.h **** #if __RISCV_XLEN == 32
 610:../Firmware/RISCV/drivers/core_feature_base.h ****     volatile uint32_t high0, low, high;
 611:../Firmware/RISCV/drivers/core_feature_base.h ****     uint64_t full;
 612:../Firmware/RISCV/drivers/core_feature_base.h **** 
 613:../Firmware/RISCV/drivers/core_feature_base.h ****     high0 = __RV_CSR_READ(CSR_MCYCLEH);
 614:../Firmware/RISCV/drivers/core_feature_base.h ****     low = __RV_CSR_READ(CSR_MCYCLE);
 615:../Firmware/RISCV/drivers/core_feature_base.h ****     high = __RV_CSR_READ(CSR_MCYCLEH);
 616:../Firmware/RISCV/drivers/core_feature_base.h ****     if (high0 != high) {
 617:../Firmware/RISCV/drivers/core_feature_base.h ****         low = __RV_CSR_READ(CSR_MCYCLE);
 618:../Firmware/RISCV/drivers/core_feature_base.h ****     }
 619:../Firmware/RISCV/drivers/core_feature_base.h ****     full = (((uint64_t)high) << 32) | low;
 620:../Firmware/RISCV/drivers/core_feature_base.h ****     return full;
 621:../Firmware/RISCV/drivers/core_feature_base.h **** #elif __RISCV_XLEN == 64
 622:../Firmware/RISCV/drivers/core_feature_base.h ****     return (uint64_t)__RV_CSR_READ(CSR_MCYCLE);
 623:../Firmware/RISCV/drivers/core_feature_base.h **** #else // TODO Need cover for XLEN=128 case in future
 624:../Firmware/RISCV/drivers/core_feature_base.h ****     return (uint64_t)__RV_CSR_READ(CSR_MCYCLE);
 625:../Firmware/RISCV/drivers/core_feature_base.h **** #endif
 626:../Firmware/RISCV/drivers/core_feature_base.h **** }
 627:../Firmware/RISCV/drivers/core_feature_base.h **** 
 628:../Firmware/RISCV/drivers/core_feature_base.h **** /**
 629:../Firmware/RISCV/drivers/core_feature_base.h ****  * \brief   Read whole 64 bits value of machine instruction-retired counter
 630:../Firmware/RISCV/drivers/core_feature_base.h ****  * \details This function will read the whole 64 bits of MINSTRET register
 631:../Firmware/RISCV/drivers/core_feature_base.h ****  * \return  The whole 64 bits value of MINSTRET
 632:../Firmware/RISCV/drivers/core_feature_base.h ****  * \remarks It will work for both RV32 and RV64 to get full 64bits value of MINSTRET
 633:../Firmware/RISCV/drivers/core_feature_base.h ****  */
 634:../Firmware/RISCV/drivers/core_feature_base.h **** __STATIC_FORCEINLINE uint64_t __get_rv_instret(void)
 635:../Firmware/RISCV/drivers/core_feature_base.h **** {
 636:../Firmware/RISCV/drivers/core_feature_base.h **** #if __RISCV_XLEN == 32
 637:../Firmware/RISCV/drivers/core_feature_base.h ****     volatile uint32_t high0, low, high;
 638:../Firmware/RISCV/drivers/core_feature_base.h ****     uint64_t full;
 639:../Firmware/RISCV/drivers/core_feature_base.h **** 
 640:../Firmware/RISCV/drivers/core_feature_base.h ****     high0 = __RV_CSR_READ(CSR_MINSTRETH);
 641:../Firmware/RISCV/drivers/core_feature_base.h ****     low = __RV_CSR_READ(CSR_MINSTRET);
 642:../Firmware/RISCV/drivers/core_feature_base.h ****     high = __RV_CSR_READ(CSR_MINSTRETH);
 643:../Firmware/RISCV/drivers/core_feature_base.h ****     if (high0 != high) {
 644:../Firmware/RISCV/drivers/core_feature_base.h ****         low = __RV_CSR_READ(CSR_MINSTRET);
 645:../Firmware/RISCV/drivers/core_feature_base.h ****     }
 646:../Firmware/RISCV/drivers/core_feature_base.h ****     full = (((uint64_t)high) << 32) | low;
 647:../Firmware/RISCV/drivers/core_feature_base.h ****     return full;
 648:../Firmware/RISCV/drivers/core_feature_base.h **** #elif __RISCV_XLEN == 64
 649:../Firmware/RISCV/drivers/core_feature_base.h ****     return (uint64_t)__RV_CSR_READ(CSR_MINSTRET);
 650:../Firmware/RISCV/drivers/core_feature_base.h **** #else // TODO Need cover for XLEN=128 case in future
 651:../Firmware/RISCV/drivers/core_feature_base.h ****     return (uint64_t)__RV_CSR_READ(CSR_MINSTRET);
 652:../Firmware/RISCV/drivers/core_feature_base.h **** #endif
 653:../Firmware/RISCV/drivers/core_feature_base.h **** }
 654:../Firmware/RISCV/drivers/core_feature_base.h **** 
 655:../Firmware/RISCV/drivers/core_feature_base.h **** /**
 656:../Firmware/RISCV/drivers/core_feature_base.h ****  * \brief   Read whole 64 bits value of real-time clock
 657:../Firmware/RISCV/drivers/core_feature_base.h ****  * \details This function will read the whole 64 bits of TIME register
 658:../Firmware/RISCV/drivers/core_feature_base.h ****  * \return  The whole 64 bits value of TIME CSR
 659:../Firmware/RISCV/drivers/core_feature_base.h ****  * \remarks It will work for both RV32 and RV64 to get full 64bits value of TIME
 660:../Firmware/RISCV/drivers/core_feature_base.h ****  * \attention only available when user mode available
 661:../Firmware/RISCV/drivers/core_feature_base.h ****  */
 662:../Firmware/RISCV/drivers/core_feature_base.h **** __STATIC_FORCEINLINE uint64_t __get_rv_time(void)
 663:../Firmware/RISCV/drivers/core_feature_base.h **** {
 664:../Firmware/RISCV/drivers/core_feature_base.h **** #if __RISCV_XLEN == 32
 665:../Firmware/RISCV/drivers/core_feature_base.h ****     volatile uint32_t high0, low, high;
 666:../Firmware/RISCV/drivers/core_feature_base.h ****     uint64_t full;
 667:../Firmware/RISCV/drivers/core_feature_base.h **** 
 668:../Firmware/RISCV/drivers/core_feature_base.h ****     high0 = __RV_CSR_READ(CSR_TIMEH);
 669:../Firmware/RISCV/drivers/core_feature_base.h ****     low = __RV_CSR_READ(CSR_TIME);
 670:../Firmware/RISCV/drivers/core_feature_base.h ****     high = __RV_CSR_READ(CSR_TIMEH);
 671:../Firmware/RISCV/drivers/core_feature_base.h ****     if (high0 != high) {
 672:../Firmware/RISCV/drivers/core_feature_base.h ****         low = __RV_CSR_READ(CSR_TIME);
 673:../Firmware/RISCV/drivers/core_feature_base.h ****     }
 674:../Firmware/RISCV/drivers/core_feature_base.h ****     full = (((uint64_t)high) << 32) | low;
 675:../Firmware/RISCV/drivers/core_feature_base.h ****     return full;
 676:../Firmware/RISCV/drivers/core_feature_base.h **** #elif __RISCV_XLEN == 64
 677:../Firmware/RISCV/drivers/core_feature_base.h ****     return (uint64_t)__RV_CSR_READ(CSR_TIME);
 678:../Firmware/RISCV/drivers/core_feature_base.h **** #else // TODO Need cover for XLEN=128 case in future
 679:../Firmware/RISCV/drivers/core_feature_base.h ****     return (uint64_t)__RV_CSR_READ(CSR_TIME);
 680:../Firmware/RISCV/drivers/core_feature_base.h **** #endif
 681:../Firmware/RISCV/drivers/core_feature_base.h **** }
 682:../Firmware/RISCV/drivers/core_feature_base.h **** 
 683:../Firmware/RISCV/drivers/core_feature_base.h **** /** @} */ /* End of Doxygen Group NMSIS_Core_CSR_Register_Access */
 684:../Firmware/RISCV/drivers/core_feature_base.h **** 
 685:../Firmware/RISCV/drivers/core_feature_base.h **** /* ###########################  CPU Intrinsic Functions ########################### */
 686:../Firmware/RISCV/drivers/core_feature_base.h **** /**
 687:../Firmware/RISCV/drivers/core_feature_base.h ****  * \defgroup NMSIS_Core_CPU_Intrinsic   Intrinsic Functions for CPU Intructions
 688:../Firmware/RISCV/drivers/core_feature_base.h ****  * \ingroup  NMSIS_Core
 689:../Firmware/RISCV/drivers/core_feature_base.h ****  * \brief    Functions that generate RISC-V CPU instructions.
 690:../Firmware/RISCV/drivers/core_feature_base.h ****  * \details
 691:../Firmware/RISCV/drivers/core_feature_base.h ****  *
 692:../Firmware/RISCV/drivers/core_feature_base.h ****  * The following functions generate specified RISC-V instructions that cannot be directly accessed 
 693:../Firmware/RISCV/drivers/core_feature_base.h ****  *   @{
 694:../Firmware/RISCV/drivers/core_feature_base.h ****  */
 695:../Firmware/RISCV/drivers/core_feature_base.h **** 
 696:../Firmware/RISCV/drivers/core_feature_base.h **** /**
 697:../Firmware/RISCV/drivers/core_feature_base.h ****  * \brief   NOP Instruction
 698:../Firmware/RISCV/drivers/core_feature_base.h ****  * \details
 699:../Firmware/RISCV/drivers/core_feature_base.h ****  * No Operation does nothing.
 700:../Firmware/RISCV/drivers/core_feature_base.h ****  * This instruction can be used for code alignment purposes.
 701:../Firmware/RISCV/drivers/core_feature_base.h ****  */
 702:../Firmware/RISCV/drivers/core_feature_base.h **** __STATIC_FORCEINLINE void __NOP(void)
 703:../Firmware/RISCV/drivers/core_feature_base.h **** {
 704:../Firmware/RISCV/drivers/core_feature_base.h ****     __ASM volatile("nop");
 705:../Firmware/RISCV/drivers/core_feature_base.h **** }
 706:../Firmware/RISCV/drivers/core_feature_base.h **** 
 707:../Firmware/RISCV/drivers/core_feature_base.h **** /**
 708:../Firmware/RISCV/drivers/core_feature_base.h ****  * \brief   Wait For Interrupt
 709:../Firmware/RISCV/drivers/core_feature_base.h ****  * \details
 710:../Firmware/RISCV/drivers/core_feature_base.h ****  * Wait For Interrupt is is executed using CSR_WFE.WFE=0 and WFI instruction.
 711:../Firmware/RISCV/drivers/core_feature_base.h ****  * It will suspends execution until interrupt, NMI or Debug happened.
 712:../Firmware/RISCV/drivers/core_feature_base.h ****  * When Core is waked up by interrupt, if
 713:../Firmware/RISCV/drivers/core_feature_base.h ****  * 1. mstatus.MIE == 1(interrupt enabled), Core will enter ISR code
 714:../Firmware/RISCV/drivers/core_feature_base.h ****  * 2. mstatus.MIE == 0(interrupt disabled), Core will resume previous execution
 715:../Firmware/RISCV/drivers/core_feature_base.h ****  */
 716:../Firmware/RISCV/drivers/core_feature_base.h **** __STATIC_FORCEINLINE void __WFI(void)
 717:../Firmware/RISCV/drivers/core_feature_base.h **** {
 718:../Firmware/RISCV/drivers/core_feature_base.h ****     __RV_CSR_CLEAR(CSR_WFE, WFE_WFE);
 719:../Firmware/RISCV/drivers/core_feature_base.h ****     __ASM volatile("wfi");
 720:../Firmware/RISCV/drivers/core_feature_base.h **** }
 721:../Firmware/RISCV/drivers/core_feature_base.h **** 
 722:../Firmware/RISCV/drivers/core_feature_base.h **** /**
 723:../Firmware/RISCV/drivers/core_feature_base.h ****  * \brief   Wait For Event
 724:../Firmware/RISCV/drivers/core_feature_base.h ****  * \details
 725:../Firmware/RISCV/drivers/core_feature_base.h ****  * Wait For Event is executed using CSR_WFE.WFE=1 and WFI instruction.
 726:../Firmware/RISCV/drivers/core_feature_base.h ****  * It will suspends execution until event, NMI or Debug happened.
 727:../Firmware/RISCV/drivers/core_feature_base.h ****  * When Core is waked up, Core will resume previous execution
 728:../Firmware/RISCV/drivers/core_feature_base.h ****  */
 729:../Firmware/RISCV/drivers/core_feature_base.h **** __STATIC_FORCEINLINE void __WFE(void)
 730:../Firmware/RISCV/drivers/core_feature_base.h **** {
 731:../Firmware/RISCV/drivers/core_feature_base.h ****     __RV_CSR_SET(CSR_WFE, WFE_WFE);
 732:../Firmware/RISCV/drivers/core_feature_base.h ****     __ASM volatile("wfi");
 733:../Firmware/RISCV/drivers/core_feature_base.h ****     __RV_CSR_CLEAR(CSR_WFE, WFE_WFE);
 734:../Firmware/RISCV/drivers/core_feature_base.h **** }
 735:../Firmware/RISCV/drivers/core_feature_base.h **** 
 736:../Firmware/RISCV/drivers/core_feature_base.h **** /**
 737:../Firmware/RISCV/drivers/core_feature_base.h ****  * \brief   Breakpoint Instruction
 738:../Firmware/RISCV/drivers/core_feature_base.h ****  * \details
 739:../Firmware/RISCV/drivers/core_feature_base.h ****  * Causes the processor to enter Debug state.
 740:../Firmware/RISCV/drivers/core_feature_base.h ****  * Debug tools can use this to investigate system state
 741:../Firmware/RISCV/drivers/core_feature_base.h ****  * when the instruction at a particular address is reached.
 742:../Firmware/RISCV/drivers/core_feature_base.h ****  */
 743:../Firmware/RISCV/drivers/core_feature_base.h **** __STATIC_FORCEINLINE void __EBREAK(void)
 744:../Firmware/RISCV/drivers/core_feature_base.h **** {
 745:../Firmware/RISCV/drivers/core_feature_base.h ****     __ASM volatile("ebreak");
 746:../Firmware/RISCV/drivers/core_feature_base.h **** }
 747:../Firmware/RISCV/drivers/core_feature_base.h **** 
 748:../Firmware/RISCV/drivers/core_feature_base.h **** /**
 749:../Firmware/RISCV/drivers/core_feature_base.h ****  * \brief   Environment Call Instruction
 750:../Firmware/RISCV/drivers/core_feature_base.h ****  * \details
 751:../Firmware/RISCV/drivers/core_feature_base.h ****  * The ECALL instruction is used to make a service request to
 752:../Firmware/RISCV/drivers/core_feature_base.h ****  * the execution environment.
 753:../Firmware/RISCV/drivers/core_feature_base.h ****  */
 754:../Firmware/RISCV/drivers/core_feature_base.h **** __STATIC_FORCEINLINE void __ECALL(void)
 755:../Firmware/RISCV/drivers/core_feature_base.h **** {
 756:../Firmware/RISCV/drivers/core_feature_base.h ****     __ASM volatile("ecall");
 757:../Firmware/RISCV/drivers/core_feature_base.h **** }
 758:../Firmware/RISCV/drivers/core_feature_base.h **** 
 759:../Firmware/RISCV/drivers/core_feature_base.h **** /**
 760:../Firmware/RISCV/drivers/core_feature_base.h ****  * \brief WFI Sleep Mode enumeration
 761:../Firmware/RISCV/drivers/core_feature_base.h ****  */
 762:../Firmware/RISCV/drivers/core_feature_base.h **** typedef enum WFI_SleepMode {
 763:../Firmware/RISCV/drivers/core_feature_base.h ****     WFI_SHALLOW_SLEEP = 0,      /*!< Shallow sleep mode, the core_clk will poweroff */
 764:../Firmware/RISCV/drivers/core_feature_base.h ****     WFI_DEEP_SLEEP = 1          /*!< Deep sleep mode, the core_clk and core_ano_clk will poweroff *
 765:../Firmware/RISCV/drivers/core_feature_base.h **** } WFI_SleepMode_Type;
 766:../Firmware/RISCV/drivers/core_feature_base.h **** 
 767:../Firmware/RISCV/drivers/core_feature_base.h **** /**
 768:../Firmware/RISCV/drivers/core_feature_base.h ****  * \brief   Set Sleep mode of WFI
 769:../Firmware/RISCV/drivers/core_feature_base.h ****  * \details
 770:../Firmware/RISCV/drivers/core_feature_base.h ****  * Set the SLEEPVALUE CSR register to control the
 771:../Firmware/RISCV/drivers/core_feature_base.h ****  * WFI Sleep mode.
 772:../Firmware/RISCV/drivers/core_feature_base.h ****  * \param[in] mode      The sleep mode to be set
 773:../Firmware/RISCV/drivers/core_feature_base.h ****  */
 774:../Firmware/RISCV/drivers/core_feature_base.h **** __STATIC_FORCEINLINE void __set_wfi_sleepmode(WFI_SleepMode_Type mode)
 775:../Firmware/RISCV/drivers/core_feature_base.h **** {
 776:../Firmware/RISCV/drivers/core_feature_base.h ****     __RV_CSR_WRITE(CSR_SLEEPVALUE, mode);
 777:../Firmware/RISCV/drivers/core_feature_base.h **** }
 778:../Firmware/RISCV/drivers/core_feature_base.h **** 
 779:../Firmware/RISCV/drivers/core_feature_base.h **** /**
 780:../Firmware/RISCV/drivers/core_feature_base.h ****  * \brief   Send TX Event
 781:../Firmware/RISCV/drivers/core_feature_base.h ****  * \details
 782:../Firmware/RISCV/drivers/core_feature_base.h ****  * Set the CSR TXEVT to control send a TX Event.
 783:../Firmware/RISCV/drivers/core_feature_base.h ****  * The Core will output signal tx_evt as output event signal.
 784:../Firmware/RISCV/drivers/core_feature_base.h ****  */
 785:../Firmware/RISCV/drivers/core_feature_base.h **** __STATIC_FORCEINLINE void __TXEVT(void)
 786:../Firmware/RISCV/drivers/core_feature_base.h **** {
 787:../Firmware/RISCV/drivers/core_feature_base.h ****     __RV_CSR_SET(CSR_TXEVT, 0x1);
 788:../Firmware/RISCV/drivers/core_feature_base.h **** }
 789:../Firmware/RISCV/drivers/core_feature_base.h **** 
 790:../Firmware/RISCV/drivers/core_feature_base.h **** /**
 791:../Firmware/RISCV/drivers/core_feature_base.h ****  * \brief   Enable MCYCLE counter
 792:../Firmware/RISCV/drivers/core_feature_base.h ****  * \details
 793:../Firmware/RISCV/drivers/core_feature_base.h ****  * Clear the CY bit of MCOUNTINHIBIT to 0 to enable MCYCLE Counter
 794:../Firmware/RISCV/drivers/core_feature_base.h ****  */
 795:../Firmware/RISCV/drivers/core_feature_base.h **** __STATIC_FORCEINLINE void __enable_mcycle_counter(void)
 796:../Firmware/RISCV/drivers/core_feature_base.h **** {
 797:../Firmware/RISCV/drivers/core_feature_base.h ****     __RV_CSR_CLEAR(CSR_MCOUNTINHIBIT, MCOUNTINHIBIT_CY);
 798:../Firmware/RISCV/drivers/core_feature_base.h **** }
 799:../Firmware/RISCV/drivers/core_feature_base.h **** 
 800:../Firmware/RISCV/drivers/core_feature_base.h **** /**
 801:../Firmware/RISCV/drivers/core_feature_base.h ****  * \brief   Disable MCYCLE counter
 802:../Firmware/RISCV/drivers/core_feature_base.h ****  * \details
 803:../Firmware/RISCV/drivers/core_feature_base.h ****  * Set the CY bit of MCOUNTINHIBIT to 1 to disable MCYCLE Counter
 804:../Firmware/RISCV/drivers/core_feature_base.h ****  */
 805:../Firmware/RISCV/drivers/core_feature_base.h **** __STATIC_FORCEINLINE void __disable_mcycle_counter(void)
 806:../Firmware/RISCV/drivers/core_feature_base.h **** {
 807:../Firmware/RISCV/drivers/core_feature_base.h ****     __RV_CSR_SET(CSR_MCOUNTINHIBIT, MCOUNTINHIBIT_CY);
 808:../Firmware/RISCV/drivers/core_feature_base.h **** }
 809:../Firmware/RISCV/drivers/core_feature_base.h **** 
 810:../Firmware/RISCV/drivers/core_feature_base.h **** /**
 811:../Firmware/RISCV/drivers/core_feature_base.h ****  * \brief   Enable MINSTRET counter
 812:../Firmware/RISCV/drivers/core_feature_base.h ****  * \details
 813:../Firmware/RISCV/drivers/core_feature_base.h ****  * Clear the IR bit of MCOUNTINHIBIT to 0 to enable MINSTRET Counter
 814:../Firmware/RISCV/drivers/core_feature_base.h ****  */
 815:../Firmware/RISCV/drivers/core_feature_base.h **** __STATIC_FORCEINLINE void __enable_minstret_counter(void)
 816:../Firmware/RISCV/drivers/core_feature_base.h **** {
 817:../Firmware/RISCV/drivers/core_feature_base.h ****     __RV_CSR_CLEAR(CSR_MCOUNTINHIBIT, MCOUNTINHIBIT_IR);
 818:../Firmware/RISCV/drivers/core_feature_base.h **** }
 819:../Firmware/RISCV/drivers/core_feature_base.h **** 
 820:../Firmware/RISCV/drivers/core_feature_base.h **** /**
 821:../Firmware/RISCV/drivers/core_feature_base.h ****  * \brief   Disable MINSTRET counter
 822:../Firmware/RISCV/drivers/core_feature_base.h ****  * \details
 823:../Firmware/RISCV/drivers/core_feature_base.h ****  * Set the IR bit of MCOUNTINHIBIT to 1 to disable MINSTRET Counter
 824:../Firmware/RISCV/drivers/core_feature_base.h ****  */
 825:../Firmware/RISCV/drivers/core_feature_base.h **** __STATIC_FORCEINLINE void __disable_minstret_counter(void)
 826:../Firmware/RISCV/drivers/core_feature_base.h **** {
 827:../Firmware/RISCV/drivers/core_feature_base.h ****     __RV_CSR_SET(CSR_MCOUNTINHIBIT, MCOUNTINHIBIT_IR);
 828:../Firmware/RISCV/drivers/core_feature_base.h **** }
 829:../Firmware/RISCV/drivers/core_feature_base.h **** 
 830:../Firmware/RISCV/drivers/core_feature_base.h **** /**
 831:../Firmware/RISCV/drivers/core_feature_base.h ****  * \brief   Enable MCYCLE & MINSTRET counter
 832:../Firmware/RISCV/drivers/core_feature_base.h ****  * \details
 833:../Firmware/RISCV/drivers/core_feature_base.h ****  * Clear the IR and CY bit of MCOUNTINHIBIT to 1 to enable MINSTRET & MCYCLE Counter
 834:../Firmware/RISCV/drivers/core_feature_base.h ****  */
 835:../Firmware/RISCV/drivers/core_feature_base.h **** __STATIC_FORCEINLINE void __enable_all_counter(void)
 836:../Firmware/RISCV/drivers/core_feature_base.h **** {
 837:../Firmware/RISCV/drivers/core_feature_base.h ****     __RV_CSR_CLEAR(CSR_MCOUNTINHIBIT, MCOUNTINHIBIT_IR|MCOUNTINHIBIT_CY);
 838:../Firmware/RISCV/drivers/core_feature_base.h **** }
 839:../Firmware/RISCV/drivers/core_feature_base.h **** 
 840:../Firmware/RISCV/drivers/core_feature_base.h **** /**
 841:../Firmware/RISCV/drivers/core_feature_base.h ****  * \brief   Disable MCYCLE & MINSTRET counter
 842:../Firmware/RISCV/drivers/core_feature_base.h ****  * \details
 843:../Firmware/RISCV/drivers/core_feature_base.h ****  * Set the IR and CY bit of MCOUNTINHIBIT to 1 to disable MINSTRET & MCYCLE Counter
 844:../Firmware/RISCV/drivers/core_feature_base.h ****  */
 845:../Firmware/RISCV/drivers/core_feature_base.h **** __STATIC_FORCEINLINE void __disable_all_counter(void)
 846:../Firmware/RISCV/drivers/core_feature_base.h **** {
 847:../Firmware/RISCV/drivers/core_feature_base.h ****     __RV_CSR_SET(CSR_MCOUNTINHIBIT, MCOUNTINHIBIT_IR|MCOUNTINHIBIT_CY);
  64              		.loc 3 847 5
  65 004e 9544     		li	s1,5
  66              	 #APP
  67              	# 847 "../Firmware/RISCV/drivers/core_feature_base.h" 1
 848              	}
  68              		csrs 0x320, s1
  69              	# 0 "" 2
  70              	 #NO_APP
  71              	.LBE13:
  72              		.loc 3 848 1
  73 0054 0100     		nop
  74              	.LBE12:
  75              	.LBE11:
  50:../Firmware/RISCV/env_Eclipse/init.c **** 
  51:../Firmware/RISCV/env_Eclipse/init.c ****     /* Before enter into main, disable mcycle and minstret counter by default to save power */
  52:../Firmware/RISCV/env_Eclipse/init.c ****     __disable_all_counter();
  53:../Firmware/RISCV/env_Eclipse/init.c **** }
  76              		.loc 1 53 1
  77 0056 0100     		nop
  78 0058 B240     		lw	ra,12(sp)
  79              		.cfi_restore 1
  80 005a 2244     		lw	s0,8(sp)
  81              		.cfi_restore 8
  82              		.cfi_def_cfa 2, 16
  83 005c 9244     		lw	s1,4(sp)
  84              		.cfi_restore 9
  85 005e 4101     		addi	sp,sp,16
  86              		.cfi_def_cfa_offset 0
  87 0060 8280     		jr	ra
  88              		.cfi_endproc
  89              	.LFE347:
  91              		.section	.text._postmain_fini,"ax",@progbits
  92              		.align	1
  93              		.globl	_postmain_fini
  95              	_postmain_fini:
  96              	.LFB348:
  54:../Firmware/RISCV/env_Eclipse/init.c **** 
  55:../Firmware/RISCV/env_Eclipse/init.c **** /**
  56:../Firmware/RISCV/env_Eclipse/init.c ****  * \brief finish function after main
  57:../Firmware/RISCV/env_Eclipse/init.c ****  * \param [in]  status     status code return from main
  58:../Firmware/RISCV/env_Eclipse/init.c ****  * \details
  59:../Firmware/RISCV/env_Eclipse/init.c ****  * This function is executed right after main function.
  60:../Firmware/RISCV/env_Eclipse/init.c ****  * For RISC-V gnu toolchain, _fini function might not be called
  61:../Firmware/RISCV/env_Eclipse/init.c ****  * by __libc_fini_array function, so we defined a new function
  62:../Firmware/RISCV/env_Eclipse/init.c ****  * to do initialization
  63:../Firmware/RISCV/env_Eclipse/init.c ****  */
  64:../Firmware/RISCV/env_Eclipse/init.c **** void _postmain_fini(int status)
  65:../Firmware/RISCV/env_Eclipse/init.c **** {
  97              		.loc 1 65 1
  98              		.cfi_startproc
  99 0000 0111     		addi	sp,sp,-32
 100              		.cfi_def_cfa_offset 32
 101 0002 22CE     		sw	s0,28(sp)
 102              		.cfi_offset 8, -4
 103 0004 0010     		addi	s0,sp,32
 104              		.cfi_def_cfa 8, 0
 105 0006 2326A4FE 		sw	a0,-20(s0)
  66:../Firmware/RISCV/env_Eclipse/init.c ****     /* TODO: Add your own finishing code here, called after main */
  67:../Firmware/RISCV/env_Eclipse/init.c **** }
 106              		.loc 1 67 1
 107 000a 0100     		nop
 108 000c 7244     		lw	s0,28(sp)
 109              		.cfi_restore 8
 110              		.cfi_def_cfa 2, 32
 111 000e 0561     		addi	sp,sp,32
 112              		.cfi_def_cfa_offset 0
 113 0010 8280     		jr	ra
 114              		.cfi_endproc
 115              	.LFE348:
 117              		.section	.text._init,"ax",@progbits
 118              		.align	1
 119              		.globl	_init
 121              	_init:
 122              	.LFB349:
  68:../Firmware/RISCV/env_Eclipse/init.c **** 
  69:../Firmware/RISCV/env_Eclipse/init.c **** /**
  70:../Firmware/RISCV/env_Eclipse/init.c ****  * \brief _init function called in __libc_init_array()
  71:../Firmware/RISCV/env_Eclipse/init.c ****  * \details
  72:../Firmware/RISCV/env_Eclipse/init.c ****  * This `__libc_init_array()` function is called during startup code,
  73:../Firmware/RISCV/env_Eclipse/init.c ****  * user need to implement this function, otherwise when link it will
  74:../Firmware/RISCV/env_Eclipse/init.c ****  * error init.c:(.text.__libc_init_array+0x26): undefined reference to `_init'
  75:../Firmware/RISCV/env_Eclipse/init.c ****  * \note
  76:../Firmware/RISCV/env_Eclipse/init.c ****  * Please use \ref _premain_init function now
  77:../Firmware/RISCV/env_Eclipse/init.c ****  */
  78:../Firmware/RISCV/env_Eclipse/init.c **** void _init(void)
  79:../Firmware/RISCV/env_Eclipse/init.c **** {
 123              		.loc 1 79 1
 124              		.cfi_startproc
 125 0000 4111     		addi	sp,sp,-16
 126              		.cfi_def_cfa_offset 16
 127 0002 22C6     		sw	s0,12(sp)
 128              		.cfi_offset 8, -4
 129 0004 0008     		addi	s0,sp,16
 130              		.cfi_def_cfa 8, 0
  80:../Firmware/RISCV/env_Eclipse/init.c ****     /* Don't put any code here, please use _premain_init now */
  81:../Firmware/RISCV/env_Eclipse/init.c **** }
 131              		.loc 1 81 1
 132 0006 0100     		nop
 133 0008 3244     		lw	s0,12(sp)
 134              		.cfi_restore 8
 135              		.cfi_def_cfa 2, 16
 136 000a 4101     		addi	sp,sp,16
 137              		.cfi_def_cfa_offset 0
 138 000c 8280     		jr	ra
 139              		.cfi_endproc
 140              	.LFE349:
 142              		.section	.text._fini,"ax",@progbits
 143              		.align	1
 144              		.globl	_fini
 146              	_fini:
 147              	.LFB350:
  82:../Firmware/RISCV/env_Eclipse/init.c **** 
  83:../Firmware/RISCV/env_Eclipse/init.c **** /**
  84:../Firmware/RISCV/env_Eclipse/init.c ****  * \brief _fini function called in __libc_fini_array()
  85:../Firmware/RISCV/env_Eclipse/init.c ****  * \details
  86:../Firmware/RISCV/env_Eclipse/init.c ****  * This `__libc_fini_array()` function is called when exit main.
  87:../Firmware/RISCV/env_Eclipse/init.c ****  * user need to implement this function, otherwise when link it will
  88:../Firmware/RISCV/env_Eclipse/init.c ****  * error fini.c:(.text.__libc_fini_array+0x28): undefined reference to `_fini'
  89:../Firmware/RISCV/env_Eclipse/init.c ****  * \note
  90:../Firmware/RISCV/env_Eclipse/init.c ****  * Please use \ref _postmain_fini function now
  91:../Firmware/RISCV/env_Eclipse/init.c ****  */
  92:../Firmware/RISCV/env_Eclipse/init.c **** void _fini(void)
  93:../Firmware/RISCV/env_Eclipse/init.c **** {
 148              		.loc 1 93 1
 149              		.cfi_startproc
 150 0000 4111     		addi	sp,sp,-16
 151              		.cfi_def_cfa_offset 16
 152 0002 22C6     		sw	s0,12(sp)
 153              		.cfi_offset 8, -4
 154 0004 0008     		addi	s0,sp,16
 155              		.cfi_def_cfa 8, 0
  94:../Firmware/RISCV/env_Eclipse/init.c ****     /* Don't put any code here, please use _postmain_fini now */
  95:../Firmware/RISCV/env_Eclipse/init.c **** }
 156              		.loc 1 95 1
 157 0006 0100     		nop
 158 0008 3244     		lw	s0,12(sp)
 159              		.cfi_restore 8
 160              		.cfi_def_cfa 2, 16
 161 000a 4101     		addi	sp,sp,16
 162              		.cfi_def_cfa_offset 0
 163 000c 8280     		jr	ra
 164              		.cfi_endproc
 165              	.LFE350:
 167              		.text
 168              	.Letext0:
 169              		.file 4 "e:\\gd32\\gd32embeddedbuilder_v1.5.2.30854\\tools\\nuclei_riscv_newlibc_prebuilt_win32_20
 170              		.file 5 "e:\\gd32\\gd32embeddedbuilder_v1.5.2.30854\\tools\\nuclei_riscv_newlibc_prebuilt_win32_20
 171              		.file 6 "../Firmware/GD32VW55x_standard_peripheral/gd32vw55x.h"