   1              		.file	"sbrk.c"
   2              		.option nopic
   3              		.attribute arch, "rv32i2p0_m2p0_a2p0_c2p0"
   4              		.attribute unaligned_access, 0
   5              		.attribute stack_align, 16
   6              		.text
   7              	.Ltext0:
   8              		.cfi_sections	.debug_frame
   9              		.section	.sdata.curbrk.0,"aw"
  10              		.align	2
  13              	curbrk.0:
  14 0000 00000000 		.word	_end
  15              		.section	.text._sbrk,"ax",@progbits
  16              		.align	1
  17              		.globl	_sbrk
  19              	_sbrk:
  20              	.LFB0:
  21              		.file 1 "../Firmware/RISCV/stubs/sbrk.c"
   1:../Firmware/RISCV/stubs/sbrk.c **** /* See LICENSE of license details. */
   2:../Firmware/RISCV/stubs/sbrk.c **** 
   3:../Firmware/RISCV/stubs/sbrk.c **** #include <stddef.h>
   4:../Firmware/RISCV/stubs/sbrk.c **** 
   5:../Firmware/RISCV/stubs/sbrk.c **** void *_sbrk(ptrdiff_t incr)
   6:../Firmware/RISCV/stubs/sbrk.c **** {
  22              		.loc 1 6 1
  23              		.cfi_startproc
  24 0000 0111     		addi	sp,sp,-32
  25              		.cfi_def_cfa_offset 32
  26 0002 22CE     		sw	s0,28(sp)
  27              		.cfi_offset 8, -4
  28 0004 0010     		addi	s0,sp,32
  29              		.cfi_def_cfa 8, 0
  30 0006 2326A4FE 		sw	a0,-20(s0)
   7:../Firmware/RISCV/stubs/sbrk.c ****   extern char _end[];
   8:../Firmware/RISCV/stubs/sbrk.c ****   extern char _heap_end[];
   9:../Firmware/RISCV/stubs/sbrk.c ****   static char *curbrk = _end;
  10:../Firmware/RISCV/stubs/sbrk.c **** 
  11:../Firmware/RISCV/stubs/sbrk.c ****   if ((curbrk + incr < _end) || (curbrk + incr > _heap_end))
  31              		.loc 1 11 15
  32 000a 97070000 		lla	a5,curbrk.0
  32      93870700 
  33 0012 9843     		lw	a4,0(a5)
  34 0014 8327C4FE 		lw	a5,-20(s0)
  35 0018 3E97     		add	a4,a4,a5
  36              		.loc 1 11 6
  37 001a 97070000 		lla	a5,_end
  37      93870700 
  38 0022 6360F702 		bltu	a4,a5,.L2
  39              		.loc 1 11 41 discriminator 1
  40 0026 97070000 		lla	a5,curbrk.0
  40      93870700 
  41 002e 9843     		lw	a4,0(a5)
  42 0030 8327C4FE 		lw	a5,-20(s0)
  43 0034 3E97     		add	a4,a4,a5
  44              		.loc 1 11 30 discriminator 1
  45 0036 97070000 		lla	a5,_heap_end
  45      93870700 
  46 003e 63F4E700 		bleu	a4,a5,.L3
  47              	.L2:
  12:../Firmware/RISCV/stubs/sbrk.c ****     return NULL - 1;
  48              		.loc 1 12 17
  49 0042 FD57     		li	a5,-1
  50 0044 05A8     		j	.L4
  51              	.L3:
  13:../Firmware/RISCV/stubs/sbrk.c **** 
  14:../Firmware/RISCV/stubs/sbrk.c ****   curbrk += incr;
  52              		.loc 1 14 10
  53 0046 97070000 		lla	a5,curbrk.0
  53      93870700 
  54 004e 9843     		lw	a4,0(a5)
  55 0050 8327C4FE 		lw	a5,-20(s0)
  56 0054 3E97     		add	a4,a4,a5
  57 0056 97070000 		lla	a5,curbrk.0
  57      93870700 
  58 005e 98C3     		sw	a4,0(a5)
  15:../Firmware/RISCV/stubs/sbrk.c ****   return curbrk - incr;
  59              		.loc 1 15 17
  60 0060 97070000 		lla	a5,curbrk.0
  60      93870700 
  61 0068 9843     		lw	a4,0(a5)
  62 006a 8327C4FE 		lw	a5,-20(s0)
  63 006e B307F040 		neg	a5,a5
  64 0072 BA97     		add	a5,a4,a5
  65              	.L4:
  16:../Firmware/RISCV/stubs/sbrk.c **** }...
  66              		.loc 1 16 1
  67 0074 3E85     		mv	a0,a5
  68 0076 7244     		lw	s0,28(sp)
  69              		.cfi_restore 8
  70              		.cfi_def_cfa 2, 32
  71 0078 0561     		addi	sp,sp,32
  72              		.cfi_def_cfa_offset 0
  73 007a 8280     		jr	ra
  74              		.cfi_endproc
  75              	.LFE0:
  77              		.text
  78              	.Letext0:
  79              		.file 2 "e:\\gd32\\gd32embeddedbuilder_v1.5.2.30854\\tools\\nuclei_riscv_newlibc_prebuilt_win32_20