   1              		.file	"system_gd32vw55x.c"
   2              		.option nopic
   3              		.attribute arch, "rv32i2p0_m2p0_a2p0_c2p0"
   4              		.attribute unaligned_access, 0
   5              		.attribute stack_align, 16
   6              		.text
   7              	.Ltext0:
   8              		.cfi_sections	.debug_frame
   9              		.globl	SystemCoreClock
  10              		.section	.sdata.SystemCoreClock,"aw"
  11              		.align	2
  14              	SystemCoreClock:
  15 0000 00688909 		.word	160000000
  16              		.section	.text._soft_delay_,"ax",@progbits
  17              		.align	1
  19              	_soft_delay_:
  20              	.LFB347:
  21              		.file 1 "../Firmware/GD32VW55x_standard_peripheral/system_gd32vw55x.c"
   1:../Firmware/GD32VW55x_standard_peripheral/system_gd32vw55x.c **** /*!
   2:../Firmware/GD32VW55x_standard_peripheral/system_gd32vw55x.c ****     \file    system_gd32vw55x.c
   3:../Firmware/GD32VW55x_standard_peripheral/system_gd32vw55x.c ****     \brief   RISC-V Device Peripheral Access Layer Source File for
   4:../Firmware/GD32VW55x_standard_peripheral/system_gd32vw55x.c ****              GD32VW55x Device Series
   5:../Firmware/GD32VW55x_standard_peripheral/system_gd32vw55x.c **** 
   6:../Firmware/GD32VW55x_standard_peripheral/system_gd32vw55x.c ****     \version 2025-01-16, V1.4.0, firmware for GD32VW55x
   7:../Firmware/GD32VW55x_standard_peripheral/system_gd32vw55x.c **** */
   8:../Firmware/GD32VW55x_standard_peripheral/system_gd32vw55x.c **** 
   9:../Firmware/GD32VW55x_standard_peripheral/system_gd32vw55x.c **** /*
  10:../Firmware/GD32VW55x_standard_peripheral/system_gd32vw55x.c ****  * Copyright (c) 2009-2018 Arm Limited. All rights reserved.
  11:../Firmware/GD32VW55x_standard_peripheral/system_gd32vw55x.c ****  * Copyright (c) 2019 Nuclei Limited. All rights reserved.
  12:../Firmware/GD32VW55x_standard_peripheral/system_gd32vw55x.c ****  * Copyright (c) 2025, GigaDevice Semiconductor Inc.
  13:../Firmware/GD32VW55x_standard_peripheral/system_gd32vw55x.c ****  *
  14:../Firmware/GD32VW55x_standard_peripheral/system_gd32vw55x.c ****  * SPDX-License-Identifier: Apache-2.0
  15:../Firmware/GD32VW55x_standard_peripheral/system_gd32vw55x.c ****  *
  16:../Firmware/GD32VW55x_standard_peripheral/system_gd32vw55x.c ****  * Licensed under the Apache License, Version 2.0 (the License); you may
  17:../Firmware/GD32VW55x_standard_peripheral/system_gd32vw55x.c ****  * not use this file except in compliance with the License.
  18:../Firmware/GD32VW55x_standard_peripheral/system_gd32vw55x.c ****  * You may obtain a copy of the License at
  19:../Firmware/GD32VW55x_standard_peripheral/system_gd32vw55x.c ****  *
  20:../Firmware/GD32VW55x_standard_peripheral/system_gd32vw55x.c ****  * www.apache.org/licenses/LICENSE-2.0
  21:../Firmware/GD32VW55x_standard_peripheral/system_gd32vw55x.c ****  *
  22:../Firmware/GD32VW55x_standard_peripheral/system_gd32vw55x.c ****  * Unless required by applicable law or agreed to in writing, software
  23:../Firmware/GD32VW55x_standard_peripheral/system_gd32vw55x.c ****  * distributed under the License is distributed on an AS IS BASIS, WITHOUT
  24:../Firmware/GD32VW55x_standard_peripheral/system_gd32vw55x.c ****  * WARRANTIES OR CONDITIONS OF ANY KIND, either express or implied.
  25:../Firmware/GD32VW55x_standard_peripheral/system_gd32vw55x.c ****  * See the License for the specific language governing permissions and
  26:../Firmware/GD32VW55x_standard_peripheral/system_gd32vw55x.c ****  * limitations under the License.
  27:../Firmware/GD32VW55x_standard_peripheral/system_gd32vw55x.c ****  */
  28:../Firmware/GD32VW55x_standard_peripheral/system_gd32vw55x.c **** 
  29:../Firmware/GD32VW55x_standard_peripheral/system_gd32vw55x.c **** /* This file refers the RISC-V standard, some adjustments are made according to GigaDevice chips */
  30:../Firmware/GD32VW55x_standard_peripheral/system_gd32vw55x.c **** 
  31:../Firmware/GD32VW55x_standard_peripheral/system_gd32vw55x.c **** #include "gd32vw55x.h"
  32:../Firmware/GD32VW55x_standard_peripheral/system_gd32vw55x.c **** 
  33:../Firmware/GD32VW55x_standard_peripheral/system_gd32vw55x.c **** /* system frequency define */
  34:../Firmware/GD32VW55x_standard_peripheral/system_gd32vw55x.c **** #define __IRC16M          (IRC16M_VALUE)            /* internal 16 MHz RC oscillator frequency */
  35:../Firmware/GD32VW55x_standard_peripheral/system_gd32vw55x.c **** #define __HXTAL           (HXTAL_VALUE)             /* high speed crystal oscillator frequency */
  36:../Firmware/GD32VW55x_standard_peripheral/system_gd32vw55x.c **** #define __SYS_OSC_CLK     (__IRC16M)                /* main oscillator frequency */
  37:../Firmware/GD32VW55x_standard_peripheral/system_gd32vw55x.c **** 
  38:../Firmware/GD32VW55x_standard_peripheral/system_gd32vw55x.c **** /* select a system clock by uncommenting the following line */
  39:../Firmware/GD32VW55x_standard_peripheral/system_gd32vw55x.c **** //#define __SYSTEM_CLOCK_IRC16M                       (uint32_t)(__IRC16M)
  40:../Firmware/GD32VW55x_standard_peripheral/system_gd32vw55x.c **** //#define __SYSTEM_CLOCK_HXTAL                        (uint32_t)(__HXTAL)
  41:../Firmware/GD32VW55x_standard_peripheral/system_gd32vw55x.c **** //#define __SYSTEM_CLOCK_48M_PLLDIG_IRC16M             (uint32_t)(48000000)
  42:../Firmware/GD32VW55x_standard_peripheral/system_gd32vw55x.c **** //#define __SYSTEM_CLOCK_160M_PLLDIG_IRC16M             (uint32_t)(160000000)
  43:../Firmware/GD32VW55x_standard_peripheral/system_gd32vw55x.c **** //#define __SYSTEM_CLOCK_48M_PLLDIG_HXTAL              (uint32_t)(48000000)
  44:../Firmware/GD32VW55x_standard_peripheral/system_gd32vw55x.c **** #define __SYSTEM_CLOCK_160M_PLLDIG_HXTAL              (uint32_t)(160000000)
  45:../Firmware/GD32VW55x_standard_peripheral/system_gd32vw55x.c **** 
  46:../Firmware/GD32VW55x_standard_peripheral/system_gd32vw55x.c **** #define HXTALSTB_DELAY     {                                 \
  47:../Firmware/GD32VW55x_standard_peripheral/system_gd32vw55x.c ****                               volatile uint32_t i;           \
  48:../Firmware/GD32VW55x_standard_peripheral/system_gd32vw55x.c ****                               for(i=0; i<0x2000; i++){       \
  49:../Firmware/GD32VW55x_standard_peripheral/system_gd32vw55x.c ****                               }                              \
  50:../Firmware/GD32VW55x_standard_peripheral/system_gd32vw55x.c ****                            }
  51:../Firmware/GD32VW55x_standard_peripheral/system_gd32vw55x.c **** /* The following is to prevent Vcore fluctuations caused by frequency switching. 
  52:../Firmware/GD32VW55x_standard_peripheral/system_gd32vw55x.c ****    It is strongly recommended to include it to avoid issues caused by self-removal. */
  53:../Firmware/GD32VW55x_standard_peripheral/system_gd32vw55x.c **** #define RCU_MODIFY(__delay)     do{                                     \
  54:../Firmware/GD32VW55x_standard_peripheral/system_gd32vw55x.c ****                                     volatile uint32_t i,reg;            \
  55:../Firmware/GD32VW55x_standard_peripheral/system_gd32vw55x.c ****                                     if(0 != __delay){                   \
  56:../Firmware/GD32VW55x_standard_peripheral/system_gd32vw55x.c ****                                         /* Insert a software delay */   \
  57:../Firmware/GD32VW55x_standard_peripheral/system_gd32vw55x.c ****                                         for(i=0; i<__delay; i++){       \
  58:../Firmware/GD32VW55x_standard_peripheral/system_gd32vw55x.c ****                                         }                               \
  59:../Firmware/GD32VW55x_standard_peripheral/system_gd32vw55x.c ****                                         reg = RCU_CFG0;                 \
  60:../Firmware/GD32VW55x_standard_peripheral/system_gd32vw55x.c ****                                         reg &= ~(RCU_AHB_CKSYS_DIV2);   \
  61:../Firmware/GD32VW55x_standard_peripheral/system_gd32vw55x.c ****                                         reg |= RCU_AHB_CKSYS_DIV2;      \
  62:../Firmware/GD32VW55x_standard_peripheral/system_gd32vw55x.c ****                                         /* AHB = SYSCLK/2 */            \
  63:../Firmware/GD32VW55x_standard_peripheral/system_gd32vw55x.c ****                                         RCU_CFG0 = reg;                 \
  64:../Firmware/GD32VW55x_standard_peripheral/system_gd32vw55x.c ****                                         /* Insert a software delay */   \
  65:../Firmware/GD32VW55x_standard_peripheral/system_gd32vw55x.c ****                                         for(i=0; i<__delay; i++){       \
  66:../Firmware/GD32VW55x_standard_peripheral/system_gd32vw55x.c ****                                         }                               \
  67:../Firmware/GD32VW55x_standard_peripheral/system_gd32vw55x.c ****                                         reg = RCU_CFG0;                 \
  68:../Firmware/GD32VW55x_standard_peripheral/system_gd32vw55x.c ****                                         reg &= ~(RCU_AHB_CKSYS_DIV4);   \
  69:../Firmware/GD32VW55x_standard_peripheral/system_gd32vw55x.c ****                                         reg |= RCU_AHB_CKSYS_DIV4;      \
  70:../Firmware/GD32VW55x_standard_peripheral/system_gd32vw55x.c ****                                         /* AHB = SYSCLK/4 */            \
  71:../Firmware/GD32VW55x_standard_peripheral/system_gd32vw55x.c ****                                         RCU_CFG0 = reg;                 \
  72:../Firmware/GD32VW55x_standard_peripheral/system_gd32vw55x.c ****                                         /* Insert a software delay */   \
  73:../Firmware/GD32VW55x_standard_peripheral/system_gd32vw55x.c ****                                         for(i=0; i<__delay; i++){       \
  74:../Firmware/GD32VW55x_standard_peripheral/system_gd32vw55x.c ****                                         }                               \
  75:../Firmware/GD32VW55x_standard_peripheral/system_gd32vw55x.c ****                                     }                                   \
  76:../Firmware/GD32VW55x_standard_peripheral/system_gd32vw55x.c ****                                 }while(0)
  77:../Firmware/GD32VW55x_standard_peripheral/system_gd32vw55x.c **** 
  78:../Firmware/GD32VW55x_standard_peripheral/system_gd32vw55x.c **** /* set the system clock frequency and declare the system clock configuration function */
  79:../Firmware/GD32VW55x_standard_peripheral/system_gd32vw55x.c **** #ifdef __SYSTEM_CLOCK_IRC16M
  80:../Firmware/GD32VW55x_standard_peripheral/system_gd32vw55x.c **** uint32_t SystemCoreClock = __SYSTEM_CLOCK_IRC16M;
  81:../Firmware/GD32VW55x_standard_peripheral/system_gd32vw55x.c **** static void system_clock_16m_irc16m(void);
  82:../Firmware/GD32VW55x_standard_peripheral/system_gd32vw55x.c **** #elif defined (__SYSTEM_CLOCK_HXTAL)
  83:../Firmware/GD32VW55x_standard_peripheral/system_gd32vw55x.c **** uint32_t SystemCoreClock = __SYSTEM_CLOCK_HXTAL;
  84:../Firmware/GD32VW55x_standard_peripheral/system_gd32vw55x.c **** static void system_clock_hxtal(void);
  85:../Firmware/GD32VW55x_standard_peripheral/system_gd32vw55x.c **** #elif defined (__SYSTEM_CLOCK_48M_PLLDIG_IRC16M)
  86:../Firmware/GD32VW55x_standard_peripheral/system_gd32vw55x.c **** uint32_t SystemCoreClock = __SYSTEM_CLOCK_48M_PLLDIG_IRC16M;
  87:../Firmware/GD32VW55x_standard_peripheral/system_gd32vw55x.c **** static void system_clock_48m_irc16m(void);
  88:../Firmware/GD32VW55x_standard_peripheral/system_gd32vw55x.c **** #elif defined (__SYSTEM_CLOCK_160M_PLLDIG_IRC16M)
  89:../Firmware/GD32VW55x_standard_peripheral/system_gd32vw55x.c **** uint32_t SystemCoreClock = __SYSTEM_CLOCK_160M_PLLDIG_IRC16M;
  90:../Firmware/GD32VW55x_standard_peripheral/system_gd32vw55x.c **** static void system_clock_160m_irc16m(void);
  91:../Firmware/GD32VW55x_standard_peripheral/system_gd32vw55x.c **** #elif defined (__SYSTEM_CLOCK_48M_PLLDIG_HXTAL)
  92:../Firmware/GD32VW55x_standard_peripheral/system_gd32vw55x.c **** uint32_t SystemCoreClock = __SYSTEM_CLOCK_48M_PLLDIG_HXTAL;
  93:../Firmware/GD32VW55x_standard_peripheral/system_gd32vw55x.c **** static void system_clock_48m_hxtal(void);
  94:../Firmware/GD32VW55x_standard_peripheral/system_gd32vw55x.c **** #elif defined (__SYSTEM_CLOCK_160M_PLLDIG_HXTAL)
  95:../Firmware/GD32VW55x_standard_peripheral/system_gd32vw55x.c **** uint32_t SystemCoreClock = __SYSTEM_CLOCK_160M_PLLDIG_HXTAL;
  96:../Firmware/GD32VW55x_standard_peripheral/system_gd32vw55x.c **** static void system_clock_160m_hxtal(void);
  97:../Firmware/GD32VW55x_standard_peripheral/system_gd32vw55x.c **** #endif /* __SYSTEM_CLOCK_IRC16M */
  98:../Firmware/GD32VW55x_standard_peripheral/system_gd32vw55x.c **** 
  99:../Firmware/GD32VW55x_standard_peripheral/system_gd32vw55x.c **** /* configure the system clock */
 100:../Firmware/GD32VW55x_standard_peripheral/system_gd32vw55x.c **** static void system_clock_config(void);
 101:../Firmware/GD32VW55x_standard_peripheral/system_gd32vw55x.c **** /* software delay to prevent the impact of Vcore fluctuations.
 102:../Firmware/GD32VW55x_standard_peripheral/system_gd32vw55x.c ****    It is strongly recommended to include it to avoid issues caused by self-removal. */
 103:../Firmware/GD32VW55x_standard_peripheral/system_gd32vw55x.c **** static void _soft_delay_(uint32_t time)
 104:../Firmware/GD32VW55x_standard_peripheral/system_gd32vw55x.c **** {
  22              		.loc 1 104 1
  23              		.cfi_startproc
  24 0000 7971     		addi	sp,sp,-48
  25              		.cfi_def_cfa_offset 48
  26 0002 22D6     		sw	s0,44(sp)
  27              		.cfi_offset 8, -4
  28 0004 0018     		addi	s0,sp,48
  29              		.cfi_def_cfa 8, 0
  30 0006 232EA4FC 		sw	a0,-36(s0)
 105:../Firmware/GD32VW55x_standard_peripheral/system_gd32vw55x.c ****     __IO uint32_t i;
 106:../Firmware/GD32VW55x_standard_peripheral/system_gd32vw55x.c ****     for(i=0; i<time*10; i++){
  31              		.loc 1 106 10
  32 000a 232604FE 		sw	zero,-20(s0)
  33              		.loc 1 106 5
  34 000e 31A0     		j	.L2
  35              	.L3:
  36              		.loc 1 106 26 discriminator 3
  37 0010 8327C4FE 		lw	a5,-20(s0)
  38 0014 8507     		addi	a5,a5,1
  39 0016 2326F4FE 		sw	a5,-20(s0)
  40              	.L2:
  41              		.loc 1 106 20 discriminator 1
  42 001a 0327C4FD 		lw	a4,-36(s0)
  43 001e BA87     		mv	a5,a4
  44 0020 8A07     		slli	a5,a5,2
  45 0022 BA97     		add	a5,a5,a4
  46 0024 8607     		slli	a5,a5,1
  47 0026 3E87     		mv	a4,a5
  48              		.loc 1 106 15 discriminator 1
  49 0028 8327C4FE 		lw	a5,-20(s0)
  50              		.loc 1 106 5 discriminator 1
  51 002c E3E2E7FE 		bgtu	a4,a5,.L3
 107:../Firmware/GD32VW55x_standard_peripheral/system_gd32vw55x.c ****     }
 108:../Firmware/GD32VW55x_standard_peripheral/system_gd32vw55x.c **** }
  52              		.loc 1 108 1
  53 0030 0100     		nop
  54 0032 0100     		nop
  55 0034 3254     		lw	s0,44(sp)
  56              		.cfi_restore 8
  57              		.cfi_def_cfa 2, 48
  58 0036 4561     		addi	sp,sp,48
  59              		.cfi_def_cfa_offset 0
  60 0038 8280     		jr	ra
  61              		.cfi_endproc
  62              	.LFE347:
  64              		.section	.text.SystemInit,"ax",@progbits
  65              		.align	1
  66              		.globl	SystemInit
  68              	SystemInit:
  69              	.LFB348:
 109:../Firmware/GD32VW55x_standard_peripheral/system_gd32vw55x.c **** 
 110:../Firmware/GD32VW55x_standard_peripheral/system_gd32vw55x.c **** /*!
 111:../Firmware/GD32VW55x_standard_peripheral/system_gd32vw55x.c ****     \brief      setup the microcontroller system, initialize the system
 112:../Firmware/GD32VW55x_standard_peripheral/system_gd32vw55x.c ****     \param[in]  none
 113:../Firmware/GD32VW55x_standard_peripheral/system_gd32vw55x.c ****     \param[out] none
 114:../Firmware/GD32VW55x_standard_peripheral/system_gd32vw55x.c ****     \retval     none
 115:../Firmware/GD32VW55x_standard_peripheral/system_gd32vw55x.c **** */
 116:../Firmware/GD32VW55x_standard_peripheral/system_gd32vw55x.c **** void SystemInit (void)
 117:../Firmware/GD32VW55x_standard_peripheral/system_gd32vw55x.c **** {
  70              		.loc 1 117 1
  71              		.cfi_startproc
  72 0000 0111     		addi	sp,sp,-32
  73              		.cfi_def_cfa_offset 32
  74 0002 06CE     		sw	ra,28(sp)
  75 0004 22CC     		sw	s0,24(sp)
  76              		.cfi_offset 1, -4
  77              		.cfi_offset 8, -8
  78 0006 0010     		addi	s0,sp,32
  79              		.cfi_def_cfa 8, 0
 118:../Firmware/GD32VW55x_standard_peripheral/system_gd32vw55x.c ****     /* reset the RCU clock configuration to the default reset state */
 119:../Firmware/GD32VW55x_standard_peripheral/system_gd32vw55x.c ****     /* set IRC16MEN bit */
 120:../Firmware/GD32VW55x_standard_peripheral/system_gd32vw55x.c ****     RCU_CTL |= RCU_CTL_IRC16MEN;
  80              		.loc 1 120 13
  81 0008 B7470240 		li	a5,1073889280
  82 000c 93870780 		addi	a5,a5,-2048
  83 0010 9843     		lw	a4,0(a5)
  84 0012 B7470240 		li	a5,1073889280
  85 0016 93870780 		addi	a5,a5,-2048
  86 001a 13671700 		ori	a4,a4,1
  87 001e 98C3     		sw	a4,0(a5)
 121:../Firmware/GD32VW55x_standard_peripheral/system_gd32vw55x.c ****     while(0U == (RCU_CTL & RCU_CTL_IRC16MSTB)){
  88              		.loc 1 121 10
  89 0020 0100     		nop
  90              	.L5:
  91              		.loc 1 121 18 discriminator 1
  92 0022 B7470240 		li	a5,1073889280
  93 0026 93870780 		addi	a5,a5,-2048
  94 002a 9C43     		lw	a5,0(a5)
  95              		.loc 1 121 26 discriminator 1
  96 002c 898B     		andi	a5,a5,2
  97              		.loc 1 121 10 discriminator 1
  98 002e F5DB     		beq	a5,zero,.L5
 122:../Firmware/GD32VW55x_standard_peripheral/system_gd32vw55x.c ****     }
 123:../Firmware/GD32VW55x_standard_peripheral/system_gd32vw55x.c ****     if(((RCU_CFG0 & RCU_CFG0_SCSS) == RCU_SCSS_PLLDIG)){
  99              		.loc 1 123 10
 100 0030 B7470240 		li	a5,1073889280
 101 0034 93878780 		addi	a5,a5,-2040
 102 0038 9C43     		lw	a5,0(a5)
 103              		.loc 1 123 19
 104 003a 13F7C700 		andi	a4,a5,12
 105              		.loc 1 123 7
 106 003e A147     		li	a5,8
 107 0040 6310F70C 		bne	a4,a5,.L6
 108              	.LBB2:
 124:../Firmware/GD32VW55x_standard_peripheral/system_gd32vw55x.c ****         RCU_MODIFY(0x50);
 109              		.loc 1 124 9 discriminator 1
 110 0044 232604FE 		sw	zero,-20(s0)
 111 0048 31A0     		j	.L7
 112              	.L8:
 113              		.loc 1 124 9 is_stmt 0 discriminator 4
 114 004a 8327C4FE 		lw	a5,-20(s0)
 115 004e 8507     		addi	a5,a5,1
 116 0050 2326F4FE 		sw	a5,-20(s0)
 117              	.L7:
 118              		.loc 1 124 9 discriminator 2
 119 0054 0327C4FE 		lw	a4,-20(s0)
 120 0058 9307F004 		li	a5,79
 121 005c E3F7E7FE 		bleu	a4,a5,.L8
 122              		.loc 1 124 9 discriminator 5
 123 0060 B7470240 		li	a5,1073889280
 124 0064 93878780 		addi	a5,a5,-2040
 125 0068 9C43     		lw	a5,0(a5)
 126 006a 2324F4FE 		sw	a5,-24(s0)
 127 006e 832784FE 		lw	a5,-24(s0)
 128 0072 93F7F7F7 		andi	a5,a5,-129
 129 0076 2324F4FE 		sw	a5,-24(s0)
 130 007a 832784FE 		lw	a5,-24(s0)
 131 007e 93E70708 		ori	a5,a5,128
 132 0082 2324F4FE 		sw	a5,-24(s0)
 133 0086 B7470240 		li	a5,1073889280
 134 008a 93878780 		addi	a5,a5,-2040
 135 008e 032784FE 		lw	a4,-24(s0)
 136 0092 98C3     		sw	a4,0(a5)
 137 0094 232604FE 		sw	zero,-20(s0)
 138 0098 31A0     		j	.L9
 139              	.L10:
 140              		.loc 1 124 9 discriminator 8
 141 009a 8327C4FE 		lw	a5,-20(s0)
 142 009e 8507     		addi	a5,a5,1
 143 00a0 2326F4FE 		sw	a5,-20(s0)
 144              	.L9:
 145              		.loc 1 124 9 discriminator 6
 146 00a4 0327C4FE 		lw	a4,-20(s0)
 147 00a8 9307F004 		li	a5,79
 148 00ac E3F7E7FE 		bleu	a4,a5,.L10
 149              		.loc 1 124 9 discriminator 9
 150 00b0 B7470240 		li	a5,1073889280
 151 00b4 93878780 		addi	a5,a5,-2040
 152 00b8 9C43     		lw	a5,0(a5)
 153 00ba 2324F4FE 		sw	a5,-24(s0)
 154 00be 832784FE 		lw	a5,-24(s0)
 155 00c2 93F7F7F6 		andi	a5,a5,-145
 156 00c6 2324F4FE 		sw	a5,-24(s0)
 157 00ca 832784FE 		lw	a5,-24(s0)
 158 00ce 93E70709 		ori	a5,a5,144
 159 00d2 2324F4FE 		sw	a5,-24(s0)
 160 00d6 B7470240 		li	a5,1073889280
 161 00da 93878780 		addi	a5,a5,-2040
 162 00de 032784FE 		lw	a4,-24(s0)
 163 00e2 98C3     		sw	a4,0(a5)
 164 00e4 232604FE 		sw	zero,-20(s0)
 165 00e8 31A0     		j	.L11
 166              	.L12:
 167              		.loc 1 124 9 discriminator 12
 168 00ea 8327C4FE 		lw	a5,-20(s0)
 169 00ee 8507     		addi	a5,a5,1
 170 00f0 2326F4FE 		sw	a5,-20(s0)
 171              	.L11:
 172              		.loc 1 124 9 discriminator 10
 173 00f4 0327C4FE 		lw	a4,-20(s0)
 174 00f8 9307F004 		li	a5,79
 175 00fc E3F7E7FE 		bleu	a4,a5,.L12
 176              	.L6:
 177              	.LBE2:
 125:../Firmware/GD32VW55x_standard_peripheral/system_gd32vw55x.c ****     }
 126:../Firmware/GD32VW55x_standard_peripheral/system_gd32vw55x.c ****     RCU_CFG0 &= ~RCU_CFG0_SCS;
 178              		.loc 1 126 14 is_stmt 1
 179 0100 B7470240 		li	a5,1073889280
 180 0104 93878780 		addi	a5,a5,-2040
 181 0108 9843     		lw	a4,0(a5)
 182 010a B7470240 		li	a5,1073889280
 183 010e 93878780 		addi	a5,a5,-2040
 184 0112 719B     		andi	a4,a4,-4
 185 0114 98C3     		sw	a4,0(a5)
 127:../Firmware/GD32VW55x_standard_peripheral/system_gd32vw55x.c ****     _soft_delay_(200);
 186              		.loc 1 127 5
 187 0116 1305800C 		li	a0,200
 188 011a 97000000 		call	_soft_delay_
 188      E7800000 
 128:../Firmware/GD32VW55x_standard_peripheral/system_gd32vw55x.c ****     /* reset CFG0 register */
 129:../Firmware/GD32VW55x_standard_peripheral/system_gd32vw55x.c ****     RCU_CFG0 = 0x00000000U;
 189              		.loc 1 129 5
 190 0122 B7470240 		li	a5,1073889280
 191 0126 93878780 		addi	a5,a5,-2040
 192              		.loc 1 129 14
 193 012a 23A00700 		sw	zero,0(a5)
 130:../Firmware/GD32VW55x_standard_peripheral/system_gd32vw55x.c **** 
 131:../Firmware/GD32VW55x_standard_peripheral/system_gd32vw55x.c ****     /* reset HXTALEN, RFCKMEN and PLLEN bits */
 132:../Firmware/GD32VW55x_standard_peripheral/system_gd32vw55x.c ****     RCU_CTL &= ~(RCU_CTL_PLLDIGEN | RCU_CTL_RFCKMEN | RCU_CTL_HXTALEN);
 194              		.loc 1 132 13
 195 012e B7470240 		li	a5,1073889280
 196 0132 93870780 		addi	a5,a5,-2048
 197 0136 9443     		lw	a3,0(a5)
 198 0138 B7470240 		li	a5,1073889280
 199 013c 93870780 		addi	a5,a5,-2048
 200 0140 37079FFF 		li	a4,-6356992
 201 0144 7D17     		addi	a4,a4,-1
 202 0146 758F     		and	a4,a3,a4
 203 0148 98C3     		sw	a4,0(a5)
 133:../Firmware/GD32VW55x_standard_peripheral/system_gd32vw55x.c **** 
 134:../Firmware/GD32VW55x_standard_peripheral/system_gd32vw55x.c ****     /* reset PLLCFGR register */
 135:../Firmware/GD32VW55x_standard_peripheral/system_gd32vw55x.c ****     RCU_PLL = 0x00000000U;
 204              		.loc 1 135 5
 205 014a B7470240 		li	a5,1073889280
 206 014e 93874780 		addi	a5,a5,-2044
 207              		.loc 1 135 13
 208 0152 23A00700 		sw	zero,0(a5)
 136:../Firmware/GD32VW55x_standard_peripheral/system_gd32vw55x.c ****     RCU_PLLDIGCFG0 = 0x00000000U;
 209              		.loc 1 136 5
 210 0156 B7470240 		li	a5,1073889280
 211 015a 93874788 		addi	a5,a5,-1916
 212              		.loc 1 136 20
 213 015e 23A00700 		sw	zero,0(a5)
 137:../Firmware/GD32VW55x_standard_peripheral/system_gd32vw55x.c ****     RCU_PLLDIGCFG1 = 0x07800000U;
 214              		.loc 1 137 5
 215 0162 B7470240 		li	a5,1073889280
 216 0166 93874789 		addi	a5,a5,-1900
 217              		.loc 1 137 20
 218 016a 37078007 		li	a4,125829120
 219 016e 98C3     		sw	a4,0(a5)
 138:../Firmware/GD32VW55x_standard_peripheral/system_gd32vw55x.c **** 
 139:../Firmware/GD32VW55x_standard_peripheral/system_gd32vw55x.c ****     /* disable all interrupts */
 140:../Firmware/GD32VW55x_standard_peripheral/system_gd32vw55x.c ****     RCU_INT = 0x00000000U;
 220              		.loc 1 140 5
 221 0170 B7470240 		li	a5,1073889280
 222 0174 9387C780 		addi	a5,a5,-2036
 223              		.loc 1 140 13
 224 0178 23A00700 		sw	zero,0(a5)
 141:../Firmware/GD32VW55x_standard_peripheral/system_gd32vw55x.c **** 
 142:../Firmware/GD32VW55x_standard_peripheral/system_gd32vw55x.c ****     /* configure the System clock source, PLL Multiplier and Divider factors,
 143:../Firmware/GD32VW55x_standard_peripheral/system_gd32vw55x.c ****        AHB/APBx prescalers and Flash settings */
 144:../Firmware/GD32VW55x_standard_peripheral/system_gd32vw55x.c ****     system_clock_config();
 225              		.loc 1 144 5
 226 017c 97000000 		call	system_clock_config
 226      E7800000 
 145:../Firmware/GD32VW55x_standard_peripheral/system_gd32vw55x.c **** }
 227              		.loc 1 145 1
 228 0184 0100     		nop
 229 0186 F240     		lw	ra,28(sp)
 230              		.cfi_restore 1
 231 0188 6244     		lw	s0,24(sp)
 232              		.cfi_restore 8
 233              		.cfi_def_cfa 2, 32
 234 018a 0561     		addi	sp,sp,32
 235              		.cfi_def_cfa_offset 0
 236 018c 8280     		jr	ra
 237              		.cfi_endproc
 238              	.LFE348:
 240              		.section	.text.system_clock_config,"ax",@progbits
 241              		.align	1
 243              	system_clock_config:
 244              	.LFB349:
 146:../Firmware/GD32VW55x_standard_peripheral/system_gd32vw55x.c **** /*!
 147:../Firmware/GD32VW55x_standard_peripheral/system_gd32vw55x.c ****     \brief      configure the system clock
 148:../Firmware/GD32VW55x_standard_peripheral/system_gd32vw55x.c ****     \param[in]  none
 149:../Firmware/GD32VW55x_standard_peripheral/system_gd32vw55x.c ****     \param[out] none
 150:../Firmware/GD32VW55x_standard_peripheral/system_gd32vw55x.c ****     \retval     none
 151:../Firmware/GD32VW55x_standard_peripheral/system_gd32vw55x.c **** */
 152:../Firmware/GD32VW55x_standard_peripheral/system_gd32vw55x.c **** static void system_clock_config(void)
 153:../Firmware/GD32VW55x_standard_peripheral/system_gd32vw55x.c **** {
 245              		.loc 1 153 1
 246              		.cfi_startproc
 247 0000 4111     		addi	sp,sp,-16
 248              		.cfi_def_cfa_offset 16
 249 0002 06C6     		sw	ra,12(sp)
 250 0004 22C4     		sw	s0,8(sp)
 251              		.cfi_offset 1, -4
 252              		.cfi_offset 8, -8
 253 0006 0008     		addi	s0,sp,16
 254              		.cfi_def_cfa 8, 0
 154:../Firmware/GD32VW55x_standard_peripheral/system_gd32vw55x.c **** #ifdef __SYSTEM_CLOCK_IRC16M
 155:../Firmware/GD32VW55x_standard_peripheral/system_gd32vw55x.c ****     system_clock_16m_irc16m();
 156:../Firmware/GD32VW55x_standard_peripheral/system_gd32vw55x.c **** #elif defined (__SYSTEM_CLOCK_HXTAL)
 157:../Firmware/GD32VW55x_standard_peripheral/system_gd32vw55x.c ****     system_clock_hxtal();
 158:../Firmware/GD32VW55x_standard_peripheral/system_gd32vw55x.c **** #elif defined (__SYSTEM_CLOCK_48M_PLLDIG_IRC16M)
 159:../Firmware/GD32VW55x_standard_peripheral/system_gd32vw55x.c ****     system_clock_48m_irc16m();
 160:../Firmware/GD32VW55x_standard_peripheral/system_gd32vw55x.c **** #elif defined (__SYSTEM_CLOCK_160M_PLLDIG_IRC16M)
 161:../Firmware/GD32VW55x_standard_peripheral/system_gd32vw55x.c ****     system_clock_160m_irc16m();
 162:../Firmware/GD32VW55x_standard_peripheral/system_gd32vw55x.c **** #elif defined (__SYSTEM_CLOCK_160M_PLLDIG_HXTAL)
 163:../Firmware/GD32VW55x_standard_peripheral/system_gd32vw55x.c ****     system_clock_160m_hxtal();
 255              		.loc 1 163 5
 256 0008 97000000 		call	system_clock_160m_hxtal
 256      E7800000 
 164:../Firmware/GD32VW55x_standard_peripheral/system_gd32vw55x.c **** #elif defined (__SYSTEM_CLOCK_48M_PLLDIG_HXTAL)
 165:../Firmware/GD32VW55x_standard_peripheral/system_gd32vw55x.c ****     system_clock_48m_hxtal();
 166:../Firmware/GD32VW55x_standard_peripheral/system_gd32vw55x.c **** #endif /* __SYSTEM_CLOCK_IRC16M */
 167:../Firmware/GD32VW55x_standard_peripheral/system_gd32vw55x.c **** }
 257              		.loc 1 167 1
 258 0010 0100     		nop
 259 0012 B240     		lw	ra,12(sp)
 260              		.cfi_restore 1
 261 0014 2244     		lw	s0,8(sp)
 262              		.cfi_restore 8
 263              		.cfi_def_cfa 2, 16
 264 0016 4101     		addi	sp,sp,16
 265              		.cfi_def_cfa_offset 0
 266 0018 8280     		jr	ra
 267              		.cfi_endproc
 268              	.LFE349:
 270              		.section	.text.system_clock_160m_hxtal,"ax",@progbits
 271              		.align	1
 273              	system_clock_160m_hxtal:
 274              	.LFB350:
 168:../Firmware/GD32VW55x_standard_peripheral/system_gd32vw55x.c **** 
 169:../Firmware/GD32VW55x_standard_peripheral/system_gd32vw55x.c **** #ifdef __SYSTEM_CLOCK_IRC16M
 170:../Firmware/GD32VW55x_standard_peripheral/system_gd32vw55x.c **** /*!
 171:../Firmware/GD32VW55x_standard_peripheral/system_gd32vw55x.c ****     \brief      configure the system clock to 16M by IRC16M
 172:../Firmware/GD32VW55x_standard_peripheral/system_gd32vw55x.c ****     \param[in]  none
 173:../Firmware/GD32VW55x_standard_peripheral/system_gd32vw55x.c ****     \param[out] none
 174:../Firmware/GD32VW55x_standard_peripheral/system_gd32vw55x.c ****     \retval     none
 175:../Firmware/GD32VW55x_standard_peripheral/system_gd32vw55x.c **** */
 176:../Firmware/GD32VW55x_standard_peripheral/system_gd32vw55x.c **** static void system_clock_16m_irc16m(void)
 177:../Firmware/GD32VW55x_standard_peripheral/system_gd32vw55x.c **** {
 178:../Firmware/GD32VW55x_standard_peripheral/system_gd32vw55x.c ****     uint32_t timeout = 0U;
 179:../Firmware/GD32VW55x_standard_peripheral/system_gd32vw55x.c ****     uint32_t stab_flag = 0U;
 180:../Firmware/GD32VW55x_standard_peripheral/system_gd32vw55x.c ****     __IO uint32_t reg_temp;
 181:../Firmware/GD32VW55x_standard_peripheral/system_gd32vw55x.c **** 
 182:../Firmware/GD32VW55x_standard_peripheral/system_gd32vw55x.c ****     /* enable IRC16M */
 183:../Firmware/GD32VW55x_standard_peripheral/system_gd32vw55x.c ****     RCU_CTL |= RCU_CTL_IRC16MEN;
 184:../Firmware/GD32VW55x_standard_peripheral/system_gd32vw55x.c **** 
 185:../Firmware/GD32VW55x_standard_peripheral/system_gd32vw55x.c ****     /* wait until IRC16M is stable or the startup time is longer than IRC16M_STARTUP_TIMEOUT */
 186:../Firmware/GD32VW55x_standard_peripheral/system_gd32vw55x.c ****     do{
 187:../Firmware/GD32VW55x_standard_peripheral/system_gd32vw55x.c ****         timeout++;
 188:../Firmware/GD32VW55x_standard_peripheral/system_gd32vw55x.c ****         stab_flag = (RCU_CTL & RCU_CTL_IRC16MSTB);
 189:../Firmware/GD32VW55x_standard_peripheral/system_gd32vw55x.c ****     }while((0U == stab_flag) && (IRC16M_STARTUP_TIMEOUT != timeout));
 190:../Firmware/GD32VW55x_standard_peripheral/system_gd32vw55x.c **** 
 191:../Firmware/GD32VW55x_standard_peripheral/system_gd32vw55x.c ****     if(0U == (RCU_CTL & RCU_CTL_IRC16MSTB)){
 192:../Firmware/GD32VW55x_standard_peripheral/system_gd32vw55x.c ****         /* if fail */
 193:../Firmware/GD32VW55x_standard_peripheral/system_gd32vw55x.c ****         while(1){
 194:../Firmware/GD32VW55x_standard_peripheral/system_gd32vw55x.c ****         }
 195:../Firmware/GD32VW55x_standard_peripheral/system_gd32vw55x.c ****     }
 196:../Firmware/GD32VW55x_standard_peripheral/system_gd32vw55x.c **** 
 197:../Firmware/GD32VW55x_standard_peripheral/system_gd32vw55x.c ****     /* AHB = SYSCLK */
 198:../Firmware/GD32VW55x_standard_peripheral/system_gd32vw55x.c ****     RCU_CFG0 |= RCU_AHB_CKSYS_DIV1;
 199:../Firmware/GD32VW55x_standard_peripheral/system_gd32vw55x.c ****     /* APB2 = AHB */
 200:../Firmware/GD32VW55x_standard_peripheral/system_gd32vw55x.c ****     RCU_CFG0 |= RCU_APB2_CKAHB_DIV1;
 201:../Firmware/GD32VW55x_standard_peripheral/system_gd32vw55x.c ****     /* APB1 = AHB */
 202:../Firmware/GD32VW55x_standard_peripheral/system_gd32vw55x.c ****     RCU_CFG0 |= RCU_APB1_CKAHB_DIV1;
 203:../Firmware/GD32VW55x_standard_peripheral/system_gd32vw55x.c **** 
 204:../Firmware/GD32VW55x_standard_peripheral/system_gd32vw55x.c ****     reg_temp = RCU_CFG0;
 205:../Firmware/GD32VW55x_standard_peripheral/system_gd32vw55x.c ****     /* select IRC16M as system clock */
 206:../Firmware/GD32VW55x_standard_peripheral/system_gd32vw55x.c ****     reg_temp &= ~RCU_CFG0_SCS;
 207:../Firmware/GD32VW55x_standard_peripheral/system_gd32vw55x.c ****     reg_temp |= RCU_CKSYSSRC_IRC16M;
 208:../Firmware/GD32VW55x_standard_peripheral/system_gd32vw55x.c ****     RCU_CFG0 = reg_temp;
 209:../Firmware/GD32VW55x_standard_peripheral/system_gd32vw55x.c **** 
 210:../Firmware/GD32VW55x_standard_peripheral/system_gd32vw55x.c ****     /* wait until IRC16M is selected as system clock */
 211:../Firmware/GD32VW55x_standard_peripheral/system_gd32vw55x.c ****     while(RCU_SCSS_IRC16M != (RCU_CFG0 & RCU_CFG0_SCSS)){
 212:../Firmware/GD32VW55x_standard_peripheral/system_gd32vw55x.c ****     }
 213:../Firmware/GD32VW55x_standard_peripheral/system_gd32vw55x.c **** }
 214:../Firmware/GD32VW55x_standard_peripheral/system_gd32vw55x.c **** 
 215:../Firmware/GD32VW55x_standard_peripheral/system_gd32vw55x.c **** #elif defined (__SYSTEM_CLOCK_HXTAL)
 216:../Firmware/GD32VW55x_standard_peripheral/system_gd32vw55x.c **** /*!
 217:../Firmware/GD32VW55x_standard_peripheral/system_gd32vw55x.c ****     \brief      configure the system clock to HXTAL
 218:../Firmware/GD32VW55x_standard_peripheral/system_gd32vw55x.c ****     \param[in]  none
 219:../Firmware/GD32VW55x_standard_peripheral/system_gd32vw55x.c ****     \param[out] none
 220:../Firmware/GD32VW55x_standard_peripheral/system_gd32vw55x.c ****     \retval     none
 221:../Firmware/GD32VW55x_standard_peripheral/system_gd32vw55x.c **** */
 222:../Firmware/GD32VW55x_standard_peripheral/system_gd32vw55x.c **** static void system_clock_hxtal(void)
 223:../Firmware/GD32VW55x_standard_peripheral/system_gd32vw55x.c **** {
 224:../Firmware/GD32VW55x_standard_peripheral/system_gd32vw55x.c ****     uint32_t timeout = 0U;
 225:../Firmware/GD32VW55x_standard_peripheral/system_gd32vw55x.c ****     uint32_t stab_flag = 0U;
 226:../Firmware/GD32VW55x_standard_peripheral/system_gd32vw55x.c ****     __IO uint32_t reg_temp;
 227:../Firmware/GD32VW55x_standard_peripheral/system_gd32vw55x.c **** 
 228:../Firmware/GD32VW55x_standard_peripheral/system_gd32vw55x.c ****     /* power up the HXTAL */
 229:../Firmware/GD32VW55x_standard_peripheral/system_gd32vw55x.c ****     RCU_CTL |= RCU_CTL_HXTALPU;
 230:../Firmware/GD32VW55x_standard_peripheral/system_gd32vw55x.c ****     /* enable HXTAL */
 231:../Firmware/GD32VW55x_standard_peripheral/system_gd32vw55x.c ****     RCU_CTL |= RCU_CTL_HXTALEN;
 232:../Firmware/GD32VW55x_standard_peripheral/system_gd32vw55x.c ****     HXTALSTB_DELAY
 233:../Firmware/GD32VW55x_standard_peripheral/system_gd32vw55x.c ****     RCU_CTL |= RCU_CTL_HXTALREADY;
 234:../Firmware/GD32VW55x_standard_peripheral/system_gd32vw55x.c ****     /* wait until HXTAL is stable or the startup time is longer than HXTAL_STARTUP_TIMEOUT */
 235:../Firmware/GD32VW55x_standard_peripheral/system_gd32vw55x.c ****     do{
 236:../Firmware/GD32VW55x_standard_peripheral/system_gd32vw55x.c ****         timeout++;
 237:../Firmware/GD32VW55x_standard_peripheral/system_gd32vw55x.c ****         stab_flag = (RCU_CTL & RCU_CTL_HXTALSTB);
 238:../Firmware/GD32VW55x_standard_peripheral/system_gd32vw55x.c ****     }while((0U == stab_flag) && (HXTAL_STARTUP_TIMEOUT != timeout));
 239:../Firmware/GD32VW55x_standard_peripheral/system_gd32vw55x.c **** 
 240:../Firmware/GD32VW55x_standard_peripheral/system_gd32vw55x.c ****     if(0U == (RCU_CTL & RCU_CTL_HXTALSTB)){
 241:../Firmware/GD32VW55x_standard_peripheral/system_gd32vw55x.c ****         /* if fail */
 242:../Firmware/GD32VW55x_standard_peripheral/system_gd32vw55x.c ****         while(1){
 243:../Firmware/GD32VW55x_standard_peripheral/system_gd32vw55x.c ****         }
 244:../Firmware/GD32VW55x_standard_peripheral/system_gd32vw55x.c ****     }
 245:../Firmware/GD32VW55x_standard_peripheral/system_gd32vw55x.c **** 
 246:../Firmware/GD32VW55x_standard_peripheral/system_gd32vw55x.c ****     /* AHB = SYSCLK */
 247:../Firmware/GD32VW55x_standard_peripheral/system_gd32vw55x.c ****     RCU_CFG0 |= RCU_AHB_CKSYS_DIV1;
 248:../Firmware/GD32VW55x_standard_peripheral/system_gd32vw55x.c ****     /* APB2 = AHB */
 249:../Firmware/GD32VW55x_standard_peripheral/system_gd32vw55x.c ****     RCU_CFG0 |= RCU_APB2_CKAHB_DIV1;
 250:../Firmware/GD32VW55x_standard_peripheral/system_gd32vw55x.c ****     /* APB1 = AHB */
 251:../Firmware/GD32VW55x_standard_peripheral/system_gd32vw55x.c ****     RCU_CFG0 |= RCU_APB1_CKAHB_DIV1;
 252:../Firmware/GD32VW55x_standard_peripheral/system_gd32vw55x.c **** 
 253:../Firmware/GD32VW55x_standard_peripheral/system_gd32vw55x.c ****     reg_temp = RCU_CFG0;
 254:../Firmware/GD32VW55x_standard_peripheral/system_gd32vw55x.c ****     /* select HXTAL as system clock */
 255:../Firmware/GD32VW55x_standard_peripheral/system_gd32vw55x.c ****     reg_temp &= ~RCU_CFG0_SCS;
 256:../Firmware/GD32VW55x_standard_peripheral/system_gd32vw55x.c ****     reg_temp |= RCU_CKSYSSRC_HXTAL;
 257:../Firmware/GD32VW55x_standard_peripheral/system_gd32vw55x.c ****     RCU_CFG0 = reg_temp;
 258:../Firmware/GD32VW55x_standard_peripheral/system_gd32vw55x.c **** 
 259:../Firmware/GD32VW55x_standard_peripheral/system_gd32vw55x.c ****     /* wait until HXTAL is selected as system clock */
 260:../Firmware/GD32VW55x_standard_peripheral/system_gd32vw55x.c ****     while(RCU_SCSS_HXTAL != (RCU_CFG0 & RCU_CFG0_SCSS)){
 261:../Firmware/GD32VW55x_standard_peripheral/system_gd32vw55x.c ****     }
 262:../Firmware/GD32VW55x_standard_peripheral/system_gd32vw55x.c **** }
 263:../Firmware/GD32VW55x_standard_peripheral/system_gd32vw55x.c **** #elif defined (__SYSTEM_CLOCK_48M_PLLDIG_IRC16M)
 264:../Firmware/GD32VW55x_standard_peripheral/system_gd32vw55x.c **** /*!
 265:../Firmware/GD32VW55x_standard_peripheral/system_gd32vw55x.c ****     \brief      configure the system clock to 48M by PLL which selects IRC16M as its clock source
 266:../Firmware/GD32VW55x_standard_peripheral/system_gd32vw55x.c ****     \param[in]  none
 267:../Firmware/GD32VW55x_standard_peripheral/system_gd32vw55x.c ****     \param[out] none
 268:../Firmware/GD32VW55x_standard_peripheral/system_gd32vw55x.c ****     \retval     none
 269:../Firmware/GD32VW55x_standard_peripheral/system_gd32vw55x.c **** */
 270:../Firmware/GD32VW55x_standard_peripheral/system_gd32vw55x.c **** static void system_clock_48m_irc16m(void)
 271:../Firmware/GD32VW55x_standard_peripheral/system_gd32vw55x.c **** {
 272:../Firmware/GD32VW55x_standard_peripheral/system_gd32vw55x.c ****     uint32_t timeout = 0U;
 273:../Firmware/GD32VW55x_standard_peripheral/system_gd32vw55x.c ****     uint32_t stab_flag = 0U;
 274:../Firmware/GD32VW55x_standard_peripheral/system_gd32vw55x.c ****     __IO uint32_t reg_temp;
 275:../Firmware/GD32VW55x_standard_peripheral/system_gd32vw55x.c **** 
 276:../Firmware/GD32VW55x_standard_peripheral/system_gd32vw55x.c ****     /* enable IRC16M */
 277:../Firmware/GD32VW55x_standard_peripheral/system_gd32vw55x.c ****     RCU_CTL |= (RCU_CTL_IRC16MEN | RCU_CTL_IRC16MRFON);
 278:../Firmware/GD32VW55x_standard_peripheral/system_gd32vw55x.c **** 
 279:../Firmware/GD32VW55x_standard_peripheral/system_gd32vw55x.c ****     /* wait until IRC16M is stable or the startup time is longer than IRC16M_STARTUP_TIMEOUT */
 280:../Firmware/GD32VW55x_standard_peripheral/system_gd32vw55x.c ****     do{
 281:../Firmware/GD32VW55x_standard_peripheral/system_gd32vw55x.c ****         timeout++;
 282:../Firmware/GD32VW55x_standard_peripheral/system_gd32vw55x.c ****         stab_flag = (RCU_CTL & RCU_CTL_IRC16MSTB);
 283:../Firmware/GD32VW55x_standard_peripheral/system_gd32vw55x.c ****     }while((0U == stab_flag) && (IRC16M_STARTUP_TIMEOUT != timeout));
 284:../Firmware/GD32VW55x_standard_peripheral/system_gd32vw55x.c **** 
 285:../Firmware/GD32VW55x_standard_peripheral/system_gd32vw55x.c ****     if(0U == (RCU_CTL & RCU_CTL_IRC16MSTB)){
 286:../Firmware/GD32VW55x_standard_peripheral/system_gd32vw55x.c ****         /* if fail */
 287:../Firmware/GD32VW55x_standard_peripheral/system_gd32vw55x.c ****         while(1){
 288:../Firmware/GD32VW55x_standard_peripheral/system_gd32vw55x.c ****         }
 289:../Firmware/GD32VW55x_standard_peripheral/system_gd32vw55x.c ****     }
 290:../Firmware/GD32VW55x_standard_peripheral/system_gd32vw55x.c **** 
 291:../Firmware/GD32VW55x_standard_peripheral/system_gd32vw55x.c ****     /* IRC16M is stable */
 292:../Firmware/GD32VW55x_standard_peripheral/system_gd32vw55x.c ****     /* AHB = SYSCLK */
 293:../Firmware/GD32VW55x_standard_peripheral/system_gd32vw55x.c ****     RCU_CFG0 |= RCU_AHB_CKSYS_DIV1;
 294:../Firmware/GD32VW55x_standard_peripheral/system_gd32vw55x.c ****     /* APB2 = AHB */
 295:../Firmware/GD32VW55x_standard_peripheral/system_gd32vw55x.c ****     RCU_CFG0 |= RCU_APB2_CKAHB_DIV1;
 296:../Firmware/GD32VW55x_standard_peripheral/system_gd32vw55x.c ****     /* APB1 = AHB/1 */
 297:../Firmware/GD32VW55x_standard_peripheral/system_gd32vw55x.c ****     RCU_CFG0 |= RCU_APB1_CKAHB_DIV1;
 298:../Firmware/GD32VW55x_standard_peripheral/system_gd32vw55x.c **** 
 299:../Firmware/GD32VW55x_standard_peripheral/system_gd32vw55x.c ****     RCU_PLL |= RCU_PLLSRC_IRC16M;
 300:../Firmware/GD32VW55x_standard_peripheral/system_gd32vw55x.c **** 
 301:../Firmware/GD32VW55x_standard_peripheral/system_gd32vw55x.c ****     /* 960M = 16MHz*60 */
 302:../Firmware/GD32VW55x_standard_peripheral/system_gd32vw55x.c ****     RCU_PLLDIGCFG1 = ((960 << 21) / 16) & 0x7FFFFFFF;
 303:../Firmware/GD32VW55x_standard_peripheral/system_gd32vw55x.c ****     /* PLLDIG OUT = 480M */
 304:../Firmware/GD32VW55x_standard_peripheral/system_gd32vw55x.c ****     RCU_PLLDIGCFG0 |= ( RCU_PLLDIG_480M );
 305:../Firmware/GD32VW55x_standard_peripheral/system_gd32vw55x.c ****     /* SYS clock = 48M */
 306:../Firmware/GD32VW55x_standard_peripheral/system_gd32vw55x.c ****     RCU_PLLDIGCFG0 |= ( RCU_PLLDIG_SYS_DIV10 );
 307:../Firmware/GD32VW55x_standard_peripheral/system_gd32vw55x.c **** 
 308:../Firmware/GD32VW55x_standard_peripheral/system_gd32vw55x.c ****     /* enable PLLDIG */
 309:../Firmware/GD32VW55x_standard_peripheral/system_gd32vw55x.c ****     RCU_CFG1 |= (RCU_CFG1_BGPU);
 310:../Firmware/GD32VW55x_standard_peripheral/system_gd32vw55x.c ****     RCU_CTL |= (RCU_CTL_PLLDIGEN | RCU_CTL_PLLDIGPU);
 311:../Firmware/GD32VW55x_standard_peripheral/system_gd32vw55x.c **** 
 312:../Firmware/GD32VW55x_standard_peripheral/system_gd32vw55x.c ****     /* wait until PLLDIG is stable */
 313:../Firmware/GD32VW55x_standard_peripheral/system_gd32vw55x.c ****     while(0U == (RCU_CTL & RCU_CTL_PLLDIGSTB)){
 314:../Firmware/GD32VW55x_standard_peripheral/system_gd32vw55x.c ****     }
 315:../Firmware/GD32VW55x_standard_peripheral/system_gd32vw55x.c **** 
 316:../Firmware/GD32VW55x_standard_peripheral/system_gd32vw55x.c ****     reg_temp = RCU_CFG0;
 317:../Firmware/GD32VW55x_standard_peripheral/system_gd32vw55x.c ****     /* select PLLDIG as system clock */
 318:../Firmware/GD32VW55x_standard_peripheral/system_gd32vw55x.c ****     reg_temp &= ~RCU_CFG0_SCS;
 319:../Firmware/GD32VW55x_standard_peripheral/system_gd32vw55x.c ****     reg_temp |= RCU_CKSYSSRC_PLLDIG;
 320:../Firmware/GD32VW55x_standard_peripheral/system_gd32vw55x.c ****     RCU_CFG0 = reg_temp;
 321:../Firmware/GD32VW55x_standard_peripheral/system_gd32vw55x.c **** 
 322:../Firmware/GD32VW55x_standard_peripheral/system_gd32vw55x.c ****     /* wait until PLLDIG is selected as system clock */
 323:../Firmware/GD32VW55x_standard_peripheral/system_gd32vw55x.c ****     while(RCU_SCSS_PLLDIG != (RCU_CFG0 & RCU_CFG0_SCSS)){
 324:../Firmware/GD32VW55x_standard_peripheral/system_gd32vw55x.c ****     }
 325:../Firmware/GD32VW55x_standard_peripheral/system_gd32vw55x.c **** }
 326:../Firmware/GD32VW55x_standard_peripheral/system_gd32vw55x.c **** #elif defined (__SYSTEM_CLOCK_160M_PLLDIG_IRC16M)
 327:../Firmware/GD32VW55x_standard_peripheral/system_gd32vw55x.c **** /*!
 328:../Firmware/GD32VW55x_standard_peripheral/system_gd32vw55x.c ****     \brief      configure the system clock to 160M by PLL which selects IRC16M as its clock source
 329:../Firmware/GD32VW55x_standard_peripheral/system_gd32vw55x.c ****     \param[in]  none
 330:../Firmware/GD32VW55x_standard_peripheral/system_gd32vw55x.c ****     \param[out] none
 331:../Firmware/GD32VW55x_standard_peripheral/system_gd32vw55x.c ****     \retval     none
 332:../Firmware/GD32VW55x_standard_peripheral/system_gd32vw55x.c **** */
 333:../Firmware/GD32VW55x_standard_peripheral/system_gd32vw55x.c **** static void system_clock_160m_irc16m(void)
 334:../Firmware/GD32VW55x_standard_peripheral/system_gd32vw55x.c **** {
 335:../Firmware/GD32VW55x_standard_peripheral/system_gd32vw55x.c ****     uint32_t timeout = 0U;
 336:../Firmware/GD32VW55x_standard_peripheral/system_gd32vw55x.c ****     uint32_t stab_flag = 0U;
 337:../Firmware/GD32VW55x_standard_peripheral/system_gd32vw55x.c ****     __IO uint32_t reg_temp;
 338:../Firmware/GD32VW55x_standard_peripheral/system_gd32vw55x.c **** 	
 339:../Firmware/GD32VW55x_standard_peripheral/system_gd32vw55x.c ****     /* enable IRC16M */
 340:../Firmware/GD32VW55x_standard_peripheral/system_gd32vw55x.c ****     RCU_CTL |= (RCU_CTL_IRC16MEN | RCU_CTL_IRC16MRFON);
 341:../Firmware/GD32VW55x_standard_peripheral/system_gd32vw55x.c **** 
 342:../Firmware/GD32VW55x_standard_peripheral/system_gd32vw55x.c ****     /* wait until IRC16M is stable or the startup time is longer than IRC16M_STARTUP_TIMEOUT */
 343:../Firmware/GD32VW55x_standard_peripheral/system_gd32vw55x.c ****     do{
 344:../Firmware/GD32VW55x_standard_peripheral/system_gd32vw55x.c ****         timeout++;
 345:../Firmware/GD32VW55x_standard_peripheral/system_gd32vw55x.c ****         stab_flag = (RCU_CTL & RCU_CTL_IRC16MSTB);
 346:../Firmware/GD32VW55x_standard_peripheral/system_gd32vw55x.c ****     }while((0U == stab_flag) && (IRC16M_STARTUP_TIMEOUT != timeout));
 347:../Firmware/GD32VW55x_standard_peripheral/system_gd32vw55x.c **** 
 348:../Firmware/GD32VW55x_standard_peripheral/system_gd32vw55x.c ****     /* if fail */
 349:../Firmware/GD32VW55x_standard_peripheral/system_gd32vw55x.c ****     if(0U == (RCU_CTL & RCU_CTL_IRC16MSTB)){
 350:../Firmware/GD32VW55x_standard_peripheral/system_gd32vw55x.c ****         while(1){
 351:../Firmware/GD32VW55x_standard_peripheral/system_gd32vw55x.c ****         }
 352:../Firmware/GD32VW55x_standard_peripheral/system_gd32vw55x.c ****     }
 353:../Firmware/GD32VW55x_standard_peripheral/system_gd32vw55x.c **** 
 354:../Firmware/GD32VW55x_standard_peripheral/system_gd32vw55x.c ****     /* IRC16M is stable */
 355:../Firmware/GD32VW55x_standard_peripheral/system_gd32vw55x.c ****     /* AHB = SYSCLK */
 356:../Firmware/GD32VW55x_standard_peripheral/system_gd32vw55x.c ****     RCU_CFG0 |= RCU_AHB_CKSYS_DIV1;
 357:../Firmware/GD32VW55x_standard_peripheral/system_gd32vw55x.c ****     /* APB2 = AHB */
 358:../Firmware/GD32VW55x_standard_peripheral/system_gd32vw55x.c ****     RCU_CFG0 |= RCU_APB2_CKAHB_DIV1;
 359:../Firmware/GD32VW55x_standard_peripheral/system_gd32vw55x.c ****     /* APB1 = AHB/2 */
 360:../Firmware/GD32VW55x_standard_peripheral/system_gd32vw55x.c ****     RCU_CFG0 |= RCU_APB1_CKAHB_DIV2;
 361:../Firmware/GD32VW55x_standard_peripheral/system_gd32vw55x.c **** 
 362:../Firmware/GD32VW55x_standard_peripheral/system_gd32vw55x.c ****     RCU_PLL |= RCU_PLLSRC_IRC16M;
 363:../Firmware/GD32VW55x_standard_peripheral/system_gd32vw55x.c **** 
 364:../Firmware/GD32VW55x_standard_peripheral/system_gd32vw55x.c ****     /* 960M = 16MHz*60 */
 365:../Firmware/GD32VW55x_standard_peripheral/system_gd32vw55x.c ****     RCU_PLLDIGCFG1 = ((960 << 21) / 16) & 0x7FFFFFFF;
 366:../Firmware/GD32VW55x_standard_peripheral/system_gd32vw55x.c ****     /* PLLDIG OUT = 480M */
 367:../Firmware/GD32VW55x_standard_peripheral/system_gd32vw55x.c ****     RCU_PLLDIGCFG0 |= ( RCU_PLLDIG_480M );
 368:../Firmware/GD32VW55x_standard_peripheral/system_gd32vw55x.c ****     /* SYS clock = 160M */
 369:../Firmware/GD32VW55x_standard_peripheral/system_gd32vw55x.c ****     RCU_PLLDIGCFG0 |= ( RCU_PLLDIG_SYS_DIV3 );
 370:../Firmware/GD32VW55x_standard_peripheral/system_gd32vw55x.c **** 
 371:../Firmware/GD32VW55x_standard_peripheral/system_gd32vw55x.c ****     /* enable PLLDIG */
 372:../Firmware/GD32VW55x_standard_peripheral/system_gd32vw55x.c ****     RCU_CFG1 |= (RCU_CFG1_BGPU);
 373:../Firmware/GD32VW55x_standard_peripheral/system_gd32vw55x.c ****     RCU_CTL |= (RCU_CTL_PLLDIGEN | RCU_CTL_PLLDIGPU);
 374:../Firmware/GD32VW55x_standard_peripheral/system_gd32vw55x.c **** 
 375:../Firmware/GD32VW55x_standard_peripheral/system_gd32vw55x.c ****     /* wait until PLLDIG is stable */
 376:../Firmware/GD32VW55x_standard_peripheral/system_gd32vw55x.c ****     while(0U == (RCU_CTL & RCU_CTL_PLLDIGSTB)){
 377:../Firmware/GD32VW55x_standard_peripheral/system_gd32vw55x.c ****     }
 378:../Firmware/GD32VW55x_standard_peripheral/system_gd32vw55x.c **** 
 379:../Firmware/GD32VW55x_standard_peripheral/system_gd32vw55x.c ****     reg_temp = RCU_CFG0;
 380:../Firmware/GD32VW55x_standard_peripheral/system_gd32vw55x.c ****     /* select PLLDIG as system clock */
 381:../Firmware/GD32VW55x_standard_peripheral/system_gd32vw55x.c ****     reg_temp &= ~RCU_CFG0_SCS;
 382:../Firmware/GD32VW55x_standard_peripheral/system_gd32vw55x.c ****     reg_temp |= RCU_CKSYSSRC_PLLDIG;
 383:../Firmware/GD32VW55x_standard_peripheral/system_gd32vw55x.c ****     RCU_CFG0 = reg_temp;
 384:../Firmware/GD32VW55x_standard_peripheral/system_gd32vw55x.c **** 
 385:../Firmware/GD32VW55x_standard_peripheral/system_gd32vw55x.c ****     /* wait until PLLDIG is selected as system clock */
 386:../Firmware/GD32VW55x_standard_peripheral/system_gd32vw55x.c ****     while(RCU_SCSS_PLLDIG != (RCU_CFG0 & RCU_CFG0_SCSS)){
 387:../Firmware/GD32VW55x_standard_peripheral/system_gd32vw55x.c ****     }
 388:../Firmware/GD32VW55x_standard_peripheral/system_gd32vw55x.c **** }
 389:../Firmware/GD32VW55x_standard_peripheral/system_gd32vw55x.c **** #elif defined (__SYSTEM_CLOCK_160M_PLLDIG_HXTAL)
 390:../Firmware/GD32VW55x_standard_peripheral/system_gd32vw55x.c **** /*!
 391:../Firmware/GD32VW55x_standard_peripheral/system_gd32vw55x.c ****     \brief      configure the system clock to 160M by PLL which selects HXTAL as its clock source
 392:../Firmware/GD32VW55x_standard_peripheral/system_gd32vw55x.c ****     \param[in]  none
 393:../Firmware/GD32VW55x_standard_peripheral/system_gd32vw55x.c ****     \param[out] none
 394:../Firmware/GD32VW55x_standard_peripheral/system_gd32vw55x.c ****     \retval     none
 395:../Firmware/GD32VW55x_standard_peripheral/system_gd32vw55x.c **** */
 396:../Firmware/GD32VW55x_standard_peripheral/system_gd32vw55x.c **** static void system_clock_160m_hxtal(void)
 397:../Firmware/GD32VW55x_standard_peripheral/system_gd32vw55x.c **** {
 275              		.loc 1 397 1
 276              		.cfi_startproc
 277 0000 0111     		addi	sp,sp,-32
 278              		.cfi_def_cfa_offset 32
 279 0002 22CE     		sw	s0,28(sp)
 280              		.cfi_offset 8, -4
 281 0004 0010     		addi	s0,sp,32
 282              		.cfi_def_cfa 8, 0
 398:../Firmware/GD32VW55x_standard_peripheral/system_gd32vw55x.c ****     uint32_t timeout = 0U;
 283              		.loc 1 398 14
 284 0006 232604FE 		sw	zero,-20(s0)
 399:../Firmware/GD32VW55x_standard_peripheral/system_gd32vw55x.c ****     uint32_t stab_flag = 0U;
 285              		.loc 1 399 14
 286 000a 232404FE 		sw	zero,-24(s0)
 400:../Firmware/GD32VW55x_standard_peripheral/system_gd32vw55x.c ****     __IO uint32_t reg_temp;
 401:../Firmware/GD32VW55x_standard_peripheral/system_gd32vw55x.c **** 
 402:../Firmware/GD32VW55x_standard_peripheral/system_gd32vw55x.c ****     /* power up HXTAL */
 403:../Firmware/GD32VW55x_standard_peripheral/system_gd32vw55x.c ****     RCU_CTL |= RCU_CTL_HXTALPU;
 287              		.loc 1 403 13
 288 000e B7470240 		li	a5,1073889280
 289 0012 93870780 		addi	a5,a5,-2048
 290 0016 9443     		lw	a3,0(a5)
 291 0018 B7470240 		li	a5,1073889280
 292 001c 93870780 		addi	a5,a5,-2048
 293 0020 37070010 		li	a4,268435456
 294 0024 558F     		or	a4,a3,a4
 295 0026 98C3     		sw	a4,0(a5)
 404:../Firmware/GD32VW55x_standard_peripheral/system_gd32vw55x.c ****     /* enable HXTAL */
 405:../Firmware/GD32VW55x_standard_peripheral/system_gd32vw55x.c ****     RCU_CTL |= RCU_CTL_HXTALEN;
 296              		.loc 1 405 13
 297 0028 B7470240 		li	a5,1073889280
 298 002c 93870780 		addi	a5,a5,-2048
 299 0030 9443     		lw	a3,0(a5)
 300 0032 B7470240 		li	a5,1073889280
 301 0036 93870780 		addi	a5,a5,-2048
 302 003a 4167     		li	a4,65536
 303 003c 558F     		or	a4,a3,a4
 304 003e 98C3     		sw	a4,0(a5)
 305              	.LBB3:
 406:../Firmware/GD32VW55x_standard_peripheral/system_gd32vw55x.c ****     HXTALSTB_DELAY
 306              		.loc 1 406 5
 307 0040 232004FE 		sw	zero,-32(s0)
 308 0044 31A0     		j	.L15
 309              	.L16:
 310              		.loc 1 406 5 is_stmt 0 discriminator 3
 311 0046 832704FE 		lw	a5,-32(s0)
 312 004a 8507     		addi	a5,a5,1
 313 004c 2320F4FE 		sw	a5,-32(s0)
 314              	.L15:
 315              		.loc 1 406 5 discriminator 1
 316 0050 032704FE 		lw	a4,-32(s0)
 317 0054 8967     		li	a5,8192
 318 0056 E368F7FE 		bltu	a4,a5,.L16
 319              	.LBE3:
 407:../Firmware/GD32VW55x_standard_peripheral/system_gd32vw55x.c ****     RCU_CTL |= RCU_CTL_HXTALREADY;
 320              		.loc 1 407 13 is_stmt 1
 321 005a B7470240 		li	a5,1073889280
 322 005e 93870780 		addi	a5,a5,-2048
 323 0062 9443     		lw	a3,0(a5)
 324 0064 B7470240 		li	a5,1073889280
 325 0068 93870780 		addi	a5,a5,-2048
 326 006c 37070080 		li	a4,-2147483648
 327 0070 558F     		or	a4,a3,a4
 328 0072 98C3     		sw	a4,0(a5)
 329              	.L18:
 408:../Firmware/GD32VW55x_standard_peripheral/system_gd32vw55x.c **** 
 409:../Firmware/GD32VW55x_standard_peripheral/system_gd32vw55x.c ****     /* wait until HXTAL is stable or the startup time is longer than HXTAL_STARTUP_TIMEOUT */
 410:../Firmware/GD32VW55x_standard_peripheral/system_gd32vw55x.c ****     do{
 411:../Firmware/GD32VW55x_standard_peripheral/system_gd32vw55x.c ****         timeout++;
 330              		.loc 1 411 16 discriminator 2
 331 0074 8327C4FE 		lw	a5,-20(s0)
 332 0078 8507     		addi	a5,a5,1
 333 007a 2326F4FE 		sw	a5,-20(s0)
 412:../Firmware/GD32VW55x_standard_peripheral/system_gd32vw55x.c ****         stab_flag = (RCU_CTL & RCU_CTL_HXTALSTB);
 334              		.loc 1 412 22 discriminator 2
 335 007e B7470240 		li	a5,1073889280
 336 0082 93870780 		addi	a5,a5,-2048
 337 0086 9843     		lw	a4,0(a5)
 338              		.loc 1 412 19 discriminator 2
 339 0088 B7070200 		li	a5,131072
 340 008c F98F     		and	a5,a4,a5
 341 008e 2324F4FE 		sw	a5,-24(s0)
 413:../Firmware/GD32VW55x_standard_peripheral/system_gd32vw55x.c ****     }while((0U == stab_flag) && (HXTAL_STARTUP_TIMEOUT != timeout));
 342              		.loc 1 413 5 discriminator 2
 343 0092 832784FE 		lw	a5,-24(s0)
 344 0096 99E7     		bne	a5,zero,.L17
 345              		.loc 1 413 30 discriminator 1
 346 0098 0327C4FE 		lw	a4,-20(s0)
 347 009c C167     		li	a5,65536
 348 009e FD17     		addi	a5,a5,-1
 349 00a0 E31AF7FC 		bne	a4,a5,.L18
 350              	.L17:
 414:../Firmware/GD32VW55x_standard_peripheral/system_gd32vw55x.c **** 
 415:../Firmware/GD32VW55x_standard_peripheral/system_gd32vw55x.c ****     if(0U == (RCU_CTL & RCU_CTL_HXTALSTB)){
 351              		.loc 1 415 15
 352 00a4 B7470240 		li	a5,1073889280
 353 00a8 93870780 		addi	a5,a5,-2048
 354 00ac 9843     		lw	a4,0(a5)
 355              		.loc 1 415 23
 356 00ae B7070200 		li	a5,131072
 357 00b2 F98F     		and	a5,a4,a5
 358              		.loc 1 415 7
 359 00b4 91E3     		bne	a5,zero,.L19
 360              	.L20:
 416:../Firmware/GD32VW55x_standard_peripheral/system_gd32vw55x.c ****         /* if fail */
 417:../Firmware/GD32VW55x_standard_peripheral/system_gd32vw55x.c ****         while(1){
 361              		.loc 1 417 14 discriminator 1
 362 00b6 01A0     		j	.L20
 363              	.L19:
 418:../Firmware/GD32VW55x_standard_peripheral/system_gd32vw55x.c ****         }
 419:../Firmware/GD32VW55x_standard_peripheral/system_gd32vw55x.c ****     }
 420:../Firmware/GD32VW55x_standard_peripheral/system_gd32vw55x.c **** 
 421:../Firmware/GD32VW55x_standard_peripheral/system_gd32vw55x.c ****     /* HXTAL is stable */
 422:../Firmware/GD32VW55x_standard_peripheral/system_gd32vw55x.c ****     /* AHB = SYSCLK */
 423:../Firmware/GD32VW55x_standard_peripheral/system_gd32vw55x.c ****     RCU_CFG0 |= RCU_AHB_CKSYS_DIV1;
 364              		.loc 1 423 14
 365 00b8 B7470240 		li	a5,1073889280
 366 00bc 13878780 		addi	a4,a5,-2040
 367 00c0 B7470240 		li	a5,1073889280
 368 00c4 93878780 		addi	a5,a5,-2040
 369 00c8 1843     		lw	a4,0(a4)
 370 00ca 98C3     		sw	a4,0(a5)
 424:../Firmware/GD32VW55x_standard_peripheral/system_gd32vw55x.c ****     /* APB2 = AHB */
 425:../Firmware/GD32VW55x_standard_peripheral/system_gd32vw55x.c ****     RCU_CFG0 |= RCU_APB2_CKAHB_DIV1;
 371              		.loc 1 425 14
 372 00cc B7470240 		li	a5,1073889280
 373 00d0 13878780 		addi	a4,a5,-2040
 374 00d4 B7470240 		li	a5,1073889280
 375 00d8 93878780 		addi	a5,a5,-2040
 376 00dc 1843     		lw	a4,0(a4)
 377 00de 98C3     		sw	a4,0(a5)
 426:../Firmware/GD32VW55x_standard_peripheral/system_gd32vw55x.c ****     /* APB1 = AHB/2 */
 427:../Firmware/GD32VW55x_standard_peripheral/system_gd32vw55x.c ****     RCU_CFG0 |= RCU_APB1_CKAHB_DIV2;
 378              		.loc 1 427 14
 379 00e0 B7470240 		li	a5,1073889280
 380 00e4 93878780 		addi	a5,a5,-2040
 381 00e8 9443     		lw	a3,0(a5)
 382 00ea B7470240 		li	a5,1073889280
 383 00ee 93878780 		addi	a5,a5,-2040
 384 00f2 0567     		li	a4,4096
 385 00f4 558F     		or	a4,a3,a4
 386 00f6 98C3     		sw	a4,0(a5)
 428:../Firmware/GD32VW55x_standard_peripheral/system_gd32vw55x.c **** 
 429:../Firmware/GD32VW55x_standard_peripheral/system_gd32vw55x.c ****     RCU_PLL |= RCU_PLLSRC_HXTAL;
 387              		.loc 1 429 13
 388 00f8 B7470240 		li	a5,1073889280
 389 00fc 93874780 		addi	a5,a5,-2044
 390 0100 9443     		lw	a3,0(a5)
 391 0102 B7470240 		li	a5,1073889280
 392 0106 93874780 		addi	a5,a5,-2044
 393 010a 2167     		li	a4,32768
 394 010c 558F     		or	a4,a3,a4
 395 010e 98C3     		sw	a4,0(a5)
 430:../Firmware/GD32VW55x_standard_peripheral/system_gd32vw55x.c **** 
 431:../Firmware/GD32VW55x_standard_peripheral/system_gd32vw55x.c ****     /* PLLDIG = 960/HXTAL */
 432:../Firmware/GD32VW55x_standard_peripheral/system_gd32vw55x.c ****     RCU_PLLDIGCFG1 = ((960 << 21) / (HXTAL_VALUE/1000000)) & 0x7FFFFFFF;
 396              		.loc 1 432 5
 397 0110 B7470240 		li	a5,1073889280
 398 0114 93874789 		addi	a5,a5,-1900
 399              		.loc 1 432 20
 400 0118 37070003 		li	a4,50331648
 401 011c 98C3     		sw	a4,0(a5)
 433:../Firmware/GD32VW55x_standard_peripheral/system_gd32vw55x.c **** 
 434:../Firmware/GD32VW55x_standard_peripheral/system_gd32vw55x.c ****     /* PLLDIG OUT = 480M */
 435:../Firmware/GD32VW55x_standard_peripheral/system_gd32vw55x.c ****     RCU_PLLDIGCFG0 |= ( RCU_PLLDIG_480M );
 402              		.loc 1 435 20
 403 011e B7470240 		li	a5,1073889280
 404 0122 93874788 		addi	a5,a5,-1916
 405 0126 9443     		lw	a3,0(a5)
 406 0128 B7470240 		li	a5,1073889280
 407 012c 93874788 		addi	a5,a5,-1916
 408 0130 37070003 		li	a4,50331648
 409 0134 558F     		or	a4,a3,a4
 410 0136 98C3     		sw	a4,0(a5)
 436:../Firmware/GD32VW55x_standard_peripheral/system_gd32vw55x.c ****     /* SYS clock = 160M */
 437:../Firmware/GD32VW55x_standard_peripheral/system_gd32vw55x.c ****     RCU_PLLDIGCFG0 |= ( RCU_PLLDIG_SYS_DIV3 );
 411              		.loc 1 437 20
 412 0138 B7470240 		li	a5,1073889280
 413 013c 93874788 		addi	a5,a5,-1916
 414 0140 9443     		lw	a3,0(a5)
 415 0142 B7470240 		li	a5,1073889280
 416 0146 93874788 		addi	a5,a5,-1916
 417 014a 37070008 		li	a4,134217728
 418 014e 558F     		or	a4,a3,a4
 419 0150 98C3     		sw	a4,0(a5)
 438:../Firmware/GD32VW55x_standard_peripheral/system_gd32vw55x.c ****     /* enable PLLDIG */
 439:../Firmware/GD32VW55x_standard_peripheral/system_gd32vw55x.c ****     RCU_CFG1 |= (RCU_CFG1_BGPU);
 420              		.loc 1 439 14
 421 0152 B7470240 		li	a5,1073889280
 422 0156 9387C788 		addi	a5,a5,-1908
 423 015a 9443     		lw	a3,0(a5)
 424 015c B7470240 		li	a5,1073889280
 425 0160 9387C788 		addi	a5,a5,-1908
 426 0164 37070800 		li	a4,524288
 427 0168 558F     		or	a4,a3,a4
 428 016a 98C3     		sw	a4,0(a5)
 440:../Firmware/GD32VW55x_standard_peripheral/system_gd32vw55x.c ****     RCU_CTL |= (RCU_CTL_PLLDIGEN | RCU_CTL_PLLDIGPU);
 429              		.loc 1 440 13
 430 016c B7470240 		li	a5,1073889280
 431 0170 93870780 		addi	a5,a5,-2048
 432 0174 9443     		lw	a3,0(a5)
 433 0176 B7470240 		li	a5,1073889280
 434 017a 93870780 		addi	a5,a5,-2048
 435 017e 37073000 		li	a4,3145728
 436 0182 558F     		or	a4,a3,a4
 437 0184 98C3     		sw	a4,0(a5)
 441:../Firmware/GD32VW55x_standard_peripheral/system_gd32vw55x.c ****     /* wait until PLLDIG is stable */
 442:../Firmware/GD32VW55x_standard_peripheral/system_gd32vw55x.c ****     while(0U == (RCU_CTL & RCU_CTL_PLLDIGSTB)){
 438              		.loc 1 442 10
 439 0186 0100     		nop
 440              	.L21:
 441              		.loc 1 442 18 discriminator 1
 442 0188 B7470240 		li	a5,1073889280
 443 018c 93870780 		addi	a5,a5,-2048
 444 0190 9843     		lw	a4,0(a5)
 445              		.loc 1 442 26 discriminator 1
 446 0192 B7078000 		li	a5,8388608
 447 0196 F98F     		and	a5,a4,a5
 448              		.loc 1 442 10 discriminator 1
 449 0198 E5DB     		beq	a5,zero,.L21
 443:../Firmware/GD32VW55x_standard_peripheral/system_gd32vw55x.c ****     }
 444:../Firmware/GD32VW55x_standard_peripheral/system_gd32vw55x.c ****     reg_temp = RCU_CFG0;
 450              		.loc 1 444 16
 451 019a B7470240 		li	a5,1073889280
 452 019e 93878780 		addi	a5,a5,-2040
 453 01a2 9C43     		lw	a5,0(a5)
 454              		.loc 1 444 14
 455 01a4 2322F4FE 		sw	a5,-28(s0)
 445:../Firmware/GD32VW55x_standard_peripheral/system_gd32vw55x.c ****     /* select PLLDIG as system clock */
 446:../Firmware/GD32VW55x_standard_peripheral/system_gd32vw55x.c ****     reg_temp &= ~RCU_CFG0_SCS;
 456              		.loc 1 446 14
 457 01a8 832744FE 		lw	a5,-28(s0)
 458 01ac F19B     		andi	a5,a5,-4
 459 01ae 2322F4FE 		sw	a5,-28(s0)
 447:../Firmware/GD32VW55x_standard_peripheral/system_gd32vw55x.c ****     reg_temp |= RCU_CKSYSSRC_PLLDIG;
 460              		.loc 1 447 14
 461 01b2 832744FE 		lw	a5,-28(s0)
 462 01b6 93E72700 		ori	a5,a5,2
 463 01ba 2322F4FE 		sw	a5,-28(s0)
 448:../Firmware/GD32VW55x_standard_peripheral/system_gd32vw55x.c ****     RCU_CFG0 = reg_temp;
 464              		.loc 1 448 5
 465 01be B7470240 		li	a5,1073889280
 466 01c2 93878780 		addi	a5,a5,-2040
 467              		.loc 1 448 14
 468 01c6 032744FE 		lw	a4,-28(s0)
 469 01ca 98C3     		sw	a4,0(a5)
 449:../Firmware/GD32VW55x_standard_peripheral/system_gd32vw55x.c **** 
 450:../Firmware/GD32VW55x_standard_peripheral/system_gd32vw55x.c ****     /* wait until PLLDIG is selected as system clock */
 451:../Firmware/GD32VW55x_standard_peripheral/system_gd32vw55x.c ****     while(RCU_SCSS_PLLDIG != (RCU_CFG0 & RCU_CFG0_SCSS)){
 470              		.loc 1 451 10
 471 01cc 0100     		nop
 472              	.L22:
 473              		.loc 1 451 31 discriminator 1
 474 01ce B7470240 		li	a5,1073889280
 475 01d2 93878780 		addi	a5,a5,-2040
 476 01d6 9C43     		lw	a5,0(a5)
 477              		.loc 1 451 40 discriminator 1
 478 01d8 13F7C700 		andi	a4,a5,12
 479              		.loc 1 451 10 discriminator 1
 480 01dc A147     		li	a5,8
 481 01de E318F7FE 		bne	a4,a5,.L22
 452:../Firmware/GD32VW55x_standard_peripheral/system_gd32vw55x.c ****     }
 453:../Firmware/GD32VW55x_standard_peripheral/system_gd32vw55x.c **** } /* __SYSTEM_CLOCK_IRC16M */
 482              		.loc 1 453 1
 483 01e2 0100     		nop
 484 01e4 0100     		nop
 485 01e6 7244     		lw	s0,28(sp)
 486              		.cfi_restore 8
 487              		.cfi_def_cfa 2, 32
 488 01e8 0561     		addi	sp,sp,32
 489              		.cfi_def_cfa_offset 0
 490 01ea 8280     		jr	ra
 491              		.cfi_endproc
 492              	.LFE350:
 494              		.section	.rodata
 495              		.align	2
 496              	.LC0:
 497 0000 00       		.string	""
 498 0001 00       		.string	""
 499 0002 00       		.string	""
 500 0003 00       		.string	""
 501 0004 00       		.string	""
 502 0005 00       		.string	""
 503 0006 00       		.string	""
 504 0007 00       		.string	""
 505 0008 01020304 		.ascii	"\001\002\003\004\006\007\b\t"
 505      06070809 
 506              		.section	.text.SystemCoreClockUpdate,"ax",@progbits
 507              		.align	1
 508              		.globl	SystemCoreClockUpdate
 510              	SystemCoreClockUpdate:
 511              	.LFB351:
 454:../Firmware/GD32VW55x_standard_peripheral/system_gd32vw55x.c **** #elif defined (__SYSTEM_CLOCK_48M_PLLDIG_HXTAL)
 455:../Firmware/GD32VW55x_standard_peripheral/system_gd32vw55x.c **** /*!
 456:../Firmware/GD32VW55x_standard_peripheral/system_gd32vw55x.c ****     \brief      configure the system clock to 48M by PLL which selects HXTAL as its clock source
 457:../Firmware/GD32VW55x_standard_peripheral/system_gd32vw55x.c ****     \param[in]  none
 458:../Firmware/GD32VW55x_standard_peripheral/system_gd32vw55x.c ****     \param[out] none
 459:../Firmware/GD32VW55x_standard_peripheral/system_gd32vw55x.c ****     \retval     none
 460:../Firmware/GD32VW55x_standard_peripheral/system_gd32vw55x.c **** */
 461:../Firmware/GD32VW55x_standard_peripheral/system_gd32vw55x.c **** static void system_clock_48m_hxtal(void)
 462:../Firmware/GD32VW55x_standard_peripheral/system_gd32vw55x.c **** {
 463:../Firmware/GD32VW55x_standard_peripheral/system_gd32vw55x.c ****     uint32_t timeout = 0U;
 464:../Firmware/GD32VW55x_standard_peripheral/system_gd32vw55x.c ****     uint32_t stab_flag = 0U;
 465:../Firmware/GD32VW55x_standard_peripheral/system_gd32vw55x.c ****     __IO uint32_t reg_temp;
 466:../Firmware/GD32VW55x_standard_peripheral/system_gd32vw55x.c **** 
 467:../Firmware/GD32VW55x_standard_peripheral/system_gd32vw55x.c ****     /* power up HXTAL */
 468:../Firmware/GD32VW55x_standard_peripheral/system_gd32vw55x.c ****     RCU_CTL |= RCU_CTL_HXTALPU;
 469:../Firmware/GD32VW55x_standard_peripheral/system_gd32vw55x.c ****     /* enable HXTAL */
 470:../Firmware/GD32VW55x_standard_peripheral/system_gd32vw55x.c ****     RCU_CTL |= RCU_CTL_HXTALEN;
 471:../Firmware/GD32VW55x_standard_peripheral/system_gd32vw55x.c ****     HXTALSTB_DELAY
 472:../Firmware/GD32VW55x_standard_peripheral/system_gd32vw55x.c ****     RCU_CTL |= RCU_CTL_HXTALREADY;
 473:../Firmware/GD32VW55x_standard_peripheral/system_gd32vw55x.c **** 
 474:../Firmware/GD32VW55x_standard_peripheral/system_gd32vw55x.c ****     /* wait until HXTAL is stable or the startup time is longer than HXTAL_STARTUP_TIMEOUT */
 475:../Firmware/GD32VW55x_standard_peripheral/system_gd32vw55x.c ****     do{
 476:../Firmware/GD32VW55x_standard_peripheral/system_gd32vw55x.c ****         timeout++;
 477:../Firmware/GD32VW55x_standard_peripheral/system_gd32vw55x.c ****         stab_flag = (RCU_CTL & RCU_CTL_HXTALSTB);
 478:../Firmware/GD32VW55x_standard_peripheral/system_gd32vw55x.c ****     }while((0U == stab_flag) && (HXTAL_STARTUP_TIMEOUT != timeout));
 479:../Firmware/GD32VW55x_standard_peripheral/system_gd32vw55x.c **** 
 480:../Firmware/GD32VW55x_standard_peripheral/system_gd32vw55x.c ****     if(0U == (RCU_CTL & RCU_CTL_HXTALSTB)){
 481:../Firmware/GD32VW55x_standard_peripheral/system_gd32vw55x.c ****         /* if fail */
 482:../Firmware/GD32VW55x_standard_peripheral/system_gd32vw55x.c ****         while(1){
 483:../Firmware/GD32VW55x_standard_peripheral/system_gd32vw55x.c ****         }
 484:../Firmware/GD32VW55x_standard_peripheral/system_gd32vw55x.c ****     }
 485:../Firmware/GD32VW55x_standard_peripheral/system_gd32vw55x.c **** 
 486:../Firmware/GD32VW55x_standard_peripheral/system_gd32vw55x.c ****     /* HXTAL is stable */
 487:../Firmware/GD32VW55x_standard_peripheral/system_gd32vw55x.c ****     /* AHB = SYSCLK */
 488:../Firmware/GD32VW55x_standard_peripheral/system_gd32vw55x.c ****     RCU_CFG0 |= RCU_AHB_CKSYS_DIV1;
 489:../Firmware/GD32VW55x_standard_peripheral/system_gd32vw55x.c ****     /* APB2 = AHB */
 490:../Firmware/GD32VW55x_standard_peripheral/system_gd32vw55x.c ****     RCU_CFG0 |= RCU_APB2_CKAHB_DIV1;
 491:../Firmware/GD32VW55x_standard_peripheral/system_gd32vw55x.c ****     /* APB1 = AHB/2 */
 492:../Firmware/GD32VW55x_standard_peripheral/system_gd32vw55x.c ****     RCU_CFG0 |= RCU_APB1_CKAHB_DIV2;
 493:../Firmware/GD32VW55x_standard_peripheral/system_gd32vw55x.c **** 
 494:../Firmware/GD32VW55x_standard_peripheral/system_gd32vw55x.c ****     RCU_PLL |= RCU_PLLSRC_HXTAL;
 495:../Firmware/GD32VW55x_standard_peripheral/system_gd32vw55x.c **** 
 496:../Firmware/GD32VW55x_standard_peripheral/system_gd32vw55x.c ****     /* PLLDIG = 960/HXTAL */
 497:../Firmware/GD32VW55x_standard_peripheral/system_gd32vw55x.c ****     RCU_PLLDIGCFG1 = ((960 << 21) / (HXTAL_VALUE/1000000)) & 0x7FFFFFFF;
 498:../Firmware/GD32VW55x_standard_peripheral/system_gd32vw55x.c **** 
 499:../Firmware/GD32VW55x_standard_peripheral/system_gd32vw55x.c ****     /* PLLDIG OUT = 480M */
 500:../Firmware/GD32VW55x_standard_peripheral/system_gd32vw55x.c ****     RCU_PLLDIGCFG0 |= ( RCU_PLLDIG_480M );
 501:../Firmware/GD32VW55x_standard_peripheral/system_gd32vw55x.c ****     /* SYS clock = 48M */
 502:../Firmware/GD32VW55x_standard_peripheral/system_gd32vw55x.c ****     RCU_PLLDIGCFG0 |= ( RCU_PLLDIG_SYS_DIV10 );
 503:../Firmware/GD32VW55x_standard_peripheral/system_gd32vw55x.c ****     /* enable PLL */
 504:../Firmware/GD32VW55x_standard_peripheral/system_gd32vw55x.c ****     RCU_CFG1 |= (RCU_CFG1_BGPU);
 505:../Firmware/GD32VW55x_standard_peripheral/system_gd32vw55x.c ****     RCU_CTL |= (RCU_CTL_PLLDIGEN | RCU_CTL_PLLDIGPU);
 506:../Firmware/GD32VW55x_standard_peripheral/system_gd32vw55x.c ****     /* wait until PLL is stable */
 507:../Firmware/GD32VW55x_standard_peripheral/system_gd32vw55x.c ****     while(0U == (RCU_CTL & RCU_CTL_PLLDIGSTB)){
 508:../Firmware/GD32VW55x_standard_peripheral/system_gd32vw55x.c ****     }
 509:../Firmware/GD32VW55x_standard_peripheral/system_gd32vw55x.c **** 
 510:../Firmware/GD32VW55x_standard_peripheral/system_gd32vw55x.c ****     reg_temp = RCU_CFG0;
 511:../Firmware/GD32VW55x_standard_peripheral/system_gd32vw55x.c ****     /* select PLL as system clock */
 512:../Firmware/GD32VW55x_standard_peripheral/system_gd32vw55x.c ****     reg_temp &= ~RCU_CFG0_SCS;
 513:../Firmware/GD32VW55x_standard_peripheral/system_gd32vw55x.c ****     reg_temp |= RCU_CKSYSSRC_PLLDIG;
 514:../Firmware/GD32VW55x_standard_peripheral/system_gd32vw55x.c ****     RCU_CFG0 = reg_temp;
 515:../Firmware/GD32VW55x_standard_peripheral/system_gd32vw55x.c **** 
 516:../Firmware/GD32VW55x_standard_peripheral/system_gd32vw55x.c ****     /* wait until PLL is selected as system clock */
 517:../Firmware/GD32VW55x_standard_peripheral/system_gd32vw55x.c ****     while(RCU_SCSS_PLLDIG != (RCU_CFG0 & RCU_CFG0_SCSS)){
 518:../Firmware/GD32VW55x_standard_peripheral/system_gd32vw55x.c ****     }
 519:../Firmware/GD32VW55x_standard_peripheral/system_gd32vw55x.c **** }
 520:../Firmware/GD32VW55x_standard_peripheral/system_gd32vw55x.c **** #endif
 521:../Firmware/GD32VW55x_standard_peripheral/system_gd32vw55x.c **** 
 522:../Firmware/GD32VW55x_standard_peripheral/system_gd32vw55x.c **** /*!
 523:../Firmware/GD32VW55x_standard_peripheral/system_gd32vw55x.c ****     \brief      update the SystemCoreClock with current core clock retrieved from cpu registers
 524:../Firmware/GD32VW55x_standard_peripheral/system_gd32vw55x.c ****     \param[in]  none
 525:../Firmware/GD32VW55x_standard_peripheral/system_gd32vw55x.c ****     \param[out] none
 526:../Firmware/GD32VW55x_standard_peripheral/system_gd32vw55x.c ****     \retval     none
 527:../Firmware/GD32VW55x_standard_peripheral/system_gd32vw55x.c **** */
 528:../Firmware/GD32VW55x_standard_peripheral/system_gd32vw55x.c **** void SystemCoreClockUpdate (void)
 529:../Firmware/GD32VW55x_standard_peripheral/system_gd32vw55x.c **** {
 512              		.loc 1 529 1
 513              		.cfi_startproc
 514 0000 3971     		addi	sp,sp,-64
 515              		.cfi_def_cfa_offset 64
 516 0002 22DE     		sw	s0,60(sp)
 517              		.cfi_offset 8, -4
 518 0004 8000     		addi	s0,sp,64
 519              		.cfi_def_cfa 8, 0
 530:../Firmware/GD32VW55x_standard_peripheral/system_gd32vw55x.c ****     uint32_t sws;
 531:../Firmware/GD32VW55x_standard_peripheral/system_gd32vw55x.c ****     uint32_t fresel, plldigdiv, outputfre, idx, clk_exp;
 532:../Firmware/GD32VW55x_standard_peripheral/system_gd32vw55x.c **** 
 533:../Firmware/GD32VW55x_standard_peripheral/system_gd32vw55x.c ****     /* exponent of AHB, APB1 and APB2 clock divider */
 534:../Firmware/GD32VW55x_standard_peripheral/system_gd32vw55x.c ****     const uint8_t ahb_exp[16] = {0, 0, 0, 0, 0, 0, 0, 0, 1, 2, 3, 4, 6, 7, 8, 9};
 520              		.loc 1 534 19
 521 0006 97070000 		lla	a5,.LC0
 521      93870700 
 522 000e 9043     		lw	a2,0(a5)
 523 0010 D443     		lw	a3,4(a5)
 524 0012 9847     		lw	a4,8(a5)
 525 0014 DC47     		lw	a5,12(a5)
 526 0016 2324C4FC 		sw	a2,-56(s0)
 527 001a 2326D4FC 		sw	a3,-52(s0)
 528 001e 2328E4FC 		sw	a4,-48(s0)
 529 0022 232AF4FC 		sw	a5,-44(s0)
 535:../Firmware/GD32VW55x_standard_peripheral/system_gd32vw55x.c **** 
 536:../Firmware/GD32VW55x_standard_peripheral/system_gd32vw55x.c ****     sws = GET_BITS(RCU_CFG0, 2, 3);
 530              		.loc 1 536 11
 531 0026 B7470240 		li	a5,1073889280
 532 002a 93878780 		addi	a5,a5,-2040
 533 002e 9C43     		lw	a5,0(a5)
 534 0030 8983     		srli	a5,a5,2
 535              		.loc 1 536 9
 536 0032 8D8B     		andi	a5,a5,3
 537 0034 2324F4FE 		sw	a5,-24(s0)
 537:../Firmware/GD32VW55x_standard_peripheral/system_gd32vw55x.c ****     switch(sws){
 538              		.loc 1 537 5
 539 0038 032784FE 		lw	a4,-24(s0)
 540 003c 8947     		li	a5,2
 541 003e 6304F704 		beq	a4,a5,.L24
 542 0042 032784FE 		lw	a4,-24(s0)
 543 0046 8947     		li	a5,2
 544 0048 63E9E70E 		bgtu	a4,a5,.L25
 545 004c 832784FE 		lw	a5,-24(s0)
 546 0050 99C7     		beq	a5,zero,.L26
 547 0052 032784FE 		lw	a4,-24(s0)
 548 0056 8547     		li	a5,1
 549 0058 630DF700 		beq	a4,a5,.L27
 550 005c F9A8     		j	.L25
 551              	.L26:
 538:../Firmware/GD32VW55x_standard_peripheral/system_gd32vw55x.c ****     /* IRC16M is selected as CK_SYS */
 539:../Firmware/GD32VW55x_standard_peripheral/system_gd32vw55x.c ****     case 0:
 540:../Firmware/GD32VW55x_standard_peripheral/system_gd32vw55x.c ****         SystemCoreClock = IRC16M_VALUE;
 552              		.loc 1 540 25
 553 005e 97070000 		lla	a5,SystemCoreClock
 553      93870700 
 554 0066 3727F400 		li	a4,15998976
 555 006a 13070740 		addi	a4,a4,1024
 556 006e 98C3     		sw	a4,0(a5)
 541:../Firmware/GD32VW55x_standard_peripheral/system_gd32vw55x.c ****         break;
 557              		.loc 1 541 9
 558 0070 F9A8     		j	.L28
 559              	.L27:
 542:../Firmware/GD32VW55x_standard_peripheral/system_gd32vw55x.c ****     /* HXTAL is selected as CK_SYS */
 543:../Firmware/GD32VW55x_standard_peripheral/system_gd32vw55x.c ****     case 1:
 544:../Firmware/GD32VW55x_standard_peripheral/system_gd32vw55x.c ****         SystemCoreClock = HXTAL_VALUE;
 560              		.loc 1 544 25
 561 0072 97070000 		lla	a5,SystemCoreClock
 561      93870700 
 562 007a 37676202 		li	a4,40001536
 563 007e 130707A0 		addi	a4,a4,-1536
 564 0082 98C3     		sw	a4,0(a5)
 545:../Firmware/GD32VW55x_standard_peripheral/system_gd32vw55x.c ****         break;
 565              		.loc 1 545 9
 566 0084 E9A0     		j	.L28
 567              	.L24:
 546:../Firmware/GD32VW55x_standard_peripheral/system_gd32vw55x.c ****     /* PLLDIG is selected as CK_SYS */
 547:../Firmware/GD32VW55x_standard_peripheral/system_gd32vw55x.c ****     case 2:
 548:../Firmware/GD32VW55x_standard_peripheral/system_gd32vw55x.c ****         /* get the value of PLLDIGOSEL[1:0] */
 549:../Firmware/GD32VW55x_standard_peripheral/system_gd32vw55x.c ****         fresel = GET_BITS(RCU_PLLDIGCFG0, 24U, 25U);
 568              		.loc 1 549 18
 569 0086 B7470240 		li	a5,1073889280
 570 008a 93874788 		addi	a5,a5,-1916
 571 008e 9C43     		lw	a5,0(a5)
 572 0090 E183     		srli	a5,a5,24
 573              		.loc 1 549 16
 574 0092 8D8B     		andi	a5,a5,3
 575 0094 2322F4FE 		sw	a5,-28(s0)
 576 0098 032744FE 		lw	a4,-28(s0)
 577 009c 8D47     		li	a5,3
 578 009e 630BF704 		beq	a4,a5,.L29
 579 00a2 032744FE 		lw	a4,-28(s0)
 580 00a6 8D47     		li	a5,3
 581 00a8 63EDE704 		bgtu	a4,a5,.L30
 582 00ac 032744FE 		lw	a4,-28(s0)
 583 00b0 8947     		li	a5,2
 584 00b2 630CF702 		beq	a4,a5,.L31
 585 00b6 032744FE 		lw	a4,-28(s0)
 586 00ba 8947     		li	a5,2
 587 00bc 63E3E704 		bgtu	a4,a5,.L30
 588 00c0 832744FE 		lw	a5,-28(s0)
 589 00c4 99C7     		beq	a5,zero,.L32
 590 00c6 032744FE 		lw	a4,-28(s0)
 591 00ca 8547     		li	a5,1
 592 00cc 6308F700 		beq	a4,a5,.L33
 593 00d0 0DA8     		j	.L30
 594              	.L32:
 550:../Firmware/GD32VW55x_standard_peripheral/system_gd32vw55x.c ****         switch(fresel){
 551:../Firmware/GD32VW55x_standard_peripheral/system_gd32vw55x.c ****         case 0:
 552:../Firmware/GD32VW55x_standard_peripheral/system_gd32vw55x.c ****             outputfre = 192000000;
 595              		.loc 1 552 23
 596 00d2 B7B7710B 		li	a5,192000000
 597 00d6 2326F4FE 		sw	a5,-20(s0)
 553:../Firmware/GD32VW55x_standard_peripheral/system_gd32vw55x.c ****             break;
 598              		.loc 1 553 13
 599 00da 0DA8     		j	.L34
 600              	.L33:
 554:../Firmware/GD32VW55x_standard_peripheral/system_gd32vw55x.c ****         case 1:
 555:../Firmware/GD32VW55x_standard_peripheral/system_gd32vw55x.c ****             outputfre = 240000000;
 601              		.loc 1 555 23
 602 00dc B7274E0E 		li	a5,240001024
 603 00e0 938707C0 		addi	a5,a5,-1024
 604 00e4 2326F4FE 		sw	a5,-20(s0)
 556:../Firmware/GD32VW55x_standard_peripheral/system_gd32vw55x.c ****             break;
 605              		.loc 1 556 13
 606 00e8 15A0     		j	.L34
 607              	.L31:
 557:../Firmware/GD32VW55x_standard_peripheral/system_gd32vw55x.c ****         case 2:
 558:../Firmware/GD32VW55x_standard_peripheral/system_gd32vw55x.c ****             outputfre = 320000000;
 608              		.loc 1 558 23
 609 00ea B7D71213 		li	a5,320000000
 610 00ee 2326F4FE 		sw	a5,-20(s0)
 559:../Firmware/GD32VW55x_standard_peripheral/system_gd32vw55x.c ****             break;
 611              		.loc 1 559 13
 612 00f2 29A8     		j	.L34
 613              	.L29:
 560:../Firmware/GD32VW55x_standard_peripheral/system_gd32vw55x.c ****         case 3:
 561:../Firmware/GD32VW55x_standard_peripheral/system_gd32vw55x.c ****             outputfre = 480000000;
 614              		.loc 1 561 23
 615 00f4 B7479C1C 		li	a5,480002048
 616 00f8 93870780 		addi	a5,a5,-2048
 617 00fc 2326F4FE 		sw	a5,-20(s0)
 562:../Firmware/GD32VW55x_standard_peripheral/system_gd32vw55x.c ****             break;
 618              		.loc 1 562 13
 619 0100 31A0     		j	.L34
 620              	.L30:
 563:../Firmware/GD32VW55x_standard_peripheral/system_gd32vw55x.c ****         default:
 564:../Firmware/GD32VW55x_standard_peripheral/system_gd32vw55x.c ****             outputfre = 192000000;
 621              		.loc 1 564 23
 622 0102 B7B7710B 		li	a5,192000000
 623 0106 2326F4FE 		sw	a5,-20(s0)
 565:../Firmware/GD32VW55x_standard_peripheral/system_gd32vw55x.c ****             break;
 624              		.loc 1 565 13
 625 010a 0100     		nop
 626              	.L34:
 566:../Firmware/GD32VW55x_standard_peripheral/system_gd32vw55x.c ****         }
 567:../Firmware/GD32VW55x_standard_peripheral/system_gd32vw55x.c ****         plldigdiv = (GET_BITS(RCU_PLLDIGCFG0, 26U, 31U) + 1U);
 627              		.loc 1 567 22
 628 010c B7470240 		li	a5,1073889280
 629 0110 93874788 		addi	a5,a5,-1916
 630 0114 9C43     		lw	a5,0(a5)
 631 0116 E983     		srli	a5,a5,26
 632 0118 93F7F703 		andi	a5,a5,63
 633              		.loc 1 567 19
 634 011c 8507     		addi	a5,a5,1
 635 011e 2320F4FE 		sw	a5,-32(s0)
 568:../Firmware/GD32VW55x_standard_peripheral/system_gd32vw55x.c ****         SystemCoreClock = outputfre/plldigdiv;
 636              		.loc 1 568 36
 637 0122 0327C4FE 		lw	a4,-20(s0)
 638 0126 832704FE 		lw	a5,-32(s0)
 639 012a 3357F702 		divu	a4,a4,a5
 640              		.loc 1 568 25
 641 012e 97070000 		lla	a5,SystemCoreClock
 641      93870700 
 642 0136 98C3     		sw	a4,0(a5)
 569:../Firmware/GD32VW55x_standard_peripheral/system_gd32vw55x.c ****         break;
 643              		.loc 1 569 9
 644 0138 19A8     		j	.L28
 645              	.L25:
 570:../Firmware/GD32VW55x_standard_peripheral/system_gd32vw55x.c ****     /* IRC16M is selected as CK_SYS */
 571:../Firmware/GD32VW55x_standard_peripheral/system_gd32vw55x.c ****     default:
 572:../Firmware/GD32VW55x_standard_peripheral/system_gd32vw55x.c ****         SystemCoreClock = IRC16M_VALUE;
 646              		.loc 1 572 25
 647 013a 97070000 		lla	a5,SystemCoreClock
 647      93870700 
 648 0142 3727F400 		li	a4,15998976
 649 0146 13070740 		addi	a4,a4,1024
 650 014a 98C3     		sw	a4,0(a5)
 573:../Firmware/GD32VW55x_standard_peripheral/system_gd32vw55x.c ****         break;
 651              		.loc 1 573 9
 652 014c 0100     		nop
 653              	.L28:
 574:../Firmware/GD32VW55x_standard_peripheral/system_gd32vw55x.c ****     }
 575:../Firmware/GD32VW55x_standard_peripheral/system_gd32vw55x.c ****     /* calculate AHB clock frequency */
 576:../Firmware/GD32VW55x_standard_peripheral/system_gd32vw55x.c ****     idx = GET_BITS(RCU_CFG0, 4, 7);
 654              		.loc 1 576 11
 655 014e B7470240 		li	a5,1073889280
 656 0152 93878780 		addi	a5,a5,-2040
 657 0156 9C43     		lw	a5,0(a5)
 658 0158 9183     		srli	a5,a5,4
 659              		.loc 1 576 9
 660 015a BD8B     		andi	a5,a5,15
 661 015c 232EF4FC 		sw	a5,-36(s0)
 577:../Firmware/GD32VW55x_standard_peripheral/system_gd32vw55x.c ****     clk_exp = ahb_exp[idx];
 662              		.loc 1 577 22
 663 0160 8327C4FD 		lw	a5,-36(s0)
 664 0164 130704FF 		addi	a4,s0,-16
 665 0168 BA97     		add	a5,a4,a5
 666 016a 83C787FD 		lbu	a5,-40(a5)
 667              		.loc 1 577 13
 668 016e 232CF4FC 		sw	a5,-40(s0)
 578:../Firmware/GD32VW55x_standard_peripheral/system_gd32vw55x.c ****     SystemCoreClock = SystemCoreClock >> clk_exp;
 669              		.loc 1 578 39
 670 0172 97070000 		lla	a5,SystemCoreClock
 670      93870700 
 671 017a 9843     		lw	a4,0(a5)
 672 017c 832784FD 		lw	a5,-40(s0)
 673 0180 3357F700 		srl	a4,a4,a5
 674              		.loc 1 578 21
 675 0184 97070000 		lla	a5,SystemCoreClock
 675      93870700 
 676 018c 98C3     		sw	a4,0(a5)
 579:../Firmware/GD32VW55x_standard_peripheral/system_gd32vw55x.c **** }
 677              		.loc 1 579 1
 678 018e 0100     		nop
 679 0190 7254     		lw	s0,60(sp)
 680              		.cfi_restore 8
 681              		.cfi_def_cfa 2, 64
 682 0192 2161     		addi	sp,sp,64
 683              		.cfi_def_cfa_offset 0
 684 0194 8280     		jr	ra
 685              		.cfi_endproc
 686              	.LFE351:
 688              		.section	.text.gd32vw55x_firmware_version_get,"ax",@progbits
 689              		.align	1
 690              		.globl	gd32vw55x_firmware_version_get
 692              	gd32vw55x_firmware_version_get:
 693              	.LFB352:
 580:../Firmware/GD32VW55x_standard_peripheral/system_gd32vw55x.c **** 
 581:../Firmware/GD32VW55x_standard_peripheral/system_gd32vw55x.c **** 
 582:../Firmware/GD32VW55x_standard_peripheral/system_gd32vw55x.c **** #ifdef __FIRMWARE_VERSION_DEFINE
 583:../Firmware/GD32VW55x_standard_peripheral/system_gd32vw55x.c **** /*!
 584:../Firmware/GD32VW55x_standard_peripheral/system_gd32vw55x.c ****     \brief      get firmware version
 585:../Firmware/GD32VW55x_standard_peripheral/system_gd32vw55x.c ****     \param[in]  none
 586:../Firmware/GD32VW55x_standard_peripheral/system_gd32vw55x.c ****     \param[out] none
 587:../Firmware/GD32VW55x_standard_peripheral/system_gd32vw55x.c ****     \retval     firmware version
 588:../Firmware/GD32VW55x_standard_peripheral/system_gd32vw55x.c **** */
 589:../Firmware/GD32VW55x_standard_peripheral/system_gd32vw55x.c **** uint32_t gd32vw55x_firmware_version_get(void)
 590:../Firmware/GD32VW55x_standard_peripheral/system_gd32vw55x.c **** {
 694              		.loc 1 590 1
 695              		.cfi_startproc
 696 0000 4111     		addi	sp,sp,-16
 697              		.cfi_def_cfa_offset 16
 698 0002 22C6     		sw	s0,12(sp)
 699              		.cfi_offset 8, -4
 700 0004 0008     		addi	s0,sp,16
 701              		.cfi_def_cfa 8, 0
 591:../Firmware/GD32VW55x_standard_peripheral/system_gd32vw55x.c ****     return __GD32VW55X_STDPERIPH_VERSION;
 702              		.loc 1 591 12
 703 0006 B7070401 		li	a5,17039360
 592:../Firmware/GD32VW55x_standard_peripheral/system_gd32vw55x.c **** }
 704              		.loc 1 592 1
 705 000a 3E85     		mv	a0,a5
 706 000c 3244     		lw	s0,12(sp)
 707              		.cfi_restore 8
 708              		.cfi_def_cfa 2, 16
 709 000e 4101     		addi	sp,sp,16
 710              		.cfi_def_cfa_offset 0
 711 0010 8280     		jr	ra
 712              		.cfi_endproc
 713              	.LFE352:
 715              		.text
 716              	.Letext0:
 717              		.file 2 "e:\\gd32\\gd32embeddedbuilder_v1.5.2.30854\\tools\\nuclei_riscv_newlibc_prebuilt_win32_20
 718              		.file 3 "e:\\gd32\\gd32embeddedbuilder_v1.5.2.30854\\tools\\nuclei_riscv_newlibc_prebuilt_win32_20
 719              		.file 4 "../Firmware/GD32VW55x_standard_peripheral/system_gd32vw55x.h"