   1              		.file	"system_gd32vw55x.c"
   2              		.option nopic
   3              		.attribute arch, "rv32i2p0_m2p0_a2p0_c2p0"
   4              		.attribute unaligned_access, 0
   5              		.attribute stack_align, 16
   6              		.text
   7              	.Ltext0:
   8              		.cfi_sections	.debug_frame
   9              		.globl	SystemCoreClock
  10              		.section	.sdata.SystemCoreClock,"aw"
  11              		.align	2
  14              	SystemCoreClock:
  15 0000 00688909 		.word	160000000
  16              		.section	.text._soft_delay_,"ax",@progbits
  17              		.align	1
  19              	_soft_delay_:
  20              	.LFB347:
  21              		.file 1 "../Firmware/GD32VW55x_standard_peripheral/system_gd32vw55x.c"
   1:../Firmware/GD32VW55x_standard_peripheral/system_gd32vw55x.c **** /*!
   2:../Firmware/GD32VW55x_standard_peripheral/system_gd32vw55x.c ****     \file    system_gd32vw55x.c
   3:../Firmware/GD32VW55x_standard_peripheral/system_gd32vw55x.c ****     \brief   RISC-V Device Peripheral Access Layer Source File for
   4:../Firmware/GD32VW55x_standard_peripheral/system_gd32vw55x.c ****              GD32VW55x Device Series
   5:../Firmware/GD32VW55x_standard_peripheral/system_gd32vw55x.c **** 
   6:../Firmware/GD32VW55x_standard_peripheral/system_gd32vw55x.c ****     \version 2025-01-16, V1.4.0, firmware for GD32VW55x
   7:../Firmware/GD32VW55x_standard_peripheral/system_gd32vw55x.c **** */
   8:../Firmware/GD32VW55x_standard_peripheral/system_gd32vw55x.c **** 
   9:../Firmware/GD32VW55x_standard_peripheral/system_gd32vw55x.c **** /*
  10:../Firmware/GD32VW55x_standard_peripheral/system_gd32vw55x.c ****  * Copyright (c) 2009-2018 Arm Limited. All rights reserved.
  11:../Firmware/GD32VW55x_standard_peripheral/system_gd32vw55x.c ****  * Copyright (c) 2019 Nuclei Limited. All rights reserved.
  12:../Firmware/GD32VW55x_standard_peripheral/system_gd32vw55x.c ****  * Copyright (c) 2025, GigaDevice Semiconductor Inc.
  13:../Firmware/GD32VW55x_standard_peripheral/system_gd32vw55x.c ****  *
  14:../Firmware/GD32VW55x_standard_peripheral/system_gd32vw55x.c ****  * SPDX-License-Identifier: Apache-2.0
  15:../Firmware/GD32VW55x_standard_peripheral/system_gd32vw55x.c ****  *
  16:../Firmware/GD32VW55x_standard_peripheral/system_gd32vw55x.c ****  * Licensed under the Apache License, Version 2.0 (the License); you may
  17:../Firmware/GD32VW55x_standard_peripheral/system_gd32vw55x.c ****  * not use this file except in compliance with the License.
  18:../Firmware/GD32VW55x_standard_peripheral/system_gd32vw55x.c ****  * You may obtain a copy of the License at
  19:../Firmware/GD32VW55x_standard_peripheral/system_gd32vw55x.c ****  *
  20:../Firmware/GD32VW55x_standard_peripheral/system_gd32vw55x.c ****  * www.apache.org/licenses/LICENSE-2.0
  21:../Firmware/GD32VW55x_standard_peripheral/system_gd32vw55x.c ****  *
  22:../Firmware/GD32VW55x_standard_peripheral/system_gd32vw55x.c ****  * Unless required by applicable law or agreed to in writing, software
  23:../Firmware/GD32VW55x_standard_peripheral/system_gd32vw55x.c ****  * distributed under the License is distributed on an AS IS BASIS, WITHOUT
  24:../Firmware/GD32VW55x_standard_peripheral/system_gd32vw55x.c ****  * WARRANTIES OR CONDITIONS OF ANY KIND, either express or implied.
  25:../Firmware/GD32VW55x_standard_peripheral/system_gd32vw55x.c ****  * See the License for the specific language governing permissions and
  26:../Firmware/GD32VW55x_standard_peripheral/system_gd32vw55x.c ****  * limitations under the License.
  27:../Firmware/GD32VW55x_standard_peripheral/system_gd32vw55x.c ****  */
  28:../Firmware/GD32VW55x_standard_peripheral/system_gd32vw55x.c **** 
  29:../Firmware/GD32VW55x_standard_peripheral/system_gd32vw55x.c **** /* This file refers the RISC-V standard, some adjustments are made according to GigaDevice chips */
  30:../Firmware/GD32VW55x_standard_peripheral/system_gd32vw55x.c **** 
  31:../Firmware/GD32VW55x_standard_peripheral/system_gd32vw55x.c **** #include "gd32vw55x.h"
  32:../Firmware/GD32VW55x_standard_peripheral/system_gd32vw55x.c **** 
  33:../Firmware/GD32VW55x_standard_peripheral/system_gd32vw55x.c **** /* system frequency define */
  34:../Firmware/GD32VW55x_standard_peripheral/system_gd32vw55x.c **** #define __IRC16M          (IRC16M_VALUE)            /* internal 16 MHz RC oscillator frequency */
  35:../Firmware/GD32VW55x_standard_peripheral/system_gd32vw55x.c **** #define __HXTAL           (HXTAL_VALUE)             /* high speed crystal oscillator frequency */
  36:../Firmware/GD32VW55x_standard_peripheral/system_gd32vw55x.c **** #define __SYS_OSC_CLK     (__IRC16M)                /* main oscillator frequency */
  37:../Firmware/GD32VW55x_standard_peripheral/system_gd32vw55x.c **** 
  38:../Firmware/GD32VW55x_standard_peripheral/system_gd32vw55x.c **** /* select a system clock by uncommenting the following line */
  39:../Firmware/GD32VW55x_standard_peripheral/system_gd32vw55x.c **** //#define __SYSTEM_CLOCK_IRC16M                       (uint32_t)(__IRC16M)
  40:../Firmware/GD32VW55x_standard_peripheral/system_gd32vw55x.c **** //#define __SYSTEM_CLOCK_HXTAL                        (uint32_t)(__HXTAL)
  41:../Firmware/GD32VW55x_standard_peripheral/system_gd32vw55x.c **** //#define __SYSTEM_CLOCK_48M_PLLDIG_IRC16M             (uint32_t)(48000000)
  42:../Firmware/GD32VW55x_standard_peripheral/system_gd32vw55x.c **** //#define __SYSTEM_CLOCK_160M_PLLDIG_IRC16M             (uint32_t)(160000000)
  43:../Firmware/GD32VW55x_standard_peripheral/system_gd32vw55x.c **** //#define __SYSTEM_CLOCK_48M_PLLDIG_HXTAL              (uint32_t)(48000000)
  44:../Firmware/GD32VW55x_standard_peripheral/system_gd32vw55x.c **** #define __SYSTEM_CLOCK_160M_PLLDIG_HXTAL              (uint32_t)(160000000)
  45:../Firmware/GD32VW55x_standard_peripheral/system_gd32vw55x.c **** 
  46:../Firmware/GD32VW55x_standard_peripheral/system_gd32vw55x.c **** #define HXTALSTB_DELAY     {                                 \
  47:../Firmware/GD32VW55x_standard_peripheral/system_gd32vw55x.c ****                               volatile uint32_t i;           \
  48:../Firmware/GD32VW55x_standard_peripheral/system_gd32vw55x.c ****                               for(i=0; i<0x2000; i++){       \
  49:../Firmware/GD32VW55x_standard_peripheral/system_gd32vw55x.c ****                               }                              \
  50:../Firmware/GD32VW55x_standard_peripheral/system_gd32vw55x.c ****                            }
  51:../Firmware/GD32VW55x_standard_peripheral/system_gd32vw55x.c **** /* The following is to prevent Vcore fluctuations caused by frequency switching. 
  52:../Firmware/GD32VW55x_standard_peripheral/system_gd32vw55x.c ****    It is strongly recommended to include it to avoid issues caused by self-removal. */
  53:../Firmware/GD32VW55x_standard_peripheral/system_gd32vw55x.c **** #define RCU_MODIFY(__delay)     do{                                     \
  54:../Firmware/GD32VW55x_standard_peripheral/system_gd32vw55x.c ****                                     volatile uint32_t i,reg;            \
  55:../Firmware/GD32VW55x_standard_peripheral/system_gd32vw55x.c ****                                     if(0 != __delay){                   \
  56:../Firmware/GD32VW55x_standard_peripheral/system_gd32vw55x.c ****                                         /* Insert a software delay */   \
  57:../Firmware/GD32VW55x_standard_peripheral/system_gd32vw55x.c ****                                         for(i=0; i<__delay; i++){       \
  58:../Firmware/GD32VW55x_standard_peripheral/system_gd32vw55x.c ****                                         }                               \
  59:../Firmware/GD32VW55x_standard_peripheral/system_gd32vw55x.c ****                                         reg = RCU_CFG0;                 \
  60:../Firmware/GD32VW55x_standard_peripheral/system_gd32vw55x.c ****                                         reg &= ~(RCU_AHB_CKSYS_DIV2);   \
  61:../Firmware/GD32VW55x_standard_peripheral/system_gd32vw55x.c ****                                         reg |= RCU_AHB_CKSYS_DIV2;      \
  62:../Firmware/GD32VW55x_standard_peripheral/system_gd32vw55x.c ****                                         /* AHB = SYSCLK/2 */            \
  63:../Firmware/GD32VW55x_standard_peripheral/system_gd32vw55x.c ****                                         RCU_CFG0 = reg;                 \
  64:../Firmware/GD32VW55x_standard_peripheral/system_gd32vw55x.c ****                                         /* Insert a software delay */   \
  65:../Firmware/GD32VW55x_standard_peripheral/system_gd32vw55x.c ****                                         for(i=0; i<__delay; i++){       \
  66:../Firmware/GD32VW55x_standard_peripheral/system_gd32vw55x.c ****                                         }                               \
  67:../Firmware/GD32VW55x_standard_peripheral/system_gd32vw55x.c ****                                         reg = RCU_CFG0;                 \
  68:../Firmware/GD32VW55x_standard_peripheral/system_gd32vw55x.c ****                                         reg &= ~(RCU_AHB_CKSYS_DIV4);   \
  69:../Firmware/GD32VW55x_standard_peripheral/system_gd32vw55x.c ****                                         reg |= RCU_AHB_CKSYS_DIV4;      \
  70:../Firmware/GD32VW55x_standard_peripheral/system_gd32vw55x.c ****                                         /* AHB = SYSCLK/4 */            \
  71:../Firmware/GD32VW55x_standard_peripheral/system_gd32vw55x.c ****                                         RCU_CFG0 = reg;                 \
  72:../Firmware/GD32VW55x_standard_peripheral/system_gd32vw55x.c ****                                         /* Insert a software delay */   \
  73:../Firmware/GD32VW55x_standard_peripheral/system_gd32vw55x.c ****                                         for(i=0; i<__delay; i++){       \
  74:../Firmware/GD32VW55x_standard_peripheral/system_gd32vw55x.c ****                                         }                               \
  75:../Firmware/GD32VW55x_standard_peripheral/system_gd32vw55x.c ****                                     }                                   \
  76:../Firmware/GD32VW55x_standard_peripheral/system_gd32vw55x.c ****                                 }while(0)
  77:../Firmware/GD32VW55x_standard_peripheral/system_gd32vw55x.c **** 
  78:../Firmware/GD32VW55x_standard_peripheral/system_gd32vw55x.c **** /* set the system clock frequency and declare the system clock configuration function */
  79:../Firmware/GD32VW55x_standard_peripheral/system_gd32vw55x.c **** #ifdef __SYSTEM_CLOCK_IRC16M
  80:../Firmware/GD32VW55x_standard_peripheral/system_gd32vw55x.c **** uint32_t SystemCoreClock = __SYSTEM_CLOCK_IRC16M;
  81:../Firmware/GD32VW55x_standard_peripheral/system_gd32vw55x.c **** static void system_clock_16m_irc16m(void);
  82:../Firmware/GD32VW55x_standard_peripheral/system_gd32vw55x.c **** #elif defined (__SYSTEM_CLOCK_HXTAL)
  83:../Firmware/GD32VW55x_standard_peripheral/system_gd32vw55x.c **** uint32_t SystemCoreClock = __SYSTEM_CLOCK_HXTAL;
  84:../Firmware/GD32VW55x_standard_peripheral/system_gd32vw55x.c **** static void system_clock_hxtal(void);
  85:../Firmware/GD32VW55x_standard_peripheral/system_gd32vw55x.c **** #elif defined (__SYSTEM_CLOCK_48M_PLLDIG_IRC16M)
  86:../Firmware/GD32VW55x_standard_peripheral/system_gd32vw55x.c **** uint32_t SystemCoreClock = __SYSTEM_CLOCK_48M_PLLDIG_IRC16M;
  87:../Firmware/GD32VW55x_standard_peripheral/system_gd32vw55x.c **** static void system_clock_48m_irc16m(void);
  88:../Firmware/GD32VW55x_standard_peripheral/system_gd32vw55x.c **** #elif defined (__SYSTEM_CLOCK_160M_PLLDIG_IRC16M)
  89:../Firmware/GD32VW55x_standard_peripheral/system_gd32vw55x.c **** uint32_t SystemCoreClock = __SYSTEM_CLOCK_160M_PLLDIG_IRC16M;
  90:../Firmware/GD32VW55x_standard_peripheral/system_gd32vw55x.c **** static void system_clock_160m_irc16m(void);
  91:../Firmware/GD32VW55x_standard_peripheral/system_gd32vw55x.c **** #elif defined (__SYSTEM_CLOCK_48M_PLLDIG_HXTAL)
  92:../Firmware/GD32VW55x_standard_peripheral/system_gd32vw55x.c **** uint32_t SystemCoreClock = __SYSTEM_CLOCK_48M_PLLDIG_HXTAL;
  93:../Firmware/GD32VW55x_standard_peripheral/system_gd32vw55x.c **** static void system_clock_48m_hxtal(void);
  94:../Firmware/GD32VW55x_standard_peripheral/system_gd32vw55x.c **** #elif defined (__SYSTEM_CLOCK_160M_PLLDIG_HXTAL)
  95:../Firmware/GD32VW55x_standard_peripheral/system_gd32vw55x.c **** uint32_t SystemCoreClock = __SYSTEM_CLOCK_160M_PLLDIG_HXTAL;
  96:../Firmware/GD32VW55x_standard_peripheral/system_gd32vw55x.c **** static void system_clock_160m_hxtal(void);
  97:../Firmware/GD32VW55x_standard_peripheral/system_gd32vw55x.c **** #endif /* __SYSTEM_CLOCK_IRC16M */
  98:../Firmware/GD32VW55x_standard_peripheral/system_gd32vw55x.c **** 
  99:../Firmware/GD32VW55x_standard_peripheral/system_gd32vw55x.c **** /* configure the system clock */
 100:../Firmware/GD32VW55x_standard_peripheral/system_gd32vw55x.c **** static void system_clock_config(void);
 101:../Firmware/GD32VW55x_standard_peripheral/system_gd32vw55x.c **** /* software delay to prevent the impact of Vcore fluctuations.
 102:../Firmware/GD32VW55x_standard_peripheral/system_gd32vw55x.c ****    It is strongly recommended to include it to avoid issues caused by self-removal. */
 103:../Firmware/GD32VW55x_standard_peripheral/system_gd32vw55x.c **** static void _soft_delay_(uint32_t time)
 104:../Firmware/GD32VW55x_standard_peripheral/system_gd32vw55x.c **** {
  22              		.loc 1 104 1
  23              		.cfi_startproc
  24 0000 7971     		addi	sp,sp,-48
  25              		.cfi_def_cfa_offset 48
  26 0002 22D6     		sw	s0,44(sp)
  27              		.cfi_offset 8, -4
  28 0004 0018     		addi	s0,sp,48
  29              		.cfi_def_cfa 8, 0
  30 0006 232EA4FC 		sw	a0,-36(s0)
 105:../Firmware/GD32VW55x_standard_peripheral/system_gd32vw55x.c ****     __IO uint32_t i;
 106:../Firmware/GD32VW55x_standard_peripheral/system_gd32vw55x.c ****     for(i=0; i<time*10; i++){
  31              		.loc 1 106 10
  32 000a 232604FE 		sw	zero,-20(s0)
  33              		.loc 1 106 5
  34 000e 31A0     		j	.L2
  35              	.L3:
  36              		.loc 1 106 26 discriminator 3
  37 0010 8327C4FE 		lw	a5,-20(s0)
  38 0014 8507     		addi	a5,a5,1
  39 0016 2326F4FE 		sw	a5,-20(s0)
  40              	.L2:
  41              		.loc 1 106 20 discriminator 1
  42 001a 0327C4FD 		lw	a4,-36(s0)
  43 001e BA87     		mv	a5,a4
  44 0020 8A07     		slli	a5,a5,2
  45 0022 BA97     		add	a5,a5,a4
  46 0024 8607     		slli	a5,a5,1
  47 0026 3E87     		mv	a4,a5
  48              		.loc 1 106 15 discriminator 1
  49 0028 8327C4FE 		lw	a5,-20(s0)
  50              		.loc 1 106 5 discriminator 1
  51 002c E3E2E7FE 		bgtu	a4,a5,.L3
 107:../Firmware/GD32VW55x_standard_peripheral/system_gd32vw55x.c ****     }
 108:../Firmware/GD32VW55x_standard_peripheral/system_gd32vw55x.c **** }
  52              		.loc 1 108 1
  53 0030 0100     		nop
  54 0032 0100     		nop
  55 0034 3254     		lw	s0,44(sp)
  56              		.cfi_restore 8
  57              		.cfi_def_cfa 2, 48
  58 0036 4561     		addi	sp,sp,48
  59              		.cfi_def_cfa_offset 0
  60 0038 8280     		jr	ra
  61              		.cfi_endproc
  62              	.LFE347:
  64              		.section	.text.SystemInit,"ax",@progbits
  65              		.align	1
  66              		.globl	SystemInit
  68              	SystemInit:
  69              	.LFB348:
 109:../Firmware/GD32VW55x_standard_peripheral/system_gd32vw55x.c **** 
 110:../Firmware/GD32VW55x_standard_peripheral/system_gd32vw55x.c **** /*!
 111:../Firmware/GD32VW55x_standard_peripheral/system_gd32vw55x.c ****     \brief      setup the microcontroller system, initialize the system
 112:../Firmware/GD32VW55x_standard_peripheral/system_gd32vw55x.c ****     \param[in]  none
 113:../Firmware/GD32VW55x_standard_peripheral/system_gd32vw55x.c ****     \param[out] none
 114:../Firmware/GD32VW55x_standard_peripheral/system_gd32vw55x.c ****     \retval     none
 115:../Firmware/GD32VW55x_standard_peripheral/system_gd32vw55x.c **** */
 116:../Firmware/GD32VW55x_standard_peripheral/system_gd32vw55x.c **** void SystemInit (void)
 117:../Firmware/GD32VW55x_standard_peripheral/system_gd32vw55x.c **** {
  70              		.loc 1 117 1
  71              		.cfi_startproc
  72 0000 0111     		addi	sp,sp,-32
  73              		.cfi_def_cfa_offset 32
  74 0002 06CE     		sw	ra,28(sp)
  75 0004 22CC     		sw	s0,24(sp)
  76              		.cfi_offset 1, -4
  77              		.cfi_offset 8, -8
  78 0006 0010     		addi	s0,sp,32
  79              		.cfi_def_cfa 8, 0
 118:../Firmware/GD32VW55x_standard_peripheral/system_gd32vw55x.c ****     /* reset the RCU clock configuration to the default reset state */
 119:../Firmware/GD32VW55x_standard_peripheral/system_gd32vw55x.c ****     /* set IRC16MEN bit */
 120:../Firmware/GD32VW55x_standard_peripheral/system_gd32vw55x.c ****     RCU_CTL |= RCU_CTL_IRC16MEN;
  80              		.loc 1 120 13
  81 0008 B7470240 		li	a5,1073889280
  82 000c 93870780 		addi	a5,a5,-2048
  83 0010 9843     		lw	a4,0(a5)
  84 0012 B7470240 		li	a5,1073889280
  85 0016 93870780 		addi	a5,a5,-2048
  86 001a 13671700 		ori	a4,a4,1
  87 001e 98C3     		sw	a4,0(a5)
 121:../Firmware/GD32VW55x_standard_peripheral/system_gd32vw55x.c ****     while(0U == (RCU_CTL & RCU_CTL_IRC16MSTB)){
  88              		.loc 1 121 10
  89 0020 0100     		nop
  90              	.L5:
  91              		.loc 1 121 18 discriminator 1
  92 0022 B7470240 		li	a5,1073889280
  93 0026 93870780 		addi	a5,a5,-2048
  94 002a 9C43     		lw	a5,0(a5)
  95              		.loc 1 121 26 discriminator 1
  96 002c 898B     		andi	a5,a5,2
  97              		.loc 1 121 10 discriminator 1
  98 002e F5DB     		beq	a5,zero,.L5
 122:../Firmware/GD32VW55x_standard_peripheral/system_gd32vw55x.c ****     }
 123:../Firmware/GD32VW55x_standard_peripheral/system_gd32vw55x.c ****     if(((RCU_CFG0 & RCU_CFG0_SCSS) == RCU_SCSS_PLLDIG)){
  99              		.loc 1 123 10
 100 0030 B7470240 		li	a5,1073889280
 101 0034 93878780 		addi	a5,a5,-2040
 102 0038 9C43     		lw	a5,0(a5)
 103              		.loc 1 123 19
 104 003a 13F7C700 		andi	a4,a5,12
 105              		.loc 1 123 7
 106 003e A147     		li	a5,8
 107 0040 6310F70C 		bne	a4,a5,.L6
 108              	.LBB2:
 124:../Firmware/GD32VW55x_standard_peripheral/system_gd32vw55x.c ****         RCU_MODIFY(0x50);
 109              		.loc 1 124 9 discriminator 1
 110 0044 232604FE 		sw	zero,-20(s0)
 111 0048 31A0     		j	.L7
 112              	.L8:
 113              		.loc 1 124 9 is_stmt 0 discriminator 4
 114 004a 8327C4FE 		lw	a5,-20(s0)
 115 004e 8507     		addi	a5,a5,1
 116 0050 2326F4FE 		sw	a5,-20(s0)
 117              	.L7:
 118              		.loc 1 124 9 discriminator 2
 119 0054 0327C4FE 		lw	a4,-20(s0)
 120 0058 9307F004 		li	a5,79
 121 005c E3F7E7FE 		bleu	a4,a5,.L8
 122              		.loc 1 124 9 discriminator 5
 123 0060 B7470240 		li	a5,1073889280
 124 0064 93878780 		addi	a5,a5,-2040
 125 0068 9C43     		lw	a5,0(a5)
 126 006a 2324F4FE 		sw	a5,-24(s0)
 127 006e 832784FE 		lw	a5,-24(s0)
 128 0072 93F7F7F7 		andi	a5,a5,-129
 129 0076 2324F4FE 		sw	a5,-24(s0)
 130 007a 832784FE 		lw	a5,-24(s0)
 131 007e 93E70708 		ori	a5,a5,128
 132 0082 2324F4FE 		sw	a5,-24(s0)
 133 0086 B7470240 		li	a5,1073889280
 134 008a 93878780 		addi	a5,a5,-2040
 135 008e 032784FE 		lw	a4,-24(s0)
 136 0092 98C3     		sw	a4,0(a5)
 137 0094 232604FE 		sw	zero,-20(s0)
 138 0098 31A0     		j	.L9
 139              	.L10:
 140              		.loc 1 124 9 discriminator 8
 141 009a 8327C4FE 		lw	a5,-20(s0)
 142 009e 8507     		addi	a5,a5,1
 143 00a0 2326F4FE 		sw	a5,-20(s0)
 144              	.L9:
 145              		.loc 1 124 9 discriminator 6
 146 00a4 0327C4FE 		lw	a4,-20(s0)
 147 00a8 9307F004 		li	a5,79
 148 00ac E3F7E7FE 		bleu	a4,a5,.L10
 149              		.loc 1 124 9 discriminator 9
 150 00b0 B7470240 		li	a5,1073889280
 151 00b4 93878780 		addi	a5,a5,-2040
 152 00b8 9C43     		lw	a5,0(a5)
 153 00ba 2324F4FE 		sw	a5,-24(s0)
 154 00be 832784FE 		lw	a5,-24(s0)
 155 00c2 93F7F7F6 		andi	a5,a5,-145
 156 00c6 2324F4FE 		sw	a5,-24(s0)
 157 00ca 832784FE 		lw	a5,-24(s0)
 158 00ce 93E70709 		ori	a5,a5,144
 159 00d2 2324F4FE 		sw	a5,-24(s0)
 160 00d6 B7470240 		li	a5,1073889280
 161 00da 93878780 		addi	a5,a5,-2040
 162 00de 032784FE 		lw	a4,-24(s0)
 163 00e2 98C3     		sw	a4,0(a5)
 164 00e4 232604FE 		sw	zero,-20(s0)
 165 00e8 31A0     		j	.L11
 166              	.L12:
 167              		.loc 1 124 9 discriminator 12
 168 00ea 8327C4FE 		lw	a5,-20(s0)
 169 00ee 8507     		addi	a5,a5,1
 170 00f0 2326F4FE 		sw	a5,-20(s0)
 171              	.L11:
 172              		.loc 1 124 9 discriminator 10
 173 00f4 0327C4FE 		lw	a4,-20(s0)
 174 00f8 9307F004 		li	a5,79
 175 00fc E3F7E7FE 		bleu	a4,a5,.L12
 176              	.L6:
 177              	.LBE2:
 125:../Firmware/GD32VW55x_standard_peripheral/system_gd32vw55x.c ****     }
 126:../Firmware/GD32VW55x_standard_peripheral/system_gd32vw55x.c ****     RCU_CFG0 &= ~RCU_CFG0_SCS;
 178              		.loc 1 126 14 is_stmt 1
 179 0100 B7470240 		li	a5,1073889280
 180 0104 93878780 		addi	a5,a5,-2040
 181 0108 9843     		lw	a4,0(a5)
 182 010a B7470240 		li	a5,1073889280
 183 010e 93878780 		addi	a5,a5,-2040
 184 0112 719B     		andi	a4,a4,-4
 185 0114 98C3     		sw	a4,0(a5)
 127:../Firmware/GD32VW55x_standard_peripheral/system_gd32vw55x.c ****     _soft_delay_(200);
 186              		.loc 1 127 5
 187 0116 1305800C 		li	a0,200
 188 011a 97000000 		call	_soft_delay_
 188      E7800000 
 128:../Firmware/GD32VW55x_standard_peripheral/system_gd32vw55x.c ****     /* reset CFG0 register */
 129:../Firmware/GD32VW55x_standard_peripheral/system_gd32vw55x.c ****     RCU_CFG0 = 0x00000000U;
 189              		.loc 1 129 5
 190 0122 B7470240 		li	a5,1073889280
 191 0126 93878780 		addi	a5,a5,-2040
 192              		.loc 1 129 14
 193 012a 23A00700 		sw	zero,0(a5)
 130:../Firmware/GD32VW55x_standard_peripheral/system_gd32vw55x.c **** 
 131:../Firmware/GD32VW55x_standard_peripheral/system_gd32vw55x.c ****     /* reset HXTALEN, RFCKMEN and PLLEN bits */
 132:../Firmware/GD32VW55x_standard_peripheral/system_gd32vw55x.c ****     RCU_CTL &= ~(RCU_CTL_PLLDIGEN | RCU_CTL_RFCKMEN | RCU_CTL_HXTALEN);
 194              		.loc 1 132 13
 195 012e B7470240 		li	a5,1073889280
 196 0132 93870780 		addi	a5,a5,-2048
 197 0136 9443     		lw	a3,0(a5)
 198 0138 B7470240 		li	a5,1073889280
 199 013c 93870780 		addi	a5,a5,-2048
 200 0140 37079FFF 		li	a4,-6356992
 201 0144 7D17     		addi	a4,a4,-1
 202 0146 758F     		and	a4,a3,a4
 203 0148 98C3     		sw	a4,0(a5)
 133:../Firmware/GD32VW55x_standard_peripheral/system_gd32vw55x.c **** 
 134:../Firmware/GD32VW55x_standard_peripheral/system_gd32vw55x.c ****     /* reset PLLCFGR register */
 135:../Firmware/GD32VW55x_standard_peripheral/system_gd32vw55x.c ****     RCU_PLL = 0x00000000U;
 204              		.loc 1 135 5
 205 014a B7470240 		li	a5,1073889280
 206 014e 93874780 		addi	a5,a5,-2044
 207              		.loc 1 135 13
 208 0152 23A00700 		sw	zero,0(a5)
 136:../Firmware/GD32VW55x_standard_peripheral/system_gd32vw55x.c ****     RCU_PLLDIGCFG0 = 0x00000000U;
 209              		.loc 1 136 5
 210 0156 B7470240 		li	a5,1073889280
 211 015a 93874788 		addi	a5,a5,-1916
 212              		.loc 1 136 20
 213 015e 23A00700 		sw	zero,0(a5)
 137:../Firmware/GD32VW55x_standard_peripheral/system_gd32vw55x.c ****     RCU_PLLDIGCFG1 = 0x07800000U;
 214              		.loc 1 137 5
 215 0162 B7470240 		li	a5,1073889280
 216 0166 93874789 		addi	a5,a5,-1900
 217              		.loc 1 137 20
 218 016a 37078007 		li	a4,125829120
 219 016e 98C3     		sw	a4,0(a5)
 138:../Firmware/GD32VW55x_standard_peripheral/system_gd32vw55x.c **** 
 139:../Firmware/GD32VW55x_standard_peripheral/system_gd32vw55x.c ****     /* disable all interrupts */
 140:../Firmware/GD32VW55x_standard_peripheral/system_gd32vw55x.c ****     RCU_INT = 0x00000000U;
 220              		.loc 1 140 5
 221 0170 B7470240 		li	a5,1073889280
 222 0174 9387C780 		addi	a5,a5,-2036
 223              		.loc 1 140 13
 224 0178 23A00700 		sw	zero,0(a5)
 141:../Firmware/GD32VW55x_standard_peripheral/system_gd32vw55x.c **** 
 142:../Firmware/GD32VW55x_standard_peripheral/system_gd32vw55x.c ****     /* configure the System clock source, PLL Multiplier and Divider factors,
 143:../Firmware/GD32VW55x_standard_peripheral/system_gd32vw55x.c ****        AHB/APBx prescalers and Flash settings */
 144:../Firmware/GD32VW55x_standard_peripheral/system_gd32vw55x.c ****     system_clock_config();
 225              		.loc 1 144 5
 226 017c 97000000 		call	system_clock_config
 226      E7800000 
 145:../Firmware/GD32VW55x_standard_peripheral/system_gd32vw55x.c **** }
 227              		.loc 1 145 1
 228 0184 0100     		nop
 229 0186 F240     		lw	ra,28(sp)
 230              		.cfi_restore 1
 231 0188 6244     		lw	s0,24(sp)
 232              		.cfi_restore 8
 233              		.cfi_def_cfa 2, 32
 234 018a 0561     		addi	sp,sp,32
 235              		.cfi_def_cfa_offset 0
 236 018c 8280     		jr	ra
 237              		.cfi_endproc
 238              	.LFE348:
 240              		.section	.text.system_clock_config,"ax",@progbits
 241              		.align	1
 243              	system_clock_config:
 244              	.LFB349:
 146:../Firmware/GD32VW55x_standard_peripheral/system_gd32vw55x.c **** /*!
 147:../Firmware/GD32VW55x_standard_peripheral/system_gd32vw55x.c ****     \brief      configure the system clock
 148:../Firmware/GD32VW55x_standard_peripheral/system_gd32vw55x.c ****     \param[in]  none
 149:../Firmware/GD32VW55x_standard_peripheral/system_gd32vw55x.c ****     \param[out] none
 150:../Firmware/GD32VW55x_standard_peripheral/system_gd32vw55x.c ****     \retval     none
 151:../Firmware/GD32VW55x_standard_peripheral/system_gd32vw55x.c **** */
 152:../Firmware/GD32VW55x_standard_peripheral/system_gd32vw55x.c **** static void system_clock_config(void)
 153:../Firmware/GD32VW55x_standard_peripheral/system_gd32vw55x.c **** {
 245              		.loc 1 153 1
 246              		.cfi_startproc
 247 0000 4111     		addi	sp,sp,-16
 248              		.cfi_def_cfa_offset 16
 249 0002 06C6     		sw	ra,12(sp)
 250 0004 22C4     		sw	s0,8(sp)
 251              		.cfi_offset 1, -4
 252              		.cfi_offset 8, -8
 253 0006 0008     		addi	s0,sp,16
 254              		.cfi_def_cfa 8, 0
 154:../Firmware/GD32VW55x_standard_peripheral/system_gd32vw55x.c **** #ifdef __SYSTEM_CLOCK_IRC16M
 155:../Firmware/GD32VW55x_standard_peripheral/system_gd32vw55x.c ****     system_clock_16m_irc16m();
 156:../Firmware/GD32VW55x_standard_peripheral/system_gd32vw55x.c **** #elif defined (__SYSTEM_CLOCK_HXTAL)
 157:../Firmware/GD32VW55x_standard_peripheral/system_gd32vw55x.c ****     system_clock_hxtal();
 158:../Firmware/GD32VW55x_standard_peripheral/system_gd32vw55x.c **** #elif defined (__SYSTEM_CLOCK_48M_PLLDIG_IRC16M)
 159:../Firmware/GD32VW55x_standard_peripheral/system_gd32vw55x.c ****     system_clock_48m_irc16m();
 160:../Firmware/GD32VW55x_standard_peripheral/system_gd32vw55x.c **** #elif defined (__SYSTEM_CLOCK_160M_PLLDIG_IRC16M)
 161:../Firmware/GD32VW55x_standard_peripheral/system_gd32vw55x.c ****     system_clock_160m_irc16m();
 162:../Firmware/GD32VW55x_standard_peripheral/system_gd32vw55x.c **** #elif defined (__SYSTEM_CLOCK_160M_PLLDIG_HXTAL)
 163:../Firmware/GD32VW55x_standard_peripheral/system_gd32vw55x.c ****     system_clock_160m_hxtal();
 255              		.loc 1 163 5
 256 0008 97000000 		call	system_clock_160m_hxtal
 256      E7800000 
 164:../Firmware/GD32VW55x_standard_peripheral/system_gd32vw55x.c **** #elif defined (__SYSTEM_CLOCK_48M_PLLDIG_HXTAL)
 165:../Firmware/GD32VW55x_standard_peripheral/system_gd32vw55x.c ****     system_clock_48m_hxtal();
 166:../Firmware/GD32VW55x_standard_peripheral/system_gd32vw55x.c **** #endif /* __SYSTEM_CLOCK_IRC16M */
 167:../Firmware/GD32VW55x_standard_peripheral/system_gd32vw55x.c **** }
 257              		.loc 1 167 1
 258 0010 0100     		nop
 259 0012 B240     		lw	ra,12(sp)
 260              		.cfi_restore 1
 261 0014 2244     		lw	s0,8(sp)
 262              		.cfi_restore 8
 263              		.cfi_def_cfa 2, 16
 264 0016 4101     		addi	sp,sp,16
 265              		.cfi_def_cfa_offset 0
 266 0018 8280     		jr	ra
 267              		.cfi_endproc
 268              	.LFE349:
 270              		.section	.text.system_clock_160m_hxtal,"ax",@progbits
 271              		.align	1
 273              	system_clock_160m_hxtal:
 274              	.LFB350:
 168:../Firmware/GD32VW55x_standard_peripheral/system_gd32vw55x.c **** 
 169:../Firmware/GD32VW55x_standard_peripheral/system_gd32vw55x.c **** #ifdef __SYSTEM_CLOCK_IRC16M
 170:../Firmware/GD32VW55x_standard_peripheral/system_gd32vw55x.c **** /*!
 171:../Firmware/GD32VW55x_standard_peripheral/system_gd32vw55x.c ****     \brief      configure the system clock to 16M by IRC16M
 172:../Firmware/GD32VW55x_standard_peripheral/system_gd32vw55x.c ****     \param[in]  none
 173:../Firmware/GD32VW55x_standard_peripheral/system_gd32vw55x.c ****     \param[out] none
 174:../Firmware/GD32VW55x_standard_peripheral/system_gd32vw55x.c ****     \retval     none
 175:../Firmware/GD32VW55x_standard_peripheral/system_gd32vw55x.c **** */
 176:../Firmware/GD32VW55x_standard_peripheral/system_gd32vw55x.c **** static void system_clock_16m_irc16m(void)
 177:../Firmware/GD32VW55x_standard_peripheral/system_gd32vw55x.c **** {
 178:../Firmware/GD32VW55x_standard_peripheral/system_gd32vw55x.c ****     uint32_t timeout = 0U;
 179:../Firmware/GD32VW55x_standard_peripheral/system_gd32vw55x.c ****     uint32_t stab_flag = 0U;
 180:../Firmware/GD32VW55x_standard_peripheral/system_gd32vw55x.c ****     __IO uint32_t reg_temp;
 181:../Firmware/GD32VW55x_standard_peripheral/system_gd32vw55x.c **** 
 182:../Firmware/GD32VW55x_standard_peripheral/system_gd32vw55x.c ****     /* enable IRC16M */
 183:../Firmware/GD32VW55x_standard_peripheral/system_gd32vw55x.c ****     RCU_CTL |= RCU_CTL_IRC16MEN;
 184:../Firmware/GD32VW55x_standard_peripheral/system_gd32vw55x.c **** 
 185:../Firmware/GD32VW55x_standard_peripheral/system_gd32vw55x.c ****     /* wait until IRC16M is stable or the startup time is longer than IRC16M_STARTUP_TIMEOUT */
 186:../Firmware/GD32VW55x_standard_peripheral/system_gd32vw55x.c ****     do{
 187:../Firmware/GD32VW55x_standard_peripheral/system_gd32vw55x.c ****         timeout++;
 188:../Firmware/GD32VW55x_standard_peripheral/system_gd32vw55x.c ****         stab_flag = (RCU_CTL & RCU_CTL_IRC16MSTB);
 189:../Firmware/GD32VW55x_standard_peripheral/system_gd32vw55x.c ****     }while((0U == stab_flag) && (IRC16M_STARTUP_TIMEOUT != timeout));
 190:../Firmware/GD32VW55x_standard_peripheral/system_gd32vw55x.c **** 
 191:../Firmware/GD32VW55x_standard_peripheral/system_gd32vw55x.c ****     if(0U == (RCU_CTL & RCU_CTL_IRC16MSTB)){
 192:../Firmware/GD32VW55x_standard_peripheral/system_gd32vw55x.c ****         /* if fail */
 193:../Firmware/GD32VW55x_standard_peripheral/system_gd32vw55x.c ****         while(1){
 194:../Firmware/GD32VW55x_standard_peripheral/system_gd32vw55x.c ****         }
 195:../Firmware/GD32VW55x_standard_peripheral/system_gd32vw55x.c ****     }
 196:../Firmware/GD32VW55x_standard_peripheral/system_gd32vw55x.c **** 
 197:../Firmware/GD32VW55x_standard_peripheral/system_gd32vw55x.c ****     /* AHB = SYSCLK */
 198:../Firmware/GD32VW55x_standard_peripheral/system_gd32vw55x.c ****     RCU_CFG0 |= RCU_AHB_CKSYS_DIV1;
 199:../Firmware/GD32VW55x_standard_peripheral/system_gd32vw55x.c ****     /* APB2 = AHB */
 200:../Firmware/GD32VW55x_standard_peripheral/system_gd32vw55x.c ****     RCU_CFG0 |= RCU_APB2_CKAHB_DIV1;
 201:../Firmware/GD32VW55x_standard_peripheral/system_gd32vw55x.c ****     /* APB1 = AHB */
 202:../Firmware/GD32VW55x_standard_peripheral/system_gd32vw55x.c ****     RCU_CFG0 |= RCU_APB1_CKAHB_DIV1;
 203:../Firmware/GD32VW55x_standard_peripheral/system_gd32vw55x.c **** 
 204:../Firmware/GD32VW55x_standard_peripheral/system_gd32vw55x.c ****     reg_temp = RCU_CFG0;
 205:../Firmware/GD32VW55x_standard_peripheral/system_gd32vw55x.c ****     /* select IRC16M as system clock */
 206:../Firmware/GD32VW55x_standard_peripheral/system_gd32vw55x.c ****     reg_temp &= ~RCU_CFG0_SCS;
 207:../Firmware/GD32VW55x_standard_peripheral/system_gd32vw55x.c ****     reg_temp |= RCU_CKSYSSRC_IRC16M;
 208:../Firmware/GD32VW55x_standard_peripheral/system_gd32vw55x.c ****     RCU_CFG0 = reg_temp;
 209:../Firmware/GD32VW55x_standard_peripheral/system_gd32vw55x.c **** 
 210:../Firmware/GD32VW55x_standard_peripheral/system_gd32vw55x.c ****     /* wait until IRC16M is selected as system clock */
 211:../Firmware/GD32VW55x_standard_peripheral/system_gd32vw55x.c ****     while(RCU_SCSS_IRC16M != (RCU_CFG0 & RCU_CFG0_SCSS)){
 212:../Firmware/GD32VW55x_standard_peripheral/system_gd32vw55x.c ****     }
 213:../Firmware/GD32VW55x_standard_peripheral/system_gd32vw55x.c **** }
 214:../Firmware/GD32VW55x_standard_peripheral/system_gd32vw55x.c **** 
 215:../Firmware/GD32VW55x_standard_peripheral/system_gd32vw55x.c **** #elif defined (__SYSTEM_CLOCK_HXTAL)
 216:../Firmware/GD32VW55x_standard_peripheral/system_gd32vw55x.c **** /*!
 217:../Firmware/GD32VW55x_standard_peripheral/system_gd32vw55x.c ****     \brief      configure the system clock to HXTAL
 218:../Firmware/GD32VW55x_standard_peripheral/system_gd32vw55x.c ****     \param[in]  none
 219:../Firmware/GD32VW55x_standard_peripheral/system_gd32vw55x.c ****     \param[out] none
 220:../Firmware/GD32VW55x_standard_peripheral/system_gd32vw55x.c ****     \retval     none
 221:../Firmware/GD32VW55x_standard_peripheral/system_gd32vw55x.c **** */
 222:../Firmware/GD32VW55x_standard_peripheral/system_gd32vw55x.c **** static void system_clock_hxtal(void)
 223:../Firmware/GD32VW55x_standard_peripheral/system_gd32vw55x.c **** {
 224:../Firmware/GD32VW55x_standard_peripheral/system_gd32vw55x.c ****     uint32_t timeout = 0U;
 225:../Firmware/GD32VW55x_standard_peripheral/system_gd32vw55x.c ****     uint32_t stab_flag = 0U;
 226:../Firmware/GD32VW55x_standard_peripheral/system_gd32vw55x.c ****     __IO uint32_t reg_temp;
 227:../Firmware/GD32VW55x_standard_peripheral/system_gd32vw55x.c **** 
 228:../Firmware/GD32VW55x_standard_peripheral/system_gd32vw55x.c ****     /* power up the HXTAL */
 229:../Firmware/GD32VW55x_standard_peripheral/system_gd32vw55x.c ****     RCU_CTL |= RCU_CTL_HXTALPU;
 230:../Firmware/GD32VW55x_standard_peripheral/system_gd32vw55x.c ****     /* enable HXTAL */
 231:../Firmware/GD32VW55x_standard_peripheral/system_gd32vw55x.c ****     RCU_CTL |= RCU_CTL_HXTALEN;
 232:../Firmware/GD32VW55x_standard_peripheral/system_gd32vw55x.c ****     HXTALSTB_DELAY
 233:../Firmware/GD32VW55x_standard_peripheral/system_gd32vw55x.c ****     RCU_CTL |= RCU_CTL_HXTALREADY;
 234:../Firmware/GD32VW55x_standard_peripheral/system_gd32vw55x.c ****     /* wait until HXTAL is stable or the startup time is longer than HXTAL_STARTUP_TIMEOUT */
 235:../Firmware/GD32VW55x_standard_peripheral/system_gd32vw55x.c ****     do{
 236:../Firmware/GD32VW55x_standard_peripheral/system_gd32vw55x.c ****         timeout++;
 237:../Firmware/GD32VW55x_standard_peripheral/system_gd32vw55x.c ****         stab_flag = (RCU_CTL & RCU_CTL_HXTALSTB);
 238:../Firmware/GD32VW55x_standard_peripheral/system_gd32vw55x.c ****     }while((0U == stab_flag) && (HXTAL_STARTUP_TIMEOUT != timeout));
 239:../Firmware/GD32VW55x_standard_peripheral/system_gd32vw55x.c **** 
 240:../Firmware/GD32VW55x_standard_peripheral/system_gd32vw55x.c ****     if(0U == (RCU_CTL & RCU_CTL_HXTALSTB)){
 241:../Firmware/GD32VW55x_standard_peripheral/system_gd32vw55x.c ****         /* if fail */
 242:../Firmware/GD32VW55x_standard_peripheral/system_gd32vw55x.c ****         while(1){
 243:../Firmware/GD32VW55x_standard_peripheral/system_gd32vw55x.c ****         }
 244:../Firmware/GD32VW55x_standard_peripheral/system_gd32vw55x.c ****     }
 245:../Firmware/GD32VW55x_standard_peripheral/system_gd32vw55x.c **** 
 246:../Firmware/GD32VW55x_standard_peripheral/system_gd32vw55x.c ****     /* AHB = SYSCLK */
 247:../Firmware/GD32VW55x_standard_peripheral/system_gd32vw55x.c ****     RCU_CFG0 |= RCU_AHB_CKSYS_DIV1;
 248:../Firmware/GD32VW55x_standard_peripheral/system_gd32vw55x.c ****     /* APB2 = AHB */
 249:../Firmware/GD32VW55x_standard_peripheral/system_gd32vw55x.c ****     RCU_CFG0 |= RCU_APB2_CKAHB_DIV1;
 250:../Firmware/GD32VW55x_standard_peripheral/system_gd32vw55x.c ****     /* APB1 = AHB */
 251:../Firmware/GD32VW55x_standard_peripheral/system_gd32vw55x.c ****     RCU_CFG0 |= RCU_APB1_CKAHB_DIV1;
 252:../Firmware/GD32VW55x_standard_peripheral/system_gd32vw55x.c **** 
 253:../Firmware/GD32VW55x_standard_peripheral/system_gd32vw55x.c ****     reg_temp = RCU_CFG0;
 254:../Firmware/GD32VW55x_standard_peripheral/system_gd32vw55x.c ****     /* select HXTAL as system clock */
 255:../Firmware/GD32VW55x_standard_peripheral/system_gd32vw55x.c ****     reg_temp &= ~RCU_CFG0_SCS;
 256:../Firmware/GD32VW55x_standard_peripheral/system_gd32vw55x.c ****     reg_temp |= RCU_CKSYSSRC_HXTAL;
 257:../Firmware/GD32VW55x_standard_peripheral/system_gd32vw55x.c ****     RCU_CFG0 = reg_temp;
 258:../Firmware/GD32VW55x_standard_peripheral/system_gd32vw55x.c **** 
 259:../Firmware/GD32VW55x_standard_peripheral/system_gd32vw55x.c ****     /* wait until HXTAL is selected as system clock */
 260:../Firmware/GD32VW55x_standard_peripheral/system_gd32vw55x.c ****     while(RCU_SCSS_HXTAL != (RCU_CFG0 & RCU_CFG0_SCSS)){
 261:../Firmware/GD32VW55x_standard_peripheral/system_gd32vw55x.c ****     }
 262:../Firmware/GD32VW55x_standard_peripheral/system_gd32vw55x.c **** }
 263:../Firmware/GD32VW55x_standard_peripheral/system_gd32vw55x.c **** #elif defined (__SYSTEM_CLOCK_48M_PLLDIG_IRC16M)
 264:../Firmware/GD32VW55x_standard_peripheral/system_gd32vw55x.c **** /*!
 265:../Firmware/GD32VW55x_standard_peripheral/system_gd32vw55x.c ****     \brief      configure the system clock to 48M by PLL which selects IRC16M as its clock source
 266:../Firmware/GD32VW55x_standard_peripheral/system_gd32vw55x.c ****     \param[in]  none
 267:../Firmware/GD32VW55x_standard_peripheral/system_gd32vw55x.c ****     \param[out] none
 268:../Firmware/GD32VW55x_standard_peripheral/system_gd32vw55x.c ****     \retval     none
 269:../Firmware/GD32VW55x_standard_peripheral/system_gd32vw55x.c **** */
 270:../Firmware/GD32VW55x_standard_peripheral/system_gd32vw55x.c **** static void system_clock_48m_irc16m(void)
 271:../Firmware/GD32VW55x_standard_peripheral/system_gd32vw55x.c **** {
 272:../Firmware/GD32VW55x_standard_peripheral/system_gd32vw55x.c ****     uint32_t timeout = 0U;
 273:../Firmware/GD32VW55x_standard_peripheral/system_gd32vw55x.c ****     uint32_t stab_flag = 0U;
 274:../Firmware/GD32VW55x_standard_peripheral/system_gd32vw55x.c ****     __IO uint32_t reg_temp;
 275:../Firmware/GD32VW55x_standard_peripheral/system_gd32vw55x.c **** 
 276:../Firmware/GD32VW55x_standard_peripheral/system_gd32vw55x.c ****     /* enable IRC16M */
 277:../Firmware/GD32VW55x_standard_peripheral/system_gd32vw55x.c ****     RCU_CTL |= (RCU_CTL_IRC16MEN | RCU_CTL_IRC16MRFON);
 278:../Firmware/GD32VW55x_standard_peripheral/system_gd32vw55x.c **** 
 279:../Firmware/GD32VW55x_standard_peripheral/system_gd32vw55x.c ****     /* wait until IRC16M is stable or the startup time is longer than IRC16M_STARTUP_TIMEOUT */
 280:../Firmware/GD32VW55x_standard_peripheral/system_gd32vw55x.c ****     do{
 281:../Firmware/GD32VW55x_standard_peripheral/system_gd32vw55x.c ****         timeout++;
 282:../Firmware/GD32VW55x_standard_peripheral/system_gd32vw55x.c ****         stab_flag = (RCU_CTL & RCU_CTL_IRC16MSTB);
 283:../Firmware/GD32VW55x_standard_peripheral/system_gd32vw55x.c ****     }while((0U == stab_flag) && (IRC16M_STARTUP_TIMEOUT != timeout));
 284:../Firmware/GD32VW55x_standard_peripheral/system_gd32vw55x.c **** 
 285:../Firmware/GD32VW55x_standard_peripheral/system_gd32vw55x.c ****     if(0U == (RCU_CTL & RCU_CTL_IRC16MSTB)){
 286:../Firmware/GD32VW55x_standard_peripheral/system_gd32vw55x.c ****         /* if fail */
 287:../Firmware/GD32VW55x_standard_peripheral/system_gd32vw55x.c ****         while(1){
 288:../Firmware/GD32VW55x_standard_peripheral/system_gd32vw55x.c ****         }
 289:../Firmware/GD32VW55x_standard_peripheral/system_gd32vw55x.c ****     }
 290:../Firmware/GD32VW55x_standard_peripheral/system_gd32vw55x.c **** 
 291:../Firmware/GD32VW55x_standard_peripheral/system_gd32vw55x.c ****     /* IRC16M is stable */
 292:../Firmware/GD32VW55x_standard_peripheral/system_gd32vw55x.c ****     /* AHB = SYSCLK */
 293:../Firmware/GD32VW55x_standard_peripheral/system_gd32vw55x.c ****     RCU_CFG0 |= RCU_AHB_CKSYS_DIV1;
 294:../Firmware/GD32VW55x_standard_peripheral/system_gd32vw55x.c ****     /* APB2 = AHB */
 295:../Firmware/GD32VW55x_standard_peripheral/system_gd32vw55x.c ****     RCU_CFG0 |= RCU_APB2_CKAHB_DIV1;
 296:../Firmware/GD32VW55x_standard_peripheral/system_gd32vw55x.c ****     /* APB1 = AHB/1 */
 297:../Firmware/GD32VW55x_standard_peripheral/system_gd32vw55x.c ****     RCU_CFG0 |= RCU_APB1_CKAHB_DIV1;
 298:../Firmware/GD32VW55x_standard_peripheral/system_gd32vw55x.c **** 
 299:../Firmware/GD32VW55x_standard_peripheral/system_gd32vw55x.c ****     RCU_PLL |= RCU_PLLSRC_IRC16M;
 300:../Firmware/GD32VW55x_standard_peripheral/system_gd32vw55x.c **** 
 301:../Firmware/GD32VW55x_standard_peripheral/system_gd32vw55x.c ****     /* 960M = 16MHz*60 */
 302:../Firmware/GD32VW55x_standard_peripheral/system_gd32vw55x.c ****     RCU_PLLDIGCFG1 = ((960 << 21) / 16) & 0x7FFFFFFF;
 303:../Firmware/GD32VW55x_standard_peripheral/system_gd32vw55x.c ****     /* PLLDIG OUT = 480M */
 304:../Firmware/GD32VW55x_standard_peripheral/system_gd32vw55x.c ****     RCU_PLLDIGCFG0 |= ( RCU_PLLDIG_480M );
 305:../Firmware/GD32VW55x_standard_peripheral/system_gd32vw55x.c ****     /* SYS clock = 48M */
 306:../Firmware/GD32VW55x_standard_peripheral/system_gd32vw55x.c ****     RCU_PLLDIGCFG0 |= ( RCU_PLLDIG_SYS_DIV10 );
 307:../Firmware/GD32VW55x_standard_peripheral/system_gd32vw55x.c **** 
 308:../Firmware/GD32VW55x_standard_peripheral/system_gd32vw55x.c ****     /* enable PLLDIG */
 309:../Firmware/GD32VW55x_standard_peripheral/system_gd32vw55x.c ****     RCU_CFG1 |= (RCU_CFG1_BGPU);
 310:../Firmware/GD32VW55x_standard_peripheral/system_gd32vw55x.c ****     RCU_CTL |= (RCU_CTL_PLLDIGEN | RCU_CTL_PLLDIGPU);
 311:../Firmware/GD32VW55x_standard_peripheral/system_gd32vw55x.c **** 
 312:../Firmware/GD32VW55x_standard_peripheral/system_gd32vw55x.c ****     /* wait until PLLDIG is stable */
 313:../Firmware/GD32VW55x_standard_peripheral/system_gd32vw55x.c ****     while(0U == (RCU_CTL & RCU_CTL_PLLDIGSTB)){
 314:../Firmware/GD32VW55x_standard_peripheral/system_gd32vw55x.c ****     }
 315:../Firmware/GD32VW55x_standard_peripheral/system_gd32vw55x.c **** 
 316:../Firmware/GD32VW55x_standard_peripheral/system_gd32vw55x.c ****     reg_temp = RCU_CFG0;
 317:../Firmware/GD32VW55x_standard_peripheral/system_gd32vw55x.c ****     /* select PLLDIG as system clock */
 318:../Firmware/GD32VW55x_standard_peripheral/system_gd32vw55x.c ****     reg_temp &= ~RCU_CFG0_SCS;
 319:../Firmware/GD32VW55x_standard_peripheral/system_gd32vw55x.c ****     reg_temp |= RCU_CKSYSSRC_PLLDIG;
 320:../Firmware/GD32VW55x_standard_peripheral/system_gd32vw55x.c ****     RCU_CFG0 = reg_temp;
 321:../Firmware/GD32VW55x_standard_peripheral/system_gd32vw55x.c **** 
 322:../Firmware/GD32VW55x_standard_peripheral/system_gd32vw55x.c ****     /* wait until PLLDIG is selected as system clock */
 323:../Firmware/GD32VW55x_standard_peripheral/system_gd32vw55x.c ****     while(RCU_SCSS_PLLDIG != (RCU_CFG0 & RCU_CFG0_SCSS)){
 324:../Firmware/GD32VW55x_standard_peripheral/system_gd32vw55x.c ****     }
 325:../Firmware/GD32VW55x_standard_peripheral/system_gd32vw55x.c **** }
 326:../Firmware/GD32VW55x_standard_peripheral/system_gd32vw55x.c **** #elif defined (__SYSTEM_CLOCK_160M_PLLDIG_IRC16M)
 327:../Firmware/GD32VW55x_standard_peripheral/system_gd32vw55x.c **** /*!
 328:../Firmware/GD32VW55x_standard_peripheral/system_gd32vw55x.c ****     \brief      configure the system clock to 160M by PLL which selects IRC16M as its clock source
 329:../Firmware/GD32VW55x_standard_peripheral/system_gd32vw55x.c ****     \param[in]  none
 330:../Firmware/GD32VW55x_standard_peripheral/system_gd32vw55x.c ****     \param[out] none
 331:../Firmware/GD32VW55x_standard_peripheral/system_gd32vw55x.c ****     \retval     none
 332:../Firmware/GD32VW55x_standard_peripheral/system_gd32vw55x.c **** */
 333:../Firmware/GD32VW55x_standard_peripheral/system_gd32vw55x.c **** static void system_clock_160m_irc16m(void)
 334:../Firmware/GD32VW55x_standard_peripheral/system_gd32vw55x.c **** {
 335:../Firmware/GD32VW55x_standard_peripheral/system_gd32vw55x.c ****     uint32_t timeout = 0U;
 336:../Firmware/GD32VW55x_standard_peripheral/system_gd32vw55x.c ****     uint32_t stab_flag = 0U;
 337:../Firmware/GD32VW55x_standard_peripheral/system_gd32vw55x.c ****     __IO uint32_t reg_temp;
 338:../Firmware/GD32VW55x_standard_peripheral/system_gd32vw55x.c **** 	
 339:../Firmware/GD32VW55x_standard_peripheral/system_gd32vw55x.c ****     /* enable IRC16M */
 340:../Firmware/GD32VW55x_standard_peripheral/system_gd32vw55x.c ****     RCU_CTL |= (RCU_CTL_IRC16MEN | RCU_CTL_IRC16MRFON);
 341:../Firmware/GD32VW55x_standard_peripheral/system_gd32vw55x.c **** 
 342:../Firmware/GD32VW55x_standard_peripheral/system_gd32vw55x.c ****     /* wait until IRC16M is stable or the startup time is longer than IRC16M_STARTUP_TIMEOUT */
 343:../Firmware/GD32VW55x_standard_peripheral/system_gd32vw55x.c ****     do{
 344:../Firmware/GD32VW55x_standard_peripheral/system_gd32vw55x.c ****         timeout++;
 345:../Firmware/GD32VW55x_standard_peripheral/system_gd32vw55x.c ****         stab_flag = (RCU_CTL & RCU_CTL_IRC16MSTB);
 346:../Firmware/GD32VW55x_standard_peripheral/system_gd32vw55x.c ****     }while((0U == stab_flag) && (IRC16M_STARTUP_TIMEOUT != timeout));
 347:../Firmware/GD32VW55x_standard_peripheral/system_gd32vw55x.c **** 
 348:../Firmware/GD32VW55x_standard_peripheral/system_gd32vw55x.c ****     /* if fail */
 349:../Firmware/GD32VW55x_standard_peripheral/system_gd32vw55x.c ****     if(0U == (RCU_CTL & RCU_CTL_IRC16MSTB)){
 350:../Firmware/GD32VW55x_standard_peripheral/system_gd32vw55x.c ****         while(1){
 351:../Firmware/GD32VW55x_standard_peripheral/system_gd32vw55x.c ****         }
 352:../Firmware/GD32VW55x_standard_peripheral/system_gd32vw55x.c ****     }
 353:../Firmware/GD32VW55x_standard_peripheral/system_gd32vw55x.c **** 
 354:../Firmware/GD32VW55x_standard_peripheral/system_gd32vw55x.c ****     /* IRC16M is stable */
 355:../Firmware/GD32VW55x_standard_peripheral/system_gd32vw55x.c ****     /* AHB = SYSCLK */
 356:../Firmware/GD32VW55x_standard_peripheral/system_gd32vw55x.c ****     RCU_CFG0 |= RCU_AHB_CKSYS_DIV1;
 357:../Firmware/GD32VW55x_standard_peripheral/system_gd32vw55x.c ****     /* APB2 = AHB */
 358:../Firmware/GD32VW55x_standard_peripheral/system_gd32vw55x.c ****     RCU_CFG0 |= RCU_APB2_CKAHB_DIV1;
 359:../Firmware/GD32VW55x_standard_peripheral/system_gd32vw55x.c ****     /* APB1 = AHB/2 */
 360:../Firmware/GD32VW55x_standard_peripheral/system_gd32vw55x.c ****     RCU_CFG0 |= RCU_APB1_CKAHB_DIV2;
 361:../Firmware/GD32VW55x_standard_peripheral/system_gd32vw55x.c **** 
 362:../Firmware/GD32VW55x_standard_peripheral/system_gd32vw55x.c ****     RCU_PLL |= RCU_PLLSRC_IRC16M;
 363:../Firmware/GD32VW55x_standard_peripheral/system_gd32vw55x.c **** 
 364:../Firmware/GD32VW55x_standard_peripheral/system_gd32vw55x.c ****     /* 960M = 16MHz*60 */
 365:../Firmware/GD32VW55x_standard_peripheral/system_gd32vw55x.c ****     RCU_PLLDIGCFG1 = ((960 << 21) / 16) & 0x7FFFFFFF;
 366:../Firmware/GD32VW55x_standard_peripheral/system_gd32vw55x.c ****     /* PLLDIG OUT = 480M */
 367:../Firmware/GD32VW55x_standard_peripheral/system_gd32vw55x.c ****     RCU_PLLDIGCFG0 |= ( RCU_PLLDIG_480M );
 368:../Firmware/GD32VW55x_standard_peripheral/system_gd32vw55x.c ****     /* SYS clock = 160M */
 369:../Firmware/GD32VW55x_standard_peripheral/system_gd32vw55x.c ****     RCU_PLLDIGCFG0 |= ( RCU_PLLDIG_SYS_DIV3 );
 370:../Firmware/GD32VW55x_standard_peripheral/system_gd32vw55x.c **** 
 371:../Firmware/GD32VW55x_standard_peripheral/system_gd32vw55x.c ****     /* enable PLLDIG */
 372:../Firmware/GD32VW55x_standard_peripheral/system_gd32vw55x.c ****     RCU_CFG1 |= (RCU_CFG1_BGPU);
 373:../Firmware/GD32VW55x_standard_peripheral/system_gd32vw55x.c ****     RCU_CTL |= (RCU_CTL_PLLDIGEN | RCU_CTL_PLLDIGPU);
 374:../Firmware/GD32VW55x_standard_peripheral/system_gd32vw55x.c **** 
 375:../Firmware/GD32VW55x_standard_peripheral/system_gd32vw55x.c ****     /* wait until PLLDIG is stable */
 376:../Firmware/GD32VW55x_standard_peripheral/system_gd32vw55x.c ****     while(0U == (RCU_CTL & RCU_CTL_PLLDIGSTB)){
 377:../Firmware/GD32VW55x_standard_peripheral/system_gd32vw55x.c ****     }
 378:../Firmware/GD32VW55x_standard_peripheral/system_gd32vw55x.c **** 
 379:../Firmware/GD32VW55x_standard_peripheral/system_gd32vw55x.c ****     reg_temp = RCU_CFG0;
 380:../Firmware/GD32VW55x_standard_peripheral/system_gd32vw55x.c ****     /* select PLLDIG as system clock */
 381:../Firmware/GD32VW55x_standard_peripheral/system_gd32vw55x.c ****     reg_temp &= ~RCU_CFG0_SCS;
 382:../Firmware/GD32VW55x_standard_peripheral/system_gd32vw55x.c ****     reg_temp |= RCU_CKSYSSRC_PLLDIG;
 383:../Firmware/GD32VW55x_standard_peripheral/system_gd32vw55x.c ****     RCU_CFG0 = reg_temp;
 384:../Firmware/GD32VW55x_standard_peripheral/system_gd32vw55x.c **** 
 385:../Firmware/GD32VW55x_standard_peripheral/system_gd32vw55x.c ****     /* wait until PLLDIG is selected as system clock */
 386:../Firmware/GD32VW55x_standard_peripheral/system_gd32vw55x.c ****     while(RCU_SCSS_PLLDIG != (RCU_CFG0 & RCU_CFG0_SCSS)){
 387:../Firmware/GD32VW55x_standard_peripheral/system_gd32vw55x.c ****     }
 388:../Firmware/GD32VW55x_standard_peripheral/system_gd32vw55x.c **** }
 389:../Firmware/GD32VW55x_standard_peripheral/system_gd32vw55x.c **** #elif defined (__SYSTEM_CLOCK_160M_PLLDIG_HXTAL)
 390:../Firmware/GD32VW55x_standard_peripheral/system_gd32vw55x.c **** /*!
 391:../Firmware/GD32VW55x_standard_peripheral/system_gd32vw55x.c ****     \brief      configure the system clock to 160M by PLL which selects HXTAL as its clock source
 392:../Firmware/GD32VW55x_standard_peripheral/system_gd32vw55x.c ****     \param[in]  none
 393:../Firmware/GD32VW55x_standard_peripheral/system_gd32vw55x.c ****     \param[out] none
 394:../Firmware/GD32VW55x_standard_peripheral/system_gd32vw55x.c ****     \retval     none
 395:../Firmware/GD32VW55x_standard_peripheral/system_gd32vw55x.c **** */
 396:../Firmware/GD32VW55x_standard_peripheral/system_gd32vw55x.c **** static void system_clock_160m_hxtal(void)
 397:../Firmware/GD32VW55x_standard_peripheral/system_gd32vw55x.c **** {
 275              		.loc 1 397 1
 276              		.cfi_startproc
 277 0000 0111     		addi	sp,sp,-32
 278              		.cfi_def_cfa_offset 32
 279 0002 22CE     		sw	s0,28(sp)
 280              		.cfi_offset 8, -4
 281 0004 0010     		addi	s0,sp,32
 282              		.cfi_def_cfa 8, 0
 398:../Firmware/GD32VW55x_standard_peripheral/system_gd32vw55x.c ****     uint32_t timeout = 0U;
 283              		.loc 1 398 14
 284 0006 232604FE 		sw	zero,-20(s0)
 399:../Firmware/GD32VW55x_standard_peripheral/system_gd32vw55x.c ****     uint32_t stab_flag = 0U;
 285              		.loc 1 399 14
 286 000a 232404FE 		sw	zero,-24(s0)
 400:../Firmware/GD32VW55x_standard_peripheral/system_gd32vw55x.c ****     __IO uint32_t reg_temp;
 401:../Firmware/GD32VW55x_standard_peripheral/system_gd32vw55x.c **** 
 402:../Firmware/GD32VW55x_standard_peripheral/system_gd32vw55x.c ****     /* power up HXTAL */
 403:../Firmware/GD32VW55x_standard_peripheral/system_gd32vw55x.c ****     RCU_CTL |= RCU_CTL_HXTALPU;
 287              		.loc 1 403 13
 288 000e B7470240 		li	a5,1073889280
 289 0012 93870780 		addi	a5,a5,-2048
 290 0016 9443     		lw	a3,0(a5)
 291 0018 B7470240 		li	a5,1073889280
 292 001c 93870780 		addi	a5,a5,-2048
 293 0020 37070010 		li	a4,268435456
 294 0024 558F     		or	a4,a3,a4
 295 0026 98C3     		sw	a4,0(a5)
 404:../Firmware/GD32VW55x_standard_peripheral/system_gd32vw55x.c ****     /* enable HXTAL */
 405:../Firmware/GD32VW55x_standard_peripheral/system_gd32vw55x.c ****     RCU_CTL |= RCU_CTL_HXTALEN;
 296              		.loc 1 405 13
 297 0028 B7470240 		li	a5,1073889280
 298 002c 93870780 		addi	a5,a5,-2048
 299 0030 9443     		lw	a3,0(a5)
 300 0032 B7470240 		li	a5,1073889280
 301 0036 93870780 		addi	a5,a5,-2048
 302 003a 4167     		li	a4,65536
 303 003c 558F     		or	a4,a3,a4
 304 003e 98C3     		sw	a4,0(a5)
 305              	.LBB3:
 406:../Firmware/GD32VW55x_standard_peripheral/system_gd32vw55x.c ****     HXTALSTB_DELAY
 306              		.loc 1 406 5
 307 0040 232004FE 		sw	zero,-32(s0)
 308 0044 31A0     		j	.L15
 309              	.L16:
 310              		.loc 1 406 5 is_stmt 0 discriminator 3
 311 0046 832704FE 		lw	a5,-32(s0)
 312 004a 8507     		addi	a5,a5,1
 313 004c 2320F4FE 		sw	a5,-32(s0)
 314              	.L15:
 315              		.loc 1 406 5 discriminator 1
 316 0050 032704FE 		lw	a4,-32(s0)
 317 0054 8967     		li	a5,8192
 318 0056 E368F7FE 		bltu	a4,a5,.L16
 319              	.LBE3:
 407:../Firmware/GD32VW55x_standard_peripheral/system_gd32vw55x.c ****     RCU_CTL |= RCU_CTL_HXTALREADY;
 320              		.loc 1 407 13 is_stmt 1
 321 005a B7470240 		li	a5,1073889280
 322 005e 93870780 		addi	a5,a5,-2048
 323 0062 9443     		lw	a3,0(a5)
 324 0064 B7470240 		li	a5,1073889280
 325 0068 93870780 		addi	a5,a5,-2048
 326 006c 37070080 		li	a4,-2147483648
 327 0070 558F     		or	a4,a3,a4
 328 0072 98C3     		sw	a4,0(a5)
 329              	.L18:
 408:../Firmware/GD32VW55x_standard_peripheral/system_gd32vw55x.c **** 
 409:../Firmware/GD32VW55x_standard_peripheral/system_gd32vw55x.c ****     /* wait until HXTAL is stable or the startup time is longer than HXTAL_STARTUP_TIMEOUT */
 410:../Firmware/GD32VW55x_standard_peripheral/system_gd32vw55x.c ****     do{
 411:../Firmware/GD32VW55x_standard_peripheral/system_gd32vw55x.c ****         timeout++;
 330              		.loc 1 411 16 discriminator 2
 331 0074 8327C4FE 		lw	a5,-20(s0)
 332 0078 8507     		addi	a5,a5,1
 333 007a 2326F4FE 		sw	a5,-20(s0)
 412:../Firmware/GD32VW55x_standard_peripheral/system_gd32vw55x.c ****         stab_flag = (RCU_CTL & RCU_CTL_HXTALSTB);
 334              		.loc 1 412 22 discriminator 2
 335 007e B7470240 		li	a5,1073889280
 336 0082 93870780 		addi	a5,a5,-2048
 337 0086 9843     		lw	a4,0(a5)
 338              		.loc 1 412 19 discriminator 2
 339 0088 B7070200 		li	a5,131072
 340 008c F98F     		and	a5,a4,a5
 341 008e 2324F4FE 		sw	a5,-24(s0)
 413:../Firmware/GD32VW55x_standard_peripheral/system_gd32vw55x.c ****     }while((0U == stab_flag) && (HXTAL_STARTUP_TIMEOUT != timeout));
 342              		.loc 1 413 5 discriminator 2
 343 0092 832784FE 		lw	a5,-24(s0)
 344 0096 99E7     		bne	a5,zero,.L17
 345              		.loc 1 413 30 discriminator 1
 346 0098 0327C4FE 		lw	a4,-20(s0)
 347 009c C167     		li	a5,65536
 348 009e FD17     		addi	a5,a5,-1
 349 00a0 E31AF7FC 		bne	a4,a5,.L18
 350              	.L17:
 414:../Firmware/GD32VW55x_standard_peripheral/system_gd32vw55x.c **** 
 415:../Firmware/GD32VW55x_standard_peripheral/system_gd32vw55x.c ****     if(0U == (RCU_CTL & RCU_CTL_HXTALSTB)){
 351              		.loc 1 415 15
 352 00a4 B7470240 		li	a5,1073889280
 353 00a8 93870780 		addi	a5,a5,-2048
 354 00ac 9843     		lw	a4,0(a5)
 355              		.loc 1 415 23
 356 00ae B7070200 		li	a5,131072
 357 00b2 F98F     		and	a5,a4,a5
 358              		.loc 1 415 7
 359 00b4 91E3     		bne	a5,zero,.L19
 360              	.L20:
 416:../Firmware/GD32VW55x_standard_peripheral/system_gd32vw55x.c ****         /* if fail */
 417:../Firmware/GD32VW55x_standard_peripheral/system_gd32vw55x.c ****         while(1){
 361              		.loc 1 417 14 discriminator 1
 362 00b6 01A0     		j	.L20
 363              	.L19:
 418:../Firmware/GD32VW55x_standard_peripheral/system_gd32vw55x.c ****         }
 419:../Firmware/GD32VW55x_standard_peripheral/system_gd32vw55x.c ****     }
 420:../Firmware/GD32VW55x_standard_peripheral/system_gd32vw55x.c **** 
 421:../Firmware/GD32VW55x_standard_peripheral/system_gd32vw55x.c ****     /* HXTAL is stable */
 422:../Firmware/GD32VW55x_standard_peripheral/system_gd32vw55x.c ****     /* AHB = SYSCLK */
 423:../Firmware/GD32VW55x_standard_peripheral/system_gd32vw55x.c ****     RCU_CFG0 |= RCU_AHB_CKSYS_DIV1;
 364              		.loc 1 423 14
 365 00b8 B7470240 		li	a5,1073889280
 366 00bc 13878780 		addi	a4,a5,-2040
 367 00c0 B7470240 		li	a5,1073889280
 368 00c4 93878780 		addi	a5,a5,-2040
 369 00c8 1843     		lw	a4,0(a4)
 370 00ca 98C3     		sw	a4,0(a5)
 424:../Firmware/GD32VW55x_standard_peripheral/system_gd32vw55x.c ****     /* APB2 = AHB */
 425:../Firmware/GD32VW55x_standard_peripheral/system_gd32vw55x.c ****     RCU_CFG0 |= RCU_APB2_CKAHB_DIV1;
 371              		.loc 1 425 14
 372 00cc B7470240 		li	a5,1073889280
 373 00d0 13878780 		addi	a4,a5,-2040
 374 00d4 B7470240 		li	a5,1073889280
 375 00d8 93878780 		addi	a5,a5,-2040
 376 00dc 1843     		lw	a4,0(a4)
 377 00de 98C3     		sw	a4,0(a5)
 426:../Firmware/GD32VW55x_standard_peripheral/system_gd32vw55x.c ****     /* APB1 = AHB/2 */
 427:../Firmware/GD32VW55x_standard_peripheral/system_gd32vw55x.c ****     RCU_CFG0 |= RCU_APB1_CKAHB_DIV2;
 378              		.loc 1 427 14
 379 00e0 B7470240 		li	a5,1073889280
 380 00e4 93878780 		addi	a5,a5,-2040
 381 00e8 9443     		lw	a3,0(a5)
 382 00ea B7470240 		li	a5,1073889280
 383 00ee 93878780 		addi	a5,a5,-2040
 384 00f2 0567     		li	a4,4096
 385 00f4 558F     		or	a4,a3,a4
 386 00f6 98C3     		sw	a4,0(a5)
 428:../Firmware/GD32VW55x_standard_peripheral/system_gd32vw55x.c **** 
 429:../Firmware/GD32VW55x_standard_peripheral/system_gd32vw55x.c ****     RCU_PLL |= RCU_PLLSRC_HXTAL;
 387              		.loc 1 429 13
 388 00f8 B7470240 		li	a5,1073889280
 389 00fc 93874780 		addi	a5,a5,-2044
 390 0100 9443     		lw	a3,0(a5)
 391 0102 B7470240 		li	a5,1073889280
 392 0106 93874780 		addi	a5,a5,-2044
 393 010a 2167     		li	a4,32768
 394 010c 558F     		or	a4,a3,a4
 395 010e 98C3     		sw	a4,0(a5)
 430:../Firmware/GD32VW55x_standard_peripheral/system_gd32vw55x.c **** 
 431:../Firmware/GD32VW55x_standard_peripheral/system_gd32vw55x.c ****     /* PLLDIG = 960/HXTAL */
 432:../Firmware/GD32VW55x_standard_peripheral/system_gd32vw55x.c ****     RCU_PLLDIGCFG1 = ((960 << 21) / (HXTAL_VALUE/1000000)) & 0x7FFFFFFF;
 396              		.loc 1 432 5
 397 0110 B7470240 		li	a5,1073889280
 398 0114 93874789 		addi	a5,a5,-1900
 399              		.loc 1 432 20
 400 0118 37070003 		li	a4,50331648
 401 011c 98C3     		sw	a4,0(a5)
 433:../Firmware/GD32VW55x_standard_peripheral/system_gd32vw55x.c **** 
 434:../Firmware/GD32VW55x_standard_peripheral/system_gd32vw55x.c ****     /* PLLDIG OUT = 480M */
 435:../Firmware/GD32VW55x_standard_peripheral/system_gd32vw55x.c ****     RCU_PLLDIGCFG0 |= ( RCU_PLLDIG_480M );
 402              		.loc 1 435 20
 403 011e B7470240 		li	a5,1073889280
 404 0122 93874788 		addi	a5,a5,-1916
 405 0126 9443     		lw	a3,0(a5)
 406 0128 B7470240 		li	a5,1073889280
 407 012c 93874788 		addi	a5,a5,-1916
 408 0130 37070003 		li	a4,50331648
 409 0134 558F     		or	a4,a3,a4
 410 0136 98C3     		sw	a4,0(a5)
 436:../Firmware/GD32VW55x_standard_peripheral/system_gd32vw55x.c ****     /* SYS clock = 160M */
 437:../Firmware/GD32VW55x_standard_peripheral/system_gd32vw55x.c ****     RCU_PLLDIGCFG0 |= ( RCU_PLLDIG_SYS_DIV3 );
 411              		.loc 1 437 20
 412 0138 B7470240 		li	a5,1073889280
 413 013c 93874788 		addi	a5,a5,-1916
 414 0140 9443     		lw	a3,0(a5)
 415 0142 B7470240 		li	a5,1073889280
 416 0146 93874788 		addi	a5,a5,-1916
 417 014a 37070008 		li	a4,134217728
 418 014e 558F     		or	a4,a3,a4
 419 0150 98C3     		sw	a4,0(a5)
 438:../Firmware/GD32VW55x_standard_peripheral/system_gd32vw55x.c ****     /* enable PLLDIG */
 439:../Firmware/GD32VW55x_standard_peripheral/system_gd32vw55x.c ****     RCU_CFG1 |= (RCU_CFG1_BGPU);
 420              		.loc 1 439 14
 421 0152 B7470240 		li	a5,1073889280
 422 0156 9387C788 		addi	a5,a5,-1908
 423 015a 9443     		lw	a3,0(a5)
 424 015c B7470240 		li	a5,1073889280
 425 0160 9387C788 		addi	a5,a5,-1908
 426 0164 37070800 		li	a4,524288
 427 0168 558F     		or	a4,a3,a4
 428 016a 98C3     		sw	a4,0(a5)
 440:../Firmware/GD32VW55x_standard_peripheral/system_gd32vw55x.c ****     RCU_CTL |= (RCU_CTL_PLLDIGEN | RCU_CTL_PLLDIGPU);
 429              		.loc 1 440 13
 430 016c B7470240 		li	a5,1073889280
 431 0170 93870780 		addi	a5,a5,-2048
 432 0174 9443     		lw	a3,0(a5)
 433 0176 B7470240 		li	a5,1073889280
 434 017a 93870780 		addi	a5,a5,-2048
 435 017e 37073000 		li	a4,3145728
 436 0182 558F     		or	a4,a3,a4
 437 0184 98C3     		sw	a4,0(a5)
 441:../Firmware/GD32VW55x_standard_peripheral/system_gd32vw55x.c ****     /* wait until PLLDIG is stable */
 442:../Firmware/GD32VW55x_standard_peripheral/system_gd32vw55x.c ****     while(0U == (RCU_CTL & RCU_CTL_PLLDIGSTB)){
 438              		.loc 1 442 10
 439 0186 0100     		nop
 440              	.L21:
 441              		.loc 1 442 18 discriminator 1
 442 0188 B7470240 		li	a5,1073889280
 443 018c 93870780 		addi	a5,a5,-2048
 444 0190 9843     		lw	a4,0(a5)
 445              		.loc 1 442 26 discriminator 1
 446 0192 B7078000 		li	a5,8388608
 447 0196 F98F     		and	a5,a4,a5
 448              		.loc 1 442 10 discriminator 1
 449 0198 E5DB     		beq	a5,zero,.L21
 443:../Firmware/GD32VW55x_standard_peripheral/system_gd32vw55x.c ****     }
 444:../Firmware/GD32VW55x_standard_peripheral/system_gd32vw55x.c ****     reg_temp = RCU_CFG0;
 450              		.loc 1 444 16
 451 019a B7470240 		li	a5,1073889280
 452 019e 93878780 		addi	a5,a5,-2040
 453 01a2 9C43     		lw	a5,0(a5)
 454              		.loc 1 444 14
 455 01a4 2322F4FE 		sw	a5,-28(s0)
 445:../Firmware/GD32VW55x_standard_peripheral/system_gd32vw55x.c ****     /* select PLLDIG as system clock */
 446:../Firmware/GD32VW55x_standard_peripheral/system_gd32vw55x.c ****     reg_temp &= ~RCU_CFG0_SCS;
 456              		.loc 1 446 14
 457 01a8 832744FE 		lw	a5,-28(s0)
 458 01ac F19B     		andi	a5,a5,-4
 459 01ae 2322F4FE 		sw	a5,-28(s0)
 447:../Firmware/GD32VW55x_standard_peripheral/system_gd32vw55x.c ****     reg_temp |= RCU_CKSYSSRC_PLLDIG;
 460              		.loc 1 447 14
 461 01b2 832744FE 		lw	a5,-28(s0)
 462 01b6 93E72700 		ori	a5,a5,2
 463 01ba 2322F4FE 		sw	a5,-28(s0)
 448:../Firmware/GD32VW55x_standard_peripheral/system_gd32vw55x.c ****     RCU_CFG0 = reg_temp;
 464              		.loc 1 448 5
 465 01be B7470240 		li	a5,1073889280
 466 01c2 93878780 		addi	a5,a5,-2040
 467              		.loc 1 448 14
 468 01c6 032744FE 		lw	a4,-28(s0)
 469 01ca 98C3     		sw	a4,0(a5)
 449:../Firmware/GD32VW55x_standard_peripheral/system_gd32vw55x.c **** 
 450:../Firmware/GD32VW55x_standard_peripheral/system_gd32vw55x.c ****     /* wait until PLLDIG is selected as system clock */
 451:../Firmware/GD32VW55x_standard_peripheral/system_gd32vw55x.c ****     while(RCU_SCSS_PLLDIG != (RCU_CFG0 & RCU_CFG0_SCSS)){
 470              		.loc 1 451 10
 471 01cc 0100     		nop
 472              	.L22:
 473              		.loc 1 451 31 discriminator 1
 474 01ce B7470240 		li	a5,1073889280
 475 01d2 93878780 		addi	a5,a5,-2040
 476 01d6 9C43     		lw	a5,0(a5)
 477              		.loc 1 451 40 discriminator 1
 478 01d8 13F7C700 		andi	a4,a5,12
 479              		.loc 1 451 10 discriminator 1
 480 01dc A147     		li	a5,8
 481 01de E318F7FE 		bne	a4,a5,.L22
 452:../Firmware/GD32VW55x_standard_peripheral/system_gd32vw55x.c ****     }
 453:../Firmware/GD32VW55x_standard_peripheral/system_gd32vw55x.c **** } /* __SYSTEM_CLOCK_IRC16M */
 482              		.loc 1 453 1
 483 01e2 0100     		nop
 484 01e4 0100     		nop
 485 01e6 7244     		lw	s0,28(sp)
 486              		.cfi_restore 8
 487              		.cfi_def_cfa 2, 32
 488 01e8 0561     		addi	sp,sp,32
 489              		.cfi_def_cfa_offset 0
 490 01ea 8280     		jr	ra
 491              		.cfi_endproc
 492              	.LFE350:
 494              		.section	.rodata
 495              		.align	2
 496              	.LC0:
 497 0000 00       		.string	""
 498 0001 00       		.string	""
 499 0002 00       		.string	""
 500 0003 00       		.string	""
 501 0004 00       		.string	""
 502 0005 00       		.string	""
 503 0006 00       		.string	""
 504 0007 00       		.string	""
 505 0008 01020304 		.ascii	"\001\002\003\004\006\007\b\t"
 505      06070809 
 506              		.section	.text.SystemCoreClockUpdate,"ax",@progbits
 507              		.align	1
 508              		.globl	SystemCoreClockUpdate
 510              	SystemCoreClockUpdate:
 511              	.LFB351:
 454:../Firmware/GD32VW55x_standard_peripheral/system_gd32vw55x.c **** #elif defined (__SYSTEM_CLOCK_48M_PLLDIG_HXTAL)
 455:../Firmware/GD32VW55x_standard_peripheral/system_gd32vw55x.c **** /*!
 456:../Firmware/GD32VW55x_standard_peripheral/system_gd32vw55x.c ****     \brief      configure the system clock to 48M by PLL which selects HXTAL as its clock source
 457:../Firmware/GD32VW55x_standard_peripheral/system_gd32vw55x.c ****     \param[in]  none
 458:../Firmware/GD32VW55x_standard_peripheral/system_gd32vw55x.c ****     \param[out] none
 459:../Firmware/GD32VW55x_standard_peripheral/system_gd32vw55x.c ****     \retval     none
 460:../Firmware/GD32VW55x_standard_peripheral/system_gd32vw55x.c **** */
 461:../Firmware/GD32VW55x_standard_peripheral/system_gd32vw55x.c **** static void system_clock_48m_hxtal(void)
 462:../Firmware/GD32VW55x_standard_peripheral/system_gd32vw55x.c **** {
 463:../Firmware/GD32VW55x_standard_peripheral/system_gd32vw55x.c ****     uint32_t timeout = 0U;
 464:../Firmware/GD32VW55x_standard_peripheral/system_gd32vw55x.c ****     uint32_t stab_flag = 0U;
 465:../Firmware/GD32VW55x_standard_peripheral/system_gd32vw55x.c ****     __IO uint32_t reg_temp;
 466:../Firmware/GD32VW55x_standard_peripheral/system_gd32vw55x.c **** 
 467:../Firmware/GD32VW55x_standard_peripheral/system_gd32vw55x.c ****     /* power up HXTAL */
 468:../Firmware/GD32VW55x_standard_peripheral/system_gd32vw55x.c ****     RCU_CTL |= RCU_CTL_HXTALPU;
 469:../Firmware/GD32VW55x_standard_peripheral/system_gd32vw55x.c ****     /* enable HXTAL */
 470:../Firmware/GD32VW55x_standard_peripheral/system_gd32vw55x.c ****     RCU_CTL |= RCU_CTL_HXTALEN;
 471:../Firmware/GD32VW55x_standard_peripheral/system_gd32vw55x.c ****     HXTALSTB_DELAY
 472:../Firmware/GD32VW55x_standard_peripheral/system_gd32vw55x.c ****     RCU_CTL |= RCU_CTL_HXTALREADY;
 473:../Firmware/GD32VW55x_standard_peripheral/system_gd32vw55x.c **** 
 474:../Firmware/GD32VW55x_standard_peripheral/system_gd32vw55x.c ****     /* wait until HXTAL is stable or the startup time is longer than HXTAL_STARTUP_TIMEOUT */
 475:../Firmware/GD32VW55x_standard_peripheral/system_gd32vw55x.c ****     do{
 476:../Firmware/GD32VW55x_standard_peripheral/system_gd32vw55x.c ****         timeout++;
 477:../Firmware/GD32VW55x_standard_peripheral/system_gd32vw55x.c ****         stab_flag = (RCU_CTL & RCU_CTL_HXTALSTB);
 478:../Firmware/GD32VW55x_standard_peripheral/system_gd32vw55x.c ****     }while((0U == stab_flag) && (HXTAL_STARTUP_TIMEOUT != timeout));
 479:../Firmware/GD32VW55x_standard_peripheral/system_gd32vw55x.c **** 
 480:../Firmware/GD32VW55x_standard_peripheral/system_gd32vw55x.c ****     if(0U == (RCU_CTL & RCU_CTL_HXTALSTB)){
 481:../Firmware/GD32VW55x_standard_peripheral/system_gd32vw55x.c ****         /* if fail */
 482:../Firmware/GD32VW55x_standard_peripheral/system_gd32vw55x.c ****         while(1){
 483:../Firmware/GD32VW55x_standard_peripheral/system_gd32vw55x.c ****         }
 484:../Firmware/GD32VW55x_standard_peripheral/system_gd32vw55x.c ****     }
 485:../Firmware/GD32VW55x_standard_peripheral/system_gd32vw55x.c **** 
 486:../Firmware/GD32VW55x_standard_peripheral/system_gd32vw55x.c ****     /* HXTAL is stable */
 487:../Firmware/GD32VW55x_standard_peripheral/system_gd32vw55x.c ****     /* AHB = SYSCLK */
 488:../Firmware/GD32VW55x_standard_peripheral/system_gd32vw55x.c ****     RCU_CFG0 |= RCU_AHB_CKSYS_DIV1;
 489:../Firmware/GD32VW55x_standard_peripheral/system_gd32vw55x.c ****     /* APB2 = AHB */
 490:../Firmware/GD32VW55x_standard_peripheral/system_gd32vw55x.c ****     RCU_CFG0 |= RCU_APB2_CKAHB_DIV1;
 491:../Firmware/GD32VW55x_standard_peripheral/system_gd32vw55x.c ****     /* APB1 = AHB/2 */
 492:../Firmware/GD32VW55x_standard_peripheral/system_gd32vw55x.c ****     RCU_CFG0 |= RCU_APB1_CKAHB_DIV2;
 493:../Firmware/GD32VW55x_standard_peripheral/system_gd32vw55x.c **** 
 494:../Firmware/GD32VW55x_standard_peripheral/system_gd32vw55x.c ****     RCU_PLL |= RCU_PLLSRC_HXTAL;
 495:../Firmware/GD32VW55x_standard_peripheral/system_gd32vw55x.c **** 
 496:../Firmware/GD32VW55x_standard_peripheral/system_gd32vw55x.c ****     /* PLLDIG = 960/HXTAL */
 497:../Firmware/GD32VW55x_standard_peripheral/system_gd32vw55x.c ****     RCU_PLLDIGCFG1 = ((960 << 21) / (HXTAL_VALUE/1000000)) & 0x7FFFFFFF;
 498:../Firmware/GD32VW55x_standard_peripheral/system_gd32vw55x.c **** 
 499:../Firmware/GD32VW55x_standard_peripheral/system_gd32vw55x.c ****     /* PLLDIG OUT = 480M */
 500:../Firmware/GD32VW55x_standard_peripheral/system_gd32vw55x.c ****     RCU_PLLDIGCFG0 |= ( RCU_PLLDIG_480M );
 501:../Firmware/GD32VW55x_standard_peripheral/system_gd32vw55x.c ****     /* SYS clock = 48M */
 502:../Firmware/GD32VW55x_standard_peripheral/system_gd32vw55x.c ****     RCU_PLLDIGCFG0 |= ( RCU_PLLDIG_SYS_DIV10 );
 503:../Firmware/GD32VW55x_standard_peripheral/system_gd32vw55x.c ****     /* enable PLL */
 504:../Firmware/GD32VW55x_standard_peripheral/system_gd32vw55x.c ****     RCU_CFG1 |= (RCU_CFG1_BGPU);
 505:../Firmware/GD32VW55x_standard_peripheral/system_gd32vw55x.c ****     RCU_CTL |= (RCU_CTL_PLLDIGEN | RCU_CTL_PLLDIGPU);
 506:../Firmware/GD32VW55x_standard_peripheral/system_gd32vw55x.c ****     /* wait until PLL is stable */
 507:../Firmware/GD32VW55x_standard_peripheral/system_gd32vw55x.c ****     while(0U == (RCU_CTL & RCU_CTL_PLLDIGSTB)){
 508:../Firmware/GD32VW55x_standard_peripheral/system_gd32vw55x.c ****     }
 509:../Firmware/GD32VW55x_standard_peripheral/system_gd32vw55x.c **** 
 510:../Firmware/GD32VW55x_standard_peripheral/system_gd32vw55x.c ****     reg_temp = RCU_CFG0;
 511:../Firmware/GD32VW55x_standard_peripheral/system_gd32vw55x.c ****     /* select PLL as system clock */
 512:../Firmware/GD32VW55x_standard_peripheral/system_gd32vw55x.c ****     reg_temp &= ~RCU_CFG0_SCS;
 513:../Firmware/GD32VW55x_standard_peripheral/system_gd32vw55x.c ****     reg_temp |= RCU_CKSYSSRC_PLLDIG;
 514:../Firmware/GD32VW55x_standard_peripheral/system_gd32vw55x.c ****     RCU_CFG0 = reg_temp;
 515:../Firmware/GD32VW55x_standard_peripheral/system_gd32vw55x.c **** 
 516:../Firmware/GD32VW55x_standard_peripheral/system_gd32vw55x.c ****     /* wait until PLL is selected as system clock */
 517:../Firmware/GD32VW55x_standard_peripheral/system_gd32vw55x.c ****     while(RCU_SCSS_PLLDIG != (RCU_CFG0 & RCU_CFG0_SCSS)){
 518:../Firmware/GD32VW55x_standard_peripheral/system_gd32vw55x.c ****     }
 519:../Firmware/GD32VW55x_standard_peripheral/system_gd32vw55x.c **** }
 520:../Firmware/GD32VW55x_standard_peripheral/system_gd32vw55x.c **** #endif
 521:../Firmware/GD32VW55x_standard_peripheral/system_gd32vw55x.c **** 
 522:../Firmware/GD32VW55x_standard_peripheral/system_gd32vw55x.c **** /*!
 523:../Firmware/GD32VW55x_standard_peripheral/system_gd32vw55x.c ****     \brief      update the SystemCoreClock with current core clock retrieved from cpu registers
 524:../Firmware/GD32VW55x_standard_peripheral/system_gd32vw55x.c ****     \param[in]  none
 525:../Firmware/GD32VW55x_standard_peripheral/system_gd32vw55x.c ****     \param[out] none
 526:../Firmware/GD32VW55x_standard_peripheral/system_gd32vw55x.c ****     \retval     none
 527:../Firmware/GD32VW55x_standard_peripheral/system_gd32vw55x.c **** */
 528:../Firmware/GD32VW55x_standard_peripheral/system_gd32vw55x.c **** void SystemCoreClockUpdate (void)
 529:../Firmware/GD32VW55x_standard_peripheral/system_gd32vw55x.c **** {
 512              		.loc 1 529 1
 513              		.cfi_startproc
 514 0000 3971     		addi	sp,sp,-64
 515              		.cfi_def_cfa_offset 64
 516 0002 22DE     		sw	s0,60(sp)
 517              		.cfi_offset 8, -4
 518 0004 8000     		addi	s0,sp,64
 519              		.cfi_def_cfa 8, 0
 530:../Firmware/GD32VW55x_standard_peripheral/system_gd32vw55x.c ****     uint32_t sws;
 531:../Firmware/GD32VW55x_standard_peripheral/system_gd32vw55x.c ****     uint32_t fresel, plldigdiv, outputfre, idx, clk_exp;
 532:../Firmware/GD32VW55x_standard_peripheral/system_gd32vw55x.c **** 
 533:../Firmware/GD32VW55x_standard_peripheral/system_gd32vw55x.c ****     /* exponent of AHB, APB1 and APB2 clock divider */
 534:../Firmware/GD32VW55x_standard_peripheral/system_gd32vw55x.c ****     const uint8_t ahb_exp[16] = {0, 0, 0, 0, 0, 0, 0, 0, 1, 2, 3, 4, 6, 7, 8, 9};
 520              		.loc 1 534 19
 521 0006 97070000 		lla	a5,.LC0
 521      93870700 
 522 000e 9043     		lw	a2,0(a5)
 523 0010 D443     		lw	a3,4(a5)
 524 0012 9847     		lw	a4,8(a5)
 525 0014 DC47     		lw	a5,12(a5)
 526 0016 2324C4FC 		sw	a2,-56(s0)
 527 001a 2326D4FC 		sw	a3,-52(s0)
 528 001e 2328E4FC 		sw	a4,-48(s0)
 529 0022 232AF4FC 		sw	a5,-44(s0)
 535:../Firmware/GD32VW55x_standard_peripheral/system_gd32vw55x.c **** 
 536:../Firmware/GD32VW55x_standard_peripheral/system_gd32vw55x.c ****     sws = GET_BITS(RCU_CFG0, 2, 3);
 530              		.loc 1 536 11
 531 0026 B7470240 		li	a5,1073889280
 532 002a 93878780 		addi	a5,a5,-2040
 533 002e 9C43     		lw	a5,0(a5)
 534 0030 8983     		srli	a5,a5,2
 535              		.loc 1 536 9
 536 0032 8D8B     		andi	a5,a5,3
 537 0034 2324F4FE 		sw	a5,-24(s0)
 537:../Firmware/GD32VW55x_standard_peripheral/system_gd32vw55x.c ****     switch(sws){
 538              		.loc 1 537 5
 539 0038 032784FE 		lw	a4,-24(s0)
 540 003c 8947     		li	a5,2
 541 003e 6304F704 		beq	a4,a5,.L24
 542 0042 032784FE 		lw	a4,-24(s0)
 543 0046 8947     		li	a5,2
 544 0048 63E9E70E 		bgtu	a4,a5,.L25
 545 004c 832784FE 		lw	a5,-24(s0)
 546 0050 99C7     		beq	a5,zero,.L26
 547 0052 032784FE 		lw	a4,-24(s0)
 548 0056 8547     		li	a5,1
 549 0058 630DF700 		beq	a4,a5,.L27
 550 005c F9A8     		j	.L25
 551              	.L26:
 538:../Firmware/GD32VW55x_standard_peripheral/system_gd32vw55x.c ****     /* IRC16M is selected as CK_SYS */
 539:../Firmware/GD32VW55x_standard_peripheral/system_gd32vw55x.c ****     case 0:
 540:../Firmware/GD32VW55x_standard_peripheral/system_gd32vw55x.c ****         SystemCoreClock = IRC16M_VALUE;
 552              		.loc 1 540 25
 553 005e 97070000 		lla	a5,SystemCoreClock
 553      93870700 
 554 0066 3727F400 		li	a4,15998976
 555 006a 13070740 		addi	a4,a4,1024
 556 006e 98C3     		sw	a4,0(a5)
 541:../Firmware/GD32VW55x_standard_peripheral/system_gd32vw55x.c ****         break;
 557              		.loc 1 541 9
 558 0070 F9A8     		j	.L28
 559              	.L27:
 542:../Firmware/GD32VW55x_standard_peripheral/system_gd32vw55x.c ****     /* HXTAL is selected as CK_SYS */
 543:../Firmware/GD32VW55x_standard_peripheral/system_gd32vw55x.c ****     case 1:
 544:../Firmware/GD32VW55x_standard_peripheral/system_gd32vw55x.c ****         SystemCoreClock = HXTAL_VALUE;
 560              		.loc 1 544 25
 561 0072 97070000 		lla	a5,SystemCoreClock
 561      93870700 
 562 007a 37676202 		li	a4,40001536
 563 007e 130707A0 		addi	a4,a4,-1536
 564 0082 98C3     		sw	a4,0(a5)
 545:../Firmware/GD32VW55x_standard_peripheral/system_gd32vw55x.c ****         break;
 565              		.loc 1 545 9
 566 0084 E9A0     		j	.L28
 567              	.L24:
 546:../Firmware/GD32VW55x_standard_peripheral/system_gd32vw55x.c ****     /* PLLDIG is selected as CK_SYS */
 547:../Firmware/GD32VW55x_standard_peripheral/system_gd32vw55x.c ****     case 2:
 548:../Firmware/GD32VW55x_standard_peripheral/system_gd32vw55x.c ****         /* get the value of PLLDIGOSEL[1:0] */
 549:../Firmware/GD32VW55x_standard_peripheral/system_gd32vw55x.c ****         fresel = GET_BITS(RCU_PLLDIGCFG0, 24U, 25U);
 568              		.loc 1 549 18
 569 0086 B7470240 		li	a5,1073889280
 570 008a 93874788 		addi	a5,a5,-1916
 571 008e 9C43     		lw	a5,0(a5)
 572 0090 E183     		srli	a5,a5,24
 573              		.loc 1 549 16
 574 0092 8D8B     		andi	a5,a5,3
 575 0094 2322F4FE 		sw	a5,-28(s0)
 576 0098 032744FE 		lw	a4,-28(s0)
 577 009c 8D47     		li	a5,3
 578 009e 630BF704 		beq	a4,a5,.L29
 579 00a2 032744FE 		lw	a4,-28(s0)
 580 00a6 8D47     		li	a5,3
 581 00a8 63EDE704 		bgtu	a4,a5,.L30
 582 00ac 032744FE 		lw	a4,-28(s0)
 583 00b0 8947     		li	a5,2
 584 00b2 630CF702 		beq	a4,a5,.L31
 585 00b6 032744FE 		lw	a4,-28(s0)
 586 00ba 8947     		li	a5,2
 587 00bc 63E3E704 		bgtu	a4,a5,.L30
 588 00c0 832744FE 		lw	a5,-28(s0)
 589 00c4 99C7     		beq	a5,zero,.L32
 590 00c6 032744FE 		lw	a4,-28(s0)
 591 00ca 8547     		li	a5,1
 592 00cc 6308F700 		beq	a4,a5,.L33
 593 00d0 0DA8     		j	.L30
 594              	.L32:
 550:../Firmware/GD32VW55x_standard_peripheral/system_gd32vw55x.c ****         switch(fresel){
 551:../Firmware/GD32VW55x_standard_peripheral/system_gd32vw55x.c ****         case 0:
 552:../Firmware/GD32VW55x_standard_peripheral/system_gd32vw55x.c ****             outputfre = 192000000;
 595              		.loc 1 552 23
 596 00d2 B7B7710B 		li	a5,192000000
 597 00d6 2326F4FE 		sw	a5,-20(s0)
 553:../Firmware/GD32VW55x_standard_peripheral/system_gd32vw55x.c ****             break;
 598              		.loc 1 553 13
 599 00da 0DA8     		j	.L34
 600              	.L33:
 554:../Firmware/GD32VW55x_standard_peripheral/system_gd32vw55x.c ****         case 1:
 555:../Firmware/GD32VW55x_standard_peripheral/system_gd32vw55x.c ****             outputfre = 240000000;
 601              		.loc 1 555 23
 602 00dc B7274E0E 		li	a5,240001024
 603 00e0 938707C0 		addi	a5,a5,-1024
 604 00e4 2326F4FE 		sw	a5,-20(s0)
 556:../Firmware/GD32VW55x_standard_peripheral/system_gd32vw55x.c ****             break;
 605              		.loc 1 556 13
 606 00e8 15A0     		j	.L34
 607              	.L31:
 557:../Firmware/GD32VW55x_standard_peripheral/system_gd32vw55x.c ****         case 2:
 558:../Firmware/GD32VW55x_standard_peripheral/system_gd32vw55x.c ****             outputfre = 320000000;
 608              		.loc 1 558 23
 609 00ea B7D71213 		li	a5,320000000
 610 00ee 2326F4FE 		sw	a5,-20(s0)
 559:../Firmware/GD32VW55x_standard_peripheral/system_gd32vw55x.c ****             break;
 611              		.loc 1 559 13
 612 00f2 29A8     		j	.L34
 613              	.L29:
 560:../Firmware/GD32VW55x_standard_peripheral/system_gd32vw55x.c ****         case 3:
 561:../Firmware/GD32VW55x_standard_peripheral/system_gd32vw55x.c ****             outputfre = 480000000;
 614              		.loc 1 561 23
 615 00f4 B7479C1C 		li	a5,480002048
 616 00f8 93870780 		addi	a5,a5,-2048
 617 00fc 2326F4FE 		sw	a5,-20(s0)
 562:../Firmware/GD32VW55x_standard_peripheral/system_gd32vw55x.c ****             break;
 618              		.loc 1 562 13
 619 0100 31A0     		j	.L34
 620              	.L30:
 563:../Firmware/GD32VW55x_standard_peripheral/system_gd32vw55x.c ****         default:
 564:../Firmware/GD32VW55x_standard_peripheral/system_gd32vw55x.c ****             outputfre = 192000000;
 621              		.loc 1 564 23
 622 0102 B7B7710B 		li	a5,192000000
 623 0106 2326F4FE 		sw	a5,-20(s0)
 565:../Firmware/GD32VW55x_standard_peripheral/system_gd32vw55x.c ****             break;
 624              		.loc 1 565 13
 625 010a 0100     		nop
 626              	.L34:
 566:../Firmware/GD32VW55x_standard_peripheral/system_gd32vw55x.c ****         }
 567:../Firmware/GD32VW55x_standard_peripheral/system_gd32vw55x.c ****         plldigdiv = (GET_BITS(RCU_PLLDIGCFG0, 26U, 31U) + 1U);
 627              		.loc 1 567 22
 628 010c B7470240 		li	a5,1073889280
 629 0110 93874788 		addi	a5,a5,-1916
 630 0114 9C43     		lw	a5,0(a5)
 631 0116 E983     		srli	a5,a5,26
 632 0118 93F7F703 		andi	a5,a5,63
 633              		.loc 1 567 19
 634 011c 8507     		addi	a5,a5,1
 635 011e 2320F4FE 		sw	a5,-32(s0)
 568:../Firmware/GD32VW55x_standard_peripheral/system_gd32vw55x.c ****         SystemCoreClock = outputfre/plldigdiv;
 636              		.loc 1 568 36
 637 0122 0327C4FE 		lw	a4,-20(s0)
 638 0126 832704FE 		lw	a5,-32(s0)
 639 012a 3357F702 		divu	a4,a4,a5
 640              		.loc 1 568 25
 641 012e 97070000 		lla	a5,SystemCoreClock
 641      93870700 
 642 0136 98C3     		sw	a4,0(a5)
 569:../Firmware/GD32VW55x_standard_peripheral/system_gd32vw55x.c ****         break;
 643              		.loc 1 569 9
 644 0138 19A8     		j	.L28
 645              	.L25:
 570:../Firmware/GD32VW55x_standard_peripheral/system_gd32vw55x.c ****     /* IRC16M is selected as CK_SYS */
 571:../Firmware/GD32VW55x_standard_peripheral/system_gd32vw55x.c ****     default:
 572:../Firmware/GD32VW55x_standard_peripheral/system_gd32vw55x.c ****         SystemCoreClock = IRC16M_VALUE;
 646              		.loc 1 572 25
 647 013a 97070000 		lla	a5,SystemCoreClock
 647      93870700 
 648 0142 3727F400 		li	a4,15998976
 649 0146 13070740 		addi	a4,a4,1024
 650 014a 98C3     		sw	a4,0(a5)
 573:../Firmware/GD32VW55x_standard_peripheral/system_gd32vw55x.c ****         break;
 651              		.loc 1 573 9
 652 014c 0100     		nop
 653              	.L28:
 574:../Firmware/GD32VW55x_standard_peripheral/system_gd32vw55x.c ****     }
 575:../Firmware/GD32VW55x_standard_peripheral/system_gd32vw55x.c ****     /* calculate AHB clock frequency */
 576:../Firmware/GD32VW55x_standard_peripheral/system_gd32vw55x.c ****     idx = GET_BITS(RCU_CFG0, 4, 7);
 654              		.loc 1 576 11
 655 014e B7470240 		li	a5,1073889280
 656 0152 93878780 		addi	a5,a5,-2040
 657 0156 9C43     		lw	a5,0(a5)
 658 0158 9183     		srli	a5,a5,4
 659              		.loc 1 576 9
 660 015a BD8B     		andi	a5,a5,15
 661 015c 232EF4FC 		sw	a5,-36(s0)
 577:../Firmware/GD32VW55x_standard_peripheral/system_gd32vw55x.c ****     clk_exp = ahb_exp[idx];
 662              		.loc 1 577 22
 663 0160 8327C4FD 		lw	a5,-36(s0)
 664 0164 130704FF 		addi	a4,s0,-16
 665 0168 BA97     		add	a5,a4,a5
 666 016a 83C787FD 		lbu	a5,-40(a5)
 667              		.loc 1 577 13
 668 016e 232CF4FC 		sw	a5,-40(s0)
 578:../Firmware/GD32VW55x_standard_peripheral/system_gd32vw55x.c ****     SystemCoreClock = SystemCoreClock >> clk_exp;
 669              		.loc 1 578 39
 670 0172 97070000 		lla	a5,SystemCoreClock
 670      93870700 
 671 017a 9843     		lw	a4,0(a5)
 672 017c 832784FD 		lw	a5,-40(s0)
 673 0180 3357F700 		srl	a4,a4,a5
 674              		.loc 1 578 21
 675 0184 97070000 		lla	a5,SystemCoreClock
 675      93870700 
 676 018c 98C3     		sw	a4,0(a5)
 579:../Firmware/GD32VW55x_standard_peripheral/system_gd32vw55x.c **** }
 677              		.loc 1 579 1
 678 018e 0100     		nop
 679 0190 7254     		lw	s0,60(sp)
 680              		.cfi_restore 8
 681              		.cfi_def_cfa 2, 64
 682 0192 2161     		addi	sp,sp,64
 683              		.cfi_def_cfa_offset 0
 684 0194 8280     		jr	ra
 685              		.cfi_endproc
 686              	.LFE351:
 688              		.section	.text.gd32vw55x_firmware_version_get,"ax",@progbits
 689              		.align	1
 690              		.globl	gd32vw55x_firmware_version_get
 692              	gd32vw55x_firmware_version_get:
 693              	.LFB352:
 580:../Firmware/GD32VW55x_standard_peripheral/system_gd32vw55x.c **** 
 581:../Firmware/GD32VW55x_standard_peripheral/system_gd32vw55x.c **** 
 582:../Firmware/GD32VW55x_standard_peripheral/system_gd32vw55x.c **** #ifdef __FIRMWARE_VERSION_DEFINE
 583:../Firmware/GD32VW55x_standard_peripheral/system_gd32vw55x.c **** /*!
 584:../Firmware/GD32VW55x_standard_peripheral/system_gd32vw55x.c ****     \brief      get firmware version
 585:../Firmware/GD32VW55x_standard_peripheral/system_gd32vw55x.c ****     \param[in]  none
 586:../Firmware/GD32VW55x_standard_peripheral/system_gd32vw55x.c ****     \param[out] none
 587:../Firmware/GD32VW55x_standard_peripheral/system_gd32vw55x.c ****     \retval     firmware version
 588:../Firmware/GD32VW55x_standard_peripheral/system_gd32vw55x.c **** */
 589:../Firmware/GD32VW55x_standard_peripheral/system_gd32vw55x.c **** uint32_t gd32vw55x_firmware_version_get(void)
 590:../Firmware/GD32VW55x_standard_peripheral/system_gd32vw55x.c **** {
 694              		.loc 1 590 1
 695              		.cfi_startproc
 696 0000 4111     		addi	sp,sp,-16
 697              		.cfi_def_cfa_offset 16
 698 0002 22C6     		sw	s0,12(sp)
 699              		.cfi_offset 8, -4
 700 0004 0008     		addi	s0,sp,16
 701              		.cfi_def_cfa 8, 0
 591:../Firmware/GD32VW55x_standard_peripheral/system_gd32vw55x.c ****     return __GD32VW55X_STDPERIPH_VERSION;
 702              		.loc 1 591 12
 703 0006 B7070401 		li	a5,17039360
 592:../Firmware/GD32VW55x_standard_peripheral/system_gd32vw55x.c **** }
 704              		.loc 1 592 1
 705 000a 3E85     		mv	a0,a5
 706 000c 3244     		lw	s0,12(sp)
 707              		.cfi_restore 8
 708              		.cfi_def_cfa 2, 16
 709 000e 4101     		addi	sp,sp,16
 710              		.cfi_def_cfa_offset 0
 711 0010 8280     		jr	ra
 712              		.cfi_endproc
 713              	.LFE352:
 715              		.text
 716              	.Letext0:
 717              		.file 2 "e:\\gd32\\gd32embeddedbuilder_v1.5.2.30854\\tools\\nuclei_riscv_newlibc_prebuilt_win32_20
 718              		.file 3 "e:\\gd32\\gd32embeddedbuilder_v1.5.2.30854\\tools\\nuclei_riscv_newlibc_prebuilt_win32_20
 719              		.file 4 "../Firmware/GD32VW55x_standard_peripheral/system_gd32vw55x.h"
DEFINED SYMBOLS
                            *ABS*:0000000000000000 system_gd32vw55x.c
C:\Users\CYMR90~1\AppData\Local\Temp\ccEL7hUr.s:14     .sdata.SystemCoreClock:0000000000000000 SystemCoreClock
C:\Users\CYMR90~1\AppData\Local\Temp\ccEL7hUr.s:19     .text._soft_delay_:0000000000000000 _soft_delay_
C:\Users\CYMR90~1\AppData\Local\Temp\ccEL7hUr.s:23     .text._soft_delay_:0000000000000000 .L0 
C:\Users\CYMR90~1\AppData\Local\Temp\ccEL7hUr.s:24     .text._soft_delay_:0000000000000000 .L0 
C:\Users\CYMR90~1\AppData\Local\Temp\ccEL7hUr.s:25     .text._soft_delay_:0000000000000002 .L0 
C:\Users\CYMR90~1\AppData\Local\Temp\ccEL7hUr.s:27     .text._soft_delay_:0000000000000004 .L0 
C:\Users\CYMR90~1\AppData\Local\Temp\ccEL7hUr.s:29     .text._soft_delay_:0000000000000006 .L0 
C:\Users\CYMR90~1\AppData\Local\Temp\ccEL7hUr.s:32     .text._soft_delay_:000000000000000a .L0 
C:\Users\CYMR90~1\AppData\Local\Temp\ccEL7hUr.s:34     .text._soft_delay_:000000000000000e .L0 
C:\Users\CYMR90~1\AppData\Local\Temp\ccEL7hUr.s:37     .text._soft_delay_:0000000000000010 .L0 
C:\Users\CYMR90~1\AppData\Local\Temp\ccEL7hUr.s:42     .text._soft_delay_:000000000000001a .L0 
C:\Users\CYMR90~1\AppData\Local\Temp\ccEL7hUr.s:49     .text._soft_delay_:0000000000000028 .L0 
C:\Users\CYMR90~1\AppData\Local\Temp\ccEL7hUr.s:51     .text._soft_delay_:000000000000002c .L0 
C:\Users\CYMR90~1\AppData\Local\Temp\ccEL7hUr.s:53     .text._soft_delay_:0000000000000030 .L0 
C:\Users\CYMR90~1\AppData\Local\Temp\ccEL7hUr.s:56     .text._soft_delay_:0000000000000036 .L0 
C:\Users\CYMR90~1\AppData\Local\Temp\ccEL7hUr.s:57     .text._soft_delay_:0000000000000036 .L0 
C:\Users\CYMR90~1\AppData\Local\Temp\ccEL7hUr.s:59     .text._soft_delay_:0000000000000038 .L0 
C:\Users\CYMR90~1\AppData\Local\Temp\ccEL7hUr.s:61     .text._soft_delay_:000000000000003a .L0 
C:\Users\CYMR90~1\AppData\Local\Temp\ccEL7hUr.s:68     .text.SystemInit:0000000000000000 SystemInit
C:\Users\CYMR90~1\AppData\Local\Temp\ccEL7hUr.s:71     .text.SystemInit:0000000000000000 .L0 
C:\Users\CYMR90~1\AppData\Local\Temp\ccEL7hUr.s:72     .text.SystemInit:0000000000000000 .L0 
C:\Users\CYMR90~1\AppData\Local\Temp\ccEL7hUr.s:73     .text.SystemInit:0000000000000002 .L0 
C:\Users\CYMR90~1\AppData\Local\Temp\ccEL7hUr.s:76     .text.SystemInit:0000000000000006 .L0 
C:\Users\CYMR90~1\AppData\Local\Temp\ccEL7hUr.s:77     .text.SystemInit:0000000000000006 .L0 
C:\Users\CYMR90~1\AppData\Local\Temp\ccEL7hUr.s:79     .text.SystemInit:0000000000000008 .L0 
C:\Users\CYMR90~1\AppData\Local\Temp\ccEL7hUr.s:81     .text.SystemInit:0000000000000008 .L0 
C:\Users\CYMR90~1\AppData\Local\Temp\ccEL7hUr.s:89     .text.SystemInit:0000000000000020 .L0 
C:\Users\CYMR90~1\AppData\Local\Temp\ccEL7hUr.s:92     .text.SystemInit:0000000000000022 .L0 
C:\Users\CYMR90~1\AppData\Local\Temp\ccEL7hUr.s:96     .text.SystemInit:000000000000002c .L0 
C:\Users\CYMR90~1\AppData\Local\Temp\ccEL7hUr.s:98     .text.SystemInit:000000000000002e .L0 
C:\Users\CYMR90~1\AppData\Local\Temp\ccEL7hUr.s:100    .text.SystemInit:0000000000000030 .L0 
C:\Users\CYMR90~1\AppData\Local\Temp\ccEL7hUr.s:104    .text.SystemInit:000000000000003a .L0 
C:\Users\CYMR90~1\AppData\Local\Temp\ccEL7hUr.s:106    .text.SystemInit:000000000000003e .L0 
C:\Users\CYMR90~1\AppData\Local\Temp\ccEL7hUr.s:110    .text.SystemInit:0000000000000044 .L0 
C:\Users\CYMR90~1\AppData\Local\Temp\ccEL7hUr.s:114    .text.SystemInit:000000000000004a .L0 
C:\Users\CYMR90~1\AppData\Local\Temp\ccEL7hUr.s:119    .text.SystemInit:0000000000000054 .L0 
C:\Users\CYMR90~1\AppData\Local\Temp\ccEL7hUr.s:123    .text.SystemInit:0000000000000060 .L0 
C:\Users\CYMR90~1\AppData\Local\Temp\ccEL7hUr.s:141    .text.SystemInit:000000000000009a .L0 
C:\Users\CYMR90~1\AppData\Local\Temp\ccEL7hUr.s:146    .text.SystemInit:00000000000000a4 .L0 
C:\Users\CYMR90~1\AppData\Local\Temp\ccEL7hUr.s:150    .text.SystemInit:00000000000000b0 .L0 
C:\Users\CYMR90~1\AppData\Local\Temp\ccEL7hUr.s:168    .text.SystemInit:00000000000000ea .L0 
C:\Users\CYMR90~1\AppData\Local\Temp\ccEL7hUr.s:173    .text.SystemInit:00000000000000f4 .L0 
C:\Users\CYMR90~1\AppData\Local\Temp\ccEL7hUr.s:179    .text.SystemInit:0000000000000100 .L0 
C:\Users\CYMR90~1\AppData\Local\Temp\ccEL7hUr.s:187    .text.SystemInit:0000000000000116 .L0 
C:\Users\CYMR90~1\AppData\Local\Temp\ccEL7hUr.s:190    .text.SystemInit:0000000000000122 .L0 
C:\Users\CYMR90~1\AppData\Local\Temp\ccEL7hUr.s:193    .text.SystemInit:000000000000012a .L0 
C:\Users\CYMR90~1\AppData\Local\Temp\ccEL7hUr.s:195    .text.SystemInit:000000000000012e .L0 
C:\Users\CYMR90~1\AppData\Local\Temp\ccEL7hUr.s:205    .text.SystemInit:000000000000014a .L0 
C:\Users\CYMR90~1\AppData\Local\Temp\ccEL7hUr.s:208    .text.SystemInit:0000000000000152 .L0 
C:\Users\CYMR90~1\AppData\Local\Temp\ccEL7hUr.s:210    .text.SystemInit:0000000000000156 .L0 
C:\Users\CYMR90~1\AppData\Local\Temp\ccEL7hUr.s:213    .text.SystemInit:000000000000015e .L0 
C:\Users\CYMR90~1\AppData\Local\Temp\ccEL7hUr.s:215    .text.SystemInit:0000000000000162 .L0 
C:\Users\CYMR90~1\AppData\Local\Temp\ccEL7hUr.s:218    .text.SystemInit:000000000000016a .L0 
C:\Users\CYMR90~1\AppData\Local\Temp\ccEL7hUr.s:221    .text.SystemInit:0000000000000170 .L0 
C:\Users\CYMR90~1\AppData\Local\Temp\ccEL7hUr.s:224    .text.SystemInit:0000000000000178 .L0 
C:\Users\CYMR90~1\AppData\Local\Temp\ccEL7hUr.s:243    .text.system_clock_config:0000000000000000 system_clock_config
C:\Users\CYMR90~1\AppData\Local\Temp\ccEL7hUr.s:226    .text.SystemInit:000000000000017c .L0 
C:\Users\CYMR90~1\AppData\Local\Temp\ccEL7hUr.s:228    .text.SystemInit:0000000000000184 .L0 
C:\Users\CYMR90~1\AppData\Local\Temp\ccEL7hUr.s:230    .text.SystemInit:0000000000000188 .L0 
C:\Users\CYMR90~1\AppData\Local\Temp\ccEL7hUr.s:232    .text.SystemInit:000000000000018a .L0 
C:\Users\CYMR90~1\AppData\Local\Temp\ccEL7hUr.s:233    .text.SystemInit:000000000000018a .L0 
C:\Users\CYMR90~1\AppData\Local\Temp\ccEL7hUr.s:235    .text.SystemInit:000000000000018c .L0 
C:\Users\CYMR90~1\AppData\Local\Temp\ccEL7hUr.s:237    .text.SystemInit:000000000000018e .L0 
C:\Users\CYMR90~1\AppData\Local\Temp\ccEL7hUr.s:246    .text.system_clock_config:0000000000000000 .L0 
C:\Users\CYMR90~1\AppData\Local\Temp\ccEL7hUr.s:247    .text.system_clock_config:0000000000000000 .L0 
C:\Users\CYMR90~1\AppData\Local\Temp\ccEL7hUr.s:248    .text.system_clock_config:0000000000000002 .L0 
C:\Users\CYMR90~1\AppData\Local\Temp\ccEL7hUr.s:251    .text.system_clock_config:0000000000000006 .L0 
C:\Users\CYMR90~1\AppData\Local\Temp\ccEL7hUr.s:252    .text.system_clock_config:0000000000000006 .L0 
C:\Users\CYMR90~1\AppData\Local\Temp\ccEL7hUr.s:254    .text.system_clock_config:0000000000000008 .L0 
C:\Users\CYMR90~1\AppData\Local\Temp\ccEL7hUr.s:273    .text.system_clock_160m_hxtal:0000000000000000 system_clock_160m_hxtal
C:\Users\CYMR90~1\AppData\Local\Temp\ccEL7hUr.s:256    .text.system_clock_config:0000000000000008 .L0 
C:\Users\CYMR90~1\AppData\Local\Temp\ccEL7hUr.s:258    .text.system_clock_config:0000000000000010 .L0 
C:\Users\CYMR90~1\AppData\Local\Temp\ccEL7hUr.s:260    .text.system_clock_config:0000000000000014 .L0 
C:\Users\CYMR90~1\AppData\Local\Temp\ccEL7hUr.s:262    .text.system_clock_config:0000000000000016 .L0 
C:\Users\CYMR90~1\AppData\Local\Temp\ccEL7hUr.s:263    .text.system_clock_config:0000000000000016 .L0 
C:\Users\CYMR90~1\AppData\Local\Temp\ccEL7hUr.s:265    .text.system_clock_config:0000000000000018 .L0 
C:\Users\CYMR90~1\AppData\Local\Temp\ccEL7hUr.s:267    .text.system_clock_config:000000000000001a .L0 
C:\Users\CYMR90~1\AppData\Local\Temp\ccEL7hUr.s:276    .text.system_clock_160m_hxtal:0000000000000000 .L0 
C:\Users\CYMR90~1\AppData\Local\Temp\ccEL7hUr.s:277    .text.system_clock_160m_hxtal:0000000000000000 .L0 
C:\Users\CYMR90~1\AppData\Local\Temp\ccEL7hUr.s:278    .text.system_clock_160m_hxtal:0000000000000002 .L0 
C:\Users\CYMR90~1\AppData\Local\Temp\ccEL7hUr.s:280    .text.system_clock_160m_hxtal:0000000000000004 .L0 
C:\Users\CYMR90~1\AppData\Local\Temp\ccEL7hUr.s:282    .text.system_clock_160m_hxtal:0000000000000006 .L0 
C:\Users\CYMR90~1\AppData\Local\Temp\ccEL7hUr.s:284    .text.system_clock_160m_hxtal:0000000000000006 .L0 
C:\Users\CYMR90~1\AppData\Local\Temp\ccEL7hUr.s:286    .text.system_clock_160m_hxtal:000000000000000a .L0 
C:\Users\CYMR90~1\AppData\Local\Temp\ccEL7hUr.s:288    .text.system_clock_160m_hxtal:000000000000000e .L0 
C:\Users\CYMR90~1\AppData\Local\Temp\ccEL7hUr.s:297    .text.system_clock_160m_hxtal:0000000000000028 .L0 
C:\Users\CYMR90~1\AppData\Local\Temp\ccEL7hUr.s:307    .text.system_clock_160m_hxtal:0000000000000040 .L0 
C:\Users\CYMR90~1\AppData\Local\Temp\ccEL7hUr.s:311    .text.system_clock_160m_hxtal:0000000000000046 .L0 
C:\Users\CYMR90~1\AppData\Local\Temp\ccEL7hUr.s:316    .text.system_clock_160m_hxtal:0000000000000050 .L0 
C:\Users\CYMR90~1\AppData\Local\Temp\ccEL7hUr.s:321    .text.system_clock_160m_hxtal:000000000000005a .L0 
C:\Users\CYMR90~1\AppData\Local\Temp\ccEL7hUr.s:331    .text.system_clock_160m_hxtal:0000000000000074 .L0 
C:\Users\CYMR90~1\AppData\Local\Temp\ccEL7hUr.s:335    .text.system_clock_160m_hxtal:000000000000007e .L0 
C:\Users\CYMR90~1\AppData\Local\Temp\ccEL7hUr.s:339    .text.system_clock_160m_hxtal:0000000000000088 .L0 
C:\Users\CYMR90~1\AppData\Local\Temp\ccEL7hUr.s:343    .text.system_clock_160m_hxtal:0000000000000092 .L0 
C:\Users\CYMR90~1\AppData\Local\Temp\ccEL7hUr.s:346    .text.system_clock_160m_hxtal:0000000000000098 .L0 
C:\Users\CYMR90~1\AppData\Local\Temp\ccEL7hUr.s:352    .text.system_clock_160m_hxtal:00000000000000a4 .L0 
C:\Users\CYMR90~1\AppData\Local\Temp\ccEL7hUr.s:356    .text.system_clock_160m_hxtal:00000000000000ae .L0 
C:\Users\CYMR90~1\AppData\Local\Temp\ccEL7hUr.s:359    .text.system_clock_160m_hxtal:00000000000000b4 .L0 
C:\Users\CYMR90~1\AppData\Local\Temp\ccEL7hUr.s:362    .text.system_clock_160m_hxtal:00000000000000b6 .L0 
C:\Users\CYMR90~1\AppData\Local\Temp\ccEL7hUr.s:365    .text.system_clock_160m_hxtal:00000000000000b8 .L0 
C:\Users\CYMR90~1\AppData\Local\Temp\ccEL7hUr.s:372    .text.system_clock_160m_hxtal:00000000000000cc .L0 
C:\Users\CYMR90~1\AppData\Local\Temp\ccEL7hUr.s:379    .text.system_clock_160m_hxtal:00000000000000e0 .L0 
C:\Users\CYMR90~1\AppData\Local\Temp\ccEL7hUr.s:388    .text.system_clock_160m_hxtal:00000000000000f8 .L0 
C:\Users\CYMR90~1\AppData\Local\Temp\ccEL7hUr.s:397    .text.system_clock_160m_hxtal:0000000000000110 .L0 
C:\Users\CYMR90~1\AppData\Local\Temp\ccEL7hUr.s:400    .text.system_clock_160m_hxtal:0000000000000118 .L0 
C:\Users\CYMR90~1\AppData\Local\Temp\ccEL7hUr.s:403    .text.system_clock_160m_hxtal:000000000000011e .L0 
C:\Users\CYMR90~1\AppData\Local\Temp\ccEL7hUr.s:412    .text.system_clock_160m_hxtal:0000000000000138 .L0 
C:\Users\CYMR90~1\AppData\Local\Temp\ccEL7hUr.s:421    .text.system_clock_160m_hxtal:0000000000000152 .L0 
C:\Users\CYMR90~1\AppData\Local\Temp\ccEL7hUr.s:430    .text.system_clock_160m_hxtal:000000000000016c .L0 
C:\Users\CYMR90~1\AppData\Local\Temp\ccEL7hUr.s:439    .text.system_clock_160m_hxtal:0000000000000186 .L0 
C:\Users\CYMR90~1\AppData\Local\Temp\ccEL7hUr.s:442    .text.system_clock_160m_hxtal:0000000000000188 .L0 
C:\Users\CYMR90~1\AppData\Local\Temp\ccEL7hUr.s:446    .text.system_clock_160m_hxtal:0000000000000192 .L0 
C:\Users\CYMR90~1\AppData\Local\Temp\ccEL7hUr.s:449    .text.system_clock_160m_hxtal:0000000000000198 .L0 
C:\Users\CYMR90~1\AppData\Local\Temp\ccEL7hUr.s:451    .text.system_clock_160m_hxtal:000000000000019a .L0 
C:\Users\CYMR90~1\AppData\Local\Temp\ccEL7hUr.s:455    .text.system_clock_160m_hxtal:00000000000001a4 .L0 
C:\Users\CYMR90~1\AppData\Local\Temp\ccEL7hUr.s:457    .text.system_clock_160m_hxtal:00000000000001a8 .L0 
C:\Users\CYMR90~1\AppData\Local\Temp\ccEL7hUr.s:461    .text.system_clock_160m_hxtal:00000000000001b2 .L0 
C:\Users\CYMR90~1\AppData\Local\Temp\ccEL7hUr.s:465    .text.system_clock_160m_hxtal:00000000000001be .L0 
C:\Users\CYMR90~1\AppData\Local\Temp\ccEL7hUr.s:468    .text.system_clock_160m_hxtal:00000000000001c6 .L0 
C:\Users\CYMR90~1\AppData\Local\Temp\ccEL7hUr.s:471    .text.system_clock_160m_hxtal:00000000000001cc .L0 
C:\Users\CYMR90~1\AppData\Local\Temp\ccEL7hUr.s:474    .text.system_clock_160m_hxtal:00000000000001ce .L0 
C:\Users\CYMR90~1\AppData\Local\Temp\ccEL7hUr.s:478    .text.system_clock_160m_hxtal:00000000000001d8 .L0 
C:\Users\CYMR90~1\AppData\Local\Temp\ccEL7hUr.s:480    .text.system_clock_160m_hxtal:00000000000001dc .L0 
C:\Users\CYMR90~1\AppData\Local\Temp\ccEL7hUr.s:483    .text.system_clock_160m_hxtal:00000000000001e2 .L0 
C:\Users\CYMR90~1\AppData\Local\Temp\ccEL7hUr.s:486    .text.system_clock_160m_hxtal:00000000000001e8 .L0 
C:\Users\CYMR90~1\AppData\Local\Temp\ccEL7hUr.s:487    .text.system_clock_160m_hxtal:00000000000001e8 .L0 
C:\Users\CYMR90~1\AppData\Local\Temp\ccEL7hUr.s:489    .text.system_clock_160m_hxtal:00000000000001ea .L0 
C:\Users\CYMR90~1\AppData\Local\Temp\ccEL7hUr.s:491    .text.system_clock_160m_hxtal:00000000000001ec .L0 
C:\Users\CYMR90~1\AppData\Local\Temp\ccEL7hUr.s:510    .text.SystemCoreClockUpdate:0000000000000000 SystemCoreClockUpdate
C:\Users\CYMR90~1\AppData\Local\Temp\ccEL7hUr.s:513    .text.SystemCoreClockUpdate:0000000000000000 .L0 
C:\Users\CYMR90~1\AppData\Local\Temp\ccEL7hUr.s:514    .text.SystemCoreClockUpdate:0000000000000000 .L0 
C:\Users\CYMR90~1\AppData\Local\Temp\ccEL7hUr.s:515    .text.SystemCoreClockUpdate:0000000000000002 .L0 
C:\Users\CYMR90~1\AppData\Local\Temp\ccEL7hUr.s:517    .text.SystemCoreClockUpdate:0000000000000004 .L0 
C:\Users\CYMR90~1\AppData\Local\Temp\ccEL7hUr.s:519    .text.SystemCoreClockUpdate:0000000000000006 .L0 
C:\Users\CYMR90~1\AppData\Local\Temp\ccEL7hUr.s:521    .text.SystemCoreClockUpdate:0000000000000006 .L0 
C:\Users\CYMR90~1\AppData\Local\Temp\ccEL7hUr.s:531    .text.SystemCoreClockUpdate:0000000000000026 .L0 
C:\Users\CYMR90~1\AppData\Local\Temp\ccEL7hUr.s:536    .text.SystemCoreClockUpdate:0000000000000032 .L0 
C:\Users\CYMR90~1\AppData\Local\Temp\ccEL7hUr.s:539    .text.SystemCoreClockUpdate:0000000000000038 .L0 
C:\Users\CYMR90~1\AppData\Local\Temp\ccEL7hUr.s:553    .text.SystemCoreClockUpdate:000000000000005e .L0 
C:\Users\CYMR90~1\AppData\Local\Temp\ccEL7hUr.s:558    .text.SystemCoreClockUpdate:0000000000000070 .L0 
C:\Users\CYMR90~1\AppData\Local\Temp\ccEL7hUr.s:561    .text.SystemCoreClockUpdate:0000000000000072 .L0 
C:\Users\CYMR90~1\AppData\Local\Temp\ccEL7hUr.s:566    .text.SystemCoreClockUpdate:0000000000000084 .L0 
C:\Users\CYMR90~1\AppData\Local\Temp\ccEL7hUr.s:569    .text.SystemCoreClockUpdate:0000000000000086 .L0 
C:\Users\CYMR90~1\AppData\Local\Temp\ccEL7hUr.s:574    .text.SystemCoreClockUpdate:0000000000000092 .L0 
C:\Users\CYMR90~1\AppData\Local\Temp\ccEL7hUr.s:596    .text.SystemCoreClockUpdate:00000000000000d2 .L0 
C:\Users\CYMR90~1\AppData\Local\Temp\ccEL7hUr.s:599    .text.SystemCoreClockUpdate:00000000000000da .L0 
C:\Users\CYMR90~1\AppData\Local\Temp\ccEL7hUr.s:602    .text.SystemCoreClockUpdate:00000000000000dc .L0 
C:\Users\CYMR90~1\AppData\Local\Temp\ccEL7hUr.s:606    .text.SystemCoreClockUpdate:00000000000000e8 .L0 
C:\Users\CYMR90~1\AppData\Local\Temp\ccEL7hUr.s:609    .text.SystemCoreClockUpdate:00000000000000ea .L0 
C:\Users\CYMR90~1\AppData\Local\Temp\ccEL7hUr.s:612    .text.SystemCoreClockUpdate:00000000000000f2 .L0 
C:\Users\CYMR90~1\AppData\Local\Temp\ccEL7hUr.s:615    .text.SystemCoreClockUpdate:00000000000000f4 .L0 
C:\Users\CYMR90~1\AppData\Local\Temp\ccEL7hUr.s:619    .text.SystemCoreClockUpdate:0000000000000100 .L0 
C:\Users\CYMR90~1\AppData\Local\Temp\ccEL7hUr.s:622    .text.SystemCoreClockUpdate:0000000000000102 .L0 
C:\Users\CYMR90~1\AppData\Local\Temp\ccEL7hUr.s:625    .text.SystemCoreClockUpdate:000000000000010a .L0 
C:\Users\CYMR90~1\AppData\Local\Temp\ccEL7hUr.s:628    .text.SystemCoreClockUpdate:000000000000010c .L0 
C:\Users\CYMR90~1\AppData\Local\Temp\ccEL7hUr.s:634    .text.SystemCoreClockUpdate:000000000000011c .L0 
C:\Users\CYMR90~1\AppData\Local\Temp\ccEL7hUr.s:637    .text.SystemCoreClockUpdate:0000000000000122 .L0 
C:\Users\CYMR90~1\AppData\Local\Temp\ccEL7hUr.s:641    .text.SystemCoreClockUpdate:000000000000012e .L0 
C:\Users\CYMR90~1\AppData\Local\Temp\ccEL7hUr.s:644    .text.SystemCoreClockUpdate:0000000000000138 .L0 
C:\Users\CYMR90~1\AppData\Local\Temp\ccEL7hUr.s:647    .text.SystemCoreClockUpdate:000000000000013a .L0 
C:\Users\CYMR90~1\AppData\Local\Temp\ccEL7hUr.s:652    .text.SystemCoreClockUpdate:000000000000014c .L0 
C:\Users\CYMR90~1\AppData\Local\Temp\ccEL7hUr.s:655    .text.SystemCoreClockUpdate:000000000000014e .L0 
C:\Users\CYMR90~1\AppData\Local\Temp\ccEL7hUr.s:660    .text.SystemCoreClockUpdate:000000000000015a .L0 
C:\Users\CYMR90~1\AppData\Local\Temp\ccEL7hUr.s:663    .text.SystemCoreClockUpdate:0000000000000160 .L0 
C:\Users\CYMR90~1\AppData\Local\Temp\ccEL7hUr.s:668    .text.SystemCoreClockUpdate:000000000000016e .L0 
C:\Users\CYMR90~1\AppData\Local\Temp\ccEL7hUr.s:670    .text.SystemCoreClockUpdate:0000000000000172 .L0 
C:\Users\CYMR90~1\AppData\Local\Temp\ccEL7hUr.s:675    .text.SystemCoreClockUpdate:0000000000000184 .L0 
C:\Users\CYMR90~1\AppData\Local\Temp\ccEL7hUr.s:678    .text.SystemCoreClockUpdate:000000000000018e .L0 
C:\Users\CYMR90~1\AppData\Local\Temp\ccEL7hUr.s:680    .text.SystemCoreClockUpdate:0000000000000192 .L0 
C:\Users\CYMR90~1\AppData\Local\Temp\ccEL7hUr.s:681    .text.SystemCoreClockUpdate:0000000000000192 .L0 
C:\Users\CYMR90~1\AppData\Local\Temp\ccEL7hUr.s:683    .text.SystemCoreClockUpdate:0000000000000194 .L0 
C:\Users\CYMR90~1\AppData\Local\Temp\ccEL7hUr.s:685    .text.SystemCoreClockUpdate:0000000000000196 .L0 
C:\Users\CYMR90~1\AppData\Local\Temp\ccEL7hUr.s:692    .text.gd32vw55x_firmware_version_get:0000000000000000 gd32vw55x_firmware_version_get
C:\Users\CYMR90~1\AppData\Local\Temp\ccEL7hUr.s:695    .text.gd32vw55x_firmware_version_get:0000000000000000 .L0 
C:\Users\CYMR90~1\AppData\Local\Temp\ccEL7hUr.s:696    .text.gd32vw55x_firmware_version_get:0000000000000000 .L0 
C:\Users\CYMR90~1\AppData\Local\Temp\ccEL7hUr.s:697    .text.gd32vw55x_firmware_version_get:0000000000000002 .L0 
C:\Users\CYMR90~1\AppData\Local\Temp\ccEL7hUr.s:699    .text.gd32vw55x_firmware_version_get:0000000000000004 .L0 
C:\Users\CYMR90~1\AppData\Local\Temp\ccEL7hUr.s:701    .text.gd32vw55x_firmware_version_get:0000000000000006 .L0 
C:\Users\CYMR90~1\AppData\Local\Temp\ccEL7hUr.s:703    .text.gd32vw55x_firmware_version_get:0000000000000006 .L0 
C:\Users\CYMR90~1\AppData\Local\Temp\ccEL7hUr.s:705    .text.gd32vw55x_firmware_version_get:000000000000000a .L0 
C:\Users\CYMR90~1\AppData\Local\Temp\ccEL7hUr.s:707    .text.gd32vw55x_firmware_version_get:000000000000000e .L0 
C:\Users\CYMR90~1\AppData\Local\Temp\ccEL7hUr.s:708    .text.gd32vw55x_firmware_version_get:000000000000000e .L0 
C:\Users\CYMR90~1\AppData\Local\Temp\ccEL7hUr.s:710    .text.gd32vw55x_firmware_version_get:0000000000000010 .L0 
C:\Users\CYMR90~1\AppData\Local\Temp\ccEL7hUr.s:712    .text.gd32vw55x_firmware_version_get:0000000000000012 .L0 
C:\Users\CYMR90~1\AppData\Local\Temp\ccEL7hUr.s:64     .text._soft_delay_:000000000000003a .L0 
C:\Users\CYMR90~1\AppData\Local\Temp\ccEL7hUr.s:240    .text.SystemInit:000000000000018e .L0 
C:\Users\CYMR90~1\AppData\Local\Temp\ccEL7hUr.s:270    .text.system_clock_config:000000000000001a .L0 
C:\Users\CYMR90~1\AppData\Local\Temp\ccEL7hUr.s:494    .text.system_clock_160m_hxtal:00000000000001ec .L0 
C:\Users\CYMR90~1\AppData\Local\Temp\ccEL7hUr.s:688    .text.SystemCoreClockUpdate:0000000000000196 .L0 
C:\Users\CYMR90~1\AppData\Local\Temp\ccEL7hUr.s:715    .text.gd32vw55x_firmware_version_get:0000000000000012 .L0 
                     .debug_frame:0000000000000000 .L0 
C:\Users\CYMR90~1\AppData\Local\Temp\ccEL7hUr.s:40     .text._soft_delay_:000000000000001a .L2
C:\Users\CYMR90~1\AppData\Local\Temp\ccEL7hUr.s:35     .text._soft_delay_:0000000000000010 .L3
C:\Users\CYMR90~1\AppData\Local\Temp\ccEL7hUr.s:90     .text.SystemInit:0000000000000022 .L5
C:\Users\CYMR90~1\AppData\Local\Temp\ccEL7hUr.s:176    .text.SystemInit:0000000000000100 .L6
C:\Users\CYMR90~1\AppData\Local\Temp\ccEL7hUr.s:117    .text.SystemInit:0000000000000054 .L7
C:\Users\CYMR90~1\AppData\Local\Temp\ccEL7hUr.s:112    .text.SystemInit:000000000000004a .L8
C:\Users\CYMR90~1\AppData\Local\Temp\ccEL7hUr.s:144    .text.SystemInit:00000000000000a4 .L9
C:\Users\CYMR90~1\AppData\Local\Temp\ccEL7hUr.s:139    .text.SystemInit:000000000000009a .L10
C:\Users\CYMR90~1\AppData\Local\Temp\ccEL7hUr.s:171    .text.SystemInit:00000000000000f4 .L11
C:\Users\CYMR90~1\AppData\Local\Temp\ccEL7hUr.s:166    .text.SystemInit:00000000000000ea .L12
C:\Users\CYMR90~1\AppData\Local\Temp\ccEL7hUr.s:314    .text.system_clock_160m_hxtal:0000000000000050 .L15
C:\Users\CYMR90~1\AppData\Local\Temp\ccEL7hUr.s:309    .text.system_clock_160m_hxtal:0000000000000046 .L16
C:\Users\CYMR90~1\AppData\Local\Temp\ccEL7hUr.s:350    .text.system_clock_160m_hxtal:00000000000000a4 .L17
C:\Users\CYMR90~1\AppData\Local\Temp\ccEL7hUr.s:329    .text.system_clock_160m_hxtal:0000000000000074 .L18
C:\Users\CYMR90~1\AppData\Local\Temp\ccEL7hUr.s:363    .text.system_clock_160m_hxtal:00000000000000b8 .L19
C:\Users\CYMR90~1\AppData\Local\Temp\ccEL7hUr.s:360    .text.system_clock_160m_hxtal:00000000000000b6 .L20
C:\Users\CYMR90~1\AppData\Local\Temp\ccEL7hUr.s:440    .text.system_clock_160m_hxtal:0000000000000188 .L21
C:\Users\CYMR90~1\AppData\Local\Temp\ccEL7hUr.s:472    .text.system_clock_160m_hxtal:00000000000001ce .L22
C:\Users\CYMR90~1\AppData\Local\Temp\ccEL7hUr.s:496    .rodata:0000000000000000 .LC0
C:\Users\CYMR90~1\AppData\Local\Temp\ccEL7hUr.s:521    .text.SystemCoreClockUpdate:0000000000000006 .L0 
C:\Users\CYMR90~1\AppData\Local\Temp\ccEL7hUr.s:553    .text.SystemCoreClockUpdate:000000000000005e .L0 
C:\Users\CYMR90~1\AppData\Local\Temp\ccEL7hUr.s:561    .text.SystemCoreClockUpdate:0000000000000072 .L0 
C:\Users\CYMR90~1\AppData\Local\Temp\ccEL7hUr.s:641    .text.SystemCoreClockUpdate:000000000000012e .L0 
C:\Users\CYMR90~1\AppData\Local\Temp\ccEL7hUr.s:647    .text.SystemCoreClockUpdate:000000000000013a .L0 
C:\Users\CYMR90~1\AppData\Local\Temp\ccEL7hUr.s:670    .text.SystemCoreClockUpdate:0000000000000172 .L0 
C:\Users\CYMR90~1\AppData\Local\Temp\ccEL7hUr.s:675    .text.SystemCoreClockUpdate:0000000000000184 .L0 
C:\Users\CYMR90~1\AppData\Local\Temp\ccEL7hUr.s:567    .text.SystemCoreClockUpdate:0000000000000086 .L24
C:\Users\CYMR90~1\AppData\Local\Temp\ccEL7hUr.s:645    .text.SystemCoreClockUpdate:000000000000013a .L25
C:\Users\CYMR90~1\AppData\Local\Temp\ccEL7hUr.s:551    .text.SystemCoreClockUpdate:000000000000005e .L26
C:\Users\CYMR90~1\AppData\Local\Temp\ccEL7hUr.s:559    .text.SystemCoreClockUpdate:0000000000000072 .L27
C:\Users\CYMR90~1\AppData\Local\Temp\ccEL7hUr.s:653    .text.SystemCoreClockUpdate:000000000000014e .L28
C:\Users\CYMR90~1\AppData\Local\Temp\ccEL7hUr.s:613    .text.SystemCoreClockUpdate:00000000000000f4 .L29
C:\Users\CYMR90~1\AppData\Local\Temp\ccEL7hUr.s:620    .text.SystemCoreClockUpdate:0000000000000102 .L30
C:\Users\CYMR90~1\AppData\Local\Temp\ccEL7hUr.s:607    .text.SystemCoreClockUpdate:00000000000000ea .L31
C:\Users\CYMR90~1\AppData\Local\Temp\ccEL7hUr.s:594    .text.SystemCoreClockUpdate:00000000000000d2 .L32
C:\Users\CYMR90~1\AppData\Local\Temp\ccEL7hUr.s:600    .text.SystemCoreClockUpdate:00000000000000dc .L33
C:\Users\CYMR90~1\AppData\Local\Temp\ccEL7hUr.s:626    .text.SystemCoreClockUpdate:000000000000010c .L34
C:\Users\CYMR90~1\AppData\Local\Temp\ccEL7hUr.s:1053   .debug_abbrev:0000000000000000 .Ldebug_abbrev0
C:\Users\CYMR90~1\AppData\Local\Temp\ccEL7hUr.s:21822  .debug_str:000000000000ae6d .LASF5588
C:\Users\CYMR90~1\AppData\Local\Temp\ccEL7hUr.s:29595  .debug_str:000000000002a278 .LASF5589
C:\Users\CYMR90~1\AppData\Local\Temp\ccEL7hUr.s:22132  .debug_str:000000000000c436 .LASF5590
C:\Users\CYMR90~1\AppData\Local\Temp\ccEL7hUr.s:1431   .debug_ranges:0000000000000000 .Ldebug_ranges0
C:\Users\CYMR90~1\AppData\Local\Temp\ccEL7hUr.s:19098  .debug_line:0000000000000000 .Ldebug_line0
C:\Users\CYMR90~1\AppData\Local\Temp\ccEL7hUr.s:1447   .debug_macro:0000000000000000 .Ldebug_macro0
C:\Users\CYMR90~1\AppData\Local\Temp\ccEL7hUr.s:30255  .debug_str:000000000002cde7 .LASF5562
C:\Users\CYMR90~1\AppData\Local\Temp\ccEL7hUr.s:19116  .debug_str:0000000000000123 .LASF5563
C:\Users\CYMR90~1\AppData\Local\Temp\ccEL7hUr.s:20034  .debug_str:0000000000003b05 .LASF5564
C:\Users\CYMR90~1\AppData\Local\Temp\ccEL7hUr.s:25175  .debug_str:00000000000187b2 .LASF5565
C:\Users\CYMR90~1\AppData\Local\Temp\ccEL7hUr.s:21312  .debug_str:0000000000008e7c .LASF5568
C:\Users\CYMR90~1\AppData\Local\Temp\ccEL7hUr.s:24632  .debug_str:0000000000016426 .LASF5566
C:\Users\CYMR90~1\AppData\Local\Temp\ccEL7hUr.s:26491  .debug_str:000000000001df96 .LASF5567
C:\Users\CYMR90~1\AppData\Local\Temp\ccEL7hUr.s:22636  .debug_str:000000000000e4cf .LASF5569
C:\Users\CYMR90~1\AppData\Local\Temp\ccEL7hUr.s:24112  .debug_str:00000000000143a4 .LASF5570
C:\Users\CYMR90~1\AppData\Local\Temp\ccEL7hUr.s:26899  .debug_str:000000000001f7c1 .LASF5571
C:\Users\CYMR90~1\AppData\Local\Temp\ccEL7hUr.s:25381  .debug_str:00000000000195db .LASF5572
C:\Users\CYMR90~1\AppData\Local\Temp\ccEL7hUr.s:19230  .debug_str:00000000000007ed .LASF5573
C:\Users\CYMR90~1\AppData\Local\Temp\ccEL7hUr.s:28437  .debug_str:000000000002595b .LASF5574
C:\Users\CYMR90~1\AppData\Local\Temp\ccEL7hUr.s:26921  .debug_str:000000000001f92a .LASF854
C:\Users\CYMR90~1\AppData\Local\Temp\ccEL7hUr.s:24400  .debug_str:00000000000155a1 .LASF5575
C:\Users\CYMR90~1\AppData\Local\Temp\ccEL7hUr.s:28369  .debug_str:0000000000025450 .LASF5576
C:\Users\CYMR90~1\AppData\Local\Temp\ccEL7hUr.s:28553  .debug_str:000000000002609c .LASF5577
C:\Users\CYMR90~1\AppData\Local\Temp\ccEL7hUr.s:22030  .debug_str:000000000000bc92 .LASF5591
C:\Users\CYMR90~1\AppData\Local\Temp\ccEL7hUr.s:19290  .debug_str:0000000000000be9 .LASF5592
C:\Users\CYMR90~1\AppData\Local\Temp\ccEL7hUr.s:693    .text.gd32vw55x_firmware_version_get:0000000000000000 .LFB352
C:\Users\CYMR90~1\AppData\Local\Temp\ccEL7hUr.s:713    .text.gd32vw55x_firmware_version_get:0000000000000012 .LFE352
C:\Users\CYMR90~1\AppData\Local\Temp\ccEL7hUr.s:28989  .debug_str:0000000000027c5a .LASF5586
C:\Users\CYMR90~1\AppData\Local\Temp\ccEL7hUr.s:511    .text.SystemCoreClockUpdate:0000000000000000 .LFB351
C:\Users\CYMR90~1\AppData\Local\Temp\ccEL7hUr.s:686    .text.SystemCoreClockUpdate:0000000000000196 .LFE351
C:\Users\CYMR90~1\AppData\Local\Temp\ccEL7hUr.s:20158  .debug_str:000000000000432a .LASF5578
C:\Users\CYMR90~1\AppData\Local\Temp\ccEL7hUr.s:24330  .debug_str:0000000000015192 .LASF5579
C:\Users\CYMR90~1\AppData\Local\Temp\ccEL7hUr.s:24328  .debug_str:0000000000015188 .LASF5580
C:\Users\CYMR90~1\AppData\Local\Temp\ccEL7hUr.s:22010  .debug_str:000000000000bb5a .LASF5581
C:\Users\CYMR90~1\AppData\Local\Temp\ccEL7hUr.s:27987  .debug_str:0000000000023a0c .LASF5582
C:\Users\CYMR90~1\AppData\Local\Temp\ccEL7hUr.s:22022  .debug_str:000000000000bc14 .LASF5593
C:\Users\CYMR90~1\AppData\Local\Temp\ccEL7hUr.s:274    .text.system_clock_160m_hxtal:0000000000000000 .LFB350
C:\Users\CYMR90~1\AppData\Local\Temp\ccEL7hUr.s:492    .text.system_clock_160m_hxtal:00000000000001ec .LFE350
C:\Users\CYMR90~1\AppData\Local\Temp\ccEL7hUr.s:29735  .debug_str:000000000002ab16 .LASF5583
C:\Users\CYMR90~1\AppData\Local\Temp\ccEL7hUr.s:27825  .debug_str:0000000000023040 .LASF5584
C:\Users\CYMR90~1\AppData\Local\Temp\ccEL7hUr.s:22088  .debug_str:000000000000c186 .LASF5585
C:\Users\CYMR90~1\AppData\Local\Temp\ccEL7hUr.s:305    .text.system_clock_160m_hxtal:0000000000000040 .LBB3
C:\Users\CYMR90~1\AppData\Local\Temp\ccEL7hUr.s:319    .text.system_clock_160m_hxtal:000000000000005a .LBE3
C:\Users\CYMR90~1\AppData\Local\Temp\ccEL7hUr.s:25449  .debug_str:0000000000019add .LASF5594
C:\Users\CYMR90~1\AppData\Local\Temp\ccEL7hUr.s:244    .text.system_clock_config:0000000000000000 .LFB349
C:\Users\CYMR90~1\AppData\Local\Temp\ccEL7hUr.s:268    .text.system_clock_config:000000000000001a .LFE349
C:\Users\CYMR90~1\AppData\Local\Temp\ccEL7hUr.s:20050  .debug_str:0000000000003bd8 .LASF5587
C:\Users\CYMR90~1\AppData\Local\Temp\ccEL7hUr.s:69     .text.SystemInit:0000000000000000 .LFB348
C:\Users\CYMR90~1\AppData\Local\Temp\ccEL7hUr.s:238    .text.SystemInit:000000000000018e .LFE348
C:\Users\CYMR90~1\AppData\Local\Temp\ccEL7hUr.s:108    .text.SystemInit:0000000000000044 .LBB2
C:\Users\CYMR90~1\AppData\Local\Temp\ccEL7hUr.s:177    .text.SystemInit:0000000000000100 .LBE2
C:\Users\CYMR90~1\AppData\Local\Temp\ccEL7hUr.s:26567  .debug_str:000000000001e3f3 .LASF5595
C:\Users\CYMR90~1\AppData\Local\Temp\ccEL7hUr.s:20     .text._soft_delay_:0000000000000000 .LFB347
C:\Users\CYMR90~1\AppData\Local\Temp\ccEL7hUr.s:62     .text._soft_delay_:000000000000003a .LFE347
C:\Users\CYMR90~1\AppData\Local\Temp\ccEL7hUr.s:24688  .debug_str:00000000000167c9 .LASF5596
C:\Users\CYMR90~1\AppData\Local\Temp\ccEL7hUr.s:721    .debug_info:0000000000000000 .Ldebug_info0
C:\Users\CYMR90~1\AppData\Local\Temp\ccEL7hUr.s:2080   .debug_macro:0000000000000000 .Ldebug_macro2
C:\Users\CYMR90~1\AppData\Local\Temp\ccEL7hUr.s:24805  .debug_str:0000000000017154 .LASF314
C:\Users\CYMR90~1\AppData\Local\Temp\ccEL7hUr.s:3027   .debug_macro:0000000000000000 .Ldebug_macro3
C:\Users\CYMR90~1\AppData\Local\Temp\ccEL7hUr.s:21262  .debug_str:0000000000008afc .LASF368
C:\Users\CYMR90~1\AppData\Local\Temp\ccEL7hUr.s:20832  .debug_str:0000000000006dad .LASF369
C:\Users\CYMR90~1\AppData\Local\Temp\ccEL7hUr.s:25051  .debug_str:0000000000018066 .LASF370
C:\Users\CYMR90~1\AppData\Local\Temp\ccEL7hUr.s:3191   .debug_macro:0000000000000000 .Ldebug_macro4
C:\Users\CYMR90~1\AppData\Local\Temp\ccEL7hUr.s:3211   .debug_macro:0000000000000000 .Ldebug_macro5
C:\Users\CYMR90~1\AppData\Local\Temp\ccEL7hUr.s:23722  .debug_str:0000000000012a44 .LASF389
C:\Users\CYMR90~1\AppData\Local\Temp\ccEL7hUr.s:3255   .debug_macro:0000000000000000 .Ldebug_macro6
C:\Users\CYMR90~1\AppData\Local\Temp\ccEL7hUr.s:3269   .debug_macro:0000000000000000 .Ldebug_macro7
C:\Users\CYMR90~1\AppData\Local\Temp\ccEL7hUr.s:3337   .debug_macro:0000000000000000 .Ldebug_macro8
C:\Users\CYMR90~1\AppData\Local\Temp\ccEL7hUr.s:3363   .debug_macro:0000000000000000 .Ldebug_macro9
C:\Users\CYMR90~1\AppData\Local\Temp\ccEL7hUr.s:3392   .debug_macro:0000000000000000 .Ldebug_macro10
C:\Users\CYMR90~1\AppData\Local\Temp\ccEL7hUr.s:25187  .debug_str:000000000001889f .LASF432
C:\Users\CYMR90~1\AppData\Local\Temp\ccEL7hUr.s:3406   .debug_macro:0000000000000000 .Ldebug_macro11
C:\Users\CYMR90~1\AppData\Local\Temp\ccEL7hUr.s:3450   .debug_macro:0000000000000000 .Ldebug_macro12
C:\Users\CYMR90~1\AppData\Local\Temp\ccEL7hUr.s:3476   .debug_macro:0000000000000000 .Ldebug_macro13
C:\Users\CYMR90~1\AppData\Local\Temp\ccEL7hUr.s:28713  .debug_str:0000000000026a5f .LASF568
C:\Users\CYMR90~1\AppData\Local\Temp\ccEL7hUr.s:3847   .debug_macro:0000000000000000 .Ldebug_macro14
C:\Users\CYMR90~1\AppData\Local\Temp\ccEL7hUr.s:23246  .debug_str:0000000000010af3 .LASF571
C:\Users\CYMR90~1\AppData\Local\Temp\ccEL7hUr.s:28063  .debug_str:0000000000023e70 .LASF572
C:\Users\CYMR90~1\AppData\Local\Temp\ccEL7hUr.s:3858   .debug_macro:0000000000000000 .Ldebug_macro15
C:\Users\CYMR90~1\AppData\Local\Temp\ccEL7hUr.s:3872   .debug_macro:0000000000000000 .Ldebug_macro16
C:\Users\CYMR90~1\AppData\Local\Temp\ccEL7hUr.s:19790  .debug_str:0000000000002ab5 .LASF577
C:\Users\CYMR90~1\AppData\Local\Temp\ccEL7hUr.s:3904   .debug_macro:0000000000000000 .Ldebug_macro17
C:\Users\CYMR90~1\AppData\Local\Temp\ccEL7hUr.s:3930   .debug_macro:0000000000000000 .Ldebug_macro18
C:\Users\CYMR90~1\AppData\Local\Temp\ccEL7hUr.s:3941   .debug_macro:0000000000000000 .Ldebug_macro19
C:\Users\CYMR90~1\AppData\Local\Temp\ccEL7hUr.s:3985   .debug_macro:0000000000000000 .Ldebug_macro20
C:\Users\CYMR90~1\AppData\Local\Temp\ccEL7hUr.s:4155   .debug_macro:0000000000000000 .Ldebug_macro21
C:\Users\CYMR90~1\AppData\Local\Temp\ccEL7hUr.s:4166   .debug_macro:0000000000000000 .Ldebug_macro22
C:\Users\CYMR90~1\AppData\Local\Temp\ccEL7hUr.s:23728  .debug_str:0000000000012a9d .LASF674
C:\Users\CYMR90~1\AppData\Local\Temp\ccEL7hUr.s:4222   .debug_macro:0000000000000000 .Ldebug_macro23
C:\Users\CYMR90~1\AppData\Local\Temp\ccEL7hUr.s:4239   .debug_macro:0000000000000000 .Ldebug_macro24
C:\Users\CYMR90~1\AppData\Local\Temp\ccEL7hUr.s:26891  .debug_str:000000000001f751 .LASF692
C:\Users\CYMR90~1\AppData\Local\Temp\ccEL7hUr.s:25057  .debug_str:0000000000018097 .LASF693
C:\Users\CYMR90~1\AppData\Local\Temp\ccEL7hUr.s:4283   .debug_macro:0000000000000000 .Ldebug_macro25
C:\Users\CYMR90~1\AppData\Local\Temp\ccEL7hUr.s:20302  .debug_str:0000000000004d1b .LASF699
C:\Users\CYMR90~1\AppData\Local\Temp\ccEL7hUr.s:21402  .debug_str:0000000000009396 .LASF700
C:\Users\CYMR90~1\AppData\Local\Temp\ccEL7hUr.s:4303   .debug_macro:0000000000000000 .Ldebug_macro26
C:\Users\CYMR90~1\AppData\Local\Temp\ccEL7hUr.s:4314   .debug_macro:0000000000000000 .Ldebug_macro27
C:\Users\CYMR90~1\AppData\Local\Temp\ccEL7hUr.s:4358   .debug_macro:0000000000000000 .Ldebug_macro28
C:\Users\CYMR90~1\AppData\Local\Temp\ccEL7hUr.s:20662  .debug_str:00000000000062f7 .LASF748
C:\Users\CYMR90~1\AppData\Local\Temp\ccEL7hUr.s:4459   .debug_macro:0000000000000000 .Ldebug_macro29
C:\Users\CYMR90~1\AppData\Local\Temp\ccEL7hUr.s:4476   .debug_macro:0000000000000000 .Ldebug_macro30
C:\Users\CYMR90~1\AppData\Local\Temp\ccEL7hUr.s:19166  .debug_str:0000000000000433 .LASF762
C:\Users\CYMR90~1\AppData\Local\Temp\ccEL7hUr.s:20476  .debug_str:000000000000579f .LASF763
C:\Users\CYMR90~1\AppData\Local\Temp\ccEL7hUr.s:4508   .debug_macro:0000000000000000 .Ldebug_macro31
C:\Users\CYMR90~1\AppData\Local\Temp\ccEL7hUr.s:4522   .debug_macro:0000000000000000 .Ldebug_macro32
C:\Users\CYMR90~1\AppData\Local\Temp\ccEL7hUr.s:4692   .debug_macro:0000000000000000 .Ldebug_macro33
C:\Users\CYMR90~1\AppData\Local\Temp\ccEL7hUr.s:22914  .debug_str:000000000000f5ca .LASF849
C:\Users\CYMR90~1\AppData\Local\Temp\ccEL7hUr.s:25271  .debug_str:0000000000018e9c .LASF850
C:\Users\CYMR90~1\AppData\Local\Temp\ccEL7hUr.s:4778   .debug_macro:0000000000000000 .Ldebug_macro34
C:\Users\CYMR90~1\AppData\Local\Temp\ccEL7hUr.s:4903   .debug_macro:0000000000000000 .Ldebug_macro35
C:\Users\CYMR90~1\AppData\Local\Temp\ccEL7hUr.s:19442  .debug_str:00000000000014fc .LASF950
C:\Users\CYMR90~1\AppData\Local\Temp\ccEL7hUr.s:5115   .debug_macro:0000000000000000 .Ldebug_macro36
C:\Users\CYMR90~1\AppData\Local\Temp\ccEL7hUr.s:21150  .debug_str:000000000000840a .LASF956
C:\Users\CYMR90~1\AppData\Local\Temp\ccEL7hUr.s:20712  .debug_str:00000000000065f4 .LASF957
C:\Users\CYMR90~1\AppData\Local\Temp\ccEL7hUr.s:19608  .debug_str:0000000000001f96 .LASF958
C:\Users\CYMR90~1\AppData\Local\Temp\ccEL7hUr.s:5135   .debug_macro:0000000000000000 .Ldebug_macro37
C:\Users\CYMR90~1\AppData\Local\Temp\ccEL7hUr.s:5227   .debug_macro:0000000000000000 .Ldebug_macro38
C:\Users\CYMR90~1\AppData\Local\Temp\ccEL7hUr.s:6873   .debug_macro:0000000000000000 .Ldebug_macro39
C:\Users\CYMR90~1\AppData\Local\Temp\ccEL7hUr.s:6965   .debug_macro:0000000000000000 .Ldebug_macro40
C:\Users\CYMR90~1\AppData\Local\Temp\ccEL7hUr.s:7021   .debug_macro:0000000000000000 .Ldebug_macro41
C:\Users\CYMR90~1\AppData\Local\Temp\ccEL7hUr.s:7035   .debug_macro:0000000000000000 .Ldebug_macro42
C:\Users\CYMR90~1\AppData\Local\Temp\ccEL7hUr.s:24594  .debug_str:00000000000161fa .LASF1654
C:\Users\CYMR90~1\AppData\Local\Temp\ccEL7hUr.s:21524  .debug_str:0000000000009ba0 .LASF1655
C:\Users\CYMR90~1\AppData\Local\Temp\ccEL7hUr.s:7259   .debug_macro:0000000000000000 .Ldebug_macro43
C:\Users\CYMR90~1\AppData\Local\Temp\ccEL7hUr.s:7306   .debug_macro:0000000000000000 .Ldebug_macro44
C:\Users\CYMR90~1\AppData\Local\Temp\ccEL7hUr.s:7461   .debug_macro:0000000000000000 .Ldebug_macro45
C:\Users\CYMR90~1\AppData\Local\Temp\ccEL7hUr.s:7517   .debug_macro:0000000000000000 .Ldebug_macro46
C:\Users\CYMR90~1\AppData\Local\Temp\ccEL7hUr.s:7528   .debug_macro:0000000000000000 .Ldebug_macro47
C:\Users\CYMR90~1\AppData\Local\Temp\ccEL7hUr.s:29491  .debug_str:0000000000029c9c .LASF1781
C:\Users\CYMR90~1\AppData\Local\Temp\ccEL7hUr.s:24360  .debug_str:0000000000015385 .LASF1782
C:\Users\CYMR90~1\AppData\Local\Temp\ccEL7hUr.s:7659   .debug_macro:0000000000000000 .Ldebug_macro48
C:\Users\CYMR90~1\AppData\Local\Temp\ccEL7hUr.s:8231   .debug_macro:0000000000000000 .Ldebug_macro49
C:\Users\CYMR90~1\AppData\Local\Temp\ccEL7hUr.s:8518   .debug_macro:0000000000000000 .Ldebug_macro50
C:\Users\CYMR90~1\AppData\Local\Temp\ccEL7hUr.s:8547   .debug_macro:0000000000000000 .Ldebug_macro51
C:\Users\CYMR90~1\AppData\Local\Temp\ccEL7hUr.s:8624   .debug_macro:0000000000000000 .Ldebug_macro52
C:\Users\CYMR90~1\AppData\Local\Temp\ccEL7hUr.s:9157   .debug_macro:0000000000000000 .Ldebug_macro53
C:\Users\CYMR90~1\AppData\Local\Temp\ccEL7hUr.s:9180   .debug_macro:0000000000000000 .Ldebug_macro54
C:\Users\CYMR90~1\AppData\Local\Temp\ccEL7hUr.s:9446   .debug_macro:0000000000000000 .Ldebug_macro55
C:\Users\CYMR90~1\AppData\Local\Temp\ccEL7hUr.s:9925   .debug_macro:0000000000000000 .Ldebug_macro56
C:\Users\CYMR90~1\AppData\Local\Temp\ccEL7hUr.s:10254  .debug_macro:0000000000000000 .Ldebug_macro57
C:\Users\CYMR90~1\AppData\Local\Temp\ccEL7hUr.s:10343  .debug_macro:0000000000000000 .Ldebug_macro58
C:\Users\CYMR90~1\AppData\Local\Temp\ccEL7hUr.s:11158  .debug_macro:0000000000000000 .Ldebug_macro59
C:\Users\CYMR90~1\AppData\Local\Temp\ccEL7hUr.s:11349  .debug_macro:0000000000000000 .Ldebug_macro60
C:\Users\CYMR90~1\AppData\Local\Temp\ccEL7hUr.s:11852  .debug_macro:0000000000000000 .Ldebug_macro61
C:\Users\CYMR90~1\AppData\Local\Temp\ccEL7hUr.s:11998  .debug_macro:0000000000000000 .Ldebug_macro62
C:\Users\CYMR90~1\AppData\Local\Temp\ccEL7hUr.s:12528  .debug_macro:0000000000000000 .Ldebug_macro63
C:\Users\CYMR90~1\AppData\Local\Temp\ccEL7hUr.s:12950  .debug_macro:0000000000000000 .Ldebug_macro64
C:\Users\CYMR90~1\AppData\Local\Temp\ccEL7hUr.s:15724  .debug_macro:0000000000000000 .Ldebug_macro65
C:\Users\CYMR90~1\AppData\Local\Temp\ccEL7hUr.s:16800  .debug_macro:0000000000000000 .Ldebug_macro66
C:\Users\CYMR90~1\AppData\Local\Temp\ccEL7hUr.s:17069  .debug_macro:0000000000000000 .Ldebug_macro67
C:\Users\CYMR90~1\AppData\Local\Temp\ccEL7hUr.s:17341  .debug_macro:0000000000000000 .Ldebug_macro68
C:\Users\CYMR90~1\AppData\Local\Temp\ccEL7hUr.s:18369  .debug_macro:0000000000000000 .Ldebug_macro69
C:\Users\CYMR90~1\AppData\Local\Temp\ccEL7hUr.s:18413  .debug_macro:0000000000000000 .Ldebug_macro70
C:\Users\CYMR90~1\AppData\Local\Temp\ccEL7hUr.s:19039  .debug_macro:0000000000000000 .Ldebug_macro71
C:\Users\CYMR90~1\AppData\Local\Temp\ccEL7hUr.s:20068  .debug_str:0000000000003cdb .LASF5556
C:\Users\CYMR90~1\AppData\Local\Temp\ccEL7hUr.s:26129  .debug_str:000000000001c6bb .LASF5557
C:\Users\CYMR90~1\AppData\Local\Temp\ccEL7hUr.s:24548  .debug_str:0000000000015ed7 .LASF5558
C:\Users\CYMR90~1\AppData\Local\Temp\ccEL7hUr.s:19324  .debug_str:0000000000000dbe .LASF5559
C:\Users\CYMR90~1\AppData\Local\Temp\ccEL7hUr.s:19832  .debug_str:0000000000002d61 .LASF5560
C:\Users\CYMR90~1\AppData\Local\Temp\ccEL7hUr.s:22034  .debug_str:000000000000bce3 .LASF5561
C:\Users\CYMR90~1\AppData\Local\Temp\ccEL7hUr.s:20458  .debug_str:0000000000005664 .LASF0
C:\Users\CYMR90~1\AppData\Local\Temp\ccEL7hUr.s:24787  .debug_str:0000000000017055 .LASF1
C:\Users\CYMR90~1\AppData\Local\Temp\ccEL7hUr.s:23080  .debug_str:000000000001009a .LASF2
C:\Users\CYMR90~1\AppData\Local\Temp\ccEL7hUr.s:23136  .debug_str:00000000000103fd .LASF3
C:\Users\CYMR90~1\AppData\Local\Temp\ccEL7hUr.s:24404  .debug_str:00000000000155bf .LASF4
C:\Users\CYMR90~1\AppData\Local\Temp\ccEL7hUr.s:29885  .debug_str:000000000002b4c6 .LASF5
C:\Users\CYMR90~1\AppData\Local\Temp\ccEL7hUr.s:20688  .debug_str:000000000000649f .LASF6
C:\Users\CYMR90~1\AppData\Local\Temp\ccEL7hUr.s:29213  .debug_str:0000000000028b93 .LASF7
C:\Users\CYMR90~1\AppData\Local\Temp\ccEL7hUr.s:28175  .debug_str:000000000002468a .LASF8
C:\Users\CYMR90~1\AppData\Local\Temp\ccEL7hUr.s:26111  .debug_str:000000000001c579 .LASF9
C:\Users\CYMR90~1\AppData\Local\Temp\ccEL7hUr.s:25467  .debug_str:0000000000019c03 .LASF10
C:\Users\CYMR90~1\AppData\Local\Temp\ccEL7hUr.s:25325  .debug_str:000000000001928b .LASF11
C:\Users\CYMR90~1\AppData\Local\Temp\ccEL7hUr.s:29727  .debug_str:000000000002aab8 .LASF12
C:\Users\CYMR90~1\AppData\Local\Temp\ccEL7hUr.s:25337  .debug_str:000000000001933f .LASF13
C:\Users\CYMR90~1\AppData\Local\Temp\ccEL7hUr.s:21678  .debug_str:000000000000a574 .LASF14
C:\Users\CYMR90~1\AppData\Local\Temp\ccEL7hUr.s:26687  .debug_str:000000000001eb28 .LASF15
C:\Users\CYMR90~1\AppData\Local\Temp\ccEL7hUr.s:27439  .debug_str:0000000000021945 .LASF16
C:\Users\CYMR90~1\AppData\Local\Temp\ccEL7hUr.s:21724  .debug_str:000000000000a838 .LASF17
C:\Users\CYMR90~1\AppData\Local\Temp\ccEL7hUr.s:28451  .debug_str:0000000000025a38 .LASF18
C:\Users\CYMR90~1\AppData\Local\Temp\ccEL7hUr.s:22692  .debug_str:000000000000e866 .LASF19
C:\Users\CYMR90~1\AppData\Local\Temp\ccEL7hUr.s:19774  .debug_str:00000000000029b1 .LASF20
C:\Users\CYMR90~1\AppData\Local\Temp\ccEL7hUr.s:25141  .debug_str:00000000000185dd .LASF21
C:\Users\CYMR90~1\AppData\Local\Temp\ccEL7hUr.s:25139  .debug_str:00000000000185c3 .LASF22
C:\Users\CYMR90~1\AppData\Local\Temp\ccEL7hUr.s:27739  .debug_str:0000000000022b72 .LASF23
C:\Users\CYMR90~1\AppData\Local\Temp\ccEL7hUr.s:26063  .debug_str:000000000001c2e3 .LASF24
C:\Users\CYMR90~1\AppData\Local\Temp\ccEL7hUr.s:20008  .debug_str:000000000000394a .LASF25
C:\Users\CYMR90~1\AppData\Local\Temp\ccEL7hUr.s:24528  .debug_str:0000000000015d7c .LASF26
C:\Users\CYMR90~1\AppData\Local\Temp\ccEL7hUr.s:27743  .debug_str:0000000000022b9e .LASF27
C:\Users\CYMR90~1\AppData\Local\Temp\ccEL7hUr.s:27447  .debug_str:00000000000219a2 .LASF28
C:\Users\CYMR90~1\AppData\Local\Temp\ccEL7hUr.s:20410  .debug_str:0000000000005392 .LASF29
C:\Users\CYMR90~1\AppData\Local\Temp\ccEL7hUr.s:26467  .debug_str:000000000001dddf .LASF30
C:\Users\CYMR90~1\AppData\Local\Temp\ccEL7hUr.s:19392  .debug_str:0000000000001232 .LASF31
C:\Users\CYMR90~1\AppData\Local\Temp\ccEL7hUr.s:26925  .debug_str:000000000001f949 .LASF32
C:\Users\CYMR90~1\AppData\Local\Temp\ccEL7hUr.s:21566  .debug_str:0000000000009e21 .LASF33
C:\Users\CYMR90~1\AppData\Local\Temp\ccEL7hUr.s:21418  .debug_str:0000000000009481 .LASF34
C:\Users\CYMR90~1\AppData\Local\Temp\ccEL7hUr.s:22724  .debug_str:000000000000ea5d .LASF35
C:\Users\CYMR90~1\AppData\Local\Temp\ccEL7hUr.s:25579  .debug_str:000000000001a272 .LASF36
C:\Users\CYMR90~1\AppData\Local\Temp\ccEL7hUr.s:20924  .debug_str:0000000000007405 .LASF37
C:\Users\CYMR90~1\AppData\Local\Temp\ccEL7hUr.s:23078  .debug_str:0000000000010077 .LASF38
C:\Users\CYMR90~1\AppData\Local\Temp\ccEL7hUr.s:19972  .debug_str:00000000000036a4 .LASF39
C:\Users\CYMR90~1\AppData\Local\Temp\ccEL7hUr.s:19766  .debug_str:000000000000291f .LASF40
C:\Users\CYMR90~1\AppData\Local\Temp\ccEL7hUr.s:23236  .debug_str:0000000000010a66 .LASF41
C:\Users\CYMR90~1\AppData\Local\Temp\ccEL7hUr.s:23660  .debug_str:000000000001261b .LASF42
C:\Users\CYMR90~1\AppData\Local\Temp\ccEL7hUr.s:23924  .debug_str:0000000000013814 .LASF43
C:\Users\CYMR90~1\AppData\Local\Temp\ccEL7hUr.s:25569  .debug_str:000000000001a1e0 .LASF44
C:\Users\CYMR90~1\AppData\Local\Temp\ccEL7hUr.s:23524  .debug_str:0000000000011d87 .LASF45
C:\Users\CYMR90~1\AppData\Local\Temp\ccEL7hUr.s:20238  .debug_str:0000000000004888 .LASF46
C:\Users\CYMR90~1\AppData\Local\Temp\ccEL7hUr.s:26473  .debug_str:000000000001de44 .LASF47
C:\Users\CYMR90~1\AppData\Local\Temp\ccEL7hUr.s:28177  .debug_str:000000000002469f .LASF48
C:\Users\CYMR90~1\AppData\Local\Temp\ccEL7hUr.s:22468  .debug_str:000000000000da99 .LASF49
C:\Users\CYMR90~1\AppData\Local\Temp\ccEL7hUr.s:19604  .debug_str:0000000000001f63 .LASF50
C:\Users\CYMR90~1\AppData\Local\Temp\ccEL7hUr.s:19118  .debug_str:0000000000000131 .LASF51
C:\Users\CYMR90~1\AppData\Local\Temp\ccEL7hUr.s:29503  .debug_str:0000000000029d30 .LASF52
C:\Users\CYMR90~1\AppData\Local\Temp\ccEL7hUr.s:22282  .debug_str:000000000000ce7a .LASF53
C:\Users\CYMR90~1\AppData\Local\Temp\ccEL7hUr.s:23998  .debug_str:0000000000013c7e .LASF54
C:\Users\CYMR90~1\AppData\Local\Temp\ccEL7hUr.s:23042  .debug_str:000000000000fded .LASF55
C:\Users\CYMR90~1\AppData\Local\Temp\ccEL7hUr.s:21010  .debug_str:0000000000007987 .LASF56
C:\Users\CYMR90~1\AppData\Local\Temp\ccEL7hUr.s:24382  .debug_str:0000000000015494 .LASF57
C:\Users\CYMR90~1\AppData\Local\Temp\ccEL7hUr.s:19346  .debug_str:0000000000000f90 .LASF58
C:\Users\CYMR90~1\AppData\Local\Temp\ccEL7hUr.s:28455  .debug_str:0000000000025a78 .LASF59
C:\Users\CYMR90~1\AppData\Local\Temp\ccEL7hUr.s:23932  .debug_str:000000000001386f .LASF60
C:\Users\CYMR90~1\AppData\Local\Temp\ccEL7hUr.s:25847  .debug_str:000000000001b58c .LASF61
C:\Users\CYMR90~1\AppData\Local\Temp\ccEL7hUr.s:19834  .debug_str:0000000000002da4 .LASF62
C:\Users\CYMR90~1\AppData\Local\Temp\ccEL7hUr.s:22462  .debug_str:000000000000da55 .LASF63
C:\Users\CYMR90~1\AppData\Local\Temp\ccEL7hUr.s:22196  .debug_str:000000000000c82b .LASF64
C:\Users\CYMR90~1\AppData\Local\Temp\ccEL7hUr.s:25555  .debug_str:000000000001a117 .LASF65
C:\Users\CYMR90~1\AppData\Local\Temp\ccEL7hUr.s:24222  .debug_str:0000000000014a73 .LASF66
C:\Users\CYMR90~1\AppData\Local\Temp\ccEL7hUr.s:29285  .debug_str:0000000000029005 .LASF67
C:\Users\CYMR90~1\AppData\Local\Temp\ccEL7hUr.s:29729  .debug_str:000000000002aacb .LASF68
C:\Users\CYMR90~1\AppData\Local\Temp\ccEL7hUr.s:23478  .debug_str:0000000000011a4a .LASF69
C:\Users\CYMR90~1\AppData\Local\Temp\ccEL7hUr.s:22620  .debug_str:000000000000e3d7 .LASF70
C:\Users\CYMR90~1\AppData\Local\Temp\ccEL7hUr.s:20250  .debug_str:00000000000049db .LASF71
C:\Users\CYMR90~1\AppData\Local\Temp\ccEL7hUr.s:23512  .debug_str:0000000000011cc4 .LASF72
C:\Users\CYMR90~1\AppData\Local\Temp\ccEL7hUr.s:23144  .debug_str:000000000001046e .LASF73
C:\Users\CYMR90~1\AppData\Local\Temp\ccEL7hUr.s:23740  .debug_str:0000000000012b8e .LASF74
C:\Users\CYMR90~1\AppData\Local\Temp\ccEL7hUr.s:23584  .debug_str:0000000000012142 .LASF75
C:\Users\CYMR90~1\AppData\Local\Temp\ccEL7hUr.s:23680  .debug_str:0000000000012779 .LASF76
C:\Users\CYMR90~1\AppData\Local\Temp\ccEL7hUr.s:28095  .debug_str:000000000002411a .LASF77
C:\Users\CYMR90~1\AppData\Local\Temp\ccEL7hUr.s:26037  .debug_str:000000000001c14e .LASF78
C:\Users\CYMR90~1\AppData\Local\Temp\ccEL7hUr.s:26437  .debug_str:000000000001db85 .LASF79
C:\Users\CYMR90~1\AppData\Local\Temp\ccEL7hUr.s:29265  .debug_str:0000000000028eb6 .LASF80
C:\Users\CYMR90~1\AppData\Local\Temp\ccEL7hUr.s:21518  .debug_str:0000000000009b2c .LASF81
C:\Users\CYMR90~1\AppData\Local\Temp\ccEL7hUr.s:21710  .debug_str:000000000000a70c .LASF82
C:\Users\CYMR90~1\AppData\Local\Temp\ccEL7hUr.s:29393  .debug_str:00000000000296ef .LASF83
C:\Users\CYMR90~1\AppData\Local\Temp\ccEL7hUr.s:21458  .debug_str:0000000000009723 .LASF84
C:\Users\CYMR90~1\AppData\Local\Temp\ccEL7hUr.s:20748  .debug_str:000000000000684f .LASF85
C:\Users\CYMR90~1\AppData\Local\Temp\ccEL7hUr.s:25753  .debug_str:000000000001af54 .LASF86
C:\Users\CYMR90~1\AppData\Local\Temp\ccEL7hUr.s:29423  .debug_str:0000000000029879 .LASF87
C:\Users\CYMR90~1\AppData\Local\Temp\ccEL7hUr.s:26865  .debug_str:000000000001f5c7 .LASF88
C:\Users\CYMR90~1\AppData\Local\Temp\ccEL7hUr.s:25671  .debug_str:000000000001aa18 .LASF89
C:\Users\CYMR90~1\AppData\Local\Temp\ccEL7hUr.s:26895  .debug_str:000000000001f784 .LASF90
C:\Users\CYMR90~1\AppData\Local\Temp\ccEL7hUr.s:29633  .debug_str:000000000002a521 .LASF91
C:\Users\CYMR90~1\AppData\Local\Temp\ccEL7hUr.s:28463  .debug_str:0000000000025af0 .LASF92
C:\Users\CYMR90~1\AppData\Local\Temp\ccEL7hUr.s:21594  .debug_str:0000000000009ffa .LASF93
C:\Users\CYMR90~1\AppData\Local\Temp\ccEL7hUr.s:26319  .debug_str:000000000001d43a .LASF94
C:\Users\CYMR90~1\AppData\Local\Temp\ccEL7hUr.s:23960  .debug_str:0000000000013a28 .LASF95
C:\Users\CYMR90~1\AppData\Local\Temp\ccEL7hUr.s:23944  .debug_str:0000000000013938 .LASF96
C:\Users\CYMR90~1\AppData\Local\Temp\ccEL7hUr.s:29933  .debug_str:000000000002b808 .LASF97
C:\Users\CYMR90~1\AppData\Local\Temp\ccEL7hUr.s:23596  .debug_str:000000000001221f .LASF98
C:\Users\CYMR90~1\AppData\Local\Temp\ccEL7hUr.s:27465  .debug_str:0000000000021ac9 .LASF99
C:\Users\CYMR90~1\AppData\Local\Temp\ccEL7hUr.s:21910  .debug_str:000000000000b451 .LASF100
C:\Users\CYMR90~1\AppData\Local\Temp\ccEL7hUr.s:23090  .debug_str:0000000000010108 .LASF101
C:\Users\CYMR90~1\AppData\Local\Temp\ccEL7hUr.s:24446  .debug_str:0000000000015816 .LASF102
C:\Users\CYMR90~1\AppData\Local\Temp\ccEL7hUr.s:23366  .debug_str:0000000000011290 .LASF103
C:\Users\CYMR90~1\AppData\Local\Temp\ccEL7hUr.s:22378  .debug_str:000000000000d4ba .LASF104
C:\Users\CYMR90~1\AppData\Local\Temp\ccEL7hUr.s:23534  .debug_str:0000000000011e1e .LASF105
C:\Users\CYMR90~1\AppData\Local\Temp\ccEL7hUr.s:26137  .debug_str:000000000001c731 .LASF106
C:\Users\CYMR90~1\AppData\Local\Temp\ccEL7hUr.s:23360  .debug_str:000000000001122b .LASF107
C:\Users\CYMR90~1\AppData\Local\Temp\ccEL7hUr.s:22374  .debug_str:000000000000d496 .LASF108
C:\Users\CYMR90~1\AppData\Local\Temp\ccEL7hUr.s:23794  .debug_str:0000000000012ef5 .LASF109
C:\Users\CYMR90~1\AppData\Local\Temp\ccEL7hUr.s:22748  .debug_str:000000000000ebf7 .LASF110
C:\Users\CYMR90~1\AppData\Local\Temp\ccEL7hUr.s:25193  .debug_str:00000000000188fb .LASF111
C:\Users\CYMR90~1\AppData\Local\Temp\ccEL7hUr.s:21848  .debug_str:000000000000b0aa .LASF112
C:\Users\CYMR90~1\AppData\Local\Temp\ccEL7hUr.s:21592  .debug_str:0000000000009fd1 .LASF113
C:\Users\CYMR90~1\AppData\Local\Temp\ccEL7hUr.s:24478  .debug_str:0000000000015a16 .LASF114
C:\Users\CYMR90~1\AppData\Local\Temp\ccEL7hUr.s:29325  .debug_str:0000000000029260 .LASF115
C:\Users\CYMR90~1\AppData\Local\Temp\ccEL7hUr.s:27983  .debug_str:00000000000239cf .LASF116
C:\Users\CYMR90~1\AppData\Local\Temp\ccEL7hUr.s:21350  .debug_str:0000000000009091 .LASF117
C:\Users\CYMR90~1\AppData\Local\Temp\ccEL7hUr.s:25903  .debug_str:000000000001b907 .LASF118
C:\Users\CYMR90~1\AppData\Local\Temp\ccEL7hUr.s:30041  .debug_str:000000000002bf83 .LASF119
C:\Users\CYMR90~1\AppData\Local\Temp\ccEL7hUr.s:22666  .debug_str:000000000000e67b .LASF120
C:\Users\CYMR90~1\AppData\Local\Temp\ccEL7hUr.s:28079  .debug_str:0000000000023f3f .LASF121
C:\Users\CYMR90~1\AppData\Local\Temp\ccEL7hUr.s:22158  .debug_str:000000000000c5ca .LASF122
C:\Users\CYMR90~1\AppData\Local\Temp\ccEL7hUr.s:22268  .debug_str:000000000000cdcd .LASF123
C:\Users\CYMR90~1\AppData\Local\Temp\ccEL7hUr.s:19940  .debug_str:00000000000034b5 .LASF124
C:\Users\CYMR90~1\AppData\Local\Temp\ccEL7hUr.s:20214  .debug_str:00000000000046cc .LASF125
C:\Users\CYMR90~1\AppData\Local\Temp\ccEL7hUr.s:29005  .debug_str:0000000000027d3c .LASF126
C:\Users\CYMR90~1\AppData\Local\Temp\ccEL7hUr.s:23540  .debug_str:0000000000011e5c .LASF127
C:\Users\CYMR90~1\AppData\Local\Temp\ccEL7hUr.s:26295  .debug_str:000000000001d2dc .LASF128
C:\Users\CYMR90~1\AppData\Local\Temp\ccEL7hUr.s:21426  .debug_str:00000000000094f9 .LASF129
C:\Users\CYMR90~1\AppData\Local\Temp\ccEL7hUr.s:28579  .debug_str:00000000000261fd .LASF130
C:\Users\CYMR90~1\AppData\Local\Temp\ccEL7hUr.s:28879  .debug_str:00000000000274e7 .LASF131
C:\Users\CYMR90~1\AppData\Local\Temp\ccEL7hUr.s:28693  .debug_str:0000000000026904 .LASF132
C:\Users\CYMR90~1\AppData\Local\Temp\ccEL7hUr.s:22642  .debug_str:000000000000e50a .LASF133
C:\Users\CYMR90~1\AppData\Local\Temp\ccEL7hUr.s:27999  .debug_str:0000000000023aa3 .LASF134
C:\Users\CYMR90~1\AppData\Local\Temp\ccEL7hUr.s:20208  .debug_str:0000000000004665 .LASF135
C:\Users\CYMR90~1\AppData\Local\Temp\ccEL7hUr.s:21054  .debug_str:0000000000007c63 .LASF136
C:\Users\CYMR90~1\AppData\Local\Temp\ccEL7hUr.s:29721  .debug_str:000000000002aa61 .LASF137
C:\Users\CYMR90~1\AppData\Local\Temp\ccEL7hUr.s:23790  .debug_str:0000000000012ec5 .LASF138
C:\Users\CYMR90~1\AppData\Local\Temp\ccEL7hUr.s:29211  .debug_str:0000000000028b83 .LASF139
C:\Users\CYMR90~1\AppData\Local\Temp\ccEL7hUr.s:28347  .debug_str:00000000000252bf .LASF140
C:\Users\CYMR90~1\AppData\Local\Temp\ccEL7hUr.s:25993  .debug_str:000000000001be7e .LASF141
C:\Users\CYMR90~1\AppData\Local\Temp\ccEL7hUr.s:21554  .debug_str:0000000000009d62 .LASF142
C:\Users\CYMR90~1\AppData\Local\Temp\ccEL7hUr.s:29793  .debug_str:000000000002ae83 .LASF143
C:\Users\CYMR90~1\AppData\Local\Temp\ccEL7hUr.s:25163  .debug_str:00000000000186f1 .LASF144
C:\Users\CYMR90~1\AppData\Local\Temp\ccEL7hUr.s:24234  .debug_str:0000000000014b58 .LASF145
C:\Users\CYMR90~1\AppData\Local\Temp\ccEL7hUr.s:22230  .debug_str:000000000000cb07 .LASF146
C:\Users\CYMR90~1\AppData\Local\Temp\ccEL7hUr.s:20248  .debug_str:00000000000049c4 .LASF147
C:\Users\CYMR90~1\AppData\Local\Temp\ccEL7hUr.s:22790  .debug_str:000000000000ee79 .LASF148
C:\Users\CYMR90~1\AppData\Local\Temp\ccEL7hUr.s:25143  .debug_str:00000000000185f1 .LASF149
C:\Users\CYMR90~1\AppData\Local\Temp\ccEL7hUr.s:19192  .debug_str:000000000000058b .LASF150
C:\Users\CYMR90~1\AppData\Local\Temp\ccEL7hUr.s:27449  .debug_str:00000000000219bc .LASF151
C:\Users\CYMR90~1\AppData\Local\Temp\ccEL7hUr.s:23784  .debug_str:0000000000012e43 .LASF152
C:\Users\CYMR90~1\AppData\Local\Temp\ccEL7hUr.s:28353  .debug_str:0000000000025312 .LASF153
C:\Users\CYMR90~1\AppData\Local\Temp\ccEL7hUr.s:26197  .debug_str:000000000001cb74 .LASF154
C:\Users\CYMR90~1\AppData\Local\Temp\ccEL7hUr.s:23198  .debug_str:0000000000010824 .LASF155
C:\Users\CYMR90~1\AppData\Local\Temp\ccEL7hUr.s:26211  .debug_str:000000000001cc79 .LASF156
C:\Users\CYMR90~1\AppData\Local\Temp\ccEL7hUr.s:26325  .debug_str:000000000001d4a2 .LASF157
C:\Users\CYMR90~1\AppData\Local\Temp\ccEL7hUr.s:22084  .debug_str:000000000000c146 .LASF158
C:\Users\CYMR90~1\AppData\Local\Temp\ccEL7hUr.s:21154  .debug_str:000000000000842c .LASF159
C:\Users\CYMR90~1\AppData\Local\Temp\ccEL7hUr.s:25853  .debug_str:000000000001b5e0 .LASF160
C:\Users\CYMR90~1\AppData\Local\Temp\ccEL7hUr.s:27273  .debug_str:0000000000020ef7 .LASF161
C:\Users\CYMR90~1\AppData\Local\Temp\ccEL7hUr.s:25459  .debug_str:0000000000019b71 .LASF162
C:\Users\CYMR90~1\AppData\Local\Temp\ccEL7hUr.s:27991  .debug_str:0000000000023a31 .LASF163
C:\Users\CYMR90~1\AppData\Local\Temp\ccEL7hUr.s:29619  .debug_str:000000000002a453 .LASF164
C:\Users\CYMR90~1\AppData\Local\Temp\ccEL7hUr.s:20914  .debug_str:0000000000007381 .LASF165
C:\Users\CYMR90~1\AppData\Local\Temp\ccEL7hUr.s:29313  .debug_str:00000000000291d1 .LASF166
C:\Users\CYMR90~1\AppData\Local\Temp\ccEL7hUr.s:29137  .debug_str:00000000000286de .LASF167
C:\Users\CYMR90~1\AppData\Local\Temp\ccEL7hUr.s:27913  .debug_str:0000000000023553 .LASF168
C:\Users\CYMR90~1\AppData\Local\Temp\ccEL7hUr.s:24929  .debug_str:00000000000178de .LASF169
C:\Users\CYMR90~1\AppData\Local\Temp\ccEL7hUr.s:28753  .debug_str:0000000000026ca5 .LASF170
C:\Users\CYMR90~1\AppData\Local\Temp\ccEL7hUr.s:24556  .debug_str:0000000000015f41 .LASF171
C:\Users\CYMR90~1\AppData\Local\Temp\ccEL7hUr.s:26117  .debug_str:000000000001c5d8 .LASF172
C:\Users\CYMR90~1\AppData\Local\Temp\ccEL7hUr.s:21546  .debug_str:0000000000009cee .LASF173
C:\Users\CYMR90~1\AppData\Local\Temp\ccEL7hUr.s:27805  .debug_str:0000000000022f30 .LASF174
C:\Users\CYMR90~1\AppData\Local\Temp\ccEL7hUr.s:20584  .debug_str:0000000000005e3f .LASF175
C:\Users\CYMR90~1\AppData\Local\Temp\ccEL7hUr.s:21394  .debug_str:000000000000932d .LASF176
C:\Users\CYMR90~1\AppData\Local\Temp\ccEL7hUr.s:20088  .debug_str:0000000000003e36 .LASF177
C:\Users\CYMR90~1\AppData\Local\Temp\ccEL7hUr.s:25333  .debug_str:00000000000192fd .LASF178
C:\Users\CYMR90~1\AppData\Local\Temp\ccEL7hUr.s:22320  .debug_str:000000000000d10b .LASF179
C:\Users\CYMR90~1\AppData\Local\Temp\ccEL7hUr.s:19598  .debug_str:0000000000001f09 .LASF180
C:\Users\CYMR90~1\AppData\Local\Temp\ccEL7hUr.s:29929  .debug_str:000000000002b7dd .LASF181
C:\Users\CYMR90~1\AppData\Local\Temp\ccEL7hUr.s:19378  .debug_str:0000000000001187 .LASF182
C:\Users\CYMR90~1\AppData\Local\Temp\ccEL7hUr.s:23902  .debug_str:0000000000013689 .LASF183
C:\Users\CYMR90~1\AppData\Local\Temp\ccEL7hUr.s:24298  .debug_str:0000000000014f89 .LASF184
C:\Users\CYMR90~1\AppData\Local\Temp\ccEL7hUr.s:29147  .debug_str:000000000002878d .LASF185
C:\Users\CYMR90~1\AppData\Local\Temp\ccEL7hUr.s:24839  .debug_str:0000000000017342 .LASF186
C:\Users\CYMR90~1\AppData\Local\Temp\ccEL7hUr.s:20898  .debug_str:0000000000007220 .LASF187
C:\Users\CYMR90~1\AppData\Local\Temp\ccEL7hUr.s:26843  .debug_str:000000000001f4ad .LASF188
C:\Users\CYMR90~1\AppData\Local\Temp\ccEL7hUr.s:22686  .debug_str:000000000000e80c .LASF189
C:\Users\CYMR90~1\AppData\Local\Temp\ccEL7hUr.s:24004  .debug_str:0000000000013cdd .LASF190
C:\Users\CYMR90~1\AppData\Local\Temp\ccEL7hUr.s:27331  .debug_str:0000000000021217 .LASF191
C:\Users\CYMR90~1\AppData\Local\Temp\ccEL7hUr.s:24712  .debug_str:0000000000016996 .LASF192
C:\Users\CYMR90~1\AppData\Local\Temp\ccEL7hUr.s:27561  .debug_str:00000000000220bd .LASF193
C:\Users\CYMR90~1\AppData\Local\Temp\ccEL7hUr.s:20538  .debug_str:0000000000005b78 .LASF194
C:\Users\CYMR90~1\AppData\Local\Temp\ccEL7hUr.s:19910  .debug_str:00000000000032c0 .LASF195
C:\Users\CYMR90~1\AppData\Local\Temp\ccEL7hUr.s:22514  .debug_str:000000000000dd22 .LASF196
C:\Users\CYMR90~1\AppData\Local\Temp\ccEL7hUr.s:23426  .debug_str:0000000000011638 .LASF197
C:\Users\CYMR90~1\AppData\Local\Temp\ccEL7hUr.s:20396  .debug_str:00000000000052b2 .LASF198
C:\Users\CYMR90~1\AppData\Local\Temp\ccEL7hUr.s:29037  .debug_str:0000000000027f83 .LASF199
C:\Users\CYMR90~1\AppData\Local\Temp\ccEL7hUr.s:27213  .debug_str:0000000000020b6c .LASF200
C:\Users\CYMR90~1\AppData\Local\Temp\ccEL7hUr.s:26333  .debug_str:000000000001d500 .LASF201
C:\Users\CYMR90~1\AppData\Local\Temp\ccEL7hUr.s:21522  .debug_str:0000000000009b5f .LASF202
C:\Users\CYMR90~1\AppData\Local\Temp\ccEL7hUr.s:29481  .debug_str:0000000000029bfc .LASF203
C:\Users\CYMR90~1\AppData\Local\Temp\ccEL7hUr.s:19922  .debug_str:0000000000003391 .LASF204
C:\Users\CYMR90~1\AppData\Local\Temp\ccEL7hUr.s:22920  .debug_str:000000000000f624 .LASF205
C:\Users\CYMR90~1\AppData\Local\Temp\ccEL7hUr.s:29221  .debug_str:0000000000028bf4 .LASF206
C:\Users\CYMR90~1\AppData\Local\Temp\ccEL7hUr.s:24120  .debug_str:0000000000014425 .LASF207
C:\Users\CYMR90~1\AppData\Local\Temp\ccEL7hUr.s:26883  .debug_str:000000000001f6e2 .LASF208
C:\Users\CYMR90~1\AppData\Local\Temp\ccEL7hUr.s:22152  .debug_str:000000000000c579 .LASF209
C:\Users\CYMR90~1\AppData\Local\Temp\ccEL7hUr.s:30137  .debug_str:000000000002c5b9 .LASF210
C:\Users\CYMR90~1\AppData\Local\Temp\ccEL7hUr.s:24092  .debug_str:0000000000014261 .LASF211
C:\Users\CYMR90~1\AppData\Local\Temp\ccEL7hUr.s:26725  .debug_str:000000000001ed3b .LASF212
C:\Users\CYMR90~1\AppData\Local\Temp\ccEL7hUr.s:25353  .debug_str:000000000001942b .LASF213
C:\Users\CYMR90~1\AppData\Local\Temp\ccEL7hUr.s:20624  .debug_str:000000000000608b .LASF214
C:\Users\CYMR90~1\AppData\Local\Temp\ccEL7hUr.s:24100  .debug_str:00000000000142e7 .LASF215
C:\Users\CYMR90~1\AppData\Local\Temp\ccEL7hUr.s:26033  .debug_str:000000000001c0fe .LASF216
C:\Users\CYMR90~1\AppData\Local\Temp\ccEL7hUr.s:26991  .debug_str:000000000001fd5b .LASF217
C:\Users\CYMR90~1\AppData\Local\Temp\ccEL7hUr.s:22998  .debug_str:000000000000fb3d .LASF218
C:\Users\CYMR90~1\AppData\Local\Temp\ccEL7hUr.s:28355  .debug_str:000000000002534e .LASF219
C:\Users\CYMR90~1\AppData\Local\Temp\ccEL7hUr.s:28169  .debug_str:0000000000024631 .LASF220
C:\Users\CYMR90~1\AppData\Local\Temp\ccEL7hUr.s:27703  .debug_str:00000000000228db .LASF221
C:\Users\CYMR90~1\AppData\Local\Temp\ccEL7hUr.s:24368  .debug_str:00000000000153e3 .LASF222
C:\Users\CYMR90~1\AppData\Local\Temp\ccEL7hUr.s:20594  .debug_str:0000000000005ec1 .LASF223
C:\Users\CYMR90~1\AppData\Local\Temp\ccEL7hUr.s:21254  .debug_str:0000000000008a73 .LASF224
C:\Users\CYMR90~1\AppData\Local\Temp\ccEL7hUr.s:29803  .debug_str:000000000002af07 .LASF225
C:\Users\CYMR90~1\AppData\Local\Temp\ccEL7hUr.s:22584  .debug_str:000000000000e1be .LASF226
C:\Users\CYMR90~1\AppData\Local\Temp\ccEL7hUr.s:26193  .debug_str:000000000001cb46 .LASF227
C:\Users\CYMR90~1\AppData\Local\Temp\ccEL7hUr.s:26043  .debug_str:000000000001c1a4 .LASF228
C:\Users\CYMR90~1\AppData\Local\Temp\ccEL7hUr.s:22528  .debug_str:000000000000ddff .LASF229
C:\Users\CYMR90~1\AppData\Local\Temp\ccEL7hUr.s:26765  .debug_str:000000000001efa6 .LASF230
C:\Users\CYMR90~1\AppData\Local\Temp\ccEL7hUr.s:21306  .debug_str:0000000000008ddb .LASF231
C:\Users\CYMR90~1\AppData\Local\Temp\ccEL7hUr.s:20636  .debug_str:0000000000006160 .LASF232
C:\Users\CYMR90~1\AppData\Local\Temp\ccEL7hUr.s:21206  .debug_str:0000000000008749 .LASF233
C:\Users\CYMR90~1\AppData\Local\Temp\ccEL7hUr.s:23190  .debug_str:000000000001070f .LASF234
C:\Users\CYMR90~1\AppData\Local\Temp\ccEL7hUr.s:22916  .debug_str:000000000000f5dc .LASF235
C:\Users\CYMR90~1\AppData\Local\Temp\ccEL7hUr.s:27921  .debug_str:00000000000235ff .LASF236
C:\Users\CYMR90~1\AppData\Local\Temp\ccEL7hUr.s:22938  .debug_str:000000000000f72d .LASF237
C:\Users\CYMR90~1\AppData\Local\Temp\ccEL7hUr.s:28575  .debug_str:00000000000261c1 .LASF238
C:\Users\CYMR90~1\AppData\Local\Temp\ccEL7hUr.s:27905  .debug_str:00000000000234d4 .LASF239
C:\Users\CYMR90~1\AppData\Local\Temp\ccEL7hUr.s:28135  .debug_str:000000000002440e .LASF240
C:\Users\CYMR90~1\AppData\Local\Temp\ccEL7hUr.s:21022  .debug_str:0000000000007a92 .LASF241
C:\Users\CYMR90~1\AppData\Local\Temp\ccEL7hUr.s:22606  .debug_str:000000000000e2f6 .LASF242
C:\Users\CYMR90~1\AppData\Local\Temp\ccEL7hUr.s:23580  .debug_str:00000000000120da .LASF243
C:\Users\CYMR90~1\AppData\Local\Temp\ccEL7hUr.s:27931  .debug_str:0000000000023677 .LASF244
C:\Users\CYMR90~1\AppData\Local\Temp\ccEL7hUr.s:23768  .debug_str:0000000000012d23 .LASF245
C:\Users\CYMR90~1\AppData\Local\Temp\ccEL7hUr.s:26777  .debug_str:000000000001f08b .LASF246
C:\Users\CYMR90~1\AppData\Local\Temp\ccEL7hUr.s:25127  .debug_str:00000000000184dd .LASF247
C:\Users\CYMR90~1\AppData\Local\Temp\ccEL7hUr.s:24644  .debug_str:00000000000164cd .LASF248
C:\Users\CYMR90~1\AppData\Local\Temp\ccEL7hUr.s:26133  .debug_str:000000000001c701 .LASF249
C:\Users\CYMR90~1\AppData\Local\Temp\ccEL7hUr.s:25517  .debug_str:0000000000019ed3 .LASF250
C:\Users\CYMR90~1\AppData\Local\Temp\ccEL7hUr.s:26065  .debug_str:000000000001c2f2 .LASF251
C:\Users\CYMR90~1\AppData\Local\Temp\ccEL7hUr.s:27751  .debug_str:0000000000022c23 .LASF252
C:\Users\CYMR90~1\AppData\Local\Temp\ccEL7hUr.s:22498  .debug_str:000000000000dc60 .LASF253
C:\Users\CYMR90~1\AppData\Local\Temp\ccEL7hUr.s:28427  .debug_str:00000000000258c8 .LASF254
C:\Users\CYMR90~1\AppData\Local\Temp\ccEL7hUr.s:22360  .debug_str:000000000000d38c .LASF255
C:\Users\CYMR90~1\AppData\Local\Temp\ccEL7hUr.s:25423  .debug_str:0000000000019923 .LASF256
C:\Users\CYMR90~1\AppData\Local\Temp\ccEL7hUr.s:22602  .debug_str:000000000000e2c4 .LASF257
C:\Users\CYMR90~1\AppData\Local\Temp\ccEL7hUr.s:26713  .debug_str:000000000001ec6c .LASF258
C:\Users\CYMR90~1\AppData\Local\Temp\ccEL7hUr.s:21810  .debug_str:000000000000ad6e .LASF259
C:\Users\CYMR90~1\AppData\Local\Temp\ccEL7hUr.s:19266  .debug_str:0000000000000a25 .LASF260
C:\Users\CYMR90~1\AppData\Local\Temp\ccEL7hUr.s:29541  .debug_str:0000000000029f6f .LASF261
C:\Users\CYMR90~1\AppData\Local\Temp\ccEL7hUr.s:29017  .debug_str:0000000000027de2 .LASF262
C:\Users\CYMR90~1\AppData\Local\Temp\ccEL7hUr.s:24072  .debug_str:00000000000140e3 .LASF263
C:\Users\CYMR90~1\AppData\Local\Temp\ccEL7hUr.s:26017  .debug_str:000000000001c011 .LASF264
C:\Users\CYMR90~1\AppData\Local\Temp\ccEL7hUr.s:23046  .debug_str:000000000000fe34 .LASF265
C:\Users\CYMR90~1\AppData\Local\Temp\ccEL7hUr.s:22530  .debug_str:000000000000de40 .LASF266
C:\Users\CYMR90~1\AppData\Local\Temp\ccEL7hUr.s:21860  .debug_str:000000000000b16f .LASF267
C:\Users\CYMR90~1\AppData\Local\Temp\ccEL7hUr.s:26119  .debug_str:000000000001c5ed .LASF268
C:\Users\CYMR90~1\AppData\Local\Temp\ccEL7hUr.s:22176  .debug_str:000000000000c706 .LASF269
C:\Users\CYMR90~1\AppData\Local\Temp\ccEL7hUr.s:23110  .debug_str:0000000000010275 .LASF270
C:\Users\CYMR90~1\AppData\Local\Temp\ccEL7hUr.s:24342  .debug_str:0000000000015230 .LASF271
C:\Users\CYMR90~1\AppData\Local\Temp\ccEL7hUr.s:28675  .debug_str:000000000002680a .LASF272
C:\Users\CYMR90~1\AppData\Local\Temp\ccEL7hUr.s:20792  .debug_str:0000000000006aee .LASF273
C:\Users\CYMR90~1\AppData\Local\Temp\ccEL7hUr.s:19716  .debug_str:0000000000002596 .LASF274
C:\Users\CYMR90~1\AppData\Local\Temp\ccEL7hUr.s:20882  .debug_str:0000000000007109 .LASF275
C:\Users\CYMR90~1\AppData\Local\Temp\ccEL7hUr.s:19976  .debug_str:00000000000036e0 .LASF276
C:\Users\CYMR90~1\AppData\Local\Temp\ccEL7hUr.s:22064  .debug_str:000000000000c002 .LASF277
C:\Users\CYMR90~1\AppData\Local\Temp\ccEL7hUr.s:19402  .debug_str:00000000000012a6 .LASF278
C:\Users\CYMR90~1\AppData\Local\Temp\ccEL7hUr.s:20716  .debug_str:000000000000661e .LASF279
C:\Users\CYMR90~1\AppData\Local\Temp\ccEL7hUr.s:29335  .debug_str:00000000000292f4 .LASF280
C:\Users\CYMR90~1\AppData\Local\Temp\ccEL7hUr.s:21570  .debug_str:0000000000009e59 .LASF281
C:\Users\CYMR90~1\AppData\Local\Temp\ccEL7hUr.s:20684  .debug_str:0000000000006462 .LASF282
C:\Users\CYMR90~1\AppData\Local\Temp\ccEL7hUr.s:20588  .debug_str:0000000000005e6f .LASF283
C:\Users\CYMR90~1\AppData\Local\Temp\ccEL7hUr.s:20352  .debug_str:0000000000005029 .LASF284
C:\Users\CYMR90~1\AppData\Local\Temp\ccEL7hUr.s:28233  .debug_str:0000000000024a86 .LASF285
C:\Users\CYMR90~1\AppData\Local\Temp\ccEL7hUr.s:29049  .debug_str:0000000000028079 .LASF286
C:\Users\CYMR90~1\AppData\Local\Temp\ccEL7hUr.s:29321  .debug_str:000000000002922e .LASF287
C:\Users\CYMR90~1\AppData\Local\Temp\ccEL7hUr.s:29235  .debug_str:0000000000028cc5 .LASF288
C:\Users\CYMR90~1\AppData\Local\Temp\ccEL7hUr.s:30071  .debug_str:000000000002c157 .LASF289
C:\Users\CYMR90~1\AppData\Local\Temp\ccEL7hUr.s:25071  .debug_str:0000000000018190 .LASF290
C:\Users\CYMR90~1\AppData\Local\Temp\ccEL7hUr.s:24124  .debug_str:000000000001444b .LASF291
C:\Users\CYMR90~1\AppData\Local\Temp\ccEL7hUr.s:28269  .debug_str:0000000000024cdf .LASF292
C:\Users\CYMR90~1\AppData\Local\Temp\ccEL7hUr.s:20002  .debug_str:00000000000038e2 .LASF293
C:\Users\CYMR90~1\AppData\Local\Temp\ccEL7hUr.s:27225  .debug_str:0000000000020c31 .LASF294
C:\Users\CYMR90~1\AppData\Local\Temp\ccEL7hUr.s:20274  .debug_str:0000000000004b4e .LASF295
C:\Users\CYMR90~1\AppData\Local\Temp\ccEL7hUr.s:29663  .debug_str:000000000002a701 .LASF296
C:\Users\CYMR90~1\AppData\Local\Temp\ccEL7hUr.s:29851  .debug_str:000000000002b25c .LASF297
C:\Users\CYMR90~1\AppData\Local\Temp\ccEL7hUr.s:24949  .debug_str:0000000000017a57 .LASF298
C:\Users\CYMR90~1\AppData\Local\Temp\ccEL7hUr.s:19250  .debug_str:000000000000091f .LASF299
C:\Users\CYMR90~1\AppData\Local\Temp\ccEL7hUr.s:23018  .debug_str:000000000000fc7e .LASF300
C:\Users\CYMR90~1\AppData\Local\Temp\ccEL7hUr.s:25695  .debug_str:000000000001ab90 .LASF301
C:\Users\CYMR90~1\AppData\Local\Temp\ccEL7hUr.s:24228  .debug_str:0000000000014aca .LASF302
C:\Users\CYMR90~1\AppData\Local\Temp\ccEL7hUr.s:23716  .debug_str:00000000000129e0 .LASF303
C:\Users\CYMR90~1\AppData\Local\Temp\ccEL7hUr.s:19638  .debug_str:00000000000020fb .LASF304
C:\Users\CYMR90~1\AppData\Local\Temp\ccEL7hUr.s:22184  .debug_str:000000000000c78a .LASF305
C:\Users\CYMR90~1\AppData\Local\Temp\ccEL7hUr.s:27431  .debug_str:00000000000218df .LASF306
C:\Users\CYMR90~1\AppData\Local\Temp\ccEL7hUr.s:23034  .debug_str:000000000000fd87 .LASF307
C:\Users\CYMR90~1\AppData\Local\Temp\ccEL7hUr.s:28253  .debug_str:0000000000024bca .LASF308
C:\Users\CYMR90~1\AppData\Local\Temp\ccEL7hUr.s:27873  .debug_str:00000000000232dd .LASF309
C:\Users\CYMR90~1\AppData\Local\Temp\ccEL7hUr.s:22586  .debug_str:000000000000e1d7 .LASF310
C:\Users\CYMR90~1\AppData\Local\Temp\ccEL7hUr.s:28571  .debug_str:0000000000026196 .LASF311
C:\Users\CYMR90~1\AppData\Local\Temp\ccEL7hUr.s:28089  .debug_str:00000000000240b3 .LASF312
C:\Users\CYMR90~1\AppData\Local\Temp\ccEL7hUr.s:22302  .debug_str:000000000000cf98 .LASF313
C:\Users\CYMR90~1\AppData\Local\Temp\ccEL7hUr.s:25213  .debug_str:0000000000018a55 .LASF315
C:\Users\CYMR90~1\AppData\Local\Temp\ccEL7hUr.s:25571  .debug_str:000000000001a1fd .LASF316
C:\Users\CYMR90~1\AppData\Local\Temp\ccEL7hUr.s:25909  .debug_str:000000000001b945 .LASF317
C:\Users\CYMR90~1\AppData\Local\Temp\ccEL7hUr.s:23026  .debug_str:000000000000fd1b .LASF318
C:\Users\CYMR90~1\AppData\Local\Temp\ccEL7hUr.s:21930  .debug_str:000000000000b617 .LASF319
C:\Users\CYMR90~1\AppData\Local\Temp\ccEL7hUr.s:29283  .debug_str:0000000000028ff9 .LASF320
C:\Users\CYMR90~1\AppData\Local\Temp\ccEL7hUr.s:22496  .debug_str:000000000000dc53 .LASF321
C:\Users\CYMR90~1\AppData\Local\Temp\ccEL7hUr.s:28521  .debug_str:0000000000025e5c .LASF322
C:\Users\CYMR90~1\AppData\Local\Temp\ccEL7hUr.s:19134  .debug_str:0000000000000230 .LASF323
C:\Users\CYMR90~1\AppData\Local\Temp\ccEL7hUr.s:29685  .debug_str:000000000002a836 .LASF324
C:\Users\CYMR90~1\AppData\Local\Temp\ccEL7hUr.s:20058  .debug_str:0000000000003c43 .LASF325
C:\Users\CYMR90~1\AppData\Local\Temp\ccEL7hUr.s:24060  .debug_str:0000000000014026 .LASF326
C:\Users\CYMR90~1\AppData\Local\Temp\ccEL7hUr.s:23718  .debug_str:00000000000129f5 .LASF327
C:\Users\CYMR90~1\AppData\Local\Temp\ccEL7hUr.s:26561  .debug_str:000000000001e375 .LASF328
C:\Users\CYMR90~1\AppData\Local\Temp\ccEL7hUr.s:26553  .debug_str:000000000001e324 .LASF329
C:\Users\CYMR90~1\AppData\Local\Temp\ccEL7hUr.s:28715  .debug_str:0000000000026a71 .LASF330
C:\Users\CYMR90~1\AppData\Local\Temp\ccEL7hUr.s:29263  .debug_str:0000000000028ea7 .LASF331
C:\Users\CYMR90~1\AppData\Local\Temp\ccEL7hUr.s:29445  .debug_str:00000000000299cd .LASF332
C:\Users\CYMR90~1\AppData\Local\Temp\ccEL7hUr.s:25545  .debug_str:000000000001a082 .LASF333
C:\Users\CYMR90~1\AppData\Local\Temp\ccEL7hUr.s:24993  .debug_str:0000000000017cee .LASF334
C:\Users\CYMR90~1\AppData\Local\Temp\ccEL7hUr.s:29303  .debug_str:0000000000029142 .LASF335
C:\Users\CYMR90~1\AppData\Local\Temp\ccEL7hUr.s:23642  .debug_str:00000000000124f6 .LASF336
C:\Users\CYMR90~1\AppData\Local\Temp\ccEL7hUr.s:27281  .debug_str:0000000000020f63 .LASF337
C:\Users\CYMR90~1\AppData\Local\Temp\ccEL7hUr.s:21682  .debug_str:000000000000a59d .LASF338
C:\Users\CYMR90~1\AppData\Local\Temp\ccEL7hUr.s:23856  .debug_str:0000000000013315 .LASF339
C:\Users\CYMR90~1\AppData\Local\Temp\ccEL7hUr.s:25745  .debug_str:000000000001aea2 .LASF340
C:\Users\CYMR90~1\AppData\Local\Temp\ccEL7hUr.s:21992  .debug_str:000000000000ba44 .LASF341
C:\Users\CYMR90~1\AppData\Local\Temp\ccEL7hUr.s:19384  .debug_str:00000000000011d2 .LASF342
C:\Users\CYMR90~1\AppData\Local\Temp\ccEL7hUr.s:29413  .debug_str:00000000000297e8 .LASF343
C:\Users\CYMR90~1\AppData\Local\Temp\ccEL7hUr.s:30011  .debug_str:000000000002bd2e .LASF344
C:\Users\CYMR90~1\AppData\Local\Temp\ccEL7hUr.s:22906  .debug_str:000000000000f554 .LASF345
C:\Users\CYMR90~1\AppData\Local\Temp\ccEL7hUr.s:19238  .debug_str:0000000000000868 .LASF346
C:\Users\CYMR90~1\AppData\Local\Temp\ccEL7hUr.s:27075  .debug_str:000000000002026f .LASF347
C:\Users\CYMR90~1\AppData\Local\Temp\ccEL7hUr.s:29027  .debug_str:0000000000027eb1 .LASF348
C:\Users\CYMR90~1\AppData\Local\Temp\ccEL7hUr.s:26555  .debug_str:000000000001e330 .LASF349
C:\Users\CYMR90~1\AppData\Local\Temp\ccEL7hUr.s:19172  .debug_str:0000000000000487 .LASF350
C:\Users\CYMR90~1\AppData\Local\Temp\ccEL7hUr.s:26847  .debug_str:000000000001f4dd .LASF351
C:\Users\CYMR90~1\AppData\Local\Temp\ccEL7hUr.s:28513  .debug_str:0000000000025df2 .LASF352
C:\Users\CYMR90~1\AppData\Local\Temp\ccEL7hUr.s:26179  .debug_str:000000000001ca94 .LASF353
C:\Users\CYMR90~1\AppData\Local\Temp\ccEL7hUr.s:26347  .debug_str:000000000001d5f6 .LASF354
C:\Users\CYMR90~1\AppData\Local\Temp\ccEL7hUr.s:22384  .debug_str:000000000000d5b0 .LASF355
C:\Users\CYMR90~1\AppData\Local\Temp\ccEL7hUr.s:25501  .debug_str:0000000000019e01 .LASF356
C:\Users\CYMR90~1\AppData\Local\Temp\ccEL7hUr.s:28937  .debug_str:0000000000027871 .LASF357
C:\Users\CYMR90~1\AppData\Local\Temp\ccEL7hUr.s:23708  .debug_str:0000000000012935 .LASF358
C:\Users\CYMR90~1\AppData\Local\Temp\ccEL7hUr.s:21778  .debug_str:000000000000ab8e .LASF359
C:\Users\CYMR90~1\AppData\Local\Temp\ccEL7hUr.s:26727  .debug_str:000000000001ed53 .LASF360
C:\Users\CYMR90~1\AppData\Local\Temp\ccEL7hUr.s:23450  .debug_str:00000000000117d3 .LASF361
C:\Users\CYMR90~1\AppData\Local\Temp\ccEL7hUr.s:29203  .debug_str:0000000000028b03 .LASF362
C:\Users\CYMR90~1\AppData\Local\Temp\ccEL7hUr.s:21334  .debug_str:0000000000008fbd .LASF363
C:\Users\CYMR90~1\AppData\Local\Temp\ccEL7hUr.s:29099  .debug_str:000000000002841d .LASF364
C:\Users\CYMR90~1\AppData\Local\Temp\ccEL7hUr.s:20752  .debug_str:00000000000068b4 .LASF365
C:\Users\CYMR90~1\AppData\Local\Temp\ccEL7hUr.s:23846  .debug_str:0000000000013251 .LASF366
C:\Users\CYMR90~1\AppData\Local\Temp\ccEL7hUr.s:21030  .debug_str:0000000000007b10 .LASF367
C:\Users\CYMR90~1\AppData\Local\Temp\ccEL7hUr.s:25039  .debug_str:0000000000017fb3 .LASF371
C:\Users\CYMR90~1\AppData\Local\Temp\ccEL7hUr.s:28755  .debug_str:0000000000026cea .LASF372
C:\Users\CYMR90~1\AppData\Local\Temp\ccEL7hUr.s:21760  .debug_str:000000000000aa5c .LASF373
C:\Users\CYMR90~1\AppData\Local\Temp\ccEL7hUr.s:24827  .debug_str:000000000001729b .LASF374
C:\Users\CYMR90~1\AppData\Local\Temp\ccEL7hUr.s:25025  .debug_str:0000000000017eeb .LASF375
C:\Users\CYMR90~1\AppData\Local\Temp\ccEL7hUr.s:27525  .debug_str:0000000000021eb9 .LASF376
C:\Users\CYMR90~1\AppData\Local\Temp\ccEL7hUr.s:26195  .debug_str:000000000001cb5f .LASF377
C:\Users\CYMR90~1\AppData\Local\Temp\ccEL7hUr.s:29843  .debug_str:000000000002b1e9 .LASF378
C:\Users\CYMR90~1\AppData\Local\Temp\ccEL7hUr.s:19732  .debug_str:00000000000026cd .LASF379
C:\Users\CYMR90~1\AppData\Local\Temp\ccEL7hUr.s:29785  .debug_str:000000000002ae1b .LASF380
C:\Users\CYMR90~1\AppData\Local\Temp\ccEL7hUr.s:25917  .debug_str:000000000001b996 .LASF381
C:\Users\CYMR90~1\AppData\Local\Temp\ccEL7hUr.s:20808  .debug_str:0000000000006bfb .LASF382
C:\Users\CYMR90~1\AppData\Local\Temp\ccEL7hUr.s:22154  .debug_str:000000000000c594 .LASF383
C:\Users\CYMR90~1\AppData\Local\Temp\ccEL7hUr.s:25439  .debug_str:0000000000019a40 .LASF384
C:\Users\CYMR90~1\AppData\Local\Temp\ccEL7hUr.s:23140  .debug_str:000000000001043f .LASF385
C:\Users\CYMR90~1\AppData\Local\Temp\ccEL7hUr.s:19664  .debug_str:000000000000229a .LASF386
C:\Users\CYMR90~1\AppData\Local\Temp\ccEL7hUr.s:22750  .debug_str:000000000000ec17 .LASF387
C:\Users\CYMR90~1\AppData\Local\Temp\ccEL7hUr.s:21304  .debug_str:0000000000008dc7 .LASF388
C:\Users\CYMR90~1\AppData\Local\Temp\ccEL7hUr.s:20146  .debug_str:0000000000004272 .LASF390
C:\Users\CYMR90~1\AppData\Local\Temp\ccEL7hUr.s:28039  .debug_str:0000000000023cf2 .LASF391
C:\Users\CYMR90~1\AppData\Local\Temp\ccEL7hUr.s:27175  .debug_str:0000000000020915 .LASF392
C:\Users\CYMR90~1\AppData\Local\Temp\ccEL7hUr.s:28893  .debug_str:00000000000275b3 .LASF393
C:\Users\CYMR90~1\AppData\Local\Temp\ccEL7hUr.s:19690  .debug_str:00000000000023f8 .LASF394
C:\Users\CYMR90~1\AppData\Local\Temp\ccEL7hUr.s:21804  .debug_str:000000000000ad0a .LASF395
C:\Users\CYMR90~1\AppData\Local\Temp\ccEL7hUr.s:25551  .debug_str:000000000001a0e2 .LASF396
C:\Users\CYMR90~1\AppData\Local\Temp\ccEL7hUr.s:29661  .debug_str:000000000002a6ef .LASF397
C:\Users\CYMR90~1\AppData\Local\Temp\ccEL7hUr.s:24394  .debug_str:000000000001555d .LASF398
C:\Users\CYMR90~1\AppData\Local\Temp\ccEL7hUr.s:26807  .debug_str:000000000001f256 .LASF399
C:\Users\CYMR90~1\AppData\Local\Temp\ccEL7hUr.s:21294  .debug_str:0000000000008cd2 .LASF400
C:\Users\CYMR90~1\AppData\Local\Temp\ccEL7hUr.s:24883  .debug_str:00000000000175fe .LASF401
C:\Users\CYMR90~1\AppData\Local\Temp\ccEL7hUr.s:20652  .debug_str:0000000000006261 .LASF402
C:\Users\CYMR90~1\AppData\Local\Temp\ccEL7hUr.s:21736  .debug_str:000000000000a8d0 .LASF403
C:\Users\CYMR90~1\AppData\Local\Temp\ccEL7hUr.s:22806  .debug_str:000000000000ef48 .LASF404
C:\Users\CYMR90~1\AppData\Local\Temp\ccEL7hUr.s:26103  .debug_str:000000000001c50d .LASF405
C:\Users\CYMR90~1\AppData\Local\Temp\ccEL7hUr.s:24322  .debug_str:0000000000015136 .LASF406
C:\Users\CYMR90~1\AppData\Local\Temp\ccEL7hUr.s:25285  .debug_str:0000000000018f47 .LASF407
C:\Users\CYMR90~1\AppData\Local\Temp\ccEL7hUr.s:27473  .debug_str:0000000000021b66 .LASF408
C:\Users\CYMR90~1\AppData\Local\Temp\ccEL7hUr.s:20606  .debug_str:0000000000005f7c .LASF409
C:\Users\CYMR90~1\AppData\Local\Temp\ccEL7hUr.s:24502  .debug_str:0000000000015b8d .LASF410
C:\Users\CYMR90~1\AppData\Local\Temp\ccEL7hUr.s:27595  .debug_str:00000000000222cc .LASF411
C:\Users\CYMR90~1\AppData\Local\Temp\ccEL7hUr.s:20784  .debug_str:0000000000006a95 .LASF412
C:\Users\CYMR90~1\AppData\Local\Temp\ccEL7hUr.s:29297  .debug_str:00000000000290db .LASF413
C:\Users\CYMR90~1\AppData\Local\Temp\ccEL7hUr.s:22908  .debug_str:000000000000f562 .LASF414
C:\Users\CYMR90~1\AppData\Local\Temp\ccEL7hUr.s:28631  .debug_str:0000000000026550 .LASF415
C:\Users\CYMR90~1\AppData\Local\Temp\ccEL7hUr.s:30135  .debug_str:000000000002c5ae .LASF416
C:\Users\CYMR90~1\AppData\Local\Temp\ccEL7hUr.s:21224  .debug_str:0000000000008872 .LASF417
C:\Users\CYMR90~1\AppData\Local\Temp\ccEL7hUr.s:29509  .debug_str:0000000000029d87 .LASF418
C:\Users\CYMR90~1\AppData\Local\Temp\ccEL7hUr.s:20852  .debug_str:0000000000006f05 .LASF419
C:\Users\CYMR90~1\AppData\Local\Temp\ccEL7hUr.s:29705  .debug_str:000000000002a94c .LASF420
C:\Users\CYMR90~1\AppData\Local\Temp\ccEL7hUr.s:22078  .debug_str:000000000000c0f6 .LASF421
C:\Users\CYMR90~1\AppData\Local\Temp\ccEL7hUr.s:22280  .debug_str:000000000000ce6e .LASF422
C:\Users\CYMR90~1\AppData\Local\Temp\ccEL7hUr.s:26707  .debug_str:000000000001ec2d .LASF423
C:\Users\CYMR90~1\AppData\Local\Temp\ccEL7hUr.s:25323  .debug_str:0000000000019272 .LASF424
C:\Users\CYMR90~1\AppData\Local\Temp\ccEL7hUr.s:19146  .debug_str:00000000000002f9 .LASF425
C:\Users\CYMR90~1\AppData\Local\Temp\ccEL7hUr.s:29209  .debug_str:0000000000028b60 .LASF426
C:\Users\CYMR90~1\AppData\Local\Temp\ccEL7hUr.s:24586  .debug_str:0000000000016176 .LASF427
C:\Users\CYMR90~1\AppData\Local\Temp\ccEL7hUr.s:26485  .debug_str:000000000001df31 .LASF428
C:\Users\CYMR90~1\AppData\Local\Temp\ccEL7hUr.s:23088  .debug_str:00000000000100ff .LASF429
C:\Users\CYMR90~1\AppData\Local\Temp\ccEL7hUr.s:24781  .debug_str:0000000000016ff2 .LASF430
C:\Users\CYMR90~1\AppData\Local\Temp\ccEL7hUr.s:27547  .debug_str:0000000000021fe3 .LASF431
C:\Users\CYMR90~1\AppData\Local\Temp\ccEL7hUr.s:22264  .debug_str:000000000000cd8e .LASF433
C:\Users\CYMR90~1\AppData\Local\Temp\ccEL7hUr.s:20328  .debug_str:0000000000004ea8 .LASF434
C:\Users\CYMR90~1\AppData\Local\Temp\ccEL7hUr.s:24967  .debug_str:0000000000017b69 .LASF435
C:\Users\CYMR90~1\AppData\Local\Temp\ccEL7hUr.s:20870  .debug_str:000000000000702e .LASF436
C:\Users\CYMR90~1\AppData\Local\Temp\ccEL7hUr.s:29225  .debug_str:0000000000028c30 .LASF437
C:\Users\CYMR90~1\AppData\Local\Temp\ccEL7hUr.s:19110  .debug_str:00000000000000c7 .LASF438
C:\Users\CYMR90~1\AppData\Local\Temp\ccEL7hUr.s:26743  .debug_str:000000000001ee54 .LASF439
C:\Users\CYMR90~1\AppData\Local\Temp\ccEL7hUr.s:22504  .debug_str:000000000000dcb8 .LASF440
C:\Users\CYMR90~1\AppData\Local\Temp\ccEL7hUr.s:27779  .debug_str:0000000000022db1 .LASF441
C:\Users\CYMR90~1\AppData\Local\Temp\ccEL7hUr.s:23380  .debug_str:0000000000011369 .LASF442
C:\Users\CYMR90~1\AppData\Local\Temp\ccEL7hUr.s:23218  .debug_str:0000000000010952 .LASF443
C:\Users\CYMR90~1\AppData\Local\Temp\ccEL7hUr.s:30129  .debug_str:000000000002c562 .LASF444
C:\Users\CYMR90~1\AppData\Local\Temp\ccEL7hUr.s:30069  .debug_str:000000000002c151 .LASF445
C:\Users\CYMR90~1\AppData\Local\Temp\ccEL7hUr.s:23566  .debug_str:000000000001200b .LASF446
C:\Users\CYMR90~1\AppData\Local\Temp\ccEL7hUr.s:27753  .debug_str:0000000000022c35 .LASF447
C:\Users\CYMR90~1\AppData\Local\Temp\ccEL7hUr.s:27249  .debug_str:0000000000020dbd .LASF448
C:\Users\CYMR90~1\AppData\Local\Temp\ccEL7hUr.s:20890  .debug_str:0000000000007197 .LASF449
C:\Users\CYMR90~1\AppData\Local\Temp\ccEL7hUr.s:19620  .debug_str:000000000000201f .LASF450
C:\Users\CYMR90~1\AppData\Local\Temp\ccEL7hUr.s:24236  .debug_str:0000000000014b6c .LASF451
C:\Users\CYMR90~1\AppData\Local\Temp\ccEL7hUr.s:19610  .debug_str:0000000000001fac .LASF452
C:\Users\CYMR90~1\AppData\Local\Temp\ccEL7hUr.s:30075  .debug_str:000000000002c197 .LASF453
C:\Users\CYMR90~1\AppData\Local\Temp\ccEL7hUr.s:22672  .debug_str:000000000000e6e2 .LASF454
C:\Users\CYMR90~1\AppData\Local\Temp\ccEL7hUr.s:27375  .debug_str:0000000000021561 .LASF455
C:\Users\CYMR90~1\AppData\Local\Temp\ccEL7hUr.s:22356  .debug_str:000000000000d36a .LASF456
C:\Users\CYMR90~1\AppData\Local\Temp\ccEL7hUr.s:20664  .debug_str:000000000000630e .LASF457
C:\Users\CYMR90~1\AppData\Local\Temp\ccEL7hUr.s:23284  .debug_str:0000000000010e1c .LASF458
C:\Users\CYMR90~1\AppData\Local\Temp\ccEL7hUr.s:27129  .debug_str:0000000000020659 .LASF459
C:\Users\CYMR90~1\AppData\Local\Temp\ccEL7hUr.s:28257  .debug_str:0000000000024c00 .LASF460
C:\Users\CYMR90~1\AppData\Local\Temp\ccEL7hUr.s:24744  .debug_str:0000000000016bee .LASF461
C:\Users\CYMR90~1\AppData\Local\Temp\ccEL7hUr.s:25601  .debug_str:000000000001a559 .LASF462
C:\Users\CYMR90~1\AppData\Local\Temp\ccEL7hUr.s:22520  .debug_str:000000000000dd84 .LASF463
C:\Users\CYMR90~1\AppData\Local\Temp\ccEL7hUr.s:23654  .debug_str:00000000000125c0 .LASF464
C:\Users\CYMR90~1\AppData\Local\Temp\ccEL7hUr.s:20802  .debug_str:0000000000006bb5 .LASF465
C:\Users\CYMR90~1\AppData\Local\Temp\ccEL7hUr.s:21352  .debug_str:00000000000090a0 .LASF466
C:\Users\CYMR90~1\AppData\Local\Temp\ccEL7hUr.s:23424  .debug_str:0000000000011621 .LASF467
C:\Users\CYMR90~1\AppData\Local\Temp\ccEL7hUr.s:19956  .debug_str:00000000000035c8 .LASF468
C:\Users\CYMR90~1\AppData\Local\Temp\ccEL7hUr.s:23182  .debug_str:000000000001068a .LASF469
C:\Users\CYMR90~1\AppData\Local\Temp\ccEL7hUr.s:23066  .debug_str:000000000000ff91 .LASF470
C:\Users\CYMR90~1\AppData\Local\Temp\ccEL7hUr.s:22646  .debug_str:000000000000e556 .LASF471
C:\Users\CYMR90~1\AppData\Local\Temp\ccEL7hUr.s:19322  .debug_str:0000000000000da1 .LASF472
C:\Users\CYMR90~1\AppData\Local\Temp\ccEL7hUr.s:20916  .debug_str:0000000000007398 .LASF473
C:\Users\CYMR90~1\AppData\Local\Temp\ccEL7hUr.s:19268  .debug_str:0000000000000a63 .LASF474
C:\Users\CYMR90~1\AppData\Local\Temp\ccEL7hUr.s:20124  .debug_str:0000000000004088 .LASF475
C:\Users\CYMR90~1\AppData\Local\Temp\ccEL7hUr.s:19490  .debug_str:0000000000001892 .LASF476
C:\Users\CYMR90~1\AppData\Local\Temp\ccEL7hUr.s:24530  .debug_str:0000000000015d99 .LASF477
C:\Users\CYMR90~1\AppData\Local\Temp\ccEL7hUr.s:21948  .debug_str:000000000000b77b .LASF478
C:\Users\CYMR90~1\AppData\Local\Temp\ccEL7hUr.s:29701  .debug_str:000000000002a91c .LASF479
C:\Users\CYMR90~1\AppData\Local\Temp\ccEL7hUr.s:25121  .debug_str:0000000000018483 .LASF480
C:\Users\CYMR90~1\AppData\Local\Temp\ccEL7hUr.s:21870  .debug_str:000000000000b204 .LASF481
C:\Users\CYMR90~1\AppData\Local\Temp\ccEL7hUr.s:20702  .debug_str:000000000000655e .LASF482
C:\Users\CYMR90~1\AppData\Local\Temp\ccEL7hUr.s:19234  .debug_str:0000000000000821 .LASF483
C:\Users\CYMR90~1\AppData\Local\Temp\ccEL7hUr.s:25069  .debug_str:000000000001816d .LASF484
C:\Users\CYMR90~1\AppData\Local\Temp\ccEL7hUr.s:20338  .debug_str:0000000000004f46 .LASF485
C:\Users\CYMR90~1\AppData\Local\Temp\ccEL7hUr.s:24002  .debug_str:0000000000013cc7 .LASF486
C:\Users\CYMR90~1\AppData\Local\Temp\ccEL7hUr.s:23206  .debug_str:00000000000108ae .LASF487
C:\Users\CYMR90~1\AppData\Local\Temp\ccEL7hUr.s:23772  .debug_str:0000000000012d85 .LASF488
C:\Users\CYMR90~1\AppData\Local\Temp\ccEL7hUr.s:22240  .debug_str:000000000000cc64 .LASF489
C:\Users\CYMR90~1\AppData\Local\Temp\ccEL7hUr.s:21222  .debug_str:0000000000008864 .LASF490
C:\Users\CYMR90~1\AppData\Local\Temp\ccEL7hUr.s:22866  .debug_str:000000000000f2d7 .LASF491
C:\Users\CYMR90~1\AppData\Local\Temp\ccEL7hUr.s:23172  .debug_str:000000000001060e .LASF492
C:\Users\CYMR90~1\AppData\Local\Temp\ccEL7hUr.s:23072  .debug_str:0000000000010005 .LASF493
C:\Users\CYMR90~1\AppData\Local\Temp\ccEL7hUr.s:25313  .debug_str:00000000000191d7 .LASF494
C:\Users\CYMR90~1\AppData\Local\Temp\ccEL7hUr.s:30153  .debug_str:000000000002c6bb .LASF495
C:\Users\CYMR90~1\AppData\Local\Temp\ccEL7hUr.s:30091  .debug_str:000000000002c2f1 .LASF496
C:\Users\CYMR90~1\AppData\Local\Temp\ccEL7hUr.s:22912  .debug_str:000000000000f5a9 .LASF497
C:\Users\CYMR90~1\AppData\Local\Temp\ccEL7hUr.s:29319  .debug_str:0000000000029209 .LASF498
C:\Users\CYMR90~1\AppData\Local\Temp\ccEL7hUr.s:29417  .debug_str:000000000002980b .LASF499
C:\Users\CYMR90~1\AppData\Local\Temp\ccEL7hUr.s:24200  .debug_str:0000000000014932 .LASF500
C:\Users\CYMR90~1\AppData\Local\Temp\ccEL7hUr.s:29373  .debug_str:000000000002957d .LASF501
C:\Users\CYMR90~1\AppData\Local\Temp\ccEL7hUr.s:24152  .debug_str:00000000000145cb .LASF502
C:\Users\CYMR90~1\AppData\Local\Temp\ccEL7hUr.s:19818  .debug_str:0000000000002c7a .LASF503
C:\Users\CYMR90~1\AppData\Local\Temp\ccEL7hUr.s:28029  .debug_str:0000000000023c2d .LASF504
C:\Users\CYMR90~1\AppData\Local\Temp\ccEL7hUr.s:28889  .debug_str:0000000000027578 .LASF505
C:\Users\CYMR90~1\AppData\Local\Temp\ccEL7hUr.s:28467  .debug_str:0000000000025b1d .LASF506
C:\Users\CYMR90~1\AppData\Local\Temp\ccEL7hUr.s:25235  .debug_str:0000000000018bae .LASF507
C:\Users\CYMR90~1\AppData\Local\Temp\ccEL7hUr.s:27463  .debug_str:0000000000021a8b .LASF508
C:\Users\CYMR90~1\AppData\Local\Temp\ccEL7hUr.s:29119  .debug_str:0000000000028581 .LASF509
C:\Users\CYMR90~1\AppData\Local\Temp\ccEL7hUr.s:25011  .debug_str:0000000000017de0 .LASF510
C:\Users\CYMR90~1\AppData\Local\Temp\ccEL7hUr.s:28743  .debug_str:0000000000026bf5 .LASF511
C:\Users\CYMR90~1\AppData\Local\Temp\ccEL7hUr.s:28861  .debug_str:00000000000273f0 .LASF512
C:\Users\CYMR90~1\AppData\Local\Temp\ccEL7hUr.s:29301  .debug_str:0000000000029107 .LASF513
C:\Users\CYMR90~1\AppData\Local\Temp\ccEL7hUr.s:23936  .debug_str:00000000000138bb .LASF514
C:\Users\CYMR90~1\AppData\Local\Temp\ccEL7hUr.s:29177  .debug_str:000000000002897d .LASF515
C:\Users\CYMR90~1\AppData\Local\Temp\ccEL7hUr.s:25379  .debug_str:00000000000195c7 .LASF516
C:\Users\CYMR90~1\AppData\Local\Temp\ccEL7hUr.s:29127  .debug_str:0000000000028635 .LASF517
C:\Users\CYMR90~1\AppData\Local\Temp\ccEL7hUr.s:26025  .debug_str:000000000001c079 .LASF518
C:\Users\CYMR90~1\AppData\Local\Temp\ccEL7hUr.s:30063  .debug_str:000000000002c0ef .LASF519
C:\Users\CYMR90~1\AppData\Local\Temp\ccEL7hUr.s:26291  .debug_str:000000000001d293 .LASF520
C:\Users\CYMR90~1\AppData\Local\Temp\ccEL7hUr.s:28377  .debug_str:00000000000254a9 .LASF521
C:\Users\CYMR90~1\AppData\Local\Temp\ccEL7hUr.s:23818  .debug_str:0000000000013069 .LASF522
C:\Users\CYMR90~1\AppData\Local\Temp\ccEL7hUr.s:27943  .debug_str:000000000002376d .LASF523
C:\Users\CYMR90~1\AppData\Local\Temp\ccEL7hUr.s:21434  .debug_str:0000000000009565 .LASF524
C:\Users\CYMR90~1\AppData\Local\Temp\ccEL7hUr.s:30083  .debug_str:000000000002c205 .LASF525
C:\Users\CYMR90~1\AppData\Local\Temp\ccEL7hUr.s:22680  .debug_str:000000000000e760 .LASF526
C:\Users\CYMR90~1\AppData\Local\Temp\ccEL7hUr.s:23678  .debug_str:000000000001273b .LASF527
C:\Users\CYMR90~1\AppData\Local\Temp\ccEL7hUr.s:24508  .debug_str:0000000000015bf1 .LASF528
C:\Users\CYMR90~1\AppData\Local\Temp\ccEL7hUr.s:24542  .debug_str:0000000000015e46 .LASF529
C:\Users\CYMR90~1\AppData\Local\Temp\ccEL7hUr.s:23604  .debug_str:00000000000122a4 .LASF530
C:\Users\CYMR90~1\AppData\Local\Temp\ccEL7hUr.s:19880  .debug_str:0000000000003054 .LASF531
C:\Users\CYMR90~1\AppData\Local\Temp\ccEL7hUr.s:22362  .debug_str:000000000000d3a4 .LASF532
C:\Users\CYMR90~1\AppData\Local\Temp\ccEL7hUr.s:29923  .debug_str:000000000002b720 .LASF533
C:\Users\CYMR90~1\AppData\Local\Temp\ccEL7hUr.s:22864  .debug_str:000000000000f28b .LASF534
C:\Users\CYMR90~1\AppData\Local\Temp\ccEL7hUr.s:28123  .debug_str:000000000002432e .LASF535
C:\Users\CYMR90~1\AppData\Local\Temp\ccEL7hUr.s:29575  .debug_str:000000000002a157 .LASF536
C:\Users\CYMR90~1\AppData\Local\Temp\ccEL7hUr.s:23440  .debug_str:000000000001171a .LASF537
C:\Users\CYMR90~1\AppData\Local\Temp\ccEL7hUr.s:28299  .debug_str:0000000000024ebc .LASF538
C:\Users\CYMR90~1\AppData\Local\Temp\ccEL7hUr.s:26085  .debug_str:000000000001c41c .LASF539
C:\Users\CYMR90~1\AppData\Local\Temp\ccEL7hUr.s:22456  .debug_str:000000000000da0c .LASF540
C:\Users\CYMR90~1\AppData\Local\Temp\ccEL7hUr.s:26379  .debug_str:000000000001d809 .LASF541
C:\Users\CYMR90~1\AppData\Local\Temp\ccEL7hUr.s:20228  .debug_str:00000000000047c6 .LASF542
C:\Users\CYMR90~1\AppData\Local\Temp\ccEL7hUr.s:22614  .debug_str:000000000000e35e .LASF543
C:\Users\CYMR90~1\AppData\Local\Temp\ccEL7hUr.s:29359  .debug_str:0000000000029490 .LASF544
C:\Users\CYMR90~1\AppData\Local\Temp\ccEL7hUr.s:23946  .debug_str:000000000001394a .LASF545
C:\Users\CYMR90~1\AppData\Local\Temp\ccEL7hUr.s:27649  .debug_str:00000000000225ae .LASF546
C:\Users\CYMR90~1\AppData\Local\Temp\ccEL7hUr.s:29839  .debug_str:000000000002b1a8 .LASF547
C:\Users\CYMR90~1\AppData\Local\Temp\ccEL7hUr.s:19928  .debug_str:00000000000033e0 .LASF548
C:\Users\CYMR90~1\AppData\Local\Temp\ccEL7hUr.s:21058  .debug_str:0000000000007ca3 .LASF549
C:\Users\CYMR90~1\AppData\Local\Temp\ccEL7hUr.s:28639  .debug_str:00000000000265b3 .LASF550
C:\Users\CYMR90~1\AppData\Local\Temp\ccEL7hUr.s:20632  .debug_str:0000000000006117 .LASF551
C:\Users\CYMR90~1\AppData\Local\Temp\ccEL7hUr.s:29593  .debug_str:000000000002a253 .LASF552
C:\Users\CYMR90~1\AppData\Local\Temp\ccEL7hUr.s:19894  .debug_str:000000000000315e .LASF553
C:\Users\CYMR90~1\AppData\Local\Temp\ccEL7hUr.s:22216  .debug_str:000000000000c9e8 .LASF554
C:\Users\CYMR90~1\AppData\Local\Temp\ccEL7hUr.s:20750  .debug_str:0000000000006861 .LASF555
C:\Users\CYMR90~1\AppData\Local\Temp\ccEL7hUr.s:20464  .debug_str:00000000000056b0 .LASF556
C:\Users\CYMR90~1\AppData\Local\Temp\ccEL7hUr.s:23552  .debug_str:0000000000011f30 .LASF557
C:\Users\CYMR90~1\AppData\Local\Temp\ccEL7hUr.s:25261  .debug_str:0000000000018dcf .LASF558
C:\Users\CYMR90~1\AppData\Local\Temp\ccEL7hUr.s:29167  .debug_str:00000000000288d5 .LASF559
C:\Users\CYMR90~1\AppData\Local\Temp\ccEL7hUr.s:22018  .debug_str:000000000000bbb0 .LASF560
C:\Users\CYMR90~1\AppData\Local\Temp\ccEL7hUr.s:23024  .debug_str:000000000000fcd0 .LASF561
C:\Users\CYMR90~1\AppData\Local\Temp\ccEL7hUr.s:22404  .debug_str:000000000000d6d6 .LASF562
C:\Users\CYMR90~1\AppData\Local\Temp\ccEL7hUr.s:21720  .debug_str:000000000000a7bb .LASF563
C:\Users\CYMR90~1\AppData\Local\Temp\ccEL7hUr.s:27401  .debug_str:00000000000216d7 .LASF564
C:\Users\CYMR90~1\AppData\Local\Temp\ccEL7hUr.s:26623  .debug_str:000000000001e716 .LASF565
C:\Users\CYMR90~1\AppData\Local\Temp\ccEL7hUr.s:23548  .debug_str:0000000000011ee8 .LASF566
C:\Users\CYMR90~1\AppData\Local\Temp\ccEL7hUr.s:20634  .debug_str:000000000000612b .LASF567
C:\Users\CYMR90~1\AppData\Local\Temp\ccEL7hUr.s:19294  .debug_str:0000000000000c2d .LASF569
C:\Users\CYMR90~1\AppData\Local\Temp\ccEL7hUr.s:24897  .debug_str:00000000000176cb .LASF570
C:\Users\CYMR90~1\AppData\Local\Temp\ccEL7hUr.s:26021  .debug_str:000000000001c053 .LASF573
C:\Users\CYMR90~1\AppData\Local\Temp\ccEL7hUr.s:20198  .debug_str:00000000000045ca .LASF574
C:\Users\CYMR90~1\AppData\Local\Temp\ccEL7hUr.s:24158  .debug_str:0000000000014655 .LASF575
C:\Users\CYMR90~1\AppData\Local\Temp\ccEL7hUr.s:21152  .debug_str:000000000000841e .LASF576
C:\Users\CYMR90~1\AppData\Local\Temp\ccEL7hUr.s:27303  .debug_str:0000000000021083 .LASF578
C:\Users\CYMR90~1\AppData\Local\Temp\ccEL7hUr.s:26497  .debug_str:000000000001dfea .LASF579
C:\Users\CYMR90~1\AppData\Local\Temp\ccEL7hUr.s:28027  .debug_str:0000000000023c24 .LASF580
C:\Users\CYMR90~1\AppData\Local\Temp\ccEL7hUr.s:20590  .debug_str:0000000000005e86 .LASF581
C:\Users\CYMR90~1\AppData\Local\Temp\ccEL7hUr.s:23166  .debug_str:00000000000105a4 .LASF582
C:\Users\CYMR90~1\AppData\Local\Temp\ccEL7hUr.s:19772  .debug_str:0000000000002997 .LASF583
C:\Users\CYMR90~1\AppData\Local\Temp\ccEL7hUr.s:29451  .debug_str:0000000000029a2c .LASF584
C:\Users\CYMR90~1\AppData\Local\Temp\ccEL7hUr.s:27693  .debug_str:000000000002285c .LASF585
C:\Users\CYMR90~1\AppData\Local\Temp\ccEL7hUr.s:25905  .debug_str:000000000001b923 .LASF586
C:\Users\CYMR90~1\AppData\Local\Temp\ccEL7hUr.s:21718  .debug_str:000000000000a7ab .LASF587
C:\Users\CYMR90~1\AppData\Local\Temp\ccEL7hUr.s:25173  .debug_str:0000000000018785 .LASF588
C:\Users\CYMR90~1\AppData\Local\Temp\ccEL7hUr.s:25547  .debug_str:000000000001a08b .LASF589
C:\Users\CYMR90~1\AppData\Local\Temp\ccEL7hUr.s:26371  .debug_str:000000000001d79d .LASF590
C:\Users\CYMR90~1\AppData\Local\Temp\ccEL7hUr.s:26161  .debug_str:000000000001c967 .LASF591
C:\Users\CYMR90~1\AppData\Local\Temp\ccEL7hUr.s:28015  .debug_str:0000000000023b81 .LASF592
C:\Users\CYMR90~1\AppData\Local\Temp\ccEL7hUr.s:23130  .debug_str:00000000000103a5 .LASF593
C:\Users\CYMR90~1\AppData\Local\Temp\ccEL7hUr.s:24000  .debug_str:0000000000013ca7 .LASF594
C:\Users\CYMR90~1\AppData\Local\Temp\ccEL7hUr.s:23732  .debug_str:0000000000012ae0 .LASF595
C:\Users\CYMR90~1\AppData\Local\Temp\ccEL7hUr.s:20918  .debug_str:00000000000073b7 .LASF596
C:\Users\CYMR90~1\AppData\Local\Temp\ccEL7hUr.s:28987  .debug_str:0000000000027c2c .LASF597
C:\Users\CYMR90~1\AppData\Local\Temp\ccEL7hUr.s:23894  .debug_str:000000000001360d .LASF598
C:\Users\CYMR90~1\AppData\Local\Temp\ccEL7hUr.s:26827  .debug_str:000000000001f387 .LASF599
C:\Users\CYMR90~1\AppData\Local\Temp\ccEL7hUr.s:26093  .debug_str:000000000001c488 .LASF600
C:\Users\CYMR90~1\AppData\Local\Temp\ccEL7hUr.s:28475  .debug_str:0000000000025bb0 .LASF601
C:\Users\CYMR90~1\AppData\Local\Temp\ccEL7hUr.s:29183  .debug_str:00000000000289df .LASF602
C:\Users\CYMR90~1\AppData\Local\Temp\ccEL7hUr.s:29075  .debug_str:00000000000282a0 .LASF603
C:\Users\CYMR90~1\AppData\Local\Temp\ccEL7hUr.s:23844  .debug_str:0000000000013239 .LASF604
C:\Users\CYMR90~1\AppData\Local\Temp\ccEL7hUr.s:27833  .debug_str:0000000000023091 .LASF605
C:\Users\CYMR90~1\AppData\Local\Temp\ccEL7hUr.s:21502  .debug_str:0000000000009a3c .LASF606
C:\Users\CYMR90~1\AppData\Local\Temp\ccEL7hUr.s:21014  .debug_str:00000000000079d0 .LASF607
C:\Users\CYMR90~1\AppData\Local\Temp\ccEL7hUr.s:21780  .debug_str:000000000000ab9c .LASF608
C:\Users\CYMR90~1\AppData\Local\Temp\ccEL7hUr.s:25941  .debug_str:000000000001bae8 .LASF609
C:\Users\CYMR90~1\AppData\Local\Temp\ccEL7hUr.s:20556  .debug_str:0000000000005c8d .LASF610
C:\Users\CYMR90~1\AppData\Local\Temp\ccEL7hUr.s:27619  .debug_str:0000000000022415 .LASF611
C:\Users\CYMR90~1\AppData\Local\Temp\ccEL7hUr.s:24376  .debug_str:000000000001543c .LASF612
C:\Users\CYMR90~1\AppData\Local\Temp\ccEL7hUr.s:21078  .debug_str:0000000000007e9d .LASF613
C:\Users\CYMR90~1\AppData\Local\Temp\ccEL7hUr.s:19196  .debug_str:00000000000005b8 .LASF614
C:\Users\CYMR90~1\AppData\Local\Temp\ccEL7hUr.s:24614  .debug_str:00000000000162fb .LASF615
C:\Users\CYMR90~1\AppData\Local\Temp\ccEL7hUr.s:25583  .debug_str:000000000001a2b9 .LASF616
C:\Users\CYMR90~1\AppData\Local\Temp\ccEL7hUr.s:24746  .debug_str:0000000000016bfd .LASF617
C:\Users\CYMR90~1\AppData\Local\Temp\ccEL7hUr.s:27701  .debug_str:00000000000228c1 .LASF618
C:\Users\CYMR90~1\AppData\Local\Temp\ccEL7hUr.s:22042  .debug_str:000000000000be9b .LASF619
C:\Users\CYMR90~1\AppData\Local\Temp\ccEL7hUr.s:20830  .debug_str:0000000000006d97 .LASF620
C:\Users\CYMR90~1\AppData\Local\Temp\ccEL7hUr.s:27893  .debug_str:0000000000023401 .LASF621
C:\Users\CYMR90~1\AppData\Local\Temp\ccEL7hUr.s:27003  .debug_str:000000000001fe4c .LASF622
C:\Users\CYMR90~1\AppData\Local\Temp\ccEL7hUr.s:28945  .debug_str:00000000000278f3 .LASF623
C:\Users\CYMR90~1\AppData\Local\Temp\ccEL7hUr.s:29549  .debug_str:0000000000029ff4 .LASF624
C:\Users\CYMR90~1\AppData\Local\Temp\ccEL7hUr.s:24068  .debug_str:0000000000014082 .LASF625
C:\Users\CYMR90~1\AppData\Local\Temp\ccEL7hUr.s:29805  .debug_str:000000000002af1e .LASF626
C:\Users\CYMR90~1\AppData\Local\Temp\ccEL7hUr.s:24466  .debug_str:000000000001595b .LASF627
C:\Users\CYMR90~1\AppData\Local\Temp\ccEL7hUr.s:27647  .debug_str:0000000000022576 .LASF628
C:\Users\CYMR90~1\AppData\Local\Temp\ccEL7hUr.s:21230  .debug_str:00000000000088e9 .LASF629
C:\Users\CYMR90~1\AppData\Local\Temp\ccEL7hUr.s:22442  .debug_str:000000000000d925 .LASF630
C:\Users\CYMR90~1\AppData\Local\Temp\ccEL7hUr.s:27609  .debug_str:0000000000022375 .LASF631
C:\Users\CYMR90~1\AppData\Local\Temp\ccEL7hUr.s:22160  .debug_str:000000000000c5f5 .LASF632
C:\Users\CYMR90~1\AppData\Local\Temp\ccEL7hUr.s:19284  .debug_str:0000000000000b96 .LASF633
C:\Users\CYMR90~1\AppData\Local\Temp\ccEL7hUr.s:25491  .debug_str:0000000000019d5d .LASF634
C:\Users\CYMR90~1\AppData\Local\Temp\ccEL7hUr.s:24668  .debug_str:0000000000016696 .LASF635
C:\Users\CYMR90~1\AppData\Local\Temp\ccEL7hUr.s:26261  .debug_str:000000000001d0d9 .LASF636
C:\Users\CYMR90~1\AppData\Local\Temp\ccEL7hUr.s:19994  .debug_str:000000000000383b .LASF637
C:\Users\CYMR90~1\AppData\Local\Temp\ccEL7hUr.s:23500  .debug_str:0000000000011c16 .LASF638
C:\Users\CYMR90~1\AppData\Local\Temp\ccEL7hUr.s:21090  .debug_str:0000000000007f45 .LASF639
C:\Users\CYMR90~1\AppData\Local\Temp\ccEL7hUr.s:23714  .debug_str:00000000000129a4 .LASF640
C:\Users\CYMR90~1\AppData\Local\Temp\ccEL7hUr.s:21938  .debug_str:000000000000b691 .LASF641
C:\Users\CYMR90~1\AppData\Local\Temp\ccEL7hUr.s:28925  .debug_str:0000000000027769 .LASF642
C:\Users\CYMR90~1\AppData\Local\Temp\ccEL7hUr.s:22318  .debug_str:000000000000d0c9 .LASF643
C:\Users\CYMR90~1\AppData\Local\Temp\ccEL7hUr.s:20170  .debug_str:00000000000043c0 .LASF644
C:\Users\CYMR90~1\AppData\Local\Temp\ccEL7hUr.s:20976  .debug_str:000000000000773f .LASF645
C:\Users\CYMR90~1\AppData\Local\Temp\ccEL7hUr.s:19920  .debug_str:000000000000335d .LASF646
C:\Users\CYMR90~1\AppData\Local\Temp\ccEL7hUr.s:20284  .debug_str:0000000000004bd8 .LASF647
C:\Users\CYMR90~1\AppData\Local\Temp\ccEL7hUr.s:29449  .debug_str:00000000000299ed .LASF648
C:\Users\CYMR90~1\AppData\Local\Temp\ccEL7hUr.s:23420  .debug_str:00000000000115ae .LASF649
C:\Users\CYMR90~1\AppData\Local\Temp\ccEL7hUr.s:29565  .debug_str:000000000002a0ce .LASF650
C:\Users\CYMR90~1\AppData\Local\Temp\ccEL7hUr.s:23032  .debug_str:000000000000fd6d .LASF651
C:\Users\CYMR90~1\AppData\Local\Temp\ccEL7hUr.s:19176  .debug_str:00000000000004a7 .LASF652
C:\Users\CYMR90~1\AppData\Local\Temp\ccEL7hUr.s:29789  .debug_str:000000000002ae46 .LASF653
C:\Users\CYMR90~1\AppData\Local\Temp\ccEL7hUr.s:21322  .debug_str:0000000000008f07 .LASF654
C:\Users\CYMR90~1\AppData\Local\Temp\ccEL7hUr.s:29003  .debug_str:0000000000027d24 .LASF655
C:\Users\CYMR90~1\AppData\Local\Temp\ccEL7hUr.s:19228  .debug_str:00000000000007df .LASF656
C:\Users\CYMR90~1\AppData\Local\Temp\ccEL7hUr.s:29615  .debug_str:000000000002a3db .LASF657
C:\Users\CYMR90~1\AppData\Local\Temp\ccEL7hUr.s:23810  .debug_str:0000000000013004 .LASF658
C:\Users\CYMR90~1\AppData\Local\Temp\ccEL7hUr.s:26191  .debug_str:000000000001cb33 .LASF659
C:\Users\CYMR90~1\AppData\Local\Temp\ccEL7hUr.s:25485  .debug_str:0000000000019d1b .LASF660
C:\Users\CYMR90~1\AppData\Local\Temp\ccEL7hUr.s:26853  .debug_str:000000000001f528 .LASF661
C:\Users\CYMR90~1\AppData\Local\Temp\ccEL7hUr.s:28785  .debug_str:0000000000026eb8 .LASF662
C:\Users\CYMR90~1\AppData\Local\Temp\ccEL7hUr.s:23398  .debug_str:000000000001146f .LASF663
C:\Users\CYMR90~1\AppData\Local\Temp\ccEL7hUr.s:23390  .debug_str:0000000000011411 .LASF664
C:\Users\CYMR90~1\AppData\Local\Temp\ccEL7hUr.s:25269  .debug_str:0000000000018e88 .LASF665
C:\Users\CYMR90~1\AppData\Local\Temp\ccEL7hUr.s:20570  .debug_str:0000000000005d65 .LASF666
C:\Users\CYMR90~1\AppData\Local\Temp\ccEL7hUr.s:30279  .debug_str:000000000002cf52 .LASF667
C:\Users\CYMR90~1\AppData\Local\Temp\ccEL7hUr.s:20942  .debug_str:000000000000751d .LASF668
C:\Users\CYMR90~1\AppData\Local\Temp\ccEL7hUr.s:27495  .debug_str:0000000000021cb4 .LASF669
C:\Users\CYMR90~1\AppData\Local\Temp\ccEL7hUr.s:23792  .debug_str:0000000000012ee1 .LASF670
C:\Users\CYMR90~1\AppData\Local\Temp\ccEL7hUr.s:26905  .debug_str:000000000001f803 .LASF671
C:\Users\CYMR90~1\AppData\Local\Temp\ccEL7hUr.s:27623  .debug_str:0000000000022446 .LASF672
C:\Users\CYMR90~1\AppData\Local\Temp\ccEL7hUr.s:19556  .debug_str:0000000000001c8a .LASF673
C:\Users\CYMR90~1\AppData\Local\Temp\ccEL7hUr.s:24452  .debug_str:000000000001587c .LASF675
C:\Users\CYMR90~1\AppData\Local\Temp\ccEL7hUr.s:28045  .debug_str:0000000000023d49 .LASF676
C:\Users\CYMR90~1\AppData\Local\Temp\ccEL7hUr.s:25503  .debug_str:0000000000019e0d .LASF677
C:\Users\CYMR90~1\AppData\Local\Temp\ccEL7hUr.s:28143  .debug_str:00000000000244ac .LASF678
C:\Users\CYMR90~1\AppData\Local\Temp\ccEL7hUr.s:26619  .debug_str:000000000001e6ea .LASF679
C:\Users\CYMR90~1\AppData\Local\Temp\ccEL7hUr.s:29463  .debug_str:0000000000029aea .LASF680
C:\Users\CYMR90~1\AppData\Local\Temp\ccEL7hUr.s:20172  .debug_str:00000000000043fe .LASF681
C:\Users\CYMR90~1\AppData\Local\Temp\ccEL7hUr.s:20096  .debug_str:0000000000003ea7 .LASF682
C:\Users\CYMR90~1\AppData\Local\Temp\ccEL7hUr.s:21460  .debug_str:0000000000009736 .LASF683
C:\Users\CYMR90~1\AppData\Local\Temp\ccEL7hUr.s:25945  .debug_str:000000000001bb15 .LASF684
C:\Users\CYMR90~1\AppData\Local\Temp\ccEL7hUr.s:27359  .debug_str:0000000000021459 .LASF685
C:\Users\CYMR90~1\AppData\Local\Temp\ccEL7hUr.s:24724  .debug_str:0000000000016a2e .LASF686
C:\Users\CYMR90~1\AppData\Local\Temp\ccEL7hUr.s:23320  .debug_str:0000000000010fed .LASF687
C:\Users\CYMR90~1\AppData\Local\Temp\ccEL7hUr.s:19974  .debug_str:00000000000036c6 .LASF688
C:\Users\CYMR90~1\AppData\Local\Temp\ccEL7hUr.s:20836  .debug_str:0000000000006e16 .LASF689
C:\Users\CYMR90~1\AppData\Local\Temp\ccEL7hUr.s:23662  .debug_str:0000000000012634 .LASF690
C:\Users\CYMR90~1\AppData\Local\Temp\ccEL7hUr.s:24490  .debug_str:0000000000015ac5 .LASF691
C:\Users\CYMR90~1\AppData\Local\Temp\ccEL7hUr.s:20536  .debug_str:0000000000005b66 .LASF694
C:\Users\CYMR90~1\AppData\Local\Temp\ccEL7hUr.s:24895  .debug_str:00000000000176b4 .LASF695
C:\Users\CYMR90~1\AppData\Local\Temp\ccEL7hUr.s:22346  .debug_str:000000000000d2a2 .LASF696
C:\Users\CYMR90~1\AppData\Local\Temp\ccEL7hUr.s:25915  .debug_str:000000000001b984 .LASF697
C:\Users\CYMR90~1\AppData\Local\Temp\ccEL7hUr.s:28083  .debug_str:0000000000023f72 .LASF698
C:\Users\CYMR90~1\AppData\Local\Temp\ccEL7hUr.s:24232  .debug_str:0000000000014ae9 .LASF701
C:\Users\CYMR90~1\AppData\Local\Temp\ccEL7hUr.s:21482  .debug_str:000000000000988d .LASF702
C:\Users\CYMR90~1\AppData\Local\Temp\ccEL7hUr.s:26797  .debug_str:000000000001f1c6 .LASF703
C:\Users\CYMR90~1\AppData\Local\Temp\ccEL7hUr.s:20360  .debug_str:0000000000005086 .LASF704
C:\Users\CYMR90~1\AppData\Local\Temp\ccEL7hUr.s:24554  .debug_str:0000000000015f33 .LASF705
C:\Users\CYMR90~1\AppData\Local\Temp\ccEL7hUr.s:22910  .debug_str:000000000000f583 .LASF706
C:\Users\CYMR90~1\AppData\Local\Temp\ccEL7hUr.s:29199  .debug_str:0000000000028ad7 .LASF707
C:\Users\CYMR90~1\AppData\Local\Temp\ccEL7hUr.s:28445  .debug_str:00000000000259cd .LASF708
C:\Users\CYMR90~1\AppData\Local\Temp\ccEL7hUr.s:22558  .debug_str:000000000000e04c .LASF709
C:\Users\CYMR90~1\AppData\Local\Temp\ccEL7hUr.s:23070  .debug_str:000000000000ffd2 .LASF710
C:\Users\CYMR90~1\AppData\Local\Temp\ccEL7hUr.s:24698  .debug_str:000000000001683c .LASF711
C:\Users\CYMR90~1\AppData\Local\Temp\ccEL7hUr.s:21714  .debug_str:000000000000a751 .LASF712
C:\Users\CYMR90~1\AppData\Local\Temp\ccEL7hUr.s:30005  .debug_str:000000000002bcaf .LASF713
C:\Users\CYMR90~1\AppData\Local\Temp\ccEL7hUr.s:21074  .debug_str:0000000000007e38 .LASF714
C:\Users\CYMR90~1\AppData\Local\Temp\ccEL7hUr.s:21976  .debug_str:000000000000b901 .LASF715
C:\Users\CYMR90~1\AppData\Local\Temp\ccEL7hUr.s:27021  .debug_str:000000000001ff84 .LASF716
C:\Users\CYMR90~1\AppData\Local\Temp\ccEL7hUr.s:28403  .debug_str:00000000000256c9 .LASF717
C:\Users\CYMR90~1\AppData\Local\Temp\ccEL7hUr.s:28185  .debug_str:0000000000024723 .LASF718
C:\Users\CYMR90~1\AppData\Local\Temp\ccEL7hUr.s:25207  .debug_str:0000000000018a03 .LASF719
C:\Users\CYMR90~1\AppData\Local\Temp\ccEL7hUr.s:19614  .debug_str:0000000000001fe1 .LASF720
C:\Users\CYMR90~1\AppData\Local\Temp\ccEL7hUr.s:27133  .debug_str:000000000002068d .LASF721
C:\Users\CYMR90~1\AppData\Local\Temp\ccEL7hUr.s:26105  .debug_str:000000000001c51d .LASF722
C:\Users\CYMR90~1\AppData\Local\Temp\ccEL7hUr.s:26673  .debug_str:000000000001ea64 .LASF723
C:\Users\CYMR90~1\AppData\Local\Temp\ccEL7hUr.s:27601  .debug_str:0000000000022323 .LASF724
C:\Users\CYMR90~1\AppData\Local\Temp\ccEL7hUr.s:23910  .debug_str:0000000000013719 .LASF725
C:\Users\CYMR90~1\AppData\Local\Temp\ccEL7hUr.s:21708  .debug_str:000000000000a6f7 .LASF726
C:\Users\CYMR90~1\AppData\Local\Temp\ccEL7hUr.s:28539  .debug_str:0000000000025fb3 .LASF727
C:\Users\CYMR90~1\AppData\Local\Temp\ccEL7hUr.s:26911  .debug_str:000000000001f881 .LASF728
C:\Users\CYMR90~1\AppData\Local\Temp\ccEL7hUr.s:25389  .debug_str:0000000000019662 .LASF729
C:\Users\CYMR90~1\AppData\Local\Temp\ccEL7hUr.s:23882  .debug_str:0000000000013545 .LASF730
C:\Users\CYMR90~1\AppData\Local\Temp\ccEL7hUr.s:28477  .debug_str:0000000000025beb .LASF731
C:\Users\CYMR90~1\AppData\Local\Temp\ccEL7hUr.s:30207  .debug_str:000000000002ca85 .LASF732
C:\Users\CYMR90~1\AppData\Local\Temp\ccEL7hUr.s:23374  .debug_str:000000000001130b .LASF733
C:\Users\CYMR90~1\AppData\Local\Temp\ccEL7hUr.s:23296  .debug_str:0000000000010eaa .LASF734
C:\Users\CYMR90~1\AppData\Local\Temp\ccEL7hUr.s:30139  .debug_str:000000000002c5cf .LASF735
C:\Users\CYMR90~1\AppData\Local\Temp\ccEL7hUr.s:22288  .debug_str:000000000000cecd .LASF736
C:\Users\CYMR90~1\AppData\Local\Temp\ccEL7hUr.s:26259  .debug_str:000000000001d0c8 .LASF737
C:\Users\CYMR90~1\AppData\Local\Temp\ccEL7hUr.s:29891  .debug_str:000000000002b50b .LASF738
C:\Users\CYMR90~1\AppData\Local\Temp\ccEL7hUr.s:19522  .debug_str:0000000000001a6d .LASF739
C:\Users\CYMR90~1\AppData\Local\Temp\ccEL7hUr.s:22222  .debug_str:000000000000ca58 .LASF740
C:\Users\CYMR90~1\AppData\Local\Temp\ccEL7hUr.s:19500  .debug_str:0000000000001933 .LASF741
C:\Users\CYMR90~1\AppData\Local\Temp\ccEL7hUr.s:23332  .debug_str:000000000001107d .LASF742
C:\Users\CYMR90~1\AppData\Local\Temp\ccEL7hUr.s:19960  .debug_str:0000000000003605 .LASF743
C:\Users\CYMR90~1\AppData\Local\Temp\ccEL7hUr.s:21332  .debug_str:0000000000008fa8 .LASF744
C:\Users\CYMR90~1\AppData\Local\Temp\ccEL7hUr.s:27613  .debug_str:00000000000223c4 .LASF745
C:\Users\CYMR90~1\AppData\Local\Temp\ccEL7hUr.s:19398  .debug_str:0000000000001277 .LASF746
C:\Users\CYMR90~1\AppData\Local\Temp\ccEL7hUr.s:19388  .debug_str:00000000000011f5 .LASF747
C:\Users\CYMR90~1\AppData\Local\Temp\ccEL7hUr.s:20516  .debug_str:00000000000059ed .LASF749
C:\Users\CYMR90~1\AppData\Local\Temp\ccEL7hUr.s:23248  .debug_str:0000000000010b05 .LASF750
C:\Users\CYMR90~1\AppData\Local\Temp\ccEL7hUr.s:29355  .debug_str:000000000002944e .LASF751
C:\Users\CYMR90~1\AppData\Local\Temp\ccEL7hUr.s:23188  .debug_str:0000000000010704 .LASF752
C:\Users\CYMR90~1\AppData\Local\Temp\ccEL7hUr.s:20402  .debug_str:0000000000005324 .LASF753
C:\Users\CYMR90~1\AppData\Local\Temp\ccEL7hUr.s:21960  .debug_str:000000000000b81b .LASF754
C:\Users\CYMR90~1\AppData\Local\Temp\ccEL7hUr.s:25465  .debug_str:0000000000019beb .LASF755
C:\Users\CYMR90~1\AppData\Local\Temp\ccEL7hUr.s:21470  .debug_str:00000000000097e5 .LASF756
C:\Users\CYMR90~1\AppData\Local\Temp\ccEL7hUr.s:28429  .debug_str:00000000000258e5 .LASF757
C:\Users\CYMR90~1\AppData\Local\Temp\ccEL7hUr.s:30241  .debug_str:000000000002cd10 .LASF758
C:\Users\CYMR90~1\AppData\Local\Temp\ccEL7hUr.s:25833  .debug_str:000000000001b4a0 .LASF759
C:\Users\CYMR90~1\AppData\Local\Temp\ccEL7hUr.s:29987  .debug_str:000000000002bb69 .LASF760
C:\Users\CYMR90~1\AppData\Local\Temp\ccEL7hUr.s:21888  .debug_str:000000000000b2e5 .LASF761
C:\Users\CYMR90~1\AppData\Local\Temp\ccEL7hUr.s:25841  .debug_str:000000000001b534 .LASF764
C:\Users\CYMR90~1\AppData\Local\Temp\ccEL7hUr.s:24524  .debug_str:0000000000015cfa .LASF765
C:\Users\CYMR90~1\AppData\Local\Temp\ccEL7hUr.s:27505  .debug_str:0000000000021d52 .LASF766
C:\Users\CYMR90~1\AppData\Local\Temp\ccEL7hUr.s:24514  .debug_str:0000000000015c8a .LASF767
C:\Users\CYMR90~1\AppData\Local\Temp\ccEL7hUr.s:19760  .debug_str:00000000000028d6 .LASF768
C:\Users\CYMR90~1\AppData\Local\Temp\ccEL7hUr.s:25961  .debug_str:000000000001bc58 .LASF769
C:\Users\CYMR90~1\AppData\Local\Temp\ccEL7hUr.s:24610  .debug_str:00000000000162d5 .LASF770
C:\Users\CYMR90~1\AppData\Local\Temp\ccEL7hUr.s:28151  .debug_str:000000000002451a .LASF771
C:\Users\CYMR90~1\AppData\Local\Temp\ccEL7hUr.s:27791  .debug_str:0000000000022e54 .LASF772
C:\Users\CYMR90~1\AppData\Local\Temp\ccEL7hUr.s:26277  .debug_str:000000000001d1cc .LASF773
C:\Users\CYMR90~1\AppData\Local\Temp\ccEL7hUr.s:28479  .debug_str:0000000000025c01 .LASF774
C:\Users\CYMR90~1\AppData\Local\Temp\ccEL7hUr.s:21612  .debug_str:000000000000a11a .LASF775
C:\Users\CYMR90~1\AppData\Local\Temp\ccEL7hUr.s:21628  .debug_str:000000000000a21e .LASF776
C:\Users\CYMR90~1\AppData\Local\Temp\ccEL7hUr.s:26609  .debug_str:000000000001e649 .LASF777
C:\Users\CYMR90~1\AppData\Local\Temp\ccEL7hUr.s:23132  .debug_str:00000000000103cd .LASF778
C:\Users\CYMR90~1\AppData\Local\Temp\ccEL7hUr.s:26861  .debug_str:000000000001f59d .LASF779
C:\Users\CYMR90~1\AppData\Local\Temp\ccEL7hUr.s:27501  .debug_str:0000000000021d19 .LASF780
C:\Users\CYMR90~1\AppData\Local\Temp\ccEL7hUr.s:23614  .debug_str:000000000001234b .LASF781
C:\Users\CYMR90~1\AppData\Local\Temp\ccEL7hUr.s:24732  .debug_str:0000000000016b51 .LASF782
C:\Users\CYMR90~1\AppData\Local\Temp\ccEL7hUr.s:23516  .debug_str:0000000000011d14 .LASF783
C:\Users\CYMR90~1\AppData\Local\Temp\ccEL7hUr.s:22814  .debug_str:000000000000efb9 .LASF784
C:\Users\CYMR90~1\AppData\Local\Temp\ccEL7hUr.s:27861  .debug_str:000000000002321b .LASF785
C:\Users\CYMR90~1\AppData\Local\Temp\ccEL7hUr.s:24246  .debug_str:0000000000014c0e .LASF786
C:\Users\CYMR90~1\AppData\Local\Temp\ccEL7hUr.s:26541  .debug_str:000000000001e26b .LASF787
C:\Users\CYMR90~1\AppData\Local\Temp\ccEL7hUr.s:22992  .debug_str:000000000000faeb .LASF788
C:\Users\CYMR90~1\AppData\Local\Temp\ccEL7hUr.s:20450  .debug_str:00000000000055ff .LASF789
C:\Users\CYMR90~1\AppData\Local\Temp\ccEL7hUr.s:28829  .debug_str:000000000002720b .LASF790
C:\Users\CYMR90~1\AppData\Local\Temp\ccEL7hUr.s:21196  .debug_str:00000000000086c3 .LASF791
C:\Users\CYMR90~1\AppData\Local\Temp\ccEL7hUr.s:30213  .debug_str:000000000002cad3 .LASF792
C:\Users\CYMR90~1\AppData\Local\Temp\ccEL7hUr.s:20986  .debug_str:0000000000007813 .LASF793
C:\Users\CYMR90~1\AppData\Local\Temp\ccEL7hUr.s:29081  .debug_str:00000000000282ff .LASF794
C:\Users\CYMR90~1\AppData\Local\Temp\ccEL7hUr.s:27107  .debug_str:0000000000020499 .LASF795
C:\Users\CYMR90~1\AppData\Local\Temp\ccEL7hUr.s:29781  .debug_str:000000000002adf5 .LASF796
C:\Users\CYMR90~1\AppData\Local\Temp\ccEL7hUr.s:20820  .debug_str:0000000000006cf4 .LASF797
C:\Users\CYMR90~1\AppData\Local\Temp\ccEL7hUr.s:29143  .debug_str:000000000002875d .LASF798
C:\Users\CYMR90~1\AppData\Local\Temp\ccEL7hUr.s:20416  .debug_str:00000000000053f0 .LASF799
C:\Users\CYMR90~1\AppData\Local\Temp\ccEL7hUr.s:25603  .debug_str:000000000001a566 .LASF800
C:\Users\CYMR90~1\AppData\Local\Temp\ccEL7hUr.s:25631  .debug_str:000000000001a715 .LASF801
C:\Users\CYMR90~1\AppData\Local\Temp\ccEL7hUr.s:21532  .debug_str:0000000000009c14 .LASF802
C:\Users\CYMR90~1\AppData\Local\Temp\ccEL7hUr.s:24008  .debug_str:0000000000013d0d .LASF803
C:\Users\CYMR90~1\AppData\Local\Temp\ccEL7hUr.s:20834  .debug_str:0000000000006dbb .LASF804
C:\Users\CYMR90~1\AppData\Local\Temp\ccEL7hUr.s:23470  .debug_str:0000000000011986 .LASF805
C:\Users\CYMR90~1\AppData\Local\Temp\ccEL7hUr.s:26563  .debug_str:000000000001e381 .LASF806
C:\Users\CYMR90~1\AppData\Local\Temp\ccEL7hUr.s:26157  .debug_str:000000000001c917 .LASF807
C:\Users\CYMR90~1\AppData\Local\Temp\ccEL7hUr.s:28549  .debug_str:000000000002604a .LASF808
C:\Users\CYMR90~1\AppData\Local\Temp\ccEL7hUr.s:29991  .debug_str:000000000002bbbe .LASF809
C:\Users\CYMR90~1\AppData\Local\Temp\ccEL7hUr.s:21220  .debug_str:000000000000882b .LASF810
C:\Users\CYMR90~1\AppData\Local\Temp\ccEL7hUr.s:20154  .debug_str:00000000000042ea .LASF811
C:\Users\CYMR90~1\AppData\Local\Temp\ccEL7hUr.s:30025  .debug_str:000000000002be72 .LASF812
C:\Users\CYMR90~1\AppData\Local\Temp\ccEL7hUr.s:20512  .debug_str:00000000000059c6 .LASF813
C:\Users\CYMR90~1\AppData\Local\Temp\ccEL7hUr.s:20732  .debug_str:0000000000006726 .LASF814
C:\Users\CYMR90~1\AppData\Local\Temp\ccEL7hUr.s:25929  .debug_str:000000000001ba42 .LASF815
C:\Users\CYMR90~1\AppData\Local\Temp\ccEL7hUr.s:21398  .debug_str:000000000000935e .LASF816
C:\Users\CYMR90~1\AppData\Local\Temp\ccEL7hUr.s:26073  .debug_str:000000000001c378 .LASF817
C:\Users\CYMR90~1\AppData\Local\Temp\ccEL7hUr.s:25965  .debug_str:000000000001bc70 .LASF818
C:\Users\CYMR90~1\AppData\Local\Temp\ccEL7hUr.s:19270  .debug_str:0000000000000a9c .LASF819
C:\Users\CYMR90~1\AppData\Local\Temp\ccEL7hUr.s:29617  .debug_str:000000000002a3eb .LASF820
C:\Users\CYMR90~1\AppData\Local\Temp\ccEL7hUr.s:28147  .debug_str:00000000000244ea .LASF821
C:\Users\CYMR90~1\AppData\Local\Temp\ccEL7hUr.s:21362  .debug_str:0000000000009123 .LASF822
C:\Users\CYMR90~1\AppData\Local\Temp\ccEL7hUr.s:24656  .debug_str:00000000000165f3 .LASF823
C:\Users\CYMR90~1\AppData\Local\Temp\ccEL7hUr.s:26263  .debug_str:000000000001d103 .LASF824
C:\Users\CYMR90~1\AppData\Local\Temp\ccEL7hUr.s:24450  .debug_str:000000000001585b .LASF825
C:\Users\CYMR90~1\AppData\Local\Temp\ccEL7hUr.s:20042  .debug_str:0000000000003b68 .LASF826
C:\Users\CYMR90~1\AppData\Local\Temp\ccEL7hUr.s:22794  .debug_str:000000000000eeac .LASF827
C:\Users\CYMR90~1\AppData\Local\Temp\ccEL7hUr.s:21540  .debug_str:0000000000009c77 .LASF828
C:\Users\CYMR90~1\AppData\Local\Temp\ccEL7hUr.s:28419  .debug_str:0000000000025825 .LASF829
C:\Users\CYMR90~1\AppData\Local\Temp\ccEL7hUr.s:21966  .debug_str:000000000000b876 .LASF830
C:\Users\CYMR90~1\AppData\Local\Temp\ccEL7hUr.s:22740  .debug_str:000000000000eb7e .LASF831
C:\Users\CYMR90~1\AppData\Local\Temp\ccEL7hUr.s:20598  .debug_str:0000000000005ef2 .LASF832
C:\Users\CYMR90~1\AppData\Local\Temp\ccEL7hUr.s:23376  .debug_str:000000000001131c .LASF833
C:\Users\CYMR90~1\AppData\Local\Temp\ccEL7hUr.s:25131  .debug_str:0000000000018549 .LASF834
C:\Users\CYMR90~1\AppData\Local\Temp\ccEL7hUr.s:23278  .debug_str:0000000000010d37 .LASF835
C:\Users\CYMR90~1\AppData\Local\Temp\ccEL7hUr.s:27013  .debug_str:000000000001ff14 .LASF836
C:\Users\CYMR90~1\AppData\Local\Temp\ccEL7hUr.s:21266  .debug_str:0000000000008b4a .LASF837
C:\Users\CYMR90~1\AppData\Local\Temp\ccEL7hUr.s:20438  .debug_str:0000000000005560 .LASF838
C:\Users\CYMR90~1\AppData\Local\Temp\ccEL7hUr.s:23178  .debug_str:0000000000010653 .LASF839
C:\Users\CYMR90~1\AppData\Local\Temp\ccEL7hUr.s:22108  .debug_str:000000000000c2bd .LASF840
C:\Users\CYMR90~1\AppData\Local\Temp\ccEL7hUr.s:26173  .debug_str:000000000001ca2d .LASF841
C:\Users\CYMR90~1\AppData\Local\Temp\ccEL7hUr.s:19342  .debug_str:0000000000000f6b .LASF842
C:\Users\CYMR90~1\AppData\Local\Temp\ccEL7hUr.s:19698  .debug_str:00000000000024a2 .LASF843
C:\Users\CYMR90~1\AppData\Local\Temp\ccEL7hUr.s:28007  .debug_str:0000000000023b17 .LASF844
C:\Users\CYMR90~1\AppData\Local\Temp\ccEL7hUr.s:19106  .debug_str:0000000000000096 .LASF845
C:\Users\CYMR90~1\AppData\Local\Temp\ccEL7hUr.s:21064  .debug_str:0000000000007dab .LASF846
C:\Users\CYMR90~1\AppData\Local\Temp\ccEL7hUr.s:26867  .debug_str:000000000001f5eb .LASF847
C:\Users\CYMR90~1\AppData\Local\Temp\ccEL7hUr.s:21032  .debug_str:0000000000007b22 .LASF848
C:\Users\CYMR90~1\AppData\Local\Temp\ccEL7hUr.s:22400  .debug_str:000000000000d6a8 .LASF851
C:\Users\CYMR90~1\AppData\Local\Temp\ccEL7hUr.s:29193  .debug_str:0000000000028a7f .LASF852
C:\Users\CYMR90~1\AppData\Local\Temp\ccEL7hUr.s:24304  .debug_str:0000000000015017 .LASF853
C:\Users\CYMR90~1\AppData\Local\Temp\ccEL7hUr.s:27511  .debug_str:0000000000021de7 .LASF855
C:\Users\CYMR90~1\AppData\Local\Temp\ccEL7hUr.s:26399  .debug_str:000000000001d970 .LASF856
C:\Users\CYMR90~1\AppData\Local\Temp\ccEL7hUr.s:29015  .debug_str:0000000000027dd8 .LASF857
C:\Users\CYMR90~1\AppData\Local\Temp\ccEL7hUr.s:22388  .debug_str:000000000000d5d9 .LASF858
C:\Users\CYMR90~1\AppData\Local\Temp\ccEL7hUr.s:23330  .debug_str:0000000000011073 .LASF859
C:\Users\CYMR90~1\AppData\Local\Temp\ccEL7hUr.s:27443  .debug_str:0000000000021973 .LASF860
C:\Users\CYMR90~1\AppData\Local\Temp\ccEL7hUr.s:26601  .debug_str:000000000001e5f9 .LASF861
C:\Users\CYMR90~1\AppData\Local\Temp\ccEL7hUr.s:19436  .debug_str:00000000000014bb .LASF862
C:\Users\CYMR90~1\AppData\Local\Temp\ccEL7hUr.s:20100  .debug_str:0000000000003ed5 .LASF863
C:\Users\CYMR90~1\AppData\Local\Temp\ccEL7hUr.s:20484  .debug_str:000000000000581f .LASF864
C:\Users\CYMR90~1\AppData\Local\Temp\ccEL7hUr.s:21660  .debug_str:000000000000a435 .LASF865
C:\Users\CYMR90~1\AppData\Local\Temp\ccEL7hUr.s:21134  .debug_str:00000000000082d4 .LASF866
C:\Users\CYMR90~1\AppData\Local\Temp\ccEL7hUr.s:26329  .debug_str:000000000001d4d2 .LASF867
C:\Users\CYMR90~1\AppData\Local\Temp\ccEL7hUr.s:26951  .debug_str:000000000001fb17 .LASF868
C:\Users\CYMR90~1\AppData\Local\Temp\ccEL7hUr.s:28021  .debug_str:0000000000023bdd .LASF869
C:\Users\CYMR90~1\AppData\Local\Temp\ccEL7hUr.s:21302  .debug_str:0000000000008dbb .LASF870
C:\Users\CYMR90~1\AppData\Local\Temp\ccEL7hUr.s:21732  .debug_str:000000000000a8ae .LASF871
C:\Users\CYMR90~1\AppData\Local\Temp\ccEL7hUr.s:26165  .debug_str:000000000001c9bb .LASF872
C:\Users\CYMR90~1\AppData\Local\Temp\ccEL7hUr.s:28717  .debug_str:0000000000026a7a .LASF873
C:\Users\CYMR90~1\AppData\Local\Temp\ccEL7hUr.s:23536  .debug_str:0000000000011e2c .LASF874
C:\Users\CYMR90~1\AppData\Local\Temp\ccEL7hUr.s:24210  .debug_str:00000000000149ec .LASF875
C:\Users\CYMR90~1\AppData\Local\Temp\ccEL7hUr.s:21538  .debug_str:0000000000009c69 .LASF876
C:\Users\CYMR90~1\AppData\Local\Temp\ccEL7hUr.s:25871  .debug_str:000000000001b707 .LASF877
C:\Users\CYMR90~1\AppData\Local\Temp\ccEL7hUr.s:23324  .debug_str:000000000001102a .LASF878
C:\Users\CYMR90~1\AppData\Local\Temp\ccEL7hUr.s:24843  .debug_str:00000000000173a3 .LASF879
C:\Users\CYMR90~1\AppData\Local\Temp\ccEL7hUr.s:20418  .debug_str:0000000000005409 .LASF880
C:\Users\CYMR90~1\AppData\Local\Temp\ccEL7hUr.s:23752  .debug_str:0000000000012c58 .LASF881
C:\Users\CYMR90~1\AppData\Local\Temp\ccEL7hUr.s:26839  .debug_str:000000000001f46f .LASF882
C:\Users\CYMR90~1\AppData\Local\Temp\ccEL7hUr.s:27025  .debug_str:000000000001ffb1 .LASF883
C:\Users\CYMR90~1\AppData\Local\Temp\ccEL7hUr.s:30265  .debug_str:000000000002ce66 .LASF884
C:\Users\CYMR90~1\AppData\Local\Temp\ccEL7hUr.s:25877  .debug_str:000000000001b75f .LASF885
C:\Users\CYMR90~1\AppData\Local\Temp\ccEL7hUr.s:21410  .debug_str:0000000000009405 .LASF886
C:\Users\CYMR90~1\AppData\Local\Temp\ccEL7hUr.s:27973  .debug_str:000000000002394f .LASF887
C:\Users\CYMR90~1\AppData\Local\Temp\ccEL7hUr.s:23690  .debug_str:0000000000012822 .LASF888
C:\Users\CYMR90~1\AppData\Local\Temp\ccEL7hUr.s:27909  .debug_str:000000000002350b .LASF889
C:\Users\CYMR90~1\AppData\Local\Temp\ccEL7hUr.s:20244  .debug_str:0000000000004977 .LASF890
C:\Users\CYMR90~1\AppData\Local\Temp\ccEL7hUr.s:22688  .debug_str:000000000000e824 .LASF891
C:\Users\CYMR90~1\AppData\Local\Temp\ccEL7hUr.s:28663  .debug_str:0000000000026756 .LASF892
C:\Users\CYMR90~1\AppData\Local\Temp\ccEL7hUr.s:28065  .debug_str:0000000000023e7f .LASF893
C:\Users\CYMR90~1\AppData\Local\Temp\ccEL7hUr.s:19410  .debug_str:0000000000001321 .LASF894
C:\Users\CYMR90~1\AppData\Local\Temp\ccEL7hUr.s:24070  .debug_str:00000000000140ba .LASF895
C:\Users\CYMR90~1\AppData\Local\Temp\ccEL7hUr.s:20332  .debug_str:0000000000004ed3 .LASF896
C:\Users\CYMR90~1\AppData\Local\Temp\ccEL7hUr.s:21528  .debug_str:0000000000009bd5 .LASF897
C:\Users\CYMR90~1\AppData\Local\Temp\ccEL7hUr.s:28957  .debug_str:0000000000027a03 .LASF898
C:\Users\CYMR90~1\AppData\Local\Temp\ccEL7hUr.s:21846  .debug_str:000000000000b090 .LASF899
C:\Users\CYMR90~1\AppData\Local\Temp\ccEL7hUr.s:25921  .debug_str:000000000001b9ba .LASF900
C:\Users\CYMR90~1\AppData\Local\Temp\ccEL7hUr.s:22556  .debug_str:000000000000e021 .LASF901
C:\Users\CYMR90~1\AppData\Local\Temp\ccEL7hUr.s:28249  .debug_str:0000000000024b8b .LASF902
C:\Users\CYMR90~1\AppData\Local\Temp\ccEL7hUr.s:29103  .debug_str:000000000002846a .LASF903
C:\Users\CYMR90~1\AppData\Local\Temp\ccEL7hUr.s:23736  .debug_str:0000000000012b4a .LASF904
C:\Users\CYMR90~1\AppData\Local\Temp\ccEL7hUr.s:21184  .debug_str:0000000000008629 .LASF905
C:\Users\CYMR90~1\AppData\Local\Temp\ccEL7hUr.s:29659  .debug_str:000000000002a6d3 .LASF906
C:\Users\CYMR90~1\AppData\Local\Temp\ccEL7hUr.s:22684  .debug_str:000000000000e7e1 .LASF907
C:\Users\CYMR90~1\AppData\Local\Temp\ccEL7hUr.s:28929  .debug_str:00000000000277c9 .LASF908
C:\Users\CYMR90~1\AppData\Local\Temp\ccEL7hUr.s:23298  .debug_str:0000000000010ebb .LASF909
C:\Users\CYMR90~1\AppData\Local\Temp\ccEL7hUr.s:19792  .debug_str:0000000000002ac8 .LASF910
C:\Users\CYMR90~1\AppData\Local\Temp\ccEL7hUr.s:19382  .debug_str:00000000000011b8 .LASF911
C:\Users\CYMR90~1\AppData\Local\Temp\ccEL7hUr.s:27361  .debug_str:000000000002147d .LASF912
C:\Users\CYMR90~1\AppData\Local\Temp\ccEL7hUr.s:28231  .debug_str:0000000000024a5b .LASF913
C:\Users\CYMR90~1\AppData\Local\Temp\ccEL7hUr.s:22234  .debug_str:000000000000cb2a .LASF914
C:\Users\CYMR90~1\AppData\Local\Temp\ccEL7hUr.s:22546  .debug_str:000000000000df62 .LASF915
C:\Users\CYMR90~1\AppData\Local\Temp\ccEL7hUr.s:23114  .debug_str:000000000001029f .LASF916
C:\Users\CYMR90~1\AppData\Local\Temp\ccEL7hUr.s:29733  .debug_str:000000000002aaf4 .LASF917
C:\Users\CYMR90~1\AppData\Local\Temp\ccEL7hUr.s:19368  .debug_str:00000000000010c4 .LASF918
C:\Users\CYMR90~1\AppData\Local\Temp\ccEL7hUr.s:21832  .debug_str:000000000000afa5 .LASF919
C:\Users\CYMR90~1\AppData\Local\Temp\ccEL7hUr.s:28187  .debug_str:0000000000024738 .LASF920
C:\Users\CYMR90~1\AppData\Local\Temp\ccEL7hUr.s:25625  .debug_str:000000000001a6a3 .LASF921
C:\Users\CYMR90~1\AppData\Local\Temp\ccEL7hUr.s:28697  .debug_str:000000000002694b .LASF922
C:\Users\CYMR90~1\AppData\Local\Temp\ccEL7hUr.s:24771  .debug_str:0000000000016f58 .LASF923
C:\Users\CYMR90~1\AppData\Local\Temp\ccEL7hUr.s:19752  .debug_str:0000000000002843 .LASF924
C:\Users\CYMR90~1\AppData\Local\Temp\ccEL7hUr.s:25835  .debug_str:000000000001b4da .LASF925
C:\Users\CYMR90~1\AppData\Local\Temp\ccEL7hUr.s:19478  .debug_str:00000000000017c1 .LASF926
C:\Users\CYMR90~1\AppData\Local\Temp\ccEL7hUr.s:24238  .debug_str:0000000000014b88 .LASF927
C:\Users\CYMR90~1\AppData\Local\Temp\ccEL7hUr.s:26901  .debug_str:000000000001f7ca .LASF928
C:\Users\CYMR90~1\AppData\Local\Temp\ccEL7hUr.s:29989  .debug_str:000000000002bba1 .LASF929
C:\Users\CYMR90~1\AppData\Local\Temp\ccEL7hUr.s:30205  .debug_str:000000000002ca67 .LASF930
C:\Users\CYMR90~1\AppData\Local\Temp\ccEL7hUr.s:26799  .debug_str:000000000001f1da .LASF931
C:\Users\CYMR90~1\AppData\Local\Temp\ccEL7hUr.s:29465  .debug_str:0000000000029afa .LASF932
C:\Users\CYMR90~1\AppData\Local\Temp\ccEL7hUr.s:24574  .debug_str:00000000000160b0 .LASF933
C:\Users\CYMR90~1\AppData\Local\Temp\ccEL7hUr.s:25397  .debug_str:00000000000196dc .LASF934
C:\Users\CYMR90~1\AppData\Local\Temp\ccEL7hUr.s:24454  .debug_str:0000000000015890 .LASF935
C:\Users\CYMR90~1\AppData\Local\Temp\ccEL7hUr.s:28319  .debug_str:0000000000025068 .LASF936
C:\Users\CYMR90~1\AppData\Local\Temp\ccEL7hUr.s:19288  .debug_str:0000000000000bcf .LASF937
C:\Users\CYMR90~1\AppData\Local\Temp\ccEL7hUr.s:27171  .debug_str:00000000000208e6 .LASF938
C:\Users\CYMR90~1\AppData\Local\Temp\ccEL7hUr.s:28405  .debug_str:00000000000256d5 .LASF939
C:\Users\CYMR90~1\AppData\Local\Temp\ccEL7hUr.s:21968  .debug_str:000000000000b894 .LASF940
C:\Users\CYMR90~1\AppData\Local\Temp\ccEL7hUr.s:25613  .debug_str:000000000001a5ea .LASF941
C:\Users\CYMR90~1\AppData\Local\Temp\ccEL7hUr.s:22728  .debug_str:000000000000ea8c .LASF942
C:\Users\CYMR90~1\AppData\Local\Temp\ccEL7hUr.s:28527  .debug_str:0000000000025eef .LASF943
C:\Users\CYMR90~1\AppData\Local\Temp\ccEL7hUr.s:26015  .debug_str:000000000001bff9 .LASF944
C:\Users\CYMR90~1\AppData\Local\Temp\ccEL7hUr.s:22932  .debug_str:000000000000f6d1 .LASF945
C:\Users\CYMR90~1\AppData\Local\Temp\ccEL7hUr.s:24921  .debug_str:000000000001785c .LASF946
C:\Users\CYMR90~1\AppData\Local\Temp\ccEL7hUr.s:26525  .debug_str:000000000001e185 .LASF947
C:\Users\CYMR90~1\AppData\Local\Temp\ccEL7hUr.s:23274  .debug_str:0000000000010cf9 .LASF948
C:\Users\CYMR90~1\AppData\Local\Temp\ccEL7hUr.s:22294  .debug_str:000000000000cf23 .LASF949
C:\Users\CYMR90~1\AppData\Local\Temp\ccEL7hUr.s:20894  .debug_str:00000000000071f4 .LASF951
C:\Users\CYMR90~1\AppData\Local\Temp\ccEL7hUr.s:24378  .debug_str:0000000000015453 .LASF952
C:\Users\CYMR90~1\AppData\Local\Temp\ccEL7hUr.s:22328  .debug_str:000000000000d181 .LASF953
C:\Users\CYMR90~1\AppData\Local\Temp\ccEL7hUr.s:30197  .debug_str:000000000002c9f2 .LASF954
C:\Users\CYMR90~1\AppData\Local\Temp\ccEL7hUr.s:29369  .debug_str:0000000000029500 .LASF955
C:\Users\CYMR90~1\AppData\Local\Temp\ccEL7hUr.s:29455  .debug_str:0000000000029a64 .LASF959
C:\Users\CYMR90~1\AppData\Local\Temp\ccEL7hUr.s:21436  .debug_str:00000000000095f1 .LASF960
C:\Users\CYMR90~1\AppData\Local\Temp\ccEL7hUr.s:28725  .debug_str:0000000000026b05 .LASF961
C:\Users\CYMR90~1\AppData\Local\Temp\ccEL7hUr.s:23508  .debug_str:0000000000011c98 .LASF962
C:\Users\CYMR90~1\AppData\Local\Temp\ccEL7hUr.s:20920  .debug_str:00000000000073db .LASF963
C:\Users\CYMR90~1\AppData\Local\Temp\ccEL7hUr.s:27541  .debug_str:0000000000021f99 .LASF964
C:\Users\CYMR90~1\AppData\Local\Temp\ccEL7hUr.s:25829  .debug_str:000000000001b46e .LASF965
C:\Users\CYMR90~1\AppData\Local\Temp\ccEL7hUr.s:28669  .debug_str:00000000000267b2 .LASF966
C:\Users\CYMR90~1\AppData\Local\Temp\ccEL7hUr.s:29775  .debug_str:000000000002ad87 .LASF967
C:\Users\CYMR90~1\AppData\Local\Temp\ccEL7hUr.s:20656  .debug_str:0000000000006290 .LASF968
C:\Users\CYMR90~1\AppData\Local\Temp\ccEL7hUr.s:24110  .debug_str:0000000000014382 .LASF969
C:\Users\CYMR90~1\AppData\Local\Temp\ccEL7hUr.s:29863  .debug_str:000000000002b338 .LASF970
C:\Users\CYMR90~1\AppData\Local\Temp\ccEL7hUr.s:22738  .debug_str:000000000000eb58 .LASF971
C:\Users\CYMR90~1\AppData\Local\Temp\ccEL7hUr.s:24170  .debug_str:000000000001474a .LASF972
C:\Users\CYMR90~1\AppData\Local\Temp\ccEL7hUr.s:22352  .debug_str:000000000000d2fb .LASF973
C:\Users\CYMR90~1\AppData\Local\Temp\ccEL7hUr.s:24704  .debug_str:00000000000168b6 .LASF974
C:\Users\CYMR90~1\AppData\Local\Temp\ccEL7hUr.s:30229  .debug_str:000000000002cb98 .LASF975
C:\Users\CYMR90~1\AppData\Local\Temp\ccEL7hUr.s:22290  .debug_str:000000000000cede .LASF976
C:\Users\CYMR90~1\AppData\Local\Temp\ccEL7hUr.s:30253  .debug_str:000000000002cdd5 .LASF977
C:\Users\CYMR90~1\AppData\Local\Temp\ccEL7hUr.s:28509  .debug_str:0000000000025db6 .LASF978
C:\Users\CYMR90~1\AppData\Local\Temp\ccEL7hUr.s:28569  .debug_str:0000000000026180 .LASF979
C:\Users\CYMR90~1\AppData\Local\Temp\ccEL7hUr.s:22792  .debug_str:000000000000ee92 .LASF980
C:\Users\CYMR90~1\AppData\Local\Temp\ccEL7hUr.s:20370  .debug_str:0000000000005130 .LASF981
C:\Users\CYMR90~1\AppData\Local\Temp\ccEL7hUr.s:23532  .debug_str:0000000000011e0f .LASF982
C:\Users\CYMR90~1\AppData\Local\Temp\ccEL7hUr.s:26239  .debug_str:000000000001cef4 .LASF983
C:\Users\CYMR90~1\AppData\Local\Temp\ccEL7hUr.s:26253  .debug_str:000000000001cfe0 .LASF984
C:\Users\CYMR90~1\AppData\Local\Temp\ccEL7hUr.s:23146  .debug_str:0000000000010487 .LASF985
C:\Users\CYMR90~1\AppData\Local\Temp\ccEL7hUr.s:24520  .debug_str:0000000000015cd6 .LASF986
C:\Users\CYMR90~1\AppData\Local\Temp\ccEL7hUr.s:19810  .debug_str:0000000000002beb .LASF987
C:\Users\CYMR90~1\AppData\Local\Temp\ccEL7hUr.s:27737  .debug_str:0000000000022b5b .LASF988
C:\Users\CYMR90~1\AppData\Local\Temp\ccEL7hUr.s:25221  .debug_str:0000000000018ac4 .LASF989
C:\Users\CYMR90~1\AppData\Local\Temp\ccEL7hUr.s:22286  .debug_str:000000000000ceb6 .LASF990
C:\Users\CYMR90~1\AppData\Local\Temp\ccEL7hUr.s:28671  .debug_str:00000000000267da .LASF991
C:\Users\CYMR90~1\AppData\Local\Temp\ccEL7hUr.s:20938  .debug_str:00000000000074e4 .LASF992
C:\Users\CYMR90~1\AppData\Local\Temp\ccEL7hUr.s:28489  .debug_str:0000000000025c6b .LASF993
C:\Users\CYMR90~1\AppData\Local\Temp\ccEL7hUr.s:25301  .debug_str:000000000001912e .LASF994
C:\Users\CYMR90~1\AppData\Local\Temp\ccEL7hUr.s:29277  .debug_str:0000000000028fa4 .LASF995
C:\Users\CYMR90~1\AppData\Local\Temp\ccEL7hUr.s:26439  .debug_str:000000000001db97 .LASF996
C:\Users\CYMR90~1\AppData\Local\Temp\ccEL7hUr.s:26507  .debug_str:000000000001e06b .LASF997
C:\Users\CYMR90~1\AppData\Local\Temp\ccEL7hUr.s:19710  .debug_str:0000000000002536 .LASF998
C:\Users\CYMR90~1\AppData\Local\Temp\ccEL7hUr.s:20048  .debug_str:0000000000003bc2 .LASF999
C:\Users\CYMR90~1\AppData\Local\Temp\ccEL7hUr.s:28163  .debug_str:00000000000245d8 .LASF1000
C:\Users\CYMR90~1\AppData\Local\Temp\ccEL7hUr.s:23122  .debug_str:0000000000010327 .LASF1001
C:\Users\CYMR90~1\AppData\Local\Temp\ccEL7hUr.s:20324  .debug_str:0000000000004e7a .LASF1002
C:\Users\CYMR90~1\AppData\Local\Temp\ccEL7hUr.s:26057  .debug_str:000000000001c291 .LASF1003
C:\Users\CYMR90~1\AppData\Local\Temp\ccEL7hUr.s:23486  .debug_str:0000000000011ab3 .LASF1004
C:\Users\CYMR90~1\AppData\Local\Temp\ccEL7hUr.s:22250  .debug_str:000000000000ccd8 .LASF1005
C:\Users\CYMR90~1\AppData\Local\Temp\ccEL7hUr.s:20630  .debug_str:00000000000060f9 .LASF1006
C:\Users\CYMR90~1\AppData\Local\Temp\ccEL7hUr.s:27537  .debug_str:0000000000021f61 .LASF1007
C:\Users\CYMR90~1\AppData\Local\Temp\ccEL7hUr.s:24997  .debug_str:0000000000017d10 .LASF1008
C:\Users\CYMR90~1\AppData\Local\Temp\ccEL7hUr.s:25155  .debug_str:0000000000018691 .LASF1009
C:\Users\CYMR90~1\AppData\Local\Temp\ccEL7hUr.s:22564  .debug_str:000000000000e09a .LASF1010
C:\Users\CYMR90~1\AppData\Local\Temp\ccEL7hUr.s:26299  .debug_str:000000000001d311 .LASF1011
C:\Users\CYMR90~1\AppData\Local\Temp\ccEL7hUr.s:27741  .debug_str:0000000000022b86 .LASF1012
C:\Users\CYMR90~1\AppData\Local\Temp\ccEL7hUr.s:25415  .debug_str:0000000000019850 .LASF1013
C:\Users\CYMR90~1\AppData\Local\Temp\ccEL7hUr.s:22172  .debug_str:000000000000c6a9 .LASF1014
C:\Users\CYMR90~1\AppData\Local\Temp\ccEL7hUr.s:20520  .debug_str:0000000000005a23 .LASF1015
C:\Users\CYMR90~1\AppData\Local\Temp\ccEL7hUr.s:20474  .debug_str:0000000000005788 .LASF1016
C:\Users\CYMR90~1\AppData\Local\Temp\ccEL7hUr.s:28819  .debug_str:00000000000270cb .LASF1017
C:\Users\CYMR90~1\AppData\Local\Temp\ccEL7hUr.s:22802  .debug_str:000000000000ef14 .LASF1018
C:\Users\CYMR90~1\AppData\Local\Temp\ccEL7hUr.s:19704  .debug_str:00000000000024ed .LASF1019
C:\Users\CYMR90~1\AppData\Local\Temp\ccEL7hUr.s:25037  .debug_str:0000000000017f96 .LASF1020
C:\Users\CYMR90~1\AppData\Local\Temp\ccEL7hUr.s:22106  .debug_str:000000000000c2a5 .LASF1021
C:\Users\CYMR90~1\AppData\Local\Temp\ccEL7hUr.s:28745  .debug_str:0000000000026c20 .LASF1022
C:\Users\CYMR90~1\AppData\Local\Temp\ccEL7hUr.s:21344  .debug_str:000000000000904b .LASF1023
C:\Users\CYMR90~1\AppData\Local\Temp\ccEL7hUr.s:23804  .debug_str:0000000000012f9e .LASF1024
C:\Users\CYMR90~1\AppData\Local\Temp\ccEL7hUr.s:23302  .debug_str:0000000000010efc .LASF1025
C:\Users\CYMR90~1\AppData\Local\Temp\ccEL7hUr.s:24230  .debug_str:0000000000014ad4 .LASF1026
C:\Users\CYMR90~1\AppData\Local\Temp\ccEL7hUr.s:26377  .debug_str:000000000001d7f4 .LASF1027
C:\Users\CYMR90~1\AppData\Local\Temp\ccEL7hUr.s:26757  .debug_str:000000000001ef34 .LASF1028
C:\Users\CYMR90~1\AppData\Local\Temp\ccEL7hUr.s:25305  .debug_str:0000000000019160 .LASF1029
C:\Users\CYMR90~1\AppData\Local\Temp\ccEL7hUr.s:27127  .debug_str:0000000000020647 .LASF1030
C:\Users\CYMR90~1\AppData\Local\Temp\ccEL7hUr.s:29371  .debug_str:0000000000029568 .LASF1031
C:\Users\CYMR90~1\AppData\Local\Temp\ccEL7hUr.s:21490  .debug_str:0000000000009964 .LASF1032
C:\Users\CYMR90~1\AppData\Local\Temp\ccEL7hUr.s:20378  .debug_str:00000000000051b2 .LASF1033
C:\Users\CYMR90~1\AppData\Local\Temp\ccEL7hUr.s:25345  .debug_str:00000000000193b5 .LASF1034
C:\Users\CYMR90~1\AppData\Local\Temp\ccEL7hUr.s:25605  .debug_str:000000000001a580 .LASF1035
C:\Users\CYMR90~1\AppData\Local\Temp\ccEL7hUr.s:27839  .debug_str:00000000000230d6 .LASF1036
C:\Users\CYMR90~1\AppData\Local\Temp\ccEL7hUr.s:22972  .debug_str:000000000000f9e6 .LASF1037
C:\Users\CYMR90~1\AppData\Local\Temp\ccEL7hUr.s:26481  .debug_str:000000000001dee1 .LASF1038
C:\Users\CYMR90~1\AppData\Local\Temp\ccEL7hUr.s:24392  .debug_str:000000000001554b .LASF1039
C:\Users\CYMR90~1\AppData\Local\Temp\ccEL7hUr.s:22880  .debug_str:000000000000f3b2 .LASF1040
C:\Users\CYMR90~1\AppData\Local\Temp\ccEL7hUr.s:28559  .debug_str:00000000000260e7 .LASF1041
C:\Users\CYMR90~1\AppData\Local\Temp\ccEL7hUr.s:23124  .debug_str:000000000001033e .LASF1042
C:\Users\CYMR90~1\AppData\Local\Temp\ccEL7hUr.s:19124  .debug_str:000000000000019a .LASF1043
C:\Users\CYMR90~1\AppData\Local\Temp\ccEL7hUr.s:21356  .debug_str:00000000000090d2 .LASF1044
C:\Users\CYMR90~1\AppData\Local\Temp\ccEL7hUr.s:25537  .debug_str:000000000001a012 .LASF1045
C:\Users\CYMR90~1\AppData\Local\Temp\ccEL7hUr.s:24640  .debug_str:0000000000016487 .LASF1046
C:\Users\CYMR90~1\AppData\Local\Temp\ccEL7hUr.s:27883  .debug_str:0000000000023364 .LASF1047
C:\Users\CYMR90~1\AppData\Local\Temp\ccEL7hUr.s:26723  .debug_str:000000000001ed23 .LASF1048
C:\Users\CYMR90~1\AppData\Local\Temp\ccEL7hUr.s:19886  .debug_str:0000000000003106 .LASF1049
C:\Users\CYMR90~1\AppData\Local\Temp\ccEL7hUr.s:26733  .debug_str:000000000001edae .LASF1050
C:\Users\CYMR90~1\AppData\Local\Temp\ccEL7hUr.s:26933  .debug_str:000000000001f9e3 .LASF1051
C:\Users\CYMR90~1\AppData\Local\Temp\ccEL7hUr.s:21844  .debug_str:000000000000b07e .LASF1052
C:\Users\CYMR90~1\AppData\Local\Temp\ccEL7hUr.s:27781  .debug_str:0000000000022dcb .LASF1053
C:\Users\CYMR90~1\AppData\Local\Temp\ccEL7hUr.s:23778  .debug_str:0000000000012dee .LASF1054
C:\Users\CYMR90~1\AppData\Local\Temp\ccEL7hUr.s:22734  .debug_str:000000000000eb06 .LASF1055
C:\Users\CYMR90~1\AppData\Local\Temp\ccEL7hUr.s:28993  .debug_str:0000000000027c8b .LASF1056
C:\Users\CYMR90~1\AppData\Local\Temp\ccEL7hUr.s:29579  .debug_str:000000000002a17c .LASF1057
C:\Users\CYMR90~1\AppData\Local\Temp\ccEL7hUr.s:28317  .debug_str:0000000000025046 .LASF1058
C:\Users\CYMR90~1\AppData\Local\Temp\ccEL7hUr.s:19564  .debug_str:0000000000001d0d .LASF1059
C:\Users\CYMR90~1\AppData\Local\Temp\ccEL7hUr.s:21164  .debug_str:00000000000084e6 .LASF1060
C:\Users\CYMR90~1\AppData\Local\Temp\ccEL7hUr.s:19252  .debug_str:0000000000000934 .LASF1061
C:\Users\CYMR90~1\AppData\Local\Temp\ccEL7hUr.s:24146  .debug_str:000000000001456d .LASF1062
C:\Users\CYMR90~1\AppData\Local\Temp\ccEL7hUr.s:20098  .debug_str:0000000000003ebe .LASF1063
C:\Users\CYMR90~1\AppData\Local\Temp\ccEL7hUr.s:19194  .debug_str:00000000000005a1 .LASF1064
C:\Users\CYMR90~1\AppData\Local\Temp\ccEL7hUr.s:30259  .debug_str:000000000002ce1e .LASF1065
C:\Users\CYMR90~1\AppData\Local\Temp\ccEL7hUr.s:28165  .debug_str:00000000000245f0 .LASF1066
C:\Users\CYMR90~1\AppData\Local\Temp\ccEL7hUr.s:24702  .debug_str:000000000001689c .LASF1067
C:\Users\CYMR90~1\AppData\Local\Temp\ccEL7hUr.s:26271  .debug_str:000000000001d167 .LASF1068
C:\Users\CYMR90~1\AppData\Local\Temp\ccEL7hUr.s:19306  .debug_str:0000000000000cc5 .LASF1069
C:\Users\CYMR90~1\AppData\Local\Temp\ccEL7hUr.s:21618  .debug_str:000000000000a16e .LASF1070
C:\Users\CYMR90~1\AppData\Local\Temp\ccEL7hUr.s:27689  .debug_str:000000000002282b .LASF1071
C:\Users\CYMR90~1\AppData\Local\Temp\ccEL7hUr.s:26235  .debug_str:000000000001ceb2 .LASF1072
C:\Users\CYMR90~1\AppData\Local\Temp\ccEL7hUr.s:29241  .debug_str:0000000000028d3a .LASF1073
C:\Users\CYMR90~1\AppData\Local\Temp\ccEL7hUr.s:24853  .debug_str:0000000000017426 .LASF1074
C:\Users\CYMR90~1\AppData\Local\Temp\ccEL7hUr.s:19746  .debug_str:00000000000027f3 .LASF1075
C:\Users\CYMR90~1\AppData\Local\Temp\ccEL7hUr.s:29665  .debug_str:000000000002a722 .LASF1076
C:\Users\CYMR90~1\AppData\Local\Temp\ccEL7hUr.s:20692  .debug_str:00000000000064c9 .LASF1077
C:\Users\CYMR90~1\AppData\Local\Temp\ccEL7hUr.s:27169  .debug_str:00000000000208d4 .LASF1078
C:\Users\CYMR90~1\AppData\Local\Temp\ccEL7hUr.s:22576  .debug_str:000000000000e14e .LASF1079
C:\Users\CYMR90~1\AppData\Local\Temp\ccEL7hUr.s:26035  .debug_str:000000000001c13c .LASF1080
C:\Users\CYMR90~1\AppData\Local\Temp\ccEL7hUr.s:28849  .debug_str:0000000000027343 .LASF1081
C:\Users\CYMR90~1\AppData\Local\Temp\ccEL7hUr.s:24336  .debug_str:00000000000151f1 .LASF1082
C:\Users\CYMR90~1\AppData\Local\Temp\ccEL7hUr.s:27383  .debug_str:00000000000215e3 .LASF1083
C:\Users\CYMR90~1\AppData\Local\Temp\ccEL7hUr.s:20398  .debug_str:00000000000052ec .LASF1084
C:\Users\CYMR90~1\AppData\Local\Temp\ccEL7hUr.s:19512  .debug_str:00000000000019e5 .LASF1085
C:\Users\CYMR90~1\AppData\Local\Temp\ccEL7hUr.s:22610  .debug_str:000000000000e333 .LASF1086
C:\Users\CYMR90~1\AppData\Local\Temp\ccEL7hUr.s:28567  .debug_str:0000000000026171 .LASF1087
C:\Users\CYMR90~1\AppData\Local\Temp\ccEL7hUr.s:27685  .debug_str:00000000000227f9 .LASF1088
C:\Users\CYMR90~1\AppData\Local\Temp\ccEL7hUr.s:19360  .debug_str:000000000000104e .LASF1089
C:\Users\CYMR90~1\AppData\Local\Temp\ccEL7hUr.s:30193  .debug_str:000000000002c99a .LASF1090
C:\Users\CYMR90~1\AppData\Local\Temp\ccEL7hUr.s:28955  .debug_str:00000000000279eb .LASF1091
C:\Users\CYMR90~1\AppData\Local\Temp\ccEL7hUr.s:22952  .debug_str:000000000000f7f0 .LASF1092
C:\Users\CYMR90~1\AppData\Local\Temp\ccEL7hUr.s:28611  .debug_str:00000000000263e5 .LASF1093
C:\Users\CYMR90~1\AppData\Local\Temp\ccEL7hUr.s:24408  .debug_str:00000000000155f6 .LASF1094
C:\Users\CYMR90~1\AppData\Local\Temp\ccEL7hUr.s:25851  .debug_str:000000000001b5c0 .LASF1095
C:\Users\CYMR90~1\AppData\Local\Temp\ccEL7hUr.s:26381  .debug_str:000000000001d846 .LASF1096
C:\Users\CYMR90~1\AppData\Local\Temp\ccEL7hUr.s:20680  .debug_str:0000000000006424 .LASF1097
C:\Users\CYMR90~1\AppData\Local\Temp\ccEL7hUr.s:23798  .debug_str:0000000000012f25 .LASF1098
C:\Users\CYMR90~1\AppData\Local\Temp\ccEL7hUr.s:23118  .debug_str:00000000000102f6 .LASF1099
C:\Users\CYMR90~1\AppData\Local\Temp\ccEL7hUr.s:27957  .debug_str:0000000000023853 .LASF1100
C:\Users\CYMR90~1\AppData\Local\Temp\ccEL7hUr.s:22300  .debug_str:000000000000cf7d .LASF1101
C:\Users\CYMR90~1\AppData\Local\Temp\ccEL7hUr.s:27629  .debug_str:0000000000022487 .LASF1102
C:\Users\CYMR90~1\AppData\Local\Temp\ccEL7hUr.s:29187  .debug_str:0000000000028a2d .LASF1103
C:\Users\CYMR90~1\AppData\Local\Temp\ccEL7hUr.s:27059  .debug_str:000000000002018c .LASF1104
C:\Users\CYMR90~1\AppData\Local\Temp\ccEL7hUr.s:23976  .debug_str:0000000000013b14 .LASF1105
C:\Users\CYMR90~1\AppData\Local\Temp\ccEL7hUr.s:27879  .debug_str:000000000002332e .LASF1106
C:\Users\CYMR90~1\AppData\Local\Temp\ccEL7hUr.s:25771  .debug_str:000000000001b0a1 .LASF1107
C:\Users\CYMR90~1\AppData\Local\Temp\ccEL7hUr.s:27299  .debug_str:0000000000021056 .LASF1108
C:\Users\CYMR90~1\AppData\Local\Temp\ccEL7hUr.s:21648  .debug_str:000000000000a347 .LASF1109
C:\Users\CYMR90~1\AppData\Local\Temp\ccEL7hUr.s:19574  .debug_str:0000000000001dae .LASF1110
C:\Users\CYMR90~1\AppData\Local\Temp\ccEL7hUr.s:20778  .debug_str:0000000000006a3e .LASF1111
C:\Users\CYMR90~1\AppData\Local\Temp\ccEL7hUr.s:21868  .debug_str:000000000000b1e3 .LASF1112
C:\Users\CYMR90~1\AppData\Local\Temp\ccEL7hUr.s:20442  .debug_str:0000000000005588 .LASF1113
C:\Users\CYMR90~1\AppData\Local\Temp\ccEL7hUr.s:21440  .debug_str:0000000000009618 .LASF1114
C:\Users\CYMR90~1\AppData\Local\Temp\ccEL7hUr.s:29035  .debug_str:0000000000027f6a .LASF1115
C:\Users\CYMR90~1\AppData\Local\Temp\ccEL7hUr.s:29529  .debug_str:0000000000029e9d .LASF1116
C:\Users\CYMR90~1\AppData\Local\Temp\ccEL7hUr.s:20600  .debug_str:0000000000005f1c .LASF1117
C:\Users\CYMR90~1\AppData\Local\Temp\ccEL7hUr.s:25013  .debug_str:0000000000017e0c .LASF1118
C:\Users\CYMR90~1\AppData\Local\Temp\ccEL7hUr.s:21132  .debug_str:00000000000082b7 .LASF1119
C:\Users\CYMR90~1\AppData\Local\Temp\ccEL7hUr.s:21338  .debug_str:0000000000008fea .LASF1120
C:\Users\CYMR90~1\AppData\Local\Temp\ccEL7hUr.s:23914  .debug_str:0000000000013748 .LASF1121
C:\Users\CYMR90~1\AppData\Local\Temp\ccEL7hUr.s:23558  .debug_str:0000000000011f9a .LASF1122
C:\Users\CYMR90~1\AppData\Local\Temp\ccEL7hUr.s:27145  .debug_str:0000000000020755 .LASF1123
C:\Users\CYMR90~1\AppData\Local\Temp\ccEL7hUr.s:24340  .debug_str:000000000001521a .LASF1124
C:\Users\CYMR90~1\AppData\Local\Temp\ccEL7hUr.s:24428  .debug_str:000000000001572f .LASF1125
C:\Users\CYMR90~1\AppData\Local\Temp\ccEL7hUr.s:27771  .debug_str:0000000000022d2d .LASF1126
C:\Users\CYMR90~1\AppData\Local\Temp\ccEL7hUr.s:28847  .debug_str:000000000002732e .LASF1127
C:\Users\CYMR90~1\AppData\Local\Temp\ccEL7hUr.s:20486  .debug_str:000000000000582c .LASF1128
C:\Users\CYMR90~1\AppData\Local\Temp\ccEL7hUr.s:24426  .debug_str:000000000001571a .LASF1129
C:\Users\CYMR90~1\AppData\Local\Temp\ccEL7hUr.s:29367  .debug_str:00000000000294eb .LASF1130
C:\Users\CYMR90~1\AppData\Local\Temp\ccEL7hUr.s:29765  .debug_str:000000000002acf9 .LASF1131
C:\Users\CYMR90~1\AppData\Local\Temp\ccEL7hUr.s:25125  .debug_str:00000000000184c4 .LASF1132
C:\Users\CYMR90~1\AppData\Local\Temp\ccEL7hUr.s:27929  .debug_str:0000000000023661 .LASF1133
C:\Users\CYMR90~1\AppData\Local\Temp\ccEL7hUr.s:21020  .debug_str:0000000000007a7c .LASF1134
C:\Users\CYMR90~1\AppData\Local\Temp\ccEL7hUr.s:20268  .debug_str:0000000000004aea .LASF1135
C:\Users\CYMR90~1\AppData\Local\Temp\ccEL7hUr.s:20102  .debug_str:0000000000003ee0 .LASF1136
C:\Users\CYMR90~1\AppData\Local\Temp\ccEL7hUr.s:29377  .debug_str:00000000000295c7 .LASF1137
C:\Users\CYMR90~1\AppData\Local\Temp\ccEL7hUr.s:26511  .debug_str:000000000001e0a4 .LASF1138
C:\Users\CYMR90~1\AppData\Local\Temp\ccEL7hUr.s:26415  .debug_str:000000000001da57 .LASF1139
C:\Users\CYMR90~1\AppData\Local\Temp\ccEL7hUr.s:19168  .debug_str:0000000000000443 .LASF1140
C:\Users\CYMR90~1\AppData\Local\Temp\ccEL7hUr.s:23352  .debug_str:00000000000111c0 .LASF1141
C:\Users\CYMR90~1\AppData\Local\Temp\ccEL7hUr.s:22616  .debug_str:000000000000e3a6 .LASF1142
C:\Users\CYMR90~1\AppData\Local\Temp\ccEL7hUr.s:28901  .debug_str:0000000000027613 .LASF1143
C:\Users\CYMR90~1\AppData\Local\Temp\ccEL7hUr.s:27105  .debug_str:000000000002047f .LASF1144
C:\Users\CYMR90~1\AppData\Local\Temp\ccEL7hUr.s:22142  .debug_str:000000000000c4e3 .LASF1145
C:\Users\CYMR90~1\AppData\Local\Temp\ccEL7hUr.s:30189  .debug_str:000000000002c958 .LASF1146
C:\Users\CYMR90~1\AppData\Local\Temp\ccEL7hUr.s:24877  .debug_str:0000000000017586 .LASF1147
C:\Users\CYMR90~1\AppData\Local\Temp\ccEL7hUr.s:25133  .debug_str:0000000000018571 .LASF1148
C:\Users\CYMR90~1\AppData\Local\Temp\ccEL7hUr.s:25869  .debug_str:000000000001b6cc .LASF1149
C:\Users\CYMR90~1\AppData\Local\Temp\ccEL7hUr.s:19576  .debug_str:0000000000001dcc .LASF1150
C:\Users\CYMR90~1\AppData\Local\Temp\ccEL7hUr.s:26289  .debug_str:000000000001d27c .LASF1151
C:\Users\CYMR90~1\AppData\Local\Temp\ccEL7hUr.s:21464  .debug_str:0000000000009757 .LASF1152
C:\Users\CYMR90~1\AppData\Local\Temp\ccEL7hUr.s:27397  .debug_str:0000000000021695 .LASF1153
C:\Users\CYMR90~1\AppData\Local\Temp\ccEL7hUr.s:26641  .debug_str:000000000001e88b .LASF1154
C:\Users\CYMR90~1\AppData\Local\Temp\ccEL7hUr.s:24258  .debug_str:0000000000014cbe .LASF1155
C:\Users\CYMR90~1\AppData\Local\Temp\ccEL7hUr.s:26475  .debug_str:000000000001de66 .LASF1156
C:\Users\CYMR90~1\AppData\Local\Temp\ccEL7hUr.s:21886  .debug_str:000000000000b2d3 .LASF1157
C:\Users\CYMR90~1\AppData\Local\Temp\ccEL7hUr.s:29547  .debug_str:0000000000029fe2 .LASF1158
C:\Users\CYMR90~1\AppData\Local\Temp\ccEL7hUr.s:19462  .debug_str:000000000000163f .LASF1159
C:\Users\CYMR90~1\AppData\Local\Temp\ccEL7hUr.s:29627  .debug_str:000000000002a4ca .LASF1160
C:\Users\CYMR90~1\AppData\Local\Temp\ccEL7hUr.s:29317  .debug_str:0000000000029201 .LASF1161
C:\Users\CYMR90~1\AppData\Local\Temp\ccEL7hUr.s:26367  .debug_str:000000000001d771 .LASF1162
C:\Users\CYMR90~1\AppData\Local\Temp\ccEL7hUr.s:25505  .debug_str:0000000000019e1e .LASF1163
C:\Users\CYMR90~1\AppData\Local\Temp\ccEL7hUr.s:22432  .debug_str:000000000000d8af .LASF1164
C:\Users\CYMR90~1\AppData\Local\Temp\ccEL7hUr.s:27029  .debug_str:000000000001ffed .LASF1165
C:\Users\CYMR90~1\AppData\Local\Temp\ccEL7hUr.s:23310  .debug_str:0000000000010f65 .LASF1166
C:\Users\CYMR90~1\AppData\Local\Temp\ccEL7hUr.s:21462  .debug_str:000000000000974d .LASF1167
C:\Users\CYMR90~1\AppData\Local\Temp\ccEL7hUr.s:24370  .debug_str:00000000000153f4 .LASF1168
C:\Users\CYMR90~1\AppData\Local\Temp\ccEL7hUr.s:25713  .debug_str:000000000001acab .LASF1169
C:\Users\CYMR90~1\AppData\Local\Temp\ccEL7hUr.s:25417  .debug_str:0000000000019867 .LASF1170
C:\Users\CYMR90~1\AppData\Local\Temp\ccEL7hUr.s:29573  .debug_str:000000000002a14a .LASF1171
C:\Users\CYMR90~1\AppData\Local\Temp\ccEL7hUr.s:24650  .debug_str:0000000000016510 .LASF1172
C:\Users\CYMR90~1\AppData\Local\Temp\ccEL7hUr.s:19286  .debug_str:0000000000000bc1 .LASF1173
C:\Users\CYMR90~1\AppData\Local\Temp\ccEL7hUr.s:19684  .debug_str:00000000000023ae .LASF1174
C:\Users\CYMR90~1\AppData\Local\Temp\ccEL7hUr.s:23886  .debug_str:0000000000013598 .LASF1175
C:\Users\CYMR90~1\AppData\Local\Temp\ccEL7hUr.s:22246  .debug_str:000000000000cca8 .LASF1176
C:\Users\CYMR90~1\AppData\Local\Temp\ccEL7hUr.s:26425  .debug_str:000000000001daf0 .LASF1177
C:\Users\CYMR90~1\AppData\Local\Temp\ccEL7hUr.s:22848  .debug_str:000000000000f1a5 .LASF1178
C:\Users\CYMR90~1\AppData\Local\Temp\ccEL7hUr.s:22418  .debug_str:000000000000d801 .LASF1179
C:\Users\CYMR90~1\AppData\Local\Temp\ccEL7hUr.s:28127  .debug_str:0000000000024395 .LASF1180
C:\Users\CYMR90~1\AppData\Local\Temp\ccEL7hUr.s:29323  .debug_str:000000000002924c .LASF1181
C:\Users\CYMR90~1\AppData\Local\Temp\ccEL7hUr.s:19852  .debug_str:0000000000002eb7 .LASF1182
C:\Users\CYMR90~1\AppData\Local\Temp\ccEL7hUr.s:26745  .debug_str:000000000001ee69 .LASF1183
C:\Users\CYMR90~1\AppData\Local\Temp\ccEL7hUr.s:27199  .debug_str:0000000000020a86 .LASF1184
C:\Users\CYMR90~1\AppData\Local\Temp\ccEL7hUr.s:28357  .debug_str:0000000000025367 .LASF1185
C:\Users\CYMR90~1\AppData\Local\Temp\ccEL7hUr.s:19578  .debug_str:0000000000001de5 .LASF1186
C:\Users\CYMR90~1\AppData\Local\Temp\ccEL7hUr.s:20496  .debug_str:00000000000058bc .LASF1187
C:\Users\CYMR90~1\AppData\Local\Temp\ccEL7hUr.s:27673  .debug_str:0000000000022724 .LASF1188
C:\Users\CYMR90~1\AppData\Local\Temp\ccEL7hUr.s:21024  .debug_str:0000000000007aad .LASF1189
C:\Users\CYMR90~1\AppData\Local\Temp\ccEL7hUr.s:27717  .debug_str:00000000000229c2 .LASF1190
C:\Users\CYMR90~1\AppData\Local\Temp\ccEL7hUr.s:22220  .debug_str:000000000000ca46 .LASF1191
C:\Users\CYMR90~1\AppData\Local\Temp\ccEL7hUr.s:27385  .debug_str:00000000000215f5 .LASF1192
C:\Users\CYMR90~1\AppData\Local\Temp\ccEL7hUr.s:22464  .debug_str:000000000000da77 .LASF1193
C:\Users\CYMR90~1\AppData\Local\Temp\ccEL7hUr.s:25963  .debug_str:000000000001bc65 .LASF1194
C:\Users\CYMR90~1\AppData\Local\Temp\ccEL7hUr.s:24026  .debug_str:0000000000013e21 .LASF1195
C:\Users\CYMR90~1\AppData\Local\Temp\ccEL7hUr.s:27421  .debug_str:000000000002183d .LASF1196
C:\Users\CYMR90~1\AppData\Local\Temp\ccEL7hUr.s:29571  .debug_str:000000000002a13b .LASF1197
C:\Users\CYMR90~1\AppData\Local\Temp\ccEL7hUr.s:24672  .debug_str:00000000000166e0 .LASF1198
C:\Users\CYMR90~1\AppData\Local\Temp\ccEL7hUr.s:29577  .debug_str:000000000002a171 .LASF1199
C:\Users\CYMR90~1\AppData\Local\Temp\ccEL7hUr.s:21706  .debug_str:000000000000a6eb .LASF1200
C:\Users\CYMR90~1\AppData\Local\Temp\ccEL7hUr.s:21374  .debug_str:00000000000091ff .LASF1201
C:\Users\CYMR90~1\AppData\Local\Temp\ccEL7hUr.s:24865  .debug_str:00000000000174e5 .LASF1202
C:\Users\CYMR90~1\AppData\Local\Temp\ccEL7hUr.s:28683  .debug_str:0000000000026883 .LASF1203
C:\Users\CYMR90~1\AppData\Local\Temp\ccEL7hUr.s:23940  .debug_str:0000000000013908 .LASF1204
C:\Users\CYMR90~1\AppData\Local\Temp\ccEL7hUr.s:23016  .debug_str:000000000000fc72 .LASF1205
C:\Users\CYMR90~1\AppData\Local\Temp\ccEL7hUr.s:29543  .debug_str:0000000000029fb0 .LASF1206
C:\Users\CYMR90~1\AppData\Local\Temp\ccEL7hUr.s:28213  .debug_str:0000000000024946 .LASF1207
C:\Users\CYMR90~1\AppData\Local\Temp\ccEL7hUr.s:22944  .debug_str:000000000000f793 .LASF1208
C:\Users\CYMR90~1\AppData\Local\Temp\ccEL7hUr.s:20392  .debug_str:0000000000005284 .LASF1209
C:\Users\CYMR90~1\AppData\Local\Temp\ccEL7hUr.s:20488  .debug_str:0000000000005842 .LASF1210
C:\Users\CYMR90~1\AppData\Local\Temp\ccEL7hUr.s:21168  .debug_str:000000000000852a .LASF1211
C:\Users\CYMR90~1\AppData\Local\Temp\ccEL7hUr.s:20772  .debug_str:00000000000069be .LASF1212
C:\Users\CYMR90~1\AppData\Local\Temp\ccEL7hUr.s:19694  .debug_str:000000000000246a .LASF1213
C:\Users\CYMR90~1\AppData\Local\Temp\ccEL7hUr.s:21506  .debug_str:0000000000009a7e .LASF1214
C:\Users\CYMR90~1\AppData\Local\Temp\ccEL7hUr.s:19636  .debug_str:00000000000020e5 .LASF1215
C:\Users\CYMR90~1\AppData\Local\Temp\ccEL7hUr.s:27835  .debug_str:00000000000230a9 .LASF1216
C:\Users\CYMR90~1\AppData\Local\Temp\ccEL7hUr.s:27849  .debug_str:000000000002315d .LASF1217
C:\Users\CYMR90~1\AppData\Local\Temp\ccEL7hUr.s:28267  .debug_str:0000000000024ccf .LASF1218
C:\Users\CYMR90~1\AppData\Local\Temp\ccEL7hUr.s:25855  .debug_str:000000000001b5f4 .LASF1219
C:\Users\CYMR90~1\AppData\Local\Temp\ccEL7hUr.s:22506  .debug_str:000000000000dccd .LASF1220
C:\Users\CYMR90~1\AppData\Local\Temp\ccEL7hUr.s:24194  .debug_str:00000000000148e0 .LASF1221
C:\Users\CYMR90~1\AppData\Local\Temp\ccEL7hUr.s:19872  .debug_str:0000000000002fe9 .LASF1222
C:\Users\CYMR90~1\AppData\Local\Temp\ccEL7hUr.s:25599  .debug_str:000000000001a54a .LASF1223
C:\Users\CYMR90~1\AppData\Local\Temp\ccEL7hUr.s:28865  .debug_str:0000000000027432 .LASF1224
C:\Users\CYMR90~1\AppData\Local\Temp\ccEL7hUr.s:21972  .debug_str:000000000000b8ce .LASF1225
C:\Users\CYMR90~1\AppData\Local\Temp\ccEL7hUr.s:20910  .debug_str:0000000000007331 .LASF1226
C:\Users\CYMR90~1\AppData\Local\Temp\ccEL7hUr.s:19968  .debug_str:0000000000003676 .LASF1227
C:\Users\CYMR90~1\AppData\Local\Temp\ccEL7hUr.s:30243  .debug_str:000000000002cd2a .LASF1228
C:\Users\CYMR90~1\AppData\Local\Temp\ccEL7hUr.s:29299  .debug_str:00000000000290f1 .LASF1229
C:\Users\CYMR90~1\AppData\Local\Temp\ccEL7hUr.s:28325  .debug_str:00000000000250bd .LASF1230
C:\Users\CYMR90~1\AppData\Local\Temp\ccEL7hUr.s:27373  .debug_str:000000000002154b .LASF1231
C:\Users\CYMR90~1\AppData\Local\Temp\ccEL7hUr.s:27259  .debug_str:0000000000020e34 .LASF1232
C:\Users\CYMR90~1\AppData\Local\Temp\ccEL7hUr.s:26307  .debug_str:000000000001d374 .LASF1233
C:\Users\CYMR90~1\AppData\Local\Temp\ccEL7hUr.s:25373  .debug_str:0000000000019586 .LASF1234
C:\Users\CYMR90~1\AppData\Local\Temp\ccEL7hUr.s:23814  .debug_str:000000000001303a .LASF1235
C:\Users\CYMR90~1\AppData\Local\Temp\ccEL7hUr.s:23476  .debug_str:0000000000011a33 .LASF1236
C:\Users\CYMR90~1\AppData\Local\Temp\ccEL7hUr.s:24763  .debug_str:0000000000016ed3 .LASF1237
C:\Users\CYMR90~1\AppData\Local\Temp\ccEL7hUr.s:21578  .debug_str:0000000000009ecd .LASF1238
C:\Users\CYMR90~1\AppData\Local\Temp\ccEL7hUr.s:20596  .debug_str:0000000000005edb .LASF1239
C:\Users\CYMR90~1\AppData\Local\Temp\ccEL7hUr.s:19652  .debug_str:00000000000021d1 .LASF1240
C:\Users\CYMR90~1\AppData\Local\Temp\ccEL7hUr.s:29961  .debug_str:000000000002b9e8 .LASF1241
C:\Users\CYMR90~1\AppData\Local\Temp\ccEL7hUr.s:19182  .debug_str:00000000000004f7 .LASF1242
C:\Users\CYMR90~1\AppData\Local\Temp\ccEL7hUr.s:29439  .debug_str:0000000000029979 .LASF1243
C:\Users\CYMR90~1\AppData\Local\Temp\ccEL7hUr.s:28469  .debug_str:0000000000025b47 .LASF1244
C:\Users\CYMR90~1\AppData\Local\Temp\ccEL7hUr.s:27527  .debug_str:0000000000021ed0 .LASF1245
C:\Users\CYMR90~1\AppData\Local\Temp\ccEL7hUr.s:26547  .debug_str:000000000001e2b3 .LASF1246
C:\Users\CYMR90~1\AppData\Local\Temp\ccEL7hUr.s:25657  .debug_str:000000000001a932 .LASF1247
C:\Users\CYMR90~1\AppData\Local\Temp\ccEL7hUr.s:24716  .debug_str:00000000000169bd .LASF1248
C:\Users\CYMR90~1\AppData\Local\Temp\ccEL7hUr.s:24881  .debug_str:00000000000175e7 .LASF1249
C:\Users\CYMR90~1\AppData\Local\Temp\ccEL7hUr.s:22854  .debug_str:000000000000f1ea .LASF1250
C:\Users\CYMR90~1\AppData\Local\Temp\ccEL7hUr.s:24977  .debug_str:0000000000017c0b .LASF1251
C:\Users\CYMR90~1\AppData\Local\Temp\ccEL7hUr.s:22358  .debug_str:000000000000d375 .LASF1252
C:\Users\CYMR90~1\AppData\Local\Temp\ccEL7hUr.s:21388  .debug_str:00000000000092ce .LASF1253
C:\Users\CYMR90~1\AppData\Local\Temp\ccEL7hUr.s:19424  .debug_str:0000000000001413 .LASF1254
C:\Users\CYMR90~1\AppData\Local\Temp\ccEL7hUr.s:22278  .debug_str:000000000000ce60 .LASF1255
C:\Users\CYMR90~1\AppData\Local\Temp\ccEL7hUr.s:20550  .debug_str:0000000000005c42 .LASF1256
C:\Users\CYMR90~1\AppData\Local\Temp\ccEL7hUr.s:25249  .debug_str:0000000000018d43 .LASF1257
C:\Users\CYMR90~1\AppData\Local\Temp\ccEL7hUr.s:25251  .debug_str:0000000000018d56 .LASF1258
C:\Users\CYMR90~1\AppData\Local\Temp\ccEL7hUr.s:27721  .debug_str:00000000000229f2 .LASF1259
C:\Users\CYMR90~1\AppData\Local\Temp\ccEL7hUr.s:25849  .debug_str:000000000001b5ad .LASF1260
C:\Users\CYMR90~1\AppData\Local\Temp\ccEL7hUr.s:23280  .debug_str:0000000000010dfd .LASF1261
C:\Users\CYMR90~1\AppData\Local\Temp\ccEL7hUr.s:20446  .debug_str:00000000000055cb .LASF1262
C:\Users\CYMR90~1\AppData\Local\Temp\ccEL7hUr.s:22592  .debug_str:000000000000e225 .LASF1263
C:\Users\CYMR90~1\AppData\Local\Temp\ccEL7hUr.s:24740  .debug_str:0000000000016bca .LASF1264
C:\Users\CYMR90~1\AppData\Local\Temp\ccEL7hUr.s:22640  .debug_str:000000000000e4f8 .LASF1265
C:\Users\CYMR90~1\AppData\Local\Temp\ccEL7hUr.s:27747  .debug_str:0000000000022bea .LASF1266
C:\Users\CYMR90~1\AppData\Local\Temp\ccEL7hUr.s:27923  .debug_str:0000000000023617 .LASF1267
C:\Users\CYMR90~1\AppData\Local\Temp\ccEL7hUr.s:23414  .debug_str:0000000000011566 .LASF1268
C:\Users\CYMR90~1\AppData\Local\Temp\ccEL7hUr.s:30013  .debug_str:000000000002bd38 .LASF1269
C:\Users\CYMR90~1\AppData\Local\Temp\ccEL7hUr.s:24979  .debug_str:0000000000017c22 .LASF1270
C:\Users\CYMR90~1\AppData\Local\Temp\ccEL7hUr.s:29401  .debug_str:0000000000029747 .LASF1271
C:\Users\CYMR90~1\AppData\Local\Temp\ccEL7hUr.s:26427  .debug_str:000000000001dafd .LASF1272
C:\Users\CYMR90~1\AppData\Local\Temp\ccEL7hUr.s:19242  .debug_str:00000000000008a6 .LASF1273
C:\Users\CYMR90~1\AppData\Local\Temp\ccEL7hUr.s:25257  .debug_str:0000000000018da4 .LASF1274
C:\Users\CYMR90~1\AppData\Local\Temp\ccEL7hUr.s:19350  .debug_str:0000000000000fca .LASF1275
C:\Users\CYMR90~1\AppData\Local\Temp\ccEL7hUr.s:21600  .debug_str:000000000000a04a .LASF1276
C:\Users\CYMR90~1\AppData\Local\Temp\ccEL7hUr.s:20614  .debug_str:0000000000005ff6 .LASF1277
C:\Users\CYMR90~1\AppData\Local\Temp\ccEL7hUr.s:19682  .debug_str:000000000000239c .LASF1278
C:\Users\CYMR90~1\AppData\Local\Temp\ccEL7hUr.s:29981  .debug_str:000000000002bb1a .LASF1279
C:\Users\CYMR90~1\AppData\Local\Temp\ccEL7hUr.s:20508  .debug_str:0000000000005987 .LASF1280
C:\Users\CYMR90~1\AppData\Local\Temp\ccEL7hUr.s:19566  .debug_str:0000000000001d2a .LASF1281
C:\Users\CYMR90~1\AppData\Local\Temp\ccEL7hUr.s:26591  .debug_str:000000000001e553 .LASF1282
C:\Users\CYMR90~1\AppData\Local\Temp\ccEL7hUr.s:19314  .debug_str:0000000000000d35 .LASF1283
C:\Users\CYMR90~1\AppData\Local\Temp\ccEL7hUr.s:27947  .debug_str:00000000000237cd .LASF1284
C:\Users\CYMR90~1\AppData\Local\Temp\ccEL7hUr.s:26977  .debug_str:000000000001fc92 .LASF1285
C:\Users\CYMR90~1\AppData\Local\Temp\ccEL7hUr.s:26029  .debug_str:000000000001c0bd .LASF1286
C:\Users\CYMR90~1\AppData\Local\Temp\ccEL7hUr.s:25087  .debug_str:000000000001828a .LASF1287
C:\Users\CYMR90~1\AppData\Local\Temp\ccEL7hUr.s:24134  .debug_str:00000000000144df .LASF1288
C:\Users\CYMR90~1\AppData\Local\Temp\ccEL7hUr.s:23210  .debug_str:00000000000108df .LASF1289
C:\Users\CYMR90~1\AppData\Local\Temp\ccEL7hUr.s:27477  .debug_str:0000000000021ba3 .LASF1290
C:\Users\CYMR90~1\AppData\Local\Temp\ccEL7hUr.s:26499  .debug_str:000000000001dffa .LASF1291
C:\Users\CYMR90~1\AppData\Local\Temp\ccEL7hUr.s:25597  .debug_str:000000000001a536 .LASF1292
C:\Users\CYMR90~1\AppData\Local\Temp\ccEL7hUr.s:24606  .debug_str:00000000000162a9 .LASF1293
C:\Users\CYMR90~1\AppData\Local\Temp\ccEL7hUr.s:23698  .debug_str:00000000000128a6 .LASF1294
C:\Users\CYMR90~1\AppData\Local\Temp\ccEL7hUr.s:22746  .debug_str:000000000000ebe3 .LASF1295
C:\Users\CYMR90~1\AppData\Local\Temp\ccEL7hUr.s:22120  .debug_str:000000000000c38d .LASF1296
C:\Users\CYMR90~1\AppData\Local\Temp\ccEL7hUr.s:26943  .debug_str:000000000001fa6e .LASF1297
C:\Users\CYMR90~1\AppData\Local\Temp\ccEL7hUr.s:26001  .debug_str:000000000001bf03 .LASF1298
C:\Users\CYMR90~1\AppData\Local\Temp\ccEL7hUr.s:25055  .debug_str:0000000000018086 .LASF1299
C:\Users\CYMR90~1\AppData\Local\Temp\ccEL7hUr.s:25975  .debug_str:000000000001bd39 .LASF1300
C:\Users\CYMR90~1\AppData\Local\Temp\ccEL7hUr.s:27195  .debug_str:0000000000020a63 .LASF1301
C:\Users\CYMR90~1\AppData\Local\Temp\ccEL7hUr.s:24648  .debug_str:00000000000164fd .LASF1302
C:\Users\CYMR90~1\AppData\Local\Temp\ccEL7hUr.s:25515  .debug_str:0000000000019ec2 .LASF1303
C:\Users\CYMR90~1\AppData\Local\Temp\ccEL7hUr.s:25487  .debug_str:0000000000019d2e .LASF1304
C:\Users\CYMR90~1\AppData\Local\Temp\ccEL7hUr.s:21280  .debug_str:0000000000008c1c .LASF1305
C:\Users\CYMR90~1\AppData\Local\Temp\ccEL7hUr.s:20298  .debug_str:0000000000004ce9 .LASF1306
C:\Users\CYMR90~1\AppData\Local\Temp\ccEL7hUr.s:19362  .debug_str:0000000000001060 .LASF1307
C:\Users\CYMR90~1\AppData\Local\Temp\ccEL7hUr.s:29643  .debug_str:000000000002a5c9 .LASF1308
C:\Users\CYMR90~1\AppData\Local\Temp\ccEL7hUr.s:28679  .debug_str:0000000000026848 .LASF1309
C:\Users\CYMR90~1\AppData\Local\Temp\ccEL7hUr.s:27723  .debug_str:0000000000022a03 .LASF1310
C:\Users\CYMR90~1\AppData\Local\Temp\ccEL7hUr.s:24006  .debug_str:0000000000013cf6 .LASF1311
C:\Users\CYMR90~1\AppData\Local\Temp\ccEL7hUr.s:22604  .debug_str:000000000000e2de .LASF1312
C:\Users\CYMR90~1\AppData\Local\Temp\ccEL7hUr.s:23860  .debug_str:0000000000013344 .LASF1313
C:\Users\CYMR90~1\AppData\Local\Temp\ccEL7hUr.s:29861  .debug_str:000000000002b320 .LASF1314
C:\Users\CYMR90~1\AppData\Local\Temp\ccEL7hUr.s:28399  .debug_str:000000000002567a .LASF1315
C:\Users\CYMR90~1\AppData\Local\Temp\ccEL7hUr.s:27939  .debug_str:0000000000023731 .LASF1316
C:\Users\CYMR90~1\AppData\Local\Temp\ccEL7hUr.s:26969  .debug_str:000000000001fc25 .LASF1317
C:\Users\CYMR90~1\AppData\Local\Temp\ccEL7hUr.s:26039  .debug_str:000000000001c167 .LASF1318
C:\Users\CYMR90~1\AppData\Local\Temp\ccEL7hUr.s:25097  .debug_str:0000000000018338 .LASF1319
C:\Users\CYMR90~1\AppData\Local\Temp\ccEL7hUr.s:24144  .debug_str:0000000000014555 .LASF1320
C:\Users\CYMR90~1\AppData\Local\Temp\ccEL7hUr.s:23216  .debug_str:000000000001093a .LASF1321
C:\Users\CYMR90~1\AppData\Local\Temp\ccEL7hUr.s:23672  .debug_str:00000000000126e4 .LASF1322
C:\Users\CYMR90~1\AppData\Local\Temp\ccEL7hUr.s:22124  .debug_str:000000000000c3b2 .LASF1323
C:\Users\CYMR90~1\AppData\Local\Temp\ccEL7hUr.s:21756  .debug_str:000000000000aa0f .LASF1324
C:\Users\CYMR90~1\AppData\Local\Temp\ccEL7hUr.s:20780  .debug_str:0000000000006a5a .LASF1325
C:\Users\CYMR90~1\AppData\Local\Temp\ccEL7hUr.s:19828  .debug_str:0000000000002d24 .LASF1326
C:\Users\CYMR90~1\AppData\Local\Temp\ccEL7hUr.s:30131  .debug_str:000000000002c57d .LASF1327
C:\Users\CYMR90~1\AppData\Local\Temp\ccEL7hUr.s:29217  .debug_str:0000000000028bc2 .LASF1328
C:\Users\CYMR90~1\AppData\Local\Temp\ccEL7hUr.s:28247  .debug_str:0000000000024b73 .LASF1329
C:\Users\CYMR90~1\AppData\Local\Temp\ccEL7hUr.s:27297  .debug_str:000000000002103e .LASF1330
C:\Users\CYMR90~1\AppData\Local\Temp\ccEL7hUr.s:26339  .debug_str:000000000001d57e .LASF1331
C:\Users\CYMR90~1\AppData\Local\Temp\ccEL7hUr.s:26767  .debug_str:000000000001efe2 .LASF1332
C:\Users\CYMR90~1\AppData\Local\Temp\ccEL7hUr.s:25863  .debug_str:000000000001b670 .LASF1333
C:\Users\CYMR90~1\AppData\Local\Temp\ccEL7hUr.s:24568  .debug_str:0000000000016051 .LASF1334
C:\Users\CYMR90~1\AppData\Local\Temp\ccEL7hUr.s:22274  .debug_str:000000000000ce35 .LASF1335
C:\Users\CYMR90~1\AppData\Local\Temp\ccEL7hUr.s:26985  .debug_str:000000000001fcf1 .LASF1336
C:\Users\CYMR90~1\AppData\Local\Temp\ccEL7hUr.s:23556  .debug_str:0000000000011f85 .LASF1337
C:\Users\CYMR90~1\AppData\Local\Temp\ccEL7hUr.s:19466  .debug_str:0000000000001677 .LASF1338
C:\Users\CYMR90~1\AppData\Local\Temp\ccEL7hUr.s:21550  .debug_str:0000000000009d29 .LASF1339
C:\Users\CYMR90~1\AppData\Local\Temp\ccEL7hUr.s:20568  .debug_str:0000000000005d50 .LASF1340
C:\Users\CYMR90~1\AppData\Local\Temp\ccEL7hUr.s:19622  .debug_str:000000000000202e .LASF1341
C:\Users\CYMR90~1\AppData\Local\Temp\ccEL7hUr.s:29939  .debug_str:000000000002b85e .LASF1342
C:\Users\CYMR90~1\AppData\Local\Temp\ccEL7hUr.s:29731  .debug_str:000000000002aade .LASF1343
C:\Users\CYMR90~1\AppData\Local\Temp\ccEL7hUr.s:28761  .debug_str:0000000000026d4e .LASF1344
C:\Users\CYMR90~1\AppData\Local\Temp\ccEL7hUr.s:27813  .debug_str:0000000000022f9d .LASF1345
C:\Users\CYMR90~1\AppData\Local\Temp\ccEL7hUr.s:29171  .debug_str:0000000000028938 .LASF1346
C:\Users\CYMR90~1\AppData\Local\Temp\ccEL7hUr.s:25907  .debug_str:000000000001b92f .LASF1347
C:\Users\CYMR90~1\AppData\Local\Temp\ccEL7hUr.s:26417  .debug_str:000000000001da6f .LASF1348
C:\Users\CYMR90~1\AppData\Local\Temp\ccEL7hUr.s:24018  .debug_str:0000000000013db3 .LASF1349
C:\Users\CYMR90~1\AppData\Local\Temp\ccEL7hUr.s:27131  .debug_str:0000000000020677 .LASF1350
C:\Users\CYMR90~1\AppData\Local\Temp\ccEL7hUr.s:22138  .debug_str:000000000000c4b8 .LASF1351
C:\Users\CYMR90~1\AppData\Local\Temp\ccEL7hUr.s:21066  .debug_str:0000000000007dbd .LASF1352
C:\Users\CYMR90~1\AppData\Local\Temp\ccEL7hUr.s:21632  .debug_str:000000000000a253 .LASF1353
C:\Users\CYMR90~1\AppData\Local\Temp\ccEL7hUr.s:20646  .debug_str:0000000000006214 .LASF1354
C:\Users\CYMR90~1\AppData\Local\Temp\ccEL7hUr.s:19706  .debug_str:000000000000250a .LASF1355
C:\Users\CYMR90~1\AppData\Local\Temp\ccEL7hUr.s:30009  .debug_str:000000000002bd18 .LASF1356
C:\Users\CYMR90~1\AppData\Local\Temp\ccEL7hUr.s:24106  .debug_str:0000000000014357 .LASF1357
C:\Users\CYMR90~1\AppData\Local\Temp\ccEL7hUr.s:20774  .debug_str:0000000000006a02 .LASF1358
C:\Users\CYMR90~1\AppData\Local\Temp\ccEL7hUr.s:27177  .debug_str:000000000002093d .LASF1359
C:\Users\CYMR90~1\AppData\Local\Temp\ccEL7hUr.s:26135  .debug_str:000000000001c71b .LASF1360
C:\Users\CYMR90~1\AppData\Local\Temp\ccEL7hUr.s:25191  .debug_str:00000000000188e5 .LASF1361
C:\Users\CYMR90~1\AppData\Local\Temp\ccEL7hUr.s:29181  .debug_str:00000000000289c9 .LASF1362
C:\Users\CYMR90~1\AppData\Local\Temp\ccEL7hUr.s:24492  .debug_str:0000000000015adf .LASF1363
C:\Users\CYMR90~1\AppData\Local\Temp\ccEL7hUr.s:21186  .debug_str:0000000000008643 .LASF1364
C:\Users\CYMR90~1\AppData\Local\Temp\ccEL7hUr.s:28791  .debug_str:0000000000026f11 .LASF1365
C:\Users\CYMR90~1\AppData\Local\Temp\ccEL7hUr.s:22258  .debug_str:000000000000cd41 .LASF1366
C:\Users\CYMR90~1\AppData\Local\Temp\ccEL7hUr.s:27069  .debug_str:0000000000020219 .LASF1367
C:\Users\CYMR90~1\AppData\Local\Temp\ccEL7hUr.s:25349  .debug_str:00000000000193e1 .LASF1368
C:\Users\CYMR90~1\AppData\Local\Temp\ccEL7hUr.s:23260  .debug_str:0000000000010c0b .LASF1369
C:\Users\CYMR90~1\AppData\Local\Temp\ccEL7hUr.s:26349  .debug_str:000000000001d609 .LASF1370
C:\Users\CYMR90~1\AppData\Local\Temp\ccEL7hUr.s:19750  .debug_str:0000000000002830 .LASF1371
C:\Users\CYMR90~1\AppData\Local\Temp\ccEL7hUr.s:22316  .debug_str:000000000000d0b2 .LASF1372
C:\Users\CYMR90~1\AppData\Local\Temp\ccEL7hUr.s:25393  .debug_str:000000000001969b .LASF1373
C:\Users\CYMR90~1\AppData\Local\Temp\ccEL7hUr.s:28461  .debug_str:0000000000025ad9 .LASF1374
C:\Users\CYMR90~1\AppData\Local\Temp\ccEL7hUr.s:20326  .debug_str:0000000000004e91 .LASF1375
C:\Users\CYMR90~1\AppData\Local\Temp\ccEL7hUr.s:23462  .debug_str:000000000001189b .LASF1376
C:\Users\CYMR90~1\AppData\Local\Temp\ccEL7hUr.s:26505  .debug_str:000000000001e054 .LASF1377
C:\Users\CYMR90~1\AppData\Local\Temp\ccEL7hUr.s:29639  .debug_str:000000000002a58c .LASF1378
C:\Users\CYMR90~1\AppData\Local\Temp\ccEL7hUr.s:29607  .debug_str:000000000002a36b .LASF1379
C:\Users\CYMR90~1\AppData\Local\Temp\ccEL7hUr.s:21400  .debug_str:000000000000937e .LASF1380
C:\Users\CYMR90~1\AppData\Local\Temp\ccEL7hUr.s:24464  .debug_str:0000000000015943 .LASF1381
C:\Users\CYMR90~1\AppData\Local\Temp\ccEL7hUr.s:27573  .debug_str:000000000002217c .LASF1382
C:\Users\CYMR90~1\AppData\Local\Temp\ccEL7hUr.s:19438  .debug_str:00000000000014c4 .LASF1383
C:\Users\CYMR90~1\AppData\Local\Temp\ccEL7hUr.s:23926  .debug_str:000000000001382c .LASF1384
C:\Users\CYMR90~1\AppData\Local\Temp\ccEL7hUr.s:25691  .debug_str:000000000001ab5c .LASF1385
C:\Users\CYMR90~1\AppData\Local\Temp\ccEL7hUr.s:28751  .debug_str:0000000000026c8d .LASF1386
C:\Users\CYMR90~1\AppData\Local\Temp\ccEL7hUr.s:20602  .debug_str:0000000000005f3e .LASF1387
C:\Users\CYMR90~1\AppData\Local\Temp\ccEL7hUr.s:23656  .debug_str:00000000000125e3 .LASF1388
C:\Users\CYMR90~1\AppData\Local\Temp\ccEL7hUr.s:23022  .debug_str:000000000000fcb8 .LASF1389
C:\Users\CYMR90~1\AppData\Local\Temp\ccEL7hUr.s:25985  .debug_str:000000000001bdef .LASF1390
C:\Users\CYMR90~1\AppData\Local\Temp\ccEL7hUr.s:29089  .debug_str:0000000000028386 .LASF1391
C:\Users\CYMR90~1\AppData\Local\Temp\ccEL7hUr.s:20948  .debug_str:0000000000007584 .LASF1392
C:\Users\CYMR90~1\AppData\Local\Temp\ccEL7hUr.s:24044  .debug_str:0000000000013f2c .LASF1393
C:\Users\CYMR90~1\AppData\Local\Temp\ccEL7hUr.s:20046  .debug_str:0000000000003baa .LASF1394
C:\Users\CYMR90~1\AppData\Local\Temp\ccEL7hUr.s:30301  .debug_str:000000000002d0a1 .LASF1395
C:\Users\CYMR90~1\AppData\Local\Temp\ccEL7hUr.s:22194  .debug_str:000000000000c813 .LASF1396
C:\Users\CYMR90~1\AppData\Local\Temp\ccEL7hUr.s:26717  .debug_str:000000000001ecce .LASF1397
C:\Users\CYMR90~1\AppData\Local\Temp\ccEL7hUr.s:23368  .debug_str:00000000000112b5 .LASF1398
C:\Users\CYMR90~1\AppData\Local\Temp\ccEL7hUr.s:24630  .debug_str:000000000001640e .LASF1399
C:\Users\CYMR90~1\AppData\Local\Temp\ccEL7hUr.s:19396  .debug_str:000000000000125f .LASF1400
C:\Users\CYMR90~1\AppData\Local\Temp\ccEL7hUr.s:27051  .debug_str:0000000000020135 .LASF1401
C:\Users\CYMR90~1\AppData\Local\Temp\ccEL7hUr.s:22012  .debug_str:000000000000bb62 .LASF1402
C:\Users\CYMR90~1\AppData\Local\Temp\ccEL7hUr.s:26817  .debug_str:000000000001f2ff .LASF1403
C:\Users\CYMR90~1\AppData\Local\Temp\ccEL7hUr.s:20116  .debug_str:0000000000004033 .LASF1404
C:\Users\CYMR90~1\AppData\Local\Temp\ccEL7hUr.s:29567  .debug_str:000000000002a0eb .LASF1405
C:\Users\CYMR90~1\AppData\Local\Temp\ccEL7hUr.s:27769  .debug_str:0000000000022d15 .LASF1406
C:\Users\CYMR90~1\AppData\Local\Temp\ccEL7hUr.s:27927  .debug_str:0000000000023649 .LASF1407
C:\Users\CYMR90~1\AppData\Local\Temp\ccEL7hUr.s:19782  .debug_str:0000000000002a2b .LASF1408
C:\Users\CYMR90~1\AppData\Local\Temp\ccEL7hUr.s:22926  .debug_str:000000000000f67f .LASF1409
C:\Users\CYMR90~1\AppData\Local\Temp\ccEL7hUr.s:29315  .debug_str:00000000000291e8 .LASF1410
C:\Users\CYMR90~1\AppData\Local\Temp\ccEL7hUr.s:21174  .debug_str:000000000000857f .LASF1411
C:\Users\CYMR90~1\AppData\Local\Temp\ccEL7hUr.s:26693  .debug_str:000000000001eb6e .LASF1412
C:\Users\CYMR90~1\AppData\Local\Temp\ccEL7hUr.s:27355  .debug_str:0000000000021422 .LASF1413
C:\Users\CYMR90~1\AppData\Local\Temp\ccEL7hUr.s:19244  .debug_str:00000000000008b9 .LASF1414
C:\Users\CYMR90~1\AppData\Local\Temp\ccEL7hUr.s:22284  .debug_str:000000000000ce9d .LASF1415
C:\Users\CYMR90~1\AppData\Local\Temp\ccEL7hUr.s:25371  .debug_str:000000000001956d .LASF1416
C:\Users\CYMR90~1\AppData\Local\Temp\ccEL7hUr.s:26879  .debug_str:000000000001f69d .LASF1417
C:\Users\CYMR90~1\AppData\Local\Temp\ccEL7hUr.s:20306  .debug_str:0000000000004d53 .LASF1418
C:\Users\CYMR90~1\AppData\Local\Temp\ccEL7hUr.s:23354  .debug_str:00000000000111d6 .LASF1419
C:\Users\CYMR90~1\AppData\Local\Temp\ccEL7hUr.s:22702  .debug_str:000000000000e909 .LASF1420
C:\Users\CYMR90~1\AppData\Local\Temp\ccEL7hUr.s:25803  .debug_str:000000000001b2ec .LASF1421
C:\Users\CYMR90~1\AppData\Local\Temp\ccEL7hUr.s:28863  .debug_str:0000000000027419 .LASF1422
C:\Users\CYMR90~1\AppData\Local\Temp\ccEL7hUr.s:20728  .debug_str:00000000000066e9 .LASF1423
C:\Users\CYMR90~1\AppData\Local\Temp\ccEL7hUr.s:23864  .debug_str:0000000000013372 .LASF1424
C:\Users\CYMR90~1\AppData\Local\Temp\ccEL7hUr.s:26809  .debug_str:000000000001f266 .LASF1425
C:\Users\CYMR90~1\AppData\Local\Temp\ccEL7hUr.s:30019  .debug_str:000000000002be0b .LASF1426
C:\Users\CYMR90~1\AppData\Local\Temp\ccEL7hUr.s:21884  .debug_str:000000000000b2ba .LASF1427
C:\Users\CYMR90~1\AppData\Local\Temp\ccEL7hUr.s:24955  .debug_str:0000000000017ac6 .LASF1428
C:\Users\CYMR90~1\AppData\Local\Temp\ccEL7hUr.s:28057  .debug_str:0000000000023e0e .LASF1429
C:\Users\CYMR90~1\AppData\Local\Temp\ccEL7hUr.s:26819  .debug_str:000000000001f317 .LASF1430
C:\Users\CYMR90~1\AppData\Local\Temp\ccEL7hUr.s:19206  .debug_str:0000000000000670 .LASF1431
C:\Users\CYMR90~1\AppData\Local\Temp\ccEL7hUr.s:23396  .debug_str:000000000001145c .LASF1432
C:\Users\CYMR90~1\AppData\Local\Temp\ccEL7hUr.s:27055  .debug_str:000000000002015f .LASF1433
C:\Users\CYMR90~1\AppData\Local\Temp\ccEL7hUr.s:26101  .debug_str:000000000001c4fa .LASF1434
C:\Users\CYMR90~1\AppData\Local\Temp\ccEL7hUr.s:25159  .debug_str:00000000000186b8 .LASF1435
C:\Users\CYMR90~1\AppData\Local\Temp\ccEL7hUr.s:24590  .debug_str:00000000000161c8 .LASF1436
C:\Users\CYMR90~1\AppData\Local\Temp\ccEL7hUr.s:28895  .debug_str:00000000000275c4 .LASF1437
C:\Users\CYMR90~1\AppData\Local\Temp\ccEL7hUr.s:27945  .debug_str:00000000000237b9 .LASF1438
C:\Users\CYMR90~1\AppData\Local\Temp\ccEL7hUr.s:26975  .debug_str:000000000001fc7e .LASF1439
C:\Users\CYMR90~1\AppData\Local\Temp\ccEL7hUr.s:26027  .debug_str:000000000001c0a9 .LASF1440
C:\Users\CYMR90~1\AppData\Local\Temp\ccEL7hUr.s:25085  .debug_str:0000000000018276 .LASF1441
C:\Users\CYMR90~1\AppData\Local\Temp\ccEL7hUr.s:24132  .debug_str:00000000000144cb .LASF1442
C:\Users\CYMR90~1\AppData\Local\Temp\ccEL7hUr.s:23208  .debug_str:00000000000108cb .LASF1443
C:\Users\CYMR90~1\AppData\Local\Temp\ccEL7hUr.s:29977  .debug_str:000000000002bae2 .LASF1444
C:\Users\CYMR90~1\AppData\Local\Temp\ccEL7hUr.s:21288  .debug_str:0000000000008c8a .LASF1445
C:\Users\CYMR90~1\AppData\Local\Temp\ccEL7hUr.s:22838  .debug_str:000000000000f10c .LASF1446
C:\Users\CYMR90~1\AppData\Local\Temp\ccEL7hUr.s:28283  .debug_str:0000000000024dc8 .LASF1447
C:\Users\CYMR90~1\AppData\Local\Temp\ccEL7hUr.s:27333  .debug_str:000000000002122d .LASF1448
C:\Users\CYMR90~1\AppData\Local\Temp\ccEL7hUr.s:26359  .debug_str:000000000001d708 .LASF1449
C:\Users\CYMR90~1\AppData\Local\Temp\ccEL7hUr.s:25437  .debug_str:0000000000019a2b .LASF1450
C:\Users\CYMR90~1\AppData\Local\Temp\ccEL7hUr.s:24462  .debug_str:000000000001592e .LASF1451
C:\Users\CYMR90~1\AppData\Local\Temp\ccEL7hUr.s:21882  .debug_str:000000000000b2a7 .LASF1452
C:\Users\CYMR90~1\AppData\Local\Temp\ccEL7hUr.s:20514  .debug_str:00000000000059dd .LASF1453
C:\Users\CYMR90~1\AppData\Local\Temp\ccEL7hUr.s:21688  .debug_str:000000000000a5ed .LASF1454
C:\Users\CYMR90~1\AppData\Local\Temp\ccEL7hUr.s:26721  .debug_str:000000000001ed10 .LASF1455
C:\Users\CYMR90~1\AppData\Local\Temp\ccEL7hUr.s:28333  .debug_str:000000000002514c .LASF1456
C:\Users\CYMR90~1\AppData\Local\Temp\ccEL7hUr.s:20482  .debug_str:000000000000580f .LASF1457
C:\Users\CYMR90~1\AppData\Local\Temp\ccEL7hUr.s:26803  .debug_str:000000000001f218 .LASF1458
C:\Users\CYMR90~1\AppData\Local\Temp\ccEL7hUr.s:23676  .debug_str:0000000000012725 .LASF1459
C:\Users\CYMR90~1\AppData\Local\Temp\ccEL7hUr.s:21792  .debug_str:000000000000ac5d .LASF1460
C:\Users\CYMR90~1\AppData\Local\Temp\ccEL7hUr.s:22980  .debug_str:000000000000fa54 .LASF1461
C:\Users\CYMR90~1\AppData\Local\Temp\ccEL7hUr.s:23468  .debug_str:0000000000011976 .LASF1462
C:\Users\CYMR90~1\AppData\Local\Temp\ccEL7hUr.s:24522  .debug_str:0000000000015ce2 .LASF1463
C:\Users\CYMR90~1\AppData\Local\Temp\ccEL7hUr.s:29755  .debug_str:000000000002ac63 .LASF1464
C:\Users\CYMR90~1\AppData\Local\Temp\ccEL7hUr.s:25703  .debug_str:000000000001ac21 .LASF1465
C:\Users\CYMR90~1\AppData\Local\Temp\ccEL7hUr.s:24136  .debug_str:00000000000144f2 .LASF1466
C:\Users\CYMR90~1\AppData\Local\Temp\ccEL7hUr.s:28781  .debug_str:0000000000026e82 .LASF1467
C:\Users\CYMR90~1\AppData\Local\Temp\ccEL7hUr.s:23152  .debug_str:00000000000104d3 .LASF1468
C:\Users\CYMR90~1\AppData\Local\Temp\ccEL7hUr.s:21246  .debug_str:0000000000008a04 .LASF1469
C:\Users\CYMR90~1\AppData\Local\Temp\ccEL7hUr.s:23444  .debug_str:0000000000011772 .LASF1470
C:\Users\CYMR90~1\AppData\Local\Temp\ccEL7hUr.s:24981  .debug_str:0000000000017c35 .LASF1471
C:\Users\CYMR90~1\AppData\Local\Temp\ccEL7hUr.s:28237  .debug_str:0000000000024ad1 .LASF1472
C:\Users\CYMR90~1\AppData\Local\Temp\ccEL7hUr.s:28869  .debug_str:000000000002745e .LASF1473
C:\Users\CYMR90~1\AppData\Local\Temp\ccEL7hUr.s:19296  .debug_str:0000000000000c3e .LASF1474
C:\Users\CYMR90~1\AppData\Local\Temp\ccEL7hUr.s:21176  .debug_str:0000000000008598 .LASF1475
C:\Users\CYMR90~1\AppData\Local\Temp\ccEL7hUr.s:29489  .debug_str:0000000000029c86 .LASF1476
C:\Users\CYMR90~1\AppData\Local\Temp\ccEL7hUr.s:30051  .debug_str:000000000002c00b .LASF1477
C:\Users\CYMR90~1\AppData\Local\Temp\ccEL7hUr.s:28091  .debug_str:00000000000240c4 .LASF1478
C:\Users\CYMR90~1\AppData\Local\Temp\ccEL7hUr.s:19932  .debug_str:0000000000003425 .LASF1479
C:\Users\CYMR90~1\AppData\Local\Temp\ccEL7hUr.s:22146  .debug_str:000000000000c514 .LASF1480
C:\Users\CYMR90~1\AppData\Local\Temp\ccEL7hUr.s:28205  .debug_str:00000000000248dd .LASF1481
C:\Users\CYMR90~1\AppData\Local\Temp\ccEL7hUr.s:21484  .debug_str:00000000000098fc .LASF1482
C:\Users\CYMR90~1\AppData\Local\Temp\ccEL7hUr.s:20312  .debug_str:0000000000004dac .LASF1483
C:\Users\CYMR90~1\AppData\Local\Temp\ccEL7hUr.s:22712  .debug_str:000000000000e9a5 .LASF1484
C:\Users\CYMR90~1\AppData\Local\Temp\ccEL7hUr.s:24104  .debug_str:0000000000014344 .LASF1485
C:\Users\CYMR90~1\AppData\Local\Temp\ccEL7hUr.s:25687  .debug_str:000000000001ab2d .LASF1486
C:\Users\CYMR90~1\AppData\Local\Temp\ccEL7hUr.s:19132  .debug_str:000000000000021d .LASF1487
C:\Users\CYMR90~1\AppData\Local\Temp\ccEL7hUr.s:24480  .debug_str:0000000000015a2b .LASF1488
C:\Users\CYMR90~1\AppData\Local\Temp\ccEL7hUr.s:22512  .debug_str:000000000000dd0b .LASF1489
C:\Users\CYMR90~1\AppData\Local\Temp\ccEL7hUr.s:29281  .debug_str:0000000000028fe2 .LASF1490
C:\Users\CYMR90~1\AppData\Local\Temp\ccEL7hUr.s:19776  .debug_str:00000000000029c4 .LASF1491
C:\Users\CYMR90~1\AppData\Local\Temp\ccEL7hUr.s:27287  .debug_str:0000000000020fbf .LASF1492
C:\Users\CYMR90~1\AppData\Local\Temp\ccEL7hUr.s:29497  .debug_str:0000000000029ce8 .LASF1493
C:\Users\CYMR90~1\AppData\Local\Temp\ccEL7hUr.s:20934  .debug_str:00000000000074b9 .LASF1494
C:\Users\CYMR90~1\AppData\Local\Temp\ccEL7hUr.s:28555  .debug_str:00000000000260a5 .LASF1495
C:\Users\CYMR90~1\AppData\Local\Temp\ccEL7hUr.s:29253  .debug_str:0000000000028e15 .LASF1496
C:\Users\CYMR90~1\AppData\Local\Temp\ccEL7hUr.s:20734  .debug_str:0000000000006741 .LASF1497
C:\Users\CYMR90~1\AppData\Local\Temp\ccEL7hUr.s:21574  .debug_str:0000000000009e94 .LASF1498
C:\Users\CYMR90~1\AppData\Local\Temp\ccEL7hUr.s:30179  .debug_str:000000000002c8aa .LASF1499
C:\Users\CYMR90~1\AppData\Local\Temp\ccEL7hUr.s:29411  .debug_str:00000000000297d4 .LASF1500
C:\Users\CYMR90~1\AppData\Local\Temp\ccEL7hUr.s:27187  .debug_str:00000000000209f3 .LASF1501
C:\Users\CYMR90~1\AppData\Local\Temp\ccEL7hUr.s:20714  .debug_str:0000000000006605 .LASF1502
C:\Users\CYMR90~1\AppData\Local\Temp\ccEL7hUr.s:22256  .debug_str:000000000000cd2a .LASF1503
C:\Users\CYMR90~1\AppData\Local\Temp\ccEL7hUr.s:26559  .debug_str:000000000001e361 .LASF1504
C:\Users\CYMR90~1\AppData\Local\Temp\ccEL7hUr.s:25885  .debug_str:000000000001b7d5 .LASF1505
C:\Users\CYMR90~1\AppData\Local\Temp\ccEL7hUr.s:22832  .debug_str:000000000000f0bd .LASF1506
C:\Users\CYMR90~1\AppData\Local\Temp\ccEL7hUr.s:27387  .debug_str:0000000000021600 .LASF1507
C:\Users\CYMR90~1\AppData\Local\Temp\ccEL7hUr.s:23622  .debug_str:00000000000123a1 .LASF1508
C:\Users\CYMR90~1\AppData\Local\Temp\ccEL7hUr.s:29157  .debug_str:0000000000028840 .LASF1509
C:\Users\CYMR90~1\AppData\Local\Temp\ccEL7hUr.s:27959  .debug_str:0000000000023873 .LASF1510
C:\Users\CYMR90~1\AppData\Local\Temp\ccEL7hUr.s:19978  .debug_str:0000000000003721 .LASF1511
C:\Users\CYMR90~1\AppData\Local\Temp\ccEL7hUr.s:24544  .debug_str:0000000000015ea9 .LASF1512
C:\Users\CYMR90~1\AppData\Local\Temp\ccEL7hUr.s:28359  .debug_str:000000000002537b .LASF1513
C:\Users\CYMR90~1\AppData\Local\Temp\ccEL7hUr.s:26779  .debug_str:000000000001f0cc .LASF1514
C:\Users\CYMR90~1\AppData\Local\Temp\ccEL7hUr.s:29919  .debug_str:000000000002b6ec .LASF1515
C:\Users\CYMR90~1\AppData\Local\Temp\ccEL7hUr.s:26611  .debug_str:000000000001e657 .LASF1516
C:\Users\CYMR90~1\AppData\Local\Temp\ccEL7hUr.s:28591  .debug_str:00000000000262b0 .LASF1517
C:\Users\CYMR90~1\AppData\Local\Temp\ccEL7hUr.s:23612  .debug_str:0000000000012330 .LASF1518
C:\Users\CYMR90~1\AppData\Local\Temp\ccEL7hUr.s:27001  .debug_str:000000000001fe31 .LASF1519
C:\Users\CYMR90~1\AppData\Local\Temp\ccEL7hUr.s:26059  .debug_str:000000000001c2a7 .LASF1520
C:\Users\CYMR90~1\AppData\Local\Temp\ccEL7hUr.s:27325  .debug_str:00000000000211be .LASF1521
C:\Users\CYMR90~1\AppData\Local\Temp\ccEL7hUr.s:25347  .debug_str:00000000000193c5 .LASF1522
C:\Users\CYMR90~1\AppData\Local\Temp\ccEL7hUr.s:27961  .debug_str:0000000000023889 .LASF1523
C:\Users\CYMR90~1\AppData\Local\Temp\ccEL7hUr.s:20382  .debug_str:00000000000051de .LASF1524
C:\Users\CYMR90~1\AppData\Local\Temp\ccEL7hUr.s:25999  .debug_str:000000000001bee8 .LASF1525
C:\Users\CYMR90~1\AppData\Local\Temp\ccEL7hUr.s:22168  .debug_str:000000000000c676 .LASF1526
C:\Users\CYMR90~1\AppData\Local\Temp\ccEL7hUr.s:27719  .debug_str:00000000000229d6 .LASF1527
C:\Users\CYMR90~1\AppData\Local\Temp\ccEL7hUr.s:28951  .debug_str:000000000002795b .LASF1528
C:\Users\CYMR90~1\AppData\Local\Temp\ccEL7hUr.s:28197  .debug_str:00000000000247d8 .LASF1529
C:\Users\CYMR90~1\AppData\Local\Temp\ccEL7hUr.s:28261  .debug_str:0000000000024c43 .LASF1530
C:\Users\CYMR90~1\AppData\Local\Temp\ccEL7hUr.s:20136  .debug_str:000000000000413f .LASF1531
C:\Users\CYMR90~1\AppData\Local\Temp\ccEL7hUr.s:25297  .debug_str:000000000001901a .LASF1532
C:\Users\CYMR90~1\AppData\Local\Temp\ccEL7hUr.s:28085  .debug_str:0000000000023f84 .LASF1533
C:\Users\CYMR90~1\AppData\Local\Temp\ccEL7hUr.s:22238  .debug_str:000000000000cb6a .LASF1534
C:\Users\CYMR90~1\AppData\Local\Temp\ccEL7hUr.s:28265  .debug_str:0000000000024cc3 .LASF1535
C:\Users\CYMR90~1\AppData\Local\Temp\ccEL7hUr.s:27627  .debug_str:0000000000022477 .LASF1536
C:\Users\CYMR90~1\AppData\Local\Temp\ccEL7hUr.s:28825  .debug_str:000000000002712d .LASF1537
C:\Users\CYMR90~1\AppData\Local\Temp\ccEL7hUr.s:28719  .debug_str:0000000000026a83 .LASF1538
C:\Users\CYMR90~1\AppData\Local\Temp\ccEL7hUr.s:23494  .debug_str:0000000000011baf .LASF1539
C:\Users\CYMR90~1\AppData\Local\Temp\ccEL7hUr.s:29437  .debug_str:000000000002995c .LASF1540
C:\Users\CYMR90~1\AppData\Local\Temp\ccEL7hUr.s:22490  .debug_str:000000000000dbf7 .LASF1541
C:\Users\CYMR90~1\AppData\Local\Temp\ccEL7hUr.s:19898  .debug_str:00000000000031c5 .LASF1542
C:\Users\CYMR90~1\AppData\Local\Temp\ccEL7hUr.s:23064  .debug_str:000000000000ff64 .LASF1543
C:\Users\CYMR90~1\AppData\Local\Temp\ccEL7hUr.s:21110  .debug_str:0000000000008121 .LASF1544
C:\Users\CYMR90~1\AppData\Local\Temp\ccEL7hUr.s:21582  .debug_str:0000000000009f07 .LASF1545
C:\Users\CYMR90~1\AppData\Local\Temp\ccEL7hUr.s:22224  .debug_str:000000000000ca6b .LASF1546
C:\Users\CYMR90~1\AppData\Local\Temp\ccEL7hUr.s:29031  .debug_str:0000000000027eec .LASF1547
C:\Users\CYMR90~1\AppData\Local\Temp\ccEL7hUr.s:28525  .debug_str:0000000000025e8d .LASF1548
C:\Users\CYMR90~1\AppData\Local\Temp\ccEL7hUr.s:25949  .debug_str:000000000001bb52 .LASF1549
C:\Users\CYMR90~1\AppData\Local\Temp\ccEL7hUr.s:23364  .debug_str:0000000000011267 .LASF1550
C:\Users\CYMR90~1\AppData\Local\Temp\ccEL7hUr.s:25919  .debug_str:000000000001b9a4 .LASF1551
C:\Users\CYMR90~1\AppData\Local\Temp\ccEL7hUr.s:19364  .debug_str:0000000000001077 .LASF1552
C:\Users\CYMR90~1\AppData\Local\Temp\ccEL7hUr.s:19676  .debug_str:0000000000002331 .LASF1553
C:\Users\CYMR90~1\AppData\Local\Temp\ccEL7hUr.s:26647  .debug_str:000000000001e8d5 .LASF1554
C:\Users\CYMR90~1\AppData\Local\Temp\ccEL7hUr.s:25253  .debug_str:0000000000018d65 .LASF1555
C:\Users\CYMR90~1\AppData\Local\Temp\ccEL7hUr.s:22894  .debug_str:000000000000f4a9 .LASF1556
C:\Users\CYMR90~1\AppData\Local\Temp\ccEL7hUr.s:29523  .debug_str:0000000000029e4e .LASF1557
C:\Users\CYMR90~1\AppData\Local\Temp\ccEL7hUr.s:23204  .debug_str:000000000001089f .LASF1558
C:\Users\CYMR90~1\AppData\Local\Temp\ccEL7hUr.s:27971  .debug_str:0000000000023902 .LASF1559
C:\Users\CYMR90~1\AppData\Local\Temp\ccEL7hUr.s:28387  .debug_str:000000000002557c .LASF1560
C:\Users\CYMR90~1\AppData\Local\Temp\ccEL7hUr.s:23314  .debug_str:0000000000010f93 .LASF1561
C:\Users\CYMR90~1\AppData\Local\Temp\ccEL7hUr.s:22990  .debug_str:000000000000fad1 .LASF1562
C:\Users\CYMR90~1\AppData\Local\Temp\ccEL7hUr.s:30017  .debug_str:000000000002bd65 .LASF1563
C:\Users\CYMR90~1\AppData\Local\Temp\ccEL7hUr.s:20742  .debug_str:00000000000067aa .LASF1564
C:\Users\CYMR90~1\AppData\Local\Temp\ccEL7hUr.s:26357  .debug_str:000000000001d67a .LASF1565
C:\Users\CYMR90~1\AppData\Local\Temp\ccEL7hUr.s:25641  .debug_str:000000000001a7dd .LASF1566
C:\Users\CYMR90~1\AppData\Local\Temp\ccEL7hUr.s:27123  .debug_str:00000000000205a2 .LASF1567
C:\Users\CYMR90~1\AppData\Local\Temp\ccEL7hUr.s:23492  .debug_str:0000000000011b08 .LASF1568
C:\Users\CYMR90~1\AppData\Local\Temp\ccEL7hUr.s:28413  .debug_str:0000000000025752 .LASF1569
C:\Users\CYMR90~1\AppData\Local\Temp\ccEL7hUr.s:23884  .debug_str:0000000000013558 .LASF1570
C:\Users\CYMR90~1\AppData\Local\Temp\ccEL7hUr.s:20430  .debug_str:00000000000054d4 .LASF1571
C:\Users\CYMR90~1\AppData\Local\Temp\ccEL7hUr.s:24290  .debug_str:0000000000014f15 .LASF1572
C:\Users\CYMR90~1\AppData\Local\Temp\ccEL7hUr.s:29145  .debug_str:0000000000028776 .LASF1573
C:\Users\CYMR90~1\AppData\Local\Temp\ccEL7hUr.s:24753  .debug_str:0000000000016e27 .LASF1574
C:\Users\CYMR90~1\AppData\Local\Temp\ccEL7hUr.s:22868  .debug_str:000000000000f2e7 .LASF1575
C:\Users\CYMR90~1\AppData\Local\Temp\ccEL7hUr.s:26651  .debug_str:000000000001e917 .LASF1576
C:\Users\CYMR90~1\AppData\Local\Temp\ccEL7hUr.s:29631  .debug_str:000000000002a4f0 .LASF1577
C:\Users\CYMR90~1\AppData\Local\Temp\ccEL7hUr.s:19686  .debug_str:00000000000023bc .LASF1578
C:\Users\CYMR90~1\AppData\Local\Temp\ccEL7hUr.s:26203  .debug_str:000000000001cc01 .LASF1579
C:\Users\CYMR90~1\AppData\Local\Temp\ccEL7hUr.s:21694  .debug_str:000000000000a640 .LASF1580
C:\Users\CYMR90~1\AppData\Local\Temp\ccEL7hUr.s:22406  .debug_str:000000000000d71c .LASF1581
C:\Users\CYMR90~1\AppData\Local\Temp\ccEL7hUr.s:21100  .debug_str:0000000000007ff5 .LASF1582
C:\Users\CYMR90~1\AppData\Local\Temp\ccEL7hUr.s:28827  .debug_str:000000000002714b .LASF1583
C:\Users\CYMR90~1\AppData\Local\Temp\ccEL7hUr.s:26457  .debug_str:000000000001dcbf .LASF1584
C:\Users\CYMR90~1\AppData\Local\Temp\ccEL7hUr.s:30231  .debug_str:000000000002cbaa .LASF1585
C:\Users\CYMR90~1\AppData\Local\Temp\ccEL7hUr.s:22380  .debug_str:000000000000d4d2 .LASF1586
C:\Users\CYMR90~1\AppData\Local\Temp\ccEL7hUr.s:21060  .debug_str:0000000000007cd2 .LASF1587
C:\Users\CYMR90~1\AppData\Local\Temp\ccEL7hUr.s:24728  .debug_str:0000000000016a78 .LASF1588
C:\Users\CYMR90~1\AppData\Local\Temp\ccEL7hUr.s:21912  .debug_str:000000000000b464 .LASF1589
C:\Users\CYMR90~1\AppData\Local\Temp\ccEL7hUr.s:24654  .debug_str:000000000001653f .LASF1590
C:\Users\CYMR90~1\AppData\Local\Temp\ccEL7hUr.s:21298  .debug_str:0000000000008cf8 .LASF1591
C:\Users\CYMR90~1\AppData\Local\Temp\ccEL7hUr.s:23876  .debug_str:0000000000013473 .LASF1592
C:\Users\CYMR90~1\AppData\Local\Temp\ccEL7hUr.s:23196  .debug_str:0000000000010770 .LASF1593
C:\Users\CYMR90~1\AppData\Local\Temp\ccEL7hUr.s:29063  .debug_str:000000000002815a .LASF1594
C:\Users\CYMR90~1\AppData\Local\Temp\ccEL7hUr.s:19332  .debug_str:0000000000000e49 .LASF1595
C:\Users\CYMR90~1\AppData\Local\Temp\ccEL7hUr.s:26229  .debug_str:000000000001cdc9 .LASF1596
C:\Users\CYMR90~1\AppData\Local\Temp\ccEL7hUr.s:20242  .debug_str:00000000000048c3 .LASF1597
C:\Users\CYMR90~1\AppData\Local\Temp\ccEL7hUr.s:28335  .debug_str:000000000002515b .LASF1598
C:\Users\CYMR90~1\AppData\Local\Temp\ccEL7hUr.s:19472  .debug_str:00000000000016d0 .LASF1599
C:\Users\CYMR90~1\AppData\Local\Temp\ccEL7hUr.s:22954  .debug_str:000000000000f808 .LASF1600
C:\Users\CYMR90~1\AppData\Local\Temp\ccEL7hUr.s:27349  .debug_str:0000000000021325 .LASF1601
C:\Users\CYMR90~1\AppData\Local\Temp\ccEL7hUr.s:26255  .debug_str:000000000001cfef .LASF1602
C:\Users\CYMR90~1\AppData\Local\Temp\ccEL7hUr.s:26147  .debug_str:000000000001c7d2 .LASF1603
C:\Users\CYMR90~1\AppData\Local\Temp\ccEL7hUr.s:28315  .debug_str:0000000000024f9a .LASF1604
C:\Users\CYMR90~1\AppData\Local\Temp\ccEL7hUr.s:28239  .debug_str:0000000000024ae7 .LASF1605
C:\Users\CYMR90~1\AppData\Local\Temp\ccEL7hUr.s:28191  .debug_str:0000000000024784 .LASF1606
C:\Users\CYMR90~1\AppData\Local\Temp\ccEL7hUr.s:25197  .debug_str:0000000000018937 .LASF1607
C:\Users\CYMR90~1\AppData\Local\Temp\ccEL7hUr.s:20220  .debug_str:0000000000004736 .LASF1608
C:\Users\CYMR90~1\AppData\Local\Temp\ccEL7hUr.s:27557  .debug_str:0000000000022081 .LASF1609
C:\Users\CYMR90~1\AppData\Local\Temp\ccEL7hUr.s:30141  .debug_str:000000000002c5e0 .LASF1610
C:\Users\CYMR90~1\AppData\Local\Temp\ccEL7hUr.s:26097  .debug_str:000000000001c4be .LASF1611
C:\Users\CYMR90~1\AppData\Local\Temp\ccEL7hUr.s:24180  .debug_str:0000000000014810 .LASF1612
C:\Users\CYMR90~1\AppData\Local\Temp\ccEL7hUr.s:21568  .debug_str:0000000000009e36 .LASF1613
C:\Users\CYMR90~1\AppData\Local\Temp\ccEL7hUr.s:25787  .debug_str:000000000001b1a6 .LASF1614
C:\Users\CYMR90~1\AppData\Local\Temp\ccEL7hUr.s:27445  .debug_str:000000000002197f .LASF1615
C:\Users\CYMR90~1\AppData\Local\Temp\ccEL7hUr.s:24264  .debug_str:0000000000014d1c .LASF1616
C:\Users\CYMR90~1\AppData\Local\Temp\ccEL7hUr.s:26159  .debug_str:000000000001c946 .LASF1617
C:\Users\CYMR90~1\AppData\Local\Temp\ccEL7hUr.s:20266  .debug_str:0000000000004acc .LASF1618
C:\Users\CYMR90~1\AppData\Local\Temp\ccEL7hUr.s:21946  .debug_str:000000000000b735 .LASF1619
C:\Users\CYMR90~1\AppData\Local\Temp\ccEL7hUr.s:22786  .debug_str:000000000000ee42 .LASF1620
C:\Users\CYMR90~1\AppData\Local\Temp\ccEL7hUr.s:19836  .debug_str:0000000000002dc6 .LASF1621
C:\Users\CYMR90~1\AppData\Local\Temp\ccEL7hUr.s:27153  .debug_str:00000000000207af .LASF1622
C:\Users\CYMR90~1\AppData\Local\Temp\ccEL7hUr.s:23878  .debug_str:000000000001350e .LASF1623
C:\Users\CYMR90~1\AppData\Local\Temp\ccEL7hUr.s:22048  .debug_str:000000000000bef8 .LASF1624
C:\Users\CYMR90~1\AppData\Local\Temp\ccEL7hUr.s:27843  .debug_str:0000000000023105 .LASF1625
C:\Users\CYMR90~1\AppData\Local\Temp\ccEL7hUr.s:20738  .debug_str:000000000000677c .LASF1626
C:\Users\CYMR90~1\AppData\Local\Temp\ccEL7hUr.s:26897  .debug_str:000000000001f7aa .LASF1627
C:\Users\CYMR90~1\AppData\Local\Temp\ccEL7hUr.s:21806  .debug_str:000000000000ad37 .LASF1628
C:\Users\CYMR90~1\AppData\Local\Temp\ccEL7hUr.s:27637  .debug_str:00000000000224e3 .LASF1629
C:\Users\CYMR90~1\AppData\Local\Temp\ccEL7hUr.s:21282  .debug_str:0000000000008c33 .LASF1630
C:\Users\CYMR90~1\AppData\Local\Temp\ccEL7hUr.s:19430  .debug_str:000000000000146f .LASF1631
C:\Users\CYMR90~1\AppData\Local\Temp\ccEL7hUr.s:25897  .debug_str:000000000001b8bc .LASF1632
C:\Users\CYMR90~1\AppData\Local\Temp\ccEL7hUr.s:24891  .debug_str:0000000000017679 .LASF1633
C:\Users\CYMR90~1\AppData\Local\Temp\ccEL7hUr.s:22026  .debug_str:000000000000bc59 .LASF1634
C:\Users\CYMR90~1\AppData\Local\Temp\ccEL7hUr.s:22140  .debug_str:000000000000c4ce .LASF1635
C:\Users\CYMR90~1\AppData\Local\Temp\ccEL7hUr.s:25759  .debug_str:000000000001aff0 .LASF1636
C:\Users\CYMR90~1\AppData\Local\Temp\ccEL7hUr.s:22208  .debug_str:000000000000c958 .LASF1637
C:\Users\CYMR90~1\AppData\Local\Temp\ccEL7hUr.s:21922  .debug_str:000000000000b589 .LASF1638
C:\Users\CYMR90~1\AppData\Local\Temp\ccEL7hUr.s:25101  .debug_str:0000000000018369 .LASF1639
C:\Users\CYMR90~1\AppData\Local\Temp\ccEL7hUr.s:23158  .debug_str:000000000001052f .LASF1640
C:\Users\CYMR90~1\AppData\Local\Temp\ccEL7hUr.s:28183  .debug_str:000000000002470e .LASF1641
C:\Users\CYMR90~1\AppData\Local\Temp\ccEL7hUr.s:23502  .debug_str:0000000000011c50 .LASF1642
C:\Users\CYMR90~1\AppData\Local\Temp\ccEL7hUr.s:27039  .debug_str:0000000000020087 .LASF1643
C:\Users\CYMR90~1\AppData\Local\Temp\ccEL7hUr.s:30109  .debug_str:000000000002c441 .LASF1644
C:\Users\CYMR90~1\AppData\Local\Temp\ccEL7hUr.s:19824  .debug_str:0000000000002cf3 .LASF1645
C:\Users\CYMR90~1\AppData\Local\Temp\ccEL7hUr.s:24690  .debug_str:00000000000167ce .LASF1646
C:\Users\CYMR90~1\AppData\Local\Temp\ccEL7hUr.s:24799  .debug_str:0000000000017113 .LASF1647
C:\Users\CYMR90~1\AppData\Local\Temp\ccEL7hUr.s:19626  .debug_str:0000000000002062 .LASF1648
C:\Users\CYMR90~1\AppData\Local\Temp\ccEL7hUr.s:21126  .debug_str:0000000000008258 .LASF1649
C:\Users\CYMR90~1\AppData\Local\Temp\ccEL7hUr.s:27859  .debug_str:0000000000023205 .LASF1650
C:\Users\CYMR90~1\AppData\Local\Temp\ccEL7hUr.s:23250  .debug_str:0000000000010b13 .LASF1651
C:\Users\CYMR90~1\AppData\Local\Temp\ccEL7hUr.s:21018  .debug_str:0000000000007a07 .LASF1652
C:\Users\CYMR90~1\AppData\Local\Temp\ccEL7hUr.s:19370  .debug_str:00000000000010e8 .LASF1653
C:\Users\CYMR90~1\AppData\Local\Temp\ccEL7hUr.s:24995  .debug_str:0000000000017cf8 .LASF1656
C:\Users\CYMR90~1\AppData\Local\Temp\ccEL7hUr.s:29681  .debug_str:000000000002a810 .LASF1657
C:\Users\CYMR90~1\AppData\Local\Temp\ccEL7hUr.s:23282  .debug_str:0000000000010e0b .LASF1658
C:\Users\CYMR90~1\AppData\Local\Temp\ccEL7hUr.s:25321  .debug_str:0000000000019261 .LASF1659
C:\Users\CYMR90~1\AppData\Local\Temp\ccEL7hUr.s:29915  .debug_str:000000000002b6ad .LASF1660
C:\Users\CYMR90~1\AppData\Local\Temp\ccEL7hUr.s:29949  .debug_str:000000000002b909 .LASF1661
C:\Users\CYMR90~1\AppData\Local\Temp\ccEL7hUr.s:27239  .debug_str:0000000000020d29 .LASF1662
C:\Users\CYMR90~1\AppData\Local\Temp\ccEL7hUr.s:24226  .debug_str:0000000000014aa6 .LASF1663
C:\Users\CYMR90~1\AppData\Local\Temp\ccEL7hUr.s:26405  .debug_str:000000000001d9c0 .LASF1664
C:\Users\CYMR90~1\AppData\Local\Temp\ccEL7hUr.s:27327  .debug_str:00000000000211d9 .LASF1665
C:\Users\CYMR90~1\AppData\Local\Temp\ccEL7hUr.s:22994  .debug_str:000000000000faf7 .LASF1666
C:\Users\CYMR90~1\AppData\Local\Temp\ccEL7hUr.s:22696  .debug_str:000000000000e893 .LASF1667
C:\Users\CYMR90~1\AppData\Local\Temp\ccEL7hUr.s:20064  .debug_str:0000000000003c90 .LASF1668
C:\Users\CYMR90~1\AppData\Local\Temp\ccEL7hUr.s:21318  .debug_str:0000000000008ec4 .LASF1669
C:\Users\CYMR90~1\AppData\Local\Temp\ccEL7hUr.s:20280  .debug_str:0000000000004baa .LASF1670
C:\Users\CYMR90~1\AppData\Local\Temp\ccEL7hUr.s:19180  .debug_str:00000000000004dd .LASF1671
C:\Users\CYMR90~1\AppData\Local\Temp\ccEL7hUr.s:24156  .debug_str:000000000001461c .LASF1672
C:\Users\CYMR90~1\AppData\Local\Temp\ccEL7hUr.s:23574  .debug_str:000000000001207a .LASF1673
C:\Users\CYMR90~1\AppData\Local\Temp\ccEL7hUr.s:22736  .debug_str:000000000000eb1b .LASF1674
C:\Users\CYMR90~1\AppData\Local\Temp\ccEL7hUr.s:28203  .debug_str:00000000000248c3 .LASF1675
C:\Users\CYMR90~1\AppData\Local\Temp\ccEL7hUr.s:23702  .debug_str:00000000000128cf .LASF1676
C:\Users\CYMR90~1\AppData\Local\Temp\ccEL7hUr.s:30111  .debug_str:000000000002c456 .LASF1677
C:\Users\CYMR90~1\AppData\Local\Temp\ccEL7hUr.s:19734  .debug_str:00000000000026e4 .LASF1678
C:\Users\CYMR90~1\AppData\Local\Temp\ccEL7hUr.s:23232  .debug_str:0000000000010a3a .LASF1679
C:\Users\CYMR90~1\AppData\Local\Temp\ccEL7hUr.s:24390  .debug_str:000000000001551c .LASF1680
C:\Users\CYMR90~1\AppData\Local\Temp\ccEL7hUr.s:23082  .debug_str:00000000000100ac .LASF1681
C:\Users\CYMR90~1\AppData\Local\Temp\ccEL7hUr.s:28939  .debug_str:0000000000027883 .LASF1682
C:\Users\CYMR90~1\AppData\Local\Temp\ccEL7hUr.s:27807  .debug_str:0000000000022f48 .LASF1683
C:\Users\CYMR90~1\AppData\Local\Temp\ccEL7hUr.s:28711  .debug_str:0000000000026a28 .LASF1684
C:\Users\CYMR90~1\AppData\Local\Temp\ccEL7hUr.s:23230  .debug_str:0000000000010a22 .LASF1685
C:\Users\CYMR90~1\AppData\Local\Temp\ccEL7hUr.s:27135  .debug_str:00000000000206a0 .LASF1686
C:\Users\CYMR90~1\AppData\Local\Temp\ccEL7hUr.s:29427  .debug_str:00000000000298b1 .LASF1687
C:\Users\CYMR90~1\AppData\Local\Temp\ccEL7hUr.s:21794  .debug_str:000000000000ac74 .LASF1688
C:\Users\CYMR90~1\AppData\Local\Temp\ccEL7hUr.s:25859  .debug_str:000000000001b622 .LASF1689
C:\Users\CYMR90~1\AppData\Local\Temp\ccEL7hUr.s:23964  .debug_str:0000000000013a6f .LASF1690
C:\Users\CYMR90~1\AppData\Local\Temp\ccEL7hUr.s:27539  .debug_str:0000000000021f7d .LASF1691
C:\Users\CYMR90~1\AppData\Local\Temp\ccEL7hUr.s:25185  .debug_str:000000000001887e .LASF1692
C:\Users\CYMR90~1\AppData\Local\Temp\ccEL7hUr.s:21120  .debug_str:00000000000081e4 .LASF1693
C:\Users\CYMR90~1\AppData\Local\Temp\ccEL7hUr.s:23154  .debug_str:00000000000104e3 .LASF1694
C:\Users\CYMR90~1\AppData\Local\Temp\ccEL7hUr.s:24965  .debug_str:0000000000017b45 .LASF1695
C:\Users\CYMR90~1\AppData\Local\Temp\ccEL7hUr.s:24272  .debug_str:0000000000014daf .LASF1696
C:\Users\CYMR90~1\AppData\Local\Temp\ccEL7hUr.s:26793  .debug_str:000000000001f185 .LASF1697
C:\Users\CYMR90~1\AppData\Local\Temp\ccEL7hUr.s:25357  .debug_str:000000000001948c .LASF1698
C:\Users\CYMR90~1\AppData\Local\Temp\ccEL7hUr.s:27251  .debug_str:0000000000020dc6 .LASF1699
C:\Users\CYMR90~1\AppData\Local\Temp\ccEL7hUr.s:26789  .debug_str:000000000001f148 .LASF1700
C:\Users\CYMR90~1\AppData\Local\Temp\ccEL7hUr.s:28031  .debug_str:0000000000023c6a .LASF1701
C:\Users\CYMR90~1\AppData\Local\Temp\ccEL7hUr.s:27993  .debug_str:0000000000023a4b .LASF1702
C:\Users\CYMR90~1\AppData\Local\Temp\ccEL7hUr.s:27529  .debug_str:0000000000021ee7 .LASF1703
C:\Users\CYMR90~1\AppData\Local\Temp\ccEL7hUr.s:25981  .debug_str:000000000001bd94 .LASF1704
C:\Users\CYMR90~1\AppData\Local\Temp\ccEL7hUr.s:27389  .debug_str:0000000000021614 .LASF1705
C:\Users\CYMR90~1\AppData\Local\Temp\ccEL7hUr.s:24875  .debug_str:0000000000017562 .LASF1706
C:\Users\CYMR90~1\AppData\Local\Temp\ccEL7hUr.s:23880  .debug_str:0000000000013521 .LASF1707
C:\Users\CYMR90~1\AppData\Local\Temp\ccEL7hUr.s:26539  .debug_str:000000000001e249 .LASF1708
C:\Users\CYMR90~1\AppData\Local\Temp\ccEL7hUr.s:25103  .debug_str:000000000001837e .LASF1709
C:\Users\CYMR90~1\AppData\Local\Temp\ccEL7hUr.s:22028  .debug_str:000000000000bc6e .LASF1710
C:\Users\CYMR90~1\AppData\Local\Temp\ccEL7hUr.s:23522  .debug_str:0000000000011d63 .LASF1711
C:\Users\CYMR90~1\AppData\Local\Temp\ccEL7hUr.s:20668  .debug_str:0000000000006342 .LASF1712
C:\Users\CYMR90~1\AppData\Local\Temp\ccEL7hUr.s:23000  .debug_str:000000000000fb54 .LASF1713
C:\Users\CYMR90~1\AppData\Local\Temp\ccEL7hUr.s:19954  .debug_str:000000000000359c .LASF1714
C:\Users\CYMR90~1\AppData\Local\Temp\ccEL7hUr.s:23228  .debug_str:00000000000109f6 .LASF1715
C:\Users\CYMR90~1\AppData\Local\Temp\ccEL7hUr.s:26509  .debug_str:000000000001e082 .LASF1716
C:\Users\CYMR90~1\AppData\Local\Temp\ccEL7hUr.s:25067  .debug_str:000000000001814b .LASF1717
C:\Users\CYMR90~1\AppData\Local\Temp\ccEL7hUr.s:23466  .debug_str:00000000000118c8 .LASF1718
C:\Users\CYMR90~1\AppData\Local\Temp\ccEL7hUr.s:25419  .debug_str:0000000000019874 .LASF1719
C:\Users\CYMR90~1\AppData\Local\Temp\ccEL7hUr.s:23956  .debug_str:00000000000139ec .LASF1720
C:\Users\CYMR90~1\AppData\Local\Temp\ccEL7hUr.s:19662  .debug_str:0000000000002278 .LASF1721
C:\Users\CYMR90~1\AppData\Local\Temp\ccEL7hUr.s:25751  .debug_str:000000000001af0d .LASF1722
C:\Users\CYMR90~1\AppData\Local\Temp\ccEL7hUr.s:19726  .debug_str:000000000000266e .LASF1723
C:\Users\CYMR90~1\AppData\Local\Temp\ccEL7hUr.s:24458  .debug_str:00000000000158d1 .LASF1724
C:\Users\CYMR90~1\AppData\Local\Temp\ccEL7hUr.s:29229  .debug_str:0000000000028c6a .LASF1725
C:\Users\CYMR90~1\AppData\Local\Temp\ccEL7hUr.s:20560  .debug_str:0000000000005cc0 .LASF1726
C:\Users\CYMR90~1\AppData\Local\Temp\ccEL7hUr.s:28871  .debug_str:0000000000027472 .LASF1727
C:\Users\CYMR90~1\AppData\Local\Temp\ccEL7hUr.s:26201  .debug_str:000000000001cbca .LASF1728
C:\Users\CYMR90~1\AppData\Local\Temp\ccEL7hUr.s:30021  .debug_str:000000000002be24 .LASF1729
C:\Users\CYMR90~1\AppData\Local\Temp\ccEL7hUr.s:28701  .debug_str:000000000002698d .LASF1730
C:\Users\CYMR90~1\AppData\Local\Temp\ccEL7hUr.s:23402  .debug_str:000000000001149e .LASF1731
C:\Users\CYMR90~1\AppData\Local\Temp\ccEL7hUr.s:21430  .debug_str:0000000000009520 .LASF1732
C:\Users\CYMR90~1\AppData\Local\Temp\ccEL7hUr.s:19432  .debug_str:0000000000001482 .LASF1733
C:\Users\CYMR90~1\AppData\Local\Temp\ccEL7hUr.s:24829  .debug_str:00000000000172ae .LASF1734
C:\Users\CYMR90~1\AppData\Local\Temp\ccEL7hUr.s:26963  .debug_str:000000000001fbc9 .LASF1735
C:\Users\CYMR90~1\AppData\Local\Temp\ccEL7hUr.s:21422  .debug_str:00000000000094aa .LASF1736
C:\Users\CYMR90~1\AppData\Local\Temp\ccEL7hUr.s:21140  .debug_str:0000000000008334 .LASF1737
C:\Users\CYMR90~1\AppData\Local\Temp\ccEL7hUr.s:28707  .debug_str:00000000000269f9 .LASF1738
C:\Users\CYMR90~1\AppData\Local\Temp\ccEL7hUr.s:22760  .debug_str:000000000000ecb5 .LASF1739
C:\Users\CYMR90~1\AppData\Local\Temp\ccEL7hUr.s:21758  .debug_str:000000000000aa27 .LASF1740
C:\Users\CYMR90~1\AppData\Local\Temp\ccEL7hUr.s:26815  .debug_str:000000000001f2cc .LASF1741
C:\Users\CYMR90~1\AppData\Local\Temp\ccEL7hUr.s:26465  .debug_str:000000000001ddaf .LASF1742
C:\Users\CYMR90~1\AppData\Local\Temp\ccEL7hUr.s:28985  .debug_str:0000000000027bd4 .LASF1743
C:\Users\CYMR90~1\AppData\Local\Temp\ccEL7hUr.s:21146  .debug_str:00000000000083a6 .LASF1744
C:\Users\CYMR90~1\AppData\Local\Temp\ccEL7hUr.s:23056  .debug_str:000000000000fedb .LASF1745
C:\Users\CYMR90~1\AppData\Local\Temp\ccEL7hUr.s:28035  .debug_str:0000000000023cb0 .LASF1746
C:\Users\CYMR90~1\AppData\Local\Temp\ccEL7hUr.s:27645  .debug_str:0000000000022553 .LASF1747
C:\Users\CYMR90~1\AppData\Local\Temp\ccEL7hUr.s:23226  .debug_str:00000000000109d3 .LASF1748
C:\Users\CYMR90~1\AppData\Local\Temp\ccEL7hUr.s:21918  .debug_str:000000000000b540 .LASF1749
C:\Users\CYMR90~1\AppData\Local\Temp\ccEL7hUr.s:24999  .debug_str:0000000000017d2c .LASF1750
C:\Users\CYMR90~1\AppData\Local\Temp\ccEL7hUr.s:29055  .debug_str:00000000000280cd .LASF1751
C:\Users\CYMR90~1\AppData\Local\Temp\ccEL7hUr.s:25727  .debug_str:000000000001ad81 .LASF1752
C:\Users\CYMR90~1\AppData\Local\Temp\ccEL7hUr.s:25623  .debug_str:000000000001a67d .LASF1753
C:\Users\CYMR90~1\AppData\Local\Temp\ccEL7hUr.s:22198  .debug_str:000000000000c857 .LASF1754
C:\Users\CYMR90~1\AppData\Local\Temp\ccEL7hUr.s:23770  .debug_str:0000000000012d62 .LASF1755
C:\Users\CYMR90~1\AppData\Local\Temp\ccEL7hUr.s:25817  .debug_str:000000000001b3bd .LASF1756
C:\Users\CYMR90~1\AppData\Local\Temp\ccEL7hUr.s:22856  .debug_str:000000000000f201 .LASF1757
C:\Users\CYMR90~1\AppData\Local\Temp\ccEL7hUr.s:20964  .debug_str:000000000000768d .LASF1758
C:\Users\CYMR90~1\AppData\Local\Temp\ccEL7hUr.s:25567  .debug_str:000000000001a1b7 .LASF1759
C:\Users\CYMR90~1\AppData\Local\Temp\ccEL7hUr.s:21248  .debug_str:0000000000008a16 .LASF1760
C:\Users\CYMR90~1\AppData\Local\Temp\ccEL7hUr.s:19494  .debug_str:00000000000018da .LASF1761
C:\Users\CYMR90~1\AppData\Local\Temp\ccEL7hUr.s:28219  .debug_str:0000000000024992 .LASF1762
C:\Users\CYMR90~1\AppData\Local\Temp\ccEL7hUr.s:20992  .debug_str:0000000000007868 .LASF1763
C:\Users\CYMR90~1\AppData\Local\Temp\ccEL7hUr.s:20682  .debug_str:000000000000643b .LASF1764
C:\Users\CYMR90~1\AppData\Local\Temp\ccEL7hUr.s:19474  .debug_str:0000000000001786 .LASF1765
C:\Users\CYMR90~1\AppData\Local\Temp\ccEL7hUr.s:25925  .debug_str:000000000001b9fd .LASF1766
C:\Users\CYMR90~1\AppData\Local\Temp\ccEL7hUr.s:19532  .debug_str:0000000000001b15 .LASF1767
C:\Users\CYMR90~1\AppData\Local\Temp\ccEL7hUr.s:28415  .debug_str:00000000000257e0 .LASF1768
C:\Users\CYMR90~1\AppData\Local\Temp\ccEL7hUr.s:30095  .debug_str:000000000002c350 .LASF1769
C:\Users\CYMR90~1\AppData\Local\Temp\ccEL7hUr.s:22086  .debug_str:000000000000c15d .LASF1770
C:\Users\CYMR90~1\AppData\Local\Temp\ccEL7hUr.s:21668  .debug_str:000000000000a4a1 .LASF1771
C:\Users\CYMR90~1\AppData\Local\Temp\ccEL7hUr.s:19212  .debug_str:00000000000006bb .LASF1772
C:\Users\CYMR90~1\AppData\Local\Temp\ccEL7hUr.s:19260  .debug_str:00000000000009a3 .LASF1773
C:\Users\CYMR90~1\AppData\Local\Temp\ccEL7hUr.s:29135  .debug_str:00000000000286b7 .LASF1774
C:\Users\CYMR90~1\AppData\Local\Temp\ccEL7hUr.s:24172  .debug_str:0000000000014772 .LASF1775
C:\Users\CYMR90~1\AppData\Local\Temp\ccEL7hUr.s:22936  .debug_str:000000000000f706 .LASF1776
C:\Users\CYMR90~1\AppData\Local\Temp\ccEL7hUr.s:24991  .debug_str:0000000000017cc7 .LASF1777
C:\Users\CYMR90~1\AppData\Local\Temp\ccEL7hUr.s:20406  .debug_str:0000000000005355 .LASF1778
C:\Users\CYMR90~1\AppData\Local\Temp\ccEL7hUr.s:28453  .debug_str:0000000000025a4f .LASF1779
C:\Users\CYMR90~1\AppData\Local\Temp\ccEL7hUr.s:27677  .debug_str:000000000002275e .LASF1780
C:\Users\CYMR90~1\AppData\Local\Temp\ccEL7hUr.s:26209  .debug_str:000000000001cc6c .LASF1783
C:\Users\CYMR90~1\AppData\Local\Temp\ccEL7hUr.s:25367  .debug_str:0000000000019527 .LASF1784
C:\Users\CYMR90~1\AppData\Local\Temp\ccEL7hUr.s:25219  .debug_str:0000000000018aa2 .LASF1785
C:\Users\CYMR90~1\AppData\Local\Temp\ccEL7hUr.s:24212  .debug_str:00000000000149f6 .LASF1786
C:\Users\CYMR90~1\AppData\Local\Temp\ccEL7hUr.s:29559  .debug_str:000000000002a06c .LASF1787
C:\Users\CYMR90~1\AppData\Local\Temp\ccEL7hUr.s:29865  .debug_str:000000000002b35e .LASF1788
C:\Users\CYMR90~1\AppData\Local\Temp\ccEL7hUr.s:20000  .debug_str:00000000000038bf .LASF1789
C:\Users\CYMR90~1\AppData\Local\Temp\ccEL7hUr.s:19128  .debug_str:00000000000001e7 .LASF1790
C:\Users\CYMR90~1\AppData\Local\Temp\ccEL7hUr.s:28793  .debug_str:0000000000026f25 .LASF1791
C:\Users\CYMR90~1\AppData\Local\Temp\ccEL7hUr.s:27889  .debug_str:00000000000233ba .LASF1792
C:\Users\CYMR90~1\AppData\Local\Temp\ccEL7hUr.s:29747  .debug_str:000000000002abba .LASF1793
C:\Users\CYMR90~1\AppData\Local\Temp\ccEL7hUr.s:29067  .debug_str:000000000002822b .LASF1794
C:\Users\CYMR90~1\AppData\Local\Temp\ccEL7hUr.s:23892  .debug_str:00000000000135eb .LASF1795
C:\Users\CYMR90~1\AppData\Local\Temp\ccEL7hUr.s:24160  .debug_str:000000000001465e .LASF1796
C:\Users\CYMR90~1\AppData\Local\Temp\ccEL7hUr.s:23286  .debug_str:0000000000010e28 .LASF1797
C:\Users\CYMR90~1\AppData\Local\Temp\ccEL7hUr.s:22114  .debug_str:000000000000c326 .LASF1798
C:\Users\CYMR90~1\AppData\Local\Temp\ccEL7hUr.s:24907  .debug_str:0000000000017778 .LASF1799
C:\Users\CYMR90~1\AppData\Local\Temp\ccEL7hUr.s:25211  .debug_str:0000000000018a31 .LASF1800
C:\Users\CYMR90~1\AppData\Local\Temp\ccEL7hUr.s:24294  .debug_str:0000000000014f4f .LASF1801
C:\Users\CYMR90~1\AppData\Local\Temp\ccEL7hUr.s:23348  .debug_str:0000000000011185 .LASF1802
C:\Users\CYMR90~1\AppData\Local\Temp\ccEL7hUr.s:22834  .debug_str:000000000000f0d4 .LASF1803
C:\Users\CYMR90~1\AppData\Local\Temp\ccEL7hUr.s:27475  .debug_str:0000000000021b7c .LASF1804
C:\Users\CYMR90~1\AppData\Local\Temp\ccEL7hUr.s:24182  .debug_str:0000000000014834 .LASF1805
C:\Users\CYMR90~1\AppData\Local\Temp\ccEL7hUr.s:27079  .debug_str:0000000000020296 .LASF1806
C:\Users\CYMR90~1\AppData\Local\Temp\ccEL7hUr.s:24318  .debug_str:00000000000150e5 .LASF1807
C:\Users\CYMR90~1\AppData\Local\Temp\ccEL7hUr.s:29059  .debug_str:0000000000028119 .LASF1808
C:\Users\CYMR90~1\AppData\Local\Temp\ccEL7hUr.s:26303  .debug_str:000000000001d343 .LASF1809
C:\Users\CYMR90~1\AppData\Local\Temp\ccEL7hUr.s:25005  .debug_str:0000000000017da1 .LASF1810
C:\Users\CYMR90~1\AppData\Local\Temp\ccEL7hUr.s:19452  .debug_str:000000000000159f .LASF1811
C:\Users\CYMR90~1\AppData\Local\Temp\ccEL7hUr.s:23238  .debug_str:0000000000010a80 .LASF1812
C:\Users\CYMR90~1\AppData\Local\Temp\ccEL7hUr.s:23506  .debug_str:0000000000011c82 .LASF1813
C:\Users\CYMR90~1\AppData\Local\Temp\ccEL7hUr.s:26285  .debug_str:000000000001d24b .LASF1814
C:\Users\CYMR90~1\AppData\Local\Temp\ccEL7hUr.s:24971  .debug_str:0000000000017bb7 .LASF1815
C:\Users\CYMR90~1\AppData\Local\Temp\ccEL7hUr.s:26293  .debug_str:000000000001d2c9 .LASF1816
C:\Users\CYMR90~1\AppData\Local\Temp\ccEL7hUr.s:26737  .debug_str:000000000001edfc .LASF1817
C:\Users\CYMR90~1\AppData\Local\Temp\ccEL7hUr.s:23052  .debug_str:000000000000fea3 .LASF1818
C:\Users\CYMR90~1\AppData\Local\Temp\ccEL7hUr.s:27219  .debug_str:0000000000020bde .LASF1819
C:\Users\CYMR90~1\AppData\Local\Temp\ccEL7hUr.s:20706  .debug_str:0000000000006599 .LASF1820
C:\Users\CYMR90~1\AppData\Local\Temp\ccEL7hUr.s:21080  .debug_str:0000000000007eb3 .LASF1821
C:\Users\CYMR90~1\AppData\Local\Temp\ccEL7hUr.s:26671  .debug_str:000000000001ea4d .LASF1822
C:\Users\CYMR90~1\AppData\Local\Temp\ccEL7hUr.s:29339  .debug_str:0000000000029335 .LASF1823
C:\Users\CYMR90~1\AppData\Local\Temp\ccEL7hUr.s:21980  .debug_str:000000000000b9a9 .LASF1824
C:\Users\CYMR90~1\AppData\Local\Temp\ccEL7hUr.s:27315  .debug_str:0000000000021127 .LASF1825
C:\Users\CYMR90~1\AppData\Local\Temp\ccEL7hUr.s:29687  .debug_str:000000000002a84a .LASF1826
C:\Users\CYMR90~1\AppData\Local\Temp\ccEL7hUr.s:22804  .debug_str:000000000000ef34 .LASF1827
C:\Users\CYMR90~1\AppData\Local\Temp\ccEL7hUr.s:22876  .debug_str:000000000000f376 .LASF1828
C:\Users\CYMR90~1\AppData\Local\Temp\ccEL7hUr.s:29073  .debug_str:000000000002828c .LASF1829
C:\Users\CYMR90~1\AppData\Local\Temp\ccEL7hUr.s:21450  .debug_str:00000000000096b7 .LASF1830
C:\Users\CYMR90~1\AppData\Local\Temp\ccEL7hUr.s:28735  .debug_str:0000000000026b77 .LASF1831
C:\Users\CYMR90~1\AppData\Local\Temp\ccEL7hUr.s:22254  .debug_str:000000000000cd0f .LASF1832
C:\Users\CYMR90~1\AppData\Local\Temp\ccEL7hUr.s:20906  .debug_str:00000000000072f2 .LASF1833
C:\Users\CYMR90~1\AppData\Local\Temp\ccEL7hUr.s:24608  .debug_str:00000000000162bd .LASF1834
C:\Users\CYMR90~1\AppData\Local\Temp\ccEL7hUr.s:28605  .debug_str:000000000002637f .LASF1835
C:\Users\CYMR90~1\AppData\Local\Temp\ccEL7hUr.s:24578  .debug_str:00000000000160fd .LASF1836
C:\Users\CYMR90~1\AppData\Local\Temp\ccEL7hUr.s:25295  .debug_str:0000000000019002 .LASF1837
C:\Users\CYMR90~1\AppData\Local\Temp\ccEL7hUr.s:23290  .debug_str:0000000000010e60 .LASF1838
C:\Users\CYMR90~1\AppData\Local\Temp\ccEL7hUr.s:26241  .debug_str:000000000001cf05 .LASF1839
C:\Users\CYMR90~1\AppData\Local\Temp\ccEL7hUr.s:25529  .debug_str:0000000000019f9a .LASF1840
C:\Users\CYMR90~1\AppData\Local\Temp\ccEL7hUr.s:28297  .debug_str:0000000000024ea3 .LASF1841
C:\Users\CYMR90~1\AppData\Local\Temp\ccEL7hUr.s:28691  .debug_str:00000000000268ec .LASF1842
C:\Users\CYMR90~1\AppData\Local\Temp\ccEL7hUr.s:29883  .debug_str:000000000002b4ae .LASF1843
C:\Users\CYMR90~1\AppData\Local\Temp\ccEL7hUr.s:29741  .debug_str:000000000002ab67 .LASF1844
C:\Users\CYMR90~1\AppData\Local\Temp\ccEL7hUr.s:21182  .debug_str:0000000000008612 .LASF1845
C:\Users\CYMR90~1\AppData\Local\Temp\ccEL7hUr.s:26441  .debug_str:000000000001dbae .LASF1846
C:\Users\CYMR90~1\AppData\Local\Temp\ccEL7hUr.s:27583  .debug_str:000000000002220a .LASF1847
C:\Users\CYMR90~1\AppData\Local\Temp\ccEL7hUr.s:27597  .debug_str:00000000000222dd .LASF1848
C:\Users\CYMR90~1\AppData\Local\Temp\ccEL7hUr.s:26825  .debug_str:000000000001f36a .LASF1849
C:\Users\CYMR90~1\AppData\Local\Temp\ccEL7hUr.s:21240  .debug_str:0000000000008993 .LASF1850
C:\Users\CYMR90~1\AppData\Local\Temp\ccEL7hUr.s:28645  .debug_str:0000000000026621 .LASF1851
C:\Users\CYMR90~1\AppData\Local\Temp\ccEL7hUr.s:22492  .debug_str:000000000000dc14 .LASF1852
C:\Users\CYMR90~1\AppData\Local\Temp\ccEL7hUr.s:19904  .debug_str:0000000000003259 .LASF1853
C:\Users\CYMR90~1\AppData\Local\Temp\ccEL7hUr.s:26323  .debug_str:000000000001d488 .LASF1854
C:\Users\CYMR90~1\AppData\Local\Temp\ccEL7hUr.s:28909  .debug_str:000000000002769a .LASF1855
C:\Users\CYMR90~1\AppData\Local\Temp\ccEL7hUr.s:21326  .debug_str:0000000000008f4f .LASF1856
C:\Users\CYMR90~1\AppData\Local\Temp\ccEL7hUr.s:22180  .debug_str:000000000000c74a .LASF1857
C:\Users\CYMR90~1\AppData\Local\Temp\ccEL7hUr.s:29007  .debug_str:0000000000027d5a .LASF1858
C:\Users\CYMR90~1\AppData\Local\Temp\ccEL7hUr.s:24324  .debug_str:0000000000015146 .LASF1859
C:\Users\CYMR90~1\AppData\Local\Temp\ccEL7hUr.s:25241  .debug_str:0000000000018c96 .LASF1860
C:\Users\CYMR90~1\AppData\Local\Temp\ccEL7hUr.s:23100  .debug_str:00000000000101a4 .LASF1861
C:\Users\CYMR90~1\AppData\Local\Temp\ccEL7hUr.s:20860  .debug_str:0000000000006f68 .LASF1862
C:\Users\CYMR90~1\AppData\Local\Temp\ccEL7hUr.s:25153  .debug_str:0000000000018670 .LASF1863
C:\Users\CYMR90~1\AppData\Local\Temp\ccEL7hUr.s:20510  .debug_str:000000000000599a .LASF1864
C:\Users\CYMR90~1\AppData\Local\Temp\ccEL7hUr.s:27777  .debug_str:0000000000022d91 .LASF1865
C:\Users\CYMR90~1\AppData\Local\Temp\ccEL7hUr.s:27009  .debug_str:000000000001febd .LASF1866
C:\Users\CYMR90~1\AppData\Local\Temp\ccEL7hUr.s:22112  .debug_str:000000000000c2f6 .LASF1867
C:\Users\CYMR90~1\AppData\Local\Temp\ccEL7hUr.s:19240  .debug_str:0000000000000875 .LASF1868
C:\Users\CYMR90~1\AppData\Local\Temp\ccEL7hUr.s:21162  .debug_str:00000000000084ae .LASF1869
C:\Users\CYMR90~1\AppData\Local\Temp\ccEL7hUr.s:29289  .debug_str:0000000000029035 .LASF1870
C:\Users\CYMR90~1\AppData\Local\Temp\ccEL7hUr.s:28393  .debug_str:00000000000255fe .LASF1871
C:\Users\CYMR90~1\AppData\Local\Temp\ccEL7hUr.s:24448  .debug_str:0000000000015832 .LASF1872
C:\Users\CYMR90~1\AppData\Local\Temp\ccEL7hUr.s:21026  .debug_str:0000000000007ac1 .LASF1873
C:\Users\CYMR90~1\AppData\Local\Temp\ccEL7hUr.s:21896  .debug_str:000000000000b35f .LASF1874
C:\Users\CYMR90~1\AppData\Local\Temp\ccEL7hUr.s:29461  .debug_str:0000000000029ac1 .LASF1875
C:\Users\CYMR90~1\AppData\Local\Temp\ccEL7hUr.s:25761  .debug_str:000000000001b005 .LASF1876
C:\Users\CYMR90~1\AppData\Local\Temp\ccEL7hUr.s:26501  .debug_str:000000000001e00e .LASF1877
C:\Users\CYMR90~1\AppData\Local\Temp\ccEL7hUr.s:22940  .debug_str:000000000000f73f .LASF1878
C:\Users\CYMR90~1\AppData\Local\Temp\ccEL7hUr.s:21284  .debug_str:0000000000008c4a .LASF1879
C:\Users\CYMR90~1\AppData\Local\Temp\ccEL7hUr.s:26805  .debug_str:000000000001f22d .LASF1880
C:\Users\CYMR90~1\AppData\Local\Temp\ccEL7hUr.s:19352  .debug_str:0000000000000fd8 .LASF1881
C:\Users\CYMR90~1\AppData\Local\Temp\ccEL7hUr.s:27209  .debug_str:0000000000020b1c .LASF1882
C:\Users\CYMR90~1\AppData\Local\Temp\ccEL7hUr.s:29879  .debug_str:000000000002b466 .LASF1883
C:\Users\CYMR90~1\AppData\Local\Temp\ccEL7hUr.s:26915  .debug_str:000000000001f8ba .LASF1884
C:\Users\CYMR90~1\AppData\Local\Temp\ccEL7hUr.s:29023  .debug_str:0000000000027e5a .LASF1885
C:\Users\CYMR90~1\AppData\Local\Temp\ccEL7hUr.s:21504  .debug_str:0000000000009a54 .LASF1886
C:\Users\CYMR90~1\AppData\Local\Temp\ccEL7hUr.s:21314  .debug_str:0000000000008e86 .LASF1887
C:\Users\CYMR90~1\AppData\Local\Temp\ccEL7hUr.s:29911  .debug_str:000000000002b66b .LASF1888
C:\Users\CYMR90~1\AppData\Local\Temp\ccEL7hUr.s:25383  .debug_str:00000000000195e6 .LASF1889
C:\Users\CYMR90~1\AppData\Local\Temp\ccEL7hUr.s:21496  .debug_str:00000000000099ae .LASF1890
C:\Users\CYMR90~1\AppData\Local\Temp\ccEL7hUr.s:21588  .debug_str:0000000000009f8b .LASF1891
C:\Users\CYMR90~1\AppData\Local\Temp\ccEL7hUr.s:26127  .debug_str:000000000001c68f .LASF1892
C:\Users\CYMR90~1\AppData\Local\Temp\ccEL7hUr.s:21308  .debug_str:0000000000008e1a .LASF1893
C:\Users\CYMR90~1\AppData\Local\Temp\ccEL7hUr.s:22560  .debug_str:000000000000e060 .LASF1894
C:\Users\CYMR90~1\AppData\Local\Temp\ccEL7hUr.s:24841  .debug_str:000000000001737e .LASF1895
C:\Users\CYMR90~1\AppData\Local\Temp\ccEL7hUr.s:19552  .debug_str:0000000000001c3e .LASF1896
C:\Users\CYMR90~1\AppData\Local\Temp\ccEL7hUr.s:28759  .debug_str:0000000000026d28 .LASF1897
C:\Users\CYMR90~1\AppData\Local\Temp\ccEL7hUr.s:25629  .debug_str:000000000001a6ef .LASF1898
C:\Users\CYMR90~1\AppData\Local\Temp\ccEL7hUr.s:22382  .debug_str:000000000000d58a .LASF1899
C:\Users\CYMR90~1\AppData\Local\Temp\ccEL7hUr.s:19164  .debug_str:000000000000040c .LASF1900
C:\Users\CYMR90~1\AppData\Local\Temp\ccEL7hUr.s:19984  .debug_str:0000000000003790 .LASF1901
C:\Users\CYMR90~1\AppData\Local\Temp\ccEL7hUr.s:22004  .debug_str:000000000000badb .LASF1902
C:\Users\CYMR90~1\AppData\Local\Temp\ccEL7hUr.s:30157  .debug_str:000000000002c6fe .LASF1903
C:\Users\CYMR90~1\AppData\Local\Temp\ccEL7hUr.s:24708  .debug_str:0000000000016937 .LASF1904
C:\Users\CYMR90~1\AppData\Local\Temp\ccEL7hUr.s:21466  .debug_str:0000000000009772 .LASF1905
C:\Users\CYMR90~1\AppData\Local\Temp\ccEL7hUr.s:29101  .debug_str:000000000002842e .LASF1906
C:\Users\CYMR90~1\AppData\Local\Temp\ccEL7hUr.s:26167  .debug_str:000000000001c9c8 .LASF1907
C:\Users\CYMR90~1\AppData\Local\Temp\ccEL7hUr.s:20498  .debug_str:00000000000058d0 .LASF1908
C:\Users\CYMR90~1\AppData\Local\Temp\ccEL7hUr.s:29453  .debug_str:0000000000029a44 .LASF1909
C:\Users\CYMR90~1\AppData\Local\Temp\ccEL7hUr.s:25805  .debug_str:000000000001b305 .LASF1910
C:\Users\CYMR90~1\AppData\Local\Temp\ccEL7hUr.s:25483  .debug_str:0000000000019cfc .LASF1911
C:\Users\CYMR90~1\AppData\Local\Temp\ccEL7hUr.s:21916  .debug_str:000000000000b521 .LASF1912
C:\Users\CYMR90~1\AppData\Local\Temp\ccEL7hUr.s:21754  .debug_str:000000000000a9cf .LASF1913
C:\Users\CYMR90~1\AppData\Local\Temp\ccEL7hUr.s:27113  .debug_str:00000000000204e9 .LASF1914
C:\Users\CYMR90~1\AppData\Local\Temp\ccEL7hUr.s:28367  .debug_str:0000000000025424 .LASF1915
C:\Users\CYMR90~1\AppData\Local\Temp\ccEL7hUr.s:25003  .debug_str:0000000000017d75 .LASF1916
C:\Users\CYMR90~1\AppData\Local\Temp\ccEL7hUr.s:21662  .debug_str:000000000000a43c .LASF1917
C:\Users\CYMR90~1\AppData\Local\Temp\ccEL7hUr.s:29511  .debug_str:0000000000029d91 .LASF1918
C:\Users\CYMR90~1\AppData\Local\Temp\ccEL7hUr.s:26139  .debug_str:000000000001c748 .LASF1919
C:\Users\CYMR90~1\AppData\Local\Temp\ccEL7hUr.s:22716  .debug_str:000000000000e9db .LASF1920
C:\Users\CYMR90~1\AppData\Local\Temp\ccEL7hUr.s:20880  .debug_str:00000000000070dd .LASF1921
C:\Users\CYMR90~1\AppData\Local\Temp\ccEL7hUr.s:27181  .debug_str:0000000000020977 .LASF1922
C:\Users\CYMR90~1\AppData\Local\Temp\ccEL7hUr.s:29243  .debug_str:0000000000028d56 .LASF1923
C:\Users\CYMR90~1\AppData\Local\Temp\ccEL7hUr.s:21774  .debug_str:000000000000ab3a .LASF1924
C:\Users\CYMR90~1\AppData\Local\Temp\ccEL7hUr.s:27005  .debug_str:000000000001fe69 .LASF1925
C:\Users\CYMR90~1\AppData\Local\Temp\ccEL7hUr.s:26031  .debug_str:000000000001c0d0 .LASF1926
C:\Users\CYMR90~1\AppData\Local\Temp\ccEL7hUr.s:20022  .debug_str:0000000000003a09 .LASF1927
C:\Users\CYMR90~1\AppData\Local\Temp\ccEL7hUr.s:20930  .debug_str:000000000000745d .LASF1928
C:\Users\CYMR90~1\AppData\Local\Temp\ccEL7hUr.s:26931  .debug_str:000000000001f9b4 .LASF1929
C:\Users\CYMR90~1\AppData\Local\Temp\ccEL7hUr.s:30185  .debug_str:000000000002c901 .LASF1930
C:\Users\CYMR90~1\AppData\Local\Temp\ccEL7hUr.s:29871  .debug_str:000000000002b3cc .LASF1931
C:\Users\CYMR90~1\AppData\Local\Temp\ccEL7hUr.s:21038  .debug_str:0000000000007b6b .LASF1932
C:\Users\CYMR90~1\AppData\Local\Temp\ccEL7hUr.s:22092  .debug_str:000000000000c1c1 .LASF1933
C:\Users\CYMR90~1\AppData\Local\Temp\ccEL7hUr.s:26109  .debug_str:000000000001c554 .LASF1934
C:\Users\CYMR90~1\AppData\Local\Temp\ccEL7hUr.s:20540  .debug_str:0000000000005b92 .LASF1935
C:\Users\CYMR90~1\AppData\Local\Temp\ccEL7hUr.s:25967  .debug_str:000000000001bc97 .LASF1936
C:\Users\CYMR90~1\AppData\Local\Temp\ccEL7hUr.s:24953  .debug_str:0000000000017a9a .LASF1937
C:\Users\CYMR90~1\AppData\Local\Temp\ccEL7hUr.s:24274  .debug_str:0000000000014ddb .LASF1938
C:\Users\CYMR90~1\AppData\Local\Temp\ccEL7hUr.s:21226  .debug_str:0000000000008888 .LASF1939
C:\Users\CYMR90~1\AppData\Local\Temp\ccEL7hUr.s:29307  .debug_str:0000000000029172 .LASF1940
C:\Users\CYMR90~1\AppData\Local\Temp\ccEL7hUr.s:26221  .debug_str:000000000001cd32 .LASF1941
C:\Users\CYMR90~1\AppData\Local\Temp\ccEL7hUr.s:22150  .debug_str:000000000000c55a .LASF1942
C:\Users\CYMR90~1\AppData\Local\Temp\ccEL7hUr.s:23272  .debug_str:0000000000010cda .LASF1943
C:\Users\CYMR90~1\AppData\Local\Temp\ccEL7hUr.s:27043  .debug_str:00000000000200c3 .LASF1944
C:\Users\CYMR90~1\AppData\Local\Temp\ccEL7hUr.s:23996  .debug_str:0000000000013c5f .LASF1945
C:\Users\CYMR90~1\AppData\Local\Temp\ccEL7hUr.s:20826  .debug_str:0000000000006d52 .LASF1946
C:\Users\CYMR90~1\AppData\Local\Temp\ccEL7hUr.s:19756  .debug_str:000000000000288d .LASF1947
C:\Users\CYMR90~1\AppData\Local\Temp\ccEL7hUr.s:25857  .debug_str:000000000001b603 .LASF1948
C:\Users\CYMR90~1\AppData\Local\Temp\ccEL7hUr.s:22822  .debug_str:000000000000f017 .LASF1949
C:\Users\CYMR90~1\AppData\Local\Temp\ccEL7hUr.s:19624  .debug_str:0000000000002043 .LASF1950
C:\Users\CYMR90~1\AppData\Local\Temp\ccEL7hUr.s:27793  .debug_str:0000000000022e62 .LASF1951
C:\Users\CYMR90~1\AppData\Local\Temp\ccEL7hUr.s:28501  .debug_str:0000000000025d32 .LASF1952
C:\Users\CYMR90~1\AppData\Local\Temp\ccEL7hUr.s:24118  .debug_str:000000000001440a .LASF1953
C:\Users\CYMR90~1\AppData\Local\Temp\ccEL7hUr.s:27329  .debug_str:00000000000211fc .LASF1954
C:\Users\CYMR90~1\AppData\Local\Temp\ccEL7hUr.s:27989  .debug_str:0000000000023a14 .LASF1955
C:\Users\CYMR90~1\AppData\Local\Temp\ccEL7hUr.s:19678  .debug_str:000000000000235b .LASF1956
C:\Users\CYMR90~1\AppData\Local\Temp\ccEL7hUr.s:29713  .debug_str:000000000002a9d1 .LASF1957
C:\Users\CYMR90~1\AppData\Local\Temp\ccEL7hUr.s:21044  .debug_str:0000000000007bdc .LASF1958
C:\Users\CYMR90~1\AppData\Local\Temp\ccEL7hUr.s:29291  .debug_str:0000000000029074 .LASF1959
C:\Users\CYMR90~1\AppData\Local\Temp\ccEL7hUr.s:26175  .debug_str:000000000001ca4e .LASF1960
C:\Users\CYMR90~1\AppData\Local\Temp\ccEL7hUr.s:19204  .debug_str:0000000000000631 .LASF1961
C:\Users\CYMR90~1\AppData\Local\Temp\ccEL7hUr.s:24494  .debug_str:0000000000015af5 .LASF1962
C:\Users\CYMR90~1\AppData\Local\Temp\ccEL7hUr.s:28349  .debug_str:00000000000252d7 .LASF1963
C:\Users\CYMR90~1\AppData\Local\Temp\ccEL7hUr.s:20884  .debug_str:0000000000007148 .LASF1964
C:\Users\CYMR90~1\AppData\Local\Temp\ccEL7hUr.s:26313  .debug_str:000000000001d3cc .LASF1965
C:\Users\CYMR90~1\AppData\Local\Temp\ccEL7hUr.s:29811  .debug_str:000000000002af85 .LASF1966
C:\Users\CYMR90~1\AppData\Local\Temp\ccEL7hUr.s:26153  .debug_str:000000000001c8d7 .LASF1967
C:\Users\CYMR90~1\AppData\Local\Temp\ccEL7hUr.s:27683  .debug_str:00000000000227d6 .LASF1968
C:\Users\CYMR90~1\AppData\Local\Temp\ccEL7hUr.s:20868  .debug_str:000000000000700b .LASF1969
C:\Users\CYMR90~1\AppData\Local\Temp\ccEL7hUr.s:19602  .debug_str:0000000000001f3d .LASF1970
C:\Users\CYMR90~1\AppData\Local\Temp\ccEL7hUr.s:28385  .debug_str:0000000000025554 .LASF1971
C:\Users\CYMR90~1\AppData\Local\Temp\ccEL7hUr.s:25471  .debug_str:0000000000019c3c .LASF1972
C:\Users\CYMR90~1\AppData\Local\Temp\ccEL7hUr.s:25279  .debug_str:0000000000018f0c .LASF1973
C:\Users\CYMR90~1\AppData\Local\Temp\ccEL7hUr.s:29761  .debug_str:000000000002acb2 .LASF1974
C:\Users\CYMR90~1\AppData\Local\Temp\ccEL7hUr.s:21062  .debug_str:0000000000007d88 .LASF1975
C:\Users\CYMR90~1\AppData\Local\Temp\ccEL7hUr.s:21416  .debug_str:0000000000009461 .LASF1976
C:\Users\CYMR90~1\AppData\Local\Temp\ccEL7hUr.s:29531  .debug_str:0000000000029eba .LASF1977
C:\Users\CYMR90~1\AppData\Local\Temp\ccEL7hUr.s:20366  .debug_str:00000000000050e4 .LASF1978
C:\Users\CYMR90~1\AppData\Local\Temp\ccEL7hUr.s:28287  .debug_str:0000000000024dfb .LASF1979
C:\Users\CYMR90~1\AppData\Local\Temp\ccEL7hUr.s:28149  .debug_str:00000000000244f7 .LASF1980
C:\Users\CYMR90~1\AppData\Local\Temp\ccEL7hUr.s:27995  .debug_str:0000000000023a6f .LASF1981
C:\Users\CYMR90~1\AppData\Local\Temp\ccEL7hUr.s:28807  .debug_str:0000000000026fd8 .LASF1982
C:\Users\CYMR90~1\AppData\Local\Temp\ccEL7hUr.s:29717  .debug_str:000000000002aa27 .LASF1983
C:\Users\CYMR90~1\AppData\Local\Temp\ccEL7hUr.s:26699  .debug_str:000000000001ebb2 .LASF1984
C:\Users\CYMR90~1\AppData\Local\Temp\ccEL7hUr.s:25887  .debug_str:000000000001b7ee .LASF1985
C:\Users\CYMR90~1\AppData\Local\Temp\ccEL7hUr.s:24192  .debug_str:00000000000148bd .LASF1986
C:\Users\CYMR90~1\AppData\Local\Temp\ccEL7hUr.s:25181  .debug_str:000000000001880c .LASF1987
C:\Users\CYMR90~1\AppData\Local\Temp\ccEL7hUr.s:22248  .debug_str:000000000000ccb5 .LASF1988
C:\Users\CYMR90~1\AppData\Local\Temp\ccEL7hUr.s:21276  .debug_str:0000000000008bd9 .LASF1989
C:\Users\CYMR90~1\AppData\Local\Temp\ccEL7hUr.s:22308  .debug_str:000000000000cfff .LASF1990
C:\Users\CYMR90~1\AppData\Local\Temp\ccEL7hUr.s:25523  .debug_str:0000000000019f2b .LASF1991
C:\Users\CYMR90~1\AppData\Local\Temp\ccEL7hUr.s:20272  .debug_str:0000000000004b2c .LASF1992
C:\Users\CYMR90~1\AppData\Local\Temp\ccEL7hUr.s:19348  .debug_str:0000000000000fa8 .LASF1993
C:\Users\CYMR90~1\AppData\Local\Temp\ccEL7hUr.s:28401  .debug_str:0000000000025692 .LASF1994
C:\Users\CYMR90~1\AppData\Local\Temp\ccEL7hUr.s:19982  .debug_str:000000000000375c .LASF1995
C:\Users\CYMR90~1\AppData\Local\Temp\ccEL7hUr.s:28859  .debug_str:00000000000273da .LASF1996
C:\Users\CYMR90~1\AppData\Local\Temp\ccEL7hUr.s:25743  .debug_str:000000000001ae7f .LASF1997
C:\Users\CYMR90~1\AppData\Local\Temp\ccEL7hUr.s:25109  .debug_str:00000000000183e8 .LASF1998
C:\Users\CYMR90~1\AppData\Local\Temp\ccEL7hUr.s:24596  .debug_str:0000000000016212 .LASF1999
C:\Users\CYMR90~1\AppData\Local\Temp\ccEL7hUr.s:21198  .debug_str:00000000000086d9 .LASF2000
C:\Users\CYMR90~1\AppData\Local\Temp\ccEL7hUr.s:27691  .debug_str:0000000000022846 .LASF2001
C:\Users\CYMR90~1\AppData\Local\Temp\ccEL7hUr.s:29079  .debug_str:00000000000282e1 .LASF2002
C:\Users\CYMR90~1\AppData\Local\Temp\ccEL7hUr.s:24148  .debug_str:000000000001458a .LASF2003
C:\Users\CYMR90~1\AppData\Local\Temp\ccEL7hUr.s:27585  .debug_str:0000000000022225 .LASF2004
C:\Users\CYMR90~1\AppData\Local\Temp\ccEL7hUr.s:24801  .debug_str:0000000000017127 .LASF2005
C:\Users\CYMR90~1\AppData\Local\Temp\ccEL7hUr.s:29963  .debug_str:000000000002b9ff .LASF2006
C:\Users\CYMR90~1\AppData\Local\Temp\ccEL7hUr.s:20408  .debug_str:000000000000537d .LASF2007
C:\Users\CYMR90~1\AppData\Local\Temp\ccEL7hUr.s:23928  .debug_str:0000000000013844 .LASF2008
C:\Users\CYMR90~1\AppData\Local\Temp\ccEL7hUr.s:26593  .debug_str:000000000001e566 .LASF2009
C:\Users\CYMR90~1\AppData\Local\Temp\ccEL7hUr.s:22276  .debug_str:000000000000ce4b .LASF2010
C:\Users\CYMR90~1\AppData\Local\Temp\ccEL7hUr.s:19534  .debug_str:0000000000001b40 .LASF2011
C:\Users\CYMR90~1\AppData\Local\Temp\ccEL7hUr.s:27875  .debug_str:00000000000232f6 .LASF2012
C:\Users\CYMR90~1\AppData\Local\Temp\ccEL7hUr.s:27635  .debug_str:00000000000224cb .LASF2013
C:\Users\CYMR90~1\AppData\Local\Temp\ccEL7hUr.s:25607  .debug_str:000000000001a592 .LASF2014
C:\Users\CYMR90~1\AppData\Local\Temp\ccEL7hUr.s:29441  .debug_str:0000000000029990 .LASF2015
C:\Users\CYMR90~1\AppData\Local\Temp\ccEL7hUr.s:27785  .debug_str:0000000000022e0b .LASF2016
C:\Users\CYMR90~1\AppData\Local\Temp\ccEL7hUr.s:29873  .debug_str:000000000002b3fc .LASF2017
C:\Users\CYMR90~1\AppData\Local\Temp\ccEL7hUr.s:26353  .debug_str:000000000001d644 .LASF2018
C:\Users\CYMR90~1\AppData\Local\Temp\ccEL7hUr.s:20766  .debug_str:0000000000006972 .LASF2019
C:\Users\CYMR90~1\AppData\Local\Temp\ccEL7hUr.s:27829  .debug_str:0000000000023061 .LASF2020
C:\Users\CYMR90~1\AppData\Local\Temp\ccEL7hUr.s:28797  .debug_str:0000000000026f5a .LASF2021
C:\Users\CYMR90~1\AppData\Local\Temp\ccEL7hUr.s:25021  .debug_str:0000000000017eb4 .LASF2022
C:\Users\CYMR90~1\AppData\Local\Temp\ccEL7hUr.s:28737  .debug_str:0000000000026b8c .LASF2023
C:\Users\CYMR90~1\AppData\Local\Temp\ccEL7hUr.s:21978  .debug_str:000000000000b98e .LASF2024
C:\Users\CYMR90~1\AppData\Local\Temp\ccEL7hUr.s:29825  .debug_str:000000000002b063 .LASF2025
C:\Users\CYMR90~1\AppData\Local\Temp\ccEL7hUr.s:19944  .debug_str:00000000000034f4 .LASF2026
C:\Users\CYMR90~1\AppData\Local\Temp\ccEL7hUr.s:27887  .debug_str:000000000002339c .LASF2027
C:\Users\CYMR90~1\AppData\Local\Temp\ccEL7hUr.s:26903  .debug_str:000000000001f7e6 .LASF2028
C:\Users\CYMR90~1\AppData\Local\Temp\ccEL7hUr.s:23576  .debug_str:0000000000012097 .LASF2029
C:\Users\CYMR90~1\AppData\Local\Temp\ccEL7hUr.s:25007  .debug_str:0000000000017db6 .LASF2030
C:\Users\CYMR90~1\AppData\Local\Temp\ccEL7hUr.s:21748  .debug_str:000000000000a98a .LASF2031
C:\Users\CYMR90~1\AppData\Local\Temp\ccEL7hUr.s:22958  .debug_str:000000000000f8f4 .LASF2032
C:\Users\CYMR90~1\AppData\Local\Temp\ccEL7hUr.s:21958  .debug_str:000000000000b7fe .LASF2033
C:\Users\CYMR90~1\AppData\Local\Temp\ccEL7hUr.s:23504  .debug_str:0000000000011c65 .LASF2034
C:\Users\CYMR90~1\AppData\Local\Temp\ccEL7hUr.s:27363  .debug_str:0000000000021499 .LASF2035
C:\Users\CYMR90~1\AppData\Local\Temp\ccEL7hUr.s:27763  .debug_str:0000000000022cc4 .LASF2036
C:\Users\CYMR90~1\AppData\Local\Temp\ccEL7hUr.s:28329  .debug_str:00000000000250f1 .LASF2037
C:\Users\CYMR90~1\AppData\Local\Temp\ccEL7hUr.s:23598  .debug_str:0000000000012239 .LASF2038
C:\Users\CYMR90~1\AppData\Local\Temp\ccEL7hUr.s:25549  .debug_str:000000000001a0c2 .LASF2039
C:\Users\CYMR90~1\AppData\Local\Temp\ccEL7hUr.s:22304  .debug_str:000000000000cfaf .LASF2040
C:\Users\CYMR90~1\AppData\Local\Temp\ccEL7hUr.s:19764  .debug_str:0000000000002900 .LASF2041
C:\Users\CYMR90~1\AppData\Local\Temp\ccEL7hUr.s:20500  .debug_str:000000000000590e .LASF2042
C:\Users\CYMR90~1\AppData\Local\Temp\ccEL7hUr.s:30233  .debug_str:000000000002cc60 .LASF2043
C:\Users\CYMR90~1\AppData\Local\Temp\ccEL7hUr.s:23898  .debug_str:0000000000013644 .LASF2044
C:\Users\CYMR90~1\AppData\Local\Temp\ccEL7hUr.s:27651  .debug_str:00000000000225c1 .LASF2045
C:\Users\CYMR90~1\AppData\Local\Temp\ccEL7hUr.s:29255  .debug_str:0000000000028e29 .LASF2046
C:\Users\CYMR90~1\AppData\Local\Temp\ccEL7hUr.s:26013  .debug_str:000000000001bfb7 .LASF2047
C:\Users\CYMR90~1\AppData\Local\Temp\ccEL7hUr.s:26549  .debug_str:000000000001e2ca .LASF2048
C:\Users\CYMR90~1\AppData\Local\Temp\ccEL7hUr.s:20562  .debug_str:0000000000005d03 .LASF2049
C:\Users\CYMR90~1\AppData\Local\Temp\ccEL7hUr.s:19930  .debug_str:00000000000033fa .LASF2050
C:\Users\CYMR90~1\AppData\Local\Temp\ccEL7hUr.s:21862  .debug_str:000000000000b181 .LASF2051
C:\Users\CYMR90~1\AppData\Local\Temp\ccEL7hUr.s:28365  .debug_str:00000000000253dd .LASF2052
C:\Users\CYMR90~1\AppData\Local\Temp\ccEL7hUr.s:29671  .debug_str:000000000002a770 .LASF2053
C:\Users\CYMR90~1\AppData\Local\Temp\ccEL7hUr.s:20376  .debug_str:000000000000518c .LASF2054
C:\Users\CYMR90~1\AppData\Local\Temp\ccEL7hUr.s:28695  .debug_str:0000000000026923 .LASF2055
C:\Users\CYMR90~1\AppData\Local\Temp\ccEL7hUr.s:26715  .debug_str:000000000001ecaa .LASF2056
C:\Users\CYMR90~1\AppData\Local\Temp\ccEL7hUr.s:24861  .debug_str:00000000000174aa .LASF2057
C:\Users\CYMR90~1\AppData\Local\Temp\ccEL7hUr.s:21738  .debug_str:000000000000a8e1 .LASF2058
C:\Users\CYMR90~1\AppData\Local\Temp\ccEL7hUr.s:22550  .debug_str:000000000000dfb5 .LASF2059
C:\Users\CYMR90~1\AppData\Local\Temp\ccEL7hUr.s:27167  .debug_str:00000000000208b4 .LASF2060
C:\Users\CYMR90~1\AppData\Local\Temp\ccEL7hUr.s:24024  .debug_str:0000000000013e00 .LASF2061
C:\Users\CYMR90~1\AppData\Local\Temp\ccEL7hUr.s:19736  .debug_str:000000000000271d .LASF2062
C:\Users\CYMR90~1\AppData\Local\Temp\ccEL7hUr.s:23316  .debug_str:0000000000010faa .LASF2063
C:\Users\CYMR90~1\AppData\Local\Temp\ccEL7hUr.s:26681  .debug_str:000000000001eabd .LASF2064
C:\Users\CYMR90~1\AppData\Local\Temp\ccEL7hUr.s:21432  .debug_str:0000000000009541 .LASF2065
C:\Users\CYMR90~1\AppData\Local\Temp\ccEL7hUr.s:21890  .debug_str:000000000000b301 .LASF2066
C:\Users\CYMR90~1\AppData\Local\Temp\ccEL7hUr.s:24959  .debug_str:0000000000017afb .LASF2067
C:\Users\CYMR90~1\AppData\Local\Temp\ccEL7hUr.s:24570  .debug_str:0000000000016067 .LASF2068
C:\Users\CYMR90~1\AppData\Local\Temp\ccEL7hUr.s:22438  .debug_str:000000000000d8e2 .LASF2069
C:\Users\CYMR90~1\AppData\Local\Temp\ccEL7hUr.s:20534  .debug_str:0000000000005b4b .LASF2070
C:\Users\CYMR90~1\AppData\Local\Temp\ccEL7hUr.s:23754  .debug_str:0000000000012c71 .LASF2071
C:\Users\CYMR90~1\AppData\Local\Temp\ccEL7hUr.s:22782  .debug_str:000000000000ee15 .LASF2072
C:\Users\CYMR90~1\AppData\Local\Temp\ccEL7hUr.s:22020  .debug_str:000000000000bc01 .LASF2073
C:\Users\CYMR90~1\AppData\Local\Temp\ccEL7hUr.s:30043  .debug_str:000000000002bf93 .LASF2074
C:\Users\CYMR90~1\AppData\Local\Temp\ccEL7hUr.s:21300  .debug_str:0000000000008dae .LASF2075
C:\Users\CYMR90~1\AppData\Local\Temp\ccEL7hUr.s:29331  .debug_str:00000000000292ba .LASF2076
C:\Users\CYMR90~1\AppData\Local\Temp\ccEL7hUr.s:20388  .debug_str:0000000000005246 .LASF2077
C:\Users\CYMR90~1\AppData\Local\Temp\ccEL7hUr.s:19504  .debug_str:000000000000195c .LASF2078
C:\Users\CYMR90~1\AppData\Local\Temp\ccEL7hUr.s:27915  .debug_str:000000000002359a .LASF2079
C:\Users\CYMR90~1\AppData\Local\Temp\ccEL7hUr.s:29219  .debug_str:0000000000028bda .LASF2080
C:\Users\CYMR90~1\AppData\Local\Temp\ccEL7hUr.s:29309  .debug_str:000000000002919a .LASF2081
C:\Users\CYMR90~1\AppData\Local\Temp\ccEL7hUr.s:23624  .debug_str:00000000000123b5 .LASF2082
C:\Users\CYMR90~1\AppData\Local\Temp\ccEL7hUr.s:21084  .debug_str:0000000000007ef3 .LASF2083
C:\Users\CYMR90~1\AppData\Local\Temp\ccEL7hUr.s:27799  .debug_str:0000000000022ec0 .LASF2084
C:\Users\CYMR90~1\AppData\Local\Temp\ccEL7hUr.s:19400  .debug_str:000000000000128a .LASF2085
C:\Users\CYMR90~1\AppData\Local\Temp\ccEL7hUr.s:19254  .debug_str:0000000000000951 .LASF2086
C:\Users\CYMR90~1\AppData\Local\Temp\ccEL7hUr.s:25809  .debug_str:000000000001b34b .LASF2087
C:\Users\CYMR90~1\AppData\Local\Temp\ccEL7hUr.s:26873  .debug_str:000000000001f645 .LASF2088
C:\Users\CYMR90~1\AppData\Local\Temp\ccEL7hUr.s:24789  .debug_str:000000000001706e .LASF2089
C:\Users\CYMR90~1\AppData\Local\Temp\ccEL7hUr.s:23560  .debug_str:0000000000011faf .LASF2090
C:\Users\CYMR90~1\AppData\Local\Temp\ccEL7hUr.s:24887  .debug_str:000000000001763a .LASF2091
C:\Users\CYMR90~1\AppData\Local\Temp\ccEL7hUr.s:24052  .debug_str:0000000000013fb1 .LASF2092
C:\Users\CYMR90~1\AppData\Local\Temp\ccEL7hUr.s:19924  .debug_str:00000000000033aa .LASF2093
C:\Users\CYMR90~1\AppData\Local\Temp\ccEL7hUr.s:20144  .debug_str:0000000000004254 .LASF2094
C:\Users\CYMR90~1\AppData\Local\Temp\ccEL7hUr.s:21542  .debug_str:0000000000009ca2 .LASF2095
C:\Users\CYMR90~1\AppData\Local\Temp\ccEL7hUr.s:19900  .debug_str:00000000000031f6 .LASF2096
C:\Users\CYMR90~1\AppData\Local\Temp\ccEL7hUr.s:28511  .debug_str:0000000000025dca .LASF2097
C:\Users\CYMR90~1\AppData\Local\Temp\ccEL7hUr.s:23112  .debug_str:000000000001028e .LASF2098
C:\Users\CYMR90~1\AppData\Local\Temp\ccEL7hUr.s:21898  .debug_str:000000000000b388 .LASF2099
C:\Users\CYMR90~1\AppData\Local\Temp\ccEL7hUr.s:20704  .debug_str:0000000000006576 .LASF2100
C:\Users\CYMR90~1\AppData\Local\Temp\ccEL7hUr.s:19812  .debug_str:0000000000002c01 .LASF2101
C:\Users\CYMR90~1\AppData\Local\Temp\ccEL7hUr.s:21580  .debug_str:0000000000009ee4 .LASF2102
C:\Users\CYMR90~1\AppData\Local\Temp\ccEL7hUr.s:29993  .debug_str:000000000002bbf0 .LASF2103
C:\Users\CYMR90~1\AppData\Local\Temp\ccEL7hUr.s:24885  .debug_str:0000000000017616 .LASF2104
C:\Users\CYMR90~1\AppData\Local\Temp\ccEL7hUr.s:19918  .debug_str:0000000000003339 .LASF2105
C:\Users\CYMR90~1\AppData\Local\Temp\ccEL7hUr.s:29279  .debug_str:0000000000028fbc .LASF2106
C:\Users\CYMR90~1\AppData\Local\Temp\ccEL7hUr.s:23592  .debug_str:00000000000121bf .LASF2107
C:\Users\CYMR90~1\AppData\Local\Temp\ccEL7hUr.s:19934  .debug_str:0000000000003438 .LASF2108
C:\Users\CYMR90~1\AppData\Local\Temp\ccEL7hUr.s:22348  .debug_str:000000000000d2b4 .LASF2109
C:\Users\CYMR90~1\AppData\Local\Temp\ccEL7hUr.s:24833  .debug_str:00000000000172e6 .LASF2110
C:\Users\CYMR90~1\AppData\Local\Temp\ccEL7hUr.s:26893  .debug_str:000000000001f760 .LASF2111
C:\Users\CYMR90~1\AppData\Local\Temp\ccEL7hUr.s:29435  .debug_str:0000000000029936 .LASF2112
C:\Users\CYMR90~1\AppData\Local\Temp\ccEL7hUr.s:22840  .debug_str:000000000000f121 .LASF2113
C:\Users\CYMR90~1\AppData\Local\Temp\ccEL7hUr.s:23950  .debug_str:000000000001397c .LASF2114
C:\Users\CYMR90~1\AppData\Local\Temp\ccEL7hUr.s:25793  .debug_str:000000000001b22a .LASF2115
C:\Users\CYMR90~1\AppData\Local\Temp\ccEL7hUr.s:24130  .debug_str:00000000000144a7 .LASF2116
C:\Users\CYMR90~1\AppData\Local\Temp\ccEL7hUr.s:28141  .debug_str:0000000000024488 .LASF2117
C:\Users\CYMR90~1\AppData\Local\Temp\ccEL7hUr.s:26835  .debug_str:000000000001f409 .LASF2118
C:\Users\CYMR90~1\AppData\Local\Temp\ccEL7hUr.s:19768  .debug_str:0000000000002937 .LASF2119
C:\Users\CYMR90~1\AppData\Local\Temp\ccEL7hUr.s:27269  .debug_str:0000000000020ec1 .LASF2120
C:\Users\CYMR90~1\AppData\Local\Temp\ccEL7hUr.s:21156  .debug_str:0000000000008444 .LASF2121
C:\Users\CYMR90~1\AppData\Local\Temp\ccEL7hUr.s:23994  .debug_str:0000000000013c3b .LASF2122
C:\Users\CYMR90~1\AppData\Local\Temp\ccEL7hUr.s:26577  .debug_str:000000000001e469 .LASF2123
C:\Users\CYMR90~1\AppData\Local\Temp\ccEL7hUr.s:23852  .debug_str:00000000000132cb .LASF2124
C:\Users\CYMR90~1\AppData\Local\Temp\ccEL7hUr.s:24951  .debug_str:0000000000017a73 .LASF2125
C:\Users\CYMR90~1\AppData\Local\Temp\ccEL7hUr.s:28821  .debug_str:00000000000270e3 .LASF2126
C:\Users\CYMR90~1\AppData\Local\Temp\ccEL7hUr.s:27377  .debug_str:000000000002156f .LASF2127
C:\Users\CYMR90~1\AppData\Local\Temp\ccEL7hUr.s:23312  .debug_str:0000000000010f6f .LASF2128
C:\Users\CYMR90~1\AppData\Local\Temp\ccEL7hUr.s:27285  .debug_str:0000000000020f9b .LASF2129
C:\Users\CYMR90~1\AppData\Local\Temp\ccEL7hUr.s:25171  .debug_str:000000000001875f .LASF2130
C:\Users\CYMR90~1\AppData\Local\Temp\ccEL7hUr.s:27109  .debug_str:00000000000204a4 .LASF2131
C:\Users\CYMR90~1\AppData\Local\Temp\ccEL7hUr.s:23498  .debug_str:0000000000011bef .LASF2132
C:\Users\CYMR90~1\AppData\Local\Temp\ccEL7hUr.s:19908  .debug_str:000000000000329b .LASF2133
C:\Users\CYMR90~1\AppData\Local\Temp\ccEL7hUr.s:19648  .debug_str:0000000000002192 .LASF2134
C:\Users\CYMR90~1\AppData\Local\Temp\ccEL7hUr.s:25327  .debug_str:000000000001929e .LASF2135
C:\Users\CYMR90~1\AppData\Local\Temp\ccEL7hUr.s:29539  .debug_str:0000000000029f49 .LASF2136
C:\Users\CYMR90~1\AppData\Local\Temp\ccEL7hUr.s:21158  .debug_str:0000000000008469 .LASF2137
C:\Users\CYMR90~1\AppData\Local\Temp\ccEL7hUr.s:27471  .debug_str:0000000000021b3f .LASF2138
C:\Users\CYMR90~1\AppData\Local\Temp\ccEL7hUr.s:23412  .debug_str:0000000000011541 .LASF2139
C:\Users\CYMR90~1\AppData\Local\Temp\ccEL7hUr.s:22900  .debug_str:000000000000f4fc .LASF2140
C:\Users\CYMR90~1\AppData\Local\Temp\ccEL7hUr.s:26851  .debug_str:000000000001f504 .LASF2141
C:\Users\CYMR90~1\AppData\Local\Temp\ccEL7hUr.s:27399  .debug_str:00000000000216b1 .LASF2142
C:\Users\CYMR90~1\AppData\Local\Temp\ccEL7hUr.s:23688  .debug_str:00000000000127fb .LASF2143
C:\Users\CYMR90~1\AppData\Local\Temp\ccEL7hUr.s:19936  .debug_str:000000000000345f .LASF2144
C:\Users\CYMR90~1\AppData\Local\Temp\ccEL7hUr.s:19120  .debug_str:000000000000014f .LASF2145
C:\Users\CYMR90~1\AppData\Local\Temp\ccEL7hUr.s:22754  .debug_str:000000000000ec4b .LASF2146
C:\Users\CYMR90~1\AppData\Local\Temp\ccEL7hUr.s:24893  .debug_str:0000000000017690 .LASF2147
C:\Users\CYMR90~1\AppData\Local\Temp\ccEL7hUr.s:29245  .debug_str:0000000000028d96 .LASF2148
C:\Users\CYMR90~1\AppData\Local\Temp\ccEL7hUr.s:28843  .debug_str:00000000000272e2 .LASF2149
C:\Users\CYMR90~1\AppData\Local\Temp\ccEL7hUr.s:23952  .debug_str:00000000000139a3 .LASF2150
C:\Users\CYMR90~1\AppData\Local\Temp\ccEL7hUr.s:22518  .debug_str:000000000000dd5f .LASF2151
C:\Users\CYMR90~1\AppData\Local\Temp\ccEL7hUr.s:29391  .debug_str:00000000000296d9 .LASF2152
C:\Users\CYMR90~1\AppData\Local\Temp\ccEL7hUr.s:24670  .debug_str:00000000000166ca .LASF2153
C:\Users\CYMR90~1\AppData\Local\Temp\ccEL7hUr.s:19456  .debug_str:00000000000015ef .LASF2154
C:\Users\CYMR90~1\AppData\Local\Temp\ccEL7hUr.s:20010  .debug_str:0000000000003963 .LASF2155
C:\Users\CYMR90~1\AppData\Local\Temp\ccEL7hUr.s:28809  .debug_str:0000000000026ffb .LASF2156
C:\Users\CYMR90~1\AppData\Local\Temp\ccEL7hUr.s:23350  .debug_str:00000000000111a9 .LASF2157
C:\Users\CYMR90~1\AppData\Local\Temp\ccEL7hUr.s:25233  .debug_str:0000000000018b97 .LASF2158
C:\Users\CYMR90~1\AppData\Local\Temp\ccEL7hUr.s:28615  .debug_str:0000000000026440 .LASF2159
C:\Users\CYMR90~1\AppData\Local\Temp\ccEL7hUr.s:21330  .debug_str:0000000000008f91 .LASF2160
C:\Users\CYMR90~1\AppData\Local\Temp\ccEL7hUr.s:29521  .debug_str:0000000000029e37 .LASF2161
C:\Users\CYMR90~1\AppData\Local\Temp\ccEL7hUr.s:30223  .debug_str:000000000002cb4c .LASF2162
C:\Users\CYMR90~1\AppData\Local\Temp\ccEL7hUr.s:20044  .debug_str:0000000000003b92 .LASF2163
C:\Users\CYMR90~1\AppData\Local\Temp\ccEL7hUr.s:27897  .debug_str:0000000000023438 .LASF2164
C:\Users\CYMR90~1\AppData\Local\Temp\ccEL7hUr.s:25311  .debug_str:00000000000191bf .LASF2165
C:\Users\CYMR90~1\AppData\Local\Temp\ccEL7hUr.s:28841  .debug_str:00000000000272ca .LASF2166
C:\Users\CYMR90~1\AppData\Local\Temp\ccEL7hUr.s:21190  .debug_str:000000000000866d .LASF2167
C:\Users\CYMR90~1\AppData\Local\Temp\ccEL7hUr.s:26407  .debug_str:000000000001d9e4 .LASF2168
C:\Users\CYMR90~1\AppData\Local\Temp\ccEL7hUr.s:24618  .debug_str:000000000001635f .LASF2169
C:\Users\CYMR90~1\AppData\Local\Temp\ccEL7hUr.s:22670  .debug_str:000000000000e6ca .LASF2170
C:\Users\CYMR90~1\AppData\Local\Temp\ccEL7hUr.s:22810  .debug_str:000000000000ef76 .LASF2171
C:\Users\CYMR90~1\AppData\Local\Temp\ccEL7hUr.s:26855  .debug_str:000000000001f53b .LASF2172
C:\Users\CYMR90~1\AppData\Local\Temp\ccEL7hUr.s:24558  .debug_str:0000000000015f8a .LASF2173
C:\Users\CYMR90~1\AppData\Local\Temp\ccEL7hUr.s:23554  .debug_str:0000000000011f6d .LASF2174
C:\Users\CYMR90~1\AppData\Local\Temp\ccEL7hUr.s:26645  .debug_str:000000000001e8b9 .LASF2175
C:\Users\CYMR90~1\AppData\Local\Temp\ccEL7hUr.s:21900  .debug_str:000000000000b397 .LASF2176
C:\Users\CYMR90~1\AppData\Local\Temp\ccEL7hUr.s:27545  .debug_str:0000000000021fcc .LASF2177
C:\Users\CYMR90~1\AppData\Local\Temp\ccEL7hUr.s:22532  .debug_str:000000000000de58 .LASF2178
C:\Users\CYMR90~1\AppData\Local\Temp\ccEL7hUr.s:21034  .debug_str:0000000000007b35 .LASF2179
C:\Users\CYMR90~1\AppData\Local\Temp\ccEL7hUr.s:28531  .debug_str:0000000000025f32 .LASF2180
C:\Users\CYMR90~1\AppData\Local\Temp\ccEL7hUr.s:22700  .debug_str:000000000000e8ef .LASF2181
C:\Users\CYMR90~1\AppData\Local\Temp\ccEL7hUr.s:24592  .debug_str:00000000000161dc .LASF2182
C:\Users\CYMR90~1\AppData\Local\Temp\ccEL7hUr.s:20164  .debug_str:0000000000004372 .LASF2183
C:\Users\CYMR90~1\AppData\Local\Temp\ccEL7hUr.s:22984  .debug_str:000000000000fa81 .LASF2184
C:\Users\CYMR90~1\AppData\Local\Temp\ccEL7hUr.s:29783  .debug_str:000000000002ae00 .LASF2185
C:\Users\CYMR90~1\AppData\Local\Temp\ccEL7hUr.s:26655  .debug_str:000000000001e959 .LASF2186
C:\Users\CYMR90~1\AppData\Local\Temp\ccEL7hUr.s:21526  .debug_str:0000000000009bba .LASF2187
C:\Users\CYMR90~1\AppData\Local\Temp\ccEL7hUr.s:25645  .debug_str:000000000001a897 .LASF2188
C:\Users\CYMR90~1\AppData\Local\Temp\ccEL7hUr.s:20104  .debug_str:0000000000003ef7 .LASF2189
C:\Users\CYMR90~1\AppData\Local\Temp\ccEL7hUr.s:21626  .debug_str:000000000000a1e2 .LASF2190
C:\Users\CYMR90~1\AppData\Local\Temp\ccEL7hUr.s:26735  .debug_str:000000000001edc0 .LASF2191
C:\Users\CYMR90~1\AppData\Local\Temp\ccEL7hUr.s:20026  .debug_str:0000000000003a56 .LASF2192
C:\Users\CYMR90~1\AppData\Local\Temp\ccEL7hUr.s:23442  .debug_str:0000000000011733 .LASF2193
C:\Users\CYMR90~1\AppData\Local\Temp\ccEL7hUr.s:28093  .debug_str:00000000000240db .LASF2194
C:\Users\CYMR90~1\AppData\Local\Temp\ccEL7hUr.s:20984  .debug_str:00000000000077d6 .LASF2195
C:\Users\CYMR90~1\AppData\Local\Temp\ccEL7hUr.s:24288  .debug_str:0000000000014ed4 .LASF2196
C:\Users\CYMR90~1\AppData\Local\Temp\ccEL7hUr.s:21256  .debug_str:0000000000008a8f .LASF2197
C:\Users\CYMR90~1\AppData\Local\Temp\ccEL7hUr.s:27103  .debug_str:000000000002045b .LASF2198
C:\Users\CYMR90~1\AppData\Local\Temp\ccEL7hUr.s:21762  .debug_str:000000000000aa69 .LASF2199
C:\Users\CYMR90~1\AppData\Local\Temp\ccEL7hUr.s:27611  .debug_str:00000000000223a0 .LASF2200
C:\Users\CYMR90~1\AppData\Local\Temp\ccEL7hUr.s:26935  .debug_str:000000000001f9f5 .LASF2201
C:\Users\CYMR90~1\AppData\Local\Temp\ccEL7hUr.s:28107  .debug_str:0000000000024200 .LASF2202
C:\Users\CYMR90~1\AppData\Local\Temp\ccEL7hUr.s:28681  .debug_str:000000000002685f .LASF2203
C:\Users\CYMR90~1\AppData\Local\Temp\ccEL7hUr.s:28515  .debug_str:0000000000025dfd .LASF2204
C:\Users\CYMR90~1\AppData\Local\Temp\ccEL7hUr.s:28157  .debug_str:000000000002455e .LASF2205
C:\Users\CYMR90~1\AppData\Local\Temp\ccEL7hUr.s:27235  .debug_str:0000000000020ce8 .LASF2206
C:\Users\CYMR90~1\AppData\Local\Temp\ccEL7hUr.s:23160  .debug_str:0000000000010544 .LASF2207
C:\Users\CYMR90~1\AppData\Local\Temp\ccEL7hUr.s:25275  .debug_str:0000000000018ebe .LASF2208
C:\Users\CYMR90~1\AppData\Local\Temp\ccEL7hUr.s:27081  .debug_str:00000000000202aa .LASF2209
C:\Users\CYMR90~1\AppData\Local\Temp\ccEL7hUr.s:22032  .debug_str:000000000000bca2 .LASF2210
C:\Users\CYMR90~1\AppData\Local\Temp\ccEL7hUr.s:20764  .debug_str:000000000000694a .LASF2211
C:\Users\CYMR90~1\AppData\Local\Temp\ccEL7hUr.s:23338  .debug_str:00000000000110d2 .LASF2212
C:\Users\CYMR90~1\AppData\Local\Temp\ccEL7hUr.s:30045  .debug_str:000000000002bfa4 .LASF2213
C:\Users\CYMR90~1\AppData\Local\Temp\ccEL7hUr.s:24038  .debug_str:0000000000013ec6 .LASF2214
C:\Users\CYMR90~1\AppData\Local\Temp\ccEL7hUr.s:21722  .debug_str:000000000000a7f9 .LASF2215
C:\Users\CYMR90~1\AppData\Local\Temp\ccEL7hUr.s:25883  .debug_str:000000000001b7b6 .LASF2216
C:\Users\CYMR90~1\AppData\Local\Temp\ccEL7hUr.s:25205  .debug_str:00000000000189e1 .LASF2217
C:\Users\CYMR90~1\AppData\Local\Temp\ccEL7hUr.s:29815  .debug_str:000000000002afc2 .LASF2218
C:\Users\CYMR90~1\AppData\Local\Temp\ccEL7hUr.s:26431  .debug_str:000000000001db30 .LASF2219
C:\Users\CYMR90~1\AppData\Local\Temp\ccEL7hUr.s:25289  .debug_str:0000000000018f83 .LASF2220
C:\Users\CYMR90~1\AppData\Local\Temp\ccEL7hUr.s:23724  .debug_str:0000000000012a56 .LASF2221
C:\Users\CYMR90~1\AppData\Local\Temp\ccEL7hUr.s:25923  .debug_str:000000000001b9d6 .LASF2222
C:\Users\CYMR90~1\AppData\Local\Temp\ccEL7hUr.s:20698  .debug_str:000000000000651e .LASF2223
C:\Users\CYMR90~1\AppData\Local\Temp\ccEL7hUr.s:19142  .debug_str:000000000000029d .LASF2224
C:\Users\CYMR90~1\AppData\Local\Temp\ccEL7hUr.s:20236  .debug_str:0000000000004862 .LASF2225
C:\Users\CYMR90~1\AppData\Local\Temp\ccEL7hUr.s:25473  .debug_str:0000000000019c4d .LASF2226
C:\Users\CYMR90~1\AppData\Local\Temp\ccEL7hUr.s:24759  .debug_str:0000000000016e88 .LASF2227
C:\Users\CYMR90~1\AppData\Local\Temp\ccEL7hUr.s:26483  .debug_str:000000000001def7 .LASF2228
C:\Users\CYMR90~1\AppData\Local\Temp\ccEL7hUr.s:20206  .debug_str:0000000000004644 .LASF2229
C:\Users\CYMR90~1\AppData\Local\Temp\ccEL7hUr.s:26709  .debug_str:000000000001ec37 .LASF2230
C:\Users\CYMR90~1\AppData\Local\Temp\ccEL7hUr.s:19514  .debug_str:00000000000019f7 .LASF2231
C:\Users\CYMR90~1\AppData\Local\Temp\ccEL7hUr.s:25461  .debug_str:0000000000019b89 .LASF2232
C:\Users\CYMR90~1\AppData\Local\Temp\ccEL7hUr.s:22212  .debug_str:000000000000c99c .LASF2233
C:\Users\CYMR90~1\AppData\Local\Temp\ccEL7hUr.s:20436  .debug_str:0000000000005541 .LASF2234
C:\Users\CYMR90~1\AppData\Local\Temp\ccEL7hUr.s:29999  .debug_str:000000000002bc4d .LASF2235
C:\Users\CYMR90~1\AppData\Local\Temp\ccEL7hUr.s:22674  .debug_str:000000000000e705 .LASF2236
C:\Users\CYMR90~1\AppData\Local\Temp\ccEL7hUr.s:27353  .debug_str:00000000000213fd .LASF2237
C:\Users\CYMR90~1\AppData\Local\Temp\ccEL7hUr.s:26387  .debug_str:000000000001d899 .LASF2238
C:\Users\CYMR90~1\AppData\Local\Temp\ccEL7hUr.s:26317  .debug_str:000000000001d409 .LASF2239
C:\Users\CYMR90~1\AppData\Local\Temp\ccEL7hUr.s:19572  .debug_str:0000000000001d7c .LASF2240
C:\Users\CYMR90~1\AppData\Local\Temp\ccEL7hUr.s:27371  .debug_str:000000000002151b .LASF2241
C:\Users\CYMR90~1\AppData\Local\Temp\ccEL7hUr.s:28885  .debug_str:000000000002752c .LASF2242
C:\Users\CYMR90~1\AppData\Local\Temp\ccEL7hUr.s:22416  .debug_str:000000000000d7ce .LASF2243
C:\Users\CYMR90~1\AppData\Local\Temp\ccEL7hUr.s:24769  .debug_str:0000000000016f24 .LASF2244
C:\Users\CYMR90~1\AppData\Local\Temp\ccEL7hUr.s:21712  .debug_str:000000000000a71e .LASF2245
C:\Users\CYMR90~1\AppData\Local\Temp\ccEL7hUr.s:24352  .debug_str:00000000000152d9 .LASF2246
C:\Users\CYMR90~1\AppData\Local\Temp\ccEL7hUr.s:19938  .debug_str:0000000000003486 .LASF2247
C:\Users\CYMR90~1\AppData\Local\Temp\ccEL7hUr.s:26729  .debug_str:000000000001ed66 .LASF2248
C:\Users\CYMR90~1\AppData\Local\Temp\ccEL7hUr.s:25861  .debug_str:000000000001b641 .LASF2249
C:\Users\CYMR90~1\AppData\Local\Temp\ccEL7hUr.s:24927  .debug_str:00000000000178af .LASF2250
C:\Users\CYMR90~1\AppData\Local\Temp\ccEL7hUr.s:28115  .debug_str:0000000000024299 .LASF2251
C:\Users\CYMR90~1\AppData\Local\Temp\ccEL7hUr.s:23730  .debug_str:0000000000012ab3 .LASF2252
C:\Users\CYMR90~1\AppData\Local\Temp\ccEL7hUr.s:22482  .debug_str:000000000000db6e .LASF2253
C:\Users\CYMR90~1\AppData\Local\Temp\ccEL7hUr.s:21242  .debug_str:00000000000089b0 .LASF2254
C:\Users\CYMR90~1\AppData\Local\Temp\ccEL7hUr.s:23138  .debug_str:000000000001040f .LASF2255
C:\Users\CYMR90~1\AppData\Local\Temp\ccEL7hUr.s:26131  .debug_str:000000000001c6d1 .LASF2256
C:\Users\CYMR90~1\AppData\Local\Temp\ccEL7hUr.s:23432  .debug_str:0000000000011687 .LASF2257
C:\Users\CYMR90~1\AppData\Local\Temp\ccEL7hUr.s:23650  .debug_str:000000000001256c .LASF2258
C:\Users\CYMR90~1\AppData\Local\Temp\ccEL7hUr.s:23334  .debug_str:0000000000011090 .LASF2259
C:\Users\CYMR90~1\AppData\Local\Temp\ccEL7hUr.s:24398  .debug_str:0000000000015585 .LASF2260
C:\Users\CYMR90~1\AppData\Local\Temp\ccEL7hUr.s:19632  .debug_str:00000000000020b4 .LASF2261
C:\Users\CYMR90~1\AppData\Local\Temp\ccEL7hUr.s:22722  .debug_str:000000000000ea41 .LASF2262
C:\Users\CYMR90~1\AppData\Local\Temp\ccEL7hUr.s:26503  .debug_str:000000000001e038 .LASF2263
C:\Users\CYMR90~1\AppData\Local\Temp\ccEL7hUr.s:25563  .debug_str:000000000001a17b .LASF2264
C:\Users\CYMR90~1\AppData\Local\Temp\ccEL7hUr.s:22568  .debug_str:000000000000e0cf .LASF2265
C:\Users\CYMR90~1\AppData\Local\Temp\ccEL7hUr.s:21914  .debug_str:000000000000b501 .LASF2266
C:\Users\CYMR90~1\AppData\Local\Temp\ccEL7hUr.s:24935  .debug_str:0000000000017969 .LASF2267
C:\Users\CYMR90~1\AppData\Local\Temp\ccEL7hUr.s:21324  .debug_str:0000000000008f2f .LASF2268
C:\Users\CYMR90~1\AppData\Local\Temp\ccEL7hUr.s:20258  .debug_str:0000000000004a46 .LASF2269
C:\Users\CYMR90~1\AppData\Local\Temp\ccEL7hUr.s:26009  .debug_str:000000000001bf77 .LASF2270
C:\Users\CYMR90~1\AppData\Local\Temp\ccEL7hUr.s:26409  .debug_str:000000000001d9fc .LASF2271
C:\Users\CYMR90~1\AppData\Local\Temp\ccEL7hUr.s:24244  .debug_str:0000000000014bf1 .LASF2272
C:\Users\CYMR90~1\AppData\Local\Temp\ccEL7hUr.s:29095  .debug_str:00000000000283de .LASF2273
C:\Users\CYMR90~1\AppData\Local\Temp\ccEL7hUr.s:25767  .debug_str:000000000001b068 .LASF2274
C:\Users\CYMR90~1\AppData\Local\Temp\ccEL7hUr.s:22488  .debug_str:000000000000dbd9 .LASF2275
C:\Users\CYMR90~1\AppData\Local\Temp\ccEL7hUr.s:20038  .debug_str:0000000000003b2c .LASF2276
C:\Users\CYMR90~1\AppData\Local\Temp\ccEL7hUr.s:19310  .debug_str:0000000000000d00 .LASF2277
C:\Users\CYMR90~1\AppData\Local\Temp\ccEL7hUr.s:28949  .debug_str:000000000002793d .LASF2278
C:\Users\CYMR90~1\AppData\Local\Temp\ccEL7hUr.s:27357  .debug_str:000000000002143b .LASF2279
C:\Users\CYMR90~1\AppData\Local\Temp\ccEL7hUr.s:20440  .debug_str:0000000000005575 .LASF2280
C:\Users\CYMR90~1\AppData\Local\Temp\ccEL7hUr.s:25497  .debug_str:0000000000019dd0 .LASF2281
C:\Users\CYMR90~1\AppData\Local\Temp\ccEL7hUr.s:24821  .debug_str:000000000001722f .LASF2282
C:\Users\CYMR90~1\AppData\Local\Temp\ccEL7hUr.s:26187  .debug_str:000000000001caed .LASF2283
C:\Users\CYMR90~1\AppData\Local\Temp\ccEL7hUr.s:25725  .debug_str:000000000001ad5b .LASF2284
C:\Users\CYMR90~1\AppData\Local\Temp\ccEL7hUr.s:28903  .debug_str:000000000002762a .LASF2285
C:\Users\CYMR90~1\AppData\Local\Temp\ccEL7hUr.s:23340  .debug_str:00000000000110fa .LASF2286
C:\Users\CYMR90~1\AppData\Local\Temp\ccEL7hUr.s:27509  .debug_str:0000000000021dbe .LASF2287
C:\Users\CYMR90~1\AppData\Local\Temp\ccEL7hUr.s:29403  .debug_str:0000000000029756 .LASF2288
C:\Users\CYMR90~1\AppData\Local\Temp\ccEL7hUr.s:23546  .debug_str:0000000000011ec2 .LASF2289
C:\Users\CYMR90~1\AppData\Local\Temp\ccEL7hUr.s:29867  .debug_str:000000000002b382 .LASF2290
C:\Users\CYMR90~1\AppData\Local\Temp\ccEL7hUr.s:26597  .debug_str:000000000001e5b3 .LASF2291
C:\Users\CYMR90~1\AppData\Local\Temp\ccEL7hUr.s:20340  .debug_str:0000000000004f59 .LASF2292
C:\Users\CYMR90~1\AppData\Local\Temp\ccEL7hUr.s:29269  .debug_str:0000000000028efa .LASF2293
C:\Users\CYMR90~1\AppData\Local\Temp\ccEL7hUr.s:29831  .debug_str:000000000002b0fa .LASF2294
C:\Users\CYMR90~1\AppData\Local\Temp\ccEL7hUr.s:22548  .debug_str:000000000000df8a .LASF2295
C:\Users\CYMR90~1\AppData\Local\Temp\ccEL7hUr.s:22522  .debug_str:000000000000dd95 .LASF2296
C:\Users\CYMR90~1\AppData\Local\Temp\ccEL7hUr.s:21892  .debug_str:000000000000b312 .LASF2297
C:\Users\CYMR90~1\AppData\Local\Temp\ccEL7hUr.s:24050  .debug_str:0000000000013f86 .LASF2298
C:\Users\CYMR90~1\AppData\Local\Temp\ccEL7hUr.s:29109  .debug_str:00000000000284d3 .LASF2299
C:\Users\CYMR90~1\AppData\Local\Temp\ccEL7hUr.s:22872  .debug_str:000000000000f323 .LASF2300
C:\Users\CYMR90~1\AppData\Local\Temp\ccEL7hUr.s:25955  .debug_str:000000000001bbf2 .LASF2301
C:\Users\CYMR90~1\AppData\Local\Temp\ccEL7hUr.s:28243  .debug_str:0000000000024b2b .LASF2302
C:\Users\CYMR90~1\AppData\Local\Temp\ccEL7hUr.s:22480  .debug_str:000000000000db47 .LASF2303
C:\Users\CYMR90~1\AppData\Local\Temp\ccEL7hUr.s:27403  .debug_str:00000000000216ec .LASF2304
C:\Users\CYMR90~1\AppData\Local\Temp\ccEL7hUr.s:19390  .debug_str:000000000000120b .LASF2305
C:\Users\CYMR90~1\AppData\Local\Temp\ccEL7hUr.s:25669  .debug_str:000000000001a9f1 .LASF2306
C:\Users\CYMR90~1\AppData\Local\Temp\ccEL7hUr.s:26151  .debug_str:000000000001c8ae .LASF2307
C:\Users\CYMR90~1\AppData\Local\Temp\ccEL7hUr.s:19884  .debug_str:00000000000030dd .LASF2308
C:\Users\CYMR90~1\AppData\Local\Temp\ccEL7hUr.s:28529  .debug_str:0000000000025f09 .LASF2309
C:\Users\CYMR90~1\AppData\Local\Temp\ccEL7hUr.s:29343  .debug_str:000000000002936d .LASF2310
C:\Users\CYMR90~1\AppData\Local\Temp\ccEL7hUr.s:24088  .debug_str:0000000000014206 .LASF2311
C:\Users\CYMR90~1\AppData\Local\Temp\ccEL7hUr.s:29061  .debug_str:000000000002812e .LASF2312
C:\Users\CYMR90~1\AppData\Local\Temp\ccEL7hUr.s:20946  .debug_str:0000000000007558 .LASF2313
C:\Users\CYMR90~1\AppData\Local\Temp\ccEL7hUr.s:27185  .debug_str:00000000000209c7 .LASF2314
C:\Users\CYMR90~1\AppData\Local\Temp\ccEL7hUr.s:21004  .debug_str:0000000000007913 .LASF2315
C:\Users\CYMR90~1\AppData\Local\Temp\ccEL7hUr.s:25973  .debug_str:000000000001bd0d .LASF2316
C:\Users\CYMR90~1\AppData\Local\Temp\ccEL7hUr.s:29105  .debug_str:0000000000028492 .LASF2317
C:\Users\CYMR90~1\AppData\Local\Temp\ccEL7hUr.s:22758  .debug_str:000000000000ec89 .LASF2318
C:\Users\CYMR90~1\AppData\Local\Temp\ccEL7hUr.s:20270  .debug_str:0000000000004b02 .LASF2319
C:\Users\CYMR90~1\AppData\Local\Temp\ccEL7hUr.s:19804  .debug_str:0000000000002b95 .LASF2320
C:\Users\CYMR90~1\AppData\Local\Temp\ccEL7hUr.s:30303  .debug_str:000000000002d0b9 .LASF2321
C:\Users\CYMR90~1\AppData\Local\Temp\ccEL7hUr.s:20626  .debug_str:00000000000060cb .LASF2322
C:\Users\CYMR90~1\AppData\Local\Temp\ccEL7hUr.s:24206  .debug_str:00000000000149b0 .LASF2323
C:\Users\CYMR90~1\AppData\Local\Temp\ccEL7hUr.s:29893  .debug_str:000000000002b51c .LASF2324
C:\Users\CYMR90~1\AppData\Local\Temp\ccEL7hUr.s:21690  .debug_str:000000000000a602 .LASF2325
C:\Users\CYMR90~1\AppData\Local\Temp\ccEL7hUr.s:25165  .debug_str:0000000000018701 .LASF2326
C:\Users\CYMR90~1\AppData\Local\Temp\ccEL7hUr.s:19666  .debug_str:00000000000022b0 .LASF2327
C:\Users\CYMR90~1\AppData\Local\Temp\ccEL7hUr.s:24122  .debug_str:0000000000014435 .LASF2328
C:\Users\CYMR90~1\AppData\Local\Temp\ccEL7hUr.s:20998  .debug_str:00000000000078c6 .LASF2329
C:\Users\CYMR90~1\AppData\Local\Temp\ccEL7hUr.s:22144  .debug_str:000000000000c4fb .LASF2330
C:\Users\CYMR90~1\AppData\Local\Temp\ccEL7hUr.s:23180  .debug_str:000000000001066e .LASF2331
C:\Users\CYMR90~1\AppData\Local\Temp\ccEL7hUr.s:27313  .debug_str:000000000002110a .LASF2332
C:\Users\CYMR90~1\AppData\Local\Temp\ccEL7hUr.s:28705  .debug_str:00000000000269e2 .LASF2333
C:\Users\CYMR90~1\AppData\Local\Temp\ccEL7hUr.s:23192  .debug_str:0000000000010728 .LASF2334
C:\Users\CYMR90~1\AppData\Local\Temp\ccEL7hUr.s:23586  .debug_str:000000000001215b .LASF2335
C:\Users\CYMR90~1\AppData\Local\Temp\ccEL7hUr.s:22650  .debug_str:000000000000e597 .LASF2336
C:\Users\CYMR90~1\AppData\Local\Temp\ccEL7hUr.s:20640  .debug_str:00000000000061c6 .LASF2337
C:\Users\CYMR90~1\AppData\Local\Temp\ccEL7hUr.s:19712  .debug_str:000000000000254c .LASF2338
C:\Users\CYMR90~1\AppData\Local\Temp\ccEL7hUr.s:26373  .debug_str:000000000001d7ba .LASF2339
C:\Users\CYMR90~1\AppData\Local\Temp\ccEL7hUr.s:28589  .debug_str:0000000000026298 .LASF2340
C:\Users\CYMR90~1\AppData\Local\Temp\ccEL7hUr.s:26965  .debug_str:000000000001fbeb .LASF2341
C:\Users\CYMR90~1\AppData\Local\Temp\ccEL7hUr.s:26981  .debug_str:000000000001fcc3 .LASF2342
C:\Users\CYMR90~1\AppData\Local\Temp\ccEL7hUr.s:28013  .debug_str:0000000000023b68 .LASF2343
C:\Users\CYMR90~1\AppData\Local\Temp\ccEL7hUr.s:28811  .debug_str:0000000000027011 .LASF2344
C:\Users\CYMR90~1\AppData\Local\Temp\ccEL7hUr.s:26075  .debug_str:000000000001c39c .LASF2345
C:\Users\CYMR90~1\AppData\Local\Temp\ccEL7hUr.s:26245  .debug_str:000000000001cf43 .LASF2346
C:\Users\CYMR90~1\AppData\Local\Temp\ccEL7hUr.s:21212  .debug_str:00000000000087ae .LASF2347
C:\Users\CYMR90~1\AppData\Local\Temp\ccEL7hUr.s:23938  .debug_str:00000000000138ee .LASF2348
C:\Users\CYMR90~1\AppData\Local\Temp\ccEL7hUr.s:27455  .debug_str:0000000000021a0e .LASF2349
C:\Users\CYMR90~1\AppData\Local\Temp\ccEL7hUr.s:29699  .debug_str:000000000002a8fd .LASF2350
C:\Users\CYMR90~1\AppData\Local\Temp\ccEL7hUr.s:28229  .debug_str:0000000000024a3c .LASF2351
C:\Users\CYMR90~1\AppData\Local\Temp\ccEL7hUr.s:20790  .debug_str:0000000000006ad4 .LASF2352
C:\Users\CYMR90~1\AppData\Local\Temp\ccEL7hUr.s:23092  .debug_str:000000000001011e .LASF2353
C:\Users\CYMR90~1\AppData\Local\Temp\ccEL7hUr.s:20736  .debug_str:0000000000006758 .LASF2354
C:\Users\CYMR90~1\AppData\Local\Temp\ccEL7hUr.s:30103  .debug_str:000000000002c3ce .LASF2355
C:\Users\CYMR90~1\AppData\Local\Temp\ccEL7hUr.s:29525  .debug_str:0000000000029e5c .LASF2356
C:\Users\CYMR90~1\AppData\Local\Temp\ccEL7hUr.s:22396  .debug_str:000000000000d669 .LASF2357
C:\Users\CYMR90~1\AppData\Local\Temp\ccEL7hUr.s:21442  .debug_str:0000000000009634 .LASF2358
C:\Users\CYMR90~1\AppData\Local\Temp\ccEL7hUr.s:20032  .debug_str:0000000000003adf .LASF2359
C:\Users\CYMR90~1\AppData\Local\Temp\ccEL7hUr.s:23104  .debug_str:00000000000101f7 .LASF2360
C:\Users\CYMR90~1\AppData\Local\Temp\ccEL7hUr.s:21872  .debug_str:000000000000b21d .LASF2361
C:\Users\CYMR90~1\AppData\Local\Temp\ccEL7hUr.s:20670  .debug_str:0000000000006368 .LASF2362
C:\Users\CYMR90~1\AppData\Local\Temp\ccEL7hUr.s:28019  .debug_str:0000000000023bb8 .LASF2363
C:\Users\CYMR90~1\AppData\Local\Temp\ccEL7hUr.s:27193  .debug_str:0000000000020a42 .LASF2364
C:\Users\CYMR90~1\AppData\Local\Temp\ccEL7hUr.s:23644  .debug_str:0000000000012504 .LASF2365
C:\Users\CYMR90~1\AppData\Local\Temp\ccEL7hUr.s:28263  .debug_str:0000000000024ca2 .LASF2366
C:\Users\CYMR90~1\AppData\Local\Temp\ccEL7hUr.s:28881  .debug_str:00000000000274ff .LASF2367
C:\Users\CYMR90~1\AppData\Local\Temp\ccEL7hUr.s:21428  .debug_str:0000000000009511 .LASF2368
C:\Users\CYMR90~1\AppData\Local\Temp\ccEL7hUr.s:22752  .debug_str:000000000000ec26 .LASF2369
C:\Users\CYMR90~1\AppData\Local\Temp\ccEL7hUr.s:20800  .debug_str:0000000000006b91 .LASF2370
C:\Users\CYMR90~1\AppData\Local\Temp\ccEL7hUr.s:23156  .debug_str:000000000001050b .LASF2371
C:\Users\CYMR90~1\AppData\Local\Temp\ccEL7hUr.s:29979  .debug_str:000000000002baf6 .LASF2372
C:\Users\CYMR90~1\AppData\Local\Temp\ccEL7hUr.s:28657  .debug_str:00000000000266fb .LASF2373
C:\Users\CYMR90~1\AppData\Local\Temp\ccEL7hUr.s:19248  .debug_str:00000000000008fd .LASF2374
C:\Users\CYMR90~1\AppData\Local\Temp\ccEL7hUr.s:23550  .debug_str:0000000000011f17 .LASF2375
C:\Users\CYMR90~1\AppData\Local\Temp\ccEL7hUr.s:26677  .debug_str:000000000001ea8c .LASF2376
C:\Users\CYMR90~1\AppData\Local\Temp\ccEL7hUr.s:29925  .debug_str:000000000002b797 .LASF2377
C:\Users\CYMR90~1\AppData\Local\Temp\ccEL7hUr.s:21874  .debug_str:000000000000b242 .LASF2378
C:\Users\CYMR90~1\AppData\Local\Temp\ccEL7hUr.s:20842  .debug_str:0000000000006e65 .LASF2379
C:\Users\CYMR90~1\AppData\Local\Temp\ccEL7hUr.s:28221  .debug_str:00000000000249b9 .LASF2380
C:\Users\CYMR90~1\AppData\Local\Temp\ccEL7hUr.s:27977  .debug_str:0000000000023983 .LASF2381
C:\Users\CYMR90~1\AppData\Local\Temp\ccEL7hUr.s:23322  .debug_str:0000000000011011 .LASF2382
C:\Users\CYMR90~1\AppData\Local\Temp\ccEL7hUr.s:26451  .debug_str:000000000001dc6f .LASF2383
C:\Users\CYMR90~1\AppData\Local\Temp\ccEL7hUr.s:29669  .debug_str:000000000002a757 .LASF2384
C:\Users\CYMR90~1\AppData\Local\Temp\ccEL7hUr.s:19546  .debug_str:0000000000001bf8 .LASF2385
C:\Users\CYMR90~1\AppData\Local\Temp\ccEL7hUr.s:24214  .debug_str:0000000000014a18 .LASF2386
C:\Users\CYMR90~1\AppData\Local\Temp\ccEL7hUr.s:28883  .debug_str:0000000000027511 .LASF2387
C:\Users\CYMR90~1\AppData\Local\Temp\ccEL7hUr.s:25823  .debug_str:000000000001b414 .LASF2388
C:\Users\CYMR90~1\AppData\Local\Temp\ccEL7hUr.s:26973  .debug_str:000000000001fc63 .LASF2389
C:\Users\CYMR90~1\AppData\Local\Temp\ccEL7hUr.s:20412  .debug_str:00000000000053b9 .LASF2390
C:\Users\CYMR90~1\AppData\Local\Temp\ccEL7hUr.s:25091  .debug_str:00000000000182be .LASF2391
C:\Users\CYMR90~1\AppData\Local\Temp\ccEL7hUr.s:29769  .debug_str:000000000002ad26 .LASF2392
C:\Users\CYMR90~1\AppData\Local\Temp\ccEL7hUr.s:25931  .debug_str:000000000001ba5e .LASF2393
C:\Users\CYMR90~1\AppData\Local\Temp\ccEL7hUr.s:28943  .debug_str:00000000000278d8 .LASF2394
C:\Users\CYMR90~1\AppData\Local\Temp\ccEL7hUr.s:22408  .debug_str:000000000000d732 .LASF2395
C:\Users\CYMR90~1\AppData\Local\Temp\ccEL7hUr.s:27031  .debug_str:000000000001fff8 .LASF2396
C:\Users\CYMR90~1\AppData\Local\Temp\ccEL7hUr.s:20460  .debug_str:000000000000566f .LASF2397
C:\Users\CYMR90~1\AppData\Local\Temp\ccEL7hUr.s:25145  .debug_str:0000000000018605 .LASF2398
C:\Users\CYMR90~1\AppData\Local\Temp\ccEL7hUr.s:29827  .debug_str:000000000002b0c9 .LASF2399
C:\Users\CYMR90~1\AppData\Local\Temp\ccEL7hUr.s:29703  .debug_str:000000000002a935 .LASF2400
C:\Users\CYMR90~1\AppData\Local\Temp\ccEL7hUr.s:21666  .debug_str:000000000000a48a .LASF2401
C:\Users\CYMR90~1\AppData\Local\Temp\ccEL7hUr.s:24837  .debug_str:000000000001732b .LASF2402
C:\Users\CYMR90~1\AppData\Local\Temp\ccEL7hUr.s:28023  .debug_str:0000000000023be9 .LASF2403
C:\Users\CYMR90~1\AppData\Local\Temp\ccEL7hUr.s:20062  .debug_str:0000000000003c79 .LASF2404
C:\Users\CYMR90~1\AppData\Local\Temp\ccEL7hUr.s:23200  .debug_str:000000000001085e .LASF2405
C:\Users\CYMR90~1\AppData\Local\Temp\ccEL7hUr.s:26345  .debug_str:000000000001d5df .LASF2406
C:\Users\CYMR90~1\AppData\Local\Temp\ccEL7hUr.s:29551  .debug_str:000000000002a012 .LASF2407
C:\Users\CYMR90~1\AppData\Local\Temp\ccEL7hUr.s:23982  .debug_str:0000000000013b72 .LASF2408
C:\Users\CYMR90~1\AppData\Local\Temp\ccEL7hUr.s:22386  .debug_str:000000000000d5c2 .LASF2409
C:\Users\CYMR90~1\AppData\Local\Temp\ccEL7hUr.s:25715  .debug_str:000000000001acb8 .LASF2410
C:\Users\CYMR90~1\AppData\Local\Temp\ccEL7hUr.s:19136  .debug_str:0000000000000241 .LASF2411
C:\Users\CYMR90~1\AppData\Local\Temp\ccEL7hUr.s:25741  .debug_str:000000000001ae66 .LASF2412
C:\Users\CYMR90~1\AppData\Local\Temp\ccEL7hUr.s:28431  .debug_str:00000000000258ff .LASF2413
C:\Users\CYMR90~1\AppData\Local\Temp\ccEL7hUr.s:21908  .debug_str:000000000000b438 .LASF2414
C:\Users\CYMR90~1\AppData\Local\Temp\ccEL7hUr.s:26519  .debug_str:000000000001e129 .LASF2415
C:\Users\CYMR90~1\AppData\Local\Temp\ccEL7hUr.s:22242  .debug_str:000000000000cc7d .LASF2416
C:\Users\CYMR90~1\AppData\Local\Temp\ccEL7hUr.s:24634  .debug_str:0000000000016434 .LASF2417
C:\Users\CYMR90~1\AppData\Local\Temp\ccEL7hUr.s:26731  .debug_str:000000000001ed95 .LASF2418
C:\Users\CYMR90~1\AppData\Local\Temp\ccEL7hUr.s:23858  .debug_str:000000000001332b .LASF2419
C:\Users\CYMR90~1\AppData\Local\Temp\ccEL7hUr.s:28483  .debug_str:0000000000025c25 .LASF2420
C:\Users\CYMR90~1\AppData\Local\Temp\ccEL7hUr.s:21950  .debug_str:000000000000b792 .LASF2421
C:\Users\CYMR90~1\AppData\Local\Temp\ccEL7hUr.s:26569  .debug_str:000000000001e400 .LASF2422
C:\Users\CYMR90~1\AppData\Local\Temp\ccEL7hUr.s:20028  .debug_str:0000000000003a94 .LASF2423
C:\Users\CYMR90~1\AppData\Local\Temp\ccEL7hUr.s:24692  .debug_str:00000000000167e3 .LASF2424
C:\Users\CYMR90~1\AppData\Local\Temp\ccEL7hUr.s:21788  .debug_str:000000000000ac24 .LASF2425
C:\Users\CYMR90~1\AppData\Local\Temp\ccEL7hUr.s:24867  .debug_str:00000000000174f1 .LASF2426
C:\Users\CYMR90~1\AppData\Local\Temp\ccEL7hUr.s:28061  .debug_str:0000000000023e59 .LASF2427
C:\Users\CYMR90~1\AppData\Local\Temp\ccEL7hUr.s:20012  .debug_str:0000000000003979 .LASF2428
C:\Users\CYMR90~1\AppData\Local\Temp\ccEL7hUr.s:23234  .debug_str:0000000000010a4f .LASF2429
C:\Users\CYMR90~1\AppData\Local\Temp\ccEL7hUr.s:23480  .debug_str:0000000000011a5e .LASF2430
C:\Users\CYMR90~1\AppData\Local\Temp\ccEL7hUr.s:29591  .debug_str:000000000002a23c .LASF2431
C:\Users\CYMR90~1\AppData\Local\Temp\ccEL7hUr.s:20212  .debug_str:00000000000046b5 .LASF2432
C:\Users\CYMR90~1\AppData\Local\Temp\ccEL7hUr.s:28853  .debug_str:000000000002738e .LASF2433
C:\Users\CYMR90~1\AppData\Local\Temp\ccEL7hUr.s:27827  .debug_str:000000000002304a .LASF2434
C:\Users\CYMR90~1\AppData\Local\Temp\ccEL7hUr.s:29163  .debug_str:000000000002888d .LASF2435
C:\Users\CYMR90~1\AppData\Local\Temp\ccEL7hUr.s:22624  .debug_str:000000000000e414 .LASF2436
C:\Users\CYMR90~1\AppData\Local\Temp\ccEL7hUr.s:27255  .debug_str:0000000000020df5 .LASF2437
C:\Users\CYMR90~1\AppData\Local\Temp\ccEL7hUr.s:20690  .debug_str:00000000000064b0 .LASF2438
C:\Users\CYMR90~1\AppData\Local\Temp\ccEL7hUr.s:25377  .debug_str:00000000000195ae .LASF2439
C:\Users\CYMR90~1\AppData\Local\Temp\ccEL7hUr.s:30047  .debug_str:000000000002bfcc .LASF2440
C:\Users\CYMR90~1\AppData\Local\Temp\ccEL7hUr.s:23488  .debug_str:0000000000011acb .LASF2441
C:\Users\CYMR90~1\AppData\Local\Temp\ccEL7hUr.s:28125  .debug_str:000000000002437c .LASF2442
C:\Users\CYMR90~1\AppData\Local\Temp\ccEL7hUr.s:22094  .debug_str:000000000000c1f1 .LASF2443
C:\Users\CYMR90~1\AppData\Local\Temp\ccEL7hUr.s:27307  .debug_str:000000000002109f .LASF2444
C:\Users\CYMR90~1\AppData\Local\Temp\ccEL7hUr.s:20740  .debug_str:0000000000006791 .LASF2445
C:\Users\CYMR90~1\AppData\Local\Temp\ccEL7hUr.s:25425  .debug_str:000000000001993d .LASF2446
C:\Users\CYMR90~1\AppData\Local\Temp\ccEL7hUr.s:30099  .debug_str:000000000002c38f .LASF2447
C:\Users\CYMR90~1\AppData\Local\Temp\ccEL7hUr.s:23542  .debug_str:0000000000011e74 .LASF2448
C:\Users\CYMR90~1\AppData\Local\Temp\ccEL7hUr.s:28173  .debug_str:0000000000024671 .LASF2449
C:\Users\CYMR90~1\AppData\Local\Temp\ccEL7hUr.s:26995  .debug_str:000000000001fdc4 .LASF2450
C:\Users\CYMR90~1\AppData\Local\Temp\ccEL7hUr.s:28281  .debug_str:0000000000024db1 .LASF2451
C:\Users\CYMR90~1\AppData\Local\Temp\ccEL7hUr.s:26643  .debug_str:000000000001e8a2 .LASF2452
C:\Users\CYMR90~1\AppData\Local\Temp\ccEL7hUr.s:25273  .debug_str:0000000000018ea7 .LASF2453
C:\Users\CYMR90~1\AppData\Local\Temp\ccEL7hUr.s:28433  .debug_str:0000000000025918 .LASF2454
C:\Users\CYMR90~1\AppData\Local\Temp\ccEL7hUr.s:21852  .debug_str:000000000000b105 .LASF2455
C:\Users\CYMR90~1\AppData\Local\Temp\ccEL7hUr.s:23618  .debug_str:0000000000012372 .LASF2456
C:\Users\CYMR90~1\AppData\Local\Temp\ccEL7hUr.s:26739  .debug_str:000000000001ee11 .LASF2457
C:\Users\CYMR90~1\AppData\Local\Temp\ccEL7hUr.s:28211  .debug_str:000000000002492f .LASF2458
C:\Users\CYMR90~1\AppData\Local\Temp\ccEL7hUr.s:21856  .debug_str:000000000000b142 .LASF2459
C:\Users\CYMR90~1\AppData\Local\Temp\ccEL7hUr.s:28137  .debug_str:0000000000024427 .LASF2460
C:\Users\CYMR90~1\AppData\Local\Temp\ccEL7hUr.s:29921  .debug_str:000000000002b707 .LASF2461
C:\Users\CYMR90~1\AppData\Local\Temp\ccEL7hUr.s:26231  .debug_str:000000000001ce83 .LASF2462
C:\Users\CYMR90~1\AppData\Local\Temp\ccEL7hUr.s:19672  .debug_str:00000000000022fc .LASF2463
C:\Users\CYMR90~1\AppData\Local\Temp\ccEL7hUr.s:24332  .debug_str:000000000001519c .LASF2464
C:\Users\CYMR90~1\AppData\Local\Temp\ccEL7hUr.s:29011  .debug_str:0000000000027da0 .LASF2465
C:\Users\CYMR90~1\AppData\Local\Temp\ccEL7hUr.s:22470  .debug_str:000000000000dab9 .LASF2466
C:\Users\CYMR90~1\AppData\Local\Temp\ccEL7hUr.s:27099  .debug_str:0000000000020413 .LASF2467
C:\Users\CYMR90~1\AppData\Local\Temp\ccEL7hUr.s:25217  .debug_str:0000000000018a89 .LASF2468
C:\Users\CYMR90~1\AppData\Local\Temp\ccEL7hUr.s:20092  .debug_str:0000000000003e6a .LASF2469
C:\Users\CYMR90~1\AppData\Local\Temp\ccEL7hUr.s:19728  .debug_str:0000000000002690 .LASF2470
C:\Users\CYMR90~1\AppData\Local\Temp\ccEL7hUr.s:23908  .debug_str:0000000000013700 .LASF2471
C:\Users\CYMR90~1\AppData\Local\Temp\ccEL7hUr.s:29065  .debug_str:0000000000028212 .LASF2472
C:\Users\CYMR90~1\AppData\Local\Temp\ccEL7hUr.s:22526  .debug_str:000000000000dde6 .LASF2473
C:\Users\CYMR90~1\AppData\Local\Temp\ccEL7hUr.s:27155  .debug_str:00000000000207c6 .LASF2474
C:\Users\CYMR90~1\AppData\Local\Temp\ccEL7hUr.s:29287  .debug_str:000000000002901c .LASF2475
C:\Users\CYMR90~1\AppData\Local\Temp\ccEL7hUr.s:19870  .debug_str:0000000000002fd0 .LASF2476
C:\Users\CYMR90~1\AppData\Local\Temp\ccEL7hUr.s:24410  .debug_str:0000000000015610 .LASF2477
C:\Users\CYMR90~1\AppData\Local\Temp\ccEL7hUr.s:29051  .debug_str:0000000000028097 .LASF2478
C:\Users\CYMR90~1\AppData\Local\Temp\ccEL7hUr.s:27423  .debug_str:000000000002184c .LASF2479
C:\Users\CYMR90~1\AppData\Local\Temp\ccEL7hUr.s:25827  .debug_str:000000000001b455 .LASF2480
C:\Users\CYMR90~1\AppData\Local\Temp\ccEL7hUr.s:25937  .debug_str:000000000001baa9 .LASF2481
C:\Users\CYMR90~1\AppData\Local\Temp\ccEL7hUr.s:29139  .debug_str:0000000000028720 .LASF2482
C:\Users\CYMR90~1\AppData\Local\Temp\ccEL7hUr.s:21088  .debug_str:0000000000007f2c .LASF2483
C:\Users\CYMR90~1\AppData\Local\Temp\ccEL7hUr.s:24188  .debug_str:000000000001488d .LASF2484
C:\Users\CYMR90~1\AppData\Local\Temp\ccEL7hUr.s:23912  .debug_str:000000000001372d .LASF2485
C:\Users\CYMR90~1\AppData\Local\Temp\ccEL7hUr.s:28543  .debug_str:0000000000025fea .LASF2486
C:\Users\CYMR90~1\AppData\Local\Temp\ccEL7hUr.s:22000  .debug_str:000000000000baa9 .LASF2487
C:\Users\CYMR90~1\AppData\Local\Temp\ccEL7hUr.s:26621  .debug_str:000000000001e6fb .LASF2488
C:\Users\CYMR90~1\AppData\Local\Temp\ccEL7hUr.s:20082  .debug_str:0000000000003dd7 .LASF2489
C:\Users\CYMR90~1\AppData\Local\Temp\ccEL7hUr.s:24755  .debug_str:0000000000016e43 .LASF2490
C:\Users\CYMR90~1\AppData\Local\Temp\ccEL7hUr.s:29421  .debug_str:000000000002985e .LASF2491
C:\Users\CYMR90~1\AppData\Local\Temp\ccEL7hUr.s:22884  .debug_str:000000000000f3d9 .LASF2492
C:\Users\CYMR90~1\AppData\Local\Temp\ccEL7hUr.s:20952  .debug_str:00000000000075b9 .LASF2493
C:\Users\CYMR90~1\AppData\Local\Temp\ccEL7hUr.s:22058  .debug_str:000000000000bf9e .LASF2494
C:\Users\CYMR90~1\AppData\Local\Temp\ccEL7hUr.s:26667  .debug_str:000000000001ea17 .LASF2495
C:\Users\CYMR90~1\AppData\Local\Temp\ccEL7hUr.s:20128  .debug_str:00000000000040c1 .LASF2496
C:\Users\CYMR90~1\AppData\Local\Temp\ccEL7hUr.s:19516  .debug_str:0000000000001a18 .LASF2497
C:\Users\CYMR90~1\AppData\Local\Temp\ccEL7hUr.s:29473  .debug_str:0000000000029b83 .LASF2498
C:\Users\CYMR90~1\AppData\Local\Temp\ccEL7hUr.s:22946  .debug_str:000000000000f79f .LASF2499
C:\Users\CYMR90~1\AppData\Local\Temp\ccEL7hUr.s:22664  .debug_str:000000000000e668 .LASF2500
C:\Users\CYMR90~1\AppData\Local\Temp\ccEL7hUr.s:25837  .debug_str:000000000001b503 .LASF2501
C:\Users\CYMR90~1\AppData\Local\Temp\ccEL7hUr.s:29021  .debug_str:0000000000027e47 .LASF2502
C:\Users\CYMR90~1\AppData\Local\Temp\ccEL7hUr.s:20968  .debug_str:00000000000076dc .LASF2503
C:\Users\CYMR90~1\AppData\Local\Temp\ccEL7hUr.s:24074  .debug_str:00000000000140fb .LASF2504
C:\Users\CYMR90~1\AppData\Local\Temp\ccEL7hUr.s:27253  .debug_str:0000000000020de2 .LASF2505
C:\Users\CYMR90~1\AppData\Local\Temp\ccEL7hUr.s:29407  .debug_str:000000000002979b .LASF2506
C:\Users\CYMR90~1\AppData\Local\Temp\ccEL7hUr.s:22436  .debug_str:000000000000d8cf .LASF2507
C:\Users\CYMR90~1\AppData\Local\Temp\ccEL7hUr.s:25619  .debug_str:000000000001a644 .LASF2508
C:\Users\CYMR90~1\AppData\Local\Temp\ccEL7hUr.s:28779  .debug_str:0000000000026e6f .LASF2509
C:\Users\CYMR90~1\AppData\Local\Temp\ccEL7hUr.s:29107  .debug_str:00000000000284be .LASF2510
C:\Users\CYMR90~1\AppData\Local\Temp\ccEL7hUr.s:22570  .debug_str:000000000000e0ef .LASF2511
C:\Users\CYMR90~1\AppData\Local\Temp\ccEL7hUr.s:27197  .debug_str:0000000000020a71 .LASF2512
C:\Users\CYMR90~1\AppData\Local\Temp\ccEL7hUr.s:20618  .debug_str:0000000000006034 .LASF2513
C:\Users\CYMR90~1\AppData\Local\Temp\ccEL7hUr.s:25317  .debug_str:0000000000019226 .LASF2514
C:\Users\CYMR90~1\AppData\Local\Temp\ccEL7hUr.s:26079  .debug_str:000000000001c3d8 .LASF2515
C:\Users\CYMR90~1\AppData\Local\Temp\ccEL7hUr.s:23430  .debug_str:0000000000011672 .LASF2516
C:\Users\CYMR90~1\AppData\Local\Temp\ccEL7hUr.s:28071  .debug_str:0000000000023ec9 .LASF2517
C:\Users\CYMR90~1\AppData\Local\Temp\ccEL7hUr.s:26169  .debug_str:000000000001ca03 .LASF2518
C:\Users\CYMR90~1\AppData\Local\Temp\ccEL7hUr.s:27341  .debug_str:00000000000212a2 .LASF2519
C:\Users\CYMR90~1\AppData\Local\Temp\ccEL7hUr.s:20770  .debug_str:00000000000069a9 .LASF2520
C:\Users\CYMR90~1\AppData\Local\Temp\ccEL7hUr.s:25451  .debug_str:0000000000019af1 .LASF2521
C:\Users\CYMR90~1\AppData\Local\Temp\ccEL7hUr.s:30127  .debug_str:000000000002c54d .LASF2522
C:\Users\CYMR90~1\AppData\Local\Temp\ccEL7hUr.s:23568  .debug_str:000000000001201c .LASF2523
C:\Users\CYMR90~1\AppData\Local\Temp\ccEL7hUr.s:28193  .debug_str:00000000000247a6 .LASF2524
C:\Users\CYMR90~1\AppData\Local\Temp\ccEL7hUr.s:23764  .debug_str:0000000000012cec .LASF2525
C:\Users\CYMR90~1\AppData\Local\Temp\ccEL7hUr.s:19964  .debug_str:0000000000003643 .LASF2526
C:\Users\CYMR90~1\AppData\Local\Temp\ccEL7hUr.s:25115  .debug_str:000000000001842c .LASF2527
C:\Users\CYMR90~1\AppData\Local\Temp\ccEL7hUr.s:21500  .debug_str:0000000000009a19 .LASF2528
C:\Users\CYMR90~1\AppData\Local\Temp\ccEL7hUr.s:20294  .debug_str:0000000000004c9b .LASF2529
C:\Users\CYMR90~1\AppData\Local\Temp\ccEL7hUr.s:28503  .debug_str:0000000000025d52 .LASF2530
C:\Users\CYMR90~1\AppData\Local\Temp\ccEL7hUr.s:24534  .debug_str:0000000000015dcc .LASF2531
C:\Users\CYMR90~1\AppData\Local\Temp\ccEL7hUr.s:24302  .debug_str:0000000000014ff3 .LASF2532
C:\Users\CYMR90~1\AppData\Local\Temp\ccEL7hUr.s:24676  .debug_str:000000000001670d .LASF2533
C:\Users\CYMR90~1\AppData\Local\Temp\ccEL7hUr.s:21564  .debug_str:0000000000009dfd .LASF2534
C:\Users\CYMR90~1\AppData\Local\Temp\ccEL7hUr.s:20816  .debug_str:0000000000006c96 .LASF2535
C:\Users\CYMR90~1\AppData\Local\Temp\ccEL7hUr.s:29237  .debug_str:0000000000028ce7 .LASF2536
C:\Users\CYMR90~1\AppData\Local\Temp\ccEL7hUr.s:19214  .debug_str:00000000000006e2 .LASF2537
C:\Users\CYMR90~1\AppData\Local\Temp\ccEL7hUr.s:20988  .debug_str:000000000000781e .LASF2538
C:\Users\CYMR90~1\AppData\Local\Temp\ccEL7hUr.s:20006  .debug_str:0000000000003926 .LASF2539
C:\Users\CYMR90~1\AppData\Local\Temp\ccEL7hUr.s:28397  .debug_str:0000000000025656 .LASF2540
C:\Users\CYMR90~1\AppData\Local\Temp\ccEL7hUr.s:23570  .debug_str:0000000000012031 .LASF2541
C:\Users\CYMR90~1\AppData\Local\Temp\ccEL7hUr.s:22350  .debug_str:000000000000d2d9 .LASF2542
C:\Users\CYMR90~1\AppData\Local\Temp\ccEL7hUr.s:26929  .debug_str:000000000001f992 .LASF2543
C:\Users\CYMR90~1\AppData\Local\Temp\ccEL7hUr.s:26047  .debug_str:000000000001c206 .LASF2544
C:\Users\CYMR90~1\AppData\Local\Temp\ccEL7hUr.s:20054  .debug_str:0000000000003bfa .LASF2545
C:\Users\CYMR90~1\AppData\Local\Temp\ccEL7hUr.s:28551  .debug_str:000000000002607a .LASF2546
C:\Users\CYMR90~1\AppData\Local\Temp\ccEL7hUr.s:22324  .debug_str:000000000000d139 .LASF2547
C:\Users\CYMR90~1\AppData\Local\Temp\ccEL7hUr.s:21406  .debug_str:00000000000093c9 .LASF2548
C:\Users\CYMR90~1\AppData\Local\Temp\ccEL7hUr.s:20384  .debug_str:00000000000051f9 .LASF2549
C:\Users\CYMR90~1\AppData\Local\Temp\ccEL7hUr.s:28891  .debug_str:0000000000027591 .LASF2550
C:\Users\CYMR90~1\AppData\Local\Temp\ccEL7hUr.s:29191  .debug_str:0000000000028a5d .LASF2551
C:\Users\CYMR90~1\AppData\Local\Temp\ccEL7hUr.s:23428  .debug_str:0000000000011650 .LASF2552
C:\Users\CYMR90~1\AppData\Local\Temp\ccEL7hUr.s:27291  .debug_str:0000000000020fe8 .LASF2553
C:\Users\CYMR90~1\AppData\Local\Temp\ccEL7hUr.s:24456  .debug_str:00000000000158af .LASF2554
C:\Users\CYMR90~1\AppData\Local\Temp\ccEL7hUr.s:25017  .debug_str:0000000000017e4c .LASF2555
C:\Users\CYMR90~1\AppData\Local\Temp\ccEL7hUr.s:23890  .debug_str:00000000000135c9 .LASF2556
C:\Users\CYMR90~1\AppData\Local\Temp\ccEL7hUr.s:24358  .debug_str:0000000000015362 .LASF2557
C:\Users\CYMR90~1\AppData\Local\Temp\ccEL7hUr.s:23096  .debug_str:000000000001015d .LASF2558
C:\Users\CYMR90~1\AppData\Local\Temp\ccEL7hUr.s:23378  .debug_str:0000000000011346 .LASF2559
C:\Users\CYMR90~1\AppData\Local\Temp\ccEL7hUr.s:22476  .debug_str:000000000000db0c .LASF2560
C:\Users\CYMR90~1\AppData\Local\Temp\ccEL7hUr.s:21480  .debug_str:000000000000986a .LASF2561
C:\Users\CYMR90~1\AppData\Local\Temp\ccEL7hUr.s:29887  .debug_str:000000000002b4d2 .LASF2562
C:\Users\CYMR90~1\AppData\Local\Temp\ccEL7hUr.s:23120  .debug_str:0000000000010310 .LASF2563
C:\Users\CYMR90~1\AppData\Local\Temp\ccEL7hUr.s:29231  .debug_str:0000000000028c8a .LASF2564
C:\Users\CYMR90~1\AppData\Local\Temp\ccEL7hUr.s:27965  .debug_str:00000000000238bc .LASF2565
C:\Users\CYMR90~1\AppData\Local\Temp\ccEL7hUr.s:24849  .debug_str:00000000000173f8 .LASF2566
C:\Users\CYMR90~1\AppData\Local\Temp\ccEL7hUr.s:24474  .debug_str:00000000000159e5 .LASF2567
C:\Users\CYMR90~1\AppData\Local\Temp\ccEL7hUr.s:24604  .debug_str:0000000000016297 .LASF2568
C:\Users\CYMR90~1\AppData\Local\Temp\ccEL7hUr.s:28913  .debug_str:00000000000276d1 .LASF2569
C:\Users\CYMR90~1\AppData\Local\Temp\ccEL7hUr.s:22340  .debug_str:000000000000d23d .LASF2570
C:\Users\CYMR90~1\AppData\Local\Temp\ccEL7hUr.s:26711  .debug_str:000000000001ec58 .LASF2571
C:\Users\CYMR90~1\AppData\Local\Temp\ccEL7hUr.s:20888  .debug_str:0000000000007182 .LASF2572
C:\Users\CYMR90~1\AppData\Local\Temp\ccEL7hUr.s:19354  .debug_str:0000000000001003 .LASF2573
C:\Users\CYMR90~1\AppData\Local\Temp\ccEL7hUr.s:25705  .debug_str:000000000001ac34 .LASF2574
C:\Users\CYMR90~1\AppData\Local\Temp\ccEL7hUr.s:21734  .debug_str:000000000000a8ba .LASF2575
C:\Users\CYMR90~1\AppData\Local\Temp\ccEL7hUr.s:24584  .debug_str:0000000000016160 .LASF2576
C:\Users\CYMR90~1\AppData\Local\Temp\ccEL7hUr.s:22056  .debug_str:000000000000bf86 .LASF2577
C:\Users\CYMR90~1\AppData\Local\Temp\ccEL7hUr.s:22190  .debug_str:000000000000c7d7 .LASF2578
C:\Users\CYMR90~1\AppData\Local\Temp\ccEL7hUr.s:26089  .debug_str:000000000001c451 .LASF2579
C:\Users\CYMR90~1\AppData\Local\Temp\ccEL7hUr.s:20330  .debug_str:0000000000004ebd .LASF2580
C:\Users\CYMR90~1\AppData\Local\Temp\ccEL7hUr.s:25943  .debug_str:000000000001bb00 .LASF2581
C:\Users\CYMR90~1\AppData\Local\Temp\ccEL7hUr.s:24460  .debug_str:0000000000015918 .LASF2582
C:\Users\CYMR90~1\AppData\Local\Temp\ccEL7hUr.s:29375  .debug_str:00000000000295b0 .LASF2583
C:\Users\CYMR90~1\AppData\Local\Temp\ccEL7hUr.s:27575  .debug_str:0000000000022194 .LASF2584
C:\Users\CYMR90~1\AppData\Local\Temp\ccEL7hUr.s:20300  .debug_str:0000000000004d00 .LASF2585
C:\Users\CYMR90~1\AppData\Local\Temp\ccEL7hUr.s:19366  .debug_str:00000000000010aa .LASF2586
C:\Users\CYMR90~1\AppData\Local\Temp\ccEL7hUr.s:29649  .debug_str:000000000002a61c .LASF2587
C:\Users\CYMR90~1\AppData\Local\Temp\ccEL7hUr.s:19308  .debug_str:0000000000000ce0 .LASF2588
C:\Users\CYMR90~1\AppData\Local\Temp\ccEL7hUr.s:21008  .debug_str:0000000000007965 .LASF2589
C:\Users\CYMR90~1\AppData\Local\Temp\ccEL7hUr.s:21478  .debug_str:000000000000984a .LASF2590
C:\Users\CYMR90~1\AppData\Local\Temp\ccEL7hUr.s:23744  .debug_str:0000000000012bca .LASF2591
C:\Users\CYMR90~1\AppData\Local\Temp\ccEL7hUr.s:21534  .debug_str:0000000000009c30 .LASF2592
C:\Users\CYMR90~1\AppData\Local\Temp\ccEL7hUr.s:20094  .debug_str:0000000000003e83 .LASF2593
C:\Users\CYMR90~1\AppData\Local\Temp\ccEL7hUr.s:25953  .debug_str:000000000001bbd0 .LASF2594
C:\Users\CYMR90~1\AppData\Local\Temp\ccEL7hUr.s:25107  .debug_str:00000000000183c4 .LASF2595
C:\Users\CYMR90~1\AppData\Local\Temp\ccEL7hUr.s:26665  .debug_str:000000000001e9f5 .LASF2596
C:\Users\CYMR90~1\AppData\Local\Temp\ccEL7hUr.s:30215  .debug_str:000000000002cae3 .LASF2597
C:\Users\CYMR90~1\AppData\Local\Temp\ccEL7hUr.s:19542  .debug_str:0000000000001bbe .LASF2598
C:\Users\CYMR90~1\AppData\Local\Temp\ccEL7hUr.s:23992  .debug_str:0000000000013c17 .LASF2599
C:\Users\CYMR90~1\AppData\Local\Temp\ccEL7hUr.s:27551  .debug_str:0000000000022014 .LASF2600
C:\Users\CYMR90~1\AppData\Local\Temp\ccEL7hUr.s:29997  .debug_str:000000000002bc2f .LASF2601
C:\Users\CYMR90~1\AppData\Local\Temp\ccEL7hUr.s:23434  .debug_str:00000000000116b6 .LASF2602
C:\Users\CYMR90~1\AppData\Local\Temp\ccEL7hUr.s:22774  .debug_str:000000000000edb3 .LASF2603
C:\Users\CYMR90~1\AppData\Local\Temp\ccEL7hUr.s:26215  .debug_str:000000000001ccde .LASF2604
C:\Users\CYMR90~1\AppData\Local\Temp\ccEL7hUr.s:25489  .debug_str:0000000000019d41 .LASF2605
C:\Users\CYMR90~1\AppData\Local\Temp\ccEL7hUr.s:20346  .debug_str:0000000000004fbe .LASF2606
C:\Users\CYMR90~1\AppData\Local\Temp\ccEL7hUr.s:20264  .debug_str:0000000000004ab1 .LASF2607
C:\Users\CYMR90~1\AppData\Local\Temp\ccEL7hUr.s:30245  .debug_str:000000000002cd40 .LASF2608
C:\Users\CYMR90~1\AppData\Local\Temp\ccEL7hUr.s:26833  .debug_str:000000000001f3eb .LASF2609
C:\Users\CYMR90~1\AppData\Local\Temp\ccEL7hUr.s:21160  .debug_str:0000000000008490 .LASF2610
C:\Users\CYMR90~1\AppData\Local\Temp\ccEL7hUr.s:21148  .debug_str:00000000000083ef .LASF2611
C:\Users\CYMR90~1\AppData\Local\Temp\ccEL7hUr.s:28439  .debug_str:0000000000025972 .LASF2612
C:\Users\CYMR90~1\AppData\Local\Temp\ccEL7hUr.s:23392  .debug_str:0000000000011424 .LASF2613
C:\Users\CYMR90~1\AppData\Local\Temp\ccEL7hUr.s:24602  .debug_str:0000000000016273 .LASF2614
C:\Users\CYMR90~1\AppData\Local\Temp\ccEL7hUr.s:25901  .debug_str:000000000001b8ed .LASF2615
C:\Users\CYMR90~1\AppData\Local\Temp\ccEL7hUr.s:29169  .debug_str:000000000002891c .LASF2616
C:\Users\CYMR90~1\AppData\Local\Temp\ccEL7hUr.s:27429  .debug_str:00000000000218ba .LASF2617
C:\Users\CYMR90~1\AppData\Local\Temp\ccEL7hUr.s:26455  .debug_str:000000000001dc9a .LASF2618
C:\Users\CYMR90~1\AppData\Local\Temp\ccEL7hUr.s:25463  .debug_str:0000000000019bc6 .LASF2619
C:\Users\CYMR90~1\AppData\Local\Temp\ccEL7hUr.s:24560  .debug_str:0000000000015fa8 .LASF2620
C:\Users\CYMR90~1\AppData\Local\Temp\ccEL7hUr.s:23652  .debug_str:000000000001259b .LASF2621
C:\Users\CYMR90~1\AppData\Local\Temp\ccEL7hUr.s:27811  .debug_str:0000000000022f78 .LASF2622
C:\Users\CYMR90~1\AppData\Local\Temp\ccEL7hUr.s:24388  .debug_str:00000000000154f7 .LASF2623
C:\Users\CYMR90~1\AppData\Local\Temp\ccEL7hUr.s:20190  .debug_str:0000000000004532 .LASF2624
C:\Users\CYMR90~1\AppData\Local\Temp\ccEL7hUr.s:19896  .debug_str:00000000000031ab .LASF2625
C:\Users\CYMR90~1\AppData\Local\Temp\ccEL7hUr.s:21408  .debug_str:00000000000093eb .LASF2626
C:\Users\CYMR90~1\AppData\Local\Temp\ccEL7hUr.s:19304  .debug_str:0000000000000ca9 .LASF2627
C:\Users\CYMR90~1\AppData\Local\Temp\ccEL7hUr.s:22566  .debug_str:000000000000e0b1 .LASF2628
C:\Users\CYMR90~1\AppData\Local\Temp\ccEL7hUr.s:21218  .debug_str:0000000000008810 .LASF2629
C:\Users\CYMR90~1\AppData\Local\Temp\ccEL7hUr.s:19592  .debug_str:0000000000001ec4 .LASF2630
C:\Users\CYMR90~1\AppData\Local\Temp\ccEL7hUr.s:22016  .debug_str:000000000000bb91 .LASF2631
C:\Users\CYMR90~1\AppData\Local\Temp\ccEL7hUr.s:19406  .debug_str:00000000000012dc .LASF2632
C:\Users\CYMR90~1\AppData\Local\Temp\ccEL7hUr.s:25591  .debug_str:000000000001a4e1 .LASF2633
C:\Users\CYMR90~1\AppData\Local\Temp\ccEL7hUr.s:25375  .debug_str:000000000001959d .LASF2634
C:\Users\CYMR90~1\AppData\Local\Temp\ccEL7hUr.s:23918  .debug_str:000000000001379a .LASF2635
C:\Users\CYMR90~1\AppData\Local\Temp\ccEL7hUr.s:23148  .debug_str:0000000000010492 .LASF2636
C:\Users\CYMR90~1\AppData\Local\Temp\ccEL7hUr.s:21604  .debug_str:000000000000a08e .LASF2637
C:\Users\CYMR90~1\AppData\Local\Temp\ccEL7hUr.s:25633  .debug_str:000000000001a731 .LASF2638
C:\Users\CYMR90~1\AppData\Local\Temp\ccEL7hUr.s:26265  .debug_str:000000000001d111 .LASF2639
C:\Users\CYMR90~1\AppData\Local\Temp\ccEL7hUr.s:24783  .debug_str:0000000000017001 .LASF2640
C:\Users\CYMR90~1\AppData\Local\Temp\ccEL7hUr.s:28667  .debug_str:0000000000026799 .LASF2641
C:\Users\CYMR90~1\AppData\Local\Temp\ccEL7hUr.s:23862  .debug_str:000000000001335c .LASF2642
C:\Users\CYMR90~1\AppData\Local\Temp\ccEL7hUr.s:19174  .debug_str:0000000000000491 .LASF2643
C:\Users\CYMR90~1\AppData\Local\Temp\ccEL7hUr.s:19656  .debug_str:0000000000002201 .LASF2644
C:\Users\CYMR90~1\AppData\Local\Temp\ccEL7hUr.s:24418  .debug_str:0000000000015680 .LASF2645
C:\Users\CYMR90~1\AppData\Local\Temp\ccEL7hUr.s:19292  .debug_str:0000000000000c08 .LASF2646
C:\Users\CYMR90~1\AppData\Local\Temp\ccEL7hUr.s:26361  .debug_str:000000000001d71d .LASF2647
C:\Users\CYMR90~1\AppData\Local\Temp\ccEL7hUr.s:21726  .debug_str:000000000000a84a .LASF2648
C:\Users\CYMR90~1\AppData\Local\Temp\ccEL7hUr.s:28241  .debug_str:0000000000024b05 .LASF2649
C:\Users\CYMR90~1\AppData\Local\Temp\ccEL7hUr.s:20444  .debug_str:00000000000055a4 .LASF2650
C:\Users\CYMR90~1\AppData\Local\Temp\ccEL7hUr.s:20056  .debug_str:0000000000003c1c .LASF2651
C:\Users\CYMR90~1\AppData\Local\Temp\ccEL7hUr.s:24116  .debug_str:00000000000143dd .LASF2652
C:\Users\CYMR90~1\AppData\Local\Temp\ccEL7hUr.s:22098  .debug_str:000000000000c225 .LASF2653
C:\Users\CYMR90~1\AppData\Local\Temp\ccEL7hUr.s:26821  .debug_str:000000000001f330 .LASF2654
C:\Users\CYMR90~1\AppData\Local\Temp\ccEL7hUr.s:22648  .debug_str:000000000000e572 .LASF2655
C:\Users\CYMR90~1\AppData\Local\Temp\ccEL7hUr.s:26633  .debug_str:000000000001e7dc .LASF2656
C:\Users\CYMR90~1\AppData\Local\Temp\ccEL7hUr.s:30199  .debug_str:000000000002ca0d .LASF2657
C:\Users\CYMR90~1\AppData\Local\Temp\ccEL7hUr.s:20558  .debug_str:0000000000005ca2 .LASF2658
C:\Users\CYMR90~1\AppData\Local\Temp\ccEL7hUr.s:25617  .debug_str:000000000001a626 .LASF2659
C:\Users\CYMR90~1\AppData\Local\Temp\ccEL7hUr.s:21812  .debug_str:000000000000adb1 .LASF2660
C:\Users\CYMR90~1\AppData\Local\Temp\ccEL7hUr.s:28375  .debug_str:0000000000025497 .LASF2661
C:\Users\CYMR90~1\AppData\Local\Temp\ccEL7hUr.s:19844  .debug_str:0000000000002e35 .LASF2662
C:\Users\CYMR90~1\AppData\Local\Temp\ccEL7hUr.s:30085  .debug_str:000000000002c264 .LASF2663
C:\Users\CYMR90~1\AppData\Local\Temp\ccEL7hUr.s:19440  .debug_str:00000000000014dc .LASF2664
C:\Users\CYMR90~1\AppData\Local\Temp\ccEL7hUr.s:24094  .debug_str:0000000000014279 .LASF2665
C:\Users\CYMR90~1\AppData\Local\Temp\ccEL7hUr.s:27591  .debug_str:0000000000022283 .LASF2666
C:\Users\CYMR90~1\AppData\Local\Temp\ccEL7hUr.s:24012  .debug_str:0000000000013d57 .LASF2667
C:\Users\CYMR90~1\AppData\Local\Temp\ccEL7hUr.s:23808  .debug_str:0000000000012fd7 .LASF2668
C:\Users\CYMR90~1\AppData\Local\Temp\ccEL7hUr.s:26627  .debug_str:000000000001e771 .LASF2669
C:\Users\CYMR90~1\AppData\Local\Temp\ccEL7hUr.s:21940  .debug_str:000000000000b6cd .LASF2670
C:\Users\CYMR90~1\AppData\Local\Temp\ccEL7hUr.s:20824  .debug_str:0000000000006d25 .LASF2671
C:\Users\CYMR90~1\AppData\Local\Temp\ccEL7hUr.s:26927  .debug_str:000000000001f964 .LASF2672
C:\Users\CYMR90~1\AppData\Local\Temp\ccEL7hUr.s:29429  .debug_str:00000000000298c5 .LASF2673
C:\Users\CYMR90~1\AppData\Local\Temp\ccEL7hUr.s:24933  .debug_str:0000000000017939 .LASF2674
C:\Users\CYMR90~1\AppData\Local\Temp\ccEL7hUr.s:26279  .debug_str:000000000001d1da .LASF2675
C:\Users\CYMR90~1\AppData\Local\Temp\ccEL7hUr.s:24176  .debug_str:00000000000147c1 .LASF2676
C:\Users\CYMR90~1\AppData\Local\Temp\ccEL7hUr.s:22478  .debug_str:000000000000db2f .LASF2677
C:\Users\CYMR90~1\AppData\Local\Temp\ccEL7hUr.s:25795  .debug_str:000000000001b24f .LASF2678
C:\Users\CYMR90~1\AppData\Local\Temp\ccEL7hUr.s:29807  .debug_str:000000000002af54 .LASF2679
C:\Users\CYMR90~1\AppData\Local\Temp\ccEL7hUr.s:20358  .debug_str:000000000000506e .LASF2680
C:\Users\CYMR90~1\AppData\Local\Temp\ccEL7hUr.s:20980  .debug_str:0000000000007798 .LASF2681
C:\Users\CYMR90~1\AppData\Local\Temp\ccEL7hUr.s:29247  .debug_str:0000000000028dbc .LASF2682
C:\Users\CYMR90~1\AppData\Local\Temp\ccEL7hUr.s:25303  .debug_str:0000000000019146 .LASF2683
C:\Users\CYMR90~1\AppData\Local\Temp\ccEL7hUr.s:28313  .debug_str:0000000000024f80 .LASF2684
C:\Users\CYMR90~1\AppData\Local\Temp\ccEL7hUr.s:22332  .debug_str:000000000000d1af .LASF2685
C:\Users\CYMR90~1\AppData\Local\Temp\ccEL7hUr.s:27485  .debug_str:0000000000021c0e .LASF2686
C:\Users\CYMR90~1\AppData\Local\Temp\ccEL7hUr.s:20958  .debug_str:000000000000761e .LASF2687
C:\Users\CYMR90~1\AppData\Local\Temp\ccEL7hUr.s:23422  .debug_str:0000000000011606 .LASF2688
C:\Users\CYMR90~1\AppData\Local\Temp\ccEL7hUr.s:20036  .debug_str:0000000000003b11 .LASF2689
C:\Users\CYMR90~1\AppData\Local\Temp\ccEL7hUr.s:25259  .debug_str:0000000000018db4 .LASF2690
C:\Users\CYMR90~1\AppData\Local\Temp\ccEL7hUr.s:19224  .debug_str:000000000000078b .LASF2691
C:\Users\CYMR90~1\AppData\Local\Temp\ccEL7hUr.s:27023  .debug_str:000000000001ff96 .LASF2692
C:\Users\CYMR90~1\AppData\Local\Temp\ccEL7hUr.s:29159  .debug_str:000000000002885b .LASF2693
C:\Users\CYMR90~1\AppData\Local\Temp\ccEL7hUr.s:21116  .debug_str:00000000000081a8 .LASF2694
C:\Users\CYMR90~1\AppData\Local\Temp\ccEL7hUr.s:21746  .debug_str:000000000000a974 .LASF2695
C:\Users\CYMR90~1\AppData\Local\Temp\ccEL7hUr.s:27481  .debug_str:0000000000021bd2 .LASF2696
C:\Users\CYMR90~1\AppData\Local\Temp\ccEL7hUr.s:19356  .debug_str:0000000000001015 .LASF2697
C:\Users\CYMR90~1\AppData\Local\Temp\ccEL7hUr.s:22578  .debug_str:000000000000e160 .LASF2698
C:\Users\CYMR90~1\AppData\Local\Temp\ccEL7hUr.s:25763  .debug_str:000000000001b02e .LASF2699
C:\Users\CYMR90~1\AppData\Local\Temp\ccEL7hUr.s:28915  .debug_str:00000000000276e4 .LASF2700
C:\Users\CYMR90~1\AppData\Local\Temp\ccEL7hUr.s:20866  .debug_str:0000000000006ff5 .LASF2701
C:\Users\CYMR90~1\AppData\Local\Temp\ccEL7hUr.s:24066  .debug_str:000000000001406c .LASF2702
C:\Users\CYMR90~1\AppData\Local\Temp\ccEL7hUr.s:20552  .debug_str:0000000000005c52 .LASF2703
C:\Users\CYMR90~1\AppData\Local\Temp\ccEL7hUr.s:25255  .debug_str:0000000000018d8c .LASF2704
C:\Users\CYMR90~1\AppData\Local\Temp\ccEL7hUr.s:29931  .debug_str:000000000002b7f0 .LASF2705
C:\Users\CYMR90~1\AppData\Local\Temp\ccEL7hUr.s:23370  .debug_str:00000000000112cd .LASF2706
C:\Users\CYMR90~1\AppData\Local\Temp\ccEL7hUr.s:28001  .debug_str:0000000000023ac3 .LASF2707
C:\Users\CYMR90~1\AppData\Local\Temp\ccEL7hUr.s:21456  .debug_str:000000000000970b .LASF2708
C:\Users\CYMR90~1\AppData\Local\Temp\ccEL7hUr.s:21824  .debug_str:000000000000af3a .LASF2709
C:\Users\CYMR90~1\AppData\Local\Temp\ccEL7hUr.s:22486  .debug_str:000000000000dbbf .LASF2710
C:\Users\CYMR90~1\AppData\Local\Temp\ccEL7hUr.s:27725  .debug_str:0000000000022a1a .LASF2711
C:\Users\CYMR90~1\AppData\Local\Temp\ccEL7hUr.s:24985  .debug_str:0000000000017c6c .LASF2712
C:\Users\CYMR90~1\AppData\Local\Temp\ccEL7hUr.s:20278  .debug_str:0000000000004b90 .LASF2713
C:\Users\CYMR90~1\AppData\Local\Temp\ccEL7hUr.s:21696  .debug_str:000000000000a657 .LASF2714
C:\Users\CYMR90~1\AppData\Local\Temp\ccEL7hUr.s:26849  .debug_str:000000000001f4e8 .LASF2715
C:\Users\CYMR90~1\AppData\Local\Temp\ccEL7hUr.s:20838  .debug_str:0000000000006e30 .LASF2716
C:\Users\CYMR90~1\AppData\Local\Temp\ccEL7hUr.s:25957  .debug_str:000000000001bc1d .LASF2717
C:\Users\CYMR90~1\AppData\Local\Temp\ccEL7hUr.s:22188  .debug_str:000000000000c7bb .LASF2718
C:\Users\CYMR90~1\AppData\Local\Temp\ccEL7hUr.s:21924  .debug_str:000000000000b59c .LASF2719
C:\Users\CYMR90~1\AppData\Local\Temp\ccEL7hUr.s:27095  .debug_str:00000000000203d2 .LASF2720
C:\Users\CYMR90~1\AppData\Local\Temp\ccEL7hUr.s:21070  .debug_str:0000000000007df7 .LASF2721
C:\Users\CYMR90~1\AppData\Local\Temp\ccEL7hUr.s:26181  .debug_str:000000000001caa3 .LASF2722
C:\Users\CYMR90~1\AppData\Local\Temp\ccEL7hUr.s:20150  .debug_str:00000000000042b4 .LASF2723
C:\Users\CYMR90~1\AppData\Local\Temp\ccEL7hUr.s:27979  .debug_str:000000000002399c .LASF2724
C:\Users\CYMR90~1\AppData\Local\Temp\ccEL7hUr.s:25283  .debug_str:0000000000018f2f .LASF2725
C:\Users\CYMR90~1\AppData\Local\Temp\ccEL7hUr.s:19618  .debug_str:0000000000002007 .LASF2726
C:\Users\CYMR90~1\AppData\Local\Temp\ccEL7hUr.s:19970  .debug_str:000000000000368c .LASF2727
C:\Users\CYMR90~1\AppData\Local\Temp\ccEL7hUr.s:28443  .debug_str:00000000000259b5 .LASF2728
C:\Users\CYMR90~1\AppData\Local\Temp\ccEL7hUr.s:25821  .debug_str:000000000001b3fc .LASF2729
C:\Users\CYMR90~1\AppData\Local\Temp\ccEL7hUr.s:24973  .debug_str:0000000000017bce .LASF2730
C:\Users\CYMR90~1\AppData\Local\Temp\ccEL7hUr.s:30113  .debug_str:000000000002c46f .LASF2731
C:\Users\CYMR90~1\AppData\Local\Temp\ccEL7hUr.s:24064  .debug_str:0000000000014052 .LASF2732
C:\Users\CYMR90~1\AppData\Local\Temp\ccEL7hUr.s:29271  .debug_str:0000000000028f23 .LASF2733
C:\Users\CYMR90~1\AppData\Local\Temp\ccEL7hUr.s:23176  .debug_str:0000000000010639 .LASF2734
C:\Users\CYMR90~1\AppData\Local\Temp\ccEL7hUr.s:25721  .debug_str:000000000001ad23 .LASF2735
C:\Users\CYMR90~1\AppData\Local\Temp\ccEL7hUr.s:19650  .debug_str:00000000000021b6 .LASF2736
C:\Users\CYMR90~1\AppData\Local\Temp\ccEL7hUr.s:24773  .debug_str:0000000000016f7c .LASF2737
C:\Users\CYMR90~1\AppData\Local\Temp\ccEL7hUr.s:24098  .debug_str:00000000000142cc .LASF2738
C:\Users\CYMR90~1\AppData\Local\Temp\ccEL7hUr.s:23874  .debug_str:0000000000013458 .LASF2739
C:\Users\CYMR90~1\AppData\Local\Temp\ccEL7hUr.s:22778  .debug_str:000000000000ede4 .LASF2740
C:\Users\CYMR90~1\AppData\Local\Temp\ccEL7hUr.s:29809  .debug_str:000000000002af6c .LASF2741
C:\Users\CYMR90~1\AppData\Local\Temp\ccEL7hUr.s:21764  .debug_str:000000000000aa8d .LASF2742
C:\Users\CYMR90~1\AppData\Local\Temp\ccEL7hUr.s:24931  .debug_str:0000000000017920 .LASF2743
C:\Users\CYMR90~1\AppData\Local\Temp\ccEL7hUr.s:28121  .debug_str:0000000000024315 .LASF2744
C:\Users\CYMR90~1\AppData\Local\Temp\ccEL7hUr.s:20080  .debug_str:0000000000003dbe .LASF2745
C:\Users\CYMR90~1\AppData\Local\Temp\ccEL7hUr.s:23300  .debug_str:0000000000010ee3 .LASF2746
C:\Users\CYMR90~1\AppData\Local\Temp\ccEL7hUr.s:26433  .debug_str:000000000001db56 .LASF2747
C:\Users\CYMR90~1\AppData\Local\Temp\ccEL7hUr.s:29561  .debug_str:000000000002a090 .LASF2748
C:\Users\CYMR90~1\AppData\Local\Temp\ccEL7hUr.s:21530  .debug_str:0000000000009bfb .LASF2749
C:\Users\CYMR90~1\AppData\Local\Temp\ccEL7hUr.s:24694  .debug_str:00000000000167fc .LASF2750
C:\Users\CYMR90~1\AppData\Local\Temp\ccEL7hUr.s:26669  .debug_str:000000000001ea32 .LASF2751
C:\Users\CYMR90~1\AppData\Local\Temp\ccEL7hUr.s:20130  .debug_str:00000000000040dc .LASF2752
C:\Users\CYMR90~1\AppData\Local\Temp\ccEL7hUr.s:24807  .debug_str:0000000000017161 .LASF2753
C:\Users\CYMR90~1\AppData\Local\Temp\ccEL7hUr.s:29475  .debug_str:0000000000029b9e .LASF2754
C:\Users\CYMR90~1\AppData\Local\Temp\ccEL7hUr.s:22948  .debug_str:000000000000f7ba .LASF2755
C:\Users\CYMR90~1\AppData\Local\Temp\ccEL7hUr.s:27569  .debug_str:000000000002214a .LASF2756
C:\Users\CYMR90~1\AppData\Local\Temp\ccEL7hUr.s:20994  .debug_str:000000000000788f .LASF2757
C:\Users\CYMR90~1\AppData\Local\Temp\ccEL7hUr.s:24190  .debug_str:00000000000148a6 .LASF2758
C:\Users\CYMR90~1\AppData\Local\Temp\ccEL7hUr.s:27279  .debug_str:0000000000020f4c .LASF2759
C:\Users\CYMR90~1\AppData\Local\Temp\ccEL7hUr.s:19256  .debug_str:000000000000096d .LASF2760
C:\Users\CYMR90~1\AppData\Local\Temp\ccEL7hUr.s:22466  .debug_str:000000000000da82 .LASF2761
C:\Users\CYMR90~1\AppData\Local\Temp\ccEL7hUr.s:25651  .debug_str:000000000001a8e8 .LASF2762
C:\Users\CYMR90~1\AppData\Local\Temp\ccEL7hUr.s:28803  .debug_str:0000000000026fad .LASF2763
C:\Users\CYMR90~1\AppData\Local\Temp\ccEL7hUr.s:20758  .debug_str:00000000000068f6 .LASF2764
C:\Users\CYMR90~1\AppData\Local\Temp\ccEL7hUr.s:23970  .debug_str:0000000000013ac6 .LASF2765
C:\Users\CYMR90~1\AppData\Local\Temp\ccEL7hUr.s:27141  .debug_str:000000000002071a .LASF2766
C:\Users\CYMR90~1\AppData\Local\Temp\ccEL7hUr.s:24488  .debug_str:0000000000015aac .LASF2767
C:\Users\CYMR90~1\AppData\Local\Temp\ccEL7hUr.s:29173  .debug_str:000000000002894e .LASF2768
C:\Users\CYMR90~1\AppData\Local\Temp\ccEL7hUr.s:22632  .debug_str:000000000000e49e .LASF2769
C:\Users\CYMR90~1\AppData\Local\Temp\ccEL7hUr.s:20696  .debug_str:0000000000006505 .LASF2770
C:\Users\CYMR90~1\AppData\Local\Temp\ccEL7hUr.s:25387  .debug_str:0000000000019649 .LASF2771
C:\Users\CYMR90~1\AppData\Local\Temp\ccEL7hUr.s:23930  .debug_str:000000000001385a .LASF2772
C:\Users\CYMR90~1\AppData\Local\Temp\ccEL7hUr.s:27083  .debug_str:00000000000202d3 .LASF2773
C:\Users\CYMR90~1\AppData\Local\Temp\ccEL7hUr.s:30287  .debug_str:000000000002cfcc .LASF2774
C:\Users\CYMR90~1\AppData\Local\Temp\ccEL7hUr.s:26049  .debug_str:000000000001c228 .LASF2775
C:\Users\CYMR90~1\AppData\Local\Temp\ccEL7hUr.s:28103  .debug_str:00000000000241c9 .LASF2776
C:\Users\CYMR90~1\AppData\Local\Temp\ccEL7hUr.s:28517  .debug_str:0000000000025e21 .LASF2777
C:\Users\CYMR90~1\AppData\Local\Temp\ccEL7hUr.s:22472  .debug_str:000000000000dad2 .LASF2778
C:\Users\CYMR90~1\AppData\Local\Temp\ccEL7hUr.s:23700  .debug_str:00000000000128ba .LASF2779
C:\Users\CYMR90~1\AppData\Local\Temp\ccEL7hUr.s:26823  .debug_str:000000000001f355 .LASF2780
C:\Users\CYMR90~1\AppData\Local\Temp\ccEL7hUr.s:30065  .debug_str:000000000002c11d .LASF2781
C:\Users\CYMR90~1\AppData\Local\Temp\ccEL7hUr.s:27571  .debug_str:0000000000022165 .LASF2782
C:\Users\CYMR90~1\AppData\Local\Temp\ccEL7hUr.s:29535  .debug_str:0000000000029f0c .LASF2783
C:\Users\CYMR90~1\AppData\Local\Temp\ccEL7hUr.s:20052  .debug_str:0000000000003be3 .LASF2784
C:\Users\CYMR90~1\AppData\Local\Temp\ccEL7hUr.s:24718  .debug_str:00000000000169d4 .LASF2785
C:\Users\CYMR90~1\AppData\Local\Temp\ccEL7hUr.s:29395  .debug_str:0000000000029706 .LASF2786
C:\Users\CYMR90~1\AppData\Local\Temp\ccEL7hUr.s:22862  .debug_str:000000000000f274 .LASF2787
C:\Users\CYMR90~1\AppData\Local\Temp\ccEL7hUr.s:24684  .debug_str:0000000000016798 .LASF2788
C:\Users\CYMR90~1\AppData\Local\Temp\ccEL7hUr.s:29365  .debug_str:00000000000294d6 .LASF2789
C:\Users\CYMR90~1\AppData\Local\Temp\ccEL7hUr.s:22836  .debug_str:000000000000f0f7 .LASF2790
C:\Users\CYMR90~1\AppData\Local\Temp\ccEL7hUr.s:27459  .debug_str:0000000000021a4f .LASF2791
C:\Users\CYMR90~1\AppData\Local\Temp\ccEL7hUr.s:23980  .debug_str:0000000000013b5d .LASF2792
C:\Users\CYMR90~1\AppData\Local\Temp\ccEL7hUr.s:19558  .debug_str:0000000000001c9f .LASF2793
C:\Users\CYMR90~1\AppData\Local\Temp\ccEL7hUr.s:24224  .debug_str:0000000000014a91 .LASF2794
C:\Users\CYMR90~1\AppData\Local\Temp\ccEL7hUr.s:28897  .debug_str:00000000000275d8 .LASF2795
C:\Users\CYMR90~1\AppData\Local\Temp\ccEL7hUr.s:22368  .debug_str:000000000000d44d .LASF2796
C:\Users\CYMR90~1\AppData\Local\Temp\ccEL7hUr.s:26983  .debug_str:000000000001fcdc .LASF2797
C:\Users\CYMR90~1\AppData\Local\Temp\ccEL7hUr.s:21986  .debug_str:000000000000b9f4 .LASF2798
C:\Users\CYMR90~1\AppData\Local\Temp\ccEL7hUr.s:26613  .debug_str:000000000001e66d .LASF2799
C:\Users\CYMR90~1\AppData\Local\Temp\ccEL7hUr.s:20070  .debug_str:0000000000003cf3 .LASF2800
C:\Users\CYMR90~1\AppData\Local\Temp\ccEL7hUr.s:24734  .debug_str:0000000000016b5f .LASF2801
C:\Users\CYMR90~1\AppData\Local\Temp\ccEL7hUr.s:21376  .debug_str:000000000000920c .LASF2802
C:\Users\CYMR90~1\AppData\Local\Temp\ccEL7hUr.s:28077  .debug_str:0000000000023f29 .LASF2803
C:\Users\CYMR90~1\AppData\Local\Temp\ccEL7hUr.s:19568  .debug_str:0000000000001d3d .LASF2804
C:\Users\CYMR90~1\AppData\Local\Temp\ccEL7hUr.s:22800  .debug_str:000000000000eeff .LASF2805
C:\Users\CYMR90~1\AppData\Local\Temp\ccEL7hUr.s:28857  .debug_str:00000000000273c5 .LASF2806
C:\Users\CYMR90~1\AppData\Local\Temp\ccEL7hUr.s:29149  .debug_str:00000000000287c7 .LASF2807
C:\Users\CYMR90~1\AppData\Local\Temp\ccEL7hUr.s:21002  .debug_str:00000000000078fe .LASF2808
C:\Users\CYMR90~1\AppData\Local\Temp\ccEL7hUr.s:24196  .debug_str:00000000000148ed .LASF2809
C:\Users\CYMR90~1\AppData\Local\Temp\ccEL7hUr.s:26869  .debug_str:000000000001f5fe .LASF2810
C:\Users\CYMR90~1\AppData\Local\Temp\ccEL7hUr.s:19344  .debug_str:0000000000000f7b .LASF2811
C:\Users\CYMR90~1\AppData\Local\Temp\ccEL7hUr.s:22562  .debug_str:000000000000e085 .LASF2812
C:\Users\CYMR90~1\AppData\Local\Temp\ccEL7hUr.s:21094  .debug_str:0000000000007fa7 .LASF2813
C:\Users\CYMR90~1\AppData\Local\Temp\ccEL7hUr.s:25033  .debug_str:0000000000017f6d .LASF2814
C:\Users\CYMR90~1\AppData\Local\Temp\ccEL7hUr.s:29719  .debug_str:000000000002aa4a .LASF2815
C:\Users\CYMR90~1\AppData\Local\Temp\ccEL7hUr.s:23174  .debug_str:0000000000010622 .LASF2816
C:\Users\CYMR90~1\AppData\Local\Temp\ccEL7hUr.s:27809  .debug_str:0000000000022f61 .LASF2817
C:\Users\CYMR90~1\AppData\Local\Temp\ccEL7hUr.s:28409  .debug_str:0000000000025724 .LASF2818
C:\Users\CYMR90~1\AppData\Local\Temp\ccEL7hUr.s:25911  .debug_str:000000000001b955 .LASF2819
C:\Users\CYMR90~1\AppData\Local\Temp\ccEL7hUr.s:23356  .debug_str:00000000000111ef .LASF2820
C:\Users\CYMR90~1\AppData\Local\Temp\ccEL7hUr.s:29585  .debug_str:000000000002a1d0 .LASF2821
C:\Users\CYMR90~1\AppData\Local\Temp\ccEL7hUr.s:25543  .debug_str:000000000001a067 .LASF2822
C:\Users\CYMR90~1\AppData\Local\Temp\ccEL7hUr.s:21192  .debug_str:0000000000008684 .LASF2823
C:\Users\CYMR90~1\AppData\Local\Temp\ccEL7hUr.s:22164  .debug_str:000000000000c62a .LASF2824
C:\Users\CYMR90~1\AppData\Local\Temp\ccEL7hUr.s:29601  .debug_str:000000000002a2ef .LASF2825
C:\Users\CYMR90~1\AppData\Local\Temp\ccEL7hUr.s:19980  .debug_str:000000000000373f .LASF2826
C:\Users\CYMR90~1\AppData\Local\Temp\ccEL7hUr.s:24873  .debug_str:0000000000017545 .LASF2827
C:\Users\CYMR90~1\AppData\Local\Temp\ccEL7hUr.s:20336  .debug_str:0000000000004f29 .LASF2828
C:\Users\CYMR90~1\AppData\Local\Temp\ccEL7hUr.s:23694  .debug_str:0000000000012857 .LASF2829
C:\Users\CYMR90~1\AppData\Local\Temp\ccEL7hUr.s:20380  .debug_str:00000000000051c3 .LASF2830
C:\Users\CYMR90~1\AppData\Local\Temp\ccEL7hUr.s:27151  .debug_str:0000000000020792 .LASF2831
C:\Users\CYMR90~1\AppData\Local\Temp\ccEL7hUr.s:23966  .debug_str:0000000000013a8a .LASF2832
C:\Users\CYMR90~1\AppData\Local\Temp\ccEL7hUr.s:22768  .debug_str:000000000000ed48 .LASF2833
C:\Users\CYMR90~1\AppData\Local\Temp\ccEL7hUr.s:21816  .debug_str:000000000000ae06 .LASF2834
C:\Users\CYMR90~1\AppData\Local\Temp\ccEL7hUr.s:19404  .debug_str:00000000000012be .LASF2835
C:\Users\CYMR90~1\AppData\Local\Temp\ccEL7hUr.s:22200  .debug_str:000000000000c87d .LASF2836
C:\Users\CYMR90~1\AppData\Local\Temp\ccEL7hUr.s:23974  .debug_str:0000000000013b01 .LASF2837
C:\Users\CYMR90~1\AppData\Local\Temp\ccEL7hUr.s:27147  .debug_str:000000000002076a .LASF2838
C:\Users\CYMR90~1\AppData\Local\Temp\ccEL7hUr.s:19130  .debug_str:000000000000020a .LASF2839
C:\Users\CYMR90~1\AppData\Local\Temp\ccEL7hUr.s:22330  .debug_str:000000000000d19c .LASF2840
C:\Users\CYMR90~1\AppData\Local\Temp\ccEL7hUr.s:25493  .debug_str:0000000000019d97 .LASF2841
C:\Users\CYMR90~1\AppData\Local\Temp\ccEL7hUr.s:19320  .debug_str:0000000000000d8e .LASF2842
C:\Users\CYMR90~1\AppData\Local\Temp\ccEL7hUr.s:28921  .debug_str:000000000002773c .LASF2843
C:\Users\CYMR90~1\AppData\Local\Temp\ccEL7hUr.s:27305  .debug_str:000000000002108c .LASF2844
C:\Users\CYMR90~1\AppData\Local\Temp\ccEL7hUr.s:25729  .debug_str:000000000001ada7 .LASF2845
C:\Users\CYMR90~1\AppData\Local\Temp\ccEL7hUr.s:30121  .debug_str:000000000002c4f2 .LASF2846
C:\Users\CYMR90~1\AppData\Local\Temp\ccEL7hUr.s:19434  .debug_str:00000000000014a6 .LASF2847
C:\Users\CYMR90~1\AppData\Local\Temp\ccEL7hUr.s:24108  .debug_str:000000000001436d .LASF2848
C:\Users\CYMR90~1\AppData\Local\Temp\ccEL7hUr.s:28771  .debug_str:0000000000026def .LASF2849
C:\Users\CYMR90~1\AppData\Local\Temp\ccEL7hUr.s:29801  .debug_str:000000000002aef2 .LASF2850
C:\Users\CYMR90~1\AppData\Local\Temp\ccEL7hUr.s:26053  .debug_str:000000000001c256 .LASF2851
C:\Users\CYMR90~1\AppData\Local\Temp\ccEL7hUr.s:22376  .debug_str:000000000000d4a5 .LASF2852
C:\Users\CYMR90~1\AppData\Local\Temp\ccEL7hUr.s:27605  .debug_str:000000000002234b .LASF2853
C:\Users\CYMR90~1\AppData\Local\Temp\ccEL7hUr.s:19550  .debug_str:0000000000001c2b .LASF2854
C:\Users\CYMR90~1\AppData\Local\Temp\ccEL7hUr.s:22784  .debug_str:000000000000ee2f .LASF2855
C:\Users\CYMR90~1\AppData\Local\Temp\ccEL7hUr.s:25933  .debug_str:000000000001ba79 .LASF2856
C:\Users\CYMR90~1\AppData\Local\Temp\ccEL7hUr.s:29043  .debug_str:000000000002800f .LASF2857
C:\Users\CYMR90~1\AppData\Local\Temp\ccEL7hUr.s:22708  .debug_str:000000000000e96c .LASF2858
C:\Users\CYMR90~1\AppData\Local\Temp\ccEL7hUr.s:24184  .debug_str:0000000000014856 .LASF2859
C:\Users\CYMR90~1\AppData\Local\Temp\ccEL7hUr.s:24218  .debug_str:0000000000014a4c .LASF2860
C:\Users\CYMR90~1\AppData\Local\Temp\ccEL7hUr.s:19336  .debug_str:0000000000000f1c .LASF2861
C:\Users\CYMR90~1\AppData\Local\Temp\ccEL7hUr.s:19476  .debug_str:00000000000017ae .LASF2862
C:\Users\CYMR90~1\AppData\Local\Temp\ccEL7hUr.s:24742  .debug_str:0000000000016bd9 .LASF2863
C:\Users\CYMR90~1\AppData\Local\Temp\ccEL7hUr.s:27603  .debug_str:0000000000022336 .LASF2864
C:\Users\CYMR90~1\AppData\Local\Temp\ccEL7hUr.s:22882  .debug_str:000000000000f3c4 .LASF2865
C:\Users\CYMR90~1\AppData\Local\Temp\ccEL7hUr.s:27507  .debug_str:0000000000021da9 .LASF2866
C:\Users\CYMR90~1\AppData\Local\Temp\ccEL7hUr.s:27671  .debug_str:000000000002270f .LASF2867
C:\Users\CYMR90~1\AppData\Local\Temp\ccEL7hUr.s:25643  .debug_str:000000000001a882 .LASF2868
C:\Users\CYMR90~1\AppData\Local\Temp\ccEL7hUr.s:24901  .debug_str:00000000000176fd .LASF2869
C:\Users\CYMR90~1\AppData\Local\Temp\ccEL7hUr.s:22652  .debug_str:000000000000e5b1 .LASF2870
C:\Users\CYMR90~1\AppData\Local\Temp\ccEL7hUr.s:23820  .debug_str:0000000000013096 .LASF2871
C:\Users\CYMR90~1\AppData\Local\Temp\ccEL7hUr.s:23782  .debug_str:0000000000012e2a .LASF2872
C:\Users\CYMR90~1\AppData\Local\Temp\ccEL7hUr.s:19888  .debug_str:0000000000003118 .LASF2873
C:\Users\CYMR90~1\AppData\Local\Temp\ccEL7hUr.s:19770  .debug_str:000000000000295e .LASF2874
C:\Users\CYMR90~1\AppData\Local\Temp\ccEL7hUr.s:27267  .debug_str:0000000000020ea6 .LASF2875
C:\Users\CYMR90~1\AppData\Local\Temp\ccEL7hUr.s:28245  .debug_str:0000000000024b56 .LASF2876
C:\Users\CYMR90~1\AppData\Local\Temp\ccEL7hUr.s:27933  .debug_str:00000000000236bb .LASF2877
C:\Users\CYMR90~1\AppData\Local\Temp\ccEL7hUr.s:21876  .debug_str:000000000000b25b .LASF2878
C:\Users\CYMR90~1\AppData\Local\Temp\ccEL7hUr.s:25035  .debug_str:0000000000017f84 .LASF2879
C:\Users\CYMR90~1\AppData\Local\Temp\ccEL7hUr.s:28223  .debug_str:00000000000249d2 .LASF2880
C:\Users\CYMR90~1\AppData\Local\Temp\ccEL7hUr.s:20182  .debug_str:00000000000044b0 .LASF2881
C:\Users\CYMR90~1\AppData\Local\Temp\ccEL7hUr.s:22244  .debug_str:000000000000cc96 .LASF2882
C:\Users\CYMR90~1\AppData\Local\Temp\ccEL7hUr.s:26453  .debug_str:000000000001dc88 .LASF2883
C:\Users\CYMR90~1\AppData\Local\Temp\ccEL7hUr.s:30219  .debug_str:000000000002cb2d .LASF2884
C:\Users\CYMR90~1\AppData\Local\Temp\ccEL7hUr.s:21642  .debug_str:000000000000a2ed .LASF2885
C:\Users\CYMR90~1\AppData\Local\Temp\ccEL7hUr.s:24813  .debug_str:00000000000171be .LASF2886
C:\Users\CYMR90~1\AppData\Local\Temp\ccEL7hUr.s:27997  .debug_str:0000000000023a91 .LASF2887
C:\Users\CYMR90~1\AppData\Local\Temp\ccEL7hUr.s:26185  .debug_str:000000000001cad9 .LASF2888
C:\Users\CYMR90~1\AppData\Local\Temp\ccEL7hUr.s:19616  .debug_str:0000000000001ff3 .LASF2889
C:\Users\CYMR90~1\AppData\Local\Temp\ccEL7hUr.s:24280  .debug_str:0000000000014e52 .LASF2890
C:\Users\CYMR90~1\AppData\Local\Temp\ccEL7hUr.s:28959  .debug_str:0000000000027a22 .LASF2891
C:\Users\CYMR90~1\AppData\Local\Temp\ccEL7hUr.s:22426  .debug_str:000000000000d868 .LASF2892
C:\Users\CYMR90~1\AppData\Local\Temp\ccEL7hUr.s:27049  .debug_str:0000000000020121 .LASF2893
C:\Users\CYMR90~1\AppData\Local\Temp\ccEL7hUr.s:29625  .debug_str:000000000002a4b2 .LASF2894
C:\Users\CYMR90~1\AppData\Local\Temp\ccEL7hUr.s:29837  .debug_str:000000000002b165 .LASF2895
C:\Users\CYMR90~1\AppData\Local\Temp\ccEL7hUr.s:25679  .debug_str:000000000001aa81 .LASF2896
C:\Users\CYMR90~1\AppData\Local\Temp\ccEL7hUr.s:20900  .debug_str:0000000000007261 .LASF2897
C:\Users\CYMR90~1\AppData\Local\Temp\ccEL7hUr.s:21200  .debug_str:00000000000086f0 .LASF2898
C:\Users\CYMR90~1\AppData\Local\Temp\ccEL7hUr.s:25095  .debug_str:00000000000182f1 .LASF2899
C:\Users\CYMR90~1\AppData\Local\Temp\ccEL7hUr.s:29935  .debug_str:000000000002b81d .LASF2900
C:\Users\CYMR90~1\AppData\Local\Temp\ccEL7hUr.s:23564  .debug_str:0000000000011fea .LASF2901
C:\Users\CYMR90~1\AppData\Local\Temp\ccEL7hUr.s:24374  .debug_str:000000000001541b .LASF2902
C:\Users\CYMR90~1\AppData\Local\Temp\ccEL7hUr.s:20608  .debug_str:0000000000005f8d .LASF2903
C:\Users\CYMR90~1\AppData\Local\Temp\ccEL7hUr.s:27293  .debug_str:000000000002100a .LASF2904
C:\Users\CYMR90~1\AppData\Local\Temp\ccEL7hUr.s:28655  .debug_str:00000000000266db .LASF2905
C:\Users\CYMR90~1\AppData\Local\Temp\ccEL7hUr.s:30035  .debug_str:000000000002bf10 .LASF2906
C:\Users\CYMR90~1\AppData\Local\Temp\ccEL7hUr.s:20140  .debug_str:000000000000420e .LASF2907
C:\Users\CYMR90~1\AppData\Local\Temp\ccEL7hUr.s:23828  .debug_str:0000000000013124 .LASF2908
C:\Users\CYMR90~1\AppData\Local\Temp\ccEL7hUr.s:29153  .debug_str:00000000000287f5 .LASF2909
C:\Users\CYMR90~1\AppData\Local\Temp\ccEL7hUr.s:27115  .debug_str:0000000000020517 .LASF2910
C:\Users\CYMR90~1\AppData\Local\Temp\ccEL7hUr.s:26011  .debug_str:000000000001bf94 .LASF2911
C:\Users\CYMR90~1\AppData\Local\Temp\ccEL7hUr.s:25589  .debug_str:000000000001a4a3 .LASF2912
C:\Users\CYMR90~1\AppData\Local\Temp\ccEL7hUr.s:25511  .debug_str:0000000000019e76 .LASF2913
C:\Users\CYMR90~1\AppData\Local\Temp\ccEL7hUr.s:27709  .debug_str:0000000000022937 .LASF2914
C:\Users\CYMR90~1\AppData\Local\Temp\ccEL7hUr.s:26005  .debug_str:000000000001bf41 .LASF2915
C:\Users\CYMR90~1\AppData\Local\Temp\ccEL7hUr.s:25157  .debug_str:00000000000186a8 .LASF2916
C:\Users\CYMR90~1\AppData\Local\Temp\ccEL7hUr.s:26529  .debug_str:000000000001e1c5 .LASF2917
C:\Users\CYMR90~1\AppData\Local\Temp\ccEL7hUr.s:23760  .debug_str:0000000000012cbe .LASF2918
C:\Users\CYMR90~1\AppData\Local\Temp\ccEL7hUr.s:22510  .debug_str:000000000000dcfb .LASF2919
C:\Users\CYMR90~1\AppData\Local\Temp\ccEL7hUr.s:21636  .debug_str:000000000000a28a .LASF2920
C:\Users\CYMR90~1\AppData\Local\Temp\ccEL7hUr.s:20744  .debug_str:0000000000006824 .LASF2921
C:\Users\CYMR90~1\AppData\Local\Temp\ccEL7hUr.s:19892  .debug_str:000000000000314e .LASF2922
C:\Users\CYMR90~1\AppData\Local\Temp\ccEL7hUr.s:30261  .debug_str:000000000002ce32 .LASF2923
C:\Users\CYMR90~1\AppData\Local\Temp\ccEL7hUr.s:29399  .debug_str:0000000000029737 .LASF2924
C:\Users\CYMR90~1\AppData\Local\Temp\ccEL7hUr.s:28155  .debug_str:000000000002454c .LASF2925
C:\Users\CYMR90~1\AppData\Local\Temp\ccEL7hUr.s:20106  .debug_str:0000000000003f94 .LASF2926
C:\Users\CYMR90~1\AppData\Local\Temp\ccEL7hUr.s:23342  .debug_str:0000000000011121 .LASF2927
C:\Users\CYMR90~1\AppData\Local\Temp\ccEL7hUr.s:26471  .debug_str:000000000001de32 .LASF2928
C:\Users\CYMR90~1\AppData\Local\Temp\ccEL7hUr.s:29689  .debug_str:000000000002a860 .LASF2929
C:\Users\CYMR90~1\AppData\Local\Temp\ccEL7hUr.s:21654  .debug_str:000000000000a3d6 .LASF2930
C:\Users\CYMR90~1\AppData\Local\Temp\ccEL7hUr.s:27789  .debug_str:0000000000022e43 .LASF2931
C:\Users\CYMR90~1\AppData\Local\Temp\ccEL7hUr.s:30221  .debug_str:000000000002cb3f .LASF2932
C:\Users\CYMR90~1\AppData\Local\Temp\ccEL7hUr.s:23590  .debug_str:000000000001219e .LASF2933
C:\Users\CYMR90~1\AppData\Local\Temp\ccEL7hUr.s:24432  .debug_str:000000000001575a .LASF2934
C:\Users\CYMR90~1\AppData\Local\Temp\ccEL7hUr.s:19700  .debug_str:00000000000024b2 .LASF2935
C:\Users\CYMR90~1\AppData\Local\Temp\ccEL7hUr.s:26257  .debug_str:000000000001d0a7 .LASF2936
C:\Users\CYMR90~1\AppData\Local\Temp\ccEL7hUr.s:25647  .debug_str:000000000001a8b0 .LASF2937
C:\Users\CYMR90~1\AppData\Local\Temp\ccEL7hUr.s:25685  .debug_str:000000000001ab0c .LASF2938
C:\Users\CYMR90~1\AppData\Local\Temp\ccEL7hUr.s:24652  .debug_str:000000000001651e .LASF2939
C:\Users\CYMR90~1\AppData\Local\Temp\ccEL7hUr.s:21942  .debug_str:000000000000b6fb .LASF2940
C:\Users\CYMR90~1\AppData\Local\Temp\ccEL7hUr.s:24058  .debug_str:0000000000014005 .LASF2941
C:\Users\CYMR90~1\AppData\Local\Temp\ccEL7hUr.s:28573  .debug_str:00000000000261a0 .LASF2942
C:\Users\CYMR90~1\AppData\Local\Temp\ccEL7hUr.s:25843  .debug_str:000000000001b545 .LASF2943
C:\Users\CYMR90~1\AppData\Local\Temp\ccEL7hUr.s:20592  .debug_str:0000000000005e9e .LASF2944
C:\Users\CYMR90~1\AppData\Local\Temp\ccEL7hUr.s:22508  .debug_str:000000000000dcd9 .LASF2945
C:\Users\CYMR90~1\AppData\Local\Temp\ccEL7hUr.s:24356  .debug_str:0000000000015325 .LASF2946
C:\Users\CYMR90~1\AppData\Local\Temp\ccEL7hUr.s:28931  .debug_str:00000000000277ef .LASF2947
C:\Users\CYMR90~1\AppData\Local\Temp\ccEL7hUr.s:22076  .debug_str:000000000000c0e2 .LASF2948
C:\Users\CYMR90~1\AppData\Local\Temp\ccEL7hUr.s:22634  .debug_str:000000000000e4b7 .LASF2949
C:\Users\CYMR90~1\AppData\Local\Temp\ccEL7hUr.s:26575  .debug_str:000000000001e456 .LASF2950
C:\Users\CYMR90~1\AppData\Local\Temp\ccEL7hUr.s:20356  .debug_str:0000000000005058 .LASF2951
C:\Users\CYMR90~1\AppData\Local\Temp\ccEL7hUr.s:29795  .debug_str:000000000002ae99 .LASF2952
C:\Users\CYMR90~1\AppData\Local\Temp\ccEL7hUr.s:28011  .debug_str:0000000000023b53 .LASF2953
C:\Users\CYMR90~1\AppData\Local\Temp\ccEL7hUr.s:28805  .debug_str:0000000000026fc4 .LASF2954
C:\Users\CYMR90~1\AppData\Local\Temp\ccEL7hUr.s:20786  .debug_str:0000000000006aa5 .LASF2955
C:\Users\CYMR90~1\AppData\Local\Temp\ccEL7hUr.s:30291  .debug_str:000000000002d000 .LASF2956
C:\Users\CYMR90~1\AppData\Local\Temp\ccEL7hUr.s:19866  .debug_str:0000000000002f95 .LASF2957
C:\Users\CYMR90~1\AppData\Local\Temp\ccEL7hUr.s:19594  .debug_str:0000000000001ee6 .LASF2958
C:\Users\CYMR90~1\AppData\Local\Temp\ccEL7hUr.s:26603  .debug_str:000000000001e601 .LASF2959
C:\Users\CYMR90~1\AppData\Local\Temp\ccEL7hUr.s:19842  .debug_str:0000000000002e1e .LASF2960
C:\Users\CYMR90~1\AppData\Local\Temp\ccEL7hUr.s:19150  .debug_str:0000000000000347 .LASF2961
C:\Users\CYMR90~1\AppData\Local\Temp\ccEL7hUr.s:30081  .debug_str:000000000002c1ef .LASF2962
C:\Users\CYMR90~1\AppData\Local\Temp\ccEL7hUr.s:28709  .debug_str:0000000000026a14 .LASF2963
C:\Users\CYMR90~1\AppData\Local\Temp\ccEL7hUr.s:20578  .debug_str:0000000000005dd9 .LASF2964
C:\Users\CYMR90~1\AppData\Local\Temp\ccEL7hUr.s:29767  .debug_str:000000000002ad11 .LASF2965
C:\Users\CYMR90~1\AppData\Local\Temp\ccEL7hUr.s:26171  .debug_str:000000000001ca18 .LASF2966
C:\Users\CYMR90~1\AppData\Local\Temp\ccEL7hUr.s:27165  .debug_str:000000000002088e .LASF2967
C:\Users\CYMR90~1\AppData\Local\Temp\ccEL7hUr.s:23006  .debug_str:000000000000fbc2 .LASF2968
C:\Users\CYMR90~1\AppData\Local\Temp\ccEL7hUr.s:22148  .debug_str:000000000000c528 .LASF2969
C:\Users\CYMR90~1\AppData\Local\Temp\ccEL7hUr.s:25899  .debug_str:000000000001b8d1 .LASF2970
C:\Users\CYMR90~1\AppData\Local\Temp\ccEL7hUr.s:29113  .debug_str:000000000002851e .LASF2971
C:\Users\CYMR90~1\AppData\Local\Temp\ccEL7hUr.s:27563  .debug_str:00000000000220d5 .LASF2972
C:\Users\CYMR90~1\AppData\Local\Temp\ccEL7hUr.s:25891  .debug_str:000000000001b835 .LASF2973
C:\Users\CYMR90~1\AppData\Local\Temp\ccEL7hUr.s:20192  .debug_str:000000000000454e .LASF2974
C:\Users\CYMR90~1\AppData\Local\Temp\ccEL7hUr.s:26219  .debug_str:000000000001cd10 .LASF2975
C:\Users\CYMR90~1\AppData\Local\Temp\ccEL7hUr.s:29363  .debug_str:00000000000294b5 .LASF2976
C:\Users\CYMR90~1\AppData\Local\Temp\ccEL7hUr.s:28507  .debug_str:0000000000025d95 .LASF2977
C:\Users\CYMR90~1\AppData\Local\Temp\ccEL7hUr.s:26351  .debug_str:000000000001d619 .LASF2978
C:\Users\CYMR90~1\AppData\Local\Temp\ccEL7hUr.s:22450  .debug_str:000000000000d9aa .LASF2979
C:\Users\CYMR90~1\AppData\Local\Temp\ccEL7hUr.s:29859  .debug_str:000000000002b2f3 .LASF2980
C:\Users\CYMR90~1\AppData\Local\Temp\ccEL7hUr.s:25029  .debug_str:0000000000017f1b .LASF2981
C:\Users\CYMR90~1\AppData\Local\Temp\ccEL7hUr.s:20066  .debug_str:0000000000003cb8 .LASF2982
C:\Users\CYMR90~1\AppData\Local\Temp\ccEL7hUr.s:29899  .debug_str:000000000002b581 .LASF2983
C:\Users\CYMR90~1\AppData\Local\Temp\ccEL7hUr.s:22706  .debug_str:000000000000e94a .LASF2984
C:\Users\CYMR90~1\AppData\Local\Temp\ccEL7hUr.s:22826  .debug_str:000000000000f050 .LASF2985
C:\Users\CYMR90~1\AppData\Local\Temp\ccEL7hUr.s:24262  .debug_str:0000000000014cfb .LASF2986
C:\Users\CYMR90~1\AppData\Local\Temp\ccEL7hUr.s:24168  .debug_str:000000000001471f .LASF2987
C:\Users\CYMR90~1\AppData\Local\Temp\ccEL7hUr.s:22852  .debug_str:000000000000f1cf .LASF2988
C:\Users\CYMR90~1\AppData\Local\Temp\ccEL7hUr.s:22534  .debug_str:000000000000de76 .LASF2989
C:\Users\CYMR90~1\AppData\Local\Temp\ccEL7hUr.s:27949  .debug_str:00000000000237e0 .LASF2990
C:\Users\CYMR90~1\AppData\Local\Temp\ccEL7hUr.s:24847  .debug_str:00000000000173d3 .LASF2991
C:\Users\CYMR90~1\AppData\Local\Temp\ccEL7hUr.s:23962  .debug_str:0000000000013a40 .LASF2992
C:\Users\CYMR90~1\AppData\Local\Temp\ccEL7hUr.s:21268  .debug_str:0000000000008b68 .LASF2993
C:\Users\CYMR90~1\AppData\Local\Temp\ccEL7hUr.s:29611  .debug_str:000000000002a3a7 .LASF2994
C:\Users\CYMR90~1\AppData\Local\Temp\ccEL7hUr.s:30073  .debug_str:000000000002c179 .LASF2995
C:\Users\CYMR90~1\AppData\Local\Temp\ccEL7hUr.s:24348  .debug_str:0000000000015295 .LASF2996
C:\Users\CYMR90~1\AppData\Local\Temp\ccEL7hUr.s:20426  .debug_str:000000000000547b .LASF2997
C:\Users\CYMR90~1\AppData\Local\Temp\ccEL7hUr.s:24526  .debug_str:0000000000015d4f .LASF2998
C:\Users\CYMR90~1\AppData\Local\Temp\ccEL7hUr.s:30037  .debug_str:000000000002bf30 .LASF2999
C:\Users\CYMR90~1\AppData\Local\Temp\ccEL7hUr.s:23194  .debug_str:0000000000010743 .LASF3000
C:\Users\CYMR90~1\AppData\Local\Temp\ccEL7hUr.s:21674  .debug_str:000000000000a527 .LASF3001
C:\Users\CYMR90~1\AppData\Local\Temp\ccEL7hUr.s:19246  .debug_str:00000000000008d2 .LASF3002
C:\Users\CYMR90~1\AppData\Local\Temp\ccEL7hUr.s:27159  .debug_str:000000000002080f .LASF3003
C:\Users\CYMR90~1\AppData\Local\Temp\ccEL7hUr.s:30143  .debug_str:000000000002c605 .LASF3004
C:\Users\CYMR90~1\AppData\Local\Temp\ccEL7hUr.s:28073  .debug_str:0000000000023ede .LASF3005
C:\Users\CYMR90~1\AppData\Local\Temp\ccEL7hUr.s:27469  .debug_str:0000000000021b13 .LASF3006
C:\Users\CYMR90~1\AppData\Local\Temp\ccEL7hUr.s:20386  .debug_str:000000000000521b .LASF3007
C:\Users\CYMR90~1\AppData\Local\Temp\ccEL7hUr.s:30267  .debug_str:000000000002ce80 .LASF3008
C:\Users\CYMR90~1\AppData\Local\Temp\ccEL7hUr.s:22726  .debug_str:000000000000ea78 .LASF3009
C:\Users\CYMR90~1\AppData\Local\Temp\ccEL7hUr.s:26023  .debug_str:000000000001c062 .LASF3010
C:\Users\CYMR90~1\AppData\Local\Temp\ccEL7hUr.s:27715  .debug_str:00000000000229ab .LASF3011
C:\Users\CYMR90~1\AppData\Local\Temp\ccEL7hUr.s:23318  .debug_str:0000000000010fd6 .LASF3012
C:\Users\CYMR90~1\AppData\Local\Temp\ccEL7hUr.s:22448  .debug_str:000000000000d991 .LASF3013
C:\Users\CYMR90~1\AppData\Local\Temp\ccEL7hUr.s:27149  .debug_str:000000000002077d .LASF3014
C:\Users\CYMR90~1\AppData\Local\Temp\ccEL7hUr.s:29471  .debug_str:0000000000029b6d .LASF3015
C:\Users\CYMR90~1\AppData\Local\Temp\ccEL7hUr.s:22100  .debug_str:000000000000c253 .LASF3016
C:\Users\CYMR90~1\AppData\Local\Temp\ccEL7hUr.s:20886  .debug_str:000000000000716b .LASF3017
C:\Users\CYMR90~1\AppData\Local\Temp\ccEL7hUr.s:27317  .debug_str:000000000002113f .LASF3018
C:\Users\CYMR90~1\AppData\Local\Temp\ccEL7hUr.s:29499  .debug_str:0000000000029cf6 .LASF3019
C:\Users\CYMR90~1\AppData\Local\Temp\ccEL7hUr.s:19850  .debug_str:0000000000002ea0 .LASF3020
C:\Users\CYMR90~1\AppData\Local\Temp\ccEL7hUr.s:22162  .debug_str:000000000000c616 .LASF3021
C:\Users\CYMR90~1\AppData\Local\Temp\ccEL7hUr.s:22658  .debug_str:000000000000e613 .LASF3022
C:\Users\CYMR90~1\AppData\Local\Temp\ccEL7hUr.s:29889  .debug_str:000000000002b4f5 .LASF3023
C:\Users\CYMR90~1\AppData\Local\Temp\ccEL7hUr.s:20856  .debug_str:0000000000006f29 .LASF3024
C:\Users\CYMR90~1\AppData\Local\Temp\ccEL7hUr.s:27045  .debug_str:00000000000200e2 .LASF3025
C:\Users\CYMR90~1\AppData\Local\Temp\ccEL7hUr.s:23036  .debug_str:000000000000fd98 .LASF3026
C:\Users\CYMR90~1\AppData\Local\Temp\ccEL7hUr.s:24859  .debug_str:0000000000017493 .LASF3027
C:\Users\CYMR90~1\AppData\Local\Temp\ccEL7hUr.s:21492  .debug_str:0000000000009975 .LASF3028
C:\Users\CYMR90~1\AppData\Local\Temp\ccEL7hUr.s:21596  .debug_str:000000000000a018 .LASF3029
C:\Users\CYMR90~1\AppData\Local\Temp\ccEL7hUr.s:22612  .debug_str:000000000000e345 .LASF3030
C:\Users\CYMR90~1\AppData\Local\Temp\ccEL7hUr.s:21704  .debug_str:000000000000a6d2 .LASF3031
C:\Users\CYMR90~1\AppData\Local\Temp\ccEL7hUr.s:28291  .debug_str:0000000000024e44 .LASF3032
C:\Users\CYMR90~1\AppData\Local\Temp\ccEL7hUr.s:22780  .debug_str:000000000000edff .LASF3033
C:\Users\CYMR90~1\AppData\Local\Temp\ccEL7hUr.s:22582  .debug_str:000000000000e1a6 .LASF3034
C:\Users\CYMR90~1\AppData\Local\Temp\ccEL7hUr.s:29039  .debug_str:0000000000027fc2 .LASF3035
C:\Users\CYMR90~1\AppData\Local\Temp\ccEL7hUr.s:21236  .debug_str:0000000000008959 .LASF3036
C:\Users\CYMR90~1\AppData\Local\Temp\ccEL7hUr.s:29965  .debug_str:000000000002ba14 .LASF3037
C:\Users\CYMR90~1\AppData\Local\Temp\ccEL7hUr.s:29133  .debug_str:000000000002869d .LASF3038
C:\Users\CYMR90~1\AppData\Local\Temp\ccEL7hUr.s:19138  .debug_str:000000000000025a .LASF3039
C:\Users\CYMR90~1\AppData\Local\Temp\ccEL7hUr.s:20114  .debug_str:0000000000004016 .LASF3040
C:\Users\CYMR90~1\AppData\Local\Temp\ccEL7hUr.s:26077  .debug_str:000000000001c3b9 .LASF3041
C:\Users\CYMR90~1\AppData\Local\Temp\ccEL7hUr.s:25881  .debug_str:000000000001b799 .LASF3042
C:\Users\CYMR90~1\AppData\Local\Temp\ccEL7hUr.s:28305  .debug_str:0000000000024f0a .LASF3043
C:\Users\CYMR90~1\AppData\Local\Temp\ccEL7hUr.s:22454  .debug_str:000000000000d9ee .LASF3044
C:\Users\CYMR90~1\AppData\Local\Temp\ccEL7hUr.s:25499  .debug_str:0000000000019de3 .LASF3045
C:\Users\CYMR90~1\AppData\Local\Temp\ccEL7hUr.s:19376  .debug_str:0000000000001169 .LASF3046
C:\Users\CYMR90~1\AppData\Local\Temp\ccEL7hUr.s:22824  .debug_str:000000000000f036 .LASF3047
C:\Users\CYMR90~1\AppData\Local\Temp\ccEL7hUr.s:26081  .debug_str:000000000001c3ed .LASF3048
C:\Users\CYMR90~1\AppData\Local\Temp\ccEL7hUr.s:29405  .debug_str:000000000002977c .LASF3049
C:\Users\CYMR90~1\AppData\Local\Temp\ccEL7hUr.s:19508  .debug_str:000000000000199d .LASF3050
C:\Users\CYMR90~1\AppData\Local\Temp\ccEL7hUr.s:21562  .debug_str:0000000000009de2 .LASF3051
C:\Users\CYMR90~1\AppData\Local\Temp\ccEL7hUr.s:28835  .debug_str:000000000002726f .LASF3052
C:\Users\CYMR90~1\AppData\Local\Temp\ccEL7hUr.s:21124  .debug_str:000000000000823d .LASF3053
C:\Users\CYMR90~1\AppData\Local\Temp\ccEL7hUr.s:22618  .debug_str:000000000000e3be .LASF3054
C:\Users\CYMR90~1\AppData\Local\Temp\ccEL7hUr.s:28075  .debug_str:0000000000023f0a .LASF3055
C:\Users\CYMR90~1\AppData\Local\Temp\ccEL7hUr.s:25427  .debug_str:0000000000019956 .LASF3056
C:\Users\CYMR90~1\AppData\Local\Temp\ccEL7hUr.s:21514  .debug_str:0000000000009af2 .LASF3057
C:\Users\CYMR90~1\AppData\Local\Temp\ccEL7hUr.s:26831  .debug_str:000000000001f3d8 .LASF3058
C:\Users\CYMR90~1\AppData\Local\Temp\ccEL7hUr.s:21098  .debug_str:0000000000007fe0 .LASF3059
C:\Users\CYMR90~1\AppData\Local\Temp\ccEL7hUr.s:29025  .debug_str:0000000000027e99 .LASF3060
C:\Users\CYMR90~1\AppData\Local\Temp\ccEL7hUr.s:28689  .debug_str:00000000000268d7 .LASF3061
C:\Users\CYMR90~1\AppData\Local\Temp\ccEL7hUr.s:23418  .debug_str:0000000000011597 .LASF3062
C:\Users\CYMR90~1\AppData\Local\Temp\ccEL7hUr.s:28199  .debug_str:0000000000024898 .LASF3063
C:\Users\CYMR90~1\AppData\Local\Temp\ccEL7hUr.s:27295  .debug_str:000000000002102a .LASF3064
C:\Users\CYMR90~1\AppData\Local\Temp\ccEL7hUr.s:23304  .debug_str:0000000000010f11 .LASF3065
C:\Users\CYMR90~1\AppData\Local\Temp\ccEL7hUr.s:28777  .debug_str:0000000000026e57 .LASF3066
C:\Users\CYMR90~1\AppData\Local\Temp\ccEL7hUr.s:27953  .debug_str:000000000002381d .LASF3067
C:\Users\CYMR90~1\AppData\Local\Temp\ccEL7hUr.s:24803  .debug_str:000000000001713c .LASF3068
C:\Users\CYMR90~1\AppData\Local\Temp\ccEL7hUr.s:24546  .debug_str:0000000000015ebe .LASF3069
C:\Users\CYMR90~1\AppData\Local\Temp\ccEL7hUr.s:26787  .debug_str:000000000001f130 .LASF3070
C:\Users\CYMR90~1\AppData\Local\Temp\ccEL7hUr.s:23264  .debug_str:0000000000010c57 .LASF3071
C:\Users\CYMR90~1\AppData\Local\Temp\ccEL7hUr.s:23394  .debug_str:0000000000011448 .LASF3072
C:\Users\CYMR90~1\AppData\Local\Temp\ccEL7hUr.s:22796  .debug_str:000000000000eece .LASF3073
C:\Users\CYMR90~1\AppData\Local\Temp\ccEL7hUr.s:22930  .debug_str:000000000000f6b7 .LASF3074
C:\Users\CYMR90~1\AppData\Local\Temp\ccEL7hUr.s:26517  .debug_str:000000000001e112 .LASF3075
C:\Users\CYMR90~1\AppData\Local\Temp\ccEL7hUr.s:29151  .debug_str:00000000000287dc .LASF3076
C:\Users\CYMR90~1\AppData\Local\Temp\ccEL7hUr.s:24664  .debug_str:000000000001665c .LASF3077
C:\Users\CYMR90~1\AppData\Local\Temp\ccEL7hUr.s:28069  .debug_str:0000000000023eaf .LASF3078
C:\Users\CYMR90~1\AppData\Local\Temp\ccEL7hUr.s:19654  .debug_str:00000000000021e8 .LASF3079
C:\Users\CYMR90~1\AppData\Local\Temp\ccEL7hUr.s:20878  .debug_str:00000000000070c3 .LASF3080
C:\Users\CYMR90~1\AppData\Local\Temp\ccEL7hUr.s:29201  .debug_str:0000000000028ae8 .LASF3081
C:\Users\CYMR90~1\AppData\Local\Temp\ccEL7hUr.s:21614  .debug_str:000000000000a128 .LASF3082
C:\Users\CYMR90~1\AppData\Local\Temp\ccEL7hUr.s:24062  .debug_str:000000000001403b .LASF3083
C:\Users\CYMR90~1\AppData\Local\Temp\ccEL7hUr.s:22756  .debug_str:000000000000ec6f .LASF3084
C:\Users\CYMR90~1\AppData\Local\Temp\ccEL7hUr.s:24396  .debug_str:000000000001556b .LASF3085
C:\Users\CYMR90~1\AppData\Local\Temp\ccEL7hUr.s:27237  .debug_str:0000000000020d10 .LASF3086
C:\Users\CYMR90~1\AppData\Local\Temp\ccEL7hUr.s:25183  .debug_str:000000000001882f .LASF3087
C:\Users\CYMR90~1\AppData\Local\Temp\ccEL7hUr.s:27093  .debug_str:000000000002037d .LASF3088
C:\Users\CYMR90~1\AppData\Local\Temp\ccEL7hUr.s:29293  .debug_str:0000000000029094 .LASF3089
C:\Users\CYMR90~1\AppData\Local\Temp\ccEL7hUr.s:27733  .debug_str:0000000000022aa6 .LASF3090
C:\Users\CYMR90~1\AppData\Local\Temp\ccEL7hUr.s:22174  .debug_str:000000000000c6bf .LASF3091
C:\Users\CYMR90~1\AppData\Local\Temp\ccEL7hUr.s:30093  .debug_str:000000000002c316 .LASF3092
C:\Users\CYMR90~1\AppData\Local\Temp\ccEL7hUr.s:26881  .debug_str:000000000001f6b6 .LASF3093
C:\Users\CYMR90~1\AppData\Local\Temp\ccEL7hUr.s:28817  .debug_str:000000000002709f .LASF3094
C:\Users\CYMR90~1\AppData\Local\Temp\ccEL7hUr.s:28561  .debug_str:0000000000026110 .LASF3095
C:\Users\CYMR90~1\AppData\Local\Temp\ccEL7hUr.s:22074  .debug_str:000000000000c0ba .LASF3096
C:\Users\CYMR90~1\AppData\Local\Temp\ccEL7hUr.s:24444  .debug_str:00000000000157fb .LASF3097
C:\Users\CYMR90~1\AppData\Local\Temp\ccEL7hUr.s:24350  .debug_str:00000000000152c0 .LASF3098
C:\Users\CYMR90~1\AppData\Local\Temp\ccEL7hUr.s:25247  .debug_str:0000000000018d22 .LASF3099
C:\Users\CYMR90~1\AppData\Local\Temp\ccEL7hUr.s:26917  .debug_str:000000000001f8e5 .LASF3100
C:\Users\CYMR90~1\AppData\Local\Temp\ccEL7hUr.s:27435  .debug_str:0000000000021902 .LASF3101
C:\Users\CYMR90~1\AppData\Local\Temp\ccEL7hUr.s:30225  .debug_str:000000000002cb63 .LASF3102
C:\Users\CYMR90~1\AppData\Local\Temp\ccEL7hUr.s:22986  .debug_str:000000000000faa1 .LASF3103
C:\Users\CYMR90~1\AppData\Local\Temp\ccEL7hUr.s:19864  .debug_str:0000000000002f69 .LASF3104
C:\Users\CYMR90~1\AppData\Local\Temp\ccEL7hUr.s:22842  .debug_str:000000000000f148 .LASF3105
C:\Users\CYMR90~1\AppData\Local\Temp\ccEL7hUr.s:27117  .debug_str:000000000002053c .LASF3106
C:\Users\CYMR90~1\AppData\Local\Temp\ccEL7hUr.s:24420  .debug_str:00000000000156a5 .LASF3107
C:\Users\CYMR90~1\AppData\Local\Temp\ccEL7hUr.s:23456  .debug_str:000000000001181d .LASF3108
C:\Users\CYMR90~1\AppData\Local\Temp\ccEL7hUr.s:26019  .debug_str:000000000001c02b .LASF3109
C:\Users\CYMR90~1\AppData\Local\Temp\ccEL7hUr.s:25063  .debug_str:00000000000180f1 .LASF3110
C:\Users\CYMR90~1\AppData\Local\Temp\ccEL7hUr.s:26949  .debug_str:000000000001faef .LASF3111
C:\Users\CYMR90~1\AppData\Local\Temp\ccEL7hUr.s:23266  .debug_str:0000000000010c6f .LASF3112
C:\Users\CYMR90~1\AppData\Local\Temp\ccEL7hUr.s:29083  .debug_str:000000000002830a .LASF3113
C:\Users\CYMR90~1\AppData\Local\Temp\ccEL7hUr.s:21336  .debug_str:0000000000008fc2 .LASF3114
C:\Users\CYMR90~1\AppData\Local\Temp\ccEL7hUr.s:20434  .debug_str:0000000000005519 .LASF3115
C:\Users\CYMR90~1\AppData\Local\Temp\ccEL7hUr.s:19492  .debug_str:00000000000018b2 .LASF3116
C:\Users\CYMR90~1\AppData\Local\Temp\ccEL7hUr.s:29779  .debug_str:000000000002adcd .LASF3117
C:\Users\CYMR90~1\AppData\Local\Temp\ccEL7hUr.s:27381  .debug_str:00000000000215ba .LASF3118
C:\Users\CYMR90~1\AppData\Local\Temp\ccEL7hUr.s:26411  .debug_str:000000000001da19 .LASF3119
C:\Users\CYMR90~1\AppData\Local\Temp\ccEL7hUr.s:25581  .debug_str:000000000001a290 .LASF3120
C:\Users\CYMR90~1\AppData\Local\Temp\ccEL7hUr.s:24588  .debug_str:000000000001619f .LASF3121
C:\Users\CYMR90~1\AppData\Local\Temp\ccEL7hUr.s:23674  .debug_str:00000000000126fc .LASF3122
C:\Users\CYMR90~1\AppData\Local\Temp\ccEL7hUr.s:22718  .debug_str:000000000000ea07 .LASF3123
C:\Users\CYMR90~1\AppData\Local\Temp\ccEL7hUr.s:22858  .debug_str:000000000000f228 .LASF3124
C:\Users\CYMR90~1\AppData\Local\Temp\ccEL7hUr.s:28769  .debug_str:0000000000026dc2 .LASF3125
C:\Users\CYMR90~1\AppData\Local\Temp\ccEL7hUr.s:28557  .debug_str:00000000000260ba .LASF3126
C:\Users\CYMR90~1\AppData\Local\Temp\ccEL7hUr.s:23170  .debug_str:00000000000105e1 .LASF3127
C:\Users\CYMR90~1\AppData\Local\Temp\ccEL7hUr.s:22024  .debug_str:000000000000bc2c .LASF3128
C:\Users\CYMR90~1\AppData\Local\Temp\ccEL7hUr.s:20932  .debug_str:000000000000748c .LASF3129
C:\Users\CYMR90~1\AppData\Local\Temp\ccEL7hUr.s:26249  .debug_str:000000000001cf8e .LASF3130
C:\Users\CYMR90~1\AppData\Local\Temp\ccEL7hUr.s:27853  .debug_str:0000000000023199 .LASF3131
C:\Users\CYMR90~1\AppData\Local\Temp\ccEL7hUr.s:22210  .debug_str:000000000000c96b .LASF3132
C:\Users\CYMR90~1\AppData\Local\Temp\ccEL7hUr.s:20502  .debug_str:000000000000592d .LASF3133
C:\Users\CYMR90~1\AppData\Local\Temp\ccEL7hUr.s:20290  .debug_str:0000000000004c4e .LASF3134
C:\Users\CYMR90~1\AppData\Local\Temp\ccEL7hUr.s:26163  .debug_str:000000000001c98e .LASF3135
C:\Users\CYMR90~1\AppData\Local\Temp\ccEL7hUr.s:24680  .debug_str:0000000000016752 .LASF3136
C:\Users\CYMR90~1\AppData\Local\Temp\ccEL7hUr.s:19794  .debug_str:0000000000002ae7 .LASF3137
C:\Users\CYMR90~1\AppData\Local\Temp\ccEL7hUr.s:30165  .debug_str:000000000002c7ab .LASF3138
C:\Users\CYMR90~1\AppData\Local\Temp\ccEL7hUr.s:29123  .debug_str:00000000000285cf .LASF3139
C:\Users\CYMR90~1\AppData\Local\Temp\ccEL7hUr.s:20260  .debug_str:0000000000004a63 .LASF3140
C:\Users\CYMR90~1\AppData\Local\Temp\ccEL7hUr.s:25997  .debug_str:000000000001beba .LASF3141
C:\Users\CYMR90~1\AppData\Local\Temp\ccEL7hUr.s:23270  .debug_str:0000000000010cb4 .LASF3142
C:\Users\CYMR90~1\AppData\Local\Temp\ccEL7hUr.s:26301  .debug_str:000000000001d329 .LASF3143
C:\Users\CYMR90~1\AppData\Local\Temp\ccEL7hUr.s:19188  .debug_str:000000000000055e .LASF3144
C:\Users\CYMR90~1\AppData\Local\Temp\ccEL7hUr.s:23850  .debug_str:00000000000132af .LASF3145
C:\Users\CYMR90~1\AppData\Local\Temp\ccEL7hUr.s:28505  .debug_str:0000000000025d73 .LASF3146
C:\Users\CYMR90~1\AppData\Local\Temp\ccEL7hUr.s:23756  .debug_str:0000000000012c8a .LASF3147
C:\Users\CYMR90~1\AppData\Local\Temp\ccEL7hUr.s:20654  .debug_str:0000000000006270 .LASF3148
C:\Users\CYMR90~1\AppData\Local\Temp\ccEL7hUr.s:25027  .debug_str:0000000000017f03 .LASF3149
C:\Users\CYMR90~1\AppData\Local\Temp\ccEL7hUr.s:23518  .debug_str:0000000000011d22 .LASF3150
C:\Users\CYMR90~1\AppData\Local\Temp\ccEL7hUr.s:22070  .debug_str:000000000000c078 .LASF3151
C:\Users\CYMR90~1\AppData\Local\Temp\ccEL7hUr.s:25867  .debug_str:000000000001b6aa .LASF3152
C:\Users\CYMR90~1\AppData\Local\Temp\ccEL7hUr.s:22422  .debug_str:000000000000d82e .LASF3153
C:\Users\CYMR90~1\AppData\Local\Temp\ccEL7hUr.s:21404  .debug_str:00000000000093a9 .LASF3154
C:\Users\CYMR90~1\AppData\Local\Temp\ccEL7hUr.s:28209  .debug_str:000000000002490d .LASF3155
C:\Users\CYMR90~1\AppData\Local\Temp\ccEL7hUr.s:23562  .debug_str:0000000000011fca .LASF3156
C:\Users\CYMR90~1\AppData\Local\Temp\ccEL7hUr.s:27823  .debug_str:0000000000023020 .LASF3157
C:\Users\CYMR90~1\AppData\Local\Temp\ccEL7hUr.s:21730  .debug_str:000000000000a896 .LASF3158
C:\Users\CYMR90~1\AppData\Local\Temp\ccEL7hUr.s:25441  .debug_str:0000000000019a63 .LASF3159
C:\Users\CYMR90~1\AppData\Local\Temp\ccEL7hUr.s:28731  .debug_str:0000000000026b47 .LASF3160
C:\Users\CYMR90~1\AppData\Local\Temp\ccEL7hUr.s:22452  .debug_str:000000000000d9c9 .LASF3161
C:\Users\CYMR90~1\AppData\Local\Temp\ccEL7hUr.s:20548  .debug_str:0000000000005c1c .LASF3162
C:\Users\CYMR90~1\AppData\Local\Temp\ccEL7hUr.s:22052  .debug_str:000000000000bf35 .LASF3163
C:\Users\CYMR90~1\AppData\Local\Temp\ccEL7hUr.s:20840  .debug_str:0000000000006e4c .LASF3164
C:\Users\CYMR90~1\AppData\Local\Temp\ccEL7hUr.s:22744  .debug_str:000000000000ebcc .LASF3165
C:\Users\CYMR90~1\AppData\Local\Temp\ccEL7hUr.s:19334  .debug_str:0000000000000eff .LASF3166
C:\Users\CYMR90~1\AppData\Local\Temp\ccEL7hUr.s:29913  .debug_str:000000000002b695 .LASF3167
C:\Users\CYMR90~1\AppData\Local\Temp\ccEL7hUr.s:29513  .debug_str:0000000000029dbd .LASF3168
C:\Users\CYMR90~1\AppData\Local\Temp\ccEL7hUr.s:26961  .debug_str:000000000001fbad .LASF3169
C:\Users\CYMR90~1\AppData\Local\Temp\ccEL7hUr.s:28067  .debug_str:0000000000023e97 .LASF3170
C:\Users\CYMR90~1\AppData\Local\Temp\ccEL7hUr.s:26533  .debug_str:000000000001e1fb .LASF3171
C:\Users\CYMR90~1\AppData\Local\Temp\ccEL7hUr.s:26923  .debug_str:000000000001f92f .LASF3172
C:\Users\CYMR90~1\AppData\Local\Temp\ccEL7hUr.s:28873  .debug_str:000000000002748c .LASF3173
C:\Users\CYMR90~1\AppData\Local\Temp\ccEL7hUr.s:24138  .debug_str:0000000000014506 .LASF3174
C:\Users\CYMR90~1\AppData\Local\Temp\ccEL7hUr.s:24686  .debug_str:00000000000167ad .LASF3175
C:\Users\CYMR90~1\AppData\Local\Temp\ccEL7hUr.s:19586  .debug_str:0000000000001e69 .LASF3176
C:\Users\CYMR90~1\AppData\Local\Temp\ccEL7hUr.s:26909  .debug_str:000000000001f847 .LASF3177
C:\Users\CYMR90~1\AppData\Local\Temp\ccEL7hUr.s:26857  .debug_str:000000000001f559 .LASF3178
C:\Users\CYMR90~1\AppData\Local\Temp\ccEL7hUr.s:25971  .debug_str:000000000001bceb .LASF3179
C:\Users\CYMR90~1\AppData\Local\Temp\ccEL7hUr.s:19754  .debug_str:0000000000002869 .LASF3180
C:\Users\CYMR90~1\AppData\Local\Temp\ccEL7hUr.s:28373  .debug_str:0000000000025478 .LASF3181
C:\Users\CYMR90~1\AppData\Local\Temp\ccEL7hUr.s:22342  .debug_str:000000000000d250 .LASF3182
C:\Users\CYMR90~1\AppData\Local\Temp\ccEL7hUr.s:20112  .debug_str:0000000000003ff0 .LASF3183
C:\Users\CYMR90~1\AppData\Local\Temp\ccEL7hUr.s:19846  .debug_str:0000000000002e55 .LASF3184
C:\Users\CYMR90~1\AppData\Local\Temp\ccEL7hUr.s:21232  .debug_str:000000000000891f .LASF3185
C:\Users\CYMR90~1\AppData\Local\Temp\ccEL7hUr.s:26523  .debug_str:000000000001e15d .LASF3186
C:\Users\CYMR90~1\AppData\Local\Temp\ccEL7hUr.s:27665  .debug_str:00000000000226ad .LASF3187
C:\Users\CYMR90~1\AppData\Local\Temp\ccEL7hUr.s:21606  .debug_str:000000000000a0b5 .LASF3188
C:\Users\CYMR90~1\AppData\Local\Temp\ccEL7hUr.s:22540  .debug_str:000000000000dec7 .LASF3189
C:\Users\CYMR90~1\AppData\Local\Temp\ccEL7hUr.s:24484  .debug_str:0000000000015a74 .LASF3190
C:\Users\CYMR90~1\AppData\Local\Temp\ccEL7hUr.s:20666  .debug_str:000000000000631b .LASF3191
C:\Users\CYMR90~1\AppData\Local\Temp\ccEL7hUr.s:25757  .debug_str:000000000001afc4 .LASF3192
C:\Users\CYMR90~1\AppData\Local\Temp\ccEL7hUr.s:25401  .debug_str:0000000000019720 .LASF3193
C:\Users\CYMR90~1\AppData\Local\Temp\ccEL7hUr.s:22060  .debug_str:000000000000bfb9 .LASF3194
C:\Users\CYMR90~1\AppData\Local\Temp\ccEL7hUr.s:27121  .debug_str:000000000002057e .LASF3195
C:\Users\CYMR90~1\AppData\Local\Temp\ccEL7hUr.s:24961  .debug_str:0000000000017b08 .LASF3196
C:\Users\CYMR90~1\AppData\Local\Temp\ccEL7hUr.s:29117  .debug_str:000000000002855d .LASF3197
C:\Users\CYMR90~1\AppData\Local\Temp\ccEL7hUr.s:26629  .debug_str:000000000001e7a0 .LASF3198
C:\Users\CYMR90~1\AppData\Local\Temp\ccEL7hUr.s:25947  .debug_str:000000000001bb2c .LASF3199
C:\Users\CYMR90~1\AppData\Local\Temp\ccEL7hUr.s:28995  .debug_str:0000000000027ca0 .LASF3200
C:\Users\CYMR90~1\AppData\Local\Temp\ccEL7hUr.s:19612  .debug_str:0000000000001fc2 .LASF3201
C:\Users\CYMR90~1\AppData\Local\Temp\ccEL7hUr.s:22770  .debug_str:000000000000ed66 .LASF3202
C:\Users\CYMR90~1\AppData\Local\Temp\ccEL7hUr.s:22812  .debug_str:000000000000ef8f .LASF3203
C:\Users\CYMR90~1\AppData\Local\Temp\ccEL7hUr.s:28643  .debug_str:00000000000265f9 .LASF3204
C:\Users\CYMR90~1\AppData\Local\Temp\ccEL7hUr.s:29001  .debug_str:0000000000027d00 .LASF3205
C:\Users\CYMR90~1\AppData\Local\Temp\ccEL7hUr.s:25053  .debug_str:0000000000018075 .LASF3206
C:\Users\CYMR90~1\AppData\Local\Temp\ccEL7hUr.s:27767  .debug_str:0000000000022d08 .LASF3207
C:\Users\CYMR90~1\AppData\Local\Temp\ccEL7hUr.s:19448  .debug_str:000000000000154a .LASF3208
C:\Users\CYMR90~1\AppData\Local\Temp\ccEL7hUr.s:19748  .debug_str:000000000000280d .LASF3209
C:\Users\CYMR90~1\AppData\Local\Temp\ccEL7hUr.s:29587  .debug_str:000000000002a1eb .LASF3210
C:\Users\CYMR90~1\AppData\Local\Temp\ccEL7hUr.s:20638  .debug_str:00000000000061a3 .LASF3211
C:\Users\CYMR90~1\AppData\Local\Temp\ccEL7hUr.s:23854  .debug_str:00000000000132f1 .LASF3212
C:\Users\CYMR90~1\AppData\Local\Temp\ccEL7hUr.s:22412  .debug_str:000000000000d77f .LASF3213
C:\Users\CYMR90~1\AppData\Local\Temp\ccEL7hUr.s:27343  .debug_str:00000000000212b7 .LASF3214
C:\Users\CYMR90~1\AppData\Local\Temp\ccEL7hUr.s:25411  .debug_str:0000000000019805 .LASF3215
C:\Users\CYMR90~1\AppData\Local\Temp\ccEL7hUr.s:21584  .debug_str:0000000000009f40 .LASF3216
C:\Users\CYMR90~1\AppData\Local\Temp\ccEL7hUr.s:21340  .debug_str:0000000000008fff .LASF3217
C:\Users\CYMR90~1\AppData\Local\Temp\ccEL7hUr.s:21926  .debug_str:000000000000b5b9 .LASF3218
C:\Users\CYMR90~1\AppData\Local\Temp\ccEL7hUr.s:20186  .debug_str:00000000000044e8 .LASF3219
C:\Users\CYMR90~1\AppData\Local\Temp\ccEL7hUr.s:23288  .debug_str:0000000000010e4a .LASF3220
C:\Users\CYMR90~1\AppData\Local\Temp\ccEL7hUr.s:24945  .debug_str:0000000000017a1c .LASF3221
C:\Users\CYMR90~1\AppData\Local\Temp\ccEL7hUr.s:21208  .debug_str:0000000000008760 .LASF3222
C:\Users\CYMR90~1\AppData\Local\Temp\ccEL7hUr.s:22002  .debug_str:000000000000bac4 .LASF3223
C:\Users\CYMR90~1\AppData\Local\Temp\ccEL7hUr.s:21952  .debug_str:000000000000b7ab .LASF3224
C:\Users\CYMR90~1\AppData\Local\Temp\ccEL7hUr.s:24851  .debug_str:000000000001740e .LASF3225
C:\Users\CYMR90~1\AppData\Local\Temp\ccEL7hUr.s:28727  .debug_str:0000000000026b0e .LASF3226
C:\Users\CYMR90~1\AppData\Local\Temp\ccEL7hUr.s:21680  .debug_str:000000000000a587 .LASF3227
C:\Users\CYMR90~1\AppData\Local\Temp\ccEL7hUr.s:19724  .debug_str:0000000000002658 .LASF3228
C:\Users\CYMR90~1\AppData\Local\Temp\ccEL7hUr.s:26659  .debug_str:000000000001e98a .LASF3229
C:\Users\CYMR90~1\AppData\Local\Temp\ccEL7hUr.s:19416  .debug_str:00000000000013a5 .LASF3230
C:\Users\CYMR90~1\AppData\Local\Temp\ccEL7hUr.s:25231  .debug_str:0000000000018b83 .LASF3231
C:\Users\CYMR90~1\AppData\Local\Temp\ccEL7hUr.s:19520  .debug_str:0000000000001a59 .LASF3232
C:\Users\CYMR90~1\AppData\Local\Temp\ccEL7hUr.s:30177  .debug_str:000000000002c894 .LASF3233
C:\Users\CYMR90~1\AppData\Local\Temp\ccEL7hUr.s:24402  .debug_str:00000000000155a9 .LASF3234
C:\Users\CYMR90~1\AppData\Local\Temp\ccEL7hUr.s:28161  .debug_str:00000000000245c1 .LASF3235
C:\Users\CYMR90~1\AppData\Local\Temp\ccEL7hUr.s:21620  .debug_str:000000000000a189 .LASF3236
C:\Users\CYMR90~1\AppData\Local\Temp\ccEL7hUr.s:19544  .debug_str:0000000000001be0 .LASF3237
C:\Users\CYMR90~1\AppData\Local\Temp\ccEL7hUr.s:20660  .debug_str:00000000000062de .LASF3238
C:\Users\CYMR90~1\AppData\Local\Temp\ccEL7hUr.s:25831  .debug_str:000000000001b48b .LASF3239
C:\Users\CYMR90~1\AppData\Local\Temp\ccEL7hUr.s:20120  .debug_str:000000000000405f .LASF3240
C:\Users\CYMR90~1\AppData\Local\Temp\ccEL7hUr.s:21346  .debug_str:0000000000009062 .LASF3241
C:\Users\CYMR90~1\AppData\Local\Temp\ccEL7hUr.s:20414  .debug_str:00000000000053d4 .LASF3242
C:\Users\CYMR90~1\AppData\Local\Temp\ccEL7hUr.s:29677  .debug_str:000000000002a7cf .LASF3243
C:\Users\CYMR90~1\AppData\Local\Temp\ccEL7hUr.s:22082  .debug_str:000000000000c12a .LASF3244
C:\Users\CYMR90~1\AppData\Local\Temp\ccEL7hUr.s:19762  .debug_str:00000000000028e4 .LASF3245
C:\Users\CYMR90~1\AppData\Local\Temp\ccEL7hUr.s:27625  .debug_str:000000000002245a .LASF3246
C:\Users\CYMR90~1\AppData\Local\Temp\ccEL7hUr.s:24314  .debug_str:00000000000150a5 .LASF3247
C:\Users\CYMR90~1\AppData\Local\Temp\ccEL7hUr.s:20928  .debug_str:0000000000007445 .LASF3248
C:\Users\CYMR90~1\AppData\Local\Temp\ccEL7hUr.s:25811  .debug_str:000000000001b365 .LASF3249
C:\Users\CYMR90~1\AppData\Local\Temp\ccEL7hUr.s:20546  .debug_str:0000000000005bfd .LASF3250
C:\Users\CYMR90~1\AppData\Local\Temp\ccEL7hUr.s:21438  .debug_str:00000000000095fb .LASF3251
C:\Users\CYMR90~1\AppData\Local\Temp\ccEL7hUr.s:23692  .debug_str:000000000001283b .LASF3252
C:\Users\CYMR90~1\AppData\Local\Temp\ccEL7hUr.s:27643  .debug_str:0000000000022535 .LASF3253
C:\Users\CYMR90~1\AppData\Local\Temp\ccEL7hUr.s:28981  .debug_str:0000000000027b8e .LASF3254
C:\Users\CYMR90~1\AppData\Local\Temp\ccEL7hUr.s:25043  .debug_str:0000000000017fe9 .LASF3255
C:\Users\CYMR90~1\AppData\Local\Temp\ccEL7hUr.s:22928  .debug_str:000000000000f697 .LASF3256
C:\Users\CYMR90~1\AppData\Local\Temp\ccEL7hUr.s:27641  .debug_str:000000000002251c .LASF3257
C:\Users\CYMR90~1\AppData\Local\Temp\ccEL7hUr.s:29415  .debug_str:00000000000297f1 .LASF3258
C:\Users\CYMR90~1\AppData\Local\Temp\ccEL7hUr.s:25673  .debug_str:000000000001aa2e .LASF3259
C:\Users\CYMR90~1\AppData\Local\Temp\ccEL7hUr.s:20798  .debug_str:0000000000006b74 .LASF3260
C:\Users\CYMR90~1\AppData\Local\Temp\ccEL7hUr.s:20420  .debug_str:0000000000005418 .LASF3261
C:\Users\CYMR90~1\AppData\Local\Temp\ccEL7hUr.s:26573  .debug_str:000000000001e439 .LASF3262
C:\Users\CYMR90~1\AppData\Local\Temp\ccEL7hUr.s:22638  .debug_str:000000000000e4da .LASF3263
C:\Users\CYMR90~1\AppData\Local\Temp\ccEL7hUr.s:27841  .debug_str:00000000000230e8 .LASF3264
C:\Users\CYMR90~1\AppData\Local\Temp\ccEL7hUr.s:24903  .debug_str:0000000000017736 .LASF3265
C:\Users\CYMR90~1\AppData\Local\Temp\ccEL7hUr.s:28273  .debug_str:0000000000024d18 .LASF3266
C:\Users\CYMR90~1\AppData\Local\Temp\ccEL7hUr.s:27679  .debug_str:000000000002277f .LASF3267
C:\Users\CYMR90~1\AppData\Local\Temp\ccEL7hUr.s:24957  .debug_str:0000000000017adf .LASF3268
C:\Users\CYMR90~1\AppData\Local\Temp\ccEL7hUr.s:29849  .debug_str:000000000002b23f .LASF3269
C:\Users\CYMR90~1\AppData\Local\Temp\ccEL7hUr.s:30147  .debug_str:000000000002c661 .LASF3270
C:\Users\CYMR90~1\AppData\Local\Temp\ccEL7hUr.s:28577  .debug_str:00000000000261dd .LASF3271
C:\Users\CYMR90~1\AppData\Local\Temp\ccEL7hUr.s:20074  .debug_str:0000000000003d43 .LASF3272
C:\Users\CYMR90~1\AppData\Local\Temp\ccEL7hUr.s:22860  .debug_str:000000000000f257 .LASF3273
C:\Users\CYMR90~1\AppData\Local\Temp\ccEL7hUr.s:20040  .debug_str:0000000000003b4a .LASF3274
C:\Users\CYMR90~1\AppData\Local\Temp\ccEL7hUr.s:23406  .debug_str:00000000000114e8 .LASF3275
C:\Users\CYMR90~1\AppData\Local\Temp\ccEL7hUr.s:23224  .debug_str:00000000000109b7 .LASF3276
C:\Users\CYMR90~1\AppData\Local\Temp\ccEL7hUr.s:20768  .debug_str:000000000000698d .LASF3277
C:\Users\CYMR90~1\AppData\Local\Temp\ccEL7hUr.s:23610  .debug_str:0000000000012314 .LASF3278
C:\Users\CYMR90~1\AppData\Local\Temp\ccEL7hUr.s:23268  .debug_str:0000000000010c97 .LASF3279
C:\Users\CYMR90~1\AppData\Local\Temp\ccEL7hUr.s:21012  .debug_str:00000000000079b4 .LASF3280
C:\Users\CYMR90~1\AppData\Local\Temp\ccEL7hUr.s:21686  .debug_str:000000000000a5d1 .LASF3281
C:\Users\CYMR90~1\AppData\Local\Temp\ccEL7hUr.s:24082  .debug_str:000000000001419e .LASF3282
C:\Users\CYMR90~1\AppData\Local\Temp\ccEL7hUr.s:26581  .debug_str:000000000001e4a8 .LASF3283
C:\Users\CYMR90~1\AppData\Local\Temp\ccEL7hUr.s:20224  .debug_str:000000000000478c .LASF3284
C:\Users\CYMR90~1\AppData\Local\Temp\ccEL7hUr.s:27119  .debug_str:0000000000020568 .LASF3285
C:\Users\CYMR90~1\AppData\Local\Temp\ccEL7hUr.s:27479  .debug_str:0000000000021bb7 .LASF3286
C:\Users\CYMR90~1\AppData\Local\Temp\ccEL7hUr.s:21494  .debug_str:0000000000009991 .LASF3287
C:\Users\CYMR90~1\AppData\Local\Temp\ccEL7hUr.s:20844  .debug_str:0000000000006e7e .LASF3288
C:\Users\CYMR90~1\AppData\Local\Temp\ccEL7hUr.s:21358  .debug_str:00000000000090ea .LASF3289
C:\Users\CYMR90~1\AppData\Local\Temp\ccEL7hUr.s:19822  .debug_str:0000000000002cd3 .LASF3290
C:\Users\CYMR90~1\AppData\Local\Temp\ccEL7hUr.s:30001  .debug_str:000000000002bc6c .LASF3291
C:\Users\CYMR90~1\AppData\Local\Temp\ccEL7hUr.s:20644  .debug_str:00000000000061f6 .LASF3292
C:\Users\CYMR90~1\AppData\Local\Temp\ccEL7hUr.s:19220  .debug_str:0000000000000746 .LASF3293
C:\Users\CYMR90~1\AppData\Local\Temp\ccEL7hUr.s:20230  .debug_str:0000000000004809 .LASF3294
C:\Users\CYMR90~1\AppData\Local\Temp\ccEL7hUr.s:27581  .debug_str:00000000000221eb .LASF3295
C:\Users\CYMR90~1\AppData\Local\Temp\ccEL7hUr.s:23682  .debug_str:0000000000012789 .LASF3296
C:\Users\CYMR90~1\AppData\Local\Temp\ccEL7hUr.s:27203  .debug_str:0000000000020ab3 .LASF3297
C:\Users\CYMR90~1\AppData\Local\Temp\ccEL7hUr.s:19160  .debug_str:00000000000003d9 .LASF3298
C:\Users\CYMR90~1\AppData\Local\Temp\ccEL7hUr.s:26795  .debug_str:000000000001f1a9 .LASF3299
C:\Users\CYMR90~1\AppData\Local\Temp\ccEL7hUr.s:25661  .debug_str:000000000001a96c .LASF3300
C:\Users\CYMR90~1\AppData\Local\Temp\ccEL7hUr.s:26571  .debug_str:000000000001e419 .LASF3301
C:\Users\CYMR90~1\AppData\Local\Temp\ccEL7hUr.s:26155  .debug_str:000000000001c8f9 .LASF3302
C:\Users\CYMR90~1\AppData\Local\Temp\ccEL7hUr.s:25023  .debug_str:0000000000017ecd .LASF3303
C:\Users\CYMR90~1\AppData\Local\Temp\ccEL7hUr.s:23572  .debug_str:0000000000012053 .LASF3304
C:\Users\CYMR90~1\AppData\Local\Temp\ccEL7hUr.s:21576  .debug_str:0000000000009ead .LASF3305
C:\Users\CYMR90~1\AppData\Local\Temp\ccEL7hUr.s:26443  .debug_str:000000000001dbcb .LASF3306
C:\Users\CYMR90~1\AppData\Local\Temp\ccEL7hUr.s:30097  .debug_str:000000000002c377 .LASF3307
C:\Users\CYMR90~1\AppData\Local\Temp\ccEL7hUr.s:25421  .debug_str:000000000001990b .LASF3308
C:\Users\CYMR90~1\AppData\Local\Temp\ccEL7hUr.s:25731  .debug_str:000000000001adba .LASF3309
C:\Users\CYMR90~1\AppData\Local\Temp\ccEL7hUr.s:28201  .debug_str:00000000000248ab .LASF3310
C:\Users\CYMR90~1\AppData\Local\Temp\ccEL7hUr.s:29583  .debug_str:000000000002a1b8 .LASF3311
C:\Users\CYMR90~1\AppData\Local\Temp\ccEL7hUr.s:23452  .debug_str:00000000000117e1 .LASF3312
C:\Users\CYMR90~1\AppData\Local\Temp\ccEL7hUr.s:26395  .debug_str:000000000001d941 .LASF3313
C:\Users\CYMR90~1\AppData\Local\Temp\ccEL7hUr.s:22538  .debug_str:000000000000deaf .LASF3314
C:\Users\CYMR90~1\AppData\Local\Temp\ccEL7hUr.s:29357  .debug_str:000000000002945b .LASF3315
C:\Users\CYMR90~1\AppData\Local\Temp\ccEL7hUr.s:20940  .debug_str:00000000000074fc .LASF3316
C:\Users\CYMR90~1\AppData\Local\Temp\ccEL7hUr.s:29629  .debug_str:000000000002a4d2 .LASF3317
C:\Users\CYMR90~1\AppData\Local\Temp\ccEL7hUr.s:28421  .debug_str:0000000000025844 .LASF3318
C:\Users\CYMR90~1\AppData\Local\Temp\ccEL7hUr.s:19998  .debug_str:000000000000389b .LASF3319
C:\Users\CYMR90~1\AppData\Local\Temp\ccEL7hUr.s:23164  .debug_str:0000000000010583 .LASF3320
C:\Users\CYMR90~1\AppData\Local\Temp\ccEL7hUr.s:29087  .debug_str:0000000000028358 .LASF3321
C:\Users\CYMR90~1\AppData\Local\Temp\ccEL7hUr.s:23632  .debug_str:000000000001245a .LASF3322
C:\Users\CYMR90~1\AppData\Local\Temp\ccEL7hUr.s:21744  .debug_str:000000000000a955 .LASF3323
C:\Users\CYMR90~1\AppData\Local\Temp\ccEL7hUr.s:29905  .debug_str:000000000002b601 .LASF3324
C:\Users\CYMR90~1\AppData\Local\Temp\ccEL7hUr.s:21830  .debug_str:000000000000af86 .LASF3325
C:\Users\CYMR90~1\AppData\Local\Temp\ccEL7hUr.s:25475  .debug_str:0000000000019c74 .LASF3326
C:\Users\CYMR90~1\AppData\Local\Temp\ccEL7hUr.s:29657  .debug_str:000000000002a69b .LASF3327
C:\Users\CYMR90~1\AppData\Local\Temp\ccEL7hUr.s:25225  .debug_str:0000000000018afa .LASF3328
C:\Users\CYMR90~1\AppData\Local\Temp\ccEL7hUr.s:29697  .debug_str:000000000002a8de .LASF3329
C:\Users\CYMR90~1\AppData\Local\Temp\ccEL7hUr.s:27309  .debug_str:00000000000210b8 .LASF3330
C:\Users\CYMR90~1\AppData\Local\Temp\ccEL7hUr.s:28661  .debug_str:0000000000026738 .LASF3331
C:\Users\CYMR90~1\AppData\Local\Temp\ccEL7hUr.s:22390  .debug_str:000000000000d5de .LASF3332
C:\Users\CYMR90~1\AppData\Local\Temp\ccEL7hUr.s:28055  .debug_str:0000000000023deb .LASF3333
C:\Users\CYMR90~1\AppData\Local\Temp\ccEL7hUr.s:24202  .debug_str:000000000001495f .LASF3334
C:\Users\CYMR90~1\AppData\Local\Temp\ccEL7hUr.s:23060  .debug_str:000000000000ff1d .LASF3335
C:\Users\CYMR90~1\AppData\Local\Temp\ccEL7hUr.s:26143  .debug_str:000000000001c78f .LASF3336
C:\Users\CYMR90~1\AppData\Local\Temp\ccEL7hUr.s:28917  .debug_str:00000000000276fa .LASF3337
C:\Users\CYMR90~1\AppData\Local\Temp\ccEL7hUr.s:20020  .debug_str:00000000000039e4 .LASF3338
C:\Users\CYMR90~1\AppData\Local\Temp\ccEL7hUr.s:26375  .debug_str:000000000001d7d1 .LASF3339
C:\Users\CYMR90~1\AppData\Local\Temp\ccEL7hUr.s:29097  .debug_str:00000000000283fc .LASF3340
C:\Users\CYMR90~1\AppData\Local\Temp\ccEL7hUr.s:21252  .debug_str:0000000000008a54 .LASF3341
C:\Users\CYMR90~1\AppData\Local\Temp\ccEL7hUr.s:27553  .debug_str:0000000000022031 .LASF3342
C:\Users\CYMR90~1\AppData\Local\Temp\ccEL7hUr.s:24380  .debug_str:000000000001546e .LASF3343
C:\Users\CYMR90~1\AppData\Local\Temp\ccEL7hUr.s:21342  .debug_str:0000000000009023 .LASF3344
C:\Users\CYMR90~1\AppData\Local\Temp\ccEL7hUr.s:26283  .debug_str:000000000001d22a .LASF3345
C:\Users\CYMR90~1\AppData\Local\Temp\ccEL7hUr.s:23776  .debug_str:0000000000012dcd .LASF3346
C:\Users\CYMR90~1\AppData\Local\Temp\ccEL7hUr.s:21808  .debug_str:000000000000ad4c .LASF3347
C:\Users\CYMR90~1\AppData\Local\Temp\ccEL7hUr.s:26213  .debug_str:000000000001ccb7 .LASF3348
C:\Users\CYMR90~1\AppData\Local\Temp\ccEL7hUr.s:28295  .debug_str:0000000000024e79 .LASF3349
C:\Users\CYMR90~1\AppData\Local\Temp\ccEL7hUr.s:20308  .debug_str:0000000000004d6c .LASF3350
C:\Users\CYMR90~1\AppData\Local\Temp\ccEL7hUr.s:29597  .debug_str:000000000002a2b5 .LASF3351
C:\Users\CYMR90~1\AppData\Local\Temp\ccEL7hUr.s:28487  .debug_str:0000000000025c51 .LASF3352
C:\Users\CYMR90~1\AppData\Local\Temp\ccEL7hUr.s:25519  .debug_str:0000000000019eee .LASF3353
C:\Users\CYMR90~1\AppData\Local\Temp\ccEL7hUr.s:25527  .debug_str:0000000000019f7f .LASF3354
C:\Users\CYMR90~1\AppData\Local\Temp\ccEL7hUr.s:28773  .debug_str:0000000000026e04 .LASF3355
C:\Users\CYMR90~1\AppData\Local\Temp\ccEL7hUr.s:23664  .debug_str:000000000001264e .LASF3356
C:\Users\CYMR90~1\AppData\Local\Temp\ccEL7hUr.s:29569  .debug_str:000000000002a103 .LASF3357
C:\Users\CYMR90~1\AppData\Local\Temp\ccEL7hUr.s:25189  .debug_str:00000000000188ae .LASF3358
C:\Users\CYMR90~1\AppData\Local\Temp\ccEL7hUr.s:28851  .debug_str:0000000000027355 .LASF3359
C:\Users\CYMR90~1\AppData\Local\Temp\ccEL7hUr.s:20204  .debug_str:000000000000460d .LASF3360
C:\Users\CYMR90~1\AppData\Local\Temp\ccEL7hUr.s:23258  .debug_str:0000000000010bd2 .LASF3361
C:\Users\CYMR90~1\AppData\Local\Temp\ccEL7hUr.s:26551  .debug_str:000000000001e2ed .LASF3362
C:\Users\CYMR90~1\AppData\Local\Temp\ccEL7hUr.s:23594  .debug_str:00000000000121e6 .LASF3363
C:\Users\CYMR90~1\AppData\Local\Temp\ccEL7hUr.s:23014  .debug_str:000000000000fc3b .LASF3364
C:\Users\CYMR90~1\AppData\Local\Temp\ccEL7hUr.s:23774  .debug_str:0000000000012d94 .LASF3365
C:\Users\CYMR90~1\AppData\Local\Temp\ccEL7hUr.s:27775  .debug_str:0000000000022d5e .LASF3366
C:\Users\CYMR90~1\AppData\Local\Temp\ccEL7hUr.s:24566  .debug_str:000000000001601c .LASF3367
C:\Users\CYMR90~1\AppData\Local\Temp\ccEL7hUr.s:26123  .debug_str:000000000001c62f .LASF3368
C:\Users\CYMR90~1\AppData\Local\Temp\ccEL7hUr.s:28933  .debug_str:0000000000027804 .LASF3369
C:\Users\CYMR90~1\AppData\Local\Temp\ccEL7hUr.s:21042  .debug_str:0000000000007bb7 .LASF3370
C:\Users\CYMR90~1\AppData\Local\Temp\ccEL7hUr.s:20362  .debug_str:0000000000005099 .LASF3371
C:\Users\CYMR90~1\AppData\Local\Temp\ccEL7hUr.s:23726  .debug_str:0000000000012a7c .LASF3372
C:\Users\CYMR90~1\AppData\Local\Temp\ccEL7hUr.s:19374  .debug_str:0000000000001139 .LASF3373
C:\Users\CYMR90~1\AppData\Local\Temp\ccEL7hUr.s:19464  .debug_str:0000000000001647 .LASF3374
C:\Users\CYMR90~1\AppData\Local\Temp\ccEL7hUr.s:29047  .debug_str:0000000000028047 .LASF3375
C:\Users\CYMR90~1\AppData\Local\Temp\ccEL7hUr.s:25797  .debug_str:000000000001b267 .LASF3376
C:\Users\CYMR90~1\AppData\Local\Temp\ccEL7hUr.s:22310  .debug_str:000000000000d021 .LASF3377
C:\Users\CYMR90~1\AppData\Local\Temp\ccEL7hUr.s:24166  .debug_str:00000000000146e6 .LASF3378
C:\Users\CYMR90~1\AppData\Local\Temp\ccEL7hUr.s:25135  .debug_str:0000000000018591 .LASF3379
C:\Users\CYMR90~1\AppData\Local\Temp\ccEL7hUr.s:23012  .debug_str:000000000000fc22 .LASF3380
C:\Users\CYMR90~1\AppData\Local\Temp\ccEL7hUr.s:26607  .debug_str:000000000001e637 .LASF3381
C:\Users\CYMR90~1\AppData\Local\Temp\ccEL7hUr.s:22122  .debug_str:000000000000c39f .LASF3382
C:\Users\CYMR90~1\AppData\Local\Temp\ccEL7hUr.s:21684  .debug_str:000000000000a5ae .LASF3383
C:\Users\CYMR90~1\AppData\Local\Temp\ccEL7hUr.s:24626  .debug_str:00000000000163d3 .LASF3384
C:\Users\CYMR90~1\AppData\Local\Temp\ccEL7hUr.s:25577  .debug_str:000000000001a24e .LASF3385
C:\Users\CYMR90~1\AppData\Local\Temp\ccEL7hUr.s:26859  .debug_str:000000000001f578 .LASF3386
C:\Users\CYMR90~1\AppData\Local\Temp\ccEL7hUr.s:23086  .debug_str:00000000000100da .LASF3387
C:\Users\CYMR90~1\AppData\Local\Temp\ccEL7hUr.s:30171  .debug_str:000000000002c824 .LASF3388
C:\Users\CYMR90~1\AppData\Local\Temp\ccEL7hUr.s:24947  .debug_str:0000000000017a33 .LASF3389
C:\Users\CYMR90~1\AppData\Local\Temp\ccEL7hUr.s:27579  .debug_str:00000000000221c7 .LASF3390
C:\Users\CYMR90~1\AppData\Local\Temp\ccEL7hUr.s:21990  .debug_str:000000000000ba20 .LASF3391
C:\Users\CYMR90~1\AppData\Local\Temp\ccEL7hUr.s:27855  .debug_str:00000000000231c6 .LASF3392
C:\Users\CYMR90~1\AppData\Local\Temp\ccEL7hUr.s:24046  .debug_str:0000000000013f44 .LASF3393
C:\Users\CYMR90~1\AppData\Local\Temp\ccEL7hUr.s:26751  .debug_str:000000000001eeba .LASF3394
C:\Users\CYMR90~1\AppData\Local\Temp\ccEL7hUr.s:22844  .debug_str:000000000000f16a .LASF3395
C:\Users\CYMR90~1\AppData\Local\Temp\ccEL7hUr.s:29563  .debug_str:000000000002a0a9 .LASF3396
C:\Users\CYMR90~1\AppData\Local\Temp\ccEL7hUr.s:23162  .debug_str:000000000001056c .LASF3397
C:\Users\CYMR90~1\AppData\Local\Temp\ccEL7hUr.s:29175  .debug_str:0000000000028967 .LASF3398
C:\Users\CYMR90~1\AppData\Local\Temp\ccEL7hUr.s:27821  .debug_str:000000000002300a .LASF3399
C:\Users\CYMR90~1\AppData\Local\Temp\ccEL7hUr.s:23482  .debug_str:0000000000011a75 .LASF3400
C:\Users\CYMR90~1\AppData\Local\Temp\ccEL7hUr.s:21384  .debug_str:000000000000928d .LASF3401
C:\Users\CYMR90~1\AppData\Local\Temp\ccEL7hUr.s:20970  .debug_str:00000000000076ef .LASF3402
C:\Users\CYMR90~1\AppData\Local\Temp\ccEL7hUr.s:30285  .debug_str:000000000002cfb4 .LASF3403
C:\Users\CYMR90~1\AppData\Local\Temp\ccEL7hUr.s:20160  .debug_str:0000000000004331 .LASF3404
C:\Users\CYMR90~1\AppData\Local\Temp\ccEL7hUr.s:29823  .debug_str:000000000002b04b .LASF3405
C:\Users\CYMR90~1\AppData\Local\Temp\ccEL7hUr.s:22460  .debug_str:000000000000da3f .LASF3406
C:\Users\CYMR90~1\AppData\Local\Temp\ccEL7hUr.s:25113  .debug_str:0000000000018416 .LASF3407
C:\Users\CYMR90~1\AppData\Local\Temp\ccEL7hUr.s:24564  .debug_str:0000000000016004 .LASF3408
C:\Users\CYMR90~1\AppData\Local\Temp\ccEL7hUr.s:27867  .debug_str:0000000000023266 .LASF3409
C:\Users\CYMR90~1\AppData\Local\Temp\ccEL7hUr.s:19386  .debug_str:00000000000011df .LASF3410
C:\Users\CYMR90~1\AppData\Local\Temp\ccEL7hUr.s:20322  .debug_str:0000000000004e64 .LASF3411
C:\Users\CYMR90~1\AppData\Local\Temp\ccEL7hUr.s:27727  .debug_str:0000000000022a34 .LASF3412
C:\Users\CYMR90~1\AppData\Local\Temp\ccEL7hUr.s:20564  .debug_str:0000000000005d22 .LASF3413
C:\Users\CYMR90~1\AppData\Local\Temp\ccEL7hUr.s:28041  .debug_str:0000000000023d0c .LASF3414
C:\Users\CYMR90~1\AppData\Local\Temp\ccEL7hUr.s:28449  .debug_str:0000000000025a1d .LASF3415
C:\Users\CYMR90~1\AppData\Local\Temp\ccEL7hUr.s:27191  .debug_str:0000000000020a2c .LASF3416
C:\Users\CYMR90~1\AppData\Local\Temp\ccEL7hUr.s:24468  .debug_str:0000000000015993 .LASF3417
C:\Users\CYMR90~1\AppData\Local\Temp\ccEL7hUr.s:24220  .debug_str:0000000000014a5f .LASF3418
C:\Users\CYMR90~1\AppData\Local\Temp\ccEL7hUr.s:24937  .debug_str:0000000000017989 .LASF3419
C:\Users\CYMR90~1\AppData\Local\Temp\ccEL7hUr.s:27085  .debug_str:00000000000202e8 .LASF3420
C:\Users\CYMR90~1\AppData\Local\Temp\ccEL7hUr.s:20936  .debug_str:00000000000074ce .LASF3421
C:\Users\CYMR90~1\AppData\Local\Temp\ccEL7hUr.s:19154  .debug_str:0000000000000380 .LASF3422
C:\Users\CYMR90~1\AppData\Local\Temp\ccEL7hUr.s:29197  .debug_str:0000000000028abf .LASF3423
C:\Users\CYMR90~1\AppData\Local\Temp\ccEL7hUr.s:19282  .debug_str:0000000000000b80 .LASF3424
C:\Users\CYMR90~1\AppData\Local\Temp\ccEL7hUr.s:27559  .debug_str:00000000000220a5 .LASF3425
C:\Users\CYMR90~1\AppData\Local\Temp\ccEL7hUr.s:24364  .debug_str:00000000000153ad .LASF3426
C:\Users\CYMR90~1\AppData\Local\Temp\ccEL7hUr.s:24028  .debug_str:0000000000013e2c .LASF3427
C:\Users\CYMR90~1\AppData\Local\Temp\ccEL7hUr.s:22334  .debug_str:000000000000d1c9 .LASF3428
C:\Users\CYMR90~1\AppData\Local\Temp\ccEL7hUr.s:27857  .debug_str:00000000000231ec .LASF3429
C:\Users\CYMR90~1\AppData\Local\Temp\ccEL7hUr.s:25839  .debug_str:000000000001b516 .LASF3430
C:\Users\CYMR90~1\AppData\Local\Temp\ccEL7hUr.s:24624  .debug_str:00000000000163b6 .LASF3431
C:\Users\CYMR90~1\AppData\Local\Temp\ccEL7hUr.s:28293  .debug_str:0000000000024e5b .LASF3432
C:\Users\CYMR90~1\AppData\Local\Temp\ccEL7hUr.s:22978  .debug_str:000000000000fa37 .LASF3433
C:\Users\CYMR90~1\AppData\Local\Temp\ccEL7hUr.s:27773  .debug_str:0000000000022d42 .LASF3434
C:\Users\CYMR90~1\AppData\Local\Temp\ccEL7hUr.s:23872  .debug_str:000000000001343a .LASF3435
C:\Users\CYMR90~1\AppData\Local\Temp\ccEL7hUr.s:26327  .debug_str:000000000001d4b7 .LASF3436
C:\Users\CYMR90~1\AppData\Local\Temp\ccEL7hUr.s:28963  .debug_str:0000000000027a5a .LASF3437
C:\Users\CYMR90~1\AppData\Local\Temp\ccEL7hUr.s:30209  .debug_str:000000000002ca95 .LASF3438
C:\Users\CYMR90~1\AppData\Local\Temp\ccEL7hUr.s:19526  .debug_str:0000000000001aae .LASF3439
C:\Users\CYMR90~1\AppData\Local\Temp\ccEL7hUr.s:20090  .debug_str:0000000000003e50 .LASF3440
C:\Users\CYMR90~1\AppData\Local\Temp\ccEL7hUr.s:29895  .debug_str:000000000002b535 .LASF3441
C:\Users\CYMR90~1\AppData\Local\Temp\ccEL7hUr.s:21836  .debug_str:000000000000afe7 .LASF3442
C:\Users\CYMR90~1\AppData\Local\Temp\ccEL7hUr.s:24022  .debug_str:0000000000013dde .LASF3443
C:\Users\CYMR90~1\AppData\Local\Temp\ccEL7hUr.s:20354  .debug_str:0000000000005039 .LASF3444
C:\Users\CYMR90~1\AppData\Local\Temp\ccEL7hUr.s:28789  .debug_str:0000000000026ef9 .LASF3445
C:\Users\CYMR90~1\AppData\Local\Temp\ccEL7hUr.s:20544  .debug_str:0000000000005bd3 .LASF3446
C:\Users\CYMR90~1\AppData\Local\Temp\ccEL7hUr.s:21934  .debug_str:000000000000b649 .LASF3447
C:\Users\CYMR90~1\AppData\Local\Temp\ccEL7hUr.s:20480  .debug_str:00000000000057d3 .LASF3448
C:\Users\CYMR90~1\AppData\Local\Temp\ccEL7hUr.s:23588  .debug_str:0000000000012175 .LASF3449
C:\Users\CYMR90~1\AppData\Local\Temp\ccEL7hUr.s:28953  .debug_str:00000000000279bd .LASF3450
C:\Users\CYMR90~1\AppData\Local\Temp\ccEL7hUr.s:25365  .debug_str:00000000000194fa .LASF3451
C:\Users\CYMR90~1\AppData\Local\Temp\ccEL7hUr.s:24164  .debug_str:00000000000146ab .LASF3452
C:\Users\CYMR90~1\AppData\Local\Temp\ccEL7hUr.s:30237  .debug_str:000000000002ccc7 .LASF3453
C:\Users\CYMR90~1\AppData\Local\Temp\ccEL7hUr.s:26829  .debug_str:000000000001f3b1 .LASF3454
C:\Users\CYMR90~1\AppData\Local\Temp\ccEL7hUr.s:23520  .debug_str:0000000000011d3c .LASF3455
C:\Users\CYMR90~1\AppData\Local\Temp\ccEL7hUr.s:20944  .debug_str:0000000000007531 .LASF3456
C:\Users\CYMR90~1\AppData\Local\Temp\ccEL7hUr.s:27911  .debug_str:000000000002352c .LASF3457
C:\Users\CYMR90~1\AppData\Local\Temp\ccEL7hUr.s:24518  .debug_str:0000000000015caf .LASF3458
C:\Users\CYMR90~1\AppData\Local\Temp\ccEL7hUr.s:21170  .debug_str:000000000000853b .LASF3459
C:\Users\CYMR90~1\AppData\Local\Temp\ccEL7hUr.s:25059  .debug_str:00000000000180a8 .LASF3460
C:\Users\CYMR90~1\AppData\Local\Temp\ccEL7hUr.s:29957  .debug_str:000000000002b987 .LASF3461
C:\Users\CYMR90~1\AppData\Local\Temp\ccEL7hUr.s:28523  .debug_str:0000000000025e69 .LASF3462
C:\Users\CYMR90~1\AppData\Local\Temp\ccEL7hUr.s:19484  .debug_str:000000000000182c .LASF3463
C:\Users\CYMR90~1\AppData\Local\Temp\ccEL7hUr.s:20518  .debug_str:00000000000059fc .LASF3464
C:\Users\CYMR90~1\AppData\Local\Temp\ccEL7hUr.s:26615  .debug_str:000000000001e683 .LASF3465
C:\Users\CYMR90~1\AppData\Local\Temp\ccEL7hUr.s:26837  .debug_str:000000000001f42f .LASF3466
C:\Users\CYMR90~1\AppData\Local\Temp\ccEL7hUr.s:27955  .debug_str:0000000000023834 .LASF3467
C:\Users\CYMR90~1\AppData\Local\Temp\ccEL7hUr.s:19480  .debug_str:00000000000017e5 .LASF3468
C:\Users\CYMR90~1\AppData\Local\Temp\ccEL7hUr.s:25169  .debug_str:000000000001873d .LASF3469
C:\Users\CYMR90~1\AppData\Local\Temp\ccEL7hUr.s:30191  .debug_str:000000000002c978 .LASF3470
C:\Users\CYMR90~1\AppData\Local\Temp\ccEL7hUr.s:21906  .debug_str:000000000000b3f9 .LASF3471
C:\Users\CYMR90~1\AppData\Local\Temp\ccEL7hUr.s:25041  .debug_str:0000000000017fc9 .LASF3472
C:\Users\CYMR90~1\AppData\Local\Temp\ccEL7hUr.s:19418  .debug_str:00000000000013b8 .LASF3473
C:\Users\CYMR90~1\AppData\Local\Temp\ccEL7hUr.s:23436  .debug_str:00000000000116d3 .LASF3474
C:\Users\CYMR90~1\AppData\Local\Temp\ccEL7hUr.s:22130  .debug_str:000000000000c415 .LASF3475
C:\Users\CYMR90~1\AppData\Local\Temp\ccEL7hUr.s:22394  .debug_str:000000000000d629 .LASF3476
C:\Users\CYMR90~1\AppData\Local\Temp\ccEL7hUr.s:29953  .debug_str:000000000002b93c .LASF3477
C:\Users\CYMR90~1\AppData\Local\Temp\ccEL7hUr.s:27035  .debug_str:000000000002003a .LASF3478
C:\Users\CYMR90~1\AppData\Local\Temp\ccEL7hUr.s:22874  .debug_str:000000000000f34e .LASF3479
C:\Users\CYMR90~1\AppData\Local\Temp\ccEL7hUr.s:28447  .debug_str:00000000000259f5 .LASF3480
C:\Users\CYMR90~1\AppData\Local\Temp\ccEL7hUr.s:27411  .debug_str:000000000002177d .LASF3481
C:\Users\CYMR90~1\AppData\Local\Temp\ccEL7hUr.s:23128  .debug_str:000000000001037f .LASF3482
C:\Users\CYMR90~1\AppData\Local\Temp\ccEL7hUr.s:27033  .debug_str:0000000000020013 .LASF3483
C:\Users\CYMR90~1\AppData\Local\Temp\ccEL7hUr.s:24174  .debug_str:000000000001479a .LASF3484
C:\Users\CYMR90~1\AppData\Local\Temp\ccEL7hUr.s:29833  .debug_str:000000000002b123 .LASF3485
C:\Users\CYMR90~1\AppData\Local\Temp\ccEL7hUr.s:21180  .debug_str:00000000000085d2 .LASF3486
C:\Users\CYMR90~1\AppData\Local\Temp\ccEL7hUr.s:27065  .debug_str:00000000000201d4 .LASF3487
C:\Users\CYMR90~1\AppData\Local\Temp\ccEL7hUr.s:28583  .debug_str:000000000002623c .LASF3488
C:\Users\CYMR90~1\AppData\Local\Temp\ccEL7hUr.s:30239  .debug_str:000000000002ccee .LASF3489
C:\Users\CYMR90~1\AppData\Local\Temp\ccEL7hUr.s:21556  .debug_str:0000000000009d83 .LASF3490
C:\Users\CYMR90~1\AppData\Local\Temp\ccEL7hUr.s:25403  .debug_str:0000000000019743 .LASF3491
C:\Users\CYMR90~1\AppData\Local\Temp\ccEL7hUr.s:22850  .debug_str:000000000000f1b0 .LASF3492
C:\Users\CYMR90~1\AppData\Local\Temp\ccEL7hUr.s:26749  .debug_str:000000000001ee9c .LASF3493
C:\Users\CYMR90~1\AppData\Local\Temp\ccEL7hUr.s:25223  .debug_str:0000000000018adb .LASF3494
C:\Users\CYMR90~1\AppData\Local\Temp\ccEL7hUr.s:29759  .debug_str:000000000002ac92 .LASF3495
C:\Users\CYMR90~1\AppData\Local\Temp\ccEL7hUr.s:25983  .debug_str:000000000001bdbe .LASF3496
C:\Users\CYMR90~1\AppData\Local\Temp\ccEL7hUr.s:20078  .debug_str:0000000000003d91 .LASF3497
C:\Users\CYMR90~1\AppData\Local\Temp\ccEL7hUr.s:21820  .debug_str:000000000000ae42 .LASF3498
C:\Users\CYMR90~1\AppData\Local\Temp\ccEL7hUr.s:22870  .debug_str:000000000000f300 .LASF3499
C:\Users\CYMR90~1\AppData\Local\Temp\ccEL7hUr.s:27489  .debug_str:0000000000021c4c .LASF3500
C:\Users\CYMR90~1\AppData\Local\Temp\ccEL7hUr.s:24730  .debug_str:0000000000016b30 .LASF3501
C:\Users\CYMR90~1\AppData\Local\Temp\ccEL7hUr.s:26513  .debug_str:000000000001e0be .LASF3502
C:\Users\CYMR90~1\AppData\Local\Temp\ccEL7hUr.s:25749  .debug_str:000000000001aee6 .LASF3503
C:\Users\CYMR90~1\AppData\Local\Temp\ccEL7hUr.s:27513  .debug_str:0000000000021ded .LASF3504
C:\Users\CYMR90~1\AppData\Local\Temp\ccEL7hUr.s:21784  .debug_str:000000000000abe6 .LASF3505
C:\Users\CYMR90~1\AppData\Local\Temp\ccEL7hUr.s:24140  .debug_str:0000000000014520 .LASF3506
C:\Users\CYMR90~1\AppData\Local\Temp\ccEL7hUr.s:20612  .debug_str:0000000000005fd8 .LASF3507
C:\Users\CYMR90~1\AppData\Local\Temp\ccEL7hUr.s:27639  .debug_str:00000000000224fc .LASF3508
C:\Users\CYMR90~1\AppData\Local\Temp\ccEL7hUr.s:23762  .debug_str:0000000000012cce .LASF3509
C:\Users\CYMR90~1\AppData\Local\Temp\ccEL7hUr.s:25815  .debug_str:000000000001b39f .LASF3510
C:\Users\CYMR90~1\AppData\Local\Temp\ccEL7hUr.s:25689  .debug_str:000000000001ab42 .LASF3511
C:\Users\CYMR90~1\AppData\Local\Temp\ccEL7hUr.s:20374  .debug_str:0000000000005172 .LASF3512
C:\Users\CYMR90~1\AppData\Local\Temp\ccEL7hUr.s:27111  .debug_str:00000000000204cb .LASF3513
C:\Users\CYMR90~1\AppData\Local\Temp\ccEL7hUr.s:23838  .debug_str:00000000000131d4 .LASF3514
C:\Users\CYMR90~1\AppData\Local\Temp\ccEL7hUr.s:21664  .debug_str:000000000000a468 .LASF3515
C:\Users\CYMR90~1\AppData\Local\Temp\ccEL7hUr.s:26145  .debug_str:000000000001c7b4 .LASF3516
C:\Users\CYMR90~1\AppData\Local\Temp\ccEL7hUr.s:20874  .debug_str:0000000000007062 .LASF3517
C:\Users\CYMR90~1\AppData\Local\Temp\ccEL7hUr.s:28767  .debug_str:0000000000026da0 .LASF3518
C:\Users\CYMR90~1\AppData\Local\Temp\ccEL7hUr.s:20288  .debug_str:0000000000004c2a .LASF3519
C:\Users\CYMR90~1\AppData\Local\Temp\ccEL7hUr.s:20610  .debug_str:0000000000005fc7 .LASF3520
C:\Users\CYMR90~1\AppData\Local\Temp\ccEL7hUr.s:19596  .debug_str:0000000000001efc .LASF3521
C:\Users\CYMR90~1\AppData\Local\Temp\ccEL7hUr.s:25117  .debug_str:000000000001844d .LASF3522
C:\Users\CYMR90~1\AppData\Local\Temp\ccEL7hUr.s:24835  .debug_str:000000000001730a .LASF3523
C:\Users\CYMR90~1\AppData\Local\Temp\ccEL7hUr.s:25865  .debug_str:000000000001b688 .LASF3524
C:\Users\CYMR90~1\AppData\Local\Temp\ccEL7hUr.s:22552  .debug_str:000000000000dfd6 .LASF3525
C:\Users\CYMR90~1\AppData\Local\Temp\ccEL7hUr.s:27243  .debug_str:0000000000020d67 .LASF3526
C:\Users\CYMR90~1\AppData\Local\Temp\ccEL7hUr.s:28101  .debug_str:00000000000241a4 .LASF3527
C:\Users\CYMR90~1\AppData\Local\Temp\ccEL7hUr.s:28965  .debug_str:0000000000027a71 .LASF3528
C:\Users\CYMR90~1\AppData\Local\Temp\ccEL7hUr.s:27365  .debug_str:00000000000214b6 .LASF3529
C:\Users\CYMR90~1\AppData\Local\Temp\ccEL7hUr.s:28607  .debug_str:000000000002639a .LASF3530
C:\Users\CYMR90~1\AppData\Local\Temp\ccEL7hUr.s:20892  .debug_str:00000000000071d0 .LASF3531
C:\Users\CYMR90~1\AppData\Local\Temp\ccEL7hUr.s:25873  .debug_str:000000000001b715 .LASF3532
C:\Users\CYMR90~1\AppData\Local\Temp\ccEL7hUr.s:19688  .debug_str:00000000000023d4 .LASF3533
C:\Users\CYMR90~1\AppData\Local\Temp\ccEL7hUr.s:28363  .debug_str:00000000000253b9 .LASF3534
C:\Users\CYMR90~1\AppData\Local\Temp\ccEL7hUr.s:22136  .debug_str:000000000000c494 .LASF3535
C:\Users\CYMR90~1\AppData\Local\Temp\ccEL7hUr.s:24598  .debug_str:0000000000016229 .LASF3536
C:\Users\CYMR90~1\AppData\Local\Temp\ccEL7hUr.s:28801  .debug_str:0000000000026f8a .LASF3537
C:\Users\CYMR90~1\AppData\Local\Temp\ccEL7hUr.s:21772  .debug_str:000000000000ab16 .LASF3538
C:\Users\CYMR90~1\AppData\Local\Temp\ccEL7hUr.s:22628  .debug_str:000000000000e454 .LASF3539
C:\Users\CYMR90~1\AppData\Local\Temp\ccEL7hUr.s:20292  .debug_str:0000000000004c79 .LASF3540
C:\Users\CYMR90~1\AppData\Local\Temp\ccEL7hUr.s:19276  .debug_str:0000000000000b06 .LASF3541
C:\Users\CYMR90~1\AppData\Local\Temp\ccEL7hUr.s:27523  .debug_str:0000000000021e91 .LASF3542
C:\Users\CYMR90~1\AppData\Local\Temp\ccEL7hUr.s:21790  .debug_str:000000000000ac3b .LASF3543
C:\Users\CYMR90~1\AppData\Local\Temp\ccEL7hUr.s:19990  .debug_str:00000000000037f4 .LASF3544
C:\Users\CYMR90~1\AppData\Local\Temp\ccEL7hUr.s:19444  .debug_str:0000000000001510 .LASF3545
C:\Users\CYMR90~1\AppData\Local\Temp\ccEL7hUr.s:25137  .debug_str:00000000000185aa .LASF3546
C:\Users\CYMR90~1\AppData\Local\Temp\ccEL7hUr.s:24620  .debug_str:0000000000016376 .LASF3547
C:\Users\CYMR90~1\AppData\Local\Temp\ccEL7hUr.s:23826  .debug_str:0000000000013108 .LASF3548
C:\Users\CYMR90~1\AppData\Local\Temp\ccEL7hUr.s:25481  .debug_str:0000000000019cdd .LASF3549
C:\Users\CYMR90~1\AppData\Local\Temp\ccEL7hUr.s:29723  .debug_str:000000000002aa75 .LASF3550
C:\Users\CYMR90~1\AppData\Local\Temp\ccEL7hUr.s:24682  .debug_str:000000000001677f .LASF3551
C:\Users\CYMR90~1\AppData\Local\Temp\ccEL7hUr.s:23742  .debug_str:0000000000012bb1 .LASF3552
C:\Users\CYMR90~1\AppData\Local\Temp\ccEL7hUr.s:25773  .debug_str:000000000001b0bb .LASF3553
C:\Users\CYMR90~1\AppData\Local\Temp\ccEL7hUr.s:28637  .debug_str:000000000002659a .LASF3554
C:\Users\CYMR90~1\AppData\Local\Temp\ccEL7hUr.s:21106  .debug_str:00000000000080ec .LASF3555
C:\Users\CYMR90~1\AppData\Local\Temp\ccEL7hUr.s:19808  .debug_str:0000000000002bd1 .LASF3556
C:\Users\CYMR90~1\AppData\Local\Temp\ccEL7hUr.s:27451  .debug_str:00000000000219d2 .LASF3557
C:\Users\CYMR90~1\AppData\Local\Temp\ccEL7hUr.s:26785  .debug_str:000000000001f115 .LASF3558
C:\Users\CYMR90~1\AppData\Local\Temp\ccEL7hUr.s:27077  .debug_str:000000000002027c .LASF3559
C:\Users\CYMR90~1\AppData\Local\Temp\ccEL7hUr.s:27607  .debug_str:000000000002235e .LASF3560
C:\Users\CYMR90~1\AppData\Local\Temp\ccEL7hUr.s:23256  .debug_str:0000000000010bba .LASF3561
C:\Users\CYMR90~1\AppData\Local\Temp\ccEL7hUr.s:20822  .debug_str:0000000000006d0b .LASF3562
C:\Users\CYMR90~1\AppData\Local\Temp\ccEL7hUr.s:29881  .debug_str:000000000002b491 .LASF3563
C:\Users\CYMR90~1\AppData\Local\Temp\ccEL7hUr.s:29711  .debug_str:000000000002a9b4 .LASF3564
C:\Users\CYMR90~1\AppData\Local\Temp\ccEL7hUr.s:19458  .debug_str:0000000000001605 .LASF3565
C:\Users\CYMR90~1\AppData\Local\Temp\ccEL7hUr.s:19258  .debug_str:0000000000000984 .LASF3566
C:\Users\CYMR90~1\AppData\Local\Temp\ccEL7hUr.s:28733  .debug_str:0000000000026b58 .LASF3567
C:\Users\CYMR90~1\AppData\Local\Temp\ccEL7hUr.s:23044  .debug_str:000000000000fe15 .LASF3568
C:\Users\CYMR90~1\AppData\Local\Temp\ccEL7hUr.s:30181  .debug_str:000000000002c8c1 .LASF3569
C:\Users\CYMR90~1\AppData\Local\Temp\ccEL7hUr.s:25299  .debug_str:0000000000019113 .LASF3570
C:\Users\CYMR90~1\AppData\Local\Temp\ccEL7hUr.s:29819  .debug_str:000000000002b008 .LASF3571
C:\Users\CYMR90~1\AppData\Local\Temp\ccEL7hUr.s:25341  .debug_str:0000000000019374 .LASF3572
C:\Users\CYMR90~1\AppData\Local\Temp\ccEL7hUr.s:27593  .debug_str:00000000000222b2 .LASF3573
C:\Users\CYMR90~1\AppData\Local\Temp\ccEL7hUr.s:24076  .debug_str:000000000001410e .LASF3574
C:\Users\CYMR90~1\AppData\Local\Temp\ccEL7hUr.s:22232  .debug_str:000000000000cb15 .LASF3575
C:\Users\CYMR90~1\AppData\Local\Temp\ccEL7hUr.s:19874  .debug_str:0000000000002ff9 .LASF3576
C:\Users\CYMR90~1\AppData\Local\Temp\ccEL7hUr.s:25655  .debug_str:000000000001a918 .LASF3577
C:\Users\CYMR90~1\AppData\Local\Temp\ccEL7hUr.s:26863  .debug_str:000000000001f5ab .LASF3578
C:\Users\CYMR90~1\AppData\Local\Temp\ccEL7hUr.s:29517  .debug_str:0000000000029dfa .LASF3579
C:\Users\CYMR90~1\AppData\Local\Temp\ccEL7hUr.s:28721  .debug_str:0000000000026ac5 .LASF3580
C:\Users\CYMR90~1\AppData\Local\Temp\ccEL7hUr.s:27655  .debug_str:0000000000022605 .LASF3581
C:\Users\CYMR90~1\AppData\Local\Temp\ccEL7hUr.s:28309  .debug_str:0000000000024f4b .LASF3582
C:\Users\CYMR90~1\AppData\Local\Temp\ccEL7hUr.s:26463  .debug_str:000000000001dd93 .LASF3583
C:\Users\CYMR90~1\AppData\Local\Temp\ccEL7hUr.s:26521  .debug_str:000000000001e142 .LASF3584
C:\Users\CYMR90~1\AppData\Local\Temp\ccEL7hUr.s:25565  .debug_str:000000000001a19b .LASF3585
C:\Users\CYMR90~1\AppData\Local\Temp\ccEL7hUr.s:19162  .debug_str:00000000000003f6 .LASF3586
C:\Users\CYMR90~1\AppData\Local\Temp\ccEL7hUr.s:24925  .debug_str:0000000000017896 .LASF3587
C:\Users\CYMR90~1\AppData\Local\Temp\ccEL7hUr.s:28493  .debug_str:0000000000025ca7 .LASF3588
C:\Users\CYMR90~1\AppData\Local\Temp\ccEL7hUr.s:20404  .debug_str:000000000000533c .LASF3589
C:\Users\CYMR90~1\AppData\Local\Temp\ccEL7hUr.s:19496  .debug_str:0000000000001901 .LASF3590
C:\Users\CYMR90~1\AppData\Local\Temp\ccEL7hUr.s:24476  .debug_str:00000000000159fa .LASF3591
C:\Users\CYMR90~1\AppData\Local\Temp\ccEL7hUr.s:22950  .debug_str:000000000000f7d5 .LASF3592
C:\Users\CYMR90~1\AppData\Local\Temp\ccEL7hUr.s:21472  .debug_str:00000000000097fe .LASF3593
C:\Users\CYMR90~1\AppData\Local\Temp\ccEL7hUr.s:26537  .debug_str:000000000001e22d .LASF3594
C:\Users\CYMR90~1\AppData\Local\Temp\ccEL7hUr.s:19588  .debug_str:0000000000001e86 .LASF3595
C:\Users\CYMR90~1\AppData\Local\Temp\ccEL7hUr.s:26845  .debug_str:000000000001f4c3 .LASF3596
C:\Users\CYMR90~1\AppData\Local\Temp\ccEL7hUr.s:21448  .debug_str:000000000000969c .LASF3597
C:\Users\CYMR90~1\AppData\Local\Temp\ccEL7hUr.s:25049  .debug_str:000000000001804b .LASF3598
C:\Users\CYMR90~1\AppData\Local\Temp\ccEL7hUr.s:28595  .debug_str:00000000000262e2 .LASF3599
C:\Users\CYMR90~1\AppData\Local\Temp\ccEL7hUr.s:22590  .debug_str:000000000000e208 .LASF3600
C:\Users\CYMR90~1\AppData\Local\Temp\ccEL7hUr.s:26599  .debug_str:000000000001e5dc .LASF3601
C:\Users\CYMR90~1\AppData\Local\Temp\ccEL7hUr.s:30079  .debug_str:000000000002c1d2 .LASF3602
C:\Users\CYMR90~1\AppData\Local\Temp\ccEL7hUr.s:22898  .debug_str:000000000000f4e1 .LASF3603
C:\Users\CYMR90~1\AppData\Local\Temp\ccEL7hUr.s:26887  .debug_str:000000000001f719 .LASF3604
C:\Users\CYMR90~1\AppData\Local\Temp\ccEL7hUr.s:20276  .debug_str:0000000000004b72 .LASF3605
C:\Users\CYMR90~1\AppData\Local\Temp\ccEL7hUr.s:26781  .debug_str:000000000001f0e1 .LASF3606
C:\Users\CYMR90~1\AppData\Local\Temp\ccEL7hUr.s:22600  .debug_str:000000000000e2a8 .LASF3607
C:\Users\CYMR90~1\AppData\Local\Temp\ccEL7hUr.s:29835  .debug_str:000000000002b14a .LASF3608
C:\Users\CYMR90~1\AppData\Local\Temp\ccEL7hUr.s:27441  .debug_str:0000000000021956 .LASF3609
C:\Users\CYMR90~1\AppData\Local\Temp\ccEL7hUr.s:24817  .debug_str:00000000000171ed .LASF3610
C:\Users\CYMR90~1\AppData\Local\Temp\ccEL7hUr.s:26337  .debug_str:000000000001d564 .LASF3611
C:\Users\CYMR90~1\AppData\Local\Temp\ccEL7hUr.s:24869  .debug_str:0000000000017508 .LASF3612
C:\Users\CYMR90~1\AppData\Local\Temp\ccEL7hUr.s:28327  .debug_str:00000000000250d3 .LASF3613
C:\Users\CYMR90~1\AppData\Local\Temp\ccEL7hUr.s:26487  .debug_str:000000000001df53 .LASF3614
C:\Users\CYMR90~1\AppData\Local\Temp\ccEL7hUr.s:27413  .debug_str:00000000000217bc .LASF3615
C:\Users\CYMR90~1\AppData\Local\Temp\ccEL7hUr.s:23150  .debug_str:00000000000104b9 .LASF3616
C:\Users\CYMR90~1\AppData\Local\Temp\ccEL7hUr.s:24268  .debug_str:0000000000014d62 .LASF3617
C:\Users\CYMR90~1\AppData\Local\Temp\ccEL7hUr.s:30201  .debug_str:000000000002ca37 .LASF3618
C:\Users\CYMR90~1\AppData\Local\Temp\ccEL7hUr.s:22322  .debug_str:000000000000d122 .LASF3619
C:\Users\CYMR90~1\AppData\Local\Temp\ccEL7hUr.s:25099  .debug_str:0000000000018350 .LASF3620
C:\Users\CYMR90~1\AppData\Local\Temp\ccEL7hUr.s:21476  .debug_str:0000000000009830 .LASF3621
C:\Users\CYMR90~1\AppData\Local\Temp\ccEL7hUr.s:28593  .debug_str:00000000000262c5 .LASF3622
C:\Users\CYMR90~1\AppData\Local\Temp\ccEL7hUr.s:29653  .debug_str:000000000002a65b .LASF3623
C:\Users\CYMR90~1\AppData\Local\Temp\ccEL7hUr.s:22014  .debug_str:000000000000bb76 .LASF3624
C:\Users\CYMR90~1\AppData\Local\Temp\ccEL7hUr.s:29071  .debug_str:0000000000028271 .LASF3625
C:\Users\CYMR90~1\AppData\Local\Temp\ccEL7hUr.s:25989  .debug_str:000000000001be36 .LASF3626
C:\Users\CYMR90~1\AppData\Local\Temp\ccEL7hUr.s:29527  .debug_str:0000000000029e84 .LASF3627
C:\Users\CYMR90~1\AppData\Local\Temp\ccEL7hUr.s:19660  .debug_str:000000000000225f .LASF3628
C:\Users\CYMR90~1\AppData\Local\Temp\ccEL7hUr.s:28649  .debug_str:0000000000026675 .LASF3629
C:\Users\CYMR90~1\AppData\Local\Temp\ccEL7hUr.s:25433  .debug_str:00000000000199e7 .LASF3630
C:\Users\CYMR90~1\AppData\Local\Temp\ccEL7hUr.s:25359  .debug_str:00000000000194a8 .LASF3631
C:\Users\CYMR90~1\AppData\Local\Temp\ccEL7hUr.s:25777  .debug_str:000000000001b0fb .LASF3632
C:\Users\CYMR90~1\AppData\Local\Temp\ccEL7hUr.s:19668  .debug_str:00000000000022c9 .LASF3633
C:\Users\CYMR90~1\AppData\Local\Temp\ccEL7hUr.s:28991  .debug_str:0000000000027c70 .LASF3634
C:\Users\CYMR90~1\AppData\Local\Temp\ccEL7hUr.s:26423  .debug_str:000000000001dad5 .LASF3635
C:\Users\CYMR90~1\AppData\Local\Temp\ccEL7hUr.s:28345  .debug_str:00000000000252a4 .LASF3636
C:\Users\CYMR90~1\AppData\Local\Temp\ccEL7hUr.s:27657  .debug_str:0000000000022621 .LASF3637
C:\Users\CYMR90~1\AppData\Local\Temp\ccEL7hUr.s:27201  .debug_str:0000000000020a9a .LASF3638
C:\Users\CYMR90~1\AppData\Local\Temp\ccEL7hUr.s:30033  .debug_str:000000000002bef5 .LASF3639
C:\Users\CYMR90~1\AppData\Local\Temp\ccEL7hUr.s:29777  .debug_str:000000000002adb1 .LASF3640
C:\Users\CYMR90~1\AppData\Local\Temp\ccEL7hUr.s:19218  .debug_str:000000000000072c .LASF3641
C:\Users\CYMR90~1\AppData\Local\Temp\ccEL7hUr.s:22816  .debug_str:000000000000efc2 .LASF3642
C:\Users\CYMR90~1\AppData\Local\Temp\ccEL7hUr.s:28251  .debug_str:0000000000024bb1 .LASF3643
C:\Users\CYMR90~1\AppData\Local\Temp\ccEL7hUr.s:27967  .debug_str:00000000000238d1 .LASF3644
C:\Users\CYMR90~1\AppData\Local\Temp\ccEL7hUr.s:25609  .debug_str:000000000001a5aa .LASF3645
C:\Users\CYMR90~1\AppData\Local\Temp\ccEL7hUr.s:24765  .debug_str:0000000000016eea .LASF3646
C:\Users\CYMR90~1\AppData\Local\Temp\ccEL7hUr.s:25209  .debug_str:0000000000018a18 .LASF3647
C:\Users\CYMR90~1\AppData\Local\Temp\ccEL7hUr.s:29599  .debug_str:000000000002a2d3 .LASF3648
C:\Users\CYMR90~1\AppData\Local\Temp\ccEL7hUr.s:22370  .debug_str:000000000000d462 .LASF3649
C:\Users\CYMR90~1\AppData\Local\Temp\ccEL7hUr.s:24815  .debug_str:00000000000171d0 .LASF3650
C:\Users\CYMR90~1\AppData\Local\Temp\ccEL7hUr.s:24154  .debug_str:0000000000014604 .LASF3651
C:\Users\CYMR90~1\AppData\Local\Temp\ccEL7hUr.s:24242  .debug_str:0000000000014bd4 .LASF3652
C:\Users\CYMR90~1\AppData\Local\Temp\ccEL7hUr.s:26565  .debug_str:000000000001e3da .LASF3653
C:\Users\CYMR90~1\AppData\Local\Temp\ccEL7hUr.s:29397  .debug_str:000000000002971d .LASF3654
C:\Users\CYMR90~1\AppData\Local\Temp\ccEL7hUr.s:19802  .debug_str:0000000000002b7b .LASF3655
C:\Users\CYMR90~1\AppData\Local\Temp\ccEL7hUr.s:26763  .debug_str:000000000001ef89 .LASF3656
C:\Users\CYMR90~1\AppData\Local\Temp\ccEL7hUr.s:21598  .debug_str:000000000000a02f .LASF3657
C:\Users\CYMR90~1\AppData\Local\Temp\ccEL7hUr.s:19926  .debug_str:00000000000033c8 .LASF3658
C:\Users\CYMR90~1\AppData\Local\Temp\ccEL7hUr.s:21834  .debug_str:000000000000afce .LASF3659
C:\Users\CYMR90~1\AppData\Local\Temp\ccEL7hUr.s:20788  .debug_str:0000000000006ab9 .LASF3660
C:\Users\CYMR90~1\AppData\Local\Temp\ccEL7hUr.s:28271  .debug_str:0000000000024cfc .LASF3661
C:\Users\CYMR90~1\AppData\Local\Temp\ccEL7hUr.s:25675  .debug_str:000000000001aa4d .LASF3662
C:\Users\CYMR90~1\AppData\Local\Temp\ccEL7hUr.s:25535  .debug_str:0000000000019ff8 .LASF3663
C:\Users\CYMR90~1\AppData\Local\Temp\ccEL7hUr.s:20746  .debug_str:0000000000006834 .LASF3664
C:\Users\CYMR90~1\AppData\Local\Temp\ccEL7hUr.s:22694  .debug_str:000000000000e879 .LASF3665
C:\Users\CYMR90~1\AppData\Local\Temp\ccEL7hUr.s:22536  .debug_str:000000000000de92 .LASF3666
C:\Users\CYMR90~1\AppData\Local\Temp\ccEL7hUr.s:21172  .debug_str:0000000000008562 .LASF3667
C:\Users\CYMR90~1\AppData\Local\Temp\ccEL7hUr.s:21360  .debug_str:0000000000009109 .LASF3668
C:\Users\CYMR90~1\AppData\Local\Temp\ccEL7hUr.s:21936  .debug_str:000000000000b66b .LASF3669
C:\Users\CYMR90~1\AppData\Local\Temp\ccEL7hUr.s:19952  .debug_str:0000000000003573 .LASF3670
C:\Users\CYMR90~1\AppData\Local\Temp\ccEL7hUr.s:21290  .debug_str:0000000000008c9e .LASF3671
C:\Users\CYMR90~1\AppData\Local\Temp\ccEL7hUr.s:19144  .debug_str:00000000000002de .LASF3672
C:\Users\CYMR90~1\AppData\Local\Temp\ccEL7hUr.s:24811  .debug_str:00000000000171a2 .LASF3673
C:\Users\CYMR90~1\AppData\Local\Temp\ccEL7hUr.s:22096  .debug_str:000000000000c20a .LASF3674
C:\Users\CYMR90~1\AppData\Local\Temp\ccEL7hUr.s:27907  .debug_str:00000000000234f2 .LASF3675
C:\Users\CYMR90~1\AppData\Local\Temp\ccEL7hUr.s:29951  .debug_str:000000000002b922 .LASF3676
C:\Users\CYMR90~1\AppData\Local\Temp\ccEL7hUr.s:23638  .debug_str:00000000000124b6 .LASF3677
C:\Users\CYMR90~1\AppData\Local\Temp\ccEL7hUr.s:23496  .debug_str:0000000000011bd9 .LASF3678
C:\Users\CYMR90~1\AppData\Local\Temp\ccEL7hUr.s:25791  .debug_str:000000000001b20d .LASF3679
C:\Users\CYMR90~1\AppData\Local\Temp\ccEL7hUr.s:27919  .debug_str:00000000000235e2 .LASF3680
C:\Users\CYMR90~1\AppData\Local\Temp\ccEL7hUr.s:29333  .debug_str:00000000000292da .LASF3681
C:\Users\CYMR90~1\AppData\Local\Temp\ccEL7hUr.s:25447  .debug_str:0000000000019ac0 .LASF3682
C:\Users\CYMR90~1\AppData\Local\Temp\ccEL7hUr.s:26747  .debug_str:000000000001ee7d .LASF3683
C:\Users\CYMR90~1\AppData\Local\Temp\ccEL7hUr.s:27845  .debug_str:000000000002311a .LASF3684
C:\Users\CYMR90~1\AppData\Local\Temp\ccEL7hUr.s:28677  .debug_str:0000000000026824 .LASF3685
C:\Users\CYMR90~1\AppData\Local\Temp\ccEL7hUr.s:19318  .debug_str:0000000000000d6a .LASF3686
C:\Users\CYMR90~1\AppData\Local\Temp\ccEL7hUr.s:22762  .debug_str:000000000000ecea .LASF3687
C:\Users\CYMR90~1\AppData\Local\Temp\ccEL7hUr.s:30029  .debug_str:000000000002bec4 .LASF3688
C:\Users\CYMR90~1\AppData\Local\Temp\ccEL7hUr.s:28815  .debug_str:000000000002704f .LASF3689
C:\Users\CYMR90~1\AppData\Local\Temp\ccEL7hUr.s:19788  .debug_str:0000000000002a77 .LASF3690
C:\Users\CYMR90~1\AppData\Local\Temp\ccEL7hUr.s:19468  .debug_str:000000000000168c .LASF3691
C:\Users\CYMR90~1\AppData\Local\Temp\ccEL7hUr.s:20902  .debug_str:00000000000072a4 .LASF3692
C:\Users\CYMR90~1\AppData\Local\Temp\ccEL7hUr.s:22296  .debug_str:000000000000cf3f .LASF3693
C:\Users\CYMR90~1\AppData\Local\Temp\ccEL7hUr.s:20650  .debug_str:0000000000006249 .LASF3694
C:\Users\CYMR90~1\AppData\Local\Temp\ccEL7hUr.s:27301  .debug_str:000000000002106b .LASF3695
C:\Users\CYMR90~1\AppData\Local\Temp\ccEL7hUr.s:27565  .debug_str:00000000000220ef .LASF3696
C:\Users\CYMR90~1\AppData\Local\Temp\ccEL7hUr.s:21454  .debug_str:00000000000096f3 .LASF3697
C:\Users\CYMR90~1\AppData\Local\Temp\ccEL7hUr.s:27963  .debug_str:00000000000238a3 .LASF3698
C:\Users\CYMR90~1\AppData\Local\Temp\ccEL7hUr.s:30151  .debug_str:000000000002c6a2 .LASF3699
C:\Users\CYMR90~1\AppData\Local\Temp\ccEL7hUr.s:23084  .debug_str:00000000000100c1 .LASF3700
C:\Users\CYMR90~1\AppData\Local\Temp\ccEL7hUr.s:22588  .debug_str:000000000000e1ef .LASF3701
C:\Users\CYMR90~1\AppData\Local\Temp\ccEL7hUr.s:26689  .debug_str:000000000001eb3f .LASF3702
C:\Users\CYMR90~1\AppData\Local\Temp\ccEL7hUr.s:20240  .debug_str:00000000000048ab .LASF3703
C:\Users\CYMR90~1\AppData\Local\Temp\ccEL7hUr.s:19538  .debug_str:0000000000001b7c .LASF3704
C:\Users\CYMR90~1\AppData\Local\Temp\ccEL7hUr.s:21536  .debug_str:0000000000009c52 .LASF3705
C:\Users\CYMR90~1\AppData\Local\Temp\ccEL7hUr.s:27819  .debug_str:0000000000022ff2 .LASF3706
C:\Users\CYMR90~1\AppData\Local\Temp\ccEL7hUr.s:23528  .debug_str:0000000000011dd6 .LASF3707
C:\Users\CYMR90~1\AppData\Local\Temp\ccEL7hUr.s:24056  .debug_str:0000000000013ff0 .LASF3708
C:\Users\CYMR90~1\AppData\Local\Temp\ccEL7hUr.s:21420  .debug_str:0000000000009494 .LASF3709
C:\Users\CYMR90~1\AppData\Local\Temp\ccEL7hUr.s:25693  .debug_str:000000000001ab74 .LASF3710
C:\Users\CYMR90~1\AppData\Local\Temp\ccEL7hUr.s:25281  .debug_str:0000000000018f19 .LASF3711
C:\Users\CYMR90~1\AppData\Local\Temp\ccEL7hUr.s:29189  .debug_str:0000000000028a41 .LASF3712
C:\Users\CYMR90~1\AppData\Local\Temp\ccEL7hUr.s:24969  .debug_str:0000000000017b7d .LASF3713
C:\Users\CYMR90~1\AppData\Local\Temp\ccEL7hUr.s:29111  .debug_str:00000000000284fe .LASF3714
C:\Users\CYMR90~1\AppData\Local\Temp\ccEL7hUr.s:22598  .debug_str:000000000000e289 .LASF3715
C:\Users\CYMR90~1\AppData\Local\Temp\ccEL7hUr.s:21086  .debug_str:0000000000007f0c .LASF3716
C:\Users\CYMR90~1\AppData\Local\Temp\ccEL7hUr.s:30087  .debug_str:000000000002c284 .LASF3717
C:\Users\CYMR90~1\AppData\Local\Temp\ccEL7hUr.s:24366  .debug_str:00000000000153c6 .LASF3718
C:\Users\CYMR90~1\AppData\Local\Temp\ccEL7hUr.s:26067  .debug_str:000000000001c309 .LASF3719
C:\Users\CYMR90~1\AppData\Local\Temp\ccEL7hUr.s:25509  .debug_str:0000000000019e59 .LASF3720
C:\Users\CYMR90~1\AppData\Local\Temp\ccEL7hUr.s:28099  .debug_str:0000000000024167 .LASF3721
C:\Users\CYMR90~1\AppData\Local\Temp\ccEL7hUr.s:27351  .debug_str:00000000000213db .LASF3722
C:\Users\CYMR90~1\AppData\Local\Temp\ccEL7hUr.s:21964  .debug_str:000000000000b854 .LASF3723
C:\Users\CYMR90~1\AppData\Local\Temp\ccEL7hUr.s:25557  .debug_str:000000000001a12b .LASF3724
C:\Users\CYMR90~1\AppData\Local\Temp\ccEL7hUr.s:19112  .debug_str:00000000000000dc .LASF3725
C:\Users\CYMR90~1\AppData\Local\Temp\ccEL7hUr.s:23490  .debug_str:0000000000011ae4 .LASF3726
C:\Users\CYMR90~1\AppData\Local\Temp\ccEL7hUr.s:27391  .debug_str:0000000000021642 .LASF3727
C:\Users\CYMR90~1\AppData\Local\Temp\ccEL7hUr.s:27653  .debug_str:00000000000225e0 .LASF3728
C:\Users\CYMR90~1\AppData\Local\Temp\ccEL7hUr.s:24552  .debug_str:0000000000015f0e .LASF3729
C:\Users\CYMR90~1\AppData\Local\Temp\ccEL7hUr.s:29459  .debug_str:0000000000029a9c .LASF3730
C:\Users\CYMR90~1\AppData\Local\Temp\ccEL7hUr.s:22202  .debug_str:000000000000c89b .LASF3731
C:\Users\CYMR90~1\AppData\Local\Temp\ccEL7hUr.s:30263  .debug_str:000000000002ce42 .LASF3732
C:\Users\CYMR90~1\AppData\Local\Temp\ccEL7hUr.s:27941  .debug_str:0000000000023749 .LASF3733
C:\Users\CYMR90~1\AppData\Local\Temp\ccEL7hUr.s:28361  .debug_str:0000000000025395 .LASF3734
C:\Users\CYMR90~1\AppData\Local\Temp\ccEL7hUr.s:23530  .debug_str:0000000000011deb .LASF3735
C:\Users\CYMR90~1\AppData\Local\Temp\ccEL7hUr.s:23888  .debug_str:00000000000135a4 .LASF3736
C:\Users\CYMR90~1\AppData\Local\Temp\ccEL7hUr.s:19562  .debug_str:0000000000001ccc .LASF3737
C:\Users\CYMR90~1\AppData\Local\Temp\ccEL7hUr.s:20872  .debug_str:000000000000703e .LASF3738
C:\Users\CYMR90~1\AppData\Local\Temp\ccEL7hUr.s:29907  .debug_str:000000000002b620 .LASF3739
C:\Users\CYMR90~1\AppData\Local\Temp\ccEL7hUr.s:24582  .debug_str:000000000001613c .LASF3740
C:\Users\CYMR90~1\AppData\Local\Temp\ccEL7hUr.s:25369  .debug_str:0000000000019549 .LASF3741
C:\Users\CYMR90~1\AppData\Local\Temp\ccEL7hUr.s:22474  .debug_str:000000000000dae7 .LASF3742
C:\Users\CYMR90~1\AppData\Local\Temp\ccEL7hUr.s:23734  .debug_str:0000000000012b0a .LASF3743
C:\Users\CYMR90~1\AppData\Local\Temp\ccEL7hUr.s:19340  .debug_str:0000000000000f49 .LASF3744
C:\Users\CYMR90~1\AppData\Local\Temp\ccEL7hUr.s:25639  .debug_str:000000000001a7bb .LASF3745
C:\Users\CYMR90~1\AppData\Local\Temp\ccEL7hUr.s:20162  .debug_str:0000000000004350 .LASF3746
C:\Users\CYMR90~1\AppData\Local\Temp\ccEL7hUr.s:25879  .debug_str:000000000001b777 .LASF3747
C:\Users\CYMR90~1\AppData\Local\Temp\ccEL7hUr.s:20424  .debug_str:0000000000005459 .LASF3748
C:\Users\CYMR90~1\AppData\Local\Temp\ccEL7hUr.s:21520  .debug_str:0000000000009b3d .LASF3749
C:\Users\CYMR90~1\AppData\Local\Temp\ccEL7hUr.s:20694  .debug_str:00000000000064e3 .LASF3750
C:\Users\CYMR90~1\AppData\Local\Temp\ccEL7hUr.s:26385  .debug_str:000000000001d877 .LASF3751
C:\Users\CYMR90~1\AppData\Local\Temp\ccEL7hUr.s:28839  .debug_str:00000000000272a8 .LASF3752
C:\Users\CYMR90~1\AppData\Local\Temp\ccEL7hUr.s:27587  .debug_str:000000000002223a .LASF3753
C:\Users\CYMR90~1\AppData\Local\Temp\ccEL7hUr.s:20730  .debug_str:0000000000006702 .LASF3754
C:\Users\CYMR90~1\AppData\Local\Temp\ccEL7hUr.s:29469  .debug_str:0000000000029b49 .LASF3755
C:\Users\CYMR90~1\AppData\Local\Temp\ccEL7hUr.s:26841  .debug_str:000000000001f489 .LASF3756
C:\Users\CYMR90~1\AppData\Local\Temp\ccEL7hUr.s:22788  .debug_str:000000000000ee55 .LASF3757
C:\Users\CYMR90~1\AppData\Local\Temp\ccEL7hUr.s:21786  .debug_str:000000000000ac00 .LASF3758
C:\Users\CYMR90~1\AppData\Local\Temp\ccEL7hUr.s:19202  .debug_str:000000000000060d .LASF3759
C:\Users\CYMR90~1\AppData\Local\Temp\ccEL7hUr.s:23030  .debug_str:000000000000fd49 .LASF3760
C:\Users\CYMR90~1\AppData\Local\Temp\ccEL7hUr.s:21970  .debug_str:000000000000b8aa .LASF3761
C:\Users\CYMR90~1\AppData\Local\Temp\ccEL7hUr.s:22742  .debug_str:000000000000eba8 .LASF3762
C:\Users\CYMR90~1\AppData\Local\Temp\ccEL7hUr.s:20908  .debug_str:000000000000730d .LASF3763
C:\Users\CYMR90~1\AppData\Local\Temp\ccEL7hUr.s:28905  .debug_str:0000000000027650 .LASF3764
C:\Users\CYMR90~1\AppData\Local\Temp\ccEL7hUr.s:26309  .debug_str:000000000001d38b .LASF3765
C:\Users\CYMR90~1\AppData\Local\Temp\ccEL7hUr.s:23832  .debug_str:0000000000013168 .LASF3766
C:\Users\CYMR90~1\AppData\Local\Temp\ccEL7hUr.s:25893  .debug_str:000000000001b872 .LASF3767
C:\Users\CYMR90~1\AppData\Local\Temp\ccEL7hUr.s:29869  .debug_str:000000000002b3a8 .LASF3768
C:\Users\CYMR90~1\AppData\Local\Temp\ccEL7hUr.s:23168  .debug_str:00000000000105bd .LASF3769
C:\Users\CYMR90~1\AppData\Local\Temp\ccEL7hUr.s:29141  .debug_str:0000000000028739 .LASF3770
C:\Users\CYMR90~1\AppData\Local\Temp\ccEL7hUr.s:22182  .debug_str:000000000000c766 .LASF3771
C:\Users\CYMR90~1\AppData\Local\Temp\ccEL7hUr.s:19644  .debug_str:000000000000214c .LASF3772
C:\Users\CYMR90~1\AppData\Local\Temp\ccEL7hUr.s:23326  .debug_str:0000000000011038 .LASF3773
C:\Users\CYMR90~1\AppData\Local\Temp\ccEL7hUr.s:23068  .debug_str:000000000000ffae .LASF3774
C:\Users\CYMR90~1\AppData\Local\Temp\ccEL7hUr.s:23276  .debug_str:0000000000010d13 .LASF3775
C:\Users\CYMR90~1\AppData\Local\Temp\ccEL7hUr.s:27567  .debug_str:0000000000022107 .LASF3776
C:\Users\CYMR90~1\AppData\Local\Temp\ccEL7hUr.s:23948  .debug_str:0000000000013955 .LASF3777
C:\Users\CYMR90~1\AppData\Local\Temp\ccEL7hUr.s:21076  .debug_str:0000000000007e77 .LASF3778
C:\Users\CYMR90~1\AppData\Local\Temp\ccEL7hUr.s:27795  .debug_str:0000000000022e81 .LASF3779
C:\Users\CYMR90~1\AppData\Local\Temp\ccEL7hUr.s:29909  .debug_str:000000000002b644 .LASF3780
C:\Users\CYMR90~1\AppData\Local\Temp\ccEL7hUr.s:29443  .debug_str:00000000000299a6 .LASF3781
C:\Users\CYMR90~1\AppData\Local\Temp\ccEL7hUr.s:25979  .debug_str:000000000001bd6e .LASF3782
C:\Users\CYMR90~1\AppData\Local\Temp\ccEL7hUr.s:20876  .debug_str:0000000000007080 .LASF3783
C:\Users\CYMR90~1\AppData\Local\Temp\ccEL7hUr.s:20470  .debug_str:0000000000005740 .LASF3784
C:\Users\CYMR90~1\AppData\Local\Temp\ccEL7hUr.s:20962  .debug_str:000000000000766b .LASF3785
C:\Users\CYMR90~1\AppData\Local\Temp\ccEL7hUr.s:19942  .debug_str:00000000000034d2 .LASF3786
C:\Users\CYMR90~1\AppData\Local\Temp\ccEL7hUr.s:28179  .debug_str:00000000000246c6 .LASF3787
C:\Users\CYMR90~1\AppData\Local\Temp\ccEL7hUr.s:23094  .debug_str:000000000001013b .LASF3788
C:\Users\CYMR90~1\AppData\Local\Temp\ccEL7hUr.s:21264  .debug_str:0000000000008b07 .LASF3789
C:\Users\CYMR90~1\AppData\Local\Temp\ccEL7hUr.s:21372  .debug_str:00000000000091d9 .LASF3790
C:\Users\CYMR90~1\AppData\Local\Temp\ccEL7hUr.s:27461  .debug_str:0000000000021a64 .LASF3791
C:\Users\CYMR90~1\AppData\Local\Temp\ccEL7hUr.s:29381  .debug_str:0000000000029608 .LASF3792
C:\Users\CYMR90~1\AppData\Local\Temp\ccEL7hUr.s:27707  .debug_str:0000000000022910 .LASF3793
C:\Users\CYMR90~1\AppData\Local\Temp\ccEL7hUr.s:29275  .debug_str:0000000000028f61 .LASF3794
C:\Users\CYMR90~1\AppData\Local\Temp\ccEL7hUr.s:19232  .debug_str:00000000000007ff .LASF3795
C:\Users\CYMR90~1\AppData\Local\Temp\ccEL7hUr.s:27535  .debug_str:0000000000021f3f .LASF3796
C:\Users\CYMR90~1\AppData\Local\Temp\ccEL7hUr.s:24767  .debug_str:0000000000016f02 .LASF3797
C:\Users\CYMR90~1\AppData\Local\Temp\ccEL7hUr.s:21796  .debug_str:000000000000ac8c .LASF3798
C:\Users\CYMR90~1\AppData\Local\Temp\ccEL7hUr.s:22354  .debug_str:000000000000d348 .LASF3799
C:\Users\CYMR90~1\AppData\Local\Temp\ccEL7hUr.s:20862  .debug_str:0000000000006f8f .LASF3800
C:\Users\CYMR90~1\AppData\Local\Temp\ccEL7hUr.s:24384  .debug_str:00000000000154ab .LASF3801
C:\Users\CYMR90~1\AppData\Local\Temp\ccEL7hUr.s:22228  .debug_str:000000000000cae5 .LASF3802
C:\Users\CYMR90~1\AppData\Local\Temp\ccEL7hUr.s:27815  .debug_str:0000000000022fb3 .LASF3803
C:\Users\CYMR90~1\AppData\Local\Temp\ccEL7hUr.s:25789  .debug_str:000000000001b1ca .LASF3804
C:\Users\CYMR90~1\AppData\Local\Temp\ccEL7hUr.s:27749  .debug_str:0000000000022bfc .LASF3805
C:\Users\CYMR90~1\AppData\Local\Temp\ccEL7hUr.s:24911  .debug_str:00000000000177ba .LASF3806
C:\Users\CYMR90~1\AppData\Local\Temp\ccEL7hUr.s:22660  .debug_str:000000000000e629 .LASF3807
C:\Users\CYMR90~1\AppData\Local\Temp\ccEL7hUr.s:26811  .debug_str:000000000001f27f .LASF3808
C:\Users\CYMR90~1\AppData\Local\Temp\ccEL7hUr.s:21850  .debug_str:000000000000b0c3 .LASF3809
C:\Users\CYMR90~1\AppData\Local\Temp\ccEL7hUr.s:24102  .debug_str:0000000000014322 .LASF3810
C:\Users\CYMR90~1\AppData\Local\Temp\ccEL7hUr.s:25047  .debug_str:0000000000018029 .LASF3811
C:\Users\CYMR90~1\AppData\Local\Temp\ccEL7hUr.s:28729  .debug_str:0000000000026b25 .LASF3812
C:\Users\CYMR90~1\AppData\Local\Temp\ccEL7hUr.s:21644  .debug_str:000000000000a2ff .LASF3813
C:\Users\CYMR90~1\AppData\Local\Temp\ccEL7hUr.s:20394  .debug_str:0000000000005290 .LASF3814
C:\Users\CYMR90~1\AppData\Local\Temp\ccEL7hUr.s:25339  .debug_str:0000000000019352 .LASF3815
C:\Users\CYMR90~1\AppData\Local\Temp\ccEL7hUr.s:21894  .debug_str:000000000000b33d .LASF3816
C:\Users\CYMR90~1\AppData\Local\Temp\ccEL7hUr.s:22630  .debug_str:000000000000e47c .LASF3817
C:\Users\CYMR90~1\AppData\Local\Temp\ccEL7hUr.s:30007  .debug_str:000000000002bcf6 .LASF3818
C:\Users\CYMR90~1\AppData\Local\Temp\ccEL7hUr.s:29855  .debug_str:000000000002b2aa .LASF3819
C:\Users\CYMR90~1\AppData\Local\Temp\ccEL7hUr.s:22494  .debug_str:000000000000dc2f .LASF3820
C:\Users\CYMR90~1\AppData\Local\Temp\ccEL7hUr.s:20478  .debug_str:00000000000057af .LASF3821
C:\Users\CYMR90~1\AppData\Local\Temp\ccEL7hUr.s:29501  .debug_str:0000000000029d0c .LASF3822
C:\Users\CYMR90~1\AppData\Local\Temp\ccEL7hUr.s:27263  .debug_str:0000000000020e64 .LASF3823
C:\Users\CYMR90~1\AppData\Local\Temp\ccEL7hUr.s:27179  .debug_str:0000000000020953 .LASF3824
C:\Users\CYMR90~1\AppData\Local\Temp\ccEL7hUr.s:24500  .debug_str:0000000000015b69 .LASF3825
C:\Users\CYMR90~1\AppData\Local\Temp\ccEL7hUr.s:20576  .debug_str:0000000000005db5 .LASF3826
C:\Users\CYMR90~1\AppData\Local\Temp\ccEL7hUr.s:23990  .debug_str:0000000000013bf3 .LASF3827
C:\Users\CYMR90~1\AppData\Local\Temp\ccEL7hUr.s:27453  .debug_str:00000000000219ea .LASF3828
C:\Users\CYMR90~1\AppData\Local\Temp\ccEL7hUr.s:28541  .debug_str:0000000000025fc6 .LASF3829
C:\Users\CYMR90~1\AppData\Local\Temp\ccEL7hUr.s:20310  .debug_str:0000000000004d88 .LASF3830
C:\Users\CYMR90~1\AppData\Local\Temp\ccEL7hUr.s:28025  .debug_str:0000000000023c00 .LASF3831
C:\Users\CYMR90~1\AppData\Local\Temp\ccEL7hUr.s:27183  .debug_str:00000000000209a3 .LASF3832
C:\Users\CYMR90~1\AppData\Local\Temp\ccEL7hUr.s:29651  .debug_str:000000000002a637 .LASF3833
C:\Users\CYMR90~1\AppData\Local\Temp\ccEL7hUr.s:22764  .debug_str:000000000000ed02 .LASF3834
C:\Users\CYMR90~1\AppData\Local\Temp\ccEL7hUr.s:20490  .debug_str:0000000000005851 .LASF3835
C:\Users\CYMR90~1\AppData\Local\Temp\ccEL7hUr.s:22134  .debug_str:000000000000c470 .LASF3836
C:\Users\CYMR90~1\AppData\Local\Temp\ccEL7hUr.s:27275  .debug_str:0000000000020f06 .LASF3837
C:\Users\CYMR90~1\AppData\Local\Temp\ccEL7hUr.s:25149  .debug_str:0000000000018638 .LASF3838
C:\Users\CYMR90~1\AppData\Local\Temp\ccEL7hUr.s:26225  .debug_str:000000000001cd7a .LASF3839
C:\Users\CYMR90~1\AppData\Local\Temp\ccEL7hUr.s:29249  .debug_str:0000000000028dd6 .LASF3840
C:\Users\CYMR90~1\AppData\Local\Temp\ccEL7hUr.s:27097  .debug_str:00000000000203ef .LASF3841
C:\Users\CYMR90~1\AppData\Local\Temp\ccEL7hUr.s:30175  .debug_str:000000000002c86e .LASF3842
C:\Users\CYMR90~1\AppData\Local\Temp\ccEL7hUr.s:19986  .debug_str:00000000000037b7 .LASF3843
C:\Users\CYMR90~1\AppData\Local\Temp\ccEL7hUr.s:28343  .debug_str:000000000002527a .LASF3844
C:\Users\CYMR90~1\AppData\Local\Temp\ccEL7hUr.s:19358  .debug_str:000000000000102b .LASF3845
C:\Users\CYMR90~1\AppData\Local\Temp\ccEL7hUr.s:26389  .debug_str:000000000001d8be .LASF3846
C:\Users\CYMR90~1\AppData\Local\Temp\ccEL7hUr.s:23866  .debug_str:000000000001338b .LASF3847
C:\Users\CYMR90~1\AppData\Local\Temp\ccEL7hUr.s:30257  .debug_str:000000000002cdf4 .LASF3848
C:\Users\CYMR90~1\AppData\Local\Temp\ccEL7hUr.s:19778  .debug_str:00000000000029d9 .LASF3849
C:\Users\CYMR90~1\AppData\Local\Temp\ccEL7hUr.s:28787  .debug_str:0000000000026ecc .LASF3850
C:\Users\CYMR90~1\AppData\Local\Temp\ccEL7hUr.s:23720  .debug_str:0000000000012a06 .LASF3851
C:\Users\CYMR90~1\AppData\Local\Temp\ccEL7hUr.s:27087  .debug_str:00000000000202ff .LASF3852
C:\Users\CYMR90~1\AppData\Local\Temp\ccEL7hUr.s:27227  .debug_str:0000000000020c50 .LASF3853
C:\Users\CYMR90~1\AppData\Local\Temp\ccEL7hUr.s:19316  .debug_str:0000000000000d48 .LASF3854
C:\Users\CYMR90~1\AppData\Local\Temp\ccEL7hUr.s:26449  .debug_str:000000000001dc43 .LASF3855
C:\Users\CYMR90~1\AppData\Local\Temp\ccEL7hUr.s:19414  .debug_str:0000000000001358 .LASF3856
C:\Users\CYMR90~1\AppData\Local\Temp\ccEL7hUr.s:29041  .debug_str:0000000000027fdf .LASF3857
C:\Users\CYMR90~1\AppData\Local\Temp\ccEL7hUr.s:23626  .debug_str:00000000000123cf .LASF3858
C:\Users\CYMR90~1\AppData\Local\Temp\ccEL7hUr.s:26587  .debug_str:000000000001e4fd .LASF3859
C:\Users\CYMR90~1\AppData\Local\Temp\ccEL7hUr.s:25507  .debug_str:0000000000019e29 .LASF3860
C:\Users\CYMR90~1\AppData\Local\Temp\ccEL7hUr.s:24276  .debug_str:0000000000014e03 .LASF3861
C:\Users\CYMR90~1\AppData\Local\Temp\ccEL7hUr.s:23116  .debug_str:00000000000102c6 .LASF3862
C:\Users\CYMR90~1\AppData\Local\Temp\ccEL7hUr.s:29897  .debug_str:000000000002b551 .LASF3863
C:\Users\CYMR90~1\AppData\Local\Temp\ccEL7hUr.s:28259  .debug_str:0000000000024c13 .LASF3864
C:\Users\CYMR90~1\AppData\Local\Temp\ccEL7hUr.s:19524  .debug_str:0000000000001a7e .LASF3865
C:\Users\CYMR90~1\AppData\Local\Temp\ccEL7hUr.s:29029  .debug_str:0000000000027ebb .LASF3866
C:\Users\CYMR90~1\AppData\Local\Temp\ccEL7hUr.s:29267  .debug_str:0000000000028ec8 .LASF3867
C:\Users\CYMR90~1\AppData\Local\Temp\ccEL7hUr.s:22312  .debug_str:000000000000d05a .LASF3868
C:\Users\CYMR90~1\AppData\Local\Temp\ccEL7hUr.s:30125  .debug_str:000000000002c51b .LASF3869
C:\Users\CYMR90~1\AppData\Local\Temp\ccEL7hUr.s:21740  .debug_str:000000000000a901 .LASF3870
C:\Users\CYMR90~1\AppData\Local\Temp\ccEL7hUr.s:28275  .debug_str:0000000000024d36 .LASF3871
C:\Users\CYMR90~1\AppData\Local\Temp\ccEL7hUr.s:21602  .debug_str:000000000000a05c .LASF3872
C:\Users\CYMR90~1\AppData\Local\Temp\ccEL7hUr.s:27335  .debug_str:0000000000021242 .LASF3873
C:\Users\CYMR90~1\AppData\Local\Temp\ccEL7hUr.s:19814  .debug_str:0000000000002c24 .LASF3874
C:\Users\CYMR90~1\AppData\Local\Temp\ccEL7hUr.s:25525  .debug_str:0000000000019f4d .LASF3875
C:\Users\CYMR90~1\AppData\Local\Temp\ccEL7hUr.s:22410  .debug_str:000000000000d74d .LASF3876
C:\Users\CYMR90~1\AppData\Local\Temp\ccEL7hUr.s:20528  .debug_str:0000000000005ab7 .LASF3877
C:\Users\CYMR90~1\AppData\Local\Temp\ccEL7hUr.s:28947  .debug_str:000000000002790b .LASF3878
C:\Users\CYMR90~1\AppData\Local\Temp\ccEL7hUr.s:22892  .debug_str:000000000000f477 .LASF3879
C:\Users\CYMR90~1\AppData\Local\Temp\ccEL7hUr.s:22090  .debug_str:000000000000c18f .LASF3880
C:\Users\CYMR90~1\AppData\Local\Temp\ccEL7hUr.s:21904  .debug_str:000000000000b3c7 .LASF3881
C:\Users\CYMR90~1\AppData\Local\Temp\ccEL7hUr.s:19262  .debug_str:00000000000009cf .LASF3882
C:\Users\CYMR90~1\AppData\Local\Temp\ccEL7hUr.s:23526  .debug_str:0000000000011da4 .LASF3883
C:\Users\CYMR90~1\AppData\Local\Temp\ccEL7hUr.s:27745  .debug_str:0000000000022bb8 .LASF3884
C:\Users\CYMR90~1\AppData\Local\Temp\ccEL7hUr.s:20676  .debug_str:00000000000063bb .LASF3885
C:\Users\CYMR90~1\AppData\Local\Temp\ccEL7hUr.s:22008  .debug_str:000000000000bb28 .LASF3886
C:\Users\CYMR90~1\AppData\Local\Temp\ccEL7hUr.s:23106  .debug_str:000000000001021d .LASF3887
C:\Users\CYMR90~1\AppData\Local\Temp\ccEL7hUr.s:27311  .debug_str:00000000000210d8 .LASF3888
C:\Users\CYMR90~1\AppData\Local\Temp\ccEL7hUr.s:20320  .debug_str:0000000000004e32 .LASF3889
C:\Users\CYMR90~1\AppData\Local\Temp\ccEL7hUr.s:24482  .debug_str:0000000000015a42 .LASF3890
C:\Users\CYMR90~1\AppData\Local\Temp\ccEL7hUr.s:28747  .debug_str:0000000000026c35 .LASF3891
C:\Users\CYMR90~1\AppData\Local\Temp\ccEL7hUr.s:21782  .debug_str:000000000000abb4 .LASF3892
C:\Users\CYMR90~1\AppData\Local\Temp\ccEL7hUr.s:24078  .debug_str:0000000000014129 .LASF3893
C:\Users\CYMR90~1\AppData\Local\Temp\ccEL7hUr.s:26477  .debug_str:000000000001de84 .LASF3894
C:\Users\CYMR90~1\AppData\Local\Temp\ccEL7hUr.s:22292  .debug_str:000000000000cef1 .LASF3895
C:\Users\CYMR90~1\AppData\Local\Temp\ccEL7hUr.s:27497  .debug_str:0000000000021cc8 .LASF3896
C:\Users\CYMR90~1\AppData\Local\Temp\ccEL7hUr.s:20524  .debug_str:0000000000005a5f .LASF3897
C:\Users\CYMR90~1\AppData\Local\Temp\ccEL7hUr.s:29853  .debug_str:000000000002b278 .LASF3898
C:\Users\CYMR90~1\AppData\Local\Temp\ccEL7hUr.s:22886  .debug_str:000000000000f3f4 .LASF3899
C:\Users\CYMR90~1\AppData\Local\Temp\ccEL7hUr.s:26997  .debug_str:000000000001fddb .LASF3900
C:\Users\CYMR90~1\AppData\Local\Temp\ccEL7hUr.s:20030  .debug_str:0000000000003aad .LASF3901
C:\Users\CYMR90~1\AppData\Local\Temp\ccEL7hUr.s:22962  .debug_str:000000000000f935 .LASF3902
C:\Users\CYMR90~1\AppData\Local\Temp\ccEL7hUr.s:28059  .debug_str:0000000000023e27 .LASF3903
C:\Users\CYMR90~1\AppData\Local\Temp\ccEL7hUr.s:21488  .debug_str:0000000000009932 .LASF3904
C:\Users\CYMR90~1\AppData\Local\Temp\ccEL7hUr.s:25747  .debug_str:000000000001aeb4 .LASF3905
C:\Users\CYMR90~1\AppData\Local\Temp\ccEL7hUr.s:20132  .debug_str:00000000000040f7 .LASF3906
C:\Users\CYMR90~1\AppData\Local\Temp\ccEL7hUr.s:28097  .debug_str:0000000000024135 .LASF3907
C:\Users\CYMR90~1\AppData\Local\Temp\ccEL7hUr.s:21130  .debug_str:0000000000008285 .LASF3908
C:\Users\CYMR90~1\AppData\Local\Temp\ccEL7hUr.s:22732  .debug_str:000000000000ead4 .LASF3909
C:\Users\CYMR90~1\AppData\Local\Temp\ccEL7hUr.s:29533  .debug_str:0000000000029eda .LASF3910
C:\Users\CYMR90~1\AppData\Local\Temp\ccEL7hUr.s:20960  .debug_str:0000000000007639 .LASF3911
C:\Users\CYMR90~1\AppData\Local\Temp\ccEL7hUr.s:26871  .debug_str:000000000001f613 .LASF3912
C:\Users\CYMR90~1\AppData\Local\Temp\ccEL7hUr.s:19738  .debug_str:0000000000002748 .LASF3913
C:\Users\CYMR90~1\AppData\Local\Temp\ccEL7hUr.s:25081  .debug_str:0000000000018225 .LASF3914
C:\Users\CYMR90~1\AppData\Local\Temp\ccEL7hUr.s:28227  .debug_str:0000000000024a0a .LASF3915
C:\Users\CYMR90~1\AppData\Local\Temp\ccEL7hUr.s:21138  .debug_str:0000000000008302 .LASF3916
C:\Users\CYMR90~1\AppData\Local\Temp\ccEL7hUr.s:28497  .debug_str:0000000000025ce6 .LASF3917
C:\Users\CYMR90~1\AppData\Local\Temp\ccEL7hUr.s:23666  .debug_str:0000000000012682 .LASF3918
C:\Users\CYMR90~1\AppData\Local\Temp\ccEL7hUr.s:27801  .debug_str:0000000000022edc .LASF3919
C:\Users\CYMR90~1\AppData\Local\Temp\ccEL7hUr.s:20814  .debug_str:0000000000006c64 .LASF3920
C:\Users\CYMR90~1\AppData\Local\Temp\ccEL7hUr.s:23710  .debug_str:0000000000012946 .LASF3921
C:\Users\CYMR90~1\AppData\Local\Temp\ccEL7hUr.s:26999  .debug_str:000000000001fe0d .LASF3922
C:\Users\CYMR90~1\AppData\Local\Temp\ccEL7hUr.s:23630  .debug_str:0000000000012436 .LASF3923
C:\Users\CYMR90~1\AppData\Local\Temp\ccEL7hUr.s:28533  .debug_str:0000000000025f50 .LASF3924
C:\Users\CYMR90~1\AppData\Local\Temp\ccEL7hUr.s:20018  .debug_str:00000000000039c0 .LASF3925
C:\Users\CYMR90~1\AppData\Local\Temp\ccEL7hUr.s:28471  .debug_str:0000000000025b5e .LASF3926
C:\Users\CYMR90~1\AppData\Local\Temp\ccEL7hUr.s:22678  .debug_str:000000000000e73e .LASF3927
C:\Users\CYMR90~1\AppData\Local\Temp\ccEL7hUr.s:28105  .debug_str:00000000000241de .LASF3928
C:\Users\CYMR90~1\AppData\Local\Temp\ccEL7hUr.s:24496  .debug_str:0000000000015b18 .LASF3929
C:\Users\CYMR90~1\AppData\Local\Temp\ccEL7hUr.s:24923  .debug_str:0000000000017874 .LASF3930
C:\Users\CYMR90~1\AppData\Local\Temp\ccEL7hUr.s:21962  .debug_str:000000000000b832 .LASF3931
C:\Users\CYMR90~1\AppData\Local\Temp\ccEL7hUr.s:24284  .debug_str:0000000000014e8c .LASF3932
C:\Users\CYMR90~1\AppData\Local\Temp\ccEL7hUr.s:27207  .debug_str:0000000000020afa .LASF3933
C:\Users\CYMR90~1\AppData\Local\Temp\ccEL7hUr.s:24308  .debug_str:0000000000015041 .LASF3934
C:\Users\CYMR90~1\AppData\Local\Temp\ccEL7hUr.s:28565  .debug_str:000000000002614f .LASF3935
C:\Users\CYMR90~1\AppData\Local\Temp\ccEL7hUr.s:25363  .debug_str:00000000000194d7 .LASF3936
C:\Users\CYMR90~1\AppData\Local\Temp\ccEL7hUr.s:23382  .debug_str:0000000000011384 .LASF3937
C:\Users\CYMR90~1\AppData\Local\Temp\ccEL7hUr.s:21052  .debug_str:0000000000007c3f .LASF3938
C:\Users\CYMR90~1\AppData\Local\Temp\ccEL7hUr.s:19426  .debug_str:0000000000001425 .LASF3939
C:\Users\CYMR90~1\AppData\Local\Temp\ccEL7hUr.s:19114  .debug_str:00000000000000ff .LASF3940
C:\Users\CYMR90~1\AppData\Local\Temp\ccEL7hUr.s:23942  .debug_str:0000000000013914 .LASF3941
C:\Users\CYMR90~1\AppData\Local\Temp\ccEL7hUr.s:20448  .debug_str:00000000000055db .LASF3942
C:\Users\CYMR90~1\AppData\Local\Temp\ccEL7hUr.s:25179  .debug_str:00000000000187e8 .LASF3943
C:\Users\CYMR90~1\AppData\Local\Temp\ccEL7hUr.s:22574  .debug_str:000000000000e12a .LASF3944
C:\Users\CYMR90~1\AppData\Local\Temp\ccEL7hUr.s:21610  .debug_str:000000000000a0f6 .LASF3945
C:\Users\CYMR90~1\AppData\Local\Temp\ccEL7hUr.s:23062  .debug_str:000000000000ff40 .LASF3946
C:\Users\CYMR90~1\AppData\Local\Temp\ccEL7hUr.s:24889  .debug_str:0000000000017655 .LASF3947
C:\Users\CYMR90~1\AppData\Local\Temp\ccEL7hUr.s:24344  .debug_str:000000000001524b .LASF3948
C:\Users\CYMR90~1\AppData\Local\Temp\ccEL7hUr.s:23748  .debug_str:0000000000012c15 .LASF3949
C:\Users\CYMR90~1\AppData\Local\Temp\ccEL7hUr.s:26061  .debug_str:000000000001c2bf .LASF3950
C:\Users\CYMR90~1\AppData\Local\Temp\ccEL7hUr.s:22682  .debug_str:000000000000e7bd .LASF3951
C:\Users\CYMR90~1\AppData\Local\Temp\ccEL7hUr.s:19300  .debug_str:0000000000000c6c .LASF3952
C:\Users\CYMR90~1\AppData\Local\Temp\ccEL7hUr.s:29273  .debug_str:0000000000028f3d .LASF3953
C:\Users\CYMR90~1\AppData\Local\Temp\ccEL7hUr.s:23812  .debug_str:0000000000013016 .LASF3954
C:\Users\CYMR90~1\AppData\Local\Temp\ccEL7hUr.s:26401  .debug_str:000000000001d978 .LASF3955
C:\Users\CYMR90~1\AppData\Local\Temp\ccEL7hUr.s:19680  .debug_str:0000000000002378 .LASF3956
C:\Users\CYMR90~1\AppData\Local\Temp\ccEL7hUr.s:19590  .debug_str:0000000000001ea0 .LASF3957
C:\Users\CYMR90~1\AppData\Local\Temp\ccEL7hUr.s:28337  .debug_str:0000000000025213 .LASF3958
C:\Users\CYMR90~1\AppData\Local\Temp\ccEL7hUr.s:28119  .debug_str:00000000000242f1 .LASF3959
C:\Users\CYMR90~1\AppData\Local\Temp\ccEL7hUr.s:24761  .debug_str:0000000000016eaf .LASF3960
C:\Users\CYMR90~1\AppData\Local\Temp\ccEL7hUr.s:24084  .debug_str:00000000000141b8 .LASF3961
C:\Users\CYMR90~1\AppData\Local\Temp\ccEL7hUr.s:29261  .debug_str:0000000000028e83 .LASF3962
C:\Users\CYMR90~1\AppData\Local\Temp\ccEL7hUr.s:25889  .debug_str:000000000001b811 .LASF3963
C:\Users\CYMR90~1\AppData\Local\Temp\ccEL7hUr.s:19816  .debug_str:0000000000002c56 .LASF3964
C:\Users\CYMR90~1\AppData\Local\Temp\ccEL7hUr.s:29635  .debug_str:000000000002a539 .LASF3965
C:\Users\CYMR90~1\AppData\Local\Temp\ccEL7hUr.s:29941  .debug_str:000000000002b873 .LASF3966
C:\Users\CYMR90~1\AppData\Local\Temp\ccEL7hUr.s:21766  .debug_str:000000000000aaa6 .LASF3967
C:\Users\CYMR90~1\AppData\Local\Temp\ccEL7hUr.s:20318  .debug_str:0000000000004e0e .LASF3968
C:\Users\CYMR90~1\AppData\Local\Temp\ccEL7hUr.s:30159  .debug_str:000000000002c73b .LASF3969
C:\Users\CYMR90~1\AppData\Local\Temp\ccEL7hUr.s:23510  .debug_str:0000000000011ca0 .LASF3970
C:\Users\CYMR90~1\AppData\Local\Temp\ccEL7hUr.s:20108  .debug_str:0000000000003fa6 .LASF3971
C:\Users\CYMR90~1\AppData\Local\Temp\ccEL7hUr.s:27985  .debug_str:00000000000239e8 .LASF3972
C:\Users\CYMR90~1\AppData\Local\Temp\ccEL7hUr.s:24600  .debug_str:000000000001624f .LASF3973
C:\Users\CYMR90~1\AppData\Local\Temp\ccEL7hUr.s:23076  .debug_str:0000000000010053 .LASF3974
C:\Users\CYMR90~1\AppData\Local\Temp\ccEL7hUr.s:29121  .debug_str:00000000000285ab .LASF3975
C:\Users\CYMR90~1\AppData\Local\Temp\ccEL7hUr.s:27143  .debug_str:0000000000020731 .LASF3976
C:\Users\CYMR90~1\AppData\Local\Temp\ccEL7hUr.s:21096  .debug_str:0000000000007fbc .LASF3977
C:\Users\CYMR90~1\AppData\Local\Temp\ccEL7hUr.s:28961  .debug_str:0000000000027a36 .LASF3978
C:\Users\CYMR90~1\AppData\Local\Temp\ccEL7hUr.s:25615  .debug_str:000000000001a602 .LASF3979
C:\Users\CYMR90~1\AppData\Local\Temp\ccEL7hUr.s:22262  .debug_str:000000000000cd6a .LASF3980
C:\Users\CYMR90~1\AppData\Local\Temp\ccEL7hUr.s:30105  .debug_str:000000000002c3f5 .LASF3981
C:\Users\CYMR90~1\AppData\Local\Temp\ccEL7hUr.s:20218  .debug_str:0000000000004712 .LASF3982
C:\Users\CYMR90~1\AppData\Local\Temp\ccEL7hUr.s:23386  .debug_str:00000000000113bf .LASF3983
C:\Users\CYMR90~1\AppData\Local\Temp\ccEL7hUr.s:26243  .debug_str:000000000001cf1f .LASF3984
C:\Users\CYMR90~1\AppData\Local\Temp\ccEL7hUr.s:27847  .debug_str:0000000000023139 .LASF3985
C:\Users\CYMR90~1\AppData\Local\Temp\ccEL7hUr.s:29195  .debug_str:0000000000028a9b .LASF3986
C:\Users\CYMR90~1\AppData\Local\Temp\ccEL7hUr.s:19820  .debug_str:0000000000002caf .LASF3987
C:\Users\CYMR90~1\AppData\Local\Temp\ccEL7hUr.s:23972  .debug_str:0000000000013add .LASF3988
C:\Users\CYMR90~1\AppData\Local\Temp\ccEL7hUr.s:24316  .debug_str:00000000000150c1 .LASF3989
C:\Users\CYMR90~1\AppData\Local\Temp\ccEL7hUr.s:20954  .debug_str:00000000000075d4 .LASF3990
C:\Users\CYMR90~1\AppData\Local\Temp\ccEL7hUr.s:21072  .debug_str:0000000000007e14 .LASF3991
C:\Users\CYMR90~1\AppData\Local\Temp\ccEL7hUr.s:21068  .debug_str:0000000000007dd3 .LASF3992
C:\Users\CYMR90~1\AppData\Local\Temp\ccEL7hUr.s:22110  .debug_str:000000000000c2d2 .LASF3993
C:\Users\CYMR90~1\AppData\Local\Temp\ccEL7hUr.s:29969  .debug_str:000000000002ba5a .LASF3994
C:\Users\CYMR90~1\AppData\Local\Temp\ccEL7hUr.s:19730  .debug_str:00000000000026a9 .LASF3995
C:\Users\CYMR90~1\AppData\Local\Temp\ccEL7hUr.s:28005  .debug_str:0000000000023af3 .LASF3996
C:\Users\CYMR90~1\AppData\Local\Temp\ccEL7hUr.s:29903  .debug_str:000000000002b5dd .LASF3997
C:\Users\CYMR90~1\AppData\Local\Temp\ccEL7hUr.s:26403  .debug_str:000000000001d99c .LASF3998
C:\Users\CYMR90~1\AppData\Local\Temp\ccEL7hUr.s:23098  .debug_str:0000000000010180 .LASF3999
C:\Users\CYMR90~1\AppData\Local\Temp\ccEL7hUr.s:19528  .debug_str:0000000000001ac8 .LASF4000
C:\Users\CYMR90~1\AppData\Local\Temp\ccEL7hUr.s:27549  .debug_str:0000000000021ff0 .LASF4001
C:\Users\CYMR90~1\AppData\Local\Temp\ccEL7hUr.s:24186  .debug_str:0000000000014869 .LASF4002
C:\Users\CYMR90~1\AppData\Local\Temp\ccEL7hUr.s:22896  .debug_str:000000000000f4bd .LASF4003
C:\Users\CYMR90~1\AppData\Local\Temp\ccEL7hUr.s:25443  .debug_str:0000000000019a76 .LASF4004
C:\Users\CYMR90~1\AppData\Local\Temp\ccEL7hUr.s:25329  .debug_str:00000000000192c2 .LASF4005
C:\Users\CYMR90~1\AppData\Local\Temp\ccEL7hUr.s:26703  .debug_str:000000000001ebed .LASF4006
C:\Users\CYMR90~1\AppData\Local\Temp\ccEL7hUr.s:28613  .debug_str:000000000002641c .LASF4007
C:\Users\CYMR90~1\AppData\Local\Temp\ccEL7hUr.s:26769  .debug_str:000000000001effa .LASF4008
C:\Users\CYMR90~1\AppData\Local\Temp\ccEL7hUr.s:21424  .debug_str:00000000000094d5 .LASF4009
C:\Users\CYMR90~1\AppData\Local\Temp\ccEL7hUr.s:29753  .debug_str:000000000002ac3f .LASF4010
C:\Users\CYMR90~1\AppData\Local\Temp\ccEL7hUr.s:26281  .debug_str:000000000001d206 .LASF4011
C:\Users\CYMR90~1\AppData\Local\Temp\ccEL7hUr.s:27487  .debug_str:0000000000021c28 .LASF4012
C:\Users\CYMR90~1\AppData\Local\Temp\ccEL7hUr.s:19536  .debug_str:0000000000001b58 .LASF4013
C:\Users\CYMR90~1\AppData\Local\Temp\ccEL7hUr.s:27405  .debug_str:0000000000021713 .LASF4014
C:\Users\CYMR90~1\AppData\Local\Temp\ccEL7hUr.s:24040  .debug_str:0000000000013eef .LASF4015
C:\Users\CYMR90~1\AppData\Local\Temp\ccEL7hUr.s:29647  .debug_str:000000000002a5f8 .LASF4016
C:\Users\CYMR90~1\AppData\Local\Temp\ccEL7hUr.s:27345  .debug_str:00000000000212db .LASF4017
C:\Users\CYMR90~1\AppData\Local\Temp\ccEL7hUr.s:23986  .debug_str:0000000000013bb8 .LASF4018
C:\Users\CYMR90~1\AppData\Local\Temp\ccEL7hUr.s:28629  .debug_str:000000000002652c .LASF4019
C:\Users\CYMR90~1\AppData\Local\Temp\ccEL7hUr.s:28459  .debug_str:0000000000025ab5 .LASF4020
C:\Users\CYMR90~1\AppData\Local\Temp\ccEL7hUr.s:25105  .debug_str:00000000000183a0 .LASF4021
C:\Users\CYMR90~1\AppData\Local\Temp\ccEL7hUr.s:30211  .debug_str:000000000002caaf .LASF4022
C:\Users\CYMR90~1\AppData\Local\Temp\ccEL7hUr.s:29603  .debug_str:000000000002a30c .LASF4023
C:\Users\CYMR90~1\AppData\Local\Temp\ccEL7hUr.s:27555  .debug_str:000000000002205d .LASF4024
C:\Users\CYMR90~1\AppData\Local\Temp\ccEL7hUr.s:26419  .debug_str:000000000001da85 .LASF4025
C:\Users\CYMR90~1\AppData\Local\Temp\ccEL7hUr.s:20864  .debug_str:0000000000006fd0 .LASF4026
C:\Users\CYMR90~1\AppData\Local\Temp\ccEL7hUr.s:21006  .debug_str:000000000000793f .LASF4027
C:\Users\CYMR90~1\AppData\Local\Temp\ccEL7hUr.s:24989  .debug_str:0000000000017ca1 .LASF4028
C:\Users\CYMR90~1\AppData\Local\Temp\ccEL7hUr.s:28899  .debug_str:00000000000275ed .LASF4029
C:\Users\CYMR90~1\AppData\Local\Temp\ccEL7hUr.s:21586  .debug_str:0000000000009f65 .LASF4030
C:\Users\CYMR90~1\AppData\Local\Temp\ccEL7hUr.s:30039  .debug_str:000000000002bf5d .LASF4031
C:\Users\CYMR90~1\AppData\Local\Temp\ccEL7hUr.s:21112  .debug_str:000000000000815c .LASF4032
C:\Users\CYMR90~1\AppData\Local\Temp\ccEL7hUr.s:23446  .debug_str:0000000000011787 .LASF4033
C:\Users\CYMR90~1\AppData\Local\Temp\ccEL7hUr.s:25939  .debug_str:000000000001bac2 .LASF4034
C:\Users\CYMR90~1\AppData\Local\Temp\ccEL7hUr.s:29959  .debug_str:000000000002b9c2 .LASF4035
C:\Users\CYMR90~1\AppData\Local\Temp\ccEL7hUr.s:24126  .debug_str:000000000001446a .LASF4036
C:\Users\CYMR90~1\AppData\Local\Temp\ccEL7hUr.s:26531  .debug_str:000000000001e1d5 .LASF4037
C:\Users\CYMR90~1\AppData\Local\Temp\ccEL7hUr.s:28831  .debug_str:000000000002721d .LASF4038
C:\Users\CYMR90~1\AppData\Local\Temp\ccEL7hUr.s:19966  .debug_str:0000000000003650 .LASF4039
C:\Users\CYMR90~1\AppData\Local\Temp\ccEL7hUr.s:27241  .debug_str:0000000000020d41 .LASF4040
C:\Users\CYMR90~1\AppData\Local\Temp\ccEL7hUr.s:19876  .debug_str:0000000000003014 .LASF4041
C:\Users\CYMR90~1\AppData\Local\Temp\ccEL7hUr.s:26877  .debug_str:000000000001f677 .LASF4042
C:\Users\CYMR90~1\AppData\Local\Temp\ccEL7hUr.s:29227  .debug_str:0000000000028c44 .LASF4043
C:\Users\CYMR90~1\AppData\Local\Temp\ccEL7hUr.s:23766  .debug_str:0000000000012cfd .LASF4044
C:\Users\CYMR90~1\AppData\Local\Temp\ccEL7hUr.s:22572  .debug_str:000000000000e104 .LASF4045
C:\Users\CYMR90~1\AppData\Local\Temp\ccEL7hUr.s:19628  .debug_str:0000000000002075 .LASF4046
C:\Users\CYMR90~1\AppData\Local\Temp\ccEL7hUr.s:21136  .debug_str:00000000000082dc .LASF4047
C:\Users\CYMR90~1\AppData\Local\Temp\ccEL7hUr.s:23472  .debug_str:00000000000119e1 .LASF4048
C:\Users\CYMR90~1\AppData\Local\Temp\ccEL7hUr.s:25355  .debug_str:0000000000019466 .LASF4049
C:\Users\CYMR90~1\AppData\Local\Temp\ccEL7hUr.s:23438  .debug_str:00000000000116f4 .LASF4050
C:\Users\CYMR90~1\AppData\Local\Temp\ccEL7hUr.s:19186  .debug_str:0000000000000538 .LASF4051
C:\Users\CYMR90~1\AppData\Local\Temp\ccEL7hUr.s:25825  .debug_str:000000000001b42f .LASF4052
C:\Users\CYMR90~1\AppData\Local\Temp\ccEL7hUr.s:29817  .debug_str:000000000002afe2 .LASF4053
C:\Users\CYMR90~1\AppData\Local\Temp\ccEL7hUr.s:22502  .debug_str:000000000000dc92 .LASF4054
C:\Users\CYMR90~1\AppData\Local\Temp\ccEL7hUr.s:21516  .debug_str:0000000000009b06 .LASF4055
C:\Users\CYMR90~1\AppData\Local\Temp\ccEL7hUr.s:25391  .debug_str:0000000000019675 .LASF4056
C:\Users\CYMR90~1\AppData\Local\Temp\ccEL7hUr.s:21392  .debug_str:0000000000009307 .LASF4057
C:\Users\CYMR90~1\AppData\Local\Temp\ccEL7hUr.s:25291  .debug_str:0000000000018fc4 .LASF4058
C:\Users\CYMR90~1\AppData\Local\Temp\ccEL7hUr.s:29185  .debug_str:0000000000028a07 .LASF4059
C:\Users\CYMR90~1\AppData\Local\Temp\ccEL7hUr.s:24250  .debug_str:0000000000014c2f .LASF4060
C:\Users\CYMR90~1\AppData\Local\Temp\ccEL7hUr.s:25781  .debug_str:000000000001b13a .LASF4061
C:\Users\CYMR90~1\AppData\Local\Temp\ccEL7hUr.s:29751  .debug_str:000000000002ac19 .LASF4062
C:\Users\CYMR90~1\AppData\Local\Temp\ccEL7hUr.s:22440  .debug_str:000000000000d8ff .LASF4063
C:\Users\CYMR90~1\AppData\Local\Temp\ccEL7hUr.s:21572  .debug_str:0000000000009e6e .LASF4064
C:\Users\CYMR90~1\AppData\Local\Temp\ccEL7hUr.s:23900  .debug_str:0000000000013663 .LASF4065
C:\Users\CYMR90~1\AppData\Local\Temp\ccEL7hUr.s:19948  .debug_str:0000000000003534 .LASF4066
C:\Users\CYMR90~1\AppData\Local\Temp\ccEL7hUr.s:29033  .debug_str:0000000000027f44 .LASF4067
C:\Users\CYMR90~1\AppData\Local\Temp\ccEL7hUr.s:19806  .debug_str:0000000000002bab .LASF4068
C:\Users\CYMR90~1\AppData\Local\Temp\ccEL7hUr.s:21802  .debug_str:000000000000ace4 .LASF4069
C:\Users\CYMR90~1\AppData\Local\Temp\ccEL7hUr.s:25719  .debug_str:000000000001acfd .LASF4070
C:\Users\CYMR90~1\AppData\Local\Temp\ccEL7hUr.s:29679  .debug_str:000000000002a7ea .LASF4071
C:\Users\CYMR90~1\AppData\Local\Temp\ccEL7hUr.s:25045  .debug_str:0000000000018003 .LASF4072
C:\Users\CYMR90~1\AppData\Local\Temp\ccEL7hUr.s:23870  .debug_str:0000000000013414 .LASF4073
C:\Users\CYMR90~1\AppData\Local\Temp\ccEL7hUr.s:30161  .debug_str:000000000002c75f .LASF4074
C:\Users\CYMR90~1\AppData\Local\Temp\ccEL7hUr.s:25319  .debug_str:000000000001923b .LASF4075
C:\Users\CYMR90~1\AppData\Local\Temp\ccEL7hUr.s:19912  .debug_str:00000000000032d5 .LASF4076
C:\Users\CYMR90~1\AppData\Local\Temp\ccEL7hUr.s:29057  .debug_str:00000000000280f3 .LASF4077
C:\Users\CYMR90~1\AppData\Local\Temp\ccEL7hUr.s:29623  .debug_str:000000000002a48c .LASF4078
C:\Users\CYMR90~1\AppData\Local\Temp\ccEL7hUr.s:27007  .debug_str:000000000001fe97 .LASF4079
C:\Users\CYMR90~1\AppData\Local\Temp\ccEL7hUr.s:29613  .debug_str:000000000002a3b5 .LASF4080
C:\Users\CYMR90~1\AppData\Local\Temp\ccEL7hUr.s:22314  .debug_str:000000000000d08c .LASF4081
C:\Users\CYMR90~1\AppData\Local\Temp\ccEL7hUr.s:26177  .debug_str:000000000001ca6e .LASF4082
C:\Users\CYMR90~1\AppData\Local\Temp\ccEL7hUr.s:30101  .debug_str:000000000002c3a8 .LASF4083
C:\Users\CYMR90~1\AppData\Local\Temp\ccEL7hUr.s:21114  .debug_str:0000000000008182 .LASF4084
C:\Users\CYMR90~1\AppData\Local\Temp\ccEL7hUr.s:24240  .debug_str:0000000000014bae .LASF4085
C:\Users\CYMR90~1\AppData\Local\Temp\ccEL7hUr.s:23780  .debug_str:0000000000012e04 .LASF4086
C:\Users\CYMR90~1\AppData\Local\Temp\ccEL7hUr.s:21672  .debug_str:000000000000a501 .LASF4087
C:\Users\CYMR90~1\AppData\Local\Temp\ccEL7hUr.s:25575  .debug_str:000000000001a228 .LASF4088
C:\Users\CYMR90~1\AppData\Local\Temp\ccEL7hUr.s:23108  .debug_str:000000000001024f .LASF4089
C:\Users\CYMR90~1\AppData\Local\Temp\ccEL7hUr.s:25951  .debug_str:000000000001bbaa .LASF4090
C:\Users\CYMR90~1\AppData\Local\Temp\ccEL7hUr.s:26107  .debug_str:000000000001c52e .LASF4091
C:\Users\CYMR90~1\AppData\Local\Temp\ccEL7hUr.s:27407  .debug_str:0000000000021737 .LASF4092
C:\Users\CYMR90~1\AppData\Local\Temp\ccEL7hUr.s:22714  .debug_str:000000000000e9b5 .LASF4093
C:\Users\CYMR90~1\AppData\Local\Temp\ccEL7hUr.s:26557  .debug_str:000000000001e33b .LASF4094
C:\Users\CYMR90~1\AppData\Local\Temp\ccEL7hUr.s:19274  .debug_str:0000000000000ae0 .LASF4095
C:\Users\CYMR90~1\AppData\Local\Temp\ccEL7hUr.s:26113  .debug_str:000000000001c58c .LASF4096
C:\Users\CYMR90~1\AppData\Local\Temp\ccEL7hUr.s:27675  .debug_str:0000000000022738 .LASF4097
C:\Users\CYMR90~1\AppData\Local\Temp\ccEL7hUr.s:29483  .debug_str:0000000000029c13 .LASF4098
C:\Users\CYMR90~1\AppData\Local\Temp\ccEL7hUr.s:22178  .debug_str:000000000000c724 .LASF4099
C:\Users\CYMR90~1\AppData\Local\Temp\ccEL7hUr.s:24260  .debug_str:0000000000014cd5 .LASF4100
C:\Users\CYMR90~1\AppData\Local\Temp\ccEL7hUr.s:29973  .debug_str:000000000002ba96 .LASF4101
C:\Users\CYMR90~1\AppData\Local\Temp\ccEL7hUr.s:26585  .debug_str:000000000001e4d7 .LASF4102
C:\Users\CYMR90~1\AppData\Local\Temp\ccEL7hUr.s:26493  .debug_str:000000000001dfa0 .LASF4103
C:\Users\CYMR90~1\AppData\Local\Temp\ccEL7hUr.s:19216  .debug_str:0000000000000706 .LASF4104
C:\Users\CYMR90~1\AppData\Local\Temp\ccEL7hUr.s:30149  .debug_str:000000000002c67c .LASF4105
C:\Users\CYMR90~1\AppData\Local\Temp\ccEL7hUr.s:20184  .debug_str:00000000000044c2 .LASF4106
C:\Users\CYMR90~1\AppData\Local\Temp\ccEL7hUr.s:29419  .debug_str:0000000000029838 .LASF4107
C:\Users\CYMR90~1\AppData\Local\Temp\ccEL7hUr.s:25453  .debug_str:0000000000019b06 .LASF4108
C:\Users\CYMR90~1\AppData\Local\Temp\ccEL7hUr.s:27757  .debug_str:0000000000022c5a .LASF4109
C:\Users\CYMR90~1\AppData\Local\Temp\ccEL7hUr.s:29917  .debug_str:000000000002b6c6 .LASF4110
C:\Users\CYMR90~1\AppData\Local\Temp\ccEL7hUr.s:22594  .debug_str:000000000000e237 .LASF4111
C:\Users\CYMR90~1\AppData\Local\Temp\ccEL7hUr.s:20472  .debug_str:0000000000005762 .LASF4112
C:\Users\CYMR90~1\AppData\Local\Temp\ccEL7hUr.s:19148  .debug_str:0000000000000321 .LASF4113
C:\Users\CYMR90~1\AppData\Local\Temp\ccEL7hUr.s:23646  .debug_str:000000000001252b .LASF4114
C:\Users\CYMR90~1\AppData\Local\Temp\ccEL7hUr.s:20060  .debug_str:0000000000003c53 .LASF4115
C:\Users\CYMR90~1\AppData\Local\Temp\ccEL7hUr.s:24114  .debug_str:00000000000143b7 .LASF4116
C:\Users\CYMR90~1\AppData\Local\Temp\ccEL7hUr.s:22044  .debug_str:000000000000beb1 .LASF4117
C:\Users\CYMR90~1\AppData\Local\Temp\ccEL7hUr.s:19428  .debug_str:0000000000001449 .LASF4118
C:\Users\CYMR90~1\AppData\Local\Temp\ccEL7hUr.s:29841  .debug_str:000000000002b1c3 .LASF4119
C:\Users\CYMR90~1\AppData\Local\Temp\ccEL7hUr.s:26755  .debug_str:000000000001ef0e .LASF4120
C:\Users\CYMR90~1\AppData\Local\Temp\ccEL7hUr.s:26937  .debug_str:000000000001fa19 .LASF4121
C:\Users\CYMR90~1\AppData\Local\Temp\ccEL7hUr.s:30299  .debug_str:000000000002d07b .LASF4122
C:\Users\CYMR90~1\AppData\Local\Temp\ccEL7hUr.s:19422  .debug_str:00000000000013ed .LASF4123
C:\Users\CYMR90~1\AppData\Local\Temp\ccEL7hUr.s:23578  .debug_str:00000000000120b4 .LASF4124
C:\Users\CYMR90~1\AppData\Local\Temp\ccEL7hUr.s:25875  .debug_str:000000000001b739 .LASF4125
C:\Users\CYMR90~1\AppData\Local\Temp\ccEL7hUr.s:28519  .debug_str:0000000000025e36 .LASF4126
C:\Users\CYMR90~1\AppData\Local\Temp\ccEL7hUr.s:24286  .debug_str:0000000000014eae .LASF4127
C:\Users\CYMR90~1\AppData\Local\Temp\ccEL7hUr.s:27483  .debug_str:0000000000021be8 .LASF4128
C:\Users\CYMR90~1\AppData\Local\Temp\ccEL7hUr.s:19868  .debug_str:0000000000002faa .LASF4129
C:\Users\CYMR90~1\AppData\Local\Temp\ccEL7hUr.s:21178  .debug_str:00000000000085ac .LASF4130
C:\Users\CYMR90~1\AppData\Local\Temp\ccEL7hUr.s:25075  .debug_str:00000000000181c8 .LASF4131
C:\Users\CYMR90~1\AppData\Local\Temp\ccEL7hUr.s:28979  .debug_str:0000000000027b68 .LASF4132
C:\Users\CYMR90~1\AppData\Local\Temp\ccEL7hUr.s:28971  .debug_str:0000000000027ade .LASF4133
C:\Users\CYMR90~1\AppData\Local\Temp\ccEL7hUr.s:30163  .debug_str:000000000002c785 .LASF4134
C:\Users\CYMR90~1\AppData\Local\Temp\ccEL7hUr.s:29537  .debug_str:0000000000029f23 .LASF4135
C:\Users\CYMR90~1\AppData\Local\Temp\ccEL7hUr.s:25277  .debug_str:0000000000018ee6 .LASF4136
C:\Users\CYMR90~1\AppData\Local\Temp\ccEL7hUr.s:19744  .debug_str:00000000000027cd .LASF4137
C:\Users\CYMR90~1\AppData\Local\Temp\ccEL7hUr.s:28425  .debug_str:00000000000258a2 .LASF4138
C:\Users\CYMR90~1\AppData\Local\Temp\ccEL7hUr.s:21118  .debug_str:00000000000081be .LASF4139
C:\Users\CYMR90~1\AppData\Local\Temp\ccEL7hUr.s:25001  .debug_str:0000000000017d4f .LASF4140
C:\Users\CYMR90~1\AppData\Local\Temp\ccEL7hUr.s:29743  .debug_str:000000000002ab7e .LASF4141
C:\Users\CYMR90~1\AppData\Local\Temp\ccEL7hUr.s:20084  .debug_str:0000000000003df2 .LASF4142
C:\Users\CYMR90~1\AppData\Local\Temp\ccEL7hUr.s:25495  .debug_str:0000000000019daa .LASF4143
C:\Users\CYMR90~1\AppData\Local\Temp\ccEL7hUr.s:29477  .debug_str:0000000000029bb9 .LASF4144
C:\Users\CYMR90~1\AppData\Local\Temp\ccEL7hUr.s:27917  .debug_str:00000000000235bc .LASF4145
C:\Users\CYMR90~1\AppData\Local\Temp\ccEL7hUr.s:26971  .debug_str:000000000001fc3d .LASF4146
C:\Users\CYMR90~1\AppData\Local\Temp\ccEL7hUr.s:28255  .debug_str:0000000000024bda .LASF4147
C:\Users\CYMR90~1\AppData\Local\Temp\ccEL7hUr.s:23460  .debug_str:0000000000011875 .LASF4148
C:\Users\CYMR90~1\AppData\Local\Temp\ccEL7hUr.s:24943  .debug_str:00000000000179f6 .LASF4149
C:\Users\CYMR90~1\AppData\Local\Temp\ccEL7hUr.s:21270  .debug_str:0000000000008b79 .LASF4150
C:\Users\CYMR90~1\AppData\Local\Temp\ccEL7hUr.s:25663  .debug_str:000000000001a98c .LASF4151
C:\Users\CYMR90~1\AppData\Local\Temp\ccEL7hUr.s:25895  .debug_str:000000000001b896 .LASF4152
C:\Users\CYMR90~1\AppData\Local\Temp\ccEL7hUr.s:29409  .debug_str:00000000000297ae .LASF4153
C:\Users\CYMR90~1\AppData\Local\Temp\ccEL7hUr.s:22104  .debug_str:000000000000c27f .LASF4154
C:\Users\CYMR90~1\AppData\Local\Temp\ccEL7hUr.s:22516  .debug_str:000000000000dd39 .LASF4155
C:\Users\CYMR90~1\AppData\Local\Temp\ccEL7hUr.s:22974  .debug_str:000000000000f9f8 .LASF4156
C:\Users\CYMR90~1\AppData\Local\Temp\ccEL7hUr.s:20982  .debug_str:00000000000077b0 .LASF4157
C:\Users\CYMR90~1\AppData\Local\Temp\ccEL7hUr.s:24879  .debug_str:00000000000175c1 .LASF4158
C:\Users\CYMR90~1\AppData\Local\Temp\ccEL7hUr.s:27899  .debug_str:0000000000023450 .LASF4159
C:\Users\CYMR90~1\AppData\Local\Temp\ccEL7hUr.s:21452  .debug_str:00000000000096cd .LASF4160
C:\Users\CYMR90~1\AppData\Local\Temp\ccEL7hUr.s:30217  .debug_str:000000000002cb07 .LASF4161
C:\Users\CYMR90~1\AppData\Local\Temp\ccEL7hUr.s:29351  .debug_str:0000000000029408 .LASF4162
C:\Users\CYMR90~1\AppData\Local\Temp\ccEL7hUr.s:22038  .debug_str:000000000000be38 .LASF4163
C:\Users\CYMR90~1\AppData\Local\Temp\ccEL7hUr.s:25969  .debug_str:000000000001bcc5 .LASF4164
C:\Users\CYMR90~1\AppData\Local\Temp\ccEL7hUr.s:28277  .debug_str:0000000000024d68 .LASF4165
C:\Users\CYMR90~1\AppData\Local\Temp\ccEL7hUr.s:24346  .debug_str:000000000001526f .LASF4166
C:\Users\CYMR90~1\AppData\Local\Temp\ccEL7hUr.s:24819  .debug_str:0000000000017209 .LASF4167
C:\Users\CYMR90~1\AppData\Local\Temp\ccEL7hUr.s:27731  .debug_str:0000000000022a80 .LASF4168
C:\Users\CYMR90~1\AppData\Local\Temp\ccEL7hUr.s:19328  .debug_str:0000000000000e0d .LASF4169
C:\Users\CYMR90~1\AppData\Local\Temp\ccEL7hUr.s:25307  .debug_str:0000000000019175 .LASF4170
C:\Users\CYMR90~1\AppData\Local\Temp\ccEL7hUr.s:24825  .debug_str:0000000000017275 .LASF4171
C:\Users\CYMR90~1\AppData\Local\Temp\ccEL7hUr.s:27139  .debug_str:00000000000206f4 .LASF4172
C:\Users\CYMR90~1\AppData\Local\Temp\ccEL7hUr.s:29457  .debug_str:0000000000029a76 .LASF4173
C:\Users\CYMR90~1\AppData\Local\Temp\ccEL7hUr.s:29763  .debug_str:000000000002acd3 .LASF4174
C:\Users\CYMR90~1\AppData\Local\Temp\ccEL7hUr.s:22890  .debug_str:000000000000f451 .LASF4175
C:\Users\CYMR90~1\AppData\Local\Temp\ccEL7hUr.s:30169  .debug_str:000000000002c7fe .LASF4176
C:\Users\CYMR90~1\AppData\Local\Temp\ccEL7hUr.s:28651  .debug_str:000000000002668f .LASF4177
C:\Users\CYMR90~1\AppData\Local\Temp\ccEL7hUr.s:27229  .debug_str:0000000000020c71 .LASF4178
C:\Users\CYMR90~1\AppData\Local\Temp\ccEL7hUr.s:25243  .debug_str:0000000000018cd6 .LASF4179
C:\Users\CYMR90~1\AppData\Local\Temp\ccEL7hUr.s:29223  .debug_str:0000000000028c0a .LASF4180
C:\Users\CYMR90~1\AppData\Local\Temp\ccEL7hUr.s:28133  .debug_str:00000000000243e8 .LASF4181
C:\Users\CYMR90~1\AppData\Local\Temp\ccEL7hUr.s:25807  .debug_str:000000000001b325 .LASF4182
C:\Users\CYMR90~1\AppData\Local\Temp\ccEL7hUr.s:29693  .debug_str:000000000002a898 .LASF4183
C:\Users\CYMR90~1\AppData\Local\Temp\ccEL7hUr.s:22392  .debug_str:000000000000d603 .LASF4184
C:\Users\CYMR90~1\AppData\Local\Temp\ccEL7hUr.s:28653  .debug_str:00000000000266b5 .LASF4185
C:\Users\CYMR90~1\AppData\Local\Temp\ccEL7hUr.s:24722  .debug_str:0000000000016a08 .LASF4186
C:\Users\CYMR90~1\AppData\Local\Temp\ccEL7hUr.s:21274  .debug_str:0000000000008bb3 .LASF4187
C:\Users\CYMR90~1\AppData\Local\Temp\ccEL7hUr.s:25167  .debug_str:0000000000018717 .LASF4188
C:\Users\CYMR90~1\AppData\Local\Temp\ccEL7hUr.s:23240  .debug_str:0000000000010a9b .LASF4189
C:\Users\CYMR90~1\AppData\Local\Temp\ccEL7hUr.s:21840  .debug_str:000000000000b02d .LASF4190
C:\Users\CYMR90~1\AppData\Local\Temp\ccEL7hUr.s:25203  .debug_str:00000000000189bb .LASF4191
C:\Users\CYMR90~1\AppData\Local\Temp\ccEL7hUr.s:25413  .debug_str:000000000001982a .LASF4192
C:\Users\CYMR90~1\AppData\Local\Temp\ccEL7hUr.s:29847  .debug_str:000000000002b219 .LASF4193
C:\Users\CYMR90~1\AppData\Local\Temp\ccEL7hUr.s:20904  .debug_str:00000000000072cc .LASF4194
C:\Users\CYMR90~1\AppData\Local\Temp\ccEL7hUr.s:30115  .debug_str:000000000002c489 .LASF4195
C:\Users\CYMR90~1\AppData\Local\Temp\ccEL7hUr.s:27189  .debug_str:0000000000020a06 .LASF4196
C:\Users\CYMR90~1\AppData\Local\Temp\ccEL7hUr.s:20848  .debug_str:0000000000006eb9 .LASF4197
C:\Users\CYMR90~1\AppData\Local\Temp\ccEL7hUr.s:29093  .debug_str:00000000000283b8 .LASF4198
C:\Users\CYMR90~1\AppData\Local\Temp\ccEL7hUr.s:21770  .debug_str:000000000000aaf0 .LASF4199
C:\Users\CYMR90~1\AppData\Local\Temp\ccEL7hUr.s:20462  .debug_str:000000000000568a .LASF4200
C:\Users\CYMR90~1\AppData\Local\Temp\ccEL7hUr.s:21216  .debug_str:00000000000087ea .LASF4201
C:\Users\CYMR90~1\AppData\Local\Temp\ccEL7hUr.s:22270  .debug_str:000000000000cde4 .LASF4202
C:\Users\CYMR90~1\AppData\Local\Temp\ccEL7hUr.s:26125  .debug_str:000000000001c669 .LASF4203
C:\Users\CYMR90~1\AppData\Local\Temp\ccEL7hUr.s:30049  .debug_str:000000000002bfe5 .LASF4204
C:\Users\CYMR90~1\AppData\Local\Temp\ccEL7hUr.s:22828  .debug_str:000000000000f07c .LASF4205
C:\Users\CYMR90~1\AppData\Local\Temp\ccEL7hUr.s:26913  .debug_str:000000000001f894 .LASF4206
C:\Users\CYMR90~1\AppData\Local\Temp\ccEL7hUr.s:26045  .debug_str:000000000001c1e0 .LASF4207
C:\Users\CYMR90~1\AppData\Local\Temp\ccEL7hUr.s:29875  .debug_str:000000000002b412 .LASF4208
C:\Users\CYMR90~1\AppData\Local\Temp\ccEL7hUr.s:25621  .debug_str:000000000001a657 .LASF4209
C:\Users\CYMR90~1\AppData\Local\Temp\ccEL7hUr.s:28235  .debug_str:0000000000024aab .LASF4210
C:\Users\CYMR90~1\AppData\Local\Temp\ccEL7hUr.s:25593  .debug_str:000000000001a4f4 .LASF4211
C:\Users\CYMR90~1\AppData\Local\Temp\ccEL7hUr.s:26055  .debug_str:000000000001c26b .LASF4212
C:\Users\CYMR90~1\AppData\Local\Temp\ccEL7hUr.s:19222  .debug_str:0000000000000765 .LASF4213
C:\Users\CYMR90~1\AppData\Local\Temp\ccEL7hUr.s:22192  .debug_str:000000000000c7ed .LASF4214
C:\Users\CYMR90~1\AppData\Local\Temp\ccEL7hUr.s:22364  .debug_str:000000000000d3fc .LASF4215
C:\Users\CYMR90~1\AppData\Local\Temp\ccEL7hUr.s:20532  .debug_str:0000000000005b25 .LASF4216
C:\Users\CYMR90~1\AppData\Local\Temp\ccEL7hUr.s:21646  .debug_str:000000000000a321 .LASF4217
C:\Users\CYMR90~1\AppData\Local\Temp\ccEL7hUr.s:25539  .debug_str:000000000001a02a .LASF4218
C:\Users\CYMR90~1\AppData\Local\Temp\ccEL7hUr.s:29431  .debug_str:00000000000298f5 .LASF4219
C:\Users\CYMR90~1\AppData\Local\Temp\ccEL7hUr.s:22128  .debug_str:000000000000c3ef .LASF4220
C:\Users\CYMR90~1\AppData\Local\Temp\ccEL7hUr.s:25995  .debug_str:000000000001be94 .LASF4221
C:\Users\CYMR90~1\AppData\Local\Temp\ccEL7hUr.s:26237  .debug_str:000000000001cece .LASF4222
C:\Users\CYMR90~1\AppData\Local\Temp\ccEL7hUr.s:25683  .debug_str:000000000001aae6 .LASF4223
C:\Users\CYMR90~1\AppData\Local\Temp\ccEL7hUr.s:26527  .debug_str:000000000001e19f .LASF4224
C:\Users\CYMR90~1\AppData\Local\Temp\ccEL7hUr.s:30117  .debug_str:000000000002c4af .LASF4225
C:\Users\CYMR90~1\AppData\Local\Temp\ccEL7hUr.s:21728  .debug_str:000000000000a870 .LASF4226
C:\Users\CYMR90~1\AppData\Local\Temp\ccEL7hUr.s:20210  .debug_str:000000000000468f .LASF4227
C:\Users\CYMR90~1\AppData\Local\Temp\ccEL7hUr.s:24208  .debug_str:00000000000149c6 .LASF4228
C:\Users\CYMR90~1\AppData\Local\Temp\ccEL7hUr.s:28109  .debug_str:0000000000024224 .LASF4229
C:\Users\CYMR90~1\AppData\Local\Temp\ccEL7hUr.s:20776  .debug_str:0000000000006a18 .LASF4230
C:\Users\CYMR90~1\AppData\Local\Temp\ccEL7hUr.s:27615  .debug_str:00000000000223d7 .LASF4231
C:\Users\CYMR90~1\AppData\Local\Temp\ccEL7hUr.s:29955  .debug_str:000000000002b961 .LASF4232
C:\Users\CYMR90~1\AppData\Local\Temp\ccEL7hUr.s:20760  .debug_str:000000000000690d .LASF4233
C:\Users\CYMR90~1\AppData\Local\Temp\ccEL7hUr.s:25161  .debug_str:00000000000186cb .LASF4234
C:\Users\CYMR90~1\AppData\Local\Temp\ccEL7hUr.s:29155  .debug_str:000000000002881a .LASF4235
C:\Users\CYMR90~1\AppData\Local\Temp\ccEL7hUr.s:28495  .debug_str:0000000000025cc0 .LASF4236
C:\Users\CYMR90~1\AppData\Local\Temp\ccEL7hUr.s:24150  .debug_str:00000000000145a5 .LASF4237
C:\Users\CYMR90~1\AppData\Local\Temp\ccEL7hUr.s:28047  .debug_str:0000000000023d5a .LASF4238
C:\Users\CYMR90~1\AppData\Local\Temp\ccEL7hUr.s:28783  .debug_str:0000000000026e92 .LASF4239
C:\Users\CYMR90~1\AppData\Local\Temp\ccEL7hUr.s:26335  .debug_str:000000000001d53e .LASF4240
C:\Users\CYMR90~1\AppData\Local\Temp\ccEL7hUr.s:27067  .debug_str:00000000000201f3 .LASF4241
C:\Users\CYMR90~1\AppData\Local\Temp\ccEL7hUr.s:23222  .debug_str:0000000000010991 .LASF4242
C:\Users\CYMR90~1\AppData\Local\Temp\ccEL7hUr.s:26771  .debug_str:000000000001f01e .LASF4243
C:\Users\CYMR90~1\AppData\Local\Temp\ccEL7hUr.s:22524  .debug_str:000000000000ddc0 .LASF4244
C:\Users\CYMR90~1\AppData\Local\Temp\ccEL7hUr.s:21092  .debug_str:0000000000007f81 .LASF4245
C:\Users\CYMR90~1\AppData\Local\Temp\ccEL7hUr.s:28383  .debug_str:000000000002552e .LASF4246
C:\Users\CYMR90~1\AppData\Local\Temp\ccEL7hUr.s:29975  .debug_str:000000000002babc .LASF4247
C:\Users\CYMR90~1\AppData\Local\Temp\ccEL7hUr.s:21444  .debug_str:0000000000009654 .LASF4248
C:\Users\CYMR90~1\AppData\Local\Temp\ccEL7hUr.s:24538  .debug_str:0000000000015e04 .LASF4249
C:\Users\CYMR90~1\AppData\Local\Temp\ccEL7hUr.s:28441  .debug_str:000000000002598f .LASF4250
C:\Users\CYMR90~1\AppData\Local\Temp\ccEL7hUr.s:23640  .debug_str:00000000000124d0 .LASF4251
C:\Users\CYMR90~1\AppData\Local\Temp\ccEL7hUr.s:23684  .debug_str:00000000000127a9 .LASF4252
C:\Users\CYMR90~1\AppData\Local\Temp\ccEL7hUr.s:22298  .debug_str:000000000000cf57 .LASF4253
C:\Users\CYMR90~1\AppData\Local\Temp\ccEL7hUr.s:21700  .debug_str:000000000000a68b .LASF4254
C:\Users\CYMR90~1\AppData\Local\Temp\ccEL7hUr.s:25611  .debug_str:000000000001a5c4 .LASF4255
C:\Users\CYMR90~1\AppData\Local\Temp\ccEL7hUr.s:22710  .debug_str:000000000000e97f .LASF4256
C:\Users\CYMR90~1\AppData\Local\Temp\ccEL7hUr.s:20574  .debug_str:0000000000005d8f .LASF4257
C:\Users\CYMR90~1\AppData\Local\Temp\ccEL7hUr.s:26801  .debug_str:000000000001f1f2 .LASF4258
C:\Users\CYMR90~1\AppData\Local\Temp\ccEL7hUr.s:28379  .debug_str:00000000000254dc .LASF4259
C:\Users\CYMR90~1\AppData\Local\Temp\ccEL7hUr.s:28171  .debug_str:000000000002464b .LASF4260
C:\Users\CYMR90~1\AppData\Local\Temp\ccEL7hUr.s:20142  .debug_str:000000000000422e .LASF4261
C:\Users\CYMR90~1\AppData\Local\Temp\ccEL7hUr.s:25779  .debug_str:000000000001b114 .LASF4262
C:\Users\CYMR90~1\AppData\Local\Temp\ccEL7hUr.s:23306  .debug_str:0000000000010f26 .LASF4263
C:\Users\CYMR90~1\AppData\Local\Temp\ccEL7hUr.s:25531  .debug_str:0000000000019fb3 .LASF4264
C:\Users\CYMR90~1\AppData\Local\Temp\ccEL7hUr.s:29425  .debug_str:000000000002988b .LASF4265
C:\Users\CYMR90~1\AppData\Local\Temp\ccEL7hUr.s:28765  .debug_str:0000000000026d7a .LASF4266
C:\Users\CYMR90~1\AppData\Local\Temp\ccEL7hUr.s:24414  .debug_str:0000000000015642 .LASF4267
C:\Users\CYMR90~1\AppData\Local\Temp\ccEL7hUr.s:30061  .debug_str:000000000002c0c9 .LASF4268
C:\Users\CYMR90~1\AppData\Local\Temp\ccEL7hUr.s:20990  .debug_str:0000000000007842 .LASF4269
C:\Users\CYMR90~1\AppData\Local\Temp\ccEL7hUr.s:28323  .debug_str:0000000000025097 .LASF4270
C:\Users\CYMR90~1\AppData\Local\Temp\ccEL7hUr.s:30293  .debug_str:000000000002d017 .LASF4271
C:\Users\CYMR90~1\AppData\Local\Temp\ccEL7hUr.s:20304  .debug_str:0000000000004d2d .LASF4272
C:\Users\CYMR90~1\AppData\Local\Temp\ccEL7hUr.s:25469  .debug_str:0000000000019c16 .LASF4273
C:\Users\CYMR90~1\AppData\Local\Temp\ccEL7hUr.s:20526  .debug_str:0000000000005a91 .LASF4274
C:\Users\CYMR90~1\AppData\Local\Temp\ccEL7hUr.s:22050  .debug_str:000000000000bf0f .LASF4275
C:\Users\CYMR90~1\AppData\Local\Temp\ccEL7hUr.s:23372  .debug_str:00000000000112e5 .LASF4276
C:\Users\CYMR90~1\AppData\Local\Temp\ccEL7hUr.s:21544  .debug_str:0000000000009cc8 .LASF4277
C:\Users\CYMR90~1\AppData\Local\Temp\ccEL7hUr.s:28537  .debug_str:0000000000025f8d .LASF4278
C:\Users\CYMR90~1\AppData\Local\Temp\ccEL7hUr.s:24915  .debug_str:00000000000177f9 .LASF4279
C:\Users\CYMR90~1\AppData\Local\Temp\ccEL7hUr.s:25405  .debug_str:0000000000019780 .LASF4280
C:\Users\CYMR90~1\AppData\Local\Temp\ccEL7hUr.s:26115  .debug_str:000000000001c5b2 .LASF4281
C:\Users\CYMR90~1\AppData\Local\Temp\ccEL7hUr.s:25409  .debug_str:00000000000197df .LASF4282
C:\Users\CYMR90~1\AppData\Local\Temp\ccEL7hUr.s:29305  .debug_str:000000000002914c .LASF4283
C:\Users\CYMR90~1\AppData\Local\Temp\ccEL7hUr.s:19518  .debug_str:0000000000001a33 .LASF4284
C:\Users\CYMR90~1\AppData\Local\Temp\ccEL7hUr.s:21854  .debug_str:000000000000b11c .LASF4285
C:\Users\CYMR90~1\AppData\Local\Temp\ccEL7hUr.s:23004  .debug_str:000000000000fb9c .LASF4286
C:\Users\CYMR90~1\AppData\Local\Temp\ccEL7hUr.s:20858  .debug_str:0000000000006f42 .LASF4287
C:\Users\CYMR90~1\AppData\Local\Temp\ccEL7hUr.s:24857  .debug_str:000000000001746d .LASF4288
C:\Users\CYMR90~1\AppData\Local\Temp\ccEL7hUr.s:28757  .debug_str:0000000000026d02 .LASF4289
C:\Users\CYMR90~1\AppData\Local\Temp\ccEL7hUr.s:27283  .debug_str:0000000000020f75 .LASF4290
C:\Users\CYMR90~1\AppData\Local\Temp\ccEL7hUr.s:25343  .debug_str:000000000001938f .LASF4291
C:\Users\CYMR90~1\AppData\Local\Temp\ccEL7hUr.s:20686  .debug_str:0000000000006479 .LASF4292
C:\Users\CYMR90~1\AppData\Local\Temp\ccEL7hUr.s:21920  .debug_str:000000000000b563 .LASF4293
C:\Users\CYMR90~1\AppData\Local\Temp\ccEL7hUr.s:25335  .debug_str:0000000000019319 .LASF4294
C:\Users\CYMR90~1\AppData\Local\Temp\ccEL7hUr.s:23538  .debug_str:0000000000011e36 .LASF4295
C:\Users\CYMR90~1\AppData\Local\Temp\ccEL7hUr.s:20604  .debug_str:0000000000005f56 .LASF4296
C:\Users\CYMR90~1\AppData\Local\Temp\ccEL7hUr.s:24793  .debug_str:00000000000170a2 .LASF4297
C:\Users\CYMR90~1\AppData\Local\Temp\ccEL7hUr.s:28687  .debug_str:00000000000268b1 .LASF4298
C:\Users\CYMR90~1\AppData\Local\Temp\ccEL7hUr.s:21378  .debug_str:0000000000009222 .LASF4299
C:\Users\CYMR90~1\AppData\Local\Temp\ccEL7hUr.s:19482  .debug_str:0000000000001806 .LASF4300
C:\Users\CYMR90~1\AppData\Local\Temp\ccEL7hUr.s:25445  .debug_str:0000000000019a9a .LASF4301
C:\Users\CYMR90~1\AppData\Local\Temp\ccEL7hUr.s:26469  .debug_str:000000000001de0c .LASF4302
C:\Users\CYMR90~1\AppData\Local\Temp\ccEL7hUr.s:25769  .debug_str:000000000001b07b .LASF4303
C:\Users\CYMR90~1\AppData\Local\Temp\ccEL7hUr.s:29641  .debug_str:000000000002a5a3 .LASF4304
C:\Users\CYMR90~1\AppData\Local\Temp\ccEL7hUr.s:22430  .debug_str:000000000000d889 .LASF4305
C:\Users\CYMR90~1\AppData\Local\Temp\ccEL7hUr.s:19488  .debug_str:000000000000186c .LASF4306
C:\Users\CYMR90~1\AppData\Local\Temp\ccEL7hUr.s:28627  .debug_str:0000000000026506 .LASF4307
C:\Users\CYMR90~1\AppData\Local\Temp\ccEL7hUr.s:23074  .debug_str:000000000001002d .LASF4308
C:\Users\CYMR90~1\AppData\Local\Temp\ccEL7hUr.s:25513  .debug_str:0000000000019e9c .LASF4309
C:\Users\CYMR90~1\AppData\Local\Temp\ccEL7hUr.s:27669  .debug_str:00000000000226e9 .LASF4310
C:\Users\CYMR90~1\AppData\Local\Temp\ccEL7hUr.s:30003  .debug_str:000000000002bc89 .LASF4311
C:\Users\CYMR90~1\AppData\Local\Temp\ccEL7hUr.s:25709  .debug_str:000000000001ac5f .LASF4312
C:\Users\CYMR90~1\AppData\Local\Temp\ccEL7hUr.s:29581  .debug_str:000000000002a192 .LASF4313
C:\Users\CYMR90~1\AppData\Local\Temp\ccEL7hUr.s:26543  .debug_str:000000000001e274 .LASF4314
C:\Users\CYMR90~1\AppData\Local\Temp\ccEL7hUr.s:23020  .debug_str:000000000000fc92 .LASF4315
C:\Users\CYMR90~1\AppData\Local\Temp\ccEL7hUr.s:23358  .debug_str:0000000000011205 .LASF4316
C:\Users\CYMR90~1\AppData\Local\Temp\ccEL7hUr.s:21244  .debug_str:00000000000089de .LASF4317
C:\Users\CYMR90~1\AppData\Local\Temp\ccEL7hUr.s:21320  .debug_str:0000000000008ee1 .LASF4318
C:\Users\CYMR90~1\AppData\Local\Temp\ccEL7hUr.s:26269  .debug_str:000000000001d141 .LASF4319
C:\Users\CYMR90~1\AppData\Local\Temp\ccEL7hUr.s:23336  .debug_str:00000000000110ac .LASF4320
C:\Users\CYMR90~1\AppData\Local\Temp\ccEL7hUr.s:25637  .debug_str:000000000001a795 .LASF4321
C:\Users\CYMR90~1\AppData\Local\Temp\ccEL7hUr.s:24034  .debug_str:0000000000013e8b .LASF4322
C:\Users\CYMR90~1\AppData\Local\Temp\ccEL7hUr.s:26589  .debug_str:000000000001e52d .LASF4323
C:\Users\CYMR90~1\AppData\Local\Temp\ccEL7hUr.s:27347  .debug_str:00000000000212ff .LASF4324
C:\Users\CYMR90~1\AppData\Local\Temp\ccEL7hUr.s:23484  .debug_str:0000000000011a8d .LASF4325
C:\Users\CYMR90~1\AppData\Local\Temp\ccEL7hUr.s:21768  .debug_str:000000000000aaca .LASF4326
C:\Users\CYMR90~1\AppData\Local\Temp\ccEL7hUr.s:19916  .debug_str:0000000000003313 .LASF4327
C:\Users\CYMR90~1\AppData\Local\Temp\ccEL7hUr.s:23842  .debug_str:0000000000013213 .LASF4328
C:\Users\CYMR90~1\AppData\Local\Temp\ccEL7hUr.s:27379  .debug_str:0000000000021594 .LASF4329
C:\Users\CYMR90~1\AppData\Local\Temp\ccEL7hUr.s:20372  .debug_str:000000000000514c .LASF4330
C:\Users\CYMR90~1\AppData\Local\Temp\ccEL7hUr.s:24282  .debug_str:0000000000014e66 .LASF4331
C:\Users\CYMR90~1\AppData\Local\Temp\ccEL7hUr.s:28181  .debug_str:00000000000246e8 .LASF4332
C:\Users\CYMR90~1\AppData\Local\Temp\ccEL7hUr.s:20850  .debug_str:0000000000006edf .LASF4333
C:\Users\CYMR90~1\AppData\Local\Temp\ccEL7hUr.s:20156  .debug_str:0000000000004304 .LASF4334
C:\Users\CYMR90~1\AppData\Local\Temp\ccEL7hUr.s:28749  .debug_str:0000000000026c67 .LASF4335
C:\Users\CYMR90~1\AppData\Local\Temp\ccEL7hUr.s:26989  .debug_str:000000000001fd35 .LASF4336
C:\Users\CYMR90~1\AppData\Local\Temp\ccEL7hUr.s:23788  .debug_str:0000000000012e9f .LASF4337
C:\Users\CYMR90~1\AppData\Local\Temp\ccEL7hUr.s:27661  .debug_str:0000000000022654 .LASF4338
C:\Users\CYMR90~1\AppData\Local\Temp\ccEL7hUr.s:20314  .debug_str:0000000000004dc0 .LASF4339
C:\Users\CYMR90~1\AppData\Local\Temp\ccEL7hUr.s:24326  .debug_str:0000000000015162 .LASF4340
C:\Users\CYMR90~1\AppData\Local\Temp\ccEL7hUr.s:30167  .debug_str:000000000002c7d8 .LASF4341
C:\Users\CYMR90~1\AppData\Local\Temp\ccEL7hUr.s:28907  .debug_str:0000000000027674 .LASF4342
C:\Users\CYMR90~1\AppData\Local\Temp\ccEL7hUr.s:19992  .debug_str:0000000000003815 .LASF4343
C:\Users\CYMR90~1\AppData\Local\Temp\ccEL7hUr.s:23214  .debug_str:0000000000010914 .LASF4344
C:\Users\CYMR90~1\AppData\Local\Temp\ccEL7hUr.s:21370  .debug_str:00000000000091b3 .LASF4345
C:\Users\CYMR90~1\AppData\Local\Temp\ccEL7hUr.s:29691  .debug_str:000000000002a872 .LASF4346
C:\Users\CYMR90~1\AppData\Local\Temp\ccEL7hUr.s:27589  .debug_str:000000000002225d .LASF4347
C:\Users\CYMR90~1\AppData\Local\Temp\ccEL7hUr.s:24576  .debug_str:00000000000160d7 .LASF4348
C:\Users\CYMR90~1\AppData\Local\Temp\ccEL7hUr.s:27765  .debug_str:0000000000022ce2 .LASF4349
C:\Users\CYMR90~1\AppData\Local\Temp\ccEL7hUr.s:22924  .debug_str:000000000000f659 .LASF4350
C:\Users\CYMR90~1\AppData\Local\Temp\ccEL7hUr.s:20722  .debug_str:0000000000006671 .LASF4351
C:\Users\CYMR90~1\AppData\Local\Temp\ccEL7hUr.s:24622  .debug_str:0000000000016390 .LASF4352
C:\Users\CYMR90~1\AppData\Local\Temp\ccEL7hUr.s:28619  .debug_str:000000000002646e .LASF4353
C:\Users\CYMR90~1\AppData\Local\Temp\ccEL7hUr.s:21310  .debug_str:0000000000008e56 .LASF4354
C:\Users\CYMR90~1\AppData\Local\Temp\ccEL7hUr.s:25199  .debug_str:000000000001895b .LASF4355
C:\Users\CYMR90~1\AppData\Local\Temp\ccEL7hUr.s:22326  .debug_str:000000000000d15b .LASF4356
C:\Users\CYMR90~1\AppData\Local\Temp\ccEL7hUr.s:20188  .debug_str:000000000000450c .LASF4357
C:\Users\CYMR90~1\AppData\Local\Temp\ccEL7hUr.s:24096  .debug_str:00000000000142a6 .LASF4358
C:\Users\CYMR90~1\AppData\Local\Temp\ccEL7hUr.s:22072  .debug_str:000000000000c094 .LASF4359
C:\Users\CYMR90~1\AppData\Local\Temp\ccEL7hUr.s:20658  .debug_str:00000000000062b8 .LASF4360
C:\Users\CYMR90~1\AppData\Local\Temp\ccEL7hUr.s:19796  .debug_str:0000000000002b14 .LASF4361
C:\Users\CYMR90~1\AppData\Local\Temp\ccEL7hUr.s:30173  .debug_str:000000000002c848 .LASF4362
C:\Users\CYMR90~1\AppData\Local\Temp\ccEL7hUr.s:21258  .debug_str:0000000000008ab3 .LASF4363
C:\Users\CYMR90~1\AppData\Local\Temp\ccEL7hUr.s:25129  .debug_str:0000000000018523 .LASF4364
C:\Users\CYMR90~1\AppData\Local\Temp\ccEL7hUr.s:19554  .debug_str:0000000000001c64 .LASF4365
C:\Users\CYMR90~1\AppData\Local\Temp\ccEL7hUr.s:26121  .debug_str:000000000001c609 .LASF4366
C:\Users\CYMR90~1\AppData\Local\Temp\ccEL7hUr.s:24030  .debug_str:0000000000013e48 .LASF4367
C:\Users\CYMR90~1\AppData\Local\Temp\ccEL7hUr.s:27935  .debug_str:00000000000236da .LASF4368
C:\Users\CYMR90~1\AppData\Local\Temp\ccEL7hUr.s:24424  .debug_str:00000000000156f4 .LASF4369
C:\Users\CYMR90~1\AppData\Local\Temp\ccEL7hUr.s:29085  .debug_str:0000000000028332 .LASF4370
C:\Users\CYMR90~1\AppData\Local\Temp\ccEL7hUr.s:22446  .debug_str:000000000000d96b .LASF4371
C:\Users\CYMR90~1\AppData\Local\Temp\ccEL7hUr.s:21166  .debug_str:0000000000008504 .LASF4372
C:\Users\CYMR90~1\AppData\Local\Temp\ccEL7hUr.s:27037  .debug_str:0000000000020061 .LASF4373
C:\Users\CYMR90~1\AppData\Local\Temp\ccEL7hUr.s:28967  .debug_str:0000000000027a96 .LASF4374
C:\Users\CYMR90~1\AppData\Local\Temp\ccEL7hUr.s:21650  .debug_str:000000000000a35f .LASF4375
C:\Users\CYMR90~1\AppData\Local\Temp\ccEL7hUr.s:29985  .debug_str:000000000002bb43 .LASF4376
C:\Users\CYMR90~1\AppData\Local\Temp\ccEL7hUr.s:20956  .debug_str:00000000000075f8 .LASF4377
C:\Users\CYMR90~1\AppData\Local\Temp\ccEL7hUr.s:20522  .debug_str:0000000000005a39 .LASF4378
C:\Users\CYMR90~1\AppData\Local\Temp\ccEL7hUr.s:23608  .debug_str:00000000000122ee .LASF4379
C:\Users\CYMR90~1\AppData\Local\Temp\ccEL7hUr.s:24472  .debug_str:00000000000159bf .LASF4380
C:\Users\CYMR90~1\AppData\Local\Temp\ccEL7hUr.s:21104  .debug_str:00000000000080c6 .LASF4381
C:\Users\CYMR90~1\AppData\Local\Temp\ccEL7hUr.s:24658  .debug_str:0000000000016600 .LASF4382
C:\Users\CYMR90~1\AppData\Local\Temp\ccEL7hUr.s:21638  .debug_str:000000000000a29a .LASF4383
C:\Users\CYMR90~1\AppData\Local\Temp\ccEL7hUr.s:19780  .debug_str:0000000000002a05 .LASF4384
C:\Users\CYMR90~1\AppData\Local\Temp\ccEL7hUr.s:27011  .debug_str:000000000001feee .LASF4385
C:\Users\CYMR90~1\AppData\Local\Temp\ccEL7hUr.s:21838  .debug_str:000000000000b007 .LASF4386
C:\Users\CYMR90~1\AppData\Local\Temp\ccEL7hUr.s:20456  .debug_str:000000000000563e .LASF4387
C:\Users\CYMR90~1\AppData\Local\Temp\ccEL7hUr.s:21056  .debug_str:0000000000007c7d .LASF4388
C:\Users\CYMR90~1\AppData\Local\Temp\ccEL7hUr.s:29389  .debug_str:00000000000296b3 .LASF4389
C:\Users\CYMR90~1\AppData\Local\Temp\ccEL7hUr.s:21028  .debug_str:0000000000007aea .LASF4390
C:\Users\CYMR90~1\AppData\Local\Temp\ccEL7hUr.s:20620  .debug_str:0000000000006049 .LASF4391
C:\Users\CYMR90~1\AppData\Local\Temp\ccEL7hUr.s:21386  .debug_str:00000000000092a8 .LASF4392
C:\Users\CYMR90~1\AppData\Local\Temp\ccEL7hUr.s:28009  .debug_str:0000000000023b2d .LASF4393
C:\Users\CYMR90~1\AppData\Local\Temp\ccEL7hUr.s:20234  .debug_str:000000000000483c .LASF4394
C:\Users\CYMR90~1\AppData\Local\Temp\ccEL7hUr.s:20810  .debug_str:0000000000006c11 .LASF4395
C:\Users\CYMR90~1\AppData\Local\Temp\ccEL7hUr.s:29857  .debug_str:000000000002b2cd .LASF4396
C:\Users\CYMR90~1\AppData\Local\Temp\ccEL7hUr.s:20400  .debug_str:00000000000052fe .LASF4397
C:\Users\CYMR90~1\AppData\Local\Temp\ccEL7hUr.s:21658  .debug_str:000000000000a40f .LASF4398
C:\Users\CYMR90~1\AppData\Local\Temp\ccEL7hUr.s:20966  .debug_str:00000000000076b6 .LASF4399
C:\Users\CYMR90~1\AppData\Local\Temp\ccEL7hUr.s:26275  .debug_str:000000000001d1a6 .LASF4400
C:\Users\CYMR90~1\AppData\Local\Temp\ccEL7hUr.s:28585  .debug_str:000000000002625d .LASF4401
C:\Users\CYMR90~1\AppData\Local\Temp\ccEL7hUr.s:25627  .debug_str:000000000001a6c9 .LASF4402
C:\Users\CYMR90~1\AppData\Local\Temp\ccEL7hUr.s:22006  .debug_str:000000000000bb02 .LASF4403
C:\Users\CYMR90~1\AppData\Local\Temp\ccEL7hUr.s:29337  .debug_str:000000000002930f .LASF4404
C:\Users\CYMR90~1\AppData\Local\Temp\ccEL7hUr.s:21776  .debug_str:000000000000ab68 .LASF4405
C:\Users\CYMR90~1\AppData\Local\Temp\ccEL7hUr.s:19122  .debug_str:0000000000000174 .LASF4406
C:\Users\CYMR90~1\AppData\Local\Temp\ccEL7hUr.s:28225  .debug_str:00000000000249e4 .LASF4407
C:\Users\CYMR90~1\AppData\Local\Temp\ccEL7hUr.s:27437  .debug_str:000000000002191f .LASF4408
C:\Users\CYMR90~1\AppData\Local\Temp\ccEL7hUr.s:24809  .debug_str:000000000001717c .LASF4409
C:\Users\CYMR90~1\AppData\Local\Temp\ccEL7hUr.s:28703  .debug_str:00000000000269bc .LASF4410
C:\Users\CYMR90~1\AppData\Local\Temp\ccEL7hUr.s:24939  .debug_str:000000000001799f .LASF4411
C:\Users\CYMR90~1\AppData\Local\Temp\ccEL7hUr.s:25711  .debug_str:000000000001ac85 .LASF4412
C:\Users\CYMR90~1\AppData\Local\Temp\ccEL7hUr.s:28665  .debug_str:0000000000026773 .LASF4413
C:\Users\CYMR90~1\AppData\Local\Temp\ccEL7hUr.s:21954  .debug_str:000000000000b7c1 .LASF4414
C:\Users\CYMR90~1\AppData\Local\Temp\ccEL7hUr.s:25845  .debug_str:000000000001b566 .LASF4415
C:\Users\CYMR90~1\AppData\Local\Temp\ccEL7hUr.s:27871  .debug_str:00000000000232b7 .LASF4416
C:\Users\CYMR90~1\AppData\Local\Temp\ccEL7hUr.s:20828  .debug_str:0000000000006d71 .LASF4417
C:\Users\CYMR90~1\AppData\Local\Temp\ccEL7hUr.s:24736  .debug_str:0000000000016b75 .LASF4418
C:\Users\CYMR90~1\AppData\Local\Temp\ccEL7hUr.s:28641  .debug_str:00000000000265d3 .LASF4419
C:\Users\CYMR90~1\AppData\Local\Temp\ccEL7hUr.s:20178  .debug_str:0000000000004464 .LASF4420
C:\Users\CYMR90~1\AppData\Local\Temp\ccEL7hUr.s:25245  .debug_str:0000000000018cfc .LASF4421
C:\Users\CYMR90~1\AppData\Local\Temp\ccEL7hUr.s:23904  .debug_str:00000000000136c3 .LASF4422
C:\Users\CYMR90~1\AppData\Local\Temp\ccEL7hUr.s:25977  .debug_str:000000000001bd48 .LASF4423
C:\Users\CYMR90~1\AppData\Local\Temp\ccEL7hUr.s:25799  .debug_str:000000000001b299 .LASF4424
C:\Users\CYMR90~1\AppData\Local\Temp\ccEL7hUr.s:24254  .debug_str:0000000000014c69 .LASF4425
C:\Users\CYMR90~1\AppData\Local\Temp\ccEL7hUr.s:20180  .debug_str:000000000000448a .LASF4426
C:\Users\CYMR90~1\AppData\Local\Temp\ccEL7hUr.s:28609  .debug_str:00000000000263bf .LASF4427
C:\Users\CYMR90~1\AppData\Local\Temp\ccEL7hUr.s:23448  .debug_str:00000000000117ad .LASF4428
C:\Users\CYMR90~1\AppData\Local\Temp\ccEL7hUr.s:27323  .debug_str:0000000000021198 .LASF4429
C:\Users\CYMR90~1\AppData\Local\Temp\ccEL7hUr.s:19996  .debug_str:0000000000003875 .LASF4430
C:\Users\CYMR90~1\AppData\Local\Temp\ccEL7hUr.s:23922  .debug_str:00000000000137ee .LASF4431
C:\Users\CYMR90~1\AppData\Local\Temp\ccEL7hUr.s:27231  .debug_str:0000000000020c97 .LASF4432
C:\Users\CYMR90~1\AppData\Local\Temp\ccEL7hUr.s:26095  .debug_str:000000000001c498 .LASF4433
C:\Users\CYMR90~1\AppData\Local\Temp\ccEL7hUr.s:25263  .debug_str:0000000000018e1c .LASF4434
C:\Users\CYMR90~1\AppData\Local\Temp\ccEL7hUr.s:26813  .debug_str:000000000001f2a6 .LASF4435
C:\Users\CYMR90~1\AppData\Local\Temp\ccEL7hUr.s:20176  .debug_str:000000000000443e .LASF4436
C:\Users\CYMR90~1\AppData\Local\Temp\ccEL7hUr.s:20110  .debug_str:0000000000003fca .LASF4437
C:\Users\CYMR90~1\AppData\Local\Temp\ccEL7hUr.s:27257  .debug_str:0000000000020e0e .LASF4438
C:\Users\CYMR90~1\AppData\Local\Temp\ccEL7hUr.s:25227  .debug_str:0000000000018b16 .LASF4439
C:\Users\CYMR90~1\AppData\Local\Temp\ccEL7hUr.s:23954  .debug_str:00000000000139ca .LASF4440
C:\Users\CYMR90~1\AppData\Local\Temp\ccEL7hUr.s:27759  .debug_str:0000000000022c80 .LASF4441
C:\Users\CYMR90~1\AppData\Local\Temp\ccEL7hUr.s:30271  .debug_str:000000000002ceb6 .LASF4442
C:\Users\CYMR90~1\AppData\Local\Temp\ccEL7hUr.s:21752  .debug_str:000000000000a9be .LASF4443
C:\Users\CYMR90~1\AppData\Local\Temp\ccEL7hUr.s:22428  .debug_str:000000000000d87c .LASF4444
C:\Users\CYMR90~1\AppData\Local\Temp\ccEL7hUr.s:27891  .debug_str:00000000000233dd .LASF4445
C:\Users\CYMR90~1\AppData\Local\Temp\ccEL7hUr.s:26445  .debug_str:000000000001dc01 .LASF4446
C:\Users\CYMR90~1\AppData\Local\Temp\ccEL7hUr.s:19178  .debug_str:00000000000004ba .LASF4447
C:\Users\CYMR90~1\AppData\Local\Temp\ccEL7hUr.s:20226  .debug_str:00000000000047a2 .LASF4448
C:\Users\CYMR90~1\AppData\Local\Temp\ccEL7hUr.s:22608  .debug_str:000000000000e310 .LASF4449
C:\Users\CYMR90~1\AppData\Local\Temp\ccEL7hUr.s:20782  .debug_str:0000000000006a72 .LASF4450
C:\Users\CYMR90~1\AppData\Local\Temp\ccEL7hUr.s:29485  .debug_str:0000000000029c39 .LASF4451
C:\Users\CYMR90~1\AppData\Local\Temp\ccEL7hUr.s:23606  .debug_str:00000000000122c7 .LASF4452
C:\Users\CYMR90~1\AppData\Local\Temp\ccEL7hUr.s:19858  .debug_str:0000000000002f07 .LASF4453
C:\Users\CYMR90~1\AppData\Local\Temp\ccEL7hUr.s:20422  .debug_str:0000000000005436 .LASF4454
C:\Users\CYMR90~1\AppData\Local\Temp\ccEL7hUr.s:19946  .debug_str:0000000000003512 .LASF4455
C:\Users\CYMR90~1\AppData\Local\Temp\ccEL7hUr.s:19140  .debug_str:0000000000000275 .LASF4456
C:\Users\CYMR90~1\AppData\Local\Temp\ccEL7hUr.s:21380  .debug_str:0000000000009248 .LASF4457
C:\Users\CYMR90~1\AppData\Local\Temp\ccEL7hUr.s:24710  .debug_str:0000000000016973 .LASF4458
C:\Users\CYMR90~1\AppData\Local\Temp\ccEL7hUr.s:19848  .debug_str:0000000000002e7c .LASF4459
C:\Users\CYMR90~1\AppData\Local\Temp\ccEL7hUr.s:28723  .debug_str:0000000000026ae1 .LASF4460
C:\Users\CYMR90~1\AppData\Local\Temp\ccEL7hUr.s:24580  .debug_str:0000000000016118 .LASF4461
C:\Users\CYMR90~1\AppData\Local\Temp\ccEL7hUr.s:25239  .debug_str:0000000000018c6f .LASF4462
C:\Users\CYMR90~1\AppData\Local\Temp\ccEL7hUr.s:27903  .debug_str:00000000000234ad .LASF4463
C:\Users\CYMR90~1\AppData\Local\Temp\ccEL7hUr.s:27687  .debug_str:0000000000022807 .LASF4464
C:\Users\CYMR90~1\AppData\Local\Temp\ccEL7hUr.s:23806  .debug_str:0000000000012fb3 .LASF4465
C:\Users\CYMR90~1\AppData\Local\Temp\ccEL7hUr.s:26369  .debug_str:000000000001d779 .LASF4466
C:\Users\CYMR90~1\AppData\Local\Temp\ccEL7hUr.s:29609  .debug_str:000000000002a383 .LASF4467
C:\Users\CYMR90~1\AppData\Local\Temp\ccEL7hUr.s:26343  .debug_str:000000000001d5bb .LASF4468
C:\Users\CYMR90~1\AppData\Local\Temp\ccEL7hUr.s:28491  .debug_str:0000000000025c83 .LASF4469
C:\Users\CYMR90~1\AppData\Local\Temp\ccEL7hUr.s:23344  .debug_str:0000000000011133 .LASF4470
C:\Users\CYMR90~1\AppData\Local\Temp\ccEL7hUr.s:26495  .debug_str:000000000001dfc6 .LASF4471
C:\Users\CYMR90~1\AppData\Local\Temp\ccEL7hUr.s:21548  .debug_str:0000000000009d05 .LASF4472
C:\Users\CYMR90~1\AppData\Local\Temp\ccEL7hUr.s:25765  .debug_str:000000000001b044 .LASF4473
C:\Users\CYMR90~1\AppData\Local\Temp\ccEL7hUr.s:26341  .debug_str:000000000001d596 .LASF4474
C:\Users\CYMR90~1\AppData\Local\Temp\ccEL7hUr.s:21932  .debug_str:000000000000b624 .LASF4475
C:\Users\CYMR90~1\AppData\Local\Temp\ccEL7hUr.s:24919  .debug_str:0000000000017837 .LASF4476
C:\Users\CYMR90~1\AppData\Local\Temp\ccEL7hUr.s:26041  .debug_str:000000000001c17f .LASF4477
C:\Users\CYMR90~1\AppData\Local\Temp\ccEL7hUr.s:23738  .debug_str:0000000000012b69 .LASF4478
C:\Users\CYMR90~1\AppData\Local\Temp\ccEL7hUr.s:27211  .debug_str:0000000000020b47 .LASF4479
C:\Users\CYMR90~1\AppData\Local\Temp\ccEL7hUr.s:21864  .debug_str:000000000000b1a0 .LASF4480
C:\Users\CYMR90~1\AppData\Local\Temp\ccEL7hUr.s:25733  .debug_str:000000000001add2 .LASF4481
C:\Users\CYMR90~1\AppData\Local\Temp\ccEL7hUr.s:24422  .debug_str:00000000000156cf .LASF4482
C:\Users\CYMR90~1\AppData\Local\Temp\ccEL7hUr.s:23786  .debug_str:0000000000012e7a .LASF4483
C:\Users\CYMR90~1\AppData\Local\Temp\ccEL7hUr.s:29983  .debug_str:000000000002bb2c .LASF4484
C:\Users\CYMR90~1\AppData\Local\Temp\ccEL7hUr.s:25361  .debug_str:00000000000194c0 .LASF4485
C:\Users\CYMR90~1\AppData\Local\Temp\ccEL7hUr.s:24917  .debug_str:000000000001781f .LASF4486
C:\Users\CYMR90~1\AppData\Local\Temp\ccEL7hUr.s:26365  .debug_str:000000000001d758 .LASF4487
C:\Users\CYMR90~1\AppData\Local\Temp\ccEL7hUr.s:28017  .debug_str:0000000000023b9f .LASF4488
C:\Users\CYMR90~1\AppData\Local\Temp\ccEL7hUr.s:20454  .debug_str:0000000000005625 .LASF4489
C:\Users\CYMR90~1\AppData\Local\Temp\ccEL7hUr.s:19420  .debug_str:00000000000013d9 .LASF4490
C:\Users\CYMR90~1\AppData\Local\Temp\ccEL7hUr.s:26679  .debug_str:000000000001eaa5 .LASF4491
C:\Users\CYMR90~1\AppData\Local\Temp\ccEL7hUr.s:27395  .debug_str:000000000002167d .LASF4492
C:\Users\CYMR90~1\AppData\Local\Temp\ccEL7hUr.s:29555  .debug_str:000000000002a040 .LASF4493
C:\Users\CYMR90~1\AppData\Local\Temp\ccEL7hUr.s:23464  .debug_str:00000000000118b2 .LASF4494
C:\Users\CYMR90~1\AppData\Local\Temp\ccEL7hUr.s:29215  .debug_str:0000000000028ba9 .LASF4495
C:\Users\CYMR90~1\AppData\Local\Temp\ccEL7hUr.s:24216  .debug_str:0000000000014a33 .LASF4496
C:\Users\CYMR90~1\AppData\Local\Temp\ccEL7hUr.s:21826  .debug_str:000000000000af54 .LASF4497
C:\Users\CYMR90~1\AppData\Local\Temp\ccEL7hUr.s:27173  .debug_str:00000000000208fe .LASF4498
C:\Users\CYMR90~1\AppData\Local\Temp\ccEL7hUr.s:21272  .debug_str:0000000000008b9f .LASF4499
C:\Users\CYMR90~1\AppData\Local\Temp\ccEL7hUr.s:24831  .debug_str:00000000000172d1 .LASF4500
C:\Users\CYMR90~1\AppData\Local\Temp\ccEL7hUr.s:27981  .debug_str:00000000000239b9 .LASF4501
C:\Users\CYMR90~1\AppData\Local\Temp\ccEL7hUr.s:28795  .debug_str:0000000000026f48 .LASF4502
C:\Users\CYMR90~1\AppData\Local\Temp\ccEL7hUr.s:24252  .debug_str:0000000000014c55 .LASF4503
C:\Users\CYMR90~1\AppData\Local\Temp\ccEL7hUr.s:26583  .debug_str:000000000001e4c0 .LASF4504
C:\Users\CYMR90~1\AppData\Local\Temp\ccEL7hUr.s:22252  .debug_str:000000000000ccf8 .LASF4505
C:\Users\CYMR90~1\AppData\Local\Temp\ccEL7hUr.s:24036  .debug_str:0000000000013eb1 .LASF4506
C:\Users\CYMR90~1\AppData\Local\Temp\ccEL7hUr.s:26413  .debug_str:000000000001da42 .LASF4507
C:\Users\CYMR90~1\AppData\Local\Temp\ccEL7hUr.s:23816  .debug_str:0000000000013051 .LASF4508
C:\Users\CYMR90~1\AppData\Local\Temp\ccEL7hUr.s:27245  .debug_str:0000000000020d8c .LASF4509
C:\Users\CYMR90~1\AppData\Local\Temp\ccEL7hUr.s:22798  .debug_str:000000000000eeea .LASF4510
C:\Users\CYMR90~1\AppData\Local\Temp\ccEL7hUr.s:26363  .debug_str:000000000001d743 .LASF4511
C:\Users\CYMR90~1\AppData\Local\Temp\ccEL7hUr.s:20232  .debug_str:0000000000004828 .LASF4512
C:\Users\CYMR90~1\AppData\Local\Temp\ccEL7hUr.s:19606  .debug_str:0000000000001f82 .LASF4513
C:\Users\CYMR90~1\AppData\Local\Temp\ccEL7hUr.s:26083  .debug_str:000000000001c408 .LASF4514
C:\Users\CYMR90~1\AppData\Local\Temp\ccEL7hUr.s:21188  .debug_str:0000000000008659 .LASF4515
C:\Users\CYMR90~1\AppData\Local\Temp\ccEL7hUr.s:29683  .debug_str:000000000002a821 .LASF4516
C:\Users\CYMR90~1\AppData\Local\Temp\ccEL7hUr.s:21040  .debug_str:0000000000007ba0 .LASF4517
C:\Users\CYMR90~1\AppData\Local\Temp\ccEL7hUr.s:19190  .debug_str:0000000000000576 .LASF4518
C:\Users\CYMR90~1\AppData\Local\Temp\ccEL7hUr.s:28217  .debug_str:000000000002497b .LASF4519
C:\Users\CYMR90~1\AppData\Local\Temp\ccEL7hUr.s:25147  .debug_str:0000000000018620 .LASF4520
C:\Users\CYMR90~1\AppData\Local\Temp\ccEL7hUr.s:22904  .debug_str:000000000000f53c .LASF4521
C:\Users\CYMR90~1\AppData\Local\Temp\ccEL7hUr.s:27831  .debug_str:000000000002307c .LASF4522
C:\Users\CYMR90~1\AppData\Local\Temp\ccEL7hUr.s:29507  .debug_str:0000000000029d72 .LASF4523
C:\Users\CYMR90~1\AppData\Local\Temp\ccEL7hUr.s:22102  .debug_str:000000000000c26b .LASF4524
C:\Users\CYMR90~1\AppData\Local\Temp\ccEL7hUr.s:20642  .debug_str:00000000000061e0 .LASF4525
C:\Users\CYMR90~1\AppData\Local\Temp\ccEL7hUr.s:20282  .debug_str:0000000000004bc2 .LASF4526
C:\Users\CYMR90~1\AppData\Local\Temp\ccEL7hUr.s:28563  .debug_str:0000000000026139 .LASF4527
C:\Users\CYMR90~1\AppData\Local\Temp\ccEL7hUr.s:22500  .debug_str:000000000000dc7b .LASF4528
C:\Users\CYMR90~1\AppData\Local\Temp\ccEL7hUr.s:23896  .debug_str:000000000001362d .LASF4529
C:\Users\CYMR90~1\AppData\Local\Temp\ccEL7hUr.s:21250  .debug_str:0000000000008a3f .LASF4530
C:\Users\CYMR90~1\AppData\Local\Temp\ccEL7hUr.s:24430  .debug_str:0000000000015745 .LASF4531
C:\Users\CYMR90~1\AppData\Local\Temp\ccEL7hUr.s:28351  .debug_str:00000000000252fa .LASF4532
C:\Users\CYMR90~1\AppData\Local\Temp\ccEL7hUr.s:19708  .debug_str:0000000000002520 .LASF4533
C:\Users\CYMR90~1\AppData\Local\Temp\ccEL7hUr.s:22846  .debug_str:000000000000f18f .LASF4534
C:\Users\CYMR90~1\AppData\Local\Temp\ccEL7hUr.s:19330  .debug_str:0000000000000e33 .LASF4535
C:\Users\CYMR90~1\AppData\Local\Temp\ccEL7hUr.s:23294  .debug_str:0000000000010e8e .LASF4536
C:\Users\CYMR90~1\AppData\Local\Temp\ccEL7hUr.s:21974  .debug_str:000000000000b8e4 .LASF4537
C:\Users\CYMR90~1\AppData\Local\Temp\ccEL7hUr.s:26939  .debug_str:000000000001fa3f .LASF4538
C:\Users\CYMR90~1\AppData\Local\Temp\ccEL7hUr.s:25913  .debug_str:000000000001b96c .LASF4539
C:\Users\CYMR90~1\AppData\Local\Temp\ccEL7hUr.s:23704  .debug_str:0000000000012908 .LASF4540
C:\Users\CYMR90~1\AppData\Local\Temp\ccEL7hUr.s:19702  .debug_str:00000000000024d3 .LASF4541
C:\Users\CYMR90~1\AppData\Local\Temp\ccEL7hUr.s:26315  .debug_str:000000000001d3ef .LASF4542
C:\Users\CYMR90~1\AppData\Local\Temp\ccEL7hUr.s:22226  .debug_str:000000000000cacd .LASF4543
C:\Users\CYMR90~1\AppData\Local\Temp\ccEL7hUr.s:29667  .debug_str:000000000002a73c .LASF4544
C:\Users\CYMR90~1\AppData\Local\Temp\ccEL7hUr.s:25595  .debug_str:000000000001a51a .LASF4545
C:\Users\CYMR90~1\AppData\Local\Temp\ccEL7hUr.s:27797  .debug_str:0000000000022ea7 .LASF4546
C:\Users\CYMR90~1\AppData\Local\Temp\ccEL7hUr.s:29345  .debug_str:0000000000029396 .LASF4547
C:\Users\CYMR90~1\AppData\Local\Temp\ccEL7hUr.s:24674  .debug_str:00000000000166f1 .LASF4548
C:\Users\CYMR90~1\AppData\Local\Temp\ccEL7hUr.s:25331  .debug_str:00000000000192e6 .LASF4549
C:\Users\CYMR90~1\AppData\Local\Temp\ccEL7hUr.s:20452  .debug_str:000000000000560c .LASF4550
C:\Users\CYMR90~1\AppData\Local\Temp\ccEL7hUr.s:29479  .debug_str:0000000000029bdf .LASF4551
C:\Users\CYMR90~1\AppData\Local\Temp\ccEL7hUr.s:21364  .debug_str:0000000000009136 .LASF4552
C:\Users\CYMR90~1\AppData\Local\Temp\ccEL7hUr.s:26217  .debug_str:000000000001ccf7 .LASF4553
C:\Users\CYMR90~1\AppData\Local\Temp\ccEL7hUr.s:27515  .debug_str:0000000000021e07 .LASF4554
C:\Users\CYMR90~1\AppData\Local\Temp\ccEL7hUr.s:22458  .debug_str:000000000000da29 .LASF4555
C:\Users\CYMR90~1\AppData\Local\Temp\ccEL7hUr.s:29829  .debug_str:000000000002b0e4 .LASF4556
C:\Users\CYMR90~1\AppData\Local\Temp\ccEL7hUr.s:21994  .debug_str:000000000000ba55 .LASF4557
C:\Users\CYMR90~1\AppData\Local\Temp\ccEL7hUr.s:27125  .debug_str:000000000002062e .LASF4558
C:\Users\CYMR90~1\AppData\Local\Temp\ccEL7hUr.s:24536  .debug_str:0000000000015dee .LASF4559
C:\Users\CYMR90~1\AppData\Local\Temp\ccEL7hUr.s:27969  .debug_str:00000000000238ec .LASF4560
C:\Users\CYMR90~1\AppData\Local\Temp\ccEL7hUr.s:29799  .debug_str:000000000002aedb .LASF4561
C:\Users\CYMR90~1\AppData\Local\Temp\ccEL7hUr.s:27319  .debug_str:0000000000021155 .LASF4562
C:\Users\CYMR90~1\AppData\Local\Temp\ccEL7hUr.s:27659  .debug_str:000000000002263c .LASF4563
C:\Users\CYMR90~1\AppData\Local\Temp\ccEL7hUr.s:24662  .debug_str:0000000000016644 .LASF4564
C:\Users\CYMR90~1\AppData\Local\Temp\ccEL7hUr.s:21234  .debug_str:0000000000008946 .LASF4565
C:\Users\CYMR90~1\AppData\Local\Temp\ccEL7hUr.s:28389  .debug_str:00000000000255c9 .LASF4566
C:\Users\CYMR90~1\AppData\Local\Temp\ccEL7hUr.s:25649  .debug_str:000000000001a8d1 .LASF4567
C:\Users\CYMR90~1\AppData\Local\Temp\ccEL7hUr.s:19326  .debug_str:0000000000000df5 .LASF4568
C:\Users\CYMR90~1\AppData\Local\Temp\ccEL7hUr.s:27633  .debug_str:00000000000224b6 .LASF4569
C:\Users\CYMR90~1\AppData\Local\Temp\ccEL7hUr.s:29329  .debug_str:00000000000292a2 .LASF4570
C:\Users\CYMR90~1\AppData\Local\Temp\ccEL7hUr.s:19786  .debug_str:0000000000002a5f .LASF4571
C:\Users\CYMR90~1\AppData\Local\Temp\ccEL7hUr.s:22776  .debug_str:000000000000edcc .LASF4572
C:\Users\CYMR90~1\AppData\Local\Temp\ccEL7hUr.s:26657  .debug_str:000000000001e972 .LASF4573
C:\Users\CYMR90~1\AppData\Local\Temp\ccEL7hUr.s:20014  .debug_str:0000000000003990 .LASF4574
C:\Users\CYMR90~1\AppData\Local\Temp\ccEL7hUr.s:24014  .debug_str:0000000000013d85 .LASF4575
C:\Users\CYMR90~1\AppData\Local\Temp\ccEL7hUr.s:28303  .debug_str:0000000000024ef4 .LASF4576
C:\Users\CYMR90~1\AppData\Local\Temp\ccEL7hUr.s:29295  .debug_str:00000000000290c5 .LASF4577
C:\Users\CYMR90~1\AppData\Local\Temp\ccEL7hUr.s:24020  .debug_str:0000000000013dc9 .LASF4578
C:\Users\CYMR90~1\AppData\Local\Temp\ccEL7hUr.s:20572  .debug_str:0000000000005d79 .LASF4579
C:\Users\CYMR90~1\AppData\Local\Temp\ccEL7hUr.s:20168  .debug_str:00000000000043aa .LASF4580
C:\Users\CYMR90~1\AppData\Local\Temp\ccEL7hUr.s:27433  .debug_str:00000000000218ed .LASF4581
C:\Users\CYMR90~1\AppData\Local\Temp\ccEL7hUr.s:26955  .debug_str:000000000001fb3d .LASF4582
C:\Users\CYMR90~1\AppData\Local\Temp\ccEL7hUr.s:20256  .debug_str:0000000000004a2d .LASF4583
C:\Users\CYMR90~1\AppData\Local\Temp\ccEL7hUr.s:27223  .debug_str:0000000000020c17 .LASF4584
C:\Users\CYMR90~1\AppData\Local\Temp\ccEL7hUr.s:28617  .debug_str:0000000000026457 .LASF4585
C:\Users\CYMR90~1\AppData\Local\Temp\ccEL7hUr.s:29787  .debug_str:000000000002ae31 .LASF4586
C:\Users\CYMR90~1\AppData\Local\Temp\ccEL7hUr.s:28535  .debug_str:0000000000025f74 .LASF4587
C:\Users\CYMR90~1\AppData\Local\Temp\ccEL7hUr.s:19470  .debug_str:00000000000016b7 .LASF4588
C:\Users\CYMR90~1\AppData\Local\Temp\ccEL7hUr.s:26545  .debug_str:000000000001e29a .LASF4589
C:\Users\CYMR90~1\AppData\Local\Temp\ccEL7hUr.s:28837  .debug_str:000000000002728d .LASF4590
C:\Users\CYMR90~1\AppData\Local\Temp\ccEL7hUr.s:21676  .debug_str:000000000000a555 .LASF4591
C:\Users\CYMR90~1\AppData\Local\Temp\ccEL7hUr.s:30133  .debug_str:000000000002c595 .LASF4592
C:\Users\CYMR90~1\AppData\Local\Temp\ccEL7hUr.s:29495  .debug_str:0000000000029ccf .LASF4593
C:\Users\CYMR90~1\AppData\Local\Temp\ccEL7hUr.s:21046  .debug_str:0000000000007bfa .LASF4594
C:\Users\CYMR90~1\AppData\Local\Temp\ccEL7hUr.s:20152  .debug_str:00000000000042d1 .LASF4595
C:\Users\CYMR90~1\AppData\Local\Temp\ccEL7hUr.s:28699  .debug_str:0000000000026974 .LASF4596
C:\Users\CYMR90~1\AppData\Local\Temp\ccEL7hUr.s:26099  .debug_str:000000000001c4e1 .LASF4597
C:\Users\CYMR90~1\AppData\Local\Temp\ccEL7hUr.s:28673  .debug_str:00000000000267f1 .LASF4598
C:\Users\CYMR90~1\AppData\Local\Temp\ccEL7hUr.s:24048  .debug_str:0000000000013f6d .LASF4599
C:\Users\CYMR90~1\AppData\Local\Temp\ccEL7hUr.s:22976  .debug_str:000000000000fa1e .LASF4600
C:\Users\CYMR90~1\AppData\Local\Temp\ccEL7hUr.s:26649  .debug_str:000000000001e8fe .LASF4601
C:\Users\CYMR90~1\AppData\Local\Temp\ccEL7hUr.s:20506  .debug_str:000000000000596d .LASF4602
C:\Users\CYMR90~1\AppData\Local\Temp\ccEL7hUr.s:27851  .debug_str:000000000002317f .LASF4603
C:\Users\CYMR90~1\AppData\Local\Temp\ccEL7hUr.s:25265  .debug_str:0000000000018e42 .LASF4604
C:\Users\CYMR90~1\AppData\Local\Temp\ccEL7hUr.s:19670  .debug_str:00000000000022e2 .LASF4605
C:\Users\CYMR90~1\AppData\Local\Temp\ccEL7hUr.s:19878  .debug_str:000000000000303a .LASF4606
C:\Users\CYMR90~1\AppData\Local\Temp\ccEL7hUr.s:28499  .debug_str:0000000000025d18 .LASF4607
C:\Users\CYMR90~1\AppData\Local\Temp\ccEL7hUr.s:24438  .debug_str:00000000000157b1 .LASF4608
C:\Users\CYMR90~1\AppData\Local\Temp\ccEL7hUr.s:30277  .debug_str:000000000002cf38 .LASF4609
C:\Users\CYMR90~1\AppData\Local\Temp\ccEL7hUr.s:21354  .debug_str:00000000000090b8 .LASF4610
C:\Users\CYMR90~1\AppData\Local\Temp\ccEL7hUr.s:29091  .debug_str:000000000002839e .LASF4611
C:\Users\CYMR90~1\AppData\Local\Temp\ccEL7hUr.s:30275  .debug_str:000000000002ceff .LASF4612
C:\Users\CYMR90~1\AppData\Local\Temp\ccEL7hUr.s:26479  .debug_str:000000000001deb6 .LASF4613
C:\Users\CYMR90~1\AppData\Local\Temp\ccEL7hUr.s:20818  .debug_str:0000000000006cba .LASF4614
C:\Users\CYMR90~1\AppData\Local\Temp\ccEL7hUr.s:20296  .debug_str:0000000000004cbd .LASF4615
C:\Users\CYMR90~1\AppData\Local\Temp\ccEL7hUr.s:24785  .debug_str:0000000000017019 .LASF4616
C:\Users\CYMR90~1\AppData\Local\Temp\ccEL7hUr.s:29927  .debug_str:000000000002b7b0 .LASF4617
C:\Users\CYMR90~1\AppData\Local\Temp\ccEL7hUr.s:23840  .debug_str:00000000000131f4 .LASF4618
C:\Users\CYMR90~1\AppData\Local\Temp\ccEL7hUr.s:29557  .debug_str:000000000002a059 .LASF4619
C:\Users\CYMR90~1\AppData\Local\Temp\ccEL7hUr.s:28647  .debug_str:000000000002663b .LASF4620
C:\Users\CYMR90~1\AppData\Local\Temp\ccEL7hUr.s:23048  .debug_str:000000000000fe4f .LASF4621
C:\Users\CYMR90~1\AppData\Local\Temp\ccEL7hUr.s:29387  .debug_str:0000000000029678 .LASF4622
C:\Users\CYMR90~1\AppData\Local\Temp\ccEL7hUr.s:26003  .debug_str:000000000001bf14 .LASF4623
C:\Users\CYMR90~1\AppData\Local\Temp\ccEL7hUr.s:25477  .debug_str:0000000000019c93 .LASF4624
C:\Users\CYMR90~1\AppData\Local\Temp\ccEL7hUr.s:21102  .debug_str:00000000000080ad .LASF4625
C:\Users\CYMR90~1\AppData\Local\Temp\ccEL7hUr.s:26183  .debug_str:000000000001cac0 .LASF4626
C:\Users\CYMR90~1\AppData\Local\Temp\ccEL7hUr.s:25783  .debug_str:000000000001b160 .LASF4627
C:\Users\CYMR90~1\AppData\Local\Temp\ccEL7hUr.s:27697  .debug_str:0000000000022882 .LASF4628
C:\Users\CYMR90~1\AppData\Local\Temp\ccEL7hUr.s:28603  .debug_str:0000000000026366 .LASF4629
C:\Users\CYMR90~1\AppData\Local\Temp\ccEL7hUr.s:19580  .debug_str:0000000000001df9 .LASF4630
C:\Users\CYMR90~1\AppData\Local\Temp\ccEL7hUr.s:24612  .debug_str:00000000000162e2 .LASF4631
C:\Users\CYMR90~1\AppData\Local\Temp\ccEL7hUr.s:19890  .debug_str:0000000000003135 .LASF4632
C:\Users\CYMR90~1\AppData\Local\Temp\ccEL7hUr.s:22066  .debug_str:000000000000c048 .LASF4633
C:\Users\CYMR90~1\AppData\Local\Temp\ccEL7hUr.s:26661  .debug_str:000000000001e9a4 .LASF4634
C:\Users\CYMR90~1\AppData\Local\Temp\ccEL7hUr.s:19380  .debug_str:000000000000119f .LASF4635
C:\Users\CYMR90~1\AppData\Local\Temp\ccEL7hUr.s:28331  .debug_str:000000000002510f .LASF4636
C:\Users\CYMR90~1\AppData\Local\Temp\ccEL7hUr.s:21210  .debug_str:0000000000008776 .LASF4637
C:\Users\CYMR90~1\AppData\Local\Temp\ccEL7hUr.s:26287  .debug_str:000000000001d261 .LASF4638
C:\Users\CYMR90~1\AppData\Local\Temp\ccEL7hUr.s:26305  .debug_str:000000000001d358 .LASF4639
C:\Users\CYMR90~1\AppData\Local\Temp\ccEL7hUr.s:27265  .debug_str:0000000000020e88 .LASF4640
C:\Users\CYMR90~1\AppData\Local\Temp\ccEL7hUr.s:25723  .debug_str:000000000001ad3e .LASF4641
C:\Users\CYMR90~1\AppData\Local\Temp\ccEL7hUr.s:20542  .debug_str:0000000000005bb8 .LASF4642
C:\Users\CYMR90~1\AppData\Local\Temp\ccEL7hUr.s:29053  .debug_str:00000000000280b0 .LASF4643
C:\Users\CYMR90~1\AppData\Local\Temp\ccEL7hUr.s:27975  .debug_str:0000000000023968 .LASF4644
C:\Users\CYMR90~1\AppData\Local\Temp\ccEL7hUr.s:24334  .debug_str:00000000000151b5 .LASF4645
C:\Users\CYMR90~1\AppData\Local\Temp\ccEL7hUr.s:30235  .debug_str:000000000002cc9a .LASF4646
C:\Users\CYMR90~1\AppData\Local\Temp\ccEL7hUr.s:19854  .debug_str:0000000000002ecb .LASF4647
C:\Users\CYMR90~1\AppData\Local\Temp\ccEL7hUr.s:19126  .debug_str:00000000000001c8 .LASF4648
C:\Users\CYMR90~1\AppData\Local\Temp\ccEL7hUr.s:25429  .debug_str:0000000000019971 .LASF4649
C:\Users\CYMR90~1\AppData\Local\Temp\ccEL7hUr.s:23242  .debug_str:0000000000010ac1 .LASF4650
C:\Users\CYMR90~1\AppData\Local\Temp\ccEL7hUr.s:20166  .debug_str:0000000000004392 .LASF4651
C:\Users\CYMR90~1\AppData\Local\Temp\ccEL7hUr.s:22170  .debug_str:000000000000c691 .LASF4652
C:\Users\CYMR90~1\AppData\Local\Temp\ccEL7hUr.s:28659  .debug_str:0000000000026720 .LASF4653
C:\Users\CYMR90~1\AppData\Local\Temp\ccEL7hUr.s:19152  .debug_str:000000000000035d .LASF4654
C:\Users\CYMR90~1\AppData\Local\Temp\ccEL7hUr.s:19198  .debug_str:00000000000005c4 .LASF4655
C:\Users\CYMR90~1\AppData\Local\Temp\ccEL7hUr.s:29311  .debug_str:00000000000291b3 .LASF4656
C:\Users\CYMR90~1\AppData\Local\Temp\ccEL7hUr.s:20196  .debug_str:000000000000459c .LASF4657
C:\Users\CYMR90~1\AppData\Local\Temp\ccEL7hUr.s:21818  .debug_str:000000000000ae24 .LASF4658
C:\Users\CYMR90~1\AppData\Local\Temp\ccEL7hUr.s:19170  .debug_str:0000000000000459 .LASF4659
C:\Users\CYMR90~1\AppData\Local\Temp\ccEL7hUr.s:26637  .debug_str:000000000001e83c .LASF4660
C:\Users\CYMR90~1\AppData\Local\Temp\ccEL7hUr.s:24795  .debug_str:00000000000170c8 .LASF4661
C:\Users\CYMR90~1\AppData\Local\Temp\ccEL7hUr.s:19720  .debug_str:00000000000025fc .LASF4662
C:\Users\CYMR90~1\AppData\Local\Temp\ccEL7hUr.s:28763  .debug_str:0000000000026d64 .LASF4663
C:\Users\CYMR90~1\AppData\Local\Temp\ccEL7hUr.s:30089  .debug_str:000000000002c2bf .LASF4664
C:\Users\CYMR90~1\AppData\Local\Temp\ccEL7hUr.s:27089  .debug_str:000000000002031f .LASF4665
C:\Users\CYMR90~1\AppData\Local\Temp\ccEL7hUr.s:22166  .debug_str:000000000000c647 .LASF4666
C:\Users\CYMR90~1\AppData\Local\Temp\ccEL7hUr.s:27705  .debug_str:00000000000228f1 .LASF4667
C:\Users\CYMR90~1\AppData\Local\Temp\ccEL7hUr.s:22062  .debug_str:000000000000bfe4 .LASF4668
C:\Users\CYMR90~1\AppData\Local\Temp\ccEL7hUr.s:27695  .debug_str:0000000000022864 .LASF4669
C:\Users\CYMR90~1\AppData\Local\Temp\ccEL7hUr.s:29205  .debug_str:0000000000028b12 .LASF4670
C:\Users\CYMR90~1\AppData\Local\Temp\ccEL7hUr.s:20586  .debug_str:0000000000005e55 .LASF4671
C:\Users\CYMR90~1\AppData\Local\Temp\ccEL7hUr.s:23362  .debug_str:0000000000011246 .LASF4672
C:\Users\CYMR90~1\AppData\Local\Temp\ccEL7hUr.s:22544  .debug_str:000000000000df23 .LASF4673
C:\Users\CYMR90~1\AppData\Local\Temp\ccEL7hUr.s:20246  .debug_str:0000000000004993 .LASF4674
C:\Users\CYMR90~1\AppData\Local\Temp\ccEL7hUr.s:21498  .debug_str:00000000000099d8 .LASF4675
C:\Users\CYMR90~1\AppData\Local\Temp\ccEL7hUr.s:24010  .debug_str:0000000000013d25 .LASF4676
C:\Users\CYMR90~1\AppData\Local\Temp\ccEL7hUr.s:20072  .debug_str:0000000000003d09 .LASF4677
C:\Users\CYMR90~1\AppData\Local\Temp\ccEL7hUr.s:20812  .debug_str:0000000000006c37 .LASF4678
C:\Users\CYMR90~1\AppData\Local\Temp\ccEL7hUr.s:19102  .debug_str:000000000000002e .LASF4679
C:\Users\CYMR90~1\AppData\Local\Temp\ccEL7hUr.s:23346  .debug_str:0000000000011157 .LASF4680
C:\Users\CYMR90~1\AppData\Local\Temp\ccEL7hUr.s:25681  .debug_str:000000000001aaa8 .LASF4681
C:\Users\CYMR90~1\AppData\Local\Temp\ccEL7hUr.s:24738  .debug_str:0000000000016b9b .LASF4682
C:\Users\CYMR90~1\AppData\Local\Temp\ccEL7hUr.s:30027  .debug_str:000000000002be85 .LASF4683
C:\Users\CYMR90~1\AppData\Local\Temp\ccEL7hUr.s:28111  .debug_str:000000000002424a .LASF4684
C:\Users\CYMR90~1\AppData\Local\Temp\ccEL7hUr.s:22644  .debug_str:000000000000e52a .LASF4685
C:\Users\CYMR90~1\AppData\Local\Temp\ccEL7hUr.s:26759  .debug_str:000000000001ef4b .LASF4686
C:\Users\CYMR90~1\AppData\Local\Temp\ccEL7hUr.s:24266  .debug_str:0000000000014d3d .LASF4687
C:\Users\CYMR90~1\AppData\Local\Temp\ccEL7hUr.s:29379  .debug_str:00000000000295e1 .LASF4688
C:\Users\CYMR90~1\AppData\Local\Temp\ccEL7hUr.s:25287  .debug_str:0000000000018f5c .LASF4689
C:\Users\CYMR90~1\AppData\Local\Temp\ccEL7hUr.s:23868  .debug_str:00000000000133bb .LASF4690
C:\Users\CYMR90~1\AppData\Local\Temp\ccEL7hUr.s:19714  .debug_str:0000000000002566 .LASF4691
C:\Users\CYMR90~1\AppData\Local\Temp\ccEL7hUr.s:26741  .debug_str:000000000001ee28 .LASF4692
C:\Users\CYMR90~1\AppData\Local\Temp\ccEL7hUr.s:21670  .debug_str:000000000000a4c8 .LASF4693
C:\Users\CYMR90~1\AppData\Local\Temp\ccEL7hUr.s:19226  .debug_str:00000000000007a6 .LASF4694
C:\Users\CYMR90~1\AppData\Local\Temp\ccEL7hUr.s:25697  .debug_str:000000000001aba7 .LASF4695
C:\Users\CYMR90~1\AppData\Local\Temp\ccEL7hUr.s:28973  .debug_str:0000000000027b04 .LASF4696
C:\Users\CYMR90~1\AppData\Local\Temp\ccEL7hUr.s:24406  .debug_str:00000000000155d1 .LASF4697
C:\Users\CYMR90~1\AppData\Local\Temp\ccEL7hUr.s:25351  .debug_str:00000000000193f3 .LASF4698
C:\Users\CYMR90~1\AppData\Local\Temp\ccEL7hUr.s:22054  .debug_str:000000000000bf5c .LASF4699
C:\Users\CYMR90~1\AppData\Local\Temp\ccEL7hUr.s:25407  .debug_str:00000000000197a6 .LASF4700
C:\Users\CYMR90~1\AppData\Local\Temp\ccEL7hUr.s:27321  .debug_str:000000000002116d .LASF4701
C:\Users\CYMR90~1\AppData\Local\Temp\ccEL7hUr.s:25431  .debug_str:00000000000199ac .LASF4702
C:\Users\CYMR90~1\AppData\Local\Temp\ccEL7hUr.s:20148  .debug_str:0000000000004288 .LASF4703
C:\Users\CYMR90~1\AppData\Local\Temp\ccEL7hUr.s:21716  .debug_str:000000000000a772 .LASF4704
C:\Users\CYMR90~1\AppData\Local\Temp\ccEL7hUr.s:22414  .debug_str:000000000000d7a3 .LASF4705
C:\Users\CYMR90~1\AppData\Local\Temp\ccEL7hUr.s:27161  .debug_str:000000000002083b .LASF4706
C:\Users\CYMR90~1\AppData\Local\Temp\ccEL7hUr.s:26753  .debug_str:000000000001eee2 .LASF4707
C:\Users\CYMR90~1\AppData\Local\Temp\ccEL7hUr.s:22542  .debug_str:000000000000dee7 .LASF4708
C:\Users\CYMR90~1\AppData\Local\Temp\ccEL7hUr.s:25801  .debug_str:000000000001b2bf .LASF4709
C:\Users\CYMR90~1\AppData\Local\Temp\ccEL7hUr.s:29605  .debug_str:000000000002a330 .LASF4710
C:\Users\CYMR90~1\AppData\Local\Temp\ccEL7hUr.s:23262  .debug_str:0000000000010c1c .LASF4711
C:\Users\CYMR90~1\AppData\Local\Temp\ccEL7hUr.s:23978  .debug_str:0000000000013b2a .LASF4712
C:\Users\CYMR90~1\AppData\Local\Temp\ccEL7hUr.s:27599  .debug_str:00000000000222f8 .LASF4713
C:\Users\CYMR90~1\AppData\Local\Temp\ccEL7hUr.s:29709  .debug_str:000000000002a98b .LASF4714
C:\Users\CYMR90~1\AppData\Local\Temp\ccEL7hUr.s:23050  .debug_str:000000000000fe7b .LASF4715
C:\Users\CYMR90~1\AppData\Local\Temp\ccEL7hUr.s:27663  .debug_str:000000000002267a .LASF4716
C:\Users\CYMR90~1\AppData\Local\Temp\ccEL7hUr.s:29945  .debug_str:000000000002b8ae .LASF4717
C:\Users\CYMR90~1\AppData\Local\Temp\ccEL7hUr.s:28153  .debug_str:0000000000024527 .LASF4718
C:\Users\CYMR90~1\AppData\Local\Temp\ccEL7hUr.s:24678  .debug_str:000000000001672e .LASF4719
C:\Users\CYMR90~1\AppData\Local\Temp\ccEL7hUr.s:26149  .debug_str:000000000001c88a .LASF4720
C:\Users\CYMR90~1\AppData\Local\Temp\ccEL7hUr.s:25457  .debug_str:0000000000019b49 .LASF4721
C:\Users\CYMR90~1\AppData\Local\Temp\ccEL7hUr.s:23184  .debug_str:00000000000106aa .LASF4722
C:\Users\CYMR90~1\AppData\Local\Temp\ccEL7hUr.s:23616  .debug_str:0000000000012359 .LASF4723
C:\Users\CYMR90~1\AppData\Local\Temp\ccEL7hUr.s:19950  .debug_str:000000000000355a .LASF4724
C:\Users\CYMR90~1\AppData\Local\Temp\ccEL7hUr.s:20804  .debug_str:0000000000006bcb .LASF4725
C:\Users\CYMR90~1\AppData\Local\Temp\ccEL7hUr.s:23670  .debug_str:00000000000126cb .LASF4726
C:\Users\CYMR90~1\AppData\Local\Temp\ccEL7hUr.s:29749  .debug_str:000000000002abdc .LASF4727
C:\Users\CYMR90~1\AppData\Local\Temp\ccEL7hUr.s:22662  .debug_str:000000000000e64f .LASF4728
C:\Users\CYMR90~1\AppData\Local\Temp\ccEL7hUr.s:25559  .debug_str:000000000001a14d .LASF4729
C:\Users\CYMR90~1\AppData\Local\Temp\ccEL7hUr.s:19312  .debug_str:0000000000000d1e .LASF4730
C:\Users\CYMR90~1\AppData\Local\Temp\ccEL7hUr.s:28977  .debug_str:0000000000027b51 .LASF4731
C:\Users\CYMR90~1\AppData\Local\Temp\ccEL7hUr.s:30195  .debug_str:000000000002c9b6 .LASF4732
C:\Users\CYMR90~1\AppData\Local\Temp\ccEL7hUr.s:22444  .debug_str:000000000000d94c .LASF4733
C:\Users\CYMR90~1\AppData\Local\Temp\ccEL7hUr.s:25083  .debug_str:0000000000018257 .LASF4734
C:\Users\CYMR90~1\AppData\Local\Temp\ccEL7hUr.s:19460  .debug_str:0000000000001621 .LASF4735
C:\Users\CYMR90~1\AppData\Local\Temp\ccEL7hUr.s:28033  .debug_str:0000000000023c92 .LASF4736
C:\Users\CYMR90~1\AppData\Local\Temp\ccEL7hUr.s:24550  .debug_str:0000000000015ef0 .LASF4737
C:\Users\CYMR90~1\AppData\Local\Temp\ccEL7hUr.s:29673  .debug_str:000000000002a794 .LASF4738
C:\Users\CYMR90~1\AppData\Local\Temp\ccEL7hUr.s:28633  .debug_str:0000000000026562 .LASF4739
C:\Users\CYMR90~1\AppData\Local\Temp\ccEL7hUr.s:29675  .debug_str:000000000002a7b2 .LASF4740
C:\Users\CYMR90~1\AppData\Local\Temp\ccEL7hUr.s:26087  .debug_str:000000000001c436 .LASF4741
C:\Users\CYMR90~1\AppData\Local\Temp\ccEL7hUr.s:19408  .debug_str:0000000000001306 .LASF4742
C:\Users\CYMR90~1\AppData\Local\Temp\ccEL7hUr.s:28407  .debug_str:00000000000256ed .LASF4743
C:\Users\CYMR90~1\AppData\Local\Temp\ccEL7hUr.s:25987  .debug_str:000000000001be07 .LASF4744
C:\Users\CYMR90~1\AppData\Local\Temp\ccEL7hUr.s:20580  .debug_str:0000000000005ded .LASF4745
C:\Users\CYMR90~1\AppData\Local\Temp\ccEL7hUr.s:22668  .debug_str:000000000000e69d .LASF4746
C:\Users\CYMR90~1\AppData\Local\Temp\ccEL7hUr.s:27101  .debug_str:000000000002042c .LASF4747
C:\Users\CYMR90~1\AppData\Local\Temp\ccEL7hUr.s:23802  .debug_str:0000000000012f72 .LASF4748
C:\Users\CYMR90~1\AppData\Local\Temp\ccEL7hUr.s:28775  .debug_str:0000000000026e36 .LASF4749
C:\Users\CYMR90~1\AppData\Local\Temp\ccEL7hUr.s:24320  .debug_str:00000000000150f9 .LASF4750
C:\Users\CYMR90~1\AppData\Local\Temp\ccEL7hUr.s:24080  .debug_str:000000000001415b .LASF4751
C:\Users\CYMR90~1\AppData\Local\Temp\ccEL7hUr.s:22156  .debug_str:000000000000c5a8 .LASF4752
C:\Users\CYMR90~1\AppData\Local\Temp\ccEL7hUr.s:26967  .debug_str:000000000001fc03 .LASF4753
C:\Users\CYMR90~1\AppData\Local\Temp\ccEL7hUr.s:22766  .debug_str:000000000000ed26 .LASF4754
C:\Users\CYMR90~1\AppData\Local\Temp\ccEL7hUr.s:20492  .debug_str:0000000000005875 .LASF4755
C:\Users\CYMR90~1\AppData\Local\Temp\ccEL7hUr.s:29515  .debug_str:0000000000029dd8 .LASF4756
C:\Users\CYMR90~1\AppData\Local\Temp\ccEL7hUr.s:27277  .debug_str:0000000000020f2a .LASF4757
C:\Users\CYMR90~1\AppData\Local\Temp\ccEL7hUr.s:30023  .debug_str:000000000002be50 .LASF4758
C:\Users\CYMR90~1\AppData\Local\Temp\ccEL7hUr.s:22968  .debug_str:000000000000f9a9 .LASF4759
C:\Users\CYMR90~1\AppData\Local\Temp\ccEL7hUr.s:21390  .debug_str:00000000000092e5 .LASF4760
C:\Users\CYMR90~1\AppData\Local\Temp\ccEL7hUr.s:29707  .debug_str:000000000002a969 .LASF4761
C:\Users\CYMR90~1\AppData\Local\Temp\ccEL7hUr.s:27367  .debug_str:00000000000214db .LASF4762
C:\Users\CYMR90~1\AppData\Local\Temp\ccEL7hUr.s:29179  .debug_str:00000000000289a5 .LASF4763
C:\Users\CYMR90~1\AppData\Local\Temp\ccEL7hUr.s:20794  .debug_str:0000000000006b2d .LASF4764
C:\Users\CYMR90~1\AppData\Local\Temp\ccEL7hUr.s:27517  .debug_str:0000000000021e20 .LASF4765
C:\Users\CYMR90~1\AppData\Local\Temp\ccEL7hUr.s:29341  .debug_str:000000000002934c .LASF4766
C:\Users\CYMR90~1\AppData\Local\Temp\ccEL7hUr.s:29077  .debug_str:00000000000282be .LASF4767
C:\Users\CYMR90~1\AppData\Local\Temp\ccEL7hUr.s:28371  .debug_str:0000000000025459 .LASF4768
C:\Users\CYMR90~1\AppData\Local\Temp\ccEL7hUr.s:25533  .debug_str:0000000000019fd9 .LASF4769
C:\Users\CYMR90~1\AppData\Local\Temp\ccEL7hUr.s:21558  .debug_str:0000000000009da5 .LASF4770
C:\Users\CYMR90~1\AppData\Local\Temp\ccEL7hUr.s:22970  .debug_str:000000000000f9cb .LASF4771
C:\Users\CYMR90~1\AppData\Local\Temp\ccEL7hUr.s:19674  .debug_str:0000000000002315 .LASF4772
C:\Users\CYMR90~1\AppData\Local\Temp\ccEL7hUr.s:21702  .debug_str:000000000000a6b1 .LASF4773
C:\Users\CYMR90~1\AppData\Local\Temp\ccEL7hUr.s:26605  .debug_str:000000000001e616 .LASF4774
C:\Users\CYMR90~1\AppData\Local\Temp\ccEL7hUr.s:24863  .debug_str:00000000000174c7 .LASF4775
C:\Users\CYMR90~1\AppData\Local\Temp\ccEL7hUr.s:22366  .debug_str:000000000000d422 .LASF4776
C:\Users\CYMR90~1\AppData\Local\Temp\ccEL7hUr.s:30077  .debug_str:000000000002c1ab .LASF4777
C:\Users\CYMR90~1\AppData\Local\Temp\ccEL7hUr.s:24696  .debug_str:0000000000016815 .LASF4778
C:\Users\CYMR90~1\AppData\Local\Temp\ccEL7hUr.s:29737  .debug_str:000000000002ab1e .LASF4779
C:\Users\CYMR90~1\AppData\Local\Temp\ccEL7hUr.s:19882  .debug_str:00000000000030b7 .LASF4780
C:\Users\CYMR90~1\AppData\Local\Temp\ccEL7hUr.s:28129  .debug_str:00000000000243a9 .LASF4781
C:\Users\CYMR90~1\AppData\Local\Temp\ccEL7hUr.s:24706  .debug_str:000000000001691b .LASF4782
C:\Users\CYMR90~1\AppData\Local\Temp\ccEL7hUr.s:21278  .debug_str:0000000000008bfc .LASF4783
C:\Users\CYMR90~1\AppData\Local\Temp\ccEL7hUr.s:28855  .debug_str:00000000000273a5 .LASF4784
C:\Users\CYMR90~1\AppData\Local\Temp\ccEL7hUr.s:27803  .debug_str:0000000000022f0e .LASF4785
C:\Users\CYMR90~1\AppData\Local\Temp\ccEL7hUr.s:19646  .debug_str:0000000000002170 .LASF4786
C:\Users\CYMR90~1\AppData\Local\Temp\ccEL7hUr.s:20754  .debug_str:00000000000068c0 .LASF4787
C:\Users\CYMR90~1\AppData\Local\Temp\ccEL7hUr.s:28997  .debug_str:0000000000027cc4 .LASF4788
C:\Users\CYMR90~1\AppData\Local\Temp\ccEL7hUr.s:26535  .debug_str:000000000001e213 .LASF4789
C:\Users\CYMR90~1\AppData\Local\Temp\ccEL7hUr.s:21108  .debug_str:0000000000008104 .LASF4790
C:\Users\CYMR90~1\AppData\Local\Temp\ccEL7hUr.s:28911  .debug_str:00000000000276b4 .LASF4791
C:\Users\CYMR90~1\AppData\Local\Temp\ccEL7hUr.s:22830  .debug_str:000000000000f0a2 .LASF4792
C:\Users\CYMR90~1\AppData\Local\Temp\ccEL7hUr.s:26223  .debug_str:000000000001cd5a .LASF4793
C:\Users\CYMR90~1\AppData\Local\Temp\ccEL7hUr.s:26355  .debug_str:000000000001d65a .LASF4794
C:\Users\CYMR90~1\AppData\Local\Temp\ccEL7hUr.s:19630  .debug_str:000000000000209b .LASF4795
C:\Users\CYMR90~1\AppData\Local\Temp\ccEL7hUr.s:22996  .debug_str:000000000000fb24 .LASF4796
C:\Users\CYMR90~1\AppData\Local\Temp\ccEL7hUr.s:29493  .debug_str:0000000000029cb0 .LASF4797
C:\Users\CYMR90~1\AppData\Local\Temp\ccEL7hUr.s:22808  .debug_str:000000000000ef5b .LASF4798
C:\Users\CYMR90~1\AppData\Local\Temp\ccEL7hUr.s:26141  .debug_str:000000000001c774 .LASF4799
C:\Users\CYMR90~1\AppData\Local\Temp\ccEL7hUr.s:21880  .debug_str:000000000000b296 .LASF4800
C:\Users\CYMR90~1\AppData\Local\Temp\ccEL7hUr.s:25009  .debug_str:0000000000017dd3 .LASF4801
C:\Users\CYMR90~1\AppData\Local\Temp\ccEL7hUr.s:23212  .debug_str:00000000000108f2 .LASF4802
C:\Users\CYMR90~1\AppData\Local\Temp\ccEL7hUr.s:19718  .debug_str:00000000000025da .LASF4803
C:\Users\CYMR90~1\AppData\Local\Temp\ccEL7hUr.s:27787  .debug_str:0000000000022e21 .LASF4804
C:\Users\CYMR90~1\AppData\Local\Temp\ccEL7hUr.s:19446  .debug_str:0000000000001528 .LASF4805
C:\Users\CYMR90~1\AppData\Local\Temp\ccEL7hUr.s:19280  .debug_str:0000000000000b5b .LASF4806
C:\Users\CYMR90~1\AppData\Local\Temp\ccEL7hUr.s:20344  .debug_str:0000000000004f9c .LASF4807
C:\Users\CYMR90~1\AppData\Local\Temp\ccEL7hUr.s:20972  .debug_str:0000000000007706 .LASF4808
C:\Users\CYMR90~1\AppData\Local\Temp\ccEL7hUr.s:28587  .debug_str:0000000000026283 .LASF4809
C:\Users\CYMR90~1\AppData\Local\Temp\ccEL7hUr.s:19634  .debug_str:00000000000020d0 .LASF4810
C:\Users\CYMR90~1\AppData\Local\Temp\ccEL7hUr.s:27337  .debug_str:0000000000021274 .LASF4811
C:\Users\CYMR90~1\AppData\Local\Temp\ccEL7hUr.s:21956  .debug_str:000000000000b7e7 .LASF4812
C:\Users\CYMR90~1\AppData\Local\Temp\ccEL7hUr.s:24779  .debug_str:0000000000016fdc .LASF4813
C:\Users\CYMR90~1\AppData\Local\Temp\ccEL7hUr.s:21316  .debug_str:0000000000008eb1 .LASF4814
C:\Users\CYMR90~1\AppData\Local\Temp\ccEL7hUr.s:26953  .debug_str:000000000001fb27 .LASF4815
C:\Users\CYMR90~1\AppData\Local\Temp\ccEL7hUr.s:27577  .debug_str:00000000000221af .LASF4816
C:\Users\CYMR90~1\AppData\Local\Temp\ccEL7hUr.s:25151  .debug_str:000000000001865c .LASF4817
C:\Users\CYMR90~1\AppData\Local\Temp\ccEL7hUr.s:27667  .debug_str:00000000000226d3 .LASF4818
C:\Users\CYMR90~1\AppData\Local\Temp\ccEL7hUr.s:24628  .debug_str:00000000000163f7 .LASF4819
C:\Users\CYMR90~1\AppData\Local\Temp\ccEL7hUr.s:24532  .debug_str:0000000000015db5 .LASF4820
C:\Users\CYMR90~1\AppData\Local\Temp\ccEL7hUr.s:24128  .debug_str:0000000000014490 .LASF4821
C:\Users\CYMR90~1\AppData\Local\Temp\ccEL7hUr.s:26675  .debug_str:000000000001ea76 .LASF4822
C:\Users\CYMR90~1\AppData\Local\Temp\ccEL7hUr.s:23384  .debug_str:00000000000113a8 .LASF4823
C:\Users\CYMR90~1\AppData\Local\Temp\ccEL7hUr.s:26397  .debug_str:000000000001d959 .LASF4824
C:\Users\CYMR90~1\AppData\Local\Temp\ccEL7hUr.s:30251  .debug_str:000000000002cdbe .LASF4825
C:\Users\CYMR90~1\AppData\Local\Temp\ccEL7hUr.s:22654  .debug_str:000000000000e5cd .LASF4826
C:\Users\CYMR90~1\AppData\Local\Temp\ccEL7hUr.s:25111  .debug_str:0000000000018400 .LASF4827
C:\Users\CYMR90~1\AppData\Local\Temp\ccEL7hUr.s:19498  .debug_str:000000000000191c .LASF4828
C:\Users\CYMR90~1\AppData\Local\Temp\ccEL7hUr.s:20134  .debug_str:0000000000004129 .LASF4829
C:\Users\CYMR90~1\AppData\Local\Temp\ccEL7hUr.s:20138  .debug_str:00000000000041f9 .LASF4830
C:\Users\CYMR90~1\AppData\Local\Temp\ccEL7hUr.s:23292  .debug_str:0000000000010e7a .LASF4831
C:\Users\CYMR90~1\AppData\Local\Temp\ccEL7hUr.s:28053  .debug_str:0000000000023dd4 .LASF4832
C:\Users\CYMR90~1\AppData\Local\Temp\ccEL7hUr.s:21982  .debug_str:000000000000b9c3 .LASF4833
C:\Users\CYMR90~1\AppData\Local\Temp\ccEL7hUr.s:21698  .debug_str:000000000000a673 .LASF4834
C:\Users\CYMR90~1\AppData\Local\Temp\ccEL7hUr.s:27215  .debug_str:0000000000020ba6 .LASF4835
C:\Users\CYMR90~1\AppData\Local\Temp\ccEL7hUr.s:21050  .debug_str:0000000000007c2a .LASF4836
C:\Users\CYMR90~1\AppData\Local\Temp\ccEL7hUr.s:28465  .debug_str:0000000000025b04 .LASF4837
C:\Users\CYMR90~1\AppData\Local\Temp\ccEL7hUr.s:28113  .debug_str:000000000002427a .LASF4838
C:\Users\CYMR90~1\AppData\Local\Temp\ccEL7hUr.s:23126  .debug_str:0000000000010366 .LASF4839
C:\Users\CYMR90~1\AppData\Local\Temp\ccEL7hUr.s:24412  .debug_str:0000000000015629 .LASF4840
C:\Users\CYMR90~1\AppData\Local\Temp\ccEL7hUr.s:29877  .debug_str:000000000002b438 .LASF4841
C:\Users\CYMR90~1\AppData\Local\Temp\ccEL7hUr.s:28159  .debug_str:000000000002459f .LASF4842
C:\Users\CYMR90~1\AppData\Local\Temp\ccEL7hUr.s:25395  .debug_str:00000000000196b2 .LASF4843
C:\Users\CYMR90~1\AppData\Local\Temp\ccEL7hUr.s:26421  .debug_str:000000000001daa9 .LASF4844
C:\Users\CYMR90~1\AppData\Local\Temp\ccEL7hUr.s:24616  .debug_str:000000000001632e .LASF4845
C:\Users\CYMR90~1\AppData\Local\Temp\ccEL7hUr.s:21328  .debug_str:0000000000008f6b .LASF4846
C:\Users\CYMR90~1\AppData\Local\Temp\ccEL7hUr.s:25399  .debug_str:00000000000196fa .LASF4847
C:\Users\CYMR90~1\AppData\Local\Temp\ccEL7hUr.s:25201  .debug_str:0000000000018981 .LASF4848
C:\Users\CYMR90~1\AppData\Local\Temp\ccEL7hUr.s:24871  .debug_str:0000000000017523 .LASF4849
C:\Users\CYMR90~1\AppData\Local\Temp\ccEL7hUr.s:24642  .debug_str:00000000000164a2 .LASF4850
C:\Users\CYMR90~1\AppData\Local\Temp\ccEL7hUr.s:20086  .debug_str:0000000000003e18 .LASF4851
C:\Users\CYMR90~1\AppData\Local\Temp\ccEL7hUr.s:28875  .debug_str:00000000000274a7 .LASF4852
C:\Users\CYMR90~1\AppData\Local\Temp\ccEL7hUr.s:22626  .debug_str:000000000000e42d .LASF4853
C:\Users\CYMR90~1\AppData\Local\Temp\ccEL7hUr.s:20126  .debug_str:00000000000040a6 .LASF4854
C:\Users\CYMR90~1\AppData\Local\Temp\ccEL7hUr.s:24256  .debug_str:0000000000014c8f .LASF4855
C:\Users\CYMR90~1\AppData\Local\Temp\ccEL7hUr.s:22622  .debug_str:000000000000e3ee .LASF4856
C:\Users\CYMR90~1\AppData\Local\Temp\ccEL7hUr.s:19658  .debug_str:000000000000223a .LASF4857
C:\Users\CYMR90~1\AppData\Local\Temp\ccEL7hUr.s:29715  .debug_str:000000000002a9ef .LASF4858
C:\Users\CYMR90~1\AppData\Local\Temp\ccEL7hUr.s:21228  .debug_str:00000000000088b0 .LASF4859
C:\Users\CYMR90~1\AppData\Local\Temp\ccEL7hUr.s:19840  .debug_str:0000000000002e08 .LASF4860
C:\Users\CYMR90~1\AppData\Local\Temp\ccEL7hUr.s:23800  .debug_str:0000000000012f5c .LASF4861
C:\Users\CYMR90~1\AppData\Local\Temp\ccEL7hUr.s:29447  .debug_str:00000000000299d7 .LASF4862
C:\Users\CYMR90~1\AppData\Local\Temp\ccEL7hUr.s:22068  .debug_str:000000000000c061 .LASF4863
C:\Users\CYMR90~1\AppData\Local\Temp\ccEL7hUr.s:25561  .debug_str:000000000001a164 .LASF4864
C:\Users\CYMR90~1\AppData\Local\Temp\ccEL7hUr.s:28411  .debug_str:000000000002573b .LASF4865
C:\Users\CYMR90~1\AppData\Local\Temp\ccEL7hUr.s:24354  .debug_str:000000000001530d .LASF4866
C:\Users\CYMR90~1\AppData\Local\Temp\ccEL7hUr.s:30227  .debug_str:000000000002cb80 .LASF4867
C:\Users\CYMR90~1\AppData\Local\Temp\ccEL7hUr.s:29129  .debug_str:0000000000028664 .LASF4868
C:\Users\CYMR90~1\AppData\Local\Temp\ccEL7hUr.s:27885  .debug_str:000000000002337b .LASF4869
C:\Users\CYMR90~1\AppData\Local\Temp\ccEL7hUr.s:26705  .debug_str:000000000001ec11 .LASF4870
C:\Users\CYMR90~1\AppData\Local\Temp\ccEL7hUr.s:23186  .debug_str:00000000000106e8 .LASF4871
C:\Users\CYMR90~1\AppData\Local\Temp\ccEL7hUr.s:30119  .debug_str:000000000002c4d5 .LASF4872
C:\Users\CYMR90~1\AppData\Local\Temp\ccEL7hUr.s:28285  .debug_str:0000000000024ddd .LASF4873
C:\Users\CYMR90~1\AppData\Local\Temp\ccEL7hUr.s:28195  .debug_str:00000000000247bb .LASF4874
C:\Users\CYMR90~1\AppData\Local\Temp\ccEL7hUr.s:20846  .debug_str:0000000000006e97 .LASF4875
C:\Users\CYMR90~1\AppData\Local\Temp\ccEL7hUr.s:24666  .debug_str:0000000000016673 .LASF4876
C:\Users\CYMR90~1\AppData\Local\Temp\ccEL7hUr.s:28941  .debug_str:00000000000278b2 .LASF4877
C:\Users\CYMR90~1\AppData\Local\Temp\ccEL7hUr.s:26205  .debug_str:000000000001cc15 .LASF4878
C:\Users\CYMR90~1\AppData\Local\Temp\ccEL7hUr.s:28739  .debug_str:0000000000026bb0 .LASF4879
C:\Users\CYMR90~1\AppData\Local\Temp\ccEL7hUr.s:24975  .debug_str:0000000000017be8 .LASF4880
C:\Users\CYMR90~1\AppData\Local\Temp\ccEL7hUr.s:19826  .debug_str:0000000000002d08 .LASF4881
C:\Users\CYMR90~1\AppData\Local\Temp\ccEL7hUr.s:21128  .debug_str:000000000000826b .LASF4882
C:\Users\CYMR90~1\AppData\Local\Temp\ccEL7hUr.s:26189  .debug_str:000000000001cb13 .LASF4883
C:\Users\CYMR90~1\AppData\Local\Temp\ccEL7hUr.s:21742  .debug_str:000000000000a933 .LASF4884
C:\Users\CYMR90~1\AppData\Local\Temp\ccEL7hUr.s:20724  .debug_str:0000000000006697 .LASF4885
C:\Users\CYMR90~1\AppData\Local\Temp\ccEL7hUr.s:24660  .debug_str:0000000000016626 .LASF4886
C:\Users\CYMR90~1\AppData\Local\Temp\ccEL7hUr.s:25813  .debug_str:000000000001b383 .LASF4887
C:\Users\CYMR90~1\AppData\Local\Temp\ccEL7hUr.s:20118  .debug_str:000000000000404b .LASF4888
C:\Users\CYMR90~1\AppData\Local\Temp\ccEL7hUr.s:28485  .debug_str:0000000000025c3e .LASF4889
C:\Users\CYMR90~1\AppData\Local\Temp\ccEL7hUr.s:22704  .debug_str:000000000000e922 .LASF4890
C:\Users\CYMR90~1\AppData\Local\Temp\ccEL7hUr.s:27415  .debug_str:00000000000217db .LASF4891
C:\Users\CYMR90~1\AppData\Local\Temp\ccEL7hUr.s:24162  .debug_str:0000000000014680 .LASF4892
C:\Users\CYMR90~1\AppData\Local\Temp\ccEL7hUr.s:21842  .debug_str:000000000000b053 .LASF4893
C:\Users\CYMR90~1\AppData\Local\Temp\ccEL7hUr.s:27233  .debug_str:0000000000020cbd .LASF4894
C:\Users\CYMR90~1\AppData\Local\Temp\ccEL7hUr.s:28599  .debug_str:0000000000026316 .LASF4895
C:\Users\CYMR90~1\AppData\Local\Temp\ccEL7hUr.s:26919  .debug_str:000000000001f902 .LASF4896
C:\Users\CYMR90~1\AppData\Local\Temp\ccEL7hUr.s:27519  .debug_str:0000000000021e44 .LASF4897
C:\Users\CYMR90~1\AppData\Local\Temp\ccEL7hUr.s:25785  .debug_str:000000000001b179 .LASF4898
C:\Users\CYMR90~1\AppData\Local\Temp\ccEL7hUr.s:27071  .debug_str:000000000002022a .LASF4899
C:\Users\CYMR90~1\AppData\Local\Temp\ccEL7hUr.s:28547  .debug_str:000000000002601d .LASF4900
C:\Users\CYMR90~1\AppData\Local\Temp\ccEL7hUr.s:28037  .debug_str:0000000000023cd2 .LASF4901
C:\Users\CYMR90~1\AppData\Local\Temp\ccEL7hUr.s:27863  .debug_str:0000000000023224 .LASF4902
C:\Users\CYMR90~1\AppData\Local\Temp\ccEL7hUr.s:30281  .debug_str:000000000002cf65 .LASF4903
C:\Users\CYMR90~1\AppData\Local\Temp\ccEL7hUr.s:20718  .debug_str:0000000000006638 .LASF4904
C:\Users\CYMR90~1\AppData\Local\Temp\ccEL7hUr.s:20364  .debug_str:00000000000050c0 .LASF4905
C:\Users\CYMR90~1\AppData\Local\Temp\ccEL7hUr.s:27761  .debug_str:0000000000022ca2 .LASF4906
C:\Users\CYMR90~1\AppData\Local\Temp\ccEL7hUr.s:27713  .debug_str:0000000000022989 .LASF4907
C:\Users\CYMR90~1\AppData\Local\Temp\ccEL7hUr.s:24178  .debug_str:00000000000147ed .LASF4908
C:\Users\CYMR90~1\AppData\Local\Temp\ccEL7hUr.s:19264  .debug_str:0000000000000a01 .LASF4909
C:\Users\CYMR90~1\AppData\Local\Temp\ccEL7hUr.s:23958  .debug_str:0000000000013a06 .LASF4910
C:\Users\CYMR90~1\AppData\Local\Temp\ccEL7hUr.s:25061  .debug_str:00000000000180cf .LASF4911
C:\Users\CYMR90~1\AppData\Local\Temp\ccEL7hUr.s:22690  .debug_str:000000000000e842 .LASF4912
C:\Users\CYMR90~1\AppData\Local\Temp\ccEL7hUr.s:26251  .debug_str:000000000001cfbb .LASF4913
C:\Users\CYMR90~1\AppData\Local\Temp\ccEL7hUr.s:24292  .debug_str:0000000000014f2c .LASF4914
C:\Users\CYMR90~1\AppData\Local\Temp\ccEL7hUr.s:19642  .debug_str:0000000000002129 .LASF4915
C:\Users\CYMR90~1\AppData\Local\Temp\ccEL7hUr.s:21082  .debug_str:0000000000007ecf .LASF4916
C:\Users\CYMR90~1\AppData\Local\Temp\ccEL7hUr.s:22126  .debug_str:000000000000c3ca .LASF4917
C:\Users\CYMR90~1\AppData\Local\Temp\ccEL7hUr.s:24434  .debug_str:000000000001577a .LASF4918
C:\Users\CYMR90~1\AppData\Local\Temp\ccEL7hUr.s:25935  .debug_str:000000000001ba8c .LASF4919
C:\Users\CYMR90~1\AppData\Local\Temp\ccEL7hUr.s:20202  .debug_str:00000000000045f1 .LASF4920
C:\Users\CYMR90~1\AppData\Local\Temp\ccEL7hUr.s:21204  .debug_str:000000000000872e .LASF4921
C:\Users\CYMR90~1\AppData\Local\Temp\ccEL7hUr.s:20252  .debug_str:00000000000049f4 .LASF4922
C:\Users\CYMR90~1\AppData\Local\Temp\ccEL7hUr.s:26515  .debug_str:000000000001e0f0 .LASF4923
C:\Users\CYMR90~1\AppData\Local\Temp\ccEL7hUr.s:28131  .debug_str:00000000000243c5 .LASF4924
C:\Users\CYMR90~1\AppData\Local\Temp\ccEL7hUr.s:29621  .debug_str:000000000002a468 .LASF4925
C:\Users\CYMR90~1\AppData\Local\Temp\ccEL7hUr.s:23038  .debug_str:000000000000fdb2 .LASF4926
C:\Users\CYMR90~1\AppData\Local\Temp\ccEL7hUr.s:27543  .debug_str:0000000000021fa8 .LASF4927
C:\Users\CYMR90~1\AppData\Local\Temp\ccEL7hUr.s:29069  .debug_str:000000000002824d .LASF4928
C:\Users\CYMR90~1\AppData\Local\Temp\ccEL7hUr.s:27925  .debug_str:0000000000023625 .LASF4929
C:\Users\CYMR90~1\AppData\Local\Temp\ccEL7hUr.s:24312  .debug_str:000000000001507c .LASF4930
C:\Users\CYMR90~1\AppData\Local\Temp\ccEL7hUr.s:29821  .debug_str:000000000002b022 .LASF4931
C:\Users\CYMR90~1\AppData\Local\Temp\ccEL7hUr.s:21878  .debug_str:000000000000b26d .LASF4932
C:\Users\CYMR90~1\AppData\Local\Temp\ccEL7hUr.s:29327  .debug_str:0000000000029279 .LASF4933
C:\Users\CYMR90~1\AppData\Local\Temp\ccEL7hUr.s:24386  .debug_str:00000000000154ce .LASF4934
C:\Users\CYMR90~1\AppData\Local\Temp\ccEL7hUr.s:27425  .debug_str:0000000000021865 .LASF4935
C:\Users\CYMR90~1\AppData\Local\Temp\ccEL7hUr.s:29725  .debug_str:000000000002aa8d .LASF4936
C:\Users\CYMR90~1\AppData\Local\Temp\ccEL7hUr.s:19236  .debug_str:000000000000083d .LASF4937
C:\Users\CYMR90~1\AppData\Local\Temp\ccEL7hUr.s:19184  .debug_str:000000000000050e .LASF4938
C:\Users\CYMR90~1\AppData\Local\Temp\ccEL7hUr.s:26719  .debug_str:000000000001ece6 .LASF4939
C:\Users\CYMR90~1\AppData\Local\Temp\ccEL7hUr.s:21624  .debug_str:000000000000a1b8 .LASF4940
C:\Users\CYMR90~1\AppData\Local\Temp\ccEL7hUr.s:20468  .debug_str:0000000000005716 .LASF4941
C:\Users\CYMR90~1\AppData\Local\Temp\ccEL7hUr.s:22966  .debug_str:000000000000f97f .LASF4942
C:\Users\CYMR90~1\AppData\Local\Temp\ccEL7hUr.s:25195  .debug_str:000000000001890f .LASF4943
C:\Users\CYMR90~1\AppData\Local\Temp\ccEL7hUr.s:19740  .debug_str:000000000000277a .LASF4944
C:\Users\CYMR90~1\AppData\Local\Temp\ccEL7hUr.s:25435  .debug_str:00000000000199ff .LASF4945
C:\Users\CYMR90~1\AppData\Local\Temp\ccEL7hUr.s:26775  .debug_str:000000000001f061 .LASF4946
C:\Users\CYMR90~1\AppData\Local\Temp\ccEL7hUr.s:19272  .debug_str:0000000000000ac7 .LASF4947
C:\Users\CYMR90~1\AppData\Local\Temp\ccEL7hUr.s:20700  .debug_str:0000000000006545 .LASF4948
C:\Users\CYMR90~1\AppData\Local\Temp\ccEL7hUr.s:23712  .debug_str:000000000001298b .LASF4949
C:\Users\CYMR90~1\AppData\Local\Temp\ccEL7hUr.s:26051  .debug_str:000000000001c23d .LASF4950
C:\Users\CYMR90~1\AppData\Local\Temp\ccEL7hUr.s:26267  .debug_str:000000000001d12a .LASF4951
C:\Users\CYMR90~1\AppData\Local\Temp\ccEL7hUr.s:29773  .debug_str:000000000002ad66 .LASF4952
C:\Users\CYMR90~1\AppData\Local\Temp\ccEL7hUr.s:22040  .debug_str:000000000000be5e .LASF4953
C:\Users\CYMR90~1\AppData\Local\Temp\ccEL7hUr.s:25031  .debug_str:0000000000017f4a .LASF4954
C:\Users\CYMR90~1\AppData\Local\Temp\ccEL7hUr.s:24054  .debug_str:0000000000013fcd .LASF4955
C:\Users\CYMR90~1\AppData\Local\Temp\ccEL7hUr.s:25015  .debug_str:0000000000017e29 .LASF4956
C:\Users\CYMR90~1\AppData\Local\Temp\ccEL7hUr.s:27217  .debug_str:0000000000020bbc .LASF4957
C:\Users\CYMR90~1\AppData\Local\Temp\ccEL7hUr.s:27221  .debug_str:0000000000020bf5 .LASF4958
C:\Users\CYMR90~1\AppData\Local\Temp\ccEL7hUr.s:19862  .debug_str:0000000000002f47 .LASF4959
C:\Users\CYMR90~1\AppData\Local\Temp\ccEL7hUr.s:23134  .debug_str:00000000000103db .LASF4960
C:\Users\CYMR90~1\AppData\Local\Temp\ccEL7hUr.s:29519  .debug_str:0000000000029e15 .LASF4961
C:\Users\CYMR90~1\AppData\Local\Temp\ccEL7hUr.s:21238  .debug_str:0000000000008971 .LASF4962
C:\Users\CYMR90~1\AppData\Local\Temp\ccEL7hUr.s:23002  .debug_str:000000000000fb7a .LASF4963
C:\Users\CYMR90~1\AppData\Local\Temp\ccEL7hUr.s:19800  .debug_str:0000000000002b59 .LASF4964
C:\Users\CYMR90~1\AppData\Local\Temp\ccEL7hUr.s:23028  .debug_str:000000000000fd27 .LASF4965
C:\Users\CYMR90~1\AppData\Local\Temp\ccEL7hUr.s:24823  .debug_str:0000000000017253 .LASF4966
C:\Users\CYMR90~1\AppData\Local\Temp\ccEL7hUr.s:22484  .debug_str:000000000000db9c .LASF4967
C:\Users\CYMR90~1\AppData\Local\Temp\ccEL7hUr.s:24905  .debug_str:0000000000017755 .LASF4968
C:\Users\CYMR90~1\AppData\Local\Temp\ccEL7hUr.s:21510  .debug_str:0000000000009ab7 .LASF4969
C:\Users\CYMR90~1\AppData\Local\Temp\ccEL7hUr.s:24306  .debug_str:000000000001501e .LASF4970
C:\Users\CYMR90~1\AppData\Local\Temp\ccEL7hUr.s:21260  .debug_str:0000000000008ad9 .LASF4971
C:\Users\CYMR90~1\AppData\Local\Temp\ccEL7hUr.s:21194  .debug_str:00000000000086a0 .LASF4972
C:\Users\CYMR90~1\AppData\Local\Temp\ccEL7hUr.s:29771  .debug_str:000000000002ad41 .LASF4973
C:\Users\CYMR90~1\AppData\Local\Temp\ccEL7hUr.s:28087  .debug_str:000000000002407c .LASF4974
C:\Users\CYMR90~1\AppData\Local\Temp\ccEL7hUr.s:29757  .debug_str:000000000002ac76 .LASF4975
C:\Users\CYMR90~1\AppData\Local\Temp\ccEL7hUr.s:25093  .debug_str:00000000000182d9 .LASF4976
C:\Users\CYMR90~1\AppData\Local\Temp\ccEL7hUr.s:29257  .debug_str:0000000000028e48 .LASF4977
C:\Users\CYMR90~1\AppData\Local\Temp\ccEL7hUr.s:24845  .debug_str:00000000000173b1 .LASF4978
C:\Users\CYMR90~1\AppData\Local\Temp\ccEL7hUr.s:21486  .debug_str:0000000000009910 .LASF4979
C:\Users\CYMR90~1\AppData\Local\Temp\ccEL7hUr.s:28685  .debug_str:000000000002688f .LASF4980
C:\Users\CYMR90~1\AppData\Local\Temp\ccEL7hUr.s:25077  .debug_str:00000000000181ee .LASF4981
C:\Users\CYMR90~1\AppData\Local\Temp\ccEL7hUr.s:24983  .debug_str:0000000000017c49 .LASF4982
C:\Users\CYMR90~1\AppData\Local\Temp\ccEL7hUr.s:28813  .debug_str:000000000002702c .LASF4983
C:\Users\CYMR90~1\AppData\Local\Temp\ccEL7hUr.s:22888  .debug_str:000000000000f426 .LASF4984
C:\Users\CYMR90~1\AppData\Local\Temp\ccEL7hUr.s:26227  .debug_str:000000000001cd9e .LASF4985
C:\Users\CYMR90~1\AppData\Local\Temp\ccEL7hUr.s:25267  .debug_str:0000000000018e5c .LASF4986
C:\Users\CYMR90~1\AppData\Local\Temp\ccEL7hUr.s:22206  .debug_str:000000000000c929 .LASF4987
C:\Users\CYMR90~1\AppData\Local\Temp\ccEL7hUr.s:28339  .debug_str:0000000000025237 .LASF4988
C:\Users\CYMR90~1\AppData\Local\Temp\ccEL7hUr.s:21616  .debug_str:000000000000a142 .LASF4989
C:\Users\CYMR90~1\AppData\Local\Temp\ccEL7hUr.s:28167  .debug_str:0000000000024604 .LASF4990
C:\Users\CYMR90~1\AppData\Local\Temp\ccEL7hUr.s:25991  .debug_str:000000000001be51 .LASF4991
C:\Users\CYMR90~1\AppData\Local\Temp\ccEL7hUr.s:22344  .debug_str:000000000000d275 .LASF4992
C:\Users\CYMR90~1\AppData\Local\Temp\ccEL7hUr.s:23202  .debug_str:0000000000010875 .LASF4993
C:\Users\CYMR90~1\AppData\Local\Temp\ccEL7hUr.s:19582  .debug_str:0000000000001e12 .LASF4994
C:\Users\CYMR90~1\AppData\Local\Temp\ccEL7hUr.s:24775  .debug_str:0000000000016f97 .LASF4995
C:\Users\CYMR90~1\AppData\Local\Temp\ccEL7hUr.s:26071  .debug_str:000000000001c34d .LASF4996
C:\Users\CYMR90~1\AppData\Local\Temp\ccEL7hUr.s:24204  .debug_str:0000000000014984 .LASF4997
C:\Users\CYMR90~1\AppData\Local\Temp\ccEL7hUr.s:20194  .debug_str:0000000000004570 .LASF4998
C:\Users\CYMR90~1\AppData\Local\Temp\ccEL7hUr.s:25717  .debug_str:000000000001acd1 .LASF4999
C:\Users\CYMR90~1\AppData\Local\Temp\ccEL7hUr.s:28435  .debug_str:000000000002592f .LASF5000
C:\Users\CYMR90~1\AppData\Local\Temp\ccEL7hUr.s:22942  .debug_str:000000000000f768 .LASF5001
C:\Users\CYMR90~1\AppData\Local\Temp\ccEL7hUr.s:29967  .debug_str:000000000002ba2d .LASF5002
C:\Users\CYMR90~1\AppData\Local\Temp\ccEL7hUr.s:19104  .debug_str:000000000000006a .LASF5003
C:\Users\CYMR90~1\AppData\Local\Temp\ccEL7hUr.s:22116  .debug_str:000000000000c347 .LASF5004
C:\Users\CYMR90~1\AppData\Local\Temp\ccEL7hUr.s:20720  .debug_str:000000000000665b .LASF5005
C:\Users\CYMR90~1\AppData\Local\Temp\ccEL7hUr.s:20926  .debug_str:000000000000742d .LASF5006
C:\Users\CYMR90~1\AppData\Local\Temp\ccEL7hUr.s:24440  .debug_str:00000000000157cb .LASF5007
C:\Users\CYMR90~1\AppData\Local\Temp\ccEL7hUr.s:21988  .debug_str:000000000000ba0a .LASF5008
C:\Users\CYMR90~1\AppData\Local\Temp\ccEL7hUr.s:24296  .debug_str:0000000000014f73 .LASF5009
C:\Users\CYMR90~1\AppData\Local\Temp\ccEL7hUr.s:21944  .debug_str:000000000000b71c .LASF5010
C:\Users\CYMR90~1\AppData\Local\Temp\ccEL7hUr.s:24486  .debug_str:0000000000015a95 .LASF5011
C:\Users\CYMR90~1\AppData\Local\Temp\ccEL7hUr.s:23400  .debug_str:0000000000011483 .LASF5012
C:\Users\CYMR90~1\AppData\Local\Temp\ccEL7hUr.s:23328  .debug_str:000000000001105c .LASF5013
C:\Users\CYMR90~1\AppData\Local\Temp\ccEL7hUr.s:23636  .debug_str:000000000001249f .LASF5014
C:\Users\CYMR90~1\AppData\Local\Temp\ccEL7hUr.s:24362  .debug_str:0000000000015396 .LASF5015
C:\Users\CYMR90~1\AppData\Local\Temp\ccEL7hUr.s:23308  .debug_str:0000000000010f4c .LASF5016
C:\Users\CYMR90~1\AppData\Local\Temp\ccEL7hUr.s:29131  .debug_str:0000000000028686 .LASF5017
C:\Users\CYMR90~1\AppData\Local\Temp\ccEL7hUr.s:20974  .debug_str:0000000000007728 .LASF5018
C:\Users\CYMR90~1\AppData\Local\Temp\ccEL7hUr.s:30015  .debug_str:000000000002bd4d .LASF5019
C:\Users\CYMR90~1\AppData\Local\Temp\ccEL7hUr.s:30031  .debug_str:000000000002bedd .LASF5020
C:\Users\CYMR90~1\AppData\Local\Temp\ccEL7hUr.s:27247  .debug_str:0000000000020da4 .LASF5021
C:\Users\CYMR90~1\AppData\Local\Temp\ccEL7hUr.s:19298  .debug_str:0000000000000c54 .LASF5022
C:\Users\CYMR90~1\AppData\Local\Temp\ccEL7hUr.s:21984  .debug_str:000000000000b9db .LASF5023
C:\Users\CYMR90~1\AppData\Local\Temp\ccEL7hUr.s:26701  .debug_str:000000000001ebd5 .LASF5024
C:\Users\CYMR90~1\AppData\Local\Temp\ccEL7hUr.s:20708  .debug_str:00000000000065b0 .LASF5025
C:\Users\CYMR90~1\AppData\Local\Temp\ccEL7hUr.s:22424  .debug_str:000000000000d84c .LASF5026
C:\Users\CYMR90~1\AppData\Local\Temp\ccEL7hUr.s:23824  .debug_str:00000000000130ea .LASF5027
C:\Users\CYMR90~1\AppData\Local\Temp\ccEL7hUr.s:23244  .debug_str:0000000000010ada .LASF5028
C:\Users\CYMR90~1\AppData\Local\Temp\ccEL7hUr.s:27531  .debug_str:0000000000021f11 .LASF5029
C:\Users\CYMR90~1\AppData\Local\Temp\ccEL7hUr.s:26579  .debug_str:000000000001e48d .LASF5030
C:\Users\CYMR90~1\AppData\Local\Temp\ccEL7hUr.s:20390  .debug_str:0000000000005268 .LASF5031
C:\Users\CYMR90~1\AppData\Local\Temp\ccEL7hUr.s:27369  .debug_str:00000000000214ff .LASF5032
C:\Users\CYMR90~1\AppData\Local\Temp\ccEL7hUr.s:24540  .debug_str:0000000000015e2a .LASF5033
C:\Users\CYMR90~1\AppData\Local\Temp\ccEL7hUr.s:20622  .debug_str:000000000000606f .LASF5034
C:\Users\CYMR90~1\AppData\Local\Temp\ccEL7hUr.s:25521  .debug_str:0000000000019f0f .LASF5035
C:\Users\CYMR90~1\AppData\Local\Temp\ccEL7hUr.s:24372  .debug_str:00000000000153ff .LASF5036
C:\Users\CYMR90~1\AppData\Local\Temp\ccEL7hUr.s:27019  .debug_str:000000000001ff68 .LASF5037
C:\Users\CYMR90~1\AppData\Local\Temp\ccEL7hUr.s:29161  .debug_str:0000000000028871 .LASF5038
C:\Users\CYMR90~1\AppData\Local\Temp\ccEL7hUr.s:24032  .debug_str:0000000000013e6e .LASF5039
C:\Users\CYMR90~1\AppData\Local\Temp\ccEL7hUr.s:23968  .debug_str:0000000000013aa8 .LASF5040
C:\Users\CYMR90~1\AppData\Local\Temp\ccEL7hUr.s:19692  .debug_str:000000000000244c .LASF5041
C:\Users\CYMR90~1\AppData\Local\Temp\ccEL7hUr.s:26631  .debug_str:000000000001e7be .LASF5042
C:\Users\CYMR90~1\AppData\Local\Temp\ccEL7hUr.s:26091  .debug_str:000000000001c46a .LASF5043
C:\Users\CYMR90~1\AppData\Local\Temp\ccEL7hUr.s:28391  .debug_str:00000000000255e0 .LASF5044
C:\Users\CYMR90~1\AppData\Local\Temp\ccEL7hUr.s:20762  .debug_str:0000000000006933 .LASF5045
C:\Users\CYMR90~1\AppData\Local\Temp\ccEL7hUr.s:19548  .debug_str:0000000000001c13 .LASF5046
C:\Users\CYMR90~1\AppData\Local\Temp\ccEL7hUr.s:21348  .debug_str:0000000000009079 .LASF5047
C:\Users\CYMR90~1\AppData\Local\Temp\ccEL7hUr.s:21512  .debug_str:0000000000009ada .LASF5048
C:\Users\CYMR90~1\AppData\Local\Temp\ccEL7hUr.s:19560  .debug_str:0000000000001cb4 .LASF5049
C:\Users\CYMR90~1\AppData\Local\Temp\ccEL7hUr.s:30057  .debug_str:000000000002c073 .LASF5050
C:\Users\CYMR90~1\AppData\Local\Temp\ccEL7hUr.s:24248  .debug_str:0000000000014c17 .LASF5051
C:\Users\CYMR90~1\AppData\Local\Temp\ccEL7hUr.s:24646  .debug_str:00000000000164e5 .LASF5052
C:\Users\CYMR90~1\AppData\Local\Temp\ccEL7hUr.s:23758  .debug_str:0000000000012ca6 .LASF5053
C:\Users\CYMR90~1\AppData\Local\Temp\ccEL7hUr.s:21828  .debug_str:000000000000af6d .LASF5054
C:\Users\CYMR90~1\AppData\Local\Temp\ccEL7hUr.s:24310  .debug_str:0000000000015063 .LASF5055
C:\Users\CYMR90~1\AppData\Local\Temp\ccEL7hUr.s:20896  .debug_str:0000000000007207 .LASF5056
C:\Users\CYMR90~1\AppData\Local\Temp\ccEL7hUr.s:25073  .debug_str:00000000000181b1 .LASF5057
C:\Users\CYMR90~1\AppData\Local\Temp\ccEL7hUr.s:22988  .debug_str:000000000000fab9 .LASF5058
C:\Users\CYMR90~1\AppData\Local\Temp\ccEL7hUr.s:24470  .debug_str:00000000000159a7 .LASF5059
C:\Users\CYMR90~1\AppData\Local\Temp\ccEL7hUr.s:21036  .debug_str:0000000000007b53 .LASF5060
C:\Users\CYMR90~1\AppData\Local\Temp\ccEL7hUr.s:25737  .debug_str:000000000001ae21 .LASF5061
C:\Users\CYMR90~1\AppData\Local\Temp\ccEL7hUr.s:30297  .debug_str:000000000002d063 .LASF5062
C:\Users\CYMR90~1\AppData\Local\Temp\ccEL7hUr.s:19988  .debug_str:00000000000037dc .LASF5063
C:\Users\CYMR90~1\AppData\Local\Temp\ccEL7hUr.s:23620  .debug_str:0000000000012389 .LASF5064
C:\Users\CYMR90~1\AppData\Local\Temp\ccEL7hUr.s:20950  .debug_str:000000000000759c .LASF5065
C:\Users\CYMR90~1\AppData\Local\Temp\ccEL7hUr.s:20348  .debug_str:0000000000004fda .LASF5066
C:\Users\CYMR90~1\AppData\Local\Temp\ccEL7hUr.s:21560  .debug_str:0000000000009dc4 .LASF5067
C:\Users\CYMR90~1\AppData\Local\Temp\ccEL7hUr.s:21508  .debug_str:0000000000009a96 .LASF5068
C:\Users\CYMR90~1\AppData\Local\Temp\ccEL7hUr.s:22402  .debug_str:000000000000d6b8 .LASF5069
C:\Users\CYMR90~1\AppData\Local\Temp\ccEL7hUr.s:19640  .debug_str:000000000000210c .LASF5070
C:\Users\CYMR90~1\AppData\Local\Temp\ccEL7hUr.s:27499  .debug_str:0000000000021cfa .LASF5071
C:\Users\CYMR90~1\AppData\Local\Temp\ccEL7hUr.s:27137  .debug_str:00000000000206d5 .LASF5072
C:\Users\CYMR90~1\AppData\Local\Temp\ccEL7hUr.s:28823  .debug_str:000000000002710a .LASF5073
C:\Users\CYMR90~1\AppData\Local\Temp\ccEL7hUr.s:19506  .debug_str:000000000000197e .LASF5074
C:\Users\CYMR90~1\AppData\Local\Temp\ccEL7hUr.s:23010  .debug_str:000000000000fc01 .LASF5075
C:\Users\CYMR90~1\AppData\Local\Temp\ccEL7hUr.s:21396  .debug_str:000000000000933d .LASF5076
C:\Users\CYMR90~1\AppData\Local\Temp\ccEL7hUr.s:28279  .debug_str:0000000000024d8e .LASF5077
C:\Users\CYMR90~1\AppData\Local\Temp\ccEL7hUr.s:29739  .debug_str:000000000002ab44 .LASF5078
C:\Users\CYMR90~1\AppData\Local\Temp\ccEL7hUr.s:24797  .debug_str:00000000000170f6 .LASF5079
C:\Users\CYMR90~1\AppData\Local\Temp\ccEL7hUr.s:24909  .debug_str:000000000001779c .LASF5080
C:\Users\CYMR90~1\AppData\Local\Temp\ccEL7hUr.s:26447  .debug_str:000000000001dc25 .LASF5081
C:\Users\CYMR90~1\AppData\Local\Temp\ccEL7hUr.s:21634  .debug_str:000000000000a269 .LASF5082
C:\Users\CYMR90~1\AppData\Local\Temp\ccEL7hUr.s:26885  .debug_str:000000000001f6fb .LASF5083
C:\Users\CYMR90~1\AppData\Local\Temp\ccEL7hUr.s:28051  .debug_str:0000000000023db7 .LASF5084
C:\Users\CYMR90~1\AppData\Local\Temp\ccEL7hUr.s:23750  .debug_str:0000000000012c39 .LASF5085
C:\Users\CYMR90~1\AppData\Local\Temp\ccEL7hUr.s:26199  .debug_str:000000000001cbab .LASF5086
C:\Users\CYMR90~1\AppData\Local\Temp\ccEL7hUr.s:20174  .debug_str:000000000000441b .LASF5087
C:\Users\CYMR90~1\AppData\Local\Temp\ccEL7hUr.s:28975  .debug_str:0000000000027b32 .LASF5088
C:\Users\CYMR90~1\AppData\Local\Temp\ccEL7hUr.s:23416  .debug_str:0000000000011576 .LASF5089
C:\Users\CYMR90~1\AppData\Local\Temp\ccEL7hUr.s:21996  .debug_str:000000000000ba71 .LASF5090
C:\Users\CYMR90~1\AppData\Local\Temp\ccEL7hUr.s:28043  .debug_str:0000000000023d26 .LASF5091
C:\Users\CYMR90~1\AppData\Local\Temp\ccEL7hUr.s:28145  .debug_str:00000000000244c7 .LASF5092
C:\Users\CYMR90~1\AppData\Local\Temp\ccEL7hUr.s:24442  .debug_str:00000000000157e1 .LASF5093
C:\Users\CYMR90~1\AppData\Local\Temp\ccEL7hUr.s:20016  .debug_str:00000000000039a7 .LASF5094
C:\Users\CYMR90~1\AppData\Local\Temp\ccEL7hUr.s:24777  .debug_str:0000000000016fc1 .LASF5095
C:\Users\CYMR90~1\AppData\Local\Temp\ccEL7hUr.s:19958  .debug_str:00000000000035eb .LASF5096
C:\Users\CYMR90~1\AppData\Local\Temp\ccEL7hUr.s:20286  .debug_str:0000000000004c10 .LASF5097
C:\Users\CYMR90~1\AppData\Local\Temp\ccEL7hUr.s:20674  .debug_str:00000000000063a2 .LASF5098
C:\Users\CYMR90~1\AppData\Local\Temp\ccEL7hUr.s:28621  .debug_str:0000000000026494 .LASF5099
C:\Users\CYMR90~1\AppData\Local\Temp\ccEL7hUr.s:28867  .debug_str:0000000000027444 .LASF5100
C:\Users\CYMR90~1\AppData\Local\Temp\ccEL7hUr.s:19210  .debug_str:00000000000006a1 .LASF5101
C:\Users\CYMR90~1\AppData\Local\Temp\ccEL7hUr.s:25653  .debug_str:000000000001a8ff .LASF5102
C:\Users\CYMR90~1\AppData\Local\Temp\ccEL7hUr.s:29995  .debug_str:000000000002bc13 .LASF5103
C:\Users\CYMR90~1\AppData\Local\Temp\ccEL7hUr.s:21814  .debug_str:000000000000adeb .LASF5104
C:\Users\CYMR90~1\AppData\Local\Temp\ccEL7hUr.s:20756  .debug_str:00000000000068db .LASF5105
C:\Users\CYMR90~1\AppData\Local\Temp\ccEL7hUr.s:28923  .debug_str:000000000002774f .LASF5106
C:\Users\CYMR90~1\AppData\Local\Temp\ccEL7hUr.s:25677  .debug_str:000000000001aa66 .LASF5107
C:\Users\CYMR90~1\AppData\Local\Temp\ccEL7hUr.s:26791  .debug_str:000000000001f16a .LASF5108
C:\Users\CYMR90~1\AppData\Local\Temp\ccEL7hUr.s:25927  .debug_str:000000000001ba27 .LASF5109
C:\Users\CYMR90~1\AppData\Local\Temp\ccEL7hUr.s:20466  .debug_str:00000000000056fd .LASF5110
C:\Users\CYMR90~1\AppData\Local\Temp\ccEL7hUr.s:27817  .debug_str:0000000000022fd6 .LASF5111
C:\Users\CYMR90~1\AppData\Local\Temp\ccEL7hUr.s:27837  .debug_str:00000000000230ba .LASF5112
C:\Users\CYMR90~1\AppData\Local\Temp\ccEL7hUr.s:28311  .debug_str:0000000000024f66 .LASF5113
C:\Users\CYMR90~1\AppData\Local\Temp\ccEL7hUr.s:29233  .debug_str:0000000000028ca5 .LASF5114
C:\Users\CYMR90~1\AppData\Local\Temp\ccEL7hUr.s:27877  .debug_str:000000000002330e .LASF5115
C:\Users\CYMR90~1\AppData\Local\Temp\ccEL7hUr.s:29353  .debug_str:000000000002942e .LASF5116
C:\Users\CYMR90~1\AppData\Local\Temp\ccEL7hUr.s:23830  .debug_str:0000000000013148 .LASF5117
C:\Users\CYMR90~1\AppData\Local\Temp\ccEL7hUr.s:23658  .debug_str:00000000000125fb .LASF5118
C:\Users\CYMR90~1\AppData\Local\Temp\ccEL7hUr.s:27409  .debug_str:000000000002175d .LASF5119
C:\Users\CYMR90~1\AppData\Local\Temp\ccEL7hUr.s:30269  .debug_str:000000000002ce96 .LASF5120
C:\Users\CYMR90~1\AppData\Local\Temp\ccEL7hUr.s:23834  .debug_str:000000000001318c .LASF5121
C:\Users\CYMR90~1\AppData\Local\Temp\ccEL7hUr.s:24987  .debug_str:0000000000017c86 .LASF5122
C:\Users\CYMR90~1\AppData\Local\Temp\ccEL7hUr.s:20342  .debug_str:0000000000004f82 .LASF5123
C:\Users\CYMR90~1\AppData\Local\Temp\ccEL7hUr.s:27393  .debug_str:0000000000021666 .LASF5124
C:\Users\CYMR90~1\AppData\Local\Temp\ccEL7hUr.s:24714  .debug_str:00000000000169a6 .LASF5125
C:\Users\CYMR90~1\AppData\Local\Temp\ccEL7hUr.s:19860  .debug_str:0000000000002f2e .LASF5126
C:\Users\CYMR90~1\AppData\Local\Temp\ccEL7hUr.s:26695  .debug_str:000000000001eb87 .LASF5127
C:\Users\CYMR90~1\AppData\Local\Temp\ccEL7hUr.s:27631  .debug_str:000000000002249e .LASF5128
C:\Users\CYMR90~1\AppData\Local\Temp\ccEL7hUr.s:20628  .debug_str:00000000000060e1 .LASF5129
C:\Users\CYMR90~1\AppData\Local\Temp\ccEL7hUr.s:28081  .debug_str:0000000000023f55 .LASF5130
C:\Users\CYMR90~1\AppData\Local\Temp\ccEL7hUr.s:26331  .debug_str:000000000001d4e2 .LASF5131
C:\Users\CYMR90~1\AppData\Local\Temp\ccEL7hUr.s:26311  .debug_str:000000000001d3af .LASF5132
C:\Users\CYMR90~1\AppData\Local\Temp\ccEL7hUr.s:27417  .debug_str:0000000000021806 .LASF5133
C:\Users\CYMR90~1\AppData\Local\Temp\ccEL7hUr.s:23706  .debug_str:000000000001291d .LASF5134
C:\Users\CYMR90~1\AppData\Local\Temp\ccEL7hUr.s:25089  .debug_str:000000000001829d .LASF5135
C:\Users\CYMR90~1\AppData\Local\Temp\ccEL7hUr.s:20922  .debug_str:00000000000073e2 .LASF5136
C:\Users\CYMR90~1\AppData\Local\Temp\ccEL7hUr.s:25659  .debug_str:000000000001a949 .LASF5137
C:\Users\CYMR90~1\AppData\Local\Temp\ccEL7hUr.s:29467  .debug_str:0000000000029b26 .LASF5138
C:\Users\CYMR90~1\AppData\Local\Temp\ccEL7hUr.s:22186  .debug_str:000000000000c798 .LASF5139
C:\Users\CYMR90~1\AppData\Local\Temp\ccEL7hUr.s:21798  .debug_str:000000000000acae .LASF5140
C:\Users\CYMR90~1\AppData\Local\Temp\ccEL7hUr.s:22818  .debug_str:000000000000efdc .LASF5141
C:\Users\CYMR90~1\AppData\Local\Temp\ccEL7hUr.s:20796  .debug_str:0000000000006b51 .LASF5142
C:\Users\CYMR90~1\AppData\Local\Temp\ccEL7hUr.s:27061  .debug_str:000000000002019f .LASF5143
C:\Users\CYMR90~1\AppData\Local\Temp\ccEL7hUr.s:19696  .debug_str:0000000000002482 .LASF5144
C:\Users\CYMR90~1\AppData\Local\Temp\ccEL7hUr.s:27865  .debug_str:0000000000023246 .LASF5145
C:\Users\CYMR90~1\AppData\Local\Temp\ccEL7hUr.s:24700  .debug_str:000000000001687c .LASF5146
C:\Users\CYMR90~1\AppData\Local\Temp\ccEL7hUr.s:29695  .debug_str:000000000002a8be .LASF5147
C:\Users\CYMR90~1\AppData\Local\Temp\ccEL7hUr.s:23008  .debug_str:000000000000fbe1 .LASF5148
C:\Users\CYMR90~1\AppData\Local\Temp\ccEL7hUr.s:29019  .debug_str:0000000000027e27 .LASF5149
C:\Users\CYMR90~1\AppData\Local\Temp\ccEL7hUr.s:20996  .debug_str:00000000000078a6 .LASF5150
C:\Users\CYMR90~1\AppData\Local\Temp\ccEL7hUr.s:22420  .debug_str:000000000000d80d .LASF5151
C:\Users\CYMR90~1\AppData\Local\Temp\ccEL7hUr.s:30183  .debug_str:000000000002c8e0 .LASF5152
C:\Users\CYMR90~1\AppData\Local\Temp\ccEL7hUr.s:22046  .debug_str:000000000000bed7 .LASF5153
C:\Users\CYMR90~1\AppData\Local\Temp\ccEL7hUr.s:21608  .debug_str:000000000000a0d5 .LASF5154
C:\Users\CYMR90~1\AppData\Local\Temp\ccEL7hUr.s:28927  .debug_str:00000000000277a7 .LASF5155
C:\Users\CYMR90~1\AppData\Local\Temp\ccEL7hUr.s:23454  .debug_str:00000000000117f9 .LASF5156
C:\Users\CYMR90~1\AppData\Local\Temp\ccEL7hUr.s:20262  .debug_str:0000000000004a8d .LASF5157
C:\Users\CYMR90~1\AppData\Local\Temp\ccEL7hUr.s:21552  .debug_str:0000000000009d3e .LASF5158
C:\Users\CYMR90~1\AppData\Local\Temp\ccEL7hUr.s:25309  .debug_str:000000000001919b .LASF5159
C:\Users\CYMR90~1\AppData\Local\Temp\ccEL7hUr.s:26273  .debug_str:000000000001d182 .LASF5160
C:\Users\CYMR90~1\AppData\Local\Temp\ccEL7hUr.s:26489  .debug_str:000000000001df72 .LASF5161
C:\Users\CYMR90~1\AppData\Local\Temp\ccEL7hUr.s:22266  .debug_str:000000000000cda9 .LASF5162
C:\Users\CYMR90~1\AppData\Local\Temp\ccEL7hUr.s:24498  .debug_str:0000000000015b3a .LASF5163
C:\Users\CYMR90~1\AppData\Local\Temp\ccEL7hUr.s:22656  .debug_str:000000000000e5e2 .LASF5164
C:\Users\CYMR90~1\AppData\Local\Temp\ccEL7hUr.s:25479  .debug_str:0000000000019cac .LASF5165
C:\Users\CYMR90~1\AppData\Local\Temp\ccEL7hUr.s:25229  .debug_str:0000000000018b52 .LASF5166
C:\Users\CYMR90~1\AppData\Local\Temp\ccEL7hUr.s:27937  .debug_str:0000000000023700 .LASF5167
C:\Users\CYMR90~1\AppData\Local\Temp\ccEL7hUr.s:20222  .debug_str:000000000000475b .LASF5168
C:\Users\CYMR90~1\AppData\Local\Temp\ccEL7hUr.s:19278  .debug_str:0000000000000b2a .LASF5169
C:\Users\CYMR90~1\AppData\Local\Temp\ccEL7hUr.s:23544  .debug_str:0000000000011e8d .LASF5170
C:\Users\CYMR90~1\AppData\Local\Temp\ccEL7hUr.s:24270  .debug_str:0000000000014d79 .LASF5171
C:\Users\CYMR90~1\AppData\Local\Temp\ccEL7hUr.s:30059  .debug_str:000000000002c08b .LASF5172
C:\Users\CYMR90~1\AppData\Local\Temp\ccEL7hUr.s:21142  .debug_str:0000000000008348 .LASF5173
C:\Users\CYMR90~1\AppData\Local\Temp\ccEL7hUr.s:21692  .debug_str:000000000000a618 .LASF5174
C:\Users\CYMR90~1\AppData\Local\Temp\ccEL7hUr.s:25315  .debug_str:00000000000191fd .LASF5175
C:\Users\CYMR90~1\AppData\Local\Temp\ccEL7hUr.s:22596  .debug_str:000000000000e25d .LASF5176
C:\Users\CYMR90~1\AppData\Local\Temp\ccEL7hUr.s:30107  .debug_str:000000000002c419 .LASF5177
C:\Users\CYMR90~1\AppData\Local\Temp\ccEL7hUr.s:19510  .debug_str:00000000000019bc .LASF5178
C:\Users\CYMR90~1\AppData\Local\Temp\ccEL7hUr.s:29009  .debug_str:0000000000027d76 .LASF5179
C:\Users\CYMR90~1\AppData\Local\Temp\ccEL7hUr.s:26391  .debug_str:000000000001d8fe .LASF5180
C:\Users\CYMR90~1\AppData\Local\Temp\ccEL7hUr.s:24757  .debug_str:0000000000016e5e .LASF5181
C:\Users\CYMR90~1\AppData\Local\Temp\ccEL7hUr.s:21656  .debug_str:000000000000a3e8 .LASF5182
C:\Users\CYMR90~1\AppData\Local\Temp\ccEL7hUr.s:27457  .debug_str:0000000000021a27 .LASF5183
C:\Users\CYMR90~1\AppData\Local\Temp\ccEL7hUr.s:23836  .debug_str:00000000000131ac .LASF5184
C:\Users\CYMR90~1\AppData\Local\Temp\ccEL7hUr.s:25215  .debug_str:0000000000018a60 .LASF5185
C:\Users\CYMR90~1\AppData\Local\Temp\ccEL7hUr.s:23934  .debug_str:0000000000013891 .LASF5186
C:\Users\CYMR90~1\AppData\Local\Temp\ccEL7hUr.s:28117  .debug_str:00000000000242c7 .LASF5187
C:\Users\CYMR90~1\AppData\Local\Temp\ccEL7hUr.s:28623  .debug_str:00000000000264af .LASF5188
C:\Users\CYMR90~1\AppData\Local\Temp\ccEL7hUr.s:19758  .debug_str:00000000000028ac .LASF5189
C:\Users\CYMR90~1\AppData\Local\Temp\ccEL7hUr.s:23514  .debug_str:0000000000011ceb .LASF5190
C:\Users\CYMR90~1\AppData\Local\Temp\ccEL7hUr.s:27017  .debug_str:000000000001ff3d .LASF5191
C:\Users\CYMR90~1\AppData\Local\Temp\ccEL7hUr.s:19906  .debug_str:0000000000003271 .LASF5192
C:\Users\CYMR90~1\AppData\Local\Temp\ccEL7hUr.s:26947  .debug_str:000000000001fab0 .LASF5193
C:\Users\CYMR90~1\AppData\Local\Temp\ccEL7hUr.s:23920  .debug_str:00000000000137c1 .LASF5194
C:\Users\CYMR90~1\AppData\Local\Temp\ccEL7hUr.s:29347  .debug_str:00000000000293b2 .LASF5195
C:\Users\CYMR90~1\AppData\Local\Temp\ccEL7hUr.s:21640  .debug_str:000000000000a2c0 .LASF5196
C:\Users\CYMR90~1\AppData\Local\Temp\ccEL7hUr.s:24572  .debug_str:0000000000016083 .LASF5197
C:\Users\CYMR90~1\AppData\Local\Temp\ccEL7hUr.s:19584  .debug_str:0000000000001e3c .LASF5198
C:\Users\CYMR90~1\AppData\Local\Temp\ccEL7hUr.s:20710  .debug_str:00000000000065c7 .LASF5199
C:\Users\CYMR90~1\AppData\Local\Temp\ccEL7hUr.s:29589  .debug_str:000000000002a20f .LASF5200
C:\Users\CYMR90~1\AppData\Local\Temp\ccEL7hUr.s:19838  .debug_str:0000000000002ddb .LASF5201
C:\Users\CYMR90~1\AppData\Local\Temp\ccEL7hUr.s:25739  .debug_str:000000000001ae39 .LASF5202
C:\Users\CYMR90~1\AppData\Local\Temp\ccEL7hUr.s:22918  .debug_str:000000000000f5f6 .LASF5203
C:\Users\CYMR90~1\AppData\Local\Temp\ccEL7hUr.s:24090  .debug_str:0000000000014232 .LASF5204
C:\Users\CYMR90~1\AppData\Local\Temp\ccEL7hUr.s:29239  .debug_str:0000000000028d0b .LASF5205
C:\Users\CYMR90~1\AppData\Local\Temp\ccEL7hUr.s:21368  .debug_str:0000000000009184 .LASF5206
C:\Users\CYMR90~1\AppData\Local\Temp\ccEL7hUr.s:26247  .debug_str:000000000001cf5f .LASF5207
C:\Users\CYMR90~1\AppData\Local\Temp\ccEL7hUr.s:29637  .debug_str:000000000002a55d .LASF5208
C:\Users\CYMR90~1\AppData\Local\Temp\ccEL7hUr.s:20216  .debug_str:00000000000046e3 .LASF5209
C:\Users\CYMR90~1\AppData\Local\Temp\ccEL7hUr.s:28395  .debug_str:0000000000025627 .LASF5210
C:\Users\CYMR90~1\AppData\Local\Temp\ccEL7hUr.s:26907  .debug_str:000000000001f818 .LASF5211
C:\Users\CYMR90~1\AppData\Local\Temp\ccEL7hUr.s:26069  .debug_str:000000000001c325 .LASF5212
C:\Users\CYMR90~1\AppData\Local\Temp\ccEL7hUr.s:27041  .debug_str:000000000002009a .LASF5213
C:\Users\CYMR90~1\AppData\Local\Temp\ccEL7hUr.s:30247  .debug_str:000000000002cd5f .LASF5214
C:\Users\CYMR90~1\AppData\Local\Temp\ccEL7hUr.s:19962  .debug_str:000000000000361a .LASF5215
C:\Users\CYMR90~1\AppData\Local\Temp\ccEL7hUr.s:26653  .debug_str:000000000001e930 .LASF5216
C:\Users\CYMR90~1\AppData\Local\Temp\ccEL7hUr.s:27427  .debug_str:0000000000021891 .LASF5217
C:\Users\CYMR90~1\AppData\Local\Temp\ccEL7hUr.s:19530  .debug_str:0000000000001aec .LASF5218
C:\Users\CYMR90~1\AppData\Local\Temp\ccEL7hUr.s:23746  .debug_str:0000000000012bec .LASF5219
C:\Users\CYMR90~1\AppData\Local\Temp\ccEL7hUr.s:25019  .debug_str:0000000000017e6e .LASF5220
C:\Users\CYMR90~1\AppData\Local\Temp\ccEL7hUr.s:23252  .debug_str:0000000000010b88 .LASF5221
C:\Users\CYMR90~1\AppData\Local\Temp\ccEL7hUr.s:25123  .debug_str:000000000001849e .LASF5222
C:\Users\CYMR90~1\AppData\Local\Temp\ccEL7hUr.s:25699  .debug_str:000000000001abe6 .LASF5223
C:\Users\CYMR90~1\AppData\Local\Temp\ccEL7hUr.s:27047  .debug_str:00000000000200fb .LASF5224
C:\Users\CYMR90~1\AppData\Local\Temp\ccEL7hUr.s:30283  .debug_str:000000000002cf87 .LASF5225
C:\Users\CYMR90~1\AppData\Local\Temp\ccEL7hUr.s:24198  .debug_str:0000000000014902 .LASF5226
C:\Users\CYMR90~1\AppData\Local\Temp\ccEL7hUr.s:25553  .debug_str:000000000001a0f2 .LASF5227
C:\Users\CYMR90~1\AppData\Local\Temp\ccEL7hUr.s:20428  .debug_str:00000000000054a6 .LASF5228
C:\Users\CYMR90~1\AppData\Local\Temp\ccEL7hUr.s:28139  .debug_str:0000000000024440 .LASF5229
C:\Users\CYMR90~1\AppData\Local\Temp\ccEL7hUr.s:29013  .debug_str:0000000000027db9 .LASF5230
C:\Users\CYMR90~1\AppData\Local\Temp\ccEL7hUr.s:21016  .debug_str:00000000000079e8 .LASF5231
C:\Users\CYMR90~1\AppData\Local\Temp\ccEL7hUr.s:30067  .debug_str:000000000002c132 .LASF5232
C:\Users\CYMR90~1\AppData\Local\Temp\ccEL7hUr.s:22772  .debug_str:000000000000ed86 .LASF5233
C:\Users\CYMR90~1\AppData\Local\Temp\ccEL7hUr.s:24941  .debug_str:00000000000179c5 .LASF5234
C:\Users\CYMR90~1\AppData\Local\Temp\ccEL7hUr.s:21122  .debug_str:000000000000820c .LASF5235
C:\Users\CYMR90~1\AppData\Local\Temp\ccEL7hUr.s:20726  .debug_str:00000000000066b9 .LASF5236
C:\Users\CYMR90~1\AppData\Local\Temp\ccEL7hUr.s:20334  .debug_str:0000000000004ef7 .LASF5237
C:\Users\CYMR90~1\AppData\Local\Temp\ccEL7hUr.s:28833  .debug_str:0000000000027243 .LASF5238
C:\Users\CYMR90~1\AppData\Local\Temp\ccEL7hUr.s:25065  .debug_str:0000000000018119 .LASF5239
C:\Users\CYMR90~1\AppData\Local\Temp\ccEL7hUr.s:23686  .debug_str:00000000000127cf .LASF5240
C:\Users\CYMR90~1\AppData\Local\Temp\ccEL7hUr.s:22214  .debug_str:000000000000c9bb .LASF5241
C:\Users\CYMR90~1\AppData\Local\Temp\ccEL7hUr.s:26635  .debug_str:000000000001e806 .LASF5242
C:\Users\CYMR90~1\AppData\Local\Temp\ccEL7hUr.s:21366  .debug_str:0000000000009153 .LASF5243
C:\Users\CYMR90~1\AppData\Local\Temp\ccEL7hUr.s:29797  .debug_str:000000000002aeb1 .LASF5244
C:\Users\CYMR90~1\AppData\Local\Temp\ccEL7hUr.s:26625  .debug_str:000000000001e72a .LASF5245
C:\Users\CYMR90~1\AppData\Local\Temp\ccEL7hUr.s:21214  .debug_str:00000000000087c9 .LASF5246
C:\Users\CYMR90~1\AppData\Local\Temp\ccEL7hUr.s:28919  .debug_str:000000000002771d .LASF5247
C:\Users\CYMR90~1\AppData\Local\Temp\ccEL7hUr.s:30289  .debug_str:000000000002cfe1 .LASF5248
C:\Users\CYMR90~1\AppData\Local\Temp\ccEL7hUr.s:26957  .debug_str:000000000001fb56 .LASF5249
C:\Users\CYMR90~1\AppData\Local\Temp\ccEL7hUr.s:29207  .debug_str:0000000000028b30 .LASF5250
C:\Users\CYMR90~1\AppData\Local\Temp\ccEL7hUr.s:20316  .debug_str:0000000000004de6 .LASF5251
C:\Users\CYMR90~1\AppData\Local\Temp\ccEL7hUr.s:20648  .debug_str:000000000000622a .LASF5252
C:\Users\CYMR90~1\AppData\Local\Temp\ccEL7hUr.s:25573  .debug_str:000000000001a209 .LASF5253
C:\Users\CYMR90~1\AppData\Local\Temp\ccEL7hUr.s:24278  .debug_str:0000000000014e33 .LASF5254
C:\Users\CYMR90~1\AppData\Local\Temp\ccEL7hUr.s:23058  .debug_str:000000000000fefe .LASF5255
C:\Users\CYMR90~1\AppData\Local\Temp\ccEL7hUr.s:29655  .debug_str:000000000002a676 .LASF5256
C:\Users\CYMR90~1\AppData\Local\Temp\ccEL7hUr.s:26007  .debug_str:000000000001bf51 .LASF5257
C:\Users\CYMR90~1\AppData\Local\Temp\ccEL7hUr.s:27491  .debug_str:0000000000021c78 .LASF5258
C:\Users\CYMR90~1\AppData\Local\Temp\ccEL7hUr.s:25775  .debug_str:000000000001b0d4 .LASF5259
C:\Users\CYMR90~1\AppData\Local\Temp\ccEL7hUr.s:21414  .debug_str:0000000000009436 .LASF5260
C:\Users\CYMR90~1\AppData\Local\Temp\ccEL7hUr.s:19156  .debug_str:0000000000000398 .LASF5261
C:\Users\CYMR90~1\AppData\Local\Temp\ccEL7hUr.s:23474  .debug_str:0000000000011a07 .LASF5262
C:\Users\CYMR90~1\AppData\Local\Temp\ccEL7hUr.s:19742  .debug_str:00000000000027a2 .LASF5263
C:\Users\CYMR90~1\AppData\Local\Temp\ccEL7hUr.s:26683  .debug_str:000000000001eae0 .LASF5264
C:\Users\CYMR90~1\AppData\Local\Temp\ccEL7hUr.s:24300  .debug_str:0000000000014fc8 .LASF5265
C:\Users\CYMR90~1\AppData\Local\Temp\ccEL7hUr.s:19100  .debug_str:0000000000000000 .LASF5266
C:\Users\CYMR90~1\AppData\Local\Temp\ccEL7hUr.s:19540  .debug_str:0000000000001b91 .LASF5267
C:\Users\CYMR90~1\AppData\Local\Temp\ccEL7hUr.s:29349  .debug_str:00000000000293df .LASF5268
C:\Users\CYMR90~1\AppData\Local\Temp\ccEL7hUr.s:28215  .debug_str:0000000000024952 .LASF5269
C:\Users\CYMR90~1\AppData\Local\Temp\ccEL7hUr.s:28983  .debug_str:0000000000027ba9 .LASF5270
C:\Users\CYMR90~1\AppData\Local\Temp\ccEL7hUr.s:20432  .debug_str:00000000000054f0 .LASF5271
C:\Users\CYMR90~1\AppData\Local\Temp\ccEL7hUr.s:24726  .debug_str:0000000000016a52 .LASF5272
C:\Users\CYMR90~1\AppData\Local\Temp\ccEL7hUr.s:26993  .debug_str:000000000001fd9d .LASF5273
C:\Users\CYMR90~1\AppData\Local\Temp\ccEL7hUr.s:25665  .debug_str:000000000001a9b2 .LASF5274
C:\Users\CYMR90~1\AppData\Local\Temp\ccEL7hUr.s:30273  .debug_str:000000000002ced8 .LASF5275
C:\Users\CYMR90~1\AppData\Local\Temp\ccEL7hUr.s:24855  .debug_str:0000000000017442 .LASF5276
C:\Users\CYMR90~1\AppData\Local\Temp\ccEL7hUr.s:20616  .debug_str:0000000000006008 .LASF5277
C:\Users\CYMR90~1\AppData\Local\Temp\ccEL7hUr.s:22878  .debug_str:000000000000f38a .LASF5278
C:\Users\CYMR90~1\AppData\Local\Temp\ccEL7hUr.s:23582  .debug_str:0000000000012119 .LASF5279
C:\Users\CYMR90~1\AppData\Local\Temp\ccEL7hUr.s:25177  .debug_str:00000000000187be .LASF5280
C:\Users\CYMR90~1\AppData\Local\Temp\ccEL7hUr.s:27503  .debug_str:0000000000021d27 .LASF5281
C:\Users\CYMR90~1\AppData\Local\Temp\ccEL7hUr.s:28381  .debug_str:0000000000025502 .LASF5282
C:\Users\CYMR90~1\AppData\Local\Temp\ccEL7hUr.s:29165  .debug_str:00000000000288a6 .LASF5283
C:\Users\CYMR90~1\AppData\Local\Temp\ccEL7hUr.s:28625  .debug_str:00000000000264d9 .LASF5284
C:\Users\CYMR90~1\AppData\Local\Temp\ccEL7hUr.s:23388  .debug_str:00000000000113e3 .LASF5285
C:\Users\CYMR90~1\AppData\Local\Temp\ccEL7hUr.s:22306  .debug_str:000000000000cfcf .LASF5286
C:\Users\CYMR90~1\AppData\Local\Temp\ccEL7hUr.s:27157  .debug_str:00000000000207df .LASF5287
C:\Users\CYMR90~1\AppData\Local\Temp\ccEL7hUr.s:22956  .debug_str:000000000000f8c2 .LASF5288
C:\Users\CYMR90~1\AppData\Local\Temp\ccEL7hUr.s:22272  .debug_str:000000000000ce0a .LASF5289
C:\Users\CYMR90~1\AppData\Local\Temp\ccEL7hUr.s:28601  .debug_str:0000000000026340 .LASF5290
C:\Users\CYMR90~1\AppData\Local\Temp\ccEL7hUr.s:23848  .debug_str:0000000000013289 .LASF5291
C:\Users\CYMR90~1\AppData\Local\Temp\ccEL7hUr.s:22080  .debug_str:000000000000c104 .LASF5292
C:\Users\CYMR90~1\AppData\Local\Temp\ccEL7hUr.s:20004  .debug_str:0000000000003900 .LASF5293
C:\Users\CYMR90~1\AppData\Local\Temp\ccEL7hUr.s:20912  .debug_str:0000000000007347 .LASF5294
C:\Users\CYMR90~1\AppData\Local\Temp\ccEL7hUr.s:22960  .debug_str:000000000000f911 .LASF5295
C:\Users\CYMR90~1\AppData\Local\Temp\ccEL7hUr.s:20494  .debug_str:0000000000005897 .LASF5296
C:\Users\CYMR90~1\AppData\Local\Temp\ccEL7hUr.s:29045  .debug_str:0000000000028022 .LASF5297
C:\Users\CYMR90~1\AppData\Local\Temp\ccEL7hUr.s:23634  .debug_str:000000000001247d .LASF5298
C:\Users\CYMR90~1\AppData\Local\Temp\ccEL7hUr.s:19830  .debug_str:0000000000002d3c .LASF5299
C:\Users\CYMR90~1\AppData\Local\Temp\ccEL7hUr.s:28457  .debug_str:0000000000025a90 .LASF5300
C:\Users\CYMR90~1\AppData\Local\Temp\ccEL7hUr.s:28845  .debug_str:0000000000027309 .LASF5301
C:\Users\CYMR90~1\AppData\Local\Temp\ccEL7hUr.s:23404  .debug_str:00000000000114c3 .LASF5302
C:\Users\CYMR90~1\AppData\Local\Temp\ccEL7hUr.s:24562  .debug_str:0000000000015fcd .LASF5303
C:\Users\CYMR90~1\AppData\Local\Temp\ccEL7hUr.s:27869  .debug_str:000000000002327f .LASF5304
C:\Users\CYMR90~1\AppData\Local\Temp\ccEL7hUr.s:26617  .debug_str:000000000001e6aa .LASF5305
C:\Users\CYMR90~1\AppData\Local\Temp\ccEL7hUr.s:27521  .debug_str:0000000000021e6c .LASF5306
C:\Users\CYMR90~1\AppData\Local\Temp\ccEL7hUr.s:30295  .debug_str:000000000002d03d .LASF5307
C:\Users\CYMR90~1\AppData\Local\Temp\ccEL7hUr.s:27699  .debug_str:000000000002289b .LASF5308
C:\Users\CYMR90~1\AppData\Local\Temp\ccEL7hUr.s:28289  .debug_str:0000000000024e1e .LASF5309
C:\Users\CYMR90~1\AppData\Local\Temp\ccEL7hUr.s:21000  .debug_str:00000000000078dc .LASF5310
C:\Users\CYMR90~1\AppData\Local\Temp\ccEL7hUr.s:20368  .debug_str:0000000000005107 .LASF5311
C:\Users\CYMR90~1\AppData\Local\Temp\ccEL7hUr.s:27729  .debug_str:0000000000022a4d .LASF5312
C:\Users\CYMR90~1\AppData\Local\Temp\ccEL7hUr.s:23696  .debug_str:0000000000012872 .LASF5313
C:\Users\CYMR90~1\AppData\Local\Temp\ccEL7hUr.s:28189  .debug_str:000000000002475c .LASF5314
C:\Users\CYMR90~1\AppData\Local\Temp\ccEL7hUr.s:29487  .debug_str:0000000000029c5d .LASF5315
C:\Users\CYMR90~1\AppData\Local\Temp\ccEL7hUr.s:27783  .debug_str:0000000000022de3 .LASF5316
C:\Users\CYMR90~1\AppData\Local\Temp\ccEL7hUr.s:28423  .debug_str:0000000000025879 .LASF5317
C:\Users\CYMR90~1\AppData\Local\Temp\ccEL7hUr.s:28473  .debug_str:0000000000025b9e .LASF5318
C:\Users\CYMR90~1\AppData\Local\Temp\ccEL7hUr.s:27271  .debug_str:0000000000020ee8 .LASF5319
C:\Users\CYMR90~1\AppData\Local\Temp\ccEL7hUr.s:23054  .debug_str:000000000000feb8 .LASF5320
C:\Users\CYMR90~1\AppData\Local\Temp\ccEL7hUr.s:23220  .debug_str:000000000001096d .LASF5321
C:\Users\CYMR90~1\AppData\Local\Temp\ccEL7hUr.s:28307  .debug_str:0000000000024f27 .LASF5322
C:\Users\CYMR90~1\AppData\Local\Temp\ccEL7hUr.s:21750  .debug_str:000000000000a9a7 .LASF5323
C:\Users\CYMR90~1\AppData\Local\Temp\ccEL7hUr.s:23254  .debug_str:0000000000010ba7 .LASF5324
C:\Users\CYMR90~1\AppData\Local\Temp\ccEL7hUr.s:29745  .debug_str:000000000002aba4 .LASF5325
C:\Users\CYMR90~1\AppData\Local\Temp\ccEL7hUr.s:21286  .debug_str:0000000000008c74 .LASF5326
C:\Users\CYMR90~1\AppData\Local\Temp\ccEL7hUr.s:21858  .debug_str:000000000000b159 .LASF5327
C:\Users\CYMR90~1\AppData\Local\Temp\ccEL7hUr.s:28481  .debug_str:0000000000025c0f .LASF5328
C:\Users\CYMR90~1\AppData\Local\Temp\ccEL7hUr.s:19372  .debug_str:0000000000001123 .LASF5329
C:\Users\CYMR90~1\AppData\Local\Temp\ccEL7hUr.s:24638  .debug_str:000000000001646a .LASF5330
C:\Users\CYMR90~1\AppData\Local\Temp\ccEL7hUr.s:26697  .debug_str:000000000001eb9f .LASF5331
C:\Users\CYMR90~1\AppData\Local\Temp\ccEL7hUr.s:28969  .debug_str:0000000000027abc .LASF5332
C:\Users\CYMR90~1\AppData\Local\Temp\ccEL7hUr.s:22720  .debug_str:000000000000ea30 .LASF5333
C:\Users\CYMR90~1\AppData\Local\Temp\ccEL7hUr.s:28999  .debug_str:0000000000027cdf .LASF5334
C:\Users\CYMR90~1\AppData\Local\Temp\ccEL7hUr.s:26639  .debug_str:000000000001e85a .LASF5335
C:\Users\CYMR90~1\AppData\Local\Temp\ccEL7hUr.s:23458  .debug_str:0000000000011844 .LASF5336
C:\Users\CYMR90~1\AppData\Local\Temp\ccEL7hUr.s:26945  .debug_str:000000000001fa7f .LASF5337
C:\Users\CYMR90~1\AppData\Local\Temp\ccEL7hUr.s:20350  .debug_str:0000000000004ff8 .LASF5338
C:\Users\CYMR90~1\AppData\Local\Temp\ccEL7hUr.s:23984  .debug_str:0000000000013b89 .LASF5339
C:\Users\CYMR90~1\AppData\Local\Temp\ccEL7hUr.s:26987  .debug_str:000000000001fd06 .LASF5340
C:\Users\CYMR90~1\AppData\Local\Temp\ccEL7hUr.s:22580  .debug_str:000000000000e176 .LASF5341
C:\Users\CYMR90~1\AppData\Local\Temp\ccEL7hUr.s:26207  .debug_str:000000000001cc3b .LASF5342
C:\Users\CYMR90~1\AppData\Local\Temp\ccEL7hUr.s:22698  .debug_str:000000000000e8be .LASF5343
C:\Users\CYMR90~1\AppData\Local\Temp\ccEL7hUr.s:29383  .debug_str:000000000002962e .LASF5344
C:\Users\CYMR90~1\AppData\Local\Temp\ccEL7hUr.s:30145  .debug_str:000000000002c62f .LASF5345
C:\Users\CYMR90~1\AppData\Local\Temp\ccEL7hUr.s:22730  .debug_str:000000000000eaa4 .LASF5346
C:\Users\CYMR90~1\AppData\Local\Temp\ccEL7hUr.s:19450  .debug_str:000000000000156e .LASF5347
C:\Users\CYMR90~1\AppData\Local\Temp\ccEL7hUr.s:25819  .debug_str:000000000001b3e6 .LASF5348
C:\Users\CYMR90~1\AppData\Local\Temp\ccEL7hUr.s:28799  .debug_str:0000000000026f73 .LASF5349
C:\Users\CYMR90~1\AppData\Local\Temp\ccEL7hUr.s:25707  .debug_str:000000000001ac49 .LASF5350
C:\Users\CYMR90~1\AppData\Local\Temp\ccEL7hUr.s:26691  .debug_str:000000000001eb58 .LASF5351
C:\Users\CYMR90~1\AppData\Local\Temp\ccEL7hUr.s:19302  .debug_str:0000000000000c90 .LASF5352
C:\Users\CYMR90~1\AppData\Local\Temp\ccEL7hUr.s:27289  .debug_str:0000000000020fcf .LASF5353
C:\Users\CYMR90~1\AppData\Local\Temp\ccEL7hUr.s:22218  .debug_str:000000000000ca2f .LASF5354
C:\Users\CYMR90~1\AppData\Local\Temp\ccEL7hUr.s:24504  .debug_str:0000000000015ba4 .LASF5355
C:\Users\CYMR90~1\AppData\Local\Temp\ccEL7hUr.s:22982  .debug_str:000000000000fa68 .LASF5356
C:\Users\CYMR90~1\AppData\Local\Temp\ccEL7hUr.s:25119  .debug_str:000000000001846e .LASF5357
C:\Users\CYMR90~1\AppData\Local\Temp\ccEL7hUr.s:29645  .debug_str:000000000002a5e0 .LASF5358
C:\Users\CYMR90~1\AppData\Local\Temp\ccEL7hUr.s:23916  .debug_str:0000000000013784 .LASF5359
C:\Users\CYMR90~1\AppData\Local\Temp\ccEL7hUr.s:26875  .debug_str:000000000001f661 .LASF5360
C:\Users\CYMR90~1\AppData\Local\Temp\ccEL7hUr.s:20978  .debug_str:0000000000007781 .LASF5361
C:\Users\CYMR90~1\AppData\Local\Temp\ccEL7hUr.s:28341  .debug_str:0000000000025262 .LASF5362
C:\Users\CYMR90~1\AppData\Local\Temp\ccEL7hUr.s:20854  .debug_str:0000000000006f0f .LASF5363
C:\Users\CYMR90~1\AppData\Local\Temp\ccEL7hUr.s:28877  .debug_str:00000000000274cc .LASF5364
C:\Users\CYMR90~1\AppData\Local\Temp\ccEL7hUr.s:29361  .debug_str:000000000002949a .LASF5365
C:\Users\CYMR90~1\AppData\Local\Temp\ccEL7hUr.s:27617  .debug_str:00000000000223fd .LASF5366
C:\Users\CYMR90~1\AppData\Local\Temp\ccEL7hUr.s:24416  .debug_str:0000000000015668 .LASF5367
C:\Users\CYMR90~1\AppData\Local\Temp\ccEL7hUr.s:21292  .debug_str:0000000000008cbb .LASF5368
C:\Users\CYMR90~1\AppData\Local\Temp\ccEL7hUr.s:19914  .debug_str:00000000000032fb .LASF5369
C:\Users\CYMR90~1\AppData\Local\Temp\ccEL7hUr.s:30055  .debug_str:000000000002c05b .LASF5370
C:\Users\CYMR90~1\AppData\Local\Temp\ccEL7hUr.s:21474  .debug_str:0000000000009819 .LASF5371
C:\Users\CYMR90~1\AppData\Local\Temp\ccEL7hUr.s:21296  .debug_str:0000000000008ce2 .LASF5372
C:\Users\CYMR90~1\AppData\Local\Temp\ccEL7hUr.s:29553  .debug_str:000000000002a029 .LASF5373
C:\Users\CYMR90~1\AppData\Local\Temp\ccEL7hUr.s:22820  .debug_str:000000000000efff .LASF5374
C:\Users\CYMR90~1\AppData\Local\Temp\ccEL7hUr.s:29251  .debug_str:0000000000028dfa .LASF5375
C:\Users\CYMR90~1\AppData\Local\Temp\ccEL7hUr.s:21412  .debug_str:000000000000941e .LASF5376
C:\Users\CYMR90~1\AppData\Local\Temp\ccEL7hUr.s:29947  .debug_str:000000000002b8f1 .LASF5377
C:\Users\CYMR90~1\AppData\Local\Temp\ccEL7hUr.s:28545  .debug_str:0000000000026005 .LASF5378
C:\Users\CYMR90~1\AppData\Local\Temp\ccEL7hUr.s:22964  .debug_str:000000000000f967 .LASF5379
C:\Users\CYMR90~1\AppData\Local\Temp\ccEL7hUr.s:20200  .debug_str:00000000000045d9 .LASF5380
C:\Users\CYMR90~1\AppData\Local\Temp\ccEL7hUr.s:25667  .debug_str:000000000001a9d9 .LASF5381
C:\Users\CYMR90~1\AppData\Local\Temp\ccEL7hUr.s:28301  .debug_str:0000000000024edc .LASF5382
C:\Users\CYMR90~1\AppData\Local\Temp\ccEL7hUr.s:22902  .debug_str:000000000000f520 .LASF5383
C:\Users\CYMR90~1\AppData\Local\Temp\ccEL7hUr.s:19208  .debug_str:0000000000000689 .LASF5384
C:\Users\CYMR90~1\AppData\Local\Temp\ccEL7hUr.s:19158  .debug_str:00000000000003c2 .LASF5385
C:\Users\CYMR90~1\AppData\Local\Temp\ccEL7hUr.s:19502  .debug_str:0000000000001945 .LASF5386
C:\Users\CYMR90~1\AppData\Local\Temp\ccEL7hUr.s:27951  .debug_str:0000000000023806 .LASF5387
C:\Users\CYMR90~1\AppData\Local\Temp\ccEL7hUr.s:28597  .debug_str:00000000000262ff .LASF5388
C:\Users\CYMR90~1\AppData\Local\Temp\ccEL7hUr.s:23796  .debug_str:0000000000012f0e .LASF5389
C:\Users\CYMR90~1\AppData\Local\Temp\ccEL7hUr.s:25701  .debug_str:000000000001ac0a .LASF5390
C:\Users\CYMR90~1\AppData\Local\Temp\ccEL7hUr.s:27015  .debug_str:000000000001ff26 .LASF5391
C:\Users\CYMR90~1\AppData\Local\Temp\ccEL7hUr.s:24512  .debug_str:0000000000015c72 .LASF5392
C:\Users\CYMR90~1\AppData\Local\Temp\ccEL7hUr.s:27073  .debug_str:0000000000020257 .LASF5393
C:\Users\CYMR90~1\AppData\Local\Temp\ccEL7hUr.s:26393  .debug_str:000000000001d928 .LASF5394
C:\Users\CYMR90~1\AppData\Local\Temp\ccEL7hUr.s:21202  .debug_str:0000000000008717 .LASF5395
C:\Users\CYMR90~1\AppData\Local\Temp\ccEL7hUr.s:27755  .debug_str:0000000000022c42 .LASF5396
C:\Users\CYMR90~1\AppData\Local\Temp\ccEL7hUr.s:27053  .debug_str:0000000000020147 .LASF5397
C:\Users\CYMR90~1\AppData\Local\Temp\ccEL7hUr.s:20254  .debug_str:0000000000004a16 .LASF5398
C:\Users\CYMR90~1\AppData\Local\Temp\ccEL7hUr.s:20672  .debug_str:000000000000638b .LASF5399
C:\Users\CYMR90~1\AppData\Local\Temp\ccEL7hUr.s:27711  .debug_str:000000000002296a .LASF5400
C:\Users\CYMR90~1\AppData\Local\Temp\ccEL7hUr.s:29433  .debug_str:000000000002991b .LASF5401
C:\Users\CYMR90~1\AppData\Local\Temp\ccEL7hUr.s:25293  .debug_str:0000000000018fea .LASF5402
C:\Users\CYMR90~1\AppData\Local\Temp\ccEL7hUr.s:22118  .debug_str:000000000000c371 .LASF5403
C:\Users\CYMR90~1\AppData\Local\Temp\ccEL7hUr.s:26773  .debug_str:000000000001f044 .LASF5404
C:\Users\CYMR90~1\AppData\Local\Temp\ccEL7hUr.s:23668  .debug_str:00000000000126b4 .LASF5405
C:\Users\CYMR90~1\AppData\Local\Temp\ccEL7hUr.s:27163  .debug_str:0000000000020875 .LASF5406
C:\Users\CYMR90~1\AppData\Local\Temp\ccEL7hUr.s:23988  .debug_str:0000000000013bdc .LASF5407
C:\Users\CYMR90~1\AppData\Local\Temp\ccEL7hUr.s:29385  .debug_str:0000000000029660 .LASF5408
C:\Users\CYMR90~1\AppData\Local\Temp\ccEL7hUr.s:23142  .debug_str:0000000000010456 .LASF5409
C:\Users\CYMR90~1\AppData\Local\Temp\ccEL7hUr.s:22372  .debug_str:000000000000d47f .LASF5410
C:\Users\CYMR90~1\AppData\Local\Temp\ccEL7hUr.s:26783  .debug_str:000000000001f0fd .LASF5411
C:\Users\CYMR90~1\AppData\Local\Temp\ccEL7hUr.s:29971  .debug_str:000000000002ba7e .LASF5412
C:\Users\CYMR90~1\AppData\Local\Temp\ccEL7hUr.s:27735  .debug_str:0000000000022b44 .LASF5413
C:\Users\CYMR90~1\AppData\Local\Temp\ccEL7hUr.s:27881  .debug_str:000000000002334d .LASF5414
C:\Users\CYMR90~1\AppData\Local\Temp\ccEL7hUr.s:21902  .debug_str:000000000000b3b0 .LASF5415
C:\Users\CYMR90~1\AppData\Local\Temp\ccEL7hUr.s:28003  .debug_str:0000000000023adb .LASF5416
C:\Users\CYMR90~1\AppData\Local\Temp\ccEL7hUr.s:27621  .debug_str:000000000002242e .LASF5417
C:\Users\CYMR90~1\AppData\Local\Temp\ccEL7hUr.s:25541  .debug_str:000000000001a050 .LASF5418
C:\Users\CYMR90~1\AppData\Local\Temp\ccEL7hUr.s:25079  .debug_str:0000000000018210 .LASF5419
C:\Users\CYMR90~1\AppData\Local\Temp\ccEL7hUr.s:27493  .debug_str:0000000000021c9e .LASF5420
C:\Users\CYMR90~1\AppData\Local\Temp\ccEL7hUr.s:29943  .debug_str:000000000002b897 .LASF5421
C:\Users\CYMR90~1\AppData\Local\Temp\ccEL7hUr.s:21048  .debug_str:0000000000007c13 .LASF5422
C:\Users\CYMR90~1\AppData\Local\Temp\ccEL7hUr.s:20504  .debug_str:0000000000005956 .LASF5423
C:\Users\CYMR90~1\AppData\Local\Temp\ccEL7hUr.s:20806  .debug_str:0000000000006be4 .LASF5424
C:\Users\CYMR90~1\AppData\Local\Temp\ccEL7hUr.s:22260  .debug_str:000000000000cd53 .LASF5425
C:\Users\CYMR90~1\AppData\Local\Temp\ccEL7hUr.s:23602  .debug_str:000000000001228d .LASF5426
C:\Users\CYMR90~1\AppData\Local\Temp\ccEL7hUr.s:21998  .debug_str:000000000000ba92 .LASF5427
C:\Users\CYMR90~1\AppData\Local\Temp\ccEL7hUr.s:20566  .debug_str:0000000000005d39 .LASF5428
C:\Users\CYMR90~1\AppData\Local\Temp\ccEL7hUr.s:28581  .debug_str:0000000000026225 .LASF5429
C:\Users\CYMR90~1\AppData\Local\Temp\ccEL7hUr.s:23040  .debug_str:000000000000fdd6 .LASF5430
C:\Users\CYMR90~1\AppData\Local\Temp\ccEL7hUr.s:26941  .debug_str:000000000001fa57 .LASF5431
C:\Users\CYMR90~1\AppData\Local\Temp\ccEL7hUr.s:23906  .debug_str:00000000000136e9 .LASF5432
C:\Users\CYMR90~1\AppData\Local\Temp\ccEL7hUr.s:30123  .debug_str:000000000002c505 .LASF5433
C:\Users\CYMR90~1\AppData\Local\Temp\ccEL7hUr.s:26435  .debug_str:000000000001db6f .LASF5434
C:\Users\CYMR90~1\AppData\Local\Temp\ccEL7hUr.s:26233  .debug_str:000000000001ce9c .LASF5435
C:\Users\CYMR90~1\AppData\Local\Temp\ccEL7hUr.s:27339  .debug_str:000000000002128b .LASF5436
C:\Users\CYMR90~1\AppData\Local\Temp\ccEL7hUr.s:22336  .debug_str:000000000000d1e9 .LASF5437
C:\Users\CYMR90~1\AppData\Local\Temp\ccEL7hUr.s:26383  .debug_str:000000000001d861 .LASF5438
C:\Users\CYMR90~1\AppData\Local\Temp\ccEL7hUr.s:24963  .debug_str:0000000000017b2e .LASF5439
C:\Users\CYMR90~1\AppData\Local\Temp\ccEL7hUr.s:24142  .debug_str:000000000001453e .LASF5440
C:\Users\CYMR90~1\AppData\Local\Temp\ccEL7hUr.s:19856  .debug_str:0000000000002ef0 .LASF5441
C:\Users\CYMR90~1\AppData\Local\Temp\ccEL7hUr.s:24338  .debug_str:0000000000015203 .LASF5442
C:\Users\CYMR90~1\AppData\Local\Temp\ccEL7hUr.s:22398  .debug_str:000000000000d691 .LASF5443
C:\Users\CYMR90~1\AppData\Local\Temp\ccEL7hUr.s:24016  .debug_str:0000000000013d9c .LASF5444
C:\Users\CYMR90~1\AppData\Local\Temp\ccEL7hUr.s:19784  .debug_str:0000000000002a43 .LASF5445
C:\Users\CYMR90~1\AppData\Local\Temp\ccEL7hUr.s:21590  .debug_str:0000000000009fb5 .LASF5446
C:\Users\CYMR90~1\AppData\Local\Temp\ccEL7hUr.s:28321  .debug_str:0000000000025082 .LASF5447
C:\Users\CYMR90~1\AppData\Local\Temp\ccEL7hUr.s:26297  .debug_str:000000000001d2fa .LASF5448
C:\Users\CYMR90~1\AppData\Local\Temp\ccEL7hUr.s:30203  .debug_str:000000000002ca4e .LASF5449
C:\Users\CYMR90~1\AppData\Local\Temp\ccEL7hUr.s:24516  .debug_str:0000000000015c98 .LASF5450
C:\Users\CYMR90~1\AppData\Local\Temp\ccEL7hUr.s:21622  .debug_str:000000000000a1a0 .LASF5451
C:\Users\CYMR90~1\AppData\Local\Temp\ccEL7hUr.s:22434  .debug_str:000000000000d8b8 .LASF5452
C:\Users\CYMR90~1\AppData\Local\Temp\ccEL7hUr.s:27063  .debug_str:00000000000201bd .LASF5453
C:\Users\CYMR90~1\AppData\Local\Temp\ccEL7hUr.s:28417  .debug_str:0000000000025808 .LASF5454
C:\Users\CYMR90~1\AppData\Local\Temp\ccEL7hUr.s:22236  .debug_str:000000000000cb50 .LASF5455
C:\Users\CYMR90~1\AppData\Local\Temp\ccEL7hUr.s:21652  .debug_str:000000000000a385 .LASF5456
C:\Users\CYMR90~1\AppData\Local\Temp\ccEL7hUr.s:25755  .debug_str:000000000001af69 .LASF5457
C:\Users\CYMR90~1\AppData\Local\Temp\ccEL7hUr.s:28935  .debug_str:000000000002783e .LASF5458
C:\Users\CYMR90~1\AppData\Local\Temp\ccEL7hUr.s:25237  .debug_str:0000000000018bcf .LASF5459
C:\Users\CYMR90~1\AppData\Local\Temp\ccEL7hUr.s:22204  .debug_str:000000000000c8dc .LASF5460
C:\Users\CYMR90~1\AppData\Local\Temp\ccEL7hUr.s:22338  .debug_str:000000000000d201 .LASF5461
C:\Users\CYMR90~1\AppData\Local\Temp\ccEL7hUr.s:23408  .debug_str:0000000000011507 .LASF5462
C:\Users\CYMR90~1\AppData\Local\Temp\ccEL7hUr.s:26429  .debug_str:000000000001db0e .LASF5463
C:\Users\CYMR90~1\AppData\Local\Temp\ccEL7hUr.s:21382  .debug_str:000000000000926b .LASF5464
C:\Users\CYMR90~1\AppData\Local\Temp\ccEL7hUr.s:21446  .debug_str:000000000000967a .LASF5465
C:\Users\CYMR90~1\AppData\Local\Temp\ccEL7hUr.s:26321  .debug_str:000000000001d467 .LASF5466
C:\Users\CYMR90~1\AppData\Local\Temp\ccEL7hUr.s:24899  .debug_str:00000000000176db .LASF5467
C:\Users\CYMR90~1\AppData\Local\Temp\ccEL7hUr.s:27091  .debug_str:0000000000020347 .LASF5468
C:\Users\CYMR90~1\AppData\Local\Temp\ccEL7hUr.s:19108  .debug_str:00000000000000a6 .LASF5469
C:\Users\CYMR90~1\AppData\Local\Temp\ccEL7hUr.s:27027  .debug_str:000000000001ffcb .LASF5470
C:\Users\CYMR90~1\AppData\Local\Temp\ccEL7hUr.s:30249  .debug_str:000000000002cd88 .LASF5471
C:\Users\CYMR90~1\AppData\Local\Temp\ccEL7hUr.s:26459  .debug_str:000000000001dd5a .LASF5472
C:\Users\CYMR90~1\AppData\Local\Temp\ccEL7hUr.s:20554  .debug_str:0000000000005c6a .LASF5473
C:\Users\CYMR90~1\AppData\Local\Temp\ccEL7hUr.s:19722  .debug_str:000000000000261f .LASF5474
C:\Users\CYMR90~1\AppData\Local\Temp\ccEL7hUr.s:27261  .debug_str:0000000000020e4b .LASF5475
C:\Users\CYMR90~1\AppData\Local\Temp\ccEL7hUr.s:29115  .debug_str:0000000000028544 .LASF5476
C:\Users\CYMR90~1\AppData\Local\Temp\ccEL7hUr.s:19200  .debug_str:00000000000005f5 .LASF5477
C:\Users\CYMR90~1\AppData\Local\Temp\ccEL7hUr.s:23628  .debug_str:00000000000123ff .LASF5478
C:\Users\CYMR90~1\AppData\Local\Temp\ccEL7hUr.s:24042  .debug_str:0000000000013f13 .LASF5479
C:\Users\CYMR90~1\AppData\Local\Temp\ccEL7hUr.s:23600  .debug_str:0000000000012274 .LASF5480
C:\Users\CYMR90~1\AppData\Local\Temp\ccEL7hUr.s:20678  .debug_str:00000000000063ed .LASF5481
C:\Users\CYMR90~1\AppData\Local\Temp\ccEL7hUr.s:26761  .debug_str:000000000001ef70 .LASF5482
C:\Users\CYMR90~1\AppData\Local\Temp\ccEL7hUr.s:24913  .debug_str:00000000000177e0 .LASF5483
C:\Users\CYMR90~1\AppData\Local\Temp\ccEL7hUr.s:19454  .debug_str:00000000000015b4 .LASF5484
C:\Users\CYMR90~1\AppData\Local\Temp\ccEL7hUr.s:26979  .debug_str:000000000001fca5 .LASF5485
C:\Users\CYMR90~1\AppData\Local\Temp\ccEL7hUr.s:19798  .debug_str:0000000000002b3a .LASF5486
C:\Users\CYMR90~1\AppData\Local\Temp\ccEL7hUr.s:27901  .debug_str:0000000000023476 .LASF5487
C:\Users\CYMR90~1\AppData\Local\Temp\ccEL7hUr.s:19412  .debug_str:000000000000133b .LASF5488
C:\Users\CYMR90~1\AppData\Local\Temp\ccEL7hUr.s:28741  .debug_str:0000000000026bd5 .LASF5489
C:\Users\CYMR90~1\AppData\Local\Temp\ccEL7hUr.s:27681  .debug_str:000000000002279e .LASF5490
C:\Users\CYMR90~1\AppData\Local\Temp\ccEL7hUr.s:20024  .debug_str:0000000000003a38 .LASF5491
C:\Users\CYMR90~1\AppData\Local\Temp\ccEL7hUr.s:21866  .debug_str:000000000000b1c5 .LASF5492
C:\Users\CYMR90~1\AppData\Local\Temp\ccEL7hUr.s:28049  .debug_str:0000000000023d80 .LASF5493
C:\Users\CYMR90~1\AppData\Local\Temp\ccEL7hUr.s:20582  .debug_str:0000000000005e22 .LASF5494
C:\Users\CYMR90~1\AppData\Local\Temp\ccEL7hUr.s:28887  .debug_str:000000000002755d .LASF5495
C:\Users\CYMR90~1\AppData\Local\Temp\ccEL7hUr.s:21144  .debug_str:0000000000008370 .LASF5496
C:\Users\CYMR90~1\AppData\Local\Temp\ccEL7hUr.s:29845  .debug_str:000000000002b1ff .LASF5497
C:\Users\CYMR90~1\AppData\Local\Temp\ccEL7hUr.s:27057  .debug_str:0000000000020172 .LASF5498
C:\Users\CYMR90~1\AppData\Local\Temp\ccEL7hUr.s:25385  .debug_str:0000000000019611 .LASF5499
C:\Users\CYMR90~1\AppData\Local\Temp\ccEL7hUr.s:19338  .debug_str:0000000000000f2f .LASF5500
C:\Users\CYMR90~1\AppData\Local\Temp\ccEL7hUr.s:26889  .debug_str:000000000001f736 .LASF5501
C:\Users\CYMR90~1\AppData\Local\Temp\ccEL7hUr.s:20530  .debug_str:0000000000005ae9 .LASF5502
C:\Users\CYMR90~1\AppData\Local\Temp\ccEL7hUr.s:29813  .debug_str:000000000002afa7 .LASF5503
C:\Users\CYMR90~1\AppData\Local\Temp\ccEL7hUr.s:24636  .debug_str:000000000001644d .LASF5504
C:\Users\CYMR90~1\AppData\Local\Temp\ccEL7hUr.s:24436  .debug_str:0000000000015796 .LASF5505
C:\Users\CYMR90~1\AppData\Local\Temp\ccEL7hUr.s:25455  .debug_str:0000000000019b2c .LASF5506
C:\Users\CYMR90~1\AppData\Local\Temp\ccEL7hUr.s:21928  .debug_str:000000000000b5de .LASF5507
C:\Users\CYMR90~1\AppData\Local\Temp\ccEL7hUr.s:28207  .debug_str:00000000000248f1 .LASF5508
C:\Users\CYMR90~1\AppData\Local\Temp\ccEL7hUr.s:29791  .debug_str:000000000002ae67 .LASF5509
C:\Users\CYMR90~1\AppData\Local\Temp\ccEL7hUr.s:20076  .debug_str:0000000000003d5a .LASF5510
C:\Users\CYMR90~1\AppData\Local\Temp\ccEL7hUr.s:26685  .debug_str:000000000001eb0c .LASF5511
C:\Users\CYMR90~1\AppData\Local\Temp\ccEL7hUr.s:25959  .debug_str:000000000001bc39 .LASF5512
C:\Users\CYMR90~1\AppData\Local\Temp\ccEL7hUr.s:23822  .debug_str:00000000000130b3 .LASF5513
C:\Users\CYMR90~1\AppData\Local\Temp\ccEL7hUr.s:29545  .debug_str:0000000000029fbc .LASF5514
C:\Users\CYMR90~1\AppData\Local\Temp\ccEL7hUr.s:27467  .debug_str:0000000000021aec .LASF5515
C:\Users\CYMR90~1\AppData\Local\Temp\ccEL7hUr.s:21468  .debug_str:00000000000097ae .LASF5516
C:\Users\CYMR90~1\AppData\Local\Temp\ccEL7hUr.s:30187  .debug_str:000000000002c931 .LASF5517
C:\Users\CYMR90~1\AppData\Local\Temp\ccEL7hUr.s:29259  .debug_str:0000000000028e5b .LASF5518
C:\Users\CYMR90~1\AppData\Local\Temp\ccEL7hUr.s:19902  .debug_str:0000000000003221 .LASF5519
C:\Users\CYMR90~1\AppData\Local\Temp\ccEL7hUr.s:27419  .debug_str:000000000002181e .LASF5520
C:\Users\CYMR90~1\AppData\Local\Temp\ccEL7hUr.s:30155  .debug_str:000000000002c6de .LASF5521
C:\Users\CYMR90~1\AppData\Local\Temp\ccEL7hUr.s:26663  .debug_str:000000000001e9bd .LASF5522
C:\Users\CYMR90~1\AppData\Local\Temp\ccEL7hUr.s:29505  .debug_str:0000000000029d53 .LASF5523
C:\Users\CYMR90~1\AppData\Local\Temp\ccEL7hUr.s:24510  .debug_str:0000000000015c52 .LASF5524
C:\Users\CYMR90~1\AppData\Local\Temp\ccEL7hUr.s:26595  .debug_str:000000000001e57b .LASF5525
C:\Users\CYMR90~1\AppData\Local\Temp\ccEL7hUr.s:22934  .debug_str:000000000000f6eb .LASF5526
C:\Users\CYMR90~1\AppData\Local\Temp\ccEL7hUr.s:22922  .debug_str:000000000000f63e .LASF5527
C:\Users\CYMR90~1\AppData\Local\Temp\ccEL7hUr.s:26959  .debug_str:000000000001fb75 .LASF5528
C:\Users\CYMR90~1\AppData\Local\Temp\ccEL7hUr.s:28635  .debug_str:000000000002657f .LASF5529
C:\Users\CYMR90~1\AppData\Local\Temp\ccEL7hUr.s:19486  .debug_str:0000000000001852 .LASF5530
C:\Users\CYMR90~1\AppData\Local\Temp\ccEL7hUr.s:25635  .debug_str:000000000001a759 .LASF5531
C:\Users\CYMR90~1\AppData\Local\Temp\ccEL7hUr.s:23648  .debug_str:0000000000012551 .LASF5532
C:\Users\CYMR90~1\AppData\Local\Temp\ccEL7hUr.s:24720  .debug_str:00000000000169eb .LASF5533
C:\Users\CYMR90~1\AppData\Local\Temp\ccEL7hUr.s:19600  .debug_str:0000000000001f22 .LASF5534
C:\Users\CYMR90~1\AppData\Local\Temp\ccEL7hUr.s:24506  .debug_str:0000000000015bbc .LASF5535
C:\Users\CYMR90~1\AppData\Local\Temp\ccEL7hUr.s:22676  .debug_str:000000000000e724 .LASF5536
C:\Users\CYMR90~1\AppData\Local\Temp\ccEL7hUr.s:23410  .debug_str:0000000000011529 .LASF5537
C:\Users\CYMR90~1\AppData\Local\Temp\ccEL7hUr.s:21800  .debug_str:000000000000acd1 .LASF5538
C:\Users\CYMR90~1\AppData\Local\Temp\ccEL7hUr.s:20122  .debug_str:0000000000004077 .LASF5539
C:\Users\CYMR90~1\AppData\Local\Temp\ccEL7hUr.s:29901  .debug_str:000000000002b5b6 .LASF5540
C:\Users\CYMR90~1\AppData\Local\Temp\ccEL7hUr.s:21630  .debug_str:000000000000a22c .LASF5541
C:\Users\CYMR90~1\AppData\Local\Temp\ccEL7hUr.s:27205  .debug_str:0000000000020ad2 .LASF5542
C:\Users\CYMR90~1\AppData\Local\Temp\ccEL7hUr.s:27895  .debug_str:0000000000023420 .LASF5543
C:\Users\CYMR90~1\AppData\Local\Temp\ccEL7hUr.s:29937  .debug_str:000000000002b846 .LASF5544
C:\Users\CYMR90~1\AppData\Local\Temp\ccEL7hUr.s:19394  .debug_str:0000000000001247 .LASF5545
C:\Users\CYMR90~1\AppData\Local\Temp\ccEL7hUr.s:24791  .debug_str:000000000001708a .LASF5546
C:\Users\CYMR90~1\AppData\Local\Temp\ccEL7hUr.s:27533  .debug_str:0000000000021f29 .LASF5547
C:\Users\CYMR90~1\AppData\Local\Temp\ccEL7hUr.s:26461  .debug_str:000000000001dd7c .LASF5548
C:\Users\CYMR90~1\AppData\Local\Temp\ccEL7hUr.s:23102  .debug_str:00000000000101be .LASF5549
C:\Users\CYMR90~1\AppData\Local\Temp\ccEL7hUr.s:19570  .debug_str:0000000000001d52 .LASF5550
C:\Users\CYMR90~1\AppData\Local\Temp\ccEL7hUr.s:25735  .debug_str:000000000001adf7 .LASF5551
C:\Users\CYMR90~1\AppData\Local\Temp\ccEL7hUr.s:22554  .debug_str:000000000000dff7 .LASF5552
C:\Users\CYMR90~1\AppData\Local\Temp\ccEL7hUr.s:24086  .debug_str:00000000000141dc .LASF5553
C:\Users\CYMR90~1\AppData\Local\Temp\ccEL7hUr.s:29125  .debug_str:00000000000285fc .LASF5554
C:\Users\CYMR90~1\AppData\Local\Temp\ccEL7hUr.s:30053  .debug_str:000000000002c022 .LASF5555
                           .group:0000000000000000 wm4.0.10abbef32179bc1260444192115bdf5e
                           .group:0000000000000000 wm4.stddef.h.39.144cf5ddcd53cbfdac30259dc1a6c87f
                           .group:0000000000000000 wm4._newlib_version.h.4.bfdf54b0af045d4a71376ae00f63a22c
                           .group:0000000000000000 wm4.newlib.h.18.08a2ecba46890ca2aa56bbe21686e6c3
                           .group:0000000000000000 wm4.ieeefp.h.202.4f2759f5758fd82153cfbf98692f2ced
                           .group:0000000000000000 wm4.features.h.22.fad1cec3bc7ff06488171438dbdcfd02
                           .group:0000000000000000 wm4.config.h.83.13bbc8852bfac55b724c9822481355b5
                           .group:0000000000000000 wm4._ansi.h.31.de524f58584151836e90d8620a16f8e8
                           .group:0000000000000000 wm4.stdio.h.31.7c0e28c411445f3f9c5b11accf882760
                           .group:0000000000000000 wm4._default_types.h.6.959254cf5f09734ea7516c89e8bb21bd
                           .group:0000000000000000 wm4.stddef.h.155.ba788add86a0e365f264484f110c3c29
                           .group:0000000000000000 wm4.cdefs.h.49.39045112216f6a021dbdffe3bf5accce
                           .group:0000000000000000 wm4.stdarg.h.34.3a23a216c0c293b3d2ea2e89281481e6
                           .group:0000000000000000 wm4._types.h.20.dd0d04dca3800a0d2a6129b87f3adbb2
                           .group:0000000000000000 wm4.stddef.h.155.3588ebfdd1e8c7ede80509bb9c3b8009
                           .group:0000000000000000 wm4._types.h.127.34941de1b2539d59d5cac00e0dd27a45
                           .group:0000000000000000 wm4.reent.h.17.e292bf8b0bec6c96e131a54347145a30
                           .group:0000000000000000 wm4.lock.h.2.c0958401bd0ce484d507ee19aacab817
                           .group:0000000000000000 wm4.reent.h.77.dcd6129ff07fe81bd5636db29abe53b2
                           .group:0000000000000000 wm4.types.h.40.8b6acba56cefbb11746718204edc8f5e
                           .group:0000000000000000 wm4._stdint.h.10.c24fa3af3bc1706662bb5593a907e841
                           .group:0000000000000000 wm4._endian.h.18.1bf9649e8e5bbc91042012680270b9ed
                           .group:0000000000000000 wm4.endian.h.9.49f3a4695c1b61e8a0808de3c4a106cb
                           .group:0000000000000000 wm4._timeval.h.32.bec3221fa7a9bb0bdde696c9c57e47d2
                           .group:0000000000000000 wm4.timespec.h.41.d855182eb0e690443ab8651bcedca6e1
                           .group:0000000000000000 wm4.select.h.19.40cd3f2bfc456b193b790c2754690ebf
                           .group:0000000000000000 wm4.types.h.51.5571ec98f267d17d3c670b7a3ba33afa
                           .group:0000000000000000 wm4.sched.h.22.c60982713a5c428609783c78f9c78d95
                           .group:0000000000000000 wm4._pthreadtypes.h.36.fcee9961c35163dde6267ef772ad1972
                           .group:0000000000000000 wm4.stdio.h.2.4aa87247282eca6c8f36f9de33d8df1a
                           .group:0000000000000000 wm4.stdio.h.81.932d0c162786b883f622b8d05c120c78
                           .group:0000000000000000 wm4.gd32vw55x.h.47.379378190858578060a317909b2c8d8a
                           .group:0000000000000000 wm4._intsup.h.10.48bafbb683905c4daa4565a85aeeb264
                           .group:0000000000000000 wm4.stdint.h.23.d53047a68f4a85177f80b422d52785ed
                           .group:0000000000000000 wm4.nmsis_version.h.19.ffa173da8efb17b1050904994d6f500e
                           .group:0000000000000000 wm4.riscv_bits.h.19.ee94eb3d39937793d4cd0a62363e5d00
                           .group:0000000000000000 wm4.riscv_encoding.h.35.f5d37fad7abbab8278b4bb6f1e32fa65
                           .group:0000000000000000 wm4.nmsis_gcc.h.61.5d70d7598ffc79c3c991d847a574cf23
                           .group:0000000000000000 wm4.core_feature_base.h.20.e99d3e75c26a8f3341d35bf20d0e1d20
                           .group:0000000000000000 wm4.core_feature_fpu.h.19.695f2200274659b530cb97cda749ff4f
                           .group:0000000000000000 wm4.core_feature_dsp.h.19.e8f8d7aa42f197807aefedb6584486cd
                           .group:0000000000000000 wm4.core_compatiable.h.19.5b8282d61b1f6889a82895616b730084
                           .group:0000000000000000 wm4.core_feature_eclic.h.19.e0c091d0cbda79e8b3b031b979ebd5a1
                           .group:0000000000000000 wm4.core_feature_timer.h.19.21a5151282de34c37dfa6d84e262aa54
                           .group:0000000000000000 wm4.system_gd32vw55x.h.32.f1fcb1212d387c35ac955b0e96ada468
                           .group:0000000000000000 wm4.gd32vw55x.h.231.3529c650aff38c9372f7e03177fd2c8a
                           .group:0000000000000000 wm4.gd32vw55x_adc.h.42.ae73acec1704ef509ccecb41a875b50e
                           .group:0000000000000000 wm4.gd32vw55x_cau.h.36.c98428fe1eae7edb4721da5c8078c974
                           .group:0000000000000000 wm4.gd32vw55x_crc.h.37.c58f296814c2300a4b067c08bd88d54e
                           .group:0000000000000000 wm4.gd32vw55x_dbg.h.36.311650c8545549d482ceca8befc5a232
                           .group:0000000000000000 wm4.gd32vw55x_dma.h.36.f4adc751172b2a7b1533dda72e948737
                           .group:0000000000000000 wm4.gd32vw55x_eclic.h.36.0411499f2b2493c67246e32ccae096c1
                           .group:0000000000000000 wm4.gd32vw55x_efuse.h.36.091404cecbab70359dfd93faec5fdb62
                           .group:0000000000000000 wm4.gd32vw55x_exti.h.36.de7508334dd12f1a6a673521a1a835f5
                           .group:0000000000000000 wm4.gd32vw55x_fmc.h.36.a4b0b94c47ffe23a2fa09260c5ed4850
                           .group:0000000000000000 wm4.gd32vw55x_fwdgt.h.36.4846b6900fd24b5bfce4986c9a8ce677
                           .group:0000000000000000 wm4.gd32vw55x_gpio.h.36.adfee1371bb58d3d9043c47bdb25a90f
                           .group:0000000000000000 wm4.gd32vw55x_hau.h.36.f3cbcbd7b67c9e5bdc7a1100b1bf3458
                           .group:0000000000000000 wm4.gd32vw55x_i2c.h.36.3848990933925e084eb427083790c53f
                           .group:0000000000000000 wm4.gd32vw55x_pkcau.h.36.bb2235f4cf4967063a51bfa9aca5ef27
                           .group:0000000000000000 wm4.gd32vw55x_pmu.h.36.4c76091f1415551526d489ccf2c42052
                           .group:0000000000000000 wm4.gd32vw55x_qspi.h.36.2d2c181cfe19b935a9641008fc786613
                           .group:0000000000000000 wm4.gd32vw55x_rcu.h.36.780a8a45c00d563711cceb445027ef47
                           .group:0000000000000000 wm4.gd32vw55x_rtc.h.36.3172855e8715659e080e0eab46fdf175
                           .group:0000000000000000 wm4.gd32vw55x_spi.h.36.9fa1be2b09fb73e4b5886e97f0e96d58
                           .group:0000000000000000 wm4.gd32vw55x_syscfg.h.36.010551f05591f5e34051d2e15df0352b
                           .group:0000000000000000 wm4.gd32vw55x_timer.h.38.2cbee78ea60d47145be361b2d2c55070
                           .group:0000000000000000 wm4.gd32vw55x_trng.h.36.c9e7807af1b1ab68d3bbb54f4ed5cd73
                           .group:0000000000000000 wm4.gd32vw55x_usart.h.36.f5c497cca17945a34f154b0e17017d02
                           .group:0000000000000000 wm4.gd32vw55x_wwdgt.h.36.f7a443b7302efc0e5c335888582ee197

NO UNDEFINED SYMBOLS
