
vw553.elf:     file format elf32-littleriscv
vw553.elf
architecture: riscv:rv32, flags 0x00000112:
EXEC_P, HAS_SYMS, D_PAGED
start address 0x080001d0

Program Header:
    LOAD off    0x00001000 vaddr 0x08000000 paddr 0x08000000 align 2**12
         filesz 0x0000e83a memsz 0x0000e83c flags rwx
    LOAD off    0x00010000 vaddr 0x20000000 paddr 0x0800e83c align 2**12
         filesz 0x00000008 memsz 0x00000008 flags rw-
    LOAD off    0x00000008 vaddr 0x20000008 paddr 0x20000008 align 2**12
         filesz 0x00000000 memsz 0x000004c8 flags rw-
    LOAD off    0x00000800 vaddr 0x20047800 paddr 0x200004d0 align 2**12
         filesz 0x00000000 memsz 0x00000800 flags rw-

Sections:
Idx Name              Size      VMA       LMA       File off  Algn  Flags
  0 .init             00000290  08000000  08000000  00001000  2**2  CONTENTS, ALLOC, LOAD, READONLY, CODE
  1 .ilalign          00000000  08000290  08000290  00010008  2**0  CONTENTS
  2 .text             0000e57a  080002c0  080002c0  000012c0  2**6  CONTENTS, ALLOC, LOAD, READONLY, CODE
  3 .lalign           00000002  0800e83a  0800e83a  0000f83a  2**0  ALLOC
  4 .dalign           00000000  20000000  20000000  00010008  2**0  CONTENTS
  5 .data             00000008  20000000  0800e83c  00010000  2**2  CONTENTS, ALLOC, LOAD, DATA
  6 .bss              000004c8  20000008  20000008  00010008  2**2  ALLOC
  7 .stack            00000800  20047800  200004d0  00010800  2**0  ALLOC
  8 .debug_info       000045c9  00000000  00000000  00010008  2**0  CONTENTS, READONLY, DEBUGGING, OCTETS
  9 .debug_abbrev     0000100f  00000000  00000000  000145d1  2**0  CONTENTS, READONLY, DEBUGGING, OCTETS
 10 .debug_aranges    00000578  00000000  00000000  000155e0  2**3  CONTENTS, READONLY, DEBUGGING, OCTETS
 11 .debug_ranges     000004a0  00000000  00000000  00015b58  2**3  CONTENTS, READONLY, DEBUGGING, OCTETS
 12 .debug_macro      000045da  00000000  00000000  00015ff8  2**0  CONTENTS, READONLY, DEBUGGING, OCTETS
 13 .debug_line       00009ffa  00000000  00000000  0001a5d2  2**0  CONTENTS, READONLY, DEBUGGING, OCTETS
 14 .debug_str        0002fb2a  00000000  00000000  000245cc  2**0  CONTENTS, READONLY, DEBUGGING, OCTETS
 15 .comment          00000012  00000000  00000000  000540f6  2**0  CONTENTS, READONLY
 16 .riscv.attributes 0000002f  00000000  00000000  00054108  2**0  CONTENTS, READONLY
 17 .debug_frame      00001428  00000000  00000000  00054138  2**2  CONTENTS, READONLY, DEBUGGING, OCTETS
SYMBOL TABLE:
08000000 l    d  .init	00000000 .init
08000290 l    d  .ilalign	00000000 .ilalign
080002c0 l    d  .text	00000000 .text
0800e83a l    d  .lalign	00000000 .lalign
20000000 l    d  .dalign	00000000 .dalign
20000000 l    d  .data	00000000 .data
20000008 l    d  .bss	00000000 .bss
20047800 l    d  .stack	00000000 .stack
00000000 l    d  .debug_info	00000000 .debug_info
00000000 l    d  .debug_abbrev	00000000 .debug_abbrev
00000000 l    d  .debug_aranges	00000000 .debug_aranges
00000000 l    d  .debug_ranges	00000000 .debug_ranges
00000000 l    d  .debug_macro	00000000 .debug_macro
00000000 l    d  .debug_line	00000000 .debug_line
00000000 l    d  .debug_str	00000000 .debug_str
00000000 l    d  .comment	00000000 .comment
00000000 l    d  .riscv.attributes	00000000 .riscv.attributes
00000000 l    d  .debug_frame	00000000 .debug_frame
00000000 l    df *ABS*	00000000 start.o
08000000 l       .init	00000000 vector_base
00000000 l    df *ABS*	00000000 img.c
00000000 l    df *ABS*	00000000 gd32vw55x_it.c
00000000 l    df *ABS*	00000000 main.c
00000000 l    df *ABS*	00000000 systick.c
20000008 l     O .bss	00000004 delay
00000000 l    df *ABS*	00000000 OLED.c
00000000 l    df *ABS*	00000000 entry.o
0800dc2e l       .text	00000000 Undef_Handler
00000000 l    df *ABS*	00000000 handlers.c
20000410 l     O .bss	00000034 SystemExceptionHandlers
0800dc32 l     F .text	00000018 system_default_exception_handler
00000000 l    df *ABS*	00000000 init.c
00000000 l    df *ABS*	00000000 gd32vw55x_eclic.c
00000000 l    df *ABS*	00000000 gd32vw55x_gpio.c
00000000 l    df *ABS*	00000000 gd32vw55x_rcu.c
00000000 l    df *ABS*	00000000 system_gd32vw55x.c
0800e368 l     F .text	0000003a _soft_delay_
0800e524 l     F .text	00000014 system_clock_config
0800e538 l     F .text	000001ec system_clock_160m_hxtal
00000000 l    df *ABS*	00000000 atexit.c
00000000 l    df *ABS*	00000000 fini.c
00000000 l    df *ABS*	00000000 init.c
00000000 l    df *ABS*	00000000 __atexit.c
20000444 l     O .bss	0000008c _global_atexit0
00000000 l    df *ABS*	00000000 
0800e83a l       .text	00000000 __fini_array_end
0800e83a l       .text	00000000 __fini_array_start
0800e83a l       .text	00000000 __init_array_end
0800e83a l       .text	00000000 __preinit_array_end
0800e83a l       .text	00000000 __init_array_start
0800e83a l       .text	00000000 __preinit_array_start
08008ec0 g     O .text	00000400 IMG_DATA36
0800a2c0 g     O .text	00000400 IMG_DATA41
080066c0 g     O .text	00000400 IMG_DATA26
0800e124 g     F .text	000000dc gpio_mode_set
20000800 g       .data	00000000 __global_pointer$
080072c0 g     O .text	00000400 IMG_DATA29
080006c0 g     O .text	00000400 IMG_DATA2
0800cc3c g     F .text	00000032 delay_decrement
0800c6c0 g     O .text	00000400 IMG_DATA50
08003ac0 g     O .text	00000400 IMG_DATA15
0800de34 g     F .text	00000076 eclic_priority_group_set
0800cd72 g     F .text	00000022 OLED_I2C_Start
08007ac0 g     O .text	00000400 IMG_DATA31
00000800 g       *ABS*	00000000 __stack_size
0800dca2 g     F .text	0000004a Exception_Register_EXC
080052c0 g     O .text	00000400 IMG_DATA21
080026c0 g     O .text	00000400 IMG_DATA10
08000ec0 g     O .text	00000400 IMG_DATA4
080046c0 g     O .text	00000400 IMG_DATA18
0800cac0 g     F .text	0000004e eclic_mtip_handler
0800ce9a g     F .text	0000009c OLED_Init
080022c0 g     O .text	00000400 IMG_DATA9
0800e2d6 g     F .text	00000024 gpio_bit_set
20000000 g     O .data	00000004 SystemCoreClock
0800dc62 g     F .text	00000040 Exception_Init
0800aec0 g     O .text	00000400 IMG_DATA44
08001ec0 g     O .text	00000400 IMG_DATA8
08003ec0 g     O .text	00000400 IMG_DATA16
0800d166 g     F .text	00000262 OLED_ShowImage
0800db40  w      .text	00000000 exc_entry
0800dbbc  w      .text	00000000 irq_entry
08000ac0 g     O .text	00000400 IMG_DATA3
0800bec0 g     O .text	00000400 IMG_DATA48
0800dc2e  w      .text	00000000 default_intexc_handler
080082c0 g     O .text	00000400 IMG_DATA33
0800b6c0 g     O .text	00000400 IMG_DATA46
080096c0 g     O .text	00000400 IMG_DATA38
20047800 g       .stack	00000000 _heap_end
0800e764 g     F .text	0000005e __libc_init_array
0800cdb2 g     F .text	00000060 OLED_I2C_SendByte
0800e200 g     F .text	000000d6 gpio_output_options_set
0800ddd4 g     F .text	0000000e _init
0800e72e g     F .text	00000036 __libc_fini_array
0800cd94 g     F .text	0000001e OLED_I2C_Stop
0800dd7e g     F .text	00000044 _premain_init
080036c0 g     O .text	00000400 IMG_DATA14
0800cc0c g     F .text	00000030 delay_1ms
080086c0 g     O .text	00000400 IMG_DATA34
08004ec0 g     O .text	00000400 IMG_DATA20
08006ec0 g     O .text	00000400 IMG_DATA28
0800e2fa g     F .text	00000026 gpio_bit_reset
0800cc6e g     F .text	00000040 gpio_write_bit
2000000c g     O .bss	00000004 _global_atexit
20000010 g     O .bss	00000400 OLED_DisplayBuf
20048000 g       .stack	00000000 _sp
0800dcec g     F .text	00000080 core_exception_handler
080001d0 g     F .init	00000000 _start
0800e320 g     F .text	00000048 rcu_periph_clock_enable
08005ec0 g     O .text	00000400 IMG_DATA24
080002c0 g     O .text	00000400 IMG_DATA1
080016c0 g     O .text	00000400 IMG_DATA6
0800ccfa g     F .text	00000078 OLED_GPIO_Init
0800e7c2 g     F .text	00000078 __register_exitproc
080056c0 g     O .text	00000400 IMG_DATA22
08002ec0 g     O .text	00000400 IMG_DATA12
0800ce40 g     F .text	0000005a OLED_WriteData
0800cb26 g     F .text	000000e6 systick_config
0800d038 g     F .text	0000012e OLED_ClearArea
08007ec0 g     O .text	00000400 IMG_DATA32
080042c0 g     O .text	00000400 IMG_DATA17
0800cfdc g     F .text	0000005c OLED_Clear
0800b2c0 g     O .text	00000400 IMG_DATA45
20000008 g       .bss	00000000 __bss_start
0800cb0e g     F .text	00000018 main
080062c0 g     O .text	00000400 IMG_DATA25
08009ac0 g     O .text	00000400 IMG_DATA39
0800cf36 g     F .text	00000054 OLED_SetCursor
080092c0 g     O .text	00000400 IMG_DATA37
0800a6c0 g     O .text	00000400 IMG_DATA42
0800e3a2 g     F .text	00000182 SystemInit
0800ccd4 g     F .text	00000026 OLED_W_SDA
0800dde2 g     F .text	0000000e _fini
0800e724 g     F .text	0000000a atexit
080012c0 g     O .text	00000400 IMG_DATA5
08009ec0 g     O .text	00000400 IMG_DATA40
0800cf8a g     F .text	00000052 OLED_Update
080076c0 g     O .text	00000400 IMG_DATA30
20000000 g       .dalign	00000000 _data
08006ac0 g     O .text	00000400 IMG_DATA27
0800dd6c g     F .text	00000012 Exception_DumpFrame
0800deaa g     F .text	0000027a eclic_irq_enable
08008ac0 g     O .text	00000400 IMG_DATA35
08001ac0 g     O .text	00000400 IMG_DATA7
20000008 g       .bss	00000000 _edata
0800ddc2 g     F .text	00000012 _postmain_fini
200004d0 g       .bss	00000000 _end
08005ac0 g     O .text	00000400 IMG_DATA23
0800ddf0 g     F .text	0000001a eclic_global_interrupt_enable
08002ac0 g     O .text	00000400 IMG_DATA11
0800e83c g       .lalign	00000000 _data_lma
0800dc4a g     F .text	00000018 nmi_handler
0800aac0 g     O .text	00000400 IMG_DATA43
08004ac0 g     O .text	00000400 IMG_DATA19
0800bac0 g     O .text	00000400 IMG_DATA47
0800de0a g     F .text	0000002a eclic_level_threshold_set
0800d3c8 g     F .text	00000770 gif
080032c0 g     O .text	00000400 IMG_DATA13
0800c2c0 g     O .text	00000400 IMG_DATA49
0800ccae g     F .text	00000026 OLED_W_SCL
0800ce12 g     F .text	0000002e OLED_WriteCommand



Disassembly of section .init:

08000000 <vector_base>:
vector_base():
C:\Users\cymr9000p\Desktop\GD32\vw553\GD RISC-V MCU Debug/../Firmware/RISCV/env_Eclipse/start.S:105
    .weak     EFUSE_IRQHandler                  # EFUSE
    .weak     QSPI_IRQHandler                   # QUADSPI
    .weak     PKCAU_IRQHandler                  # PKCAU

vector_base:
    j _start                                    /* 0: Reserved, Jump to _start when reset for vector table not remapped cases.*/
 8000000:	aac1                	j	80001d0 <_start>
 8000002:	0001                	nop
	...
 800001c:	cac0                	sw	s0,20(a3)
 800001e:	0800                	addi	s0,sp,16
	...

080001d0 <_start>:
_start():
C:\Users\cymr9000p\Desktop\GD32\vw553\GD RISC-V MCU Debug/../Firmware/RISCV/env_Eclipse/start.S:228
    .type _start,@function

_start:

    /* Disable Global Interrupt */
    csrc CSR_MSTATUS, MSTATUS_MIE
 80001d0:	30047073          	csrci	mstatus,8
C:\Users\cymr9000p\Desktop\GD32\vw553\GD RISC-V MCU Debug/../Firmware/RISCV/env_Eclipse/start.S:232
    /* Initialize GP and Stack Pointer SP */
.option push
.option norelax
    la gp, __global_pointer$
 80001d4:	18000197          	auipc	gp,0x18000
 80001d8:	62c18193          	addi	gp,gp,1580 # 20000800 <__global_pointer$>
C:\Users\cymr9000p\Desktop\GD32\vw553\GD RISC-V MCU Debug/../Firmware/RISCV/env_Eclipse/start.S:234
.option pop
    la sp, _sp
 80001dc:	18048117          	auipc	sp,0x18048
 80001e0:	e2410113          	addi	sp,sp,-476 # 20048000 <_sp>
C:\Users\cymr9000p\Desktop\GD32\vw553\GD RISC-V MCU Debug/../Firmware/RISCV/env_Eclipse/start.S:237

    /* Set the the NMI base to share with mtvec by setting CSR_MMISC_CTL */
    li t0, MMISC_CTL_NMI_CAUSE_FFF
 80001e4:	20000293          	li	t0,512
C:\Users\cymr9000p\Desktop\GD32\vw553\GD RISC-V MCU Debug/../Firmware/RISCV/env_Eclipse/start.S:238
    csrs CSR_MMISC_CTL, t0
 80001e8:	7d02a073          	csrs	mmisc_ctl,t0
C:\Users\cymr9000p\Desktop\GD32\vw553\GD RISC-V MCU Debug/../Firmware/RISCV/env_Eclipse/start.S:240
    /* Intial the mtvt*/
    la t0, vector_base
 80001ec:	00000297          	auipc	t0,0x0
 80001f0:	e1428293          	addi	t0,t0,-492 # 8000000 <vector_base>
C:\Users\cymr9000p\Desktop\GD32\vw553\GD RISC-V MCU Debug/../Firmware/RISCV/env_Eclipse/start.S:241
    csrw CSR_MTVT, t0
 80001f4:	30729073          	csrw	mtvt,t0
C:\Users\cymr9000p\Desktop\GD32\vw553\GD RISC-V MCU Debug/../Firmware/RISCV/env_Eclipse/start.S:244

    /* Intial the mtvt2 and enable it*/
    la t0, irq_entry
 80001f8:	0000e297          	auipc	t0,0xe
 80001fc:	9c428293          	addi	t0,t0,-1596 # 800dbbc <irq_entry>
C:\Users\cymr9000p\Desktop\GD32\vw553\GD RISC-V MCU Debug/../Firmware/RISCV/env_Eclipse/start.S:245
    csrw CSR_MTVT2, t0
 8000200:	7ec29073          	csrw	mtvt2,t0
C:\Users\cymr9000p\Desktop\GD32\vw553\GD RISC-V MCU Debug/../Firmware/RISCV/env_Eclipse/start.S:246
    csrs CSR_MTVT2, 0x1
 8000204:	7ec0e073          	csrsi	mtvt2,1
C:\Users\cymr9000p\Desktop\GD32\vw553\GD RISC-V MCU Debug/../Firmware/RISCV/env_Eclipse/start.S:249

    /* Intial the CSR MTVEC for the Trap and NMI base addr*/
    la t0, exc_entry
 8000208:	0000e297          	auipc	t0,0xe
 800020c:	93828293          	addi	t0,t0,-1736 # 800db40 <exc_entry>
C:\Users\cymr9000p\Desktop\GD32\vw553\GD RISC-V MCU Debug/../Firmware/RISCV/env_Eclipse/start.S:250
    csrw CSR_MTVEC, t0
 8000210:	30529073          	csrw	mtvec,t0
C:\Users\cymr9000p\Desktop\GD32\vw553\GD RISC-V MCU Debug/../Firmware/RISCV/env_Eclipse/start.S:253

    /* Set the interrupt processing mode to ECLIC mode */
    li t0, 0x3f
 8000214:	03f00293          	li	t0,63
C:\Users\cymr9000p\Desktop\GD32\vw553\GD RISC-V MCU Debug/../Firmware/RISCV/env_Eclipse/start.S:254
    csrc CSR_MTVEC, t0
 8000218:	3052b073          	csrc	mtvec,t0
C:\Users\cymr9000p\Desktop\GD32\vw553\GD RISC-V MCU Debug/../Firmware/RISCV/env_Eclipse/start.S:255
    csrs CSR_MTVEC, 0x3
 800021c:	3051e073          	csrsi	mtvec,3
C:\Users\cymr9000p\Desktop\GD32\vw553\GD RISC-V MCU Debug/../Firmware/RISCV/env_Eclipse/start.S:265
    csrs mstatus, t0
    csrw fcsr, x0
#endif

    /* Enable mcycle and minstret counter */
    csrci CSR_MCOUNTINHIBIT, 0x5
 8000220:	3202f073          	csrci	mcountinhibit,5
C:\Users\cymr9000p\Desktop\GD32\vw553\GD RISC-V MCU Debug/../Firmware/RISCV/env_Eclipse/start.S:269

    /* ===== Startup Stage 3 ===== */
    /* Load data section */
    la a0, _data_lma
 8000224:	0000e517          	auipc	a0,0xe
 8000228:	61850513          	addi	a0,a0,1560 # 800e83c <_data_lma>
C:\Users\cymr9000p\Desktop\GD32\vw553\GD RISC-V MCU Debug/../Firmware/RISCV/env_Eclipse/start.S:270
    la a1, _data
 800022c:	18000597          	auipc	a1,0x18000
 8000230:	dd458593          	addi	a1,a1,-556 # 20000000 <SystemCoreClock>
C:\Users\cymr9000p\Desktop\GD32\vw553\GD RISC-V MCU Debug/../Firmware/RISCV/env_Eclipse/start.S:271
    la a2, _edata
 8000234:	18000617          	auipc	a2,0x18000
 8000238:	dd460613          	addi	a2,a2,-556 # 20000008 <delay>
C:\Users\cymr9000p\Desktop\GD32\vw553\GD RISC-V MCU Debug/../Firmware/RISCV/env_Eclipse/start.S:272
    bgeu a1, a2, 2f
 800023c:	00c5fa63          	bgeu	a1,a2,8000250 <_start+0x80>
C:\Users\cymr9000p\Desktop\GD32\vw553\GD RISC-V MCU Debug/../Firmware/RISCV/env_Eclipse/start.S:274
1:
    lw t0, (a0)
 8000240:	00052283          	lw	t0,0(a0)
C:\Users\cymr9000p\Desktop\GD32\vw553\GD RISC-V MCU Debug/../Firmware/RISCV/env_Eclipse/start.S:275
    sw t0, (a1)
 8000244:	0055a023          	sw	t0,0(a1)
C:\Users\cymr9000p\Desktop\GD32\vw553\GD RISC-V MCU Debug/../Firmware/RISCV/env_Eclipse/start.S:276
    addi a0, a0, 4
 8000248:	0511                	addi	a0,a0,4
C:\Users\cymr9000p\Desktop\GD32\vw553\GD RISC-V MCU Debug/../Firmware/RISCV/env_Eclipse/start.S:277
    addi a1, a1, 4
 800024a:	0591                	addi	a1,a1,4
C:\Users\cymr9000p\Desktop\GD32\vw553\GD RISC-V MCU Debug/../Firmware/RISCV/env_Eclipse/start.S:278
    bltu a1, a2, 1b
 800024c:	fec5eae3          	bltu	a1,a2,8000240 <_start+0x70>
C:\Users\cymr9000p\Desktop\GD32\vw553\GD RISC-V MCU Debug/../Firmware/RISCV/env_Eclipse/start.S:281
2:
    /* Clear bss section */
    la a0, __bss_start
 8000250:	18000517          	auipc	a0,0x18000
 8000254:	db850513          	addi	a0,a0,-584 # 20000008 <delay>
C:\Users\cymr9000p\Desktop\GD32\vw553\GD RISC-V MCU Debug/../Firmware/RISCV/env_Eclipse/start.S:282
    la a1, _end
 8000258:	cd018593          	addi	a1,gp,-816 # 200004d0 <_end>
C:\Users\cymr9000p\Desktop\GD32\vw553\GD RISC-V MCU Debug/../Firmware/RISCV/env_Eclipse/start.S:283
    bgeu a0, a1, 2f
 800025c:	00b57763          	bgeu	a0,a1,800026a <_start+0x9a>
C:\Users\cymr9000p\Desktop\GD32\vw553\GD RISC-V MCU Debug/../Firmware/RISCV/env_Eclipse/start.S:285
1:
    sw zero, (a0)
 8000260:	00052023          	sw	zero,0(a0)
C:\Users\cymr9000p\Desktop\GD32\vw553\GD RISC-V MCU Debug/../Firmware/RISCV/env_Eclipse/start.S:286
    addi a0, a0, 4
 8000264:	0511                	addi	a0,a0,4
C:\Users\cymr9000p\Desktop\GD32\vw553\GD RISC-V MCU Debug/../Firmware/RISCV/env_Eclipse/start.S:287
    bltu a0, a1, 1b
 8000266:	feb56de3          	bltu	a0,a1,8000260 <_start+0x90>
C:\Users\cymr9000p\Desktop\GD32\vw553\GD RISC-V MCU Debug/../Firmware/RISCV/env_Eclipse/start.S:294

    /*
     * Call vendor defined SystemInit to
     * initialize the micro-controller system
     */
    call SystemInit
 800026a:	1380e0ef          	jal	ra,800e3a2 <SystemInit>
C:\Users\cymr9000p\Desktop\GD32\vw553\GD RISC-V MCU Debug/../Firmware/RISCV/env_Eclipse/start.S:297

    /* Call global constructors */
    la a0, __libc_fini_array
 800026e:	0000e517          	auipc	a0,0xe
 8000272:	4c050513          	addi	a0,a0,1216 # 800e72e <__libc_fini_array>
C:\Users\cymr9000p\Desktop\GD32\vw553\GD RISC-V MCU Debug/../Firmware/RISCV/env_Eclipse/start.S:298
    call atexit
 8000276:	4ae0e0ef          	jal	ra,800e724 <atexit>
C:\Users\cymr9000p\Desktop\GD32\vw553\GD RISC-V MCU Debug/../Firmware/RISCV/env_Eclipse/start.S:300
    /* Call C/C++ constructor start up code */
    call __libc_init_array
 800027a:	4ea0e0ef          	jal	ra,800e764 <__libc_init_array>
C:\Users\cymr9000p\Desktop\GD32\vw553\GD RISC-V MCU Debug/../Firmware/RISCV/env_Eclipse/start.S:303

    /* do pre-init steps before main */
    call _premain_init
 800027e:	3010d0ef          	jal	ra,800dd7e <_premain_init>
C:\Users\cymr9000p\Desktop\GD32\vw553\GD RISC-V MCU Debug/../Firmware/RISCV/env_Eclipse/start.S:306
    /* ===== Call Main Function  ===== */
    /* argc = argv = 0 */
    li a0, 0
 8000282:	4501                	li	a0,0
C:\Users\cymr9000p\Desktop\GD32\vw553\GD RISC-V MCU Debug/../Firmware/RISCV/env_Eclipse/start.S:307
    li a1, 0
 8000284:	4581                	li	a1,0
C:\Users\cymr9000p\Desktop\GD32\vw553\GD RISC-V MCU Debug/../Firmware/RISCV/env_Eclipse/start.S:308
    call main
 8000286:	0890c0ef          	jal	ra,800cb0e <main>
C:\Users\cymr9000p\Desktop\GD32\vw553\GD RISC-V MCU Debug/../Firmware/RISCV/env_Eclipse/start.S:310
    /* do post-main steps after main */
    call _postmain_fini
 800028a:	3390d0ef          	jal	ra,800ddc2 <_postmain_fini>
C:\Users\cymr9000p\Desktop\GD32\vw553\GD RISC-V MCU Debug/../Firmware/RISCV/env_Eclipse/start.S:313

1:
    j 1b
 800028e:	a001                	j	800028e <_start+0xbe>

Disassembly of section .text:

080002c0 <IMG_DATA1>:
 80002c0:	ffff ffff ffff ffff ffff ffff ffff ffff     ................
 80002d0:	ffff ffff ffff ffff ffff ffff ffff f8ff     ................
 80002e0:	eff6 dfff ffbf ff7f ffff ffff ffff ffff     ................
 80002f0:	ffff 79ff 8f3f e3c7 f0e1 e0f0 80c0 3e00     ...y?..........>
 8000300:	ffff ffff ffff ffff ffff ffff ffff ffff     ................
 8000310:	ffff ffff fff8 ff3f 7fff f3cf fffc ffff     ......?.........
 8000320:	ffff ffff ffff ffff ffff ffff ffff ffff     ................
 8000330:	ffff ffff ffff ffff ffff ffff ffff ffff     ................
 8000340:	ffff ffff ffff ffff ffff ffff ffff ffff     ................
 8000350:	ffff ffff ffff ffff ffff ffff ffff ffff     ................
 8000360:	ffff ffff ffff ffff ffff ffff 1ff1 ff0f     ................
 8000370:	fbf7 fefc fbff f9f9 f3fb f7f3 eff7 fcee     ................
 8000380:	f7d9 bf8f ff7f ffff ffff ffff ffff ffff     ................
 8000390:	ffff ffff 8f7f fffe fffd ffff ffff ffff     ................
 80003a0:	ffff ffff ffff ffff ffff ffff ffff ffff     ................
 80003b0:	ffff ffff ffff ffff ffff ffff ffff ffff     ................
 80003c0:	ffff ffff ffff ffff ffff ffff ffff ffff     ................
 80003d0:	ffff ffff ffff ffff ffff ffff ffff ffff     ................
 80003e0:	ffff ffff ffff ffff ffff ffff ffff f8f8     ................
 80003f0:	ff1f ffff ffff ffff ffff ffff ffff ffff     ................
 8000400:	ffff ffff dfdf 3ebf 7d7f ffff ffff 7fff     .......>.}......
 8000410:	dfbf f9e7 fffe 7fff ffff ffff dfff 7fbf     ................
 8000420:	ffff ffff ffff ffff ffff ffff ffff ffff     ................
 8000430:	ffff ffff ffff ffff ffff ffff ffff ffff     ................
 8000440:	ffff ffff ffff ffff ffff ffff ffff ffff     ................
 8000450:	ffff ffff ffff ffff ffff ffff ffff ffff     ................
 8000460:	ffff ffff ffff ffff ffff ffff ffff 1fff     ................
 8000470:	ff00 ffff ffff ffff ffff ffff ffff ffff     ................
 8000480:	ffff ffff ffff 3eff 0010 0100 0101 fcc0     .......>........
 8000490:	ffff ffff ff80 ffff 013e ff0f ffff 007f     ........>.......
 80004a0:	0100 ff2f ffff ffff ffff ffff ffff ffff     ../.............
 80004b0:	ffff ffff ffff ffff ffff ffff ffff ffff     ................
 80004c0:	ffff ffff ffff ffff ffff ffff ffff ffff     ................
 80004d0:	ffff ffff ffff ffff ffff ffff ffff ffff     ................
 80004e0:	ffff ffff ffff ffff ffff ffff ffff c0ff     ................
 80004f0:	1ffe ffff ffff ffff ffff ffff ffff ffff     ................
 8000500:	ffff ffff ffff 0102 0000 0000 f880 ffff     ................
 8000510:	ffff 0fff 071f 0001 0000 ff00 a7df e8d0     ................
 8000520:	fdfc ffff ffff ffff ffff ffff ffff ffff     ................
 8000530:	ffff ffff ffff ffff ffff ffff ffff ffff     ................
 8000540:	ffff ffff ffff ffff ffff ffff ffff ffff     ................
 8000550:	ffff ffff ffff ffff ffff ffff ffff ffff     ................
 8000560:	ffff ffff ffff ffff ffff ffff ffff ffff     ................
 8000570:	7cc1 ff8f bf3f 7f3f 7f7f 7fff 6f7f bfbe     .|..?.?......o..
 8000580:	bfbf bfbf dfdf c0ca 3000 f71c ffff ffff     .........0......
 8000590:	3fff 0003 c000 b0e0 fcd8 fffb ffff ffff     .?..............
 80005a0:	ffff ffff ffff ffff ffff ffff ffff ffff     ................
 80005b0:	ffff ffff ffff ffff ffff ffff ffff ffff     ................
 80005c0:	ffff ffff ffff ffff ffff ffff ffff ffff     ................
 80005d0:	ffff ffff ffff ffff ffff ffff ffff ffff     ................
 80005e0:	ffff ffff ffff ffff ffff ffff ffff ffff     ................
 80005f0:	80fd 00fe 3ef0 1ee0 ce3e ffff 1ffc fff7     .....>..>.......
 8000600:	ffff ffff 3fff 071f f080 fffe ffff 1fff     .....?..........
 8000610:	e001 7ef8 fbff fffe ffff ffff ffff ffff     ...~............
 8000620:	ffff ffff ffff ffff ffff ffff ffff ffff     ................
 8000630:	ffff ffff ffff ffff ffff ffff ffff ffff     ................
 8000640:	ffff ffff ffff ffff ffff ffff ffff ffff     ................
 8000650:	ffff ffff ffff ffff ffff ffff ffff ffff     ................
 8000660:	ffff ffff ffff ffff ffff ffff ffff ffff     ................
 8000670:	1fff afd8 0200 1e13 0f00 e307 f0f9 2783     ...............'
 8000680:	bfdf b37f 0020 fcc0 ffff ffff 1fff 00c1     .... ...........
 8000690:	ffff feff ffff ffff ffff ffff ffff ffff     ................
 80006a0:	ffff ffff ffff ffff ffff ffff ffff ffff     ................
 80006b0:	ffff ffff ffff ffff ffff ffff ffff ffff     ................

080006c0 <IMG_DATA2>:
 80006c0:	ffff ffff ffff ffff ffff ffff ffff ffff     ................
 80006d0:	ffff ffff ffff ffff ffff ffff ffff feff     ................
 80006e0:	fbfd f7ff efef ffdf ffff ffff ff7f ffff     ................
 80006f0:	ffff 9ebf e7cf 7871 fc78 fcfc e0f8 0f80     ......qxx.......
 8000700:	ff3f ffff ffff ffff ffff ffff ffff ffff     ?...............
 8000710:	ffff ffff fffe ff83 df7f fcf3 ffff ffff     ................
 8000720:	ffff ffff ffff ffff ffff ffff ffff ffff     ................
 8000730:	ffff ffff ffff ffff ffff ffff ffff ffff     ................
 8000740:	ffff ffff ffff ffff ffff ffff ffff ffff     ................
 8000750:	ffff ffff ffff ffff ffff ffff ffff ffff     ................
 8000760:	ffff ffff ffff ffff ffff ffff c7fc 3f03     ...............?
 8000770:	fffd ffff feff fefe fcfe fdfc fffd fffb     ................
 8000780:	fcf6 efe3 ffdf bfbf 7f7f ffff ffff ffff     ................
 8000790:	ffff 7fff 4f9f ffff ffff ffff ffff ffff     .....O..........
 80007a0:	ffff ffff ffff ffff ffff ffff ffff ffff     ................
 80007b0:	ffff ffff ffff ffff ffff ffff ffff ffff     ................
 80007c0:	ffff ffff ffff ffff ffff ffff ffff ffff     ................
 80007d0:	ffff ffff ffff ffff ffff ffff ffff ffff     ................
 80007e0:	ffff ffff ffff ffff ffff ffff ffff fefe     ................
 80007f0:	ff07 ffff ffff ffff ffff ffff ffff ffff     ................
 8000800:	ffff ffff f7f7 8fef 1f1f 3f3f 7fff 1f3f     ..........??..?.
 8000810:	f7ef fef9 ff1f ffff ffff ffff f7ff 1fcf     ................
 8000820:	7f3f ffff ffff ffff ffff ffff ffff ffff     ?...............
 8000830:	ffff ffff ffff ffff ffff ffff ffff ffff     ................
 8000840:	ffff ffff ffff ffff ffff ffff ffff ffff     ................
 8000850:	ffff ffff ffff ffff ffff ffff ffff ffff     ................
 8000860:	ffff ffff ffff ffff ffff ffff ffff 03ff     ................
 8000870:	ff80 ffff ffff ffff ffff ffff ffff ffff     ................
 8000880:	ffff ffff ffff efff 000c 0008 0000 fff0     ................
 8000890:	ffff ffff ffe0 3fff 000f ff03 ffff 001f     .......?........
 80008a0:	4080 ffcb ffff ffff ffff ffff ffff ffff     .@..............
 80008b0:	ffff ffff ffff ffff ffff ffff ffff ffff     ................
 80008c0:	ffff ffff ffff ffff ffff ffff ffff ffff     ................
 80008d0:	ffff ffff ffff ffff ffff ffff ffff ffff     ................
 80008e0:	ffff ffff ffff ffff ffff ffff ffff f0ff     ................
 80008f0:	077f ffff ffff ffff ffff ffff ffff ff7f     ................
 8000900:	ffff ffff ffff 0080 0000 8000 fec0 ffff     ................
 8000910:	ffff 01ff 030b 0000 8000 ffe0 f9f7 faf4     ................
 8000920:	fffd ffff ffff ffff ffff ffff ffff ffff     ................
 8000930:	ffff ffff ffff ffff ffff ffff ffff ffff     ................
 8000940:	ffff ffff ffff ffff ffff ffff ffff ffff     ................
 8000950:	ffff ffff ffff ffff ffff ffff ffff ffff     ................
 8000960:	ffff ffff ffff ffff ffff ffff ffff 7fff     ................
 8000970:	9ff0 7fa3 bf0f 9f1f bf9f dfff d31f ffef     ................
 8000980:	efef efef f7f7 f0f0 0800 fc83 ffff ffff     ................
 8000990:	0f7f 8000 f0c0 ecf8 fdfe fffe ffff ffff     ................
 80009a0:	ffff ffff ffff ffff ffff ffff ffff ffff     ................
 80009b0:	ffff ffff ffff ffff ffff ffff ffff ffff     ................
 80009c0:	ffff ffff ffff ffff ffff ffff ffff ffff     ................
 80009d0:	ffff ffff ffff ffff ffff ffff ffff ffff     ................
 80009e0:	ffff ffff ffff ffff ffff ffff ffff ffff     ................
 80009f0:	f0ff 803b cf3c 0ff0 f30f ffff 077f fffd     ..;.<...........
 8000a00:	ffff ffff 0f3f 0107 fce0 ffff ffff 077f     ....?...........
 8000a10:	f8c0 1ffe ffff ffff ffff ffff ffff ffff     ................
 8000a20:	ffff ffff ffff ffff ffff ffff ffff ffff     ................
 8000a30:	ffff ffff ffff ffff ffff ffff ffff ffff     ................
 8000a40:	ffff ffff ffff ffff ffff ffff ffff ffff     ................
 8000a50:	ffff ffff ffff ffff ffff ffff ffff ffff     ................
 8000a60:	ffff ffff ffff ffff ffff ffff ffff 3fff     ...............?
 8000a70:	07ff e376 01c0 0704 0700 3801 3c7e 0980     ..v........8~<..
 8000a80:	ef77 bedf 0008 fff8 ffff ffff 0fff 00f0     w...............
 8000a90:	ffff ff07 ffff ffff ffff ffff ffff ffff     ................
 8000aa0:	ffff ffff ffff ffff ffff ffff ffff ffff     ................
 8000ab0:	ffff ffff ffff ffff ffff ffff ffff ffff     ................

08000ac0 <IMG_DATA3>:
 8000ac0:	ffff ffff ffff ffff ffff ffff ffff ffff     ................
 8000ad0:	ffff ffff ffff ffff ffff ffff ffff ffff     ................
 8000ae0:	feff fdfd fffb fff7 ffff ffff ff3f ffff     ............?...
 8000af0:	bf7f e7df b9f3 9c9c 3f3e 7e3f f87e c3e0     ........>??~~...
 8000b00:	3f8f ffff ffff ffff ffff ffff ffff ffff     .?..............
 8000b10:	ffff ffff ffff ffe0 f7df fffc ffff ffff     ................
 8000b20:	ffff ffff ffff ffff ffff ffff ffff ffff     ................
 8000b30:	ffff ffff ffff ffff ffff ffff ffff ffff     ................
 8000b40:	ffff ffff ffff ffff ffff ffff ffff ffff     ................
 8000b50:	ffff ffff ffff ffff ffff ffff ffff ffff     ................
 8000b60:	ffff ffff ffff ffff ffff ffff f1ff 9f80     ................
 8000b70:	bfff ffff ffff ffff ffff ffff feff fffe     ................
 8000b80:	fefd fbf8 eff7 efef dfdf ffff ffff ffff     ................
 8000b90:	ffff 9f7f c3c7 ffff ffff ffff ffff ffff     ................
 8000ba0:	ffff ffff ffff ffff ffff ffff ffff ffff     ................
 8000bb0:	ffff ffff ffff ffff ffff ffff ffff ffff     ................
 8000bc0:	ffff ffff ffff ffff ffff ffff ffff ffff     ................
 8000bd0:	ffff ffff ffff ffff ffff ffff ffff ffff     ................
 8000be0:	ffff ffff ffff ffff ffff ffff ffff ffff     ................
 8000bf0:	ff01 ffff ffff ffff ffff ffff ffff ffff     ................
 8000c00:	ffff fdff fdfd e3fb 0707 1f0f 1f7f c70f     ................
 8000c10:	fdfb fffe ff0f ffff 3fff ffff fdff 07f3     .........?......
 8000c20:	1f0f ffff ffff ffff ffff ffff ffff ffff     ................
 8000c30:	ffff ffff ffff ffff ffff ffff ffff ffff     ................
 8000c40:	ffff ffff ffff ffff ffff ffff ffff ffff     ................
 8000c50:	ffff ffff ffff ffff ffff ffff ffff ffff     ................
 8000c60:	ffff ffff ffff ffff ffff ffff ffff 01ff     ................
 8000c70:	ffe0 ffff ffff ffff ffff ffff ffff ffff     ................
 8000c80:	ffff ffff ffff 332f 0005 0002 8000 fffc     ....../3........
 8000c90:	ffff 7fff fff8 1f3f 0003 ff00 7fff 8007     ......?.........
 8000ca0:	d040 fff2 ffff ffff ffff ffff ffff ffff     @...............
 8000cb0:	ffff ffff ffff ffff ffff ffff ffff ffff     ................
 8000cc0:	ffff ffff ffff ffff ffff ffff ffff ffff     ................
 8000cd0:	ffff ffff ffff ffff ffff ffff ffff ffff     ................
 8000ce0:	ffff ffff ffff ffff ffff ffff ffff fcff     ................
 8000cf0:	c13f ffff ffff ffff ffff ffff ffff ffdf     ?...............
 8000d00:	ffff ffff ffff 0020 0000 20c0 fff0 ffff     ...... .... ....
 8000d10:	ffff 003f 0001 0000 c080 f7a0 fcf9 fefd     ..?.............
 8000d20:	ffff ffff ffff ffff ffff ffff ffff ffff     ................
 8000d30:	ffff ffff ffff ffff ffff ffff ffff ffff     ................
 8000d40:	ffff ffff ffff ffff ffff ffff ffff ffff     ................
 8000d50:	ffff ffff ffff ffff ffff ffff ffff ffff     ................
 8000d60:	ffff ffff ffff ffff ffff ffff ffff dfff     ................
 8000d70:	27bc 1fe0 ef03 ef07 efe7 f7ff f4c7 bb7b     .'............{.
 8000d80:	fbfb fbfb fdff 7cfe 8200 ffe0 ffff ffff     .......|........
 8000d90:	031f c080 f8f0 fbee fffd ffff ffff ffff     ................
 8000da0:	ffff ffff ffff ffff ffff ffff ffff ffff     ................
 8000db0:	ffff ffff ffff ffff ffff ffff ffff ffff     ................
 8000dc0:	ffff ffff ffff ffff ffff ffff ffff ffff     ................
 8000dd0:	ffff ffff ffff ffff ffff ffff ffff ffff     ................
 8000de0:	ffff ffff ffff ffff ffff ffff ffff ffff     ................
 8000df0:	fdff 608e 630f f33c fc03 3f7e 019f 7f3f     ...`.c<...~?..?.
 8000e00:	ffff 7fff 030f c001 fff8 ffff ffff 011f     ................
 8000e10:	fef0 c7ff ffff ffff ffff ffff ffff ffff     ................
 8000e20:	ffff ffff ffff ffff ffff ffff ffff ffff     ................
 8000e30:	ffff ffff ffff ffff ffff ffff ffff ffff     ................
 8000e40:	ffff ffff ffff ffff ffff ffff ffff ffff     ................
 8000e50:	ffff ffff ffff ffff ffff ffff ffff ffff     ................
 8000e60:	ffff ffff ffff ffff ffff ffff ffff dfff     ................
 8000e70:	413f b89d 0070 0101 0100 1e00 4fbf d6c0     ?A..p........O..
 8000e80:	3b1d eff7 0082 ff7c ffff ffff 033f 80fc     .;....|.....?...
 8000e90:	ffff ff03 ffff ffff ffff ffff ffff ffff     ................
 8000ea0:	ffff ffff ffff ffff ffff ffff ffff ffff     ................
 8000eb0:	ffff ffff ffff ffff ffff ffff ffff ffff     ................

08000ec0 <IMG_DATA4>:
 8000ec0:	ffff ffff ffff ffff ffff ffff ffff ffff     ................
 8000ed0:	ffff ffff ffff ffff ffff ffff ffff ffff     ................
 8000ee0:	ffff ffff fffe fffd ffff ffff 7fcf ff3f     ..............?.
 8000ef0:	efdf f9f7 eefc e7e7 cfcf dfcf bedf f0b8     ................
 8000f00:	9f47 ff3f ffff ffff ffff ffff ffff ffff     G.?.............
 8000f10:	ffff ffff ffff fff8 fdf7 ffff ffff ffff     ................
 8000f20:	ffff ffff ffff ffff ffff ffff ffff ffff     ................
 8000f30:	ffff ffff ffff ffff ffff ffff ffff ffff     ................
 8000f40:	ffff ffff ffff ffff ffff ffff ffff ffff     ................
 8000f50:	ffff ffff ffff ffff ffff ffff ffff ffff     ................
 8000f60:	ffff ffff ffff ffff ffff ffff fcff c7e0     ................
 8000f70:	efff ffff ffff ffff ffff ffff ffff ffff     ................
 8000f80:	ffff 7efe fb7f f3ff f7f7 ffff ffff ffff     ...~............
 8000f90:	7fff efbf f4f1 ffff ffff dfff 7fff ffff     ................
 8000fa0:	ffff ffff ffff ffff ffff ffff ffff ffff     ................
 8000fb0:	ffff ffff ffff ffff ffff ffff ffff ffff     ................
 8000fc0:	ffff ffff ffff ffff ffff ffff ffff ffff     ................
 8000fd0:	ffff ffff ffff ffff ffff ffff ffff ffff     ................
 8000fe0:	ffff ffff ffff ffff ffff ffff ffff 3fff     ...............?
 8000ff0:	ff00 ffff ffff ffff ffff ffff ffff ffff     ................
 8001000:	ffff ffff feff f8fc 0341 0703 071f f103     ........A.......
 8001010:	fffe ffff ff03 ffff 0fff ff3f ffff 01fc     ..........?.....
 8001020:	0703 ffbf ffff ffff ffff ffff ffff ffff     ................
 8001030:	ffff ffff ffff ffff ffff ffff ffff ffff     ................
 8001040:	ffff ffff ffff ffff ffff ffff ffff ffff     ................
 8001050:	ffff ffff ffff ffff ffff ffff ffff ffff     ................
 8001060:	ffff ffff ffff ffff ffff ffff ffff 00ff     ................
 8001070:	7ff8 ffff ffff ffff ffff ffff ffff ffff     ................
 8001080:	ffff ffff ffff 0c1b 0001 0000 e000 fffe     ................
 8001090:	ffff 1fff 3ffe 070f 0000 ff00 1f7f a041     .....?........A.
 80010a0:	f4d8 fffc ffff ffff ffff ffff ffff ffff     ................
 80010b0:	ffff ffff ffff ffff ffff ffff ffff ffff     ................
 80010c0:	ffff ffff ffff ffff ffff ffff ffff ffff     ................
 80010d0:	ffff ffff ffff ffff ffff ffff ffff ffff     ................
 80010e0:	ffff ffff ffff ffff ffff ffff ffff ffff     ................
 80010f0:	f007 ff7f ffff ffff ffff ffff 3fff fff7     .............?..
 8001100:	ffff ffff 7fff 0088 8000 c870 fffc ffff     ..........p.....
 8001110:	ffff 001f 0000 c080 f0e0 fde8 fffe ffff     ................
 8001120:	ffff ffff ffff ffff ffff ffff ffff ffff     ................
 8001130:	ffff ffff ffff ffff ffff ffff ffff ffff     ................
 8001140:	ffff ffff ffff ffff ffff ffff ffff ffff     ................
 8001150:	ffff ffff ffff ffff ffff ffff ffff ffff     ................
 8001160:	ffff ffff ffff ffff ffff ffff ffff f7ff     ................
 8001170:	09ef 07bc fbc1 fb01 3bf9 f9ff 7df1 eedc     .........;...}..
 8001180:	fefe fefe fffe 1e7f c000 fff8 ffff 7fff     ................
 8001190:	8107 f0e0 fefc fefb ffff ffff ffff ffff     ................
 80011a0:	ffff ffff ffff ffff ffff ffff ffff ffff     ................
 80011b0:	ffff ffff ffff ffff ffff ffff ffff ffff     ................
 80011c0:	ffff ffff ffff ffff ffff ffff ffff ffff     ................
 80011d0:	ffff ffff ffff ffff ffff ffff ffff ffff     ................
 80011e0:	ffff ffff ffff ffff ffff ffff ffff ffff     ................
 80011f0:	7fff 1863 1803 784f 7f00 8f1f c0e7 9f0f     ..c...Ox........
 8001200:	ff7f dfff 0083 f000 fffe ffff ffff 0007     ................
 8001210:	fffc f17f ffff ffff ffff ffff ffff ffff     ................
 8001220:	ffff ffff ffff ffff ffff ffff ffff ffff     ................
 8001230:	ffff ffff ffff ffff ffff ffff ffff ffff     ................
 8001240:	ffff ffff ffff ffff ffff ffff ffff ffff     ................
 8001250:	ffff ffff ffff ffff ffff ffff ffff ffff     ................
 8001260:	ffff ff7f ffff ffff ffff ffff ffff f7ff     ................
 8001270:	000f ee6f 00dc 00c0 0000 0300 c7ef b1f0     ..o.............
 8001280:	8e97 f93d c8e0 3f1f ff7f 3f7f 00cf e07f     ..=....?...?....
 8001290:	ffff 7f00 ffff ffff ffff ffff ffff ffff     ................
 80012a0:	ffff ffff ffff ffff ffff ffff ffff ffff     ................
 80012b0:	ffff ffff ffff ffff ffff ffff ffff ffff     ................

080012c0 <IMG_DATA5>:
 80012c0:	ffff ffff ffff ffff ffff ffff ffff ffff     ................
 80012d0:	ffff ffff ffff ffff ffff ffff ffff ffff     ................
 80012e0:	ffff ffff ffff ffff ffff ffff 3ff3 ff0f     .............?..
 80012f0:	fbff fefd f3ff f3f3 f3f3 f7f7 efef fcfe     ................
 8001300:	e7d1 3fdf ffff ffff ffff ffff ffff ffff     ...?............
 8001310:	ffff ffff 3f7f f7fe fffd ffff ffff ffff     .....?..........
 8001320:	ffff ffff ffff ffff ffff ffff ffff ffff     ................
 8001330:	ffff ffff ffff ffff ffff ffff ffff ffff     ................
 8001340:	ffff ffff ffff ffff ffff ffff ffff ffff     ................
 8001350:	ffff ffff ffff ffff ffff ffff ffff ffff     ................
 8001360:	ffff ffff ffff ffff ffff ffff ffff f1f8     ................
 8001370:	ff3f ffff ffff ffff ffff ffff ffff ffff     ?...............
 8001380:	ffff dfff bedf 7d3f fd7d ffff ffff 7fff     ......?}}.......
 8001390:	dfbf fbef fffc ffff ffff ffff ffff 7f3f     ..............?.
 80013a0:	ffff ffff ffff ffff ffff ffff ffff ffff     ................
 80013b0:	ffff ffff ffff ffff ffff ffff ffff ffff     ................
 80013c0:	ffff ffff ffff ffff ffff ffff ffff ffff     ................
 80013d0:	ffff ffff ffff ffff ffff ffff ffff ffff     ................
 80013e0:	ffff ffff ffff ffff ffff ffff ffff 1fff     ................
 80013f0:	ff00 ffff ffff ffff ffff ffff ffff ffff     ................
 8001400:	ffff ffff ffff 3eff 0050 0101 0105 fc80     .......>P.......
 8001410:	ffff ffff ff80 ffff 037f ff0f ffff 00ff     ................
 8001420:	0300 ff6f ffff ffff ffff ffff ffff ffff     ..o.............
 8001430:	ffff ffff ffff ffff ffff ffff ffff ffff     ................
 8001440:	ffff ffff ffff ffff ffff ffff ffff ffff     ................
 8001450:	ffff ffff ffff ffff ffff ffff ffff ffff     ................
 8001460:	ffff ffff ffff ffff ffff ffff ffff c0ff     ................
 8001470:	1ffe ffff ffff ffff ffff ffff ffff ffff     ................
 8001480:	ffff ffff fdff 0306 0000 0000 f000 ffff     ................
 8001490:	ffff 07ff 0f1f 0107 0000 7f00 c79f e8e0     ................
 80014a0:	fdf4 ffff ffff ffff ffff ffff ffff ffff     ................
 80014b0:	ffff ffff ffff ffff ffff ffff ffff ffff     ................
 80014c0:	ffff ffff ffff ffff ffff ffff ffff ffff     ................
 80014d0:	ffff ffff ffff ffff ffff ffff ffff ffff     ................
 80014e0:	ffff ffff ffff ffff ffff ffff ffff ffff     ................
 80014f0:	fcc3 ff1f ff7f ffff ffff 7fff 5f7f bf7d     ............._}.
 8001500:	bfbf 3f3f ffbf 80c2 6040 f618 ffff ffff     ..??....@`......
 8001510:	7fff 0007 8000 f0e0 fcd8 fffe ffff ffff     ................
 8001520:	ffff ffff ffff ffff ffff ffff ffff ffff     ................
 8001530:	ffff ffff ffff ffff ffff ffff ffff ffff     ................
 8001540:	ffff ffff ffff ffff ffff ffff ffff ffff     ................
 8001550:	ffff ffff ffff ffff ffff ffff ffff ffff     ................
 8001560:	ffff ffff ffff ffff ffff ffff ffff fdff     ................
 8001570:	80f9 01cf 3ef0 3ec0 8e3e fefe 1efc fbf7     .....>.>>.......
 8001580:	ffff ffff 7fff 071f f080 fffe ffff 1fff     ................
 8001590:	c001 7cf0 fbff fffe ffff ffff ffff ffff     ...|............
 80015a0:	ffff ffff ffff ffff ffff ffff ffff ffff     ................
 80015b0:	ffff ffff ffff ffff ffff ffff ffff ffff     ................
 80015c0:	ffff ffff ffff ffff ffff ffff ffff ffff     ................
 80015d0:	ffff ffff ffff ffff ffff ffff ffff ffff     ................
 80015e0:	ffff ffff ffff ffff ffff ffff ffff ffff     ................
 80015f0:	1fff 1698 4610 1e13 1f00 e307 f0fb 6f03     .....F.........o
 8001600:	bfdf 777f 0021 fcc0 ffff ffff 3fff 00c1     ...w!........?..
 8001610:	ffff f83f ffff ffff ffff ffff ffff ffff     ..?.............
 8001620:	ffff ffff ffff ffff ffff ffff ffff ffff     ................
 8001630:	ffff ffff ffff ffff ffff ffff ffff ffff     ................
 8001640:	ffff ffff ffff ffff ffff ffff ffff ffff     ................
 8001650:	ffff ffff ffff ffff ffff ffff ffff ffff     ................
 8001660:	ffff 3f1f ff7f ffff ffff ffff ffff fdff     ...?............
 8001670:	0003 f71b 00f7 00f0 0000 0802 313b 2c2c     ............;1,,
 8001680:	6765 3e1f f078 8fc7 3f1f 0f1f 00e3 f01f     eg.>x....?......
 8001690:	ffff 3f00 ffff ffff ffff ffff ffff ffff     ...?............
 80016a0:	ffff ffff ffff ffff ffff ffff ffff ffff     ................
 80016b0:	ffff ffff ffff ffff ffff ffff ffff ffff     ................

080016c0 <IMG_DATA6>:
 80016c0:	ffff ffff ffff ffff ffff ffff ffff ffff     ................
 80016d0:	ffff ffff ffff ffff ffff ffff ffff ffff     ................
 80016e0:	ffff ffff ffff ffff ffff ffff cff8 7f03     ................
 80016f0:	feff ffff fdfd fcfc fcfc f9fd fbfb f7ff     ................
 8001700:	e9fc cff7 bfff 7fff ff7f ffff ffff ffff     ................
 8001710:	ffff ffff cf1f fdf7 ffff ffff ffff ffff     ................
 8001720:	ffff ffff ffff ffff ffff ffff ffff ffff     ................
 8001730:	ffff ffff ffff ffff ffff ffff ffff ffff     ................
 8001740:	ffff ffff ffff ffff ffff ffff ffff ffff     ................
 8001750:	ffff ffff ffff ffff ffff ffff ffff ffff     ................
 8001760:	ffff ffff ffff ffff ffff ffff ffff fcfe     ................
 8001770:	ff0f ffff ffff ffff ffff ffff ffff ffff     ................
 8001780:	ffff f7ff efff 9fcf 3f1f 7e7f ff7f 1f3f     .........?.~..?.
 8001790:	f7cf fcfb ff7f ffff ffff ffff ffff 1fcf     ................
 80017a0:	ff3f ffff ffff ffff ffff ffff ffff ffff     ?...............
 80017b0:	ffff ffff ffff ffff ffff ffff ffff ffff     ................
 80017c0:	ffff ffff ffff ffff ffff ffff ffff ffff     ................
 80017d0:	ffff ffff ffff ffff ffff ffff ffff ffff     ................
 80017e0:	ffff ffff ffff ffff ffff ffff ffff 07ff     ................
 80017f0:	ff80 ffff ffff ffff ffff ffff ffff ffff     ................
 8001800:	ffff ffff ffff dfbf 0014 0000 0001 ffe0     ................
 8001810:	ffff ffff ffe0 7fff 001f ff07 ffff 003f     ..............?.
 8001820:	4000 ffdb ffff ffff ffff ffff ffff ffff     .@..............
 8001830:	ffff ffff ffff ffff ffff ffff ffff ffff     ................
 8001840:	ffff ffff ffff ffff ffff ffff ffff ffff     ................
 8001850:	ffff ffff ffff ffff ffff ffff ffff ffff     ................
 8001860:	ffff ffff ffff ffff ffff ffff ffff f0ff     ................
 8001870:	07ff ffff ffff ffff ffff ffff ffff ff7f     ................
 8001880:	ffff ffff ffff 0081 0000 8000 fcc0 ffff     ................
 8001890:	ffff 01ff 0707 0001 0000 df80 f1e7 fef8     ................
 80018a0:	fffd ffff ffff ffff ffff ffff ffff ffff     ................
 80018b0:	ffff ffff ffff ffff ffff ffff ffff ffff     ................
 80018c0:	ffff ffff ffff ffff ffff ffff ffff ffff     ................
 80018d0:	ffff ffff ffff ffff ffff ffff ffff ffff     ................
 80018e0:	ffff ffff ffff ffff ffff ffff ffff ffff     ................
 80018f0:	3f70 7f47 ff1f bf1f bfbf bfbf 971f efdf     p?G.............
 8001900:	efef cfcf ffef e0f0 1810 f986 ffff ffff     ................
 8001910:	1fff 0001 e0c0 fcb0 fff6 ffff ffff ffff     ................
 8001920:	ffff ffff ffff ffff ffff ffff ffff ffff     ................
 8001930:	ffff ffff ffff ffff ffff ffff ffff ffff     ................
 8001940:	ffff ffff ffff ffff ffff ffff ffff ffff     ................
 8001950:	ffff ffff ffff ffff ffff ffff ffff ffff     ................
 8001960:	ffff ffff ffff ffff ffff ffff ffff ffff     ................
 8001970:	e0fe 8033 9f3c 9ff0 e30f ffff 07ff fefd     ..3.<...........
 8001980:	ffff ffff 1f7f 0107 fce0 ffff ffff 077f     ................
 8001990:	f0c0 1ffc ffff ffff ffff ffff ffff ffff     ................
 80019a0:	ffff ffff ffff ffff ffff ffff ffff ffff     ................
 80019b0:	ffff ffff ffff ffff ffff ffff ffff ffff     ................
 80019c0:	ffff ffff ffff ffff ffff ffff ffff ffff     ................
 80019d0:	ffff ffff ffff ffff ffff ffff ffff ffff     ................
 80019e0:	ffff ffff ffff ffff ffff ffff ffff 7fbf     ................
 80019f0:	07ff c5e4 1184 0f0c 070c 3081 78fe 1b00     ...........0.x..
 8001a00:	ef77 1dff 0000 fef0 ffff ffff 0fff 00f0     w...............
 8001a10:	ffff ff0f ffff ffff ffff ffff ffff ffff     ................
 8001a20:	ffff ffff ffff ffff ffff ffff ffff ffff     ................
 8001a30:	ffff ffff ffff ffff ffff ffff ffff ffff     ................
 8001a40:	ffff ffff ffff ffff ffff ffff ffff ffff     ................
 8001a50:	ffff ffff ffff ffff ffff ffff ffff 3fff     ...............?
 8001a60:	ffff 0f07 7f3f ffff ffff ffff ffff feff     ....?...........
 8001a70:	0000 3d06 00fd 00fc 0000 8280 8c8e 8a8b     ...=............
 8001a80:	191c 0f27 7c3e c7f1 4f8f 030f e03d fc8f     ..'.>|...O..=...
 8001a90:	ffff 0f80 ffff ffff ffff ffff ffff ffff     ................
 8001aa0:	ffff ffff ffff ffff ffff ffff ffff ffff     ................
 8001ab0:	ffff ffff ffff ffff ffff ffff ffff ffff     ................

08001ac0 <IMG_DATA7>:
 8001ac0:	ffff ffff ffff ffff ffff ffff ffff ffff     ................
 8001ad0:	ffff ffff ffff ffff ffff ffff ffff ffff     ................
 8001ae0:	ffff ffff ffff ffff ffff ffff e3fe 1f80     ................
 8001af0:	ffff ffff ffff ffff ffff feff fefe fdfd     ................
 8001b00:	faff f7fd ffef dfdf bfff bfbf ffff ffff     ................
 8001b10:	ffff 3fff e3c7 fffd ffff ffff ffff ffff     ...?............
 8001b20:	ffff ffff ffff ffff ffff ffff ffff ffff     ................
 8001b30:	ffff ffff ffff ffff ffff ffff ffff ffff     ................
 8001b40:	ffff ffff ffff ffff ffff ffff ffff ffff     ................
 8001b50:	ffff ffff ffff ffff ffff ffff ffff ffff     ................
 8001b60:	ffff ffff ffff ffff ffff ffff ffff ffff     ................
 8001b70:	ff03 ffff ffff ffff ffff ffff ffff ffff     ................
 8001b80:	ffff fffd fbfb c7f7 0f0f 1f1f 3f5f 8f1f     ............_?..
 8001b90:	fbf7 fffe ff1f ffff 3fff ffff ffff 0ff7     .........?......
 8001ba0:	3f0f ffff ffff ffff ffff ffff ffff ffff     .?..............
 8001bb0:	ffff ffff ffff ffff ffff ffff ffff ffff     ................
 8001bc0:	ffff ffff ffff ffff ffff ffff ffff ffff     ................
 8001bd0:	ffff ffff ffff ffff ffff ffff ffff ffff     ................
 8001be0:	ffff ffff ffff ffff ffff ffff ffff 03ff     ................
 8001bf0:	ffc0 ffff ffff ffff ffff ffff ffff ffff     ................
 8001c00:	ffff ffff ffff 376f 0005 0000 0000 fff8     ......o7........
 8001c10:	ffff ffff fff0 1f7f 0007 ff01 ffff 000f     ................
 8001c20:	b040 ffe7 ffff ffff ffff ffff ffff ffff     @...............
 8001c30:	ffff ffff ffff ffff ffff ffff ffff ffff     ................
 8001c40:	ffff ffff ffff ffff ffff ffff ffff ffff     ................
 8001c50:	ffff ffff ffff ffff ffff ffff ffff ffff     ................
 8001c60:	ffff ffff ffff ffff ffff ffff ffff fcff     ................
 8001c70:	813f ffff ffff ffff ffff ffff ffff ffdf     ?...............
 8001c80:	ffff ffff ffff 0040 0000 6080 fff0 ffff     ......@....`....
 8001c90:	ffff 007f 0105 0000 c080 f770 fcfb fdfa     ..........p.....
 8001ca0:	ffff ffff ffff ffff ffff ffff ffff ffff     ................
 8001cb0:	ffff ffff ffff ffff ffff ffff ffff ffff     ................
 8001cc0:	ffff ffff ffff ffff ffff ffff ffff ffff     ................
 8001cd0:	ffff ffff ffff ffff ffff ffff ffff ffff     ................
 8001ce0:	ffff ffff ffff ffff ffff ffff ffff bfff     ................
 8001cf0:	0fd8 1fd1 df07 cf07 efcf efef e5cf bf77     ..............w.
 8001d00:	f3f7 f7f3 fbfb f8f8 0400 fee1 ffff ffff     ................
 8001d10:	073f c000 b8e0 f6fc feff ffff ffff ffff     ?...............
 8001d20:	ffff ffff ffff ffff ffff ffff ffff ffff     ................
 8001d30:	ffff ffff ffff ffff ffff ffff ffff ffff     ................
 8001d40:	ffff ffff ffff ffff ffff ffff ffff ffff     ................
 8001d50:	ffff ffff ffff ffff ffff ffff ffff ffff     ................
 8001d60:	ffff ffff ffff ffff ffff ffff ffff ffff     ................
 8001d70:	f8ff e01d e71e e778 f907 7fff 013f ff3f     ......x.....?.?.
 8001d80:	ffff 7fff 071f 8001 fff8 ffff ffff 013f     ..............?.
 8001d90:	fce0 8fff ffff ffff ffff ffff ffff ffff     ................
 8001da0:	ffff ffff ffff ffff ffff ffff ffff ffff     ................
 8001db0:	ffff ffff ffff ffff ffff ffff ffff ffff     ................
 8001dc0:	ffff ffff ffff ffff ffff ffff ffff ffff     ................
 8001dd0:	ffff ffff ffff ffff ffff ffff ffff ffff     ................
 8001de0:	ffff ffff ffff ffff ffff ffff ffff 9fef     ................
 8001df0:	833f 7139 0061 0b03 0102 0c00 9e3f a4c0     ?.9qa.......?...
 8001e00:	7f3d c7ef 0084 fffc ffff ffff 077f 00f8     =...............
 8001e10:	ffff ff03 ffff ffff ffff ffff ffff ffff     ................
 8001e20:	ffff ffff ffff ffff ffff ffff ffff ffff     ................
 8001e30:	ffff ffff ffff ffff ffff ffff ffff ffff     ................
 8001e40:	ffff ffff ffff ffff ffff ffff ffff ffff     ................
 8001e50:	ffff ffff ffff ffff ffff ffff ffff 0fff     ................
 8001e60:	ffff 0381 1f0f 7f3f ffff ffff ffff ffff     ......?.........
 8001e70:	0000 0f01 0007 00fe 8000 e0c0 c3c3 c7c2     ................
 8001e80:	c4c7 c3c9 9e8f 713c 23c3 01c3 f01e 3fc3     ......<q.#.....?
 8001e90:	ffff 07e0 ff7f ffff ffff ffff ffff ffff     ................
 8001ea0:	ffff ffff ffff ffff ffff ffff ffff ffff     ................
 8001eb0:	ffff ffff ffff ffff ffff ffff ffff ffff     ................

08001ec0 <IMG_DATA8>:
 8001ec0:	ffff ffff ffff ffff ffff ffff ffff ffff     ................
 8001ed0:	ffff ffff ffff ffff ffff ffff ffff ffff     ................
 8001ee0:	ffff ffff ffff ffff ffff ffff f8ff c7c0     ................
 8001ef0:	ffff ffff ffff ffff ffff ffff ffff ffff     ................
 8001f00:	fffe fdfc fffb f7f7 efef efef ffff ffff     ................
 8001f10:	ffff cf3f e8f3 ffff ffff ffff ffff ffff     ..?.............
 8001f20:	ffff ffff ffff ffff ffff ffff ffff ffff     ................
 8001f30:	ffff ffff ffff ffff ffff ffff ffff ffff     ................
 8001f40:	ffff ffff ffff ffff ffff ffff ffff ffff     ................
 8001f50:	ffff ffff ffff ffff ffff ffff ffff ffff     ................
 8001f60:	ffff ffff ffff ffff ffff ffff ffff 7fff     ................
 8001f70:	ff00 ffff ffff ffff ffff ffff ffff ffff     ................
 8001f80:	ffff ffff fefe f1fd 0303 0707 0f17 e307     ................
 8001f90:	fefd ffff ff07 ffff 1fff ff7f ffff 03f9     ................
 8001fa0:	0f07 ff7f ffff ffff ffff ffff ffff ffff     ................
 8001fb0:	ffff ffff ffff ffff ffff ffff ffff ffff     ................
 8001fc0:	ffff ffff ffff ffff ffff ffff ffff ffff     ................
 8001fd0:	ffff ffff ffff ffff ffff ffff ffff ffff     ................
 8001fe0:	ffff ffff ffff ffff ffff ffff ffff 00ff     ................
 8001ff0:	fff0 ffff ffff ffff ffff ffff ffff ffff     ................
 8002000:	ffff ffff ffff 0d1f 0001 0000 c000 fffe     ................
 8002010:	ffff 3fff 7f7c 071f 0001 ff00 3fff 4083     ...?|........?.@
 8002020:	ecb0 fff9 ffff ffff ffff ffff ffff ffff     ................
 8002030:	ffff ffff ffff ffff ffff ffff ffff ffff     ................
 8002040:	ffff ffff ffff ffff ffff ffff ffff ffff     ................
 8002050:	ffff ffff ffff ffff ffff ffff ffff ffff     ................
 8002060:	ffff ffff ffff ffff ffff ffff ffff feff     ................
 8002070:	e00f ff7f ffff ffff ffff ffff 7fff fff7     ................
 8002080:	ffff ffff ffff 0010 0000 9860 fff8 ffff     ..........`.....
 8002090:	ffff 001f 0001 8000 b0c0 fdd8 fffe fffe     ................
 80020a0:	ffff ffff ffff ffff ffff ffff ffff ffff     ................
 80020b0:	ffff ffff ffff ffff ffff ffff ffff ffff     ................
 80020c0:	ffff ffff ffff ffff ffff ffff ffff ffff     ................
 80020d0:	ffff ffff ffff ffff ffff ffff ffff ffff     ................
 80020e0:	ffff ffff ffff ffff ffff ffff ffff efff     ................
 80020f0:	93fe 0774 f7c1 f303 7bf3 fbfb f9f3 fffd     ..t......{......
 8002100:	fcfd fdfc fefe 3e7e c100 fff0 ffff ffff     ......~>........
 8002110:	010f f0c0 fef8 fdff ffff ffff ffff ffff     ................
 8002120:	ffff ffff ffff ffff ffff ffff ffff ffff     ................
 8002130:	ffff ffff ffff ffff ffff ffff ffff ffff     ................
 8002140:	ffff ffff ffff ffff ffff ffff ffff ffff     ................
 8002150:	ffff ffff ffff ffff ffff ffff ffff ffff     ................
 8002160:	ffff ffff ffff ffff ffff ffff ffff ffff     ................
 8002170:	ffff 70c7 3143 f99e fe41 1f3f 80cf 3f1f     ...pC1..A.?....?
 8002180:	ff7f dfff 0107 e000 fffc ffff ffff 000f     ................
 8002190:	fff8 e3ff ffff ffff ffff ffff ffff ffff     ................
 80021a0:	ffff ffff ffff ffff ffff ffff ffff ffff     ................
 80021b0:	ffff ffff ffff ffff ffff ffff ffff ffff     ................
 80021c0:	ffff ffff ffff ffff ffff ffff ffff ffff     ................
 80021d0:	ffff ffff ffff ffff ffff ffff ffff ffff     ................
 80021e0:	ffff ff7f ffff ffff ffff ffff ffff e7ff     ................
 80021f0:	200f dc4e 00d8 0080 0000 0700 a7cf e9f0     . N.............
 8002200:	1d4e f77b 80e1 7f3f ffff 7fff 019f c0fe     N.{...?.........
 8002210:	ffff ff00 ffff ffff ffff ffff ffff ffff     ................
 8002220:	ffff ffff ffff ffff ffff ffff ffff ffff     ................
 8002230:	ffff ffff ffff ffff ffff ffff ffff ffff     ................
 8002240:	ffff ffff ffff ffff ffff ffff ffff ffff     ................
 8002250:	ffff ffff ffff ffff ffff ffff ffff c7ff     ................
 8002260:	ff7f 00e0 0703 1f0f 7f3f ffff ffff ffff     ........?.......
 8002270:	0000 0700 003f 803f e0c0 b0f0 f0b0 f1f0     ....?.?.........
 8002280:	f1f1 e1f2 67e3 3ccf c070 c030 fc07 9ff0     .....g.<p.0.....
 8002290:	ffff 01f8 ff9f ffff ffff ffff ffff ffff     ................
 80022a0:	ffff ffff ffff ffff ffff ffff ffff ffff     ................
 80022b0:	ffff ffff ffff ffff ffff ffff ffff ffff     ................

080022c0 <IMG_DATA9>:
 80022c0:	ffff ffff ffff ffff ffff ffff ffff ffff     ................
 80022d0:	ffff ffff ffff ffff ffff ffff ffff ffff     ................
 80022e0:	ffff ffff ffff ffff ffff ffff feff e3f0     ................
 80022f0:	f77f ffff ffff ffff ffff ffff ffff ffff     ................
 8002300:	ffff ffff fdbe 7d7f fbfb ffff ffff ffff     .......}........
 8002310:	bf7f f3cf fafc ffff ffff ffff bfff ff7f     ................
 8002320:	ffff ffff ffff ffff ffff ffff ffff ffff     ................
 8002330:	ffff ffff ffff ffff ffff ffff ffff ffff     ................
 8002340:	ffff ffff ffff ffff ffff ffff ffff ffff     ................
 8002350:	ffff ffff ffff ffff ffff ffff ffff ffff     ................
 8002360:	ffff ffff ffff ffff ffff ffff ffff 1fff     ................
 8002370:	ff00 ffff ffff ffff ffff ffff ffff ffff     ................
 8002380:	ffff ffff ffff 7cff 00a0 0341 0307 f881     .......|..A.....
 8002390:	ffff ffff ff01 ffff 077f ff1f ffff 00fe     ................
 80023a0:	0301 ff5f ffff ffff ffff ffff ffff ffff     .._.............
 80023b0:	ffff ffff ffff ffff ffff ffff ffff ffff     ................
 80023c0:	ffff ffff ffff ffff ffff ffff ffff ffff     ................
 80023d0:	ffff ffff ffff ffff ffff ffff ffff ffff     ................
 80023e0:	ffff ffff ffff ffff ffff ffff ffff 80ff     ................
 80023f0:	1ffc ffff ffff ffff ffff ffff ffff ffff     ................
 8002400:	ffff ffff ffff 0605 0000 0000 f000 ffff     ................
 8002410:	ffff 0fff 1f7f 0307 0000 ff00 8f3f d0a0     ............?...
 8002420:	faec fffe ffff ffff ffff ffff ffff ffff     ................
 8002430:	ffff ffff ffff ffff ffff ffff ffff ffff     ................
 8002440:	ffff ffff ffff ffff ffff ffff ffff ffff     ................
 8002450:	ffff ffff ffff ffff ffff ffff ffff ffff     ................
 8002460:	ffff ffff ffff ffff ffff ffff ffff ffff     ................
 8002470:	f887 ff1f ffff ffff ffff ffff bfff 7f7b     ..............{.
 8002480:	7f7f 7f7f bfff 80c4 4000 e418 fffe ffff     .........@......
 8002490:	7fff 0007 0000 60c0 f8b0 fef4 ffff ffff     .......`........
 80024a0:	ffff ffff ffff ffff ffff ffff ffff ffff     ................
 80024b0:	ffff ffff ffff ffff ffff ffff ffff ffff     ................
 80024c0:	ffff ffff ffff ffff ffff ffff ffff ffff     ................
 80024d0:	ffff ffff ffff ffff ffff ffff ffff ffff     ................
 80024e0:	ffff ffff ffff ffff ffff ffff ffff fbff     ................
 80024f0:	84f7 03dc 7de0 7d80 9d7c fcff 3ef8 ffef     .....}.}|....>..
 8002500:	ffff ffff 7fff 0f3f f000 fffc ffff 3fff     ......?........?
 8002510:	c003 f8f0 fffe fffd ffff ffff ffff ffff     ................
 8002520:	ffff ffff ffff ffff ffff ffff ffff ffff     ................
 8002530:	ffff ffff ffff ffff ffff ffff ffff ffff     ................
 8002540:	ffff ffff ffff ffff ffff ffff ffff ffff     ................
 8002550:	ffff ffff ffff ffff ffff ffff ffff ffff     ................
 8002560:	ffff ffff ffff ffff ffff ffff ffff ffff     ................
 8002570:	3fff 0cb1 0c00 3827 3f00 c70f e0f3 cf07     .?....'8.?......
 8002580:	7fbf efff 0041 f880 ffff ffff 7fff 0083     ....A...........
 8002590:	fffe f83f ffff ffff ffff ffff ffff ffff     ..?.............
 80025a0:	ffff ffff ffff ffff ffff ffff ffff ffff     ................
 80025b0:	ffff ffff ffff ffff ffff ffff ffff ffff     ................
 80025c0:	ffff ffff ffff ffff ffff ffff ffff ffff     ................
 80025d0:	ffff ffff ffff ffff ffff ffff ffff ffff     ................
 80025e0:	ffff 7f1f ffff ffff ffff ffff ffff fbff     ................
 80025f0:	0807 f737 006e 00e0 0000 0100 2337 5878     ..7.n.......7#xX
 8002600:	cf4b 7d9e e4f0 1f8f 3fbf 1f3f 00e7 f03f     K..}.....??...?.
 8002610:	ffff 7f00 ffff ffff ffff ffff ffff ffff     ................
 8002620:	ffff ffff ffff ffff ffff ffff ffff ffff     ................
 8002630:	ffff ffff ffff ffff ffff ffff ffff ffff     ................
 8002640:	ffff ffff ffff ffff ffff ffff ffff ffff     ................
 8002650:	ffff ffff ffff ffff ffff ffff ffff f1ff     ................
 8002660:	3fdf 80f0 0300 0f07 1f0f 7f3f ffff ffff     .?........?.....
 8002670:	0000 0100 8014 e0df f8f0 ecbc dcec dcdc     ................
 8002680:	fcfc b838 7998 8f67 721c 60c8 7fc3 e7fc     ..8..yg..r.`....
 8002690:	ffff 80fe bf27 ffff ffff ffff ffff ffff     ....'...........
 80026a0:	ffff ffff ffff ffff ffff ffff ffff ffff     ................
 80026b0:	ffff ffff ffff ffff ffff ffff ffff ffff     ................

080026c0 <IMG_DATA10>:
 80026c0:	ffff ffff ffff ffff ffff ffff ffff ffff     ................
 80026d0:	ffff ffff ffff ffff ffff ffff ffff ffff     ................
 80026e0:	ffff ffff ffff ffff ffff ffff ffff f8fc     ................
 80026f0:	ff1f ffff ffff ffff ffff ffff ffff ffff     ................
 8002700:	ffff efff dfef 3e9f 7f3e ffff ffff 3f7f     .......>>......?
 8002710:	efdf fdf7 fe7e ffbf ffff ffff efff 3f9f     ....~..........?
 8002720:	ff7f ffff ffff ffff ffff ffff ffff ffff     ................
 8002730:	ffff ffff ffff ffff ffff ffff ffff ffff     ................
 8002740:	ffff ffff ffff ffff ffff ffff ffff ffff     ................
 8002750:	ffff ffff ffff ffff ffff ffff ffff ffff     ................
 8002760:	ffff ffff ffff ffff ffff ffff ffff 07ff     ................
 8002770:	ff00 ffff ffff ffff ffff ffff ffff ffff     ................
 8002780:	ffff ffff ffff 9f7f 0028 0000 0102 fec0     ........(.......
 8002790:	ffff ffff ffc0 ffff 013f ff07 ffff 007f     ........?.......
 80027a0:	8100 ff9f ffff ffff ffff ffff ffff ffff     ................
 80027b0:	ffff ffff ffff ffff ffff ffff ffff ffff     ................
 80027c0:	ffff ffff ffff ffff ffff ffff ffff ffff     ................
 80027d0:	ffff ffff ffff ffff ffff ffff ffff ffff     ................
 80027e0:	ffff ffff ffff ffff ffff ffff ffff e0ff     ................
 80027f0:	0fff ffff ffff ffff ffff ffff ffff ffff     ................
 8002800:	ffff ffff ffff 0103 0000 0000 fc80 ffff     ................
 8002810:	ffff 03ff 070f 0003 0000 bf00 e3cf f4e0     ................
 8002820:	fefa ffff ffff ffff ffff ffff ffff ffff     ................
 8002830:	ffff ffff ffff ffff ffff ffff ffff ffff     ................
 8002840:	ffff ffff ffff ffff ffff ffff ffff ffff     ................
 8002850:	ffff ffff ffff ffff ffff ffff ffff ffff     ................
 8002860:	ffff ffff ffff ffff ffff ffff ffff ffff     ................
 8002870:	3ee0 ff8f 7f3f 7f3f 7f7f 3f7f 2f3f dfbe     .>..?.?....??/..
 8002880:	dfdf 9f9f ffdf c0f1 3020 f90e ffff ffff     ........ 0......
 8002890:	3fff 0001 c080 d860 feec ffff ffff ffff     .?....`.........
 80028a0:	ffff ffff ffff ffff ffff ffff ffff ffff     ................
 80028b0:	ffff ffff ffff ffff ffff ffff ffff ffff     ................
 80028c0:	ffff ffff ffff ffff ffff ffff ffff ffff     ................
 80028d0:	ffff ffff ffff ffff ffff ffff ffff ffff     ................
 80028e0:	ffff ffff ffff ffff ffff ffff ffff feff     ................
 80028f0:	e0fc 007f 1f78 1fe0 c71f ffff 0ffe fdfb     ....x...........
 8002900:	ffff ffff 3fff 030f f8c0 ffff ffff 0fff     .....?..........
 8002910:	e080 3ef8 fdff ffff ffff ffff ffff ffff     ...>............
 8002920:	ffff ffff ffff ffff ffff ffff ffff ffff     ................
 8002930:	ffff ffff ffff ffff ffff ffff ffff ffff     ................
 8002940:	ffff ffff ffff ffff ffff ffff ffff ffff     ................
 8002950:	ffff ffff ffff ffff ffff ffff ffff ffff     ................
 8002960:	ffff ffff ffff ffff ffff ffff ffff ffff     ................
 8002970:	0fff 8bc8 2388 0f09 0f00 7103 f8fd 3701     .....#.....q...7
 8002980:	dfef 3bbf 0010 fee0 ffff ffff 1fff 00e0     ...;............
 8002990:	ffff fe1f ffff ffff ffff ffff ffff ffff     ................
 80029a0:	ffff ffff ffff ffff ffff ffff ffff ffff     ................
 80029b0:	ffff ffff ffff ffff ffff ffff ffff ffff     ................
 80029c0:	ffff ffff ffff ffff ffff ffff ffff ffff     ................
 80029d0:	ffff ffff ffff ffff ffff ffff ffff 7fff     ................
 80029e0:	ffff 1f07 ff7f ffff ffff ffff ffff feff     ................
 80029f0:	0001 7b0d 001b 00f8 0000 0401 181d 1616     ...{............
 8002a00:	3330 1e07 f83c c7e3 9f0f 071f c0fb f80f     03..<...........
 8002a10:	ffff 3f00 ffff ffff ffff ffff ffff ffff     ...?............
 8002a20:	ffff ffff ffff ffff ffff ffff ffff ffff     ................
 8002a30:	ffff ffff ffff ffff ffff ffff ffff ffff     ................
 8002a40:	ffff ffff ffff ffff ffff ffff ffff ffff     ................
 8002a50:	ffff ffff ffff ffff ffff ffff ffff fcff     ................
 8002a60:	dff7 60bc 40c0 0381 0f07 1f0f 7f3f ff7f     ...`.@......?...
 8002a70:	0080 0000 c000 f8f7 fefc ffff f7fb f7f7     ................
 8002a80:	deff 0ede 2c2e 6339 1c87 d826 9fe0 f9ff     .....,9c..&.....
 8002a90:	ffff e0ff ef0b ffbf ffff ffff ffff ffff     ................
 8002aa0:	ffff ffff ffff ffff ffff ffff ffff ffff     ................
 8002ab0:	ffff ffff ffff ffff ffff ffff ffff ffff     ................

08002ac0 <IMG_DATA11>:
 8002ac0:	ffff ffff ffff ffff ffff ffff ffff ffff     ................
 8002ad0:	ffff ffff ffff ffff ffff ffff ffff ffff     ................
 8002ae0:	ffff ffff ffff ffff ffff ffff ffff fefe     ................
 8002af0:	ff07 ffff ffff ffff ffff ffff ffff ffff     ................
 8002b00:	ffff fffb f7f7 8fe7 1f0f 3f3f 7fbf 1f3f     ..........??..?.
 8002b10:	f7ef fefd ff3f ffff 7fff ffff ffff 1fcf     ....?...........
 8002b20:	7f1f ffff ffff ffff ffff ffff ffff ffff     ................
 8002b30:	ffff ffff ffff ffff ffff ffff ffff ffff     ................
 8002b40:	ffff ffff ffff ffff ffff ffff ffff ffff     ................
 8002b50:	ffff ffff ffff ffff ffff ffff ffff ffff     ................
 8002b60:	ffff ffff ffff ffff ffff ffff ffff 03ff     ................
 8002b70:	ffc0 ffff ffff ffff ffff ffff ffff ffff     ................
 8002b80:	ffff ffff ffff 6fdf 000a 0000 0000 fff0     .......o........
 8002b90:	ffff ffff ffe0 3fff 000f ff03 ffff 001f     .......?........
 8002ba0:	e080 ffcf ffff ffff ffff ffff ffff ffff     ................
 8002bb0:	ffff ffff ffff ffff ffff ffff ffff ffff     ................
 8002bc0:	ffff ffff ffff ffff ffff ffff ffff ffff     ................
 8002bd0:	ffff ffff ffff ffff ffff ffff ffff ffff     ................
 8002be0:	ffff ffff ffff ffff ffff ffff ffff f0ff     ................
 8002bf0:	037f ffff ffff ffff ffff ffff ffff ffbf     ................
 8002c00:	ffff ffff ffff 0080 0000 c000 fee0 ffff     ................
 8002c10:	ffff 01ff 030b 0000 8000 efe0 f9f7 fef4     ................
 8002c20:	fffe ffff ffff ffff ffff ffff ffff ffff     ................
 8002c30:	ffff ffff ffff ffff ffff ffff ffff ffff     ................
 8002c40:	ffff ffff ffff ffff ffff ffff ffff ffff     ................
 8002c50:	ffff ffff ffff ffff ffff ffff ffff ffff     ................
 8002c60:	ffff ffff ffff ffff ffff ffff ffff 7fff     ................
 8002c70:	9fb0 3fa3 bf0f 9f1f df9f dfdf cb9f ffef     ...?............
 8002c80:	e7ef efe7 fff7 f0f0 0800 fcc3 ffff ffff     ................
 8002c90:	0f7f 8000 70c0 ecf8 fdfb ffff ffff ffff     .....p..........
 8002ca0:	ffff ffff ffff ffff ffff ffff ffff ffff     ................
 8002cb0:	ffff ffff ffff ffff ffff ffff ffff ffff     ................
 8002cc0:	ffff ffff ffff ffff ffff ffff ffff ffff     ................
 8002cd0:	ffff ffff ffff ffff ffff ffff ffff ffff     ................
 8002ce0:	ffff ffff ffff ffff ffff ffff ffff ffff     ................
 8002cf0:	f0ff c01b cf1c 0ff0 f30f ffff 037f ff7e     ..............~.
 8002d00:	ffff ffff 0f3f 0103 fee0 ffff ffff 037f     ....?...........
 8002d10:	f8c0 1ffe ffff ffff ffff ffff ffff ffff     ................
 8002d20:	ffff ffff ffff ffff ffff ffff ffff ffff     ................
 8002d30:	ffff ffff ffff ffff ffff ffff ffff ffff     ................
 8002d40:	ffff ffff ffff ffff ffff ffff ffff ffff     ................
 8002d50:	ffff ffff ffff ffff ffff ffff ffff ffff     ................
 8002d60:	ffff ffff ffff ffff ffff ffff ffff 3fdf     ...............?
 8002d70:	037f e272 01c2 0706 0300 3801 3c7e 4980     ..r........8~<.I
 8002d80:	ff7b acdf 0008 fff8 ffff ffff 0fff 00f0     {...............
 8002d90:	ffff ff07 ffff ffff ffff ffff ffff ffff     ................
 8002da0:	ffff ffff ffff ffff ffff ffff ffff ffff     ................
 8002db0:	ffff ffff ffff ffff ffff ffff ffff ffff     ................
 8002dc0:	ffff ffff ffff ffff ffff ffff ffff ffff     ................
 8002dd0:	ffff ffff ffff ffff ffff ffff ffff 3fff     ...............?
 8002de0:	ffff 0703 3f1f ff7f ffff ffff ffff ffff     .....?..........
 8002df0:	0100 1e02 00c6 00fc 0000 8080 8787 8f85     ................
 8002e00:	888e 8793 3c1f e379 0787 0387 e07c 7e87     .....<y.....|..~
 8002e10:	ffff 0fc0 ffff ffff ffff ffff ffff ffff     ................
 8002e20:	ffff ffff ffff ffff ffff ffff ffff ffff     ................
 8002e30:	ffff ffff ffff ffff ffff ffff ffff ffff     ................
 8002e40:	ffff ffff ffff ffff ffff ffff ffff ffff     ................
 8002e50:	ffff ffff ffff ffff ffff ffff ffff ffff     ................
 8002e60:	f7f9 d8ef 40a0 c060 8381 0f07 1f0f 7f3f     .....@`.......?.
 8002e70:	00e0 0000 f041 fcf9 ff7e fdf7 ffbf fdff     ....A...~.......
 8002e80:	f7ff 07c7 0b03 180e 2623 2e99 cff8 fc3f     ........#&....?.
 8002e90:	ffff f0ff 3382 7fdf ffff ffff ffff ffff     .....3..........
 8002ea0:	ffff ffff ffff ffff ffff ffff ffff ffff     ................
 8002eb0:	ffff ffff ffff ffff ffff ffff ffff ffff     ................

08002ec0 <IMG_DATA12>:
 8002ec0:	ffff ffff ffff ffff ffff ffff ffff ffff     ................
 8002ed0:	ffff ffff ffff ffff ffff ffff ffff ffff     ................
 8002ee0:	ffff ffff ffff ffff ffff ffff ffff ffff     ................
 8002ef0:	ff01 ffff ffff ffff ffff ffff ffff ffff     ................
 8002f00:	ffff ffff fdfd e3fb 0707 1f0f 1f3f c70f     ............?...
 8002f10:	fdfb fffe ff0f ffff 3fff ffff fdff 07f3     .........?......
 8002f20:	1f0f ffff ffff ffff ffff ffff ffff ffff     ................
 8002f30:	ffff ffff ffff ffff ffff ffff ffff ffff     ................
 8002f40:	ffff ffff ffff ffff ffff ffff ffff ffff     ................
 8002f50:	ffff ffff ffff ffff ffff ffff ffff ffff     ................
 8002f60:	ffff ffff ffff ffff ffff ffff ffff 00ff     ................
 8002f70:	ffe0 ffff ffff ffff ffff ffff ffff ffff     ................
 8002f80:	ffff ffff ffff 3b2f 0007 0000 8000 fffc     ....../;........
 8002f90:	ffff 7fff fff0 1f3f 0007 ff00 7fff 800f     ......?.........
 8002fa0:	d860 fff2 ffff ffff ffff ffff ffff ffff     `...............
 8002fb0:	ffff ffff ffff ffff ffff ffff ffff ffff     ................
 8002fc0:	ffff ffff ffff ffff ffff ffff ffff ffff     ................
 8002fd0:	ffff ffff ffff ffff ffff ffff ffff ffff     ................
 8002fe0:	ffff ffff ffff ffff ffff ffff ffff fcff     ................
 8002ff0:	c03f ffff ffff ffff ffff ffff ffff ffcf     ?...............
 8003000:	ffff ffff ffff 0020 0000 20c0 fff0 ffff     ...... .... ....
 8003010:	ffff 003f 0003 0000 c080 f7a0 fefd fefd     ..?.............
 8003020:	ffff ffff ffff ffff ffff ffff ffff ffff     ................
 8003030:	ffff ffff ffff ffff ffff ffff ffff ffff     ................
 8003040:	ffff ffff ffff ffff ffff ffff ffff ffff     ................
 8003050:	ffff ffff ffff ffff ffff ffff ffff ffff     ................
 8003060:	ffff ffff ffff ffff ffff ffff ffff dfff     ................
 8003070:	27bc 1fe1 ef03 ef07 efe7 f7ff f4c7 fb7b     .'............{.
 8003080:	fbfb fbfb fdff 7cfe 0200 ffe0 ffff ffff     .......|........
 8003090:	031f c080 f8f0 fbee fffd ffff ffff ffff     ................
 80030a0:	ffff ffff ffff ffff ffff ffff ffff ffff     ................
 80030b0:	ffff ffff ffff ffff ffff ffff ffff ffff     ................
 80030c0:	ffff ffff ffff ffff ffff ffff ffff ffff     ................
 80030d0:	ffff ffff ffff ffff ffff ffff ffff ffff     ................
 80030e0:	ffff ffff ffff ffff ffff ffff ffff ffff     ................
 80030f0:	fcff 608e 630f e33c f803 3f7f 019f 7f3f     ...`.c<....?..?.
 8003100:	ffff 7fff 030f c001 fff8 ffff ffff 011f     ................
 8003110:	fef0 c7ff ffff ffff ffff ffff ffff ffff     ................
 8003120:	ffff ffff ffff ffff ffff ffff ffff ffff     ................
 8003130:	ffff ffff ffff ffff ffff ffff ffff ffff     ................
 8003140:	ffff ffff ffff ffff ffff ffff ffff ffff     ................
 8003150:	ffff ffff ffff ffff ffff ffff ffff ffff     ................
 8003160:	ffff ffff ffff ffff ffff ffff ffff dfff     ................
 8003170:	413f b8bd 0070 0101 0100 0e00 0fbf c6c0     ?A..p...........
 8003180:	7b5d eff7 0082 ff7c ffff ffff 033f 80fc     ]{....|.....?...
 8003190:	ffff ff01 ffff ffff ffff ffff ffff ffff     ................
 80031a0:	ffff ffff ffff ffff ffff ffff ffff ffff     ................
 80031b0:	ffff ffff ffff ffff ffff ffff ffff ffff     ................
 80031c0:	ffff ffff ffff ffff ffff ffff ffff ffff     ................
 80031d0:	ffff ffff ffff ffff ffff ffff ffff cfff     ................
 80031e0:	ffff 0380 1f07 7f3f ff7f ffff ffff ffff     ......?.........
 80031f0:	0000 0f01 0031 00ff c080 60e0 e161 e3e3     ....1......`a...
 8003200:	e6e2 c3e4 cfc7 781c 91e5 0041 f81f 3fe1     .......x..A....?
 8003210:	ffff 03f0 ff3f ffff ffff ffff ffff ffff     ....?...........
 8003220:	ffff ffff ffff ffff ffff ffff ffff ffff     ................
 8003230:	ffff ffff ffff ffff ffff ffff ffff ffff     ................
 8003240:	ffff ffff ffff ffff ffff ffff ffff ffff     ................
 8003250:	ffff ffff ffff ffff ffff ffff ffff ffff     ................
 8003260:	fdfe eef7 e8f8 20d0 c060 83c1 0f87 1f0f     ....... `.......
 8003270:	0030 8000 3c20 bf3e 7f3f ff7d feff ffff     0... <>.?.}.....
 8003280:	fbff 05f1 0301 cc03 0198 9b26 f37c 7f9f     ..........&.|...
 8003290:	ffff fcff 1de1 9ff7 ffff ffff ffff ffff     ................
 80032a0:	ffff ffff ffff ffff ffff ffff ffff ffff     ................
 80032b0:	ffff ffff ffff ffff ffff ffff ffff ffff     ................

080032c0 <IMG_DATA13>:
 80032c0:	ffff ffff ffff ffff ffff ffff ffff ffff     ................
 80032d0:	ffff ffff ffff ffff ffff ffff ffff ffff     ................
 80032e0:	ffff ffff ffff ffff ffff ffff ffff 7fff     ................
 80032f0:	ff00 ffff ffff ffff ffff ffff ffff ffff     ................
 8003300:	ffff ffff feff f9fc 0341 0707 0f17 f103     ........A.......
 8003310:	fffc ffff ff07 ffff 0fff ff3f ffff 01fc     ..........?.....
 8003320:	0f03 ffbf ffff ffff ffff ffff ffff ffff     ................
 8003330:	ffff ffff ffff ffff ffff ffff ffff ffff     ................
 8003340:	ffff ffff ffff ffff ffff ffff ffff ffff     ................
 8003350:	ffff ffff ffff ffff ffff ffff ffff ffff     ................
 8003360:	ffff ffff ffff ffff ffff ffff ffff 00ff     ................
 8003370:	7ff0 ffff ffff ffff ffff ffff ffff ffff     ................
 8003380:	ffff ffff f7ff 0d1b 0001 0000 e000 fffe     ................
 8003390:	ffff 3fff 7f7e 071f 0001 ff00 1f7f a083     ...?~...........
 80033a0:	f4d0 fffd ffff ffff ffff ffff ffff ffff     ................
 80033b0:	ffff ffff ffff ffff ffff ffff ffff ffff     ................
 80033c0:	ffff ffff ffff ffff ffff ffff ffff ffff     ................
 80033d0:	ffff ffff ffff ffff ffff ffff ffff ffff     ................
 80033e0:	ffff ffff ffff ffff ffff ffff ffff ffff     ................
 80033f0:	f00f ff7f ffff ffff ffff ffff 7fff fff7     ................
 8003400:	ffff ffff ffff 0008 8000 9860 fffc ffff     ..........`.....
 8003410:	ffff 001f 0000 c000 b060 fdf8 fffe ffff     ........`.......
 8003420:	ffff ffff ffff ffff ffff ffff ffff ffff     ................
 8003430:	ffff ffff ffff ffff ffff ffff ffff ffff     ................
 8003440:	ffff ffff ffff ffff ffff ffff ffff ffff     ................
 8003450:	ffff ffff ffff ffff ffff ffff ffff ffff     ................
 8003460:	ffff ffff ffff ffff ffff ffff ffff ffff     ................
 8003470:	53e7 0734 ffc1 fb01 3bfb fbfb 79f1 efdd     .S4......;...y..
 8003480:	fefe fcfc fffe 1e7f c101 fff8 ffff 7fff     ................
 8003490:	0107 f0c0 fefc fdfb ffff ffff ffff ffff     ................
 80034a0:	ffff ffff ffff ffff ffff ffff ffff ffff     ................
 80034b0:	ffff ffff ffff ffff ffff ffff ffff ffff     ................
 80034c0:	ffff ffff ffff ffff ffff ffff ffff ffff     ................
 80034d0:	ffff ffff ffff ffff ffff ffff ffff ffff     ................
 80034e0:	ffff ffff ffff ffff ffff ffff ffff ffff     ................
 80034f0:	7fff 5843 1843 f1df 7e00 8f1f 80cf 3f0f     ..CXC....~.....?
 8003500:	ff7f dfff 0107 f000 fffe ffff ffff 0007     ................
 8003510:	fffc e1ff ffff ffff ffff ffff ffff ffff     ................
 8003520:	ffff ffff ffff ffff ffff ffff ffff ffff     ................
 8003530:	ffff ffff ffff ffff ffff ffff ffff ffff     ................
 8003540:	ffff ffff ffff ffff ffff ffff ffff ffff     ................
 8003550:	ffff ffff ffff ffff ffff ffff ffff ffff     ................
 8003560:	ffff ff3f ffff ffff ffff ffff ffff f7fb     ..?.............
 8003570:	000f dc6e 01d8 02c0 0000 0308 c7ef a1b0     ..n.............
 8003580:	9ec7 f17f 88e0 7f1f ffff 3fff 009f c07e     ...........?..~.
 8003590:	ffff ff00 ffff ffff ffff ffff ffff ffff     ................
 80035a0:	ffff ffff ffff ffff ffff ffff ffff ffff     ................
 80035b0:	ffff ffff ffff ffff ffff ffff ffff ffff     ................
 80035c0:	ffff ffff ffff ffff ffff ffff ffff ffff     ................
 80035d0:	ffff ffff ffff ffff ffff ffff ffff e7ff     ................
 80035e0:	ffbf 00e0 0703 1f0f 7f3f ff7f ffff ffff     ........?.......
 80035f0:	0000 0300 0018 c0bf f0e0 b8f8 f8f8 b8b8     ................
 8003600:	f1f1 7070 6771 1ccf e438 c030 fc0f cff0     ..ppqg..8.0.....
 8003610:	ffff 01f8 7f5f ffff ffff ffff ffff ffff     ...._...........
 8003620:	ffff ffff ffff ffff ffff ffff ffff ffff     ................
 8003630:	ffff ffff ffff ffff ffff ffff ffff ffff     ................
 8003640:	ffff ffff ffff ffff ffff ffff ffff ffff     ................
 8003650:	ffff ffff ffff ffff ffff ffff ffff ffff     ................
 8003660:	feff f3fd cae5 f89c 70b0 e0e0 c3c1 0f87     .........p......
 8003670:	0008 4000 de08 0f5f 3f2f 7b1e fffb ffff     ...@.._./?.{....
 8003680:	feff 00fa 0100 2301 0064 66c9 7d1f 3fe7     .......#d..f.}.?
 8003690:	ffff feff c7f0 ef79 ffbf ffff ffff ffff     ......y.........
 80036a0:	ffff ffff ffff ffff ffff ffff ffff ffff     ................
 80036b0:	ffff ffff ffff ffff ffff ffff ffff ffff     ................

080036c0 <IMG_DATA14>:
 80036c0:	ffff ffff ffff ffff ffff ffff ffff ffff     ................
 80036d0:	ffff ffff ffff ffff ffff ffff ffff ffff     ................
 80036e0:	ffff ffff ffff ffff ffff ffff ffff 1fff     ................
 80036f0:	ff00 ffff ffff ffff ffff ffff ffff ffff     ................
 8003700:	ffff ffff ffff 7cff 0050 0101 0305 f881     .......|P.......
 8003710:	ffff ffff ff01 ffff 037f ff1f ffff 00ff     ................
 8003720:	0300 ff7f ffff ffff ffff ffff ffff ffff     ................
 8003730:	ffff ffff ffff ffff ffff ffff ffff ffff     ................
 8003740:	ffff ffff ffff ffff ffff ffff ffff ffff     ................
 8003750:	ffff ffff ffff ffff ffff ffff ffff ffff     ................
 8003760:	ffff ffff ffff ffff ffff ffff ffff c0ff     ................
 8003770:	1ffe ffff ffff ffff ffff ffff ffff ffff     ................
 8003780:	ffff ffff ffff 0306 0000 0000 f000 ffff     ................
 8003790:	ffff 0fff 1f5f 0107 0000 7f00 cfbf d0a0     ...._...........
 80037a0:	fff4 fffe ffff ffff ffff ffff ffff ffff     ................
 80037b0:	ffff ffff ffff ffff ffff ffff ffff ffff     ................
 80037c0:	ffff ffff ffff ffff ffff ffff ffff ffff     ................
 80037d0:	ffff ffff ffff ffff ffff ffff ffff ffff     ................
 80037e0:	ffff ffff ffff ffff ffff ffff ffff ffff     ................
 80037f0:	f883 ff1f ff7f ffff ffff ffff 5fff ff7d     ............._}.
 8003800:	3f7f 7f3f ffbf 8084 4000 e618 ffff ffff     .??......@......
 8003810:	7fff 0007 8000 60c0 ecf8 fff6 ffff ffff     .......`........
 8003820:	ffff ffff ffff ffff ffff ffff ffff ffff     ................
 8003830:	ffff ffff ffff ffff ffff ffff ffff ffff     ................
 8003840:	ffff ffff ffff ffff ffff ffff ffff ffff     ................
 8003850:	ffff ffff ffff ffff ffff ffff ffff ffff     ................
 8003860:	ffff ffff ffff ffff ffff ffff ffff fbff     ................
 8003870:	d4fd 01cd 7de0 7c80 9e3c fefe 1efc fbf7     .....}.|<.......
 8003880:	ffff ffff 7fff 071f f080 fffe ffff 1fff     ................
 8003890:	c003 7cf0 fffe fffe ffff ffff ffff ffff     ...|............
 80038a0:	ffff ffff ffff ffff ffff ffff ffff ffff     ................
 80038b0:	ffff ffff ffff ffff ffff ffff ffff ffff     ................
 80038c0:	ffff ffff ffff ffff ffff ffff ffff ffff     ................
 80038d0:	ffff ffff ffff ffff ffff ffff ffff ffff     ................
 80038e0:	ffff ffff ffff ffff ffff ffff ffff ffff     ................
 80038f0:	1fff 1690 0e10 3c37 1f00 c707 e0f3 4f03     ......7<.......O
 8003900:	7fdf 77ff 0041 f8c0 ffff ffff 7fff 00c3     ...wA...........
 8003910:	ffff f83f ffff ffff ffff ffff ffff ffff     ..?.............
 8003920:	ffff ffff ffff ffff ffff ffff ffff ffff     ................
 8003930:	ffff ffff ffff ffff ffff ffff ffff ffff     ................
 8003940:	ffff ffff ffff ffff ffff ffff ffff ffff     ................
 8003950:	ffff ffff ffff ffff ffff ffff ffff ffff     ................
 8003960:	ffff 3f1f ffff ffff ffff ffff ffff f9fe     ...?............
 8003970:	0803 f713 0036 00f0 0000 0302 313b 3a2c     ....6.......;1,:
 8003980:	4773 3c1e e0f8 1fcf 3f3f 1f3f 00e7 f03f     sG.<....???...?.
 8003990:	ffff 7f00 ffff ffff ffff ffff ffff ffff     ................
 80039a0:	ffff ffff ffff ffff ffff ffff ffff ffff     ................
 80039b0:	ffff ffff ffff ffff ffff ffff ffff ffff     ................
 80039c0:	ffff ffff ffff ffff ffff ffff ffff ffff     ................
 80039d0:	ffff ffff ffff ffff ffff ffff ffff f1ff     ................
 80039e0:	bfcf c070 0100 0703 1f0f 7f3f ff7f ffff     ..p.......?.....
 80039f0:	0000 0000 8004 e0cf f8f0 eebc fefe ecfc     ................
 8003a00:	bcfc 1c3c 591c c773 3b1e 70cc 7fc3 e3fc     ..<..Ys..;.p....
 8003a10:	ffff 80fe 9f17 ffff ffff ffff ffff ffff     ................
 8003a20:	ffff ffff ffff ffff ffff ffff ffff ffff     ................
 8003a30:	ffff ffff ffff ffff ffff ffff ffff ffff     ................
 8003a40:	ffff ffff ffff ffff ffff ffff ffff ffff     ................
 8003a50:	ffff ffff ffff ffff ffff ffff ffff ffff     ................
 8003a60:	ffff fcfe f2f9 e6e3 dcec f878 f0f0 c3e1     ..........x.....
 8003a70:	0086 1000 3700 0747 0f07 1e0f ff7e ffff     .....7G.....~...
 8003a80:	ff3f 80fe 0000 0800 0199 19a4 3e07 cff9     ?............>..
 8003a90:	ff7f ffff e1fc fb3e 7fcf ffff ffff ffff     ......>.........
 8003aa0:	ffff ffff ffff ffff ffff ffff ffff ffff     ................
 8003ab0:	ffff ffff ffff ffff ffff ffff ffff ffff     ................

08003ac0 <IMG_DATA15>:
 8003ac0:	ffff ffff ffff ffff ffff ffff ffff ffff     ................
 8003ad0:	ffff ffff ffff ffff ffff ffff ffff ffff     ................
 8003ae0:	ffff ffff ffff ffff ffff ffff ffff 07ff     ................
 8003af0:	ff00 ffff ffff ffff ffff ffff ffff ffff     ................
 8003b00:	ffff ffff ffff 9f7f 0028 0010 0001 fee0     ........(.......
 8003b10:	ffff ffff ffc0 ffff 011f ff07 ffff 007f     ................
 8003b20:	8000 ff97 ffff ffff ffff ffff ffff ffff     ................
 8003b30:	ffff ffff ffff ffff ffff ffff ffff ffff     ................
 8003b40:	ffff ffff ffff ffff ffff ffff ffff ffff     ................
 8003b50:	ffff ffff ffff ffff ffff ffff ffff ffff     ................
 8003b60:	ffff ffff ffff ffff ffff ffff ffff e0ff     ................
 8003b70:	07ff ffff ffff ffff ffff ffff ffff ffff     ................
 8003b80:	ffff ffff feff 0101 0000 0000 fc80 ffff     ................
 8003b90:	ffff 03ff 071f 0001 0000 bf00 f3cf f4e8     ................
 8003ba0:	fefa ffff ffff ffff ffff ffff ffff ffff     ................
 8003bb0:	ffff ffff ffff ffff ffff ffff ffff ffff     ................
 8003bc0:	ffff ffff ffff ffff ffff ffff ffff ffff     ................
 8003bd0:	ffff ffff ffff ffff ffff ffff ffff ffff     ................
 8003be0:	ffff ffff ffff ffff ffff ffff ffff ffff     ................
 8003bf0:	3ee0 ff0f 7f1f 7f3f 7f3f bfff a73f dfde     .>....?.?...?...
 8003c00:	dfdf dfdf efff c0f1 1020 f90e ffff ffff     ........ .......
 8003c10:	3fff 0001 c080 d870 feec fffd ffff ffff     .?....p.........
 8003c20:	ffff ffff ffff ffff ffff ffff ffff ffff     ................
 8003c30:	ffff ffff ffff ffff ffff ffff ffff ffff     ................
 8003c40:	ffff ffff ffff ffff ffff ffff ffff ffff     ................
 8003c50:	ffff ffff ffff ffff ffff ffff ffff ffff     ................
 8003c60:	ffff ffff ffff ffff ffff ffff ffff feff     ................
 8003c70:	f9fd 0077 1f38 3fe0 c71f ffff 0ffe fffb     ..w.8..?........
 8003c80:	ffff ffff 1f7f 030f f8c0 ffff ffff 0fff     ................
 8003c90:	f080 3efc ffff ffff ffff ffff ffff ffff     ...>............
 8003ca0:	ffff ffff ffff ffff ffff ffff ffff ffff     ................
 8003cb0:	ffff ffff ffff ffff ffff ffff ffff ffff     ................
 8003cc0:	ffff ffff ffff ffff ffff ffff ffff ffff     ................
 8003cd0:	ffff ffff ffff ffff ffff ffff ffff ffff     ................
 8003ce0:	ffff ffff ffff ffff ffff ffff ffff ffff     ................
 8003cf0:	0fff c3ec 0380 0f09 0f00 7103 78fc 3301     ...........q.x.3
 8003d00:	dfef 3bbf 0010 fee0 ffff ffff 1fff 00e0     ...;............
 8003d10:	ffff fe0f ffff ffff ffff ffff ffff ffff     ................
 8003d20:	ffff ffff ffff ffff ffff ffff ffff ffff     ................
 8003d30:	ffff ffff ffff ffff ffff ffff ffff ffff     ................
 8003d40:	ffff ffff ffff ffff ffff ffff ffff ffff     ................
 8003d50:	ffff ffff ffff ffff ffff ffff ffff ffff     ................
 8003d60:	ffff 1f07 ff3f ffff ffff ffff ffff feff     ....?...........
 8003d70:	0201 7d0d 001b 00f8 0000 0000 080d 161e     ...}............
 8003d80:	3312 1f27 793c c7e3 9f2f 070f c0f9 fc0f     .3'.<y../.......
 8003d90:	ffff 1f80 ffff ffff ffff ffff ffff ffff     ................
 8003da0:	ffff ffff ffff ffff ffff ffff ffff ffff     ................
 8003db0:	ffff ffff ffff ffff ffff ffff ffff ffff     ................
 8003dc0:	ffff ffff ffff ffff ffff ffff ffff ffff     ................
 8003dd0:	ffff ffff ffff ffff ffff ffff ffff fcff     ................
 8003de0:	cff7 60bc 40c0 0381 0703 1f0f 7f3f ff7f     ...`.@......?...
 8003df0:	0080 0000 e007 f8f7 fefc fbff f7fb f7f7     ................
 8003e00:	dff7 0e8f 0e2e 6319 1cc7 dc36 9fe0 f9ff     .......c..6.....
 8003e10:	ffff e0ff ef09 ffbf ffff ffff ffff ffff     ................
 8003e20:	ffff ffff ffff ffff ffff ffff ffff ffff     ................
 8003e30:	ffff ffff ffff ffff ffff ffff ffff ffff     ................
 8003e40:	ffff ffff ffff ffff ffff ffff ffff ffff     ................
 8003e50:	ffff ffff ffff ffff ffff ffff ffff ffff     ................
 8003e60:	ffff ffff ffff f1fe f6e3 bcee f87c f0b0     ............|...
 8003e70:	c0e1 0c00 1b00 0119 0305 cf03 7f3f 3fff     ............?..?
 8003e80:	ff1f c83f 8080 0400 0004 0441 0f03 f3fc     ..?.......A.....
 8003e90:	ff1f ffff f8fe 7ecf 1ff7 ffff ffff ffff     .......~........
 8003ea0:	ffff ffff ffff ffff ffff ffff ffff ffff     ................
 8003eb0:	ffff ffff ffff ffff ffff ffff ffff ffff     ................

08003ec0 <IMG_DATA16>:
 8003ec0:	ffff ffff ffff ffff ffff ffff ffff ffff     ................
 8003ed0:	ffff ffff ffff ffff ffff ffff ffff ffff     ................
 8003ee0:	ffff ffff ffff ffff ffff ffff ffff 03ff     ................
 8003ef0:	ffc0 ffff ffff ffff ffff ffff ffff ffff     ................
 8003f00:	ffff ffff bfff 6fdf 000a 0000 0000 fff0     .......o........
 8003f10:	ffff ffff ffe0 3fff 000f ff03 ffff 001f     .......?........
 8003f20:	a080 ffef ffff ffff ffff ffff ffff ffff     ................
 8003f30:	ffff ffff ffff ffff ffff ffff ffff ffff     ................
 8003f40:	ffff ffff ffff ffff ffff ffff ffff ffff     ................
 8003f50:	ffff ffff ffff ffff ffff ffff ffff ffff     ................
 8003f60:	ffff ffff ffff ffff ffff ffff ffff f0ff     ................
 8003f70:	837f ffff ffff ffff ffff ffff ffff ffbf     ................
 8003f80:	ffff ffff ffff 0040 0000 c000 ffe0 ffff     ......@.........
 8003f90:	ffff 01ff 0303 0000 8000 efc0 f8f7 fffc     ................
 8003fa0:	fffe ffff ffff ffff ffff ffff ffff ffff     ................
 8003fb0:	ffff ffff ffff ffff ffff ffff ffff ffff     ................
 8003fc0:	ffff ffff ffff ffff ffff ffff ffff ffff     ................
 8003fd0:	ffff ffff ffff ffff ffff ffff ffff ffff     ................
 8003fe0:	ffff ffff ffff ffff ffff ffff ffff ffff     ................
 8003ff0:	9f38 3fa3 ff0f df1f dfdf dfdf cb8f 7fef     8..?............
 8004000:	f7f7 e7e7 fff7 f0f0 0c08 fcc3 ffff ffff     ................
 8004010:	0f3f 8000 f0e0 eed8 fffb ffff ffff ffff     ?...............
 8004020:	ffff ffff ffff ffff ffff ffff ffff ffff     ................
 8004030:	ffff ffff ffff ffff ffff ffff ffff ffff     ................
 8004040:	ffff ffff ffff ffff ffff ffff ffff ffff     ................
 8004050:	ffff ffff ffff ffff ffff ffff ffff ffff     ................
 8004060:	ffff ffff ffff ffff ffff ffff ffff ffff     ................
 8004070:	feff c019 cf1e 8ff8 f107 ffff 037f ff7e     ..............~.
 8004080:	ffff ffff 0f3f 8003 fef0 ffff ffff 033f     ....?.........?.
 8004090:	f8e0 0ffe ffff ffff ffff ffff ffff ffff     ................
 80040a0:	ffff ffff ffff ffff ffff ffff ffff ffff     ................
 80040b0:	ffff ffff ffff ffff ffff ffff ffff ffff     ................
 80040c0:	ffff ffff ffff ffff ffff ffff ffff ffff     ................
 80040d0:	ffff ffff ffff ffff ffff ffff ffff ffff     ................
 80040e0:	ffff ffff ffff ffff ffff ffff ffff 3fdf     ...............?
 80040f0:	037f e272 08c2 0706 0300 3840 3c7f 0980     ..r.......@8.<..
 8004100:	f73b 8eff 0000 fff8 ffff ffff 07ff 00f8     ;...............
 8004110:	ffff ff03 ffff ffff ffff ffff ffff ffff     ................
 8004120:	ffff ffff ffff ffff ffff ffff ffff ffff     ................
 8004130:	ffff ffff ffff ffff ffff ffff ffff ffff     ................
 8004140:	ffff ffff ffff ffff ffff ffff ffff ffff     ................
 8004150:	ffff ffff ffff ffff ffff ffff ffff 3fff     ...............?
 8004160:	ffff 0701 3f1f ff7f ffff ffff ffff ffff     .....?..........
 8004170:	0000 1e03 0006 00fe 8000 c080 c6c7 c5c5     ................
 8004180:	8c8e 8783 3c9f e378 27c7 0187 e07e 7e87     .....<x..'..~..~
 8004190:	ffff 0fc0 ffff ffff ffff ffff ffff ffff     ................
 80041a0:	ffff ffff ffff ffff ffff ffff ffff ffff     ................
 80041b0:	ffff ffff ffff ffff ffff ffff ffff ffff     ................
 80041c0:	ffff ffff ffff ffff ffff ffff ffff ffff     ................
 80041d0:	ffff ffff ffff ffff ffff ffff ffff ffff     ................
 80041e0:	f7fd 98ef 5028 c0e0 8381 0707 1f0f 7f3f     ....(P........?.
 80041f0:	00c0 0000 f001 7efd ff7f ddf7 ffff fdfd     .......~........
 8004200:	f7ff 03f3 0b0b 180e 0721 2e49 eff8 fe3f     ........!.I...?.
 8004210:	ffff f0ff 3b82 7fcf ffff ffff ffff ffff     .....;..........
 8004220:	ffff ffff ffff ffff ffff ffff ffff ffff     ................
 8004230:	ffff ffff ffff ffff ffff ffff ffff ffff     ................
 8004240:	ffff ffff ffff ffff ffff ffff ffff ffff     ................
 8004250:	ffff ffff ffff ffff ffff ffff ffff ffff     ................
 8004260:	ffff ffff feff fffc f3fd ffef bede 784c     ..............Lx
 8004270:	e0f0 0300 0600 204c 0100 2301 1f0f 1f7f     ......L ...#....
 8004280:	ff07 e01f 60c0 0100 c813 01b4 0300 f9ff     .....`..........
 8004290:	ff8f ffff feff fff3 8ffd ffff ffff ffff     ................
 80042a0:	ffff ffff ffff ffff ffff ffff ffff ffff     ................
 80042b0:	ffff ffff ffff ffff ffff ffff ffff ffff     ................

080042c0 <IMG_DATA17>:
 80042c0:	ffff ffff ffff ffff ffff ffff ffff ffff     ................
 80042d0:	ffff ffff ffff ffff ffff ffff ffff ffff     ................
 80042e0:	ffff ffff ffff ffff ffff ffff ffff 01ff     ................
 80042f0:	ffe0 ffff ffff ffff ffff ffff ffff ffff     ................
 8004300:	ffff ffff ffff 1b3f 0002 0000 8000 fffc     ......?.........
 8004310:	ffff 7fff fff8 0f3f 0003 ff00 7fff 8007     ......?.........
 8004320:	d8e0 fff2 ffff ffff ffff ffff ffff ffff     ................
 8004330:	ffff ffff ffff ffff ffff ffff ffff ffff     ................
 8004340:	ffff ffff ffff ffff ffff ffff ffff ffff     ................
 8004350:	ffff ffff ffff ffff ffff ffff ffff ffff     ................
 8004360:	ffff ffff ffff ffff ffff ffff ffff fcff     ................
 8004370:	c01f ffff ffff ffff ffff ffff ffff ffcf     ................
 8004380:	ffff ffff ffff 0020 0000 30c0 fff8 ffff     ...... ....0....
 8004390:	ffff 003f 0002 0000 6080 ffb0 fefd fefd     ..?......`......
 80043a0:	ffff ffff ffff ffff ffff ffff ffff ffff     ................
 80043b0:	ffff ffff ffff ffff ffff ffff ffff ffff     ................
 80043c0:	ffff ffff ffff ffff ffff ffff ffff ffff     ................
 80043d0:	ffff ffff ffff ffff ffff ffff ffff ffff     ................
 80043e0:	ffff ffff ffff ffff ffff ffff ffff dfff     ................
 80043f0:	27fc 0fe8 ef03 e707 e7e7 f7f7 f6c7 fffb     .'..............
 8004400:	fbfb fbfb fdfd 7cfc 8200 fff0 ffff ffff     .......|........
 8004410:	031f e080 fcf0 fbfe ffff ffff ffff ffff     ................
 8004420:	ffff ffff ffff ffff ffff ffff ffff ffff     ................
 8004430:	ffff ffff ffff ffff ffff ffff ffff ffff     ................
 8004440:	ffff ffff ffff ffff ffff ffff ffff ffff     ................
 8004450:	ffff ffff ffff ffff ffff ffff ffff ffff     ................
 8004460:	ffff ffff ffff ffff ffff ffff ffff ffff     ................
 8004470:	ffff e08e 6307 c33c fc03 3f7f 019f 7f3f     .....c<....?..?.
 8004480:	ffff 7fff 030f c000 fff8 ffff ffff 001f     ................
 8004490:	fef0 c7ff ffff ffff ffff ffff ffff ffff     ................
 80044a0:	ffff ffff ffff ffff ffff ffff ffff ffff     ................
 80044b0:	ffff ffff ffff ffff ffff ffff ffff ffff     ................
 80044c0:	ffff ffff ffff ffff ffff ffff ffff ffff     ................
 80044d0:	ffff ffff ffff ffff ffff ffff ffff ffff     ................
 80044e0:	ffff ffff ffff ffff ffff ffff ffff cfff     ................
 80044f0:	411f ba9d 0030 0101 0101 0e00 cf9f d6e0     .A..0...........
 8004500:	7b9d eff7 00c2 ff7e ffff ffff 033f 80fc     .{....~.....?...
 8004510:	ffff ff01 ffff ffff ffff ffff ffff ffff     ................
 8004520:	ffff ffff ffff ffff ffff ffff ffff ffff     ................
 8004530:	ffff ffff ffff ffff ffff ffff ffff ffff     ................
 8004540:	ffff ffff ffff ffff ffff ffff ffff ffff     ................
 8004550:	ffff ffff ffff ffff ffff ffff ffff 8fff     ................
 8004560:	ffff 0180 0f07 3f1f ff7f ffff ffff ffff     .......?........
 8004570:	0000 0f01 0043 00ff c080 60e0 e161 e3e1     ....C......`a...
 8004580:	e2e2 e1e4 cfc7 381e 91e1 8061 f81f 3fe1     .......8..a....?
 8004590:	ffff 03f0 ff3f ffff ffff ffff ffff ffff     ....?...........
 80045a0:	ffff ffff ffff ffff ffff ffff ffff ffff     ................
 80045b0:	ffff ffff ffff ffff ffff ffff ffff ffff     ................
 80045c0:	ffff ffff ffff ffff ffff ffff ffff ffff     ................
 80045d0:	ffff ffff ffff ffff ffff ffff ffff ffff     ................
 80045e0:	fdfe fef7 e8f8 3010 c060 83c1 0787 1f0f     .......0`.......
 80045f0:	0030 8000 3c20 bf3e 7f3f ff7d feff ffff     0... <>.?.}.....
 8004600:	f9ff 04f1 0300 c603 0998 9b26 f37e 7fcf     ..........&.~...
 8004610:	ffff fcff 1de1 dff7 ff7f ffff ffff ffff     ................
 8004620:	ffff ffff ffff ffff ffff ffff ffff ffff     ................
 8004630:	ffff ffff ffff ffff ffff ffff ffff ffff     ................
 8004640:	ffff ffff ffff ffff ffff ffff ffff ffff     ................
 8004650:	ffff ffff ffff ffff ffff ffff ffff ffff     ................
 8004660:	ffff ffff ffff feff fefc f7f9 ffef 1e77     ..............w.
 8004670:	f87c 8080 0300 0003 8000 9980 0787 871f     |...............
 8004680:	7f03 f107 5030 8008 d084 00e9 6100 feff     ....0P.......a..
 8004690:	7fe3 ffff ffff fff9 e3fe ffff ffff ffff     ................
 80046a0:	ffff ffff ffff ffff ffff ffff ffff ffff     ................
 80046b0:	ffff ffff ffff ffff ffff ffff ffff ffff     ................

080046c0 <IMG_DATA18>:
 80046c0:	ffff ffff ffff ffff ffff ffff ffff ffff     ................
 80046d0:	ffff ffff ffff ffff ffff ffff ffff ffff     ................
 80046e0:	ffff ffff ffff ffff ffff ffff ffff 00ff     ................
 80046f0:	7ff8 ffff ffff ffff ffff ffff ffff ffff     ................
 8004700:	ffff ffff f7ff 0c1b 0001 0000 e000 ffff     ................
 8004710:	ffff 1fff 7f7e 071f 0001 ff00 1f7f a083     ....~...........
 8004720:	f4d0 fffd ffff ffff ffff ffff ffff ffff     ................
 8004730:	ffff ffff ffff ffff ffff ffff ffff ffff     ................
 8004740:	ffff ffff ffff ffff ffff ffff ffff ffff     ................
 8004750:	ffff ffff ffff ffff ffff ffff ffff ffff     ................
 8004760:	ffff ffff ffff ffff ffff ffff ffff ffff     ................
 8004770:	f00f ff7f ffff ffff ffff ffff 7fff fef7     ................
 8004780:	ffff ffff ffff 0088 8000 c860 fffc ffff     ..........`.....
 8004790:	ffff 001f 0000 c000 f060 fdf8 fffe ffff     ........`.......
 80047a0:	ffff ffff ffff ffff ffff ffff ffff ffff     ................
 80047b0:	ffff ffff ffff ffff ffff ffff ffff ffff     ................
 80047c0:	ffff ffff ffff ffff ffff ffff ffff ffff     ................
 80047d0:	ffff ffff ffff ffff ffff ffff ffff ffff     ................
 80047e0:	ffff ffff ffff ffff ffff ffff ffff ffff     ................
 80047f0:	43e7 073c fbc1 fb01 3bfb fbfb 79f1 eedd     .C<......;...y..
 8004800:	fefe fcfc fffe 1e7f c101 fff8 ffff 7fff     ................
 8004810:	0107 f0c0 eefc fffb ffff ffff ffff ffff     ................
 8004820:	ffff ffff ffff ffff ffff ffff ffff ffff     ................
 8004830:	ffff ffff ffff ffff ffff ffff ffff ffff     ................
 8004840:	ffff ffff ffff ffff ffff ffff ffff ffff     ................
 8004850:	ffff ffff ffff ffff ffff ffff ffff ffff     ................
 8004860:	ffff ffff ffff ffff ffff ffff ffff ffff     ................
 8004870:	7fff 5843 1843 f05f 7e00 8f1f c0ef bf0f     ..CXC._..~......
 8004880:	ff7f dfff 0187 f000 fffe ffff ffff 0007     ................
 8004890:	fffc f17f ffff ffff ffff ffff ffff ffff     ................
 80048a0:	ffff ffff ffff ffff ffff ffff ffff ffff     ................
 80048b0:	ffff ffff ffff ffff ffff ffff ffff ffff     ................
 80048c0:	ffff ffff ffff ffff ffff ffff ffff ffff     ................
 80048d0:	ffff ffff ffff ffff ffff ffff ffff ffff     ................
 80048e0:	ffff ff3f ffff ffff ffff ffff ffff f7fb     ..?.............
 80048f0:	000f dc6e 01d8 00c0 0000 0308 c7ef b1b0     ..n.............
 8004900:	9ed7 f17d c0e0 3f1f ffff 3fff 009f c07f     ..}....?...?....
 8004910:	ffff ff00 ffff ffff ffff ffff ffff ffff     ................
 8004920:	ffff ffff ffff ffff ffff ffff ffff ffff     ................
 8004930:	ffff ffff ffff ffff ffff ffff ffff ffff     ................
 8004940:	ffff ffff ffff ffff ffff ffff ffff ffff     ................
 8004950:	ffff ffff ffff ffff ffff ffff ffff e7ff     ................
 8004960:	ffbf 00e0 0703 1f0f 7f3f ff7f ffff ffff     ........?.......
 8004970:	0000 0300 0038 c0bf f0e0 38f8 b8d8 b8b8     ....8......8....
 8004980:	f1b9 7070 6771 1ecf e438 c030 fe0f cff0     ..ppqg..8.0.....
 8004990:	ffff 01f8 7f5f ffff ffff ffff ffff ffff     ...._...........
 80049a0:	ffff ffff ffff ffff ffff ffff ffff ffff     ................
 80049b0:	ffff ffff ffff ffff ffff ffff ffff ffff     ................
 80049c0:	ffff ffff ffff ffff ffff ffff ffff ffff     ................
 80049d0:	ffff ffff ffff ffff ffff ffff ffff ffff     ................
 80049e0:	feff fbfd eae5 f8f4 7038 e0f0 c3e1 0f87     ........8p......
 80049f0:	0008 6000 de08 0fcf 3f2f 7f1f ffff ffff     ...`..../?......
 8004a00:	feff 00fe 0101 2301 0064 2609 7d1f 3fe7     .......#d..&.}.?
 8004a10:	ffff feff c7f0 ef79 ffbf ffff ffff ffff     ......y.........
 8004a20:	ffff ffff ffff ffff ffff ffff ffff ffff     ................
 8004a30:	ffff ffff ffff ffff ffff ffff ffff ffff     ................
 8004a40:	ffff ffff ffff ffff ffff ffff ffff ffff     ................
 8004a50:	ffff ffff ffff ffff ffff ffff ffff ffff     ................
 8004a60:	ffff ffff ffff ffff feff fffd 77fb 0f0b     .............w..
 8004a70:	fe3f 00e0 0000 0009 4080 c4c0 83e1 810f     ?........@......
 8004a80:	3f00 7c83 049c c400 e8e2 00f6 1880 ffff     .?.|............
 8004a90:	1ff9 ffff ffff fffe f1ff ffff ffff ffff     ................
 8004aa0:	ffff ffff ffff ffff ffff ffff ffff ffff     ................
 8004ab0:	ffff ffff ffff ffff ffff ffff ffff ffff     ................

08004ac0 <IMG_DATA19>:
 8004ac0:	ffff ffff ffff ffff ffff ffff ffff ffff     ................
 8004ad0:	ffff ffff ffff ffff ffff ffff ffff ffff     ................
 8004ae0:	ffff ffff ffff ffff ffff ffff ffff 80ff     ................
 8004af0:	3ffc ffff ffff ffff ffff ffff ffff ffff     .?..............
 8004b00:	ffff ffff ffff 0307 0000 0000 f000 ffff     ................
 8004b10:	ffff 0fff 1f5f 0107 0000 ff00 cfbf d0a0     ...._...........
 8004b20:	fbec fffe ffff ffff ffff ffff ffff ffff     ................
 8004b30:	ffff ffff ffff ffff ffff ffff ffff ffff     ................
 8004b40:	ffff ffff ffff ffff ffff ffff ffff ffff     ................
 8004b50:	ffff ffff ffff ffff ffff ffff ffff ffff     ................
 8004b60:	ffff ffff ffff ffff ffff ffff ffff ffff     ................
 8004b70:	f883 ff1f ff7f ffff ffff ffff 1fff ff79     ..............y.
 8004b80:	3f7f 7f3f bfbf 8084 4000 e618 ffff ffff     .??......@......
 8004b90:	7fff 0007 8000 60c0 e8f0 fff4 ffff ffff     .......`........
 8004ba0:	ffff ffff ffff ffff ffff ffff ffff ffff     ................
 8004bb0:	ffff ffff ffff ffff ffff ffff ffff ffff     ................
 8004bc0:	ffff ffff ffff ffff ffff ffff ffff ffff     ................
 8004bd0:	ffff ffff ffff ffff ffff ffff ffff ffff     ................
 8004be0:	ffff ffff ffff ffff ffff ffff ffff fbff     ................
 8004bf0:	e4ff 01dd 7de0 7c80 9e7c fede 3efc ffff     .....}.||....>..
 8004c00:	ffff ffff 7fff 0f1f f000 fffe ffff 1fff     ................
 8004c10:	c003 fcf0 fffe fffd ffff ffff ffff ffff     ................
 8004c20:	ffff ffff ffff ffff ffff ffff ffff ffff     ................
 8004c30:	ffff ffff ffff ffff ffff ffff ffff ffff     ................
 8004c40:	ffff ffff ffff ffff ffff ffff ffff ffff     ................
 8004c50:	ffff ffff ffff ffff ffff ffff ffff ffff     ................
 8004c60:	ffff ffff ffff ffff ffff ffff ffff ffff     ................
 8004c70:	3fff 1cb1 0e00 3827 3f00 c70f e0f3 4f07     .?....'8.?.....O
 8004c80:	7fbf e7ff 0041 f8c0 ffff ffff 7fff 0083     ....A...........
 8004c90:	fffe f83f ffff ffff ffff ffff ffff ffff     ..?.............
 8004ca0:	ffff ffff ffff ffff ffff ffff ffff ffff     ................
 8004cb0:	ffff ffff ffff ffff ffff ffff ffff ffff     ................
 8004cc0:	ffff ffff ffff ffff ffff ffff ffff ffff     ................
 8004cd0:	ffff ffff ffff ffff ffff ffff ffff ffff     ................
 8004ce0:	ffff 7f1f ffff ffff ffff ffff ffff f9ff     ................
 8004cf0:	0803 f733 0066 00e0 0000 0100 3933 7a3c     ..3.f.......39<z
 8004d00:	4f53 3d9e e4f0 1f8f 3f3f 1f3f 00e7 f03f     SO.=....???...?.
 8004d10:	ffff 7f00 ffff ffff ffff ffff ffff ffff     ................
 8004d20:	ffff ffff ffff ffff ffff ffff ffff ffff     ................
 8004d30:	ffff ffff ffff ffff ffff ffff ffff ffff     ................
 8004d40:	ffff ffff ffff ffff ffff ffff ffff ffff     ................
 8004d50:	ffff ffff ffff ffff ffff ffff ffff f1ff     ................
 8004d60:	bfdf c0f0 0100 0703 1f0f 7f3f ffff ffff     ..........?.....
 8004d70:	0000 0000 8014 e0df f8f0 ecbc dcec fcfc     ................
 8004d80:	3cfc 9c3c 7918 cf63 321c 70cc 7f87 e7fc     .<<..yc..2.p....
 8004d90:	ffff 80fe bf27 ffff ffff ffff ffff ffff     ....'...........
 8004da0:	ffff ffff ffff ffff ffff ffff ffff ffff     ................
 8004db0:	ffff ffff ffff ffff ffff ffff ffff ffff     ................
 8004dc0:	ffff ffff ffff ffff ffff ffff ffff ffff     ................
 8004dd0:	ffff ffff ffff ffff ffff ffff ffff ffff     ................
 8004de0:	ffff fdfe f5ff c6e2 dc8c f038 e0f0 c3e1     ..........8.....
 8004df0:	0086 1000 6700 0767 0f07 3f0f ffff ffff     .....gg....?....
 8004e00:	ff7f 20fe 0000 1800 019b 1124 3e07 cffb     ... ......$..>..
 8004e10:	ff7f ffff e3fc fb3e ffcf ffff ffff ffff     ......>.........
 8004e20:	ffff ffff ffff ffff ffff ffff ffff ffff     ................
 8004e30:	ffff ffff ffff ffff ffff ffff ffff ffff     ................
 8004e40:	ffff ffff ffff ffff ffff ffff ffff ffff     ................
 8004e50:	ffff ffff ffff ffff ffff ffff ffff ffff     ................
 8004e60:	ffff ffff ffff ffff ffff feff 3ffd 0306     .............?..
 8004e70:	3f0f 90f8 00c0 0000 1000 7330 40f0 c003     .?........0s.@..
 8004e80:	0fc0 1ee0 2ac6 e003 faf0 00fd 1cc0 ffff     .....*..........
 8004e90:	0ffc ffff ffff ffff 7cff ffff ffff ffff     .........|......
 8004ea0:	ffff ffff ffff ffff ffff ffff ffff ffff     ................
 8004eb0:	ffff ffff ffff ffff ffff ffff ffff ffff     ................

08004ec0 <IMG_DATA20>:
 8004ec0:	ffff ffff ffff ffff ffff ffff ffff ffff     ................
 8004ed0:	ffff ffff ffff ffff ffff ffff ffff ffff     ................
 8004ee0:	ffff ffff ffff ffff ffff ffff ffff e0ff     ................
 8004ef0:	0fff ffff ffff ffff ffff ffff ffff ffff     ................
 8004f00:	ffff ffff feff 0103 0000 0000 fc80 ffff     ................
 8004f10:	ffff 03ff 0f0f 0003 0000 bf00 e3cf f4f0     ................
 8004f20:	fefa ffff ffff ffff ffff ffff ffff ffff     ................
 8004f30:	ffff ffff ffff ffff ffff ffff ffff ffff     ................
 8004f40:	ffff ffff ffff ffff ffff ffff ffff ffff     ................
 8004f50:	ffff ffff ffff ffff ffff ffff ffff ffff     ................
 8004f60:	ffff ffff ffff ffff ffff ffff ffff ffff     ................
 8004f70:	3ee1 ffcf 7f3f 7f3f 7f7f 3f7f 2f3f dfbe     .>..?.?....??/..
 8004f80:	dfdf 9f9f ffdf c0f1 3020 f90c ffff ffff     ........ 0......
 8004f90:	3fff 0003 c080 f870 feec ffff ffff ffff     .?....p.........
 8004fa0:	ffff ffff ffff ffff ffff ffff ffff ffff     ................
 8004fb0:	ffff ffff ffff ffff ffff ffff ffff ffff     ................
 8004fc0:	ffff ffff ffff ffff ffff ffff ffff ffff     ................
 8004fd0:	ffff ffff ffff ffff ffff ffff ffff ffff     ................
 8004fe0:	ffff ffff ffff ffff ffff ffff ffff ffff     ................
 8004ff0:	fbfc 0067 1f78 3fe0 c71f ffff 0ffe fdfb     ..g.x..?........
 8005000:	ffff ffff 3fff 030f f8c0 ffff ffff 0fff     .....?..........
 8005010:	e080 3efc ffff ffff ffff ffff ffff ffff     ...>............
 8005020:	ffff ffff ffff ffff ffff ffff ffff ffff     ................
 8005030:	ffff ffff ffff ffff ffff ffff ffff ffff     ................
 8005040:	ffff ffff ffff ffff ffff ffff ffff ffff     ................
 8005050:	ffff ffff ffff ffff ffff ffff ffff ffff     ................
 8005060:	ffff ffff ffff ffff ffff ffff ffff ffff     ................
 8005070:	0fff 8bcc 2388 0e09 0f00 7103 f8fd 3701     .....#.....q...7
 8005080:	dfef 3bff 0010 fee0 ffff ffff 1fff 00e0     ...;............
 8005090:	ffff fc0f ffff ffff ffff ffff ffff ffff     ................
 80050a0:	ffff ffff ffff ffff ffff ffff ffff ffff     ................
 80050b0:	ffff ffff ffff ffff ffff ffff ffff ffff     ................
 80050c0:	ffff ffff ffff ffff ffff ffff ffff ffff     ................
 80050d0:	ffff ffff ffff ffff ffff ffff ffff ffff     ................
 80050e0:	ffff 1f07 ff7f ffff ffff ffff ffff feff     ................
 80050f0:	0001 7b0d 001b 00f8 0000 0001 181d 1616     ...{............
 8005100:	3312 1e0f f93c c7e3 9f1f 071f c0f3 f81f     .3..<...........
 8005110:	ffff 3f00 ffff ffff ffff ffff ffff ffff     ...?............
 8005120:	ffff ffff ffff ffff ffff ffff ffff ffff     ................
 8005130:	ffff ffff ffff ffff ffff ffff ffff ffff     ................
 8005140:	ffff ffff ffff ffff ffff ffff ffff ffff     ................
 8005150:	ffff ffff ffff ffff ffff ffff ffff fcff     ................
 8005160:	dff7 60bc 40a0 0381 0f07 1f0f 7f3f ffff     ...`.@......?...
 8005170:	0000 0000 c007 f8f7 fefc e7ff f7fb f7f7     ................
 8005180:	dff7 0ece 2c2e 6339 1c87 b826 bfe1 f9fe     .....,9c..&.....
 8005190:	ffff c0ff cf0b ff3f ffff ffff ffff ffff     ......?.........
 80051a0:	ffff ffff ffff ffff ffff ffff ffff ffff     ................
 80051b0:	ffff ffff ffff ffff ffff ffff ffff ffff     ................
 80051c0:	ffff ffff ffff ffff ffff ffff ffff ffff     ................
 80051d0:	ffff ffff ffff ffff ffff ffff ffff ffff     ................
 80051e0:	ffff ffff fdfe fffe cee7 fcfe f87c e170     ............|.p.
 80051f0:	c0e1 0c00 1b01 0119 0701 8f03 7f3f 3fff     ............?..?
 8005200:	ff1f 887f 8080 8400 004c 04c0 0f03 e7fc     ........L.......
 8005210:	ff3f ffff f8fe fdcf 3ff7 ffff ffff ffff     ?........?......
 8005220:	ffff ffff ffff ffff ffff ffff ffff ffff     ................
 8005230:	ffff ffff ffff ffff ffff ffff ffff ffff     ................
 8005240:	ffff ffff ffff ffff ffff ffff ffff ffff     ................
 8005250:	ffff ffff ffff ffff ffff ffff ffff ffff     ................
 8005260:	ffff ffff ffff ffff ffff ffff deff 0181     ................
 8005270:	1f07 603c 40a0 0081 4810 1898 101c 3080     ..<`.@...H.....0
 8005280:	07e0 0730 98f3 f080 fffc c07e 8ff0 ffff     ..0.......~.....
 8005290:	c7ff ffff ffff ffff 9eff ffff ffff ffff     ................
 80052a0:	ffff ffff ffff ffff ffff ffff ffff ffff     ................
 80052b0:	ffff ffff ffff ffff ffff ffff ffff ffff     ................

080052c0 <IMG_DATA21>:
 80052c0:	ffff ffff ffff ffff ffff ffff ffff ffff     ................
 80052d0:	ffff ffff ffff ffff ffff ffff ffff ffff     ................
 80052e0:	ffff ffff ffff ffff ffff ffff ffff f0ff     ................
 80052f0:	037f ffff ffff ffff ffff ffff ffff ff3f     ..............?.
 8005300:	ffff ffff ffff 0080 0000 8000 fee0 ffff     ................
 8005310:	ffff 01ff 030f 0000 8000 df80 f9f7 faf4     ................
 8005320:	fffd ffff ffff ffff ffff ffff ffff ffff     ................
 8005330:	ffff ffff ffff ffff ffff ffff ffff ffff     ................
 8005340:	ffff ffff ffff ffff ffff ffff ffff ffff     ................
 8005350:	ffff ffff ffff ffff ffff ffff ffff ffff     ................
 8005360:	ffff ffff ffff ffff ffff ffff ffff 7fff     ................
 8005370:	9ff0 3fa7 bf0f 9f1f 9f9f dfff d31f efef     ...?............
 8005380:	efef efef f7f7 f0f8 0800 fc83 ffff ffff     ................
 8005390:	0f7f 8000 f0c0 ecf8 fffe fffe ffff ffff     ................
 80053a0:	ffff ffff ffff ffff ffff ffff ffff ffff     ................
 80053b0:	ffff ffff ffff ffff ffff ffff ffff ffff     ................
 80053c0:	ffff ffff ffff ffff ffff ffff ffff ffff     ................
 80053d0:	ffff ffff ffff ffff ffff ffff ffff ffff     ................
 80053e0:	ffff ffff ffff ffff ffff ffff ffff ffff     ................
 80053f0:	fcff 803b 8f1c 8ff0 f30f fffb 077f fffd     ..;.............
 8005400:	ffff ffff 0f3f 0107 fee0 ffff ffff 077f     ....?...........
 8005410:	f8c0 1ffe ffff ffff ffff ffff ffff ffff     ................
 8005420:	ffff ffff ffff ffff ffff ffff ffff ffff     ................
 8005430:	ffff ffff ffff ffff ffff ffff ffff ffff     ................
 8005440:	ffff ffff ffff ffff ffff ffff ffff ffff     ................
 8005450:	ffff ffff ffff ffff ffff ffff ffff ffff     ................
 8005460:	ffff ffff ffff ffff ffff ffff ffff 3fff     ...............?
 8005470:	077f eb76 01c0 0704 0700 3801 3cfe 5900     ..v........8.<.Y
 8005480:	ef77 bddf 8008 fff0 ffff ffff 0fff 00f0     w...............
 8005490:	ffff ff07 ffff ffff ffff ffff ffff ffff     ................
 80054a0:	ffff ffff ffff ffff ffff ffff ffff ffff     ................
 80054b0:	ffff ffff ffff ffff ffff ffff ffff ffff     ................
 80054c0:	ffff ffff ffff ffff ffff ffff ffff ffff     ................
 80054d0:	ffff ffff ffff ffff ffff ffff ffff 3fff     ...............?
 80054e0:	ffff 0f03 7f1f ffff ffff ffff ffff ffff     ................
 80054f0:	0100 3e06 008d 00fc 0000 8080 8486 8f8f     ...>............
 8005500:	8988 0f93 3c1e e379 4797 0307 e0fc fe87     .....<y..G......
 8005510:	ffff 1fc0 ffff ffff ffff ffff ffff ffff     ................
 8005520:	ffff ffff ffff ffff ffff ffff ffff ffff     ................
 8005530:	ffff ffff ffff ffff ffff ffff ffff ffff     ................
 8005540:	ffff ffff ffff ffff ffff ffff ffff ffff     ................
 8005550:	ffff ffff ffff ffff ffff ffff ffff feff     ................
 8005560:	f7fb b0de a0e0 8140 0381 0f07 1f1f 7f3f     ......@.......?.
 8005570:	00c0 0000 f080 fcfb fffe fdf7 fbfd ffff     ................
 8005580:	e7ff 17c7 0f07 390c 0e63 6c99 cff0 fc7f     .......9c..l....
 8005590:	ffff f0ff 7784 7fdf ffff ffff ffff ffff     .....w..........
 80055a0:	ffff ffff ffff ffff ffff ffff ffff ffff     ................
 80055b0:	ffff ffff ffff ffff ffff ffff ffff ffff     ................
 80055c0:	ffff ffff ffff ffff ffff ffff ffff ffff     ................
 80055d0:	ffff ffff ffff ffff ffff ffff ffff ffff     ................
 80055e0:	ffff ffff ffff f8fc fbf1 def7 fcbe 78dc     ...............x
 80055f0:	e0f0 0600 0c00 028c 0100 6701 1f1f 1f7f     ...........g....
 8005600:	ff0f c41f 40c0 0220 4002 02a4 c700 f9ff     .....@ ..@......
 8005610:	ff8f ffff fcff ffe7 1ffb ffff ffff ffff     ................
 8005620:	ffff ffff ffff ffff ffff ffff ffff ffff     ................
 8005630:	ffff ffff ffff ffff ffff ffff ffff ffff     ................
 8005640:	ffff ffff ffff ffff ffff ffff ffff ffff     ................
 8005650:	ffff ffff ffff ffff ffff ffff ffff ffff     ................
 8005660:	ffff ffff ffff ffff ffff ffff e7ff 80c0     ................
 8005670:	0781 301e a058 8040 3208 8ec4 000e 0840     ...0X.@..2....@.
 8005680:	81f0 830c cdf8 fcc0 fffe e0bf c3fc ffff     ................
 8005690:	e33f ffff ffff ffff cf7f ffff ffff ffff     ?...............
 80056a0:	ffff ffff ffff ffff ffff ffff ffff ffff     ................
 80056b0:	ffff ffff ffff ffff ffff ffff ffff ffff     ................

080056c0 <IMG_DATA22>:
 80056c0:	ffff ffff ffff ffff ffff ffff ffff ffff     ................
 80056d0:	ffff ffff ffff ffff ffff ffff ffff ffff     ................
 80056e0:	ffff ffff ffff ffff ffff ffff ffff f8ff     ................
 80056f0:	813f ffff ffff ffff ffff ffff ffff ffdf     ?...............
 8005700:	ffff ffff ffff 0040 0000 2080 fff0 ffff     ......@.... ....
 8005710:	ffff 007f 0101 0000 c080 f7e0 fcfb fffe     ................
 8005720:	ffff ffff ffff ffff ffff ffff ffff ffff     ................
 8005730:	ffff ffff ffff ffff ffff ffff ffff ffff     ................
 8005740:	ffff ffff ffff ffff ffff ffff ffff ffff     ................
 8005750:	ffff ffff ffff ffff ffff ffff ffff ffff     ................
 8005760:	ffff ffff ffff ffff ffff ffff ffff bfff     ................
 8005770:	0fdc 1fd1 ff07 ef0f efef efef e5c7 bf77     ..............w.
 8005780:	f3ff f3f3 fffb 78f8 0604 fee1 ffff ffff     .......x........
 8005790:	073f c000 f8f0 f7ec fefd ffff ffff ffff     ?...............
 80057a0:	ffff ffff ffff ffff ffff ffff ffff ffff     ................
 80057b0:	ffff ffff ffff ffff ffff ffff ffff ffff     ................
 80057c0:	ffff ffff ffff ffff ffff ffff ffff ffff     ................
 80057d0:	ffff ffff ffff ffff ffff ffff ffff ffff     ................
 80057e0:	ffff ffff ffff ffff ffff ffff ffff ffff     ................
 80057f0:	fcff 600d e70f c778 f803 7f7f 013f ff3f     ...`..x.....?.?.
 8005800:	ffff 7fff 071f c001 fff8 ffff ffff 011f     ................
 8005810:	fcf0 87ff ffff ffff ffff ffff ffff ffff     ................
 8005820:	ffff ffff ffff ffff ffff ffff ffff ffff     ................
 8005830:	ffff ffff ffff ffff ffff ffff ffff ffff     ................
 8005840:	ffff ffff ffff ffff ffff ffff ffff ffff     ................
 8005850:	ffff ffff ffff ffff ffff ffff ffff ffff     ................
 8005860:	ffff ffff ffff ffff ffff ffff ffff 9fef     ................
 8005870:	813f 71b9 0461 0303 0100 1c20 1ebf a4c0     ?..qa..... .....
 8005880:	7f1d c7ef 0080 fffc ffff ffff 037f 00f8     ................
 8005890:	ffff ff01 ffff ffff ffff ffff ffff ffff     ................
 80058a0:	ffff ffff ffff ffff ffff ffff ffff ffff     ................
 80058b0:	ffff ffff ffff ffff ffff ffff ffff ffff     ................
 80058c0:	ffff ffff ffff ffff ffff ffff ffff ffff     ................
 80058d0:	ffff ffff ffff ffff ffff ffff ffff 9fff     ................
 80058e0:	ffff 0381 1f0f 7f3f ffff ffff ffff ffff     ......?.........
 80058f0:	0000 0f01 00e3 00ff c080 e0c0 e3e3 c2e2     ................
 8005900:	c4c7 c3c1 9ecf 713c 93e3 01c3 f03e 3fc3     ......<q....>..?
 8005910:	ffff 07e0 ff7f ffff ffff ffff ffff ffff     ................
 8005920:	ffff ffff ffff ffff ffff ffff ffff ffff     ................
 8005930:	ffff ffff ffff ffff ffff ffff ffff ffff     ................
 8005940:	ffff ffff ffff ffff ffff ffff ffff ffff     ................
 8005950:	ffff ffff ffff ffff ffff ffff ffff ffff     ................
 8005960:	fbfc ccf7 2094 6070 c1c0 8383 0f07 3f1f     ..... p`.......?
 8005970:	0060 8000 7800 3f7e ff3f fcfb ffff fefe     `....x~??.......
 8005980:	fbff 01e1 0501 8c07 0391 974c e77c fe9f     ..........L.|...
 8005990:	ffff f8ff 39c3 bfef ffff ffff ffff ffff     .....9..........
 80059a0:	ffff ffff ffff ffff ffff ffff ffff ffff     ................
 80059b0:	ffff ffff ffff ffff ffff ffff ffff ffff     ................
 80059c0:	ffff ffff ffff ffff ffff ffff ffff ffff     ................
 80059d0:	ffff ffff ffff ffff ffff ffff ffff ffff     ................
 80059e0:	ffff ffff ffff fffe f9fe fff7 dfff 3c2e     ...............<
 80059f0:	f0f8 0100 0300 0004 0000 3100 0f07 073f     ...........1..?.
 8005a00:	ff03 f80f b060 1000 a4c9 01da 6100 fcff     ....`........a..
 8005a10:	ffc7 ffff feff fff1 c7fc ffff ffff ffff     ................
 8005a20:	ffff ffff ffff ffff ffff ffff ffff ffff     ................
 8005a30:	ffff ffff ffff ffff ffff ffff ffff ffff     ................
 8005a40:	ffff ffff ffff ffff ffff ffff ffff ffff     ................
 8005a50:	ffff ffff ffff ffff ffff ffff ffff ffff     ................
 8005a60:	ffff ffff ffff ffff ffff ffff fbff e0f0     ................
 8005a70:	0300 3907 d874 60b0 99c2 e773 82cf 0620     ...9t..`..s... .
 8005a80:	e07c 4182 837c fef0 ffff f0cf f0fe ffff     |..A|...........
 8005a90:	f0df ffff ffff ffff e3bf ffff ffff ffff     ................
 8005aa0:	ffff ffff ffff ffff ffff ffff ffff ffff     ................
 8005ab0:	ffff ffff ffff ffff ffff ffff ffff ffff     ................

08005ac0 <IMG_DATA23>:
 8005ac0:	ffff ffff ffff ffff ffff ffff ffff ffff     ................
 8005ad0:	ffff ffff ffff ffff ffff ffff ffff ffff     ................
 8005ae0:	ffff ffff ffff ffff ffff ffff ffff feff     ................
 8005af0:	c01f ffff ffff ffff ffff ffff ffff ffef     ................
 8005b00:	ffff ffff ffff 0010 0000 90c0 fff8 ffff     ................
 8005b10:	ffff 003f 0000 8000 e0c0 fbf0 fefc ffff     ..?.............
 8005b20:	ffff ffff ffff ffff ffff ffff ffff ffff     ................
 8005b30:	ffff ffff ffff ffff ffff ffff ffff ffff     ................
 8005b40:	ffff ffff ffff ffff ffff ffff ffff ffff     ................
 8005b50:	ffff ffff ffff ffff ffff ffff ffff ffff     ................
 8005b60:	ffff ffff ffff ffff ffff ffff ffff ffff     ................
 8005b70:	87ce 0f78 f783 f707 77f7 f7f7 f2e3 dfbb     ..x......w......
 8005b80:	fdfd f9f9 fffd 3cff 8302 fff0 ffff ffff     .......<........
 8005b90:	030f e080 dcf8 fff6 fffe ffff ffff ffff     ................
 8005ba0:	ffff ffff ffff ffff ffff ffff ffff ffff     ................
 8005bb0:	ffff ffff ffff ffff ffff ffff ffff ffff     ................
 8005bc0:	ffff ffff ffff ffff ffff ffff ffff ffff     ................
 8005bd0:	ffff ffff ffff ffff ffff ffff ffff ffff     ................
 8005be0:	ffff ffff ffff ffff ffff ffff ffff ffff     ................
 8005bf0:	ffff b086 3187 e39e fc01 1f3f 80df 7f1f     .....1....?.....
 8005c00:	ffff bfff 030f e000 fffc ffff ffff 000f     ................
 8005c10:	fef8 e3ff ffff ffff ffff ffff ffff ffff     ................
 8005c20:	ffff ffff ffff ffff ffff ffff ffff ffff     ................
 8005c30:	ffff ffff ffff ffff ffff ffff ffff ffff     ................
 8005c40:	ffff ffff ffff ffff ffff ffff ffff ffff     ................
 8005c50:	ffff ffff ffff ffff ffff ffff ffff ffff     ................
 8005c60:	ffff ff7f ffff ffff ffff ffff ffff eff7     ................
 8005c70:	001f b8dc 02b0 0180 0000 0710 8fdf 4360     ..............`C
 8005c80:	3d8e e3ff 80c0 7f3e ffff 7fff 013f 80fc     .=....>.....?...
 8005c90:	ffff ff00 ffff ffff ffff ffff ffff ffff     ................
 8005ca0:	ffff ffff ffff ffff ffff ffff ffff ffff     ................
 8005cb0:	ffff ffff ffff ffff ffff ffff ffff ffff     ................
 8005cc0:	ffff ffff ffff ffff ffff ffff ffff ffff     ................
 8005cd0:	ffff ffff ffff ffff ffff ffff ffff cfff     ................
 8005ce0:	ff7f 01c0 0f07 3f1f ff7f ffff ffff ffff     .......?........
 8005cf0:	0000 0700 0001 807f e0c0 70f0 f1b1 7171     ...........p..qq
 8005d00:	e373 e1e0 cfe3 3c9e c971 8061 fc0f 9fe1     s......<q.a.....
 8005d10:	ffff 03f0 ffbf ffff ffff ffff ffff ffff     ................
 8005d20:	ffff ffff ffff ffff ffff ffff ffff ffff     ................
 8005d30:	ffff ffff ffff ffff ffff ffff ffff ffff     ................
 8005d40:	ffff ffff ffff ffff ffff ffff ffff ffff     ................
 8005d50:	ffff ffff ffff ffff ffff ffff ffff ffff     ................
 8005d60:	fdff e6fb 94ca f0f8 e070 c1c0 8783 1f0f     ........p.......
 8005d70:	0010 c000 bc00 1f9f 7f5f fe3f ffff ffff     ........_.?.....
 8005d80:	fdff 80fc 0202 4603 01c8 cd13 fb3e 7fcf     .......F....>...
 8005d90:	ffff fcff 8ee0 dff3 ff7f ffff ffff ffff     ................
 8005da0:	ffff ffff ffff ffff ffff ffff ffff ffff     ................
 8005db0:	ffff ffff ffff ffff ffff ffff ffff ffff     ................
 8005dc0:	ffff ffff ffff ffff ffff ffff ffff ffff     ................
 8005dd0:	ffff ffff ffff ffff ffff ffff ffff ffff     ................
 8005de0:	ffff ffff ffff ffff fcfe fffb eff7 1e13     ................
 8005df0:	fc7c 00c0 0100 0001 8000 8880 07c3 030f     |...............
 8005e00:	7f01 f803 8830 8000 f8c4 00ec f000 feff     ....0...........
 8005e10:	7fe3 ffff ffff fff8 e3ff ffff ffff ffff     ................
 8005e20:	ffff ffff ffff ffff ffff ffff ffff ffff     ................
 8005e30:	ffff ffff ffff ffff ffff ffff ffff ffff     ................
 8005e40:	ffff ffff ffff ffff ffff ffff ffff ffff     ................
 8005e50:	ffff ffff ffff ffff ffff ffff ffff ffff     ................
 8005e60:	ffff ffff ffff ffff ffff ffff fdff f0f8     ................
 8005e70:	0100 1603 6c3a b0d8 cc61 b1d8 c061 83d8     ....:l..a...a...
 8005e80:	f0be 20c0 e0bf fff8 ffff f8e7 f8ff ffff     ... ............
 8005e90:	f8ef ffff ffff 7fff f9df ffff ffff ffff     ................
 8005ea0:	ffff ffff ffff ffff ffff ffff ffff ffff     ................
 8005eb0:	ffff ffff ffff ffff ffff ffff ffff ffff     ................

08005ec0 <IMG_DATA24>:
 8005ec0:	ffff ffff ffff ffff ffff ffff ffff ffff     ................
 8005ed0:	ffff ffff ffff ffff ffff ffff ffff ffff     ................
 8005ee0:	ffff ffff ffff ffff ffff ffff ffff ffff     ................
 8005ef0:	f00f ff7f ffff ffff ffff ffff 7fff fff3     ................
 8005f00:	ffff ffff 7fff 0088 8000 c870 fffc ffff     ..........p.....
 8005f10:	ffff 000f 0000 c080 f060 fde8 fffe ffff     ........`.......
 8005f20:	ffff ffff ffff ffff ffff ffff ffff ffff     ................
 8005f30:	ffff ffff ffff ffff ffff ffff ffff ffff     ................
 8005f40:	ffff ffff ffff ffff ffff ffff ffff ffff     ................
 8005f50:	ffff ffff ffff ffff ffff ffff ffff ffff     ................
 8005f60:	ffff ffff ffff ffff ffff ffff ffff f7ff     ................
 8005f70:	c9ef 07ba fbc1 fb01 3bf9 f9ff 7df1 fedd     .........;...}..
 8005f80:	fefe fefe fffe 1e7f c001 fff8 ffff 7fff     ................
 8005f90:	8107 f0e0 fefc fffb ffff ffff ffff ffff     ................
 8005fa0:	ffff ffff ffff ffff ffff ffff ffff ffff     ................
 8005fb0:	ffff ffff ffff ffff ffff ffff ffff ffff     ................
 8005fc0:	ffff ffff ffff ffff ffff ffff ffff ffff     ................
 8005fd0:	ffff ffff ffff ffff ffff ffff ffff ffff     ................
 8005fe0:	ffff ffff ffff ffff ffff ffff ffff ffff     ................
 8005ff0:	7fff 1863 1841 704f 7e00 8f1f c0e7 9f0f     ..c.A.Op.~......
 8006000:	ff7f dfff 0183 f000 fffe ffff ffff 0007     ................
 8006010:	fffc f17f ffff ffff ffff ffff ffff ffff     ................
 8006020:	ffff ffff ffff ffff ffff ffff ffff ffff     ................
 8006030:	ffff ffff ffff ffff ffff ffff ffff ffff     ................
 8006040:	ffff ffff ffff ffff ffff ffff ffff ffff     ................
 8006050:	ffff ffff ffff ffff ffff ffff ffff ffff     ................
 8006060:	ffff ff3f ffff ffff ffff ffff ffff f7ff     ..?.............
 8006070:	000f ee6e 01dc 00c0 0000 0300 476f b1f0     ..n.........oG..
 8006080:	9e97 f93d c0e0 3f1f ff7f 3fff 009f e07f     ..=....?...?....
 8006090:	ffff ff00 ffff ffff ffff ffff ffff ffff     ................
 80060a0:	ffff ffff ffff ffff ffff ffff ffff ffff     ................
 80060b0:	ffff ffff ffff ffff ffff ffff ffff ffff     ................
 80060c0:	ffff ffff ffff ffff ffff ffff ffff ffff     ................
 80060d0:	ffff ffff ffff ffff ffff ffff ffff e7ff     ................
 80060e0:	ffbf 00e0 0703 1f0f 3f3f ff7f ffff ffff     ........??......
 80060f0:	0000 0300 0038 c0bf f0e0 d878 b8d8 b8b8     ....8.....x.....
 8006100:	f9b8 7079 7771 1ecf e439 c0b0 fe0f cff0     ..ypqw..9.......
 8006110:	ffff 01f8 7f4f ffff ffff ffff ffff ffff     ....O...........
 8006120:	ffff ffff ffff ffff ffff ffff ffff ffff     ................
 8006130:	ffff ffff ffff ffff ffff ffff ffff ffff     ................
 8006140:	ffff ffff ffff ffff ffff ffff ffff ffff     ................
 8006150:	ffff ffff ffff ffff ffff ffff ffff ffff     ................
 8006160:	feff fbfd fafe 88f4 b018 e070 c3e1 8787     ..........p.....
 8006170:	0008 6000 cf00 0fcf 1f0f 7f1f ffff ffff     ...`............
 8006180:	feff 40fe 0001 2300 0024 2609 7c1f 1fe7     ...@...#$..&.|..
 8006190:	ffff feff c7f0 e77d ffbf ffff ffff ffff     ......}.........
 80061a0:	ffff ffff ffff ffff ffff ffff ffff ffff     ................
 80061b0:	ffff ffff ffff ffff ffff ffff ffff ffff     ................
 80061c0:	ffff ffff ffff ffff ffff ffff ffff ffff     ................
 80061d0:	ffff ffff ffff ffff ffff ffff ffff ffff     ................
 80061e0:	ffff ffff ffff ffff feff ffff 77fb 071d     .............w..
 80061f0:	7e3f 00e0 0080 0008 0080 c640 01e1 8107     ?~........@.....
 8006200:	3f00 3c01 548c c400 f4e0 00fa 3880 ffff     .?.<.T.......8..
 8006210:	3ff9 ffff ffff fffe f1ff ffff ffff ffff     .?..............
 8006220:	ffff ffff ffff ffff ffff ffff ffff ffff     ................
 8006230:	ffff ffff ffff ffff ffff ffff ffff ffff     ................
 8006240:	ffff ffff ffff ffff ffff ffff ffff ffff     ................
 8006250:	ffff ffff ffff ffff ffff ffff ffff ffff     ................
 8006260:	ffff ffff ffff ffff ffff ffff feff f8fc     ................
 8006270:	8080 0301 3a1d d86c e2b0 d86c e0b0 d0e4     .....:l...l.....
 8006280:	f85f 80e0 f0ff fffc ffff fef3 fcff ffff     _...............
 8006290:	fcf3 ffff ffff dfff fcef ffff ffff ffff     ................
 80062a0:	ffff ffff ffff ffff ffff ffff ffff ffff     ................
 80062b0:	ffff ffff ffff ffff ffff ffff ffff ffff     ................

080062c0 <IMG_DATA25>:
 80062c0:	ffff ffff ffff ffff ffff ffff ffff ffff     ................
 80062d0:	ffff ffff ffff ffff ffff ffff ffff ffff     ................
 80062e0:	ffff ffff ffff ffff ffff ffff ffff ffff     ................
 80062f0:	f887 ff3f ffff ffff ffff ffff bfff 7ff9     ..?.............
 8006300:	7f7f 7f7f bf7f 00c4 4080 e438 fffe ffff     .........@8.....
 8006310:	ffff 0007 0000 60c0 f8b0 fef4 ffff ffff     .......`........
 8006320:	ffff ffff ffff ffff ffff ffff ffff ffff     ................
 8006330:	ffff ffff ffff ffff ffff ffff ffff ffff     ................
 8006340:	ffff ffff ffff ffff ffff ffff ffff ffff     ................
 8006350:	ffff ffff ffff ffff ffff ffff ffff ffff     ................
 8006360:	ffff ffff ffff ffff ffff ffff ffff fbff     ................
 8006370:	e4f7 03dc fde0 7d80 1d7c fcff 3ef8 f7ee     .......}|....>..
 8006380:	ffff ffff ffff 0f3f e000 fffc ffff 3fff     ......?........?
 8006390:	c003 f8f0 fffe fffd ffff ffff ffff ffff     ................
 80063a0:	ffff ffff ffff ffff ffff ffff ffff ffff     ................
 80063b0:	ffff ffff ffff ffff ffff ffff ffff ffff     ................
 80063c0:	ffff ffff ffff ffff ffff ffff ffff ffff     ................
 80063d0:	ffff ffff ffff ffff ffff ffff ffff ffff     ................
 80063e0:	ffff ffff ffff ffff ffff ffff ffff ffff     ................
 80063f0:	3fff 2c31 8c21 3827 3f00 c70f e0f3 cf07     .?1,!.'8.?......
 8006400:	7fbf efff 0041 f880 ffff ffff 7fff 0083     ....A...........
 8006410:	fffe f83f ffff ffff ffff ffff ffff ffff     ..?.............
 8006420:	ffff ffff ffff ffff ffff ffff ffff ffff     ................
 8006430:	ffff ffff ffff ffff ffff ffff ffff ffff     ................
 8006440:	ffff ffff ffff ffff ffff ffff ffff ffff     ................
 8006450:	ffff ffff ffff ffff ffff ffff ffff ffff     ................
 8006460:	ffff 7f1f ffff ffff ffff ffff ffff fbff     ................
 8006470:	0007 f737 016e 00e0 0000 0104 2337 5878     ..7.n.......7#xX
 8006480:	cf4b 7c9e e0f0 1f8f 7f3f 1f3f 00e7 e03f     K..|....?.?...?.
 8006490:	ffff ff00 ffff ffff ffff ffff ffff ffff     ................
 80064a0:	ffff ffff ffff ffff ffff ffff ffff ffff     ................
 80064b0:	ffff ffff ffff ffff ffff ffff ffff ffff     ................
 80064c0:	ffff ffff ffff ffff ffff ffff ffff ffff     ................
 80064d0:	ffff ffff ffff ffff ffff ffff ffff f3ff     ................
 80064e0:	7fdf 80f0 0301 0f07 1f1f 7f3f ffff ffff     ..........?.....
 80064f0:	0000 0100 801c e0df f8f0 ecbc dcec dcdc     ................
 8006500:	7cdc 383c 33b8 8f67 721c 6098 7f83 e7f8     .|<8.3g..r.`....
 8006510:	ffff 00fc bf27 ffff ffff ffff ffff ffff     ....'...........
 8006520:	ffff ffff ffff ffff ffff ffff ffff ffff     ................
 8006530:	ffff ffff ffff ffff ffff ffff ffff ffff     ................
 8006540:	ffff ffff ffff ffff ffff ffff ffff ffff     ................
 8006550:	ffff ffff ffff ffff ffff ffff ffff ffff     ................
 8006560:	ffff fdfe fdfb c4fa 588c f0b8 e1f0 c3c1     .........X......
 8006570:	0084 3000 6f00 0767 0f07 3f0f ffff ffff     ...0.og....?....
 8006580:	ff7f 20ff 0000 1100 0013 1304 3e0f 9ff3     ... .........>..
 8006590:	ffff ffff e3f8 f33e ffdf ffff ffff ffff     ......>.........
 80065a0:	ffff ffff ffff ffff ffff ffff ffff ffff     ................
 80065b0:	ffff ffff ffff ffff ffff ffff ffff ffff     ................
 80065c0:	ffff ffff ffff ffff ffff ffff ffff ffff     ................
 80065d0:	ffff ffff ffff ffff ffff ffff ffff ffff     ................
 80065e0:	ffff ffff ffff ffff ffff ffff 3bfd 0304     .............;..
 80065f0:	3f1f 80f0 00c0 0004 0040 6320 4070 4003     .?......@. cp@.@
 8006600:	1f80 1e00 2ac6 e000 faf0 00fd 08c0 ffff     .....*..........
 8006610:	1ff8 ffff ffff ffff 70ff ffff ffff ffff     .........p......
 8006620:	ffff ffff ffff ffff ffff ffff ffff ffff     ................
 8006630:	ffff ffff ffff ffff ffff ffff ffff ffff     ................
 8006640:	ffff ffff ffff ffff ffff ffff ffff ffff     ................
 8006650:	ffff ffff ffff ffff ffff ffff ffff ffff     ................
 8006660:	ffff ffff ffff ffff ffff ffff ffff fcfe     ................
 8006670:	c0c0 0180 1d0e 6c36 b9d8 ecf6 f0d8 e8f2     ......6l........
 8006680:	fcaf ccf0 f8ff fffe ffff fff9 feff ffff     ................
 8006690:	fef9 ffff ffff efff fef3 ffff ffff ffff     ................
 80066a0:	ffff ffff ffff ffff ffff ffff ffff ffff     ................
 80066b0:	ffff ffff ffff ffff ffff ffff ffff ffff     ................

080066c0 <IMG_DATA26>:
 80066c0:	ffff ffff ffff ffff ffff ffff ffff ffff     ................
 80066d0:	ffff ffff ffff ffff ffff ffff ffff ffff     ................
 80066e0:	ffff ffff ffff ffff ffff ffff ffff ffff     ................
 80066f0:	f8c3 ff1f ff7f ff7f ffff ffff 5f7f ff7d     ............._}.
 8006700:	bfbf 3f3f ffbf 80c2 6040 f618 ffff ffff     ..??....@`......
 8006710:	7fff 0007 8000 f0c0 fcd8 fffe ffff ffff     ................
 8006720:	ffff ffff ffff ffff ffff ffff ffff ffff     ................
 8006730:	ffff ffff ffff ffff ffff ffff ffff ffff     ................
 8006740:	ffff ffff ffff ffff ffff ffff ffff ffff     ................
 8006750:	ffff ffff ffff ffff ffff ffff ffff ffff     ................
 8006760:	ffff ffff ffff ffff ffff ffff ffff ffff     ................
 8006770:	f4f9 01cd 7ef0 3ec0 8e3e fefe 1efc fbf7     .....~.>>.......
 8006780:	ffff ffff 7fff 071f f080 fffe ffff 1fff     ................
 8006790:	c001 7cf0 fbff fffe ffff ffff ffff ffff     ...|............
 80067a0:	ffff ffff ffff ffff ffff ffff ffff ffff     ................
 80067b0:	ffff ffff ffff ffff ffff ffff ffff ffff     ................
 80067c0:	ffff ffff ffff ffff ffff ffff ffff ffff     ................
 80067d0:	ffff ffff ffff ffff ffff ffff ffff ffff     ................
 80067e0:	ffff ffff ffff ffff ffff ffff ffff ffff     ................
 80067f0:	1fff 1690 4610 3c13 1f10 e307 f0fb 4f03     .....F.<.......O
 8006800:	bfdf 77ff 0001 fcc0 ffff ffff 3fff 00c1     ...w.........?..
 8006810:	ffff fc1f ffff ffff ffff ffff ffff ffff     ................
 8006820:	ffff ffff ffff ffff ffff ffff ffff ffff     ................
 8006830:	ffff ffff ffff ffff ffff ffff ffff ffff     ................
 8006840:	ffff ffff ffff ffff ffff ffff ffff ffff     ................
 8006850:	ffff ffff ffff ffff ffff ffff ffff ffff     ................
 8006860:	ffff 3f0f ffff ffff ffff ffff ffff f9fe     ...?............
 8006870:	0003 f71b 0036 00f0 0000 0102 313b 282c     ....6.......;1,(
 8006880:	6771 3c1f f078 9fc7 3f3f 1f3f 80e7 f01f     qg.<x...???.....
 8006890:	ffff 7f00 ffff ffff ffff ffff ffff ffff     ................
 80068a0:	ffff ffff ffff ffff ffff ffff ffff ffff     ................
 80068b0:	ffff ffff ffff ffff ffff ffff ffff ffff     ................
 80068c0:	ffff ffff ffff ffff ffff ffff ffff ffff     ................
 80068d0:	ffff ffff ffff ffff ffff ffff ffff f9ff     ................
 80068e0:	bfef c078 8140 0703 1f0f 3f1f ff7f ffff     ..x.@......?....
 80068f0:	0000 0000 8008 f0ef fcf8 cefe eef6 eeee     ................
 8006900:	bcee 1c9c 595c c773 390e 704c 7fc3 f3fc     ....\Ys..9Lp....
 8006910:	ffff 80fe df17 ff7f ffff ffff ffff ffff     ................
 8006920:	ffff ffff ffff ffff ffff ffff ffff ffff     ................
 8006930:	ffff ffff ffff ffff ffff ffff ffff ffff     ................
 8006940:	ffff ffff ffff ffff ffff ffff ffff ffff     ................
 8006950:	ffff ffff ffff ffff ffff ffff ffff ffff     ................
 8006960:	ffff fcff f2f9 fefd 9cce f878 f0f0 c3e1     ..........x.....
 8006970:	0082 1800 3700 0373 0f03 1f0f ff7f 7fff     .....7s.........
 8006980:	ff3f 007f 0000 0800 0099 0982 1f07 cff9     ?...............
 8006990:	ff7f ffff e1fc fb1e 7fef ffff ffff ffff     ................
 80069a0:	ffff ffff ffff ffff ffff ffff ffff ffff     ................
 80069b0:	ffff ffff ffff ffff ffff ffff ffff ffff     ................
 80069c0:	ffff ffff ffff ffff ffff ffff ffff ffff     ................
 80069d0:	ffff ffff ffff ffff ffff ffff ffff ffff     ................
 80069e0:	ffff ffff ffff ffff ffff ffff bdff 0302     ................
 80069f0:	3f0f c078 8040 0002 9020 3130 2038 6003     .?x.@... .018 .`
 8006a00:	0fc0 0f00 11e7 f100 fef8 00fd 0ee0 ffff     ................
 8006a10:	0ffc ffff ffff ffff 38ff ffff ffff ffff     .........8......
 8006a20:	ffff ffff ffff ffff ffff ffff ffff ffff     ................
 8006a30:	ffff ffff ffff ffff ffff ffff ffff ffff     ................
 8006a40:	ffff ffff ffff ffff ffff ffff ffff ffff     ................
 8006a50:	ffff ffff ffff ffff ffff ffff ffff ffff     ................
 8006a60:	ffff ffff ffff ffff ffff ffff ffff feff     ................
 8006a70:	c0e0 82c0 0d07 763b d96c fefb f8fc e0f1     ......;vl.......
 8006a80:	fed7 e4f8 f8f7 ffff ffff fffc ffff ffff     ................
 8006a90:	fffc ffff bf7f ffdf fffb ffff ffff ffff     ................
 8006aa0:	ffff ffff ffff ffff ffff ffff ffff ffff     ................
 8006ab0:	ffff ffff ffff ffff ffff ffff ffff ffff     ................

08006ac0 <IMG_DATA27>:
 8006ac0:	ffff ffff ffff ffff ffff ffff ffff ffff     ................
 8006ad0:	ffff ffff ffff ffff ffff ffff ffff ffff     ................
 8006ae0:	ffff ffff ffff ffff ffff ffff ffff ffff     ................
 8006af0:	7cc1 ff9f ff3f 7f7f 7f7f 7f7f 4f7f ffbc     .|..?........O..
 8006b00:	bfbf bfbf dfdf c0ca 2000 f30c ffff ffff     ......... ......
 8006b10:	3fff 0003 c000 b0e0 f6f8 fffb ffff ffff     .?..............
 8006b20:	ffff ffff ffff ffff ffff ffff ffff ffff     ................
 8006b30:	ffff ffff ffff ffff ffff ffff ffff ffff     ................
 8006b40:	ffff ffff ffff ffff ffff ffff ffff ffff     ................
 8006b50:	ffff ffff ffff ffff ffff ffff ffff ffff     ................
 8006b60:	ffff ffff ffff ffff ffff ffff ffff fdff     ................
 8006b70:	faff 00ee 3e70 3ec0 ce3e ffff 1ffc fff7     ....p>.>>.......
 8006b80:	ffff ffff 3fff 070f f880 fffe ffff 0fff     .....?..........
 8006b90:	e001 7ef8 ffff ffff ffff ffff ffff ffff     ...~............
 8006ba0:	ffff ffff ffff ffff ffff ffff ffff ffff     ................
 8006bb0:	ffff ffff ffff ffff ffff ffff ffff ffff     ................
 8006bc0:	ffff ffff ffff ffff ffff ffff ffff ffff     ................
 8006bd0:	ffff ffff ffff ffff ffff ffff ffff ffff     ................
 8006be0:	ffff ffff ffff ffff ffff ffff ffff ffff     ................
 8006bf0:	1fff 86d8 0600 1c13 1f00 e307 f0f9 2703     ...............'
 8006c00:	bfdf f77f 0020 fce0 ffff ffff 3fff 00c1     .... ........?..
 8006c10:	ffff fc1f ffff ffff ffff ffff ffff ffff     ................
 8006c20:	ffff ffff ffff ffff ffff ffff ffff ffff     ................
 8006c30:	ffff ffff ffff ffff ffff ffff ffff ffff     ................
 8006c40:	ffff ffff ffff ffff ffff ffff ffff ffff     ................
 8006c50:	ffff ffff ffff ffff ffff ffff ffff ffff     ................
 8006c60:	ffff 3f0f ff7f ffff ffff ffff ffff fcff     ...?............
 8006c70:	0401 fb09 0037 00f0 0000 0000 1c19 3d1e     ....7..........=
 8006c80:	2724 3e4f f278 8fc7 1f1f 0f1f 80f3 f81f     $'O>x...........
 8006c90:	ffff 3f00 ffff ffff ffff ffff ffff ffff     ...?............
 8006ca0:	ffff ffff ffff ffff ffff ffff ffff ffff     ................
 8006cb0:	ffff ffff ffff ffff ffff ffff ffff ffff     ................
 8006cc0:	ffff ffff ffff ffff ffff ffff ffff ffff     ................
 8006cd0:	ffff ffff ffff ffff ffff ffff ffff f8ff     ................
 8006ce0:	dfef e038 8080 0301 0f07 3f1f 7f7f ffff     ..8........?....
 8006cf0:	0000 0000 c006 f0ef fcf8 f6de eef6 fefe     ................
 8006d00:	9efe 4e1e 3c0c 6731 998e b866 3fc0 f3fe     ...N.<1g..f..?..
 8006d10:	ffff c0fe df13 ff7f ffff ffff ffff ffff     ................
 8006d20:	ffff ffff ffff ffff ffff ffff ffff ffff     ................
 8006d30:	ffff ffff ffff ffff ffff ffff ffff ffff     ................
 8006d40:	ffff ffff ffff ffff ffff ffff ffff ffff     ................
 8006d50:	ffff ffff ffff ffff ffff ffff ffff ffff     ................
 8006d60:	ffff feff fafd e3f1 ecc6 789c f0f8 e170     ...........x..p.
 8006d70:	80c3 0800 1300 0b33 0703 9f07 7f7e 7fff     ......3.....~...
 8006d80:	ff1f 507f 0000 0c80 004d 0992 1f03 e7fd     ...P....M.......
 8006d90:	ff3f ffff f1fe fd9f 7fe7 ffff ffff ffff     ?...............
 8006da0:	ffff ffff ffff ffff ffff ffff ffff ffff     ................
 8006db0:	ffff ffff ffff ffff ffff ffff ffff ffff     ................
 8006dc0:	ffff ffff ffff ffff ffff ffff ffff ffff     ................
 8006dd0:	ffff ffff ffff ffff ffff ffff ffff ffff     ................
 8006de0:	ffff ffff ffff ffff ffff ffff 9ffe 0103     ................
 8006df0:	1f07 c078 8020 0002 c820 3998 0078 2001     ..x. ... ..9x.. 
 8006e00:	07c0 0f00 1de3 f000 fdf8 80fe 0ef0 ffff     ................
 8006e10:	87fe ffff ffff ffff 1cff ffff ffff ffff     ................
 8006e20:	ffff ffff ffff ffff ffff ffff ffff ffff     ................
 8006e30:	ffff ffff ffff ffff ffff ffff ffff ffff     ................
 8006e40:	ffff ffff ffff ffff ffff ffff ffff ffff     ................
 8006e50:	ffff ffff ffff ffff ffff ffff ffff ffff     ................
 8006e60:	ffff ffff ffff ffff ffff ff7f ffff feff     ................
 8006e70:	e0f0 80c0 0e87 3a1d ec74 f6fb fcec f4f9     .......:t.......
 8006e80:	fee3 f2f8 fcf7 ffff ffff fffe ffff ffff     ................
 8006e90:	fffe 7fff dfbf f7ef fffd ffff ffff ffff     ................
 8006ea0:	ffff ffff ffff ffff ffff ffff ffff ffff     ................
 8006eb0:	ffff ffff ffff ffff ffff ffff ffff ffff     ................

08006ec0 <IMG_DATA28>:
 8006ec0:	ffff ffff ffff ffff ffff ffff ffff ffff     ................
 8006ed0:	ffff ffff ffff ffff ffff ffff ffff ffff     ................
 8006ee0:	ffff ffff ffff ffff ffff ffff ffff ffff     ................
 8006ef0:	7ce1 ff8f ff3f 7f3f 7f7f 7f7f 2f3f ffbe     .|..?.?.....?/..
 8006f00:	9fbf bf9f ffdf c0c2 2020 f30c ffff ffff     ........  ......
 8006f10:	3fff 0003 c000 b860 f6ec ffff ffff ffff     .?....`.........
 8006f20:	ffff ffff ffff ffff ffff ffff ffff ffff     ................
 8006f30:	ffff ffff ffff ffff ffff ffff ffff ffff     ................
 8006f40:	ffff ffff ffff ffff ffff ffff ffff ffff     ................
 8006f50:	ffff ffff ffff ffff ffff ffff ffff ffff     ................
 8006f60:	ffff ffff ffff ffff ffff ffff ffff fdff     ................
 8006f70:	fafe 006e 3f78 3fc0 cf3e ffff 1ffe fdfb     ..n.x?.?>.......
 8006f80:	ffff ffff 3fff 030f f8c0 ffff ffff 0fff     .....?..........
 8006f90:	e081 3ef8 fdff ffff ffff ffff ffff ffff     ...>............
 8006fa0:	ffff ffff ffff ffff ffff ffff ffff ffff     ................
 8006fb0:	ffff ffff ffff ffff ffff ffff ffff ffff     ................
 8006fc0:	ffff ffff ffff ffff ffff ffff ffff ffff     ................
 8006fd0:	ffff ffff ffff ffff ffff ffff ffff ffff     ................
 8006fe0:	ffff ffff ffff ffff ffff ffff ffff ff7f     ................
 8006ff0:	0fff 8bc8 2708 5c1b 0f00 e303 f0f9 2701     .....'.\.......'
 8007000:	ffef 3b7f 0020 fce0 ffff ffff 1fff 00c0     ...; ...........
 8007010:	ffff fc1f ffff ffff ffff ffff ffff ffff     ................
 8007020:	ffff ffff ffff ffff ffff ffff ffff ffff     ................
 8007030:	ffff ffff ffff ffff ffff ffff ffff ffff     ................
 8007040:	ffff ffff ffff ffff ffff ffff ffff ffff     ................
 8007050:	ffff ffff ffff ffff ffff ffff ffff ffff     ................
 8007060:	ffff 1f0f ff7f ffff ffff ffff ffff fcff     ................
 8007070:	0401 7b09 001b 00f8 0000 0001 1c1d 1516     ...{............
 8007080:	2338 1e0f f07c 8fe7 9f1f 0f1f 80f3 f81f     8#..|...........
 8007090:	ffff 3f00 ffff ffff ffff ffff ffff ffff     ...?............
 80070a0:	ffff ffff ffff ffff ffff ffff ffff ffff     ................
 80070b0:	ffff ffff ffff ffff ffff ffff ffff ffff     ................
 80070c0:	ffff ffff ffff ffff ffff ffff ffff ffff     ................
 80070d0:	ffff ffff ffff ffff ffff ffff ffff f8ff     ................
 80070e0:	dfe7 6038 00a0 0381 0f07 1f1f 7f3f ffff     ..8`........?...
 80070f0:	0000 0000 c002 f8ef fefc 77de ffff f6fe     ...........w....
 8007100:	defe 0e4e 2c0e 6339 9d8f b866 3fe1 f1fe     ..N..,9c..f..?..
 8007110:	ffff c0ff cf1b ff7f ffff ffff ffff ffff     ................
 8007120:	ffff ffff ffff ffff ffff ffff ffff ffff     ................
 8007130:	ffff ffff ffff ffff ffff ffff ffff ffff     ................
 8007140:	ffff ffff ffff ffff ffff ffff ffff ffff     ................
 8007150:	ffff ffff ffff ffff ffff ffff ffff ffff     ................
 8007160:	ffff feff f9fc f3f3 cef6 fcbc f8f8 e170     ..............p.
 8007170:	80c3 0c00 1b00 0131 0701 8f07 7f3f 3fff     ......1.....?..?
 8007180:	ff1f 903f 8000 0400 204c 0cc2 1f03 e7fc     ..?.....L ......
 8007190:	ff3f ffff f1fe fd8f 3fe7 ffff ffff ffff     ?........?......
 80071a0:	ffff ffff ffff ffff ffff ffff ffff ffff     ................
 80071b0:	ffff ffff ffff ffff ffff ffff ffff ffff     ................
 80071c0:	ffff ffff ffff ffff ffff ffff ffff ffff     ................
 80071d0:	ffff ffff ffff ffff ffff ffff ffff ffff     ................
 80071e0:	ffff ffff ffff ffff ffff ffff deff 0181     ................
 80071f0:	1f07 c838 c0a0 0080 c810 3998 0038 3001     ..8........98..0
 8007200:	07e0 0f00 1de3 f080 fdfc 807e 87f0 ffff     ..........~.....
 8007210:	87fe ffff ffff ffff 1cff ffff ffff ffff     ................
 8007220:	ffff ffff ffff ffff ffff ffff ffff ffff     ................
 8007230:	ffff ffff ffff ffff ffff ffff ffff ffff     ................
 8007240:	ffff ffff ffff ffff ffff ffff ffff ffff     ................
 8007250:	ffff ffff ffff ffff ffff ffff ffff ffff     ................
 8007260:	ffff ffff ffff ffff bfff ff7f ffff ffff     ................
 8007270:	e0f0 c1c0 8e83 3b1d 6c76 f7f9 fcee f4f9     .......;vl......
 8007280:	ffe3 f2fc fcfb ffff ffff fffe ffff ffff     ................
 8007290:	fffe ffff dfbf f7ef fffd ffff ffff ffff     ................
 80072a0:	ffff ffff ffff ffff ffff ffff ffff ffff     ................
 80072b0:	ffff ffff ffff ffff ffff ffff ffff ffff     ................

080072c0 <IMG_DATA29>:
 80072c0:	ffff ffff ffff ffff ffff ffff ffff ffff     ................
 80072d0:	ffff ffff ffff ffff ffff ffff ffff ffff     ................
 80072e0:	ffff ffff ffff ffff ffff ffff ffff ffff     ................
 80072f0:	7ce1 ff8f ff3f 7f3f 7f7f 7f7f 2f7f ffbe     .|..?.?....../..
 8007300:	9fbf bf9f ffdf c0c2 2020 f30c ffff ffff     ........  ......
 8007310:	3fff 0003 c080 b860 f6ec ffff ffff ffff     .?....`.........
 8007320:	ffff ffff ffff ffff ffff ffff ffff ffff     ................
 8007330:	ffff ffff ffff ffff ffff ffff ffff ffff     ................
 8007340:	ffff ffff ffff ffff ffff ffff ffff ffff     ................
 8007350:	ffff ffff ffff ffff ffff ffff ffff ffff     ................
 8007360:	ffff ffff ffff ffff ffff ffff ffff fdff     ................
 8007370:	f8fe 006e 3f78 3fc0 cf1f ffff 0ffe fdfb     ..n.x?.?........
 8007380:	ffff ffff 3fff 030f f8c0 ffff ffff 0fff     .....?..........
 8007390:	e081 3ef8 fdff ffff ffff ffff ffff ffff     ...>............
 80073a0:	ffff ffff ffff ffff ffff ffff ffff ffff     ................
 80073b0:	ffff ffff ffff ffff ffff ffff ffff ffff     ................
 80073c0:	ffff ffff ffff ffff ffff ffff ffff ffff     ................
 80073d0:	ffff ffff ffff ffff ffff ffff ffff ffff     ................
 80073e0:	ffff ffff ffff ffff ffff ffff ffff ff7f     ................
 80073f0:	0fff 8bc8 2708 5e1b 0f00 e303 f0f9 2701     .....'.^.......'
 8007400:	ffef 3b7f 0000 fce0 ffff ffff 1fff 00c0     ...;............
 8007410:	ffff fc1f ffff ffff ffff ffff ffff ffff     ................
 8007420:	ffff ffff ffff ffff ffff ffff ffff ffff     ................
 8007430:	ffff ffff ffff ffff ffff ffff ffff ffff     ................
 8007440:	ffff ffff ffff ffff ffff ffff ffff ffff     ................
 8007450:	ffff ffff ffff ffff ffff ffff ffff ffff     ................
 8007460:	ffff 1f0f ff7f ffff ffff ffff ffff fcff     ................
 8007470:	0001 7b0d 001b 00f8 0000 0001 181d 1516     ...{............
 8007480:	2338 1e0f f07c 8fe7 9f1f 0f1f 80f3 f81f     8#..|...........
 8007490:	ffff 3f00 ffff ffff ffff ffff ffff ffff     ...?............
 80074a0:	ffff ffff ffff ffff ffff ffff ffff ffff     ................
 80074b0:	ffff ffff ffff ffff ffff ffff ffff ffff     ................
 80074c0:	ffff ffff ffff ffff ffff ffff ffff ffff     ................
 80074d0:	ffff ffff ffff ffff ffff ffff ffff f8ff     ................
 80074e0:	dfe7 60bc 00a0 0381 0f07 1f1f 7f3f ffff     ...`........?...
 80074f0:	0000 0000 c002 f8f7 fefc 77de ffff f6f7     ...........w....
 8007500:	defe 0e0e 2c0e 6339 9c87 b866 3fe1 f1fe     .....,9c..f..?..
 8007510:	ffff c0ff cf0b ff7f ffff ffff ffff ffff     ................
 8007520:	ffff ffff ffff ffff ffff ffff ffff ffff     ................
 8007530:	ffff ffff ffff ffff ffff ffff ffff ffff     ................
 8007540:	ffff ffff ffff ffff ffff ffff ffff ffff     ................
 8007550:	ffff ffff ffff ffff ffff ffff ffff ffff     ................
 8007560:	ffff feff f9fc fbf3 cef6 fcbc f8f8 e170     ..............p.
 8007570:	80c3 0c00 1300 0331 0705 8f07 7f3f 3fff     ......1.....?..?
 8007580:	ff1f 903f 8000 0400 204c 0cc2 1f03 e7fc     ..?.....L ......
 8007590:	ff3f ffff f0fe fd8f 3fe7 ffff ffff ffff     ?........?......
 80075a0:	ffff ffff ffff ffff ffff ffff ffff ffff     ................
 80075b0:	ffff ffff ffff ffff ffff ffff ffff ffff     ................
 80075c0:	ffff ffff ffff ffff ffff ffff ffff ffff     ................
 80075d0:	ffff ffff ffff ffff ffff ffff ffff ffff     ................
 80075e0:	ffff ffff ffff ffff ffff ffff deff 0181     ................
 80075f0:	1f07 c838 c0a0 0080 c810 3998 0038 2001     ..8........98.. 
 8007600:	07e0 0f00 08e3 f081 fdfc 807e 87f0 ffff     ..........~.....
 8007610:	87fe ffff ffff ffff 1cff ffff ffff ffff     ................
 8007620:	ffff ffff ffff ffff ffff ffff ffff ffff     ................
 8007630:	ffff ffff ffff ffff ffff ffff ffff ffff     ................
 8007640:	ffff ffff ffff ffff ffff ffff ffff ffff     ................
 8007650:	ffff ffff ffff ffff ffff ffff ffff ffff     ................
 8007660:	ffff ffff ffff ffff bfff ff7f ffff ffff     ................
 8007670:	e0f0 c1c0 8e83 3b1d 6c76 f7f9 fcee f4f9     .......;vl......
 8007680:	ffeb f2fc fcfb ffff ffff fffe ffff ffff     ................
 8007690:	fffe ffff dfbf f7ef fffd ffff ffff ffff     ................
 80076a0:	ffff ffff ffff ffff ffff ffff ffff ffff     ................
 80076b0:	ffff ffff ffff ffff ffff ffff ffff ffff     ................

080076c0 <IMG_DATA30>:
 80076c0:	ffff ffff ffff ffff ffff ffff ffff ffff     ................
 80076d0:	ffff ffff ffff ffff ffff ffff ffff ffff     ................
 80076e0:	ffff ffff ffff ffff ffff ffff ffff ffff     ................
 80076f0:	7ce1 ff8f ff3f 7f3f 7f7f 7f7f 2f7f ffbe     .|..?.?....../..
 8007700:	9fbf bf9f ffdf c0c2 2020 fb0c ffff ffff     ........  ......
 8007710:	3fff 0003 c080 b860 feec ffff ffff ffff     .?....`.........
 8007720:	ffff ffff ffff ffff ffff ffff ffff ffff     ................
 8007730:	ffff ffff ffff ffff ffff ffff ffff ffff     ................
 8007740:	ffff ffff ffff ffff ffff ffff ffff ffff     ................
 8007750:	ffff ffff ffff ffff ffff ffff ffff ffff     ................
 8007760:	ffff ffff ffff ffff ffff ffff ffff fdff     ................
 8007770:	fafe 0066 3f78 3fc0 cf1f ffff 0ffe fdfb     ..f.x?.?........
 8007780:	ffff ffff 3fff 030f f8c0 ffff ffff 0fff     .....?..........
 8007790:	e081 3ef8 fdff ffff ffff ffff ffff ffff     ...>............
 80077a0:	ffff ffff ffff ffff ffff ffff ffff ffff     ................
 80077b0:	ffff ffff ffff ffff ffff ffff ffff ffff     ................
 80077c0:	ffff ffff ffff ffff ffff ffff ffff ffff     ................
 80077d0:	ffff ffff ffff ffff ffff ffff ffff ffff     ................
 80077e0:	ffff ffff ffff ffff ffff ffff ffff ff7f     ................
 80077f0:	0fff 8bc8 2708 5e1b 0f00 6303 f0f9 2701     .....'.^...c...'
 8007800:	ffef 3b7f 0000 fee0 ffff ffff 1fff 00c0     ...;............
 8007810:	ffff fc0f ffff ffff ffff ffff ffff ffff     ................
 8007820:	ffff ffff ffff ffff ffff ffff ffff ffff     ................
 8007830:	ffff ffff ffff ffff ffff ffff ffff ffff     ................
 8007840:	ffff ffff ffff ffff ffff ffff ffff ffff     ................
 8007850:	ffff ffff ffff ffff ffff ffff ffff ffff     ................
 8007860:	ffff 1f07 ff7f ffff ffff ffff ffff fcff     ................
 8007870:	0401 7b0d 001b 00f8 0000 0001 181d 1d16     ...{............
 8007880:	2339 1e0f f07c 8fe3 1f1f 0f1f 80f3 f81f     9#..|...........
 8007890:	ffff 3f00 ffff ffff ffff ffff ffff ffff     ...?............
 80078a0:	ffff ffff ffff ffff ffff ffff ffff ffff     ................
 80078b0:	ffff ffff ffff ffff ffff ffff ffff ffff     ................
 80078c0:	ffff ffff ffff ffff ffff ffff ffff ffff     ................
 80078d0:	ffff ffff ffff ffff ffff ffff ffff fcff     ................
 80078e0:	dfe7 603c 00a0 0381 0f07 1f1f 7f3f ffff     ..<`........?...
 80078f0:	0000 0000 c002 f8f7 fefc f7de ffff f6ff     ................
 8007900:	defe 0e4e 2c2e 6339 9c87 b866 3fe1 f1fe     ..N..,9c..f..?..
 8007910:	ffff c0ff cf1b ff7f ffff ffff ffff ffff     ................
 8007920:	ffff ffff ffff ffff ffff ffff ffff ffff     ................
 8007930:	ffff ffff ffff ffff ffff ffff ffff ffff     ................
 8007940:	ffff ffff ffff ffff ffff ffff ffff ffff     ................
 8007950:	ffff ffff ffff ffff ffff ffff ffff ffff     ................
 8007960:	ffff feff f9fc fbf3 cef6 fcbc f8f8 e170     ..............p.
 8007970:	80c3 0c00 1b00 0131 0701 8f07 7f3f 3fff     ......1.....?..?
 8007980:	ff1f 903f 8000 0400 204c 0cc2 1f03 e7fc     ..?.....L ......
 8007990:	ff3f ffff f0fe fd8f 3fe7 ffff ffff ffff     ?........?......
 80079a0:	ffff ffff ffff ffff ffff ffff ffff ffff     ................
 80079b0:	ffff ffff ffff ffff ffff ffff ffff ffff     ................
 80079c0:	ffff ffff ffff ffff ffff ffff ffff ffff     ................
 80079d0:	ffff ffff ffff ffff ffff ffff ffff ffff     ................
 80079e0:	ffff ffff ffff ffff ffff ffff deff 0181     ................
 80079f0:	1f07 c838 c0a0 0080 c810 3998 1078 2001     ..8........9x.. 
 8007a00:	07e0 0f00 08e3 f080 fdfc 807e 8ef0 ffff     ..........~.....
 8007a10:	877e ffff ffff ffff 1cff ffff ffff ffff     ~...............
 8007a20:	ffff ffff ffff ffff ffff ffff ffff ffff     ................
 8007a30:	ffff ffff ffff ffff ffff ffff ffff ffff     ................
 8007a40:	ffff ffff ffff ffff ffff ffff ffff ffff     ................
 8007a50:	ffff ffff ffff ffff ffff ffff ffff ffff     ................
 8007a60:	ffff ffff ffff ffff bfff ff7f ffff ffff     ................
 8007a70:	e0f0 c1c0 8e83 3b1d 6c76 f7f9 fcee f4f9     .......;vl......
 8007a80:	ffeb f2fc fcfb ffff ffff fffe ffff ffff     ................
 8007a90:	fffe ff7f dfbf f7ef fffd ffff ffff ffff     ................
 8007aa0:	ffff ffff ffff ffff ffff ffff ffff ffff     ................
 8007ab0:	ffff ffff ffff ffff ffff ffff ffff ffff     ................

08007ac0 <IMG_DATA31>:
 8007ac0:	ffff ffff ffff ffff ffff ffff ffff ffff     ................
 8007ad0:	ffff ffff ffff ffff ffff ffff ffff ffff     ................
 8007ae0:	ffff ffff ffff ffff ffff ffff ffff ffff     ................
 8007af0:	7ee1 ff8f ff3f 7f3f 7f7f 7f7f 2f3f ffbe     .~..?.?.....?/..
 8007b00:	9fbf bf9f ffdf c0c2 2020 f10c ffff ffff     ........  ......
 8007b10:	3fff 0003 c080 b860 f6ec ffff ffff ffff     .?....`.........
 8007b20:	ffff ffff ffff ffff ffff ffff ffff ffff     ................
 8007b30:	ffff ffff ffff ffff ffff ffff ffff ffff     ................
 8007b40:	ffff ffff ffff ffff ffff ffff ffff ffff     ................
 8007b50:	ffff ffff ffff ffff ffff ffff ffff ffff     ................
 8007b60:	ffff ffff ffff ffff ffff ffff ffff fdff     ................
 8007b70:	fafe 006e 3f78 1fc0 cf3f ffff 0ffe fdfb     ..n.x?..?.......
 8007b80:	ffff ffff 3fff 030f f8c0 ffff ffff 0fff     .....?..........
 8007b90:	e081 3ef8 fdff ffff ffff ffff ffff ffff     ...>............
 8007ba0:	ffff ffff ffff ffff ffff ffff ffff ffff     ................
 8007bb0:	ffff ffff ffff ffff ffff ffff ffff ffff     ................
 8007bc0:	ffff ffff ffff ffff ffff ffff ffff ffff     ................
 8007bd0:	ffff ffff ffff ffff ffff ffff ffff ffff     ................
 8007be0:	ffff ffff ffff ffff ffff ffff ffff ff7f     ................
 8007bf0:	0fff 8bc8 2708 5e1b 0f00 e303 f0f9 2701     .....'.^.......'
 8007c00:	ffef 3b7f 0000 fee0 ffff ffff 1fff 00c0     ...;............
 8007c10:	ffff fc0f ffff ffff ffff ffff ffff ffff     ................
 8007c20:	ffff ffff ffff ffff ffff ffff ffff ffff     ................
 8007c30:	ffff ffff ffff ffff ffff ffff ffff ffff     ................
 8007c40:	ffff ffff ffff ffff ffff ffff ffff ffff     ................
 8007c50:	ffff ffff ffff ffff ffff ffff ffff ffff     ................
 8007c60:	ffff 1f07 ff7f ffff ffff ffff ffff fcff     ................
 8007c70:	0001 7b0d 001b 00f8 0000 0001 181d 1516     ...{............
 8007c80:	2338 1e0f f07c 8fe3 9f1f 0f1f 80f3 f81f     8#..|...........
 8007c90:	ffff 3f00 ffff ffff ffff ffff ffff ffff     ...?............
 8007ca0:	ffff ffff ffff ffff ffff ffff ffff ffff     ................
 8007cb0:	ffff ffff ffff ffff ffff ffff ffff ffff     ................
 8007cc0:	ffff ffff ffff ffff ffff ffff ffff ffff     ................
 8007cd0:	ffff ffff ffff ffff ffff ffff ffff fcff     ................
 8007ce0:	dfe7 603c 00a0 0381 0f07 1f1f 7f3f ffff     ..<`........?...
 8007cf0:	0000 0000 c002 f8f7 fefc f7de ffff f6ff     ................
 8007d00:	defe 0e4e 2c0e 6339 1c8f b866 3fe1 f1fe     ..N..,9c..f..?..
 8007d10:	ffff c0ff cf1b ff7f ffff ffff ffff ffff     ................
 8007d20:	ffff ffff ffff ffff ffff ffff ffff ffff     ................
 8007d30:	ffff ffff ffff ffff ffff ffff ffff ffff     ................
 8007d40:	ffff ffff ffff ffff ffff ffff ffff ffff     ................
 8007d50:	ffff ffff ffff ffff ffff ffff ffff ffff     ................
 8007d60:	ffff feff f9fc fbf3 cef6 fcbc f8f8 e170     ..............p.
 8007d70:	80c3 0c00 1301 0131 0701 8f07 7f3f 3fff     ......1.....?..?
 8007d80:	ff1f 903f 8000 0400 204c 0cc2 1f03 e7fc     ..?.....L ......
 8007d90:	ff3f ffff f1fe fd8f 3fe7 ffff ffff ffff     ?........?......
 8007da0:	ffff ffff ffff ffff ffff ffff ffff ffff     ................
 8007db0:	ffff ffff ffff ffff ffff ffff ffff ffff     ................
 8007dc0:	ffff ffff ffff ffff ffff ffff ffff ffff     ................
 8007dd0:	ffff ffff ffff ffff ffff ffff ffff ffff     ................
 8007de0:	ffff ffff ffff ffff ffff ffff deff 0181     ................
 8007df0:	1f07 c838 c0a0 0080 c810 3998 1038 3001     ..8........98..0
 8007e00:	07e0 0f00 1ce3 f080 fdfc 807e 8ff0 ffff     ..........~.....
 8007e10:	87fe ffff ffff ffff 1cff ffff ffff ffff     ................
 8007e20:	ffff ffff ffff ffff ffff ffff ffff ffff     ................
 8007e30:	ffff ffff ffff ffff ffff ffff ffff ffff     ................
 8007e40:	ffff ffff ffff ffff ffff ffff ffff ffff     ................
 8007e50:	ffff ffff ffff ffff ffff ffff ffff ffff     ................
 8007e60:	ffff ffff ffff ffff bfff ff7f ffff ffff     ................
 8007e70:	e0f0 c1c0 8e83 3b1d 6c76 f7fd fcee f0f9     .......;vl......
 8007e80:	ffe3 f2fc fcfb ffff ffff fffe ffff ffff     ................
 8007e90:	fffe ff7f dfbf f7ef fffd ffff ffff ffff     ................
 8007ea0:	ffff ffff ffff ffff ffff ffff ffff ffff     ................
 8007eb0:	ffff ffff ffff ffff ffff ffff ffff ffff     ................

08007ec0 <IMG_DATA32>:
 8007ec0:	ffff ffff ffff ffff ffff ffff ffff ffff     ................
 8007ed0:	ffff ffff ffff ffff ffff ffff ffff ffff     ................
 8007ee0:	ffff ffff ffff ffff ffff ffff ffff ffff     ................
 8007ef0:	7ce1 ff8f ff3f 7f7f 7f7f 7f7f 2f3f ffbe     .|..?.......?/..
 8007f00:	9fbf 9f9f ffdf c0c2 3020 f10c ffff ffff     ........ 0......
 8007f10:	3fff 0003 c000 b060 f6ec ffff ffff ffff     .?....`.........
 8007f20:	ffff ffff ffff ffff ffff ffff ffff ffff     ................
 8007f30:	ffff ffff ffff ffff ffff ffff ffff ffff     ................
 8007f40:	ffff ffff ffff ffff ffff ffff ffff ffff     ................
 8007f50:	ffff ffff ffff ffff ffff ffff ffff ffff     ................
 8007f60:	ffff ffff ffff ffff ffff ffff ffff fdff     ................
 8007f70:	fafe 0066 3f78 1fc0 cf1f ffff 0ffe fdfb     ..f.x?..........
 8007f80:	ffff ffff 3fff 030f f8c0 ffff ffff 0fff     .....?..........
 8007f90:	e081 3ef8 fdff ffff ffff ffff ffff ffff     ...>............
 8007fa0:	ffff ffff ffff ffff ffff ffff ffff ffff     ................
 8007fb0:	ffff ffff ffff ffff ffff ffff ffff ffff     ................
 8007fc0:	ffff ffff ffff ffff ffff ffff ffff ffff     ................
 8007fd0:	ffff ffff ffff ffff ffff ffff ffff ffff     ................
 8007fe0:	ffff ffff ffff ffff ffff ffff ffff ff7f     ................
 8007ff0:	0fff 8bc8 2708 5c1b 0f00 6303 f0f9 2701     .....'.\...c...'
 8008000:	ffef 3b7f 0000 fce0 ffff ffff 1fff 00c0     ...;............
 8008010:	ffff fc0f ffff ffff ffff ffff ffff ffff     ................
 8008020:	ffff ffff ffff ffff ffff ffff ffff ffff     ................
 8008030:	ffff ffff ffff ffff ffff ffff ffff ffff     ................
 8008040:	ffff ffff ffff ffff ffff ffff ffff ffff     ................
 8008050:	ffff ffff ffff ffff ffff ffff ffff ffff     ................
 8008060:	ffff 1f07 ff7f ffff ffff ffff ffff fcff     ................
 8008070:	0001 7b0d 001b 00f8 0000 0001 181d 1416     ...{............
 8008080:	2338 1e0f f07c 8fe3 9f1f 0f1f 80f3 f81f     8#..|...........
 8008090:	ffff 3f00 ffff ffff ffff ffff ffff ffff     ...?............
 80080a0:	ffff ffff ffff ffff ffff ffff ffff ffff     ................
 80080b0:	ffff ffff ffff ffff ffff ffff ffff ffff     ................
 80080c0:	ffff ffff ffff ffff ffff ffff ffff ffff     ................
 80080d0:	ffff ffff ffff ffff ffff ffff ffff fcff     ................
 80080e0:	dfe7 60bc 00a0 0381 0f07 1f1f 7f3f ffff     ...`........?...
 80080f0:	0000 0000 c002 f8ff fefc 77de ffff f6ff     ...........w....
 8008100:	defe 0e4e 2c0e 6339 9c87 b866 3fe1 f1fe     ..N..,9c..f..?..
 8008110:	ffff c0fe cf0b ff7f ffff ffff ffff ffff     ................
 8008120:	ffff ffff ffff ffff ffff ffff ffff ffff     ................
 8008130:	ffff ffff ffff ffff ffff ffff ffff ffff     ................
 8008140:	ffff ffff ffff ffff ffff ffff ffff ffff     ................
 8008150:	ffff ffff ffff ffff ffff ffff ffff ffff     ................
 8008160:	ffff feff f9fc fbf3 cef6 7cbc f8f8 e170     ...........|..p.
 8008170:	80c3 0c00 1301 0131 0701 8f07 7f3f 3fff     ......1.....?..?
 8008180:	ff1f 903f 8000 0400 204c 0cc2 1f03 e7fc     ..?.....L ......
 8008190:	ff3f ffff f0fe fd8f 3fe7 ffff ffff ffff     ?........?......
 80081a0:	ffff ffff ffff ffff ffff ffff ffff ffff     ................
 80081b0:	ffff ffff ffff ffff ffff ffff ffff ffff     ................
 80081c0:	ffff ffff ffff ffff ffff ffff ffff ffff     ................
 80081d0:	ffff ffff ffff ffff ffff ffff ffff ffff     ................
 80081e0:	ffff ffff ffff ffff ffff ffff deff 0181     ................
 80081f0:	1f07 c83c c0a0 0080 c810 3998 1038 3001     ..<........98..0
 8008200:	07e0 0f00 1ce3 f080 fdfc 807e 87f0 ffff     ..........~.....
 8008210:	877e ffff ffff ffff 1cff ffff ffff ffff     ~...............
 8008220:	ffff ffff ffff ffff ffff ffff ffff ffff     ................
 8008230:	ffff ffff ffff ffff ffff ffff ffff ffff     ................
 8008240:	ffff ffff ffff ffff ffff ffff ffff ffff     ................
 8008250:	ffff ffff ffff ffff ffff ffff ffff ffff     ................
 8008260:	ffff ffff ffff ffff bfff ff7f ffff ffff     ................
 8008270:	e0f0 c1c0 8e83 3b1d 6c76 f7f9 fcee f4f9     .......;vl......
 8008280:	ffeb f2fc fcff ffff ffff fffe ffff ffff     ................
 8008290:	fffe ff7f dfbf f7ef fffd ffff ffff ffff     ................
 80082a0:	ffff ffff ffff ffff ffff ffff ffff ffff     ................
 80082b0:	ffff ffff ffff ffff ffff ffff ffff ffff     ................

080082c0 <IMG_DATA33>:
 80082c0:	ffff ffff ffff ffff ffff ffff ffff ffff     ................
 80082d0:	ffff ffff ffff ffff ffff ffff ffff ffff     ................
 80082e0:	ffff ffff ffff ffff ffff ffff ffff ffff     ................
 80082f0:	7ce1 ff8f ff3f 7f3f 7f7f 7f7f 2f3f ffbe     .|..?.?.....?/..
 8008300:	9fbf bf9f ffdf c0ca 3020 f30c ffff ffff     ........ 0......
 8008310:	3fff 0003 c080 b860 f6ec ffff ffff ffff     .?....`.........
 8008320:	ffff ffff ffff ffff ffff ffff ffff ffff     ................
 8008330:	ffff ffff ffff ffff ffff ffff ffff ffff     ................
 8008340:	ffff ffff ffff ffff ffff ffff ffff ffff     ................
 8008350:	ffff ffff ffff ffff ffff ffff ffff ffff     ................
 8008360:	ffff ffff ffff ffff ffff ffff ffff fdff     ................
 8008370:	fafe 006e 3f78 1fc0 cf1f ffff 0ffe fdfb     ..n.x?..........
 8008380:	ffff ffff 3fff 030f f8c0 ffff ffff 0fff     .....?..........
 8008390:	e081 3ef8 fdff ffff ffff ffff ffff ffff     ...>............
 80083a0:	ffff ffff ffff ffff ffff ffff ffff ffff     ................
 80083b0:	ffff ffff ffff ffff ffff ffff ffff ffff     ................
 80083c0:	ffff ffff ffff ffff ffff ffff ffff ffff     ................
 80083d0:	ffff ffff ffff ffff ffff ffff ffff ffff     ................
 80083e0:	ffff ffff ffff ffff ffff ffff ffff ff7f     ................
 80083f0:	0fff 8bc8 2708 5e1b 0f10 e303 f0f9 2701     .....'.^.......'
 8008400:	ffef 3b7f 0000 fce0 ffff ffff 1fff 00c0     ...;............
 8008410:	ffff fc0f ffff ffff ffff ffff ffff ffff     ................
 8008420:	ffff ffff ffff ffff ffff ffff ffff ffff     ................
 8008430:	ffff ffff ffff ffff ffff ffff ffff ffff     ................
 8008440:	ffff ffff ffff ffff ffff ffff ffff ffff     ................
 8008450:	ffff ffff ffff ffff ffff ffff ffff ffff     ................
 8008460:	ffff 1f0f ff7f ffff ffff ffff ffff fcff     ................
 8008470:	0401 7b0d 003b 00f8 0000 0001 181d 1516     ...{;...........
 8008480:	2338 1e0f f07c 8fe3 9f1f 0f1f 80f3 f81f     8#..|...........
 8008490:	ffff 3f00 ffff ffff ffff ffff ffff ffff     ...?............
 80084a0:	ffff ffff ffff ffff ffff ffff ffff ffff     ................
 80084b0:	ffff ffff ffff ffff ffff ffff ffff ffff     ................
 80084c0:	ffff ffff ffff ffff ffff ffff ffff ffff     ................
 80084d0:	ffff ffff ffff ffff ffff ffff ffff f8ff     ................
 80084e0:	dfe7 60bc 00a0 0381 0f07 1f1f 7f3f ffff     ...`........?...
 80084f0:	0000 0000 c002 f8e7 fefc 77de ffff f6f6     ...........w....
 8008500:	defe 0e0e 2c0e 6339 9c87 b866 3fe1 f1fe     .....,9c..f..?..
 8008510:	ffff c0ff cf0b ff7f ffff ffff ffff ffff     ................
 8008520:	ffff ffff ffff ffff ffff ffff ffff ffff     ................
 8008530:	ffff ffff ffff ffff ffff ffff ffff ffff     ................
 8008540:	ffff ffff ffff ffff ffff ffff ffff ffff     ................
 8008550:	ffff ffff ffff ffff ffff ffff ffff ffff     ................
 8008560:	ffff feff f9fc fbf1 cef6 fcbc f8f8 e170     ..............p.
 8008570:	80c3 0c00 1300 0131 0701 8f07 7f3e 3fff     ......1.....>..?
 8008580:	ff1f 903f 8000 0400 204c 0cc2 1f03 e7fc     ..?.....L ......
 8008590:	ff3f ffff f1fe fd8f 3fe7 ffff ffff ffff     ?........?......
 80085a0:	ffff ffff ffff ffff ffff ffff ffff ffff     ................
 80085b0:	ffff ffff ffff ffff ffff ffff ffff ffff     ................
 80085c0:	ffff ffff ffff ffff ffff ffff ffff ffff     ................
 80085d0:	ffff ffff ffff ffff ffff ffff ffff ffff     ................
 80085e0:	ffff ffff ffff ffff ffff ffff deff 0181     ................
 80085f0:	1f07 c83c c0a0 0080 c810 1998 1038 3001     ..<.........8..0
 8008600:	07e0 0f00 18e3 f080 fdfe 807e 87f0 ffff     ..........~.....
 8008610:	87fe ffff ffff ffff 1cff ffff ffff ffff     ................
 8008620:	ffff ffff ffff ffff ffff ffff ffff ffff     ................
 8008630:	ffff ffff ffff ffff ffff ffff ffff ffff     ................
 8008640:	ffff ffff ffff ffff ffff ffff ffff ffff     ................
 8008650:	ffff ffff ffff ffff ffff ffff ffff ffff     ................
 8008660:	ffff ffff ffff ffff bfff ff7f ffff ffff     ................
 8008670:	e0f0 c1c0 8e83 3b1d 6c76 f7f9 fcee f4f9     .......;vl......
 8008680:	ffeb f2fc fcfb ffff ffff fffe ffff ffff     ................
 8008690:	fffe ff7f dfbf f7ef fffd ffff ffff ffff     ................
 80086a0:	ffff ffff ffff ffff ffff ffff ffff ffff     ................
 80086b0:	ffff ffff ffff ffff ffff ffff ffff ffff     ................

080086c0 <IMG_DATA34>:
 80086c0:	ffff ffff ffff ffff ffff ffff ffff ffff     ................
 80086d0:	ffff ffff ffff ffff ffff ffff ffff ffff     ................
 80086e0:	ffff ffff ffff ffff ffff ffff ffff ffff     ................
 80086f0:	7ce1 ff8f ff3f 7f3f 7f7f 7f7f 2f3f ffbe     .|..?.?.....?/..
 8008700:	9fbf 9f9f ffdf c0c2 2020 f30c ffff ffff     ........  ......
 8008710:	3fff 0003 c080 b860 f6ec ffff ffff ffff     .?....`.........
 8008720:	ffff ffff ffff ffff ffff ffff ffff ffff     ................
 8008730:	ffff ffff ffff ffff ffff ffff ffff ffff     ................
 8008740:	ffff ffff ffff ffff ffff ffff ffff ffff     ................
 8008750:	ffff ffff ffff ffff ffff ffff ffff ffff     ................
 8008760:	ffff ffff ffff ffff ffff ffff ffff fdff     ................
 8008770:	fafe 0066 3f78 1fc0 cf1f ffff 0ffe fdfb     ..f.x?..........
 8008780:	ffff ffff 3fff 030f f8c0 ffff ffff 0fff     .....?..........
 8008790:	e081 3ef8 fdff ffff ffff ffff ffff ffff     ...>............
 80087a0:	ffff ffff ffff ffff ffff ffff ffff ffff     ................
 80087b0:	ffff ffff ffff ffff ffff ffff ffff ffff     ................
 80087c0:	ffff ffff ffff ffff ffff ffff ffff ffff     ................
 80087d0:	ffff ffff ffff ffff ffff ffff ffff ffff     ................
 80087e0:	ffff ffff ffff ffff ffff ffff ffff ff7f     ................
 80087f0:	0fff 8bc8 2708 5c1b 0f00 e303 f0fd 2701     .....'.\.......'
 8008800:	ffef 3b7f 0000 fce0 ffff ffff 1fff 00c0     ...;............
 8008810:	ffff fc1f ffff ffff ffff ffff ffff ffff     ................
 8008820:	ffff ffff ffff ffff ffff ffff ffff ffff     ................
 8008830:	ffff ffff ffff ffff ffff ffff ffff ffff     ................
 8008840:	ffff ffff ffff ffff ffff ffff ffff ffff     ................
 8008850:	ffff ffff ffff ffff ffff ffff ffff ffff     ................
 8008860:	ffff 1f0f ff7f ffff ffff ffff ffff fcff     ................
 8008870:	0401 7b0d 001b 00f8 0000 0001 181d 1516     ...{............
 8008880:	2338 1e0f f07c 8fe3 9f1f 0f1f 8073 f81f     8#..|.......s...
 8008890:	ffff 3f00 ffff ffff ffff ffff ffff ffff     ...?............
 80088a0:	ffff ffff ffff ffff ffff ffff ffff ffff     ................
 80088b0:	ffff ffff ffff ffff ffff ffff ffff ffff     ................
 80088c0:	ffff ffff ffff ffff ffff ffff ffff ffff     ................
 80088d0:	ffff ffff ffff ffff ffff ffff ffff f8ff     ................
 80088e0:	dfe7 603c 00a0 0381 0f07 1f1f 7f3f ffff     ..<`........?...
 80088f0:	0000 0000 c000 f8e7 fefc 77de ffff f6ff     ...........w....
 8008900:	defe 0e4e 2c0e 6339 1c8f b866 3fe1 f1fe     ..N..,9c..f..?..
 8008910:	ffff c0ff cf0b ff7f ffff ffff ffff ffff     ................
 8008920:	ffff ffff ffff ffff ffff ffff ffff ffff     ................
 8008930:	ffff ffff ffff ffff ffff ffff ffff ffff     ................
 8008940:	ffff ffff ffff ffff ffff ffff ffff ffff     ................
 8008950:	ffff ffff ffff ffff ffff ffff ffff ffff     ................
 8008960:	ffff feff f9fc fbf3 cef6 7cbc f8f8 e170     ...........|..p.
 8008970:	80c3 0c00 1300 0131 0701 8f07 7f3e 3fff     ......1.....>..?
 8008980:	ff1f 903f 8000 0400 204c 0cc2 1f03 e7fc     ..?.....L ......
 8008990:	ff3f ffff f0fe fd8f 3fe7 ffff ffff ffff     ?........?......
 80089a0:	ffff ffff ffff ffff ffff ffff ffff ffff     ................
 80089b0:	ffff ffff ffff ffff ffff ffff ffff ffff     ................
 80089c0:	ffff ffff ffff ffff ffff ffff ffff ffff     ................
 80089d0:	ffff ffff ffff ffff ffff ffff ffff ffff     ................
 80089e0:	ffff ffff ffff ffff ffff ffff deff 0181     ................
 80089f0:	1f07 c838 c0a0 0080 c810 1998 0078 1001     ..8.........x...
 8008a00:	07e0 0f00 1ce3 f080 fdfc 807e 87f0 ffff     ..........~.....
 8008a10:	877e ffff ffff ffff 1cff ffff ffff ffff     ~...............
 8008a20:	ffff ffff ffff ffff ffff ffff ffff ffff     ................
 8008a30:	ffff ffff ffff ffff ffff ffff ffff ffff     ................
 8008a40:	ffff ffff ffff ffff ffff ffff ffff ffff     ................
 8008a50:	ffff ffff ffff ffff ffff ffff ffff ffff     ................
 8008a60:	ffff ffff ffff ffff bfff ff7f ffff ffff     ................
 8008a70:	e0f0 c1c0 8e83 3b1d 6c76 f7f9 fcee f4f9     .......;vl......
 8008a80:	ffeb f2fc fcfb ffff ffff fffe ffff ffff     ................
 8008a90:	fffe ff7f dfbf f7ef fffd ffff ffff ffff     ................
 8008aa0:	ffff ffff ffff ffff ffff ffff ffff ffff     ................
 8008ab0:	ffff ffff ffff ffff ffff ffff ffff ffff     ................

08008ac0 <IMG_DATA35>:
 8008ac0:	ffff ffff ffff ffff ffff ffff ffff ffff     ................
 8008ad0:	ffff ffff ffff ffff ffff ffff ffff ffff     ................
 8008ae0:	ffff ffff ffff ffff ffff ffff ffff ffff     ................
 8008af0:	7ce1 ff8f ff3f 7f7f 7f7f 7f7f 2f3f ffbe     .|..?.......?/..
 8008b00:	9fbf 9f9f ffdf c0c2 2020 f30c ffff ffff     ........  ......
 8008b10:	3fff 0003 c080 b860 f6ec ffff ffff ffff     .?....`.........
 8008b20:	ffff ffff ffff ffff ffff ffff ffff ffff     ................
 8008b30:	ffff ffff ffff ffff ffff ffff ffff ffff     ................
 8008b40:	ffff ffff ffff ffff ffff ffff ffff ffff     ................
 8008b50:	ffff ffff ffff ffff ffff ffff ffff ffff     ................
 8008b60:	ffff ffff ffff ffff ffff ffff ffff fdff     ................
 8008b70:	fafe 0066 3f78 3fc0 cf1f ffff 0ffe fdfb     ..f.x?.?........
 8008b80:	ffff ffff 3fff 030f f8c0 ffff ffff 0fff     .....?..........
 8008b90:	e081 3ef8 fdff ffff ffff ffff ffff ffff     ...>............
 8008ba0:	ffff ffff ffff ffff ffff ffff ffff ffff     ................
 8008bb0:	ffff ffff ffff ffff ffff ffff ffff ffff     ................
 8008bc0:	ffff ffff ffff ffff ffff ffff ffff ffff     ................
 8008bd0:	ffff ffff ffff ffff ffff ffff ffff ffff     ................
 8008be0:	ffff ffff ffff ffff ffff ffff ffff ff7f     ................
 8008bf0:	0fff 8bc8 2708 5e1b 0f10 e303 f0fd 2701     .....'.^.......'
 8008c00:	ffef 3b7f 0000 fee0 ffff ffff 1fff 00c1     ...;............
 8008c10:	ffff fc0f ffff ffff ffff ffff ffff ffff     ................
 8008c20:	ffff ffff ffff ffff ffff ffff ffff ffff     ................
 8008c30:	ffff ffff ffff ffff ffff ffff ffff ffff     ................
 8008c40:	ffff ffff ffff ffff ffff ffff ffff ffff     ................
 8008c50:	ffff ffff ffff ffff ffff ffff ffff ffff     ................
 8008c60:	ffff 1f07 ff7f ffff ffff ffff ffff fcff     ................
 8008c70:	0001 7b0d 001b 00f8 0000 0001 181d 1416     ...{............
 8008c80:	2338 1e0f f07c 8fe3 9f1f 0f1f 80f3 f81f     8#..|...........
 8008c90:	ffff 3f00 ffff ffff ffff ffff ffff ffff     ...?............
 8008ca0:	ffff ffff ffff ffff ffff ffff ffff ffff     ................
 8008cb0:	ffff ffff ffff ffff ffff ffff ffff ffff     ................
 8008cc0:	ffff ffff ffff ffff ffff ffff ffff ffff     ................
 8008cd0:	ffff ffff ffff ffff ffff ffff ffff f8ff     ................
 8008ce0:	dfe7 60bc 00a0 0381 0f07 1f1f 7f3f ffff     ...`........?...
 8008cf0:	0000 0000 c000 f8e7 fefc 77de ffff f6ff     ...........w....
 8008d00:	defe 0e4e 2c0e 6339 1c8f b866 3fe1 f1fe     ..N..,9c..f..?..
 8008d10:	ffff c0ff cf0b ff7f ffff ffff ffff ffff     ................
 8008d20:	ffff ffff ffff ffff ffff ffff ffff ffff     ................
 8008d30:	ffff ffff ffff ffff ffff ffff ffff ffff     ................
 8008d40:	ffff ffff ffff ffff ffff ffff ffff ffff     ................
 8008d50:	ffff ffff ffff ffff ffff ffff ffff ffff     ................
 8008d60:	ffff feff f9fc fbf3 cef6 7cbc f8f8 e170     ...........|..p.
 8008d70:	80c3 0c00 1b00 0131 0701 8f07 7f3e 3fff     ......1.....>..?
 8008d80:	ff1f 903f 8000 0400 204c 0cc2 1f03 e7fc     ..?.....L ......
 8008d90:	ff3f ffff f0fe fd8f 3fe7 ffff ffff ffff     ?........?......
 8008da0:	ffff ffff ffff ffff ffff ffff ffff ffff     ................
 8008db0:	ffff ffff ffff ffff ffff ffff ffff ffff     ................
 8008dc0:	ffff ffff ffff ffff ffff ffff ffff ffff     ................
 8008dd0:	ffff ffff ffff ffff ffff ffff ffff ffff     ................
 8008de0:	ffff ffff ffff ffff ffff ffff deff 0181     ................
 8008df0:	1f07 c83c c0a0 0080 c810 1998 1038 1001     ..<.........8...
 8008e00:	07e0 0f00 1ce3 f080 fdfc 807e 86f0 ffff     ..........~.....
 8008e10:	877e ffff ffff ffff 1cff ffff ffff ffff     ~...............
 8008e20:	ffff ffff ffff ffff ffff ffff ffff ffff     ................
 8008e30:	ffff ffff ffff ffff ffff ffff ffff ffff     ................
 8008e40:	ffff ffff ffff ffff ffff ffff ffff ffff     ................
 8008e50:	ffff ffff ffff ffff ffff ffff ffff ffff     ................
 8008e60:	ffff ffff ffff ffff bfff ff7f ffff ffff     ................
 8008e70:	e0f0 c1c0 8e83 3b1d 6c76 f7f9 fcee f4f9     .......;vl......
 8008e80:	ffe3 f2fc fcfb ffff ffff fffe ffff ffff     ................
 8008e90:	fffe ff7f dfbf f7ef fffd ffff ffff ffff     ................
 8008ea0:	ffff ffff ffff ffff ffff ffff ffff ffff     ................
 8008eb0:	ffff ffff ffff ffff ffff ffff ffff ffff     ................

08008ec0 <IMG_DATA36>:
 8008ec0:	ffff ffff ffff ffff ffff ffff ffff ffff     ................
 8008ed0:	ffff ffff ffff ffff ffff ffff ffff ffff     ................
 8008ee0:	ffff ffff ffff ffff ffff ffff ffff ffff     ................
 8008ef0:	7ce1 ff8f ff3f 7f3f 7f7f 7f7f 2f3f ffbe     .|..?.?.....?/..
 8008f00:	9fbf 9f9f ffdf c0c2 3020 fb0c ffff ffff     ........ 0......
 8008f10:	3fff 0003 c080 b860 f6ec ffff ffff ffff     .?....`.........
 8008f20:	ffff ffff ffff ffff ffff ffff ffff ffff     ................
 8008f30:	ffff ffff ffff ffff ffff ffff ffff ffff     ................
 8008f40:	ffff ffff ffff ffff ffff ffff ffff ffff     ................
 8008f50:	ffff ffff ffff ffff ffff ffff ffff ffff     ................
 8008f60:	ffff ffff ffff ffff ffff ffff ffff fdff     ................
 8008f70:	fafe 0066 3f78 3fe0 cf3f ffff 0ffe fdfb     ..f.x?.??.......
 8008f80:	ffff ffff 3fff 030f f8c0 ffff ffff 0fff     .....?..........
 8008f90:	e081 3ef8 fdff ffff ffff ffff ffff ffff     ...>............
 8008fa0:	ffff ffff ffff ffff ffff ffff ffff ffff     ................
 8008fb0:	ffff ffff ffff ffff ffff ffff ffff ffff     ................
 8008fc0:	ffff ffff ffff ffff ffff ffff ffff ffff     ................
 8008fd0:	ffff ffff ffff ffff ffff ffff ffff ffff     ................
 8008fe0:	ffff ffff ffff ffff ffff ffff ffff ff7f     ................
 8008ff0:	0fff 8bc8 2708 5c1b 0f00 e303 f0f9 2701     .....'.\.......'
 8009000:	ffef 3b7f 0000 fee0 ffff ffff 1fff 00c0     ...;............
 8009010:	ffff fc1f ffff ffff ffff ffff ffff ffff     ................
 8009020:	ffff ffff ffff ffff ffff ffff ffff ffff     ................
 8009030:	ffff ffff ffff ffff ffff ffff ffff ffff     ................
 8009040:	ffff ffff ffff ffff ffff ffff ffff ffff     ................
 8009050:	ffff ffff ffff ffff ffff ffff ffff ffff     ................
 8009060:	ffff 1f0f ff7f ffff ffff ffff ffff fcff     ................
 8009070:	0001 7b0d 001b 00f8 0000 0001 181d 1516     ...{............
 8009080:	2338 1e0f f07c 8fe3 9f1f 0f1f c0f3 f81f     8#..|...........
 8009090:	ffff 3f00 ffff ffff ffff ffff ffff ffff     ...?............
 80090a0:	ffff ffff ffff ffff ffff ffff ffff ffff     ................
 80090b0:	ffff ffff ffff ffff ffff ffff ffff ffff     ................
 80090c0:	ffff ffff ffff ffff ffff ffff ffff ffff     ................
 80090d0:	ffff ffff ffff ffff ffff ffff ffff f8ff     ................
 80090e0:	dfe7 603c 00a0 0381 0f07 1f1f 7f3f ffff     ..<`........?...
 80090f0:	0000 0000 c002 f8e7 fefc 77de ffff f6f7     ...........w....
 8009100:	defe 0e4e 2c0e 6339 1c8f b866 3fe1 f1fe     ..N..,9c..f..?..
 8009110:	ffff c0ff cf0b ff7f ffff ffff ffff ffff     ................
 8009120:	ffff ffff ffff ffff ffff ffff ffff ffff     ................
 8009130:	ffff ffff ffff ffff ffff ffff ffff ffff     ................
 8009140:	ffff ffff ffff ffff ffff ffff ffff ffff     ................
 8009150:	ffff ffff ffff ffff ffff ffff ffff ffff     ................
 8009160:	ffff feff f9fc fbf3 cef6 fcbc f8f8 e170     ..............p.
 8009170:	80c3 0c00 1b00 0321 0701 8f07 7f3e 3fff     ......!.....>..?
 8009180:	ff1f 903f 8000 0400 204c 0cc2 1f03 e7fc     ..?.....L ......
 8009190:	ff3f ffff f0fe fd8f 3fe7 ffff ffff ffff     ?........?......
 80091a0:	ffff ffff ffff ffff ffff ffff ffff ffff     ................
 80091b0:	ffff ffff ffff ffff ffff ffff ffff ffff     ................
 80091c0:	ffff ffff ffff ffff ffff ffff ffff ffff     ................
 80091d0:	ffff ffff ffff ffff ffff ffff ffff ffff     ................
 80091e0:	ffff ffff ffff ffff ffff ffff deff 0181     ................
 80091f0:	1f07 c83c c0a0 0080 c810 3998 1038 3001     ..<........98..0
 8009200:	07e0 0f00 1ce3 f081 fdfe 807e 87f0 ffff     ..........~.....
 8009210:	877e ffff ffff ffff 1cff ffff ffff ffff     ~...............
 8009220:	ffff ffff ffff ffff ffff ffff ffff ffff     ................
 8009230:	ffff ffff ffff ffff ffff ffff ffff ffff     ................
 8009240:	ffff ffff ffff ffff ffff ffff ffff ffff     ................
 8009250:	ffff ffff ffff ffff ffff ffff ffff ffff     ................
 8009260:	ffff ffff ffff ffff bfff ff7f ffff ffff     ................
 8009270:	e0f0 c1c0 8e83 3b1d 6c76 f7f9 fcee f4f9     .......;vl......
 8009280:	ffeb f2fc fcfb ffff ffff fffe ffff ffff     ................
 8009290:	fffe ff7f dfbf f7ef fffd ffff ffff ffff     ................
 80092a0:	ffff ffff ffff ffff ffff ffff ffff ffff     ................
 80092b0:	ffff ffff ffff ffff ffff ffff ffff ffff     ................

080092c0 <IMG_DATA37>:
 80092c0:	ffff ffff ffff ffff ffff ffff ffff ffff     ................
 80092d0:	ffff ffff ffff ffff ffff ffff ffff ffff     ................
 80092e0:	ffff ffff ffff ffff ffff ffff ffff ffff     ................
 80092f0:	7ce1 ff8f ff3f 7f3f 7f7f 7f7f 2f3f ffbe     .|..?.?.....?/..
 8009300:	9fbf 9f9f ffdf c0c2 3020 f30c ffff ffff     ........ 0......
 8009310:	3fff 0003 c080 b860 f6ec ffff ffff ffff     .?....`.........
 8009320:	ffff ffff ffff ffff ffff ffff ffff ffff     ................
 8009330:	ffff ffff ffff ffff ffff ffff ffff ffff     ................
 8009340:	ffff ffff ffff ffff ffff ffff ffff ffff     ................
 8009350:	ffff ffff ffff ffff ffff ffff ffff ffff     ................
 8009360:	ffff ffff ffff ffff ffff ffff ffff fdff     ................
 8009370:	fafe 0066 3f78 3fc0 cf1f ffff 0ffe fdfb     ..f.x?.?........
 8009380:	ffff ffff 3fff 030f f8c0 ffff ffff 0fff     .....?..........
 8009390:	e081 3ef8 fdff ffff ffff ffff ffff ffff     ...>............
 80093a0:	ffff ffff ffff ffff ffff ffff ffff ffff     ................
 80093b0:	ffff ffff ffff ffff ffff ffff ffff ffff     ................
 80093c0:	ffff ffff ffff ffff ffff ffff ffff ffff     ................
 80093d0:	ffff ffff ffff ffff ffff ffff ffff ffff     ................
 80093e0:	ffff ffff ffff ffff ffff ffff ffff ff7f     ................
 80093f0:	0fff 8bc8 2708 5e1b 0f00 e303 f0f9 2701     .....'.^.......'
 8009400:	ffef 3b7f 0000 fce0 ffff ffff 1fff 00c0     ...;............
 8009410:	ffff fc0f ffff ffff ffff ffff ffff ffff     ................
 8009420:	ffff ffff ffff ffff ffff ffff ffff ffff     ................
 8009430:	ffff ffff ffff ffff ffff ffff ffff ffff     ................
 8009440:	ffff ffff ffff ffff ffff ffff ffff ffff     ................
 8009450:	ffff ffff ffff ffff ffff ffff ffff ffff     ................
 8009460:	ffff 1f07 ff7f ffff ffff ffff ffff fcff     ................
 8009470:	0401 7b0d 001b 00f8 0000 0001 181d 1516     ...{............
 8009480:	2338 1e0f f07c 8fe3 9f1f 0f1f 80f3 f81f     8#..|...........
 8009490:	ffff 3f00 ffff ffff ffff ffff ffff ffff     ...?............
 80094a0:	ffff ffff ffff ffff ffff ffff ffff ffff     ................
 80094b0:	ffff ffff ffff ffff ffff ffff ffff ffff     ................
 80094c0:	ffff ffff ffff ffff ffff ffff ffff ffff     ................
 80094d0:	ffff ffff ffff ffff ffff ffff ffff f8ff     ................
 80094e0:	dfe7 603c 00a0 0381 0f07 1f1f 7f3f ffff     ..<`........?...
 80094f0:	0000 0000 c006 f8e7 fefc 77de ffff f6ff     ...........w....
 8009500:	defe 0e4e 2c0e 6339 1c8f b866 3fe1 f1fe     ..N..,9c..f..?..
 8009510:	ffff c0ff cf0b ff7f ffff ffff ffff ffff     ................
 8009520:	ffff ffff ffff ffff ffff ffff ffff ffff     ................
 8009530:	ffff ffff ffff ffff ffff ffff ffff ffff     ................
 8009540:	ffff ffff ffff ffff ffff ffff ffff ffff     ................
 8009550:	ffff ffff ffff ffff ffff ffff ffff ffff     ................
 8009560:	ffff feff f9fc fbf3 cef6 7cbc f8f8 e170     ...........|..p.
 8009570:	80c3 0800 1301 0121 0701 8f07 7f3f 3fff     ......!.....?..?
 8009580:	ff1f 903f 8000 0400 204c 0cc2 0f03 e7fc     ..?.....L ......
 8009590:	ff3f ffff f0fe fd8f 3fe7 ffff ffff ffff     ?........?......
 80095a0:	ffff ffff ffff ffff ffff ffff ffff ffff     ................
 80095b0:	ffff ffff ffff ffff ffff ffff ffff ffff     ................
 80095c0:	ffff ffff ffff ffff ffff ffff ffff ffff     ................
 80095d0:	ffff ffff ffff ffff ffff ffff ffff ffff     ................
 80095e0:	ffff ffff ffff ffff ffff ffff deff 0181     ................
 80095f0:	1f07 c83c c0a0 0080 c810 3998 1038 1001     ..<........98...
 8009600:	07e0 0f00 08e3 f081 fdfc 807e 87f0 ffff     ..........~.....
 8009610:	87fe ffff ffff ffff 18ff ffff ffff ffff     ................
 8009620:	ffff ffff ffff ffff ffff ffff ffff ffff     ................
 8009630:	ffff ffff ffff ffff ffff ffff ffff ffff     ................
 8009640:	ffff ffff ffff ffff ffff ffff ffff ffff     ................
 8009650:	ffff ffff ffff ffff ffff ffff ffff ffff     ................
 8009660:	ffff ffff ffff ffff bfff ff7f ffff ffff     ................
 8009670:	e0f0 c1c0 8e83 3b1d 6c76 f7f9 fcee f4f9     .......;vl......
 8009680:	ffeb f2fc fcff ffff ffff fffe ffff ffff     ................
 8009690:	fffe ff7f dfbf f7ef fffd ffff ffff ffff     ................
 80096a0:	ffff ffff ffff ffff ffff ffff ffff ffff     ................
 80096b0:	ffff ffff ffff ffff ffff ffff ffff ffff     ................

080096c0 <IMG_DATA38>:
 80096c0:	ffff ffff ffff ffff ffff ffff ffff ffff     ................
 80096d0:	ffff ffff ffff ffff ffff ffff ffff ffff     ................
 80096e0:	ffff ffff ffff ffff ffff ffff ffff ffff     ................
 80096f0:	7ce1 ff8f ff3f 7f7f 7f7f 7f7f 2f3f ffbe     .|..?.......?/..
 8009700:	9fbf 9f9f ffdf c0c2 3020 fb0c ffff ffff     ........ 0......
 8009710:	3fff 0003 c080 b860 f6ec ffff ffff ffff     .?....`.........
 8009720:	ffff ffff ffff ffff ffff ffff ffff ffff     ................
 8009730:	ffff ffff ffff ffff ffff ffff ffff ffff     ................
 8009740:	ffff ffff ffff ffff ffff ffff ffff ffff     ................
 8009750:	ffff ffff ffff ffff ffff ffff ffff ffff     ................
 8009760:	ffff ffff ffff ffff ffff ffff ffff fdff     ................
 8009770:	fafe 0066 3f78 1fc0 cf3f ffff 0ffe fdfb     ..f.x?..?.......
 8009780:	ffff ffff 3fff 030f f8c0 ffff ffff 0fff     .....?..........
 8009790:	e081 3ef8 fdff ffff ffff ffff ffff ffff     ...>............
 80097a0:	ffff ffff ffff ffff ffff ffff ffff ffff     ................
 80097b0:	ffff ffff ffff ffff ffff ffff ffff ffff     ................
 80097c0:	ffff ffff ffff ffff ffff ffff ffff ffff     ................
 80097d0:	ffff ffff ffff ffff ffff ffff ffff ffff     ................
 80097e0:	ffff ffff ffff ffff ffff ffff ffff ff7f     ................
 80097f0:	0fff 8bc8 2708 5e1b 0f00 e303 f0f9 2701     .....'.^.......'
 8009800:	ffef 3b7f 0020 fee0 ffff ffff 1fff 00c0     ...; ...........
 8009810:	ffff fc1f ffff ffff ffff ffff ffff ffff     ................
 8009820:	ffff ffff ffff ffff ffff ffff ffff ffff     ................
 8009830:	ffff ffff ffff ffff ffff ffff ffff ffff     ................
 8009840:	ffff ffff ffff ffff ffff ffff ffff ffff     ................
 8009850:	ffff ffff ffff ffff ffff ffff ffff ffff     ................
 8009860:	ffff 1f07 ff7f ffff ffff ffff ffff fcff     ................
 8009870:	0001 7b0d 001b 00f8 0000 0001 181d 1516     ...{............
 8009880:	2338 1e0f f07c 8fe3 9f1f 0f1f 80f3 f81f     8#..|...........
 8009890:	ffff 3f00 ffff ffff ffff ffff ffff ffff     ...?............
 80098a0:	ffff ffff ffff ffff ffff ffff ffff ffff     ................
 80098b0:	ffff ffff ffff ffff ffff ffff ffff ffff     ................
 80098c0:	ffff ffff ffff ffff ffff ffff ffff ffff     ................
 80098d0:	ffff ffff ffff ffff ffff ffff ffff fcff     ................
 80098e0:	dfe7 603c 00a0 0381 0f07 1f1f 7f3f ffff     ..<`........?...
 80098f0:	0000 0000 c002 f8f7 fefc 77de ffff f6f6     ...........w....
 8009900:	defe 0e4e 2c2e 6339 1c8f b866 bfe1 f1fe     ..N..,9c..f.....
 8009910:	ffff c0ff cf0b ff7f ffff ffff ffff ffff     ................
 8009920:	ffff ffff ffff ffff ffff ffff ffff ffff     ................
 8009930:	ffff ffff ffff ffff ffff ffff ffff ffff     ................
 8009940:	ffff ffff ffff ffff ffff ffff ffff ffff     ................
 8009950:	ffff ffff ffff ffff ffff ffff ffff ffff     ................
 8009960:	ffff feff f9fc fbf3 cef6 fcbc f8f8 e170     ..............p.
 8009970:	80c3 0c00 1301 8121 0701 8f07 7f3f 3fff     ......!.....?..?
 8009980:	ff1f 903f 8000 0400 204c 0cd2 1f03 e7fc     ..?.....L ......
 8009990:	ff3f ffff f0fe fd8f 3fe7 ffff ffff ffff     ?........?......
 80099a0:	ffff ffff ffff ffff ffff ffff ffff ffff     ................
 80099b0:	ffff ffff ffff ffff ffff ffff ffff ffff     ................
 80099c0:	ffff ffff ffff ffff ffff ffff ffff ffff     ................
 80099d0:	ffff ffff ffff ffff ffff ffff ffff ffff     ................
 80099e0:	ffff ffff ffff ffff ffff ffff deff 0181     ................
 80099f0:	1f07 c838 c0a0 0080 c810 3998 0038 2001     ..8........98.. 
 8009a00:	07e0 0f00 09e3 f080 fdfe 807e 8ff0 ffff     ..........~.....
 8009a10:	877e ffff ffff ffff 18ff ffff ffff ffff     ~...............
 8009a20:	ffff ffff ffff ffff ffff ffff ffff ffff     ................
 8009a30:	ffff ffff ffff ffff ffff ffff ffff ffff     ................
 8009a40:	ffff ffff ffff ffff ffff ffff ffff ffff     ................
 8009a50:	ffff ffff ffff ffff ffff ffff ffff ffff     ................
 8009a60:	ffff ffff ffff ffff bfff ff7f ffff ffff     ................
 8009a70:	e0f0 c1c0 8e83 3b1d 6c76 f7f9 fcee f4f9     .......;vl......
 8009a80:	ffeb f2fc fcfb ffff ffff fffe ffff ffff     ................
 8009a90:	fffe ff7f dfbf f7ef fffd ffff ffff ffff     ................
 8009aa0:	ffff ffff ffff ffff ffff ffff ffff ffff     ................
 8009ab0:	ffff ffff ffff ffff ffff ffff ffff ffff     ................

08009ac0 <IMG_DATA39>:
 8009ac0:	ffff ffff ffff ffff ffff ffff ffff ffff     ................
 8009ad0:	ffff ffff ffff ffff ffff ffff ffff ffff     ................
 8009ae0:	ffff ffff ffff ffff ffff ffff ffff ffff     ................
 8009af0:	7ce1 ff8f ff3f 7f3f 7f7f 7f7f 2f3f ffbe     .|..?.?.....?/..
 8009b00:	9fbf bf9f ffdf c0c2 3020 f30c ffff ffff     ........ 0......
 8009b10:	3fff 0003 c080 b860 f6ec ffff ffff ffff     .?....`.........
 8009b20:	ffff ffff ffff ffff ffff ffff ffff ffff     ................
 8009b30:	ffff ffff ffff ffff ffff ffff ffff ffff     ................
 8009b40:	ffff ffff ffff ffff ffff ffff ffff ffff     ................
 8009b50:	ffff ffff ffff ffff ffff ffff ffff ffff     ................
 8009b60:	ffff ffff ffff ffff ffff ffff ffff fdff     ................
 8009b70:	fafe 0066 3f78 1fe0 cf1f ffff 0ffe fdfb     ..f.x?..........
 8009b80:	ffff ffff 3fff 030f f8c0 ffff ffff 0fff     .....?..........
 8009b90:	e081 3ef8 fdff ffff ffff ffff ffff ffff     ...>............
 8009ba0:	ffff ffff ffff ffff ffff ffff ffff ffff     ................
 8009bb0:	ffff ffff ffff ffff ffff ffff ffff ffff     ................
 8009bc0:	ffff ffff ffff ffff ffff ffff ffff ffff     ................
 8009bd0:	ffff ffff ffff ffff ffff ffff ffff ffff     ................
 8009be0:	ffff ffff ffff ffff ffff ffff ffff ff7f     ................
 8009bf0:	0fff 8bc8 2708 5e1b 0f18 e303 f0f9 2701     .....'.^.......'
 8009c00:	ffef 3b7f 0020 fee0 ffff ffff 1fff 00c0     ...; ...........
 8009c10:	ffff fc0f ffff ffff ffff ffff ffff ffff     ................
 8009c20:	ffff ffff ffff ffff ffff ffff ffff ffff     ................
 8009c30:	ffff ffff ffff ffff ffff ffff ffff ffff     ................
 8009c40:	ffff ffff ffff ffff ffff ffff ffff ffff     ................
 8009c50:	ffff ffff ffff ffff ffff ffff ffff ffff     ................
 8009c60:	ffff 1f0f ff7f ffff ffff ffff ffff fcff     ................
 8009c70:	0001 7b0d 001b 00f8 0000 0001 181d 1416     ...{............
 8009c80:	2338 1e0f f07c 8fe3 9f1f 0f1f 80f3 f81f     8#..|...........
 8009c90:	ffff 3f00 ffff ffff ffff ffff ffff ffff     ...?............
 8009ca0:	ffff ffff ffff ffff ffff ffff ffff ffff     ................
 8009cb0:	ffff ffff ffff ffff ffff ffff ffff ffff     ................
 8009cc0:	ffff ffff ffff ffff ffff ffff ffff ffff     ................
 8009cd0:	ffff ffff ffff ffff ffff ffff ffff f8ff     ................
 8009ce0:	dfe7 603c 00a0 0381 0f07 1f1f 7f3f ffff     ..<`........?...
 8009cf0:	0000 0000 c002 f8e7 fefc 77de ffff f6f7     ...........w....
 8009d00:	defe 0e4e 2c0e 6339 1c8f b866 3fe1 f3fe     ..N..,9c..f..?..
 8009d10:	ffff c0ff cf1b ff7f ffff ffff ffff ffff     ................
 8009d20:	ffff ffff ffff ffff ffff ffff ffff ffff     ................
 8009d30:	ffff ffff ffff ffff ffff ffff ffff ffff     ................
 8009d40:	ffff ffff ffff ffff ffff ffff ffff ffff     ................
 8009d50:	ffff ffff ffff ffff ffff ffff ffff ffff     ................
 8009d60:	ffff feff f9fc fbf3 cef6 7cbc f8f8 e170     ...........|..p.
 8009d70:	80c3 0c00 1300 8121 0701 8f07 7f3f 3fff     ......!.....?..?
 8009d80:	ff1f 903f 8000 0400 204c 0cc2 0f03 e7fc     ..?.....L ......
 8009d90:	ff3f ffff f0fe fd8f 3fe7 ffff ffff ffff     ?........?......
 8009da0:	ffff ffff ffff ffff ffff ffff ffff ffff     ................
 8009db0:	ffff ffff ffff ffff ffff ffff ffff ffff     ................
 8009dc0:	ffff ffff ffff ffff ffff ffff ffff ffff     ................
 8009dd0:	ffff ffff ffff ffff ffff ffff ffff ffff     ................
 8009de0:	ffff ffff ffff ffff ffff ffff deff 0181     ................
 8009df0:	1f07 c838 c0a0 0080 c810 1998 0038 3001     ..8.........8..0
 8009e00:	07e0 0700 09e3 f080 fdfc 807e 8ff0 ffff     ..........~.....
 8009e10:	87fe ffff ffff ffff 1cff ffff ffff ffff     ................
 8009e20:	ffff ffff ffff ffff ffff ffff ffff ffff     ................
 8009e30:	ffff ffff ffff ffff ffff ffff ffff ffff     ................
 8009e40:	ffff ffff ffff ffff ffff ffff ffff ffff     ................
 8009e50:	ffff ffff ffff ffff ffff ffff ffff ffff     ................
 8009e60:	ffff ffff ffff ffff bfff ff7f ffff ffff     ................
 8009e70:	e0f0 c1c0 8e83 3b1d 6c76 f7f9 fcee f4f9     .......;vl......
 8009e80:	ffeb f2fc fcfb ffff ffff fffe ffff ffff     ................
 8009e90:	fffe ff7f dfbf f7ef fffd ffff ffff ffff     ................
 8009ea0:	ffff ffff ffff ffff ffff ffff ffff ffff     ................
 8009eb0:	ffff ffff ffff ffff ffff ffff ffff ffff     ................

08009ec0 <IMG_DATA40>:
 8009ec0:	ffff ffff ffff ffff ffff ffff ffff ffff     ................
 8009ed0:	ffff ffff ffff ffff ffff ffff ffff ffff     ................
 8009ee0:	ffff ffff ffff ffff ffff ffff ffff ffff     ................
 8009ef0:	7ce1 ff8f ff3f 7f3f 7f7f 7f7f 2f3f ffbe     .|..?.?.....?/..
 8009f00:	9fbf 9f9f ffdf c0c2 2020 f90c ffff ffff     ........  ......
 8009f10:	3fff 0003 c080 b860 f6ec fffb ffff ffff     .?....`.........
 8009f20:	ffff ffff ffff ffff ffff ffff ffff ffff     ................
 8009f30:	ffff ffff ffff ffff ffff ffff ffff ffff     ................
 8009f40:	ffff ffff ffff ffff ffff ffff ffff ffff     ................
 8009f50:	ffff ffff ffff ffff ffff ffff ffff ffff     ................
 8009f60:	ffff ffff ffff ffff ffff ffff ffff fdff     ................
 8009f70:	fafe 0066 3f78 3fe0 cf1f ffff 0ffe fdfb     ..f.x?.?........
 8009f80:	ffff ffff 3fff 030f f8c0 ffff ffff 0fff     .....?..........
 8009f90:	e081 3ef8 fdff ffff ffff ffff ffff ffff     ...>............
 8009fa0:	ffff ffff ffff ffff ffff ffff ffff ffff     ................
 8009fb0:	ffff ffff ffff ffff ffff ffff ffff ffff     ................
 8009fc0:	ffff ffff ffff ffff ffff ffff ffff ffff     ................
 8009fd0:	ffff ffff ffff ffff ffff ffff ffff ffff     ................
 8009fe0:	ffff ffff ffff ffff ffff ffff ffff ff7f     ................
 8009ff0:	0fff 8bc8 2708 5e1b 0f10 e303 f0f9 2701     .....'.^.......'
 800a000:	ffef 3b7f 0020 fee0 ffff ffff 1fff 00c0     ...; ...........
 800a010:	ffff fc0f ffff ffff ffff ffff ffff ffff     ................
 800a020:	ffff ffff ffff ffff ffff ffff ffff ffff     ................
 800a030:	ffff ffff ffff ffff ffff ffff ffff ffff     ................
 800a040:	ffff ffff ffff ffff ffff ffff ffff ffff     ................
 800a050:	ffff ffff ffff ffff ffff ffff ffff ffff     ................
 800a060:	ffff 1f07 ff7f ffff ffff ffff ffff fcff     ................
 800a070:	0001 7b0d 001b 00f8 0000 0001 181d 1516     ...{............
 800a080:	2338 1e0f f07c 8fe3 9f1f 0f1f 80f3 f81f     8#..|...........
 800a090:	ffff 3f00 ffff ffff ffff ffff ffff ffff     ...?............
 800a0a0:	ffff ffff ffff ffff ffff ffff ffff ffff     ................
 800a0b0:	ffff ffff ffff ffff ffff ffff ffff ffff     ................
 800a0c0:	ffff ffff ffff ffff ffff ffff ffff ffff     ................
 800a0d0:	ffff ffff ffff ffff ffff ffff ffff f8ff     ................
 800a0e0:	dfe7 603c 00a0 0381 0f07 1f1f 7f3f ffff     ..<`........?...
 800a0f0:	0000 0000 c006 f8e7 fefc 77de ffff f6f7     ...........w....
 800a100:	defe 4e8e 2c4e 2339 9c07 b866 3fe1 f1fe     ...NN,9#..f..?..
 800a110:	ffff c0ff cf1b ff7f ffff ffff ffff ffff     ................
 800a120:	ffff ffff ffff ffff ffff ffff ffff ffff     ................
 800a130:	ffff ffff ffff ffff ffff ffff ffff ffff     ................
 800a140:	ffff ffff ffff ffff ffff ffff ffff ffff     ................
 800a150:	ffff ffff ffff ffff ffff ffff ffff ffff     ................
 800a160:	ffff feff f9fc fbf3 cef6 7cbc f8f8 e170     ...........|..p.
 800a170:	80c3 0c00 1301 0981 0709 0f47 7f3e 3fff     ..........G.>..?
 800a180:	ff1f e030 e0e0 3270 3c78 0c8a 0f03 e7fc     ..0...p2x<......
 800a190:	ff3f ffff f0fe fd8f 3fe7 ffff ffff ffff     ?........?......
 800a1a0:	ffff ffff ffff ffff ffff ffff ffff ffff     ................
 800a1b0:	ffff ffff ffff ffff ffff ffff ffff ffff     ................
 800a1c0:	ffff ffff ffff ffff ffff ffff ffff ffff     ................
 800a1d0:	ffff ffff ffff ffff ffff ffff ffff ffff     ................
 800a1e0:	ffff ffff ffff ffff ffff ffff deff 0181     ................
 800a1f0:	1f07 c838 c0a0 0081 ce12 1f9f 003f 1001     ..8.........?...
 800a200:	07e0 0f00 0ce3 f080 fffc 807f 84f0 ffff     ................
 800a210:	87fe ffff ffff ffff 18ff ffff ffff ffff     ................
 800a220:	ffff ffff ffff ffff ffff ffff ffff ffff     ................
 800a230:	ffff ffff ffff ffff ffff ffff ffff ffff     ................
 800a240:	ffff ffff ffff ffff ffff ffff ffff ffff     ................
 800a250:	ffff ffff ffff ffff ffff ffff ffff ffff     ................
 800a260:	ffff ffff ffff ffff bfff ff7f ffff ffff     ................
 800a270:	e0f0 c1c0 8e83 3b1d 6c76 f7f9 fcee f4f9     .......;vl......
 800a280:	ffeb f2fc fcfb ffff ffff fffe ffff ffff     ................
 800a290:	fffe ff7f dfbf f7ef fffd ffff ffff ffff     ................
 800a2a0:	ffff ffff ffff ffff ffff ffff ffff ffff     ................
 800a2b0:	ffff ffff ffff ffff ffff ffff ffff ffff     ................

0800a2c0 <IMG_DATA41>:
 800a2c0:	ffff ffff ffff ffff ffff ffff ffff ffff     ................
 800a2d0:	ffff ffff ffff ffff ffff ffff ffff ffff     ................
 800a2e0:	ffff ffff ffff ffff ffff ffff ffff ffff     ................
 800a2f0:	7ce1 ff8f ff3f 7f3f 7f7f 7f7f 2f3f ffbe     .|..?.?.....?/..
 800a300:	9fbf bf9f ffdf c0c2 2020 fb0c ffff ffff     ........  ......
 800a310:	3fff 0003 c080 b860 f6ec ffff ffff ffff     .?....`.........
 800a320:	ffff ffff ffff ffff ffff ffff ffff ffff     ................
 800a330:	ffff ffff ffff ffff ffff ffff ffff ffff     ................
 800a340:	ffff ffff ffff ffff ffff ffff ffff ffff     ................
 800a350:	ffff ffff ffff ffff ffff ffff ffff ffff     ................
 800a360:	ffff ffff ffff ffff ffff ffff ffff fdff     ................
 800a370:	f8fe 0066 3f78 1fc0 cf1f ffff 0ffe fdfb     ..f.x?..........
 800a380:	ffff ffff 3fff 030f f8c0 ffff ffff 0fff     .....?..........
 800a390:	e081 3ef8 fdff ffff ffff ffff ffff ffff     ...>............
 800a3a0:	ffff ffff ffff ffff ffff ffff ffff ffff     ................
 800a3b0:	ffff ffff ffff ffff ffff ffff ffff ffff     ................
 800a3c0:	ffff ffff ffff ffff ffff ffff ffff ffff     ................
 800a3d0:	ffff ffff ffff ffff ffff ffff ffff ffff     ................
 800a3e0:	ffff ffff ffff ffff ffff ffff ffff ff7f     ................
 800a3f0:	0fff 8bc8 2708 5c1b 0f18 e303 f0f9 2701     .....'.\.......'
 800a400:	ffef 3b7f 0020 fee0 ffff ffff 1fff 00c0     ...; ...........
 800a410:	ffff fc1f ffff ffff ffff ffff ffff ffff     ................
 800a420:	ffff ffff ffff ffff ffff ffff ffff ffff     ................
 800a430:	ffff ffff ffff ffff ffff ffff ffff ffff     ................
 800a440:	ffff ffff ffff ffff ffff ffff ffff ffff     ................
 800a450:	ffff ffff ffff ffff ffff ffff ffff ffff     ................
 800a460:	ffff 1f07 ff7f ffff ffff ffff ffff fcff     ................
 800a470:	0401 7b09 001b 00f8 0000 0001 181d 1516     ...{............
 800a480:	2338 1e0f f07c 8fe3 9f1f 0f1f 80f3 f81f     8#..|...........
 800a490:	ffff 3f00 ffff ffff ffff ffff ffff ffff     ...?............
 800a4a0:	ffff ffff ffff ffff ffff ffff ffff ffff     ................
 800a4b0:	ffff ffff ffff ffff ffff ffff ffff ffff     ................
 800a4c0:	ffff ffff ffff ffff ffff ffff ffff ffff     ................
 800a4d0:	ffff ffff ffff ffff ffff ffff ffff f8ff     ................
 800a4e0:	dfe7 603c 00a0 0381 0f07 1f1f 7f3f ffff     ..<`........?...
 800a4f0:	0000 0000 c002 f8ef fefc 77de ffff f6f6     ...........w....
 800a500:	defe cece ecce 2379 9c87 b866 3fe1 f1fe     ......y#..f..?..
 800a510:	ffff c0ff cf0b ff7f ffff ffff ffff ffff     ................
 800a520:	ffff ffff ffff ffff ffff ffff ffff ffff     ................
 800a530:	ffff ffff ffff ffff ffff ffff ffff ffff     ................
 800a540:	ffff ffff ffff ffff ffff ffff ffff ffff     ................
 800a550:	ffff ffff ffff ffff ffff ffff ffff ffff     ................
 800a560:	ffff feff f9fc fbf3 cef6 7cbc f8f8 e170     ...........|..p.
 800a570:	80c3 0c00 1301 9991 df99 cfcf 7fff 3fff     ...............?
 800a580:	ff1f f939 fcfd 3f7e 3e7f 0c8a 1f03 e7fc     ..9...~?.>......
 800a590:	ff3f ffff f1fe fd8f 3fe7 ffff ffff ffff     ?........?......
 800a5a0:	ffff ffff ffff ffff ffff ffff ffff ffff     ................
 800a5b0:	ffff ffff ffff ffff ffff ffff ffff ffff     ................
 800a5c0:	ffff ffff ffff ffff ffff ffff ffff ffff     ................
 800a5d0:	ffff ffff ffff ffff ffff ffff ffff ffff     ................
 800a5e0:	ffff ffff ffff ffff ffff ffff deff 0181     ................
 800a5f0:	1f07 c838 c0a0 0181 cf03 3f9f 002f 0001     ..8........?/...
 800a600:	07e0 0f10 0de3 f000 fffc 807f 86f0 ffff     ................
 800a610:	87fe ffff ffff ffff 1cff ffff ffff ffff     ................
 800a620:	ffff ffff ffff ffff ffff ffff ffff ffff     ................
 800a630:	ffff ffff ffff ffff ffff ffff ffff ffff     ................
 800a640:	ffff ffff ffff ffff ffff ffff ffff ffff     ................
 800a650:	ffff ffff ffff ffff ffff ffff ffff ffff     ................
 800a660:	ffff ffff ffff ffff bfff ff7f ffff ffff     ................
 800a670:	e0f0 c1c0 8e83 3b1d 6c76 f7f9 fcee f4f9     .......;vl......
 800a680:	ffeb f2fc fcfb ffff ffff fffe ffff ffff     ................
 800a690:	fffe ff7f dfbf f7ef fffd ffff ffff ffff     ................
 800a6a0:	ffff ffff ffff ffff ffff ffff ffff ffff     ................
 800a6b0:	ffff ffff ffff ffff ffff ffff ffff ffff     ................

0800a6c0 <IMG_DATA42>:
 800a6c0:	ffff ffff ffff ffff ffff ffff ffff ffff     ................
 800a6d0:	ffff ffff ffff ffff ffff ffff ffff ffff     ................
 800a6e0:	ffff ffff ffff ffff ffff ffff ffff ffff     ................
 800a6f0:	7ce1 ff8f ff3f 7f7f 7f7f 7f7f 2f3f ffbe     .|..?.......?/..
 800a700:	9fbf bf9f ffdf c0c2 2020 fb0c ffff ffff     ........  ......
 800a710:	3fff 0003 c080 b860 f6ec ffff ffff ffff     .?....`.........
 800a720:	ffff ffff ffff ffff ffff ffff ffff ffff     ................
 800a730:	ffff ffff ffff ffff ffff ffff ffff ffff     ................
 800a740:	ffff ffff ffff ffff ffff ffff ffff ffff     ................
 800a750:	ffff ffff ffff ffff ffff ffff ffff ffff     ................
 800a760:	ffff ffff ffff ffff ffff ffff ffff fdff     ................
 800a770:	fafe 0066 3f78 1fc0 cf3f ffff 0ffe fdfb     ..f.x?..?.......
 800a780:	ffff ffff 3fff 030f f8c0 ffff ffff 0fff     .....?..........
 800a790:	e081 3ef8 fdff ffff ffff ffff ffff ffff     ...>............
 800a7a0:	ffff ffff ffff ffff ffff ffff ffff ffff     ................
 800a7b0:	ffff ffff ffff ffff ffff ffff ffff ffff     ................
 800a7c0:	ffff ffff ffff ffff ffff ffff ffff ffff     ................
 800a7d0:	ffff ffff ffff ffff ffff ffff ffff ffff     ................
 800a7e0:	ffff ffff ffff ffff ffff ffff ffff ff7f     ................
 800a7f0:	0fff 8bc8 2708 5c1b 0f08 e303 f0f9 2701     .....'.\.......'
 800a800:	ffef 3b7f 0020 fee0 ffff ffff 1fff 00c0     ...; ...........
 800a810:	ffff fc1f ffff ffff ffff ffff ffff ffff     ................
 800a820:	ffff ffff ffff ffff ffff ffff ffff ffff     ................
 800a830:	ffff ffff ffff ffff ffff ffff ffff ffff     ................
 800a840:	ffff ffff ffff ffff ffff ffff ffff ffff     ................
 800a850:	ffff ffff ffff ffff ffff ffff ffff ffff     ................
 800a860:	ffff 1f07 ff7f ffff ffff ffff ffff fcff     ................
 800a870:	0001 7b0d 001b 00f8 0000 0001 181d 1d16     ...{............
 800a880:	2338 1e0f f07c 8fe3 9f1f 0f1f 80f3 f81f     8#..|...........
 800a890:	ffff 3f00 ffff ffff ffff ffff ffff ffff     ...?............
 800a8a0:	ffff ffff ffff ffff ffff ffff ffff ffff     ................
 800a8b0:	ffff ffff ffff ffff ffff ffff ffff ffff     ................
 800a8c0:	ffff ffff ffff ffff ffff ffff ffff ffff     ................
 800a8d0:	ffff ffff ffff ffff ffff ffff ffff f8ff     ................
 800a8e0:	dfe7 603c 00a0 0381 0f07 1f1f 7f3f ffff     ..<`........?...
 800a8f0:	0000 0000 c002 f8ff fefc 77de ffff f6f7     ...........w....
 800a900:	defe cece ecce 2379 9c87 b866 3fe1 f1fe     ......y#..f..?..
 800a910:	ffff c0ff cf0b ff7f ffff ffff ffff ffff     ................
 800a920:	ffff ffff ffff ffff ffff ffff ffff ffff     ................
 800a930:	ffff ffff ffff ffff ffff ffff ffff ffff     ................
 800a940:	ffff ffff ffff ffff ffff ffff ffff ffff     ................
 800a950:	ffff ffff ffff ffff ffff ffff ffff ffff     ................
 800a960:	ffff feff f9fc fbf3 cef6 7cbc f8f8 e170     ...........|..p.
 800a970:	80c3 0c00 1301 9991 df99 cfcf 7fff 3fff     ...............?
 800a980:	ff1f f939 fcfd 3f7e 3e7f 0c88 0f03 e7fc     ..9...~?.>......
 800a990:	ff3f ffff f0fe fd8f 3fe7 ffff ffff ffff     ?........?......
 800a9a0:	ffff ffff ffff ffff ffff ffff ffff ffff     ................
 800a9b0:	ffff ffff ffff ffff ffff ffff ffff ffff     ................
 800a9c0:	ffff ffff ffff ffff ffff ffff ffff ffff     ................
 800a9d0:	ffff ffff ffff ffff ffff ffff ffff ffff     ................
 800a9e0:	ffff ffff ffff ffff ffff ffff deff 0181     ................
 800a9f0:	1f07 c838 c0a0 0181 cf03 3f9f 002f 0001     ..8........?/...
 800aa00:	07e0 0f00 0de3 f081 fffc 807f 87f0 ffff     ................
 800aa10:	87fe ffff ffff ffff 1cff ffff ffff ffff     ................
 800aa20:	ffff ffff ffff ffff ffff ffff ffff ffff     ................
 800aa30:	ffff ffff ffff ffff ffff ffff ffff ffff     ................
 800aa40:	ffff ffff ffff ffff ffff ffff ffff ffff     ................
 800aa50:	ffff ffff ffff ffff ffff ffff ffff ffff     ................
 800aa60:	ffff ffff ffff ffff bfff ff7f ffff ffff     ................
 800aa70:	e0f0 c1c0 8e83 3b1d 6c76 f7f9 fcee f4f9     .......;vl......
 800aa80:	ffeb f2fc fcfb ffff ffff fffe ffff ffff     ................
 800aa90:	fffe ff7f dfbf f7ef fffd ffff ffff ffff     ................
 800aaa0:	ffff ffff ffff ffff ffff ffff ffff ffff     ................
 800aab0:	ffff ffff ffff ffff ffff ffff ffff ffff     ................

0800aac0 <IMG_DATA43>:
 800aac0:	ffff ffff ffff ffff ffff ffff ffff ffff     ................
 800aad0:	ffff ffff ffff ffff ffff ffff ffff ffff     ................
 800aae0:	ffff ffff ffff ffff ffff ffff ffff ffff     ................
 800aaf0:	7ce1 ff8f ff3f 7f3f 7f7f 7f7f 2f3f ffbe     .|..?.?.....?/..
 800ab00:	9fbf 9f9f ffdf c0c2 2020 f10c ffff ffff     ........  ......
 800ab10:	3fff 0003 c080 b860 f6ec ffff ffff ffff     .?....`.........
 800ab20:	ffff ffff ffff ffff ffff ffff ffff ffff     ................
 800ab30:	ffff ffff ffff ffff ffff ffff ffff ffff     ................
 800ab40:	ffff ffff ffff ffff ffff ffff ffff ffff     ................
 800ab50:	ffff ffff ffff ffff ffff ffff ffff ffff     ................
 800ab60:	ffff ffff ffff ffff ffff ffff ffff fdff     ................
 800ab70:	fafe 006e 3f78 1fc0 c73f ffff 0ffe fdfb     ..n.x?..?.......
 800ab80:	ffff ffff 3fff 030f f8c0 ffff ffff 0fff     .....?..........
 800ab90:	e081 3ef8 fdff ffff ffff ffff ffff ffff     ...>............
 800aba0:	ffff ffff ffff ffff ffff ffff ffff ffff     ................
 800abb0:	ffff ffff ffff ffff ffff ffff ffff ffff     ................
 800abc0:	ffff ffff ffff ffff ffff ffff ffff ffff     ................
 800abd0:	ffff ffff ffff ffff ffff ffff ffff ffff     ................
 800abe0:	ffff ffff ffff ffff ffff ffff ffff ff7f     ................
 800abf0:	0fff 8bc8 2708 5c1b 0f18 e303 f0f9 2701     .....'.\.......'
 800ac00:	ffef 3b7f 0000 fce0 ffff ffff 1fff 00c1     ...;............
 800ac10:	ffff fe1f ffff ffff ffff ffff ffff ffff     ................
 800ac20:	ffff ffff ffff ffff ffff ffff ffff ffff     ................
 800ac30:	ffff ffff ffff ffff ffff ffff ffff ffff     ................
 800ac40:	ffff ffff ffff ffff ffff ffff ffff ffff     ................
 800ac50:	ffff ffff ffff ffff ffff ffff ffff 7fff     ................
 800ac60:	ffff 1f07 ff7f ffff ffff ffff ffff fcff     ................
 800ac70:	0001 7b0d 001b 00f8 0000 0001 181d 1516     ...{............
 800ac80:	2338 1e0f f07c 8fe3 9f1f 0f1f c0f3 f81f     8#..|...........
 800ac90:	ffff 3f00 ffff ffff ffff ffff ffff ffff     ...?............
 800aca0:	ffff ffff ffff ffff ffff ffff ffff ffff     ................
 800acb0:	ffff ffff ffff ffff ffff ffff ffff ffff     ................
 800acc0:	ffff ffff ffff ffff ffff ffff ffff ffff     ................
 800acd0:	ffff ffff ffff ffff ffff ffff ffff fcff     ................
 800ace0:	dfe7 603c 00a0 0381 0f07 1f1f 7f3f ffff     ..<`........?...
 800acf0:	0000 0000 c002 f8ff fefc 77de ffff f6f6     ...........w....
 800ad00:	defe ce8e ecce 2379 9c8f b866 3fe1 f1fe     ......y#..f..?..
 800ad10:	ffff c0ff cf0b ff7f ffff ffff ffff ffff     ................
 800ad20:	ffff ffff ffff ffff ffff ffff ffff ffff     ................
 800ad30:	ffff ffff ffff ffff ffff ffff ffff ffff     ................
 800ad40:	ffff ffff ffff ffff ffff ffff ffff ffff     ................
 800ad50:	ffff ffff ffff ffff ffff ffff ffff ffff     ................
 800ad60:	ffff feff f9fc fbf1 cef6 7cbc f8f8 e170     ...........|..p.
 800ad70:	80c3 0c00 1301 9991 9f99 cfcf 7ffe 3fff     ...............?
 800ad80:	ff1f f939 fcfd 3f7e 3e7f 0c8a 0f03 e7fc     ..9...~?.>......
 800ad90:	ff3f ffff f0fe fd8f 3fe7 ffff ffff ffff     ?........?......
 800ada0:	ffff ffff ffff ffff ffff ffff ffff ffff     ................
 800adb0:	ffff ffff ffff ffff ffff ffff ffff ffff     ................
 800adc0:	ffff ffff ffff ffff ffff ffff ffff ffff     ................
 800add0:	ffff ffff ffff ffff ffff ffff ffff ffff     ................
 800ade0:	ffff ffff ffff ffff ffff ffff deff 0181     ................
 800adf0:	1f07 c838 c0a0 0181 cf03 3f9f 002f 1001     ..8........?/...
 800ae00:	07e0 0f00 0ce1 f080 fffc 807f 87f0 ffff     ................
 800ae10:	87fe ffff ffff ffff 1cff ffff ffff ffff     ................
 800ae20:	ffff ffff ffff ffff ffff ffff ffff ffff     ................
 800ae30:	ffff ffff ffff ffff ffff ffff ffff ffff     ................
 800ae40:	ffff ffff ffff ffff ffff ffff ffff ffff     ................
 800ae50:	ffff ffff ffff ffff ffff ffff ffff ffff     ................
 800ae60:	ffff ffff ffff ffff bfff ff7f ffff ffff     ................
 800ae70:	e0f0 c1c0 8e83 3b1d 6c76 f7fd fcee f4f9     .......;vl......
 800ae80:	ffeb f2fc fcfb ffff ffff fffe ffff ffff     ................
 800ae90:	fffe ff7f dfbf f7ef fffd ffff ffff ffff     ................
 800aea0:	ffff ffff ffff ffff ffff ffff ffff ffff     ................
 800aeb0:	ffff ffff ffff ffff ffff ffff ffff ffff     ................

0800aec0 <IMG_DATA44>:
 800aec0:	ffff ffff ffff ffff ffff ffff ffff ffff     ................
 800aed0:	ffff ffff ffff ffff ffff ffff ffff ffff     ................
 800aee0:	ffff ffff ffff ffff ffff ffff ffff ffff     ................
 800aef0:	7ce1 ff8f ff3f 7f3f 7f7f 7f7f 2f3f ffbe     .|..?.?.....?/..
 800af00:	9fbf bf9f ffdf c0c2 2000 f30c ffff ffff     ......... ......
 800af10:	3fff 0003 c080 b860 f6ec ffff ffff ffff     .?....`.........
 800af20:	ffff ffff ffff ffff ffff ffff ffff ffff     ................
 800af30:	ffff ffff ffff ffff ffff ffff ffff ffff     ................
 800af40:	ffff ffff ffff ffff ffff ffff ffff ffff     ................
 800af50:	ffff ffff ffff ffff ffff ffff ffff ffff     ................
 800af60:	ffff ffff ffff ffff ffff ffff ffff fdff     ................
 800af70:	fafe 0066 3f78 1fc0 cf1f ffff 0ffe fdfb     ..f.x?..........
 800af80:	ffff ffff 3fff 030f f8c0 ffff ffff 0fff     .....?..........
 800af90:	e081 3ef8 fdff ffff ffff ffff ffff ffff     ...>............
 800afa0:	ffff ffff ffff ffff ffff ffff ffff ffff     ................
 800afb0:	ffff ffff ffff ffff ffff ffff ffff ffff     ................
 800afc0:	ffff ffff ffff ffff ffff ffff ffff ffff     ................
 800afd0:	ffff ffff ffff ffff ffff ffff ffff ffff     ................
 800afe0:	ffff ffff ffff ffff ffff ffff ffff ff7f     ................
 800aff0:	0fff 8bc8 2708 5c1b 0f10 e303 f0f9 2701     .....'.\.......'
 800b000:	ffef 3b7f 0020 fce0 ffff ffff 1fff 00c1     ...; ...........
 800b010:	ffff fc1f ffff ffff ffff ffff ffff ffff     ................
 800b020:	ffff ffff ffff ffff ffff ffff ffff ffff     ................
 800b030:	ffff ffff ffff ffff ffff ffff ffff ffff     ................
 800b040:	ffff ffff ffff ffff ffff ffff ffff ffff     ................
 800b050:	ffff ffff ffff ffff ffff ffff ffff ffff     ................
 800b060:	ffff 1f07 ff7f ffff ffff ffff ffff fcff     ................
 800b070:	0001 7b09 001b 00f8 0000 0001 181d 1516     ...{............
 800b080:	2338 1e0f f07c 8fe3 9f1f 0f1f 80f3 f81f     8#..|...........
 800b090:	ffff 3f00 ffff ffff ffff ffff ffff ffff     ...?............
 800b0a0:	ffff ffff ffff ffff ffff ffff ffff ffff     ................
 800b0b0:	ffff ffff ffff ffff ffff ffff ffff ffff     ................
 800b0c0:	ffff ffff ffff ffff ffff ffff ffff ffff     ................
 800b0d0:	ffff ffff ffff ffff ffff ffff ffff f8ff     ................
 800b0e0:	dfe7 603c 00a0 0381 0f07 1f1f 7f3f ffff     ..<`........?...
 800b0f0:	0000 0000 c000 f8f7 fefc 77de ffff f6ff     ...........w....
 800b100:	defe ce8e ecce 2379 9c8f b866 3fe1 f1fe     ......y#..f..?..
 800b110:	ffff c0ff cf1b ff7f ffff ffff ffff ffff     ................
 800b120:	ffff ffff ffff ffff ffff ffff ffff ffff     ................
 800b130:	ffff ffff ffff ffff ffff ffff ffff ffff     ................
 800b140:	ffff ffff ffff ffff ffff ffff ffff ffff     ................
 800b150:	ffff ffff ffff ffff ffff ffff ffff ffff     ................
 800b160:	ffff feff f9fc fbf1 cef6 7cbc f8f8 e170     ...........|..p.
 800b170:	80c3 0c00 1300 9991 9f99 cfcf 7ffe 3fff     ...............?
 800b180:	ff1f f939 fcfd 3f7e 3e7f 0c8a 0f03 e7fc     ..9...~?.>......
 800b190:	ff3f ffff f0fe fd8f 3fe7 ffff ffff ffff     ?........?......
 800b1a0:	ffff ffff ffff ffff ffff ffff ffff ffff     ................
 800b1b0:	ffff ffff ffff ffff ffff ffff ffff ffff     ................
 800b1c0:	ffff ffff ffff ffff ffff ffff ffff ffff     ................
 800b1d0:	ffff ffff ffff ffff ffff ffff ffff ffff     ................
 800b1e0:	ffff ffff ffff ffff ffff ffff deff 0181     ................
 800b1f0:	1f07 c838 c0a0 0181 cf03 3f9f 002f 2001     ..8........?/.. 
 800b200:	07e0 0700 0de1 f081 fffc 807f 86f0 ffff     ................
 800b210:	87fe ffff ffff ffff 18ff ffff ffff ffff     ................
 800b220:	ffff ffff ffff ffff ffff ffff ffff ffff     ................
 800b230:	ffff ffff ffff ffff ffff ffff ffff ffff     ................
 800b240:	ffff ffff ffff ffff ffff ffff ffff ffff     ................
 800b250:	ffff ffff ffff ffff ffff ffff ffff ffff     ................
 800b260:	ffff ffff ffff ffff bfff ff7f ffff ffff     ................
 800b270:	e0f0 c1c0 8e83 3b1d 6c76 f7f9 fcee f4f9     .......;vl......
 800b280:	ffeb f2fc fcfb ffff ffff fffe ffff ffff     ................
 800b290:	fffe ff7f dfbf f7ef fffd ffff ffff ffff     ................
 800b2a0:	ffff ffff ffff ffff ffff ffff ffff ffff     ................
 800b2b0:	ffff ffff ffff ffff ffff ffff ffff ffff     ................

0800b2c0 <IMG_DATA45>:
 800b2c0:	ffff ffff ffff ffff ffff ffff ffff ffff     ................
 800b2d0:	ffff ffff ffff ffff ffff ffff ffff ffff     ................
 800b2e0:	ffff ffff ffff ffff ffff ffff ffff ffff     ................
 800b2f0:	7ce0 ff8f ff3f 7f3f 7f7f 7f7f 2f3f ffbe     .|..?.?.....?/..
 800b300:	9fbf bf9f ffdf c0c2 3020 f30c ffff ffff     ........ 0......
 800b310:	3fff 0003 c000 b860 f6ec ffff ffff ffff     .?....`.........
 800b320:	ffff ffff ffff ffff ffff ffff ffff ffff     ................
 800b330:	ffff ffff ffff ffff ffff ffff ffff ffff     ................
 800b340:	ffff ffff ffff ffff ffff ffff ffff ffff     ................
 800b350:	ffff ffff ffff ffff ffff ffff ffff ffff     ................
 800b360:	ffff ffff ffff ffff ffff ffff ffff fdff     ................
 800b370:	fafe 0066 3f78 1fc0 cf1f ffff 0ffe fdfb     ..f.x?..........
 800b380:	ffff ffff 3fff 030f f8c0 ffff ffff 0fff     .....?..........
 800b390:	e081 3ef8 fdff ffff ffff ffff ffff ffff     ...>............
 800b3a0:	ffff ffff ffff ffff ffff ffff ffff ffff     ................
 800b3b0:	ffff ffff ffff ffff ffff ffff ffff ffff     ................
 800b3c0:	ffff ffff ffff ffff ffff ffff ffff ffff     ................
 800b3d0:	ffff ffff ffff ffff ffff ffff ffff ffff     ................
 800b3e0:	ffff ffff ffff ffff ffff ffff ffff ff7f     ................
 800b3f0:	0fff 8bc8 2708 5e1b 0f00 e303 f0f9 2701     .....'.^.......'
 800b400:	ffef 3b7f 0020 fee0 ffff ffff 1fff 00c0     ...; ...........
 800b410:	ffff fc1f ffff ffff ffff ffff ffff ffff     ................
 800b420:	ffff ffff ffff ffff ffff ffff ffff ffff     ................
 800b430:	ffff ffff ffff ffff ffff ffff ffff ffff     ................
 800b440:	ffff ffff ffff ffff ffff ffff ffff ffff     ................
 800b450:	ffff ffff ffff ffff ffff ffff ffff ffff     ................
 800b460:	ffff 1f07 ff7f ffff ffff ffff ffff fcff     ................
 800b470:	0001 7b09 001b 00f8 0000 0001 181d 1416     ...{............
 800b480:	2338 1e0f f07c 8fe3 9f1f 0f1f 80f3 f81f     8#..|...........
 800b490:	ffff 3f00 ffff ffff ffff ffff ffff ffff     ...?............
 800b4a0:	ffff ffff ffff ffff ffff ffff ffff ffff     ................
 800b4b0:	ffff ffff ffff ffff ffff ffff ffff ffff     ................
 800b4c0:	ffff ffff ffff ffff ffff ffff ffff ffff     ................
 800b4d0:	ffff ffff ffff ffff ffff ffff ffff f8ff     ................
 800b4e0:	dfe7 603c 00a0 0381 0f07 1f1f 7f3f ffff     ..<`........?...
 800b4f0:	0000 0000 c000 f8f7 fefc 77de ffff f6f6     ...........w....
 800b500:	defe cece ecce 2379 9c8f b866 3fe1 f1fe     ......y#..f..?..
 800b510:	ffff c0ff cf0b ff7f ffff ffff ffff ffff     ................
 800b520:	ffff ffff ffff ffff ffff ffff ffff ffff     ................
 800b530:	ffff ffff ffff ffff ffff ffff ffff ffff     ................
 800b540:	ffff ffff ffff ffff ffff ffff ffff ffff     ................
 800b550:	ffff ffff ffff ffff ffff ffff ffff ffff     ................
 800b560:	ffff feff f9fc ebf1 cef6 7cbc f8f8 e170     ...........|..p.
 800b570:	80c3 0c00 1b01 9991 9f99 cfcf 7ffe 3fff     ...............?
 800b580:	ff1f f939 fcfd 3f7e 3e7f 0c8a 1f03 e7fc     ..9...~?.>......
 800b590:	ff3f ffff f0fe fd8f 3fe7 ffff ffff ffff     ?........?......
 800b5a0:	ffff ffff ffff ffff ffff ffff ffff ffff     ................
 800b5b0:	ffff ffff ffff ffff ffff ffff ffff ffff     ................
 800b5c0:	ffff ffff ffff ffff ffff ffff ffff ffff     ................
 800b5d0:	ffff ffff ffff ffff ffff ffff ffff ffff     ................
 800b5e0:	ffff ffff ffff ffff ffff ffff deff 0181     ................
 800b5f0:	1f07 c838 c0a0 0181 cf03 3f9f 002f 0001     ..8........?/...
 800b600:	07e0 0700 1de1 f001 fffe 807f 86f0 ffff     ................
 800b610:	877e ffff ffff ffff 18ff ffff ffff ffff     ~...............
 800b620:	ffff ffff ffff ffff ffff ffff ffff ffff     ................
 800b630:	ffff ffff ffff ffff ffff ffff ffff ffff     ................
 800b640:	ffff ffff ffff ffff ffff ffff ffff ffff     ................
 800b650:	ffff ffff ffff ffff ffff ffff ffff ffff     ................
 800b660:	ffff ffff ffff ffff bfff ff7f ffff ffff     ................
 800b670:	e0f0 c1c0 8e83 3b1d 6c76 f7f9 fcee f4f9     .......;vl......
 800b680:	ffeb f2fc fcfb ffff ffff fffe ffff ffff     ................
 800b690:	fffe ff7f dfbf f7ef fffd ffff ffff ffff     ................
 800b6a0:	ffff ffff ffff ffff ffff ffff ffff ffff     ................
 800b6b0:	ffff ffff ffff ffff ffff ffff ffff ffff     ................

0800b6c0 <IMG_DATA46>:
 800b6c0:	ffff ffff ffff ffff ffff ffff ffff ffff     ................
 800b6d0:	ffff ffff ffff ffff ffff ffff ffff ffff     ................
 800b6e0:	ffff ffff ffff ffff ffff ffff ffff ffff     ................
 800b6f0:	7ce1 ff8f ff3f 7f3f 7f7f 7f7f 2f3f ffbe     .|..?.?.....?/..
 800b700:	9fbf bf9f ffdf c0c2 2020 f30c ffff ffff     ........  ......
 800b710:	3fff 0003 c000 b860 f6ec ffff ffff ffff     .?....`.........
 800b720:	ffff ffff ffff ffff ffff ffff ffff ffff     ................
 800b730:	ffff ffff ffff ffff ffff ffff ffff ffff     ................
 800b740:	ffff ffff ffff ffff ffff ffff ffff ffff     ................
 800b750:	ffff ffff ffff ffff ffff ffff ffff ffff     ................
 800b760:	ffff ffff ffff ffff ffff ffff ffff fdff     ................
 800b770:	fafe 0066 3f78 1fe0 cf1f ffff 0ffe fdfb     ..f.x?..........
 800b780:	ffff ffff 3fff 030f f8c0 ffff ffff 0fff     .....?..........
 800b790:	e081 3ef8 fdff ffff ffff ffff ffff ffff     ...>............
 800b7a0:	ffff ffff ffff ffff ffff ffff ffff ffff     ................
 800b7b0:	ffff ffff ffff ffff ffff ffff ffff ffff     ................
 800b7c0:	ffff ffff ffff ffff ffff ffff ffff ffff     ................
 800b7d0:	ffff ffff ffff ffff ffff ffff ffff ffff     ................
 800b7e0:	ffff ffff ffff ffff ffff ffff ffff ff7f     ................
 800b7f0:	0fff 8bc8 2708 5e1b 0f18 e303 f0f9 2701     .....'.^.......'
 800b800:	ffef 3b7f 0000 fee0 ffff ffff 1fff 00c1     ...;............
 800b810:	ffff fc1f ffff ffff ffff ffff ffff ffff     ................
 800b820:	ffff ffff ffff ffff ffff ffff ffff ffff     ................
 800b830:	ffff ffff ffff ffff ffff ffff ffff ffff     ................
 800b840:	ffff ffff ffff ffff ffff ffff ffff ffff     ................
 800b850:	ffff ffff ffff ffff ffff ffff ffff ffff     ................
 800b860:	ffff 1f07 ff7f ffff ffff ffff ffff fcff     ................
 800b870:	0001 7b0d 001b 00f8 0000 0000 181d 1516     ...{............
 800b880:	2338 1e0f f07c 8fe3 9f1f 0f1f 80f3 f81f     8#..|...........
 800b890:	ffff 3f00 ffff ffff ffff ffff ffff ffff     ...?............
 800b8a0:	ffff ffff ffff ffff ffff ffff ffff ffff     ................
 800b8b0:	ffff ffff ffff ffff ffff ffff ffff ffff     ................
 800b8c0:	ffff ffff ffff ffff ffff ffff ffff ffff     ................
 800b8d0:	ffff ffff ffff ffff ffff ffff ffff fcff     ................
 800b8e0:	dfe7 603c 00a0 0381 0f07 1f1f 7f3f ffff     ..<`........?...
 800b8f0:	0000 0000 c000 f8f7 fefc 77de ffff f6f6     ...........w....
 800b900:	defe cece ecce 2379 9c8f b866 3fe1 f1fe     ......y#..f..?..
 800b910:	ffff c0ff cf0b ff7f ffff ffff ffff ffff     ................
 800b920:	ffff ffff ffff ffff ffff ffff ffff ffff     ................
 800b930:	ffff ffff ffff ffff ffff ffff ffff ffff     ................
 800b940:	ffff ffff ffff ffff ffff ffff ffff ffff     ................
 800b950:	ffff ffff ffff ffff ffff ffff ffff ffff     ................
 800b960:	ffff feff f9fc fbf1 cef6 7cbc f8f8 e170     ...........|..p.
 800b970:	80c3 0c00 1b01 9991 9f99 cfcf 7ffe 3fff     ...............?
 800b980:	ff1f f939 fcfd 3f7e 3e7f 0c8a 1f03 e7fc     ..9...~?.>......
 800b990:	ff3f ffff f0fe fd8f 3fe7 ffff ffff ffff     ?........?......
 800b9a0:	ffff ffff ffff ffff ffff ffff ffff ffff     ................
 800b9b0:	ffff ffff ffff ffff ffff ffff ffff ffff     ................
 800b9c0:	ffff ffff ffff ffff ffff ffff ffff ffff     ................
 800b9d0:	ffff ffff ffff ffff ffff ffff ffff ffff     ................
 800b9e0:	ffff ffff ffff ffff ffff ffff deff 0181     ................
 800b9f0:	1f07 c838 c0a0 0181 cf13 3f9f 002f 1001     ..8........?/...
 800ba00:	07e0 0f00 0de3 f081 fffc 807f 87f0 ffff     ................
 800ba10:	877e ffff ffff ffff 18ff ffff ffff ffff     ~...............
 800ba20:	ffff ffff ffff ffff ffff ffff ffff ffff     ................
 800ba30:	ffff ffff ffff ffff ffff ffff ffff ffff     ................
 800ba40:	ffff ffff ffff ffff ffff ffff ffff ffff     ................
 800ba50:	ffff ffff ffff ffff ffff ffff ffff ffff     ................
 800ba60:	ffff ffff ffff ffff bfff ff7f ffff ffff     ................
 800ba70:	e0f0 c1c0 8e83 3b1d 6c76 f7f9 fcee f4f9     .......;vl......
 800ba80:	ffeb f2fc fcfb ffff ffff fffe ffff ffff     ................
 800ba90:	fffe ff7f dfbf f7ef fffd ffff ffff ffff     ................
 800baa0:	ffff ffff ffff ffff ffff ffff ffff ffff     ................
 800bab0:	ffff ffff ffff ffff ffff ffff ffff ffff     ................

0800bac0 <IMG_DATA47>:
 800bac0:	ffff ffff ffff ffff ffff ffff ffff ffff     ................
 800bad0:	ffff ffff ffff ffff ffff ffff ffff ffff     ................
 800bae0:	ffff ffff ffff ffff ffff ffff ffff ffff     ................
 800baf0:	7ce0 ff8f ff3f 7f3f 7f7f 7f7f 2f3f ffbe     .|..?.?.....?/..
 800bb00:	9fbf 9f9f ffdf c0c2 3020 fb0c ffff ffff     ........ 0......
 800bb10:	3fff 0003 c000 b860 f6ec fffb ffff ffff     .?....`.........
 800bb20:	ffff ffff ffff ffff ffff ffff ffff ffff     ................
 800bb30:	ffff ffff ffff ffff ffff ffff ffff ffff     ................
 800bb40:	ffff ffff ffff ffff ffff ffff ffff ffff     ................
 800bb50:	ffff ffff ffff ffff ffff ffff ffff ffff     ................
 800bb60:	ffff ffff ffff ffff ffff ffff ffff fdff     ................
 800bb70:	fafe 0066 3f78 3fc0 cf3f ffff 0ffe fdfb     ..f.x?.??.......
 800bb80:	ffff ffff 3fff 030f f8c0 ffff ffff 0fff     .....?..........
 800bb90:	e081 3ef8 fdff ffff ffff ffff ffff ffff     ...>............
 800bba0:	ffff ffff ffff ffff ffff ffff ffff ffff     ................
 800bbb0:	ffff ffff ffff ffff ffff ffff ffff ffff     ................
 800bbc0:	ffff ffff ffff ffff ffff ffff ffff ffff     ................
 800bbd0:	ffff ffff ffff ffff ffff ffff ffff ffff     ................
 800bbe0:	ffff ffff ffff ffff ffff ffff ffff ff7f     ................
 800bbf0:	0fff 8bc8 2708 5c1b 0f18 e303 f0f9 2701     .....'.\.......'
 800bc00:	ffef 3b7f 0000 fee0 ffff ffff 1fff 00c1     ...;............
 800bc10:	ffff fc1f ffff ffff ffff ffff ffff ffff     ................
 800bc20:	ffff ffff ffff ffff ffff ffff ffff ffff     ................
 800bc30:	ffff ffff ffff ffff ffff ffff ffff ffff     ................
 800bc40:	ffff ffff ffff ffff ffff ffff ffff ffff     ................
 800bc50:	ffff ffff ffff ffff ffff ffff ffff ffff     ................
 800bc60:	ffff 1f07 ff7f ffff ffff ffff ffff fcff     ................
 800bc70:	0401 7b0d 001b 00f8 0000 0000 181d 1516     ...{............
 800bc80:	2338 1e0f f07c 8fe3 9f1f 0f1f 80f3 f81f     8#..|...........
 800bc90:	ffff 3f00 ffff ffff ffff ffff ffff ffff     ...?............
 800bca0:	ffff ffff ffff ffff ffff ffff ffff ffff     ................
 800bcb0:	ffff ffff ffff ffff ffff ffff ffff ffff     ................
 800bcc0:	ffff ffff ffff ffff ffff ffff ffff ffff     ................
 800bcd0:	ffff ffff ffff ffff ffff ffff ffff f8ff     ................
 800bce0:	dfe7 603c 00a0 0381 0f07 1f1f 7f3f ffff     ..<`........?...
 800bcf0:	0000 0000 c000 f8f7 fefc 67de ffff f6f6     ...........g....
 800bd00:	defe cece ecce 2379 9c8f b866 3fe1 f1fe     ......y#..f..?..
 800bd10:	ffff c0ff cf0b ff7f ffff ffff ffff ffff     ................
 800bd20:	ffff ffff ffff ffff ffff ffff ffff ffff     ................
 800bd30:	ffff ffff ffff ffff ffff ffff ffff ffff     ................
 800bd40:	ffff ffff ffff ffff ffff ffff ffff ffff     ................
 800bd50:	ffff ffff ffff ffff ffff ffff ffff ffff     ................
 800bd60:	ffff feff f9fc fbf3 cef6 7cbc f8f8 e170     ...........|..p.
 800bd70:	80c3 0c00 1300 9991 9f99 cfcf 7ffe 3fff     ...............?
 800bd80:	ff1f f939 fcfd 3f7e 3e7f 0c8a 0f03 e7fc     ..9...~?.>......
 800bd90:	ff3f ffff f0fe fd8f 3fe7 ffff ffff ffff     ?........?......
 800bda0:	ffff ffff ffff ffff ffff ffff ffff ffff     ................
 800bdb0:	ffff ffff ffff ffff ffff ffff ffff ffff     ................
 800bdc0:	ffff ffff ffff ffff ffff ffff ffff ffff     ................
 800bdd0:	ffff ffff ffff ffff ffff ffff ffff ffff     ................
 800bde0:	ffff ffff ffff ffff ffff ffff deff 0181     ................
 800bdf0:	1f07 c83c c0a0 0181 cf13 3f9f 002f 3001     ..<........?/..0
 800be00:	07e0 0f00 1de1 f080 fffc 807f 86f0 ffff     ................
 800be10:	87fe ffff ffff ffff 18ff ffff ffff ffff     ................
 800be20:	ffff ffff ffff ffff ffff ffff ffff ffff     ................
 800be30:	ffff ffff ffff ffff ffff ffff ffff ffff     ................
 800be40:	ffff ffff ffff ffff ffff ffff ffff ffff     ................
 800be50:	ffff ffff ffff ffff ffff ffff ffff ffff     ................
 800be60:	ffff ffff ffff ffff bfff ff7f ffff ffff     ................
 800be70:	e0f0 c1c0 8e83 3b1d 6c76 f7f9 fcee f4f9     .......;vl......
 800be80:	ffeb f2fc fcfb ffff ffff fffe ffff ffff     ................
 800be90:	fffe ff7f dfbf f7ef fffd ffff ffff ffff     ................
 800bea0:	ffff ffff ffff ffff ffff ffff ffff ffff     ................
 800beb0:	ffff ffff ffff ffff ffff ffff ffff ffff     ................

0800bec0 <IMG_DATA48>:
 800bec0:	ffff ffff ffff ffff ffff ffff ffff ffff     ................
 800bed0:	ffff ffff ffff ffff ffff ffff ffff ffff     ................
 800bee0:	ffff ffff ffff ffff ffff ffff ffff ffff     ................
 800bef0:	7cc1 ff8f ff3f 7f3f 7f7f 7f7f 2f3f ffbe     .|..?.?.....?/..
 800bf00:	9fbf bf9f ffdf c0c2 2020 f30c ffff ffff     ........  ......
 800bf10:	3fff 0003 c080 b860 f6ec ffff ffff ffff     .?....`.........
 800bf20:	ffff ffff ffff ffff ffff ffff ffff ffff     ................
 800bf30:	ffff ffff ffff ffff ffff ffff ffff ffff     ................
 800bf40:	ffff ffff ffff ffff ffff ffff ffff ffff     ................
 800bf50:	ffff ffff ffff ffff ffff ffff ffff ffff     ................
 800bf60:	ffff ffff ffff ffff ffff ffff ffff fdff     ................
 800bf70:	fafe 0066 3f78 1fe0 cf1f ffff 0ffe fdfb     ..f.x?..........
 800bf80:	ffff ffff 3fff 030f f8c0 ffff ffff 0fff     .....?..........
 800bf90:	e081 3ef8 fdff ffff ffff ffff ffff ffff     ...>............
 800bfa0:	ffff ffff ffff ffff ffff ffff ffff ffff     ................
 800bfb0:	ffff ffff ffff ffff ffff ffff ffff ffff     ................
 800bfc0:	ffff ffff ffff ffff ffff ffff ffff ffff     ................
 800bfd0:	ffff ffff ffff ffff ffff ffff ffff ffff     ................
 800bfe0:	ffff ffff ffff ffff ffff ffff ffff ff7f     ................
 800bff0:	0fff 8bc8 2708 5c1b 0f18 6303 f0f9 2701     .....'.\...c...'
 800c000:	ffef 3b7f 0020 fee0 ffff ffff 1fff 00c1     ...; ...........
 800c010:	ffff fc1f ffff ffff ffff ffff ffff ffff     ................
 800c020:	ffff ffff ffff ffff ffff ffff ffff ffff     ................
 800c030:	ffff ffff ffff ffff ffff ffff ffff ffff     ................
 800c040:	ffff ffff ffff ffff ffff ffff ffff ffff     ................
 800c050:	ffff ffff ffff ffff ffff ffff ffff ffff     ................
 800c060:	ffff 1f07 ff7f ffff ffff ffff ffff fcff     ................
 800c070:	0001 7b0d 001b 00f8 0000 0001 181d 1416     ...{............
 800c080:	2338 1e0f f07c 8fe3 9f1f 0f1f c0f3 f81f     8#..|...........
 800c090:	ffff 3f00 ffff ffff ffff ffff ffff ffff     ...?............
 800c0a0:	ffff ffff ffff ffff ffff ffff ffff ffff     ................
 800c0b0:	ffff ffff ffff ffff ffff ffff ffff ffff     ................
 800c0c0:	ffff ffff ffff ffff ffff ffff ffff ffff     ................
 800c0d0:	ffff ffff ffff ffff ffff ffff ffff f8ff     ................
 800c0e0:	dfe7 603c 00a0 0381 0f07 1f1f 7f3f ffff     ..<`........?...
 800c0f0:	0000 0000 c000 f8e7 fefc 77de ffff f6f6     ...........w....
 800c100:	defe ce8e ecce 2379 1c8f b866 3fe1 f1fe     ......y#..f..?..
 800c110:	ffff c0ff cf1b ff7f ffff ffff ffff ffff     ................
 800c120:	ffff ffff ffff ffff ffff ffff ffff ffff     ................
 800c130:	ffff ffff ffff ffff ffff ffff ffff ffff     ................
 800c140:	ffff ffff ffff ffff ffff ffff ffff ffff     ................
 800c150:	ffff ffff ffff ffff ffff ffff ffff ffff     ................
 800c160:	ffff feff f9fc fbf3 cef6 7cbc f8f8 e170     ...........|..p.
 800c170:	80c3 0c00 1300 9991 df99 cfcf 7fff 3fff     ...............?
 800c180:	ff1f f939 fcfd 3f7e 3e7f 0c8a 1f03 e7fc     ..9...~?.>......
 800c190:	ff3f ffff f0fe fd8f 3fe7 ffff ffff ffff     ?........?......
 800c1a0:	ffff ffff ffff ffff ffff ffff ffff ffff     ................
 800c1b0:	ffff ffff ffff ffff ffff ffff ffff ffff     ................
 800c1c0:	ffff ffff ffff ffff ffff ffff ffff ffff     ................
 800c1d0:	ffff ffff ffff ffff ffff ffff ffff ffff     ................
 800c1e0:	ffff ffff ffff ffff ffff ffff deff 0181     ................
 800c1f0:	1f07 c83c c0a0 0181 cf03 3f9f 002f 1001     ..<........?/...
 800c200:	07e0 0f10 1de1 f081 fffc 807f 86f0 ffff     ................
 800c210:	877e ffff ffff ffff 1cff ffff ffff ffff     ~...............
 800c220:	ffff ffff ffff ffff ffff ffff ffff ffff     ................
 800c230:	ffff ffff ffff ffff ffff ffff ffff ffff     ................
 800c240:	ffff ffff ffff ffff ffff ffff ffff ffff     ................
 800c250:	ffff ffff ffff ffff ffff ffff ffff ffff     ................
 800c260:	ffff ffff ffff ffff bfff ff7f ffff ffff     ................
 800c270:	e0f0 c1c0 8e83 3b1d 6c76 f7f9 fcee f4f9     .......;vl......
 800c280:	ffeb f2fc fcfb ffff ffff fffe ffff ffff     ................
 800c290:	fffe ff7f dfbf f7ef fffd ffff ffff ffff     ................
 800c2a0:	ffff ffff ffff ffff ffff ffff ffff ffff     ................
 800c2b0:	ffff ffff ffff ffff ffff ffff ffff ffff     ................

0800c2c0 <IMG_DATA49>:
 800c2c0:	ffff ffff ffff ffff ffff ffff ffff ffff     ................
 800c2d0:	ffff ffff ffff ffff ffff ffff ffff ffff     ................
 800c2e0:	ffff ffff ffff ffff ffff ffff ffff ffff     ................
 800c2f0:	7ce0 ff8f ff3f 7f7f 7f7f 7f7f 2f3f ffbe     .|..?.......?/..
 800c300:	9fbf bf9f ffdf c0c2 2000 fb0c ffff ffff     ......... ......
 800c310:	3fff 0003 c080 b860 f6ec ffff ffff ffff     .?....`.........
 800c320:	ffff ffff ffff ffff ffff ffff ffff ffff     ................
 800c330:	ffff ffff ffff ffff ffff ffff ffff ffff     ................
 800c340:	ffff ffff ffff ffff ffff ffff ffff ffff     ................
 800c350:	ffff ffff ffff ffff ffff ffff ffff ffff     ................
 800c360:	ffff ffff ffff ffff ffff ffff ffff fdff     ................
 800c370:	fafe 0066 3f78 3fc0 cf1f ffff 0ffe fdfb     ..f.x?.?........
 800c380:	ffff ffff 3fff 030f f8c0 ffff ffff 0fff     .....?..........
 800c390:	e081 3ef8 fdff ffff ffff ffff ffff ffff     ...>............
 800c3a0:	ffff ffff ffff ffff ffff ffff ffff ffff     ................
 800c3b0:	ffff ffff ffff ffff ffff ffff ffff ffff     ................
 800c3c0:	ffff ffff ffff ffff ffff ffff ffff ffff     ................
 800c3d0:	ffff ffff ffff ffff ffff ffff ffff ffff     ................
 800c3e0:	ffff ffff ffff ffff ffff ffff ffff ff7f     ................
 800c3f0:	0fff 8bc8 2708 5c1b 0f18 6303 f0f9 2701     .....'.\...c...'
 800c400:	ffef 3b7f 0020 fce0 ffff ffff 1fff 00c1     ...; ...........
 800c410:	ffff fc1f ffff ffff ffff ffff ffff ffff     ................
 800c420:	ffff ffff ffff ffff ffff ffff ffff ffff     ................
 800c430:	ffff ffff ffff ffff ffff ffff ffff ffff     ................
 800c440:	ffff ffff ffff ffff ffff ffff ffff ffff     ................
 800c450:	ffff ffff ffff ffff ffff ffff ffff ffff     ................
 800c460:	ffff 1f07 ff7f ffff ffff ffff ffff fcff     ................
 800c470:	0001 7b0d 001b 00f8 0000 0000 181d 1516     ...{............
 800c480:	2338 1e0f f07c 8fe3 9f1f 0f1f c0f3 f81f     8#..|...........
 800c490:	ffff 3f00 ffff ffff ffff ffff ffff ffff     ...?............
 800c4a0:	ffff ffff ffff ffff ffff ffff ffff ffff     ................
 800c4b0:	ffff ffff ffff ffff ffff ffff ffff ffff     ................
 800c4c0:	ffff ffff ffff ffff ffff ffff ffff ffff     ................
 800c4d0:	ffff ffff ffff ffff ffff ffff ffff f8ff     ................
 800c4e0:	dfe7 603c 00a0 0381 0f07 1f1f 7f3f ffff     ..<`........?...
 800c4f0:	0000 0000 c006 f8f7 fefc 77de ffff f6f7     ...........w....
 800c500:	defe 0e4e 2c0e 6339 9c8f b866 3fe1 f1fe     ..N..,9c..f..?..
 800c510:	ffff c0ff cf0b ff7f ffff ffff ffff ffff     ................
 800c520:	ffff ffff ffff ffff ffff ffff ffff ffff     ................
 800c530:	ffff ffff ffff ffff ffff ffff ffff ffff     ................
 800c540:	ffff ffff ffff ffff ffff ffff ffff ffff     ................
 800c550:	ffff ffff ffff ffff ffff ffff ffff ffff     ................
 800c560:	ffff feff f9fc fbf3 cef6 7c9c f8f8 e170     ...........|..p.
 800c570:	80c3 0c00 1300 8131 0705 8f07 7f3f 3fff     ......1.....?..?
 800c580:	ff1f 103f 8000 0400 204c 0cc2 1f03 e7fc     ..?.....L ......
 800c590:	ff3f ffff f0fe fd8f 3fe7 ffff ffff ffff     ?........?......
 800c5a0:	ffff ffff ffff ffff ffff ffff ffff ffff     ................
 800c5b0:	ffff ffff ffff ffff ffff ffff ffff ffff     ................
 800c5c0:	ffff ffff ffff ffff ffff ffff ffff ffff     ................
 800c5d0:	ffff ffff ffff ffff ffff ffff ffff ffff     ................
 800c5e0:	ffff ffff ffff ffff ffff ffff deff 0181     ................
 800c5f0:	1f07 c838 c0a0 0080 c810 3998 1038 3001     ..8........98..0
 800c600:	07e0 0f00 19e3 f081 fdfc 807e 86f0 ffff     ..........~.....
 800c610:	877e ffff ffff ffff 18ff ffff ffff ffff     ~...............
 800c620:	ffff ffff ffff ffff ffff ffff ffff ffff     ................
 800c630:	ffff ffff ffff ffff ffff ffff ffff ffff     ................
 800c640:	ffff ffff ffff ffff ffff ffff ffff ffff     ................
 800c650:	ffff ffff ffff ffff ffff ffff ffff ffff     ................
 800c660:	ffff ffff ffff ffff bfff ff7f ffff ffff     ................
 800c670:	e0f0 c1c0 8e83 3b1d 6c76 f7f9 fcee f4f9     .......;vl......
 800c680:	ffeb f2fc fcfb ffff ffff fffe ffff ffff     ................
 800c690:	fffe ff7f dfbf f7ef fffd ffff ffff ffff     ................
 800c6a0:	ffff ffff ffff ffff ffff ffff ffff ffff     ................
 800c6b0:	ffff ffff ffff ffff ffff ffff ffff ffff     ................

0800c6c0 <IMG_DATA50>:
 800c6c0:	ffff ffff ffff ffff ffff ffff ffff ffff     ................
 800c6d0:	ffff ffff ffff ffff ffff ffff ffff ffff     ................
 800c6e0:	ffff ffff ffff ffff ffff ffff ffff ffff     ................
 800c6f0:	7ce1 ff8f ff3f 7f3f 7f7f 7f7f 2f3f ffbe     .|..?.?.....?/..
 800c700:	9fbf 9f9f ffdf c0c2 3020 f30c ffff ffff     ........ 0......
 800c710:	3fff 0003 c080 b860 f6ec ffff ffff ffff     .?....`.........
 800c720:	ffff ffff ffff ffff ffff ffff ffff ffff     ................
 800c730:	ffff ffff ffff ffff ffff ffff ffff ffff     ................
 800c740:	ffff ffff ffff ffff ffff ffff ffff ffff     ................
 800c750:	ffff ffff ffff ffff ffff ffff ffff ffff     ................
 800c760:	ffff ffff ffff ffff ffff ffff ffff fdff     ................
 800c770:	fafe 0066 3f70 3fc0 cf3f ffff 0ffe fdfb     ..f.p?.??.......
 800c780:	ffff ffff 3fff 030f f8c0 ffff ffff 0fff     .....?..........
 800c790:	e081 3ef8 fdff ffff ffff ffff ffff ffff     ...>............
 800c7a0:	ffff ffff ffff ffff ffff ffff ffff ffff     ................
 800c7b0:	ffff ffff ffff ffff ffff ffff ffff ffff     ................
 800c7c0:	ffff ffff ffff ffff ffff ffff ffff ffff     ................
 800c7d0:	ffff ffff ffff ffff ffff ffff ffff ffff     ................
 800c7e0:	ffff ffff ffff ffff ffff ffff ffff ff7f     ................
 800c7f0:	0fff 8bc8 2708 5c1b 0f00 e303 f0f9 2701     .....'.\.......'
 800c800:	ffef 3b7f 0000 fee0 ffff ffff 1fff 00c1     ...;............
 800c810:	ffff fc1f ffff ffff ffff ffff ffff ffff     ................
 800c820:	ffff ffff ffff ffff ffff ffff ffff ffff     ................
 800c830:	ffff ffff ffff ffff ffff ffff ffff ffff     ................
 800c840:	ffff ffff ffff ffff ffff ffff ffff ffff     ................
 800c850:	ffff ffff ffff ffff ffff ffff ffff ffff     ................
 800c860:	ffff 1f07 ff7f ffff ffff ffff ffff fcff     ................
 800c870:	0001 7b09 001b 00f8 0000 0001 181d 1516     ...{............
 800c880:	2338 1e0f f07c 8fe3 9f1f 0f1f c0f3 f81f     8#..|...........
 800c890:	ffff 3f00 ffff ffff ffff ffff ffff ffff     ...?............
 800c8a0:	ffff ffff ffff ffff ffff ffff ffff ffff     ................
 800c8b0:	ffff ffff ffff ffff ffff ffff ffff ffff     ................
 800c8c0:	ffff ffff ffff ffff ffff ffff ffff ffff     ................
 800c8d0:	ffff ffff ffff ffff ffff ffff ffff f8ff     ................
 800c8e0:	dfe7 603c 00a0 0381 0f07 1f1f 7f3f ffff     ..<`........?...
 800c8f0:	0000 0000 c002 f8f7 fefc f7de ffff f6f6     ................
 800c900:	defe 0e4e 2c0e 6339 9c8f b866 3fe0 f1fe     ..N..,9c..f..?..
 800c910:	ffff c0ff cf0b ff7f ffff ffff ffff ffff     ................
 800c920:	ffff ffff ffff ffff ffff ffff ffff ffff     ................
 800c930:	ffff ffff ffff ffff ffff ffff ffff ffff     ................
 800c940:	ffff ffff ffff ffff ffff ffff ffff ffff     ................
 800c950:	ffff ffff ffff ffff ffff ffff ffff ffff     ................
 800c960:	ffff feff f9fc fbf3 cef6 7cbc f8f8 e170     ...........|..p.
 800c970:	80c3 0c00 1300 8131 0701 8f07 7f3e 3fff     ......1.....>..?
 800c980:	ff1f 103f 8000 0400 204c 0cc2 0f03 e7fc     ..?.....L ......
 800c990:	ff3f ffff f0fe fd8f 3fe7 ffff ffff ffff     ?........?......
 800c9a0:	ffff ffff ffff ffff ffff ffff ffff ffff     ................
 800c9b0:	ffff ffff ffff ffff ffff ffff ffff ffff     ................
 800c9c0:	ffff ffff ffff ffff ffff ffff ffff ffff     ................
 800c9d0:	ffff ffff ffff ffff ffff ffff ffff ffff     ................
 800c9e0:	ffff ffff ffff ffff ffff ffff deff 0181     ................
 800c9f0:	1f07 c838 c0a0 0080 c810 3998 0038 2001     ..8........98.. 
 800ca00:	07e0 0f00 18f3 f080 fdfc 807e 86f0 ffff     ..........~.....
 800ca10:	877e ffff ffff ffff 1cff ffff ffff ffff     ~...............
 800ca20:	ffff ffff ffff ffff ffff ffff ffff ffff     ................
 800ca30:	ffff ffff ffff ffff ffff ffff ffff ffff     ................
 800ca40:	ffff ffff ffff ffff ffff ffff ffff ffff     ................
 800ca50:	ffff ffff ffff ffff ffff ffff ffff ffff     ................
 800ca60:	ffff ffff ffff ffff bfff ff7f ffff ffff     ................
 800ca70:	e0f0 c1c0 8e83 3b1d 6c76 f7f9 fcee f4f9     .......;vl......
 800ca80:	ffeb f2fc fcfb ffff ffff fffe ffff ffff     ................
 800ca90:	fffe ff7f dfbf f7ef fffd ffff ffff ffff     ................
 800caa0:	ffff ffff ffff ffff ffff ffff ffff ffff     ................
 800cab0:	ffff ffff ffff ffff ffff ffff ffff ffff     ................

0800cac0 <eclic_mtip_handler>:
eclic_mtip_handler():
C:\Users\cymr9000p\Desktop\GD32\vw553\GD RISC-V MCU Debug/../src/gd32vw55x_it.c:46
    \param[in]  none
    \param[out] none
    \retval     none
*/
void eclic_mtip_handler(void)
{
 800cac0:	1101                	addi	sp,sp,-32
 800cac2:	ce06                	sw	ra,28(sp)
 800cac4:	cc22                	sw	s0,24(sp)
 800cac6:	1000                	addi	s0,sp,32
 800cac8:	479d                	li	a5,7
 800caca:	fef42623          	sw	a5,-20(s0)
__ECLIC_ClearPendingIRQ():
C:\Users\cymr9000p\Desktop\GD32\vw553\GD RISC-V MCU Debug/../Firmware/RISCV/drivers/core_feature_eclic.h:453
 * - \ref ECLIC_SetPendingIRQ
 * - \ref ECLIC_GetPendingIRQ
 */
__STATIC_FORCEINLINE void __ECLIC_ClearPendingIRQ(IRQn_Type IRQn)
{
    ECLIC->CTRL[IRQn].INTIP &= ~ CLIC_INTIP_IP_Msk;
 800cace:	d2000737          	lui	a4,0xd2000
 800cad2:	fec42783          	lw	a5,-20(s0)
 800cad6:	40078793          	addi	a5,a5,1024
 800cada:	078a                	slli	a5,a5,0x2
 800cadc:	97ba                	add	a5,a5,a4
 800cade:	0007c783          	lbu	a5,0(a5)
 800cae2:	0ff7f793          	zext.b	a5,a5
 800cae6:	d20006b7          	lui	a3,0xd2000
 800caea:	9bf9                	andi	a5,a5,-2
 800caec:	0ff7f713          	zext.b	a4,a5
 800caf0:	fec42783          	lw	a5,-20(s0)
 800caf4:	40078793          	addi	a5,a5,1024
 800caf8:	078a                	slli	a5,a5,0x2
 800cafa:	97b6                	add	a5,a5,a3
 800cafc:	00e78023          	sb	a4,0(a5)
C:\Users\cymr9000p\Desktop\GD32\vw553\GD RISC-V MCU Debug/../Firmware/RISCV/drivers/core_feature_eclic.h:454
}
 800cb00:	0001                	nop
eclic_mtip_handler():
C:\Users\cymr9000p\Desktop\GD32\vw553\GD RISC-V MCU Debug/../src/gd32vw55x_it.c:49
    ECLIC_ClearPendingIRQ(CLIC_INT_TMR);

    delay_decrement();
 800cb02:	2a2d                	jal	800cc3c <delay_decrement>
C:\Users\cymr9000p\Desktop\GD32\vw553\GD RISC-V MCU Debug/../src/gd32vw55x_it.c:50
}
 800cb04:	0001                	nop
 800cb06:	40f2                	lw	ra,28(sp)
 800cb08:	4462                	lw	s0,24(sp)
 800cb0a:	6105                	addi	sp,sp,32
 800cb0c:	8082                	ret

0800cb0e <main>:
main():
C:\Users\cymr9000p\Desktop\GD32\vw553\GD RISC-V MCU Debug/../src/main.c:45
#include "OLED.h"
#include "OLED_Data.h"
#include "img.h"

int main(void)
{
 800cb0e:	1141                	addi	sp,sp,-16
 800cb10:	c606                	sw	ra,12(sp)
 800cb12:	c422                	sw	s0,8(sp)
 800cb14:	0800                	addi	s0,sp,16
C:\Users\cymr9000p\Desktop\GD32\vw553\GD RISC-V MCU Debug/../src/main.c:47
    /* configure systick */
    systick_config();
 800cb16:	2801                	jal	800cb26 <systick_config>
C:\Users\cymr9000p\Desktop\GD32\vw553\GD RISC-V MCU Debug/../src/main.c:48
    eclic_priority_group_set(ECLIC_PRIGROUP_LEVEL3_PRIO1);
 800cb18:	450d                	li	a0,3
 800cb1a:	31a010ef          	jal	ra,800de34 <eclic_priority_group_set>
C:\Users\cymr9000p\Desktop\GD32\vw553\GD RISC-V MCU Debug/../src/main.c:49
    OLED_Init();
 800cb1e:	2eb5                	jal	800ce9a <OLED_Init>
C:\Users\cymr9000p\Desktop\GD32\vw553\GD RISC-V MCU Debug/../src/main.c:54 (discriminator 1)


    while(1) {

        gif();
 800cb20:	0a9000ef          	jal	ra,800d3c8 <gif>
 800cb24:	bff5                	j	800cb20 <main+0x12>

0800cb26 <systick_config>:
systick_config():
C:\Users\cymr9000p\Desktop\GD32\vw553\GD RISC-V MCU Debug/../src/systick.c:47
    \param[in]  none
    \param[out] none
    \retval     none
*/
void systick_config(void)
{
 800cb26:	7179                	addi	sp,sp,-48
 800cb28:	d606                	sw	ra,44(sp)
 800cb2a:	d422                	sw	s0,40(sp)
 800cb2c:	1800                	addi	s0,sp,48
 800cb2e:	4689                	li	a3,2
 800cb30:	fcd42e23          	sw	a3,-36(s0)
SysTimer_SetControlValue():
C:\Users\cymr9000p\Desktop\GD32\vw553\GD RISC-V MCU Debug/../Firmware/RISCV/drivers/core_feature_timer.h:192
 *   Clear CLKSRC bit to 0 to use *mtime_toggle_a*, otherwise use *core_clk_aon*
 * - \ref SysTimer_GetControlValue
 */
__STATIC_FORCEINLINE void SysTimer_SetControlValue(uint32_t mctl)
{
    SysTimer->MTIMECTL = (mctl & SysTimer_MTIMECTL_Msk);
 800cb34:	d1000637          	lui	a2,0xd1000
 800cb38:	6685                	lui	a3,0x1
 800cb3a:	96b2                	add	a3,a3,a2
 800cb3c:	fdc42603          	lw	a2,-36(s0)
 800cb40:	fec6ac23          	sw	a2,-8(a3) # ff8 <__stack_size+0x7f8>
C:\Users\cymr9000p\Desktop\GD32\vw553\GD RISC-V MCU Debug/../Firmware/RISCV/drivers/core_feature_timer.h:193
}
 800cb44:	0001                	nop
systick_config():
C:\Users\cymr9000p\Desktop\GD32\vw553\GD RISC-V MCU Debug/../src/systick.c:49
    SysTimer_SetControlValue(SysTimer_MTIMECTL_CMPCLREN_Msk);
    SysTimer_SetCompareValue(SystemCoreClock / 4000);
 800cb46:	17ff3697          	auipc	a3,0x17ff3
 800cb4a:	4ba68693          	addi	a3,a3,1210 # 20000000 <SystemCoreClock>
 800cb4e:	4290                	lw	a2,0(a3)
 800cb50:	6685                	lui	a3,0x1
 800cb52:	fa068693          	addi	a3,a3,-96 # fa0 <__stack_size+0x7a0>
 800cb56:	02d656b3          	divu	a3,a2,a3
 800cb5a:	8736                	mv	a4,a3
 800cb5c:	4781                	li	a5,0
 800cb5e:	fee42023          	sw	a4,-32(s0)
 800cb62:	fef42223          	sw	a5,-28(s0)
SysTimer_SetCompareValue():
C:\Users\cymr9000p\Desktop\GD32\vw553\GD RISC-V MCU Debug/../Firmware/RISCV/drivers/core_feature_timer.h:137
    SysTimer->MTIMERCMP = value;
 800cb66:	d10006b7          	lui	a3,0xd1000
 800cb6a:	fe042703          	lw	a4,-32(s0)
 800cb6e:	fe442783          	lw	a5,-28(s0)
 800cb72:	c698                	sw	a4,8(a3)
 800cb74:	c6dc                	sw	a5,12(a3)
C:\Users\cymr9000p\Desktop\GD32\vw553\GD RISC-V MCU Debug/../Firmware/RISCV/drivers/core_feature_timer.h:138
}
 800cb76:	0001                	nop
 800cb78:	479d                	li	a5,7
 800cb7a:	fef42623          	sw	a5,-20(s0)
 800cb7e:	4785                	li	a5,1
 800cb80:	fef42423          	sw	a5,-24(s0)
__ECLIC_SetTrigIRQ():
C:\Users\cymr9000p\Desktop\GD32\vw553\GD RISC-V MCU Debug/../Firmware/RISCV/drivers/core_feature_eclic.h:474
 * \sa
 * - \ref ECLIC_GetTrigIRQ
 */
__STATIC_FORCEINLINE void __ECLIC_SetTrigIRQ(IRQn_Type IRQn, uint32_t trig)
{
    ECLIC->CTRL[IRQn].INTATTR &= ~CLIC_INTATTR_TRIG_Msk;
 800cb84:	d2000737          	lui	a4,0xd2000
 800cb88:	fec42783          	lw	a5,-20(s0)
 800cb8c:	40078793          	addi	a5,a5,1024
 800cb90:	078a                	slli	a5,a5,0x2
 800cb92:	97ba                	add	a5,a5,a4
 800cb94:	0027c783          	lbu	a5,2(a5)
 800cb98:	0ff7f793          	zext.b	a5,a5
 800cb9c:	d20006b7          	lui	a3,0xd2000
 800cba0:	9be5                	andi	a5,a5,-7
 800cba2:	0ff7f713          	zext.b	a4,a5
 800cba6:	fec42783          	lw	a5,-20(s0)
 800cbaa:	40078793          	addi	a5,a5,1024
 800cbae:	078a                	slli	a5,a5,0x2
 800cbb0:	97b6                	add	a5,a5,a3
 800cbb2:	00e78123          	sb	a4,2(a5)
C:\Users\cymr9000p\Desktop\GD32\vw553\GD RISC-V MCU Debug/../Firmware/RISCV/drivers/core_feature_eclic.h:475
    ECLIC->CTRL[IRQn].INTATTR |= (uint8_t)(trig<<CLIC_INTATTR_TRIG_Pos);
 800cbb6:	d2000737          	lui	a4,0xd2000
 800cbba:	fec42783          	lw	a5,-20(s0)
 800cbbe:	40078793          	addi	a5,a5,1024
 800cbc2:	078a                	slli	a5,a5,0x2
 800cbc4:	97ba                	add	a5,a5,a4
 800cbc6:	0027c783          	lbu	a5,2(a5)
 800cbca:	0ff7f713          	zext.b	a4,a5
 800cbce:	fe842783          	lw	a5,-24(s0)
 800cbd2:	0ff7f793          	zext.b	a5,a5
 800cbd6:	0786                	slli	a5,a5,0x1
 800cbd8:	0ff7f793          	zext.b	a5,a5
 800cbdc:	d20006b7          	lui	a3,0xd2000
 800cbe0:	8fd9                	or	a5,a5,a4
 800cbe2:	0ff7f713          	zext.b	a4,a5
 800cbe6:	fec42783          	lw	a5,-20(s0)
 800cbea:	40078793          	addi	a5,a5,1024
 800cbee:	078a                	slli	a5,a5,0x2
 800cbf0:	97b6                	add	a5,a5,a3
 800cbf2:	00e78123          	sb	a4,2(a5)
C:\Users\cymr9000p\Desktop\GD32\vw553\GD RISC-V MCU Debug/../Firmware/RISCV/drivers/core_feature_eclic.h:476
}
 800cbf6:	0001                	nop
systick_config():
C:\Users\cymr9000p\Desktop\GD32\vw553\GD RISC-V MCU Debug/../src/systick.c:51
    __ECLIC_SetTrigIRQ(CLIC_INT_TMR, ECLIC_POSTIVE_EDGE_TRIGGER);
    eclic_irq_enable(CLIC_INT_TMR, 0, 0);
 800cbf8:	4601                	li	a2,0
 800cbfa:	4581                	li	a1,0
 800cbfc:	451d                	li	a0,7
 800cbfe:	2ac010ef          	jal	ra,800deaa <eclic_irq_enable>
C:\Users\cymr9000p\Desktop\GD32\vw553\GD RISC-V MCU Debug/../src/systick.c:52
}
 800cc02:	0001                	nop
 800cc04:	50b2                	lw	ra,44(sp)
 800cc06:	5422                	lw	s0,40(sp)
 800cc08:	6145                	addi	sp,sp,48
 800cc0a:	8082                	ret

0800cc0c <delay_1ms>:
delay_1ms():
C:\Users\cymr9000p\Desktop\GD32\vw553\GD RISC-V MCU Debug/../src/systick.c:61
    \param[in]  count: count in milliseconds
    \param[out] none
    \retval     none
*/
void delay_1ms(uint32_t count)
{
 800cc0c:	1101                	addi	sp,sp,-32
 800cc0e:	ce22                	sw	s0,28(sp)
 800cc10:	1000                	addi	s0,sp,32
 800cc12:	fea42623          	sw	a0,-20(s0)
C:\Users\cymr9000p\Desktop\GD32\vw553\GD RISC-V MCU Debug/../src/systick.c:62
    delay = count;
 800cc16:	17ff3797          	auipc	a5,0x17ff3
 800cc1a:	3f278793          	addi	a5,a5,1010 # 20000008 <delay>
 800cc1e:	fec42703          	lw	a4,-20(s0)
 800cc22:	c398                	sw	a4,0(a5)
C:\Users\cymr9000p\Desktop\GD32\vw553\GD RISC-V MCU Debug/../src/systick.c:63
    while(0U != delay) {
 800cc24:	0001                	nop
C:\Users\cymr9000p\Desktop\GD32\vw553\GD RISC-V MCU Debug/../src/systick.c:63 (discriminator 1)
 800cc26:	17ff3797          	auipc	a5,0x17ff3
 800cc2a:	3e278793          	addi	a5,a5,994 # 20000008 <delay>
 800cc2e:	439c                	lw	a5,0(a5)
 800cc30:	fbfd                	bnez	a5,800cc26 <delay_1ms+0x1a>
C:\Users\cymr9000p\Desktop\GD32\vw553\GD RISC-V MCU Debug/../src/systick.c:65
    }
}
 800cc32:	0001                	nop
 800cc34:	0001                	nop
 800cc36:	4472                	lw	s0,28(sp)
 800cc38:	6105                	addi	sp,sp,32
 800cc3a:	8082                	ret

0800cc3c <delay_decrement>:
delay_decrement():
C:\Users\cymr9000p\Desktop\GD32\vw553\GD RISC-V MCU Debug/../src/systick.c:74
    \param[in]  none
    \param[out] none
    \retval     none
*/
void delay_decrement(void)
{
 800cc3c:	1141                	addi	sp,sp,-16
 800cc3e:	c622                	sw	s0,12(sp)
 800cc40:	0800                	addi	s0,sp,16
C:\Users\cymr9000p\Desktop\GD32\vw553\GD RISC-V MCU Debug/../src/systick.c:75
    if(0U != delay) {
 800cc42:	17ff3797          	auipc	a5,0x17ff3
 800cc46:	3c678793          	addi	a5,a5,966 # 20000008 <delay>
 800cc4a:	439c                	lw	a5,0(a5)
 800cc4c:	cf89                	beqz	a5,800cc66 <delay_decrement+0x2a>
C:\Users\cymr9000p\Desktop\GD32\vw553\GD RISC-V MCU Debug/../src/systick.c:76
        delay--;
 800cc4e:	17ff3797          	auipc	a5,0x17ff3
 800cc52:	3ba78793          	addi	a5,a5,954 # 20000008 <delay>
 800cc56:	439c                	lw	a5,0(a5)
 800cc58:	fff78713          	addi	a4,a5,-1
 800cc5c:	17ff3797          	auipc	a5,0x17ff3
 800cc60:	3ac78793          	addi	a5,a5,940 # 20000008 <delay>
 800cc64:	c398                	sw	a4,0(a5)
C:\Users\cymr9000p\Desktop\GD32\vw553\GD RISC-V MCU Debug/../src/systick.c:78
    }
}
 800cc66:	0001                	nop
 800cc68:	4432                	lw	s0,12(sp)
 800cc6a:	0141                	addi	sp,sp,16
 800cc6c:	8082                	ret

0800cc6e <gpio_write_bit>:
gpio_write_bit():
C:\Users\cymr9000p\Desktop\GD32\vw553\GD RISC-V MCU Debug/../hardware/OLED.c:107
  */



void gpio_write_bit(uint32_t gpio_periph, uint32_t pin, uint8_t value)
{
 800cc6e:	1101                	addi	sp,sp,-32
 800cc70:	ce06                	sw	ra,28(sp)
 800cc72:	cc22                	sw	s0,24(sp)
 800cc74:	1000                	addi	s0,sp,32
 800cc76:	fea42623          	sw	a0,-20(s0)
 800cc7a:	feb42423          	sw	a1,-24(s0)
 800cc7e:	87b2                	mv	a5,a2
 800cc80:	fef403a3          	sb	a5,-25(s0)
C:\Users\cymr9000p\Desktop\GD32\vw553\GD RISC-V MCU Debug/../hardware/OLED.c:109

if (value != 0) {
 800cc84:	fe744783          	lbu	a5,-25(s0)
 800cc88:	cb81                	beqz	a5,800cc98 <gpio_write_bit+0x2a>
C:\Users\cymr9000p\Desktop\GD32\vw553\GD RISC-V MCU Debug/../hardware/OLED.c:111

gpio_bit_set(gpio_periph, pin); // 
 800cc8a:	fe842583          	lw	a1,-24(s0)
 800cc8e:	fec42503          	lw	a0,-20(s0)
 800cc92:	644010ef          	jal	ra,800e2d6 <gpio_bit_set>
C:\Users\cymr9000p\Desktop\GD32\vw553\GD RISC-V MCU Debug/../hardware/OLED.c:120
else {

gpio_bit_reset(gpio_periph, pin); // 

}
}
 800cc96:	a039                	j	800cca4 <gpio_write_bit+0x36>
C:\Users\cymr9000p\Desktop\GD32\vw553\GD RISC-V MCU Debug/../hardware/OLED.c:117
gpio_bit_reset(gpio_periph, pin); // 
 800cc98:	fe842583          	lw	a1,-24(s0)
 800cc9c:	fec42503          	lw	a0,-20(s0)
 800cca0:	65a010ef          	jal	ra,800e2fa <gpio_bit_reset>
C:\Users\cymr9000p\Desktop\GD32\vw553\GD RISC-V MCU Debug/../hardware/OLED.c:120
}
 800cca4:	0001                	nop
 800cca6:	40f2                	lw	ra,28(sp)
 800cca8:	4462                	lw	s0,24(sp)
 800ccaa:	6105                	addi	sp,sp,32
 800ccac:	8082                	ret

0800ccae <OLED_W_SCL>:
OLED_W_SCL():
C:\Users\cymr9000p\Desktop\GD32\vw553\GD RISC-V MCU Debug/../hardware/OLED.c:122
void OLED_W_SCL(uint8_t BitValue)
{
 800ccae:	1101                	addi	sp,sp,-32
 800ccb0:	ce06                	sw	ra,28(sp)
 800ccb2:	cc22                	sw	s0,24(sp)
 800ccb4:	1000                	addi	s0,sp,32
 800ccb6:	87aa                	mv	a5,a0
 800ccb8:	fef407a3          	sb	a5,-17(s0)
C:\Users\cymr9000p\Desktop\GD32\vw553\GD RISC-V MCU Debug/../hardware/OLED.c:124
/*BitValueSCL*/
gpio_write_bit(GPIOA, GPIO_PIN_2, BitValue);
 800ccbc:	fef44783          	lbu	a5,-17(s0)
 800ccc0:	863e                	mv	a2,a5
 800ccc2:	4591                	li	a1,4
 800ccc4:	40020537          	lui	a0,0x40020
 800ccc8:	375d                	jal	800cc6e <gpio_write_bit>
C:\Users\cymr9000p\Desktop\GD32\vw553\GD RISC-V MCU Debug/../hardware/OLED.c:131


/*I2C*/

//...
}
 800ccca:	0001                	nop
 800cccc:	40f2                	lw	ra,28(sp)
 800ccce:	4462                	lw	s0,24(sp)
 800ccd0:	6105                	addi	sp,sp,32
 800ccd2:	8082                	ret

0800ccd4 <OLED_W_SDA>:
OLED_W_SDA():
C:\Users\cymr9000p\Desktop\GD32\vw553\GD RISC-V MCU Debug/../hardware/OLED.c:135


void OLED_W_SDA(uint8_t BitValue)
{
 800ccd4:	1101                	addi	sp,sp,-32
 800ccd6:	ce06                	sw	ra,28(sp)
 800ccd8:	cc22                	sw	s0,24(sp)
 800ccda:	1000                	addi	s0,sp,32
 800ccdc:	87aa                	mv	a5,a0
 800ccde:	fef407a3          	sb	a5,-17(s0)
C:\Users\cymr9000p\Desktop\GD32\vw553\GD RISC-V MCU Debug/../hardware/OLED.c:137
/*BitValueSDA*/
gpio_write_bit(GPIOA, GPIO_PIN_3, BitValue);
 800cce2:	fef44783          	lbu	a5,-17(s0)
 800cce6:	863e                	mv	a2,a5
 800cce8:	45a1                	li	a1,8
 800ccea:	40020537          	lui	a0,0x40020
 800ccee:	3741                	jal	800cc6e <gpio_write_bit>
C:\Users\cymr9000p\Desktop\GD32\vw553\GD RISC-V MCU Debug/../hardware/OLED.c:142
/*I2C*/

//...

}
 800ccf0:	0001                	nop
 800ccf2:	40f2                	lw	ra,28(sp)
 800ccf4:	4462                	lw	s0,24(sp)
 800ccf6:	6105                	addi	sp,sp,32
 800ccf8:	8082                	ret

0800ccfa <OLED_GPIO_Init>:
OLED_GPIO_Init():
C:\Users\cymr9000p\Desktop\GD32\vw553\GD RISC-V MCU Debug/../hardware/OLED.c:147



void OLED_GPIO_Init(void)
{
 800ccfa:	1101                	addi	sp,sp,-32
 800ccfc:	ce06                	sw	ra,28(sp)
 800ccfe:	cc22                	sw	s0,24(sp)
 800cd00:	1000                	addi	s0,sp,32
C:\Users\cymr9000p\Desktop\GD32\vw553\GD RISC-V MCU Debug/../hardware/OLED.c:151
    uint32_t i, j;

    /* OLED */
    for (i = 0; i < 1000; i++) {
 800cd02:	fe042623          	sw	zero,-20(s0)
 800cd06:	a025                	j	800cd2e <OLED_GPIO_Init+0x34>
C:\Users\cymr9000p\Desktop\GD32\vw553\GD RISC-V MCU Debug/../hardware/OLED.c:152
        for (j = 0; j < 1000; j++);
 800cd08:	fe042423          	sw	zero,-24(s0)
 800cd0c:	a031                	j	800cd18 <OLED_GPIO_Init+0x1e>
C:\Users\cymr9000p\Desktop\GD32\vw553\GD RISC-V MCU Debug/../hardware/OLED.c:152 (discriminator 3)
 800cd0e:	fe842783          	lw	a5,-24(s0)
 800cd12:	0785                	addi	a5,a5,1
 800cd14:	fef42423          	sw	a5,-24(s0)
C:\Users\cymr9000p\Desktop\GD32\vw553\GD RISC-V MCU Debug/../hardware/OLED.c:152 (discriminator 1)
 800cd18:	fe842703          	lw	a4,-24(s0)
 800cd1c:	3e700793          	li	a5,999
 800cd20:	fee7f7e3          	bgeu	a5,a4,800cd0e <OLED_GPIO_Init+0x14>
C:\Users\cymr9000p\Desktop\GD32\vw553\GD RISC-V MCU Debug/../hardware/OLED.c:151 (discriminator 2)
    for (i = 0; i < 1000; i++) {
 800cd24:	fec42783          	lw	a5,-20(s0)
 800cd28:	0785                	addi	a5,a5,1
 800cd2a:	fef42623          	sw	a5,-20(s0)
C:\Users\cymr9000p\Desktop\GD32\vw553\GD RISC-V MCU Debug/../hardware/OLED.c:151 (discriminator 1)
 800cd2e:	fec42703          	lw	a4,-20(s0)
 800cd32:	3e700793          	li	a5,999
 800cd36:	fce7f9e3          	bgeu	a5,a4,800cd08 <OLED_GPIO_Init+0xe>
C:\Users\cymr9000p\Desktop\GD32\vw553\GD RISC-V MCU Debug/../hardware/OLED.c:156
    }

    /* SCLSDA */
    rcu_periph_clock_enable(RCU_GPIOA);
 800cd3a:	6785                	lui	a5,0x1
 800cd3c:	c0078513          	addi	a0,a5,-1024 # c00 <__stack_size+0x400>
 800cd40:	5e0010ef          	jal	ra,800e320 <rcu_periph_clock_enable>
C:\Users\cymr9000p\Desktop\GD32\vw553\GD RISC-V MCU Debug/../hardware/OLED.c:157
    gpio_mode_set(GPIOA, GPIO_MODE_OUTPUT, GPIO_PUPD_NONE, GPIO_PIN_2|GPIO_PIN_3);
 800cd44:	46b1                	li	a3,12
 800cd46:	4601                	li	a2,0
 800cd48:	4585                	li	a1,1
 800cd4a:	40020537          	lui	a0,0x40020
 800cd4e:	3d6010ef          	jal	ra,800e124 <gpio_mode_set>
C:\Users\cymr9000p\Desktop\GD32\vw553\GD RISC-V MCU Debug/../hardware/OLED.c:158
    gpio_output_options_set(GPIOA, GPIO_OTYPE_PP, GPIO_OSPEED_25MHZ, GPIO_PIN_2|GPIO_PIN_3);
 800cd52:	46b1                	li	a3,12
 800cd54:	4609                	li	a2,2
 800cd56:	4581                	li	a1,0
 800cd58:	40020537          	lui	a0,0x40020
 800cd5c:	4a4010ef          	jal	ra,800e200 <gpio_output_options_set>
C:\Users\cymr9000p\Desktop\GD32\vw553\GD RISC-V MCU Debug/../hardware/OLED.c:161

    /* SCLSDA */
    OLED_W_SCL(1);
 800cd60:	4505                	li	a0,1
 800cd62:	37b1                	jal	800ccae <OLED_W_SCL>
C:\Users\cymr9000p\Desktop\GD32\vw553\GD RISC-V MCU Debug/../hardware/OLED.c:162
    OLED_W_SDA(1);
 800cd64:	4505                	li	a0,1
 800cd66:	37bd                	jal	800ccd4 <OLED_W_SDA>
C:\Users\cymr9000p\Desktop\GD32\vw553\GD RISC-V MCU Debug/../hardware/OLED.c:163
}
 800cd68:	0001                	nop
 800cd6a:	40f2                	lw	ra,28(sp)
 800cd6c:	4462                	lw	s0,24(sp)
 800cd6e:	6105                	addi	sp,sp,32
 800cd70:	8082                	ret

0800cd72 <OLED_I2C_Start>:
OLED_I2C_Start():
C:\Users\cymr9000p\Desktop\GD32\vw553\GD RISC-V MCU Debug/../hardware/OLED.c:177
  *     I2C
  *     
  *   
  */
void OLED_I2C_Start(void)
{
 800cd72:	1141                	addi	sp,sp,-16
 800cd74:	c606                	sw	ra,12(sp)
 800cd76:	c422                	sw	s0,8(sp)
 800cd78:	0800                	addi	s0,sp,16
C:\Users\cymr9000p\Desktop\GD32\vw553\GD RISC-V MCU Debug/../hardware/OLED.c:178
	OLED_W_SDA(1);		//SDASDA
 800cd7a:	4505                	li	a0,1
 800cd7c:	3fa1                	jal	800ccd4 <OLED_W_SDA>
C:\Users\cymr9000p\Desktop\GD32\vw553\GD RISC-V MCU Debug/../hardware/OLED.c:179
	OLED_W_SCL(1);		//SCLSCL
 800cd7e:	4505                	li	a0,1
 800cd80:	373d                	jal	800ccae <OLED_W_SCL>
C:\Users\cymr9000p\Desktop\GD32\vw553\GD RISC-V MCU Debug/../hardware/OLED.c:180
	OLED_W_SDA(0);		//SCLSDA
 800cd82:	4501                	li	a0,0
 800cd84:	3f81                	jal	800ccd4 <OLED_W_SDA>
C:\Users\cymr9000p\Desktop\GD32\vw553\GD RISC-V MCU Debug/../hardware/OLED.c:181
	OLED_W_SCL(0);		//SCL
 800cd86:	4501                	li	a0,0
 800cd88:	371d                	jal	800ccae <OLED_W_SCL>
C:\Users\cymr9000p\Desktop\GD32\vw553\GD RISC-V MCU Debug/../hardware/OLED.c:182
}
 800cd8a:	0001                	nop
 800cd8c:	40b2                	lw	ra,12(sp)
 800cd8e:	4422                	lw	s0,8(sp)
 800cd90:	0141                	addi	sp,sp,16
 800cd92:	8082                	ret

0800cd94 <OLED_I2C_Stop>:
OLED_I2C_Stop():
C:\Users\cymr9000p\Desktop\GD32\vw553\GD RISC-V MCU Debug/../hardware/OLED.c:190
  *     I2C
  *     
  *   
  */
void OLED_I2C_Stop(void)
{
 800cd94:	1141                	addi	sp,sp,-16
 800cd96:	c606                	sw	ra,12(sp)
 800cd98:	c422                	sw	s0,8(sp)
 800cd9a:	0800                	addi	s0,sp,16
C:\Users\cymr9000p\Desktop\GD32\vw553\GD RISC-V MCU Debug/../hardware/OLED.c:191
	OLED_W_SDA(0);		//SDASDA
 800cd9c:	4501                	li	a0,0
 800cd9e:	3f1d                	jal	800ccd4 <OLED_W_SDA>
C:\Users\cymr9000p\Desktop\GD32\vw553\GD RISC-V MCU Debug/../hardware/OLED.c:192
	OLED_W_SCL(1);		//SCLSCL
 800cda0:	4505                	li	a0,1
 800cda2:	3731                	jal	800ccae <OLED_W_SCL>
C:\Users\cymr9000p\Desktop\GD32\vw553\GD RISC-V MCU Debug/../hardware/OLED.c:193
	OLED_W_SDA(1);		//SCLSDA
 800cda4:	4505                	li	a0,1
 800cda6:	373d                	jal	800ccd4 <OLED_W_SDA>
C:\Users\cymr9000p\Desktop\GD32\vw553\GD RISC-V MCU Debug/../hardware/OLED.c:194
}
 800cda8:	0001                	nop
 800cdaa:	40b2                	lw	ra,12(sp)
 800cdac:	4422                	lw	s0,8(sp)
 800cdae:	0141                	addi	sp,sp,16
 800cdb0:	8082                	ret

0800cdb2 <OLED_I2C_SendByte>:
OLED_I2C_SendByte():
C:\Users\cymr9000p\Desktop\GD32\vw553\GD RISC-V MCU Debug/../hardware/OLED.c:202
  *     I2C
  *     Byte 0x00~0xFF
  *   
  */
void OLED_I2C_SendByte(uint8_t Byte)
{
 800cdb2:	7179                	addi	sp,sp,-48
 800cdb4:	d606                	sw	ra,44(sp)
 800cdb6:	d422                	sw	s0,40(sp)
 800cdb8:	1800                	addi	s0,sp,48
 800cdba:	87aa                	mv	a5,a0
 800cdbc:	fcf40fa3          	sb	a5,-33(s0)
C:\Users\cymr9000p\Desktop\GD32\vw553\GD RISC-V MCU Debug/../hardware/OLED.c:206
	uint8_t i;
	
	/*8*/
	for (i = 0; i < 8; i++)
 800cdc0:	fe0407a3          	sb	zero,-17(s0)
 800cdc4:	a80d                	j	800cdf6 <OLED_I2C_SendByte+0x44>
C:\Users\cymr9000p\Desktop\GD32\vw553\GD RISC-V MCU Debug/../hardware/OLED.c:210 (discriminator 3)
	{
		/*ByteSDA*/
		/*!1*/
		OLED_W_SDA(!!(Byte & (0x80 >> i)));
 800cdc6:	fdf44703          	lbu	a4,-33(s0)
 800cdca:	fef44783          	lbu	a5,-17(s0)
 800cdce:	08000693          	li	a3,128
 800cdd2:	40f6d7b3          	sra	a5,a3,a5
 800cdd6:	8ff9                	and	a5,a5,a4
 800cdd8:	00f037b3          	snez	a5,a5
 800cddc:	0ff7f793          	zext.b	a5,a5
 800cde0:	853e                	mv	a0,a5
 800cde2:	3dcd                	jal	800ccd4 <OLED_W_SDA>
C:\Users\cymr9000p\Desktop\GD32\vw553\GD RISC-V MCU Debug/../hardware/OLED.c:211 (discriminator 3)
		OLED_W_SCL(1);	//SCLSCLSDA
 800cde4:	4505                	li	a0,1
 800cde6:	35e1                	jal	800ccae <OLED_W_SCL>
C:\Users\cymr9000p\Desktop\GD32\vw553\GD RISC-V MCU Debug/../hardware/OLED.c:212 (discriminator 3)
		OLED_W_SCL(0);	//SCL
 800cde8:	4501                	li	a0,0
 800cdea:	35d1                	jal	800ccae <OLED_W_SCL>
C:\Users\cymr9000p\Desktop\GD32\vw553\GD RISC-V MCU Debug/../hardware/OLED.c:206 (discriminator 3)
	for (i = 0; i < 8; i++)
 800cdec:	fef44783          	lbu	a5,-17(s0)
 800cdf0:	0785                	addi	a5,a5,1
 800cdf2:	fef407a3          	sb	a5,-17(s0)
C:\Users\cymr9000p\Desktop\GD32\vw553\GD RISC-V MCU Debug/../hardware/OLED.c:206 (discriminator 1)
 800cdf6:	fef44703          	lbu	a4,-17(s0)
 800cdfa:	479d                	li	a5,7
 800cdfc:	fce7f5e3          	bgeu	a5,a4,800cdc6 <OLED_I2C_SendByte+0x14>
C:\Users\cymr9000p\Desktop\GD32\vw553\GD RISC-V MCU Debug/../hardware/OLED.c:215
	}
	
	OLED_W_SCL(1);		//
 800ce00:	4505                	li	a0,1
 800ce02:	3575                	jal	800ccae <OLED_W_SCL>
C:\Users\cymr9000p\Desktop\GD32\vw553\GD RISC-V MCU Debug/../hardware/OLED.c:216
	OLED_W_SCL(0);
 800ce04:	4501                	li	a0,0
 800ce06:	3565                	jal	800ccae <OLED_W_SCL>
C:\Users\cymr9000p\Desktop\GD32\vw553\GD RISC-V MCU Debug/../hardware/OLED.c:217
}
 800ce08:	0001                	nop
 800ce0a:	50b2                	lw	ra,44(sp)
 800ce0c:	5422                	lw	s0,40(sp)
 800ce0e:	6145                	addi	sp,sp,48
 800ce10:	8082                	ret

0800ce12 <OLED_WriteCommand>:
OLED_WriteCommand():
C:\Users\cymr9000p\Desktop\GD32\vw553\GD RISC-V MCU Debug/../hardware/OLED.c:225
  *     OLED
  *     Command 0x00~0xFF
  *   
  */
void OLED_WriteCommand(uint8_t Command)
{
 800ce12:	1101                	addi	sp,sp,-32
 800ce14:	ce06                	sw	ra,28(sp)
 800ce16:	cc22                	sw	s0,24(sp)
 800ce18:	1000                	addi	s0,sp,32
 800ce1a:	87aa                	mv	a5,a0
 800ce1c:	fef407a3          	sb	a5,-17(s0)
C:\Users\cymr9000p\Desktop\GD32\vw553\GD RISC-V MCU Debug/../hardware/OLED.c:226
	OLED_I2C_Start();				//I2C
 800ce20:	3f89                	jal	800cd72 <OLED_I2C_Start>
C:\Users\cymr9000p\Desktop\GD32\vw553\GD RISC-V MCU Debug/../hardware/OLED.c:227
	OLED_I2C_SendByte(0x78);		//OLEDI2C
 800ce22:	07800513          	li	a0,120
 800ce26:	3771                	jal	800cdb2 <OLED_I2C_SendByte>
C:\Users\cymr9000p\Desktop\GD32\vw553\GD RISC-V MCU Debug/../hardware/OLED.c:228
	OLED_I2C_SendByte(0x00);		//0x00
 800ce28:	4501                	li	a0,0
 800ce2a:	3761                	jal	800cdb2 <OLED_I2C_SendByte>
C:\Users\cymr9000p\Desktop\GD32\vw553\GD RISC-V MCU Debug/../hardware/OLED.c:229
	OLED_I2C_SendByte(Command);		//
 800ce2c:	fef44783          	lbu	a5,-17(s0)
 800ce30:	853e                	mv	a0,a5
 800ce32:	3741                	jal	800cdb2 <OLED_I2C_SendByte>
C:\Users\cymr9000p\Desktop\GD32\vw553\GD RISC-V MCU Debug/../hardware/OLED.c:230
	OLED_I2C_Stop();				//I2C
 800ce34:	3785                	jal	800cd94 <OLED_I2C_Stop>
C:\Users\cymr9000p\Desktop\GD32\vw553\GD RISC-V MCU Debug/../hardware/OLED.c:231
}
 800ce36:	0001                	nop
 800ce38:	40f2                	lw	ra,28(sp)
 800ce3a:	4462                	lw	s0,24(sp)
 800ce3c:	6105                	addi	sp,sp,32
 800ce3e:	8082                	ret

0800ce40 <OLED_WriteData>:
OLED_WriteData():
C:\Users\cymr9000p\Desktop\GD32\vw553\GD RISC-V MCU Debug/../hardware/OLED.c:240
  *     Data 
  *     Count 
  *   
  */
void OLED_WriteData(uint8_t *Data, uint8_t Count)
{
 800ce40:	7179                	addi	sp,sp,-48
 800ce42:	d606                	sw	ra,44(sp)
 800ce44:	d422                	sw	s0,40(sp)
 800ce46:	1800                	addi	s0,sp,48
 800ce48:	fca42e23          	sw	a0,-36(s0)
 800ce4c:	87ae                	mv	a5,a1
 800ce4e:	fcf40da3          	sb	a5,-37(s0)
C:\Users\cymr9000p\Desktop\GD32\vw553\GD RISC-V MCU Debug/../hardware/OLED.c:243
	uint8_t i;
	
	OLED_I2C_Start();				//I2C
 800ce52:	3705                	jal	800cd72 <OLED_I2C_Start>
C:\Users\cymr9000p\Desktop\GD32\vw553\GD RISC-V MCU Debug/../hardware/OLED.c:244
	OLED_I2C_SendByte(0x78);		//OLEDI2C
 800ce54:	07800513          	li	a0,120
 800ce58:	3fa9                	jal	800cdb2 <OLED_I2C_SendByte>
C:\Users\cymr9000p\Desktop\GD32\vw553\GD RISC-V MCU Debug/../hardware/OLED.c:245
	OLED_I2C_SendByte(0x40);		//0x40
 800ce5a:	04000513          	li	a0,64
 800ce5e:	3f91                	jal	800cdb2 <OLED_I2C_SendByte>
C:\Users\cymr9000p\Desktop\GD32\vw553\GD RISC-V MCU Debug/../hardware/OLED.c:247
	/*Count*/
	for (i = 0; i < Count; i ++)
 800ce60:	fe0407a3          	sb	zero,-17(s0)
 800ce64:	a839                	j	800ce82 <OLED_WriteData+0x42>
C:\Users\cymr9000p\Desktop\GD32\vw553\GD RISC-V MCU Debug/../hardware/OLED.c:249 (discriminator 3)
	{
		OLED_I2C_SendByte(Data[i]);	//Data
 800ce66:	fef44783          	lbu	a5,-17(s0)
 800ce6a:	fdc42703          	lw	a4,-36(s0)
 800ce6e:	97ba                	add	a5,a5,a4
 800ce70:	0007c783          	lbu	a5,0(a5)
 800ce74:	853e                	mv	a0,a5
 800ce76:	3f35                	jal	800cdb2 <OLED_I2C_SendByte>
C:\Users\cymr9000p\Desktop\GD32\vw553\GD RISC-V MCU Debug/../hardware/OLED.c:247 (discriminator 3)
	for (i = 0; i < Count; i ++)
 800ce78:	fef44783          	lbu	a5,-17(s0)
 800ce7c:	0785                	addi	a5,a5,1
 800ce7e:	fef407a3          	sb	a5,-17(s0)
C:\Users\cymr9000p\Desktop\GD32\vw553\GD RISC-V MCU Debug/../hardware/OLED.c:247 (discriminator 1)
 800ce82:	fef44703          	lbu	a4,-17(s0)
 800ce86:	fdb44783          	lbu	a5,-37(s0)
 800ce8a:	fcf76ee3          	bltu	a4,a5,800ce66 <OLED_WriteData+0x26>
C:\Users\cymr9000p\Desktop\GD32\vw553\GD RISC-V MCU Debug/../hardware/OLED.c:251
	}
	OLED_I2C_Stop();				//I2C
 800ce8e:	3719                	jal	800cd94 <OLED_I2C_Stop>
C:\Users\cymr9000p\Desktop\GD32\vw553\GD RISC-V MCU Debug/../hardware/OLED.c:252
}
 800ce90:	0001                	nop
 800ce92:	50b2                	lw	ra,44(sp)
 800ce94:	5422                	lw	s0,40(sp)
 800ce96:	6145                	addi	sp,sp,48
 800ce98:	8082                	ret

0800ce9a <OLED_Init>:
OLED_Init():
C:\Users\cymr9000p\Desktop\GD32\vw553\GD RISC-V MCU Debug/../hardware/OLED.c:266
  *     
  *   
  *     
  */
void OLED_Init(void)
{
 800ce9a:	1141                	addi	sp,sp,-16
 800ce9c:	c606                	sw	ra,12(sp)
 800ce9e:	c422                	sw	s0,8(sp)
 800cea0:	0800                	addi	s0,sp,16
C:\Users\cymr9000p\Desktop\GD32\vw553\GD RISC-V MCU Debug/../hardware/OLED.c:267
	OLED_GPIO_Init();			//
 800cea2:	3da1                	jal	800ccfa <OLED_GPIO_Init>
C:\Users\cymr9000p\Desktop\GD32\vw553\GD RISC-V MCU Debug/../hardware/OLED.c:270
	
	/*OLED*/
	OLED_WriteCommand(0xAE);	///0xAE0xAF
 800cea4:	0ae00513          	li	a0,174
 800cea8:	37ad                	jal	800ce12 <OLED_WriteCommand>
C:\Users\cymr9000p\Desktop\GD32\vw553\GD RISC-V MCU Debug/../hardware/OLED.c:272
	
	OLED_WriteCommand(0xD5);	///
 800ceaa:	0d500513          	li	a0,213
 800ceae:	3795                	jal	800ce12 <OLED_WriteCommand>
C:\Users\cymr9000p\Desktop\GD32\vw553\GD RISC-V MCU Debug/../hardware/OLED.c:273
	OLED_WriteCommand(0x80);	//0x00~0xFF
 800ceb0:	08000513          	li	a0,128
 800ceb4:	3fb9                	jal	800ce12 <OLED_WriteCommand>
C:\Users\cymr9000p\Desktop\GD32\vw553\GD RISC-V MCU Debug/../hardware/OLED.c:275
	
	OLED_WriteCommand(0xA8);	//
 800ceb6:	0a800513          	li	a0,168
 800ceba:	3fa1                	jal	800ce12 <OLED_WriteCommand>
C:\Users\cymr9000p\Desktop\GD32\vw553\GD RISC-V MCU Debug/../hardware/OLED.c:276
	OLED_WriteCommand(0x3F);	//0x0E~0x3F
 800cebc:	03f00513          	li	a0,63
 800cec0:	3f89                	jal	800ce12 <OLED_WriteCommand>
C:\Users\cymr9000p\Desktop\GD32\vw553\GD RISC-V MCU Debug/../hardware/OLED.c:278
	
	OLED_WriteCommand(0xD3);	//
 800cec2:	0d300513          	li	a0,211
 800cec6:	37b1                	jal	800ce12 <OLED_WriteCommand>
C:\Users\cymr9000p\Desktop\GD32\vw553\GD RISC-V MCU Debug/../hardware/OLED.c:279
	OLED_WriteCommand(0x00);	//0x00~0x7F
 800cec8:	4501                	li	a0,0
 800ceca:	37a1                	jal	800ce12 <OLED_WriteCommand>
C:\Users\cymr9000p\Desktop\GD32\vw553\GD RISC-V MCU Debug/../hardware/OLED.c:281
	
	OLED_WriteCommand(0x40);	//0x40~0x7F
 800cecc:	04000513          	li	a0,64
 800ced0:	3789                	jal	800ce12 <OLED_WriteCommand>
C:\Users\cymr9000p\Desktop\GD32\vw553\GD RISC-V MCU Debug/../hardware/OLED.c:283
	
	OLED_WriteCommand(0xA1);	//0xA10xA0
 800ced2:	0a100513          	li	a0,161
 800ced6:	3f35                	jal	800ce12 <OLED_WriteCommand>
C:\Users\cymr9000p\Desktop\GD32\vw553\GD RISC-V MCU Debug/../hardware/OLED.c:285
	
	OLED_WriteCommand(0xC8);	//0xC80xC0
 800ced8:	0c800513          	li	a0,200
 800cedc:	3f1d                	jal	800ce12 <OLED_WriteCommand>
C:\Users\cymr9000p\Desktop\GD32\vw553\GD RISC-V MCU Debug/../hardware/OLED.c:287

	OLED_WriteCommand(0xDA);	//COM
 800cede:	0da00513          	li	a0,218
 800cee2:	3f05                	jal	800ce12 <OLED_WriteCommand>
C:\Users\cymr9000p\Desktop\GD32\vw553\GD RISC-V MCU Debug/../hardware/OLED.c:288
	OLED_WriteCommand(0x12);
 800cee4:	4549                	li	a0,18
 800cee6:	3735                	jal	800ce12 <OLED_WriteCommand>
C:\Users\cymr9000p\Desktop\GD32\vw553\GD RISC-V MCU Debug/../hardware/OLED.c:290
	
	OLED_WriteCommand(0x81);	//
 800cee8:	08100513          	li	a0,129
 800ceec:	371d                	jal	800ce12 <OLED_WriteCommand>
C:\Users\cymr9000p\Desktop\GD32\vw553\GD RISC-V MCU Debug/../hardware/OLED.c:291
	OLED_WriteCommand(0xCF);	//0x00~0xFF
 800ceee:	0cf00513          	li	a0,207
 800cef2:	3705                	jal	800ce12 <OLED_WriteCommand>
C:\Users\cymr9000p\Desktop\GD32\vw553\GD RISC-V MCU Debug/../hardware/OLED.c:293

	OLED_WriteCommand(0xD9);	//
 800cef4:	0d900513          	li	a0,217
 800cef8:	3f29                	jal	800ce12 <OLED_WriteCommand>
C:\Users\cymr9000p\Desktop\GD32\vw553\GD RISC-V MCU Debug/../hardware/OLED.c:294
	OLED_WriteCommand(0xF1);
 800cefa:	0f100513          	li	a0,241
 800cefe:	3f11                	jal	800ce12 <OLED_WriteCommand>
C:\Users\cymr9000p\Desktop\GD32\vw553\GD RISC-V MCU Debug/../hardware/OLED.c:296

	OLED_WriteCommand(0xDB);	//VCOMH
 800cf00:	0db00513          	li	a0,219
 800cf04:	3739                	jal	800ce12 <OLED_WriteCommand>
C:\Users\cymr9000p\Desktop\GD32\vw553\GD RISC-V MCU Debug/../hardware/OLED.c:297
	OLED_WriteCommand(0x30);
 800cf06:	03000513          	li	a0,48
 800cf0a:	3721                	jal	800ce12 <OLED_WriteCommand>
C:\Users\cymr9000p\Desktop\GD32\vw553\GD RISC-V MCU Debug/../hardware/OLED.c:299

	OLED_WriteCommand(0xA4);	///
 800cf0c:	0a400513          	li	a0,164
 800cf10:	3709                	jal	800ce12 <OLED_WriteCommand>
C:\Users\cymr9000p\Desktop\GD32\vw553\GD RISC-V MCU Debug/../hardware/OLED.c:301

	OLED_WriteCommand(0xA6);	///0xA60xA7
 800cf12:	0a600513          	li	a0,166
 800cf16:	3df5                	jal	800ce12 <OLED_WriteCommand>
C:\Users\cymr9000p\Desktop\GD32\vw553\GD RISC-V MCU Debug/../hardware/OLED.c:303

	OLED_WriteCommand(0x8D);	//
 800cf18:	08d00513          	li	a0,141
 800cf1c:	3ddd                	jal	800ce12 <OLED_WriteCommand>
C:\Users\cymr9000p\Desktop\GD32\vw553\GD RISC-V MCU Debug/../hardware/OLED.c:304
	OLED_WriteCommand(0x14);
 800cf1e:	4551                	li	a0,20
 800cf20:	3dcd                	jal	800ce12 <OLED_WriteCommand>
C:\Users\cymr9000p\Desktop\GD32\vw553\GD RISC-V MCU Debug/../hardware/OLED.c:306

	OLED_WriteCommand(0xAF);	//
 800cf22:	0af00513          	li	a0,175
 800cf26:	35f5                	jal	800ce12 <OLED_WriteCommand>
C:\Users\cymr9000p\Desktop\GD32\vw553\GD RISC-V MCU Debug/../hardware/OLED.c:308
	
	OLED_Clear();				//
 800cf28:	2855                	jal	800cfdc <OLED_Clear>
C:\Users\cymr9000p\Desktop\GD32\vw553\GD RISC-V MCU Debug/../hardware/OLED.c:309
	OLED_Update();				//
 800cf2a:	2085                	jal	800cf8a <OLED_Update>
C:\Users\cymr9000p\Desktop\GD32\vw553\GD RISC-V MCU Debug/../hardware/OLED.c:310
}
 800cf2c:	0001                	nop
 800cf2e:	40b2                	lw	ra,12(sp)
 800cf30:	4422                	lw	s0,8(sp)
 800cf32:	0141                	addi	sp,sp,16
 800cf34:	8082                	ret

0800cf36 <OLED_SetCursor>:
OLED_SetCursor():
C:\Users\cymr9000p\Desktop\GD32\vw553\GD RISC-V MCU Debug/../hardware/OLED.c:320
  *     X X0~127
  *   
  *     OLEDY8Bit18Y
  */
void OLED_SetCursor(uint8_t Page, uint8_t X)
{
 800cf36:	1101                	addi	sp,sp,-32
 800cf38:	ce06                	sw	ra,28(sp)
 800cf3a:	cc22                	sw	s0,24(sp)
 800cf3c:	1000                	addi	s0,sp,32
 800cf3e:	87aa                	mv	a5,a0
 800cf40:	872e                	mv	a4,a1
 800cf42:	fef407a3          	sb	a5,-17(s0)
 800cf46:	87ba                	mv	a5,a4
 800cf48:	fef40723          	sb	a5,-18(s0)
C:\Users\cymr9000p\Desktop\GD32\vw553\GD RISC-V MCU Debug/../hardware/OLED.c:328
	/*20*/
	/*X2*/
//	X += 2;
	
	/**/
	OLED_WriteCommand(0xB0 | Page);					//
 800cf4c:	fef44783          	lbu	a5,-17(s0)
 800cf50:	fb07e793          	ori	a5,a5,-80
 800cf54:	0ff7f793          	zext.b	a5,a5
 800cf58:	853e                	mv	a0,a5
 800cf5a:	3d65                	jal	800ce12 <OLED_WriteCommand>
C:\Users\cymr9000p\Desktop\GD32\vw553\GD RISC-V MCU Debug/../hardware/OLED.c:329
	OLED_WriteCommand(0x10 | ((X & 0xF0) >> 4));	//X4
 800cf5c:	fee44783          	lbu	a5,-18(s0)
 800cf60:	8391                	srli	a5,a5,0x4
 800cf62:	0ff7f793          	zext.b	a5,a5
 800cf66:	0107e793          	ori	a5,a5,16
 800cf6a:	0ff7f793          	zext.b	a5,a5
 800cf6e:	853e                	mv	a0,a5
 800cf70:	354d                	jal	800ce12 <OLED_WriteCommand>
C:\Users\cymr9000p\Desktop\GD32\vw553\GD RISC-V MCU Debug/../hardware/OLED.c:330
	OLED_WriteCommand(0x00 | (X & 0x0F));			//X4
 800cf72:	fee44783          	lbu	a5,-18(s0)
 800cf76:	8bbd                	andi	a5,a5,15
 800cf78:	0ff7f793          	zext.b	a5,a5
 800cf7c:	853e                	mv	a0,a5
 800cf7e:	3d51                	jal	800ce12 <OLED_WriteCommand>
C:\Users\cymr9000p\Desktop\GD32\vw553\GD RISC-V MCU Debug/../hardware/OLED.c:331
}
 800cf80:	0001                	nop
 800cf82:	40f2                	lw	ra,28(sp)
 800cf84:	4462                	lw	s0,24(sp)
 800cf86:	6105                	addi	sp,sp,32
 800cf88:	8082                	ret

0800cf8a <OLED_Update>:
OLED_Update():
C:\Users\cymr9000p\Desktop\GD32\vw553\GD RISC-V MCU Debug/../hardware/OLED.c:425
  *           OLED_UpdateOLED_UpdateArea
  *           OLED
  *           
  */
void OLED_Update(void)
{
 800cf8a:	1101                	addi	sp,sp,-32
 800cf8c:	ce06                	sw	ra,28(sp)
 800cf8e:	cc22                	sw	s0,24(sp)
 800cf90:	1000                	addi	s0,sp,32
C:\Users\cymr9000p\Desktop\GD32\vw553\GD RISC-V MCU Debug/../hardware/OLED.c:428
	uint8_t j;
	/**/
	for (j = 0; j < 8; j ++)
 800cf92:	fe0407a3          	sb	zero,-17(s0)
 800cf96:	a805                	j	800cfc6 <OLED_Update+0x3c>
C:\Users\cymr9000p\Desktop\GD32\vw553\GD RISC-V MCU Debug/../hardware/OLED.c:431 (discriminator 3)
	{
		/**/
		OLED_SetCursor(j, 0);
 800cf98:	fef44783          	lbu	a5,-17(s0)
 800cf9c:	4581                	li	a1,0
 800cf9e:	853e                	mv	a0,a5
 800cfa0:	3f59                	jal	800cf36 <OLED_SetCursor>
C:\Users\cymr9000p\Desktop\GD32\vw553\GD RISC-V MCU Debug/../hardware/OLED.c:433 (discriminator 3)
		/*128OLED*/
		OLED_WriteData(OLED_DisplayBuf[j], 128);
 800cfa2:	fef44783          	lbu	a5,-17(s0)
 800cfa6:	00779713          	slli	a4,a5,0x7
 800cfaa:	17ff3797          	auipc	a5,0x17ff3
 800cfae:	06678793          	addi	a5,a5,102 # 20000010 <OLED_DisplayBuf>
 800cfb2:	97ba                	add	a5,a5,a4
 800cfb4:	08000593          	li	a1,128
 800cfb8:	853e                	mv	a0,a5
 800cfba:	3559                	jal	800ce40 <OLED_WriteData>
C:\Users\cymr9000p\Desktop\GD32\vw553\GD RISC-V MCU Debug/../hardware/OLED.c:428 (discriminator 3)
	for (j = 0; j < 8; j ++)
 800cfbc:	fef44783          	lbu	a5,-17(s0)
 800cfc0:	0785                	addi	a5,a5,1
 800cfc2:	fef407a3          	sb	a5,-17(s0)
C:\Users\cymr9000p\Desktop\GD32\vw553\GD RISC-V MCU Debug/../hardware/OLED.c:428 (discriminator 1)
 800cfc6:	fef44703          	lbu	a4,-17(s0)
 800cfca:	479d                	li	a5,7
 800cfcc:	fce7f6e3          	bgeu	a5,a4,800cf98 <OLED_Update+0xe>
C:\Users\cymr9000p\Desktop\GD32\vw553\GD RISC-V MCU Debug/../hardware/OLED.c:435
	}
}
 800cfd0:	0001                	nop
 800cfd2:	0001                	nop
 800cfd4:	40f2                	lw	ra,28(sp)
 800cfd6:	4462                	lw	s0,24(sp)
 800cfd8:	6105                	addi	sp,sp,32
 800cfda:	8082                	ret

0800cfdc <OLED_Clear>:
OLED_Clear():
C:\Users\cymr9000p\Desktop\GD32\vw553\GD RISC-V MCU Debug/../hardware/OLED.c:486
  *     
  *   
  *     
  */
void OLED_Clear(void)
{
 800cfdc:	1101                	addi	sp,sp,-32
 800cfde:	ce22                	sw	s0,28(sp)
 800cfe0:	1000                	addi	s0,sp,32
C:\Users\cymr9000p\Desktop\GD32\vw553\GD RISC-V MCU Debug/../hardware/OLED.c:488
	uint8_t i, j;
	for (j = 0; j < 8; j ++)				//8
 800cfe2:	fe040723          	sb	zero,-18(s0)
 800cfe6:	a83d                	j	800d024 <OLED_Clear+0x48>
C:\Users\cymr9000p\Desktop\GD32\vw553\GD RISC-V MCU Debug/../hardware/OLED.c:490
	{
		for (i = 0; i < 128; i ++)			//128
 800cfe8:	fe0407a3          	sb	zero,-17(s0)
 800cfec:	a01d                	j	800d012 <OLED_Clear+0x36>
C:\Users\cymr9000p\Desktop\GD32\vw553\GD RISC-V MCU Debug/../hardware/OLED.c:492 (discriminator 3)
		{
			OLED_DisplayBuf[j][i] = 0x00;	//
 800cfee:	fee44703          	lbu	a4,-18(s0)
 800cff2:	fef44783          	lbu	a5,-17(s0)
 800cff6:	17ff3697          	auipc	a3,0x17ff3
 800cffa:	01a68693          	addi	a3,a3,26 # 20000010 <OLED_DisplayBuf>
 800cffe:	071e                	slli	a4,a4,0x7
 800d000:	9736                	add	a4,a4,a3
 800d002:	97ba                	add	a5,a5,a4
 800d004:	00078023          	sb	zero,0(a5)
C:\Users\cymr9000p\Desktop\GD32\vw553\GD RISC-V MCU Debug/../hardware/OLED.c:490 (discriminator 3)
		for (i = 0; i < 128; i ++)			//128
 800d008:	fef44783          	lbu	a5,-17(s0)
 800d00c:	0785                	addi	a5,a5,1
 800d00e:	fef407a3          	sb	a5,-17(s0)
C:\Users\cymr9000p\Desktop\GD32\vw553\GD RISC-V MCU Debug/../hardware/OLED.c:490 (discriminator 1)
 800d012:	fef40783          	lb	a5,-17(s0)
 800d016:	fc07dce3          	bgez	a5,800cfee <OLED_Clear+0x12>
C:\Users\cymr9000p\Desktop\GD32\vw553\GD RISC-V MCU Debug/../hardware/OLED.c:488 (discriminator 2)
	for (j = 0; j < 8; j ++)				//8
 800d01a:	fee44783          	lbu	a5,-18(s0)
 800d01e:	0785                	addi	a5,a5,1
 800d020:	fef40723          	sb	a5,-18(s0)
C:\Users\cymr9000p\Desktop\GD32\vw553\GD RISC-V MCU Debug/../hardware/OLED.c:488 (discriminator 1)
 800d024:	fee44703          	lbu	a4,-18(s0)
 800d028:	479d                	li	a5,7
 800d02a:	fae7ffe3          	bgeu	a5,a4,800cfe8 <OLED_Clear+0xc>
C:\Users\cymr9000p\Desktop\GD32\vw553\GD RISC-V MCU Debug/../hardware/OLED.c:495
		}
	}
}
 800d02e:	0001                	nop
 800d030:	0001                	nop
 800d032:	4472                	lw	s0,28(sp)
 800d034:	6105                	addi	sp,sp,32
 800d036:	8082                	ret

0800d038 <OLED_ClearArea>:
OLED_ClearArea():
C:\Users\cymr9000p\Desktop\GD32\vw553\GD RISC-V MCU Debug/../hardware/OLED.c:507
  *     Height 0~64
  *   
  *     
  */
void OLED_ClearArea(int16_t X, int16_t Y, uint8_t Width, uint8_t Height)
{
 800d038:	7179                	addi	sp,sp,-48
 800d03a:	d622                	sw	s0,44(sp)
 800d03c:	1800                	addi	s0,sp,48
 800d03e:	87aa                	mv	a5,a0
 800d040:	8736                	mv	a4,a3
 800d042:	fcf41f23          	sh	a5,-34(s0)
 800d046:	87ae                	mv	a5,a1
 800d048:	fcf41e23          	sh	a5,-36(s0)
 800d04c:	87b2                	mv	a5,a2
 800d04e:	fcf40da3          	sb	a5,-37(s0)
 800d052:	87ba                	mv	a5,a4
 800d054:	fcf40d23          	sb	a5,-38(s0)
C:\Users\cymr9000p\Desktop\GD32\vw553\GD RISC-V MCU Debug/../hardware/OLED.c:510
	int16_t i, j;
	
	for (j = Y; j < Y + Height; j ++)		//
 800d058:	fdc45783          	lhu	a5,-36(s0)
 800d05c:	fef41623          	sh	a5,-20(s0)
 800d060:	a0ed                	j	800d14a <OLED_ClearArea+0x112>
C:\Users\cymr9000p\Desktop\GD32\vw553\GD RISC-V MCU Debug/../hardware/OLED.c:512
	{
		for (i = X; i < X + Width; i ++)	//
 800d062:	fde45783          	lhu	a5,-34(s0)
 800d066:	fef41723          	sh	a5,-18(s0)
 800d06a:	a875                	j	800d126 <OLED_ClearArea+0xee>
C:\Users\cymr9000p\Desktop\GD32\vw553\GD RISC-V MCU Debug/../hardware/OLED.c:514
		{
			if (i >= 0 && i <= 127 && j >=0 && j <= 63)				//
 800d06c:	fee41783          	lh	a5,-18(s0)
 800d070:	0a07c263          	bltz	a5,800d114 <OLED_ClearArea+0xdc>
C:\Users\cymr9000p\Desktop\GD32\vw553\GD RISC-V MCU Debug/../hardware/OLED.c:514 (discriminator 1)
 800d074:	fee41703          	lh	a4,-18(s0)
 800d078:	07f00793          	li	a5,127
 800d07c:	08e7cc63          	blt	a5,a4,800d114 <OLED_ClearArea+0xdc>
C:\Users\cymr9000p\Desktop\GD32\vw553\GD RISC-V MCU Debug/../hardware/OLED.c:514 (discriminator 2)
 800d080:	fec41783          	lh	a5,-20(s0)
 800d084:	0807c863          	bltz	a5,800d114 <OLED_ClearArea+0xdc>
C:\Users\cymr9000p\Desktop\GD32\vw553\GD RISC-V MCU Debug/../hardware/OLED.c:514 (discriminator 3)
 800d088:	fec41703          	lh	a4,-20(s0)
 800d08c:	03f00793          	li	a5,63
 800d090:	08e7c263          	blt	a5,a4,800d114 <OLED_ClearArea+0xdc>
C:\Users\cymr9000p\Desktop\GD32\vw553\GD RISC-V MCU Debug/../hardware/OLED.c:516
			{
				OLED_DisplayBuf[j / 8][i] &= ~(0x01 << (j % 8));	//
 800d094:	fec41783          	lh	a5,-20(s0)
 800d098:	41f7d713          	srai	a4,a5,0x1f
 800d09c:	8b1d                	andi	a4,a4,7
 800d09e:	97ba                	add	a5,a5,a4
 800d0a0:	878d                	srai	a5,a5,0x3
 800d0a2:	01079613          	slli	a2,a5,0x10
 800d0a6:	8641                	srai	a2,a2,0x10
 800d0a8:	8732                	mv	a4,a2
 800d0aa:	fee41783          	lh	a5,-18(s0)
 800d0ae:	17ff3697          	auipc	a3,0x17ff3
 800d0b2:	f6268693          	addi	a3,a3,-158 # 20000010 <OLED_DisplayBuf>
 800d0b6:	071e                	slli	a4,a4,0x7
 800d0b8:	9736                	add	a4,a4,a3
 800d0ba:	97ba                	add	a5,a5,a4
 800d0bc:	0007c783          	lbu	a5,0(a5)
 800d0c0:	01879693          	slli	a3,a5,0x18
 800d0c4:	86e1                	srai	a3,a3,0x18
 800d0c6:	fec41703          	lh	a4,-20(s0)
 800d0ca:	41f75793          	srai	a5,a4,0x1f
 800d0ce:	83f5                	srli	a5,a5,0x1d
 800d0d0:	973e                	add	a4,a4,a5
 800d0d2:	8b1d                	andi	a4,a4,7
 800d0d4:	40f707b3          	sub	a5,a4,a5
 800d0d8:	07c2                	slli	a5,a5,0x10
 800d0da:	87c1                	srai	a5,a5,0x10
 800d0dc:	873e                	mv	a4,a5
 800d0de:	4785                	li	a5,1
 800d0e0:	00e797b3          	sll	a5,a5,a4
 800d0e4:	07e2                	slli	a5,a5,0x18
 800d0e6:	87e1                	srai	a5,a5,0x18
 800d0e8:	fff7c793          	not	a5,a5
 800d0ec:	07e2                	slli	a5,a5,0x18
 800d0ee:	87e1                	srai	a5,a5,0x18
 800d0f0:	8ff5                	and	a5,a5,a3
 800d0f2:	01879713          	slli	a4,a5,0x18
 800d0f6:	8761                	srai	a4,a4,0x18
 800d0f8:	86b2                	mv	a3,a2
 800d0fa:	fee41783          	lh	a5,-18(s0)
 800d0fe:	0ff77713          	zext.b	a4,a4
 800d102:	17ff3617          	auipc	a2,0x17ff3
 800d106:	f0e60613          	addi	a2,a2,-242 # 20000010 <OLED_DisplayBuf>
 800d10a:	069e                	slli	a3,a3,0x7
 800d10c:	96b2                	add	a3,a3,a2
 800d10e:	97b6                	add	a5,a5,a3
 800d110:	00e78023          	sb	a4,0(a5)
C:\Users\cymr9000p\Desktop\GD32\vw553\GD RISC-V MCU Debug/../hardware/OLED.c:512 (discriminator 2)
		for (i = X; i < X + Width; i ++)	//
 800d114:	fee41783          	lh	a5,-18(s0)
 800d118:	07c2                	slli	a5,a5,0x10
 800d11a:	83c1                	srli	a5,a5,0x10
 800d11c:	0785                	addi	a5,a5,1
 800d11e:	07c2                	slli	a5,a5,0x10
 800d120:	83c1                	srli	a5,a5,0x10
 800d122:	fef41723          	sh	a5,-18(s0)
C:\Users\cymr9000p\Desktop\GD32\vw553\GD RISC-V MCU Debug/../hardware/OLED.c:512 (discriminator 1)
 800d126:	fee41703          	lh	a4,-18(s0)
 800d12a:	fde41683          	lh	a3,-34(s0)
 800d12e:	fdb44783          	lbu	a5,-37(s0)
 800d132:	97b6                	add	a5,a5,a3
 800d134:	f2f74ce3          	blt	a4,a5,800d06c <OLED_ClearArea+0x34>
C:\Users\cymr9000p\Desktop\GD32\vw553\GD RISC-V MCU Debug/../hardware/OLED.c:510 (discriminator 2)
	for (j = Y; j < Y + Height; j ++)		//
 800d138:	fec41783          	lh	a5,-20(s0)
 800d13c:	07c2                	slli	a5,a5,0x10
 800d13e:	83c1                	srli	a5,a5,0x10
 800d140:	0785                	addi	a5,a5,1
 800d142:	07c2                	slli	a5,a5,0x10
 800d144:	83c1                	srli	a5,a5,0x10
 800d146:	fef41623          	sh	a5,-20(s0)
C:\Users\cymr9000p\Desktop\GD32\vw553\GD RISC-V MCU Debug/../hardware/OLED.c:510 (discriminator 1)
 800d14a:	fec41703          	lh	a4,-20(s0)
 800d14e:	fdc41683          	lh	a3,-36(s0)
 800d152:	fda44783          	lbu	a5,-38(s0)
 800d156:	97b6                	add	a5,a5,a3
 800d158:	f0f745e3          	blt	a4,a5,800d062 <OLED_ClearArea+0x2a>
C:\Users\cymr9000p\Desktop\GD32\vw553\GD RISC-V MCU Debug/../hardware/OLED.c:520
			}
		}
	}
}
 800d15c:	0001                	nop
 800d15e:	0001                	nop
 800d160:	5432                	lw	s0,44(sp)
 800d162:	6145                	addi	sp,sp,48
 800d164:	8082                	ret

0800d166 <OLED_ShowImage>:
OLED_ShowImage():
C:\Users\cymr9000p\Desktop\GD32\vw553\GD RISC-V MCU Debug/../hardware/OLED.c:879
  *     Image 
  *   
  *     
  */
void OLED_ShowImage(int16_t X, int16_t Y, uint8_t Width, uint8_t Height, const uint8_t *Image)
{
 800d166:	7179                	addi	sp,sp,-48
 800d168:	d606                	sw	ra,44(sp)
 800d16a:	d422                	sw	s0,40(sp)
 800d16c:	1800                	addi	s0,sp,48
 800d16e:	87aa                	mv	a5,a0
 800d170:	fce42a23          	sw	a4,-44(s0)
 800d174:	fcf41f23          	sh	a5,-34(s0)
 800d178:	87ae                	mv	a5,a1
 800d17a:	fcf41e23          	sh	a5,-36(s0)
 800d17e:	87b2                	mv	a5,a2
 800d180:	fcf40da3          	sb	a5,-37(s0)
 800d184:	87b6                	mv	a5,a3
 800d186:	fcf40d23          	sb	a5,-38(s0)
C:\Users\cymr9000p\Desktop\GD32\vw553\GD RISC-V MCU Debug/../hardware/OLED.c:880
	uint8_t i = 0, j = 0;
 800d18a:	fe0407a3          	sb	zero,-17(s0)
 800d18e:	fe040723          	sb	zero,-18(s0)
C:\Users\cymr9000p\Desktop\GD32\vw553\GD RISC-V MCU Debug/../hardware/OLED.c:884
	int16_t Page, Shift;
	
	/**/
	OLED_ClearArea(X, Y, Width, Height);
 800d192:	fda44683          	lbu	a3,-38(s0)
 800d196:	fdb44603          	lbu	a2,-37(s0)
 800d19a:	fdc41703          	lh	a4,-36(s0)
 800d19e:	fde41783          	lh	a5,-34(s0)
 800d1a2:	85ba                	mv	a1,a4
 800d1a4:	853e                	mv	a0,a5
 800d1a6:	3d49                	jal	800d038 <OLED_ClearArea>
C:\Users\cymr9000p\Desktop\GD32\vw553\GD RISC-V MCU Debug/../hardware/OLED.c:888
	
	/**/
	/*(Height - 1) / 8 + 1Height / 8*/
	for (j = 0; j < (Height - 1) / 8 + 1; j ++)
 800d1a8:	fe040723          	sb	zero,-18(s0)
 800d1ac:	aadd                	j	800d3a2 <OLED_ShowImage+0x23c>
C:\Users\cymr9000p\Desktop\GD32\vw553\GD RISC-V MCU Debug/../hardware/OLED.c:891
	{
		/**/
		for (i = 0; i < Width; i ++)
 800d1ae:	fe0407a3          	sb	zero,-17(s0)
 800d1b2:	aae9                	j	800d38c <OLED_ShowImage+0x226>
C:\Users\cymr9000p\Desktop\GD32\vw553\GD RISC-V MCU Debug/../hardware/OLED.c:893
		{
			if (X + i >= 0 && X + i <= 127)		//
 800d1b4:	fde41703          	lh	a4,-34(s0)
 800d1b8:	fef44783          	lbu	a5,-17(s0)
 800d1bc:	97ba                	add	a5,a5,a4
 800d1be:	1c07c263          	bltz	a5,800d382 <OLED_ShowImage+0x21c>
C:\Users\cymr9000p\Desktop\GD32\vw553\GD RISC-V MCU Debug/../hardware/OLED.c:893 (discriminator 1)
 800d1c2:	fde41703          	lh	a4,-34(s0)
 800d1c6:	fef44783          	lbu	a5,-17(s0)
 800d1ca:	973e                	add	a4,a4,a5
 800d1cc:	07f00793          	li	a5,127
 800d1d0:	1ae7c963          	blt	a5,a4,800d382 <OLED_ShowImage+0x21c>
C:\Users\cymr9000p\Desktop\GD32\vw553\GD RISC-V MCU Debug/../hardware/OLED.c:896
			{
				/**/
				Page = Y / 8;
 800d1d4:	fdc41783          	lh	a5,-36(s0)
 800d1d8:	41f7d713          	srai	a4,a5,0x1f
 800d1dc:	8b1d                	andi	a4,a4,7
 800d1de:	97ba                	add	a5,a5,a4
 800d1e0:	878d                	srai	a5,a5,0x3
 800d1e2:	fef41623          	sh	a5,-20(s0)
C:\Users\cymr9000p\Desktop\GD32\vw553\GD RISC-V MCU Debug/../hardware/OLED.c:897
				Shift = Y % 8;
 800d1e6:	fdc41703          	lh	a4,-36(s0)
 800d1ea:	41f75793          	srai	a5,a4,0x1f
 800d1ee:	83f5                	srli	a5,a5,0x1d
 800d1f0:	973e                	add	a4,a4,a5
 800d1f2:	8b1d                	andi	a4,a4,7
 800d1f4:	40f707b3          	sub	a5,a4,a5
 800d1f8:	fef41523          	sh	a5,-22(s0)
C:\Users\cymr9000p\Desktop\GD32\vw553\GD RISC-V MCU Debug/../hardware/OLED.c:898
				if (Y < 0)
 800d1fc:	fdc41783          	lh	a5,-36(s0)
 800d200:	0207d063          	bgez	a5,800d220 <OLED_ShowImage+0xba>
C:\Users\cymr9000p\Desktop\GD32\vw553\GD RISC-V MCU Debug/../hardware/OLED.c:900
				{
					Page -= 1;
 800d204:	fec45783          	lhu	a5,-20(s0)
 800d208:	17fd                	addi	a5,a5,-1
 800d20a:	07c2                	slli	a5,a5,0x10
 800d20c:	83c1                	srli	a5,a5,0x10
 800d20e:	fef41623          	sh	a5,-20(s0)
C:\Users\cymr9000p\Desktop\GD32\vw553\GD RISC-V MCU Debug/../hardware/OLED.c:901
					Shift += 8;
 800d212:	fea45783          	lhu	a5,-22(s0)
 800d216:	07a1                	addi	a5,a5,8
 800d218:	07c2                	slli	a5,a5,0x10
 800d21a:	83c1                	srli	a5,a5,0x10
 800d21c:	fef41523          	sh	a5,-22(s0)
C:\Users\cymr9000p\Desktop\GD32\vw553\GD RISC-V MCU Debug/../hardware/OLED.c:904
				}
				
				if (Page + j >= 0 && Page + j <= 7)		//
 800d220:	fec41703          	lh	a4,-20(s0)
 800d224:	fee44783          	lbu	a5,-18(s0)
 800d228:	97ba                	add	a5,a5,a4
 800d22a:	0a07c063          	bltz	a5,800d2ca <OLED_ShowImage+0x164>
C:\Users\cymr9000p\Desktop\GD32\vw553\GD RISC-V MCU Debug/../hardware/OLED.c:904 (discriminator 1)
 800d22e:	fec41703          	lh	a4,-20(s0)
 800d232:	fee44783          	lbu	a5,-18(s0)
 800d236:	973e                	add	a4,a4,a5
 800d238:	479d                	li	a5,7
 800d23a:	08e7c863          	blt	a5,a4,800d2ca <OLED_ShowImage+0x164>
C:\Users\cymr9000p\Desktop\GD32\vw553\GD RISC-V MCU Debug/../hardware/OLED.c:907
				{
					/**/
					OLED_DisplayBuf[Page + j][X + i] |= Image[j * Width + i] << (Shift);
 800d23e:	fec41703          	lh	a4,-20(s0)
 800d242:	fee44783          	lbu	a5,-18(s0)
 800d246:	973e                	add	a4,a4,a5
 800d248:	fde41683          	lh	a3,-34(s0)
 800d24c:	fef44783          	lbu	a5,-17(s0)
 800d250:	97b6                	add	a5,a5,a3
 800d252:	17ff3697          	auipc	a3,0x17ff3
 800d256:	dbe68693          	addi	a3,a3,-578 # 20000010 <OLED_DisplayBuf>
 800d25a:	071e                	slli	a4,a4,0x7
 800d25c:	9736                	add	a4,a4,a3
 800d25e:	97ba                	add	a5,a5,a4
 800d260:	0007c783          	lbu	a5,0(a5)
 800d264:	01879713          	slli	a4,a5,0x18
 800d268:	8761                	srai	a4,a4,0x18
 800d26a:	fee44683          	lbu	a3,-18(s0)
 800d26e:	fdb44783          	lbu	a5,-37(s0)
 800d272:	02f686b3          	mul	a3,a3,a5
 800d276:	fef44783          	lbu	a5,-17(s0)
 800d27a:	97b6                	add	a5,a5,a3
 800d27c:	86be                	mv	a3,a5
 800d27e:	fd442783          	lw	a5,-44(s0)
 800d282:	97b6                	add	a5,a5,a3
 800d284:	0007c783          	lbu	a5,0(a5)
 800d288:	86be                	mv	a3,a5
 800d28a:	fea41783          	lh	a5,-22(s0)
 800d28e:	00f697b3          	sll	a5,a3,a5
 800d292:	07e2                	slli	a5,a5,0x18
 800d294:	87e1                	srai	a5,a5,0x18
 800d296:	8fd9                	or	a5,a5,a4
 800d298:	01879613          	slli	a2,a5,0x18
 800d29c:	8661                	srai	a2,a2,0x18
 800d29e:	fec41703          	lh	a4,-20(s0)
 800d2a2:	fee44783          	lbu	a5,-18(s0)
 800d2a6:	00f706b3          	add	a3,a4,a5
 800d2aa:	fde41703          	lh	a4,-34(s0)
 800d2ae:	fef44783          	lbu	a5,-17(s0)
 800d2b2:	97ba                	add	a5,a5,a4
 800d2b4:	0ff67713          	zext.b	a4,a2
 800d2b8:	17ff3617          	auipc	a2,0x17ff3
 800d2bc:	d5860613          	addi	a2,a2,-680 # 20000010 <OLED_DisplayBuf>
 800d2c0:	069e                	slli	a3,a3,0x7
 800d2c2:	96b2                	add	a3,a3,a2
 800d2c4:	97b6                	add	a5,a5,a3
 800d2c6:	00e78023          	sb	a4,0(a5)
C:\Users\cymr9000p\Desktop\GD32\vw553\GD RISC-V MCU Debug/../hardware/OLED.c:910
				}
				
				if (Page + j + 1 >= 0 && Page + j + 1 <= 7)		//
 800d2ca:	fec41703          	lh	a4,-20(s0)
 800d2ce:	fee44783          	lbu	a5,-18(s0)
 800d2d2:	973e                	add	a4,a4,a5
 800d2d4:	57fd                	li	a5,-1
 800d2d6:	0af74663          	blt	a4,a5,800d382 <OLED_ShowImage+0x21c>
C:\Users\cymr9000p\Desktop\GD32\vw553\GD RISC-V MCU Debug/../hardware/OLED.c:910 (discriminator 1)
 800d2da:	fec41703          	lh	a4,-20(s0)
 800d2de:	fee44783          	lbu	a5,-18(s0)
 800d2e2:	973e                	add	a4,a4,a5
 800d2e4:	4799                	li	a5,6
 800d2e6:	08e7ce63          	blt	a5,a4,800d382 <OLED_ShowImage+0x21c>
C:\Users\cymr9000p\Desktop\GD32\vw553\GD RISC-V MCU Debug/../hardware/OLED.c:913
				{					
					/**/
					OLED_DisplayBuf[Page + j + 1][X + i] |= Image[j * Width + i] >> (8 - Shift);
 800d2ea:	fec41703          	lh	a4,-20(s0)
 800d2ee:	fee44783          	lbu	a5,-18(s0)
 800d2f2:	97ba                	add	a5,a5,a4
 800d2f4:	00178713          	addi	a4,a5,1
 800d2f8:	fde41683          	lh	a3,-34(s0)
 800d2fc:	fef44783          	lbu	a5,-17(s0)
 800d300:	97b6                	add	a5,a5,a3
 800d302:	17ff3697          	auipc	a3,0x17ff3
 800d306:	d0e68693          	addi	a3,a3,-754 # 20000010 <OLED_DisplayBuf>
 800d30a:	071e                	slli	a4,a4,0x7
 800d30c:	9736                	add	a4,a4,a3
 800d30e:	97ba                	add	a5,a5,a4
 800d310:	0007c783          	lbu	a5,0(a5)
 800d314:	01879713          	slli	a4,a5,0x18
 800d318:	8761                	srai	a4,a4,0x18
 800d31a:	fee44683          	lbu	a3,-18(s0)
 800d31e:	fdb44783          	lbu	a5,-37(s0)
 800d322:	02f686b3          	mul	a3,a3,a5
 800d326:	fef44783          	lbu	a5,-17(s0)
 800d32a:	97b6                	add	a5,a5,a3
 800d32c:	86be                	mv	a3,a5
 800d32e:	fd442783          	lw	a5,-44(s0)
 800d332:	97b6                	add	a5,a5,a3
 800d334:	0007c783          	lbu	a5,0(a5)
 800d338:	863e                	mv	a2,a5
 800d33a:	fea41783          	lh	a5,-22(s0)
 800d33e:	46a1                	li	a3,8
 800d340:	40f687b3          	sub	a5,a3,a5
 800d344:	40f657b3          	sra	a5,a2,a5
 800d348:	07e2                	slli	a5,a5,0x18
 800d34a:	87e1                	srai	a5,a5,0x18
 800d34c:	8fd9                	or	a5,a5,a4
 800d34e:	01879613          	slli	a2,a5,0x18
 800d352:	8661                	srai	a2,a2,0x18
 800d354:	fec41703          	lh	a4,-20(s0)
 800d358:	fee44783          	lbu	a5,-18(s0)
 800d35c:	97ba                	add	a5,a5,a4
 800d35e:	00178693          	addi	a3,a5,1
 800d362:	fde41703          	lh	a4,-34(s0)
 800d366:	fef44783          	lbu	a5,-17(s0)
 800d36a:	97ba                	add	a5,a5,a4
 800d36c:	0ff67713          	zext.b	a4,a2
 800d370:	17ff3617          	auipc	a2,0x17ff3
 800d374:	ca060613          	addi	a2,a2,-864 # 20000010 <OLED_DisplayBuf>
 800d378:	069e                	slli	a3,a3,0x7
 800d37a:	96b2                	add	a3,a3,a2
 800d37c:	97b6                	add	a5,a5,a3
 800d37e:	00e78023          	sb	a4,0(a5)
C:\Users\cymr9000p\Desktop\GD32\vw553\GD RISC-V MCU Debug/../hardware/OLED.c:891 (discriminator 2)
		for (i = 0; i < Width; i ++)
 800d382:	fef44783          	lbu	a5,-17(s0)
 800d386:	0785                	addi	a5,a5,1
 800d388:	fef407a3          	sb	a5,-17(s0)
C:\Users\cymr9000p\Desktop\GD32\vw553\GD RISC-V MCU Debug/../hardware/OLED.c:891 (discriminator 1)
 800d38c:	fef44703          	lbu	a4,-17(s0)
 800d390:	fdb44783          	lbu	a5,-37(s0)
 800d394:	e2f760e3          	bltu	a4,a5,800d1b4 <OLED_ShowImage+0x4e>
C:\Users\cymr9000p\Desktop\GD32\vw553\GD RISC-V MCU Debug/../hardware/OLED.c:888 (discriminator 2)
	for (j = 0; j < (Height - 1) / 8 + 1; j ++)
 800d398:	fee44783          	lbu	a5,-18(s0)
 800d39c:	0785                	addi	a5,a5,1
 800d39e:	fef40723          	sb	a5,-18(s0)
C:\Users\cymr9000p\Desktop\GD32\vw553\GD RISC-V MCU Debug/../hardware/OLED.c:888 (discriminator 1)
 800d3a2:	fda44783          	lbu	a5,-38(s0)
 800d3a6:	17fd                	addi	a5,a5,-1
 800d3a8:	41f7d713          	srai	a4,a5,0x1f
 800d3ac:	8b1d                	andi	a4,a4,7
 800d3ae:	97ba                	add	a5,a5,a4
 800d3b0:	878d                	srai	a5,a5,0x3
 800d3b2:	873e                	mv	a4,a5
 800d3b4:	fee44783          	lbu	a5,-18(s0)
 800d3b8:	def75be3          	bge	a4,a5,800d1ae <OLED_ShowImage+0x48>
C:\Users\cymr9000p\Desktop\GD32\vw553\GD RISC-V MCU Debug/../hardware/OLED.c:918
				}
			}
		}
	}
}
 800d3bc:	0001                	nop
 800d3be:	0001                	nop
 800d3c0:	50b2                	lw	ra,44(sp)
 800d3c2:	5422                	lw	s0,40(sp)
 800d3c4:	6145                	addi	sp,sp,48
 800d3c6:	8082                	ret

0800d3c8 <gif>:
gif():
C:\Users\cymr9000p\Desktop\GD32\vw553\GD RISC-V MCU Debug/../hardware/img.c:3304
  0xFE,0xFF,0x7F,0xFF,0xBF,0xDF,0xEF,0xF7,0xFD,0xFF,0xFF,0xFF,0xFF,0xFF,0xFF,0xFF,
  0xFF,0xFF,0xFF,0xFF,0xFF,0xFF,0xFF,0xFF,0xFF,0xFF,0xFF,0xFF,0xFF,0xFF,0xFF,0xFF,
  0xFF,0xFF,0xFF,0xFF,0xFF,0xFF,0xFF,0xFF,0xFF,0xFF,0xFF,0xFF,0xFF,0xFF,0xFF,0xFF
};

void gif(void) {
 800d3c8:	1141                	addi	sp,sp,-16
 800d3ca:	c606                	sw	ra,12(sp)
 800d3cc:	c422                	sw	s0,8(sp)
 800d3ce:	0800                	addi	s0,sp,16
C:\Users\cymr9000p\Desktop\GD32\vw553\GD RISC-V MCU Debug/../hardware/img.c:3305
    OLED_ShowImage(0,0,128,64,IMG_DATA1);OLED_Update();delay_1ms(100);OLED_Clear();
 800d3d0:	ffff3717          	auipc	a4,0xffff3
 800d3d4:	ef070713          	addi	a4,a4,-272 # 80002c0 <IMG_DATA1>
 800d3d8:	04000693          	li	a3,64
 800d3dc:	08000613          	li	a2,128
 800d3e0:	4581                	li	a1,0
 800d3e2:	4501                	li	a0,0
 800d3e4:	3349                	jal	800d166 <OLED_ShowImage>
 800d3e6:	3655                	jal	800cf8a <OLED_Update>
 800d3e8:	06400513          	li	a0,100
 800d3ec:	821ff0ef          	jal	ra,800cc0c <delay_1ms>
 800d3f0:	36f5                	jal	800cfdc <OLED_Clear>
C:\Users\cymr9000p\Desktop\GD32\vw553\GD RISC-V MCU Debug/../hardware/img.c:3306
    OLED_ShowImage(0,0,128,64,IMG_DATA2);OLED_Update();delay_1ms(100);OLED_Clear();
 800d3f2:	ffff3717          	auipc	a4,0xffff3
 800d3f6:	2ce70713          	addi	a4,a4,718 # 80006c0 <IMG_DATA2>
 800d3fa:	04000693          	li	a3,64
 800d3fe:	08000613          	li	a2,128
 800d402:	4581                	li	a1,0
 800d404:	4501                	li	a0,0
 800d406:	3385                	jal	800d166 <OLED_ShowImage>
 800d408:	3649                	jal	800cf8a <OLED_Update>
 800d40a:	06400513          	li	a0,100
 800d40e:	ffeff0ef          	jal	ra,800cc0c <delay_1ms>
 800d412:	36e9                	jal	800cfdc <OLED_Clear>
C:\Users\cymr9000p\Desktop\GD32\vw553\GD RISC-V MCU Debug/../hardware/img.c:3307
    OLED_ShowImage(0,0,128,64,IMG_DATA3);OLED_Update();delay_1ms(100);OLED_Clear();
 800d414:	ffff3717          	auipc	a4,0xffff3
 800d418:	6ac70713          	addi	a4,a4,1708 # 8000ac0 <IMG_DATA3>
 800d41c:	04000693          	li	a3,64
 800d420:	08000613          	li	a2,128
 800d424:	4581                	li	a1,0
 800d426:	4501                	li	a0,0
 800d428:	3b3d                	jal	800d166 <OLED_ShowImage>
 800d42a:	3685                	jal	800cf8a <OLED_Update>
 800d42c:	06400513          	li	a0,100
 800d430:	fdcff0ef          	jal	ra,800cc0c <delay_1ms>
 800d434:	3665                	jal	800cfdc <OLED_Clear>
C:\Users\cymr9000p\Desktop\GD32\vw553\GD RISC-V MCU Debug/../hardware/img.c:3308
    OLED_ShowImage(0,0,128,64,IMG_DATA4);OLED_Update();delay_1ms(100);OLED_Clear();
 800d436:	ffff4717          	auipc	a4,0xffff4
 800d43a:	a8a70713          	addi	a4,a4,-1398 # 8000ec0 <IMG_DATA4>
 800d43e:	04000693          	li	a3,64
 800d442:	08000613          	li	a2,128
 800d446:	4581                	li	a1,0
 800d448:	4501                	li	a0,0
 800d44a:	3b31                	jal	800d166 <OLED_ShowImage>
 800d44c:	3e3d                	jal	800cf8a <OLED_Update>
 800d44e:	06400513          	li	a0,100
 800d452:	fbaff0ef          	jal	ra,800cc0c <delay_1ms>
 800d456:	3659                	jal	800cfdc <OLED_Clear>
C:\Users\cymr9000p\Desktop\GD32\vw553\GD RISC-V MCU Debug/../hardware/img.c:3309
    OLED_ShowImage(0,0,128,64,IMG_DATA5);OLED_Update();delay_1ms(100);OLED_Clear();
 800d458:	ffff4717          	auipc	a4,0xffff4
 800d45c:	e6870713          	addi	a4,a4,-408 # 80012c0 <IMG_DATA5>
 800d460:	04000693          	li	a3,64
 800d464:	08000613          	li	a2,128
 800d468:	4581                	li	a1,0
 800d46a:	4501                	li	a0,0
 800d46c:	39ed                	jal	800d166 <OLED_ShowImage>
 800d46e:	3e31                	jal	800cf8a <OLED_Update>
 800d470:	06400513          	li	a0,100
 800d474:	f98ff0ef          	jal	ra,800cc0c <delay_1ms>
 800d478:	3695                	jal	800cfdc <OLED_Clear>
C:\Users\cymr9000p\Desktop\GD32\vw553\GD RISC-V MCU Debug/../hardware/img.c:3310
    OLED_ShowImage(0,0,128,64,IMG_DATA6);OLED_Update();delay_1ms(100);OLED_Clear();
 800d47a:	ffff4717          	auipc	a4,0xffff4
 800d47e:	24670713          	addi	a4,a4,582 # 80016c0 <IMG_DATA6>
 800d482:	04000693          	li	a3,64
 800d486:	08000613          	li	a2,128
 800d48a:	4581                	li	a1,0
 800d48c:	4501                	li	a0,0
 800d48e:	39e1                	jal	800d166 <OLED_ShowImage>
 800d490:	3ced                	jal	800cf8a <OLED_Update>
 800d492:	06400513          	li	a0,100
 800d496:	f76ff0ef          	jal	ra,800cc0c <delay_1ms>
 800d49a:	3689                	jal	800cfdc <OLED_Clear>
C:\Users\cymr9000p\Desktop\GD32\vw553\GD RISC-V MCU Debug/../hardware/img.c:3311
    OLED_ShowImage(0,0,128,64,IMG_DATA7);OLED_Update();delay_1ms(100);OLED_Clear();
 800d49c:	ffff4717          	auipc	a4,0xffff4
 800d4a0:	62470713          	addi	a4,a4,1572 # 8001ac0 <IMG_DATA7>
 800d4a4:	04000693          	li	a3,64
 800d4a8:	08000613          	li	a2,128
 800d4ac:	4581                	li	a1,0
 800d4ae:	4501                	li	a0,0
 800d4b0:	395d                	jal	800d166 <OLED_ShowImage>
 800d4b2:	3ce1                	jal	800cf8a <OLED_Update>
 800d4b4:	06400513          	li	a0,100
 800d4b8:	f54ff0ef          	jal	ra,800cc0c <delay_1ms>
 800d4bc:	3605                	jal	800cfdc <OLED_Clear>
C:\Users\cymr9000p\Desktop\GD32\vw553\GD RISC-V MCU Debug/../hardware/img.c:3312
    OLED_ShowImage(0,0,128,64,IMG_DATA8);OLED_Update();delay_1ms(100);OLED_Clear();
 800d4be:	ffff5717          	auipc	a4,0xffff5
 800d4c2:	a0270713          	addi	a4,a4,-1534 # 8001ec0 <IMG_DATA8>
 800d4c6:	04000693          	li	a3,64
 800d4ca:	08000613          	li	a2,128
 800d4ce:	4581                	li	a1,0
 800d4d0:	4501                	li	a0,0
 800d4d2:	3951                	jal	800d166 <OLED_ShowImage>
 800d4d4:	3c5d                	jal	800cf8a <OLED_Update>
 800d4d6:	06400513          	li	a0,100
 800d4da:	f32ff0ef          	jal	ra,800cc0c <delay_1ms>
 800d4de:	3cfd                	jal	800cfdc <OLED_Clear>
C:\Users\cymr9000p\Desktop\GD32\vw553\GD RISC-V MCU Debug/../hardware/img.c:3313
    OLED_ShowImage(0,0,128,64,IMG_DATA9);OLED_Update();delay_1ms(100);OLED_Clear();
 800d4e0:	ffff5717          	auipc	a4,0xffff5
 800d4e4:	de070713          	addi	a4,a4,-544 # 80022c0 <IMG_DATA9>
 800d4e8:	04000693          	li	a3,64
 800d4ec:	08000613          	li	a2,128
 800d4f0:	4581                	li	a1,0
 800d4f2:	4501                	li	a0,0
 800d4f4:	398d                	jal	800d166 <OLED_ShowImage>
 800d4f6:	3c51                	jal	800cf8a <OLED_Update>
 800d4f8:	06400513          	li	a0,100
 800d4fc:	f10ff0ef          	jal	ra,800cc0c <delay_1ms>
 800d500:	3cf1                	jal	800cfdc <OLED_Clear>
C:\Users\cymr9000p\Desktop\GD32\vw553\GD RISC-V MCU Debug/../hardware/img.c:3314
    OLED_ShowImage(0,0,128,64,IMG_DATA10);OLED_Update();delay_1ms(100);OLED_Clear();
 800d502:	ffff5717          	auipc	a4,0xffff5
 800d506:	1be70713          	addi	a4,a4,446 # 80026c0 <IMG_DATA10>
 800d50a:	04000693          	li	a3,64
 800d50e:	08000613          	li	a2,128
 800d512:	4581                	li	a1,0
 800d514:	4501                	li	a0,0
 800d516:	3981                	jal	800d166 <OLED_ShowImage>
 800d518:	3c8d                	jal	800cf8a <OLED_Update>
 800d51a:	06400513          	li	a0,100
 800d51e:	eeeff0ef          	jal	ra,800cc0c <delay_1ms>
 800d522:	3c6d                	jal	800cfdc <OLED_Clear>
C:\Users\cymr9000p\Desktop\GD32\vw553\GD RISC-V MCU Debug/../hardware/img.c:3315
    OLED_ShowImage(0,0,128,64,IMG_DATA11);OLED_Update();delay_1ms(100);OLED_Clear();
 800d524:	ffff5717          	auipc	a4,0xffff5
 800d528:	59c70713          	addi	a4,a4,1436 # 8002ac0 <IMG_DATA11>
 800d52c:	04000693          	li	a3,64
 800d530:	08000613          	li	a2,128
 800d534:	4581                	li	a1,0
 800d536:	4501                	li	a0,0
 800d538:	313d                	jal	800d166 <OLED_ShowImage>
 800d53a:	3c81                	jal	800cf8a <OLED_Update>
 800d53c:	06400513          	li	a0,100
 800d540:	eccff0ef          	jal	ra,800cc0c <delay_1ms>
 800d544:	3c61                	jal	800cfdc <OLED_Clear>
C:\Users\cymr9000p\Desktop\GD32\vw553\GD RISC-V MCU Debug/../hardware/img.c:3316
    OLED_ShowImage(0,0,128,64,IMG_DATA12);OLED_Update();delay_1ms(100);OLED_Clear();
 800d546:	ffff6717          	auipc	a4,0xffff6
 800d54a:	97a70713          	addi	a4,a4,-1670 # 8002ec0 <IMG_DATA12>
 800d54e:	04000693          	li	a3,64
 800d552:	08000613          	li	a2,128
 800d556:	4581                	li	a1,0
 800d558:	4501                	li	a0,0
 800d55a:	3131                	jal	800d166 <OLED_ShowImage>
 800d55c:	343d                	jal	800cf8a <OLED_Update>
 800d55e:	06400513          	li	a0,100
 800d562:	eaaff0ef          	jal	ra,800cc0c <delay_1ms>
 800d566:	3c9d                	jal	800cfdc <OLED_Clear>
C:\Users\cymr9000p\Desktop\GD32\vw553\GD RISC-V MCU Debug/../hardware/img.c:3317
    OLED_ShowImage(0,0,128,64,IMG_DATA13);OLED_Update();delay_1ms(100);OLED_Clear();
 800d568:	ffff6717          	auipc	a4,0xffff6
 800d56c:	d5870713          	addi	a4,a4,-680 # 80032c0 <IMG_DATA13>
 800d570:	04000693          	li	a3,64
 800d574:	08000613          	li	a2,128
 800d578:	4581                	li	a1,0
 800d57a:	4501                	li	a0,0
 800d57c:	36ed                	jal	800d166 <OLED_ShowImage>
 800d57e:	3431                	jal	800cf8a <OLED_Update>
 800d580:	06400513          	li	a0,100
 800d584:	e88ff0ef          	jal	ra,800cc0c <delay_1ms>
 800d588:	3c91                	jal	800cfdc <OLED_Clear>
C:\Users\cymr9000p\Desktop\GD32\vw553\GD RISC-V MCU Debug/../hardware/img.c:3318
    OLED_ShowImage(0,0,128,64,IMG_DATA14);OLED_Update();delay_1ms(100);OLED_Clear();
 800d58a:	ffff6717          	auipc	a4,0xffff6
 800d58e:	13670713          	addi	a4,a4,310 # 80036c0 <IMG_DATA14>
 800d592:	04000693          	li	a3,64
 800d596:	08000613          	li	a2,128
 800d59a:	4581                	li	a1,0
 800d59c:	4501                	li	a0,0
 800d59e:	36e1                	jal	800d166 <OLED_ShowImage>
 800d5a0:	32ed                	jal	800cf8a <OLED_Update>
 800d5a2:	06400513          	li	a0,100
 800d5a6:	e66ff0ef          	jal	ra,800cc0c <delay_1ms>
 800d5aa:	3c0d                	jal	800cfdc <OLED_Clear>
C:\Users\cymr9000p\Desktop\GD32\vw553\GD RISC-V MCU Debug/../hardware/img.c:3319
    OLED_ShowImage(0,0,128,64,IMG_DATA15);OLED_Update();delay_1ms(100);OLED_Clear();
 800d5ac:	ffff6717          	auipc	a4,0xffff6
 800d5b0:	51470713          	addi	a4,a4,1300 # 8003ac0 <IMG_DATA15>
 800d5b4:	04000693          	li	a3,64
 800d5b8:	08000613          	li	a2,128
 800d5bc:	4581                	li	a1,0
 800d5be:	4501                	li	a0,0
 800d5c0:	365d                	jal	800d166 <OLED_ShowImage>
 800d5c2:	9c9ff0ef          	jal	ra,800cf8a <OLED_Update>
 800d5c6:	06400513          	li	a0,100
 800d5ca:	e42ff0ef          	jal	ra,800cc0c <delay_1ms>
 800d5ce:	3439                	jal	800cfdc <OLED_Clear>
C:\Users\cymr9000p\Desktop\GD32\vw553\GD RISC-V MCU Debug/../hardware/img.c:3320
    OLED_ShowImage(0,0,128,64,IMG_DATA16);OLED_Update();delay_1ms(100);OLED_Clear();
 800d5d0:	ffff7717          	auipc	a4,0xffff7
 800d5d4:	8f070713          	addi	a4,a4,-1808 # 8003ec0 <IMG_DATA16>
 800d5d8:	04000693          	li	a3,64
 800d5dc:	08000613          	li	a2,128
 800d5e0:	4581                	li	a1,0
 800d5e2:	4501                	li	a0,0
 800d5e4:	3649                	jal	800d166 <OLED_ShowImage>
 800d5e6:	9a5ff0ef          	jal	ra,800cf8a <OLED_Update>
 800d5ea:	06400513          	li	a0,100
 800d5ee:	e1eff0ef          	jal	ra,800cc0c <delay_1ms>
 800d5f2:	32ed                	jal	800cfdc <OLED_Clear>
C:\Users\cymr9000p\Desktop\GD32\vw553\GD RISC-V MCU Debug/../hardware/img.c:3321
    OLED_ShowImage(0,0,128,64,IMG_DATA17);OLED_Update();delay_1ms(100);OLED_Clear();
 800d5f4:	ffff7717          	auipc	a4,0xffff7
 800d5f8:	ccc70713          	addi	a4,a4,-820 # 80042c0 <IMG_DATA17>
 800d5fc:	04000693          	li	a3,64
 800d600:	08000613          	li	a2,128
 800d604:	4581                	li	a1,0
 800d606:	4501                	li	a0,0
 800d608:	3eb9                	jal	800d166 <OLED_ShowImage>
 800d60a:	981ff0ef          	jal	ra,800cf8a <OLED_Update>
 800d60e:	06400513          	li	a0,100
 800d612:	dfaff0ef          	jal	ra,800cc0c <delay_1ms>
 800d616:	9c7ff0ef          	jal	ra,800cfdc <OLED_Clear>
C:\Users\cymr9000p\Desktop\GD32\vw553\GD RISC-V MCU Debug/../hardware/img.c:3322
    OLED_ShowImage(0,0,128,64,IMG_DATA18);OLED_Update();delay_1ms(100);OLED_Clear();
 800d61a:	ffff7717          	auipc	a4,0xffff7
 800d61e:	0a670713          	addi	a4,a4,166 # 80046c0 <IMG_DATA18>
 800d622:	04000693          	li	a3,64
 800d626:	08000613          	li	a2,128
 800d62a:	4581                	li	a1,0
 800d62c:	4501                	li	a0,0
 800d62e:	3e25                	jal	800d166 <OLED_ShowImage>
 800d630:	95bff0ef          	jal	ra,800cf8a <OLED_Update>
 800d634:	06400513          	li	a0,100
 800d638:	dd4ff0ef          	jal	ra,800cc0c <delay_1ms>
 800d63c:	9a1ff0ef          	jal	ra,800cfdc <OLED_Clear>
C:\Users\cymr9000p\Desktop\GD32\vw553\GD RISC-V MCU Debug/../hardware/img.c:3323
    OLED_ShowImage(0,0,128,64,IMG_DATA19);OLED_Update();delay_1ms(100);OLED_Clear();
 800d640:	ffff7717          	auipc	a4,0xffff7
 800d644:	48070713          	addi	a4,a4,1152 # 8004ac0 <IMG_DATA19>
 800d648:	04000693          	li	a3,64
 800d64c:	08000613          	li	a2,128
 800d650:	4581                	li	a1,0
 800d652:	4501                	li	a0,0
 800d654:	3e09                	jal	800d166 <OLED_ShowImage>
 800d656:	935ff0ef          	jal	ra,800cf8a <OLED_Update>
 800d65a:	06400513          	li	a0,100
 800d65e:	daeff0ef          	jal	ra,800cc0c <delay_1ms>
 800d662:	97bff0ef          	jal	ra,800cfdc <OLED_Clear>
C:\Users\cymr9000p\Desktop\GD32\vw553\GD RISC-V MCU Debug/../hardware/img.c:3324
    OLED_ShowImage(0,0,128,64,IMG_DATA20);OLED_Update();delay_1ms(100);OLED_Clear();
 800d666:	ffff8717          	auipc	a4,0xffff8
 800d66a:	85a70713          	addi	a4,a4,-1958 # 8004ec0 <IMG_DATA20>
 800d66e:	04000693          	li	a3,64
 800d672:	08000613          	li	a2,128
 800d676:	4581                	li	a1,0
 800d678:	4501                	li	a0,0
 800d67a:	34f5                	jal	800d166 <OLED_ShowImage>
 800d67c:	90fff0ef          	jal	ra,800cf8a <OLED_Update>
 800d680:	06400513          	li	a0,100
 800d684:	d88ff0ef          	jal	ra,800cc0c <delay_1ms>
 800d688:	955ff0ef          	jal	ra,800cfdc <OLED_Clear>
C:\Users\cymr9000p\Desktop\GD32\vw553\GD RISC-V MCU Debug/../hardware/img.c:3325
    OLED_ShowImage(0,0,128,64,IMG_DATA21);OLED_Update();delay_1ms(100);OLED_Clear();
 800d68c:	ffff8717          	auipc	a4,0xffff8
 800d690:	c3470713          	addi	a4,a4,-972 # 80052c0 <IMG_DATA21>
 800d694:	04000693          	li	a3,64
 800d698:	08000613          	li	a2,128
 800d69c:	4581                	li	a1,0
 800d69e:	4501                	li	a0,0
 800d6a0:	34d9                	jal	800d166 <OLED_ShowImage>
 800d6a2:	8e9ff0ef          	jal	ra,800cf8a <OLED_Update>
 800d6a6:	06400513          	li	a0,100
 800d6aa:	d62ff0ef          	jal	ra,800cc0c <delay_1ms>
 800d6ae:	92fff0ef          	jal	ra,800cfdc <OLED_Clear>
C:\Users\cymr9000p\Desktop\GD32\vw553\GD RISC-V MCU Debug/../hardware/img.c:3326
    OLED_ShowImage(0,0,128,64,IMG_DATA22);OLED_Update();delay_1ms(100);OLED_Clear();
 800d6b2:	ffff8717          	auipc	a4,0xffff8
 800d6b6:	00e70713          	addi	a4,a4,14 # 80056c0 <IMG_DATA22>
 800d6ba:	04000693          	li	a3,64
 800d6be:	08000613          	li	a2,128
 800d6c2:	4581                	li	a1,0
 800d6c4:	4501                	li	a0,0
 800d6c6:	3445                	jal	800d166 <OLED_ShowImage>
 800d6c8:	8c3ff0ef          	jal	ra,800cf8a <OLED_Update>
 800d6cc:	06400513          	li	a0,100
 800d6d0:	d3cff0ef          	jal	ra,800cc0c <delay_1ms>
 800d6d4:	909ff0ef          	jal	ra,800cfdc <OLED_Clear>
C:\Users\cymr9000p\Desktop\GD32\vw553\GD RISC-V MCU Debug/../hardware/img.c:3327
    OLED_ShowImage(0,0,128,64,IMG_DATA23);OLED_Update();delay_1ms(100);OLED_Clear();
 800d6d8:	ffff8717          	auipc	a4,0xffff8
 800d6dc:	3e870713          	addi	a4,a4,1000 # 8005ac0 <IMG_DATA23>
 800d6e0:	04000693          	li	a3,64
 800d6e4:	08000613          	li	a2,128
 800d6e8:	4581                	li	a1,0
 800d6ea:	4501                	li	a0,0
 800d6ec:	3cad                	jal	800d166 <OLED_ShowImage>
 800d6ee:	89dff0ef          	jal	ra,800cf8a <OLED_Update>
 800d6f2:	06400513          	li	a0,100
 800d6f6:	d16ff0ef          	jal	ra,800cc0c <delay_1ms>
 800d6fa:	8e3ff0ef          	jal	ra,800cfdc <OLED_Clear>
C:\Users\cymr9000p\Desktop\GD32\vw553\GD RISC-V MCU Debug/../hardware/img.c:3328
    OLED_ShowImage(0,0,128,64,IMG_DATA24);OLED_Update();delay_1ms(100);OLED_Clear();
 800d6fe:	ffff8717          	auipc	a4,0xffff8
 800d702:	7c270713          	addi	a4,a4,1986 # 8005ec0 <IMG_DATA24>
 800d706:	04000693          	li	a3,64
 800d70a:	08000613          	li	a2,128
 800d70e:	4581                	li	a1,0
 800d710:	4501                	li	a0,0
 800d712:	3c91                	jal	800d166 <OLED_ShowImage>
 800d714:	877ff0ef          	jal	ra,800cf8a <OLED_Update>
 800d718:	06400513          	li	a0,100
 800d71c:	cf0ff0ef          	jal	ra,800cc0c <delay_1ms>
 800d720:	8bdff0ef          	jal	ra,800cfdc <OLED_Clear>
C:\Users\cymr9000p\Desktop\GD32\vw553\GD RISC-V MCU Debug/../hardware/img.c:3329
    OLED_ShowImage(0,0,128,64,IMG_DATA25);OLED_Update();delay_1ms(100);OLED_Clear();
 800d724:	ffff9717          	auipc	a4,0xffff9
 800d728:	b9c70713          	addi	a4,a4,-1124 # 80062c0 <IMG_DATA25>
 800d72c:	04000693          	li	a3,64
 800d730:	08000613          	li	a2,128
 800d734:	4581                	li	a1,0
 800d736:	4501                	li	a0,0
 800d738:	343d                	jal	800d166 <OLED_ShowImage>
 800d73a:	851ff0ef          	jal	ra,800cf8a <OLED_Update>
 800d73e:	06400513          	li	a0,100
 800d742:	ccaff0ef          	jal	ra,800cc0c <delay_1ms>
 800d746:	897ff0ef          	jal	ra,800cfdc <OLED_Clear>
C:\Users\cymr9000p\Desktop\GD32\vw553\GD RISC-V MCU Debug/../hardware/img.c:3330
    OLED_ShowImage(0,0,128,64,IMG_DATA26);OLED_Update();delay_1ms(100);OLED_Clear();
 800d74a:	ffff9717          	auipc	a4,0xffff9
 800d74e:	f7670713          	addi	a4,a4,-138 # 80066c0 <IMG_DATA26>
 800d752:	04000693          	li	a3,64
 800d756:	08000613          	li	a2,128
 800d75a:	4581                	li	a1,0
 800d75c:	4501                	li	a0,0
 800d75e:	3421                	jal	800d166 <OLED_ShowImage>
 800d760:	82bff0ef          	jal	ra,800cf8a <OLED_Update>
 800d764:	06400513          	li	a0,100
 800d768:	ca4ff0ef          	jal	ra,800cc0c <delay_1ms>
 800d76c:	871ff0ef          	jal	ra,800cfdc <OLED_Clear>
C:\Users\cymr9000p\Desktop\GD32\vw553\GD RISC-V MCU Debug/../hardware/img.c:3331
    OLED_ShowImage(0,0,128,64,IMG_DATA27);OLED_Update();delay_1ms(100);OLED_Clear();
 800d770:	ffff9717          	auipc	a4,0xffff9
 800d774:	35070713          	addi	a4,a4,848 # 8006ac0 <IMG_DATA27>
 800d778:	04000693          	li	a3,64
 800d77c:	08000613          	li	a2,128
 800d780:	4581                	li	a1,0
 800d782:	4501                	li	a0,0
 800d784:	32cd                	jal	800d166 <OLED_ShowImage>
 800d786:	805ff0ef          	jal	ra,800cf8a <OLED_Update>
 800d78a:	06400513          	li	a0,100
 800d78e:	c7eff0ef          	jal	ra,800cc0c <delay_1ms>
 800d792:	84bff0ef          	jal	ra,800cfdc <OLED_Clear>
C:\Users\cymr9000p\Desktop\GD32\vw553\GD RISC-V MCU Debug/../hardware/img.c:3332
    OLED_ShowImage(0,0,128,64,IMG_DATA28);OLED_Update();delay_1ms(100);OLED_Clear();
 800d796:	ffff9717          	auipc	a4,0xffff9
 800d79a:	72a70713          	addi	a4,a4,1834 # 8006ec0 <IMG_DATA28>
 800d79e:	04000693          	li	a3,64
 800d7a2:	08000613          	li	a2,128
 800d7a6:	4581                	li	a1,0
 800d7a8:	4501                	li	a0,0
 800d7aa:	9bdff0ef          	jal	ra,800d166 <OLED_ShowImage>
 800d7ae:	fdcff0ef          	jal	ra,800cf8a <OLED_Update>
 800d7b2:	06400513          	li	a0,100
 800d7b6:	c56ff0ef          	jal	ra,800cc0c <delay_1ms>
 800d7ba:	823ff0ef          	jal	ra,800cfdc <OLED_Clear>
C:\Users\cymr9000p\Desktop\GD32\vw553\GD RISC-V MCU Debug/../hardware/img.c:3333
    OLED_ShowImage(0,0,128,64,IMG_DATA29);OLED_Update();delay_1ms(100);OLED_Clear();
 800d7be:	ffffa717          	auipc	a4,0xffffa
 800d7c2:	b0270713          	addi	a4,a4,-1278 # 80072c0 <IMG_DATA29>
 800d7c6:	04000693          	li	a3,64
 800d7ca:	08000613          	li	a2,128
 800d7ce:	4581                	li	a1,0
 800d7d0:	4501                	li	a0,0
 800d7d2:	995ff0ef          	jal	ra,800d166 <OLED_ShowImage>
 800d7d6:	fb4ff0ef          	jal	ra,800cf8a <OLED_Update>
 800d7da:	06400513          	li	a0,100
 800d7de:	c2eff0ef          	jal	ra,800cc0c <delay_1ms>
 800d7e2:	ffaff0ef          	jal	ra,800cfdc <OLED_Clear>
C:\Users\cymr9000p\Desktop\GD32\vw553\GD RISC-V MCU Debug/../hardware/img.c:3334
    OLED_ShowImage(0,0,128,64,IMG_DATA30);OLED_Update();delay_1ms(100);OLED_Clear();
 800d7e6:	ffffa717          	auipc	a4,0xffffa
 800d7ea:	eda70713          	addi	a4,a4,-294 # 80076c0 <IMG_DATA30>
 800d7ee:	04000693          	li	a3,64
 800d7f2:	08000613          	li	a2,128
 800d7f6:	4581                	li	a1,0
 800d7f8:	4501                	li	a0,0
 800d7fa:	96dff0ef          	jal	ra,800d166 <OLED_ShowImage>
 800d7fe:	f8cff0ef          	jal	ra,800cf8a <OLED_Update>
 800d802:	06400513          	li	a0,100
 800d806:	c06ff0ef          	jal	ra,800cc0c <delay_1ms>
 800d80a:	fd2ff0ef          	jal	ra,800cfdc <OLED_Clear>
C:\Users\cymr9000p\Desktop\GD32\vw553\GD RISC-V MCU Debug/../hardware/img.c:3335
    OLED_ShowImage(0,0,128,64,IMG_DATA31);OLED_Update();delay_1ms(100);OLED_Clear();
 800d80e:	ffffa717          	auipc	a4,0xffffa
 800d812:	2b270713          	addi	a4,a4,690 # 8007ac0 <IMG_DATA31>
 800d816:	04000693          	li	a3,64
 800d81a:	08000613          	li	a2,128
 800d81e:	4581                	li	a1,0
 800d820:	4501                	li	a0,0
 800d822:	945ff0ef          	jal	ra,800d166 <OLED_ShowImage>
 800d826:	f64ff0ef          	jal	ra,800cf8a <OLED_Update>
 800d82a:	06400513          	li	a0,100
 800d82e:	bdeff0ef          	jal	ra,800cc0c <delay_1ms>
 800d832:	faaff0ef          	jal	ra,800cfdc <OLED_Clear>
C:\Users\cymr9000p\Desktop\GD32\vw553\GD RISC-V MCU Debug/../hardware/img.c:3336
    OLED_ShowImage(0,0,128,64,IMG_DATA32);OLED_Update();delay_1ms(100);OLED_Clear();
 800d836:	ffffa717          	auipc	a4,0xffffa
 800d83a:	68a70713          	addi	a4,a4,1674 # 8007ec0 <IMG_DATA32>
 800d83e:	04000693          	li	a3,64
 800d842:	08000613          	li	a2,128
 800d846:	4581                	li	a1,0
 800d848:	4501                	li	a0,0
 800d84a:	91dff0ef          	jal	ra,800d166 <OLED_ShowImage>
 800d84e:	f3cff0ef          	jal	ra,800cf8a <OLED_Update>
 800d852:	06400513          	li	a0,100
 800d856:	bb6ff0ef          	jal	ra,800cc0c <delay_1ms>
 800d85a:	f82ff0ef          	jal	ra,800cfdc <OLED_Clear>
C:\Users\cymr9000p\Desktop\GD32\vw553\GD RISC-V MCU Debug/../hardware/img.c:3337
    OLED_ShowImage(0,0,128,64,IMG_DATA33);OLED_Update();delay_1ms(100);OLED_Clear();
 800d85e:	ffffb717          	auipc	a4,0xffffb
 800d862:	a6270713          	addi	a4,a4,-1438 # 80082c0 <IMG_DATA33>
 800d866:	04000693          	li	a3,64
 800d86a:	08000613          	li	a2,128
 800d86e:	4581                	li	a1,0
 800d870:	4501                	li	a0,0
 800d872:	8f5ff0ef          	jal	ra,800d166 <OLED_ShowImage>
 800d876:	f14ff0ef          	jal	ra,800cf8a <OLED_Update>
 800d87a:	06400513          	li	a0,100
 800d87e:	b8eff0ef          	jal	ra,800cc0c <delay_1ms>
 800d882:	f5aff0ef          	jal	ra,800cfdc <OLED_Clear>
C:\Users\cymr9000p\Desktop\GD32\vw553\GD RISC-V MCU Debug/../hardware/img.c:3338
    OLED_ShowImage(0,0,128,64,IMG_DATA34);OLED_Update();delay_1ms(100);OLED_Clear();
 800d886:	ffffb717          	auipc	a4,0xffffb
 800d88a:	e3a70713          	addi	a4,a4,-454 # 80086c0 <IMG_DATA34>
 800d88e:	04000693          	li	a3,64
 800d892:	08000613          	li	a2,128
 800d896:	4581                	li	a1,0
 800d898:	4501                	li	a0,0
 800d89a:	8cdff0ef          	jal	ra,800d166 <OLED_ShowImage>
 800d89e:	eecff0ef          	jal	ra,800cf8a <OLED_Update>
 800d8a2:	06400513          	li	a0,100
 800d8a6:	b66ff0ef          	jal	ra,800cc0c <delay_1ms>
 800d8aa:	f32ff0ef          	jal	ra,800cfdc <OLED_Clear>
C:\Users\cymr9000p\Desktop\GD32\vw553\GD RISC-V MCU Debug/../hardware/img.c:3339
    OLED_ShowImage(0,0,128,64,IMG_DATA35);OLED_Update();delay_1ms(100);OLED_Clear();
 800d8ae:	ffffb717          	auipc	a4,0xffffb
 800d8b2:	21270713          	addi	a4,a4,530 # 8008ac0 <IMG_DATA35>
 800d8b6:	04000693          	li	a3,64
 800d8ba:	08000613          	li	a2,128
 800d8be:	4581                	li	a1,0
 800d8c0:	4501                	li	a0,0
 800d8c2:	8a5ff0ef          	jal	ra,800d166 <OLED_ShowImage>
 800d8c6:	ec4ff0ef          	jal	ra,800cf8a <OLED_Update>
 800d8ca:	06400513          	li	a0,100
 800d8ce:	b3eff0ef          	jal	ra,800cc0c <delay_1ms>
 800d8d2:	f0aff0ef          	jal	ra,800cfdc <OLED_Clear>
C:\Users\cymr9000p\Desktop\GD32\vw553\GD RISC-V MCU Debug/../hardware/img.c:3340
    OLED_ShowImage(0,0,128,64,IMG_DATA36);OLED_Update();delay_1ms(100);OLED_Clear();
 800d8d6:	ffffb717          	auipc	a4,0xffffb
 800d8da:	5ea70713          	addi	a4,a4,1514 # 8008ec0 <IMG_DATA36>
 800d8de:	04000693          	li	a3,64
 800d8e2:	08000613          	li	a2,128
 800d8e6:	4581                	li	a1,0
 800d8e8:	4501                	li	a0,0
 800d8ea:	87dff0ef          	jal	ra,800d166 <OLED_ShowImage>
 800d8ee:	e9cff0ef          	jal	ra,800cf8a <OLED_Update>
 800d8f2:	06400513          	li	a0,100
 800d8f6:	b16ff0ef          	jal	ra,800cc0c <delay_1ms>
 800d8fa:	ee2ff0ef          	jal	ra,800cfdc <OLED_Clear>
C:\Users\cymr9000p\Desktop\GD32\vw553\GD RISC-V MCU Debug/../hardware/img.c:3341
    OLED_ShowImage(0,0,128,64,IMG_DATA37);OLED_Update();delay_1ms(100);OLED_Clear();
 800d8fe:	ffffc717          	auipc	a4,0xffffc
 800d902:	9c270713          	addi	a4,a4,-1598 # 80092c0 <IMG_DATA37>
 800d906:	04000693          	li	a3,64
 800d90a:	08000613          	li	a2,128
 800d90e:	4581                	li	a1,0
 800d910:	4501                	li	a0,0
 800d912:	855ff0ef          	jal	ra,800d166 <OLED_ShowImage>
 800d916:	e74ff0ef          	jal	ra,800cf8a <OLED_Update>
 800d91a:	06400513          	li	a0,100
 800d91e:	aeeff0ef          	jal	ra,800cc0c <delay_1ms>
 800d922:	ebaff0ef          	jal	ra,800cfdc <OLED_Clear>
C:\Users\cymr9000p\Desktop\GD32\vw553\GD RISC-V MCU Debug/../hardware/img.c:3342
    OLED_ShowImage(0,0,128,64,IMG_DATA38);OLED_Update();delay_1ms(100);OLED_Clear();
 800d926:	ffffc717          	auipc	a4,0xffffc
 800d92a:	d9a70713          	addi	a4,a4,-614 # 80096c0 <IMG_DATA38>
 800d92e:	04000693          	li	a3,64
 800d932:	08000613          	li	a2,128
 800d936:	4581                	li	a1,0
 800d938:	4501                	li	a0,0
 800d93a:	82dff0ef          	jal	ra,800d166 <OLED_ShowImage>
 800d93e:	e4cff0ef          	jal	ra,800cf8a <OLED_Update>
 800d942:	06400513          	li	a0,100
 800d946:	ac6ff0ef          	jal	ra,800cc0c <delay_1ms>
 800d94a:	e92ff0ef          	jal	ra,800cfdc <OLED_Clear>
C:\Users\cymr9000p\Desktop\GD32\vw553\GD RISC-V MCU Debug/../hardware/img.c:3343
    OLED_ShowImage(0,0,128,64,IMG_DATA39);OLED_Update();delay_1ms(100);OLED_Clear();
 800d94e:	ffffc717          	auipc	a4,0xffffc
 800d952:	17270713          	addi	a4,a4,370 # 8009ac0 <IMG_DATA39>
 800d956:	04000693          	li	a3,64
 800d95a:	08000613          	li	a2,128
 800d95e:	4581                	li	a1,0
 800d960:	4501                	li	a0,0
 800d962:	805ff0ef          	jal	ra,800d166 <OLED_ShowImage>
 800d966:	e24ff0ef          	jal	ra,800cf8a <OLED_Update>
 800d96a:	06400513          	li	a0,100
 800d96e:	a9eff0ef          	jal	ra,800cc0c <delay_1ms>
 800d972:	e6aff0ef          	jal	ra,800cfdc <OLED_Clear>
C:\Users\cymr9000p\Desktop\GD32\vw553\GD RISC-V MCU Debug/../hardware/img.c:3344
    OLED_ShowImage(0,0,128,64,IMG_DATA40);OLED_Update();delay_1ms(100);OLED_Clear();
 800d976:	ffffc717          	auipc	a4,0xffffc
 800d97a:	54a70713          	addi	a4,a4,1354 # 8009ec0 <IMG_DATA40>
 800d97e:	04000693          	li	a3,64
 800d982:	08000613          	li	a2,128
 800d986:	4581                	li	a1,0
 800d988:	4501                	li	a0,0
 800d98a:	fdcff0ef          	jal	ra,800d166 <OLED_ShowImage>
 800d98e:	dfcff0ef          	jal	ra,800cf8a <OLED_Update>
 800d992:	06400513          	li	a0,100
 800d996:	a76ff0ef          	jal	ra,800cc0c <delay_1ms>
 800d99a:	e42ff0ef          	jal	ra,800cfdc <OLED_Clear>
C:\Users\cymr9000p\Desktop\GD32\vw553\GD RISC-V MCU Debug/../hardware/img.c:3345
    OLED_ShowImage(0,0,128,64,IMG_DATA41);OLED_Update();delay_1ms(100);OLED_Clear();
 800d99e:	ffffd717          	auipc	a4,0xffffd
 800d9a2:	92270713          	addi	a4,a4,-1758 # 800a2c0 <IMG_DATA41>
 800d9a6:	04000693          	li	a3,64
 800d9aa:	08000613          	li	a2,128
 800d9ae:	4581                	li	a1,0
 800d9b0:	4501                	li	a0,0
 800d9b2:	fb4ff0ef          	jal	ra,800d166 <OLED_ShowImage>
 800d9b6:	dd4ff0ef          	jal	ra,800cf8a <OLED_Update>
 800d9ba:	06400513          	li	a0,100
 800d9be:	a4eff0ef          	jal	ra,800cc0c <delay_1ms>
 800d9c2:	e1aff0ef          	jal	ra,800cfdc <OLED_Clear>
C:\Users\cymr9000p\Desktop\GD32\vw553\GD RISC-V MCU Debug/../hardware/img.c:3346
    OLED_ShowImage(0,0,128,64,IMG_DATA42);OLED_Update();delay_1ms(100);OLED_Clear();
 800d9c6:	ffffd717          	auipc	a4,0xffffd
 800d9ca:	cfa70713          	addi	a4,a4,-774 # 800a6c0 <IMG_DATA42>
 800d9ce:	04000693          	li	a3,64
 800d9d2:	08000613          	li	a2,128
 800d9d6:	4581                	li	a1,0
 800d9d8:	4501                	li	a0,0
 800d9da:	f8cff0ef          	jal	ra,800d166 <OLED_ShowImage>
 800d9de:	dacff0ef          	jal	ra,800cf8a <OLED_Update>
 800d9e2:	06400513          	li	a0,100
 800d9e6:	a26ff0ef          	jal	ra,800cc0c <delay_1ms>
 800d9ea:	df2ff0ef          	jal	ra,800cfdc <OLED_Clear>
C:\Users\cymr9000p\Desktop\GD32\vw553\GD RISC-V MCU Debug/../hardware/img.c:3347
    OLED_ShowImage(0,0,128,64,IMG_DATA43);OLED_Update();delay_1ms(100);OLED_Clear();
 800d9ee:	ffffd717          	auipc	a4,0xffffd
 800d9f2:	0d270713          	addi	a4,a4,210 # 800aac0 <IMG_DATA43>
 800d9f6:	04000693          	li	a3,64
 800d9fa:	08000613          	li	a2,128
 800d9fe:	4581                	li	a1,0
 800da00:	4501                	li	a0,0
 800da02:	f64ff0ef          	jal	ra,800d166 <OLED_ShowImage>
 800da06:	d84ff0ef          	jal	ra,800cf8a <OLED_Update>
 800da0a:	06400513          	li	a0,100
 800da0e:	9feff0ef          	jal	ra,800cc0c <delay_1ms>
 800da12:	dcaff0ef          	jal	ra,800cfdc <OLED_Clear>
C:\Users\cymr9000p\Desktop\GD32\vw553\GD RISC-V MCU Debug/../hardware/img.c:3348
    OLED_ShowImage(0,0,128,64,IMG_DATA44);OLED_Update();delay_1ms(100);OLED_Clear();
 800da16:	ffffd717          	auipc	a4,0xffffd
 800da1a:	4aa70713          	addi	a4,a4,1194 # 800aec0 <IMG_DATA44>
 800da1e:	04000693          	li	a3,64
 800da22:	08000613          	li	a2,128
 800da26:	4581                	li	a1,0
 800da28:	4501                	li	a0,0
 800da2a:	f3cff0ef          	jal	ra,800d166 <OLED_ShowImage>
 800da2e:	d5cff0ef          	jal	ra,800cf8a <OLED_Update>
 800da32:	06400513          	li	a0,100
 800da36:	9d6ff0ef          	jal	ra,800cc0c <delay_1ms>
 800da3a:	da2ff0ef          	jal	ra,800cfdc <OLED_Clear>
C:\Users\cymr9000p\Desktop\GD32\vw553\GD RISC-V MCU Debug/../hardware/img.c:3349
    OLED_ShowImage(0,0,128,64,IMG_DATA45);OLED_Update();delay_1ms(100);OLED_Clear();
 800da3e:	ffffe717          	auipc	a4,0xffffe
 800da42:	88270713          	addi	a4,a4,-1918 # 800b2c0 <IMG_DATA45>
 800da46:	04000693          	li	a3,64
 800da4a:	08000613          	li	a2,128
 800da4e:	4581                	li	a1,0
 800da50:	4501                	li	a0,0
 800da52:	f14ff0ef          	jal	ra,800d166 <OLED_ShowImage>
 800da56:	d34ff0ef          	jal	ra,800cf8a <OLED_Update>
 800da5a:	06400513          	li	a0,100
 800da5e:	9aeff0ef          	jal	ra,800cc0c <delay_1ms>
 800da62:	d7aff0ef          	jal	ra,800cfdc <OLED_Clear>
C:\Users\cymr9000p\Desktop\GD32\vw553\GD RISC-V MCU Debug/../hardware/img.c:3350
    OLED_ShowImage(0,0,128,64,IMG_DATA46);OLED_Update();delay_1ms(100);OLED_Clear();
 800da66:	ffffe717          	auipc	a4,0xffffe
 800da6a:	c5a70713          	addi	a4,a4,-934 # 800b6c0 <IMG_DATA46>
 800da6e:	04000693          	li	a3,64
 800da72:	08000613          	li	a2,128
 800da76:	4581                	li	a1,0
 800da78:	4501                	li	a0,0
 800da7a:	eecff0ef          	jal	ra,800d166 <OLED_ShowImage>
 800da7e:	d0cff0ef          	jal	ra,800cf8a <OLED_Update>
 800da82:	06400513          	li	a0,100
 800da86:	986ff0ef          	jal	ra,800cc0c <delay_1ms>
 800da8a:	d52ff0ef          	jal	ra,800cfdc <OLED_Clear>
C:\Users\cymr9000p\Desktop\GD32\vw553\GD RISC-V MCU Debug/../hardware/img.c:3351
    OLED_ShowImage(0,0,128,64,IMG_DATA47);OLED_Update();delay_1ms(100);OLED_Clear();
 800da8e:	ffffe717          	auipc	a4,0xffffe
 800da92:	03270713          	addi	a4,a4,50 # 800bac0 <IMG_DATA47>
 800da96:	04000693          	li	a3,64
 800da9a:	08000613          	li	a2,128
 800da9e:	4581                	li	a1,0
 800daa0:	4501                	li	a0,0
 800daa2:	ec4ff0ef          	jal	ra,800d166 <OLED_ShowImage>
 800daa6:	ce4ff0ef          	jal	ra,800cf8a <OLED_Update>
 800daaa:	06400513          	li	a0,100
 800daae:	95eff0ef          	jal	ra,800cc0c <delay_1ms>
 800dab2:	d2aff0ef          	jal	ra,800cfdc <OLED_Clear>
C:\Users\cymr9000p\Desktop\GD32\vw553\GD RISC-V MCU Debug/../hardware/img.c:3352
    OLED_ShowImage(0,0,128,64,IMG_DATA48);OLED_Update();delay_1ms(100);OLED_Clear();
 800dab6:	ffffe717          	auipc	a4,0xffffe
 800daba:	40a70713          	addi	a4,a4,1034 # 800bec0 <IMG_DATA48>
 800dabe:	04000693          	li	a3,64
 800dac2:	08000613          	li	a2,128
 800dac6:	4581                	li	a1,0
 800dac8:	4501                	li	a0,0
 800daca:	e9cff0ef          	jal	ra,800d166 <OLED_ShowImage>
 800dace:	cbcff0ef          	jal	ra,800cf8a <OLED_Update>
 800dad2:	06400513          	li	a0,100
 800dad6:	936ff0ef          	jal	ra,800cc0c <delay_1ms>
 800dada:	d02ff0ef          	jal	ra,800cfdc <OLED_Clear>
C:\Users\cymr9000p\Desktop\GD32\vw553\GD RISC-V MCU Debug/../hardware/img.c:3353
    OLED_ShowImage(0,0,128,64,IMG_DATA49);OLED_Update();delay_1ms(100);OLED_Clear();
 800dade:	ffffe717          	auipc	a4,0xffffe
 800dae2:	7e270713          	addi	a4,a4,2018 # 800c2c0 <IMG_DATA49>
 800dae6:	04000693          	li	a3,64
 800daea:	08000613          	li	a2,128
 800daee:	4581                	li	a1,0
 800daf0:	4501                	li	a0,0
 800daf2:	e74ff0ef          	jal	ra,800d166 <OLED_ShowImage>
 800daf6:	c94ff0ef          	jal	ra,800cf8a <OLED_Update>
 800dafa:	06400513          	li	a0,100
 800dafe:	90eff0ef          	jal	ra,800cc0c <delay_1ms>
 800db02:	cdaff0ef          	jal	ra,800cfdc <OLED_Clear>
C:\Users\cymr9000p\Desktop\GD32\vw553\GD RISC-V MCU Debug/../hardware/img.c:3354
    OLED_ShowImage(0,0,128,64,IMG_DATA50);OLED_Update();delay_1ms(100);OLED_Clear();
 800db06:	fffff717          	auipc	a4,0xfffff
 800db0a:	bba70713          	addi	a4,a4,-1094 # 800c6c0 <IMG_DATA50>
 800db0e:	04000693          	li	a3,64
 800db12:	08000613          	li	a2,128
 800db16:	4581                	li	a1,0
 800db18:	4501                	li	a0,0
 800db1a:	e4cff0ef          	jal	ra,800d166 <OLED_ShowImage>
 800db1e:	c6cff0ef          	jal	ra,800cf8a <OLED_Update>
 800db22:	06400513          	li	a0,100
 800db26:	8e6ff0ef          	jal	ra,800cc0c <delay_1ms>
 800db2a:	cb2ff0ef          	jal	ra,800cfdc <OLED_Clear>
C:\Users\cymr9000p\Desktop\GD32\vw553\GD RISC-V MCU Debug/../hardware/img.c:3355
}
 800db2e:	0001                	nop
 800db30:	40b2                	lw	ra,12(sp)
 800db32:	4422                	lw	s0,8(sp)
 800db34:	0141                	addi	sp,sp,16
 800db36:	8082                	ret
	...

0800db40 <exc_entry>:
exc_entry():
C:\Users\cymr9000p\Desktop\GD32\vw553\GD RISC-V MCU Debug/../Firmware/RISCV/env_Eclipse/entry.S:155
.align 6
.global exc_entry
.weak exc_entry
exc_entry:
    /* Save the caller saving registers (context) */
    SAVE_CONTEXT
 800db40:	715d                	addi	sp,sp,-80
 800db42:	c006                	sw	ra,0(sp)
 800db44:	c212                	sw	tp,4(sp)
 800db46:	c416                	sw	t0,8(sp)
 800db48:	c61a                	sw	t1,12(sp)
 800db4a:	c81e                	sw	t2,16(sp)
 800db4c:	ca2a                	sw	a0,20(sp)
 800db4e:	cc2e                	sw	a1,24(sp)
 800db50:	ce32                	sw	a2,28(sp)
 800db52:	d036                	sw	a3,32(sp)
 800db54:	d23a                	sw	a4,36(sp)
 800db56:	d43e                	sw	a5,40(sp)
 800db58:	dc42                	sw	a6,56(sp)
 800db5a:	de46                	sw	a7,60(sp)
 800db5c:	c0f2                	sw	t3,64(sp)
 800db5e:	c2f6                	sw	t4,68(sp)
 800db60:	c4fa                	sw	t5,72(sp)
 800db62:	c6fe                	sw	t6,76(sp)
C:\Users\cymr9000p\Desktop\GD32\vw553\GD RISC-V MCU Debug/../Firmware/RISCV/env_Eclipse/entry.S:157
    /* Save the necessary CSR registers */
    SAVE_CSR_CONTEXT
 800db64:	7ee5d073          	csrwi	pushmcause,11
 800db68:	7ef65073          	csrwi	pushmepc,12
 800db6c:	7eb6d073          	csrwi	pushmsubm,13
C:\Users\cymr9000p\Desktop\GD32\vw553\GD RISC-V MCU Debug/../Firmware/RISCV/env_Eclipse/entry.S:164
    /*
     * Set the exception handler function arguments
     * argument 1: mcause value
     * argument 2: current stack point(SP) value
     */
    csrr a0, mcause
 800db70:	34202573          	csrr	a0,mcause
C:\Users\cymr9000p\Desktop\GD32\vw553\GD RISC-V MCU Debug/../Firmware/RISCV/env_Eclipse/entry.S:165
    mv a1, sp
 800db74:	858a                	mv	a1,sp
C:\Users\cymr9000p\Desktop\GD32\vw553\GD RISC-V MCU Debug/../Firmware/RISCV/env_Eclipse/entry.S:171
    /*
     * TODO: Call the exception handler function
     * By default, the function template is provided in
     * handlers.c, you can adjust it as you want
     */
    call core_exception_handler
 800db76:	2a9d                	jal	800dcec <core_exception_handler>
C:\Users\cymr9000p\Desktop\GD32\vw553\GD RISC-V MCU Debug/../Firmware/RISCV/env_Eclipse/entry.S:174

    /* Restore the necessary CSR registers */
    RESTORE_CSR_CONTEXT
 800db78:	52d2                	lw	t0,52(sp)
 800db7a:	7c429073          	csrw	msubm,t0
 800db7e:	52c2                	lw	t0,48(sp)
 800db80:	34129073          	csrw	mepc,t0
 800db84:	52b2                	lw	t0,44(sp)
 800db86:	34229073          	csrw	mcause,t0
C:\Users\cymr9000p\Desktop\GD32\vw553\GD RISC-V MCU Debug/../Firmware/RISCV/env_Eclipse/entry.S:176
    /* Restore the caller saving registers (context) */
    RESTORE_CONTEXT
 800db8a:	4082                	lw	ra,0(sp)
 800db8c:	4212                	lw	tp,4(sp)
 800db8e:	42a2                	lw	t0,8(sp)
 800db90:	4332                	lw	t1,12(sp)
 800db92:	43c2                	lw	t2,16(sp)
 800db94:	4552                	lw	a0,20(sp)
 800db96:	45e2                	lw	a1,24(sp)
 800db98:	4672                	lw	a2,28(sp)
 800db9a:	5682                	lw	a3,32(sp)
 800db9c:	5712                	lw	a4,36(sp)
 800db9e:	57a2                	lw	a5,40(sp)
 800dba0:	5862                	lw	a6,56(sp)
 800dba2:	58f2                	lw	a7,60(sp)
 800dba4:	4e06                	lw	t3,64(sp)
 800dba6:	4e96                	lw	t4,68(sp)
 800dba8:	4f26                	lw	t5,72(sp)
 800dbaa:	4fb6                	lw	t6,76(sp)
 800dbac:	6161                	addi	sp,sp,80
C:\Users\cymr9000p\Desktop\GD32\vw553\GD RISC-V MCU Debug/../Firmware/RISCV/env_Eclipse/entry.S:179

    /* Return to regular code */
    mret
 800dbae:	30200073          	mret
	...

0800dbbc <irq_entry>:
irq_entry():
C:\Users\cymr9000p\Desktop\GD32\vw553\GD RISC-V MCU Debug/../Firmware/RISCV/env_Eclipse/entry.S:199
.global irq_entry
.weak irq_entry
/* This label will be set to MTVT2 register */
irq_entry:
    /* Save the caller saving registers (context) */
    SAVE_CONTEXT
 800dbbc:	715d                	addi	sp,sp,-80
 800dbbe:	c006                	sw	ra,0(sp)
 800dbc0:	c212                	sw	tp,4(sp)
 800dbc2:	c416                	sw	t0,8(sp)
 800dbc4:	c61a                	sw	t1,12(sp)
 800dbc6:	c81e                	sw	t2,16(sp)
 800dbc8:	ca2a                	sw	a0,20(sp)
 800dbca:	cc2e                	sw	a1,24(sp)
 800dbcc:	ce32                	sw	a2,28(sp)
 800dbce:	d036                	sw	a3,32(sp)
 800dbd0:	d23a                	sw	a4,36(sp)
 800dbd2:	d43e                	sw	a5,40(sp)
 800dbd4:	dc42                	sw	a6,56(sp)
 800dbd6:	de46                	sw	a7,60(sp)
 800dbd8:	c0f2                	sw	t3,64(sp)
 800dbda:	c2f6                	sw	t4,68(sp)
 800dbdc:	c4fa                	sw	t5,72(sp)
 800dbde:	c6fe                	sw	t6,76(sp)
C:\Users\cymr9000p\Desktop\GD32\vw553\GD RISC-V MCU Debug/../Firmware/RISCV/env_Eclipse/entry.S:201
    /* Save the necessary CSR registers */
    SAVE_CSR_CONTEXT
 800dbe0:	7ee5d073          	csrwi	pushmcause,11
 800dbe4:	7ef65073          	csrwi	pushmepc,12
 800dbe8:	7eb6d073          	csrwi	pushmsubm,13
C:\Users\cymr9000p\Desktop\GD32\vw553\GD RISC-V MCU Debug/../Firmware/RISCV/env_Eclipse/entry.S:208
    /* This special CSR read/write operation, which is actually
     * claim the CLIC to find its pending highest ID, if the ID
     * is not 0, then automatically enable the mstatus.MIE, and
     * jump to its vector-entry-label, and update the link register
     */
    csrrw ra, CSR_JALMNXTI, ra
 800dbec:	7ed090f3          	csrrw	ra,jalmnxti,ra
C:\Users\cymr9000p\Desktop\GD32\vw553\GD RISC-V MCU Debug/../Firmware/RISCV/env_Eclipse/entry.S:211

    /* Critical section with interrupts disabled */
    DISABLE_MIE
 800dbf0:	30047073          	csrci	mstatus,8
C:\Users\cymr9000p\Desktop\GD32\vw553\GD RISC-V MCU Debug/../Firmware/RISCV/env_Eclipse/entry.S:214

    /* Restore the necessary CSR registers */
    RESTORE_CSR_CONTEXT
 800dbf4:	52d2                	lw	t0,52(sp)
 800dbf6:	7c429073          	csrw	msubm,t0
 800dbfa:	52c2                	lw	t0,48(sp)
 800dbfc:	34129073          	csrw	mepc,t0
 800dc00:	52b2                	lw	t0,44(sp)
 800dc02:	34229073          	csrw	mcause,t0
C:\Users\cymr9000p\Desktop\GD32\vw553\GD RISC-V MCU Debug/../Firmware/RISCV/env_Eclipse/entry.S:216
    /* Restore the caller saving registers (context) */
    RESTORE_CONTEXT
 800dc06:	4082                	lw	ra,0(sp)
 800dc08:	4212                	lw	tp,4(sp)
 800dc0a:	42a2                	lw	t0,8(sp)
 800dc0c:	4332                	lw	t1,12(sp)
 800dc0e:	43c2                	lw	t2,16(sp)
 800dc10:	4552                	lw	a0,20(sp)
 800dc12:	45e2                	lw	a1,24(sp)
 800dc14:	4672                	lw	a2,28(sp)
 800dc16:	5682                	lw	a3,32(sp)
 800dc18:	5712                	lw	a4,36(sp)
 800dc1a:	57a2                	lw	a5,40(sp)
 800dc1c:	5862                	lw	a6,56(sp)
 800dc1e:	58f2                	lw	a7,60(sp)
 800dc20:	4e06                	lw	t3,64(sp)
 800dc22:	4e96                	lw	t4,68(sp)
 800dc24:	4f26                	lw	t5,72(sp)
 800dc26:	4fb6                	lw	t6,76(sp)
 800dc28:	6161                	addi	sp,sp,80
C:\Users\cymr9000p\Desktop\GD32\vw553\GD RISC-V MCU Debug/../Firmware/RISCV/env_Eclipse/entry.S:219

    /* Return to regular code */
    mret
 800dc2a:	30200073          	mret

0800dc2e <default_intexc_handler>:
Undef_Handler():
C:\Users\cymr9000p\Desktop\GD32\vw553\GD RISC-V MCU Debug/../Firmware/RISCV/env_Eclipse/entry.S:227
.global default_intexc_handler
.weak default_intexc_handler
Undef_Handler:
default_intexc_handler:
1:
    j 1b
 800dc2e:	a001                	j	800dc2e <default_intexc_handler>
	...

0800dc32 <system_default_exception_handler>:
system_default_exception_handler():
C:\Users\cymr9000p\Desktop\GD32\vw553\GD RISC-V MCU Debug/../Firmware/RISCV/env_Eclipse/handlers.c:88
 * \details
 * This function provided a default exception and NMI handling code for all exception ids.
 * By default, It will just print some information for debug, Vendor can customize it according to its requirements.
 */
static void system_default_exception_handler(unsigned long mcause, unsigned long sp)
{
 800dc32:	1101                	addi	sp,sp,-32
 800dc34:	ce06                	sw	ra,28(sp)
 800dc36:	cc22                	sw	s0,24(sp)
 800dc38:	1000                	addi	s0,sp,32
 800dc3a:	fea42623          	sw	a0,-20(s0)
 800dc3e:	feb42423          	sw	a1,-24(s0)
C:\Users\cymr9000p\Desktop\GD32\vw553\GD RISC-V MCU Debug/../Firmware/RISCV/env_Eclipse/handlers.c:94
    /* TODO: Uncomment this if you have implement printf function */
//    printf("MCAUSE : 0x%lx\r\n", mcause);
//    printf("MDCAUSE: 0x%lx\r\n", __RV_CSR_READ(CSR_MDCAUSE));
//    printf("MEPC   : 0x%lx\r\n", __RV_CSR_READ(CSR_MEPC));
//    printf("MTVAL  : 0x%lx\r\n", __RV_CSR_READ(CSR_MTVAL));
    Exception_DumpFrame(sp);
 800dc42:	fe842503          	lw	a0,-24(s0)
 800dc46:	221d                	jal	800dd6c <Exception_DumpFrame>
C:\Users\cymr9000p\Desktop\GD32\vw553\GD RISC-V MCU Debug/../Firmware/RISCV/env_Eclipse/handlers.c:95 (discriminator 1)
    while (1);
 800dc48:	a001                	j	800dc48 <system_default_exception_handler+0x16>

0800dc4a <nmi_handler>:
nmi_handler():
C:\Users\cymr9000p\Desktop\GD32\vw553\GD RISC-V MCU Debug/../Firmware/RISCV/env_Eclipse/handlers.c:105
 * \details
 * This function provided a NMI handling code for NMI_EXCn.
 * By default, It will just print some information for debug, Vendor can customize it according to its requirements.
 */
void nmi_handler(unsigned long mcause, unsigned long sp)
{
 800dc4a:	1101                	addi	sp,sp,-32
 800dc4c:	ce06                	sw	ra,28(sp)
 800dc4e:	cc22                	sw	s0,24(sp)
 800dc50:	1000                	addi	s0,sp,32
 800dc52:	fea42623          	sw	a0,-20(s0)
 800dc56:	feb42423          	sw	a1,-24(s0)
C:\Users\cymr9000p\Desktop\GD32\vw553\GD RISC-V MCU Debug/../Firmware/RISCV/env_Eclipse/handlers.c:112
//    printf("NMI \r\n");
//    printf("MCAUSE : 0x%lx\r\n", mcause);
//    printf("MDCAUSE: 0x%lx\r\n", __RV_CSR_READ(CSR_MDCAUSE));
//    printf("MEPC   : 0x%lx\r\n", __RV_CSR_READ(CSR_MEPC));
//    printf("MTVAL  : 0x%lx\r\n", __RV_CSR_READ(CSR_MTVAL));
    Exception_DumpFrame(sp);
 800dc5a:	fe842503          	lw	a0,-24(s0)
 800dc5e:	2239                	jal	800dd6c <Exception_DumpFrame>
C:\Users\cymr9000p\Desktop\GD32\vw553\GD RISC-V MCU Debug/../Firmware/RISCV/env_Eclipse/handlers.c:113 (discriminator 1)
    while (1);
 800dc60:	a001                	j	800dc60 <nmi_handler+0x16>

0800dc62 <Exception_Init>:
Exception_Init():
C:\Users\cymr9000p\Desktop\GD32\vw553\GD RISC-V MCU Debug/../Firmware/RISCV/env_Eclipse/handlers.c:124
 * The core exception handler for each exception id will be initialized to \ref system_default_exception_handler.
 * \note
 * Called in \ref _init function, used to initialize default exception handlers for all exception IDs
 */
void Exception_Init(void)
{
 800dc62:	1101                	addi	sp,sp,-32
 800dc64:	ce22                	sw	s0,28(sp)
 800dc66:	1000                	addi	s0,sp,32
C:\Users\cymr9000p\Desktop\GD32\vw553\GD RISC-V MCU Debug/../Firmware/RISCV/env_Eclipse/handlers.c:125
    for (int i = 0; i < MAX_SYSTEM_EXCEPTION_NUM + 1; i++) {
 800dc68:	fe042623          	sw	zero,-20(s0)
 800dc6c:	a00d                	j	800dc8e <Exception_Init+0x2c>
C:\Users\cymr9000p\Desktop\GD32\vw553\GD RISC-V MCU Debug/../Firmware/RISCV/env_Eclipse/handlers.c:126 (discriminator 3)
        SystemExceptionHandlers[i] = (unsigned long)system_default_exception_handler;
 800dc6e:	00000717          	auipc	a4,0x0
 800dc72:	fc470713          	addi	a4,a4,-60 # 800dc32 <system_default_exception_handler>
 800dc76:	c1018693          	addi	a3,gp,-1008 # 20000410 <SystemExceptionHandlers>
 800dc7a:	fec42783          	lw	a5,-20(s0)
 800dc7e:	078a                	slli	a5,a5,0x2
 800dc80:	97b6                	add	a5,a5,a3
 800dc82:	c398                	sw	a4,0(a5)
C:\Users\cymr9000p\Desktop\GD32\vw553\GD RISC-V MCU Debug/../Firmware/RISCV/env_Eclipse/handlers.c:125 (discriminator 3)
    for (int i = 0; i < MAX_SYSTEM_EXCEPTION_NUM + 1; i++) {
 800dc84:	fec42783          	lw	a5,-20(s0)
 800dc88:	0785                	addi	a5,a5,1
 800dc8a:	fef42623          	sw	a5,-20(s0)
C:\Users\cymr9000p\Desktop\GD32\vw553\GD RISC-V MCU Debug/../Firmware/RISCV/env_Eclipse/handlers.c:125 (discriminator 1)
 800dc8e:	fec42703          	lw	a4,-20(s0)
 800dc92:	47b1                	li	a5,12
 800dc94:	fce7dde3          	bge	a5,a4,800dc6e <Exception_Init+0xc>
C:\Users\cymr9000p\Desktop\GD32\vw553\GD RISC-V MCU Debug/../Firmware/RISCV/env_Eclipse/handlers.c:128
    }
}
 800dc98:	0001                	nop
 800dc9a:	0001                	nop
 800dc9c:	4472                	lw	s0,28(sp)
 800dc9e:	6105                	addi	sp,sp,32
 800dca0:	8082                	ret

0800dca2 <Exception_Register_EXC>:
Exception_Register_EXC():
C:\Users\cymr9000p\Desktop\GD32\vw553\GD RISC-V MCU Debug/../Firmware/RISCV/env_Eclipse/handlers.c:139
 * * For EXCn == NMI_EXCn, it will be registered into SystemExceptionHandlers[MAX_SYSTEM_EXCEPTION_NUM].
 * \param   EXCn    See \ref EXCn_Type
 * \param   exc_handler     The exception handler for this exception code EXCn
 */
void Exception_Register_EXC(uint32_t EXCn, unsigned long exc_handler)
{
 800dca2:	1101                	addi	sp,sp,-32
 800dca4:	ce22                	sw	s0,28(sp)
 800dca6:	1000                	addi	s0,sp,32
 800dca8:	fea42623          	sw	a0,-20(s0)
 800dcac:	feb42423          	sw	a1,-24(s0)
C:\Users\cymr9000p\Desktop\GD32\vw553\GD RISC-V MCU Debug/../Firmware/RISCV/env_Eclipse/handlers.c:140
    if ((EXCn < MAX_SYSTEM_EXCEPTION_NUM) && (EXCn >= 0)) {
 800dcb0:	fec42703          	lw	a4,-20(s0)
 800dcb4:	47ad                	li	a5,11
 800dcb6:	00e7ec63          	bltu	a5,a4,800dcce <Exception_Register_EXC+0x2c>
C:\Users\cymr9000p\Desktop\GD32\vw553\GD RISC-V MCU Debug/../Firmware/RISCV/env_Eclipse/handlers.c:141
        SystemExceptionHandlers[EXCn] = exc_handler;
 800dcba:	c1018713          	addi	a4,gp,-1008 # 20000410 <SystemExceptionHandlers>
 800dcbe:	fec42783          	lw	a5,-20(s0)
 800dcc2:	078a                	slli	a5,a5,0x2
 800dcc4:	97ba                	add	a5,a5,a4
 800dcc6:	fe842703          	lw	a4,-24(s0)
 800dcca:	c398                	sw	a4,0(a5)
C:\Users\cymr9000p\Desktop\GD32\vw553\GD RISC-V MCU Debug/../Firmware/RISCV/env_Eclipse/handlers.c:145
    } else if (EXCn == NMI_EXCn) {
        SystemExceptionHandlers[MAX_SYSTEM_EXCEPTION_NUM] = exc_handler;
    }
}
 800dccc:	a821                	j	800dce4 <Exception_Register_EXC+0x42>
C:\Users\cymr9000p\Desktop\GD32\vw553\GD RISC-V MCU Debug/../Firmware/RISCV/env_Eclipse/handlers.c:142
    } else if (EXCn == NMI_EXCn) {
 800dcce:	fec42703          	lw	a4,-20(s0)
 800dcd2:	6785                	lui	a5,0x1
 800dcd4:	17fd                	addi	a5,a5,-1
 800dcd6:	00f71763          	bne	a4,a5,800dce4 <Exception_Register_EXC+0x42>
C:\Users\cymr9000p\Desktop\GD32\vw553\GD RISC-V MCU Debug/../Firmware/RISCV/env_Eclipse/handlers.c:143
        SystemExceptionHandlers[MAX_SYSTEM_EXCEPTION_NUM] = exc_handler;
 800dcda:	c1018793          	addi	a5,gp,-1008 # 20000410 <SystemExceptionHandlers>
 800dcde:	fe842703          	lw	a4,-24(s0)
 800dce2:	db98                	sw	a4,48(a5)
C:\Users\cymr9000p\Desktop\GD32\vw553\GD RISC-V MCU Debug/../Firmware/RISCV/env_Eclipse/handlers.c:145
}
 800dce4:	0001                	nop
 800dce6:	4472                	lw	s0,28(sp)
 800dce8:	6105                	addi	sp,sp,32
 800dcea:	8082                	ret

0800dcec <core_exception_handler>:
core_exception_handler():
C:\Users\cymr9000p\Desktop\GD32\vw553\GD RISC-V MCU Debug/../Firmware/RISCV/env_Eclipse/handlers.c:178
 *   for exception entry function, Silicon Vendor could modify the implementation.
 * - For the core_exception_handler template, we provided exception register function \ref Exception_Register_EXC
 *   which can help developer to register your exception handler for specific exception number.
 */
uint32_t core_exception_handler(unsigned long mcause, unsigned long sp)
{
 800dcec:	7179                	addi	sp,sp,-48
 800dcee:	d606                	sw	ra,44(sp)
 800dcf0:	d422                	sw	s0,40(sp)
 800dcf2:	1800                	addi	s0,sp,48
 800dcf4:	fca42e23          	sw	a0,-36(s0)
 800dcf8:	fcb42c23          	sw	a1,-40(s0)
C:\Users\cymr9000p\Desktop\GD32\vw553\GD RISC-V MCU Debug/../Firmware/RISCV/env_Eclipse/handlers.c:179
    uint32_t EXCn = (uint32_t)(mcause & 0X00000fff);
 800dcfc:	fdc42703          	lw	a4,-36(s0)
 800dd00:	6785                	lui	a5,0x1
 800dd02:	17fd                	addi	a5,a5,-1
 800dd04:	8ff9                	and	a5,a5,a4
 800dd06:	fef42423          	sw	a5,-24(s0)
C:\Users\cymr9000p\Desktop\GD32\vw553\GD RISC-V MCU Debug/../Firmware/RISCV/env_Eclipse/handlers.c:182
    EXC_HANDLER exc_handler;

    if ((EXCn < MAX_SYSTEM_EXCEPTION_NUM) && (EXCn >= 0)) {
 800dd0a:	fe842703          	lw	a4,-24(s0)
 800dd0e:	47ad                	li	a5,11
 800dd10:	00e7ec63          	bltu	a5,a4,800dd28 <core_exception_handler+0x3c>
C:\Users\cymr9000p\Desktop\GD32\vw553\GD RISC-V MCU Debug/../Firmware/RISCV/env_Eclipse/handlers.c:183
        exc_handler = (EXC_HANDLER)SystemExceptionHandlers[EXCn];
 800dd14:	c1018713          	addi	a4,gp,-1008 # 20000410 <SystemExceptionHandlers>
 800dd18:	fe842783          	lw	a5,-24(s0)
 800dd1c:	078a                	slli	a5,a5,0x2
 800dd1e:	97ba                	add	a5,a5,a4
 800dd20:	439c                	lw	a5,0(a5)
 800dd22:	fef42623          	sw	a5,-20(s0)
 800dd26:	a01d                	j	800dd4c <core_exception_handler+0x60>
C:\Users\cymr9000p\Desktop\GD32\vw553\GD RISC-V MCU Debug/../Firmware/RISCV/env_Eclipse/handlers.c:184
    } else if (EXCn == NMI_EXCn) {
 800dd28:	fe842703          	lw	a4,-24(s0)
 800dd2c:	6785                	lui	a5,0x1
 800dd2e:	17fd                	addi	a5,a5,-1
 800dd30:	00f71863          	bne	a4,a5,800dd40 <core_exception_handler+0x54>
C:\Users\cymr9000p\Desktop\GD32\vw553\GD RISC-V MCU Debug/../Firmware/RISCV/env_Eclipse/handlers.c:185
        exc_handler = (EXC_HANDLER)SystemExceptionHandlers[MAX_SYSTEM_EXCEPTION_NUM];
 800dd34:	c1018793          	addi	a5,gp,-1008 # 20000410 <SystemExceptionHandlers>
 800dd38:	5b9c                	lw	a5,48(a5)
 800dd3a:	fef42623          	sw	a5,-20(s0)
 800dd3e:	a039                	j	800dd4c <core_exception_handler+0x60>
C:\Users\cymr9000p\Desktop\GD32\vw553\GD RISC-V MCU Debug/../Firmware/RISCV/env_Eclipse/handlers.c:187
    } else {
        exc_handler = (EXC_HANDLER)system_default_exception_handler;
 800dd40:	00000797          	auipc	a5,0x0
 800dd44:	ef278793          	addi	a5,a5,-270 # 800dc32 <system_default_exception_handler>
 800dd48:	fef42623          	sw	a5,-20(s0)
C:\Users\cymr9000p\Desktop\GD32\vw553\GD RISC-V MCU Debug/../Firmware/RISCV/env_Eclipse/handlers.c:189
    }
    if (exc_handler != NULL) {
 800dd4c:	fec42783          	lw	a5,-20(s0)
 800dd50:	cb81                	beqz	a5,800dd60 <core_exception_handler+0x74>
C:\Users\cymr9000p\Desktop\GD32\vw553\GD RISC-V MCU Debug/../Firmware/RISCV/env_Eclipse/handlers.c:190
        exc_handler(mcause, sp);
 800dd52:	fec42783          	lw	a5,-20(s0)
 800dd56:	fd842583          	lw	a1,-40(s0)
 800dd5a:	fdc42503          	lw	a0,-36(s0)
 800dd5e:	9782                	jalr	a5
C:\Users\cymr9000p\Desktop\GD32\vw553\GD RISC-V MCU Debug/../Firmware/RISCV/env_Eclipse/handlers.c:192
    }
    return 0;
 800dd60:	4781                	li	a5,0
C:\Users\cymr9000p\Desktop\GD32\vw553\GD RISC-V MCU Debug/../Firmware/RISCV/env_Eclipse/handlers.c:193
}
 800dd62:	853e                	mv	a0,a5
 800dd64:	50b2                	lw	ra,44(sp)
 800dd66:	5422                	lw	s0,40(sp)
 800dd68:	6145                	addi	sp,sp,48
 800dd6a:	8082                	ret

0800dd6c <Exception_DumpFrame>:
Exception_DumpFrame():
C:\Users\cymr9000p\Desktop\GD32\vw553\GD RISC-V MCU Debug/../Firmware/RISCV/env_Eclipse/handlers.c:202
 * \brief      Dump Exception Frame
 * \details
 * This function provided feature to dump exception frame stored in stack.
 */
void Exception_DumpFrame(unsigned long sp)
{
 800dd6c:	1101                	addi	sp,sp,-32
 800dd6e:	ce22                	sw	s0,28(sp)
 800dd70:	1000                	addi	s0,sp,32
 800dd72:	fea42623          	sw	a0,-20(s0)
C:\Users\cymr9000p\Desktop\GD32\vw553\GD RISC-V MCU Debug/../Firmware/RISCV/env_Eclipse/handlers.c:225
           exc_frame->a4, exc_frame->a5, exc_frame->mcause, exc_frame->mepc, exc_frame->msubm);
#endif
#else
    (void)sp; // 
#endif
}
 800dd76:	0001                	nop
 800dd78:	4472                	lw	s0,28(sp)
 800dd7a:	6105                	addi	sp,sp,32
 800dd7c:	8082                	ret

0800dd7e <_premain_init>:
_premain_init():
C:\Users\cymr9000p\Desktop\GD32\vw553\GD RISC-V MCU Debug/../Firmware/RISCV/env_Eclipse/init.c:37
 * For RISC-V gnu toolchain, _init function might not be called
 * by __libc_init_array function, so we defined a new function
 * to do initialization
 */
void _premain_init(void)
{
 800dd7e:	1141                	addi	sp,sp,-16
 800dd80:	c606                	sw	ra,12(sp)
 800dd82:	c422                	sw	s0,8(sp)
 800dd84:	c226                	sw	s1,4(sp)
 800dd86:	0800                	addi	s0,sp,16
EnableICache():
C:\Users\cymr9000p\Desktop\GD32\vw553\GD RISC-V MCU Debug/../Firmware/RISCV/drivers/core_feature_cache.h:195
 * \sa
 * - \ref DisableICache
*/
__STATIC_FORCEINLINE void EnableICache(void)
{
    __RV_CSR_SET(CSR_MCACHE_CTL, MCACHE_CTL_IC_EN);
 800dd88:	4085                	li	ra,1
 800dd8a:	7ca0a073          	csrs	mcache_ctl,ra
C:\Users\cymr9000p\Desktop\GD32\vw553\GD RISC-V MCU Debug/../Firmware/RISCV/drivers/core_feature_cache.h:196
}
 800dd8e:	0001                	nop
_premain_init():
C:\Users\cymr9000p\Desktop\GD32\vw553\GD RISC-V MCU Debug/../Firmware/RISCV/env_Eclipse/init.c:43
    /* TODO: Add your own initialization code here, called before main */
    /* __ICACHE_PRESENT and __DCACHE_PRESENT are defined in demosoc.h */
    EnableICache();

    /* Initialize exception default handlers */
    Exception_Init();
 800dd90:	3dc9                	jal	800dc62 <Exception_Init>
C:\Users\cymr9000p\Desktop\GD32\vw553\GD RISC-V MCU Debug/../Firmware/RISCV/env_Eclipse/init.c:45
    /* Initialize NMI handlers */
    Exception_Register_EXC(NMI_EXCn, (unsigned long)nmi_handler);
 800dd92:	00000797          	auipc	a5,0x0
 800dd96:	eb878793          	addi	a5,a5,-328 # 800dc4a <nmi_handler>
 800dd9a:	85be                	mv	a1,a5
 800dd9c:	6785                	lui	a5,0x1
 800dd9e:	fff78513          	addi	a0,a5,-1 # fff <__stack_size+0x7ff>
 800dda2:	3701                	jal	800dca2 <Exception_Register_EXC>
C:\Users\cymr9000p\Desktop\GD32\vw553\GD RISC-V MCU Debug/../Firmware/RISCV/env_Eclipse/init.c:47
    /* ECLIC initialization, mainly MTH and NLBIT */
    eclic_level_threshold_set(0);
 800dda4:	4501                	li	a0,0
 800dda6:	2095                	jal	800de0a <eclic_level_threshold_set>
C:\Users\cymr9000p\Desktop\GD32\vw553\GD RISC-V MCU Debug/../Firmware/RISCV/env_Eclipse/init.c:48
    eclic_priority_group_set(ECLIC_PRIGROUP_LEVEL2_PRIO2);
 800dda8:	4509                	li	a0,2
 800ddaa:	2069                	jal	800de34 <eclic_priority_group_set>
C:\Users\cymr9000p\Desktop\GD32\vw553\GD RISC-V MCU Debug/../Firmware/RISCV/env_Eclipse/init.c:49
    eclic_global_interrupt_enable();
 800ddac:	2091                	jal	800ddf0 <eclic_global_interrupt_enable>
__disable_all_counter():
C:\Users\cymr9000p\Desktop\GD32\vw553\GD RISC-V MCU Debug/../Firmware/RISCV/drivers/core_feature_base.h:847
 * \details
 * Set the IR and CY bit of MCOUNTINHIBIT to 1 to disable MINSTRET & MCYCLE Counter
 */
__STATIC_FORCEINLINE void __disable_all_counter(void)
{
    __RV_CSR_SET(CSR_MCOUNTINHIBIT, MCOUNTINHIBIT_IR|MCOUNTINHIBIT_CY);
 800ddae:	4495                	li	s1,5
 800ddb0:	3204a073          	csrs	mcountinhibit,s1
C:\Users\cymr9000p\Desktop\GD32\vw553\GD RISC-V MCU Debug/../Firmware/RISCV/drivers/core_feature_base.h:848
}
 800ddb4:	0001                	nop
_premain_init():
C:\Users\cymr9000p\Desktop\GD32\vw553\GD RISC-V MCU Debug/../Firmware/RISCV/env_Eclipse/init.c:53

    /* Before enter into main, disable mcycle and minstret counter by default to save power */
    __disable_all_counter();
}
 800ddb6:	0001                	nop
 800ddb8:	40b2                	lw	ra,12(sp)
 800ddba:	4422                	lw	s0,8(sp)
 800ddbc:	4492                	lw	s1,4(sp)
 800ddbe:	0141                	addi	sp,sp,16
 800ddc0:	8082                	ret

0800ddc2 <_postmain_fini>:
_postmain_fini():
C:\Users\cymr9000p\Desktop\GD32\vw553\GD RISC-V MCU Debug/../Firmware/RISCV/env_Eclipse/init.c:65
 * For RISC-V gnu toolchain, _fini function might not be called
 * by __libc_fini_array function, so we defined a new function
 * to do initialization
 */
void _postmain_fini(int status)
{
 800ddc2:	1101                	addi	sp,sp,-32
 800ddc4:	ce22                	sw	s0,28(sp)
 800ddc6:	1000                	addi	s0,sp,32
 800ddc8:	fea42623          	sw	a0,-20(s0)
C:\Users\cymr9000p\Desktop\GD32\vw553\GD RISC-V MCU Debug/../Firmware/RISCV/env_Eclipse/init.c:67
    /* TODO: Add your own finishing code here, called after main */
}
 800ddcc:	0001                	nop
 800ddce:	4472                	lw	s0,28(sp)
 800ddd0:	6105                	addi	sp,sp,32
 800ddd2:	8082                	ret

0800ddd4 <_init>:
_init():
C:\Users\cymr9000p\Desktop\GD32\vw553\GD RISC-V MCU Debug/../Firmware/RISCV/env_Eclipse/init.c:79
 * error init.c:(.text.__libc_init_array+0x26): undefined reference to `_init'
 * \note
 * Please use \ref _premain_init function now
 */
void _init(void)
{
 800ddd4:	1141                	addi	sp,sp,-16
 800ddd6:	c622                	sw	s0,12(sp)
 800ddd8:	0800                	addi	s0,sp,16
C:\Users\cymr9000p\Desktop\GD32\vw553\GD RISC-V MCU Debug/../Firmware/RISCV/env_Eclipse/init.c:81
    /* Don't put any code here, please use _premain_init now */
}
 800ddda:	0001                	nop
 800dddc:	4432                	lw	s0,12(sp)
 800ddde:	0141                	addi	sp,sp,16
 800dde0:	8082                	ret

0800dde2 <_fini>:
_fini():
C:\Users\cymr9000p\Desktop\GD32\vw553\GD RISC-V MCU Debug/../Firmware/RISCV/env_Eclipse/init.c:93
 * error fini.c:(.text.__libc_fini_array+0x28): undefined reference to `_fini'
 * \note
 * Please use \ref _postmain_fini function now
 */
void _fini(void)
{
 800dde2:	1141                	addi	sp,sp,-16
 800dde4:	c622                	sw	s0,12(sp)
 800dde6:	0800                	addi	s0,sp,16
C:\Users\cymr9000p\Desktop\GD32\vw553\GD RISC-V MCU Debug/../Firmware/RISCV/env_Eclipse/init.c:95
    /* Don't put any code here, please use _postmain_fini now */
}
 800dde8:	0001                	nop
 800ddea:	4432                	lw	s0,12(sp)
 800ddec:	0141                	addi	sp,sp,16
 800ddee:	8082                	ret

0800ddf0 <eclic_global_interrupt_enable>:
eclic_global_interrupt_enable():
C:\Users\cymr9000p\Desktop\GD32\vw553\GD RISC-V MCU Debug/../Firmware/GD32VW55x_standard_peripheral/Source/gd32vw55x_eclic.c:45
    \param[in]  none
    \param[out] none
    \retval     none
*/
void eclic_global_interrupt_enable(void)
{
 800ddf0:	1141                	addi	sp,sp,-16
 800ddf2:	c622                	sw	s0,12(sp)
 800ddf4:	c426                	sw	s1,8(sp)
 800ddf6:	0800                	addi	s0,sp,16
__enable_irq():
C:\Users\cymr9000p\Desktop\GD32\vw553\GD RISC-V MCU Debug/../Firmware/RISCV/drivers/core_feature_base.h:587
    __RV_CSR_SET(CSR_MSTATUS, MSTATUS_MIE);
 800ddf8:	44a1                	li	s1,8
 800ddfa:	3004a073          	csrs	mstatus,s1
C:\Users\cymr9000p\Desktop\GD32\vw553\GD RISC-V MCU Debug/../Firmware/RISCV/drivers/core_feature_base.h:588
}
 800ddfe:	0001                	nop
eclic_global_interrupt_enable():
C:\Users\cymr9000p\Desktop\GD32\vw553\GD RISC-V MCU Debug/../Firmware/GD32VW55x_standard_peripheral/Source/gd32vw55x_eclic.c:47
    __enable_irq();
}
 800de00:	0001                	nop
 800de02:	4432                	lw	s0,12(sp)
 800de04:	44a2                	lw	s1,8(sp)
 800de06:	0141                	addi	sp,sp,16
 800de08:	8082                	ret

0800de0a <eclic_level_threshold_set>:
eclic_level_threshold_set():
C:\Users\cymr9000p\Desktop\GD32\vw553\GD RISC-V MCU Debug/../Firmware/GD32VW55x_standard_peripheral/Source/gd32vw55x_eclic.c:67
    \param[in]  threshold: the level threshold needed to set (0 ~ 15)
    \param[out] none
    \retval     none
*/
void eclic_level_threshold_set(uint8_t threshold)
{
 800de0a:	7179                	addi	sp,sp,-48
 800de0c:	d622                	sw	s0,44(sp)
 800de0e:	1800                	addi	s0,sp,48
 800de10:	87aa                	mv	a5,a0
 800de12:	fcf40fa3          	sb	a5,-33(s0)
 800de16:	fdf44783          	lbu	a5,-33(s0)
 800de1a:	fef407a3          	sb	a5,-17(s0)
__ECLIC_SetMth():
C:\Users\cymr9000p\Desktop\GD32\vw553\GD RISC-V MCU Debug/../Firmware/RISCV/drivers/core_feature_eclic.h:338
    ECLIC->MTH = mth;
 800de1e:	d20007b7          	lui	a5,0xd2000
 800de22:	fef44703          	lbu	a4,-17(s0)
 800de26:	00e785a3          	sb	a4,11(a5) # d200000b <_sp+0xb1fb800b>
C:\Users\cymr9000p\Desktop\GD32\vw553\GD RISC-V MCU Debug/../Firmware/RISCV/drivers/core_feature_eclic.h:339
}
 800de2a:	0001                	nop
eclic_level_threshold_set():
C:\Users\cymr9000p\Desktop\GD32\vw553\GD RISC-V MCU Debug/../Firmware/GD32VW55x_standard_peripheral/Source/gd32vw55x_eclic.c:69
    ECLIC_SetMth(threshold);
}
 800de2c:	0001                	nop
 800de2e:	5432                	lw	s0,44(sp)
 800de30:	6145                	addi	sp,sp,48
 800de32:	8082                	ret

0800de34 <eclic_priority_group_set>:
eclic_priority_group_set():
C:\Users\cymr9000p\Desktop\GD32\vw553\GD RISC-V MCU Debug/../Firmware/GD32VW55x_standard_peripheral/Source/gd32vw55x_eclic.c:83
      \arg        ECLIC_PRIGROUP_LEVEL4_PRIO0
    \param[out] none
    \retval     none
*/
void eclic_priority_group_set(uint8_t prigroup)
{
 800de34:	7179                	addi	sp,sp,-48
 800de36:	d622                	sw	s0,44(sp)
 800de38:	1800                	addi	s0,sp,48
 800de3a:	87aa                	mv	a5,a0
 800de3c:	fcf40fa3          	sb	a5,-33(s0)
C:\Users\cymr9000p\Desktop\GD32\vw553\GD RISC-V MCU Debug/../Firmware/GD32VW55x_standard_peripheral/Source/gd32vw55x_eclic.c:84
    ECLIC_SetCfgNlbits(prigroup);
 800de40:	fdf44783          	lbu	a5,-33(s0)
 800de44:	fef42623          	sw	a5,-20(s0)
__ECLIC_SetCfgNlbits():
C:\Users\cymr9000p\Desktop\GD32\vw553\GD RISC-V MCU Debug/../Firmware/RISCV/drivers/core_feature_eclic.h:260
    ECLIC->CFG &= ~CLIC_CLICCFG_NLBIT_Msk;
 800de48:	d20007b7          	lui	a5,0xd2000
 800de4c:	0007c783          	lbu	a5,0(a5) # d2000000 <_sp+0xb1fb8000>
 800de50:	0ff7f713          	zext.b	a4,a5
 800de54:	d20007b7          	lui	a5,0xd2000
 800de58:	9b05                	andi	a4,a4,-31
 800de5a:	0ff77713          	zext.b	a4,a4
 800de5e:	00e78023          	sb	a4,0(a5) # d2000000 <_sp+0xb1fb8000>
C:\Users\cymr9000p\Desktop\GD32\vw553\GD RISC-V MCU Debug/../Firmware/RISCV/drivers/core_feature_eclic.h:261
    ECLIC->CFG |= (uint8_t)((nlbits <<CLIC_CLICCFG_NLBIT_Pos) & CLIC_CLICCFG_NLBIT_Msk);
 800de62:	d20007b7          	lui	a5,0xd2000
 800de66:	0007c783          	lbu	a5,0(a5) # d2000000 <_sp+0xb1fb8000>
 800de6a:	0ff7f793          	zext.b	a5,a5
 800de6e:	01879713          	slli	a4,a5,0x18
 800de72:	8761                	srai	a4,a4,0x18
 800de74:	fec42783          	lw	a5,-20(s0)
 800de78:	0ff7f793          	zext.b	a5,a5
 800de7c:	0786                	slli	a5,a5,0x1
 800de7e:	0ff7f793          	zext.b	a5,a5
 800de82:	07e2                	slli	a5,a5,0x18
 800de84:	87e1                	srai	a5,a5,0x18
 800de86:	8bf9                	andi	a5,a5,30
 800de88:	07e2                	slli	a5,a5,0x18
 800de8a:	87e1                	srai	a5,a5,0x18
 800de8c:	8fd9                	or	a5,a5,a4
 800de8e:	01879713          	slli	a4,a5,0x18
 800de92:	8761                	srai	a4,a4,0x18
 800de94:	d20007b7          	lui	a5,0xd2000
 800de98:	0ff77713          	zext.b	a4,a4
 800de9c:	00e78023          	sb	a4,0(a5) # d2000000 <_sp+0xb1fb8000>
C:\Users\cymr9000p\Desktop\GD32\vw553\GD RISC-V MCU Debug/../Firmware/RISCV/drivers/core_feature_eclic.h:262
}
 800dea0:	0001                	nop
eclic_priority_group_set():
C:\Users\cymr9000p\Desktop\GD32\vw553\GD RISC-V MCU Debug/../Firmware/GD32VW55x_standard_peripheral/Source/gd32vw55x_eclic.c:85
}
 800dea2:	0001                	nop
 800dea4:	5432                	lw	s0,44(sp)
 800dea6:	6145                	addi	sp,sp,48
 800dea8:	8082                	ret

0800deaa <eclic_irq_enable>:
eclic_irq_enable():
C:\Users\cymr9000p\Desktop\GD32\vw553\GD RISC-V MCU Debug/../Firmware/GD32VW55x_standard_peripheral/Source/gd32vw55x_eclic.c:96
    \param[in]  priority: the priority needed to set (maximum is 15, refer to the priority group)
    \param[out] none
    \retval     none
*/
void eclic_irq_enable(IRQn_Type source, uint8_t level, uint8_t priority)
{
 800deaa:	711d                	addi	sp,sp,-96
 800deac:	cea2                	sw	s0,92(sp)
 800deae:	1080                	addi	s0,sp,96
 800deb0:	faa42623          	sw	a0,-84(s0)
 800deb4:	87ae                	mv	a5,a1
 800deb6:	8732                	mv	a4,a2
 800deb8:	faf405a3          	sb	a5,-85(s0)
 800debc:	87ba                	mv	a5,a4
 800debe:	faf40523          	sb	a5,-86(s0)
 800dec2:	fac42783          	lw	a5,-84(s0)
 800dec6:	fcf42623          	sw	a5,-52(s0)
 800deca:	fab44783          	lbu	a5,-85(s0)
 800dece:	fcf405a3          	sb	a5,-53(s0)
__ECLIC_GetCfgNlbits():
C:\Users\cymr9000p\Desktop\GD32\vw553\GD RISC-V MCU Debug/../Firmware/RISCV/drivers/core_feature_eclic.h:276
    return ((uint32_t)((ECLIC->CFG & CLIC_CLICCFG_NLBIT_Msk) >> CLIC_CLICCFG_NLBIT_Pos));
 800ded2:	d20007b7          	lui	a5,0xd2000
 800ded6:	0007c783          	lbu	a5,0(a5) # d2000000 <_sp+0xb1fb8000>
 800deda:	0ff7f793          	zext.b	a5,a5
 800dede:	8385                	srli	a5,a5,0x1
 800dee0:	8bbd                	andi	a5,a5,15
__ECLIC_SetLevelIRQ():
C:\Users\cymr9000p\Desktop\GD32\vw553\GD RISC-V MCU Debug/../Firmware/RISCV/drivers/core_feature_eclic.h:584
 * \sa
 * - \ref ECLIC_GetLevelIRQ
 */
__STATIC_FORCEINLINE void __ECLIC_SetLevelIRQ(IRQn_Type IRQn, uint8_t lvl_abs)
{
    uint8_t nlbits = __ECLIC_GetCfgNlbits();
 800dee2:	fcf40523          	sb	a5,-54(s0)
C:\Users\cymr9000p\Desktop\GD32\vw553\GD RISC-V MCU Debug/../Firmware/RISCV/drivers/core_feature_eclic.h:585
    uint8_t intctlbits = (uint8_t)__ECLIC_INTCTLBITS;
 800dee6:	4791                	li	a5,4
 800dee8:	fcf404a3          	sb	a5,-55(s0)
C:\Users\cymr9000p\Desktop\GD32\vw553\GD RISC-V MCU Debug/../Firmware/RISCV/drivers/core_feature_eclic.h:587

    if (nlbits == 0) {
 800deec:	fca44783          	lbu	a5,-54(s0)
 800def0:	c7f1                	beqz	a5,800dfbc <eclic_irq_enable+0x112>
C:\Users\cymr9000p\Desktop\GD32\vw553\GD RISC-V MCU Debug/../Firmware/RISCV/drivers/core_feature_eclic.h:591
        return;
    }

    if (nlbits > intctlbits) {
 800def2:	fca44703          	lbu	a4,-54(s0)
 800def6:	fc944783          	lbu	a5,-55(s0)
 800defa:	00e7f663          	bgeu	a5,a4,800df06 <eclic_irq_enable+0x5c>
C:\Users\cymr9000p\Desktop\GD32\vw553\GD RISC-V MCU Debug/../Firmware/RISCV/drivers/core_feature_eclic.h:592
        nlbits = intctlbits;
 800defe:	fc944783          	lbu	a5,-55(s0)
 800df02:	fcf40523          	sb	a5,-54(s0)
C:\Users\cymr9000p\Desktop\GD32\vw553\GD RISC-V MCU Debug/../Firmware/RISCV/drivers/core_feature_eclic.h:594
    }
    uint8_t maxlvl = ((1 << nlbits) - 1);
 800df06:	fca44783          	lbu	a5,-54(s0)
 800df0a:	4705                	li	a4,1
 800df0c:	00f717b3          	sll	a5,a4,a5
 800df10:	0ff7f793          	zext.b	a5,a5
 800df14:	17fd                	addi	a5,a5,-1
 800df16:	fcf40423          	sb	a5,-56(s0)
C:\Users\cymr9000p\Desktop\GD32\vw553\GD RISC-V MCU Debug/../Firmware/RISCV/drivers/core_feature_eclic.h:595
    if (lvl_abs > maxlvl) {
 800df1a:	fcb44703          	lbu	a4,-53(s0)
 800df1e:	fc844783          	lbu	a5,-56(s0)
 800df22:	00e7f663          	bgeu	a5,a4,800df2e <eclic_irq_enable+0x84>
C:\Users\cymr9000p\Desktop\GD32\vw553\GD RISC-V MCU Debug/../Firmware/RISCV/drivers/core_feature_eclic.h:596
        lvl_abs = maxlvl;
 800df26:	fc844783          	lbu	a5,-56(s0)
 800df2a:	fcf405a3          	sb	a5,-53(s0)
C:\Users\cymr9000p\Desktop\GD32\vw553\GD RISC-V MCU Debug/../Firmware/RISCV/drivers/core_feature_eclic.h:598
    }
    uint8_t lvl = lvl_abs << (ECLIC_MAX_NLBITS - nlbits);
 800df2e:	fcb44703          	lbu	a4,-53(s0)
 800df32:	fca44783          	lbu	a5,-54(s0)
 800df36:	46a1                	li	a3,8
 800df38:	40f687b3          	sub	a5,a3,a5
 800df3c:	00f717b3          	sll	a5,a4,a5
 800df40:	fcf403a3          	sb	a5,-57(s0)
 800df44:	fcc42783          	lw	a5,-52(s0)
 800df48:	fcf42023          	sw	a5,-64(s0)
__ECLIC_GetCtrlIRQ():
C:\Users\cymr9000p\Desktop\GD32\vw553\GD RISC-V MCU Debug/../Firmware/RISCV/drivers/core_feature_eclic.h:564
    return (ECLIC->CTRL[IRQn].INTCTRL);
 800df4c:	d2000737          	lui	a4,0xd2000
 800df50:	fc042783          	lw	a5,-64(s0)
 800df54:	40078793          	addi	a5,a5,1024
 800df58:	078a                	slli	a5,a5,0x2
 800df5a:	97ba                	add	a5,a5,a4
 800df5c:	0037c783          	lbu	a5,3(a5)
 800df60:	0ff7f793          	zext.b	a5,a5
__ECLIC_SetLevelIRQ():
C:\Users\cymr9000p\Desktop\GD32\vw553\GD RISC-V MCU Debug/../Firmware/RISCV/drivers/core_feature_eclic.h:599
    uint8_t cur_ctrl = __ECLIC_GetCtrlIRQ(IRQn);
 800df64:	faf40fa3          	sb	a5,-65(s0)
C:\Users\cymr9000p\Desktop\GD32\vw553\GD RISC-V MCU Debug/../Firmware/RISCV/drivers/core_feature_eclic.h:600
    cur_ctrl = cur_ctrl << nlbits;
 800df68:	fbf44703          	lbu	a4,-65(s0)
 800df6c:	fca44783          	lbu	a5,-54(s0)
 800df70:	00f717b3          	sll	a5,a4,a5
 800df74:	faf40fa3          	sb	a5,-65(s0)
C:\Users\cymr9000p\Desktop\GD32\vw553\GD RISC-V MCU Debug/../Firmware/RISCV/drivers/core_feature_eclic.h:601
    cur_ctrl = cur_ctrl >> nlbits;
 800df78:	fbf44703          	lbu	a4,-65(s0)
 800df7c:	fca44783          	lbu	a5,-54(s0)
 800df80:	40f757b3          	sra	a5,a4,a5
 800df84:	faf40fa3          	sb	a5,-65(s0)
C:\Users\cymr9000p\Desktop\GD32\vw553\GD RISC-V MCU Debug/../Firmware/RISCV/drivers/core_feature_eclic.h:602
    __ECLIC_SetCtrlIRQ(IRQn, (cur_ctrl | lvl));
 800df88:	fc744703          	lbu	a4,-57(s0)
 800df8c:	fbf44783          	lbu	a5,-65(s0)
 800df90:	8fd9                	or	a5,a5,a4
 800df92:	0ff7f793          	zext.b	a5,a5
 800df96:	fcc42703          	lw	a4,-52(s0)
 800df9a:	fae42c23          	sw	a4,-72(s0)
 800df9e:	faf40ba3          	sb	a5,-73(s0)
__ECLIC_SetCtrlIRQ():
C:\Users\cymr9000p\Desktop\GD32\vw553\GD RISC-V MCU Debug/../Firmware/RISCV/drivers/core_feature_eclic.h:548
    ECLIC->CTRL[IRQn].INTCTRL = intctrl;
 800dfa2:	d2000737          	lui	a4,0xd2000
 800dfa6:	fb842783          	lw	a5,-72(s0)
 800dfaa:	40078793          	addi	a5,a5,1024
 800dfae:	078a                	slli	a5,a5,0x2
 800dfb0:	97ba                	add	a5,a5,a4
 800dfb2:	fb744703          	lbu	a4,-73(s0)
 800dfb6:	00e781a3          	sb	a4,3(a5)
C:\Users\cymr9000p\Desktop\GD32\vw553\GD RISC-V MCU Debug/../Firmware/RISCV/drivers/core_feature_eclic.h:549
}
 800dfba:	a011                	j	800dfbe <eclic_irq_enable+0x114>
__ECLIC_SetLevelIRQ():
C:\Users\cymr9000p\Desktop\GD32\vw553\GD RISC-V MCU Debug/../Firmware/RISCV/drivers/core_feature_eclic.h:588
        return;
 800dfbc:	0001                	nop
 800dfbe:	fac42783          	lw	a5,-84(s0)
 800dfc2:	fef42423          	sw	a5,-24(s0)
 800dfc6:	faa44783          	lbu	a5,-86(s0)
 800dfca:	fef403a3          	sb	a5,-25(s0)
__ECLIC_GetCfgNlbits():
C:\Users\cymr9000p\Desktop\GD32\vw553\GD RISC-V MCU Debug/../Firmware/RISCV/drivers/core_feature_eclic.h:276
    return ((uint32_t)((ECLIC->CFG & CLIC_CLICCFG_NLBIT_Msk) >> CLIC_CLICCFG_NLBIT_Pos));
 800dfce:	d20007b7          	lui	a5,0xd2000
 800dfd2:	0007c783          	lbu	a5,0(a5) # d2000000 <_sp+0xb1fb8000>
 800dfd6:	0ff7f793          	zext.b	a5,a5
 800dfda:	8385                	srli	a5,a5,0x1
 800dfdc:	8bbd                	andi	a5,a5,15
__ECLIC_SetPriorityIRQ():
C:\Users\cymr9000p\Desktop\GD32\vw553\GD RISC-V MCU Debug/../Firmware/RISCV/drivers/core_feature_eclic.h:649
 * \sa
 * - \ref ECLIC_GetPriorityIRQ
 */
__STATIC_FORCEINLINE void __ECLIC_SetPriorityIRQ(IRQn_Type IRQn, uint8_t pri)
{
    uint8_t nlbits = __ECLIC_GetCfgNlbits();
 800dfde:	fef40323          	sb	a5,-26(s0)
C:\Users\cymr9000p\Desktop\GD32\vw553\GD RISC-V MCU Debug/../Firmware/RISCV/drivers/core_feature_eclic.h:650
    uint8_t intctlbits = (uint8_t)__ECLIC_INTCTLBITS;
 800dfe2:	4791                	li	a5,4
 800dfe4:	fef402a3          	sb	a5,-27(s0)
C:\Users\cymr9000p\Desktop\GD32\vw553\GD RISC-V MCU Debug/../Firmware/RISCV/drivers/core_feature_eclic.h:651
    if (nlbits < intctlbits) {
 800dfe8:	fe644703          	lbu	a4,-26(s0)
 800dfec:	fe544783          	lbu	a5,-27(s0)
 800dff0:	0ef77663          	bgeu	a4,a5,800e0dc <eclic_irq_enable+0x232>
C:\Users\cymr9000p\Desktop\GD32\vw553\GD RISC-V MCU Debug/../Firmware/RISCV/drivers/core_feature_eclic.h:652
        uint8_t maxpri = ((1 << (intctlbits - nlbits)) - 1);
 800dff4:	fe544703          	lbu	a4,-27(s0)
 800dff8:	fe644783          	lbu	a5,-26(s0)
 800dffc:	40f707b3          	sub	a5,a4,a5
 800e000:	4705                	li	a4,1
 800e002:	00f717b3          	sll	a5,a4,a5
 800e006:	0ff7f793          	zext.b	a5,a5
 800e00a:	17fd                	addi	a5,a5,-1
 800e00c:	fef40223          	sb	a5,-28(s0)
C:\Users\cymr9000p\Desktop\GD32\vw553\GD RISC-V MCU Debug/../Firmware/RISCV/drivers/core_feature_eclic.h:653
        if (pri > maxpri) {
 800e010:	fe744703          	lbu	a4,-25(s0)
 800e014:	fe444783          	lbu	a5,-28(s0)
 800e018:	00e7f663          	bgeu	a5,a4,800e024 <eclic_irq_enable+0x17a>
C:\Users\cymr9000p\Desktop\GD32\vw553\GD RISC-V MCU Debug/../Firmware/RISCV/drivers/core_feature_eclic.h:654
            pri = maxpri;
 800e01c:	fe444783          	lbu	a5,-28(s0)
 800e020:	fef403a3          	sb	a5,-25(s0)
C:\Users\cymr9000p\Desktop\GD32\vw553\GD RISC-V MCU Debug/../Firmware/RISCV/drivers/core_feature_eclic.h:656
        }
        pri = pri << (ECLIC_MAX_NLBITS - intctlbits);
 800e024:	fe744703          	lbu	a4,-25(s0)
 800e028:	fe544783          	lbu	a5,-27(s0)
 800e02c:	46a1                	li	a3,8
 800e02e:	40f687b3          	sub	a5,a3,a5
 800e032:	00f717b3          	sll	a5,a4,a5
 800e036:	fef403a3          	sb	a5,-25(s0)
C:\Users\cymr9000p\Desktop\GD32\vw553\GD RISC-V MCU Debug/../Firmware/RISCV/drivers/core_feature_eclic.h:657
        uint8_t mask = ((uint8_t)(-1)) >> intctlbits;
 800e03a:	fe544783          	lbu	a5,-27(s0)
 800e03e:	0ff00713          	li	a4,255
 800e042:	40f757b3          	sra	a5,a4,a5
 800e046:	fef401a3          	sb	a5,-29(s0)
C:\Users\cymr9000p\Desktop\GD32\vw553\GD RISC-V MCU Debug/../Firmware/RISCV/drivers/core_feature_eclic.h:658
        pri = pri | mask;
 800e04a:	fe744703          	lbu	a4,-25(s0)
 800e04e:	fe344783          	lbu	a5,-29(s0)
 800e052:	8fd9                	or	a5,a5,a4
 800e054:	fef403a3          	sb	a5,-25(s0)
 800e058:	fe842783          	lw	a5,-24(s0)
 800e05c:	fcf42e23          	sw	a5,-36(s0)
__ECLIC_GetCtrlIRQ():
C:\Users\cymr9000p\Desktop\GD32\vw553\GD RISC-V MCU Debug/../Firmware/RISCV/drivers/core_feature_eclic.h:564
    return (ECLIC->CTRL[IRQn].INTCTRL);
 800e060:	d2000737          	lui	a4,0xd2000
 800e064:	fdc42783          	lw	a5,-36(s0)
 800e068:	40078793          	addi	a5,a5,1024
 800e06c:	078a                	slli	a5,a5,0x2
 800e06e:	97ba                	add	a5,a5,a4
 800e070:	0037c783          	lbu	a5,3(a5)
 800e074:	0ff7f793          	zext.b	a5,a5
__ECLIC_SetPriorityIRQ():
C:\Users\cymr9000p\Desktop\GD32\vw553\GD RISC-V MCU Debug/../Firmware/RISCV/drivers/core_feature_eclic.h:659
        uint8_t cur_ctrl = __ECLIC_GetCtrlIRQ(IRQn);
 800e078:	fcf40da3          	sb	a5,-37(s0)
C:\Users\cymr9000p\Desktop\GD32\vw553\GD RISC-V MCU Debug/../Firmware/RISCV/drivers/core_feature_eclic.h:660
        cur_ctrl = cur_ctrl >> (ECLIC_MAX_NLBITS - nlbits);
 800e07c:	fdb44703          	lbu	a4,-37(s0)
 800e080:	fe644783          	lbu	a5,-26(s0)
 800e084:	46a1                	li	a3,8
 800e086:	40f687b3          	sub	a5,a3,a5
 800e08a:	40f757b3          	sra	a5,a4,a5
 800e08e:	fcf40da3          	sb	a5,-37(s0)
C:\Users\cymr9000p\Desktop\GD32\vw553\GD RISC-V MCU Debug/../Firmware/RISCV/drivers/core_feature_eclic.h:661
        cur_ctrl = cur_ctrl << (ECLIC_MAX_NLBITS - nlbits);
 800e092:	fdb44703          	lbu	a4,-37(s0)
 800e096:	fe644783          	lbu	a5,-26(s0)
 800e09a:	46a1                	li	a3,8
 800e09c:	40f687b3          	sub	a5,a3,a5
 800e0a0:	00f717b3          	sll	a5,a4,a5
 800e0a4:	fcf40da3          	sb	a5,-37(s0)
C:\Users\cymr9000p\Desktop\GD32\vw553\GD RISC-V MCU Debug/../Firmware/RISCV/drivers/core_feature_eclic.h:662
        __ECLIC_SetCtrlIRQ(IRQn, (cur_ctrl | pri));
 800e0a8:	fe744703          	lbu	a4,-25(s0)
 800e0ac:	fdb44783          	lbu	a5,-37(s0)
 800e0b0:	8fd9                	or	a5,a5,a4
 800e0b2:	0ff7f793          	zext.b	a5,a5
 800e0b6:	fe842703          	lw	a4,-24(s0)
 800e0ba:	fce42a23          	sw	a4,-44(s0)
 800e0be:	fcf409a3          	sb	a5,-45(s0)
__ECLIC_SetCtrlIRQ():
C:\Users\cymr9000p\Desktop\GD32\vw553\GD RISC-V MCU Debug/../Firmware/RISCV/drivers/core_feature_eclic.h:548
    ECLIC->CTRL[IRQn].INTCTRL = intctrl;
 800e0c2:	d2000737          	lui	a4,0xd2000
 800e0c6:	fd442783          	lw	a5,-44(s0)
 800e0ca:	40078793          	addi	a5,a5,1024
 800e0ce:	078a                	slli	a5,a5,0x2
 800e0d0:	97ba                	add	a5,a5,a4
 800e0d2:	fd344703          	lbu	a4,-45(s0)
 800e0d6:	00e781a3          	sb	a4,3(a5)
C:\Users\cymr9000p\Desktop\GD32\vw553\GD RISC-V MCU Debug/../Firmware/RISCV/drivers/core_feature_eclic.h:549
}
 800e0da:	0001                	nop
__ECLIC_SetPriorityIRQ():
C:\Users\cymr9000p\Desktop\GD32\vw553\GD RISC-V MCU Debug/../Firmware/RISCV/drivers/core_feature_eclic.h:664
    }
}
 800e0dc:	0001                	nop
 800e0de:	fac42783          	lw	a5,-84(s0)
 800e0e2:	fef42623          	sw	a5,-20(s0)
__ECLIC_EnableIRQ():
C:\Users\cymr9000p\Desktop\GD32\vw553\GD RISC-V MCU Debug/../Firmware/RISCV/drivers/core_feature_eclic.h:367
    ECLIC->CTRL[IRQn].INTIE |= CLIC_INTIE_IE_Msk;
 800e0e6:	d2000737          	lui	a4,0xd2000
 800e0ea:	fec42783          	lw	a5,-20(s0)
 800e0ee:	40078793          	addi	a5,a5,1024
 800e0f2:	078a                	slli	a5,a5,0x2
 800e0f4:	97ba                	add	a5,a5,a4
 800e0f6:	0017c783          	lbu	a5,1(a5)
 800e0fa:	0ff7f793          	zext.b	a5,a5
 800e0fe:	d20006b7          	lui	a3,0xd2000
 800e102:	0017e793          	ori	a5,a5,1
 800e106:	0ff7f713          	zext.b	a4,a5
 800e10a:	fec42783          	lw	a5,-20(s0)
 800e10e:	40078793          	addi	a5,a5,1024
 800e112:	078a                	slli	a5,a5,0x2
 800e114:	97b6                	add	a5,a5,a3
 800e116:	00e780a3          	sb	a4,1(a5)
C:\Users\cymr9000p\Desktop\GD32\vw553\GD RISC-V MCU Debug/../Firmware/RISCV/drivers/core_feature_eclic.h:368
}
 800e11a:	0001                	nop
eclic_irq_enable():
C:\Users\cymr9000p\Desktop\GD32\vw553\GD RISC-V MCU Debug/../Firmware/GD32VW55x_standard_peripheral/Source/gd32vw55x_eclic.c:101
    /* level trigger, non-vector mode */
    ECLIC_SetLevelIRQ(source, level);
    ECLIC_SetPriorityIRQ(source, priority);
    ECLIC_EnableIRQ(source);
}
 800e11c:	0001                	nop
 800e11e:	4476                	lw	s0,92(sp)
 800e120:	6125                	addi	sp,sp,96
 800e122:	8082                	ret

0800e124 <gpio_mode_set>:
gpio_mode_set():
C:\Users\cymr9000p\Desktop\GD32\vw553\GD RISC-V MCU Debug/../Firmware/GD32VW55x_standard_peripheral/Source/gd32vw55x_gpio.c:91
      \arg        GPIO_PIN_x(x=0..15), GPIO_PIN_ALL
    \param[out] none
    \retval     none
*/
void gpio_mode_set(uint32_t gpio_periph, uint32_t mode, uint32_t pull_up_down, uint32_t pin)
{
 800e124:	7179                	addi	sp,sp,-48
 800e126:	d622                	sw	s0,44(sp)
 800e128:	1800                	addi	s0,sp,48
 800e12a:	fca42e23          	sw	a0,-36(s0)
 800e12e:	fcb42c23          	sw	a1,-40(s0)
 800e132:	fcc42a23          	sw	a2,-44(s0)
 800e136:	fcd42823          	sw	a3,-48(s0)
C:\Users\cymr9000p\Desktop\GD32\vw553\GD RISC-V MCU Debug/../Firmware/GD32VW55x_standard_peripheral/Source/gd32vw55x_gpio.c:95
    uint16_t i;
    uint32_t ctl, pupd;

    ctl = GPIO_CTL(gpio_periph);
 800e13a:	fdc42783          	lw	a5,-36(s0)
 800e13e:	439c                	lw	a5,0(a5)
 800e140:	fef42423          	sw	a5,-24(s0)
C:\Users\cymr9000p\Desktop\GD32\vw553\GD RISC-V MCU Debug/../Firmware/GD32VW55x_standard_peripheral/Source/gd32vw55x_gpio.c:96
    pupd = GPIO_PUD(gpio_periph);
 800e144:	fdc42783          	lw	a5,-36(s0)
 800e148:	07b1                	addi	a5,a5,12
 800e14a:	439c                	lw	a5,0(a5)
 800e14c:	fef42223          	sw	a5,-28(s0)
C:\Users\cymr9000p\Desktop\GD32\vw553\GD RISC-V MCU Debug/../Firmware/GD32VW55x_standard_peripheral/Source/gd32vw55x_gpio.c:98

    for(i = 0U; i < 16U; i++) {
 800e150:	fe041723          	sh	zero,-18(s0)
 800e154:	a049                	j	800e1d6 <gpio_mode_set+0xb2>
C:\Users\cymr9000p\Desktop\GD32\vw553\GD RISC-V MCU Debug/../Firmware/GD32VW55x_standard_peripheral/Source/gd32vw55x_gpio.c:99
        if((1U << i) & pin) {
 800e156:	fee45783          	lhu	a5,-18(s0)
 800e15a:	4705                	li	a4,1
 800e15c:	00f71733          	sll	a4,a4,a5
 800e160:	fd042783          	lw	a5,-48(s0)
 800e164:	8ff9                	and	a5,a5,a4
 800e166:	c3bd                	beqz	a5,800e1cc <gpio_mode_set+0xa8>
C:\Users\cymr9000p\Desktop\GD32\vw553\GD RISC-V MCU Debug/../Firmware/GD32VW55x_standard_peripheral/Source/gd32vw55x_gpio.c:101
            /* clear the specified pin mode bits */
            ctl &= ~GPIO_MODE_MASK(i);
 800e168:	fee45783          	lhu	a5,-18(s0)
 800e16c:	0786                	slli	a5,a5,0x1
 800e16e:	470d                	li	a4,3
 800e170:	00f717b3          	sll	a5,a4,a5
 800e174:	fff7c793          	not	a5,a5
 800e178:	fe842703          	lw	a4,-24(s0)
 800e17c:	8ff9                	and	a5,a5,a4
 800e17e:	fef42423          	sw	a5,-24(s0)
C:\Users\cymr9000p\Desktop\GD32\vw553\GD RISC-V MCU Debug/../Firmware/GD32VW55x_standard_peripheral/Source/gd32vw55x_gpio.c:103
            /* set the specified pin mode bits */
            ctl |= GPIO_MODE_SET(i, mode);
 800e182:	fee45783          	lhu	a5,-18(s0)
 800e186:	0786                	slli	a5,a5,0x1
 800e188:	fd842703          	lw	a4,-40(s0)
 800e18c:	00f717b3          	sll	a5,a4,a5
 800e190:	fe842703          	lw	a4,-24(s0)
 800e194:	8fd9                	or	a5,a5,a4
 800e196:	fef42423          	sw	a5,-24(s0)
C:\Users\cymr9000p\Desktop\GD32\vw553\GD RISC-V MCU Debug/../Firmware/GD32VW55x_standard_peripheral/Source/gd32vw55x_gpio.c:106

            /* clear the specified pin pupd bits */
            pupd &= ~GPIO_PUPD_MASK(i);
 800e19a:	fee45783          	lhu	a5,-18(s0)
 800e19e:	0786                	slli	a5,a5,0x1
 800e1a0:	470d                	li	a4,3
 800e1a2:	00f717b3          	sll	a5,a4,a5
 800e1a6:	fff7c793          	not	a5,a5
 800e1aa:	fe442703          	lw	a4,-28(s0)
 800e1ae:	8ff9                	and	a5,a5,a4
 800e1b0:	fef42223          	sw	a5,-28(s0)
C:\Users\cymr9000p\Desktop\GD32\vw553\GD RISC-V MCU Debug/../Firmware/GD32VW55x_standard_peripheral/Source/gd32vw55x_gpio.c:108
            /* set the specified pin pupd bits */
            pupd |= GPIO_PUPD_SET(i, pull_up_down);
 800e1b4:	fee45783          	lhu	a5,-18(s0)
 800e1b8:	0786                	slli	a5,a5,0x1
 800e1ba:	fd442703          	lw	a4,-44(s0)
 800e1be:	00f717b3          	sll	a5,a4,a5
 800e1c2:	fe442703          	lw	a4,-28(s0)
 800e1c6:	8fd9                	or	a5,a5,a4
 800e1c8:	fef42223          	sw	a5,-28(s0)
C:\Users\cymr9000p\Desktop\GD32\vw553\GD RISC-V MCU Debug/../Firmware/GD32VW55x_standard_peripheral/Source/gd32vw55x_gpio.c:98 (discriminator 2)
    for(i = 0U; i < 16U; i++) {
 800e1cc:	fee45783          	lhu	a5,-18(s0)
 800e1d0:	0785                	addi	a5,a5,1
 800e1d2:	fef41723          	sh	a5,-18(s0)
C:\Users\cymr9000p\Desktop\GD32\vw553\GD RISC-V MCU Debug/../Firmware/GD32VW55x_standard_peripheral/Source/gd32vw55x_gpio.c:98 (discriminator 1)
 800e1d6:	fee45703          	lhu	a4,-18(s0)
 800e1da:	47bd                	li	a5,15
 800e1dc:	f6e7fde3          	bgeu	a5,a4,800e156 <gpio_mode_set+0x32>
C:\Users\cymr9000p\Desktop\GD32\vw553\GD RISC-V MCU Debug/../Firmware/GD32VW55x_standard_peripheral/Source/gd32vw55x_gpio.c:112
        }
    }

    GPIO_CTL(gpio_periph) = ctl;
 800e1e0:	fdc42783          	lw	a5,-36(s0)
 800e1e4:	fe842703          	lw	a4,-24(s0)
 800e1e8:	c398                	sw	a4,0(a5)
C:\Users\cymr9000p\Desktop\GD32\vw553\GD RISC-V MCU Debug/../Firmware/GD32VW55x_standard_peripheral/Source/gd32vw55x_gpio.c:113
    GPIO_PUD(gpio_periph) = pupd;
 800e1ea:	fdc42783          	lw	a5,-36(s0)
 800e1ee:	07b1                	addi	a5,a5,12
 800e1f0:	873e                	mv	a4,a5
 800e1f2:	fe442783          	lw	a5,-28(s0)
 800e1f6:	c31c                	sw	a5,0(a4)
C:\Users\cymr9000p\Desktop\GD32\vw553\GD RISC-V MCU Debug/../Firmware/GD32VW55x_standard_peripheral/Source/gd32vw55x_gpio.c:114
}
 800e1f8:	0001                	nop
 800e1fa:	5432                	lw	s0,44(sp)
 800e1fc:	6145                	addi	sp,sp,48
 800e1fe:	8082                	ret

0800e200 <gpio_output_options_set>:
gpio_output_options_set():
C:\Users\cymr9000p\Desktop\GD32\vw553\GD RISC-V MCU Debug/../Firmware/GD32VW55x_standard_peripheral/Source/gd32vw55x_gpio.c:138
      \arg        GPIO_PIN_x(x=0..15), GPIO_PIN_ALL
    \param[out] none
    \retval     none
*/
void gpio_output_options_set(uint32_t gpio_periph, uint8_t otype, uint32_t speed, uint32_t pin)
{
 800e200:	7179                	addi	sp,sp,-48
 800e202:	d622                	sw	s0,44(sp)
 800e204:	1800                	addi	s0,sp,48
 800e206:	fca42e23          	sw	a0,-36(s0)
 800e20a:	87ae                	mv	a5,a1
 800e20c:	fcc42a23          	sw	a2,-44(s0)
 800e210:	fcd42823          	sw	a3,-48(s0)
 800e214:	fcf40da3          	sb	a5,-37(s0)
C:\Users\cymr9000p\Desktop\GD32\vw553\GD RISC-V MCU Debug/../Firmware/GD32VW55x_standard_peripheral/Source/gd32vw55x_gpio.c:142
    uint16_t i;
    uint32_t ospeed;

    if(GPIO_OTYPE_OD == otype) {
 800e218:	fdb44703          	lbu	a4,-37(s0)
 800e21c:	4785                	li	a5,1
 800e21e:	00f71f63          	bne	a4,a5,800e23c <gpio_output_options_set+0x3c>
C:\Users\cymr9000p\Desktop\GD32\vw553\GD RISC-V MCU Debug/../Firmware/GD32VW55x_standard_peripheral/Source/gd32vw55x_gpio.c:143
        GPIO_OMODE(gpio_periph) |= (uint32_t)pin;
 800e222:	fdc42783          	lw	a5,-36(s0)
 800e226:	0791                	addi	a5,a5,4
 800e228:	4398                	lw	a4,0(a5)
 800e22a:	fdc42783          	lw	a5,-36(s0)
 800e22e:	0791                	addi	a5,a5,4
 800e230:	86be                	mv	a3,a5
 800e232:	fd042783          	lw	a5,-48(s0)
 800e236:	8fd9                	or	a5,a5,a4
 800e238:	c29c                	sw	a5,0(a3)
 800e23a:	a831                	j	800e256 <gpio_output_options_set+0x56>
C:\Users\cymr9000p\Desktop\GD32\vw553\GD RISC-V MCU Debug/../Firmware/GD32VW55x_standard_peripheral/Source/gd32vw55x_gpio.c:145
    } else {
        GPIO_OMODE(gpio_periph) &= (uint32_t)(~pin);
 800e23c:	fdc42783          	lw	a5,-36(s0)
 800e240:	0791                	addi	a5,a5,4
 800e242:	4398                	lw	a4,0(a5)
 800e244:	fd042783          	lw	a5,-48(s0)
 800e248:	fff7c793          	not	a5,a5
 800e24c:	fdc42683          	lw	a3,-36(s0)
 800e250:	0691                	addi	a3,a3,4
 800e252:	8ff9                	and	a5,a5,a4
 800e254:	c29c                	sw	a5,0(a3)
C:\Users\cymr9000p\Desktop\GD32\vw553\GD RISC-V MCU Debug/../Firmware/GD32VW55x_standard_peripheral/Source/gd32vw55x_gpio.c:149
    }

    /* get the specified pin output speed bits value */
    ospeed = GPIO_OSPD(gpio_periph);
 800e256:	fdc42783          	lw	a5,-36(s0)
 800e25a:	07a1                	addi	a5,a5,8
 800e25c:	439c                	lw	a5,0(a5)
 800e25e:	fef42423          	sw	a5,-24(s0)
C:\Users\cymr9000p\Desktop\GD32\vw553\GD RISC-V MCU Debug/../Firmware/GD32VW55x_standard_peripheral/Source/gd32vw55x_gpio.c:151

    for(i = 0U; i < 16U; i++) {
 800e262:	fe041723          	sh	zero,-18(s0)
 800e266:	a881                	j	800e2b6 <gpio_output_options_set+0xb6>
C:\Users\cymr9000p\Desktop\GD32\vw553\GD RISC-V MCU Debug/../Firmware/GD32VW55x_standard_peripheral/Source/gd32vw55x_gpio.c:152
        if((1U << i) & pin) {
 800e268:	fee45783          	lhu	a5,-18(s0)
 800e26c:	4705                	li	a4,1
 800e26e:	00f71733          	sll	a4,a4,a5
 800e272:	fd042783          	lw	a5,-48(s0)
 800e276:	8ff9                	and	a5,a5,a4
 800e278:	cb95                	beqz	a5,800e2ac <gpio_output_options_set+0xac>
C:\Users\cymr9000p\Desktop\GD32\vw553\GD RISC-V MCU Debug/../Firmware/GD32VW55x_standard_peripheral/Source/gd32vw55x_gpio.c:154
            /* clear the specified pin output speed bits */
            ospeed &= ~GPIO_OSPEED_MASK(i);
 800e27a:	fee45783          	lhu	a5,-18(s0)
 800e27e:	0786                	slli	a5,a5,0x1
 800e280:	470d                	li	a4,3
 800e282:	00f717b3          	sll	a5,a4,a5
 800e286:	fff7c793          	not	a5,a5
 800e28a:	fe842703          	lw	a4,-24(s0)
 800e28e:	8ff9                	and	a5,a5,a4
 800e290:	fef42423          	sw	a5,-24(s0)
C:\Users\cymr9000p\Desktop\GD32\vw553\GD RISC-V MCU Debug/../Firmware/GD32VW55x_standard_peripheral/Source/gd32vw55x_gpio.c:156
            /* set the specified pin output speed bits */
            ospeed |= GPIO_OSPEED_SET(i, speed);
 800e294:	fee45783          	lhu	a5,-18(s0)
 800e298:	0786                	slli	a5,a5,0x1
 800e29a:	fd442703          	lw	a4,-44(s0)
 800e29e:	00f717b3          	sll	a5,a4,a5
 800e2a2:	fe842703          	lw	a4,-24(s0)
 800e2a6:	8fd9                	or	a5,a5,a4
 800e2a8:	fef42423          	sw	a5,-24(s0)
C:\Users\cymr9000p\Desktop\GD32\vw553\GD RISC-V MCU Debug/../Firmware/GD32VW55x_standard_peripheral/Source/gd32vw55x_gpio.c:151 (discriminator 2)
    for(i = 0U; i < 16U; i++) {
 800e2ac:	fee45783          	lhu	a5,-18(s0)
 800e2b0:	0785                	addi	a5,a5,1
 800e2b2:	fef41723          	sh	a5,-18(s0)
C:\Users\cymr9000p\Desktop\GD32\vw553\GD RISC-V MCU Debug/../Firmware/GD32VW55x_standard_peripheral/Source/gd32vw55x_gpio.c:151 (discriminator 1)
 800e2b6:	fee45703          	lhu	a4,-18(s0)
 800e2ba:	47bd                	li	a5,15
 800e2bc:	fae7f6e3          	bgeu	a5,a4,800e268 <gpio_output_options_set+0x68>
C:\Users\cymr9000p\Desktop\GD32\vw553\GD RISC-V MCU Debug/../Firmware/GD32VW55x_standard_peripheral/Source/gd32vw55x_gpio.c:160
        }
    }

    GPIO_OSPD(gpio_periph) = ospeed;
 800e2c0:	fdc42783          	lw	a5,-36(s0)
 800e2c4:	07a1                	addi	a5,a5,8
 800e2c6:	873e                	mv	a4,a5
 800e2c8:	fe842783          	lw	a5,-24(s0)
 800e2cc:	c31c                	sw	a5,0(a4)
C:\Users\cymr9000p\Desktop\GD32\vw553\GD RISC-V MCU Debug/../Firmware/GD32VW55x_standard_peripheral/Source/gd32vw55x_gpio.c:161
}
 800e2ce:	0001                	nop
 800e2d0:	5432                	lw	s0,44(sp)
 800e2d2:	6145                	addi	sp,sp,48
 800e2d4:	8082                	ret

0800e2d6 <gpio_bit_set>:
gpio_bit_set():
C:\Users\cymr9000p\Desktop\GD32\vw553\GD RISC-V MCU Debug/../Firmware/GD32VW55x_standard_peripheral/Source/gd32vw55x_gpio.c:175
      \arg        GPIO_PIN_x(x=0..15), GPIO_PIN_ALL
    \param[out] none
    \retval     none
*/
void gpio_bit_set(uint32_t gpio_periph, uint32_t pin)
{
 800e2d6:	1101                	addi	sp,sp,-32
 800e2d8:	ce22                	sw	s0,28(sp)
 800e2da:	1000                	addi	s0,sp,32
 800e2dc:	fea42623          	sw	a0,-20(s0)
 800e2e0:	feb42423          	sw	a1,-24(s0)
C:\Users\cymr9000p\Desktop\GD32\vw553\GD RISC-V MCU Debug/../Firmware/GD32VW55x_standard_peripheral/Source/gd32vw55x_gpio.c:176
    GPIO_BOP(gpio_periph) = (uint32_t)pin;
 800e2e4:	fec42783          	lw	a5,-20(s0)
 800e2e8:	07e1                	addi	a5,a5,24
 800e2ea:	873e                	mv	a4,a5
 800e2ec:	fe842783          	lw	a5,-24(s0)
 800e2f0:	c31c                	sw	a5,0(a4)
C:\Users\cymr9000p\Desktop\GD32\vw553\GD RISC-V MCU Debug/../Firmware/GD32VW55x_standard_peripheral/Source/gd32vw55x_gpio.c:177
}
 800e2f2:	0001                	nop
 800e2f4:	4472                	lw	s0,28(sp)
 800e2f6:	6105                	addi	sp,sp,32
 800e2f8:	8082                	ret

0800e2fa <gpio_bit_reset>:
gpio_bit_reset():
C:\Users\cymr9000p\Desktop\GD32\vw553\GD RISC-V MCU Debug/../Firmware/GD32VW55x_standard_peripheral/Source/gd32vw55x_gpio.c:191
      \arg        GPIO_PIN_x(x=0..15), GPIO_PIN_ALL
    \param[out] none
    \retval     none
*/
void gpio_bit_reset(uint32_t gpio_periph, uint32_t pin)
{
 800e2fa:	1101                	addi	sp,sp,-32
 800e2fc:	ce22                	sw	s0,28(sp)
 800e2fe:	1000                	addi	s0,sp,32
 800e300:	fea42623          	sw	a0,-20(s0)
 800e304:	feb42423          	sw	a1,-24(s0)
C:\Users\cymr9000p\Desktop\GD32\vw553\GD RISC-V MCU Debug/../Firmware/GD32VW55x_standard_peripheral/Source/gd32vw55x_gpio.c:192
    GPIO_BC(gpio_periph) = (uint32_t)pin;
 800e308:	fec42783          	lw	a5,-20(s0)
 800e30c:	02878793          	addi	a5,a5,40
 800e310:	873e                	mv	a4,a5
 800e312:	fe842783          	lw	a5,-24(s0)
 800e316:	c31c                	sw	a5,0(a4)
C:\Users\cymr9000p\Desktop\GD32\vw553\GD RISC-V MCU Debug/../Firmware/GD32VW55x_standard_peripheral/Source/gd32vw55x_gpio.c:193
}
 800e318:	0001                	nop
 800e31a:	4472                	lw	s0,28(sp)
 800e31c:	6105                	addi	sp,sp,32
 800e31e:	8082                	ret

0800e320 <rcu_periph_clock_enable>:
rcu_periph_clock_enable():
C:\Users\cymr9000p\Desktop\GD32\vw553\GD RISC-V MCU Debug/../Firmware/GD32VW55x_standard_peripheral/Source/gd32vw55x_rcu.c:136
      \arg        RCU_RF: RF clock
    \param[out] none
    \retval     none
*/
void rcu_periph_clock_enable(rcu_periph_enum periph)
{
 800e320:	1101                	addi	sp,sp,-32
 800e322:	ce22                	sw	s0,28(sp)
 800e324:	1000                	addi	s0,sp,32
 800e326:	fea42623          	sw	a0,-20(s0)
C:\Users\cymr9000p\Desktop\GD32\vw553\GD RISC-V MCU Debug/../Firmware/GD32VW55x_standard_peripheral/Source/gd32vw55x_rcu.c:137
    RCU_REG_VAL(periph) |= BIT(RCU_BIT_POS(periph));
 800e32a:	fec42783          	lw	a5,-20(s0)
 800e32e:	0067d713          	srli	a4,a5,0x6
 800e332:	400247b7          	lui	a5,0x40024
 800e336:	80078793          	addi	a5,a5,-2048 # 40023800 <_sp+0x1ffdb800>
 800e33a:	97ba                	add	a5,a5,a4
 800e33c:	4398                	lw	a4,0(a5)
 800e33e:	fec42783          	lw	a5,-20(s0)
 800e342:	8bfd                	andi	a5,a5,31
 800e344:	4685                	li	a3,1
 800e346:	00f697b3          	sll	a5,a3,a5
 800e34a:	fec42683          	lw	a3,-20(s0)
 800e34e:	0066d613          	srli	a2,a3,0x6
 800e352:	400246b7          	lui	a3,0x40024
 800e356:	80068693          	addi	a3,a3,-2048 # 40023800 <_sp+0x1ffdb800>
 800e35a:	96b2                	add	a3,a3,a2
 800e35c:	8fd9                	or	a5,a5,a4
 800e35e:	c29c                	sw	a5,0(a3)
C:\Users\cymr9000p\Desktop\GD32\vw553\GD RISC-V MCU Debug/../Firmware/GD32VW55x_standard_peripheral/Source/gd32vw55x_rcu.c:138
}
 800e360:	0001                	nop
 800e362:	4472                	lw	s0,28(sp)
 800e364:	6105                	addi	sp,sp,32
 800e366:	8082                	ret

0800e368 <_soft_delay_>:
_soft_delay_():
C:\Users\cymr9000p\Desktop\GD32\vw553\GD RISC-V MCU Debug/../Firmware/GD32VW55x_standard_peripheral/system_gd32vw55x.c:104
/* configure the system clock */
static void system_clock_config(void);
/* software delay to prevent the impact of Vcore fluctuations.
   It is strongly recommended to include it to avoid issues caused by self-removal. */
static void _soft_delay_(uint32_t time)
{
 800e368:	7179                	addi	sp,sp,-48
 800e36a:	d622                	sw	s0,44(sp)
 800e36c:	1800                	addi	s0,sp,48
 800e36e:	fca42e23          	sw	a0,-36(s0)
C:\Users\cymr9000p\Desktop\GD32\vw553\GD RISC-V MCU Debug/../Firmware/GD32VW55x_standard_peripheral/system_gd32vw55x.c:106
    __IO uint32_t i;
    for(i=0; i<time*10; i++){
 800e372:	fe042623          	sw	zero,-20(s0)
 800e376:	a031                	j	800e382 <_soft_delay_+0x1a>
C:\Users\cymr9000p\Desktop\GD32\vw553\GD RISC-V MCU Debug/../Firmware/GD32VW55x_standard_peripheral/system_gd32vw55x.c:106 (discriminator 3)
 800e378:	fec42783          	lw	a5,-20(s0)
 800e37c:	0785                	addi	a5,a5,1
 800e37e:	fef42623          	sw	a5,-20(s0)
C:\Users\cymr9000p\Desktop\GD32\vw553\GD RISC-V MCU Debug/../Firmware/GD32VW55x_standard_peripheral/system_gd32vw55x.c:106 (discriminator 1)
 800e382:	fdc42703          	lw	a4,-36(s0)
 800e386:	87ba                	mv	a5,a4
 800e388:	078a                	slli	a5,a5,0x2
 800e38a:	97ba                	add	a5,a5,a4
 800e38c:	0786                	slli	a5,a5,0x1
 800e38e:	873e                	mv	a4,a5
 800e390:	fec42783          	lw	a5,-20(s0)
 800e394:	fee7e2e3          	bltu	a5,a4,800e378 <_soft_delay_+0x10>
C:\Users\cymr9000p\Desktop\GD32\vw553\GD RISC-V MCU Debug/../Firmware/GD32VW55x_standard_peripheral/system_gd32vw55x.c:108
    }
}
 800e398:	0001                	nop
 800e39a:	0001                	nop
 800e39c:	5432                	lw	s0,44(sp)
 800e39e:	6145                	addi	sp,sp,48
 800e3a0:	8082                	ret

0800e3a2 <SystemInit>:
SystemInit():
C:\Users\cymr9000p\Desktop\GD32\vw553\GD RISC-V MCU Debug/../Firmware/GD32VW55x_standard_peripheral/system_gd32vw55x.c:117
    \param[in]  none
    \param[out] none
    \retval     none
*/
void SystemInit (void)
{
 800e3a2:	1101                	addi	sp,sp,-32
 800e3a4:	ce06                	sw	ra,28(sp)
 800e3a6:	cc22                	sw	s0,24(sp)
 800e3a8:	1000                	addi	s0,sp,32
C:\Users\cymr9000p\Desktop\GD32\vw553\GD RISC-V MCU Debug/../Firmware/GD32VW55x_standard_peripheral/system_gd32vw55x.c:120
    /* reset the RCU clock configuration to the default reset state */
    /* set IRC16MEN bit */
    RCU_CTL |= RCU_CTL_IRC16MEN;
 800e3aa:	400247b7          	lui	a5,0x40024
 800e3ae:	80078793          	addi	a5,a5,-2048 # 40023800 <_sp+0x1ffdb800>
 800e3b2:	4398                	lw	a4,0(a5)
 800e3b4:	400247b7          	lui	a5,0x40024
 800e3b8:	80078793          	addi	a5,a5,-2048 # 40023800 <_sp+0x1ffdb800>
 800e3bc:	00176713          	ori	a4,a4,1
 800e3c0:	c398                	sw	a4,0(a5)
C:\Users\cymr9000p\Desktop\GD32\vw553\GD RISC-V MCU Debug/../Firmware/GD32VW55x_standard_peripheral/system_gd32vw55x.c:121
    while(0U == (RCU_CTL & RCU_CTL_IRC16MSTB)){
 800e3c2:	0001                	nop
C:\Users\cymr9000p\Desktop\GD32\vw553\GD RISC-V MCU Debug/../Firmware/GD32VW55x_standard_peripheral/system_gd32vw55x.c:121 (discriminator 1)
 800e3c4:	400247b7          	lui	a5,0x40024
 800e3c8:	80078793          	addi	a5,a5,-2048 # 40023800 <_sp+0x1ffdb800>
 800e3cc:	439c                	lw	a5,0(a5)
 800e3ce:	8b89                	andi	a5,a5,2
 800e3d0:	dbf5                	beqz	a5,800e3c4 <SystemInit+0x22>
C:\Users\cymr9000p\Desktop\GD32\vw553\GD RISC-V MCU Debug/../Firmware/GD32VW55x_standard_peripheral/system_gd32vw55x.c:123
    }
    if(((RCU_CFG0 & RCU_CFG0_SCSS) == RCU_SCSS_PLLDIG)){
 800e3d2:	400247b7          	lui	a5,0x40024
 800e3d6:	80878793          	addi	a5,a5,-2040 # 40023808 <_sp+0x1ffdb808>
 800e3da:	439c                	lw	a5,0(a5)
 800e3dc:	00c7f713          	andi	a4,a5,12
 800e3e0:	47a1                	li	a5,8
 800e3e2:	0cf71063          	bne	a4,a5,800e4a2 <SystemInit+0x100>
C:\Users\cymr9000p\Desktop\GD32\vw553\GD RISC-V MCU Debug/../Firmware/GD32VW55x_standard_peripheral/system_gd32vw55x.c:124 (discriminator 1)
        RCU_MODIFY(0x50);
 800e3e6:	fe042623          	sw	zero,-20(s0)
 800e3ea:	a031                	j	800e3f6 <SystemInit+0x54>
C:\Users\cymr9000p\Desktop\GD32\vw553\GD RISC-V MCU Debug/../Firmware/GD32VW55x_standard_peripheral/system_gd32vw55x.c:124 (discriminator 4)
 800e3ec:	fec42783          	lw	a5,-20(s0)
 800e3f0:	0785                	addi	a5,a5,1
 800e3f2:	fef42623          	sw	a5,-20(s0)
C:\Users\cymr9000p\Desktop\GD32\vw553\GD RISC-V MCU Debug/../Firmware/GD32VW55x_standard_peripheral/system_gd32vw55x.c:124 (discriminator 2)
 800e3f6:	fec42703          	lw	a4,-20(s0)
 800e3fa:	04f00793          	li	a5,79
 800e3fe:	fee7f7e3          	bgeu	a5,a4,800e3ec <SystemInit+0x4a>
C:\Users\cymr9000p\Desktop\GD32\vw553\GD RISC-V MCU Debug/../Firmware/GD32VW55x_standard_peripheral/system_gd32vw55x.c:124 (discriminator 5)
 800e402:	400247b7          	lui	a5,0x40024
 800e406:	80878793          	addi	a5,a5,-2040 # 40023808 <_sp+0x1ffdb808>
 800e40a:	439c                	lw	a5,0(a5)
 800e40c:	fef42423          	sw	a5,-24(s0)
 800e410:	fe842783          	lw	a5,-24(s0)
 800e414:	f7f7f793          	andi	a5,a5,-129
 800e418:	fef42423          	sw	a5,-24(s0)
 800e41c:	fe842783          	lw	a5,-24(s0)
 800e420:	0807e793          	ori	a5,a5,128
 800e424:	fef42423          	sw	a5,-24(s0)
 800e428:	400247b7          	lui	a5,0x40024
 800e42c:	80878793          	addi	a5,a5,-2040 # 40023808 <_sp+0x1ffdb808>
 800e430:	fe842703          	lw	a4,-24(s0)
 800e434:	c398                	sw	a4,0(a5)
 800e436:	fe042623          	sw	zero,-20(s0)
 800e43a:	a031                	j	800e446 <SystemInit+0xa4>
C:\Users\cymr9000p\Desktop\GD32\vw553\GD RISC-V MCU Debug/../Firmware/GD32VW55x_standard_peripheral/system_gd32vw55x.c:124 (discriminator 8)
 800e43c:	fec42783          	lw	a5,-20(s0)
 800e440:	0785                	addi	a5,a5,1
 800e442:	fef42623          	sw	a5,-20(s0)
C:\Users\cymr9000p\Desktop\GD32\vw553\GD RISC-V MCU Debug/../Firmware/GD32VW55x_standard_peripheral/system_gd32vw55x.c:124 (discriminator 6)
 800e446:	fec42703          	lw	a4,-20(s0)
 800e44a:	04f00793          	li	a5,79
 800e44e:	fee7f7e3          	bgeu	a5,a4,800e43c <SystemInit+0x9a>
C:\Users\cymr9000p\Desktop\GD32\vw553\GD RISC-V MCU Debug/../Firmware/GD32VW55x_standard_peripheral/system_gd32vw55x.c:124 (discriminator 9)
 800e452:	400247b7          	lui	a5,0x40024
 800e456:	80878793          	addi	a5,a5,-2040 # 40023808 <_sp+0x1ffdb808>
 800e45a:	439c                	lw	a5,0(a5)
 800e45c:	fef42423          	sw	a5,-24(s0)
 800e460:	fe842783          	lw	a5,-24(s0)
 800e464:	f6f7f793          	andi	a5,a5,-145
 800e468:	fef42423          	sw	a5,-24(s0)
 800e46c:	fe842783          	lw	a5,-24(s0)
 800e470:	0907e793          	ori	a5,a5,144
 800e474:	fef42423          	sw	a5,-24(s0)
 800e478:	400247b7          	lui	a5,0x40024
 800e47c:	80878793          	addi	a5,a5,-2040 # 40023808 <_sp+0x1ffdb808>
 800e480:	fe842703          	lw	a4,-24(s0)
 800e484:	c398                	sw	a4,0(a5)
 800e486:	fe042623          	sw	zero,-20(s0)
 800e48a:	a031                	j	800e496 <SystemInit+0xf4>
C:\Users\cymr9000p\Desktop\GD32\vw553\GD RISC-V MCU Debug/../Firmware/GD32VW55x_standard_peripheral/system_gd32vw55x.c:124 (discriminator 12)
 800e48c:	fec42783          	lw	a5,-20(s0)
 800e490:	0785                	addi	a5,a5,1
 800e492:	fef42623          	sw	a5,-20(s0)
C:\Users\cymr9000p\Desktop\GD32\vw553\GD RISC-V MCU Debug/../Firmware/GD32VW55x_standard_peripheral/system_gd32vw55x.c:124 (discriminator 10)
 800e496:	fec42703          	lw	a4,-20(s0)
 800e49a:	04f00793          	li	a5,79
 800e49e:	fee7f7e3          	bgeu	a5,a4,800e48c <SystemInit+0xea>
C:\Users\cymr9000p\Desktop\GD32\vw553\GD RISC-V MCU Debug/../Firmware/GD32VW55x_standard_peripheral/system_gd32vw55x.c:126
    }
    RCU_CFG0 &= ~RCU_CFG0_SCS;
 800e4a2:	400247b7          	lui	a5,0x40024
 800e4a6:	80878793          	addi	a5,a5,-2040 # 40023808 <_sp+0x1ffdb808>
 800e4aa:	4398                	lw	a4,0(a5)
 800e4ac:	400247b7          	lui	a5,0x40024
 800e4b0:	80878793          	addi	a5,a5,-2040 # 40023808 <_sp+0x1ffdb808>
 800e4b4:	9b71                	andi	a4,a4,-4
 800e4b6:	c398                	sw	a4,0(a5)
C:\Users\cymr9000p\Desktop\GD32\vw553\GD RISC-V MCU Debug/../Firmware/GD32VW55x_standard_peripheral/system_gd32vw55x.c:127
    _soft_delay_(200);
 800e4b8:	0c800513          	li	a0,200
 800e4bc:	3575                	jal	800e368 <_soft_delay_>
C:\Users\cymr9000p\Desktop\GD32\vw553\GD RISC-V MCU Debug/../Firmware/GD32VW55x_standard_peripheral/system_gd32vw55x.c:129
    /* reset CFG0 register */
    RCU_CFG0 = 0x00000000U;
 800e4be:	400247b7          	lui	a5,0x40024
 800e4c2:	80878793          	addi	a5,a5,-2040 # 40023808 <_sp+0x1ffdb808>
 800e4c6:	0007a023          	sw	zero,0(a5)
C:\Users\cymr9000p\Desktop\GD32\vw553\GD RISC-V MCU Debug/../Firmware/GD32VW55x_standard_peripheral/system_gd32vw55x.c:132

    /* reset HXTALEN, RFCKMEN and PLLEN bits */
    RCU_CTL &= ~(RCU_CTL_PLLDIGEN | RCU_CTL_RFCKMEN | RCU_CTL_HXTALEN);
 800e4ca:	400247b7          	lui	a5,0x40024
 800e4ce:	80078793          	addi	a5,a5,-2048 # 40023800 <_sp+0x1ffdb800>
 800e4d2:	4394                	lw	a3,0(a5)
 800e4d4:	400247b7          	lui	a5,0x40024
 800e4d8:	80078793          	addi	a5,a5,-2048 # 40023800 <_sp+0x1ffdb800>
 800e4dc:	ff9f0737          	lui	a4,0xff9f0
 800e4e0:	177d                	addi	a4,a4,-1
 800e4e2:	8f75                	and	a4,a4,a3
 800e4e4:	c398                	sw	a4,0(a5)
C:\Users\cymr9000p\Desktop\GD32\vw553\GD RISC-V MCU Debug/../Firmware/GD32VW55x_standard_peripheral/system_gd32vw55x.c:135

    /* reset PLLCFGR register */
    RCU_PLL = 0x00000000U;
 800e4e6:	400247b7          	lui	a5,0x40024
 800e4ea:	80478793          	addi	a5,a5,-2044 # 40023804 <_sp+0x1ffdb804>
 800e4ee:	0007a023          	sw	zero,0(a5)
C:\Users\cymr9000p\Desktop\GD32\vw553\GD RISC-V MCU Debug/../Firmware/GD32VW55x_standard_peripheral/system_gd32vw55x.c:136
    RCU_PLLDIGCFG0 = 0x00000000U;
 800e4f2:	400247b7          	lui	a5,0x40024
 800e4f6:	88478793          	addi	a5,a5,-1916 # 40023884 <_sp+0x1ffdb884>
 800e4fa:	0007a023          	sw	zero,0(a5)
C:\Users\cymr9000p\Desktop\GD32\vw553\GD RISC-V MCU Debug/../Firmware/GD32VW55x_standard_peripheral/system_gd32vw55x.c:137
    RCU_PLLDIGCFG1 = 0x07800000U;
 800e4fe:	400247b7          	lui	a5,0x40024
 800e502:	89478793          	addi	a5,a5,-1900 # 40023894 <_sp+0x1ffdb894>
 800e506:	07800737          	lui	a4,0x7800
 800e50a:	c398                	sw	a4,0(a5)
C:\Users\cymr9000p\Desktop\GD32\vw553\GD RISC-V MCU Debug/../Firmware/GD32VW55x_standard_peripheral/system_gd32vw55x.c:140

    /* disable all interrupts */
    RCU_INT = 0x00000000U;
 800e50c:	400247b7          	lui	a5,0x40024
 800e510:	80c78793          	addi	a5,a5,-2036 # 4002380c <_sp+0x1ffdb80c>
 800e514:	0007a023          	sw	zero,0(a5)
C:\Users\cymr9000p\Desktop\GD32\vw553\GD RISC-V MCU Debug/../Firmware/GD32VW55x_standard_peripheral/system_gd32vw55x.c:144

    /* configure the System clock source, PLL Multiplier and Divider factors,
       AHB/APBx prescalers and Flash settings */
    system_clock_config();
 800e518:	2031                	jal	800e524 <system_clock_config>
C:\Users\cymr9000p\Desktop\GD32\vw553\GD RISC-V MCU Debug/../Firmware/GD32VW55x_standard_peripheral/system_gd32vw55x.c:145
}
 800e51a:	0001                	nop
 800e51c:	40f2                	lw	ra,28(sp)
 800e51e:	4462                	lw	s0,24(sp)
 800e520:	6105                	addi	sp,sp,32
 800e522:	8082                	ret

0800e524 <system_clock_config>:
system_clock_config():
C:\Users\cymr9000p\Desktop\GD32\vw553\GD RISC-V MCU Debug/../Firmware/GD32VW55x_standard_peripheral/system_gd32vw55x.c:153
    \param[in]  none
    \param[out] none
    \retval     none
*/
static void system_clock_config(void)
{
 800e524:	1141                	addi	sp,sp,-16
 800e526:	c606                	sw	ra,12(sp)
 800e528:	c422                	sw	s0,8(sp)
 800e52a:	0800                	addi	s0,sp,16
C:\Users\cymr9000p\Desktop\GD32\vw553\GD RISC-V MCU Debug/../Firmware/GD32VW55x_standard_peripheral/system_gd32vw55x.c:163
#elif defined (__SYSTEM_CLOCK_48M_PLLDIG_IRC16M)
    system_clock_48m_irc16m();
#elif defined (__SYSTEM_CLOCK_160M_PLLDIG_IRC16M)
    system_clock_160m_irc16m();
#elif defined (__SYSTEM_CLOCK_160M_PLLDIG_HXTAL)
    system_clock_160m_hxtal();
 800e52c:	2031                	jal	800e538 <system_clock_160m_hxtal>
C:\Users\cymr9000p\Desktop\GD32\vw553\GD RISC-V MCU Debug/../Firmware/GD32VW55x_standard_peripheral/system_gd32vw55x.c:167
#elif defined (__SYSTEM_CLOCK_48M_PLLDIG_HXTAL)
    system_clock_48m_hxtal();
#endif /* __SYSTEM_CLOCK_IRC16M */
}
 800e52e:	0001                	nop
 800e530:	40b2                	lw	ra,12(sp)
 800e532:	4422                	lw	s0,8(sp)
 800e534:	0141                	addi	sp,sp,16
 800e536:	8082                	ret

0800e538 <system_clock_160m_hxtal>:
system_clock_160m_hxtal():
C:\Users\cymr9000p\Desktop\GD32\vw553\GD RISC-V MCU Debug/../Firmware/GD32VW55x_standard_peripheral/system_gd32vw55x.c:397
    \param[in]  none
    \param[out] none
    \retval     none
*/
static void system_clock_160m_hxtal(void)
{
 800e538:	1101                	addi	sp,sp,-32
 800e53a:	ce22                	sw	s0,28(sp)
 800e53c:	1000                	addi	s0,sp,32
C:\Users\cymr9000p\Desktop\GD32\vw553\GD RISC-V MCU Debug/../Firmware/GD32VW55x_standard_peripheral/system_gd32vw55x.c:398
    uint32_t timeout = 0U;
 800e53e:	fe042623          	sw	zero,-20(s0)
C:\Users\cymr9000p\Desktop\GD32\vw553\GD RISC-V MCU Debug/../Firmware/GD32VW55x_standard_peripheral/system_gd32vw55x.c:399
    uint32_t stab_flag = 0U;
 800e542:	fe042423          	sw	zero,-24(s0)
C:\Users\cymr9000p\Desktop\GD32\vw553\GD RISC-V MCU Debug/../Firmware/GD32VW55x_standard_peripheral/system_gd32vw55x.c:403
    __IO uint32_t reg_temp;

    /* power up HXTAL */
    RCU_CTL |= RCU_CTL_HXTALPU;
 800e546:	400247b7          	lui	a5,0x40024
 800e54a:	80078793          	addi	a5,a5,-2048 # 40023800 <_sp+0x1ffdb800>
 800e54e:	4394                	lw	a3,0(a5)
 800e550:	400247b7          	lui	a5,0x40024
 800e554:	80078793          	addi	a5,a5,-2048 # 40023800 <_sp+0x1ffdb800>
 800e558:	10000737          	lui	a4,0x10000
 800e55c:	8f55                	or	a4,a4,a3
 800e55e:	c398                	sw	a4,0(a5)
C:\Users\cymr9000p\Desktop\GD32\vw553\GD RISC-V MCU Debug/../Firmware/GD32VW55x_standard_peripheral/system_gd32vw55x.c:405
    /* enable HXTAL */
    RCU_CTL |= RCU_CTL_HXTALEN;
 800e560:	400247b7          	lui	a5,0x40024
 800e564:	80078793          	addi	a5,a5,-2048 # 40023800 <_sp+0x1ffdb800>
 800e568:	4394                	lw	a3,0(a5)
 800e56a:	400247b7          	lui	a5,0x40024
 800e56e:	80078793          	addi	a5,a5,-2048 # 40023800 <_sp+0x1ffdb800>
 800e572:	6741                	lui	a4,0x10
 800e574:	8f55                	or	a4,a4,a3
 800e576:	c398                	sw	a4,0(a5)
C:\Users\cymr9000p\Desktop\GD32\vw553\GD RISC-V MCU Debug/../Firmware/GD32VW55x_standard_peripheral/system_gd32vw55x.c:406
    HXTALSTB_DELAY
 800e578:	fe042023          	sw	zero,-32(s0)
 800e57c:	a031                	j	800e588 <system_clock_160m_hxtal+0x50>
C:\Users\cymr9000p\Desktop\GD32\vw553\GD RISC-V MCU Debug/../Firmware/GD32VW55x_standard_peripheral/system_gd32vw55x.c:406 (discriminator 3)
 800e57e:	fe042783          	lw	a5,-32(s0)
 800e582:	0785                	addi	a5,a5,1
 800e584:	fef42023          	sw	a5,-32(s0)
C:\Users\cymr9000p\Desktop\GD32\vw553\GD RISC-V MCU Debug/../Firmware/GD32VW55x_standard_peripheral/system_gd32vw55x.c:406 (discriminator 1)
 800e588:	fe042703          	lw	a4,-32(s0)
 800e58c:	6789                	lui	a5,0x2
 800e58e:	fef768e3          	bltu	a4,a5,800e57e <system_clock_160m_hxtal+0x46>
C:\Users\cymr9000p\Desktop\GD32\vw553\GD RISC-V MCU Debug/../Firmware/GD32VW55x_standard_peripheral/system_gd32vw55x.c:407
    RCU_CTL |= RCU_CTL_HXTALREADY;
 800e592:	400247b7          	lui	a5,0x40024
 800e596:	80078793          	addi	a5,a5,-2048 # 40023800 <_sp+0x1ffdb800>
 800e59a:	4394                	lw	a3,0(a5)
 800e59c:	400247b7          	lui	a5,0x40024
 800e5a0:	80078793          	addi	a5,a5,-2048 # 40023800 <_sp+0x1ffdb800>
 800e5a4:	80000737          	lui	a4,0x80000
 800e5a8:	8f55                	or	a4,a4,a3
 800e5aa:	c398                	sw	a4,0(a5)
C:\Users\cymr9000p\Desktop\GD32\vw553\GD RISC-V MCU Debug/../Firmware/GD32VW55x_standard_peripheral/system_gd32vw55x.c:411 (discriminator 2)

    /* wait until HXTAL is stable or the startup time is longer than HXTAL_STARTUP_TIMEOUT */
    do{
        timeout++;
 800e5ac:	fec42783          	lw	a5,-20(s0)
 800e5b0:	0785                	addi	a5,a5,1
 800e5b2:	fef42623          	sw	a5,-20(s0)
C:\Users\cymr9000p\Desktop\GD32\vw553\GD RISC-V MCU Debug/../Firmware/GD32VW55x_standard_peripheral/system_gd32vw55x.c:412 (discriminator 2)
        stab_flag = (RCU_CTL & RCU_CTL_HXTALSTB);
 800e5b6:	400247b7          	lui	a5,0x40024
 800e5ba:	80078793          	addi	a5,a5,-2048 # 40023800 <_sp+0x1ffdb800>
 800e5be:	4398                	lw	a4,0(a5)
 800e5c0:	000207b7          	lui	a5,0x20
 800e5c4:	8ff9                	and	a5,a5,a4
 800e5c6:	fef42423          	sw	a5,-24(s0)
C:\Users\cymr9000p\Desktop\GD32\vw553\GD RISC-V MCU Debug/../Firmware/GD32VW55x_standard_peripheral/system_gd32vw55x.c:413 (discriminator 2)
    }while((0U == stab_flag) && (HXTAL_STARTUP_TIMEOUT != timeout));
 800e5ca:	fe842783          	lw	a5,-24(s0)
 800e5ce:	e799                	bnez	a5,800e5dc <system_clock_160m_hxtal+0xa4>
C:\Users\cymr9000p\Desktop\GD32\vw553\GD RISC-V MCU Debug/../Firmware/GD32VW55x_standard_peripheral/system_gd32vw55x.c:413 (discriminator 1)
 800e5d0:	fec42703          	lw	a4,-20(s0)
 800e5d4:	67c1                	lui	a5,0x10
 800e5d6:	17fd                	addi	a5,a5,-1
 800e5d8:	fcf71ae3          	bne	a4,a5,800e5ac <system_clock_160m_hxtal+0x74>
C:\Users\cymr9000p\Desktop\GD32\vw553\GD RISC-V MCU Debug/../Firmware/GD32VW55x_standard_peripheral/system_gd32vw55x.c:415

    if(0U == (RCU_CTL & RCU_CTL_HXTALSTB)){
 800e5dc:	400247b7          	lui	a5,0x40024
 800e5e0:	80078793          	addi	a5,a5,-2048 # 40023800 <_sp+0x1ffdb800>
 800e5e4:	4398                	lw	a4,0(a5)
 800e5e6:	000207b7          	lui	a5,0x20
 800e5ea:	8ff9                	and	a5,a5,a4
 800e5ec:	e391                	bnez	a5,800e5f0 <system_clock_160m_hxtal+0xb8>
C:\Users\cymr9000p\Desktop\GD32\vw553\GD RISC-V MCU Debug/../Firmware/GD32VW55x_standard_peripheral/system_gd32vw55x.c:417 (discriminator 1)
        /* if fail */
        while(1){
 800e5ee:	a001                	j	800e5ee <system_clock_160m_hxtal+0xb6>
C:\Users\cymr9000p\Desktop\GD32\vw553\GD RISC-V MCU Debug/../Firmware/GD32VW55x_standard_peripheral/system_gd32vw55x.c:423
        }
    }

    /* HXTAL is stable */
    /* AHB = SYSCLK */
    RCU_CFG0 |= RCU_AHB_CKSYS_DIV1;
 800e5f0:	400247b7          	lui	a5,0x40024
 800e5f4:	80878713          	addi	a4,a5,-2040 # 40023808 <_sp+0x1ffdb808>
 800e5f8:	400247b7          	lui	a5,0x40024
 800e5fc:	80878793          	addi	a5,a5,-2040 # 40023808 <_sp+0x1ffdb808>
 800e600:	4318                	lw	a4,0(a4)
 800e602:	c398                	sw	a4,0(a5)
C:\Users\cymr9000p\Desktop\GD32\vw553\GD RISC-V MCU Debug/../Firmware/GD32VW55x_standard_peripheral/system_gd32vw55x.c:425
    /* APB2 = AHB */
    RCU_CFG0 |= RCU_APB2_CKAHB_DIV1;
 800e604:	400247b7          	lui	a5,0x40024
 800e608:	80878713          	addi	a4,a5,-2040 # 40023808 <_sp+0x1ffdb808>
 800e60c:	400247b7          	lui	a5,0x40024
 800e610:	80878793          	addi	a5,a5,-2040 # 40023808 <_sp+0x1ffdb808>
 800e614:	4318                	lw	a4,0(a4)
 800e616:	c398                	sw	a4,0(a5)
C:\Users\cymr9000p\Desktop\GD32\vw553\GD RISC-V MCU Debug/../Firmware/GD32VW55x_standard_peripheral/system_gd32vw55x.c:427
    /* APB1 = AHB/2 */
    RCU_CFG0 |= RCU_APB1_CKAHB_DIV2;
 800e618:	400247b7          	lui	a5,0x40024
 800e61c:	80878793          	addi	a5,a5,-2040 # 40023808 <_sp+0x1ffdb808>
 800e620:	4394                	lw	a3,0(a5)
 800e622:	400247b7          	lui	a5,0x40024
 800e626:	80878793          	addi	a5,a5,-2040 # 40023808 <_sp+0x1ffdb808>
 800e62a:	6705                	lui	a4,0x1
 800e62c:	8f55                	or	a4,a4,a3
 800e62e:	c398                	sw	a4,0(a5)
C:\Users\cymr9000p\Desktop\GD32\vw553\GD RISC-V MCU Debug/../Firmware/GD32VW55x_standard_peripheral/system_gd32vw55x.c:429

    RCU_PLL |= RCU_PLLSRC_HXTAL;
 800e630:	400247b7          	lui	a5,0x40024
 800e634:	80478793          	addi	a5,a5,-2044 # 40023804 <_sp+0x1ffdb804>
 800e638:	4394                	lw	a3,0(a5)
 800e63a:	400247b7          	lui	a5,0x40024
 800e63e:	80478793          	addi	a5,a5,-2044 # 40023804 <_sp+0x1ffdb804>
 800e642:	6721                	lui	a4,0x8
 800e644:	8f55                	or	a4,a4,a3
 800e646:	c398                	sw	a4,0(a5)
C:\Users\cymr9000p\Desktop\GD32\vw553\GD RISC-V MCU Debug/../Firmware/GD32VW55x_standard_peripheral/system_gd32vw55x.c:432

    /* PLLDIG = 960/HXTAL */
    RCU_PLLDIGCFG1 = ((960 << 21) / (HXTAL_VALUE/1000000)) & 0x7FFFFFFF;
 800e648:	400247b7          	lui	a5,0x40024
 800e64c:	89478793          	addi	a5,a5,-1900 # 40023894 <_sp+0x1ffdb894>
 800e650:	03000737          	lui	a4,0x3000
 800e654:	c398                	sw	a4,0(a5)
C:\Users\cymr9000p\Desktop\GD32\vw553\GD RISC-V MCU Debug/../Firmware/GD32VW55x_standard_peripheral/system_gd32vw55x.c:435

    /* PLLDIG OUT = 480M */
    RCU_PLLDIGCFG0 |= ( RCU_PLLDIG_480M );
 800e656:	400247b7          	lui	a5,0x40024
 800e65a:	88478793          	addi	a5,a5,-1916 # 40023884 <_sp+0x1ffdb884>
 800e65e:	4394                	lw	a3,0(a5)
 800e660:	400247b7          	lui	a5,0x40024
 800e664:	88478793          	addi	a5,a5,-1916 # 40023884 <_sp+0x1ffdb884>
 800e668:	03000737          	lui	a4,0x3000
 800e66c:	8f55                	or	a4,a4,a3
 800e66e:	c398                	sw	a4,0(a5)
C:\Users\cymr9000p\Desktop\GD32\vw553\GD RISC-V MCU Debug/../Firmware/GD32VW55x_standard_peripheral/system_gd32vw55x.c:437
    /* SYS clock = 160M */
    RCU_PLLDIGCFG0 |= ( RCU_PLLDIG_SYS_DIV3 );
 800e670:	400247b7          	lui	a5,0x40024
 800e674:	88478793          	addi	a5,a5,-1916 # 40023884 <_sp+0x1ffdb884>
 800e678:	4394                	lw	a3,0(a5)
 800e67a:	400247b7          	lui	a5,0x40024
 800e67e:	88478793          	addi	a5,a5,-1916 # 40023884 <_sp+0x1ffdb884>
 800e682:	08000737          	lui	a4,0x8000
 800e686:	8f55                	or	a4,a4,a3
 800e688:	c398                	sw	a4,0(a5)
C:\Users\cymr9000p\Desktop\GD32\vw553\GD RISC-V MCU Debug/../Firmware/GD32VW55x_standard_peripheral/system_gd32vw55x.c:439
    /* enable PLLDIG */
    RCU_CFG1 |= (RCU_CFG1_BGPU);
 800e68a:	400247b7          	lui	a5,0x40024
 800e68e:	88c78793          	addi	a5,a5,-1908 # 4002388c <_sp+0x1ffdb88c>
 800e692:	4394                	lw	a3,0(a5)
 800e694:	400247b7          	lui	a5,0x40024
 800e698:	88c78793          	addi	a5,a5,-1908 # 4002388c <_sp+0x1ffdb88c>
 800e69c:	00080737          	lui	a4,0x80
 800e6a0:	8f55                	or	a4,a4,a3
 800e6a2:	c398                	sw	a4,0(a5)
C:\Users\cymr9000p\Desktop\GD32\vw553\GD RISC-V MCU Debug/../Firmware/GD32VW55x_standard_peripheral/system_gd32vw55x.c:440
    RCU_CTL |= (RCU_CTL_PLLDIGEN | RCU_CTL_PLLDIGPU);
 800e6a4:	400247b7          	lui	a5,0x40024
 800e6a8:	80078793          	addi	a5,a5,-2048 # 40023800 <_sp+0x1ffdb800>
 800e6ac:	4394                	lw	a3,0(a5)
 800e6ae:	400247b7          	lui	a5,0x40024
 800e6b2:	80078793          	addi	a5,a5,-2048 # 40023800 <_sp+0x1ffdb800>
 800e6b6:	00300737          	lui	a4,0x300
 800e6ba:	8f55                	or	a4,a4,a3
 800e6bc:	c398                	sw	a4,0(a5)
C:\Users\cymr9000p\Desktop\GD32\vw553\GD RISC-V MCU Debug/../Firmware/GD32VW55x_standard_peripheral/system_gd32vw55x.c:442
    /* wait until PLLDIG is stable */
    while(0U == (RCU_CTL & RCU_CTL_PLLDIGSTB)){
 800e6be:	0001                	nop
C:\Users\cymr9000p\Desktop\GD32\vw553\GD RISC-V MCU Debug/../Firmware/GD32VW55x_standard_peripheral/system_gd32vw55x.c:442 (discriminator 1)
 800e6c0:	400247b7          	lui	a5,0x40024
 800e6c4:	80078793          	addi	a5,a5,-2048 # 40023800 <_sp+0x1ffdb800>
 800e6c8:	4398                	lw	a4,0(a5)
 800e6ca:	008007b7          	lui	a5,0x800
 800e6ce:	8ff9                	and	a5,a5,a4
 800e6d0:	dbe5                	beqz	a5,800e6c0 <system_clock_160m_hxtal+0x188>
C:\Users\cymr9000p\Desktop\GD32\vw553\GD RISC-V MCU Debug/../Firmware/GD32VW55x_standard_peripheral/system_gd32vw55x.c:444
    }
    reg_temp = RCU_CFG0;
 800e6d2:	400247b7          	lui	a5,0x40024
 800e6d6:	80878793          	addi	a5,a5,-2040 # 40023808 <_sp+0x1ffdb808>
 800e6da:	439c                	lw	a5,0(a5)
 800e6dc:	fef42223          	sw	a5,-28(s0)
C:\Users\cymr9000p\Desktop\GD32\vw553\GD RISC-V MCU Debug/../Firmware/GD32VW55x_standard_peripheral/system_gd32vw55x.c:446
    /* select PLLDIG as system clock */
    reg_temp &= ~RCU_CFG0_SCS;
 800e6e0:	fe442783          	lw	a5,-28(s0)
 800e6e4:	9bf1                	andi	a5,a5,-4
 800e6e6:	fef42223          	sw	a5,-28(s0)
C:\Users\cymr9000p\Desktop\GD32\vw553\GD RISC-V MCU Debug/../Firmware/GD32VW55x_standard_peripheral/system_gd32vw55x.c:447
    reg_temp |= RCU_CKSYSSRC_PLLDIG;
 800e6ea:	fe442783          	lw	a5,-28(s0)
 800e6ee:	0027e793          	ori	a5,a5,2
 800e6f2:	fef42223          	sw	a5,-28(s0)
C:\Users\cymr9000p\Desktop\GD32\vw553\GD RISC-V MCU Debug/../Firmware/GD32VW55x_standard_peripheral/system_gd32vw55x.c:448
    RCU_CFG0 = reg_temp;
 800e6f6:	400247b7          	lui	a5,0x40024
 800e6fa:	80878793          	addi	a5,a5,-2040 # 40023808 <_sp+0x1ffdb808>
 800e6fe:	fe442703          	lw	a4,-28(s0)
 800e702:	c398                	sw	a4,0(a5)
C:\Users\cymr9000p\Desktop\GD32\vw553\GD RISC-V MCU Debug/../Firmware/GD32VW55x_standard_peripheral/system_gd32vw55x.c:451

    /* wait until PLLDIG is selected as system clock */
    while(RCU_SCSS_PLLDIG != (RCU_CFG0 & RCU_CFG0_SCSS)){
 800e704:	0001                	nop
C:\Users\cymr9000p\Desktop\GD32\vw553\GD RISC-V MCU Debug/../Firmware/GD32VW55x_standard_peripheral/system_gd32vw55x.c:451 (discriminator 1)
 800e706:	400247b7          	lui	a5,0x40024
 800e70a:	80878793          	addi	a5,a5,-2040 # 40023808 <_sp+0x1ffdb808>
 800e70e:	439c                	lw	a5,0(a5)
 800e710:	00c7f713          	andi	a4,a5,12
 800e714:	47a1                	li	a5,8
 800e716:	fef718e3          	bne	a4,a5,800e706 <system_clock_160m_hxtal+0x1ce>
C:\Users\cymr9000p\Desktop\GD32\vw553\GD RISC-V MCU Debug/../Firmware/GD32VW55x_standard_peripheral/system_gd32vw55x.c:453
    }
} /* __SYSTEM_CLOCK_IRC16M */
 800e71a:	0001                	nop
 800e71c:	0001                	nop
 800e71e:	4472                	lw	s0,28(sp)
 800e720:	6105                	addi	sp,sp,32
 800e722:	8082                	ret

0800e724 <atexit>:
atexit():
 800e724:	85aa                	mv	a1,a0
 800e726:	4681                	li	a3,0
 800e728:	4601                	li	a2,0
 800e72a:	4501                	li	a0,0
 800e72c:	a859                	j	800e7c2 <__register_exitproc>

0800e72e <__libc_fini_array>:
__libc_fini_array():
 800e72e:	1141                	addi	sp,sp,-16
 800e730:	c422                	sw	s0,8(sp)
 800e732:	c226                	sw	s1,4(sp)
 800e734:	00000417          	auipc	s0,0x0
 800e738:	10640413          	addi	s0,s0,262 # 800e83a <__fini_array_end>
 800e73c:	00000497          	auipc	s1,0x0
 800e740:	0fe48493          	addi	s1,s1,254 # 800e83a <__fini_array_end>
 800e744:	8c05                	sub	s0,s0,s1
 800e746:	c606                	sw	ra,12(sp)
 800e748:	8409                	srai	s0,s0,0x2
 800e74a:	e411                	bnez	s0,800e756 <__libc_fini_array+0x28>
 800e74c:	40b2                	lw	ra,12(sp)
 800e74e:	4422                	lw	s0,8(sp)
 800e750:	4492                	lw	s1,4(sp)
 800e752:	0141                	addi	sp,sp,16
 800e754:	8082                	ret
 800e756:	147d                	addi	s0,s0,-1
 800e758:	00241793          	slli	a5,s0,0x2
 800e75c:	97a6                	add	a5,a5,s1
 800e75e:	439c                	lw	a5,0(a5)
 800e760:	9782                	jalr	a5
 800e762:	b7e5                	j	800e74a <__libc_fini_array+0x1c>

0800e764 <__libc_init_array>:
__libc_init_array():
 800e764:	1141                	addi	sp,sp,-16
 800e766:	c422                	sw	s0,8(sp)
 800e768:	c226                	sw	s1,4(sp)
 800e76a:	00000417          	auipc	s0,0x0
 800e76e:	0d040413          	addi	s0,s0,208 # 800e83a <__fini_array_end>
 800e772:	00000497          	auipc	s1,0x0
 800e776:	0c848493          	addi	s1,s1,200 # 800e83a <__fini_array_end>
 800e77a:	8c81                	sub	s1,s1,s0
 800e77c:	c04a                	sw	s2,0(sp)
 800e77e:	c606                	sw	ra,12(sp)
 800e780:	8489                	srai	s1,s1,0x2
 800e782:	4901                	li	s2,0
 800e784:	02991563          	bne	s2,s1,800e7ae <__libc_init_array+0x4a>
 800e788:	00000417          	auipc	s0,0x0
 800e78c:	0b240413          	addi	s0,s0,178 # 800e83a <__fini_array_end>
 800e790:	00000497          	auipc	s1,0x0
 800e794:	0aa48493          	addi	s1,s1,170 # 800e83a <__fini_array_end>
 800e798:	8c81                	sub	s1,s1,s0
 800e79a:	8489                	srai	s1,s1,0x2
 800e79c:	4901                	li	s2,0
 800e79e:	00991d63          	bne	s2,s1,800e7b8 <__libc_init_array+0x54>
 800e7a2:	40b2                	lw	ra,12(sp)
 800e7a4:	4422                	lw	s0,8(sp)
 800e7a6:	4492                	lw	s1,4(sp)
 800e7a8:	4902                	lw	s2,0(sp)
 800e7aa:	0141                	addi	sp,sp,16
 800e7ac:	8082                	ret
 800e7ae:	401c                	lw	a5,0(s0)
 800e7b0:	0905                	addi	s2,s2,1
 800e7b2:	0411                	addi	s0,s0,4
 800e7b4:	9782                	jalr	a5
 800e7b6:	b7f9                	j	800e784 <__libc_init_array+0x20>
 800e7b8:	401c                	lw	a5,0(s0)
 800e7ba:	0905                	addi	s2,s2,1
 800e7bc:	0411                	addi	s0,s0,4
 800e7be:	9782                	jalr	a5
 800e7c0:	bff9                	j	800e79e <__libc_init_array+0x3a>

0800e7c2 <__register_exitproc>:
__register_exitproc():
 800e7c2:	88aa                	mv	a7,a0
 800e7c4:	17ff2517          	auipc	a0,0x17ff2
 800e7c8:	84850513          	addi	a0,a0,-1976 # 2000000c <_global_atexit>
 800e7cc:	411c                	lw	a5,0(a0)
 800e7ce:	ef81                	bnez	a5,800e7e6 <__register_exitproc+0x24>
 800e7d0:	c4418713          	addi	a4,gp,-956 # 20000444 <_global_atexit0>
 800e7d4:	c118                	sw	a4,0(a0)
 800e7d6:	00000513          	li	a0,0
 800e7da:	87ba                	mv	a5,a4
 800e7dc:	c509                	beqz	a0,800e7e6 <__register_exitproc+0x24>
 800e7de:	411c                	lw	a5,0(a0)
 800e7e0:	08f72423          	sw	a5,136(a4) # 300088 <__stack_size+0x2ff888>
 800e7e4:	87ba                	mv	a5,a4
 800e7e6:	43d8                	lw	a4,4(a5)
 800e7e8:	487d                	li	a6,31
 800e7ea:	557d                	li	a0,-1
 800e7ec:	04e84663          	blt	a6,a4,800e838 <__register_exitproc+0x76>
 800e7f0:	02088d63          	beqz	a7,800e82a <__register_exitproc+0x68>
 800e7f4:	0887a803          	lw	a6,136(a5)
 800e7f8:	04080063          	beqz	a6,800e838 <__register_exitproc+0x76>
 800e7fc:	00271513          	slli	a0,a4,0x2
 800e800:	9542                	add	a0,a0,a6
 800e802:	c110                	sw	a2,0(a0)
 800e804:	10082303          	lw	t1,256(a6)
 800e808:	4605                	li	a2,1
 800e80a:	00e61633          	sll	a2,a2,a4
 800e80e:	00c36333          	or	t1,t1,a2
 800e812:	10682023          	sw	t1,256(a6)
 800e816:	08d52023          	sw	a3,128(a0)
 800e81a:	4689                	li	a3,2
 800e81c:	00d89763          	bne	a7,a3,800e82a <__register_exitproc+0x68>
 800e820:	10482683          	lw	a3,260(a6)
 800e824:	8e55                	or	a2,a2,a3
 800e826:	10c82223          	sw	a2,260(a6)
 800e82a:	00170693          	addi	a3,a4,1
 800e82e:	070a                	slli	a4,a4,0x2
 800e830:	c3d4                	sw	a3,4(a5)
 800e832:	97ba                	add	a5,a5,a4
 800e834:	c78c                	sw	a1,8(a5)
 800e836:	4501                	li	a0,0
 800e838:	8082                	ret
