   1              		.file	"gd32vw55x_cau.c"
   2              		.option nopic
   3              		.attribute arch, "rv32i2p0_m2p0_a2p0_c2p0"
   4              		.attribute unaligned_access, 0
   5              		.attribute stack_align, 16
   6              		.text
   7              	.Ltext0:
   8              		.cfi_sections	.debug_frame
   9              		.section	.text.cau_deinit,"ax",@progbits
  10              		.align	1
  11              		.globl	cau_deinit
  13              	cau_deinit:
  14              	.LFB347:
  15              		.file 1 "../Firmware/GD32VW55x_standard_peripheral/Source/gd32vw55x_cau.c"
   1:../Firmware/GD32VW55x_standard_peripheral/Source/gd32vw55x_cau.c **** /*!
   2:../Firmware/GD32VW55x_standard_peripheral/Source/gd32vw55x_cau.c ****     \file    gd32vw55x_cau.c
   3:../Firmware/GD32VW55x_standard_peripheral/Source/gd32vw55x_cau.c ****     \brief   CAU driver
   4:../Firmware/GD32VW55x_standard_peripheral/Source/gd32vw55x_cau.c **** 
   5:../Firmware/GD32VW55x_standard_peripheral/Source/gd32vw55x_cau.c ****     \version 2025-01-16, V1.4.0, firmware for GD32VW55x
   6:../Firmware/GD32VW55x_standard_peripheral/Source/gd32vw55x_cau.c **** */
   7:../Firmware/GD32VW55x_standard_peripheral/Source/gd32vw55x_cau.c **** 
   8:../Firmware/GD32VW55x_standard_peripheral/Source/gd32vw55x_cau.c **** /*
   9:../Firmware/GD32VW55x_standard_peripheral/Source/gd32vw55x_cau.c ****     Copyright (c) 2025, GigaDevice Semiconductor Inc.
  10:../Firmware/GD32VW55x_standard_peripheral/Source/gd32vw55x_cau.c **** 
  11:../Firmware/GD32VW55x_standard_peripheral/Source/gd32vw55x_cau.c ****     Redistribution and use in source and binary forms, with or without modification,
  12:../Firmware/GD32VW55x_standard_peripheral/Source/gd32vw55x_cau.c **** are permitted provided that the following conditions are met:
  13:../Firmware/GD32VW55x_standard_peripheral/Source/gd32vw55x_cau.c **** 
  14:../Firmware/GD32VW55x_standard_peripheral/Source/gd32vw55x_cau.c ****     1. Redistributions of source code must retain the above copyright notice, this
  15:../Firmware/GD32VW55x_standard_peripheral/Source/gd32vw55x_cau.c ****        list of conditions and the following disclaimer.
  16:../Firmware/GD32VW55x_standard_peripheral/Source/gd32vw55x_cau.c ****     2. Redistributions in binary form must reproduce the above copyright notice,
  17:../Firmware/GD32VW55x_standard_peripheral/Source/gd32vw55x_cau.c ****        this list of conditions and the following disclaimer in the documentation
  18:../Firmware/GD32VW55x_standard_peripheral/Source/gd32vw55x_cau.c ****        and/or other materials provided with the distribution.
  19:../Firmware/GD32VW55x_standard_peripheral/Source/gd32vw55x_cau.c ****     3. Neither the name of the copyright holder nor the names of its contributors
  20:../Firmware/GD32VW55x_standard_peripheral/Source/gd32vw55x_cau.c ****        may be used to endorse or promote products derived from this software without
  21:../Firmware/GD32VW55x_standard_peripheral/Source/gd32vw55x_cau.c ****        specific prior written permission.
  22:../Firmware/GD32VW55x_standard_peripheral/Source/gd32vw55x_cau.c **** 
  23:../Firmware/GD32VW55x_standard_peripheral/Source/gd32vw55x_cau.c ****     THIS SOFTWARE IS PROVIDED BY THE COPYRIGHT HOLDERS AND CONTRIBUTORS "AS IS"
  24:../Firmware/GD32VW55x_standard_peripheral/Source/gd32vw55x_cau.c **** AND ANY EXPRESS OR IMPLIED WARRANTIES, INCLUDING, BUT NOT LIMITED TO, THE IMPLIED
  25:../Firmware/GD32VW55x_standard_peripheral/Source/gd32vw55x_cau.c **** WARRANTIES OF MERCHANTABILITY AND FITNESS FOR A PARTICULAR PURPOSE ARE DISCLAIMED.
  26:../Firmware/GD32VW55x_standard_peripheral/Source/gd32vw55x_cau.c **** IN NO EVENT SHALL THE COPYRIGHT HOLDER OR CONTRIBUTORS BE LIABLE FOR ANY DIRECT,
  27:../Firmware/GD32VW55x_standard_peripheral/Source/gd32vw55x_cau.c **** INDIRECT, INCIDENTAL, SPECIAL, EXEMPLARY, OR CONSEQUENTIAL DAMAGES (INCLUDING, BUT
  28:../Firmware/GD32VW55x_standard_peripheral/Source/gd32vw55x_cau.c **** NOT LIMITED TO, PROCUREMENT OF SUBSTITUTE GOODS OR SERVICES; LOSS OF USE, DATA, OR
  29:../Firmware/GD32VW55x_standard_peripheral/Source/gd32vw55x_cau.c **** PROFITS; OR BUSINESS INTERRUPTION) HOWEVER CAUSED AND ON ANY THEORY OF LIABILITY,
  30:../Firmware/GD32VW55x_standard_peripheral/Source/gd32vw55x_cau.c **** WHETHER IN CONTRACT, STRICT LIABILITY, OR TORT (INCLUDING NEGLIGENCE OR OTHERWISE)
  31:../Firmware/GD32VW55x_standard_peripheral/Source/gd32vw55x_cau.c **** ARISING IN ANY WAY OUT OF THE USE OF THIS SOFTWARE, EVEN IF ADVISED OF THE POSSIBILITY
  32:../Firmware/GD32VW55x_standard_peripheral/Source/gd32vw55x_cau.c **** OF SUCH DAMAGE.
  33:../Firmware/GD32VW55x_standard_peripheral/Source/gd32vw55x_cau.c **** */
  34:../Firmware/GD32VW55x_standard_peripheral/Source/gd32vw55x_cau.c **** 
  35:../Firmware/GD32VW55x_standard_peripheral/Source/gd32vw55x_cau.c **** #include "gd32vw55x_cau.h"
  36:../Firmware/GD32VW55x_standard_peripheral/Source/gd32vw55x_cau.c **** #include "gd32vw55x_rcu.h"
  37:../Firmware/GD32VW55x_standard_peripheral/Source/gd32vw55x_cau.c **** 
  38:../Firmware/GD32VW55x_standard_peripheral/Source/gd32vw55x_cau.c **** #define STAT0_AESDES_MASK    ((uint32_t)0x00000015U)
  39:../Firmware/GD32VW55x_standard_peripheral/Source/gd32vw55x_cau.c **** #define STAT0_TDES_MASK      ((uint32_t)0x00000014U)
  40:../Firmware/GD32VW55x_standard_peripheral/Source/gd32vw55x_cau.c **** 
  41:../Firmware/GD32VW55x_standard_peripheral/Source/gd32vw55x_cau.c **** /*!
  42:../Firmware/GD32VW55x_standard_peripheral/Source/gd32vw55x_cau.c ****     \brief      reset the CAU peripheral
  43:../Firmware/GD32VW55x_standard_peripheral/Source/gd32vw55x_cau.c ****     \param[in]  none
  44:../Firmware/GD32VW55x_standard_peripheral/Source/gd32vw55x_cau.c ****     \param[out] none
  45:../Firmware/GD32VW55x_standard_peripheral/Source/gd32vw55x_cau.c ****     \retval     none
  46:../Firmware/GD32VW55x_standard_peripheral/Source/gd32vw55x_cau.c **** */
  47:../Firmware/GD32VW55x_standard_peripheral/Source/gd32vw55x_cau.c **** void cau_deinit(void)
  48:../Firmware/GD32VW55x_standard_peripheral/Source/gd32vw55x_cau.c **** {
  16              		.loc 1 48 1
  17              		.cfi_startproc
  18 0000 4111     		addi	sp,sp,-16
  19              		.cfi_def_cfa_offset 16
  20 0002 06C6     		sw	ra,12(sp)
  21 0004 22C4     		sw	s0,8(sp)
  22              		.cfi_offset 1, -4
  23              		.cfi_offset 8, -8
  24 0006 0008     		addi	s0,sp,16
  25              		.cfi_def_cfa 8, 0
  49:../Firmware/GD32VW55x_standard_peripheral/Source/gd32vw55x_cau.c ****     /* enable CAU reset state */
  50:../Firmware/GD32VW55x_standard_peripheral/Source/gd32vw55x_cau.c ****     rcu_periph_reset_enable(RCU_CAURST);
  26              		.loc 1 50 5
  27 0008 13054050 		li	a0,1284
  28 000c 97000000 		call	rcu_periph_reset_enable
  28      E7800000 
  51:../Firmware/GD32VW55x_standard_peripheral/Source/gd32vw55x_cau.c ****     /* release CAU from reset state */
  52:../Firmware/GD32VW55x_standard_peripheral/Source/gd32vw55x_cau.c ****     rcu_periph_reset_disable(RCU_CAURST);
  29              		.loc 1 52 5
  30 0014 13054050 		li	a0,1284
  31 0018 97000000 		call	rcu_periph_reset_disable
  31      E7800000 
  53:../Firmware/GD32VW55x_standard_peripheral/Source/gd32vw55x_cau.c **** }
  32              		.loc 1 53 1
  33 0020 0100     		nop
  34 0022 B240     		lw	ra,12(sp)
  35              		.cfi_restore 1
  36 0024 2244     		lw	s0,8(sp)
  37              		.cfi_restore 8
  38              		.cfi_def_cfa 2, 16
  39 0026 4101     		addi	sp,sp,16
  40              		.cfi_def_cfa_offset 0
  41 0028 8280     		jr	ra
  42              		.cfi_endproc
  43              	.LFE347:
  45              		.section	.text.cau_struct_para_init,"ax",@progbits
  46              		.align	1
  47              		.globl	cau_struct_para_init
  49              	cau_struct_para_init:
  50              	.LFB348:
  54:../Firmware/GD32VW55x_standard_peripheral/Source/gd32vw55x_cau.c **** 
  55:../Firmware/GD32VW55x_standard_peripheral/Source/gd32vw55x_cau.c **** /*!
  56:../Firmware/GD32VW55x_standard_peripheral/Source/gd32vw55x_cau.c ****     \brief      initialize the CAU encrypt and decrypt parameter struct with the default values
  57:../Firmware/GD32VW55x_standard_peripheral/Source/gd32vw55x_cau.c ****     \param[in]  none
  58:../Firmware/GD32VW55x_standard_peripheral/Source/gd32vw55x_cau.c ****     \param[out] cau_parameter:
  59:../Firmware/GD32VW55x_standard_peripheral/Source/gd32vw55x_cau.c ****                   alg_dir: algorithm direction
  60:../Firmware/GD32VW55x_standard_peripheral/Source/gd32vw55x_cau.c ****                     CAU_ENCRYPT, CAU_DECRYPT
  61:../Firmware/GD32VW55x_standard_peripheral/Source/gd32vw55x_cau.c ****                   key: key
  62:../Firmware/GD32VW55x_standard_peripheral/Source/gd32vw55x_cau.c ****                   key_size: key size in bytes
  63:../Firmware/GD32VW55x_standard_peripheral/Source/gd32vw55x_cau.c ****                   iv: initialization vector
  64:../Firmware/GD32VW55x_standard_peripheral/Source/gd32vw55x_cau.c ****                   iv_size: iv size in bytes
  65:../Firmware/GD32VW55x_standard_peripheral/Source/gd32vw55x_cau.c ****                   input: input data
  66:../Firmware/GD32VW55x_standard_peripheral/Source/gd32vw55x_cau.c ****                   in_length: input data length in bytes
  67:../Firmware/GD32VW55x_standard_peripheral/Source/gd32vw55x_cau.c ****                   aad: additional authentication data
  68:../Firmware/GD32VW55x_standard_peripheral/Source/gd32vw55x_cau.c ****                   aad_size: header size
  69:../Firmware/GD32VW55x_standard_peripheral/Source/gd32vw55x_cau.c ****     \retval     none
  70:../Firmware/GD32VW55x_standard_peripheral/Source/gd32vw55x_cau.c **** */
  71:../Firmware/GD32VW55x_standard_peripheral/Source/gd32vw55x_cau.c **** void cau_struct_para_init(cau_parameter_struct *cau_parameter)
  72:../Firmware/GD32VW55x_standard_peripheral/Source/gd32vw55x_cau.c **** {
  51              		.loc 1 72 1
  52              		.cfi_startproc
  53 0000 0111     		addi	sp,sp,-32
  54              		.cfi_def_cfa_offset 32
  55 0002 22CE     		sw	s0,28(sp)
  56              		.cfi_offset 8, -4
  57 0004 0010     		addi	s0,sp,32
  58              		.cfi_def_cfa 8, 0
  59 0006 2326A4FE 		sw	a0,-20(s0)
  73:../Firmware/GD32VW55x_standard_peripheral/Source/gd32vw55x_cau.c ****     /* set the CAU encrypt and decrypt parameters struct with the default values */
  74:../Firmware/GD32VW55x_standard_peripheral/Source/gd32vw55x_cau.c ****     cau_parameter->alg_dir     = CAU_ENCRYPT;
  60              		.loc 1 74 32
  61 000a 8327C4FE 		lw	a5,-20(s0)
  62 000e 23A00700 		sw	zero,0(a5)
  75:../Firmware/GD32VW55x_standard_peripheral/Source/gd32vw55x_cau.c ****     cau_parameter->key         = 0U;
  63              		.loc 1 75 32
  64 0012 8327C4FE 		lw	a5,-20(s0)
  65 0016 23A20700 		sw	zero,4(a5)
  76:../Firmware/GD32VW55x_standard_peripheral/Source/gd32vw55x_cau.c ****     cau_parameter->key_size    = 0U;
  66              		.loc 1 76 32
  67 001a 8327C4FE 		lw	a5,-20(s0)
  68 001e 23A40700 		sw	zero,8(a5)
  77:../Firmware/GD32VW55x_standard_peripheral/Source/gd32vw55x_cau.c ****     cau_parameter->iv          = 0U;
  69              		.loc 1 77 32
  70 0022 8327C4FE 		lw	a5,-20(s0)
  71 0026 23A60700 		sw	zero,12(a5)
  78:../Firmware/GD32VW55x_standard_peripheral/Source/gd32vw55x_cau.c ****     cau_parameter->iv_size     = 0U;
  72              		.loc 1 78 32
  73 002a 8327C4FE 		lw	a5,-20(s0)
  74 002e 23A80700 		sw	zero,16(a5)
  79:../Firmware/GD32VW55x_standard_peripheral/Source/gd32vw55x_cau.c ****     cau_parameter->input       = 0U;
  75              		.loc 1 79 32
  76 0032 8327C4FE 		lw	a5,-20(s0)
  77 0036 23AA0700 		sw	zero,20(a5)
  80:../Firmware/GD32VW55x_standard_peripheral/Source/gd32vw55x_cau.c ****     cau_parameter->in_length   = 0U;
  78              		.loc 1 80 32
  79 003a 8327C4FE 		lw	a5,-20(s0)
  80 003e 23AC0700 		sw	zero,24(a5)
  81:../Firmware/GD32VW55x_standard_peripheral/Source/gd32vw55x_cau.c ****     cau_parameter->aad         = 0U;
  81              		.loc 1 81 32
  82 0042 8327C4FE 		lw	a5,-20(s0)
  83 0046 23AE0700 		sw	zero,28(a5)
  82:../Firmware/GD32VW55x_standard_peripheral/Source/gd32vw55x_cau.c ****     cau_parameter->aad_size    = 0U;
  84              		.loc 1 82 32
  85 004a 8327C4FE 		lw	a5,-20(s0)
  86 004e 23A00702 		sw	zero,32(a5)
  83:../Firmware/GD32VW55x_standard_peripheral/Source/gd32vw55x_cau.c **** }
  87              		.loc 1 83 1
  88 0052 0100     		nop
  89 0054 7244     		lw	s0,28(sp)
  90              		.cfi_restore 8
  91              		.cfi_def_cfa 2, 32
  92 0056 0561     		addi	sp,sp,32
  93              		.cfi_def_cfa_offset 0
  94 0058 8280     		jr	ra
  95              		.cfi_endproc
  96              	.LFE348:
  98              		.section	.text.cau_key_struct_para_init,"ax",@progbits
  99              		.align	1
 100              		.globl	cau_key_struct_para_init
 102              	cau_key_struct_para_init:
 103              	.LFB349:
  84:../Firmware/GD32VW55x_standard_peripheral/Source/gd32vw55x_cau.c **** 
  85:../Firmware/GD32VW55x_standard_peripheral/Source/gd32vw55x_cau.c **** /*!
  86:../Firmware/GD32VW55x_standard_peripheral/Source/gd32vw55x_cau.c ****     \brief      initialize the key parameter struct with the default values
  87:../Firmware/GD32VW55x_standard_peripheral/Source/gd32vw55x_cau.c ****     \param[in]  none
  88:../Firmware/GD32VW55x_standard_peripheral/Source/gd32vw55x_cau.c ****     \param[out] key_initpara:
  89:../Firmware/GD32VW55x_standard_peripheral/Source/gd32vw55x_cau.c ****                   key_0_high: key 0 high
  90:../Firmware/GD32VW55x_standard_peripheral/Source/gd32vw55x_cau.c ****                   key_0_low:  key 0 low
  91:../Firmware/GD32VW55x_standard_peripheral/Source/gd32vw55x_cau.c ****                   key_1_high: key 1 high
  92:../Firmware/GD32VW55x_standard_peripheral/Source/gd32vw55x_cau.c ****                   key_1_low:  key 1 low
  93:../Firmware/GD32VW55x_standard_peripheral/Source/gd32vw55x_cau.c ****                   key_2_high: key 2 high
  94:../Firmware/GD32VW55x_standard_peripheral/Source/gd32vw55x_cau.c ****                   key_2_low:  key 2 low
  95:../Firmware/GD32VW55x_standard_peripheral/Source/gd32vw55x_cau.c ****                   key_3_high: key 3 high
  96:../Firmware/GD32VW55x_standard_peripheral/Source/gd32vw55x_cau.c ****                   key_3_low:  key 3 low
  97:../Firmware/GD32VW55x_standard_peripheral/Source/gd32vw55x_cau.c ****     \retval     none
  98:../Firmware/GD32VW55x_standard_peripheral/Source/gd32vw55x_cau.c **** */
  99:../Firmware/GD32VW55x_standard_peripheral/Source/gd32vw55x_cau.c **** void cau_key_struct_para_init(cau_key_parameter_struct *key_initpara)
 100:../Firmware/GD32VW55x_standard_peripheral/Source/gd32vw55x_cau.c **** {
 104              		.loc 1 100 1
 105              		.cfi_startproc
 106 0000 0111     		addi	sp,sp,-32
 107              		.cfi_def_cfa_offset 32
 108 0002 22CE     		sw	s0,28(sp)
 109              		.cfi_offset 8, -4
 110 0004 0010     		addi	s0,sp,32
 111              		.cfi_def_cfa 8, 0
 112 0006 2326A4FE 		sw	a0,-20(s0)
 101:../Firmware/GD32VW55x_standard_peripheral/Source/gd32vw55x_cau.c ****     /* set the key parameters struct with the default values */
 102:../Firmware/GD32VW55x_standard_peripheral/Source/gd32vw55x_cau.c ****     key_initpara->key_0_high   = 0U;
 113              		.loc 1 102 32
 114 000a 8327C4FE 		lw	a5,-20(s0)
 115 000e 23A00700 		sw	zero,0(a5)
 103:../Firmware/GD32VW55x_standard_peripheral/Source/gd32vw55x_cau.c ****     key_initpara->key_0_low    = 0U;
 116              		.loc 1 103 32
 117 0012 8327C4FE 		lw	a5,-20(s0)
 118 0016 23A20700 		sw	zero,4(a5)
 104:../Firmware/GD32VW55x_standard_peripheral/Source/gd32vw55x_cau.c ****     key_initpara->key_1_high   = 0U;
 119              		.loc 1 104 32
 120 001a 8327C4FE 		lw	a5,-20(s0)
 121 001e 23A40700 		sw	zero,8(a5)
 105:../Firmware/GD32VW55x_standard_peripheral/Source/gd32vw55x_cau.c ****     key_initpara->key_1_low    = 0U;
 122              		.loc 1 105 32
 123 0022 8327C4FE 		lw	a5,-20(s0)
 124 0026 23A60700 		sw	zero,12(a5)
 106:../Firmware/GD32VW55x_standard_peripheral/Source/gd32vw55x_cau.c ****     key_initpara->key_2_high   = 0U;
 125              		.loc 1 106 32
 126 002a 8327C4FE 		lw	a5,-20(s0)
 127 002e 23A80700 		sw	zero,16(a5)
 107:../Firmware/GD32VW55x_standard_peripheral/Source/gd32vw55x_cau.c ****     key_initpara->key_2_low    = 0U;
 128              		.loc 1 107 32
 129 0032 8327C4FE 		lw	a5,-20(s0)
 130 0036 23AA0700 		sw	zero,20(a5)
 108:../Firmware/GD32VW55x_standard_peripheral/Source/gd32vw55x_cau.c ****     key_initpara->key_3_high   = 0U;
 131              		.loc 1 108 32
 132 003a 8327C4FE 		lw	a5,-20(s0)
 133 003e 23AC0700 		sw	zero,24(a5)
 109:../Firmware/GD32VW55x_standard_peripheral/Source/gd32vw55x_cau.c ****     key_initpara->key_3_low    = 0U;
 134              		.loc 1 109 32
 135 0042 8327C4FE 		lw	a5,-20(s0)
 136 0046 23AE0700 		sw	zero,28(a5)
 110:../Firmware/GD32VW55x_standard_peripheral/Source/gd32vw55x_cau.c **** }
 137              		.loc 1 110 1
 138 004a 0100     		nop
 139 004c 7244     		lw	s0,28(sp)
 140              		.cfi_restore 8
 141              		.cfi_def_cfa 2, 32
 142 004e 0561     		addi	sp,sp,32
 143              		.cfi_def_cfa_offset 0
 144 0050 8280     		jr	ra
 145              		.cfi_endproc
 146              	.LFE349:
 148              		.section	.text.cau_iv_struct_para_init,"ax",@progbits
 149              		.align	1
 150              		.globl	cau_iv_struct_para_init
 152              	cau_iv_struct_para_init:
 153              	.LFB350:
 111:../Firmware/GD32VW55x_standard_peripheral/Source/gd32vw55x_cau.c **** 
 112:../Firmware/GD32VW55x_standard_peripheral/Source/gd32vw55x_cau.c **** /*!
 113:../Firmware/GD32VW55x_standard_peripheral/Source/gd32vw55x_cau.c ****     \brief      initialize the vectors parameter struct with the default values
 114:../Firmware/GD32VW55x_standard_peripheral/Source/gd32vw55x_cau.c ****     \param[in]  none
 115:../Firmware/GD32VW55x_standard_peripheral/Source/gd32vw55x_cau.c ****     \param[out] iv_initpara:
 116:../Firmware/GD32VW55x_standard_peripheral/Source/gd32vw55x_cau.c ****                   iv_0_high: init vector 0 high
 117:../Firmware/GD32VW55x_standard_peripheral/Source/gd32vw55x_cau.c ****                   iv_0_low:  init vector 0 low
 118:../Firmware/GD32VW55x_standard_peripheral/Source/gd32vw55x_cau.c ****                   iv_1_high: init vector 1 high
 119:../Firmware/GD32VW55x_standard_peripheral/Source/gd32vw55x_cau.c ****                   iv_1_low:  init vector 1 low
 120:../Firmware/GD32VW55x_standard_peripheral/Source/gd32vw55x_cau.c ****     \retval     none
 121:../Firmware/GD32VW55x_standard_peripheral/Source/gd32vw55x_cau.c **** */
 122:../Firmware/GD32VW55x_standard_peripheral/Source/gd32vw55x_cau.c **** void cau_iv_struct_para_init(cau_iv_parameter_struct *iv_initpara)
 123:../Firmware/GD32VW55x_standard_peripheral/Source/gd32vw55x_cau.c **** {
 154              		.loc 1 123 1
 155              		.cfi_startproc
 156 0000 0111     		addi	sp,sp,-32
 157              		.cfi_def_cfa_offset 32
 158 0002 22CE     		sw	s0,28(sp)
 159              		.cfi_offset 8, -4
 160 0004 0010     		addi	s0,sp,32
 161              		.cfi_def_cfa 8, 0
 162 0006 2326A4FE 		sw	a0,-20(s0)
 124:../Firmware/GD32VW55x_standard_peripheral/Source/gd32vw55x_cau.c ****     /* set the vectors parameters struct with the default values */
 125:../Firmware/GD32VW55x_standard_peripheral/Source/gd32vw55x_cau.c ****     iv_initpara->iv_0_high   = 0U;
 163              		.loc 1 125 30
 164 000a 8327C4FE 		lw	a5,-20(s0)
 165 000e 23A00700 		sw	zero,0(a5)
 126:../Firmware/GD32VW55x_standard_peripheral/Source/gd32vw55x_cau.c ****     iv_initpara->iv_0_low    = 0U;
 166              		.loc 1 126 30
 167 0012 8327C4FE 		lw	a5,-20(s0)
 168 0016 23A20700 		sw	zero,4(a5)
 127:../Firmware/GD32VW55x_standard_peripheral/Source/gd32vw55x_cau.c ****     iv_initpara->iv_1_high   = 0U;
 169              		.loc 1 127 30
 170 001a 8327C4FE 		lw	a5,-20(s0)
 171 001e 23A40700 		sw	zero,8(a5)
 128:../Firmware/GD32VW55x_standard_peripheral/Source/gd32vw55x_cau.c ****     iv_initpara->iv_1_low    = 0U;
 172              		.loc 1 128 30
 173 0022 8327C4FE 		lw	a5,-20(s0)
 174 0026 23A60700 		sw	zero,12(a5)
 129:../Firmware/GD32VW55x_standard_peripheral/Source/gd32vw55x_cau.c **** }
 175              		.loc 1 129 1
 176 002a 0100     		nop
 177 002c 7244     		lw	s0,28(sp)
 178              		.cfi_restore 8
 179              		.cfi_def_cfa 2, 32
 180 002e 0561     		addi	sp,sp,32
 181              		.cfi_def_cfa_offset 0
 182 0030 8280     		jr	ra
 183              		.cfi_endproc
 184              	.LFE350:
 186              		.section	.text.cau_context_struct_para_init,"ax",@progbits
 187              		.align	1
 188              		.globl	cau_context_struct_para_init
 190              	cau_context_struct_para_init:
 191              	.LFB351:
 130:../Firmware/GD32VW55x_standard_peripheral/Source/gd32vw55x_cau.c **** 
 131:../Firmware/GD32VW55x_standard_peripheral/Source/gd32vw55x_cau.c **** /*!
 132:../Firmware/GD32VW55x_standard_peripheral/Source/gd32vw55x_cau.c ****     \brief      initialize the context parameter struct with the default values
 133:../Firmware/GD32VW55x_standard_peripheral/Source/gd32vw55x_cau.c ****     \param[in]  none
 134:../Firmware/GD32VW55x_standard_peripheral/Source/gd32vw55x_cau.c ****     \param[out] cau_context:
 135:../Firmware/GD32VW55x_standard_peripheral/Source/gd32vw55x_cau.c ****                   ctl_config: current configuration
 136:../Firmware/GD32VW55x_standard_peripheral/Source/gd32vw55x_cau.c ****                   iv_0_high: init vector 0 high
 137:../Firmware/GD32VW55x_standard_peripheral/Source/gd32vw55x_cau.c ****                   iv_0_low:  init vector 0 low
 138:../Firmware/GD32VW55x_standard_peripheral/Source/gd32vw55x_cau.c ****                   iv_1_high: init vector 1 high
 139:../Firmware/GD32VW55x_standard_peripheral/Source/gd32vw55x_cau.c ****                   iv_1_low:  init vector 1 low
 140:../Firmware/GD32VW55x_standard_peripheral/Source/gd32vw55x_cau.c ****                   key_0_high: key 0 high
 141:../Firmware/GD32VW55x_standard_peripheral/Source/gd32vw55x_cau.c ****                   key_0_low:  key 0 low
 142:../Firmware/GD32VW55x_standard_peripheral/Source/gd32vw55x_cau.c ****                   key_1_high: key 1 high
 143:../Firmware/GD32VW55x_standard_peripheral/Source/gd32vw55x_cau.c ****                   key_1_low:  key 1 low
 144:../Firmware/GD32VW55x_standard_peripheral/Source/gd32vw55x_cau.c ****                   key_2_high: key 2 high
 145:../Firmware/GD32VW55x_standard_peripheral/Source/gd32vw55x_cau.c ****                   key_2_low:  key 2 low
 146:../Firmware/GD32VW55x_standard_peripheral/Source/gd32vw55x_cau.c ****                   key_3_high: key 3 high
 147:../Firmware/GD32VW55x_standard_peripheral/Source/gd32vw55x_cau.c ****                   key_3_low:  key 3 low
 148:../Firmware/GD32VW55x_standard_peripheral/Source/gd32vw55x_cau.c ****                   gcmccmctxs[8]: GCM or CCM mode context switch
 149:../Firmware/GD32VW55x_standard_peripheral/Source/gd32vw55x_cau.c ****                   gcmctxs[8]: GCM mode context switch
 150:../Firmware/GD32VW55x_standard_peripheral/Source/gd32vw55x_cau.c ****     \retval     none
 151:../Firmware/GD32VW55x_standard_peripheral/Source/gd32vw55x_cau.c **** */
 152:../Firmware/GD32VW55x_standard_peripheral/Source/gd32vw55x_cau.c **** void cau_context_struct_para_init(cau_context_parameter_struct *cau_context)
 153:../Firmware/GD32VW55x_standard_peripheral/Source/gd32vw55x_cau.c **** {
 192              		.loc 1 153 1
 193              		.cfi_startproc
 194 0000 0111     		addi	sp,sp,-32
 195              		.cfi_def_cfa_offset 32
 196 0002 22CE     		sw	s0,28(sp)
 197              		.cfi_offset 8, -4
 198 0004 0010     		addi	s0,sp,32
 199              		.cfi_def_cfa 8, 0
 200 0006 2326A4FE 		sw	a0,-20(s0)
 154:../Firmware/GD32VW55x_standard_peripheral/Source/gd32vw55x_cau.c ****     cau_context->ctl_config = 0U;
 201              		.loc 1 154 29
 202 000a 8327C4FE 		lw	a5,-20(s0)
 203 000e 23A00700 		sw	zero,0(a5)
 155:../Firmware/GD32VW55x_standard_peripheral/Source/gd32vw55x_cau.c **** 
 156:../Firmware/GD32VW55x_standard_peripheral/Source/gd32vw55x_cau.c ****     /* set the vectors parameters with the default values */
 157:../Firmware/GD32VW55x_standard_peripheral/Source/gd32vw55x_cau.c ****     cau_context->iv_0_high  = 0U;
 204              		.loc 1 157 29
 205 0012 8327C4FE 		lw	a5,-20(s0)
 206 0016 23A20700 		sw	zero,4(a5)
 158:../Firmware/GD32VW55x_standard_peripheral/Source/gd32vw55x_cau.c ****     cau_context->iv_0_low   = 0U;
 207              		.loc 1 158 29
 208 001a 8327C4FE 		lw	a5,-20(s0)
 209 001e 23A40700 		sw	zero,8(a5)
 159:../Firmware/GD32VW55x_standard_peripheral/Source/gd32vw55x_cau.c ****     cau_context->iv_1_high  = 0U;
 210              		.loc 1 159 29
 211 0022 8327C4FE 		lw	a5,-20(s0)
 212 0026 23A60700 		sw	zero,12(a5)
 160:../Firmware/GD32VW55x_standard_peripheral/Source/gd32vw55x_cau.c ****     cau_context->iv_1_low   = 0U;
 213              		.loc 1 160 29
 214 002a 8327C4FE 		lw	a5,-20(s0)
 215 002e 23A80700 		sw	zero,16(a5)
 161:../Firmware/GD32VW55x_standard_peripheral/Source/gd32vw55x_cau.c **** 
 162:../Firmware/GD32VW55x_standard_peripheral/Source/gd32vw55x_cau.c ****     /* set the key parameters with the default values */
 163:../Firmware/GD32VW55x_standard_peripheral/Source/gd32vw55x_cau.c ****     cau_context->key_0_high = 0U;
 216              		.loc 1 163 29
 217 0032 8327C4FE 		lw	a5,-20(s0)
 218 0036 23AA0700 		sw	zero,20(a5)
 164:../Firmware/GD32VW55x_standard_peripheral/Source/gd32vw55x_cau.c ****     cau_context->key_0_low  = 0U;
 219              		.loc 1 164 29
 220 003a 8327C4FE 		lw	a5,-20(s0)
 221 003e 23AC0700 		sw	zero,24(a5)
 165:../Firmware/GD32VW55x_standard_peripheral/Source/gd32vw55x_cau.c ****     cau_context->key_1_high = 0U;
 222              		.loc 1 165 29
 223 0042 8327C4FE 		lw	a5,-20(s0)
 224 0046 23AE0700 		sw	zero,28(a5)
 166:../Firmware/GD32VW55x_standard_peripheral/Source/gd32vw55x_cau.c ****     cau_context->key_1_low  = 0U;
 225              		.loc 1 166 29
 226 004a 8327C4FE 		lw	a5,-20(s0)
 227 004e 23A00702 		sw	zero,32(a5)
 167:../Firmware/GD32VW55x_standard_peripheral/Source/gd32vw55x_cau.c ****     cau_context->key_2_high = 0U;
 228              		.loc 1 167 29
 229 0052 8327C4FE 		lw	a5,-20(s0)
 230 0056 23A20702 		sw	zero,36(a5)
 168:../Firmware/GD32VW55x_standard_peripheral/Source/gd32vw55x_cau.c ****     cau_context->key_2_low  = 0U;
 231              		.loc 1 168 29
 232 005a 8327C4FE 		lw	a5,-20(s0)
 233 005e 23A40702 		sw	zero,40(a5)
 169:../Firmware/GD32VW55x_standard_peripheral/Source/gd32vw55x_cau.c ****     cau_context->key_3_high = 0U;
 234              		.loc 1 169 29
 235 0062 8327C4FE 		lw	a5,-20(s0)
 236 0066 23A60702 		sw	zero,44(a5)
 170:../Firmware/GD32VW55x_standard_peripheral/Source/gd32vw55x_cau.c ****     cau_context->key_3_low  = 0U;
 237              		.loc 1 170 29
 238 006a 8327C4FE 		lw	a5,-20(s0)
 239 006e 23A80702 		sw	zero,48(a5)
 171:../Firmware/GD32VW55x_standard_peripheral/Source/gd32vw55x_cau.c **** 
 172:../Firmware/GD32VW55x_standard_peripheral/Source/gd32vw55x_cau.c ****     /* set the context switch with the default values */
 173:../Firmware/GD32VW55x_standard_peripheral/Source/gd32vw55x_cau.c ****     cau_context->gcmccmctxs[0] = 0U;
 240              		.loc 1 173 32
 241 0072 8327C4FE 		lw	a5,-20(s0)
 242 0076 23AA0702 		sw	zero,52(a5)
 174:../Firmware/GD32VW55x_standard_peripheral/Source/gd32vw55x_cau.c ****     cau_context->gcmccmctxs[1] = 0U;
 243              		.loc 1 174 32
 244 007a 8327C4FE 		lw	a5,-20(s0)
 245 007e 23AC0702 		sw	zero,56(a5)
 175:../Firmware/GD32VW55x_standard_peripheral/Source/gd32vw55x_cau.c ****     cau_context->gcmccmctxs[2] = 0U;
 246              		.loc 1 175 32
 247 0082 8327C4FE 		lw	a5,-20(s0)
 248 0086 23AE0702 		sw	zero,60(a5)
 176:../Firmware/GD32VW55x_standard_peripheral/Source/gd32vw55x_cau.c ****     cau_context->gcmccmctxs[3] = 0U;
 249              		.loc 1 176 32
 250 008a 8327C4FE 		lw	a5,-20(s0)
 251 008e 23A00704 		sw	zero,64(a5)
 177:../Firmware/GD32VW55x_standard_peripheral/Source/gd32vw55x_cau.c ****     cau_context->gcmccmctxs[4] = 0U;
 252              		.loc 1 177 32
 253 0092 8327C4FE 		lw	a5,-20(s0)
 254 0096 23A20704 		sw	zero,68(a5)
 178:../Firmware/GD32VW55x_standard_peripheral/Source/gd32vw55x_cau.c ****     cau_context->gcmccmctxs[5] = 0U;
 255              		.loc 1 178 32
 256 009a 8327C4FE 		lw	a5,-20(s0)
 257 009e 23A40704 		sw	zero,72(a5)
 179:../Firmware/GD32VW55x_standard_peripheral/Source/gd32vw55x_cau.c ****     cau_context->gcmccmctxs[6] = 0U;
 258              		.loc 1 179 32
 259 00a2 8327C4FE 		lw	a5,-20(s0)
 260 00a6 23A60704 		sw	zero,76(a5)
 180:../Firmware/GD32VW55x_standard_peripheral/Source/gd32vw55x_cau.c ****     cau_context->gcmccmctxs[7] = 0U;
 261              		.loc 1 180 32
 262 00aa 8327C4FE 		lw	a5,-20(s0)
 263 00ae 23A80704 		sw	zero,80(a5)
 181:../Firmware/GD32VW55x_standard_peripheral/Source/gd32vw55x_cau.c **** 
 182:../Firmware/GD32VW55x_standard_peripheral/Source/gd32vw55x_cau.c ****     cau_context->gcmctxs[0] = 0U;
 264              		.loc 1 182 29
 265 00b2 8327C4FE 		lw	a5,-20(s0)
 266 00b6 23AA0704 		sw	zero,84(a5)
 183:../Firmware/GD32VW55x_standard_peripheral/Source/gd32vw55x_cau.c ****     cau_context->gcmctxs[1] = 0U;
 267              		.loc 1 183 29
 268 00ba 8327C4FE 		lw	a5,-20(s0)
 269 00be 23AC0704 		sw	zero,88(a5)
 184:../Firmware/GD32VW55x_standard_peripheral/Source/gd32vw55x_cau.c ****     cau_context->gcmctxs[2] = 0U;
 270              		.loc 1 184 29
 271 00c2 8327C4FE 		lw	a5,-20(s0)
 272 00c6 23AE0704 		sw	zero,92(a5)
 185:../Firmware/GD32VW55x_standard_peripheral/Source/gd32vw55x_cau.c ****     cau_context->gcmctxs[3] = 0U;
 273              		.loc 1 185 29
 274 00ca 8327C4FE 		lw	a5,-20(s0)
 275 00ce 23A00706 		sw	zero,96(a5)
 186:../Firmware/GD32VW55x_standard_peripheral/Source/gd32vw55x_cau.c ****     cau_context->gcmctxs[4] = 0U;
 276              		.loc 1 186 29
 277 00d2 8327C4FE 		lw	a5,-20(s0)
 278 00d6 23A20706 		sw	zero,100(a5)
 187:../Firmware/GD32VW55x_standard_peripheral/Source/gd32vw55x_cau.c ****     cau_context->gcmctxs[5] = 0U;
 279              		.loc 1 187 29
 280 00da 8327C4FE 		lw	a5,-20(s0)
 281 00de 23A40706 		sw	zero,104(a5)
 188:../Firmware/GD32VW55x_standard_peripheral/Source/gd32vw55x_cau.c ****     cau_context->gcmctxs[6] = 0U;
 282              		.loc 1 188 29
 283 00e2 8327C4FE 		lw	a5,-20(s0)
 284 00e6 23A60706 		sw	zero,108(a5)
 189:../Firmware/GD32VW55x_standard_peripheral/Source/gd32vw55x_cau.c ****     cau_context->gcmctxs[7] = 0U;
 285              		.loc 1 189 29
 286 00ea 8327C4FE 		lw	a5,-20(s0)
 287 00ee 23A80706 		sw	zero,112(a5)
 190:../Firmware/GD32VW55x_standard_peripheral/Source/gd32vw55x_cau.c **** }
 288              		.loc 1 190 1
 289 00f2 0100     		nop
 290 00f4 7244     		lw	s0,28(sp)
 291              		.cfi_restore 8
 292              		.cfi_def_cfa 2, 32
 293 00f6 0561     		addi	sp,sp,32
 294              		.cfi_def_cfa_offset 0
 295 00f8 8280     		jr	ra
 296              		.cfi_endproc
 297              	.LFE351:
 299              		.section	.text.cau_enable,"ax",@progbits
 300              		.align	1
 301              		.globl	cau_enable
 303              	cau_enable:
 304              	.LFB352:
 191:../Firmware/GD32VW55x_standard_peripheral/Source/gd32vw55x_cau.c **** 
 192:../Firmware/GD32VW55x_standard_peripheral/Source/gd32vw55x_cau.c **** /*!
 193:../Firmware/GD32VW55x_standard_peripheral/Source/gd32vw55x_cau.c ****     \brief      enable the CAU peripheral
 194:../Firmware/GD32VW55x_standard_peripheral/Source/gd32vw55x_cau.c ****     \param[in]  none
 195:../Firmware/GD32VW55x_standard_peripheral/Source/gd32vw55x_cau.c ****     \param[out] none
 196:../Firmware/GD32VW55x_standard_peripheral/Source/gd32vw55x_cau.c ****     \retval     none
 197:../Firmware/GD32VW55x_standard_peripheral/Source/gd32vw55x_cau.c **** */
 198:../Firmware/GD32VW55x_standard_peripheral/Source/gd32vw55x_cau.c **** void cau_enable(void)
 199:../Firmware/GD32VW55x_standard_peripheral/Source/gd32vw55x_cau.c **** {
 305              		.loc 1 199 1
 306              		.cfi_startproc
 307 0000 4111     		addi	sp,sp,-16
 308              		.cfi_def_cfa_offset 16
 309 0002 22C6     		sw	s0,12(sp)
 310              		.cfi_offset 8, -4
 311 0004 0008     		addi	s0,sp,16
 312              		.cfi_def_cfa 8, 0
 200:../Firmware/GD32VW55x_standard_peripheral/Source/gd32vw55x_cau.c ****     /* enable the CAU processor */
 201:../Firmware/GD32VW55x_standard_peripheral/Source/gd32vw55x_cau.c ****     CAU_CTL |= CAU_CTL_CAUEN;
 313              		.loc 1 201 13
 314 0006 B707064C 		li	a5,1275461632
 315 000a 9443     		lw	a3,0(a5)
 316 000c B707064C 		li	a5,1275461632
 317 0010 2167     		li	a4,32768
 318 0012 558F     		or	a4,a3,a4
 319 0014 98C3     		sw	a4,0(a5)
 202:../Firmware/GD32VW55x_standard_peripheral/Source/gd32vw55x_cau.c **** }
 320              		.loc 1 202 1
 321 0016 0100     		nop
 322 0018 3244     		lw	s0,12(sp)
 323              		.cfi_restore 8
 324              		.cfi_def_cfa 2, 16
 325 001a 4101     		addi	sp,sp,16
 326              		.cfi_def_cfa_offset 0
 327 001c 8280     		jr	ra
 328              		.cfi_endproc
 329              	.LFE352:
 331              		.section	.text.cau_disable,"ax",@progbits
 332              		.align	1
 333              		.globl	cau_disable
 335              	cau_disable:
 336              	.LFB353:
 203:../Firmware/GD32VW55x_standard_peripheral/Source/gd32vw55x_cau.c **** 
 204:../Firmware/GD32VW55x_standard_peripheral/Source/gd32vw55x_cau.c **** /*!
 205:../Firmware/GD32VW55x_standard_peripheral/Source/gd32vw55x_cau.c ****     \brief      disable the CAU peripheral
 206:../Firmware/GD32VW55x_standard_peripheral/Source/gd32vw55x_cau.c ****     \param[in]  none
 207:../Firmware/GD32VW55x_standard_peripheral/Source/gd32vw55x_cau.c ****     \param[out] none
 208:../Firmware/GD32VW55x_standard_peripheral/Source/gd32vw55x_cau.c ****     \retval     none
 209:../Firmware/GD32VW55x_standard_peripheral/Source/gd32vw55x_cau.c **** */
 210:../Firmware/GD32VW55x_standard_peripheral/Source/gd32vw55x_cau.c **** void cau_disable(void)
 211:../Firmware/GD32VW55x_standard_peripheral/Source/gd32vw55x_cau.c **** {
 337              		.loc 1 211 1
 338              		.cfi_startproc
 339 0000 4111     		addi	sp,sp,-16
 340              		.cfi_def_cfa_offset 16
 341 0002 22C6     		sw	s0,12(sp)
 342              		.cfi_offset 8, -4
 343 0004 0008     		addi	s0,sp,16
 344              		.cfi_def_cfa 8, 0
 212:../Firmware/GD32VW55x_standard_peripheral/Source/gd32vw55x_cau.c ****     /* disable the CAU processor */
 213:../Firmware/GD32VW55x_standard_peripheral/Source/gd32vw55x_cau.c ****     CAU_CTL &= ~CAU_CTL_CAUEN;
 345              		.loc 1 213 13
 346 0006 B707064C 		li	a5,1275461632
 347 000a 9443     		lw	a3,0(a5)
 348 000c B707064C 		li	a5,1275461632
 349 0010 6177     		li	a4,-32768
 350 0012 7D17     		addi	a4,a4,-1
 351 0014 758F     		and	a4,a3,a4
 352 0016 98C3     		sw	a4,0(a5)
 214:../Firmware/GD32VW55x_standard_peripheral/Source/gd32vw55x_cau.c **** }
 353              		.loc 1 214 1
 354 0018 0100     		nop
 355 001a 3244     		lw	s0,12(sp)
 356              		.cfi_restore 8
 357              		.cfi_def_cfa 2, 16
 358 001c 4101     		addi	sp,sp,16
 359              		.cfi_def_cfa_offset 0
 360 001e 8280     		jr	ra
 361              		.cfi_endproc
 362              	.LFE353:
 364              		.section	.text.cau_dma_enable,"ax",@progbits
 365              		.align	1
 366              		.globl	cau_dma_enable
 368              	cau_dma_enable:
 369              	.LFB354:
 215:../Firmware/GD32VW55x_standard_peripheral/Source/gd32vw55x_cau.c **** 
 216:../Firmware/GD32VW55x_standard_peripheral/Source/gd32vw55x_cau.c **** /*!
 217:../Firmware/GD32VW55x_standard_peripheral/Source/gd32vw55x_cau.c ****     \brief      enable the CAU DMA interface
 218:../Firmware/GD32VW55x_standard_peripheral/Source/gd32vw55x_cau.c ****     \param[in]  dma_req: specify the CAU DMA transfer request to be enabled
 219:../Firmware/GD32VW55x_standard_peripheral/Source/gd32vw55x_cau.c ****                 one or more parameters can be selected which are shown as below:
 220:../Firmware/GD32VW55x_standard_peripheral/Source/gd32vw55x_cau.c ****       \arg        CAU_DMA_INFIFO: DMA for incoming(Rx) data transfer
 221:../Firmware/GD32VW55x_standard_peripheral/Source/gd32vw55x_cau.c ****       \arg        CAU_DMA_OUTFIFO: DMA for outgoing(Tx) data transfer
 222:../Firmware/GD32VW55x_standard_peripheral/Source/gd32vw55x_cau.c ****     \param[out] none
 223:../Firmware/GD32VW55x_standard_peripheral/Source/gd32vw55x_cau.c ****     \retval     none
 224:../Firmware/GD32VW55x_standard_peripheral/Source/gd32vw55x_cau.c **** */
 225:../Firmware/GD32VW55x_standard_peripheral/Source/gd32vw55x_cau.c **** void cau_dma_enable(uint32_t dma_req)
 226:../Firmware/GD32VW55x_standard_peripheral/Source/gd32vw55x_cau.c **** {
 370              		.loc 1 226 1
 371              		.cfi_startproc
 372 0000 0111     		addi	sp,sp,-32
 373              		.cfi_def_cfa_offset 32
 374 0002 22CE     		sw	s0,28(sp)
 375              		.cfi_offset 8, -4
 376 0004 0010     		addi	s0,sp,32
 377              		.cfi_def_cfa 8, 0
 378 0006 2326A4FE 		sw	a0,-20(s0)
 227:../Firmware/GD32VW55x_standard_peripheral/Source/gd32vw55x_cau.c ****     /* enable the selected CAU DMA request */
 228:../Firmware/GD32VW55x_standard_peripheral/Source/gd32vw55x_cau.c ****     CAU_DMAEN |= dma_req;
 379              		.loc 1 228 15
 380 000a B707064C 		li	a5,1275461632
 381 000e C107     		addi	a5,a5,16
 382 0010 9443     		lw	a3,0(a5)
 383 0012 B707064C 		li	a5,1275461632
 384 0016 C107     		addi	a5,a5,16
 385 0018 0327C4FE 		lw	a4,-20(s0)
 386 001c 558F     		or	a4,a3,a4
 387 001e 98C3     		sw	a4,0(a5)
 229:../Firmware/GD32VW55x_standard_peripheral/Source/gd32vw55x_cau.c **** }
 388              		.loc 1 229 1
 389 0020 0100     		nop
 390 0022 7244     		lw	s0,28(sp)
 391              		.cfi_restore 8
 392              		.cfi_def_cfa 2, 32
 393 0024 0561     		addi	sp,sp,32
 394              		.cfi_def_cfa_offset 0
 395 0026 8280     		jr	ra
 396              		.cfi_endproc
 397              	.LFE354:
 399              		.section	.text.cau_dma_disable,"ax",@progbits
 400              		.align	1
 401              		.globl	cau_dma_disable
 403              	cau_dma_disable:
 404              	.LFB355:
 230:../Firmware/GD32VW55x_standard_peripheral/Source/gd32vw55x_cau.c **** 
 231:../Firmware/GD32VW55x_standard_peripheral/Source/gd32vw55x_cau.c **** /*!
 232:../Firmware/GD32VW55x_standard_peripheral/Source/gd32vw55x_cau.c ****     \brief      disable the CAU DMA interface
 233:../Firmware/GD32VW55x_standard_peripheral/Source/gd32vw55x_cau.c ****     \param[in]  dma_req: specify the CAU DMA transfer request to be disabled
 234:../Firmware/GD32VW55x_standard_peripheral/Source/gd32vw55x_cau.c ****                 one or more parameters can be selected which are shown as below:
 235:../Firmware/GD32VW55x_standard_peripheral/Source/gd32vw55x_cau.c ****       \arg        CAU_DMA_INFIFO: DMA for incoming(Rx) data transfer
 236:../Firmware/GD32VW55x_standard_peripheral/Source/gd32vw55x_cau.c ****       \arg        CAU_DMA_OUTFIFO: DMA for outgoing(Tx) data transfer
 237:../Firmware/GD32VW55x_standard_peripheral/Source/gd32vw55x_cau.c ****     \param[out] none
 238:../Firmware/GD32VW55x_standard_peripheral/Source/gd32vw55x_cau.c ****     \retval     none
 239:../Firmware/GD32VW55x_standard_peripheral/Source/gd32vw55x_cau.c **** */
 240:../Firmware/GD32VW55x_standard_peripheral/Source/gd32vw55x_cau.c **** void cau_dma_disable(uint32_t dma_req)
 241:../Firmware/GD32VW55x_standard_peripheral/Source/gd32vw55x_cau.c **** {
 405              		.loc 1 241 1
 406              		.cfi_startproc
 407 0000 0111     		addi	sp,sp,-32
 408              		.cfi_def_cfa_offset 32
 409 0002 22CE     		sw	s0,28(sp)
 410              		.cfi_offset 8, -4
 411 0004 0010     		addi	s0,sp,32
 412              		.cfi_def_cfa 8, 0
 413 0006 2326A4FE 		sw	a0,-20(s0)
 242:../Firmware/GD32VW55x_standard_peripheral/Source/gd32vw55x_cau.c ****     /* disable the selected CAU DMA request */
 243:../Firmware/GD32VW55x_standard_peripheral/Source/gd32vw55x_cau.c ****     CAU_DMAEN &= ~(dma_req);
 414              		.loc 1 243 15
 415 000a B707064C 		li	a5,1275461632
 416 000e C107     		addi	a5,a5,16
 417 0010 9443     		lw	a3,0(a5)
 418              		.loc 1 243 18
 419 0012 8327C4FE 		lw	a5,-20(s0)
 420 0016 13C7F7FF 		not	a4,a5
 421              		.loc 1 243 15
 422 001a B707064C 		li	a5,1275461632
 423 001e C107     		addi	a5,a5,16
 424 0020 758F     		and	a4,a3,a4
 425 0022 98C3     		sw	a4,0(a5)
 244:../Firmware/GD32VW55x_standard_peripheral/Source/gd32vw55x_cau.c **** }
 426              		.loc 1 244 1
 427 0024 0100     		nop
 428 0026 7244     		lw	s0,28(sp)
 429              		.cfi_restore 8
 430              		.cfi_def_cfa 2, 32
 431 0028 0561     		addi	sp,sp,32
 432              		.cfi_def_cfa_offset 0
 433 002a 8280     		jr	ra
 434              		.cfi_endproc
 435              	.LFE355:
 437              		.section	.text.cau_init,"ax",@progbits
 438              		.align	1
 439              		.globl	cau_init
 441              	cau_init:
 442              	.LFB356:
 245:../Firmware/GD32VW55x_standard_peripheral/Source/gd32vw55x_cau.c **** 
 246:../Firmware/GD32VW55x_standard_peripheral/Source/gd32vw55x_cau.c **** /*!
 247:../Firmware/GD32VW55x_standard_peripheral/Source/gd32vw55x_cau.c ****     \brief      initialize the CAU peripheral
 248:../Firmware/GD32VW55x_standard_peripheral/Source/gd32vw55x_cau.c ****     \param[in]  alg_dir: algorithm direction
 249:../Firmware/GD32VW55x_standard_peripheral/Source/gd32vw55x_cau.c ****                 only one parameter can be selected which is shown as below:
 250:../Firmware/GD32VW55x_standard_peripheral/Source/gd32vw55x_cau.c ****       \arg        CAU_ENCRYPT: encrypt
 251:../Firmware/GD32VW55x_standard_peripheral/Source/gd32vw55x_cau.c ****       \arg        CAU_DECRYPT: decrypt
 252:../Firmware/GD32VW55x_standard_peripheral/Source/gd32vw55x_cau.c ****     \param[in]  algo_mode: algorithm mode selection
 253:../Firmware/GD32VW55x_standard_peripheral/Source/gd32vw55x_cau.c ****                 only one parameter can be selected which is shown as below:
 254:../Firmware/GD32VW55x_standard_peripheral/Source/gd32vw55x_cau.c ****       \arg        CAU_MODE_TDES_ECB: TDES-ECB (3DES Electronic codebook)
 255:../Firmware/GD32VW55x_standard_peripheral/Source/gd32vw55x_cau.c ****       \arg        CAU_MODE_TDES_CBC: TDES-CBC (3DES Cipher block chaining)
 256:../Firmware/GD32VW55x_standard_peripheral/Source/gd32vw55x_cau.c ****       \arg        CAU_MODE_DES_ECB: DES-ECB (simple DES Electronic codebook)
 257:../Firmware/GD32VW55x_standard_peripheral/Source/gd32vw55x_cau.c ****       \arg        CAU_MODE_DES_CBC: DES-CBC (simple DES Cipher block chaining)
 258:../Firmware/GD32VW55x_standard_peripheral/Source/gd32vw55x_cau.c ****       \arg        CAU_MODE_AES_ECB: AES-ECB (AES Electronic codebook)
 259:../Firmware/GD32VW55x_standard_peripheral/Source/gd32vw55x_cau.c ****       \arg        CAU_MODE_AES_CBC: AES-CBC (AES Cipher block chaining)
 260:../Firmware/GD32VW55x_standard_peripheral/Source/gd32vw55x_cau.c ****       \arg        CAU_MODE_AES_CTR: AES-CTR (AES counter mode)
 261:../Firmware/GD32VW55x_standard_peripheral/Source/gd32vw55x_cau.c ****       \arg        CAU_MODE_AES_KEY: AES decryption key preparation mode
 262:../Firmware/GD32VW55x_standard_peripheral/Source/gd32vw55x_cau.c ****       \arg        CAU_MODE_AES_GCM: AES-GCM (AES Galois/counter mode)
 263:../Firmware/GD32VW55x_standard_peripheral/Source/gd32vw55x_cau.c ****       \arg        CAU_MODE_AES_CCM: AES-CCM (AES combined cipher machine mode)
 264:../Firmware/GD32VW55x_standard_peripheral/Source/gd32vw55x_cau.c ****       \arg        CAU_MODE_AES_CFB: AES-CFB (cipher feedback mode)
 265:../Firmware/GD32VW55x_standard_peripheral/Source/gd32vw55x_cau.c ****       \arg        CAU_MODE_AES_OFB: AES-OFB (output feedback mode)
 266:../Firmware/GD32VW55x_standard_peripheral/Source/gd32vw55x_cau.c ****     \param[in]  swapping: data swapping selection
 267:../Firmware/GD32VW55x_standard_peripheral/Source/gd32vw55x_cau.c ****                 only one parameter can be selected which is shown as below:
 268:../Firmware/GD32VW55x_standard_peripheral/Source/gd32vw55x_cau.c ****       \arg        CAU_SWAPPING_32BIT: no swapping
 269:../Firmware/GD32VW55x_standard_peripheral/Source/gd32vw55x_cau.c ****       \arg        CAU_SWAPPING_16BIT: half-word swapping
 270:../Firmware/GD32VW55x_standard_peripheral/Source/gd32vw55x_cau.c ****       \arg        CAU_SWAPPING_8BIT: bytes swapping
 271:../Firmware/GD32VW55x_standard_peripheral/Source/gd32vw55x_cau.c ****       \arg        CAU_SWAPPING_1BIT: bit swapping
 272:../Firmware/GD32VW55x_standard_peripheral/Source/gd32vw55x_cau.c ****     \param[out] none
 273:../Firmware/GD32VW55x_standard_peripheral/Source/gd32vw55x_cau.c ****     \retval     none
 274:../Firmware/GD32VW55x_standard_peripheral/Source/gd32vw55x_cau.c **** */
 275:../Firmware/GD32VW55x_standard_peripheral/Source/gd32vw55x_cau.c **** void cau_init(uint32_t alg_dir, uint32_t algo_mode, uint32_t swapping)
 276:../Firmware/GD32VW55x_standard_peripheral/Source/gd32vw55x_cau.c **** {
 443              		.loc 1 276 1
 444              		.cfi_startproc
 445 0000 0111     		addi	sp,sp,-32
 446              		.cfi_def_cfa_offset 32
 447 0002 22CE     		sw	s0,28(sp)
 448              		.cfi_offset 8, -4
 449 0004 0010     		addi	s0,sp,32
 450              		.cfi_def_cfa 8, 0
 451 0006 2326A4FE 		sw	a0,-20(s0)
 452 000a 2324B4FE 		sw	a1,-24(s0)
 453 000e 2322C4FE 		sw	a2,-28(s0)
 277:../Firmware/GD32VW55x_standard_peripheral/Source/gd32vw55x_cau.c ****     /* select algorithm mode */
 278:../Firmware/GD32VW55x_standard_peripheral/Source/gd32vw55x_cau.c ****     CAU_CTL &= ~CAU_CTL_ALGM;
 454              		.loc 1 278 13
 455 0012 B707064C 		li	a5,1275461632
 456 0016 9443     		lw	a3,0(a5)
 457 0018 B707064C 		li	a5,1275461632
 458 001c 3707F8FF 		li	a4,-524288
 459 0020 130777FC 		addi	a4,a4,-57
 460 0024 758F     		and	a4,a3,a4
 461 0026 98C3     		sw	a4,0(a5)
 279:../Firmware/GD32VW55x_standard_peripheral/Source/gd32vw55x_cau.c ****     CAU_CTL |= algo_mode;
 462              		.loc 1 279 13
 463 0028 B707064C 		li	a5,1275461632
 464 002c 9443     		lw	a3,0(a5)
 465 002e B707064C 		li	a5,1275461632
 466 0032 032784FE 		lw	a4,-24(s0)
 467 0036 558F     		or	a4,a3,a4
 468 0038 98C3     		sw	a4,0(a5)
 280:../Firmware/GD32VW55x_standard_peripheral/Source/gd32vw55x_cau.c **** 
 281:../Firmware/GD32VW55x_standard_peripheral/Source/gd32vw55x_cau.c ****     /* select data swapping */
 282:../Firmware/GD32VW55x_standard_peripheral/Source/gd32vw55x_cau.c ****     CAU_CTL &= ~CAU_CTL_DATAM;
 469              		.loc 1 282 13
 470 003a B707064C 		li	a5,1275461632
 471 003e 9843     		lw	a4,0(a5)
 472 0040 B707064C 		li	a5,1275461632
 473 0044 1377F7F3 		andi	a4,a4,-193
 474 0048 98C3     		sw	a4,0(a5)
 283:../Firmware/GD32VW55x_standard_peripheral/Source/gd32vw55x_cau.c ****     CAU_CTL |= swapping;
 475              		.loc 1 283 13
 476 004a B707064C 		li	a5,1275461632
 477 004e 9443     		lw	a3,0(a5)
 478 0050 B707064C 		li	a5,1275461632
 479 0054 032744FE 		lw	a4,-28(s0)
 480 0058 558F     		or	a4,a3,a4
 481 005a 98C3     		sw	a4,0(a5)
 284:../Firmware/GD32VW55x_standard_peripheral/Source/gd32vw55x_cau.c **** 
 285:../Firmware/GD32VW55x_standard_peripheral/Source/gd32vw55x_cau.c ****     /* select algorithm direction */
 286:../Firmware/GD32VW55x_standard_peripheral/Source/gd32vw55x_cau.c ****     CAU_CTL &= ~CAU_CTL_CAUDIR;
 482              		.loc 1 286 13
 483 005c B707064C 		li	a5,1275461632
 484 0060 9843     		lw	a4,0(a5)
 485 0062 B707064C 		li	a5,1275461632
 486 0066 6D9B     		andi	a4,a4,-5
 487 0068 98C3     		sw	a4,0(a5)
 287:../Firmware/GD32VW55x_standard_peripheral/Source/gd32vw55x_cau.c ****     CAU_CTL |= alg_dir;
 488              		.loc 1 287 13
 489 006a B707064C 		li	a5,1275461632
 490 006e 9443     		lw	a3,0(a5)
 491 0070 B707064C 		li	a5,1275461632
 492 0074 0327C4FE 		lw	a4,-20(s0)
 493 0078 558F     		or	a4,a3,a4
 494 007a 98C3     		sw	a4,0(a5)
 288:../Firmware/GD32VW55x_standard_peripheral/Source/gd32vw55x_cau.c **** }
 495              		.loc 1 288 1
 496 007c 0100     		nop
 497 007e 7244     		lw	s0,28(sp)
 498              		.cfi_restore 8
 499              		.cfi_def_cfa 2, 32
 500 0080 0561     		addi	sp,sp,32
 501              		.cfi_def_cfa_offset 0
 502 0082 8280     		jr	ra
 503              		.cfi_endproc
 504              	.LFE356:
 506              		.section	.text.cau_aes_keysize_config,"ax",@progbits
 507              		.align	1
 508              		.globl	cau_aes_keysize_config
 510              	cau_aes_keysize_config:
 511              	.LFB357:
 289:../Firmware/GD32VW55x_standard_peripheral/Source/gd32vw55x_cau.c **** 
 290:../Firmware/GD32VW55x_standard_peripheral/Source/gd32vw55x_cau.c **** /*!
 291:../Firmware/GD32VW55x_standard_peripheral/Source/gd32vw55x_cau.c ****     \brief      configure key size if use AES algorithm
 292:../Firmware/GD32VW55x_standard_peripheral/Source/gd32vw55x_cau.c ****     \param[in]  key_size: key length selection when aes mode
 293:../Firmware/GD32VW55x_standard_peripheral/Source/gd32vw55x_cau.c ****                 only one parameter can be selected which is shown as below:
 294:../Firmware/GD32VW55x_standard_peripheral/Source/gd32vw55x_cau.c ****       \arg        CAU_KEYSIZE_128BIT: 128 bit key length
 295:../Firmware/GD32VW55x_standard_peripheral/Source/gd32vw55x_cau.c ****       \arg        CAU_KEYSIZE_192BIT: 192 bit key length
 296:../Firmware/GD32VW55x_standard_peripheral/Source/gd32vw55x_cau.c ****       \arg        CAU_KEYSIZE_256BIT: 256 bit key length
 297:../Firmware/GD32VW55x_standard_peripheral/Source/gd32vw55x_cau.c ****     \param[out] none
 298:../Firmware/GD32VW55x_standard_peripheral/Source/gd32vw55x_cau.c ****     \retval     none
 299:../Firmware/GD32VW55x_standard_peripheral/Source/gd32vw55x_cau.c **** */
 300:../Firmware/GD32VW55x_standard_peripheral/Source/gd32vw55x_cau.c **** void cau_aes_keysize_config(uint32_t key_size)
 301:../Firmware/GD32VW55x_standard_peripheral/Source/gd32vw55x_cau.c **** {
 512              		.loc 1 301 1
 513              		.cfi_startproc
 514 0000 0111     		addi	sp,sp,-32
 515              		.cfi_def_cfa_offset 32
 516 0002 22CE     		sw	s0,28(sp)
 517              		.cfi_offset 8, -4
 518 0004 0010     		addi	s0,sp,32
 519              		.cfi_def_cfa 8, 0
 520 0006 2326A4FE 		sw	a0,-20(s0)
 302:../Firmware/GD32VW55x_standard_peripheral/Source/gd32vw55x_cau.c ****     CAU_CTL &= ~CAU_CTL_KEYM;
 521              		.loc 1 302 13
 522 000a B707064C 		li	a5,1275461632
 523 000e 9843     		lw	a4,0(a5)
 524 0010 B707064C 		li	a5,1275461632
 525 0014 1377F7CF 		andi	a4,a4,-769
 526 0018 98C3     		sw	a4,0(a5)
 303:../Firmware/GD32VW55x_standard_peripheral/Source/gd32vw55x_cau.c ****     CAU_CTL |= key_size;
 527              		.loc 1 303 13
 528 001a B707064C 		li	a5,1275461632
 529 001e 9443     		lw	a3,0(a5)
 530 0020 B707064C 		li	a5,1275461632
 531 0024 0327C4FE 		lw	a4,-20(s0)
 532 0028 558F     		or	a4,a3,a4
 533 002a 98C3     		sw	a4,0(a5)
 304:../Firmware/GD32VW55x_standard_peripheral/Source/gd32vw55x_cau.c **** }
 534              		.loc 1 304 1
 535 002c 0100     		nop
 536 002e 7244     		lw	s0,28(sp)
 537              		.cfi_restore 8
 538              		.cfi_def_cfa 2, 32
 539 0030 0561     		addi	sp,sp,32
 540              		.cfi_def_cfa_offset 0
 541 0032 8280     		jr	ra
 542              		.cfi_endproc
 543              	.LFE357:
 545              		.section	.text.cau_key_init,"ax",@progbits
 546              		.align	1
 547              		.globl	cau_key_init
 549              	cau_key_init:
 550              	.LFB358:
 305:../Firmware/GD32VW55x_standard_peripheral/Source/gd32vw55x_cau.c **** 
 306:../Firmware/GD32VW55x_standard_peripheral/Source/gd32vw55x_cau.c **** /*!
 307:../Firmware/GD32VW55x_standard_peripheral/Source/gd32vw55x_cau.c ****     \brief      initialize the key parameters
 308:../Firmware/GD32VW55x_standard_peripheral/Source/gd32vw55x_cau.c ****     \param[in]  key_initpara: key init parameter struct
 309:../Firmware/GD32VW55x_standard_peripheral/Source/gd32vw55x_cau.c ****                   key_0_high: key 0 high
 310:../Firmware/GD32VW55x_standard_peripheral/Source/gd32vw55x_cau.c ****                   key_0_low:  key 0 low
 311:../Firmware/GD32VW55x_standard_peripheral/Source/gd32vw55x_cau.c ****                   key_1_high: key 1 high
 312:../Firmware/GD32VW55x_standard_peripheral/Source/gd32vw55x_cau.c ****                   key_1_low:  key 1 low
 313:../Firmware/GD32VW55x_standard_peripheral/Source/gd32vw55x_cau.c ****                   key_2_high: key 2 high
 314:../Firmware/GD32VW55x_standard_peripheral/Source/gd32vw55x_cau.c ****                   key_2_low:  key 2 low
 315:../Firmware/GD32VW55x_standard_peripheral/Source/gd32vw55x_cau.c ****                   key_3_high: key 3 high
 316:../Firmware/GD32VW55x_standard_peripheral/Source/gd32vw55x_cau.c ****                   key_3_low:  key 3 low
 317:../Firmware/GD32VW55x_standard_peripheral/Source/gd32vw55x_cau.c ****     \param[out] none
 318:../Firmware/GD32VW55x_standard_peripheral/Source/gd32vw55x_cau.c ****     \retval     none
 319:../Firmware/GD32VW55x_standard_peripheral/Source/gd32vw55x_cau.c **** */
 320:../Firmware/GD32VW55x_standard_peripheral/Source/gd32vw55x_cau.c **** void cau_key_init(cau_key_parameter_struct *key_initpara)
 321:../Firmware/GD32VW55x_standard_peripheral/Source/gd32vw55x_cau.c **** {
 551              		.loc 1 321 1
 552              		.cfi_startproc
 553 0000 0111     		addi	sp,sp,-32
 554              		.cfi_def_cfa_offset 32
 555 0002 22CE     		sw	s0,28(sp)
 556              		.cfi_offset 8, -4
 557 0004 0010     		addi	s0,sp,32
 558              		.cfi_def_cfa 8, 0
 559 0006 2326A4FE 		sw	a0,-20(s0)
 322:../Firmware/GD32VW55x_standard_peripheral/Source/gd32vw55x_cau.c ****     CAU_KEY0H = key_initpara->key_0_high;
 560              		.loc 1 322 5
 561 000a B707064C 		li	a5,1275461632
 562 000e 93870702 		addi	a5,a5,32
 563              		.loc 1 322 29
 564 0012 0327C4FE 		lw	a4,-20(s0)
 565 0016 1843     		lw	a4,0(a4)
 566              		.loc 1 322 15
 567 0018 98C3     		sw	a4,0(a5)
 323:../Firmware/GD32VW55x_standard_peripheral/Source/gd32vw55x_cau.c ****     CAU_KEY0L = key_initpara->key_0_low;
 568              		.loc 1 323 5
 569 001a B707064C 		li	a5,1275461632
 570 001e 93874702 		addi	a5,a5,36
 571              		.loc 1 323 29
 572 0022 0327C4FE 		lw	a4,-20(s0)
 573 0026 5843     		lw	a4,4(a4)
 574              		.loc 1 323 15
 575 0028 98C3     		sw	a4,0(a5)
 324:../Firmware/GD32VW55x_standard_peripheral/Source/gd32vw55x_cau.c ****     CAU_KEY1H = key_initpara->key_1_high;
 576              		.loc 1 324 5
 577 002a B707064C 		li	a5,1275461632
 578 002e 93878702 		addi	a5,a5,40
 579              		.loc 1 324 29
 580 0032 0327C4FE 		lw	a4,-20(s0)
 581 0036 1847     		lw	a4,8(a4)
 582              		.loc 1 324 15
 583 0038 98C3     		sw	a4,0(a5)
 325:../Firmware/GD32VW55x_standard_peripheral/Source/gd32vw55x_cau.c ****     CAU_KEY1L = key_initpara->key_1_low;
 584              		.loc 1 325 5
 585 003a B707064C 		li	a5,1275461632
 586 003e 9387C702 		addi	a5,a5,44
 587              		.loc 1 325 29
 588 0042 0327C4FE 		lw	a4,-20(s0)
 589 0046 5847     		lw	a4,12(a4)
 590              		.loc 1 325 15
 591 0048 98C3     		sw	a4,0(a5)
 326:../Firmware/GD32VW55x_standard_peripheral/Source/gd32vw55x_cau.c ****     CAU_KEY2H = key_initpara->key_2_high;
 592              		.loc 1 326 5
 593 004a B707064C 		li	a5,1275461632
 594 004e 93870703 		addi	a5,a5,48
 595              		.loc 1 326 29
 596 0052 0327C4FE 		lw	a4,-20(s0)
 597 0056 184B     		lw	a4,16(a4)
 598              		.loc 1 326 15
 599 0058 98C3     		sw	a4,0(a5)
 327:../Firmware/GD32VW55x_standard_peripheral/Source/gd32vw55x_cau.c ****     CAU_KEY2L = key_initpara->key_2_low;
 600              		.loc 1 327 5
 601 005a B707064C 		li	a5,1275461632
 602 005e 93874703 		addi	a5,a5,52
 603              		.loc 1 327 29
 604 0062 0327C4FE 		lw	a4,-20(s0)
 605 0066 584B     		lw	a4,20(a4)
 606              		.loc 1 327 15
 607 0068 98C3     		sw	a4,0(a5)
 328:../Firmware/GD32VW55x_standard_peripheral/Source/gd32vw55x_cau.c ****     CAU_KEY3H = key_initpara->key_3_high;
 608              		.loc 1 328 5
 609 006a B707064C 		li	a5,1275461632
 610 006e 93878703 		addi	a5,a5,56
 611              		.loc 1 328 29
 612 0072 0327C4FE 		lw	a4,-20(s0)
 613 0076 184F     		lw	a4,24(a4)
 614              		.loc 1 328 15
 615 0078 98C3     		sw	a4,0(a5)
 329:../Firmware/GD32VW55x_standard_peripheral/Source/gd32vw55x_cau.c ****     CAU_KEY3L = key_initpara->key_3_low;
 616              		.loc 1 329 5
 617 007a B707064C 		li	a5,1275461632
 618 007e 9387C703 		addi	a5,a5,60
 619              		.loc 1 329 29
 620 0082 0327C4FE 		lw	a4,-20(s0)
 621 0086 584F     		lw	a4,28(a4)
 622              		.loc 1 329 15
 623 0088 98C3     		sw	a4,0(a5)
 330:../Firmware/GD32VW55x_standard_peripheral/Source/gd32vw55x_cau.c **** }
 624              		.loc 1 330 1
 625 008a 0100     		nop
 626 008c 7244     		lw	s0,28(sp)
 627              		.cfi_restore 8
 628              		.cfi_def_cfa 2, 32
 629 008e 0561     		addi	sp,sp,32
 630              		.cfi_def_cfa_offset 0
 631 0090 8280     		jr	ra
 632              		.cfi_endproc
 633              	.LFE358:
 635              		.section	.text.cau_iv_init,"ax",@progbits
 636              		.align	1
 637              		.globl	cau_iv_init
 639              	cau_iv_init:
 640              	.LFB359:
 331:../Firmware/GD32VW55x_standard_peripheral/Source/gd32vw55x_cau.c **** 
 332:../Firmware/GD32VW55x_standard_peripheral/Source/gd32vw55x_cau.c **** /*!
 333:../Firmware/GD32VW55x_standard_peripheral/Source/gd32vw55x_cau.c ****     \brief      initialize the vectors parameters
 334:../Firmware/GD32VW55x_standard_peripheral/Source/gd32vw55x_cau.c ****     \param[in]  iv_initpara: vectors init parameter struct
 335:../Firmware/GD32VW55x_standard_peripheral/Source/gd32vw55x_cau.c ****                   iv_0_high: init vector 0 high
 336:../Firmware/GD32VW55x_standard_peripheral/Source/gd32vw55x_cau.c ****                   iv_0_low:  init vector 0 low
 337:../Firmware/GD32VW55x_standard_peripheral/Source/gd32vw55x_cau.c ****                   iv_1_high: init vector 1 high
 338:../Firmware/GD32VW55x_standard_peripheral/Source/gd32vw55x_cau.c ****                   iv_1_low:  init vector 1 low
 339:../Firmware/GD32VW55x_standard_peripheral/Source/gd32vw55x_cau.c ****     \param[out] none
 340:../Firmware/GD32VW55x_standard_peripheral/Source/gd32vw55x_cau.c ****     \retval     none
 341:../Firmware/GD32VW55x_standard_peripheral/Source/gd32vw55x_cau.c **** */
 342:../Firmware/GD32VW55x_standard_peripheral/Source/gd32vw55x_cau.c **** void cau_iv_init(cau_iv_parameter_struct *iv_initpara)
 343:../Firmware/GD32VW55x_standard_peripheral/Source/gd32vw55x_cau.c **** {
 641              		.loc 1 343 1
 642              		.cfi_startproc
 643 0000 0111     		addi	sp,sp,-32
 644              		.cfi_def_cfa_offset 32
 645 0002 22CE     		sw	s0,28(sp)
 646              		.cfi_offset 8, -4
 647 0004 0010     		addi	s0,sp,32
 648              		.cfi_def_cfa 8, 0
 649 0006 2326A4FE 		sw	a0,-20(s0)
 344:../Firmware/GD32VW55x_standard_peripheral/Source/gd32vw55x_cau.c ****     CAU_IV0H = iv_initpara->iv_0_high;
 650              		.loc 1 344 5
 651 000a B707064C 		li	a5,1275461632
 652 000e 93870704 		addi	a5,a5,64
 653              		.loc 1 344 27
 654 0012 0327C4FE 		lw	a4,-20(s0)
 655 0016 1843     		lw	a4,0(a4)
 656              		.loc 1 344 14
 657 0018 98C3     		sw	a4,0(a5)
 345:../Firmware/GD32VW55x_standard_peripheral/Source/gd32vw55x_cau.c ****     CAU_IV0L = iv_initpara->iv_0_low;
 658              		.loc 1 345 5
 659 001a B707064C 		li	a5,1275461632
 660 001e 93874704 		addi	a5,a5,68
 661              		.loc 1 345 27
 662 0022 0327C4FE 		lw	a4,-20(s0)
 663 0026 5843     		lw	a4,4(a4)
 664              		.loc 1 345 14
 665 0028 98C3     		sw	a4,0(a5)
 346:../Firmware/GD32VW55x_standard_peripheral/Source/gd32vw55x_cau.c ****     CAU_IV1H = iv_initpara->iv_1_high;
 666              		.loc 1 346 5
 667 002a B707064C 		li	a5,1275461632
 668 002e 93878704 		addi	a5,a5,72
 669              		.loc 1 346 27
 670 0032 0327C4FE 		lw	a4,-20(s0)
 671 0036 1847     		lw	a4,8(a4)
 672              		.loc 1 346 14
 673 0038 98C3     		sw	a4,0(a5)
 347:../Firmware/GD32VW55x_standard_peripheral/Source/gd32vw55x_cau.c ****     CAU_IV1L = iv_initpara->iv_1_low;
 674              		.loc 1 347 5
 675 003a B707064C 		li	a5,1275461632
 676 003e 9387C704 		addi	a5,a5,76
 677              		.loc 1 347 27
 678 0042 0327C4FE 		lw	a4,-20(s0)
 679 0046 5847     		lw	a4,12(a4)
 680              		.loc 1 347 14
 681 0048 98C3     		sw	a4,0(a5)
 348:../Firmware/GD32VW55x_standard_peripheral/Source/gd32vw55x_cau.c **** }
 682              		.loc 1 348 1
 683 004a 0100     		nop
 684 004c 7244     		lw	s0,28(sp)
 685              		.cfi_restore 8
 686              		.cfi_def_cfa 2, 32
 687 004e 0561     		addi	sp,sp,32
 688              		.cfi_def_cfa_offset 0
 689 0050 8280     		jr	ra
 690              		.cfi_endproc
 691              	.LFE359:
 693              		.section	.text.cau_phase_config,"ax",@progbits
 694              		.align	1
 695              		.globl	cau_phase_config
 697              	cau_phase_config:
 698              	.LFB360:
 349:../Firmware/GD32VW55x_standard_peripheral/Source/gd32vw55x_cau.c **** 
 350:../Firmware/GD32VW55x_standard_peripheral/Source/gd32vw55x_cau.c **** /*!
 351:../Firmware/GD32VW55x_standard_peripheral/Source/gd32vw55x_cau.c ****     \brief      configure phase
 352:../Firmware/GD32VW55x_standard_peripheral/Source/gd32vw55x_cau.c ****     \param[in]  phase: gcm or ccm phase
 353:../Firmware/GD32VW55x_standard_peripheral/Source/gd32vw55x_cau.c ****                 only one parameter can be selected which is shown as below:
 354:../Firmware/GD32VW55x_standard_peripheral/Source/gd32vw55x_cau.c ****       \arg        CAU_PREPARE_PHASE: prepare phase
 355:../Firmware/GD32VW55x_standard_peripheral/Source/gd32vw55x_cau.c ****       \arg        CAU_AAD_PHASE: AAD phase
 356:../Firmware/GD32VW55x_standard_peripheral/Source/gd32vw55x_cau.c ****       \arg        CAU_ENCRYPT_DECRYPT_PHASE: encryption/decryption phase
 357:../Firmware/GD32VW55x_standard_peripheral/Source/gd32vw55x_cau.c ****       \arg        CAU_TAG_PHASE: tag phase
 358:../Firmware/GD32VW55x_standard_peripheral/Source/gd32vw55x_cau.c ****     \param[out] none
 359:../Firmware/GD32VW55x_standard_peripheral/Source/gd32vw55x_cau.c ****     \retval     none
 360:../Firmware/GD32VW55x_standard_peripheral/Source/gd32vw55x_cau.c **** */
 361:../Firmware/GD32VW55x_standard_peripheral/Source/gd32vw55x_cau.c **** void cau_phase_config(uint32_t phase)
 362:../Firmware/GD32VW55x_standard_peripheral/Source/gd32vw55x_cau.c **** {
 699              		.loc 1 362 1
 700              		.cfi_startproc
 701 0000 7971     		addi	sp,sp,-48
 702              		.cfi_def_cfa_offset 48
 703 0002 22D6     		sw	s0,44(sp)
 704              		.cfi_offset 8, -4
 705 0004 0018     		addi	s0,sp,48
 706              		.cfi_def_cfa 8, 0
 707 0006 232EA4FC 		sw	a0,-36(s0)
 363:../Firmware/GD32VW55x_standard_peripheral/Source/gd32vw55x_cau.c ****     uint32_t temp;
 364:../Firmware/GD32VW55x_standard_peripheral/Source/gd32vw55x_cau.c ****     /* Get the CTL register */
 365:../Firmware/GD32VW55x_standard_peripheral/Source/gd32vw55x_cau.c ****     temp = CAU_CTL;
 708              		.loc 1 365 12
 709 000a B707064C 		li	a5,1275461632
 710              		.loc 1 365 10
 711 000e 9C43     		lw	a5,0(a5)
 712 0010 2326F4FE 		sw	a5,-20(s0)
 366:../Firmware/GD32VW55x_standard_peripheral/Source/gd32vw55x_cau.c ****     /* Reset the phase configuration bits */
 367:../Firmware/GD32VW55x_standard_peripheral/Source/gd32vw55x_cau.c ****     temp &= ~CAU_CTL_GCM_CCMPH;
 713              		.loc 1 367 10
 714 0014 0327C4FE 		lw	a4,-20(s0)
 715 0018 B707FDFF 		li	a5,-196608
 716 001c FD17     		addi	a5,a5,-1
 717 001e F98F     		and	a5,a4,a5
 718 0020 2326F4FE 		sw	a5,-20(s0)
 368:../Firmware/GD32VW55x_standard_peripheral/Source/gd32vw55x_cau.c ****     /* Set the selected phase */
 369:../Firmware/GD32VW55x_standard_peripheral/Source/gd32vw55x_cau.c ****     temp |= phase;
 719              		.loc 1 369 10
 720 0024 0327C4FE 		lw	a4,-20(s0)
 721 0028 8327C4FD 		lw	a5,-36(s0)
 722 002c D98F     		or	a5,a4,a5
 723 002e 2326F4FE 		sw	a5,-20(s0)
 370:../Firmware/GD32VW55x_standard_peripheral/Source/gd32vw55x_cau.c ****     /* Set the CTL register */
 371:../Firmware/GD32VW55x_standard_peripheral/Source/gd32vw55x_cau.c ****     CAU_CTL = temp;
 724              		.loc 1 371 5
 725 0032 B707064C 		li	a5,1275461632
 726              		.loc 1 371 13
 727 0036 0327C4FE 		lw	a4,-20(s0)
 728 003a 98C3     		sw	a4,0(a5)
 372:../Firmware/GD32VW55x_standard_peripheral/Source/gd32vw55x_cau.c **** }
 729              		.loc 1 372 1
 730 003c 0100     		nop
 731 003e 3254     		lw	s0,44(sp)
 732              		.cfi_restore 8
 733              		.cfi_def_cfa 2, 48
 734 0040 4561     		addi	sp,sp,48
 735              		.cfi_def_cfa_offset 0
 736 0042 8280     		jr	ra
 737              		.cfi_endproc
 738              	.LFE360:
 740              		.section	.text.cau_fifo_flush,"ax",@progbits
 741              		.align	1
 742              		.globl	cau_fifo_flush
 744              	cau_fifo_flush:
 745              	.LFB361:
 373:../Firmware/GD32VW55x_standard_peripheral/Source/gd32vw55x_cau.c **** 
 374:../Firmware/GD32VW55x_standard_peripheral/Source/gd32vw55x_cau.c **** /*!
 375:../Firmware/GD32VW55x_standard_peripheral/Source/gd32vw55x_cau.c ****     \brief      flush the IN and OUT FIFOs
 376:../Firmware/GD32VW55x_standard_peripheral/Source/gd32vw55x_cau.c ****     \param[in]  none
 377:../Firmware/GD32VW55x_standard_peripheral/Source/gd32vw55x_cau.c ****     \param[out] none
 378:../Firmware/GD32VW55x_standard_peripheral/Source/gd32vw55x_cau.c ****     \retval     none
 379:../Firmware/GD32VW55x_standard_peripheral/Source/gd32vw55x_cau.c **** */
 380:../Firmware/GD32VW55x_standard_peripheral/Source/gd32vw55x_cau.c **** void cau_fifo_flush(void)
 381:../Firmware/GD32VW55x_standard_peripheral/Source/gd32vw55x_cau.c **** {
 746              		.loc 1 381 1
 747              		.cfi_startproc
 748 0000 4111     		addi	sp,sp,-16
 749              		.cfi_def_cfa_offset 16
 750 0002 22C6     		sw	s0,12(sp)
 751              		.cfi_offset 8, -4
 752 0004 0008     		addi	s0,sp,16
 753              		.cfi_def_cfa 8, 0
 382:../Firmware/GD32VW55x_standard_peripheral/Source/gd32vw55x_cau.c ****     /* reset the read and write pointers of the FIFOs */
 383:../Firmware/GD32VW55x_standard_peripheral/Source/gd32vw55x_cau.c ****     CAU_CTL |= CAU_CTL_FFLUSH;
 754              		.loc 1 383 13
 755 0006 B707064C 		li	a5,1275461632
 756 000a 9443     		lw	a3,0(a5)
 757 000c B707064C 		li	a5,1275461632
 758 0010 1167     		li	a4,16384
 759 0012 558F     		or	a4,a3,a4
 760 0014 98C3     		sw	a4,0(a5)
 384:../Firmware/GD32VW55x_standard_peripheral/Source/gd32vw55x_cau.c **** }
 761              		.loc 1 384 1
 762 0016 0100     		nop
 763 0018 3244     		lw	s0,12(sp)
 764              		.cfi_restore 8
 765              		.cfi_def_cfa 2, 16
 766 001a 4101     		addi	sp,sp,16
 767              		.cfi_def_cfa_offset 0
 768 001c 8280     		jr	ra
 769              		.cfi_endproc
 770              	.LFE361:
 772              		.section	.text.cau_enable_state_get,"ax",@progbits
 773              		.align	1
 774              		.globl	cau_enable_state_get
 776              	cau_enable_state_get:
 777              	.LFB362:
 385:../Firmware/GD32VW55x_standard_peripheral/Source/gd32vw55x_cau.c **** 
 386:../Firmware/GD32VW55x_standard_peripheral/Source/gd32vw55x_cau.c **** /*!
 387:../Firmware/GD32VW55x_standard_peripheral/Source/gd32vw55x_cau.c ****     \brief      return whether CAU peripheral is enabled or disabled
 388:../Firmware/GD32VW55x_standard_peripheral/Source/gd32vw55x_cau.c ****     \param[in]  none
 389:../Firmware/GD32VW55x_standard_peripheral/Source/gd32vw55x_cau.c ****     \param[out] none
 390:../Firmware/GD32VW55x_standard_peripheral/Source/gd32vw55x_cau.c ****     \retval     ControlStatus: ENABLE or DISABLE
 391:../Firmware/GD32VW55x_standard_peripheral/Source/gd32vw55x_cau.c **** */
 392:../Firmware/GD32VW55x_standard_peripheral/Source/gd32vw55x_cau.c **** ControlStatus cau_enable_state_get(void)
 393:../Firmware/GD32VW55x_standard_peripheral/Source/gd32vw55x_cau.c **** {
 778              		.loc 1 393 1
 779              		.cfi_startproc
 780 0000 0111     		addi	sp,sp,-32
 781              		.cfi_def_cfa_offset 32
 782 0002 22CE     		sw	s0,28(sp)
 783              		.cfi_offset 8, -4
 784 0004 0010     		addi	s0,sp,32
 785              		.cfi_def_cfa 8, 0
 394:../Firmware/GD32VW55x_standard_peripheral/Source/gd32vw55x_cau.c ****     ControlStatus ret = DISABLE;
 786              		.loc 1 394 19
 787 0006 232604FE 		sw	zero,-20(s0)
 395:../Firmware/GD32VW55x_standard_peripheral/Source/gd32vw55x_cau.c ****     if(RESET != (CAU_CTL & CAU_CTL_CAUEN)) {
 788              		.loc 1 395 18
 789 000a B707064C 		li	a5,1275461632
 790 000e 9843     		lw	a4,0(a5)
 791              		.loc 1 395 26
 792 0010 A167     		li	a5,32768
 793 0012 F98F     		and	a5,a4,a5
 794              		.loc 1 395 7
 795 0014 81C7     		beq	a5,zero,.L17
 396:../Firmware/GD32VW55x_standard_peripheral/Source/gd32vw55x_cau.c ****         ret = ENABLE;
 796              		.loc 1 396 13
 797 0016 8547     		li	a5,1
 798 0018 2326F4FE 		sw	a5,-20(s0)
 799              	.L17:
 397:../Firmware/GD32VW55x_standard_peripheral/Source/gd32vw55x_cau.c ****     }
 398:../Firmware/GD32VW55x_standard_peripheral/Source/gd32vw55x_cau.c ****     return ret;
 800              		.loc 1 398 12
 801 001c 8327C4FE 		lw	a5,-20(s0)
 399:../Firmware/GD32VW55x_standard_peripheral/Source/gd32vw55x_cau.c **** }
 802              		.loc 1 399 1
 803 0020 3E85     		mv	a0,a5
 804 0022 7244     		lw	s0,28(sp)
 805              		.cfi_restore 8
 806              		.cfi_def_cfa 2, 32
 807 0024 0561     		addi	sp,sp,32
 808              		.cfi_def_cfa_offset 0
 809 0026 8280     		jr	ra
 810              		.cfi_endproc
 811              	.LFE362:
 813              		.section	.text.cau_data_write,"ax",@progbits
 814              		.align	1
 815              		.globl	cau_data_write
 817              	cau_data_write:
 818              	.LFB363:
 400:../Firmware/GD32VW55x_standard_peripheral/Source/gd32vw55x_cau.c **** 
 401:../Firmware/GD32VW55x_standard_peripheral/Source/gd32vw55x_cau.c **** /*!
 402:../Firmware/GD32VW55x_standard_peripheral/Source/gd32vw55x_cau.c ****     \brief      write data to the IN FIFO
 403:../Firmware/GD32VW55x_standard_peripheral/Source/gd32vw55x_cau.c ****     \param[in]  data: data to write (0 - 0xFFFFFFFF)
 404:../Firmware/GD32VW55x_standard_peripheral/Source/gd32vw55x_cau.c ****     \param[out] none
 405:../Firmware/GD32VW55x_standard_peripheral/Source/gd32vw55x_cau.c ****     \retval     none
 406:../Firmware/GD32VW55x_standard_peripheral/Source/gd32vw55x_cau.c **** */
 407:../Firmware/GD32VW55x_standard_peripheral/Source/gd32vw55x_cau.c **** void cau_data_write(uint32_t data)
 408:../Firmware/GD32VW55x_standard_peripheral/Source/gd32vw55x_cau.c **** {
 819              		.loc 1 408 1
 820              		.cfi_startproc
 821 0000 0111     		addi	sp,sp,-32
 822              		.cfi_def_cfa_offset 32
 823 0002 22CE     		sw	s0,28(sp)
 824              		.cfi_offset 8, -4
 825 0004 0010     		addi	s0,sp,32
 826              		.cfi_def_cfa 8, 0
 827 0006 2326A4FE 		sw	a0,-20(s0)
 409:../Firmware/GD32VW55x_standard_peripheral/Source/gd32vw55x_cau.c ****     CAU_DI = data;
 828              		.loc 1 409 5
 829 000a B707064C 		li	a5,1275461632
 830 000e A107     		addi	a5,a5,8
 831              		.loc 1 409 12
 832 0010 0327C4FE 		lw	a4,-20(s0)
 833 0014 98C3     		sw	a4,0(a5)
 410:../Firmware/GD32VW55x_standard_peripheral/Source/gd32vw55x_cau.c **** }
 834              		.loc 1 410 1
 835 0016 0100     		nop
 836 0018 7244     		lw	s0,28(sp)
 837              		.cfi_restore 8
 838              		.cfi_def_cfa 2, 32
 839 001a 0561     		addi	sp,sp,32
 840              		.cfi_def_cfa_offset 0
 841 001c 8280     		jr	ra
 842              		.cfi_endproc
 843              	.LFE363:
 845              		.section	.text.cau_data_read,"ax",@progbits
 846              		.align	1
 847              		.globl	cau_data_read
 849              	cau_data_read:
 850              	.LFB364:
 411:../Firmware/GD32VW55x_standard_peripheral/Source/gd32vw55x_cau.c **** 
 412:../Firmware/GD32VW55x_standard_peripheral/Source/gd32vw55x_cau.c **** /*!
 413:../Firmware/GD32VW55x_standard_peripheral/Source/gd32vw55x_cau.c ****     \brief      return the last data entered into the output FIFO
 414:../Firmware/GD32VW55x_standard_peripheral/Source/gd32vw55x_cau.c ****     \param[in]  none
 415:../Firmware/GD32VW55x_standard_peripheral/Source/gd32vw55x_cau.c ****     \param[out] none
 416:../Firmware/GD32VW55x_standard_peripheral/Source/gd32vw55x_cau.c ****     \retval     last data entered into the output FIFO
 417:../Firmware/GD32VW55x_standard_peripheral/Source/gd32vw55x_cau.c **** */
 418:../Firmware/GD32VW55x_standard_peripheral/Source/gd32vw55x_cau.c **** uint32_t cau_data_read(void)
 419:../Firmware/GD32VW55x_standard_peripheral/Source/gd32vw55x_cau.c **** {
 851              		.loc 1 419 1
 852              		.cfi_startproc
 853 0000 4111     		addi	sp,sp,-16
 854              		.cfi_def_cfa_offset 16
 855 0002 22C6     		sw	s0,12(sp)
 856              		.cfi_offset 8, -4
 857 0004 0008     		addi	s0,sp,16
 858              		.cfi_def_cfa 8, 0
 420:../Firmware/GD32VW55x_standard_peripheral/Source/gd32vw55x_cau.c ****     return CAU_DO;
 859              		.loc 1 420 12
 860 0006 B707064C 		li	a5,1275461632
 861 000a B107     		addi	a5,a5,12
 862 000c 9C43     		lw	a5,0(a5)
 421:../Firmware/GD32VW55x_standard_peripheral/Source/gd32vw55x_cau.c **** }
 863              		.loc 1 421 1
 864 000e 3E85     		mv	a0,a5
 865 0010 3244     		lw	s0,12(sp)
 866              		.cfi_restore 8
 867              		.cfi_def_cfa 2, 16
 868 0012 4101     		addi	sp,sp,16
 869              		.cfi_def_cfa_offset 0
 870 0014 8280     		jr	ra
 871              		.cfi_endproc
 872              	.LFE364:
 874              		.section	.text.cau_context_save,"ax",@progbits
 875              		.align	1
 876              		.globl	cau_context_save
 878              	cau_context_save:
 879              	.LFB365:
 422:../Firmware/GD32VW55x_standard_peripheral/Source/gd32vw55x_cau.c **** 
 423:../Firmware/GD32VW55x_standard_peripheral/Source/gd32vw55x_cau.c **** /*!
 424:../Firmware/GD32VW55x_standard_peripheral/Source/gd32vw55x_cau.c ****     \brief      save context before context switching
 425:../Firmware/GD32VW55x_standard_peripheral/Source/gd32vw55x_cau.c ****     \param[in]  key_initpara: key init parameter struct
 426:../Firmware/GD32VW55x_standard_peripheral/Source/gd32vw55x_cau.c ****                   key_0_high: key 0 high
 427:../Firmware/GD32VW55x_standard_peripheral/Source/gd32vw55x_cau.c ****                   key_0_low:  key 0 low
 428:../Firmware/GD32VW55x_standard_peripheral/Source/gd32vw55x_cau.c ****                   key_1_high: key 1 high
 429:../Firmware/GD32VW55x_standard_peripheral/Source/gd32vw55x_cau.c ****                   key_1_low:  key 1 low
 430:../Firmware/GD32VW55x_standard_peripheral/Source/gd32vw55x_cau.c ****                   key_2_high: key 2 high
 431:../Firmware/GD32VW55x_standard_peripheral/Source/gd32vw55x_cau.c ****                   key_2_low:  key 2 low
 432:../Firmware/GD32VW55x_standard_peripheral/Source/gd32vw55x_cau.c ****                   key_3_high: key 3 high
 433:../Firmware/GD32VW55x_standard_peripheral/Source/gd32vw55x_cau.c ****                   key_3_low:  key 3 low
 434:../Firmware/GD32VW55x_standard_peripheral/Source/gd32vw55x_cau.c ****     \param[out] cau_context:
 435:../Firmware/GD32VW55x_standard_peripheral/Source/gd32vw55x_cau.c ****                   ctl_config: current configuration
 436:../Firmware/GD32VW55x_standard_peripheral/Source/gd32vw55x_cau.c ****                   iv_0_high: init vector 0 high
 437:../Firmware/GD32VW55x_standard_peripheral/Source/gd32vw55x_cau.c ****                   iv_0_low:  init vector 0 low
 438:../Firmware/GD32VW55x_standard_peripheral/Source/gd32vw55x_cau.c ****                   iv_1_high: init vector 1 high
 439:../Firmware/GD32VW55x_standard_peripheral/Source/gd32vw55x_cau.c ****                   iv_1_low:  init vector 1 low
 440:../Firmware/GD32VW55x_standard_peripheral/Source/gd32vw55x_cau.c ****                   key_0_high: key 0 high
 441:../Firmware/GD32VW55x_standard_peripheral/Source/gd32vw55x_cau.c ****                   key_0_low:  key 0 low
 442:../Firmware/GD32VW55x_standard_peripheral/Source/gd32vw55x_cau.c ****                   key_1_high: key 1 high
 443:../Firmware/GD32VW55x_standard_peripheral/Source/gd32vw55x_cau.c ****                   key_1_low:  key 1 low
 444:../Firmware/GD32VW55x_standard_peripheral/Source/gd32vw55x_cau.c ****                   key_2_high: key 2 high
 445:../Firmware/GD32VW55x_standard_peripheral/Source/gd32vw55x_cau.c ****                   key_2_low:  key 2 low
 446:../Firmware/GD32VW55x_standard_peripheral/Source/gd32vw55x_cau.c ****                   key_3_high: key 3 high
 447:../Firmware/GD32VW55x_standard_peripheral/Source/gd32vw55x_cau.c ****                   key_3_low:  key 3 low
 448:../Firmware/GD32VW55x_standard_peripheral/Source/gd32vw55x_cau.c ****                   gcmccmctxs[8]: GCM or CCM mode context switch
 449:../Firmware/GD32VW55x_standard_peripheral/Source/gd32vw55x_cau.c ****                   gcmctxs[8]: GCM mode context switch
 450:../Firmware/GD32VW55x_standard_peripheral/Source/gd32vw55x_cau.c ****     \retval     none
 451:../Firmware/GD32VW55x_standard_peripheral/Source/gd32vw55x_cau.c **** */
 452:../Firmware/GD32VW55x_standard_peripheral/Source/gd32vw55x_cau.c **** void cau_context_save(cau_context_parameter_struct *cau_context, cau_key_parameter_struct *key_init
 453:../Firmware/GD32VW55x_standard_peripheral/Source/gd32vw55x_cau.c **** {
 880              		.loc 1 453 1
 881              		.cfi_startproc
 882 0000 7971     		addi	sp,sp,-48
 883              		.cfi_def_cfa_offset 48
 884 0002 22D6     		sw	s0,44(sp)
 885              		.cfi_offset 8, -4
 886 0004 0018     		addi	s0,sp,48
 887              		.cfi_def_cfa 8, 0
 888 0006 232EA4FC 		sw	a0,-36(s0)
 889 000a 232CB4FC 		sw	a1,-40(s0)
 454:../Firmware/GD32VW55x_standard_peripheral/Source/gd32vw55x_cau.c ****     uint32_t checkmask = 0U;
 890              		.loc 1 454 14
 891 000e 232604FE 		sw	zero,-20(s0)
 455:../Firmware/GD32VW55x_standard_peripheral/Source/gd32vw55x_cau.c ****     uint32_t checkbits = 0U;
 892              		.loc 1 455 14
 893 0012 232404FE 		sw	zero,-24(s0)
 456:../Firmware/GD32VW55x_standard_peripheral/Source/gd32vw55x_cau.c ****     uint32_t algm_reg = 0U;
 894              		.loc 1 456 14
 895 0016 232204FE 		sw	zero,-28(s0)
 457:../Firmware/GD32VW55x_standard_peripheral/Source/gd32vw55x_cau.c **** 
 458:../Firmware/GD32VW55x_standard_peripheral/Source/gd32vw55x_cau.c ****     /* stop DMA transfers on the IN FIFO by clearing the DMAIEN bit in the CAU_DMAEN */
 459:../Firmware/GD32VW55x_standard_peripheral/Source/gd32vw55x_cau.c ****     CAU_DMAEN &= ~CAU_DMA_INFIFO;
 896              		.loc 1 459 15
 897 001a B707064C 		li	a5,1275461632
 898 001e C107     		addi	a5,a5,16
 899 0020 9843     		lw	a4,0(a5)
 900 0022 B707064C 		li	a5,1275461632
 901 0026 C107     		addi	a5,a5,16
 902 0028 799B     		andi	a4,a4,-2
 903 002a 98C3     		sw	a4,0(a5)
 460:../Firmware/GD32VW55x_standard_peripheral/Source/gd32vw55x_cau.c **** 
 461:../Firmware/GD32VW55x_standard_peripheral/Source/gd32vw55x_cau.c ****     algm_reg = CAU_CTL & CAU_CTL_ALGM;
 904              		.loc 1 461 16
 905 002c B707064C 		li	a5,1275461632
 906 0030 9843     		lw	a4,0(a5)
 907              		.loc 1 461 14
 908 0032 B7070800 		li	a5,524288
 909 0036 93878703 		addi	a5,a5,56
 910 003a F98F     		and	a5,a4,a5
 911 003c 2322F4FE 		sw	a5,-28(s0)
 462:../Firmware/GD32VW55x_standard_peripheral/Source/gd32vw55x_cau.c ****     /* AES or DES */
 463:../Firmware/GD32VW55x_standard_peripheral/Source/gd32vw55x_cau.c ****     if((uint32_t)0 != (algm_reg & (~CAU_MODE_TDES_CBC))) {
 912              		.loc 1 463 33
 913 0040 832744FE 		lw	a5,-28(s0)
 914 0044 DD9B     		andi	a5,a5,-9
 915              		.loc 1 463 7
 916 0046 81CB     		beq	a5,zero,.L23
 464:../Firmware/GD32VW55x_standard_peripheral/Source/gd32vw55x_cau.c ****         /* wait until both the IN and OUT FIFOs are empty (IEM=1 and ONE=0 in the CAU_STAT0 registe
 465:../Firmware/GD32VW55x_standard_peripheral/Source/gd32vw55x_cau.c ****         checkbits = CAU_STAT0_IEM;
 917              		.loc 1 465 19
 918 0048 8547     		li	a5,1
 919 004a 2324F4FE 		sw	a5,-24(s0)
 466:../Firmware/GD32VW55x_standard_peripheral/Source/gd32vw55x_cau.c ****         checkmask = STAT0_AESDES_MASK;
 920              		.loc 1 466 19
 921 004e D547     		li	a5,21
 922 0050 2326F4FE 		sw	a5,-20(s0)
 923 0054 31A0     		j	.L31
 924              	.L23:
 467:../Firmware/GD32VW55x_standard_peripheral/Source/gd32vw55x_cau.c ****         /* TDES */
 468:../Firmware/GD32VW55x_standard_peripheral/Source/gd32vw55x_cau.c ****     } else {
 469:../Firmware/GD32VW55x_standard_peripheral/Source/gd32vw55x_cau.c ****         /* wait until OUT FIFO is empty (ONE=0 in the CAU_STAT0 register) and BUSY=0 */
 470:../Firmware/GD32VW55x_standard_peripheral/Source/gd32vw55x_cau.c ****         checkbits = 0U;
 925              		.loc 1 470 19
 926 0056 232404FE 		sw	zero,-24(s0)
 471:../Firmware/GD32VW55x_standard_peripheral/Source/gd32vw55x_cau.c ****         checkmask = STAT0_TDES_MASK;
 927              		.loc 1 471 19
 928 005a D147     		li	a5,20
 929 005c 2326F4FE 		sw	a5,-20(s0)
 930              	.L31:
 472:../Firmware/GD32VW55x_standard_peripheral/Source/gd32vw55x_cau.c ****     }
 473:../Firmware/GD32VW55x_standard_peripheral/Source/gd32vw55x_cau.c **** 
 474:../Firmware/GD32VW55x_standard_peripheral/Source/gd32vw55x_cau.c ****     while((CAU_STAT0 & checkmask) != checkbits) {
 931              		.loc 1 474 10
 932 0060 0100     		nop
 933              	.L25:
 934              		.loc 1 474 12 discriminator 1
 935 0062 B707064C 		li	a5,1275461632
 936 0066 9107     		addi	a5,a5,4
 937 0068 9843     		lw	a4,0(a5)
 938              		.loc 1 474 22 discriminator 1
 939 006a 8327C4FE 		lw	a5,-20(s0)
 940 006e F98F     		and	a5,a4,a5
 941              		.loc 1 474 10 discriminator 1
 942 0070 032784FE 		lw	a4,-24(s0)
 943 0074 E317F7FE 		bne	a4,a5,.L25
 475:../Firmware/GD32VW55x_standard_peripheral/Source/gd32vw55x_cau.c ****     }
 476:../Firmware/GD32VW55x_standard_peripheral/Source/gd32vw55x_cau.c **** 
 477:../Firmware/GD32VW55x_standard_peripheral/Source/gd32vw55x_cau.c ****     /* stop DMA transfers on the OUT FIFO by clear CAU_DMAEN_DMAOEN=0 */
 478:../Firmware/GD32VW55x_standard_peripheral/Source/gd32vw55x_cau.c ****     CAU_DMAEN &= ~CAU_DMAEN_DMAOEN;
 944              		.loc 1 478 15
 945 0078 B707064C 		li	a5,1275461632
 946 007c C107     		addi	a5,a5,16
 947 007e 9843     		lw	a4,0(a5)
 948 0080 B707064C 		li	a5,1275461632
 949 0084 C107     		addi	a5,a5,16
 950 0086 759B     		andi	a4,a4,-3
 951 0088 98C3     		sw	a4,0(a5)
 479:../Firmware/GD32VW55x_standard_peripheral/Source/gd32vw55x_cau.c ****     /* disable CAU */
 480:../Firmware/GD32VW55x_standard_peripheral/Source/gd32vw55x_cau.c ****     CAU_CTL &= ~CAU_CTL_CAUEN;
 952              		.loc 1 480 13
 953 008a B707064C 		li	a5,1275461632
 954 008e 9443     		lw	a3,0(a5)
 955 0090 B707064C 		li	a5,1275461632
 956 0094 6177     		li	a4,-32768
 957 0096 7D17     		addi	a4,a4,-1
 958 0098 758F     		and	a4,a3,a4
 959 009a 98C3     		sw	a4,0(a5)
 481:../Firmware/GD32VW55x_standard_peripheral/Source/gd32vw55x_cau.c **** 
 482:../Firmware/GD32VW55x_standard_peripheral/Source/gd32vw55x_cau.c ****     /* save the current configuration (bit 19, bit[17:16] and bit[9:2] in the CAU_CTL register) */
 483:../Firmware/GD32VW55x_standard_peripheral/Source/gd32vw55x_cau.c ****     cau_context->ctl_config  = CAU_CTL & (CAU_CTL_GCM_CCMPH |
 960              		.loc 1 483 32
 961 009c B707064C 		li	a5,1275461632
 962 00a0 9843     		lw	a4,0(a5)
 963              		.loc 1 483 40
 964 00a2 B707FB00 		li	a5,16449536
 965 00a6 9387C73F 		addi	a5,a5,1020
 966 00aa 7D8F     		and	a4,a4,a5
 967              		.loc 1 483 30
 968 00ac 8327C4FD 		lw	a5,-36(s0)
 969 00b0 98C3     		sw	a4,0(a5)
 484:../Firmware/GD32VW55x_standard_peripheral/Source/gd32vw55x_cau.c ****                                           CAU_CTL_KEYM  |
 485:../Firmware/GD32VW55x_standard_peripheral/Source/gd32vw55x_cau.c ****                                           CAU_CTL_DATAM |
 486:../Firmware/GD32VW55x_standard_peripheral/Source/gd32vw55x_cau.c ****                                           CAU_CTL_ALGM  |
 487:../Firmware/GD32VW55x_standard_peripheral/Source/gd32vw55x_cau.c ****                                           CAU_CTL_CAUDIR |
 488:../Firmware/GD32VW55x_standard_peripheral/Source/gd32vw55x_cau.c ****                                           CAU_CTL_NBPILB);
 489:../Firmware/GD32VW55x_standard_peripheral/Source/gd32vw55x_cau.c **** 
 490:../Firmware/GD32VW55x_standard_peripheral/Source/gd32vw55x_cau.c ****     /* save the key value */
 491:../Firmware/GD32VW55x_standard_peripheral/Source/gd32vw55x_cau.c ****     cau_context->key_0_high = key_initpara->key_0_high;
 970              		.loc 1 491 43
 971 00b2 832784FD 		lw	a5,-40(s0)
 972 00b6 9843     		lw	a4,0(a5)
 973              		.loc 1 491 29
 974 00b8 8327C4FD 		lw	a5,-36(s0)
 975 00bc D8CB     		sw	a4,20(a5)
 492:../Firmware/GD32VW55x_standard_peripheral/Source/gd32vw55x_cau.c ****     cau_context->key_0_low  = key_initpara->key_0_low;
 976              		.loc 1 492 43
 977 00be 832784FD 		lw	a5,-40(s0)
 978 00c2 D843     		lw	a4,4(a5)
 979              		.loc 1 492 29
 980 00c4 8327C4FD 		lw	a5,-36(s0)
 981 00c8 98CF     		sw	a4,24(a5)
 493:../Firmware/GD32VW55x_standard_peripheral/Source/gd32vw55x_cau.c ****     cau_context->key_1_high = key_initpara->key_1_high;
 982              		.loc 1 493 43
 983 00ca 832784FD 		lw	a5,-40(s0)
 984 00ce 9847     		lw	a4,8(a5)
 985              		.loc 1 493 29
 986 00d0 8327C4FD 		lw	a5,-36(s0)
 987 00d4 D8CF     		sw	a4,28(a5)
 494:../Firmware/GD32VW55x_standard_peripheral/Source/gd32vw55x_cau.c ****     cau_context->key_1_low  = key_initpara->key_1_low;
 988              		.loc 1 494 43
 989 00d6 832784FD 		lw	a5,-40(s0)
 990 00da D847     		lw	a4,12(a5)
 991              		.loc 1 494 29
 992 00dc 8327C4FD 		lw	a5,-36(s0)
 993 00e0 98D3     		sw	a4,32(a5)
 495:../Firmware/GD32VW55x_standard_peripheral/Source/gd32vw55x_cau.c ****     cau_context->key_2_high = key_initpara->key_2_high;
 994              		.loc 1 495 43
 995 00e2 832784FD 		lw	a5,-40(s0)
 996 00e6 984B     		lw	a4,16(a5)
 997              		.loc 1 495 29
 998 00e8 8327C4FD 		lw	a5,-36(s0)
 999 00ec D8D3     		sw	a4,36(a5)
 496:../Firmware/GD32VW55x_standard_peripheral/Source/gd32vw55x_cau.c ****     cau_context->key_2_low  = key_initpara->key_2_low;
 1000              		.loc 1 496 43
 1001 00ee 832784FD 		lw	a5,-40(s0)
 1002 00f2 D84B     		lw	a4,20(a5)
 1003              		.loc 1 496 29
 1004 00f4 8327C4FD 		lw	a5,-36(s0)
 1005 00f8 98D7     		sw	a4,40(a5)
 497:../Firmware/GD32VW55x_standard_peripheral/Source/gd32vw55x_cau.c ****     cau_context->key_3_high = key_initpara->key_3_high;
 1006              		.loc 1 497 43
 1007 00fa 832784FD 		lw	a5,-40(s0)
 1008 00fe 984F     		lw	a4,24(a5)
 1009              		.loc 1 497 29
 1010 0100 8327C4FD 		lw	a5,-36(s0)
 1011 0104 D8D7     		sw	a4,44(a5)
 498:../Firmware/GD32VW55x_standard_peripheral/Source/gd32vw55x_cau.c ****     cau_context->key_3_low  = key_initpara->key_3_low;
 1012              		.loc 1 498 43
 1013 0106 832784FD 		lw	a5,-40(s0)
 1014 010a D84F     		lw	a4,28(a5)
 1015              		.loc 1 498 29
 1016 010c 8327C4FD 		lw	a5,-36(s0)
 1017 0110 98DB     		sw	a4,48(a5)
 499:../Firmware/GD32VW55x_standard_peripheral/Source/gd32vw55x_cau.c **** 
 500:../Firmware/GD32VW55x_standard_peripheral/Source/gd32vw55x_cau.c ****     if((CAU_MODE_TDES_ECB != algm_reg) && (CAU_MODE_DES_ECB != algm_reg) && (CAU_MODE_AES_ECB != al
 1018              		.loc 1 500 7
 1019 0112 832744FE 		lw	a5,-28(s0)
 1020 0116 A1CF     		beq	a5,zero,.L26
 1021              		.loc 1 500 40 discriminator 1
 1022 0118 032744FE 		lw	a4,-28(s0)
 1023 011c C147     		li	a5,16
 1024 011e 6308F704 		beq	a4,a5,.L26
 1025              		.loc 1 500 74 discriminator 2
 1026 0122 032744FE 		lw	a4,-28(s0)
 1027 0126 93070002 		li	a5,32
 1028 012a 6302F704 		beq	a4,a5,.L26
 501:../Firmware/GD32VW55x_standard_peripheral/Source/gd32vw55x_cau.c ****         /* if not in ECB mode, save the initialization vectors */
 502:../Firmware/GD32VW55x_standard_peripheral/Source/gd32vw55x_cau.c ****         cau_context->iv_0_high = CAU_IV0H;
 1029              		.loc 1 502 34
 1030 012e B707064C 		li	a5,1275461632
 1031 0132 93870704 		addi	a5,a5,64
 1032 0136 9843     		lw	a4,0(a5)
 1033              		.loc 1 502 32
 1034 0138 8327C4FD 		lw	a5,-36(s0)
 1035 013c D8C3     		sw	a4,4(a5)
 503:../Firmware/GD32VW55x_standard_peripheral/Source/gd32vw55x_cau.c ****         cau_context->iv_0_low = CAU_IV0L;
 1036              		.loc 1 503 33
 1037 013e B707064C 		li	a5,1275461632
 1038 0142 93874704 		addi	a5,a5,68
 1039 0146 9843     		lw	a4,0(a5)
 1040              		.loc 1 503 31
 1041 0148 8327C4FD 		lw	a5,-36(s0)
 1042 014c 98C7     		sw	a4,8(a5)
 504:../Firmware/GD32VW55x_standard_peripheral/Source/gd32vw55x_cau.c ****         cau_context->iv_1_high = CAU_IV1H;
 1043              		.loc 1 504 34
 1044 014e B707064C 		li	a5,1275461632
 1045 0152 93878704 		addi	a5,a5,72
 1046 0156 9843     		lw	a4,0(a5)
 1047              		.loc 1 504 32
 1048 0158 8327C4FD 		lw	a5,-36(s0)
 1049 015c D8C7     		sw	a4,12(a5)
 505:../Firmware/GD32VW55x_standard_peripheral/Source/gd32vw55x_cau.c ****         cau_context->iv_1_low = CAU_IV1L;
 1050              		.loc 1 505 33
 1051 015e B707064C 		li	a5,1275461632
 1052 0162 9387C704 		addi	a5,a5,76
 1053 0166 9843     		lw	a4,0(a5)
 1054              		.loc 1 505 31
 1055 0168 8327C4FD 		lw	a5,-36(s0)
 1056 016c 98CB     		sw	a4,16(a5)
 1057              	.L26:
 506:../Firmware/GD32VW55x_standard_peripheral/Source/gd32vw55x_cau.c ****     }
 507:../Firmware/GD32VW55x_standard_peripheral/Source/gd32vw55x_cau.c **** 
 508:../Firmware/GD32VW55x_standard_peripheral/Source/gd32vw55x_cau.c ****     /* if in GCM/CCM mode, save the context switch registers */
 509:../Firmware/GD32VW55x_standard_peripheral/Source/gd32vw55x_cau.c ****     if((CAU_MODE_AES_GCM == algm_reg) || (CAU_MODE_AES_CCM == algm_reg)) {
 1058              		.loc 1 509 7
 1059 016e 032744FE 		lw	a4,-28(s0)
 1060 0172 B7070800 		li	a5,524288
 1061 0176 6309F700 		beq	a4,a5,.L27
 1062              		.loc 1 509 39 discriminator 1
 1063 017a 032744FE 		lw	a4,-28(s0)
 1064 017e B7070800 		li	a5,524288
 1065 0182 A107     		addi	a5,a5,8
 1066 0184 6312F708 		bne	a4,a5,.L28
 1067              	.L27:
 510:../Firmware/GD32VW55x_standard_peripheral/Source/gd32vw55x_cau.c ****         cau_context->gcmccmctxs[0U] = CAU_GCMCCMCTXSx(0U);
 1068              		.loc 1 510 39
 1069 0188 B707064C 		li	a5,1275461632
 1070 018c 93870705 		addi	a5,a5,80
 1071 0190 9843     		lw	a4,0(a5)
 1072              		.loc 1 510 37
 1073 0192 8327C4FD 		lw	a5,-36(s0)
 1074 0196 D8DB     		sw	a4,52(a5)
 511:../Firmware/GD32VW55x_standard_peripheral/Source/gd32vw55x_cau.c ****         cau_context->gcmccmctxs[1U] = CAU_GCMCCMCTXSx(1U);
 1075              		.loc 1 511 39
 1076 0198 B707064C 		li	a5,1275461632
 1077 019c 93874705 		addi	a5,a5,84
 1078 01a0 9843     		lw	a4,0(a5)
 1079              		.loc 1 511 37
 1080 01a2 8327C4FD 		lw	a5,-36(s0)
 1081 01a6 98DF     		sw	a4,56(a5)
 512:../Firmware/GD32VW55x_standard_peripheral/Source/gd32vw55x_cau.c ****         cau_context->gcmccmctxs[2U] = CAU_GCMCCMCTXSx(2U);
 1082              		.loc 1 512 39
 1083 01a8 B707064C 		li	a5,1275461632
 1084 01ac 93878705 		addi	a5,a5,88
 1085 01b0 9843     		lw	a4,0(a5)
 1086              		.loc 1 512 37
 1087 01b2 8327C4FD 		lw	a5,-36(s0)
 1088 01b6 D8DF     		sw	a4,60(a5)
 513:../Firmware/GD32VW55x_standard_peripheral/Source/gd32vw55x_cau.c ****         cau_context->gcmccmctxs[3U] = CAU_GCMCCMCTXSx(3U);
 1089              		.loc 1 513 39
 1090 01b8 B707064C 		li	a5,1275461632
 1091 01bc 9387C705 		addi	a5,a5,92
 1092 01c0 9843     		lw	a4,0(a5)
 1093              		.loc 1 513 37
 1094 01c2 8327C4FD 		lw	a5,-36(s0)
 1095 01c6 B8C3     		sw	a4,64(a5)
 514:../Firmware/GD32VW55x_standard_peripheral/Source/gd32vw55x_cau.c ****         cau_context->gcmccmctxs[4U] = CAU_GCMCCMCTXSx(4U);
 1096              		.loc 1 514 39
 1097 01c8 B707064C 		li	a5,1275461632
 1098 01cc 93870706 		addi	a5,a5,96
 1099 01d0 9843     		lw	a4,0(a5)
 1100              		.loc 1 514 37
 1101 01d2 8327C4FD 		lw	a5,-36(s0)
 1102 01d6 F8C3     		sw	a4,68(a5)
 515:../Firmware/GD32VW55x_standard_peripheral/Source/gd32vw55x_cau.c ****         cau_context->gcmccmctxs[5U] = CAU_GCMCCMCTXSx(5U);
 1103              		.loc 1 515 39
 1104 01d8 B707064C 		li	a5,1275461632
 1105 01dc 93874706 		addi	a5,a5,100
 1106 01e0 9843     		lw	a4,0(a5)
 1107              		.loc 1 515 37
 1108 01e2 8327C4FD 		lw	a5,-36(s0)
 1109 01e6 B8C7     		sw	a4,72(a5)
 516:../Firmware/GD32VW55x_standard_peripheral/Source/gd32vw55x_cau.c ****         cau_context->gcmccmctxs[6U] = CAU_GCMCCMCTXSx(6U);
 1110              		.loc 1 516 39
 1111 01e8 B707064C 		li	a5,1275461632
 1112 01ec 93878706 		addi	a5,a5,104
 1113 01f0 9843     		lw	a4,0(a5)
 1114              		.loc 1 516 37
 1115 01f2 8327C4FD 		lw	a5,-36(s0)
 1116 01f6 F8C7     		sw	a4,76(a5)
 517:../Firmware/GD32VW55x_standard_peripheral/Source/gd32vw55x_cau.c ****         cau_context->gcmccmctxs[7U] = CAU_GCMCCMCTXSx(7U);
 1117              		.loc 1 517 39
 1118 01f8 B707064C 		li	a5,1275461632
 1119 01fc 9387C706 		addi	a5,a5,108
 1120 0200 9843     		lw	a4,0(a5)
 1121              		.loc 1 517 37
 1122 0202 8327C4FD 		lw	a5,-36(s0)
 1123 0206 B8CB     		sw	a4,80(a5)
 1124              	.L28:
 518:../Firmware/GD32VW55x_standard_peripheral/Source/gd32vw55x_cau.c ****     }
 519:../Firmware/GD32VW55x_standard_peripheral/Source/gd32vw55x_cau.c **** 
 520:../Firmware/GD32VW55x_standard_peripheral/Source/gd32vw55x_cau.c ****     /* if in GCM mode, save the context switch registers */
 521:../Firmware/GD32VW55x_standard_peripheral/Source/gd32vw55x_cau.c ****     if(CAU_MODE_AES_GCM == algm_reg) {
 1125              		.loc 1 521 7
 1126 0208 032744FE 		lw	a4,-28(s0)
 1127 020c B7070800 		li	a5,524288
 1128 0210 6312F708 		bne	a4,a5,.L30
 522:../Firmware/GD32VW55x_standard_peripheral/Source/gd32vw55x_cau.c ****         cau_context->gcmctxs[0U] = CAU_GCMCTXSx(0U);
 1129              		.loc 1 522 36
 1130 0214 B707064C 		li	a5,1275461632
 1131 0218 93870707 		addi	a5,a5,112
 1132 021c 9843     		lw	a4,0(a5)
 1133              		.loc 1 522 34
 1134 021e 8327C4FD 		lw	a5,-36(s0)
 1135 0222 F8CB     		sw	a4,84(a5)
 523:../Firmware/GD32VW55x_standard_peripheral/Source/gd32vw55x_cau.c ****         cau_context->gcmctxs[1U] = CAU_GCMCTXSx(1U);
 1136              		.loc 1 523 36
 1137 0224 B707064C 		li	a5,1275461632
 1138 0228 93874707 		addi	a5,a5,116
 1139 022c 9843     		lw	a4,0(a5)
 1140              		.loc 1 523 34
 1141 022e 8327C4FD 		lw	a5,-36(s0)
 1142 0232 B8CF     		sw	a4,88(a5)
 524:../Firmware/GD32VW55x_standard_peripheral/Source/gd32vw55x_cau.c ****         cau_context->gcmctxs[2U] = CAU_GCMCTXSx(2U);
 1143              		.loc 1 524 36
 1144 0234 B707064C 		li	a5,1275461632
 1145 0238 93878707 		addi	a5,a5,120
 1146 023c 9843     		lw	a4,0(a5)
 1147              		.loc 1 524 34
 1148 023e 8327C4FD 		lw	a5,-36(s0)
 1149 0242 F8CF     		sw	a4,92(a5)
 525:../Firmware/GD32VW55x_standard_peripheral/Source/gd32vw55x_cau.c ****         cau_context->gcmctxs[3U] = CAU_GCMCTXSx(3U);
 1150              		.loc 1 525 36
 1151 0244 B707064C 		li	a5,1275461632
 1152 0248 9387C707 		addi	a5,a5,124
 1153 024c 9843     		lw	a4,0(a5)
 1154              		.loc 1 525 34
 1155 024e 8327C4FD 		lw	a5,-36(s0)
 1156 0252 B8D3     		sw	a4,96(a5)
 526:../Firmware/GD32VW55x_standard_peripheral/Source/gd32vw55x_cau.c ****         cau_context->gcmctxs[4U] = CAU_GCMCTXSx(4U);
 1157              		.loc 1 526 36
 1158 0254 B707064C 		li	a5,1275461632
 1159 0258 93870708 		addi	a5,a5,128
 1160 025c 9843     		lw	a4,0(a5)
 1161              		.loc 1 526 34
 1162 025e 8327C4FD 		lw	a5,-36(s0)
 1163 0262 F8D3     		sw	a4,100(a5)
 527:../Firmware/GD32VW55x_standard_peripheral/Source/gd32vw55x_cau.c ****         cau_context->gcmctxs[5U] = CAU_GCMCTXSx(5U);
 1164              		.loc 1 527 36
 1165 0264 B707064C 		li	a5,1275461632
 1166 0268 93874708 		addi	a5,a5,132
 1167 026c 9843     		lw	a4,0(a5)
 1168              		.loc 1 527 34
 1169 026e 8327C4FD 		lw	a5,-36(s0)
 1170 0272 B8D7     		sw	a4,104(a5)
 528:../Firmware/GD32VW55x_standard_peripheral/Source/gd32vw55x_cau.c ****         cau_context->gcmctxs[6U] = CAU_GCMCTXSx(6U);
 1171              		.loc 1 528 36
 1172 0274 B707064C 		li	a5,1275461632
 1173 0278 93878708 		addi	a5,a5,136
 1174 027c 9843     		lw	a4,0(a5)
 1175              		.loc 1 528 34
 1176 027e 8327C4FD 		lw	a5,-36(s0)
 1177 0282 F8D7     		sw	a4,108(a5)
 529:../Firmware/GD32VW55x_standard_peripheral/Source/gd32vw55x_cau.c ****         cau_context->gcmctxs[7U] = CAU_GCMCTXSx(7U);
 1178              		.loc 1 529 36
 1179 0284 B707064C 		li	a5,1275461632
 1180 0288 9387C708 		addi	a5,a5,140
 1181 028c 9843     		lw	a4,0(a5)
 1182              		.loc 1 529 34
 1183 028e 8327C4FD 		lw	a5,-36(s0)
 1184 0292 B8DB     		sw	a4,112(a5)
 1185              	.L30:
 530:../Firmware/GD32VW55x_standard_peripheral/Source/gd32vw55x_cau.c ****     }
 531:../Firmware/GD32VW55x_standard_peripheral/Source/gd32vw55x_cau.c **** }
 1186              		.loc 1 531 1
 1187 0294 0100     		nop
 1188 0296 3254     		lw	s0,44(sp)
 1189              		.cfi_restore 8
 1190              		.cfi_def_cfa 2, 48
 1191 0298 4561     		addi	sp,sp,48
 1192              		.cfi_def_cfa_offset 0
 1193 029a 8280     		jr	ra
 1194              		.cfi_endproc
 1195              	.LFE365:
 1197              		.section	.text.cau_context_restore,"ax",@progbits
 1198              		.align	1
 1199              		.globl	cau_context_restore
 1201              	cau_context_restore:
 1202              	.LFB366:
 532:../Firmware/GD32VW55x_standard_peripheral/Source/gd32vw55x_cau.c **** 
 533:../Firmware/GD32VW55x_standard_peripheral/Source/gd32vw55x_cau.c **** /*!
 534:../Firmware/GD32VW55x_standard_peripheral/Source/gd32vw55x_cau.c ****     \brief      restore context after context switching
 535:../Firmware/GD32VW55x_standard_peripheral/Source/gd32vw55x_cau.c ****     \param[in]  cau_context:
 536:../Firmware/GD32VW55x_standard_peripheral/Source/gd32vw55x_cau.c ****                   ctl_config: current configuration
 537:../Firmware/GD32VW55x_standard_peripheral/Source/gd32vw55x_cau.c ****                   iv_0_high: init vector 0 high
 538:../Firmware/GD32VW55x_standard_peripheral/Source/gd32vw55x_cau.c ****                   iv_0_low:  init vector 0 low
 539:../Firmware/GD32VW55x_standard_peripheral/Source/gd32vw55x_cau.c ****                   iv_1_high: init vector 1 high
 540:../Firmware/GD32VW55x_standard_peripheral/Source/gd32vw55x_cau.c ****                   iv_1_low:  init vector 1 low
 541:../Firmware/GD32VW55x_standard_peripheral/Source/gd32vw55x_cau.c ****                   key_0_high: key 0 high
 542:../Firmware/GD32VW55x_standard_peripheral/Source/gd32vw55x_cau.c ****                   key_0_low:  key 0 low
 543:../Firmware/GD32VW55x_standard_peripheral/Source/gd32vw55x_cau.c ****                   key_1_high: key 1 high
 544:../Firmware/GD32VW55x_standard_peripheral/Source/gd32vw55x_cau.c ****                   key_1_low:  key 1 low
 545:../Firmware/GD32VW55x_standard_peripheral/Source/gd32vw55x_cau.c ****                   key_2_high: key 2 high
 546:../Firmware/GD32VW55x_standard_peripheral/Source/gd32vw55x_cau.c ****                   key_2_low:  key 2 low
 547:../Firmware/GD32VW55x_standard_peripheral/Source/gd32vw55x_cau.c ****                   key_3_high: key 3 high
 548:../Firmware/GD32VW55x_standard_peripheral/Source/gd32vw55x_cau.c ****                   key_3_low:  key 3 low
 549:../Firmware/GD32VW55x_standard_peripheral/Source/gd32vw55x_cau.c ****                   gcmccmctxs[8]: GCM or CCM mode context switch
 550:../Firmware/GD32VW55x_standard_peripheral/Source/gd32vw55x_cau.c ****                   gcmctxs[8]: GCM mode context switch
 551:../Firmware/GD32VW55x_standard_peripheral/Source/gd32vw55x_cau.c ****     \param[out] none
 552:../Firmware/GD32VW55x_standard_peripheral/Source/gd32vw55x_cau.c ****     \retval     none
 553:../Firmware/GD32VW55x_standard_peripheral/Source/gd32vw55x_cau.c **** */
 554:../Firmware/GD32VW55x_standard_peripheral/Source/gd32vw55x_cau.c **** void cau_context_restore(cau_context_parameter_struct *cau_context)
 555:../Firmware/GD32VW55x_standard_peripheral/Source/gd32vw55x_cau.c **** {
 1203              		.loc 1 555 1
 1204              		.cfi_startproc
 1205 0000 3971     		addi	sp,sp,-64
 1206              		.cfi_def_cfa_offset 64
 1207 0002 06DE     		sw	ra,60(sp)
 1208 0004 22DC     		sw	s0,56(sp)
 1209              		.cfi_offset 1, -4
 1210              		.cfi_offset 8, -8
 1211 0006 8000     		addi	s0,sp,64
 1212              		.cfi_def_cfa 8, 0
 1213 0008 2326A4FC 		sw	a0,-52(s0)
 556:../Firmware/GD32VW55x_standard_peripheral/Source/gd32vw55x_cau.c ****     uint32_t algm_reg, aes_decrypt;
 557:../Firmware/GD32VW55x_standard_peripheral/Source/gd32vw55x_cau.c **** 
 558:../Firmware/GD32VW55x_standard_peripheral/Source/gd32vw55x_cau.c ****     /* configure the processor with the saved configuration */
 559:../Firmware/GD32VW55x_standard_peripheral/Source/gd32vw55x_cau.c ****     CAU_CTL = cau_context->ctl_config;
 1214              		.loc 1 559 5
 1215 000c B707064C 		li	a5,1275461632
 1216              		.loc 1 559 26
 1217 0010 0327C4FC 		lw	a4,-52(s0)
 1218 0014 1843     		lw	a4,0(a4)
 1219              		.loc 1 559 13
 1220 0016 98C3     		sw	a4,0(a5)
 560:../Firmware/GD32VW55x_standard_peripheral/Source/gd32vw55x_cau.c **** 
 561:../Firmware/GD32VW55x_standard_peripheral/Source/gd32vw55x_cau.c ****     algm_reg = CAU_CTL & CAU_CTL_ALGM;
 1221              		.loc 1 561 16
 1222 0018 B707064C 		li	a5,1275461632
 1223 001c 9843     		lw	a4,0(a5)
 1224              		.loc 1 561 14
 1225 001e B7070800 		li	a5,524288
 1226 0022 93878703 		addi	a5,a5,56
 1227 0026 F98F     		and	a5,a4,a5
 1228 0028 2326F4FE 		sw	a5,-20(s0)
 562:../Firmware/GD32VW55x_standard_peripheral/Source/gd32vw55x_cau.c **** 
 563:../Firmware/GD32VW55x_standard_peripheral/Source/gd32vw55x_cau.c ****     /* restore the key value */
 564:../Firmware/GD32VW55x_standard_peripheral/Source/gd32vw55x_cau.c ****     CAU_KEY0H = cau_context->key_0_high;
 1229              		.loc 1 564 5
 1230 002c B707064C 		li	a5,1275461632
 1231 0030 93870702 		addi	a5,a5,32
 1232              		.loc 1 564 28
 1233 0034 0327C4FC 		lw	a4,-52(s0)
 1234 0038 584B     		lw	a4,20(a4)
 1235              		.loc 1 564 15
 1236 003a 98C3     		sw	a4,0(a5)
 565:../Firmware/GD32VW55x_standard_peripheral/Source/gd32vw55x_cau.c ****     CAU_KEY0L = cau_context->key_0_low;
 1237              		.loc 1 565 5
 1238 003c B707064C 		li	a5,1275461632
 1239 0040 93874702 		addi	a5,a5,36
 1240              		.loc 1 565 28
 1241 0044 0327C4FC 		lw	a4,-52(s0)
 1242 0048 184F     		lw	a4,24(a4)
 1243              		.loc 1 565 15
 1244 004a 98C3     		sw	a4,0(a5)
 566:../Firmware/GD32VW55x_standard_peripheral/Source/gd32vw55x_cau.c ****     CAU_KEY1H = cau_context->key_1_high;
 1245              		.loc 1 566 5
 1246 004c B707064C 		li	a5,1275461632
 1247 0050 93878702 		addi	a5,a5,40
 1248              		.loc 1 566 28
 1249 0054 0327C4FC 		lw	a4,-52(s0)
 1250 0058 584F     		lw	a4,28(a4)
 1251              		.loc 1 566 15
 1252 005a 98C3     		sw	a4,0(a5)
 567:../Firmware/GD32VW55x_standard_peripheral/Source/gd32vw55x_cau.c ****     CAU_KEY1L = cau_context->key_1_low;
 1253              		.loc 1 567 5
 1254 005c B707064C 		li	a5,1275461632
 1255 0060 9387C702 		addi	a5,a5,44
 1256              		.loc 1 567 28
 1257 0064 0327C4FC 		lw	a4,-52(s0)
 1258 0068 1853     		lw	a4,32(a4)
 1259              		.loc 1 567 15
 1260 006a 98C3     		sw	a4,0(a5)
 568:../Firmware/GD32VW55x_standard_peripheral/Source/gd32vw55x_cau.c ****     CAU_KEY2H = cau_context->key_2_high;
 1261              		.loc 1 568 5
 1262 006c B707064C 		li	a5,1275461632
 1263 0070 93870703 		addi	a5,a5,48
 1264              		.loc 1 568 28
 1265 0074 0327C4FC 		lw	a4,-52(s0)
 1266 0078 5853     		lw	a4,36(a4)
 1267              		.loc 1 568 15
 1268 007a 98C3     		sw	a4,0(a5)
 569:../Firmware/GD32VW55x_standard_peripheral/Source/gd32vw55x_cau.c ****     CAU_KEY2L = cau_context->key_2_low;
 1269              		.loc 1 569 5
 1270 007c B707064C 		li	a5,1275461632
 1271 0080 93874703 		addi	a5,a5,52
 1272              		.loc 1 569 28
 1273 0084 0327C4FC 		lw	a4,-52(s0)
 1274 0088 1857     		lw	a4,40(a4)
 1275              		.loc 1 569 15
 1276 008a 98C3     		sw	a4,0(a5)
 570:../Firmware/GD32VW55x_standard_peripheral/Source/gd32vw55x_cau.c ****     CAU_KEY3H = cau_context->key_3_high;
 1277              		.loc 1 570 5
 1278 008c B707064C 		li	a5,1275461632
 1279 0090 93878703 		addi	a5,a5,56
 1280              		.loc 1 570 28
 1281 0094 0327C4FC 		lw	a4,-52(s0)
 1282 0098 5857     		lw	a4,44(a4)
 1283              		.loc 1 570 15
 1284 009a 98C3     		sw	a4,0(a5)
 571:../Firmware/GD32VW55x_standard_peripheral/Source/gd32vw55x_cau.c ****     CAU_KEY3L = cau_context->key_3_low;
 1285              		.loc 1 571 5
 1286 009c B707064C 		li	a5,1275461632
 1287 00a0 9387C703 		addi	a5,a5,60
 1288              		.loc 1 571 28
 1289 00a4 0327C4FC 		lw	a4,-52(s0)
 1290 00a8 185B     		lw	a4,48(a4)
 1291              		.loc 1 571 15
 1292 00aa 98C3     		sw	a4,0(a5)
 572:../Firmware/GD32VW55x_standard_peripheral/Source/gd32vw55x_cau.c **** 
 573:../Firmware/GD32VW55x_standard_peripheral/Source/gd32vw55x_cau.c ****     if((CAU_MODE_TDES_ECB != algm_reg) && (CAU_MODE_DES_ECB != algm_reg) && (CAU_MODE_AES_ECB != al
 1293              		.loc 1 573 7
 1294 00ac 8327C4FE 		lw	a5,-20(s0)
 1295 00b0 A1CF     		beq	a5,zero,.L33
 1296              		.loc 1 573 40 discriminator 1
 1297 00b2 0327C4FE 		lw	a4,-20(s0)
 1298 00b6 C147     		li	a5,16
 1299 00b8 6308F704 		beq	a4,a5,.L33
 1300              		.loc 1 573 74 discriminator 2
 1301 00bc 0327C4FE 		lw	a4,-20(s0)
 1302 00c0 93070002 		li	a5,32
 1303 00c4 6302F704 		beq	a4,a5,.L33
 574:../Firmware/GD32VW55x_standard_peripheral/Source/gd32vw55x_cau.c ****         /* restore the initialization vectors */
 575:../Firmware/GD32VW55x_standard_peripheral/Source/gd32vw55x_cau.c ****         CAU_IV0H = cau_context->iv_0_high;
 1304              		.loc 1 575 9
 1305 00c8 B707064C 		li	a5,1275461632
 1306 00cc 93870704 		addi	a5,a5,64
 1307              		.loc 1 575 31
 1308 00d0 0327C4FC 		lw	a4,-52(s0)
 1309 00d4 5843     		lw	a4,4(a4)
 1310              		.loc 1 575 18
 1311 00d6 98C3     		sw	a4,0(a5)
 576:../Firmware/GD32VW55x_standard_peripheral/Source/gd32vw55x_cau.c ****         CAU_IV0L = cau_context->iv_0_low;
 1312              		.loc 1 576 9
 1313 00d8 B707064C 		li	a5,1275461632
 1314 00dc 93874704 		addi	a5,a5,68
 1315              		.loc 1 576 31
 1316 00e0 0327C4FC 		lw	a4,-52(s0)
 1317 00e4 1847     		lw	a4,8(a4)
 1318              		.loc 1 576 18
 1319 00e6 98C3     		sw	a4,0(a5)
 577:../Firmware/GD32VW55x_standard_peripheral/Source/gd32vw55x_cau.c ****         CAU_IV1H = cau_context->iv_1_high;
 1320              		.loc 1 577 9
 1321 00e8 B707064C 		li	a5,1275461632
 1322 00ec 93878704 		addi	a5,a5,72
 1323              		.loc 1 577 31
 1324 00f0 0327C4FC 		lw	a4,-52(s0)
 1325 00f4 5847     		lw	a4,12(a4)
 1326              		.loc 1 577 18
 1327 00f6 98C3     		sw	a4,0(a5)
 578:../Firmware/GD32VW55x_standard_peripheral/Source/gd32vw55x_cau.c ****         CAU_IV1L = cau_context->iv_1_low;
 1328              		.loc 1 578 9
 1329 00f8 B707064C 		li	a5,1275461632
 1330 00fc 9387C704 		addi	a5,a5,76
 1331              		.loc 1 578 31
 1332 0100 0327C4FC 		lw	a4,-52(s0)
 1333 0104 184B     		lw	a4,16(a4)
 1334              		.loc 1 578 18
 1335 0106 98C3     		sw	a4,0(a5)
 1336              	.L33:
 579:../Firmware/GD32VW55x_standard_peripheral/Source/gd32vw55x_cau.c ****     }
 580:../Firmware/GD32VW55x_standard_peripheral/Source/gd32vw55x_cau.c **** 
 581:../Firmware/GD32VW55x_standard_peripheral/Source/gd32vw55x_cau.c ****     /* if in GCM/CCM mode, restore the context switch registers */
 582:../Firmware/GD32VW55x_standard_peripheral/Source/gd32vw55x_cau.c ****     if((CAU_MODE_AES_GCM == algm_reg) || (CAU_MODE_AES_CCM == algm_reg)) {
 1337              		.loc 1 582 7
 1338 0108 0327C4FE 		lw	a4,-20(s0)
 1339 010c B7070800 		li	a5,524288
 1340 0110 6309F700 		beq	a4,a5,.L34
 1341              		.loc 1 582 39 discriminator 1
 1342 0114 0327C4FE 		lw	a4,-20(s0)
 1343 0118 B7070800 		li	a5,524288
 1344 011c A107     		addi	a5,a5,8
 1345 011e 6312F708 		bne	a4,a5,.L35
 1346              	.L34:
 583:../Firmware/GD32VW55x_standard_peripheral/Source/gd32vw55x_cau.c ****         CAU_GCMCCMCTXSx(0U) = cau_context->gcmccmctxs[0U];
 1347              		.loc 1 583 9
 1348 0122 B707064C 		li	a5,1275461632
 1349 0126 93870705 		addi	a5,a5,80
 1350              		.loc 1 583 54
 1351 012a 0327C4FC 		lw	a4,-52(s0)
 1352 012e 585B     		lw	a4,52(a4)
 1353              		.loc 1 583 29
 1354 0130 98C3     		sw	a4,0(a5)
 584:../Firmware/GD32VW55x_standard_peripheral/Source/gd32vw55x_cau.c ****         CAU_GCMCCMCTXSx(1U) = cau_context->gcmccmctxs[1U];
 1355              		.loc 1 584 9
 1356 0132 B707064C 		li	a5,1275461632
 1357 0136 93874705 		addi	a5,a5,84
 1358              		.loc 1 584 54
 1359 013a 0327C4FC 		lw	a4,-52(s0)
 1360 013e 185F     		lw	a4,56(a4)
 1361              		.loc 1 584 29
 1362 0140 98C3     		sw	a4,0(a5)
 585:../Firmware/GD32VW55x_standard_peripheral/Source/gd32vw55x_cau.c ****         CAU_GCMCCMCTXSx(2U) = cau_context->gcmccmctxs[2U];
 1363              		.loc 1 585 9
 1364 0142 B707064C 		li	a5,1275461632
 1365 0146 93878705 		addi	a5,a5,88
 1366              		.loc 1 585 54
 1367 014a 0327C4FC 		lw	a4,-52(s0)
 1368 014e 585F     		lw	a4,60(a4)
 1369              		.loc 1 585 29
 1370 0150 98C3     		sw	a4,0(a5)
 586:../Firmware/GD32VW55x_standard_peripheral/Source/gd32vw55x_cau.c ****         CAU_GCMCCMCTXSx(3U) = cau_context->gcmccmctxs[3U];
 1371              		.loc 1 586 9
 1372 0152 B707064C 		li	a5,1275461632
 1373 0156 9387C705 		addi	a5,a5,92
 1374              		.loc 1 586 54
 1375 015a 0327C4FC 		lw	a4,-52(s0)
 1376 015e 3843     		lw	a4,64(a4)
 1377              		.loc 1 586 29
 1378 0160 98C3     		sw	a4,0(a5)
 587:../Firmware/GD32VW55x_standard_peripheral/Source/gd32vw55x_cau.c ****         CAU_GCMCCMCTXSx(4U) = cau_context->gcmccmctxs[4U];
 1379              		.loc 1 587 9
 1380 0162 B707064C 		li	a5,1275461632
 1381 0166 93870706 		addi	a5,a5,96
 1382              		.loc 1 587 54
 1383 016a 0327C4FC 		lw	a4,-52(s0)
 1384 016e 7843     		lw	a4,68(a4)
 1385              		.loc 1 587 29
 1386 0170 98C3     		sw	a4,0(a5)
 588:../Firmware/GD32VW55x_standard_peripheral/Source/gd32vw55x_cau.c ****         CAU_GCMCCMCTXSx(5U) = cau_context->gcmccmctxs[5U];
 1387              		.loc 1 588 9
 1388 0172 B707064C 		li	a5,1275461632
 1389 0176 93874706 		addi	a5,a5,100
 1390              		.loc 1 588 54
 1391 017a 0327C4FC 		lw	a4,-52(s0)
 1392 017e 3847     		lw	a4,72(a4)
 1393              		.loc 1 588 29
 1394 0180 98C3     		sw	a4,0(a5)
 589:../Firmware/GD32VW55x_standard_peripheral/Source/gd32vw55x_cau.c ****         CAU_GCMCCMCTXSx(6U) = cau_context->gcmccmctxs[6U];
 1395              		.loc 1 589 9
 1396 0182 B707064C 		li	a5,1275461632
 1397 0186 93878706 		addi	a5,a5,104
 1398              		.loc 1 589 54
 1399 018a 0327C4FC 		lw	a4,-52(s0)
 1400 018e 7847     		lw	a4,76(a4)
 1401              		.loc 1 589 29
 1402 0190 98C3     		sw	a4,0(a5)
 590:../Firmware/GD32VW55x_standard_peripheral/Source/gd32vw55x_cau.c ****         CAU_GCMCCMCTXSx(7U) = cau_context->gcmccmctxs[7U];
 1403              		.loc 1 590 9
 1404 0192 B707064C 		li	a5,1275461632
 1405 0196 9387C706 		addi	a5,a5,108
 1406              		.loc 1 590 54
 1407 019a 0327C4FC 		lw	a4,-52(s0)
 1408 019e 384B     		lw	a4,80(a4)
 1409              		.loc 1 590 29
 1410 01a0 98C3     		sw	a4,0(a5)
 1411              	.L35:
 591:../Firmware/GD32VW55x_standard_peripheral/Source/gd32vw55x_cau.c ****     }
 592:../Firmware/GD32VW55x_standard_peripheral/Source/gd32vw55x_cau.c **** 
 593:../Firmware/GD32VW55x_standard_peripheral/Source/gd32vw55x_cau.c ****     /* if in GCM mode, restore the context switch registers */
 594:../Firmware/GD32VW55x_standard_peripheral/Source/gd32vw55x_cau.c ****     if(CAU_MODE_AES_GCM == algm_reg) {
 1412              		.loc 1 594 7
 1413 01a2 0327C4FE 		lw	a4,-20(s0)
 1414 01a6 B7070800 		li	a5,524288
 1415 01aa 6312F708 		bne	a4,a5,.L36
 595:../Firmware/GD32VW55x_standard_peripheral/Source/gd32vw55x_cau.c ****         CAU_GCMCTXSx(0U) = cau_context->gcmctxs[0U];
 1416              		.loc 1 595 9
 1417 01ae B707064C 		li	a5,1275461632
 1418 01b2 93870707 		addi	a5,a5,112
 1419              		.loc 1 595 48
 1420 01b6 0327C4FC 		lw	a4,-52(s0)
 1421 01ba 784B     		lw	a4,84(a4)
 1422              		.loc 1 595 26
 1423 01bc 98C3     		sw	a4,0(a5)
 596:../Firmware/GD32VW55x_standard_peripheral/Source/gd32vw55x_cau.c ****         CAU_GCMCTXSx(1U) = cau_context->gcmctxs[1U];
 1424              		.loc 1 596 9
 1425 01be B707064C 		li	a5,1275461632
 1426 01c2 93874707 		addi	a5,a5,116
 1427              		.loc 1 596 48
 1428 01c6 0327C4FC 		lw	a4,-52(s0)
 1429 01ca 384F     		lw	a4,88(a4)
 1430              		.loc 1 596 26
 1431 01cc 98C3     		sw	a4,0(a5)
 597:../Firmware/GD32VW55x_standard_peripheral/Source/gd32vw55x_cau.c ****         CAU_GCMCTXSx(2U) = cau_context->gcmctxs[2U];
 1432              		.loc 1 597 9
 1433 01ce B707064C 		li	a5,1275461632
 1434 01d2 93878707 		addi	a5,a5,120
 1435              		.loc 1 597 48
 1436 01d6 0327C4FC 		lw	a4,-52(s0)
 1437 01da 784F     		lw	a4,92(a4)
 1438              		.loc 1 597 26
 1439 01dc 98C3     		sw	a4,0(a5)
 598:../Firmware/GD32VW55x_standard_peripheral/Source/gd32vw55x_cau.c ****         CAU_GCMCTXSx(3U) = cau_context->gcmctxs[3U];
 1440              		.loc 1 598 9
 1441 01de B707064C 		li	a5,1275461632
 1442 01e2 9387C707 		addi	a5,a5,124
 1443              		.loc 1 598 48
 1444 01e6 0327C4FC 		lw	a4,-52(s0)
 1445 01ea 3853     		lw	a4,96(a4)
 1446              		.loc 1 598 26
 1447 01ec 98C3     		sw	a4,0(a5)
 599:../Firmware/GD32VW55x_standard_peripheral/Source/gd32vw55x_cau.c ****         CAU_GCMCTXSx(4U) = cau_context->gcmctxs[4U];
 1448              		.loc 1 599 9
 1449 01ee B707064C 		li	a5,1275461632
 1450 01f2 93870708 		addi	a5,a5,128
 1451              		.loc 1 599 48
 1452 01f6 0327C4FC 		lw	a4,-52(s0)
 1453 01fa 7853     		lw	a4,100(a4)
 1454              		.loc 1 599 26
 1455 01fc 98C3     		sw	a4,0(a5)
 600:../Firmware/GD32VW55x_standard_peripheral/Source/gd32vw55x_cau.c ****         CAU_GCMCTXSx(5U) = cau_context->gcmctxs[5U];
 1456              		.loc 1 600 9
 1457 01fe B707064C 		li	a5,1275461632
 1458 0202 93874708 		addi	a5,a5,132
 1459              		.loc 1 600 48
 1460 0206 0327C4FC 		lw	a4,-52(s0)
 1461 020a 3857     		lw	a4,104(a4)
 1462              		.loc 1 600 26
 1463 020c 98C3     		sw	a4,0(a5)
 601:../Firmware/GD32VW55x_standard_peripheral/Source/gd32vw55x_cau.c ****         CAU_GCMCTXSx(6U) = cau_context->gcmctxs[6U];
 1464              		.loc 1 601 9
 1465 020e B707064C 		li	a5,1275461632
 1466 0212 93878708 		addi	a5,a5,136
 1467              		.loc 1 601 48
 1468 0216 0327C4FC 		lw	a4,-52(s0)
 1469 021a 7857     		lw	a4,108(a4)
 1470              		.loc 1 601 26
 1471 021c 98C3     		sw	a4,0(a5)
 602:../Firmware/GD32VW55x_standard_peripheral/Source/gd32vw55x_cau.c ****         CAU_GCMCTXSx(7U) = cau_context->gcmctxs[7U];
 1472              		.loc 1 602 9
 1473 021e B707064C 		li	a5,1275461632
 1474 0222 9387C708 		addi	a5,a5,140
 1475              		.loc 1 602 48
 1476 0226 0327C4FC 		lw	a4,-52(s0)
 1477 022a 385B     		lw	a4,112(a4)
 1478              		.loc 1 602 26
 1479 022c 98C3     		sw	a4,0(a5)
 1480              	.L36:
 603:../Firmware/GD32VW55x_standard_peripheral/Source/gd32vw55x_cau.c ****     }
 604:../Firmware/GD32VW55x_standard_peripheral/Source/gd32vw55x_cau.c **** 
 605:../Firmware/GD32VW55x_standard_peripheral/Source/gd32vw55x_cau.c ****     /* if it is AES ECB/CBC decryption, then first prepare key */
 606:../Firmware/GD32VW55x_standard_peripheral/Source/gd32vw55x_cau.c ****     aes_decrypt = CAU_CTL & (CAU_CTL_ALGM | CAU_CTL_CAUDIR);
 1481              		.loc 1 606 19
 1482 022e B707064C 		li	a5,1275461632
 1483 0232 9843     		lw	a4,0(a5)
 1484              		.loc 1 606 17
 1485 0234 B7070800 		li	a5,524288
 1486 0238 9387C703 		addi	a5,a5,60
 1487 023c F98F     		and	a5,a4,a5
 1488 023e 2324F4FE 		sw	a5,-24(s0)
 607:../Firmware/GD32VW55x_standard_peripheral/Source/gd32vw55x_cau.c ****     if(((CAU_MODE_AES_ECB | CAU_DECRYPT) == aes_decrypt) || ((CAU_MODE_AES_CBC | CAU_DECRYPT) == ae
 1489              		.loc 1 607 7
 1490 0242 032784FE 		lw	a4,-24(s0)
 1491 0246 93074002 		li	a5,36
 1492 024a 6308F700 		beq	a4,a5,.L37
 1493              		.loc 1 607 58 discriminator 1
 1494 024e 032784FE 		lw	a4,-24(s0)
 1495 0252 9307C002 		li	a5,44
 1496 0256 631BF704 		bne	a4,a5,.L38
 1497              	.L37:
 1498              	.LBB2:
 608:../Firmware/GD32VW55x_standard_peripheral/Source/gd32vw55x_cau.c ****         uint32_t alg_dir, algo_mode, swapping;
 609:../Firmware/GD32VW55x_standard_peripheral/Source/gd32vw55x_cau.c **** 
 610:../Firmware/GD32VW55x_standard_peripheral/Source/gd32vw55x_cau.c ****         /* flush IN/OUT FIFOs */
 611:../Firmware/GD32VW55x_standard_peripheral/Source/gd32vw55x_cau.c ****         cau_fifo_flush();
 1499              		.loc 1 611 9
 1500 025a 97000000 		call	cau_fifo_flush
 1500      E7800000 
 612:../Firmware/GD32VW55x_standard_peripheral/Source/gd32vw55x_cau.c ****         /* parameters for key preparation for AES decryption */
 613:../Firmware/GD32VW55x_standard_peripheral/Source/gd32vw55x_cau.c ****         alg_dir = CAU_DECRYPT;
 1501              		.loc 1 613 17
 1502 0262 9147     		li	a5,4
 1503 0264 2322F4FE 		sw	a5,-28(s0)
 614:../Firmware/GD32VW55x_standard_peripheral/Source/gd32vw55x_cau.c ****         algo_mode = CAU_MODE_AES_KEY;
 1504              		.loc 1 614 19
 1505 0268 93078003 		li	a5,56
 1506 026c 2320F4FE 		sw	a5,-32(s0)
 615:../Firmware/GD32VW55x_standard_peripheral/Source/gd32vw55x_cau.c ****         swapping = CAU_SWAPPING_32BIT;
 1507              		.loc 1 615 18
 1508 0270 232E04FC 		sw	zero,-36(s0)
 616:../Firmware/GD32VW55x_standard_peripheral/Source/gd32vw55x_cau.c ****         cau_init(alg_dir, algo_mode, swapping);
 1509              		.loc 1 616 9
 1510 0274 0326C4FD 		lw	a2,-36(s0)
 1511 0278 832504FE 		lw	a1,-32(s0)
 1512 027c 032544FE 		lw	a0,-28(s0)
 1513 0280 97000000 		call	cau_init
 1513      E7800000 
 617:../Firmware/GD32VW55x_standard_peripheral/Source/gd32vw55x_cau.c **** 
 618:../Firmware/GD32VW55x_standard_peripheral/Source/gd32vw55x_cau.c ****         /* enable CAU */
 619:../Firmware/GD32VW55x_standard_peripheral/Source/gd32vw55x_cau.c ****         cau_enable();
 1514              		.loc 1 619 9
 1515 0288 97000000 		call	cau_enable
 1515      E7800000 
 620:../Firmware/GD32VW55x_standard_peripheral/Source/gd32vw55x_cau.c **** 
 621:../Firmware/GD32VW55x_standard_peripheral/Source/gd32vw55x_cau.c ****         /* wait until BUSY=0 */
 622:../Firmware/GD32VW55x_standard_peripheral/Source/gd32vw55x_cau.c ****         while((uint32_t)0U != cau_flag_get(CAU_FLAG_BUSY)) {
 1516              		.loc 1 622 14
 1517 0290 0100     		nop
 1518              	.L39:
 1519              		.loc 1 622 31 discriminator 1
 1520 0292 4145     		li	a0,16
 1521 0294 97000000 		call	cau_flag_get
 1521      E7800000 
 1522 029c AA87     		mv	a5,a0
 1523              		.loc 1 622 14 discriminator 1
 1524 029e F5FB     		bne	a5,zero,.L39
 623:../Firmware/GD32VW55x_standard_peripheral/Source/gd32vw55x_cau.c ****         }
 624:../Firmware/GD32VW55x_standard_peripheral/Source/gd32vw55x_cau.c **** 
 625:../Firmware/GD32VW55x_standard_peripheral/Source/gd32vw55x_cau.c ****         /* parameters for decryption */
 626:../Firmware/GD32VW55x_standard_peripheral/Source/gd32vw55x_cau.c ****         CAU_CTL = cau_context->ctl_config;
 1525              		.loc 1 626 9
 1526 02a0 B707064C 		li	a5,1275461632
 1527              		.loc 1 626 30
 1528 02a4 0327C4FC 		lw	a4,-52(s0)
 1529 02a8 1843     		lw	a4,0(a4)
 1530              		.loc 1 626 17
 1531 02aa 98C3     		sw	a4,0(a5)
 1532              	.L38:
 1533              	.LBE2:
 627:../Firmware/GD32VW55x_standard_peripheral/Source/gd32vw55x_cau.c ****     }
 628:../Firmware/GD32VW55x_standard_peripheral/Source/gd32vw55x_cau.c **** 
 629:../Firmware/GD32VW55x_standard_peripheral/Source/gd32vw55x_cau.c ****     /* enable CAU */
 630:../Firmware/GD32VW55x_standard_peripheral/Source/gd32vw55x_cau.c ****     cau_enable();
 1534              		.loc 1 630 5
 1535 02ac 97000000 		call	cau_enable
 1535      E7800000 
 631:../Firmware/GD32VW55x_standard_peripheral/Source/gd32vw55x_cau.c **** }
 1536              		.loc 1 631 1
 1537 02b4 0100     		nop
 1538 02b6 F250     		lw	ra,60(sp)
 1539              		.cfi_restore 1
 1540 02b8 6254     		lw	s0,56(sp)
 1541              		.cfi_restore 8
 1542              		.cfi_def_cfa 2, 64
 1543 02ba 2161     		addi	sp,sp,64
 1544              		.cfi_def_cfa_offset 0
 1545 02bc 8280     		jr	ra
 1546              		.cfi_endproc
 1547              	.LFE366:
 1549              		.section	.text.cau_flag_get,"ax",@progbits
 1550              		.align	1
 1551              		.globl	cau_flag_get
 1553              	cau_flag_get:
 1554              	.LFB367:
 632:../Firmware/GD32VW55x_standard_peripheral/Source/gd32vw55x_cau.c **** 
 633:../Firmware/GD32VW55x_standard_peripheral/Source/gd32vw55x_cau.c **** /*!
 634:../Firmware/GD32VW55x_standard_peripheral/Source/gd32vw55x_cau.c ****     \brief      get the CAU flag status
 635:../Firmware/GD32VW55x_standard_peripheral/Source/gd32vw55x_cau.c ****     \param[in]  flag: CAU flag status
 636:../Firmware/GD32VW55x_standard_peripheral/Source/gd32vw55x_cau.c ****                 only one parameter can be selected which is shown as below:
 637:../Firmware/GD32VW55x_standard_peripheral/Source/gd32vw55x_cau.c ****       \arg        CAU_FLAG_INFIFO_EMPTY: input FIFO empty
 638:../Firmware/GD32VW55x_standard_peripheral/Source/gd32vw55x_cau.c ****       \arg        CAU_FLAG_INFIFO_NO_FULL: input FIFO is not full
 639:../Firmware/GD32VW55x_standard_peripheral/Source/gd32vw55x_cau.c ****       \arg        CAU_FLAG_OUTFIFO_NO_EMPTY: output FIFO not empty
 640:../Firmware/GD32VW55x_standard_peripheral/Source/gd32vw55x_cau.c ****       \arg        CAU_FLAG_OUTFIFO_FULL: output FIFO is full
 641:../Firmware/GD32VW55x_standard_peripheral/Source/gd32vw55x_cau.c ****       \arg        CAU_FLAG_BUSY: the CAU core is busy
 642:../Firmware/GD32VW55x_standard_peripheral/Source/gd32vw55x_cau.c ****       \arg        CAU_FLAG_INFIFO: input FIFO flag status
 643:../Firmware/GD32VW55x_standard_peripheral/Source/gd32vw55x_cau.c ****       \arg        CAU_FLAG_OUTFIFO: output FIFO flag status
 644:../Firmware/GD32VW55x_standard_peripheral/Source/gd32vw55x_cau.c ****     \param[out] none
 645:../Firmware/GD32VW55x_standard_peripheral/Source/gd32vw55x_cau.c ****     \retval     FlagStatus: SET or RESET
 646:../Firmware/GD32VW55x_standard_peripheral/Source/gd32vw55x_cau.c **** */
 647:../Firmware/GD32VW55x_standard_peripheral/Source/gd32vw55x_cau.c **** FlagStatus cau_flag_get(uint32_t flag)
 648:../Firmware/GD32VW55x_standard_peripheral/Source/gd32vw55x_cau.c **** {
 1555              		.loc 1 648 1
 1556              		.cfi_startproc
 1557 0000 7971     		addi	sp,sp,-48
 1558              		.cfi_def_cfa_offset 48
 1559 0002 22D6     		sw	s0,44(sp)
 1560              		.cfi_offset 8, -4
 1561 0004 0018     		addi	s0,sp,48
 1562              		.cfi_def_cfa 8, 0
 1563 0006 232EA4FC 		sw	a0,-36(s0)
 649:../Firmware/GD32VW55x_standard_peripheral/Source/gd32vw55x_cau.c ****     uint32_t reg = 0U;
 1564              		.loc 1 649 14
 1565 000a 232604FE 		sw	zero,-20(s0)
 650:../Firmware/GD32VW55x_standard_peripheral/Source/gd32vw55x_cau.c ****     FlagStatus ret_flag = RESET;
 1566              		.loc 1 650 16
 1567 000e 232404FE 		sw	zero,-24(s0)
 651:../Firmware/GD32VW55x_standard_peripheral/Source/gd32vw55x_cau.c **** 
 652:../Firmware/GD32VW55x_standard_peripheral/Source/gd32vw55x_cau.c ****     /* check if the flag is in CAU_STAT1 register */
 653:../Firmware/GD32VW55x_standard_peripheral/Source/gd32vw55x_cau.c ****     if(SET == (flag >> 31U)){
 1568              		.loc 1 653 21
 1569 0012 8327C4FD 		lw	a5,-36(s0)
 1570 0016 13D7F701 		srli	a4,a5,31
 1571              		.loc 1 653 7
 1572 001a 8547     		li	a5,1
 1573 001c 6319F700 		bne	a4,a5,.L41
 654:../Firmware/GD32VW55x_standard_peripheral/Source/gd32vw55x_cau.c ****         reg = CAU_STAT1;
 1574              		.loc 1 654 15
 1575 0020 B707064C 		li	a5,1275461632
 1576 0024 E107     		addi	a5,a5,24
 1577              		.loc 1 654 13
 1578 0026 9C43     		lw	a5,0(a5)
 1579 0028 2326F4FE 		sw	a5,-20(s0)
 1580 002c 39A0     		j	.L42
 1581              	.L41:
 655:../Firmware/GD32VW55x_standard_peripheral/Source/gd32vw55x_cau.c ****     } else {
 656:../Firmware/GD32VW55x_standard_peripheral/Source/gd32vw55x_cau.c ****         /* the flag is in CAU_STAT0 register */
 657:../Firmware/GD32VW55x_standard_peripheral/Source/gd32vw55x_cau.c ****         reg = CAU_STAT0;
 1582              		.loc 1 657 15
 1583 002e B707064C 		li	a5,1275461632
 1584 0032 9107     		addi	a5,a5,4
 1585              		.loc 1 657 13
 1586 0034 9C43     		lw	a5,0(a5)
 1587 0036 2326F4FE 		sw	a5,-20(s0)
 1588              	.L42:
 658:../Firmware/GD32VW55x_standard_peripheral/Source/gd32vw55x_cau.c ****     }
 659:../Firmware/GD32VW55x_standard_peripheral/Source/gd32vw55x_cau.c **** 
 660:../Firmware/GD32VW55x_standard_peripheral/Source/gd32vw55x_cau.c ****     /* check the status of the specified CAU flag */
 661:../Firmware/GD32VW55x_standard_peripheral/Source/gd32vw55x_cau.c ****     if(RESET != (reg & flag)){
 1589              		.loc 1 661 22
 1590 003a 0327C4FE 		lw	a4,-20(s0)
 1591 003e 8327C4FD 		lw	a5,-36(s0)
 1592 0042 F98F     		and	a5,a4,a5
 1593              		.loc 1 661 7
 1594 0044 81C7     		beq	a5,zero,.L43
 662:../Firmware/GD32VW55x_standard_peripheral/Source/gd32vw55x_cau.c ****         ret_flag = SET;
 1595              		.loc 1 662 18
 1596 0046 8547     		li	a5,1
 1597 0048 2324F4FE 		sw	a5,-24(s0)
 1598              	.L43:
 663:../Firmware/GD32VW55x_standard_peripheral/Source/gd32vw55x_cau.c ****     }
 664:../Firmware/GD32VW55x_standard_peripheral/Source/gd32vw55x_cau.c **** 
 665:../Firmware/GD32VW55x_standard_peripheral/Source/gd32vw55x_cau.c ****     return ret_flag;
 1599              		.loc 1 665 12
 1600 004c 832784FE 		lw	a5,-24(s0)
 666:../Firmware/GD32VW55x_standard_peripheral/Source/gd32vw55x_cau.c **** }
 1601              		.loc 1 666 1
 1602 0050 3E85     		mv	a0,a5
 1603 0052 3254     		lw	s0,44(sp)
 1604              		.cfi_restore 8
 1605              		.cfi_def_cfa 2, 48
 1606 0054 4561     		addi	sp,sp,48
 1607              		.cfi_def_cfa_offset 0
 1608 0056 8280     		jr	ra
 1609              		.cfi_endproc
 1610              	.LFE367:
 1612              		.section	.text.cau_interrupt_enable,"ax",@progbits
 1613              		.align	1
 1614              		.globl	cau_interrupt_enable
 1616              	cau_interrupt_enable:
 1617              	.LFB368:
 667:../Firmware/GD32VW55x_standard_peripheral/Source/gd32vw55x_cau.c **** 
 668:../Firmware/GD32VW55x_standard_peripheral/Source/gd32vw55x_cau.c **** /*!
 669:../Firmware/GD32VW55x_standard_peripheral/Source/gd32vw55x_cau.c ****     \brief      enable the CAU interrupts
 670:../Firmware/GD32VW55x_standard_peripheral/Source/gd32vw55x_cau.c ****     \param[in]  interrupt: specify the CAU interrupt source to be enabled
 671:../Firmware/GD32VW55x_standard_peripheral/Source/gd32vw55x_cau.c ****                 one or more parameters can be selected which are shown as below:
 672:../Firmware/GD32VW55x_standard_peripheral/Source/gd32vw55x_cau.c ****       \arg        CAU_INT_INFIFO: input FIFO interrupt
 673:../Firmware/GD32VW55x_standard_peripheral/Source/gd32vw55x_cau.c ****       \arg        CAU_INT_OUTFIFO: output FIFO interrupt
 674:../Firmware/GD32VW55x_standard_peripheral/Source/gd32vw55x_cau.c ****     \param[out] none
 675:../Firmware/GD32VW55x_standard_peripheral/Source/gd32vw55x_cau.c ****     \retval     none
 676:../Firmware/GD32VW55x_standard_peripheral/Source/gd32vw55x_cau.c **** */
 677:../Firmware/GD32VW55x_standard_peripheral/Source/gd32vw55x_cau.c **** void cau_interrupt_enable(uint32_t interrupt)
 678:../Firmware/GD32VW55x_standard_peripheral/Source/gd32vw55x_cau.c **** {
 1618              		.loc 1 678 1
 1619              		.cfi_startproc
 1620 0000 0111     		addi	sp,sp,-32
 1621              		.cfi_def_cfa_offset 32
 1622 0002 22CE     		sw	s0,28(sp)
 1623              		.cfi_offset 8, -4
 1624 0004 0010     		addi	s0,sp,32
 1625              		.cfi_def_cfa 8, 0
 1626 0006 2326A4FE 		sw	a0,-20(s0)
 679:../Firmware/GD32VW55x_standard_peripheral/Source/gd32vw55x_cau.c ****     /* enable the selected CAU interrupt */
 680:../Firmware/GD32VW55x_standard_peripheral/Source/gd32vw55x_cau.c ****     CAU_INTEN |= interrupt;
 1627              		.loc 1 680 15
 1628 000a B707064C 		li	a5,1275461632
 1629 000e D107     		addi	a5,a5,20
 1630 0010 9443     		lw	a3,0(a5)
 1631 0012 B707064C 		li	a5,1275461632
 1632 0016 D107     		addi	a5,a5,20
 1633 0018 0327C4FE 		lw	a4,-20(s0)
 1634 001c 558F     		or	a4,a3,a4
 1635 001e 98C3     		sw	a4,0(a5)
 681:../Firmware/GD32VW55x_standard_peripheral/Source/gd32vw55x_cau.c **** }
 1636              		.loc 1 681 1
 1637 0020 0100     		nop
 1638 0022 7244     		lw	s0,28(sp)
 1639              		.cfi_restore 8
 1640              		.cfi_def_cfa 2, 32
 1641 0024 0561     		addi	sp,sp,32
 1642              		.cfi_def_cfa_offset 0
 1643 0026 8280     		jr	ra
 1644              		.cfi_endproc
 1645              	.LFE368:
 1647              		.section	.text.cau_interrupt_disable,"ax",@progbits
 1648              		.align	1
 1649              		.globl	cau_interrupt_disable
 1651              	cau_interrupt_disable:
 1652              	.LFB369:
 682:../Firmware/GD32VW55x_standard_peripheral/Source/gd32vw55x_cau.c **** 
 683:../Firmware/GD32VW55x_standard_peripheral/Source/gd32vw55x_cau.c **** /*!
 684:../Firmware/GD32VW55x_standard_peripheral/Source/gd32vw55x_cau.c ****     \brief      disable the CAU interrupts
 685:../Firmware/GD32VW55x_standard_peripheral/Source/gd32vw55x_cau.c ****     \param[in]  interrupt: specify the CAU interrupt source to be disabled
 686:../Firmware/GD32VW55x_standard_peripheral/Source/gd32vw55x_cau.c ****                 one or more parameters can be selected which are shown as below:
 687:../Firmware/GD32VW55x_standard_peripheral/Source/gd32vw55x_cau.c ****       \arg        CAU_INT_INFIFO: input FIFO interrupt
 688:../Firmware/GD32VW55x_standard_peripheral/Source/gd32vw55x_cau.c ****       \arg        CAU_INT_OUTFIFO: output FIFO interrupt
 689:../Firmware/GD32VW55x_standard_peripheral/Source/gd32vw55x_cau.c ****     \param[out] none
 690:../Firmware/GD32VW55x_standard_peripheral/Source/gd32vw55x_cau.c ****     \retval     none
 691:../Firmware/GD32VW55x_standard_peripheral/Source/gd32vw55x_cau.c **** */
 692:../Firmware/GD32VW55x_standard_peripheral/Source/gd32vw55x_cau.c **** void cau_interrupt_disable(uint32_t interrupt)
 693:../Firmware/GD32VW55x_standard_peripheral/Source/gd32vw55x_cau.c **** {
 1653              		.loc 1 693 1
 1654              		.cfi_startproc
 1655 0000 0111     		addi	sp,sp,-32
 1656              		.cfi_def_cfa_offset 32
 1657 0002 22CE     		sw	s0,28(sp)
 1658              		.cfi_offset 8, -4
 1659 0004 0010     		addi	s0,sp,32
 1660              		.cfi_def_cfa 8, 0
 1661 0006 2326A4FE 		sw	a0,-20(s0)
 694:../Firmware/GD32VW55x_standard_peripheral/Source/gd32vw55x_cau.c ****     /* disable the selected CAU interrupt */
 695:../Firmware/GD32VW55x_standard_peripheral/Source/gd32vw55x_cau.c ****     CAU_INTEN &= ~(interrupt);
 1662              		.loc 1 695 15
 1663 000a B707064C 		li	a5,1275461632
 1664 000e D107     		addi	a5,a5,20
 1665 0010 9443     		lw	a3,0(a5)
 1666              		.loc 1 695 18
 1667 0012 8327C4FE 		lw	a5,-20(s0)
 1668 0016 13C7F7FF 		not	a4,a5
 1669              		.loc 1 695 15
 1670 001a B707064C 		li	a5,1275461632
 1671 001e D107     		addi	a5,a5,20
 1672 0020 758F     		and	a4,a3,a4
 1673 0022 98C3     		sw	a4,0(a5)
 696:../Firmware/GD32VW55x_standard_peripheral/Source/gd32vw55x_cau.c **** }
 1674              		.loc 1 696 1
 1675 0024 0100     		nop
 1676 0026 7244     		lw	s0,28(sp)
 1677              		.cfi_restore 8
 1678              		.cfi_def_cfa 2, 32
 1679 0028 0561     		addi	sp,sp,32
 1680              		.cfi_def_cfa_offset 0
 1681 002a 8280     		jr	ra
 1682              		.cfi_endproc
 1683              	.LFE369:
 1685              		.section	.text.cau_interrupt_flag_get,"ax",@progbits
 1686              		.align	1
 1687              		.globl	cau_interrupt_flag_get
 1689              	cau_interrupt_flag_get:
 1690              	.LFB370:
 697:../Firmware/GD32VW55x_standard_peripheral/Source/gd32vw55x_cau.c **** 
 698:../Firmware/GD32VW55x_standard_peripheral/Source/gd32vw55x_cau.c **** /*!
 699:../Firmware/GD32VW55x_standard_peripheral/Source/gd32vw55x_cau.c ****     \brief      get the interrupt flag
 700:../Firmware/GD32VW55x_standard_peripheral/Source/gd32vw55x_cau.c ****     \param[in]  int_flag: CAU interrupt flag
 701:../Firmware/GD32VW55x_standard_peripheral/Source/gd32vw55x_cau.c ****                 only one parameter can be selected which is shown as below:
 702:../Firmware/GD32VW55x_standard_peripheral/Source/gd32vw55x_cau.c ****       \arg        CAU_INT_FLAG_INFIFO: input FIFO interrupt
 703:../Firmware/GD32VW55x_standard_peripheral/Source/gd32vw55x_cau.c ****       \arg        CAU_INT_FLAG_OUTFIFO: output FIFO interrupt
 704:../Firmware/GD32VW55x_standard_peripheral/Source/gd32vw55x_cau.c ****     \param[out] none
 705:../Firmware/GD32VW55x_standard_peripheral/Source/gd32vw55x_cau.c ****     \retval     FlagStatus: SET or RESET
 706:../Firmware/GD32VW55x_standard_peripheral/Source/gd32vw55x_cau.c **** */
 707:../Firmware/GD32VW55x_standard_peripheral/Source/gd32vw55x_cau.c **** FlagStatus cau_interrupt_flag_get(uint32_t int_flag)
 708:../Firmware/GD32VW55x_standard_peripheral/Source/gd32vw55x_cau.c **** {
 1691              		.loc 1 708 1
 1692              		.cfi_startproc
 1693 0000 7971     		addi	sp,sp,-48
 1694              		.cfi_def_cfa_offset 48
 1695 0002 22D6     		sw	s0,44(sp)
 1696              		.cfi_offset 8, -4
 1697 0004 0018     		addi	s0,sp,48
 1698              		.cfi_def_cfa 8, 0
 1699 0006 232EA4FC 		sw	a0,-36(s0)
 709:../Firmware/GD32VW55x_standard_peripheral/Source/gd32vw55x_cau.c ****     FlagStatus flag = RESET;
 1700              		.loc 1 709 16
 1701 000a 232604FE 		sw	zero,-20(s0)
 710:../Firmware/GD32VW55x_standard_peripheral/Source/gd32vw55x_cau.c **** 
 711:../Firmware/GD32VW55x_standard_peripheral/Source/gd32vw55x_cau.c ****     /* check the status of the specified CAU interrupt */
 712:../Firmware/GD32VW55x_standard_peripheral/Source/gd32vw55x_cau.c ****     if(RESET != (CAU_INTF & int_flag)){
 1702              		.loc 1 712 18
 1703 000e B707064C 		li	a5,1275461632
 1704 0012 F107     		addi	a5,a5,28
 1705 0014 9843     		lw	a4,0(a5)
 1706              		.loc 1 712 27
 1707 0016 8327C4FD 		lw	a5,-36(s0)
 1708 001a F98F     		and	a5,a4,a5
 1709              		.loc 1 712 7
 1710 001c 81C7     		beq	a5,zero,.L48
 713:../Firmware/GD32VW55x_standard_peripheral/Source/gd32vw55x_cau.c ****         flag = SET;
 1711              		.loc 1 713 14
 1712 001e 8547     		li	a5,1
 1713 0020 2326F4FE 		sw	a5,-20(s0)
 1714              	.L48:
 714:../Firmware/GD32VW55x_standard_peripheral/Source/gd32vw55x_cau.c ****     }
 715:../Firmware/GD32VW55x_standard_peripheral/Source/gd32vw55x_cau.c **** 
 716:../Firmware/GD32VW55x_standard_peripheral/Source/gd32vw55x_cau.c ****     return flag;
 1715              		.loc 1 716 12
 1716 0024 8327C4FE 		lw	a5,-20(s0)
 717:../Firmware/GD32VW55x_standard_peripheral/Source/gd32vw55x_cau.c **** }
 1717              		.loc 1 717 1
 1718 0028 3E85     		mv	a0,a5
 1719 002a 3254     		lw	s0,44(sp)
 1720              		.cfi_restore 8
 1721              		.cfi_def_cfa 2, 48
 1722 002c 4561     		addi	sp,sp,48
 1723              		.cfi_def_cfa_offset 0
 1724 002e 8280     		jr	ra
 1725              		.cfi_endproc
 1726              	.LFE370:
 1728              		.text
 1729              	.Letext0:
 1730              		.file 2 "e:\\gd32\\gd32embeddedbuilder_v1.5.2.30854\\tools\\nuclei_riscv_newlibc_prebuilt_win32_20
 1731              		.file 3 "e:\\gd32\\gd32embeddedbuilder_v1.5.2.30854\\tools\\nuclei_riscv_newlibc_prebuilt_win32_20
 1732              		.file 4 "../Firmware/GD32VW55x_standard_peripheral/gd32vw55x.h"
 1733              		.file 5 "../Firmware/GD32VW55x_standard_peripheral/Include/gd32vw55x_rcu.h"
 1734              		.file 6 "../Firmware/GD32VW55x_standard_peripheral/Include/gd32vw55x_cau.h"
DEFINED SYMBOLS
                            *ABS*:0000000000000000 gd32vw55x_cau.c
C:\Users\CYMR90~1\AppData\Local\Temp\ccaJ4oak.s:13     .text.cau_deinit:0000000000000000 cau_deinit
C:\Users\CYMR90~1\AppData\Local\Temp\ccaJ4oak.s:17     .text.cau_deinit:0000000000000000 .L0 
C:\Users\CYMR90~1\AppData\Local\Temp\ccaJ4oak.s:18     .text.cau_deinit:0000000000000000 .L0 
C:\Users\CYMR90~1\AppData\Local\Temp\ccaJ4oak.s:19     .text.cau_deinit:0000000000000002 .L0 
C:\Users\CYMR90~1\AppData\Local\Temp\ccaJ4oak.s:22     .text.cau_deinit:0000000000000006 .L0 
C:\Users\CYMR90~1\AppData\Local\Temp\ccaJ4oak.s:23     .text.cau_deinit:0000000000000006 .L0 
C:\Users\CYMR90~1\AppData\Local\Temp\ccaJ4oak.s:25     .text.cau_deinit:0000000000000008 .L0 
C:\Users\CYMR90~1\AppData\Local\Temp\ccaJ4oak.s:27     .text.cau_deinit:0000000000000008 .L0 
C:\Users\CYMR90~1\AppData\Local\Temp\ccaJ4oak.s:30     .text.cau_deinit:0000000000000014 .L0 
C:\Users\CYMR90~1\AppData\Local\Temp\ccaJ4oak.s:33     .text.cau_deinit:0000000000000020 .L0 
C:\Users\CYMR90~1\AppData\Local\Temp\ccaJ4oak.s:35     .text.cau_deinit:0000000000000024 .L0 
C:\Users\CYMR90~1\AppData\Local\Temp\ccaJ4oak.s:37     .text.cau_deinit:0000000000000026 .L0 
C:\Users\CYMR90~1\AppData\Local\Temp\ccaJ4oak.s:38     .text.cau_deinit:0000000000000026 .L0 
C:\Users\CYMR90~1\AppData\Local\Temp\ccaJ4oak.s:40     .text.cau_deinit:0000000000000028 .L0 
C:\Users\CYMR90~1\AppData\Local\Temp\ccaJ4oak.s:42     .text.cau_deinit:000000000000002a .L0 
C:\Users\CYMR90~1\AppData\Local\Temp\ccaJ4oak.s:49     .text.cau_struct_para_init:0000000000000000 cau_struct_para_init
C:\Users\CYMR90~1\AppData\Local\Temp\ccaJ4oak.s:52     .text.cau_struct_para_init:0000000000000000 .L0 
C:\Users\CYMR90~1\AppData\Local\Temp\ccaJ4oak.s:53     .text.cau_struct_para_init:0000000000000000 .L0 
C:\Users\CYMR90~1\AppData\Local\Temp\ccaJ4oak.s:54     .text.cau_struct_para_init:0000000000000002 .L0 
C:\Users\CYMR90~1\AppData\Local\Temp\ccaJ4oak.s:56     .text.cau_struct_para_init:0000000000000004 .L0 
C:\Users\CYMR90~1\AppData\Local\Temp\ccaJ4oak.s:58     .text.cau_struct_para_init:0000000000000006 .L0 
C:\Users\CYMR90~1\AppData\Local\Temp\ccaJ4oak.s:61     .text.cau_struct_para_init:000000000000000a .L0 
C:\Users\CYMR90~1\AppData\Local\Temp\ccaJ4oak.s:64     .text.cau_struct_para_init:0000000000000012 .L0 
C:\Users\CYMR90~1\AppData\Local\Temp\ccaJ4oak.s:67     .text.cau_struct_para_init:000000000000001a .L0 
C:\Users\CYMR90~1\AppData\Local\Temp\ccaJ4oak.s:70     .text.cau_struct_para_init:0000000000000022 .L0 
C:\Users\CYMR90~1\AppData\Local\Temp\ccaJ4oak.s:73     .text.cau_struct_para_init:000000000000002a .L0 
C:\Users\CYMR90~1\AppData\Local\Temp\ccaJ4oak.s:76     .text.cau_struct_para_init:0000000000000032 .L0 
C:\Users\CYMR90~1\AppData\Local\Temp\ccaJ4oak.s:79     .text.cau_struct_para_init:000000000000003a .L0 
C:\Users\CYMR90~1\AppData\Local\Temp\ccaJ4oak.s:82     .text.cau_struct_para_init:0000000000000042 .L0 
C:\Users\CYMR90~1\AppData\Local\Temp\ccaJ4oak.s:85     .text.cau_struct_para_init:000000000000004a .L0 
C:\Users\CYMR90~1\AppData\Local\Temp\ccaJ4oak.s:88     .text.cau_struct_para_init:0000000000000052 .L0 
C:\Users\CYMR90~1\AppData\Local\Temp\ccaJ4oak.s:90     .text.cau_struct_para_init:0000000000000056 .L0 
C:\Users\CYMR90~1\AppData\Local\Temp\ccaJ4oak.s:91     .text.cau_struct_para_init:0000000000000056 .L0 
C:\Users\CYMR90~1\AppData\Local\Temp\ccaJ4oak.s:93     .text.cau_struct_para_init:0000000000000058 .L0 
C:\Users\CYMR90~1\AppData\Local\Temp\ccaJ4oak.s:95     .text.cau_struct_para_init:000000000000005a .L0 
C:\Users\CYMR90~1\AppData\Local\Temp\ccaJ4oak.s:102    .text.cau_key_struct_para_init:0000000000000000 cau_key_struct_para_init
C:\Users\CYMR90~1\AppData\Local\Temp\ccaJ4oak.s:105    .text.cau_key_struct_para_init:0000000000000000 .L0 
C:\Users\CYMR90~1\AppData\Local\Temp\ccaJ4oak.s:106    .text.cau_key_struct_para_init:0000000000000000 .L0 
C:\Users\CYMR90~1\AppData\Local\Temp\ccaJ4oak.s:107    .text.cau_key_struct_para_init:0000000000000002 .L0 
C:\Users\CYMR90~1\AppData\Local\Temp\ccaJ4oak.s:109    .text.cau_key_struct_para_init:0000000000000004 .L0 
C:\Users\CYMR90~1\AppData\Local\Temp\ccaJ4oak.s:111    .text.cau_key_struct_para_init:0000000000000006 .L0 
C:\Users\CYMR90~1\AppData\Local\Temp\ccaJ4oak.s:114    .text.cau_key_struct_para_init:000000000000000a .L0 
C:\Users\CYMR90~1\AppData\Local\Temp\ccaJ4oak.s:117    .text.cau_key_struct_para_init:0000000000000012 .L0 
C:\Users\CYMR90~1\AppData\Local\Temp\ccaJ4oak.s:120    .text.cau_key_struct_para_init:000000000000001a .L0 
C:\Users\CYMR90~1\AppData\Local\Temp\ccaJ4oak.s:123    .text.cau_key_struct_para_init:0000000000000022 .L0 
C:\Users\CYMR90~1\AppData\Local\Temp\ccaJ4oak.s:126    .text.cau_key_struct_para_init:000000000000002a .L0 
C:\Users\CYMR90~1\AppData\Local\Temp\ccaJ4oak.s:129    .text.cau_key_struct_para_init:0000000000000032 .L0 
C:\Users\CYMR90~1\AppData\Local\Temp\ccaJ4oak.s:132    .text.cau_key_struct_para_init:000000000000003a .L0 
C:\Users\CYMR90~1\AppData\Local\Temp\ccaJ4oak.s:135    .text.cau_key_struct_para_init:0000000000000042 .L0 
C:\Users\CYMR90~1\AppData\Local\Temp\ccaJ4oak.s:138    .text.cau_key_struct_para_init:000000000000004a .L0 
C:\Users\CYMR90~1\AppData\Local\Temp\ccaJ4oak.s:140    .text.cau_key_struct_para_init:000000000000004e .L0 
C:\Users\CYMR90~1\AppData\Local\Temp\ccaJ4oak.s:141    .text.cau_key_struct_para_init:000000000000004e .L0 
C:\Users\CYMR90~1\AppData\Local\Temp\ccaJ4oak.s:143    .text.cau_key_struct_para_init:0000000000000050 .L0 
C:\Users\CYMR90~1\AppData\Local\Temp\ccaJ4oak.s:145    .text.cau_key_struct_para_init:0000000000000052 .L0 
C:\Users\CYMR90~1\AppData\Local\Temp\ccaJ4oak.s:152    .text.cau_iv_struct_para_init:0000000000000000 cau_iv_struct_para_init
C:\Users\CYMR90~1\AppData\Local\Temp\ccaJ4oak.s:155    .text.cau_iv_struct_para_init:0000000000000000 .L0 
C:\Users\CYMR90~1\AppData\Local\Temp\ccaJ4oak.s:156    .text.cau_iv_struct_para_init:0000000000000000 .L0 
C:\Users\CYMR90~1\AppData\Local\Temp\ccaJ4oak.s:157    .text.cau_iv_struct_para_init:0000000000000002 .L0 
C:\Users\CYMR90~1\AppData\Local\Temp\ccaJ4oak.s:159    .text.cau_iv_struct_para_init:0000000000000004 .L0 
C:\Users\CYMR90~1\AppData\Local\Temp\ccaJ4oak.s:161    .text.cau_iv_struct_para_init:0000000000000006 .L0 
C:\Users\CYMR90~1\AppData\Local\Temp\ccaJ4oak.s:164    .text.cau_iv_struct_para_init:000000000000000a .L0 
C:\Users\CYMR90~1\AppData\Local\Temp\ccaJ4oak.s:167    .text.cau_iv_struct_para_init:0000000000000012 .L0 
C:\Users\CYMR90~1\AppData\Local\Temp\ccaJ4oak.s:170    .text.cau_iv_struct_para_init:000000000000001a .L0 
C:\Users\CYMR90~1\AppData\Local\Temp\ccaJ4oak.s:173    .text.cau_iv_struct_para_init:0000000000000022 .L0 
C:\Users\CYMR90~1\AppData\Local\Temp\ccaJ4oak.s:176    .text.cau_iv_struct_para_init:000000000000002a .L0 
C:\Users\CYMR90~1\AppData\Local\Temp\ccaJ4oak.s:178    .text.cau_iv_struct_para_init:000000000000002e .L0 
C:\Users\CYMR90~1\AppData\Local\Temp\ccaJ4oak.s:179    .text.cau_iv_struct_para_init:000000000000002e .L0 
C:\Users\CYMR90~1\AppData\Local\Temp\ccaJ4oak.s:181    .text.cau_iv_struct_para_init:0000000000000030 .L0 
C:\Users\CYMR90~1\AppData\Local\Temp\ccaJ4oak.s:183    .text.cau_iv_struct_para_init:0000000000000032 .L0 
C:\Users\CYMR90~1\AppData\Local\Temp\ccaJ4oak.s:190    .text.cau_context_struct_para_init:0000000000000000 cau_context_struct_para_init
C:\Users\CYMR90~1\AppData\Local\Temp\ccaJ4oak.s:193    .text.cau_context_struct_para_init:0000000000000000 .L0 
C:\Users\CYMR90~1\AppData\Local\Temp\ccaJ4oak.s:194    .text.cau_context_struct_para_init:0000000000000000 .L0 
C:\Users\CYMR90~1\AppData\Local\Temp\ccaJ4oak.s:195    .text.cau_context_struct_para_init:0000000000000002 .L0 
C:\Users\CYMR90~1\AppData\Local\Temp\ccaJ4oak.s:197    .text.cau_context_struct_para_init:0000000000000004 .L0 
C:\Users\CYMR90~1\AppData\Local\Temp\ccaJ4oak.s:199    .text.cau_context_struct_para_init:0000000000000006 .L0 
C:\Users\CYMR90~1\AppData\Local\Temp\ccaJ4oak.s:202    .text.cau_context_struct_para_init:000000000000000a .L0 
C:\Users\CYMR90~1\AppData\Local\Temp\ccaJ4oak.s:205    .text.cau_context_struct_para_init:0000000000000012 .L0 
C:\Users\CYMR90~1\AppData\Local\Temp\ccaJ4oak.s:208    .text.cau_context_struct_para_init:000000000000001a .L0 
C:\Users\CYMR90~1\AppData\Local\Temp\ccaJ4oak.s:211    .text.cau_context_struct_para_init:0000000000000022 .L0 
C:\Users\CYMR90~1\AppData\Local\Temp\ccaJ4oak.s:214    .text.cau_context_struct_para_init:000000000000002a .L0 
C:\Users\CYMR90~1\AppData\Local\Temp\ccaJ4oak.s:217    .text.cau_context_struct_para_init:0000000000000032 .L0 
C:\Users\CYMR90~1\AppData\Local\Temp\ccaJ4oak.s:220    .text.cau_context_struct_para_init:000000000000003a .L0 
C:\Users\CYMR90~1\AppData\Local\Temp\ccaJ4oak.s:223    .text.cau_context_struct_para_init:0000000000000042 .L0 
C:\Users\CYMR90~1\AppData\Local\Temp\ccaJ4oak.s:226    .text.cau_context_struct_para_init:000000000000004a .L0 
C:\Users\CYMR90~1\AppData\Local\Temp\ccaJ4oak.s:229    .text.cau_context_struct_para_init:0000000000000052 .L0 
C:\Users\CYMR90~1\AppData\Local\Temp\ccaJ4oak.s:232    .text.cau_context_struct_para_init:000000000000005a .L0 
C:\Users\CYMR90~1\AppData\Local\Temp\ccaJ4oak.s:235    .text.cau_context_struct_para_init:0000000000000062 .L0 
C:\Users\CYMR90~1\AppData\Local\Temp\ccaJ4oak.s:238    .text.cau_context_struct_para_init:000000000000006a .L0 
C:\Users\CYMR90~1\AppData\Local\Temp\ccaJ4oak.s:241    .text.cau_context_struct_para_init:0000000000000072 .L0 
C:\Users\CYMR90~1\AppData\Local\Temp\ccaJ4oak.s:244    .text.cau_context_struct_para_init:000000000000007a .L0 
C:\Users\CYMR90~1\AppData\Local\Temp\ccaJ4oak.s:247    .text.cau_context_struct_para_init:0000000000000082 .L0 
C:\Users\CYMR90~1\AppData\Local\Temp\ccaJ4oak.s:250    .text.cau_context_struct_para_init:000000000000008a .L0 
C:\Users\CYMR90~1\AppData\Local\Temp\ccaJ4oak.s:253    .text.cau_context_struct_para_init:0000000000000092 .L0 
C:\Users\CYMR90~1\AppData\Local\Temp\ccaJ4oak.s:256    .text.cau_context_struct_para_init:000000000000009a .L0 
C:\Users\CYMR90~1\AppData\Local\Temp\ccaJ4oak.s:259    .text.cau_context_struct_para_init:00000000000000a2 .L0 
C:\Users\CYMR90~1\AppData\Local\Temp\ccaJ4oak.s:262    .text.cau_context_struct_para_init:00000000000000aa .L0 
C:\Users\CYMR90~1\AppData\Local\Temp\ccaJ4oak.s:265    .text.cau_context_struct_para_init:00000000000000b2 .L0 
C:\Users\CYMR90~1\AppData\Local\Temp\ccaJ4oak.s:268    .text.cau_context_struct_para_init:00000000000000ba .L0 
C:\Users\CYMR90~1\AppData\Local\Temp\ccaJ4oak.s:271    .text.cau_context_struct_para_init:00000000000000c2 .L0 
C:\Users\CYMR90~1\AppData\Local\Temp\ccaJ4oak.s:274    .text.cau_context_struct_para_init:00000000000000ca .L0 
C:\Users\CYMR90~1\AppData\Local\Temp\ccaJ4oak.s:277    .text.cau_context_struct_para_init:00000000000000d2 .L0 
C:\Users\CYMR90~1\AppData\Local\Temp\ccaJ4oak.s:280    .text.cau_context_struct_para_init:00000000000000da .L0 
C:\Users\CYMR90~1\AppData\Local\Temp\ccaJ4oak.s:283    .text.cau_context_struct_para_init:00000000000000e2 .L0 
C:\Users\CYMR90~1\AppData\Local\Temp\ccaJ4oak.s:286    .text.cau_context_struct_para_init:00000000000000ea .L0 
C:\Users\CYMR90~1\AppData\Local\Temp\ccaJ4oak.s:289    .text.cau_context_struct_para_init:00000000000000f2 .L0 
C:\Users\CYMR90~1\AppData\Local\Temp\ccaJ4oak.s:291    .text.cau_context_struct_para_init:00000000000000f6 .L0 
C:\Users\CYMR90~1\AppData\Local\Temp\ccaJ4oak.s:292    .text.cau_context_struct_para_init:00000000000000f6 .L0 
C:\Users\CYMR90~1\AppData\Local\Temp\ccaJ4oak.s:294    .text.cau_context_struct_para_init:00000000000000f8 .L0 
C:\Users\CYMR90~1\AppData\Local\Temp\ccaJ4oak.s:296    .text.cau_context_struct_para_init:00000000000000fa .L0 
C:\Users\CYMR90~1\AppData\Local\Temp\ccaJ4oak.s:303    .text.cau_enable:0000000000000000 cau_enable
C:\Users\CYMR90~1\AppData\Local\Temp\ccaJ4oak.s:306    .text.cau_enable:0000000000000000 .L0 
C:\Users\CYMR90~1\AppData\Local\Temp\ccaJ4oak.s:307    .text.cau_enable:0000000000000000 .L0 
C:\Users\CYMR90~1\AppData\Local\Temp\ccaJ4oak.s:308    .text.cau_enable:0000000000000002 .L0 
C:\Users\CYMR90~1\AppData\Local\Temp\ccaJ4oak.s:310    .text.cau_enable:0000000000000004 .L0 
C:\Users\CYMR90~1\AppData\Local\Temp\ccaJ4oak.s:312    .text.cau_enable:0000000000000006 .L0 
C:\Users\CYMR90~1\AppData\Local\Temp\ccaJ4oak.s:314    .text.cau_enable:0000000000000006 .L0 
C:\Users\CYMR90~1\AppData\Local\Temp\ccaJ4oak.s:321    .text.cau_enable:0000000000000016 .L0 
C:\Users\CYMR90~1\AppData\Local\Temp\ccaJ4oak.s:323    .text.cau_enable:000000000000001a .L0 
C:\Users\CYMR90~1\AppData\Local\Temp\ccaJ4oak.s:324    .text.cau_enable:000000000000001a .L0 
C:\Users\CYMR90~1\AppData\Local\Temp\ccaJ4oak.s:326    .text.cau_enable:000000000000001c .L0 
C:\Users\CYMR90~1\AppData\Local\Temp\ccaJ4oak.s:328    .text.cau_enable:000000000000001e .L0 
C:\Users\CYMR90~1\AppData\Local\Temp\ccaJ4oak.s:335    .text.cau_disable:0000000000000000 cau_disable
C:\Users\CYMR90~1\AppData\Local\Temp\ccaJ4oak.s:338    .text.cau_disable:0000000000000000 .L0 
C:\Users\CYMR90~1\AppData\Local\Temp\ccaJ4oak.s:339    .text.cau_disable:0000000000000000 .L0 
C:\Users\CYMR90~1\AppData\Local\Temp\ccaJ4oak.s:340    .text.cau_disable:0000000000000002 .L0 
C:\Users\CYMR90~1\AppData\Local\Temp\ccaJ4oak.s:342    .text.cau_disable:0000000000000004 .L0 
C:\Users\CYMR90~1\AppData\Local\Temp\ccaJ4oak.s:344    .text.cau_disable:0000000000000006 .L0 
C:\Users\CYMR90~1\AppData\Local\Temp\ccaJ4oak.s:346    .text.cau_disable:0000000000000006 .L0 
C:\Users\CYMR90~1\AppData\Local\Temp\ccaJ4oak.s:354    .text.cau_disable:0000000000000018 .L0 
C:\Users\CYMR90~1\AppData\Local\Temp\ccaJ4oak.s:356    .text.cau_disable:000000000000001c .L0 
C:\Users\CYMR90~1\AppData\Local\Temp\ccaJ4oak.s:357    .text.cau_disable:000000000000001c .L0 
C:\Users\CYMR90~1\AppData\Local\Temp\ccaJ4oak.s:359    .text.cau_disable:000000000000001e .L0 
C:\Users\CYMR90~1\AppData\Local\Temp\ccaJ4oak.s:361    .text.cau_disable:0000000000000020 .L0 
C:\Users\CYMR90~1\AppData\Local\Temp\ccaJ4oak.s:368    .text.cau_dma_enable:0000000000000000 cau_dma_enable
C:\Users\CYMR90~1\AppData\Local\Temp\ccaJ4oak.s:371    .text.cau_dma_enable:0000000000000000 .L0 
C:\Users\CYMR90~1\AppData\Local\Temp\ccaJ4oak.s:372    .text.cau_dma_enable:0000000000000000 .L0 
C:\Users\CYMR90~1\AppData\Local\Temp\ccaJ4oak.s:373    .text.cau_dma_enable:0000000000000002 .L0 
C:\Users\CYMR90~1\AppData\Local\Temp\ccaJ4oak.s:375    .text.cau_dma_enable:0000000000000004 .L0 
C:\Users\CYMR90~1\AppData\Local\Temp\ccaJ4oak.s:377    .text.cau_dma_enable:0000000000000006 .L0 
C:\Users\CYMR90~1\AppData\Local\Temp\ccaJ4oak.s:380    .text.cau_dma_enable:000000000000000a .L0 
C:\Users\CYMR90~1\AppData\Local\Temp\ccaJ4oak.s:389    .text.cau_dma_enable:0000000000000020 .L0 
C:\Users\CYMR90~1\AppData\Local\Temp\ccaJ4oak.s:391    .text.cau_dma_enable:0000000000000024 .L0 
C:\Users\CYMR90~1\AppData\Local\Temp\ccaJ4oak.s:392    .text.cau_dma_enable:0000000000000024 .L0 
C:\Users\CYMR90~1\AppData\Local\Temp\ccaJ4oak.s:394    .text.cau_dma_enable:0000000000000026 .L0 
C:\Users\CYMR90~1\AppData\Local\Temp\ccaJ4oak.s:396    .text.cau_dma_enable:0000000000000028 .L0 
C:\Users\CYMR90~1\AppData\Local\Temp\ccaJ4oak.s:403    .text.cau_dma_disable:0000000000000000 cau_dma_disable
C:\Users\CYMR90~1\AppData\Local\Temp\ccaJ4oak.s:406    .text.cau_dma_disable:0000000000000000 .L0 
C:\Users\CYMR90~1\AppData\Local\Temp\ccaJ4oak.s:407    .text.cau_dma_disable:0000000000000000 .L0 
C:\Users\CYMR90~1\AppData\Local\Temp\ccaJ4oak.s:408    .text.cau_dma_disable:0000000000000002 .L0 
C:\Users\CYMR90~1\AppData\Local\Temp\ccaJ4oak.s:410    .text.cau_dma_disable:0000000000000004 .L0 
C:\Users\CYMR90~1\AppData\Local\Temp\ccaJ4oak.s:412    .text.cau_dma_disable:0000000000000006 .L0 
C:\Users\CYMR90~1\AppData\Local\Temp\ccaJ4oak.s:415    .text.cau_dma_disable:000000000000000a .L0 
C:\Users\CYMR90~1\AppData\Local\Temp\ccaJ4oak.s:419    .text.cau_dma_disable:0000000000000012 .L0 
C:\Users\CYMR90~1\AppData\Local\Temp\ccaJ4oak.s:422    .text.cau_dma_disable:000000000000001a .L0 
C:\Users\CYMR90~1\AppData\Local\Temp\ccaJ4oak.s:427    .text.cau_dma_disable:0000000000000024 .L0 
C:\Users\CYMR90~1\AppData\Local\Temp\ccaJ4oak.s:429    .text.cau_dma_disable:0000000000000028 .L0 
C:\Users\CYMR90~1\AppData\Local\Temp\ccaJ4oak.s:430    .text.cau_dma_disable:0000000000000028 .L0 
C:\Users\CYMR90~1\AppData\Local\Temp\ccaJ4oak.s:432    .text.cau_dma_disable:000000000000002a .L0 
C:\Users\CYMR90~1\AppData\Local\Temp\ccaJ4oak.s:434    .text.cau_dma_disable:000000000000002c .L0 
C:\Users\CYMR90~1\AppData\Local\Temp\ccaJ4oak.s:441    .text.cau_init:0000000000000000 cau_init
C:\Users\CYMR90~1\AppData\Local\Temp\ccaJ4oak.s:444    .text.cau_init:0000000000000000 .L0 
C:\Users\CYMR90~1\AppData\Local\Temp\ccaJ4oak.s:445    .text.cau_init:0000000000000000 .L0 
C:\Users\CYMR90~1\AppData\Local\Temp\ccaJ4oak.s:446    .text.cau_init:0000000000000002 .L0 
C:\Users\CYMR90~1\AppData\Local\Temp\ccaJ4oak.s:448    .text.cau_init:0000000000000004 .L0 
C:\Users\CYMR90~1\AppData\Local\Temp\ccaJ4oak.s:450    .text.cau_init:0000000000000006 .L0 
C:\Users\CYMR90~1\AppData\Local\Temp\ccaJ4oak.s:455    .text.cau_init:0000000000000012 .L0 
C:\Users\CYMR90~1\AppData\Local\Temp\ccaJ4oak.s:463    .text.cau_init:0000000000000028 .L0 
C:\Users\CYMR90~1\AppData\Local\Temp\ccaJ4oak.s:470    .text.cau_init:000000000000003a .L0 
C:\Users\CYMR90~1\AppData\Local\Temp\ccaJ4oak.s:476    .text.cau_init:000000000000004a .L0 
C:\Users\CYMR90~1\AppData\Local\Temp\ccaJ4oak.s:483    .text.cau_init:000000000000005c .L0 
C:\Users\CYMR90~1\AppData\Local\Temp\ccaJ4oak.s:489    .text.cau_init:000000000000006a .L0 
C:\Users\CYMR90~1\AppData\Local\Temp\ccaJ4oak.s:496    .text.cau_init:000000000000007c .L0 
C:\Users\CYMR90~1\AppData\Local\Temp\ccaJ4oak.s:498    .text.cau_init:0000000000000080 .L0 
C:\Users\CYMR90~1\AppData\Local\Temp\ccaJ4oak.s:499    .text.cau_init:0000000000000080 .L0 
C:\Users\CYMR90~1\AppData\Local\Temp\ccaJ4oak.s:501    .text.cau_init:0000000000000082 .L0 
C:\Users\CYMR90~1\AppData\Local\Temp\ccaJ4oak.s:503    .text.cau_init:0000000000000084 .L0 
C:\Users\CYMR90~1\AppData\Local\Temp\ccaJ4oak.s:510    .text.cau_aes_keysize_config:0000000000000000 cau_aes_keysize_config
C:\Users\CYMR90~1\AppData\Local\Temp\ccaJ4oak.s:513    .text.cau_aes_keysize_config:0000000000000000 .L0 
C:\Users\CYMR90~1\AppData\Local\Temp\ccaJ4oak.s:514    .text.cau_aes_keysize_config:0000000000000000 .L0 
C:\Users\CYMR90~1\AppData\Local\Temp\ccaJ4oak.s:515    .text.cau_aes_keysize_config:0000000000000002 .L0 
C:\Users\CYMR90~1\AppData\Local\Temp\ccaJ4oak.s:517    .text.cau_aes_keysize_config:0000000000000004 .L0 
C:\Users\CYMR90~1\AppData\Local\Temp\ccaJ4oak.s:519    .text.cau_aes_keysize_config:0000000000000006 .L0 
C:\Users\CYMR90~1\AppData\Local\Temp\ccaJ4oak.s:522    .text.cau_aes_keysize_config:000000000000000a .L0 
C:\Users\CYMR90~1\AppData\Local\Temp\ccaJ4oak.s:528    .text.cau_aes_keysize_config:000000000000001a .L0 
C:\Users\CYMR90~1\AppData\Local\Temp\ccaJ4oak.s:535    .text.cau_aes_keysize_config:000000000000002c .L0 
C:\Users\CYMR90~1\AppData\Local\Temp\ccaJ4oak.s:537    .text.cau_aes_keysize_config:0000000000000030 .L0 
C:\Users\CYMR90~1\AppData\Local\Temp\ccaJ4oak.s:538    .text.cau_aes_keysize_config:0000000000000030 .L0 
C:\Users\CYMR90~1\AppData\Local\Temp\ccaJ4oak.s:540    .text.cau_aes_keysize_config:0000000000000032 .L0 
C:\Users\CYMR90~1\AppData\Local\Temp\ccaJ4oak.s:542    .text.cau_aes_keysize_config:0000000000000034 .L0 
C:\Users\CYMR90~1\AppData\Local\Temp\ccaJ4oak.s:549    .text.cau_key_init:0000000000000000 cau_key_init
C:\Users\CYMR90~1\AppData\Local\Temp\ccaJ4oak.s:552    .text.cau_key_init:0000000000000000 .L0 
C:\Users\CYMR90~1\AppData\Local\Temp\ccaJ4oak.s:553    .text.cau_key_init:0000000000000000 .L0 
C:\Users\CYMR90~1\AppData\Local\Temp\ccaJ4oak.s:554    .text.cau_key_init:0000000000000002 .L0 
C:\Users\CYMR90~1\AppData\Local\Temp\ccaJ4oak.s:556    .text.cau_key_init:0000000000000004 .L0 
C:\Users\CYMR90~1\AppData\Local\Temp\ccaJ4oak.s:558    .text.cau_key_init:0000000000000006 .L0 
C:\Users\CYMR90~1\AppData\Local\Temp\ccaJ4oak.s:561    .text.cau_key_init:000000000000000a .L0 
C:\Users\CYMR90~1\AppData\Local\Temp\ccaJ4oak.s:564    .text.cau_key_init:0000000000000012 .L0 
C:\Users\CYMR90~1\AppData\Local\Temp\ccaJ4oak.s:567    .text.cau_key_init:0000000000000018 .L0 
C:\Users\CYMR90~1\AppData\Local\Temp\ccaJ4oak.s:569    .text.cau_key_init:000000000000001a .L0 
C:\Users\CYMR90~1\AppData\Local\Temp\ccaJ4oak.s:572    .text.cau_key_init:0000000000000022 .L0 
C:\Users\CYMR90~1\AppData\Local\Temp\ccaJ4oak.s:575    .text.cau_key_init:0000000000000028 .L0 
C:\Users\CYMR90~1\AppData\Local\Temp\ccaJ4oak.s:577    .text.cau_key_init:000000000000002a .L0 
C:\Users\CYMR90~1\AppData\Local\Temp\ccaJ4oak.s:580    .text.cau_key_init:0000000000000032 .L0 
C:\Users\CYMR90~1\AppData\Local\Temp\ccaJ4oak.s:583    .text.cau_key_init:0000000000000038 .L0 
C:\Users\CYMR90~1\AppData\Local\Temp\ccaJ4oak.s:585    .text.cau_key_init:000000000000003a .L0 
C:\Users\CYMR90~1\AppData\Local\Temp\ccaJ4oak.s:588    .text.cau_key_init:0000000000000042 .L0 
C:\Users\CYMR90~1\AppData\Local\Temp\ccaJ4oak.s:591    .text.cau_key_init:0000000000000048 .L0 
C:\Users\CYMR90~1\AppData\Local\Temp\ccaJ4oak.s:593    .text.cau_key_init:000000000000004a .L0 
C:\Users\CYMR90~1\AppData\Local\Temp\ccaJ4oak.s:596    .text.cau_key_init:0000000000000052 .L0 
C:\Users\CYMR90~1\AppData\Local\Temp\ccaJ4oak.s:599    .text.cau_key_init:0000000000000058 .L0 
C:\Users\CYMR90~1\AppData\Local\Temp\ccaJ4oak.s:601    .text.cau_key_init:000000000000005a .L0 
C:\Users\CYMR90~1\AppData\Local\Temp\ccaJ4oak.s:604    .text.cau_key_init:0000000000000062 .L0 
C:\Users\CYMR90~1\AppData\Local\Temp\ccaJ4oak.s:607    .text.cau_key_init:0000000000000068 .L0 
C:\Users\CYMR90~1\AppData\Local\Temp\ccaJ4oak.s:609    .text.cau_key_init:000000000000006a .L0 
C:\Users\CYMR90~1\AppData\Local\Temp\ccaJ4oak.s:612    .text.cau_key_init:0000000000000072 .L0 
C:\Users\CYMR90~1\AppData\Local\Temp\ccaJ4oak.s:615    .text.cau_key_init:0000000000000078 .L0 
C:\Users\CYMR90~1\AppData\Local\Temp\ccaJ4oak.s:617    .text.cau_key_init:000000000000007a .L0 
C:\Users\CYMR90~1\AppData\Local\Temp\ccaJ4oak.s:620    .text.cau_key_init:0000000000000082 .L0 
C:\Users\CYMR90~1\AppData\Local\Temp\ccaJ4oak.s:623    .text.cau_key_init:0000000000000088 .L0 
C:\Users\CYMR90~1\AppData\Local\Temp\ccaJ4oak.s:625    .text.cau_key_init:000000000000008a .L0 
C:\Users\CYMR90~1\AppData\Local\Temp\ccaJ4oak.s:627    .text.cau_key_init:000000000000008e .L0 
C:\Users\CYMR90~1\AppData\Local\Temp\ccaJ4oak.s:628    .text.cau_key_init:000000000000008e .L0 
C:\Users\CYMR90~1\AppData\Local\Temp\ccaJ4oak.s:630    .text.cau_key_init:0000000000000090 .L0 
C:\Users\CYMR90~1\AppData\Local\Temp\ccaJ4oak.s:632    .text.cau_key_init:0000000000000092 .L0 
C:\Users\CYMR90~1\AppData\Local\Temp\ccaJ4oak.s:639    .text.cau_iv_init:0000000000000000 cau_iv_init
C:\Users\CYMR90~1\AppData\Local\Temp\ccaJ4oak.s:642    .text.cau_iv_init:0000000000000000 .L0 
C:\Users\CYMR90~1\AppData\Local\Temp\ccaJ4oak.s:643    .text.cau_iv_init:0000000000000000 .L0 
C:\Users\CYMR90~1\AppData\Local\Temp\ccaJ4oak.s:644    .text.cau_iv_init:0000000000000002 .L0 
C:\Users\CYMR90~1\AppData\Local\Temp\ccaJ4oak.s:646    .text.cau_iv_init:0000000000000004 .L0 
C:\Users\CYMR90~1\AppData\Local\Temp\ccaJ4oak.s:648    .text.cau_iv_init:0000000000000006 .L0 
C:\Users\CYMR90~1\AppData\Local\Temp\ccaJ4oak.s:651    .text.cau_iv_init:000000000000000a .L0 
C:\Users\CYMR90~1\AppData\Local\Temp\ccaJ4oak.s:654    .text.cau_iv_init:0000000000000012 .L0 
C:\Users\CYMR90~1\AppData\Local\Temp\ccaJ4oak.s:657    .text.cau_iv_init:0000000000000018 .L0 
C:\Users\CYMR90~1\AppData\Local\Temp\ccaJ4oak.s:659    .text.cau_iv_init:000000000000001a .L0 
C:\Users\CYMR90~1\AppData\Local\Temp\ccaJ4oak.s:662    .text.cau_iv_init:0000000000000022 .L0 
C:\Users\CYMR90~1\AppData\Local\Temp\ccaJ4oak.s:665    .text.cau_iv_init:0000000000000028 .L0 
C:\Users\CYMR90~1\AppData\Local\Temp\ccaJ4oak.s:667    .text.cau_iv_init:000000000000002a .L0 
C:\Users\CYMR90~1\AppData\Local\Temp\ccaJ4oak.s:670    .text.cau_iv_init:0000000000000032 .L0 
C:\Users\CYMR90~1\AppData\Local\Temp\ccaJ4oak.s:673    .text.cau_iv_init:0000000000000038 .L0 
C:\Users\CYMR90~1\AppData\Local\Temp\ccaJ4oak.s:675    .text.cau_iv_init:000000000000003a .L0 
C:\Users\CYMR90~1\AppData\Local\Temp\ccaJ4oak.s:678    .text.cau_iv_init:0000000000000042 .L0 
C:\Users\CYMR90~1\AppData\Local\Temp\ccaJ4oak.s:681    .text.cau_iv_init:0000000000000048 .L0 
C:\Users\CYMR90~1\AppData\Local\Temp\ccaJ4oak.s:683    .text.cau_iv_init:000000000000004a .L0 
C:\Users\CYMR90~1\AppData\Local\Temp\ccaJ4oak.s:685    .text.cau_iv_init:000000000000004e .L0 
C:\Users\CYMR90~1\AppData\Local\Temp\ccaJ4oak.s:686    .text.cau_iv_init:000000000000004e .L0 
C:\Users\CYMR90~1\AppData\Local\Temp\ccaJ4oak.s:688    .text.cau_iv_init:0000000000000050 .L0 
C:\Users\CYMR90~1\AppData\Local\Temp\ccaJ4oak.s:690    .text.cau_iv_init:0000000000000052 .L0 
C:\Users\CYMR90~1\AppData\Local\Temp\ccaJ4oak.s:697    .text.cau_phase_config:0000000000000000 cau_phase_config
C:\Users\CYMR90~1\AppData\Local\Temp\ccaJ4oak.s:700    .text.cau_phase_config:0000000000000000 .L0 
C:\Users\CYMR90~1\AppData\Local\Temp\ccaJ4oak.s:701    .text.cau_phase_config:0000000000000000 .L0 
C:\Users\CYMR90~1\AppData\Local\Temp\ccaJ4oak.s:702    .text.cau_phase_config:0000000000000002 .L0 
C:\Users\CYMR90~1\AppData\Local\Temp\ccaJ4oak.s:704    .text.cau_phase_config:0000000000000004 .L0 
C:\Users\CYMR90~1\AppData\Local\Temp\ccaJ4oak.s:706    .text.cau_phase_config:0000000000000006 .L0 
C:\Users\CYMR90~1\AppData\Local\Temp\ccaJ4oak.s:709    .text.cau_phase_config:000000000000000a .L0 
C:\Users\CYMR90~1\AppData\Local\Temp\ccaJ4oak.s:711    .text.cau_phase_config:000000000000000e .L0 
C:\Users\CYMR90~1\AppData\Local\Temp\ccaJ4oak.s:714    .text.cau_phase_config:0000000000000014 .L0 
C:\Users\CYMR90~1\AppData\Local\Temp\ccaJ4oak.s:720    .text.cau_phase_config:0000000000000024 .L0 
C:\Users\CYMR90~1\AppData\Local\Temp\ccaJ4oak.s:725    .text.cau_phase_config:0000000000000032 .L0 
C:\Users\CYMR90~1\AppData\Local\Temp\ccaJ4oak.s:727    .text.cau_phase_config:0000000000000036 .L0 
C:\Users\CYMR90~1\AppData\Local\Temp\ccaJ4oak.s:730    .text.cau_phase_config:000000000000003c .L0 
C:\Users\CYMR90~1\AppData\Local\Temp\ccaJ4oak.s:732    .text.cau_phase_config:0000000000000040 .L0 
C:\Users\CYMR90~1\AppData\Local\Temp\ccaJ4oak.s:733    .text.cau_phase_config:0000000000000040 .L0 
C:\Users\CYMR90~1\AppData\Local\Temp\ccaJ4oak.s:735    .text.cau_phase_config:0000000000000042 .L0 
C:\Users\CYMR90~1\AppData\Local\Temp\ccaJ4oak.s:737    .text.cau_phase_config:0000000000000044 .L0 
C:\Users\CYMR90~1\AppData\Local\Temp\ccaJ4oak.s:744    .text.cau_fifo_flush:0000000000000000 cau_fifo_flush
C:\Users\CYMR90~1\AppData\Local\Temp\ccaJ4oak.s:747    .text.cau_fifo_flush:0000000000000000 .L0 
C:\Users\CYMR90~1\AppData\Local\Temp\ccaJ4oak.s:748    .text.cau_fifo_flush:0000000000000000 .L0 
C:\Users\CYMR90~1\AppData\Local\Temp\ccaJ4oak.s:749    .text.cau_fifo_flush:0000000000000002 .L0 
C:\Users\CYMR90~1\AppData\Local\Temp\ccaJ4oak.s:751    .text.cau_fifo_flush:0000000000000004 .L0 
C:\Users\CYMR90~1\AppData\Local\Temp\ccaJ4oak.s:753    .text.cau_fifo_flush:0000000000000006 .L0 
C:\Users\CYMR90~1\AppData\Local\Temp\ccaJ4oak.s:755    .text.cau_fifo_flush:0000000000000006 .L0 
C:\Users\CYMR90~1\AppData\Local\Temp\ccaJ4oak.s:762    .text.cau_fifo_flush:0000000000000016 .L0 
C:\Users\CYMR90~1\AppData\Local\Temp\ccaJ4oak.s:764    .text.cau_fifo_flush:000000000000001a .L0 
C:\Users\CYMR90~1\AppData\Local\Temp\ccaJ4oak.s:765    .text.cau_fifo_flush:000000000000001a .L0 
C:\Users\CYMR90~1\AppData\Local\Temp\ccaJ4oak.s:767    .text.cau_fifo_flush:000000000000001c .L0 
C:\Users\CYMR90~1\AppData\Local\Temp\ccaJ4oak.s:769    .text.cau_fifo_flush:000000000000001e .L0 
C:\Users\CYMR90~1\AppData\Local\Temp\ccaJ4oak.s:776    .text.cau_enable_state_get:0000000000000000 cau_enable_state_get
C:\Users\CYMR90~1\AppData\Local\Temp\ccaJ4oak.s:779    .text.cau_enable_state_get:0000000000000000 .L0 
C:\Users\CYMR90~1\AppData\Local\Temp\ccaJ4oak.s:780    .text.cau_enable_state_get:0000000000000000 .L0 
C:\Users\CYMR90~1\AppData\Local\Temp\ccaJ4oak.s:781    .text.cau_enable_state_get:0000000000000002 .L0 
C:\Users\CYMR90~1\AppData\Local\Temp\ccaJ4oak.s:783    .text.cau_enable_state_get:0000000000000004 .L0 
C:\Users\CYMR90~1\AppData\Local\Temp\ccaJ4oak.s:785    .text.cau_enable_state_get:0000000000000006 .L0 
C:\Users\CYMR90~1\AppData\Local\Temp\ccaJ4oak.s:787    .text.cau_enable_state_get:0000000000000006 .L0 
C:\Users\CYMR90~1\AppData\Local\Temp\ccaJ4oak.s:789    .text.cau_enable_state_get:000000000000000a .L0 
C:\Users\CYMR90~1\AppData\Local\Temp\ccaJ4oak.s:792    .text.cau_enable_state_get:0000000000000010 .L0 
C:\Users\CYMR90~1\AppData\Local\Temp\ccaJ4oak.s:795    .text.cau_enable_state_get:0000000000000014 .L0 
C:\Users\CYMR90~1\AppData\Local\Temp\ccaJ4oak.s:797    .text.cau_enable_state_get:0000000000000016 .L0 
C:\Users\CYMR90~1\AppData\Local\Temp\ccaJ4oak.s:801    .text.cau_enable_state_get:000000000000001c .L0 
C:\Users\CYMR90~1\AppData\Local\Temp\ccaJ4oak.s:803    .text.cau_enable_state_get:0000000000000020 .L0 
C:\Users\CYMR90~1\AppData\Local\Temp\ccaJ4oak.s:805    .text.cau_enable_state_get:0000000000000024 .L0 
C:\Users\CYMR90~1\AppData\Local\Temp\ccaJ4oak.s:806    .text.cau_enable_state_get:0000000000000024 .L0 
C:\Users\CYMR90~1\AppData\Local\Temp\ccaJ4oak.s:808    .text.cau_enable_state_get:0000000000000026 .L0 
C:\Users\CYMR90~1\AppData\Local\Temp\ccaJ4oak.s:810    .text.cau_enable_state_get:0000000000000028 .L0 
C:\Users\CYMR90~1\AppData\Local\Temp\ccaJ4oak.s:817    .text.cau_data_write:0000000000000000 cau_data_write
C:\Users\CYMR90~1\AppData\Local\Temp\ccaJ4oak.s:820    .text.cau_data_write:0000000000000000 .L0 
C:\Users\CYMR90~1\AppData\Local\Temp\ccaJ4oak.s:821    .text.cau_data_write:0000000000000000 .L0 
C:\Users\CYMR90~1\AppData\Local\Temp\ccaJ4oak.s:822    .text.cau_data_write:0000000000000002 .L0 
C:\Users\CYMR90~1\AppData\Local\Temp\ccaJ4oak.s:824    .text.cau_data_write:0000000000000004 .L0 
C:\Users\CYMR90~1\AppData\Local\Temp\ccaJ4oak.s:826    .text.cau_data_write:0000000000000006 .L0 
C:\Users\CYMR90~1\AppData\Local\Temp\ccaJ4oak.s:829    .text.cau_data_write:000000000000000a .L0 
C:\Users\CYMR90~1\AppData\Local\Temp\ccaJ4oak.s:832    .text.cau_data_write:0000000000000010 .L0 
C:\Users\CYMR90~1\AppData\Local\Temp\ccaJ4oak.s:835    .text.cau_data_write:0000000000000016 .L0 
C:\Users\CYMR90~1\AppData\Local\Temp\ccaJ4oak.s:837    .text.cau_data_write:000000000000001a .L0 
C:\Users\CYMR90~1\AppData\Local\Temp\ccaJ4oak.s:838    .text.cau_data_write:000000000000001a .L0 
C:\Users\CYMR90~1\AppData\Local\Temp\ccaJ4oak.s:840    .text.cau_data_write:000000000000001c .L0 
C:\Users\CYMR90~1\AppData\Local\Temp\ccaJ4oak.s:842    .text.cau_data_write:000000000000001e .L0 
C:\Users\CYMR90~1\AppData\Local\Temp\ccaJ4oak.s:849    .text.cau_data_read:0000000000000000 cau_data_read
C:\Users\CYMR90~1\AppData\Local\Temp\ccaJ4oak.s:852    .text.cau_data_read:0000000000000000 .L0 
C:\Users\CYMR90~1\AppData\Local\Temp\ccaJ4oak.s:853    .text.cau_data_read:0000000000000000 .L0 
C:\Users\CYMR90~1\AppData\Local\Temp\ccaJ4oak.s:854    .text.cau_data_read:0000000000000002 .L0 
C:\Users\CYMR90~1\AppData\Local\Temp\ccaJ4oak.s:856    .text.cau_data_read:0000000000000004 .L0 
C:\Users\CYMR90~1\AppData\Local\Temp\ccaJ4oak.s:858    .text.cau_data_read:0000000000000006 .L0 
C:\Users\CYMR90~1\AppData\Local\Temp\ccaJ4oak.s:860    .text.cau_data_read:0000000000000006 .L0 
C:\Users\CYMR90~1\AppData\Local\Temp\ccaJ4oak.s:864    .text.cau_data_read:000000000000000e .L0 
C:\Users\CYMR90~1\AppData\Local\Temp\ccaJ4oak.s:866    .text.cau_data_read:0000000000000012 .L0 
C:\Users\CYMR90~1\AppData\Local\Temp\ccaJ4oak.s:867    .text.cau_data_read:0000000000000012 .L0 
C:\Users\CYMR90~1\AppData\Local\Temp\ccaJ4oak.s:869    .text.cau_data_read:0000000000000014 .L0 
C:\Users\CYMR90~1\AppData\Local\Temp\ccaJ4oak.s:871    .text.cau_data_read:0000000000000016 .L0 
C:\Users\CYMR90~1\AppData\Local\Temp\ccaJ4oak.s:878    .text.cau_context_save:0000000000000000 cau_context_save
C:\Users\CYMR90~1\AppData\Local\Temp\ccaJ4oak.s:881    .text.cau_context_save:0000000000000000 .L0 
C:\Users\CYMR90~1\AppData\Local\Temp\ccaJ4oak.s:882    .text.cau_context_save:0000000000000000 .L0 
C:\Users\CYMR90~1\AppData\Local\Temp\ccaJ4oak.s:883    .text.cau_context_save:0000000000000002 .L0 
C:\Users\CYMR90~1\AppData\Local\Temp\ccaJ4oak.s:885    .text.cau_context_save:0000000000000004 .L0 
C:\Users\CYMR90~1\AppData\Local\Temp\ccaJ4oak.s:887    .text.cau_context_save:0000000000000006 .L0 
C:\Users\CYMR90~1\AppData\Local\Temp\ccaJ4oak.s:891    .text.cau_context_save:000000000000000e .L0 
C:\Users\CYMR90~1\AppData\Local\Temp\ccaJ4oak.s:893    .text.cau_context_save:0000000000000012 .L0 
C:\Users\CYMR90~1\AppData\Local\Temp\ccaJ4oak.s:895    .text.cau_context_save:0000000000000016 .L0 
C:\Users\CYMR90~1\AppData\Local\Temp\ccaJ4oak.s:897    .text.cau_context_save:000000000000001a .L0 
C:\Users\CYMR90~1\AppData\Local\Temp\ccaJ4oak.s:905    .text.cau_context_save:000000000000002c .L0 
C:\Users\CYMR90~1\AppData\Local\Temp\ccaJ4oak.s:908    .text.cau_context_save:0000000000000032 .L0 
C:\Users\CYMR90~1\AppData\Local\Temp\ccaJ4oak.s:913    .text.cau_context_save:0000000000000040 .L0 
C:\Users\CYMR90~1\AppData\Local\Temp\ccaJ4oak.s:916    .text.cau_context_save:0000000000000046 .L0 
C:\Users\CYMR90~1\AppData\Local\Temp\ccaJ4oak.s:918    .text.cau_context_save:0000000000000048 .L0 
C:\Users\CYMR90~1\AppData\Local\Temp\ccaJ4oak.s:921    .text.cau_context_save:000000000000004e .L0 
C:\Users\CYMR90~1\AppData\Local\Temp\ccaJ4oak.s:926    .text.cau_context_save:0000000000000056 .L0 
C:\Users\CYMR90~1\AppData\Local\Temp\ccaJ4oak.s:928    .text.cau_context_save:000000000000005a .L0 
C:\Users\CYMR90~1\AppData\Local\Temp\ccaJ4oak.s:932    .text.cau_context_save:0000000000000060 .L0 
C:\Users\CYMR90~1\AppData\Local\Temp\ccaJ4oak.s:935    .text.cau_context_save:0000000000000062 .L0 
C:\Users\CYMR90~1\AppData\Local\Temp\ccaJ4oak.s:939    .text.cau_context_save:000000000000006a .L0 
C:\Users\CYMR90~1\AppData\Local\Temp\ccaJ4oak.s:942    .text.cau_context_save:0000000000000070 .L0 
C:\Users\CYMR90~1\AppData\Local\Temp\ccaJ4oak.s:945    .text.cau_context_save:0000000000000078 .L0 
C:\Users\CYMR90~1\AppData\Local\Temp\ccaJ4oak.s:953    .text.cau_context_save:000000000000008a .L0 
C:\Users\CYMR90~1\AppData\Local\Temp\ccaJ4oak.s:961    .text.cau_context_save:000000000000009c .L0 
C:\Users\CYMR90~1\AppData\Local\Temp\ccaJ4oak.s:964    .text.cau_context_save:00000000000000a2 .L0 
C:\Users\CYMR90~1\AppData\Local\Temp\ccaJ4oak.s:968    .text.cau_context_save:00000000000000ac .L0 
C:\Users\CYMR90~1\AppData\Local\Temp\ccaJ4oak.s:971    .text.cau_context_save:00000000000000b2 .L0 
C:\Users\CYMR90~1\AppData\Local\Temp\ccaJ4oak.s:974    .text.cau_context_save:00000000000000b8 .L0 
C:\Users\CYMR90~1\AppData\Local\Temp\ccaJ4oak.s:977    .text.cau_context_save:00000000000000be .L0 
C:\Users\CYMR90~1\AppData\Local\Temp\ccaJ4oak.s:980    .text.cau_context_save:00000000000000c4 .L0 
C:\Users\CYMR90~1\AppData\Local\Temp\ccaJ4oak.s:983    .text.cau_context_save:00000000000000ca .L0 
C:\Users\CYMR90~1\AppData\Local\Temp\ccaJ4oak.s:986    .text.cau_context_save:00000000000000d0 .L0 
C:\Users\CYMR90~1\AppData\Local\Temp\ccaJ4oak.s:989    .text.cau_context_save:00000000000000d6 .L0 
C:\Users\CYMR90~1\AppData\Local\Temp\ccaJ4oak.s:992    .text.cau_context_save:00000000000000dc .L0 
C:\Users\CYMR90~1\AppData\Local\Temp\ccaJ4oak.s:995    .text.cau_context_save:00000000000000e2 .L0 
C:\Users\CYMR90~1\AppData\Local\Temp\ccaJ4oak.s:998    .text.cau_context_save:00000000000000e8 .L0 
C:\Users\CYMR90~1\AppData\Local\Temp\ccaJ4oak.s:1001   .text.cau_context_save:00000000000000ee .L0 
C:\Users\CYMR90~1\AppData\Local\Temp\ccaJ4oak.s:1004   .text.cau_context_save:00000000000000f4 .L0 
C:\Users\CYMR90~1\AppData\Local\Temp\ccaJ4oak.s:1007   .text.cau_context_save:00000000000000fa .L0 
C:\Users\CYMR90~1\AppData\Local\Temp\ccaJ4oak.s:1010   .text.cau_context_save:0000000000000100 .L0 
C:\Users\CYMR90~1\AppData\Local\Temp\ccaJ4oak.s:1013   .text.cau_context_save:0000000000000106 .L0 
C:\Users\CYMR90~1\AppData\Local\Temp\ccaJ4oak.s:1016   .text.cau_context_save:000000000000010c .L0 
C:\Users\CYMR90~1\AppData\Local\Temp\ccaJ4oak.s:1019   .text.cau_context_save:0000000000000112 .L0 
C:\Users\CYMR90~1\AppData\Local\Temp\ccaJ4oak.s:1022   .text.cau_context_save:0000000000000118 .L0 
C:\Users\CYMR90~1\AppData\Local\Temp\ccaJ4oak.s:1026   .text.cau_context_save:0000000000000122 .L0 
C:\Users\CYMR90~1\AppData\Local\Temp\ccaJ4oak.s:1030   .text.cau_context_save:000000000000012e .L0 
C:\Users\CYMR90~1\AppData\Local\Temp\ccaJ4oak.s:1034   .text.cau_context_save:0000000000000138 .L0 
C:\Users\CYMR90~1\AppData\Local\Temp\ccaJ4oak.s:1037   .text.cau_context_save:000000000000013e .L0 
C:\Users\CYMR90~1\AppData\Local\Temp\ccaJ4oak.s:1041   .text.cau_context_save:0000000000000148 .L0 
C:\Users\CYMR90~1\AppData\Local\Temp\ccaJ4oak.s:1044   .text.cau_context_save:000000000000014e .L0 
C:\Users\CYMR90~1\AppData\Local\Temp\ccaJ4oak.s:1048   .text.cau_context_save:0000000000000158 .L0 
C:\Users\CYMR90~1\AppData\Local\Temp\ccaJ4oak.s:1051   .text.cau_context_save:000000000000015e .L0 
C:\Users\CYMR90~1\AppData\Local\Temp\ccaJ4oak.s:1055   .text.cau_context_save:0000000000000168 .L0 
C:\Users\CYMR90~1\AppData\Local\Temp\ccaJ4oak.s:1059   .text.cau_context_save:000000000000016e .L0 
C:\Users\CYMR90~1\AppData\Local\Temp\ccaJ4oak.s:1063   .text.cau_context_save:000000000000017a .L0 
C:\Users\CYMR90~1\AppData\Local\Temp\ccaJ4oak.s:1069   .text.cau_context_save:0000000000000188 .L0 
C:\Users\CYMR90~1\AppData\Local\Temp\ccaJ4oak.s:1073   .text.cau_context_save:0000000000000192 .L0 
C:\Users\CYMR90~1\AppData\Local\Temp\ccaJ4oak.s:1076   .text.cau_context_save:0000000000000198 .L0 
C:\Users\CYMR90~1\AppData\Local\Temp\ccaJ4oak.s:1080   .text.cau_context_save:00000000000001a2 .L0 
C:\Users\CYMR90~1\AppData\Local\Temp\ccaJ4oak.s:1083   .text.cau_context_save:00000000000001a8 .L0 
C:\Users\CYMR90~1\AppData\Local\Temp\ccaJ4oak.s:1087   .text.cau_context_save:00000000000001b2 .L0 
C:\Users\CYMR90~1\AppData\Local\Temp\ccaJ4oak.s:1090   .text.cau_context_save:00000000000001b8 .L0 
C:\Users\CYMR90~1\AppData\Local\Temp\ccaJ4oak.s:1094   .text.cau_context_save:00000000000001c2 .L0 
C:\Users\CYMR90~1\AppData\Local\Temp\ccaJ4oak.s:1097   .text.cau_context_save:00000000000001c8 .L0 
C:\Users\CYMR90~1\AppData\Local\Temp\ccaJ4oak.s:1101   .text.cau_context_save:00000000000001d2 .L0 
C:\Users\CYMR90~1\AppData\Local\Temp\ccaJ4oak.s:1104   .text.cau_context_save:00000000000001d8 .L0 
C:\Users\CYMR90~1\AppData\Local\Temp\ccaJ4oak.s:1108   .text.cau_context_save:00000000000001e2 .L0 
C:\Users\CYMR90~1\AppData\Local\Temp\ccaJ4oak.s:1111   .text.cau_context_save:00000000000001e8 .L0 
C:\Users\CYMR90~1\AppData\Local\Temp\ccaJ4oak.s:1115   .text.cau_context_save:00000000000001f2 .L0 
C:\Users\CYMR90~1\AppData\Local\Temp\ccaJ4oak.s:1118   .text.cau_context_save:00000000000001f8 .L0 
C:\Users\CYMR90~1\AppData\Local\Temp\ccaJ4oak.s:1122   .text.cau_context_save:0000000000000202 .L0 
C:\Users\CYMR90~1\AppData\Local\Temp\ccaJ4oak.s:1126   .text.cau_context_save:0000000000000208 .L0 
C:\Users\CYMR90~1\AppData\Local\Temp\ccaJ4oak.s:1130   .text.cau_context_save:0000000000000214 .L0 
C:\Users\CYMR90~1\AppData\Local\Temp\ccaJ4oak.s:1134   .text.cau_context_save:000000000000021e .L0 
C:\Users\CYMR90~1\AppData\Local\Temp\ccaJ4oak.s:1137   .text.cau_context_save:0000000000000224 .L0 
C:\Users\CYMR90~1\AppData\Local\Temp\ccaJ4oak.s:1141   .text.cau_context_save:000000000000022e .L0 
C:\Users\CYMR90~1\AppData\Local\Temp\ccaJ4oak.s:1144   .text.cau_context_save:0000000000000234 .L0 
C:\Users\CYMR90~1\AppData\Local\Temp\ccaJ4oak.s:1148   .text.cau_context_save:000000000000023e .L0 
C:\Users\CYMR90~1\AppData\Local\Temp\ccaJ4oak.s:1151   .text.cau_context_save:0000000000000244 .L0 
C:\Users\CYMR90~1\AppData\Local\Temp\ccaJ4oak.s:1155   .text.cau_context_save:000000000000024e .L0 
C:\Users\CYMR90~1\AppData\Local\Temp\ccaJ4oak.s:1158   .text.cau_context_save:0000000000000254 .L0 
C:\Users\CYMR90~1\AppData\Local\Temp\ccaJ4oak.s:1162   .text.cau_context_save:000000000000025e .L0 
C:\Users\CYMR90~1\AppData\Local\Temp\ccaJ4oak.s:1165   .text.cau_context_save:0000000000000264 .L0 
C:\Users\CYMR90~1\AppData\Local\Temp\ccaJ4oak.s:1169   .text.cau_context_save:000000000000026e .L0 
C:\Users\CYMR90~1\AppData\Local\Temp\ccaJ4oak.s:1172   .text.cau_context_save:0000000000000274 .L0 
C:\Users\CYMR90~1\AppData\Local\Temp\ccaJ4oak.s:1176   .text.cau_context_save:000000000000027e .L0 
C:\Users\CYMR90~1\AppData\Local\Temp\ccaJ4oak.s:1179   .text.cau_context_save:0000000000000284 .L0 
C:\Users\CYMR90~1\AppData\Local\Temp\ccaJ4oak.s:1183   .text.cau_context_save:000000000000028e .L0 
C:\Users\CYMR90~1\AppData\Local\Temp\ccaJ4oak.s:1187   .text.cau_context_save:0000000000000294 .L0 
C:\Users\CYMR90~1\AppData\Local\Temp\ccaJ4oak.s:1189   .text.cau_context_save:0000000000000298 .L0 
C:\Users\CYMR90~1\AppData\Local\Temp\ccaJ4oak.s:1190   .text.cau_context_save:0000000000000298 .L0 
C:\Users\CYMR90~1\AppData\Local\Temp\ccaJ4oak.s:1192   .text.cau_context_save:000000000000029a .L0 
C:\Users\CYMR90~1\AppData\Local\Temp\ccaJ4oak.s:1194   .text.cau_context_save:000000000000029c .L0 
C:\Users\CYMR90~1\AppData\Local\Temp\ccaJ4oak.s:1201   .text.cau_context_restore:0000000000000000 cau_context_restore
C:\Users\CYMR90~1\AppData\Local\Temp\ccaJ4oak.s:1204   .text.cau_context_restore:0000000000000000 .L0 
C:\Users\CYMR90~1\AppData\Local\Temp\ccaJ4oak.s:1205   .text.cau_context_restore:0000000000000000 .L0 
C:\Users\CYMR90~1\AppData\Local\Temp\ccaJ4oak.s:1206   .text.cau_context_restore:0000000000000002 .L0 
C:\Users\CYMR90~1\AppData\Local\Temp\ccaJ4oak.s:1209   .text.cau_context_restore:0000000000000006 .L0 
C:\Users\CYMR90~1\AppData\Local\Temp\ccaJ4oak.s:1210   .text.cau_context_restore:0000000000000006 .L0 
C:\Users\CYMR90~1\AppData\Local\Temp\ccaJ4oak.s:1212   .text.cau_context_restore:0000000000000008 .L0 
C:\Users\CYMR90~1\AppData\Local\Temp\ccaJ4oak.s:1215   .text.cau_context_restore:000000000000000c .L0 
C:\Users\CYMR90~1\AppData\Local\Temp\ccaJ4oak.s:1217   .text.cau_context_restore:0000000000000010 .L0 
C:\Users\CYMR90~1\AppData\Local\Temp\ccaJ4oak.s:1220   .text.cau_context_restore:0000000000000016 .L0 
C:\Users\CYMR90~1\AppData\Local\Temp\ccaJ4oak.s:1222   .text.cau_context_restore:0000000000000018 .L0 
C:\Users\CYMR90~1\AppData\Local\Temp\ccaJ4oak.s:1225   .text.cau_context_restore:000000000000001e .L0 
C:\Users\CYMR90~1\AppData\Local\Temp\ccaJ4oak.s:1230   .text.cau_context_restore:000000000000002c .L0 
C:\Users\CYMR90~1\AppData\Local\Temp\ccaJ4oak.s:1233   .text.cau_context_restore:0000000000000034 .L0 
C:\Users\CYMR90~1\AppData\Local\Temp\ccaJ4oak.s:1236   .text.cau_context_restore:000000000000003a .L0 
C:\Users\CYMR90~1\AppData\Local\Temp\ccaJ4oak.s:1238   .text.cau_context_restore:000000000000003c .L0 
C:\Users\CYMR90~1\AppData\Local\Temp\ccaJ4oak.s:1241   .text.cau_context_restore:0000000000000044 .L0 
C:\Users\CYMR90~1\AppData\Local\Temp\ccaJ4oak.s:1244   .text.cau_context_restore:000000000000004a .L0 
C:\Users\CYMR90~1\AppData\Local\Temp\ccaJ4oak.s:1246   .text.cau_context_restore:000000000000004c .L0 
C:\Users\CYMR90~1\AppData\Local\Temp\ccaJ4oak.s:1249   .text.cau_context_restore:0000000000000054 .L0 
C:\Users\CYMR90~1\AppData\Local\Temp\ccaJ4oak.s:1252   .text.cau_context_restore:000000000000005a .L0 
C:\Users\CYMR90~1\AppData\Local\Temp\ccaJ4oak.s:1254   .text.cau_context_restore:000000000000005c .L0 
C:\Users\CYMR90~1\AppData\Local\Temp\ccaJ4oak.s:1257   .text.cau_context_restore:0000000000000064 .L0 
C:\Users\CYMR90~1\AppData\Local\Temp\ccaJ4oak.s:1260   .text.cau_context_restore:000000000000006a .L0 
C:\Users\CYMR90~1\AppData\Local\Temp\ccaJ4oak.s:1262   .text.cau_context_restore:000000000000006c .L0 
C:\Users\CYMR90~1\AppData\Local\Temp\ccaJ4oak.s:1265   .text.cau_context_restore:0000000000000074 .L0 
C:\Users\CYMR90~1\AppData\Local\Temp\ccaJ4oak.s:1268   .text.cau_context_restore:000000000000007a .L0 
C:\Users\CYMR90~1\AppData\Local\Temp\ccaJ4oak.s:1270   .text.cau_context_restore:000000000000007c .L0 
C:\Users\CYMR90~1\AppData\Local\Temp\ccaJ4oak.s:1273   .text.cau_context_restore:0000000000000084 .L0 
C:\Users\CYMR90~1\AppData\Local\Temp\ccaJ4oak.s:1276   .text.cau_context_restore:000000000000008a .L0 
C:\Users\CYMR90~1\AppData\Local\Temp\ccaJ4oak.s:1278   .text.cau_context_restore:000000000000008c .L0 
C:\Users\CYMR90~1\AppData\Local\Temp\ccaJ4oak.s:1281   .text.cau_context_restore:0000000000000094 .L0 
C:\Users\CYMR90~1\AppData\Local\Temp\ccaJ4oak.s:1284   .text.cau_context_restore:000000000000009a .L0 
C:\Users\CYMR90~1\AppData\Local\Temp\ccaJ4oak.s:1286   .text.cau_context_restore:000000000000009c .L0 
C:\Users\CYMR90~1\AppData\Local\Temp\ccaJ4oak.s:1289   .text.cau_context_restore:00000000000000a4 .L0 
C:\Users\CYMR90~1\AppData\Local\Temp\ccaJ4oak.s:1292   .text.cau_context_restore:00000000000000aa .L0 
C:\Users\CYMR90~1\AppData\Local\Temp\ccaJ4oak.s:1294   .text.cau_context_restore:00000000000000ac .L0 
C:\Users\CYMR90~1\AppData\Local\Temp\ccaJ4oak.s:1297   .text.cau_context_restore:00000000000000b2 .L0 
C:\Users\CYMR90~1\AppData\Local\Temp\ccaJ4oak.s:1301   .text.cau_context_restore:00000000000000bc .L0 
C:\Users\CYMR90~1\AppData\Local\Temp\ccaJ4oak.s:1305   .text.cau_context_restore:00000000000000c8 .L0 
C:\Users\CYMR90~1\AppData\Local\Temp\ccaJ4oak.s:1308   .text.cau_context_restore:00000000000000d0 .L0 
C:\Users\CYMR90~1\AppData\Local\Temp\ccaJ4oak.s:1311   .text.cau_context_restore:00000000000000d6 .L0 
C:\Users\CYMR90~1\AppData\Local\Temp\ccaJ4oak.s:1313   .text.cau_context_restore:00000000000000d8 .L0 
C:\Users\CYMR90~1\AppData\Local\Temp\ccaJ4oak.s:1316   .text.cau_context_restore:00000000000000e0 .L0 
C:\Users\CYMR90~1\AppData\Local\Temp\ccaJ4oak.s:1319   .text.cau_context_restore:00000000000000e6 .L0 
C:\Users\CYMR90~1\AppData\Local\Temp\ccaJ4oak.s:1321   .text.cau_context_restore:00000000000000e8 .L0 
C:\Users\CYMR90~1\AppData\Local\Temp\ccaJ4oak.s:1324   .text.cau_context_restore:00000000000000f0 .L0 
C:\Users\CYMR90~1\AppData\Local\Temp\ccaJ4oak.s:1327   .text.cau_context_restore:00000000000000f6 .L0 
C:\Users\CYMR90~1\AppData\Local\Temp\ccaJ4oak.s:1329   .text.cau_context_restore:00000000000000f8 .L0 
C:\Users\CYMR90~1\AppData\Local\Temp\ccaJ4oak.s:1332   .text.cau_context_restore:0000000000000100 .L0 
C:\Users\CYMR90~1\AppData\Local\Temp\ccaJ4oak.s:1335   .text.cau_context_restore:0000000000000106 .L0 
C:\Users\CYMR90~1\AppData\Local\Temp\ccaJ4oak.s:1338   .text.cau_context_restore:0000000000000108 .L0 
C:\Users\CYMR90~1\AppData\Local\Temp\ccaJ4oak.s:1342   .text.cau_context_restore:0000000000000114 .L0 
C:\Users\CYMR90~1\AppData\Local\Temp\ccaJ4oak.s:1348   .text.cau_context_restore:0000000000000122 .L0 
C:\Users\CYMR90~1\AppData\Local\Temp\ccaJ4oak.s:1351   .text.cau_context_restore:000000000000012a .L0 
C:\Users\CYMR90~1\AppData\Local\Temp\ccaJ4oak.s:1354   .text.cau_context_restore:0000000000000130 .L0 
C:\Users\CYMR90~1\AppData\Local\Temp\ccaJ4oak.s:1356   .text.cau_context_restore:0000000000000132 .L0 
C:\Users\CYMR90~1\AppData\Local\Temp\ccaJ4oak.s:1359   .text.cau_context_restore:000000000000013a .L0 
C:\Users\CYMR90~1\AppData\Local\Temp\ccaJ4oak.s:1362   .text.cau_context_restore:0000000000000140 .L0 
C:\Users\CYMR90~1\AppData\Local\Temp\ccaJ4oak.s:1364   .text.cau_context_restore:0000000000000142 .L0 
C:\Users\CYMR90~1\AppData\Local\Temp\ccaJ4oak.s:1367   .text.cau_context_restore:000000000000014a .L0 
C:\Users\CYMR90~1\AppData\Local\Temp\ccaJ4oak.s:1370   .text.cau_context_restore:0000000000000150 .L0 
C:\Users\CYMR90~1\AppData\Local\Temp\ccaJ4oak.s:1372   .text.cau_context_restore:0000000000000152 .L0 
C:\Users\CYMR90~1\AppData\Local\Temp\ccaJ4oak.s:1375   .text.cau_context_restore:000000000000015a .L0 
C:\Users\CYMR90~1\AppData\Local\Temp\ccaJ4oak.s:1378   .text.cau_context_restore:0000000000000160 .L0 
C:\Users\CYMR90~1\AppData\Local\Temp\ccaJ4oak.s:1380   .text.cau_context_restore:0000000000000162 .L0 
C:\Users\CYMR90~1\AppData\Local\Temp\ccaJ4oak.s:1383   .text.cau_context_restore:000000000000016a .L0 
C:\Users\CYMR90~1\AppData\Local\Temp\ccaJ4oak.s:1386   .text.cau_context_restore:0000000000000170 .L0 
C:\Users\CYMR90~1\AppData\Local\Temp\ccaJ4oak.s:1388   .text.cau_context_restore:0000000000000172 .L0 
C:\Users\CYMR90~1\AppData\Local\Temp\ccaJ4oak.s:1391   .text.cau_context_restore:000000000000017a .L0 
C:\Users\CYMR90~1\AppData\Local\Temp\ccaJ4oak.s:1394   .text.cau_context_restore:0000000000000180 .L0 
C:\Users\CYMR90~1\AppData\Local\Temp\ccaJ4oak.s:1396   .text.cau_context_restore:0000000000000182 .L0 
C:\Users\CYMR90~1\AppData\Local\Temp\ccaJ4oak.s:1399   .text.cau_context_restore:000000000000018a .L0 
C:\Users\CYMR90~1\AppData\Local\Temp\ccaJ4oak.s:1402   .text.cau_context_restore:0000000000000190 .L0 
C:\Users\CYMR90~1\AppData\Local\Temp\ccaJ4oak.s:1404   .text.cau_context_restore:0000000000000192 .L0 
C:\Users\CYMR90~1\AppData\Local\Temp\ccaJ4oak.s:1407   .text.cau_context_restore:000000000000019a .L0 
C:\Users\CYMR90~1\AppData\Local\Temp\ccaJ4oak.s:1410   .text.cau_context_restore:00000000000001a0 .L0 
C:\Users\CYMR90~1\AppData\Local\Temp\ccaJ4oak.s:1413   .text.cau_context_restore:00000000000001a2 .L0 
C:\Users\CYMR90~1\AppData\Local\Temp\ccaJ4oak.s:1417   .text.cau_context_restore:00000000000001ae .L0 
C:\Users\CYMR90~1\AppData\Local\Temp\ccaJ4oak.s:1420   .text.cau_context_restore:00000000000001b6 .L0 
C:\Users\CYMR90~1\AppData\Local\Temp\ccaJ4oak.s:1423   .text.cau_context_restore:00000000000001bc .L0 
C:\Users\CYMR90~1\AppData\Local\Temp\ccaJ4oak.s:1425   .text.cau_context_restore:00000000000001be .L0 
C:\Users\CYMR90~1\AppData\Local\Temp\ccaJ4oak.s:1428   .text.cau_context_restore:00000000000001c6 .L0 
C:\Users\CYMR90~1\AppData\Local\Temp\ccaJ4oak.s:1431   .text.cau_context_restore:00000000000001cc .L0 
C:\Users\CYMR90~1\AppData\Local\Temp\ccaJ4oak.s:1433   .text.cau_context_restore:00000000000001ce .L0 
C:\Users\CYMR90~1\AppData\Local\Temp\ccaJ4oak.s:1436   .text.cau_context_restore:00000000000001d6 .L0 
C:\Users\CYMR90~1\AppData\Local\Temp\ccaJ4oak.s:1439   .text.cau_context_restore:00000000000001dc .L0 
C:\Users\CYMR90~1\AppData\Local\Temp\ccaJ4oak.s:1441   .text.cau_context_restore:00000000000001de .L0 
C:\Users\CYMR90~1\AppData\Local\Temp\ccaJ4oak.s:1444   .text.cau_context_restore:00000000000001e6 .L0 
C:\Users\CYMR90~1\AppData\Local\Temp\ccaJ4oak.s:1447   .text.cau_context_restore:00000000000001ec .L0 
C:\Users\CYMR90~1\AppData\Local\Temp\ccaJ4oak.s:1449   .text.cau_context_restore:00000000000001ee .L0 
C:\Users\CYMR90~1\AppData\Local\Temp\ccaJ4oak.s:1452   .text.cau_context_restore:00000000000001f6 .L0 
C:\Users\CYMR90~1\AppData\Local\Temp\ccaJ4oak.s:1455   .text.cau_context_restore:00000000000001fc .L0 
C:\Users\CYMR90~1\AppData\Local\Temp\ccaJ4oak.s:1457   .text.cau_context_restore:00000000000001fe .L0 
C:\Users\CYMR90~1\AppData\Local\Temp\ccaJ4oak.s:1460   .text.cau_context_restore:0000000000000206 .L0 
C:\Users\CYMR90~1\AppData\Local\Temp\ccaJ4oak.s:1463   .text.cau_context_restore:000000000000020c .L0 
C:\Users\CYMR90~1\AppData\Local\Temp\ccaJ4oak.s:1465   .text.cau_context_restore:000000000000020e .L0 
C:\Users\CYMR90~1\AppData\Local\Temp\ccaJ4oak.s:1468   .text.cau_context_restore:0000000000000216 .L0 
C:\Users\CYMR90~1\AppData\Local\Temp\ccaJ4oak.s:1471   .text.cau_context_restore:000000000000021c .L0 
C:\Users\CYMR90~1\AppData\Local\Temp\ccaJ4oak.s:1473   .text.cau_context_restore:000000000000021e .L0 
C:\Users\CYMR90~1\AppData\Local\Temp\ccaJ4oak.s:1476   .text.cau_context_restore:0000000000000226 .L0 
C:\Users\CYMR90~1\AppData\Local\Temp\ccaJ4oak.s:1479   .text.cau_context_restore:000000000000022c .L0 
C:\Users\CYMR90~1\AppData\Local\Temp\ccaJ4oak.s:1482   .text.cau_context_restore:000000000000022e .L0 
C:\Users\CYMR90~1\AppData\Local\Temp\ccaJ4oak.s:1485   .text.cau_context_restore:0000000000000234 .L0 
C:\Users\CYMR90~1\AppData\Local\Temp\ccaJ4oak.s:1490   .text.cau_context_restore:0000000000000242 .L0 
C:\Users\CYMR90~1\AppData\Local\Temp\ccaJ4oak.s:1494   .text.cau_context_restore:000000000000024e .L0 
C:\Users\CYMR90~1\AppData\Local\Temp\ccaJ4oak.s:1500   .text.cau_context_restore:000000000000025a .L0 
C:\Users\CYMR90~1\AppData\Local\Temp\ccaJ4oak.s:1502   .text.cau_context_restore:0000000000000262 .L0 
C:\Users\CYMR90~1\AppData\Local\Temp\ccaJ4oak.s:1505   .text.cau_context_restore:0000000000000268 .L0 
C:\Users\CYMR90~1\AppData\Local\Temp\ccaJ4oak.s:1508   .text.cau_context_restore:0000000000000270 .L0 
C:\Users\CYMR90~1\AppData\Local\Temp\ccaJ4oak.s:1510   .text.cau_context_restore:0000000000000274 .L0 
C:\Users\CYMR90~1\AppData\Local\Temp\ccaJ4oak.s:1515   .text.cau_context_restore:0000000000000288 .L0 
C:\Users\CYMR90~1\AppData\Local\Temp\ccaJ4oak.s:1517   .text.cau_context_restore:0000000000000290 .L0 
C:\Users\CYMR90~1\AppData\Local\Temp\ccaJ4oak.s:1520   .text.cau_context_restore:0000000000000292 .L0 
C:\Users\CYMR90~1\AppData\Local\Temp\ccaJ4oak.s:1553   .text.cau_flag_get:0000000000000000 cau_flag_get
C:\Users\CYMR90~1\AppData\Local\Temp\ccaJ4oak.s:1524   .text.cau_context_restore:000000000000029e .L0 
C:\Users\CYMR90~1\AppData\Local\Temp\ccaJ4oak.s:1526   .text.cau_context_restore:00000000000002a0 .L0 
C:\Users\CYMR90~1\AppData\Local\Temp\ccaJ4oak.s:1528   .text.cau_context_restore:00000000000002a4 .L0 
C:\Users\CYMR90~1\AppData\Local\Temp\ccaJ4oak.s:1531   .text.cau_context_restore:00000000000002aa .L0 
C:\Users\CYMR90~1\AppData\Local\Temp\ccaJ4oak.s:1535   .text.cau_context_restore:00000000000002ac .L0 
C:\Users\CYMR90~1\AppData\Local\Temp\ccaJ4oak.s:1537   .text.cau_context_restore:00000000000002b4 .L0 
C:\Users\CYMR90~1\AppData\Local\Temp\ccaJ4oak.s:1539   .text.cau_context_restore:00000000000002b8 .L0 
C:\Users\CYMR90~1\AppData\Local\Temp\ccaJ4oak.s:1541   .text.cau_context_restore:00000000000002ba .L0 
C:\Users\CYMR90~1\AppData\Local\Temp\ccaJ4oak.s:1542   .text.cau_context_restore:00000000000002ba .L0 
C:\Users\CYMR90~1\AppData\Local\Temp\ccaJ4oak.s:1544   .text.cau_context_restore:00000000000002bc .L0 
C:\Users\CYMR90~1\AppData\Local\Temp\ccaJ4oak.s:1546   .text.cau_context_restore:00000000000002be .L0 
C:\Users\CYMR90~1\AppData\Local\Temp\ccaJ4oak.s:1556   .text.cau_flag_get:0000000000000000 .L0 
C:\Users\CYMR90~1\AppData\Local\Temp\ccaJ4oak.s:1557   .text.cau_flag_get:0000000000000000 .L0 
C:\Users\CYMR90~1\AppData\Local\Temp\ccaJ4oak.s:1558   .text.cau_flag_get:0000000000000002 .L0 
C:\Users\CYMR90~1\AppData\Local\Temp\ccaJ4oak.s:1560   .text.cau_flag_get:0000000000000004 .L0 
C:\Users\CYMR90~1\AppData\Local\Temp\ccaJ4oak.s:1562   .text.cau_flag_get:0000000000000006 .L0 
C:\Users\CYMR90~1\AppData\Local\Temp\ccaJ4oak.s:1565   .text.cau_flag_get:000000000000000a .L0 
C:\Users\CYMR90~1\AppData\Local\Temp\ccaJ4oak.s:1567   .text.cau_flag_get:000000000000000e .L0 
C:\Users\CYMR90~1\AppData\Local\Temp\ccaJ4oak.s:1569   .text.cau_flag_get:0000000000000012 .L0 
C:\Users\CYMR90~1\AppData\Local\Temp\ccaJ4oak.s:1572   .text.cau_flag_get:000000000000001a .L0 
C:\Users\CYMR90~1\AppData\Local\Temp\ccaJ4oak.s:1575   .text.cau_flag_get:0000000000000020 .L0 
C:\Users\CYMR90~1\AppData\Local\Temp\ccaJ4oak.s:1578   .text.cau_flag_get:0000000000000026 .L0 
C:\Users\CYMR90~1\AppData\Local\Temp\ccaJ4oak.s:1583   .text.cau_flag_get:000000000000002e .L0 
C:\Users\CYMR90~1\AppData\Local\Temp\ccaJ4oak.s:1586   .text.cau_flag_get:0000000000000034 .L0 
C:\Users\CYMR90~1\AppData\Local\Temp\ccaJ4oak.s:1590   .text.cau_flag_get:000000000000003a .L0 
C:\Users\CYMR90~1\AppData\Local\Temp\ccaJ4oak.s:1594   .text.cau_flag_get:0000000000000044 .L0 
C:\Users\CYMR90~1\AppData\Local\Temp\ccaJ4oak.s:1596   .text.cau_flag_get:0000000000000046 .L0 
C:\Users\CYMR90~1\AppData\Local\Temp\ccaJ4oak.s:1600   .text.cau_flag_get:000000000000004c .L0 
C:\Users\CYMR90~1\AppData\Local\Temp\ccaJ4oak.s:1602   .text.cau_flag_get:0000000000000050 .L0 
C:\Users\CYMR90~1\AppData\Local\Temp\ccaJ4oak.s:1604   .text.cau_flag_get:0000000000000054 .L0 
C:\Users\CYMR90~1\AppData\Local\Temp\ccaJ4oak.s:1605   .text.cau_flag_get:0000000000000054 .L0 
C:\Users\CYMR90~1\AppData\Local\Temp\ccaJ4oak.s:1607   .text.cau_flag_get:0000000000000056 .L0 
C:\Users\CYMR90~1\AppData\Local\Temp\ccaJ4oak.s:1609   .text.cau_flag_get:0000000000000058 .L0 
C:\Users\CYMR90~1\AppData\Local\Temp\ccaJ4oak.s:1616   .text.cau_interrupt_enable:0000000000000000 cau_interrupt_enable
C:\Users\CYMR90~1\AppData\Local\Temp\ccaJ4oak.s:1619   .text.cau_interrupt_enable:0000000000000000 .L0 
C:\Users\CYMR90~1\AppData\Local\Temp\ccaJ4oak.s:1620   .text.cau_interrupt_enable:0000000000000000 .L0 
C:\Users\CYMR90~1\AppData\Local\Temp\ccaJ4oak.s:1621   .text.cau_interrupt_enable:0000000000000002 .L0 
C:\Users\CYMR90~1\AppData\Local\Temp\ccaJ4oak.s:1623   .text.cau_interrupt_enable:0000000000000004 .L0 
C:\Users\CYMR90~1\AppData\Local\Temp\ccaJ4oak.s:1625   .text.cau_interrupt_enable:0000000000000006 .L0 
C:\Users\CYMR90~1\AppData\Local\Temp\ccaJ4oak.s:1628   .text.cau_interrupt_enable:000000000000000a .L0 
C:\Users\CYMR90~1\AppData\Local\Temp\ccaJ4oak.s:1637   .text.cau_interrupt_enable:0000000000000020 .L0 
C:\Users\CYMR90~1\AppData\Local\Temp\ccaJ4oak.s:1639   .text.cau_interrupt_enable:0000000000000024 .L0 
C:\Users\CYMR90~1\AppData\Local\Temp\ccaJ4oak.s:1640   .text.cau_interrupt_enable:0000000000000024 .L0 
C:\Users\CYMR90~1\AppData\Local\Temp\ccaJ4oak.s:1642   .text.cau_interrupt_enable:0000000000000026 .L0 
C:\Users\CYMR90~1\AppData\Local\Temp\ccaJ4oak.s:1644   .text.cau_interrupt_enable:0000000000000028 .L0 
C:\Users\CYMR90~1\AppData\Local\Temp\ccaJ4oak.s:1651   .text.cau_interrupt_disable:0000000000000000 cau_interrupt_disable
C:\Users\CYMR90~1\AppData\Local\Temp\ccaJ4oak.s:1654   .text.cau_interrupt_disable:0000000000000000 .L0 
C:\Users\CYMR90~1\AppData\Local\Temp\ccaJ4oak.s:1655   .text.cau_interrupt_disable:0000000000000000 .L0 
C:\Users\CYMR90~1\AppData\Local\Temp\ccaJ4oak.s:1656   .text.cau_interrupt_disable:0000000000000002 .L0 
C:\Users\CYMR90~1\AppData\Local\Temp\ccaJ4oak.s:1658   .text.cau_interrupt_disable:0000000000000004 .L0 
C:\Users\CYMR90~1\AppData\Local\Temp\ccaJ4oak.s:1660   .text.cau_interrupt_disable:0000000000000006 .L0 
C:\Users\CYMR90~1\AppData\Local\Temp\ccaJ4oak.s:1663   .text.cau_interrupt_disable:000000000000000a .L0 
C:\Users\CYMR90~1\AppData\Local\Temp\ccaJ4oak.s:1667   .text.cau_interrupt_disable:0000000000000012 .L0 
C:\Users\CYMR90~1\AppData\Local\Temp\ccaJ4oak.s:1670   .text.cau_interrupt_disable:000000000000001a .L0 
C:\Users\CYMR90~1\AppData\Local\Temp\ccaJ4oak.s:1675   .text.cau_interrupt_disable:0000000000000024 .L0 
C:\Users\CYMR90~1\AppData\Local\Temp\ccaJ4oak.s:1677   .text.cau_interrupt_disable:0000000000000028 .L0 
C:\Users\CYMR90~1\AppData\Local\Temp\ccaJ4oak.s:1678   .text.cau_interrupt_disable:0000000000000028 .L0 
C:\Users\CYMR90~1\AppData\Local\Temp\ccaJ4oak.s:1680   .text.cau_interrupt_disable:000000000000002a .L0 
C:\Users\CYMR90~1\AppData\Local\Temp\ccaJ4oak.s:1682   .text.cau_interrupt_disable:000000000000002c .L0 
C:\Users\CYMR90~1\AppData\Local\Temp\ccaJ4oak.s:1689   .text.cau_interrupt_flag_get:0000000000000000 cau_interrupt_flag_get
C:\Users\CYMR90~1\AppData\Local\Temp\ccaJ4oak.s:1692   .text.cau_interrupt_flag_get:0000000000000000 .L0 
C:\Users\CYMR90~1\AppData\Local\Temp\ccaJ4oak.s:1693   .text.cau_interrupt_flag_get:0000000000000000 .L0 
C:\Users\CYMR90~1\AppData\Local\Temp\ccaJ4oak.s:1694   .text.cau_interrupt_flag_get:0000000000000002 .L0 
C:\Users\CYMR90~1\AppData\Local\Temp\ccaJ4oak.s:1696   .text.cau_interrupt_flag_get:0000000000000004 .L0 
C:\Users\CYMR90~1\AppData\Local\Temp\ccaJ4oak.s:1698   .text.cau_interrupt_flag_get:0000000000000006 .L0 
C:\Users\CYMR90~1\AppData\Local\Temp\ccaJ4oak.s:1701   .text.cau_interrupt_flag_get:000000000000000a .L0 
C:\Users\CYMR90~1\AppData\Local\Temp\ccaJ4oak.s:1703   .text.cau_interrupt_flag_get:000000000000000e .L0 
C:\Users\CYMR90~1\AppData\Local\Temp\ccaJ4oak.s:1707   .text.cau_interrupt_flag_get:0000000000000016 .L0 
C:\Users\CYMR90~1\AppData\Local\Temp\ccaJ4oak.s:1710   .text.cau_interrupt_flag_get:000000000000001c .L0 
C:\Users\CYMR90~1\AppData\Local\Temp\ccaJ4oak.s:1712   .text.cau_interrupt_flag_get:000000000000001e .L0 
C:\Users\CYMR90~1\AppData\Local\Temp\ccaJ4oak.s:1716   .text.cau_interrupt_flag_get:0000000000000024 .L0 
C:\Users\CYMR90~1\AppData\Local\Temp\ccaJ4oak.s:1718   .text.cau_interrupt_flag_get:0000000000000028 .L0 
C:\Users\CYMR90~1\AppData\Local\Temp\ccaJ4oak.s:1720   .text.cau_interrupt_flag_get:000000000000002c .L0 
C:\Users\CYMR90~1\AppData\Local\Temp\ccaJ4oak.s:1721   .text.cau_interrupt_flag_get:000000000000002c .L0 
C:\Users\CYMR90~1\AppData\Local\Temp\ccaJ4oak.s:1723   .text.cau_interrupt_flag_get:000000000000002e .L0 
C:\Users\CYMR90~1\AppData\Local\Temp\ccaJ4oak.s:1725   .text.cau_interrupt_flag_get:0000000000000030 .L0 
C:\Users\CYMR90~1\AppData\Local\Temp\ccaJ4oak.s:45     .text.cau_deinit:000000000000002a .L0 
C:\Users\CYMR90~1\AppData\Local\Temp\ccaJ4oak.s:98     .text.cau_struct_para_init:000000000000005a .L0 
C:\Users\CYMR90~1\AppData\Local\Temp\ccaJ4oak.s:148    .text.cau_key_struct_para_init:0000000000000052 .L0 
C:\Users\CYMR90~1\AppData\Local\Temp\ccaJ4oak.s:186    .text.cau_iv_struct_para_init:0000000000000032 .L0 
C:\Users\CYMR90~1\AppData\Local\Temp\ccaJ4oak.s:299    .text.cau_context_struct_para_init:00000000000000fa .L0 
C:\Users\CYMR90~1\AppData\Local\Temp\ccaJ4oak.s:331    .text.cau_enable:000000000000001e .L0 
C:\Users\CYMR90~1\AppData\Local\Temp\ccaJ4oak.s:364    .text.cau_disable:0000000000000020 .L0 
C:\Users\CYMR90~1\AppData\Local\Temp\ccaJ4oak.s:399    .text.cau_dma_enable:0000000000000028 .L0 
C:\Users\CYMR90~1\AppData\Local\Temp\ccaJ4oak.s:437    .text.cau_dma_disable:000000000000002c .L0 
C:\Users\CYMR90~1\AppData\Local\Temp\ccaJ4oak.s:506    .text.cau_init:0000000000000084 .L0 
C:\Users\CYMR90~1\AppData\Local\Temp\ccaJ4oak.s:545    .text.cau_aes_keysize_config:0000000000000034 .L0 
C:\Users\CYMR90~1\AppData\Local\Temp\ccaJ4oak.s:635    .text.cau_key_init:0000000000000092 .L0 
C:\Users\CYMR90~1\AppData\Local\Temp\ccaJ4oak.s:693    .text.cau_iv_init:0000000000000052 .L0 
C:\Users\CYMR90~1\AppData\Local\Temp\ccaJ4oak.s:740    .text.cau_phase_config:0000000000000044 .L0 
C:\Users\CYMR90~1\AppData\Local\Temp\ccaJ4oak.s:772    .text.cau_fifo_flush:000000000000001e .L0 
C:\Users\CYMR90~1\AppData\Local\Temp\ccaJ4oak.s:813    .text.cau_enable_state_get:0000000000000028 .L0 
C:\Users\CYMR90~1\AppData\Local\Temp\ccaJ4oak.s:845    .text.cau_data_write:000000000000001e .L0 
C:\Users\CYMR90~1\AppData\Local\Temp\ccaJ4oak.s:874    .text.cau_data_read:0000000000000016 .L0 
C:\Users\CYMR90~1\AppData\Local\Temp\ccaJ4oak.s:1197   .text.cau_context_save:000000000000029c .L0 
C:\Users\CYMR90~1\AppData\Local\Temp\ccaJ4oak.s:1549   .text.cau_context_restore:00000000000002be .L0 
C:\Users\CYMR90~1\AppData\Local\Temp\ccaJ4oak.s:1612   .text.cau_flag_get:0000000000000058 .L0 
C:\Users\CYMR90~1\AppData\Local\Temp\ccaJ4oak.s:1647   .text.cau_interrupt_enable:0000000000000028 .L0 
C:\Users\CYMR90~1\AppData\Local\Temp\ccaJ4oak.s:1685   .text.cau_interrupt_disable:000000000000002c .L0 
C:\Users\CYMR90~1\AppData\Local\Temp\ccaJ4oak.s:1728   .text.cau_interrupt_flag_get:0000000000000030 .L0 
                     .debug_frame:0000000000000000 .L0 
C:\Users\CYMR90~1\AppData\Local\Temp\ccaJ4oak.s:799    .text.cau_enable_state_get:000000000000001c .L17
C:\Users\CYMR90~1\AppData\Local\Temp\ccaJ4oak.s:924    .text.cau_context_save:0000000000000056 .L23
C:\Users\CYMR90~1\AppData\Local\Temp\ccaJ4oak.s:930    .text.cau_context_save:0000000000000060 .L31
C:\Users\CYMR90~1\AppData\Local\Temp\ccaJ4oak.s:933    .text.cau_context_save:0000000000000062 .L25
C:\Users\CYMR90~1\AppData\Local\Temp\ccaJ4oak.s:1057   .text.cau_context_save:000000000000016e .L26
C:\Users\CYMR90~1\AppData\Local\Temp\ccaJ4oak.s:1067   .text.cau_context_save:0000000000000188 .L27
C:\Users\CYMR90~1\AppData\Local\Temp\ccaJ4oak.s:1124   .text.cau_context_save:0000000000000208 .L28
C:\Users\CYMR90~1\AppData\Local\Temp\ccaJ4oak.s:1185   .text.cau_context_save:0000000000000294 .L30
C:\Users\CYMR90~1\AppData\Local\Temp\ccaJ4oak.s:1336   .text.cau_context_restore:0000000000000108 .L33
C:\Users\CYMR90~1\AppData\Local\Temp\ccaJ4oak.s:1346   .text.cau_context_restore:0000000000000122 .L34
C:\Users\CYMR90~1\AppData\Local\Temp\ccaJ4oak.s:1411   .text.cau_context_restore:00000000000001a2 .L35
C:\Users\CYMR90~1\AppData\Local\Temp\ccaJ4oak.s:1480   .text.cau_context_restore:000000000000022e .L36
C:\Users\CYMR90~1\AppData\Local\Temp\ccaJ4oak.s:1497   .text.cau_context_restore:000000000000025a .L37
C:\Users\CYMR90~1\AppData\Local\Temp\ccaJ4oak.s:1532   .text.cau_context_restore:00000000000002ac .L38
C:\Users\CYMR90~1\AppData\Local\Temp\ccaJ4oak.s:1518   .text.cau_context_restore:0000000000000292 .L39
C:\Users\CYMR90~1\AppData\Local\Temp\ccaJ4oak.s:1581   .text.cau_flag_get:000000000000002e .L41
C:\Users\CYMR90~1\AppData\Local\Temp\ccaJ4oak.s:1588   .text.cau_flag_get:000000000000003a .L42
C:\Users\CYMR90~1\AppData\Local\Temp\ccaJ4oak.s:1598   .text.cau_flag_get:000000000000004c .L43
C:\Users\CYMR90~1\AppData\Local\Temp\ccaJ4oak.s:1714   .text.cau_interrupt_flag_get:0000000000000024 .L48
C:\Users\CYMR90~1\AppData\Local\Temp\ccaJ4oak.s:2859   .debug_abbrev:0000000000000000 .Ldebug_abbrev0
C:\Users\CYMR90~1\AppData\Local\Temp\ccaJ4oak.s:23877  .debug_str:000000000000b00a .LASF5673
C:\Users\CYMR90~1\AppData\Local\Temp\ccaJ4oak.s:30852  .debug_str:0000000000026cd3 .LASF5674
C:\Users\CYMR90~1\AppData\Local\Temp\ccaJ4oak.s:24181  .debug_str:000000000000c4a4 .LASF5675
C:\Users\CYMR90~1\AppData\Local\Temp\ccaJ4oak.s:3408   .debug_ranges:0000000000000000 .Ldebug_ranges0
C:\Users\CYMR90~1\AppData\Local\Temp\ccaJ4oak.s:21101  .debug_line:0000000000000000 .Ldebug_line0
C:\Users\CYMR90~1\AppData\Local\Temp\ccaJ4oak.s:3460   .debug_macro:0000000000000000 .Ldebug_macro0
C:\Users\CYMR90~1\AppData\Local\Temp\ccaJ4oak.s:32416  .debug_str:000000000002d045 .LASF5558
C:\Users\CYMR90~1\AppData\Local\Temp\ccaJ4oak.s:21119  .debug_str:0000000000000123 .LASF5559
C:\Users\CYMR90~1\AppData\Local\Temp\ccaJ4oak.s:22047  .debug_str:0000000000003aba .LASF5560
C:\Users\CYMR90~1\AppData\Local\Temp\ccaJ4oak.s:27264  .debug_str:000000000001884c .LASF5561
C:\Users\CYMR90~1\AppData\Local\Temp\ccaJ4oak.s:23361  .debug_str:0000000000008f4f .LASF5566
C:\Users\CYMR90~1\AppData\Local\Temp\ccaJ4oak.s:26727  .debug_str:0000000000016513 .LASF5562
C:\Users\CYMR90~1\AppData\Local\Temp\ccaJ4oak.s:28586  .debug_str:000000000001e01e .LASF5563
C:\Users\CYMR90~1\AppData\Local\Temp\ccaJ4oak.s:30222  .debug_str:000000000002433f .LASF5564
C:\Users\CYMR90~1\AppData\Local\Temp\ccaJ4oak.s:28992  .debug_str:000000000001f835 .LASF5565
C:\Users\CYMR90~1\AppData\Local\Temp\ccaJ4oak.s:27476  .debug_str:00000000000196c6 .LASF5567
C:\Users\CYMR90~1\AppData\Local\Temp\ccaJ4oak.s:21237  .debug_str:000000000000085e .LASF5568
C:\Users\CYMR90~1\AppData\Local\Temp\ccaJ4oak.s:30568  .debug_str:0000000000025ba9 .LASF5569
C:\Users\CYMR90~1\AppData\Local\Temp\ccaJ4oak.s:29014  .debug_str:000000000001f99e .LASF855
C:\Users\CYMR90~1\AppData\Local\Temp\ccaJ4oak.s:26491  .debug_str:000000000001567f .LASF5570
C:\Users\CYMR90~1\AppData\Local\Temp\ccaJ4oak.s:30684  .debug_str:00000000000262eb .LASF5571
C:\Users\CYMR90~1\AppData\Local\Temp\ccaJ4oak.s:23163  .debug_str:00000000000082a1 .LASF5572
C:\Users\CYMR90~1\AppData\Local\Temp\ccaJ4oak.s:24681  .debug_str:000000000000e41e .LASF5573
C:\Users\CYMR90~1\AppData\Local\Temp\ccaJ4oak.s:21341  .debug_str:0000000000000f52 .LASF5574
C:\Users\CYMR90~1\AppData\Local\Temp\ccaJ4oak.s:28470  .debug_str:000000000001d889 .LASF5575
C:\Users\CYMR90~1\AppData\Local\Temp\ccaJ4oak.s:23725  .debug_str:000000000000a5f8 .LASF5576
C:\Users\CYMR90~1\AppData\Local\Temp\ccaJ4oak.s:23887  .debug_str:000000000000b142 .LASF5577
C:\Users\CYMR90~1\AppData\Local\Temp\ccaJ4oak.s:31428  .debug_str:00000000000292b0 .LASF5578
C:\Users\CYMR90~1\AppData\Local\Temp\ccaJ4oak.s:28784  .debug_str:000000000001ebaf .LASF5579
C:\Users\CYMR90~1\AppData\Local\Temp\ccaJ4oak.s:29618  .debug_str:0000000000021e8d .LASF5580
C:\Users\CYMR90~1\AppData\Local\Temp\ccaJ4oak.s:32394  .debug_str:000000000002cf15 .LASF5581
C:\Users\CYMR90~1\AppData\Local\Temp\ccaJ4oak.s:30858  .debug_str:0000000000026d72 .LASF5582
C:\Users\CYMR90~1\AppData\Local\Temp\ccaJ4oak.s:23065  .debug_str:0000000000007b7c .LASF5583
C:\Users\CYMR90~1\AppData\Local\Temp\ccaJ4oak.s:26639  .debug_str:0000000000015fc1 .LASF5584
C:\Users\CYMR90~1\AppData\Local\Temp\ccaJ4oak.s:21897  .debug_str:0000000000003105 .LASF5585
C:\Users\CYMR90~1\AppData\Local\Temp\ccaJ4oak.s:28234  .debug_str:000000000001c7cf .LASF5586
C:\Users\CYMR90~1\AppData\Local\Temp\ccaJ4oak.s:30754  .debug_str:00000000000266fb .LASF5587
C:\Users\CYMR90~1\AppData\Local\Temp\ccaJ4oak.s:22971  .debug_str:0000000000007566 .LASF5588
C:\Users\CYMR90~1\AppData\Local\Temp\ccaJ4oak.s:24217  .debug_str:000000000000c6dc .LASF5589
C:\Users\CYMR90~1\AppData\Local\Temp\ccaJ4oak.s:32384  .debug_str:000000000002cdee .LASF5590
C:\Users\CYMR90~1\AppData\Local\Temp\ccaJ4oak.s:22773  .debug_str:0000000000006858 .LASF5591
C:\Users\CYMR90~1\AppData\Local\Temp\ccaJ4oak.s:31358  .debug_str:0000000000028e46 .LASF5592
C:\Users\CYMR90~1\AppData\Local\Temp\ccaJ4oak.s:31292  .debug_str:0000000000028a8e .LASF5593
C:\Users\CYMR90~1\AppData\Local\Temp\ccaJ4oak.s:26187  .debug_str:00000000000143de .LASF5594
C:\Users\CYMR90~1\AppData\Local\Temp\ccaJ4oak.s:22255  .debug_str:0000000000004899 .LASF5595
C:\Users\CYMR90~1\AppData\Local\Temp\ccaJ4oak.s:27700  .debug_str:000000000001a64b .LASF5596
C:\Users\CYMR90~1\AppData\Local\Temp\ccaJ4oak.s:24507  .debug_str:000000000000d9f0 .LASF5597
C:\Users\CYMR90~1\AppData\Local\Temp\ccaJ4oak.s:32224  .debug_str:000000000002c390 .LASF5598
C:\Users\CYMR90~1\AppData\Local\Temp\ccaJ4oak.s:27410  .debug_str:0000000000019309 .LASF5599
C:\Users\CYMR90~1\AppData\Local\Temp\ccaJ4oak.s:22993  .debug_str:00000000000076a2 .LASF5600
C:\Users\CYMR90~1\AppData\Local\Temp\ccaJ4oak.s:32196  .debug_str:000000000002c1b8 .LASF5601
C:\Users\CYMR90~1\AppData\Local\Temp\ccaJ4oak.s:29604  .debug_str:0000000000021db4 .LASF5602
C:\Users\CYMR90~1\AppData\Local\Temp\ccaJ4oak.s:22141  .debug_str:00000000000040c1 .LASF5603
C:\Users\CYMR90~1\AppData\Local\Temp\ccaJ4oak.s:30218  .debug_str:0000000000024315 .LASF5604
C:\Users\CYMR90~1\AppData\Local\Temp\ccaJ4oak.s:23961  .debug_str:000000000000b580 .LASF5605
C:\Users\CYMR90~1\AppData\Local\Temp\ccaJ4oak.s:27890  .debug_str:000000000001b30e .LASF5606
C:\Users\CYMR90~1\AppData\Local\Temp\ccaJ4oak.s:22545  .debug_str:0000000000005a9d .LASF5607
C:\Users\CYMR90~1\AppData\Local\Temp\ccaJ4oak.s:24077  .debug_str:000000000000bd78 .LASF5608
C:\Users\CYMR90~1\AppData\Local\Temp\ccaJ4oak.s:26055  .debug_str:0000000000013bcf .LASF5609
C:\Users\CYMR90~1\AppData\Local\Temp\ccaJ4oak.s:25829  .debug_str:0000000000012cf6 .LASF5610
C:\Users\CYMR90~1\AppData\Local\Temp\ccaJ4oak.s:26485  .debug_str:0000000000015648 .LASF5611
C:\Users\CYMR90~1\AppData\Local\Temp\ccaJ4oak.s:27564  .debug_str:0000000000019d0a .LASF5612
C:\Users\CYMR90~1\AppData\Local\Temp\ccaJ4oak.s:21823  .debug_str:0000000000002cc8 .LASF5613
C:\Users\CYMR90~1\AppData\Local\Temp\ccaJ4oak.s:29276  .debug_str:0000000000020a0b .LASF5614
C:\Users\CYMR90~1\AppData\Local\Temp\ccaJ4oak.s:21589  .debug_str:0000000000001e84 .LASF5615
C:\Users\CYMR90~1\AppData\Local\Temp\ccaJ4oak.s:28602  .debug_str:000000000001e0f3 .LASF5616
C:\Users\CYMR90~1\AppData\Local\Temp\ccaJ4oak.s:21783  .debug_str:0000000000002a22 .LASF5617
C:\Users\CYMR90~1\AppData\Local\Temp\ccaJ4oak.s:32154  .debug_str:000000000002bef2 .LASF5618
C:\Users\CYMR90~1\AppData\Local\Temp\ccaJ4oak.s:23083  .debug_str:0000000000007c5e .LASF5619
C:\Users\CYMR90~1\AppData\Local\Temp\ccaJ4oak.s:25529  .debug_str:0000000000011981 .LASF5620
C:\Users\CYMR90~1\AppData\Local\Temp\ccaJ4oak.s:25915  .debug_str:0000000000013272 .LASF5621
C:\Users\CYMR90~1\AppData\Local\Temp\ccaJ4oak.s:23003  .debug_str:000000000000772e .LASF5622
C:\Users\CYMR90~1\AppData\Local\Temp\ccaJ4oak.s:26946  .debug_str:0000000000017530 .LASF5623
C:\Users\CYMR90~1\AppData\Local\Temp\ccaJ4oak.s:27882  .debug_str:000000000001b26d .LASF5624
C:\Users\CYMR90~1\AppData\Local\Temp\ccaJ4oak.s:22721  .debug_str:0000000000006595 .LASF5625
C:\Users\CYMR90~1\AppData\Local\Temp\ccaJ4oak.s:23799  .debug_str:000000000000ab09 .LASF5626
C:\Users\CYMR90~1\AppData\Local\Temp\ccaJ4oak.s:27994  .debug_str:000000000001b991 .LASF5627
C:\Users\CYMR90~1\AppData\Local\Temp\ccaJ4oak.s:22253  .debug_str:0000000000004893 .LASF5628
C:\Users\CYMR90~1\AppData\Local\Temp\ccaJ4oak.s:26103  .debug_str:0000000000013e95 .LASF5629
C:\Users\CYMR90~1\AppData\Local\Temp\ccaJ4oak.s:24757  .debug_str:000000000000e8e0 .LASF5630
C:\Users\CYMR90~1\AppData\Local\Temp\ccaJ4oak.s:32160  .debug_str:000000000002bf1c .LASF5631
C:\Users\CYMR90~1\AppData\Local\Temp\ccaJ4oak.s:24017  .debug_str:000000000000b9b6 .LASF5636
C:\Users\CYMR90~1\AppData\Local\Temp\ccaJ4oak.s:1690   .text.cau_interrupt_flag_get:0000000000000000 .LFB370
C:\Users\CYMR90~1\AppData\Local\Temp\ccaJ4oak.s:1726   .text.cau_interrupt_flag_get:0000000000000030 .LFE370
C:\Users\CYMR90~1\AppData\Local\Temp\ccaJ4oak.s:26223  .debug_str:00000000000145be .LASF5632
C:\Users\CYMR90~1\AppData\Local\Temp\ccaJ4oak.s:23713  .debug_str:000000000000a528 .LASF5638
C:\Users\CYMR90~1\AppData\Local\Temp\ccaJ4oak.s:21763  .debug_str:0000000000002901 .LASF5634
C:\Users\CYMR90~1\AppData\Local\Temp\ccaJ4oak.s:1652   .text.cau_interrupt_disable:0000000000000000 .LFB369
C:\Users\CYMR90~1\AppData\Local\Temp\ccaJ4oak.s:1683   .text.cau_interrupt_disable:000000000000002c .LFE369
C:\Users\CYMR90~1\AppData\Local\Temp\ccaJ4oak.s:27826  .debug_str:000000000001aea7 .LASF5633
C:\Users\CYMR90~1\AppData\Local\Temp\ccaJ4oak.s:25585  .debug_str:0000000000011d5c .LASF5635
C:\Users\CYMR90~1\AppData\Local\Temp\ccaJ4oak.s:1617   .text.cau_interrupt_enable:0000000000000000 .LFB368
C:\Users\CYMR90~1\AppData\Local\Temp\ccaJ4oak.s:1645   .text.cau_interrupt_enable:0000000000000028 .LFE368
C:\Users\CYMR90~1\AppData\Local\Temp\ccaJ4oak.s:28622  .debug_str:000000000001e200 .LASF5637
C:\Users\CYMR90~1\AppData\Local\Temp\ccaJ4oak.s:1554   .text.cau_flag_get:0000000000000000 .LFB367
C:\Users\CYMR90~1\AppData\Local\Temp\ccaJ4oak.s:1610   .text.cau_flag_get:0000000000000058 .LFE367
C:\Users\CYMR90~1\AppData\Local\Temp\ccaJ4oak.s:21515  .debug_str:00000000000019f4 .LASF5639
C:\Users\CYMR90~1\AppData\Local\Temp\ccaJ4oak.s:21829  .debug_str:0000000000002d03 .LASF5640
C:\Users\CYMR90~1\AppData\Local\Temp\ccaJ4oak.s:1202   .text.cau_context_restore:0000000000000000 .LFB366
C:\Users\CYMR90~1\AppData\Local\Temp\ccaJ4oak.s:1547   .text.cau_context_restore:00000000000002be .LFE366
C:\Users\CYMR90~1\AppData\Local\Temp\ccaJ4oak.s:26948  .debug_str:0000000000017538 .LASF5641
C:\Users\CYMR90~1\AppData\Local\Temp\ccaJ4oak.s:30300  .debug_str:000000000002488a .LASF5642
C:\Users\CYMR90~1\AppData\Local\Temp\ccaJ4oak.s:30126  .debug_str:0000000000023cfe .LASF5643
C:\Users\CYMR90~1\AppData\Local\Temp\ccaJ4oak.s:1498   .text.cau_context_restore:000000000000025a .LBB2
C:\Users\CYMR90~1\AppData\Local\Temp\ccaJ4oak.s:1533   .text.cau_context_restore:00000000000002ac .LBE2
C:\Users\CYMR90~1\AppData\Local\Temp\ccaJ4oak.s:26663  .debug_str:0000000000016161 .LASF5644
C:\Users\CYMR90~1\AppData\Local\Temp\ccaJ4oak.s:29760  .debug_str:00000000000226c7 .LASF5645
C:\Users\CYMR90~1\AppData\Local\Temp\ccaJ4oak.s:26239  .debug_str:00000000000146db .LASF5646
C:\Users\CYMR90~1\AppData\Local\Temp\ccaJ4oak.s:879    .text.cau_context_save:0000000000000000 .LFB365
C:\Users\CYMR90~1\AppData\Local\Temp\ccaJ4oak.s:1195   .text.cau_context_save:000000000000029c .LFE365
C:\Users\CYMR90~1\AppData\Local\Temp\ccaJ4oak.s:22691  .debug_str:00000000000063c5 .LASF5647
C:\Users\CYMR90~1\AppData\Local\Temp\ccaJ4oak.s:31722  .debug_str:000000000002a3bd .LASF5648
C:\Users\CYMR90~1\AppData\Local\Temp\ccaJ4oak.s:25913  .debug_str:0000000000013268 .LASF5649
C:\Users\CYMR90~1\AppData\Local\Temp\ccaJ4oak.s:28086  .debug_str:000000000001bedf .LASF5676
C:\Users\CYMR90~1\AppData\Local\Temp\ccaJ4oak.s:850    .text.cau_data_read:0000000000000000 .LFB364
C:\Users\CYMR90~1\AppData\Local\Temp\ccaJ4oak.s:872    .text.cau_data_read:0000000000000016 .LFE364
C:\Users\CYMR90~1\AppData\Local\Temp\ccaJ4oak.s:25031  .debug_str:000000000000f9b4 .LASF5650
C:\Users\CYMR90~1\AppData\Local\Temp\ccaJ4oak.s:818    .text.cau_data_write:0000000000000000 .LFB363
C:\Users\CYMR90~1\AppData\Local\Temp\ccaJ4oak.s:843    .text.cau_data_write:000000000000001e .LFE363
C:\Users\CYMR90~1\AppData\Local\Temp\ccaJ4oak.s:31522  .debug_str:0000000000029869 .LASF5651
C:\Users\CYMR90~1\AppData\Local\Temp\ccaJ4oak.s:25287  .debug_str:00000000000109d9 .LASF5652
C:\Users\CYMR90~1\AppData\Local\Temp\ccaJ4oak.s:777    .text.cau_enable_state_get:0000000000000000 .LFB362
C:\Users\CYMR90~1\AppData\Local\Temp\ccaJ4oak.s:811    .text.cau_enable_state_get:0000000000000028 .LFE362
C:\Users\CYMR90~1\AppData\Local\Temp\ccaJ4oak.s:22729  .debug_str:00000000000065f2 .LASF5664
C:\Users\CYMR90~1\AppData\Local\Temp\ccaJ4oak.s:745    .text.cau_fifo_flush:0000000000000000 .LFB361
C:\Users\CYMR90~1\AppData\Local\Temp\ccaJ4oak.s:770    .text.cau_fifo_flush:000000000000001e .LFE361
C:\Users\CYMR90~1\AppData\Local\Temp\ccaJ4oak.s:26359  .debug_str:0000000000014e83 .LASF5653
C:\Users\CYMR90~1\AppData\Local\Temp\ccaJ4oak.s:698    .text.cau_phase_config:0000000000000000 .LFB360
C:\Users\CYMR90~1\AppData\Local\Temp\ccaJ4oak.s:738    .text.cau_phase_config:0000000000000044 .LFE360
C:\Users\CYMR90~1\AppData\Local\Temp\ccaJ4oak.s:28262  .debug_str:000000000001ca41 .LASF5654
C:\Users\CYMR90~1\AppData\Local\Temp\ccaJ4oak.s:27310  .debug_str:0000000000018b36 .LASF5655
C:\Users\CYMR90~1\AppData\Local\Temp\ccaJ4oak.s:22399  .debug_str:00000000000051d4 .LASF5656
C:\Users\CYMR90~1\AppData\Local\Temp\ccaJ4oak.s:640    .text.cau_iv_init:0000000000000000 .LFB359
C:\Users\CYMR90~1\AppData\Local\Temp\ccaJ4oak.s:691    .text.cau_iv_init:0000000000000052 .LFE359
C:\Users\CYMR90~1\AppData\Local\Temp\ccaJ4oak.s:23309  .debug_str:0000000000008bc3 .LASF5657
C:\Users\CYMR90~1\AppData\Local\Temp\ccaJ4oak.s:31918  .debug_str:000000000002afbd .LASF5658
C:\Users\CYMR90~1\AppData\Local\Temp\ccaJ4oak.s:550    .text.cau_key_init:0000000000000000 .LFB358
C:\Users\CYMR90~1\AppData\Local\Temp\ccaJ4oak.s:633    .text.cau_key_init:0000000000000092 .LFE358
C:\Users\CYMR90~1\AppData\Local\Temp\ccaJ4oak.s:22015  .debug_str:00000000000038b4 .LASF5659
C:\Users\CYMR90~1\AppData\Local\Temp\ccaJ4oak.s:511    .text.cau_aes_keysize_config:0000000000000000 .LFB357
C:\Users\CYMR90~1\AppData\Local\Temp\ccaJ4oak.s:543    .text.cau_aes_keysize_config:0000000000000034 .LFE357
C:\Users\CYMR90~1\AppData\Local\Temp\ccaJ4oak.s:27276  .debug_str:0000000000018937 .LASF5660
C:\Users\CYMR90~1\AppData\Local\Temp\ccaJ4oak.s:442    .text.cau_init:0000000000000000 .LFB356
C:\Users\CYMR90~1\AppData\Local\Temp\ccaJ4oak.s:504    .text.cau_init:0000000000000084 .LFE356
C:\Users\CYMR90~1\AppData\Local\Temp\ccaJ4oak.s:31452  .debug_str:00000000000293eb .LASF5661
C:\Users\CYMR90~1\AppData\Local\Temp\ccaJ4oak.s:404    .text.cau_dma_disable:0000000000000000 .LFB355
C:\Users\CYMR90~1\AppData\Local\Temp\ccaJ4oak.s:435    .text.cau_dma_disable:000000000000002c .LFE355
C:\Users\CYMR90~1\AppData\Local\Temp\ccaJ4oak.s:31536  .debug_str:000000000002993f .LASF5662
C:\Users\CYMR90~1\AppData\Local\Temp\ccaJ4oak.s:31740  .debug_str:000000000002a4eb .LASF5663
C:\Users\CYMR90~1\AppData\Local\Temp\ccaJ4oak.s:369    .text.cau_dma_enable:0000000000000000 .LFB354
C:\Users\CYMR90~1\AppData\Local\Temp\ccaJ4oak.s:397    .text.cau_dma_enable:0000000000000028 .LFE354
C:\Users\CYMR90~1\AppData\Local\Temp\ccaJ4oak.s:31646  .debug_str:0000000000029f8a .LASF5665
C:\Users\CYMR90~1\AppData\Local\Temp\ccaJ4oak.s:336    .text.cau_disable:0000000000000000 .LFB353
C:\Users\CYMR90~1\AppData\Local\Temp\ccaJ4oak.s:362    .text.cau_disable:0000000000000020 .LFE353
C:\Users\CYMR90~1\AppData\Local\Temp\ccaJ4oak.s:29508  .debug_str:00000000000217ce .LASF5666
C:\Users\CYMR90~1\AppData\Local\Temp\ccaJ4oak.s:304    .text.cau_enable:0000000000000000 .LFB352
C:\Users\CYMR90~1\AppData\Local\Temp\ccaJ4oak.s:329    .text.cau_enable:000000000000001e .LFE352
C:\Users\CYMR90~1\AppData\Local\Temp\ccaJ4oak.s:30708  .debug_str:000000000002642c .LASF5667
C:\Users\CYMR90~1\AppData\Local\Temp\ccaJ4oak.s:191    .text.cau_context_struct_para_init:0000000000000000 .LFB351
C:\Users\CYMR90~1\AppData\Local\Temp\ccaJ4oak.s:297    .text.cau_context_struct_para_init:00000000000000fa .LFE351
C:\Users\CYMR90~1\AppData\Local\Temp\ccaJ4oak.s:29554  .debug_str:0000000000021a83 .LASF5668
C:\Users\CYMR90~1\AppData\Local\Temp\ccaJ4oak.s:153    .text.cau_iv_struct_para_init:0000000000000000 .LFB350
C:\Users\CYMR90~1\AppData\Local\Temp\ccaJ4oak.s:184    .text.cau_iv_struct_para_init:0000000000000032 .LFE350
C:\Users\CYMR90~1\AppData\Local\Temp\ccaJ4oak.s:25681  .debug_str:0000000000012348 .LASF5669
C:\Users\CYMR90~1\AppData\Local\Temp\ccaJ4oak.s:103    .text.cau_key_struct_para_init:0000000000000000 .LFB349
C:\Users\CYMR90~1\AppData\Local\Temp\ccaJ4oak.s:146    .text.cau_key_struct_para_init:0000000000000052 .LFE349
C:\Users\CYMR90~1\AppData\Local\Temp\ccaJ4oak.s:24869  .debug_str:000000000000ef49 .LASF5670
C:\Users\CYMR90~1\AppData\Local\Temp\ccaJ4oak.s:50     .text.cau_struct_para_init:0000000000000000 .LFB348
C:\Users\CYMR90~1\AppData\Local\Temp\ccaJ4oak.s:96     .text.cau_struct_para_init:000000000000005a .LFE348
C:\Users\CYMR90~1\AppData\Local\Temp\ccaJ4oak.s:29466  .debug_str:0000000000021571 .LASF5671
C:\Users\CYMR90~1\AppData\Local\Temp\ccaJ4oak.s:29310  .debug_str:0000000000020bf2 .LASF5672
C:\Users\CYMR90~1\AppData\Local\Temp\ccaJ4oak.s:14     .text.cau_deinit:0000000000000000 .LFB347
C:\Users\CYMR90~1\AppData\Local\Temp\ccaJ4oak.s:43     .text.cau_deinit:000000000000002a .LFE347
C:\Users\CYMR90~1\AppData\Local\Temp\ccaJ4oak.s:1736   .debug_info:0000000000000000 .Ldebug_info0
C:\Users\CYMR90~1\AppData\Local\Temp\ccaJ4oak.s:4086   .debug_macro:0000000000000000 .Ldebug_macro2
C:\Users\CYMR90~1\AppData\Local\Temp\ccaJ4oak.s:27566  .debug_str:0000000000019d14 .LASF314
C:\Users\CYMR90~1\AppData\Local\Temp\ccaJ4oak.s:26892  .debug_str:0000000000017210 .LASF315
C:\Users\CYMR90~1\AppData\Local\Temp\ccaJ4oak.s:5033   .debug_macro:0000000000000000 .Ldebug_macro3
C:\Users\CYMR90~1\AppData\Local\Temp\ccaJ4oak.s:23311  .debug_str:0000000000008bcf .LASF369
C:\Users\CYMR90~1\AppData\Local\Temp\ccaJ4oak.s:22877  .debug_str:0000000000006f00 .LASF370
C:\Users\CYMR90~1\AppData\Local\Temp\ccaJ4oak.s:27140  .debug_str:0000000000018104 .LASF371
C:\Users\CYMR90~1\AppData\Local\Temp\ccaJ4oak.s:5197   .debug_macro:0000000000000000 .Ldebug_macro4
C:\Users\CYMR90~1\AppData\Local\Temp\ccaJ4oak.s:5217   .debug_macro:0000000000000000 .Ldebug_macro5
C:\Users\CYMR90~1\AppData\Local\Temp\ccaJ4oak.s:25793  .debug_str:0000000000012a94 .LASF390
C:\Users\CYMR90~1\AppData\Local\Temp\ccaJ4oak.s:5261   .debug_macro:0000000000000000 .Ldebug_macro6
C:\Users\CYMR90~1\AppData\Local\Temp\ccaJ4oak.s:5275   .debug_macro:0000000000000000 .Ldebug_macro7
C:\Users\CYMR90~1\AppData\Local\Temp\ccaJ4oak.s:5343   .debug_macro:0000000000000000 .Ldebug_macro8
C:\Users\CYMR90~1\AppData\Local\Temp\ccaJ4oak.s:5369   .debug_macro:0000000000000000 .Ldebug_macro9
C:\Users\CYMR90~1\AppData\Local\Temp\ccaJ4oak.s:5398   .debug_macro:0000000000000000 .Ldebug_macro10
C:\Users\CYMR90~1\AppData\Local\Temp\ccaJ4oak.s:29802  .debug_str:0000000000022962 .LASF433
C:\Users\CYMR90~1\AppData\Local\Temp\ccaJ4oak.s:5412   .debug_macro:0000000000000000 .Ldebug_macro11
C:\Users\CYMR90~1\AppData\Local\Temp\ccaJ4oak.s:5456   .debug_macro:0000000000000000 .Ldebug_macro12
C:\Users\CYMR90~1\AppData\Local\Temp\ccaJ4oak.s:5482   .debug_macro:0000000000000000 .Ldebug_macro13
C:\Users\CYMR90~1\AppData\Local\Temp\ccaJ4oak.s:30848  .debug_str:0000000000026cb8 .LASF569
C:\Users\CYMR90~1\AppData\Local\Temp\ccaJ4oak.s:5853   .debug_macro:0000000000000000 .Ldebug_macro14
C:\Users\CYMR90~1\AppData\Local\Temp\ccaJ4oak.s:25307  .debug_str:0000000000010aeb .LASF572
C:\Users\CYMR90~1\AppData\Local\Temp\ccaJ4oak.s:30184  .debug_str:000000000002406e .LASF573
C:\Users\CYMR90~1\AppData\Local\Temp\ccaJ4oak.s:5864   .debug_macro:0000000000000000 .Ldebug_macro15
C:\Users\CYMR90~1\AppData\Local\Temp\ccaJ4oak.s:5878   .debug_macro:0000000000000000 .Ldebug_macro16
C:\Users\CYMR90~1\AppData\Local\Temp\ccaJ4oak.s:31980  .debug_str:000000000002b349 .LASF578
C:\Users\CYMR90~1\AppData\Local\Temp\ccaJ4oak.s:5910   .debug_macro:0000000000000000 .Ldebug_macro17
C:\Users\CYMR90~1\AppData\Local\Temp\ccaJ4oak.s:5936   .debug_macro:0000000000000000 .Ldebug_macro18
C:\Users\CYMR90~1\AppData\Local\Temp\ccaJ4oak.s:5947   .debug_macro:0000000000000000 .Ldebug_macro19
C:\Users\CYMR90~1\AppData\Local\Temp\ccaJ4oak.s:5991   .debug_macro:0000000000000000 .Ldebug_macro20
C:\Users\CYMR90~1\AppData\Local\Temp\ccaJ4oak.s:6161   .debug_macro:0000000000000000 .Ldebug_macro21
C:\Users\CYMR90~1\AppData\Local\Temp\ccaJ4oak.s:6172   .debug_macro:0000000000000000 .Ldebug_macro22
C:\Users\CYMR90~1\AppData\Local\Temp\ccaJ4oak.s:25799  .debug_str:0000000000012aed .LASF675
C:\Users\CYMR90~1\AppData\Local\Temp\ccaJ4oak.s:6228   .debug_macro:0000000000000000 .Ldebug_macro23
C:\Users\CYMR90~1\AppData\Local\Temp\ccaJ4oak.s:6245   .debug_macro:0000000000000000 .Ldebug_macro24
C:\Users\CYMR90~1\AppData\Local\Temp\ccaJ4oak.s:28984  .debug_str:000000000001f7c5 .LASF693
C:\Users\CYMR90~1\AppData\Local\Temp\ccaJ4oak.s:27146  .debug_str:000000000001813b .LASF694
C:\Users\CYMR90~1\AppData\Local\Temp\ccaJ4oak.s:6289   .debug_macro:0000000000000000 .Ldebug_macro25
C:\Users\CYMR90~1\AppData\Local\Temp\ccaJ4oak.s:22329  .debug_str:0000000000004da6 .LASF700
C:\Users\CYMR90~1\AppData\Local\Temp\ccaJ4oak.s:23447  .debug_str:0000000000009433 .LASF701
C:\Users\CYMR90~1\AppData\Local\Temp\ccaJ4oak.s:6309   .debug_macro:0000000000000000 .Ldebug_macro26
C:\Users\CYMR90~1\AppData\Local\Temp\ccaJ4oak.s:6320   .debug_macro:0000000000000000 .Ldebug_macro27
C:\Users\CYMR90~1\AppData\Local\Temp\ccaJ4oak.s:6364   .debug_macro:0000000000000000 .Ldebug_macro28
C:\Users\CYMR90~1\AppData\Local\Temp\ccaJ4oak.s:22703  .debug_str:0000000000006468 .LASF749
C:\Users\CYMR90~1\AppData\Local\Temp\ccaJ4oak.s:6465   .debug_macro:0000000000000000 .Ldebug_macro29
C:\Users\CYMR90~1\AppData\Local\Temp\ccaJ4oak.s:6482   .debug_macro:0000000000000000 .Ldebug_macro30
C:\Users\CYMR90~1\AppData\Local\Temp\ccaJ4oak.s:21169  .debug_str:0000000000000433 .LASF763
C:\Users\CYMR90~1\AppData\Local\Temp\ccaJ4oak.s:22511  .debug_str:0000000000005895 .LASF764
C:\Users\CYMR90~1\AppData\Local\Temp\ccaJ4oak.s:6514   .debug_macro:0000000000000000 .Ldebug_macro31
C:\Users\CYMR90~1\AppData\Local\Temp\ccaJ4oak.s:6528   .debug_macro:0000000000000000 .Ldebug_macro32
C:\Users\CYMR90~1\AppData\Local\Temp\ccaJ4oak.s:6698   .debug_macro:0000000000000000 .Ldebug_macro33
C:\Users\CYMR90~1\AppData\Local\Temp\ccaJ4oak.s:24975  .debug_str:000000000000f5bd .LASF850
C:\Users\CYMR90~1\AppData\Local\Temp\ccaJ4oak.s:27360  .debug_str:0000000000018efa .LASF851
C:\Users\CYMR90~1\AppData\Local\Temp\ccaJ4oak.s:6784   .debug_macro:0000000000000000 .Ldebug_macro34
C:\Users\CYMR90~1\AppData\Local\Temp\ccaJ4oak.s:6909   .debug_macro:0000000000000000 .Ldebug_macro35
C:\Users\CYMR90~1\AppData\Local\Temp\ccaJ4oak.s:21451  .debug_str:0000000000001575 .LASF951
C:\Users\CYMR90~1\AppData\Local\Temp\ccaJ4oak.s:7121   .debug_macro:0000000000000000 .Ldebug_macro36
C:\Users\CYMR90~1\AppData\Local\Temp\ccaJ4oak.s:23199  .debug_str:000000000000850b .LASF957
C:\Users\CYMR90~1\AppData\Local\Temp\ccaJ4oak.s:22757  .debug_str:0000000000006763 .LASF958
C:\Users\CYMR90~1\AppData\Local\Temp\ccaJ4oak.s:21619  .debug_str:000000000000204c .LASF959
C:\Users\CYMR90~1\AppData\Local\Temp\ccaJ4oak.s:7141   .debug_macro:0000000000000000 .Ldebug_macro37
C:\Users\CYMR90~1\AppData\Local\Temp\ccaJ4oak.s:7233   .debug_macro:0000000000000000 .Ldebug_macro38
C:\Users\CYMR90~1\AppData\Local\Temp\ccaJ4oak.s:8879   .debug_macro:0000000000000000 .Ldebug_macro39
C:\Users\CYMR90~1\AppData\Local\Temp\ccaJ4oak.s:8971   .debug_macro:0000000000000000 .Ldebug_macro40
C:\Users\CYMR90~1\AppData\Local\Temp\ccaJ4oak.s:9027   .debug_macro:0000000000000000 .Ldebug_macro41
C:\Users\CYMR90~1\AppData\Local\Temp\ccaJ4oak.s:9041   .debug_macro:0000000000000000 .Ldebug_macro42
C:\Users\CYMR90~1\AppData\Local\Temp\ccaJ4oak.s:26685  .debug_str:00000000000162b5 .LASF1655
C:\Users\CYMR90~1\AppData\Local\Temp\ccaJ4oak.s:23571  .debug_str:0000000000009c54 .LASF1656
C:\Users\CYMR90~1\AppData\Local\Temp\ccaJ4oak.s:9265   .debug_macro:0000000000000000 .Ldebug_macro43
C:\Users\CYMR90~1\AppData\Local\Temp\ccaJ4oak.s:9312   .debug_macro:0000000000000000 .Ldebug_macro44
C:\Users\CYMR90~1\AppData\Local\Temp\ccaJ4oak.s:9467   .debug_macro:0000000000000000 .Ldebug_macro45
C:\Users\CYMR90~1\AppData\Local\Temp\ccaJ4oak.s:9523   .debug_macro:0000000000000000 .Ldebug_macro46
C:\Users\CYMR90~1\AppData\Local\Temp\ccaJ4oak.s:9534   .debug_macro:0000000000000000 .Ldebug_macro47
C:\Users\CYMR90~1\AppData\Local\Temp\ccaJ4oak.s:31626  .debug_str:0000000000029e8d .LASF1782
C:\Users\CYMR90~1\AppData\Local\Temp\ccaJ4oak.s:26445  .debug_str:000000000001542f .LASF1783
C:\Users\CYMR90~1\AppData\Local\Temp\ccaJ4oak.s:9665   .debug_macro:0000000000000000 .Ldebug_macro48
C:\Users\CYMR90~1\AppData\Local\Temp\ccaJ4oak.s:10237  .debug_macro:0000000000000000 .Ldebug_macro49
C:\Users\CYMR90~1\AppData\Local\Temp\ccaJ4oak.s:10266  .debug_macro:0000000000000000 .Ldebug_macro50
C:\Users\CYMR90~1\AppData\Local\Temp\ccaJ4oak.s:10343  .debug_macro:0000000000000000 .Ldebug_macro51
C:\Users\CYMR90~1\AppData\Local\Temp\ccaJ4oak.s:10876  .debug_macro:0000000000000000 .Ldebug_macro52
C:\Users\CYMR90~1\AppData\Local\Temp\ccaJ4oak.s:10899  .debug_macro:0000000000000000 .Ldebug_macro53
C:\Users\CYMR90~1\AppData\Local\Temp\ccaJ4oak.s:11165  .debug_macro:0000000000000000 .Ldebug_macro54
C:\Users\CYMR90~1\AppData\Local\Temp\ccaJ4oak.s:11644  .debug_macro:0000000000000000 .Ldebug_macro55
C:\Users\CYMR90~1\AppData\Local\Temp\ccaJ4oak.s:11973  .debug_macro:0000000000000000 .Ldebug_macro56
C:\Users\CYMR90~1\AppData\Local\Temp\ccaJ4oak.s:12062  .debug_macro:0000000000000000 .Ldebug_macro57
C:\Users\CYMR90~1\AppData\Local\Temp\ccaJ4oak.s:12877  .debug_macro:0000000000000000 .Ldebug_macro58
C:\Users\CYMR90~1\AppData\Local\Temp\ccaJ4oak.s:13068  .debug_macro:0000000000000000 .Ldebug_macro59
C:\Users\CYMR90~1\AppData\Local\Temp\ccaJ4oak.s:13571  .debug_macro:0000000000000000 .Ldebug_macro60
C:\Users\CYMR90~1\AppData\Local\Temp\ccaJ4oak.s:13717  .debug_macro:0000000000000000 .Ldebug_macro61
C:\Users\CYMR90~1\AppData\Local\Temp\ccaJ4oak.s:14247  .debug_macro:0000000000000000 .Ldebug_macro62
C:\Users\CYMR90~1\AppData\Local\Temp\ccaJ4oak.s:14669  .debug_macro:0000000000000000 .Ldebug_macro63
C:\Users\CYMR90~1\AppData\Local\Temp\ccaJ4oak.s:17443  .debug_macro:0000000000000000 .Ldebug_macro64
C:\Users\CYMR90~1\AppData\Local\Temp\ccaJ4oak.s:18519  .debug_macro:0000000000000000 .Ldebug_macro65
C:\Users\CYMR90~1\AppData\Local\Temp\ccaJ4oak.s:18788  .debug_macro:0000000000000000 .Ldebug_macro66
C:\Users\CYMR90~1\AppData\Local\Temp\ccaJ4oak.s:19060  .debug_macro:0000000000000000 .Ldebug_macro67
C:\Users\CYMR90~1\AppData\Local\Temp\ccaJ4oak.s:20088  .debug_macro:0000000000000000 .Ldebug_macro68
C:\Users\CYMR90~1\AppData\Local\Temp\ccaJ4oak.s:20132  .debug_macro:0000000000000000 .Ldebug_macro69
C:\Users\CYMR90~1\AppData\Local\Temp\ccaJ4oak.s:20758  .debug_macro:0000000000000000 .Ldebug_macro70
C:\Users\CYMR90~1\AppData\Local\Temp\ccaJ4oak.s:20817  .debug_macro:0000000000000000 .Ldebug_macro71
C:\Users\CYMR90~1\AppData\Local\Temp\ccaJ4oak.s:22109  .debug_str:0000000000003e9b .LASF5556
C:\Users\CYMR90~1\AppData\Local\Temp\ccaJ4oak.s:26595  .debug_str:0000000000015c9b .LASF5557
C:\Users\CYMR90~1\AppData\Local\Temp\ccaJ4oak.s:22493  .debug_str:000000000000575a .LASF0
C:\Users\CYMR90~1\AppData\Local\Temp\ccaJ4oak.s:26874  .debug_str:0000000000017117 .LASF1
C:\Users\CYMR90~1\AppData\Local\Temp\ccaJ4oak.s:25141  .debug_str:0000000000010070 .LASF2
C:\Users\CYMR90~1\AppData\Local\Temp\ccaJ4oak.s:25197  .debug_str:00000000000103ec .LASF3
C:\Users\CYMR90~1\AppData\Local\Temp\ccaJ4oak.s:26489  .debug_str:000000000001566d .LASF4
C:\Users\CYMR90~1\AppData\Local\Temp\ccaJ4oak.s:32024  .debug_str:000000000002b636 .LASF5
C:\Users\CYMR90~1\AppData\Local\Temp\ccaJ4oak.s:22733  .debug_str:0000000000006627 .LASF6
C:\Users\CYMR90~1\AppData\Local\Temp\ccaJ4oak.s:21961  .debug_str:000000000000357a .LASF7
C:\Users\CYMR90~1\AppData\Local\Temp\ccaJ4oak.s:30306  .debug_str:00000000000248dd .LASF8
C:\Users\CYMR90~1\AppData\Local\Temp\ccaJ4oak.s:28210  .debug_str:000000000001c637 .LASF9
C:\Users\CYMR90~1\AppData\Local\Temp\ccaJ4oak.s:27562  .debug_str:0000000000019cf7 .LASF10
C:\Users\CYMR90~1\AppData\Local\Temp\ccaJ4oak.s:27416  .debug_str:0000000000019341 .LASF11
C:\Users\CYMR90~1\AppData\Local\Temp\ccaJ4oak.s:31866  .debug_str:000000000002ac9f .LASF12
C:\Users\CYMR90~1\AppData\Local\Temp\ccaJ4oak.s:27428  .debug_str:00000000000193f5 .LASF13
C:\Users\CYMR90~1\AppData\Local\Temp\ccaJ4oak.s:23729  .debug_str:000000000000a622 .LASF14
C:\Users\CYMR90~1\AppData\Local\Temp\ccaJ4oak.s:28780  .debug_str:000000000001eb7b .LASF15
C:\Users\CYMR90~1\AppData\Local\Temp\ccaJ4oak.s:29540  .debug_str:00000000000219e3 .LASF16
C:\Users\CYMR90~1\AppData\Local\Temp\ccaJ4oak.s:23777  .debug_str:000000000000a906 .LASF17
C:\Users\CYMR90~1\AppData\Local\Temp\ccaJ4oak.s:30582  .debug_str:0000000000025c86 .LASF18
C:\Users\CYMR90~1\AppData\Local\Temp\ccaJ4oak.s:24751  .debug_str:000000000000e888 .LASF19
C:\Users\CYMR90~1\AppData\Local\Temp\ccaJ4oak.s:21793  .debug_str:0000000000002abd .LASF20
C:\Users\CYMR90~1\AppData\Local\Temp\ccaJ4oak.s:27230  .debug_str:0000000000018677 .LASF21
C:\Users\CYMR90~1\AppData\Local\Temp\ccaJ4oak.s:27228  .debug_str:000000000001865d .LASF22
C:\Users\CYMR90~1\AppData\Local\Temp\ccaJ4oak.s:29852  .debug_str:0000000000022c99 .LASF23
C:\Users\CYMR90~1\AppData\Local\Temp\ccaJ4oak.s:28164  .debug_str:000000000001c3b5 .LASF24
C:\Users\CYMR90~1\AppData\Local\Temp\ccaJ4oak.s:22021  .debug_str:0000000000003915 .LASF25
C:\Users\CYMR90~1\AppData\Local\Temp\ccaJ4oak.s:26619  .debug_str:0000000000015e66 .LASF26
C:\Users\CYMR90~1\AppData\Local\Temp\ccaJ4oak.s:29856  .debug_str:0000000000022ccf .LASF27
C:\Users\CYMR90~1\AppData\Local\Temp\ccaJ4oak.s:29548  .debug_str:0000000000021a3b .LASF28
C:\Users\CYMR90~1\AppData\Local\Temp\ccaJ4oak.s:22443  .debug_str:0000000000005470 .LASF29
C:\Users\CYMR90~1\AppData\Local\Temp\ccaJ4oak.s:28566  .debug_str:000000000001dea8 .LASF30
C:\Users\CYMR90~1\AppData\Local\Temp\ccaJ4oak.s:21399  .debug_str:0000000000001291 .LASF31
C:\Users\CYMR90~1\AppData\Local\Temp\ccaJ4oak.s:29018  .debug_str:000000000001f9bd .LASF32
C:\Users\CYMR90~1\AppData\Local\Temp\ccaJ4oak.s:23613  .debug_str:0000000000009ebf .LASF33
C:\Users\CYMR90~1\AppData\Local\Temp\ccaJ4oak.s:23463  .debug_str:000000000000951e .LASF34
C:\Users\CYMR90~1\AppData\Local\Temp\ccaJ4oak.s:24783  .debug_str:000000000000ea3e .LASF35
C:\Users\CYMR90~1\AppData\Local\Temp\ccaJ4oak.s:27670  .debug_str:000000000001a30e .LASF36
C:\Users\CYMR90~1\AppData\Local\Temp\ccaJ4oak.s:22969  .debug_str:000000000000753e .LASF37
C:\Users\CYMR90~1\AppData\Local\Temp\ccaJ4oak.s:25139  .debug_str:000000000001004d .LASF38
C:\Users\CYMR90~1\AppData\Local\Temp\ccaJ4oak.s:21983  .debug_str:00000000000036a7 .LASF39
C:\Users\CYMR90~1\AppData\Local\Temp\ccaJ4oak.s:21785  .debug_str:0000000000002a2b .LASF40
C:\Users\CYMR90~1\AppData\Local\Temp\ccaJ4oak.s:25297  .debug_str:0000000000010a5e .LASF41
C:\Users\CYMR90~1\AppData\Local\Temp\ccaJ4oak.s:25723  .debug_str:00000000000125fa .LASF42
C:\Users\CYMR90~1\AppData\Local\Temp\ccaJ4oak.s:21181  .debug_str:00000000000004e6 .LASF43
C:\Users\CYMR90~1\AppData\Local\Temp\ccaJ4oak.s:27660  .debug_str:000000000001a27c .LASF44
C:\Users\CYMR90~1\AppData\Local\Temp\ccaJ4oak.s:25583  .debug_str:0000000000011d3f .LASF45
C:\Users\CYMR90~1\AppData\Local\Temp\ccaJ4oak.s:22261  .debug_str:00000000000048f3 .LASF46
C:\Users\CYMR90~1\AppData\Local\Temp\ccaJ4oak.s:28570  .debug_str:000000000001dee7 .LASF47
C:\Users\CYMR90~1\AppData\Local\Temp\ccaJ4oak.s:30308  .debug_str:00000000000248f2 .LASF48
C:\Users\CYMR90~1\AppData\Local\Temp\ccaJ4oak.s:24521  .debug_str:000000000000da83 .LASF49
C:\Users\CYMR90~1\AppData\Local\Temp\ccaJ4oak.s:21615  .debug_str:0000000000002019 .LASF50
C:\Users\CYMR90~1\AppData\Local\Temp\ccaJ4oak.s:21121  .debug_str:0000000000000131 .LASF51
C:\Users\CYMR90~1\AppData\Local\Temp\ccaJ4oak.s:31640  .debug_str:0000000000029f3e .LASF52
C:\Users\CYMR90~1\AppData\Local\Temp\ccaJ4oak.s:24323  .debug_str:000000000000cdd9 .LASF53
C:\Users\CYMR90~1\AppData\Local\Temp\ccaJ4oak.s:26069  .debug_str:0000000000013ca0 .LASF54
C:\Users\CYMR90~1\AppData\Local\Temp\ccaJ4oak.s:25105  .debug_str:000000000000fdfc .LASF55
C:\Users\CYMR90~1\AppData\Local\Temp\ccaJ4oak.s:23055  .debug_str:0000000000007a87 .LASF56
C:\Users\CYMR90~1\AppData\Local\Temp\ccaJ4oak.s:26471  .debug_str:0000000000015571 .LASF57
C:\Users\CYMR90~1\AppData\Local\Temp\ccaJ4oak.s:21351  .debug_str:0000000000000fc1 .LASF58
C:\Users\CYMR90~1\AppData\Local\Temp\ccaJ4oak.s:30586  .debug_str:0000000000025cc6 .LASF59
C:\Users\CYMR90~1\AppData\Local\Temp\ccaJ4oak.s:25999  .debug_str:0000000000013866 .LASF60
C:\Users\CYMR90~1\AppData\Local\Temp\ccaJ4oak.s:27946  .debug_str:000000000001b688 .LASF61
C:\Users\CYMR90~1\AppData\Local\Temp\ccaJ4oak.s:21851  .debug_str:0000000000002e53 .LASF62
C:\Users\CYMR90~1\AppData\Local\Temp\ccaJ4oak.s:24513  .debug_str:000000000000da28 .LASF63
C:\Users\CYMR90~1\AppData\Local\Temp\ccaJ4oak.s:24241  .debug_str:000000000000c856 .LASF64
C:\Users\CYMR90~1\AppData\Local\Temp\ccaJ4oak.s:27646  .debug_str:000000000001a1b3 .LASF65
C:\Users\CYMR90~1\AppData\Local\Temp\ccaJ4oak.s:26305  .debug_str:0000000000014aed .LASF66
C:\Users\CYMR90~1\AppData\Local\Temp\ccaJ4oak.s:31418  .debug_str:00000000000291f0 .LASF67
C:\Users\CYMR90~1\AppData\Local\Temp\ccaJ4oak.s:31868  .debug_str:000000000002acb2 .LASF68
C:\Users\CYMR90~1\AppData\Local\Temp\ccaJ4oak.s:25537  .debug_str:0000000000011a02 .LASF69
C:\Users\CYMR90~1\AppData\Local\Temp\ccaJ4oak.s:24675  .debug_str:000000000000e3c8 .LASF70
C:\Users\CYMR90~1\AppData\Local\Temp\ccaJ4oak.s:22273  .debug_str:0000000000004a46 .LASF71
C:\Users\CYMR90~1\AppData\Local\Temp\ccaJ4oak.s:25571  .debug_str:0000000000011c7c .LASF72
C:\Users\CYMR90~1\AppData\Local\Temp\ccaJ4oak.s:25205  .debug_str:000000000001045d .LASF73
C:\Users\CYMR90~1\AppData\Local\Temp\ccaJ4oak.s:25811  .debug_str:0000000000012bde .LASF74
C:\Users\CYMR90~1\AppData\Local\Temp\ccaJ4oak.s:25645  .debug_str:000000000001211a .LASF75
C:\Users\CYMR90~1\AppData\Local\Temp\ccaJ4oak.s:25751  .debug_str:00000000000127c9 .LASF76
C:\Users\CYMR90~1\AppData\Local\Temp\ccaJ4oak.s:30220  .debug_str:0000000000024324 .LASF77
C:\Users\CYMR90~1\AppData\Local\Temp\ccaJ4oak.s:28142  .debug_str:000000000001c263 .LASF78
C:\Users\CYMR90~1\AppData\Local\Temp\ccaJ4oak.s:28536  .debug_str:000000000001dc63 .LASF79
C:\Users\CYMR90~1\AppData\Local\Temp\ccaJ4oak.s:31398  .debug_str:00000000000290a1 .LASF80
C:\Users\CYMR90~1\AppData\Local\Temp\ccaJ4oak.s:23565  .debug_str:0000000000009be0 .LASF81
C:\Users\CYMR90~1\AppData\Local\Temp\ccaJ4oak.s:23763  .debug_str:000000000000a7d2 .LASF82
C:\Users\CYMR90~1\AppData\Local\Temp\ccaJ4oak.s:31530  .debug_str:00000000000298f7 .LASF83
C:\Users\CYMR90~1\AppData\Local\Temp\ccaJ4oak.s:23505  .debug_str:00000000000097d7 .LASF84
C:\Users\CYMR90~1\AppData\Local\Temp\ccaJ4oak.s:22793  .debug_str:00000000000069b3 .LASF85
C:\Users\CYMR90~1\AppData\Local\Temp\ccaJ4oak.s:27848  .debug_str:000000000001b03f .LASF86
C:\Users\CYMR90~1\AppData\Local\Temp\ccaJ4oak.s:31560  .debug_str:0000000000029a79 .LASF87
C:\Users\CYMR90~1\AppData\Local\Temp\ccaJ4oak.s:28960  .debug_str:000000000001f650 .LASF88
C:\Users\CYMR90~1\AppData\Local\Temp\ccaJ4oak.s:27766  .debug_str:000000000001ab00 .LASF89
C:\Users\CYMR90~1\AppData\Local\Temp\ccaJ4oak.s:28988  .debug_str:000000000001f7f8 .LASF90
C:\Users\CYMR90~1\AppData\Local\Temp\ccaJ4oak.s:31774  .debug_str:000000000002a73a .LASF91
C:\Users\CYMR90~1\AppData\Local\Temp\ccaJ4oak.s:29308  .debug_str:0000000000020bde .LASF92
C:\Users\CYMR90~1\AppData\Local\Temp\ccaJ4oak.s:23641  .debug_str:000000000000a098 .LASF93
C:\Users\CYMR90~1\AppData\Local\Temp\ccaJ4oak.s:28416  .debug_str:000000000001d4c7 .LASF94
C:\Users\CYMR90~1\AppData\Local\Temp\ccaJ4oak.s:26027  .debug_str:0000000000013a1f .LASF95
C:\Users\CYMR90~1\AppData\Local\Temp\ccaJ4oak.s:26011  .debug_str:000000000001392f .LASF96
C:\Users\CYMR90~1\AppData\Local\Temp\ccaJ4oak.s:32074  .debug_str:000000000002b99a .LASF97
C:\Users\CYMR90~1\AppData\Local\Temp\ccaJ4oak.s:25657  .debug_str:00000000000121f7 .LASF98
C:\Users\CYMR90~1\AppData\Local\Temp\ccaJ4oak.s:29566  .debug_str:0000000000021b56 .LASF99
C:\Users\CYMR90~1\AppData\Local\Temp\ccaJ4oak.s:23967  .debug_str:000000000000b5e7 .LASF100
C:\Users\CYMR90~1\AppData\Local\Temp\ccaJ4oak.s:25153  .debug_str:00000000000100fb .LASF101
C:\Users\CYMR90~1\AppData\Local\Temp\ccaJ4oak.s:26535  .debug_str:00000000000158e2 .LASF102
C:\Users\CYMR90~1\AppData\Local\Temp\ccaJ4oak.s:25423  .debug_str:0000000000011222 .LASF103
C:\Users\CYMR90~1\AppData\Local\Temp\ccaJ4oak.s:24427  .debug_str:000000000000d485 .LASF104
C:\Users\CYMR90~1\AppData\Local\Temp\ccaJ4oak.s:25593  .debug_str:0000000000011db9 .LASF105
C:\Users\CYMR90~1\AppData\Local\Temp\ccaJ4oak.s:22321  .debug_str:0000000000004d31 .LASF106
C:\Users\CYMR90~1\AppData\Local\Temp\ccaJ4oak.s:25417  .debug_str:00000000000111bd .LASF107
C:\Users\CYMR90~1\AppData\Local\Temp\ccaJ4oak.s:24423  .debug_str:000000000000d461 .LASF108
C:\Users\CYMR90~1\AppData\Local\Temp\ccaJ4oak.s:25867  .debug_str:0000000000012f4f .LASF109
C:\Users\CYMR90~1\AppData\Local\Temp\ccaJ4oak.s:24807  .debug_str:000000000000ebd8 .LASF110
C:\Users\CYMR90~1\AppData\Local\Temp\ccaJ4oak.s:27280  .debug_str:0000000000018956 .LASF111
C:\Users\CYMR90~1\AppData\Local\Temp\ccaJ4oak.s:23905  .debug_str:000000000000b254 .LASF112
C:\Users\CYMR90~1\AppData\Local\Temp\ccaJ4oak.s:23639  .debug_str:000000000000a06f .LASF113
C:\Users\CYMR90~1\AppData\Local\Temp\ccaJ4oak.s:26567  .debug_str:0000000000015ae2 .LASF114
C:\Users\CYMR90~1\AppData\Local\Temp\ccaJ4oak.s:31458  .debug_str:000000000002942d .LASF115
C:\Users\CYMR90~1\AppData\Local\Temp\ccaJ4oak.s:30098  .debug_str:0000000000023b4b .LASF116
C:\Users\CYMR90~1\AppData\Local\Temp\ccaJ4oak.s:23397  .debug_str:0000000000009144 .LASF117
C:\Users\CYMR90~1\AppData\Local\Temp\ccaJ4oak.s:28006  .debug_str:000000000001ba2e .LASF118
C:\Users\CYMR90~1\AppData\Local\Temp\ccaJ4oak.s:32190  .debug_str:000000000002c16f .LASF119
C:\Users\CYMR90~1\AppData\Local\Temp\ccaJ4oak.s:24725  .debug_str:000000000000e69d .LASF120
C:\Users\CYMR90~1\AppData\Local\Temp\ccaJ4oak.s:30202  .debug_str:0000000000024156 .LASF121
C:\Users\CYMR90~1\AppData\Local\Temp\ccaJ4oak.s:24205  .debug_str:000000000000c615 .LASF122
C:\Users\CYMR90~1\AppData\Local\Temp\ccaJ4oak.s:24311  .debug_str:000000000000cd46 .LASF123
C:\Users\CYMR90~1\AppData\Local\Temp\ccaJ4oak.s:21957  .debug_str:000000000000353b .LASF124
C:\Users\CYMR90~1\AppData\Local\Temp\ccaJ4oak.s:22235  .debug_str:0000000000004737 .LASF125
C:\Users\CYMR90~1\AppData\Local\Temp\ccaJ4oak.s:31138  .debug_str:0000000000027f69 .LASF126
C:\Users\CYMR90~1\AppData\Local\Temp\ccaJ4oak.s:25599  .debug_str:0000000000011df7 .LASF127
C:\Users\CYMR90~1\AppData\Local\Temp\ccaJ4oak.s:28390  .debug_str:000000000001d346 .LASF128
C:\Users\CYMR90~1\AppData\Local\Temp\ccaJ4oak.s:23471  .debug_str:0000000000009596 .LASF129
C:\Users\CYMR90~1\AppData\Local\Temp\ccaJ4oak.s:30710  .debug_str:0000000000026449 .LASF130
C:\Users\CYMR90~1\AppData\Local\Temp\ccaJ4oak.s:31014  .debug_str:000000000002775c .LASF131
C:\Users\CYMR90~1\AppData\Local\Temp\ccaJ4oak.s:30824  .debug_str:0000000000026b32 .LASF132
C:\Users\CYMR90~1\AppData\Local\Temp\ccaJ4oak.s:24699  .debug_str:000000000000e506 .LASF133
C:\Users\CYMR90~1\AppData\Local\Temp\ccaJ4oak.s:30116  .debug_str:0000000000023c50 .LASF134
C:\Users\CYMR90~1\AppData\Local\Temp\ccaJ4oak.s:22227  .debug_str:00000000000046ae .LASF135
C:\Users\CYMR90~1\AppData\Local\Temp\ccaJ4oak.s:23101  .debug_str:0000000000007d6b .LASF136
C:\Users\CYMR90~1\AppData\Local\Temp\ccaJ4oak.s:31860  .debug_str:000000000002ac48 .LASF137
C:\Users\CYMR90~1\AppData\Local\Temp\ccaJ4oak.s:25863  .debug_str:0000000000012f1f .LASF138
C:\Users\CYMR90~1\AppData\Local\Temp\ccaJ4oak.s:31348  .debug_str:0000000000028dd5 .LASF139
C:\Users\CYMR90~1\AppData\Local\Temp\ccaJ4oak.s:30480  .debug_str:0000000000025545 .LASF140
C:\Users\CYMR90~1\AppData\Local\Temp\ccaJ4oak.s:28100  .debug_str:000000000001bfd7 .LASF141
C:\Users\CYMR90~1\AppData\Local\Temp\ccaJ4oak.s:23601  .debug_str:0000000000009e00 .LASF142
C:\Users\CYMR90~1\AppData\Local\Temp\ccaJ4oak.s:31932  .debug_str:000000000002b058 .LASF143
C:\Users\CYMR90~1\AppData\Local\Temp\ccaJ4oak.s:27252  .debug_str:000000000001878b .LASF144
C:\Users\CYMR90~1\AppData\Local\Temp\ccaJ4oak.s:26319  .debug_str:0000000000014bf1 .LASF145
C:\Users\CYMR90~1\AppData\Local\Temp\ccaJ4oak.s:24275  .debug_str:000000000000cb32 .LASF146
C:\Users\CYMR90~1\AppData\Local\Temp\ccaJ4oak.s:22271  .debug_str:0000000000004a2f .LASF147
C:\Users\CYMR90~1\AppData\Local\Temp\ccaJ4oak.s:24849  .debug_str:000000000000ee4c .LASF148
C:\Users\CYMR90~1\AppData\Local\Temp\ccaJ4oak.s:27232  .debug_str:000000000001868b .LASF149
C:\Users\CYMR90~1\AppData\Local\Temp\ccaJ4oak.s:21197  .debug_str:00000000000005b4 .LASF150
C:\Users\CYMR90~1\AppData\Local\Temp\ccaJ4oak.s:29550  .debug_str:0000000000021a55 .LASF151
C:\Users\CYMR90~1\AppData\Local\Temp\ccaJ4oak.s:25857  .debug_str:0000000000012e9d .LASF152
C:\Users\CYMR90~1\AppData\Local\Temp\ccaJ4oak.s:30486  .debug_str:0000000000025598 .LASF153
C:\Users\CYMR90~1\AppData\Local\Temp\ccaJ4oak.s:28296  .debug_str:000000000001cc00 .LASF154
C:\Users\CYMR90~1\AppData\Local\Temp\ccaJ4oak.s:25259  .debug_str:000000000001082d .LASF155
C:\Users\CYMR90~1\AppData\Local\Temp\ccaJ4oak.s:28308  .debug_str:000000000001cce6 .LASF156
C:\Users\CYMR90~1\AppData\Local\Temp\ccaJ4oak.s:28422  .debug_str:000000000001d52f .LASF157
C:\Users\CYMR90~1\AppData\Local\Temp\ccaJ4oak.s:24135  .debug_str:000000000000c1bd .LASF158
C:\Users\CYMR90~1\AppData\Local\Temp\ccaJ4oak.s:23203  .debug_str:000000000000852d .LASF159
C:\Users\CYMR90~1\AppData\Local\Temp\ccaJ4oak.s:27952  .debug_str:000000000001b6dc .LASF160
C:\Users\CYMR90~1\AppData\Local\Temp\ccaJ4oak.s:29368  .debug_str:0000000000020f3d .LASF161
C:\Users\CYMR90~1\AppData\Local\Temp\ccaJ4oak.s:27554  .debug_str:0000000000019c65 .LASF162
C:\Users\CYMR90~1\AppData\Local\Temp\ccaJ4oak.s:30106  .debug_str:0000000000023bbd .LASF163
C:\Users\CYMR90~1\AppData\Local\Temp\ccaJ4oak.s:31760  .debug_str:000000000002a66c .LASF164
C:\Users\CYMR90~1\AppData\Local\Temp\ccaJ4oak.s:22959  .debug_str:00000000000074ba .LASF165
C:\Users\CYMR90~1\AppData\Local\Temp\ccaJ4oak.s:31446  .debug_str:00000000000293b3 .LASF166
C:\Users\CYMR90~1\AppData\Local\Temp\ccaJ4oak.s:31272  .debug_str:000000000002892c .LASF167
C:\Users\CYMR90~1\AppData\Local\Temp\ccaJ4oak.s:30024  .debug_str:0000000000023682 .LASF168
C:\Users\CYMR90~1\AppData\Local\Temp\ccaJ4oak.s:27016  .debug_str:000000000001795d .LASF169
C:\Users\CYMR90~1\AppData\Local\Temp\ccaJ4oak.s:30888  .debug_str:0000000000026f21 .LASF170
C:\Users\CYMR90~1\AppData\Local\Temp\ccaJ4oak.s:26647  .debug_str:000000000001601f .LASF171
C:\Users\CYMR90~1\AppData\Local\Temp\ccaJ4oak.s:28216  .debug_str:000000000001c68c .LASF172
C:\Users\CYMR90~1\AppData\Local\Temp\ccaJ4oak.s:23593  .debug_str:0000000000009d8c .LASF173
C:\Users\CYMR90~1\AppData\Local\Temp\ccaJ4oak.s:29914  .debug_str:0000000000023030 .LASF174
C:\Users\CYMR90~1\AppData\Local\Temp\ccaJ4oak.s:22621  .debug_str:0000000000005f29 .LASF175
C:\Users\CYMR90~1\AppData\Local\Temp\ccaJ4oak.s:23439  .debug_str:00000000000093ca .LASF176
C:\Users\CYMR90~1\AppData\Local\Temp\ccaJ4oak.s:22099  .debug_str:0000000000003df8 .LASF177
C:\Users\CYMR90~1\AppData\Local\Temp\ccaJ4oak.s:27424  .debug_str:00000000000193b3 .LASF178
C:\Users\CYMR90~1\AppData\Local\Temp\ccaJ4oak.s:24363  .debug_str:000000000000d07b .LASF179
C:\Users\CYMR90~1\AppData\Local\Temp\ccaJ4oak.s:21609  .debug_str:0000000000001f94 .LASF180
C:\Users\CYMR90~1\AppData\Local\Temp\ccaJ4oak.s:32070  .debug_str:000000000002b96f .LASF181
C:\Users\CYMR90~1\AppData\Local\Temp\ccaJ4oak.s:21385  .debug_str:00000000000011e6 .LASF182
C:\Users\CYMR90~1\AppData\Local\Temp\ccaJ4oak.s:25971  .debug_str:000000000001367d .LASF183
C:\Users\CYMR90~1\AppData\Local\Temp\ccaJ4oak.s:26383  .debug_str:000000000001501a .LASF184
C:\Users\CYMR90~1\AppData\Local\Temp\ccaJ4oak.s:31282  .debug_str:00000000000289db .LASF185
C:\Users\CYMR90~1\AppData\Local\Temp\ccaJ4oak.s:24467  .debug_str:000000000000d7a7 .LASF186
C:\Users\CYMR90~1\AppData\Local\Temp\ccaJ4oak.s:22945  .debug_str:0000000000007393 .LASF187
C:\Users\CYMR90~1\AppData\Local\Temp\ccaJ4oak.s:28938  .debug_str:000000000001f536 .LASF188
C:\Users\CYMR90~1\AppData\Local\Temp\ccaJ4oak.s:24745  .debug_str:000000000000e82e .LASF189
C:\Users\CYMR90~1\AppData\Local\Temp\ccaJ4oak.s:26075  .debug_str:0000000000013cff .LASF190
C:\Users\CYMR90~1\AppData\Local\Temp\ccaJ4oak.s:29426  .debug_str:000000000002126b .LASF191
C:\Users\CYMR90~1\AppData\Local\Temp\ccaJ4oak.s:26805  .debug_str:0000000000016aaf .LASF192
C:\Users\CYMR90~1\AppData\Local\Temp\ccaJ4oak.s:29662  .debug_str:0000000000022115 .LASF193
C:\Users\CYMR90~1\AppData\Local\Temp\ccaJ4oak.s:22575  .debug_str:0000000000005c6b .LASF194
C:\Users\CYMR90~1\AppData\Local\Temp\ccaJ4oak.s:21927  .debug_str:000000000000332f .LASF195
C:\Users\CYMR90~1\AppData\Local\Temp\ccaJ4oak.s:24567  .debug_str:000000000000dd0c .LASF196
C:\Users\CYMR90~1\AppData\Local\Temp\ccaJ4oak.s:25481  .debug_str:00000000000115a8 .LASF197
C:\Users\CYMR90~1\AppData\Local\Temp\ccaJ4oak.s:22427  .debug_str:0000000000005352 .LASF198
C:\Users\CYMR90~1\AppData\Local\Temp\ccaJ4oak.s:31170  .debug_str:00000000000281b0 .LASF199
C:\Users\CYMR90~1\AppData\Local\Temp\ccaJ4oak.s:30120  .debug_str:0000000000023c88 .LASF200
C:\Users\CYMR90~1\AppData\Local\Temp\ccaJ4oak.s:28430  .debug_str:000000000001d58d .LASF201
C:\Users\CYMR90~1\AppData\Local\Temp\ccaJ4oak.s:23569  .debug_str:0000000000009c13 .LASF202
C:\Users\CYMR90~1\AppData\Local\Temp\ccaJ4oak.s:31618  .debug_str:0000000000029dfc .LASF203
C:\Users\CYMR90~1\AppData\Local\Temp\ccaJ4oak.s:21939  .debug_str:0000000000003400 .LASF204
C:\Users\CYMR90~1\AppData\Local\Temp\ccaJ4oak.s:24981  .debug_str:000000000000f617 .LASF205
C:\Users\CYMR90~1\AppData\Local\Temp\ccaJ4oak.s:31356  .debug_str:0000000000028e30 .LASF206
C:\Users\CYMR90~1\AppData\Local\Temp\ccaJ4oak.s:26195  .debug_str:0000000000014459 .LASF207
C:\Users\CYMR90~1\AppData\Local\Temp\ccaJ4oak.s:28976  .debug_str:000000000001f756 .LASF208
C:\Users\CYMR90~1\AppData\Local\Temp\ccaJ4oak.s:24201  .debug_str:000000000000c5e7 .LASF209
C:\Users\CYMR90~1\AppData\Local\Temp\ccaJ4oak.s:32286  .debug_str:000000000002c796 .LASF210
C:\Users\CYMR90~1\AppData\Local\Temp\ccaJ4oak.s:26167  .debug_str:00000000000142b1 .LASF211
C:\Users\CYMR90~1\AppData\Local\Temp\ccaJ4oak.s:28822  .debug_str:000000000001ede1 .LASF212
C:\Users\CYMR90~1\AppData\Local\Temp\ccaJ4oak.s:27444  .debug_str:00000000000194e1 .LASF213
C:\Users\CYMR90~1\AppData\Local\Temp\ccaJ4oak.s:22663  .debug_str:00000000000061db .LASF214
C:\Users\CYMR90~1\AppData\Local\Temp\ccaJ4oak.s:26175  .debug_str:0000000000014321 .LASF215
C:\Users\CYMR90~1\AppData\Local\Temp\ccaJ4oak.s:28138  .debug_str:000000000001c213 .LASF216
C:\Users\CYMR90~1\AppData\Local\Temp\ccaJ4oak.s:29086  .debug_str:000000000001fdf5 .LASF217
C:\Users\CYMR90~1\AppData\Local\Temp\ccaJ4oak.s:25059  .debug_str:000000000000fb1a .LASF218
C:\Users\CYMR90~1\AppData\Local\Temp\ccaJ4oak.s:30488  .debug_str:00000000000255d4 .LASF219
C:\Users\CYMR90~1\AppData\Local\Temp\ccaJ4oak.s:30298  .debug_str:0000000000024870 .LASF220
C:\Users\CYMR90~1\AppData\Local\Temp\ccaJ4oak.s:29814  .debug_str:00000000000229f0 .LASF221
C:\Users\CYMR90~1\AppData\Local\Temp\ccaJ4oak.s:26455  .debug_str:00000000000154a6 .LASF222
C:\Users\CYMR90~1\AppData\Local\Temp\ccaJ4oak.s:22631  .debug_str:0000000000005fab .LASF223
C:\Users\CYMR90~1\AppData\Local\Temp\ccaJ4oak.s:23303  .debug_str:0000000000008b5d .LASF224
C:\Users\CYMR90~1\AppData\Local\Temp\ccaJ4oak.s:31942  .debug_str:000000000002b0dc .LASF225
C:\Users\CYMR90~1\AppData\Local\Temp\ccaJ4oak.s:24639  .debug_str:000000000000e19a .LASF226
C:\Users\CYMR90~1\AppData\Local\Temp\ccaJ4oak.s:28292  .debug_str:000000000001cbd2 .LASF227
C:\Users\CYMR90~1\AppData\Local\Temp\ccaJ4oak.s:28148  .debug_str:000000000001c2b9 .LASF228
C:\Users\CYMR90~1\AppData\Local\Temp\ccaJ4oak.s:24581  .debug_str:000000000000dde9 .LASF229
C:\Users\CYMR90~1\AppData\Local\Temp\ccaJ4oak.s:28862  .debug_str:000000000001f04c .LASF230
C:\Users\CYMR90~1\AppData\Local\Temp\ccaJ4oak.s:23355  .debug_str:0000000000008eae .LASF231
C:\Users\CYMR90~1\AppData\Local\Temp\ccaJ4oak.s:22673  .debug_str:000000000000628a .LASF232
C:\Users\CYMR90~1\AppData\Local\Temp\ccaJ4oak.s:23255  .debug_str:0000000000008840 .LASF233
C:\Users\CYMR90~1\AppData\Local\Temp\ccaJ4oak.s:25251  .debug_str:0000000000010718 .LASF234
C:\Users\CYMR90~1\AppData\Local\Temp\ccaJ4oak.s:24977  .debug_str:000000000000f5cf .LASF235
C:\Users\CYMR90~1\AppData\Local\Temp\ccaJ4oak.s:30032  .debug_str:000000000002372e .LASF236
C:\Users\CYMR90~1\AppData\Local\Temp\ccaJ4oak.s:24997  .debug_str:000000000000f700 .LASF237
C:\Users\CYMR90~1\AppData\Local\Temp\ccaJ4oak.s:30706  .debug_str:0000000000026410 .LASF238
C:\Users\CYMR90~1\AppData\Local\Temp\ccaJ4oak.s:30014  .debug_str:00000000000235df .LASF239
C:\Users\CYMR90~1\AppData\Local\Temp\ccaJ4oak.s:30264  .debug_str:0000000000024642 .LASF240
C:\Users\CYMR90~1\AppData\Local\Temp\ccaJ4oak.s:23069  .debug_str:0000000000007b9d .LASF241
C:\Users\CYMR90~1\AppData\Local\Temp\ccaJ4oak.s:24661  .debug_str:000000000000e2e7 .LASF242
C:\Users\CYMR90~1\AppData\Local\Temp\ccaJ4oak.s:25641  .debug_str:00000000000120b2 .LASF243
C:\Users\CYMR90~1\AppData\Local\Temp\ccaJ4oak.s:30044  .debug_str:00000000000237d8 .LASF244
C:\Users\CYMR90~1\AppData\Local\Temp\ccaJ4oak.s:25841  .debug_str:0000000000012d7d .LASF245
C:\Users\CYMR90~1\AppData\Local\Temp\ccaJ4oak.s:28872  .debug_str:000000000001f114 .LASF246
C:\Users\CYMR90~1\AppData\Local\Temp\ccaJ4oak.s:27216  .debug_str:0000000000018577 .LASF247
C:\Users\CYMR90~1\AppData\Local\Temp\ccaJ4oak.s:26739  .debug_str:00000000000165ba .LASF248
C:\Users\CYMR90~1\AppData\Local\Temp\ccaJ4oak.s:28230  .debug_str:000000000001c79f .LASF249
C:\Users\CYMR90~1\AppData\Local\Temp\ccaJ4oak.s:27610  .debug_str:0000000000019f98 .LASF250
C:\Users\CYMR90~1\AppData\Local\Temp\ccaJ4oak.s:28166  .debug_str:000000000001c3c4 .LASF251
C:\Users\CYMR90~1\AppData\Local\Temp\ccaJ4oak.s:29864  .debug_str:0000000000022d63 .LASF252
C:\Users\CYMR90~1\AppData\Local\Temp\ccaJ4oak.s:24551  .debug_str:000000000000dc4a .LASF253
C:\Users\CYMR90~1\AppData\Local\Temp\ccaJ4oak.s:30558  .debug_str:0000000000025b16 .LASF254
C:\Users\CYMR90~1\AppData\Local\Temp\ccaJ4oak.s:24407  .debug_str:000000000000d33f .LASF255
C:\Users\CYMR90~1\AppData\Local\Temp\ccaJ4oak.s:27520  .debug_str:0000000000019a2b .LASF256
C:\Users\CYMR90~1\AppData\Local\Temp\ccaJ4oak.s:24657  .debug_str:000000000000e2a0 .LASF257
C:\Users\CYMR90~1\AppData\Local\Temp\ccaJ4oak.s:28810  .debug_str:000000000001ed04 .LASF258
C:\Users\CYMR90~1\AppData\Local\Temp\ccaJ4oak.s:23865  .debug_str:000000000000af0b .LASF259
C:\Users\CYMR90~1\AppData\Local\Temp\ccaJ4oak.s:21273  .debug_str:0000000000000a96 .LASF260
C:\Users\CYMR90~1\AppData\Local\Temp\ccaJ4oak.s:29858  .debug_str:0000000000022ce9 .LASF261
C:\Users\CYMR90~1\AppData\Local\Temp\ccaJ4oak.s:31150  .debug_str:000000000002800f .LASF262
C:\Users\CYMR90~1\AppData\Local\Temp\ccaJ4oak.s:26147  .debug_str:0000000000014145 .LASF263
C:\Users\CYMR90~1\AppData\Local\Temp\ccaJ4oak.s:28122  .debug_str:000000000001c126 .LASF264
C:\Users\CYMR90~1\AppData\Local\Temp\ccaJ4oak.s:25109  .debug_str:000000000000fe43 .LASF265
C:\Users\CYMR90~1\AppData\Local\Temp\ccaJ4oak.s:24583  .debug_str:000000000000de2a .LASF266
C:\Users\CYMR90~1\AppData\Local\Temp\ccaJ4oak.s:23917  .debug_str:000000000000b328 .LASF267
C:\Users\CYMR90~1\AppData\Local\Temp\ccaJ4oak.s:28218  .debug_str:000000000001c6a1 .LASF268
C:\Users\CYMR90~1\AppData\Local\Temp\ccaJ4oak.s:24221  .debug_str:000000000000c731 .LASF269
C:\Users\CYMR90~1\AppData\Local\Temp\ccaJ4oak.s:25173  .debug_str:0000000000010268 .LASF270
C:\Users\CYMR90~1\AppData\Local\Temp\ccaJ4oak.s:26427  .debug_str:00000000000152da .LASF271
C:\Users\CYMR90~1\AppData\Local\Temp\ccaJ4oak.s:30806  .debug_str:0000000000026a38 .LASF272
C:\Users\CYMR90~1\AppData\Local\Temp\ccaJ4oak.s:22837  .debug_str:0000000000006c55 .LASF273
C:\Users\CYMR90~1\AppData\Local\Temp\ccaJ4oak.s:21727  .debug_str:000000000000264c .LASF274
C:\Users\CYMR90~1\AppData\Local\Temp\ccaJ4oak.s:22927  .debug_str:000000000000725c .LASF275
C:\Users\CYMR90~1\AppData\Local\Temp\ccaJ4oak.s:24283  .debug_str:000000000000cb95 .LASF276
C:\Users\CYMR90~1\AppData\Local\Temp\ccaJ4oak.s:24119  .debug_str:000000000000c0a9 .LASF277
C:\Users\CYMR90~1\AppData\Local\Temp\ccaJ4oak.s:21409  .debug_str:0000000000001305 .LASF278
C:\Users\CYMR90~1\AppData\Local\Temp\ccaJ4oak.s:22761  .debug_str:000000000000678d .LASF279
C:\Users\CYMR90~1\AppData\Local\Temp\ccaJ4oak.s:31468  .debug_str:00000000000294c1 .LASF280
C:\Users\CYMR90~1\AppData\Local\Temp\ccaJ4oak.s:23617  .debug_str:0000000000009ef7 .LASF281
C:\Users\CYMR90~1\AppData\Local\Temp\ccaJ4oak.s:22727  .debug_str:00000000000065db .LASF282
C:\Users\CYMR90~1\AppData\Local\Temp\ccaJ4oak.s:22625  .debug_str:0000000000005f59 .LASF283
C:\Users\CYMR90~1\AppData\Local\Temp\ccaJ4oak.s:22379  .debug_str:00000000000050ab .LASF284
C:\Users\CYMR90~1\AppData\Local\Temp\ccaJ4oak.s:30368  .debug_str:0000000000024d15 .LASF285
C:\Users\CYMR90~1\AppData\Local\Temp\ccaJ4oak.s:31184  .debug_str:00000000000282c5 .LASF286
C:\Users\CYMR90~1\AppData\Local\Temp\ccaJ4oak.s:31454  .debug_str:00000000000293fb .LASF287
C:\Users\CYMR90~1\AppData\Local\Temp\ccaJ4oak.s:31370  .debug_str:0000000000028ee8 .LASF288
C:\Users\CYMR90~1\AppData\Local\Temp\ccaJ4oak.s:32218  .debug_str:000000000002c33c .LASF289
C:\Users\CYMR90~1\AppData\Local\Temp\ccaJ4oak.s:27160  .debug_str:0000000000018234 .LASF290
C:\Users\CYMR90~1\AppData\Local\Temp\ccaJ4oak.s:26199  .debug_str:000000000001447f .LASF291
C:\Users\CYMR90~1\AppData\Local\Temp\ccaJ4oak.s:30404  .debug_str:0000000000024f75 .LASF292
C:\Users\CYMR90~1\AppData\Local\Temp\ccaJ4oak.s:22013  .debug_str:0000000000003896 .LASF293
C:\Users\CYMR90~1\AppData\Local\Temp\ccaJ4oak.s:29320  .debug_str:0000000000020c72 .LASF294
C:\Users\CYMR90~1\AppData\Local\Temp\ccaJ4oak.s:22301  .debug_str:0000000000004be4 .LASF295
C:\Users\CYMR90~1\AppData\Local\Temp\ccaJ4oak.s:31804  .debug_str:000000000002a91a .LASF296
C:\Users\CYMR90~1\AppData\Local\Temp\ccaJ4oak.s:31990  .debug_str:000000000002b3cf .LASF297
C:\Users\CYMR90~1\AppData\Local\Temp\ccaJ4oak.s:27036  .debug_str:0000000000017ad6 .LASF298
C:\Users\CYMR90~1\AppData\Local\Temp\ccaJ4oak.s:21257  .debug_str:0000000000000990 .LASF299
C:\Users\CYMR90~1\AppData\Local\Temp\ccaJ4oak.s:25079  .debug_str:000000000000fc5b .LASF300
C:\Users\CYMR90~1\AppData\Local\Temp\ccaJ4oak.s:27790  .debug_str:000000000001ac78 .LASF301
C:\Users\CYMR90~1\AppData\Local\Temp\ccaJ4oak.s:26313  .debug_str:0000000000014b63 .LASF302
C:\Users\CYMR90~1\AppData\Local\Temp\ccaJ4oak.s:25787  .debug_str:0000000000012a30 .LASF303
C:\Users\CYMR90~1\AppData\Local\Temp\ccaJ4oak.s:21649  .debug_str:00000000000021b1 .LASF304
C:\Users\CYMR90~1\AppData\Local\Temp\ccaJ4oak.s:24229  .debug_str:000000000000c7b5 .LASF305
C:\Users\CYMR90~1\AppData\Local\Temp\ccaJ4oak.s:24383  .debug_str:000000000000d18c .LASF306
C:\Users\CYMR90~1\AppData\Local\Temp\ccaJ4oak.s:25095  .debug_str:000000000000fd64 .LASF307
C:\Users\CYMR90~1\AppData\Local\Temp\ccaJ4oak.s:30388  .debug_str:0000000000024e60 .LASF308
C:\Users\CYMR90~1\AppData\Local\Temp\ccaJ4oak.s:29980  .debug_str:00000000000233cb .LASF309
C:\Users\CYMR90~1\AppData\Local\Temp\ccaJ4oak.s:24641  .debug_str:000000000000e1b3 .LASF310
C:\Users\CYMR90~1\AppData\Local\Temp\ccaJ4oak.s:30702  .debug_str:00000000000263e5 .LASF311
C:\Users\CYMR90~1\AppData\Local\Temp\ccaJ4oak.s:30214  .debug_str:00000000000242ed .LASF312
C:\Users\CYMR90~1\AppData\Local\Temp\ccaJ4oak.s:24345  .debug_str:000000000000cf0d .LASF313
C:\Users\CYMR90~1\AppData\Local\Temp\ccaJ4oak.s:27300  .debug_str:0000000000018ab0 .LASF316
C:\Users\CYMR90~1\AppData\Local\Temp\ccaJ4oak.s:27662  .debug_str:000000000001a299 .LASF317
C:\Users\CYMR90~1\AppData\Local\Temp\ccaJ4oak.s:28012  .debug_str:000000000001ba6c .LASF318
C:\Users\CYMR90~1\AppData\Local\Temp\ccaJ4oak.s:25087  .debug_str:000000000000fcf8 .LASF319
C:\Users\CYMR90~1\AppData\Local\Temp\ccaJ4oak.s:23987  .debug_str:000000000000b7ad .LASF320
C:\Users\CYMR90~1\AppData\Local\Temp\ccaJ4oak.s:31416  .debug_str:00000000000291e4 .LASF321
C:\Users\CYMR90~1\AppData\Local\Temp\ccaJ4oak.s:24549  .debug_str:000000000000dc3d .LASF322
C:\Users\CYMR90~1\AppData\Local\Temp\ccaJ4oak.s:30652  .debug_str:00000000000260ab .LASF323
C:\Users\CYMR90~1\AppData\Local\Temp\ccaJ4oak.s:21137  .debug_str:0000000000000230 .LASF324
C:\Users\CYMR90~1\AppData\Local\Temp\ccaJ4oak.s:31824  .debug_str:000000000002aa1d .LASF325
C:\Users\CYMR90~1\AppData\Local\Temp\ccaJ4oak.s:22069  .debug_str:0000000000003beb .LASF326
C:\Users\CYMR90~1\AppData\Local\Temp\ccaJ4oak.s:26135  .debug_str:0000000000014088 .LASF327
C:\Users\CYMR90~1\AppData\Local\Temp\ccaJ4oak.s:25789  .debug_str:0000000000012a45 .LASF328
C:\Users\CYMR90~1\AppData\Local\Temp\ccaJ4oak.s:28660  .debug_str:000000000001e3fd .LASF329
C:\Users\CYMR90~1\AppData\Local\Temp\ccaJ4oak.s:28652  .debug_str:000000000001e3ac .LASF330
C:\Users\CYMR90~1\AppData\Local\Temp\ccaJ4oak.s:30850  .debug_str:0000000000026cca .LASF331
C:\Users\CYMR90~1\AppData\Local\Temp\ccaJ4oak.s:31396  .debug_str:0000000000029092 .LASF332
C:\Users\CYMR90~1\AppData\Local\Temp\ccaJ4oak.s:31582  .debug_str:0000000000029bcd .LASF333
C:\Users\CYMR90~1\AppData\Local\Temp\ccaJ4oak.s:27636  .debug_str:000000000001a11e .LASF334
C:\Users\CYMR90~1\AppData\Local\Temp\ccaJ4oak.s:27082  .debug_str:0000000000017d84 .LASF335
C:\Users\CYMR90~1\AppData\Local\Temp\ccaJ4oak.s:31436  .debug_str:0000000000029324 .LASF336
C:\Users\CYMR90~1\AppData\Local\Temp\ccaJ4oak.s:25705  .debug_str:00000000000124dc .LASF337
C:\Users\CYMR90~1\AppData\Local\Temp\ccaJ4oak.s:29376  .debug_str:0000000000020fa9 .LASF338
C:\Users\CYMR90~1\AppData\Local\Temp\ccaJ4oak.s:23733  .debug_str:000000000000a64b .LASF339
C:\Users\CYMR90~1\AppData\Local\Temp\ccaJ4oak.s:25925  .debug_str:0000000000013309 .LASF340
C:\Users\CYMR90~1\AppData\Local\Temp\ccaJ4oak.s:27840  .debug_str:000000000001af8d .LASF341
C:\Users\CYMR90~1\AppData\Local\Temp\ccaJ4oak.s:24051  .debug_str:000000000000bc01 .LASF342
C:\Users\CYMR90~1\AppData\Local\Temp\ccaJ4oak.s:21391  .debug_str:0000000000001231 .LASF343
C:\Users\CYMR90~1\AppData\Local\Temp\ccaJ4oak.s:31550  .debug_str:00000000000299e8 .LASF344
C:\Users\CYMR90~1\AppData\Local\Temp\ccaJ4oak.s:32158  .debug_str:000000000002bf12 .LASF345
C:\Users\CYMR90~1\AppData\Local\Temp\ccaJ4oak.s:24967  .debug_str:000000000000f547 .LASF346
C:\Users\CYMR90~1\AppData\Local\Temp\ccaJ4oak.s:21245  .debug_str:00000000000008d9 .LASF347
C:\Users\CYMR90~1\AppData\Local\Temp\ccaJ4oak.s:29168  .debug_str:00000000000202ef .LASF348
C:\Users\CYMR90~1\AppData\Local\Temp\ccaJ4oak.s:31160  .debug_str:00000000000280de .LASF349
C:\Users\CYMR90~1\AppData\Local\Temp\ccaJ4oak.s:28654  .debug_str:000000000001e3b8 .LASF350
C:\Users\CYMR90~1\AppData\Local\Temp\ccaJ4oak.s:21179  .debug_str:00000000000004dc .LASF351
C:\Users\CYMR90~1\AppData\Local\Temp\ccaJ4oak.s:28942  .debug_str:000000000001f566 .LASF352
C:\Users\CYMR90~1\AppData\Local\Temp\ccaJ4oak.s:30644  .debug_str:0000000000026041 .LASF353
C:\Users\CYMR90~1\AppData\Local\Temp\ccaJ4oak.s:28278  .debug_str:000000000001cb20 .LASF354
C:\Users\CYMR90~1\AppData\Local\Temp\ccaJ4oak.s:28446  .debug_str:000000000001d6ca .LASF355
C:\Users\CYMR90~1\AppData\Local\Temp\ccaJ4oak.s:24433  .debug_str:000000000000d57b .LASF356
C:\Users\CYMR90~1\AppData\Local\Temp\ccaJ4oak.s:27594  .debug_str:0000000000019ec6 .LASF357
C:\Users\CYMR90~1\AppData\Local\Temp\ccaJ4oak.s:31070  .debug_str:0000000000027ab3 .LASF358
C:\Users\CYMR90~1\AppData\Local\Temp\ccaJ4oak.s:25779  .debug_str:0000000000012985 .LASF359
C:\Users\CYMR90~1\AppData\Local\Temp\ccaJ4oak.s:23835  .debug_str:000000000000ad43 .LASF360
C:\Users\CYMR90~1\AppData\Local\Temp\ccaJ4oak.s:28824  .debug_str:000000000001edf9 .LASF361
C:\Users\CYMR90~1\AppData\Local\Temp\ccaJ4oak.s:25509  .debug_str:00000000000117a7 .LASF362
C:\Users\CYMR90~1\AppData\Local\Temp\ccaJ4oak.s:31340  .debug_str:0000000000028d55 .LASF363
C:\Users\CYMR90~1\AppData\Local\Temp\ccaJ4oak.s:23381  .debug_str:0000000000009070 .LASF364
C:\Users\CYMR90~1\AppData\Local\Temp\ccaJ4oak.s:31234  .debug_str:000000000002866b .LASF365
C:\Users\CYMR90~1\AppData\Local\Temp\ccaJ4oak.s:22797  .debug_str:0000000000006a18 .LASF366
C:\Users\CYMR90~1\AppData\Local\Temp\ccaJ4oak.s:32152  .debug_str:000000000002beba .LASF367
C:\Users\CYMR90~1\AppData\Local\Temp\ccaJ4oak.s:23077  .debug_str:0000000000007c1b .LASF368
C:\Users\CYMR90~1\AppData\Local\Temp\ccaJ4oak.s:27128  .debug_str:0000000000018051 .LASF372
C:\Users\CYMR90~1\AppData\Local\Temp\ccaJ4oak.s:30890  .debug_str:0000000000026f66 .LASF373
C:\Users\CYMR90~1\AppData\Local\Temp\ccaJ4oak.s:23813  .debug_str:000000000000abe2 .LASF374
C:\Users\CYMR90~1\AppData\Local\Temp\ccaJ4oak.s:26916  .debug_str:000000000001737f .LASF375
C:\Users\CYMR90~1\AppData\Local\Temp\ccaJ4oak.s:27114  .debug_str:0000000000017f89 .LASF376
C:\Users\CYMR90~1\AppData\Local\Temp\ccaJ4oak.s:29628  .debug_str:0000000000021f31 .LASF377
C:\Users\CYMR90~1\AppData\Local\Temp\ccaJ4oak.s:28294  .debug_str:000000000001cbeb .LASF378
C:\Users\CYMR90~1\AppData\Local\Temp\ccaJ4oak.s:31982  .debug_str:000000000002b35c .LASF379
C:\Users\CYMR90~1\AppData\Local\Temp\ccaJ4oak.s:21745  .debug_str:000000000000279e .LASF380
C:\Users\CYMR90~1\AppData\Local\Temp\ccaJ4oak.s:31924  .debug_str:000000000002aff0 .LASF381
C:\Users\CYMR90~1\AppData\Local\Temp\ccaJ4oak.s:28020  .debug_str:000000000001babd .LASF382
C:\Users\CYMR90~1\AppData\Local\Temp\ccaJ4oak.s:22853  .debug_str:0000000000006d62 .LASF383
C:\Users\CYMR90~1\AppData\Local\Temp\ccaJ4oak.s:24459  .debug_str:000000000000d712 .LASF384
C:\Users\CYMR90~1\AppData\Local\Temp\ccaJ4oak.s:27536  .debug_str:0000000000019b48 .LASF385
C:\Users\CYMR90~1\AppData\Local\Temp\ccaJ4oak.s:25201  .debug_str:000000000001042e .LASF386
C:\Users\CYMR90~1\AppData\Local\Temp\ccaJ4oak.s:21675  .debug_str:0000000000002350 .LASF387
C:\Users\CYMR90~1\AppData\Local\Temp\ccaJ4oak.s:24809  .debug_str:000000000000ebf8 .LASF388
C:\Users\CYMR90~1\AppData\Local\Temp\ccaJ4oak.s:23353  .debug_str:0000000000008e9a .LASF389
C:\Users\CYMR90~1\AppData\Local\Temp\ccaJ4oak.s:22165  .debug_str:00000000000042b9 .LASF391
C:\Users\CYMR90~1\AppData\Local\Temp\ccaJ4oak.s:25209  .debug_str:000000000001049a .LASF392
C:\Users\CYMR90~1\AppData\Local\Temp\ccaJ4oak.s:29266  .debug_str:000000000002095f .LASF393
C:\Users\CYMR90~1\AppData\Local\Temp\ccaJ4oak.s:31028  .debug_str:0000000000027828 .LASF394
C:\Users\CYMR90~1\AppData\Local\Temp\ccaJ4oak.s:21701  .debug_str:00000000000024ae .LASF395
C:\Users\CYMR90~1\AppData\Local\Temp\ccaJ4oak.s:23859  .debug_str:000000000000aea7 .LASF396
C:\Users\CYMR90~1\AppData\Local\Temp\ccaJ4oak.s:27642  .debug_str:000000000001a17e .LASF397
C:\Users\CYMR90~1\AppData\Local\Temp\ccaJ4oak.s:31802  .debug_str:000000000002a908 .LASF398
C:\Users\CYMR90~1\AppData\Local\Temp\ccaJ4oak.s:26483  .debug_str:000000000001563a .LASF399
C:\Users\CYMR90~1\AppData\Local\Temp\ccaJ4oak.s:28902  .debug_str:000000000001f2df .LASF400
C:\Users\CYMR90~1\AppData\Local\Temp\ccaJ4oak.s:23343  .debug_str:0000000000008da5 .LASF401
C:\Users\CYMR90~1\AppData\Local\Temp\ccaJ4oak.s:26968  .debug_str:0000000000017664 .LASF402
C:\Users\CYMR90~1\AppData\Local\Temp\ccaJ4oak.s:22693  .debug_str:00000000000063d2 .LASF403
C:\Users\CYMR90~1\AppData\Local\Temp\ccaJ4oak.s:23789  .debug_str:000000000000aa72 .LASF404
C:\Users\CYMR90~1\AppData\Local\Temp\ccaJ4oak.s:24865  .debug_str:000000000000ef1b .LASF405
C:\Users\CYMR90~1\AppData\Local\Temp\ccaJ4oak.s:28202  .debug_str:000000000001c5cb .LASF406
C:\Users\CYMR90~1\AppData\Local\Temp\ccaJ4oak.s:26407  .debug_str:00000000000151c7 .LASF407
C:\Users\CYMR90~1\AppData\Local\Temp\ccaJ4oak.s:27376  .debug_str:0000000000018ffd .LASF408
C:\Users\CYMR90~1\AppData\Local\Temp\ccaJ4oak.s:29574  .debug_str:0000000000021bf3 .LASF409
C:\Users\CYMR90~1\AppData\Local\Temp\ccaJ4oak.s:22645  .debug_str:00000000000060cc .LASF410
C:\Users\CYMR90~1\AppData\Local\Temp\ccaJ4oak.s:26593  .debug_str:0000000000015c84 .LASF411
C:\Users\CYMR90~1\AppData\Local\Temp\ccaJ4oak.s:29696  .debug_str:0000000000022335 .LASF412
C:\Users\CYMR90~1\AppData\Local\Temp\ccaJ4oak.s:22829  .debug_str:0000000000006bf5 .LASF413
C:\Users\CYMR90~1\AppData\Local\Temp\ccaJ4oak.s:31430  .debug_str:00000000000292bd .LASF414
C:\Users\CYMR90~1\AppData\Local\Temp\ccaJ4oak.s:24969  .debug_str:000000000000f555 .LASF415
C:\Users\CYMR90~1\AppData\Local\Temp\ccaJ4oak.s:30762  .debug_str:000000000002677e .LASF416
C:\Users\CYMR90~1\AppData\Local\Temp\ccaJ4oak.s:32284  .debug_str:000000000002c78b .LASF417
C:\Users\CYMR90~1\AppData\Local\Temp\ccaJ4oak.s:23273  .debug_str:0000000000008969 .LASF418
C:\Users\CYMR90~1\AppData\Local\Temp\ccaJ4oak.s:31644  .debug_str:0000000000029f80 .LASF419
C:\Users\CYMR90~1\AppData\Local\Temp\ccaJ4oak.s:22897  .debug_str:0000000000007058 .LASF420
C:\Users\CYMR90~1\AppData\Local\Temp\ccaJ4oak.s:31844  .debug_str:000000000002ab33 .LASF421
C:\Users\CYMR90~1\AppData\Local\Temp\ccaJ4oak.s:24129  .debug_str:000000000000c16d .LASF422
C:\Users\CYMR90~1\AppData\Local\Temp\ccaJ4oak.s:24321  .debug_str:000000000000cdcd .LASF423
C:\Users\CYMR90~1\AppData\Local\Temp\ccaJ4oak.s:28804  .debug_str:000000000001ecc5 .LASF424
C:\Users\CYMR90~1\AppData\Local\Temp\ccaJ4oak.s:27414  .debug_str:0000000000019328 .LASF425
C:\Users\CYMR90~1\AppData\Local\Temp\ccaJ4oak.s:21149  .debug_str:00000000000002f9 .LASF426
C:\Users\CYMR90~1\AppData\Local\Temp\ccaJ4oak.s:31346  .debug_str:0000000000028db2 .LASF427
C:\Users\CYMR90~1\AppData\Local\Temp\ccaJ4oak.s:26677  .debug_str:0000000000016231 .LASF428
C:\Users\CYMR90~1\AppData\Local\Temp\ccaJ4oak.s:28580  .debug_str:000000000001dfa2 .LASF429
C:\Users\CYMR90~1\AppData\Local\Temp\ccaJ4oak.s:25151  .debug_str:00000000000100f2 .LASF430
C:\Users\CYMR90~1\AppData\Local\Temp\ccaJ4oak.s:26868  .debug_str:00000000000170b4 .LASF431
C:\Users\CYMR90~1\AppData\Local\Temp\ccaJ4oak.s:29650  .debug_str:000000000002205f .LASF432
C:\Users\CYMR90~1\AppData\Local\Temp\ccaJ4oak.s:24307  .debug_str:000000000000cd07 .LASF434
C:\Users\CYMR90~1\AppData\Local\Temp\ccaJ4oak.s:22355  .debug_str:0000000000004f2a .LASF435
C:\Users\CYMR90~1\AppData\Local\Temp\ccaJ4oak.s:27054  .debug_str:0000000000017be8 .LASF436
C:\Users\CYMR90~1\AppData\Local\Temp\ccaJ4oak.s:22915  .debug_str:0000000000007181 .LASF437
C:\Users\CYMR90~1\AppData\Local\Temp\ccaJ4oak.s:31360  .debug_str:0000000000028e53 .LASF438
C:\Users\CYMR90~1\AppData\Local\Temp\ccaJ4oak.s:21113  .debug_str:00000000000000c7 .LASF439
C:\Users\CYMR90~1\AppData\Local\Temp\ccaJ4oak.s:28840  .debug_str:000000000001eefa .LASF440
C:\Users\CYMR90~1\AppData\Local\Temp\ccaJ4oak.s:24557  .debug_str:000000000000dca2 .LASF441
C:\Users\CYMR90~1\AppData\Local\Temp\ccaJ4oak.s:29890  .debug_str:0000000000022ecb .LASF442
C:\Users\CYMR90~1\AppData\Local\Temp\ccaJ4oak.s:28774  .debug_str:000000000001eb18 .LASF443
C:\Users\CYMR90~1\AppData\Local\Temp\ccaJ4oak.s:25279  .debug_str:000000000001095b .LASF444
C:\Users\CYMR90~1\AppData\Local\Temp\ccaJ4oak.s:32278  .debug_str:000000000002c73f .LASF445
C:\Users\CYMR90~1\AppData\Local\Temp\ccaJ4oak.s:21467  .debug_str:000000000000167e .LASF446
C:\Users\CYMR90~1\AppData\Local\Temp\ccaJ4oak.s:25625  .debug_str:0000000000011fa6 .LASF447
C:\Users\CYMR90~1\AppData\Local\Temp\ccaJ4oak.s:29866  .debug_str:0000000000022d75 .LASF448
C:\Users\CYMR90~1\AppData\Local\Temp\ccaJ4oak.s:22177  .debug_str:0000000000004371 .LASF449
C:\Users\CYMR90~1\AppData\Local\Temp\ccaJ4oak.s:22937  .debug_str:000000000000730a .LASF450
C:\Users\CYMR90~1\AppData\Local\Temp\ccaJ4oak.s:21631  .debug_str:00000000000020d5 .LASF451
C:\Users\CYMR90~1\AppData\Local\Temp\ccaJ4oak.s:26321  .debug_str:0000000000014c05 .LASF452
C:\Users\CYMR90~1\AppData\Local\Temp\ccaJ4oak.s:21621  .debug_str:0000000000002062 .LASF453
C:\Users\CYMR90~1\AppData\Local\Temp\ccaJ4oak.s:32222  .debug_str:000000000002c37c .LASF454
C:\Users\CYMR90~1\AppData\Local\Temp\ccaJ4oak.s:24731  .debug_str:000000000000e704 .LASF455
C:\Users\CYMR90~1\AppData\Local\Temp\ccaJ4oak.s:29474  .debug_str:00000000000215e1 .LASF456
C:\Users\CYMR90~1\AppData\Local\Temp\ccaJ4oak.s:24403  .debug_str:000000000000d31d .LASF457
C:\Users\CYMR90~1\AppData\Local\Temp\ccaJ4oak.s:22705  .debug_str:000000000000647f .LASF458
C:\Users\CYMR90~1\AppData\Local\Temp\ccaJ4oak.s:25345  .debug_str:0000000000010e14 .LASF459
C:\Users\CYMR90~1\AppData\Local\Temp\ccaJ4oak.s:29220  .debug_str:00000000000206a3 .LASF460
C:\Users\CYMR90~1\AppData\Local\Temp\ccaJ4oak.s:30392  .debug_str:0000000000024e96 .LASF461
C:\Users\CYMR90~1\AppData\Local\Temp\ccaJ4oak.s:26837  .debug_str:0000000000016d07 .LASF462
C:\Users\CYMR90~1\AppData\Local\Temp\ccaJ4oak.s:27692  .debug_str:000000000001a5fd .LASF463
C:\Users\CYMR90~1\AppData\Local\Temp\ccaJ4oak.s:24573  .debug_str:000000000000dd6e .LASF464
C:\Users\CYMR90~1\AppData\Local\Temp\ccaJ4oak.s:25717  .debug_str:000000000001259f .LASF465
C:\Users\CYMR90~1\AppData\Local\Temp\ccaJ4oak.s:22847  .debug_str:0000000000006d1c .LASF466
C:\Users\CYMR90~1\AppData\Local\Temp\ccaJ4oak.s:23399  .debug_str:0000000000009153 .LASF467
C:\Users\CYMR90~1\AppData\Local\Temp\ccaJ4oak.s:25479  .debug_str:0000000000011591 .LASF468
C:\Users\CYMR90~1\AppData\Local\Temp\ccaJ4oak.s:21969  .debug_str:00000000000035f4 .LASF469
C:\Users\CYMR90~1\AppData\Local\Temp\ccaJ4oak.s:25243  .debug_str:0000000000010693 .LASF470
C:\Users\CYMR90~1\AppData\Local\Temp\ccaJ4oak.s:25127  .debug_str:000000000000ff67 .LASF471
C:\Users\CYMR90~1\AppData\Local\Temp\ccaJ4oak.s:24703  .debug_str:000000000000e552 .LASF472
C:\Users\CYMR90~1\AppData\Local\Temp\ccaJ4oak.s:21329  .debug_str:0000000000000e0e .LASF473
C:\Users\CYMR90~1\AppData\Local\Temp\ccaJ4oak.s:22961  .debug_str:00000000000074d1 .LASF474
C:\Users\CYMR90~1\AppData\Local\Temp\ccaJ4oak.s:21275  .debug_str:0000000000000ad4 .LASF475
C:\Users\CYMR90~1\AppData\Local\Temp\ccaJ4oak.s:22143  .debug_str:00000000000040cf .LASF476
C:\Users\CYMR90~1\AppData\Local\Temp\ccaJ4oak.s:21499  .debug_str:0000000000001908 .LASF477
C:\Users\CYMR90~1\AppData\Local\Temp\ccaJ4oak.s:26621  .debug_str:0000000000015e83 .LASF478
C:\Users\CYMR90~1\AppData\Local\Temp\ccaJ4oak.s:24005  .debug_str:000000000000b911 .LASF479
C:\Users\CYMR90~1\AppData\Local\Temp\ccaJ4oak.s:31840  .debug_str:000000000002ab03 .LASF480
C:\Users\CYMR90~1\AppData\Local\Temp\ccaJ4oak.s:27210  .debug_str:000000000001851d .LASF481
C:\Users\CYMR90~1\AppData\Local\Temp\ccaJ4oak.s:23927  .debug_str:000000000000b3bd .LASF482
C:\Users\CYMR90~1\AppData\Local\Temp\ccaJ4oak.s:22749  .debug_str:00000000000066fa .LASF483
C:\Users\CYMR90~1\AppData\Local\Temp\ccaJ4oak.s:21241  .debug_str:0000000000000892 .LASF484
C:\Users\CYMR90~1\AppData\Local\Temp\ccaJ4oak.s:27158  .debug_str:0000000000018211 .LASF485
C:\Users\CYMR90~1\AppData\Local\Temp\ccaJ4oak.s:22365  .debug_str:0000000000004fc8 .LASF486
C:\Users\CYMR90~1\AppData\Local\Temp\ccaJ4oak.s:26073  .debug_str:0000000000013ce9 .LASF487
C:\Users\CYMR90~1\AppData\Local\Temp\ccaJ4oak.s:25267  .debug_str:00000000000108b7 .LASF488
C:\Users\CYMR90~1\AppData\Local\Temp\ccaJ4oak.s:25845  .debug_str:0000000000012ddf .LASF489
C:\Users\CYMR90~1\AppData\Local\Temp\ccaJ4oak.s:24285  .debug_str:000000000000cbd6 .LASF490
C:\Users\CYMR90~1\AppData\Local\Temp\ccaJ4oak.s:23271  .debug_str:000000000000895b .LASF491
C:\Users\CYMR90~1\AppData\Local\Temp\ccaJ4oak.s:24927  .debug_str:000000000000f2c6 .LASF492
C:\Users\CYMR90~1\AppData\Local\Temp\ccaJ4oak.s:23279  .debug_str:00000000000089e0 .LASF493
C:\Users\CYMR90~1\AppData\Local\Temp\ccaJ4oak.s:25133  .debug_str:000000000000ffdb .LASF494
C:\Users\CYMR90~1\AppData\Local\Temp\ccaJ4oak.s:27404  .debug_str:00000000000192a5 .LASF495
C:\Users\CYMR90~1\AppData\Local\Temp\ccaJ4oak.s:32304  .debug_str:000000000002c8bb .LASF496
C:\Users\CYMR90~1\AppData\Local\Temp\ccaJ4oak.s:32240  .debug_str:000000000002c4e1 .LASF497
C:\Users\CYMR90~1\AppData\Local\Temp\ccaJ4oak.s:24973  .debug_str:000000000000f59c .LASF498
C:\Users\CYMR90~1\AppData\Local\Temp\ccaJ4oak.s:31680  .debug_str:000000000002a18e .LASF499
C:\Users\CYMR90~1\AppData\Local\Temp\ccaJ4oak.s:31554  .debug_str:0000000000029a0b .LASF500
C:\Users\CYMR90~1\AppData\Local\Temp\ccaJ4oak.s:26281  .debug_str:0000000000014989 .LASF501
C:\Users\CYMR90~1\AppData\Local\Temp\ccaJ4oak.s:31506  .debug_str:000000000002974a .LASF502
C:\Users\CYMR90~1\AppData\Local\Temp\ccaJ4oak.s:26227  .debug_str:00000000000145ed .LASF503
C:\Users\CYMR90~1\AppData\Local\Temp\ccaJ4oak.s:21837  .debug_str:0000000000002d74 .LASF504
C:\Users\CYMR90~1\AppData\Local\Temp\ccaJ4oak.s:30148  .debug_str:0000000000023e0a .LASF505
C:\Users\CYMR90~1\AppData\Local\Temp\ccaJ4oak.s:31024  .debug_str:00000000000277ed .LASF506
C:\Users\CYMR90~1\AppData\Local\Temp\ccaJ4oak.s:30598  .debug_str:0000000000025d66 .LASF507
C:\Users\CYMR90~1\AppData\Local\Temp\ccaJ4oak.s:27322  .debug_str:0000000000018bef .LASF508
C:\Users\CYMR90~1\AppData\Local\Temp\ccaJ4oak.s:29564  .debug_str:0000000000021b18 .LASF509
C:\Users\CYMR90~1\AppData\Local\Temp\ccaJ4oak.s:31252  .debug_str:00000000000287b6 .LASF510
C:\Users\CYMR90~1\AppData\Local\Temp\ccaJ4oak.s:27100  .debug_str:0000000000017e7e .LASF511
C:\Users\CYMR90~1\AppData\Local\Temp\ccaJ4oak.s:30878  .debug_str:0000000000026e71 .LASF512
C:\Users\CYMR90~1\AppData\Local\Temp\ccaJ4oak.s:30996  .debug_str:0000000000027659 .LASF513
C:\Users\CYMR90~1\AppData\Local\Temp\ccaJ4oak.s:31434  .debug_str:00000000000292e9 .LASF514
C:\Users\CYMR90~1\AppData\Local\Temp\ccaJ4oak.s:26003  .debug_str:00000000000138b2 .LASF515
C:\Users\CYMR90~1\AppData\Local\Temp\ccaJ4oak.s:31314  .debug_str:0000000000028bd6 .LASF516
C:\Users\CYMR90~1\AppData\Local\Temp\ccaJ4oak.s:27474  .debug_str:00000000000196b2 .LASF517
C:\Users\CYMR90~1\AppData\Local\Temp\ccaJ4oak.s:31262  .debug_str:0000000000028883 .LASF518
C:\Users\CYMR90~1\AppData\Local\Temp\ccaJ4oak.s:28130  .debug_str:000000000001c18e .LASF519
C:\Users\CYMR90~1\AppData\Local\Temp\ccaJ4oak.s:32210  .debug_str:000000000002c2b3 .LASF520
C:\Users\CYMR90~1\AppData\Local\Temp\ccaJ4oak.s:28386  .debug_str:000000000001d2fd .LASF521
C:\Users\CYMR90~1\AppData\Local\Temp\ccaJ4oak.s:30508  .debug_str:00000000000256f7 .LASF522
C:\Users\CYMR90~1\AppData\Local\Temp\ccaJ4oak.s:25887  .debug_str:0000000000013098 .LASF523
C:\Users\CYMR90~1\AppData\Local\Temp\ccaJ4oak.s:30058  .debug_str:00000000000238e3 .LASF524
C:\Users\CYMR90~1\AppData\Local\Temp\ccaJ4oak.s:23479  .debug_str:0000000000009604 .LASF525
C:\Users\CYMR90~1\AppData\Local\Temp\ccaJ4oak.s:32232  .debug_str:000000000002c3f5 .LASF526
C:\Users\CYMR90~1\AppData\Local\Temp\ccaJ4oak.s:24739  .debug_str:000000000000e782 .LASF527
C:\Users\CYMR90~1\AppData\Local\Temp\ccaJ4oak.s:25749  .debug_str:000000000001278b .LASF528
C:\Users\CYMR90~1\AppData\Local\Temp\ccaJ4oak.s:26599  .debug_str:0000000000015cdb .LASF529
C:\Users\CYMR90~1\AppData\Local\Temp\ccaJ4oak.s:26633  .debug_str:0000000000015f30 .LASF530
C:\Users\CYMR90~1\AppData\Local\Temp\ccaJ4oak.s:25665  .debug_str:0000000000012263 .LASF531
C:\Users\CYMR90~1\AppData\Local\Temp\ccaJ4oak.s:21899  .debug_str:0000000000003110 .LASF532
C:\Users\CYMR90~1\AppData\Local\Temp\ccaJ4oak.s:24409  .debug_str:000000000000d357 .LASF533
C:\Users\CYMR90~1\AppData\Local\Temp\ccaJ4oak.s:32064  .debug_str:000000000002b8b2 .LASF534
C:\Users\CYMR90~1\AppData\Local\Temp\ccaJ4oak.s:24925  .debug_str:000000000000f27a .LASF535
C:\Users\CYMR90~1\AppData\Local\Temp\ccaJ4oak.s:30252  .debug_str:0000000000024568 .LASF536
C:\Users\CYMR90~1\AppData\Local\Temp\ccaJ4oak.s:31714  .debug_str:000000000002a35c .LASF537
C:\Users\CYMR90~1\AppData\Local\Temp\ccaJ4oak.s:25497  .debug_str:00000000000116c8 .LASF538
C:\Users\CYMR90~1\AppData\Local\Temp\ccaJ4oak.s:30432  .debug_str:0000000000025120 .LASF539
C:\Users\CYMR90~1\AppData\Local\Temp\ccaJ4oak.s:28184  .debug_str:000000000001c4da .LASF540
C:\Users\CYMR90~1\AppData\Local\Temp\ccaJ4oak.s:29770  .debug_str:0000000000022767 .LASF541
C:\Users\CYMR90~1\AppData\Local\Temp\ccaJ4oak.s:28478  .debug_str:000000000001d8de .LASF542
C:\Users\CYMR90~1\AppData\Local\Temp\ccaJ4oak.s:22249  .debug_str:0000000000004831 .LASF543
C:\Users\CYMR90~1\AppData\Local\Temp\ccaJ4oak.s:24669  .debug_str:000000000000e34f .LASF544
C:\Users\CYMR90~1\AppData\Local\Temp\ccaJ4oak.s:31492  .debug_str:000000000002965d .LASF545
C:\Users\CYMR90~1\AppData\Local\Temp\ccaJ4oak.s:26013  .debug_str:0000000000013941 .LASF546
C:\Users\CYMR90~1\AppData\Local\Temp\ccaJ4oak.s:29750  .debug_str:0000000000022643 .LASF547
C:\Users\CYMR90~1\AppData\Local\Temp\ccaJ4oak.s:31978  .debug_str:000000000002b32e .LASF548
C:\Users\CYMR90~1\AppData\Local\Temp\ccaJ4oak.s:21945  .debug_str:0000000000003466 .LASF549
C:\Users\CYMR90~1\AppData\Local\Temp\ccaJ4oak.s:23105  .debug_str:0000000000007dab .LASF550
C:\Users\CYMR90~1\AppData\Local\Temp\ccaJ4oak.s:30770  .debug_str:00000000000267e1 .LASF551
C:\Users\CYMR90~1\AppData\Local\Temp\ccaJ4oak.s:22669  .debug_str:000000000000624f .LASF552
C:\Users\CYMR90~1\AppData\Local\Temp\ccaJ4oak.s:31734  .debug_str:000000000002a47b .LASF553
C:\Users\CYMR90~1\AppData\Local\Temp\ccaJ4oak.s:24079  .debug_str:000000000000bd82 .LASF554
C:\Users\CYMR90~1\AppData\Local\Temp\ccaJ4oak.s:24261  .debug_str:000000000000ca13 .LASF555
C:\Users\CYMR90~1\AppData\Local\Temp\ccaJ4oak.s:22795  .debug_str:00000000000069c5 .LASF556
C:\Users\CYMR90~1\AppData\Local\Temp\ccaJ4oak.s:22499  .debug_str:00000000000057a6 .LASF557
C:\Users\CYMR90~1\AppData\Local\Temp\ccaJ4oak.s:25611  .debug_str:0000000000011ecb .LASF558
C:\Users\CYMR90~1\AppData\Local\Temp\ccaJ4oak.s:27348  .debug_str:0000000000018e10 .LASF559
C:\Users\CYMR90~1\AppData\Local\Temp\ccaJ4oak.s:31304  .debug_str:0000000000028b2e .LASF560
C:\Users\CYMR90~1\AppData\Local\Temp\ccaJ4oak.s:21613  .debug_str:0000000000001fc8 .LASF561
C:\Users\CYMR90~1\AppData\Local\Temp\ccaJ4oak.s:25085  .debug_str:000000000000fcad .LASF562
C:\Users\CYMR90~1\AppData\Local\Temp\ccaJ4oak.s:24455  .debug_str:000000000000d6b6 .LASF563
C:\Users\CYMR90~1\AppData\Local\Temp\ccaJ4oak.s:23773  .debug_str:000000000000a889 .LASF564
C:\Users\CYMR90~1\AppData\Local\Temp\ccaJ4oak.s:29502  .debug_str:000000000002176e .LASF565
C:\Users\CYMR90~1\AppData\Local\Temp\ccaJ4oak.s:28720  .debug_str:000000000001e7a2 .LASF566
C:\Users\CYMR90~1\AppData\Local\Temp\ccaJ4oak.s:25607  .debug_str:0000000000011e83 .LASF567
C:\Users\CYMR90~1\AppData\Local\Temp\ccaJ4oak.s:29532  .debug_str:0000000000021956 .LASF568
C:\Users\CYMR90~1\AppData\Local\Temp\ccaJ4oak.s:21301  .debug_str:0000000000000c9a .LASF570
C:\Users\CYMR90~1\AppData\Local\Temp\ccaJ4oak.s:26982  .debug_str:0000000000017731 .LASF571
C:\Users\CYMR90~1\AppData\Local\Temp\ccaJ4oak.s:28126  .debug_str:000000000001c168 .LASF574
C:\Users\CYMR90~1\AppData\Local\Temp\ccaJ4oak.s:22217  .debug_str:0000000000004613 .LASF575
C:\Users\CYMR90~1\AppData\Local\Temp\ccaJ4oak.s:26233  .debug_str:0000000000014685 .LASF576
C:\Users\CYMR90~1\AppData\Local\Temp\ccaJ4oak.s:23201  .debug_str:000000000000851f .LASF577
C:\Users\CYMR90~1\AppData\Local\Temp\ccaJ4oak.s:29398  .debug_str:00000000000210d7 .LASF579
C:\Users\CYMR90~1\AppData\Local\Temp\ccaJ4oak.s:28592  .debug_str:000000000001e072 .LASF580
C:\Users\CYMR90~1\AppData\Local\Temp\ccaJ4oak.s:30146  .debug_str:0000000000023e01 .LASF581
C:\Users\CYMR90~1\AppData\Local\Temp\ccaJ4oak.s:22627  .debug_str:0000000000005f70 .LASF582
C:\Users\CYMR90~1\AppData\Local\Temp\ccaJ4oak.s:25227  .debug_str:000000000001059f .LASF583
C:\Users\CYMR90~1\AppData\Local\Temp\ccaJ4oak.s:21791  .debug_str:0000000000002aa3 .LASF584
C:\Users\CYMR90~1\AppData\Local\Temp\ccaJ4oak.s:31588  .debug_str:0000000000029c2c .LASF585
C:\Users\CYMR90~1\AppData\Local\Temp\ccaJ4oak.s:29804  .debug_str:0000000000022971 .LASF586
C:\Users\CYMR90~1\AppData\Local\Temp\ccaJ4oak.s:28008  .debug_str:000000000001ba4a .LASF587
C:\Users\CYMR90~1\AppData\Local\Temp\ccaJ4oak.s:22861  .debug_str:0000000000006dfd .LASF588
C:\Users\CYMR90~1\AppData\Local\Temp\ccaJ4oak.s:27262  .debug_str:000000000001881f .LASF589
C:\Users\CYMR90~1\AppData\Local\Temp\ccaJ4oak.s:27638  .debug_str:000000000001a127 .LASF590
C:\Users\CYMR90~1\AppData\Local\Temp\ccaJ4oak.s:32316  .debug_str:000000000002c9ac .LASF591
C:\Users\CYMR90~1\AppData\Local\Temp\ccaJ4oak.s:25633  .debug_str:0000000000012015 .LASF592
C:\Users\CYMR90~1\AppData\Local\Temp\ccaJ4oak.s:30134  .debug_str:0000000000023d5e .LASF593
C:\Users\CYMR90~1\AppData\Local\Temp\ccaJ4oak.s:25193  .debug_str:00000000000103b6 .LASF594
C:\Users\CYMR90~1\AppData\Local\Temp\ccaJ4oak.s:26071  .debug_str:0000000000013cc9 .LASF595
C:\Users\CYMR90~1\AppData\Local\Temp\ccaJ4oak.s:25803  .debug_str:0000000000012b30 .LASF596
C:\Users\CYMR90~1\AppData\Local\Temp\ccaJ4oak.s:22963  .debug_str:00000000000074f0 .LASF597
C:\Users\CYMR90~1\AppData\Local\Temp\ccaJ4oak.s:31120  .debug_str:0000000000027e55 .LASF598
C:\Users\CYMR90~1\AppData\Local\Temp\ccaJ4oak.s:25963  .debug_str:0000000000013601 .LASF599
C:\Users\CYMR90~1\AppData\Local\Temp\ccaJ4oak.s:28922  .debug_str:000000000001f410 .LASF600
C:\Users\CYMR90~1\AppData\Local\Temp\ccaJ4oak.s:28192  .debug_str:000000000001c546 .LASF601
C:\Users\CYMR90~1\AppData\Local\Temp\ccaJ4oak.s:30606  .debug_str:0000000000025df9 .LASF602
C:\Users\CYMR90~1\AppData\Local\Temp\ccaJ4oak.s:31320  .debug_str:0000000000028c38 .LASF603
C:\Users\CYMR90~1\AppData\Local\Temp\ccaJ4oak.s:31210  .debug_str:00000000000284f0 .LASF604
C:\Users\CYMR90~1\AppData\Local\Temp\ccaJ4oak.s:25727  .debug_str:000000000001262d .LASF605
C:\Users\CYMR90~1\AppData\Local\Temp\ccaJ4oak.s:29940  .debug_str:000000000002317f .LASF606
C:\Users\CYMR90~1\AppData\Local\Temp\ccaJ4oak.s:23549  .debug_str:0000000000009af0 .LASF607
C:\Users\CYMR90~1\AppData\Local\Temp\ccaJ4oak.s:23059  .debug_str:0000000000007ad0 .LASF608
C:\Users\CYMR90~1\AppData\Local\Temp\ccaJ4oak.s:23837  .debug_str:000000000000ad51 .LASF609
C:\Users\CYMR90~1\AppData\Local\Temp\ccaJ4oak.s:28044  .debug_str:000000000001bc0f .LASF610
C:\Users\CYMR90~1\AppData\Local\Temp\ccaJ4oak.s:22593  .debug_str:0000000000005d73 .LASF611
C:\Users\CYMR90~1\AppData\Local\Temp\ccaJ4oak.s:29720  .debug_str:000000000002247e .LASF612
C:\Users\CYMR90~1\AppData\Local\Temp\ccaJ4oak.s:26463  .debug_str:00000000000154f7 .LASF613
C:\Users\CYMR90~1\AppData\Local\Temp\ccaJ4oak.s:23127  .debug_str:0000000000007fb9 .LASF614
C:\Users\CYMR90~1\AppData\Local\Temp\ccaJ4oak.s:21201  .debug_str:00000000000005e1 .LASF615
C:\Users\CYMR90~1\AppData\Local\Temp\ccaJ4oak.s:26705  .debug_str:00000000000163b5 .LASF616
C:\Users\CYMR90~1\AppData\Local\Temp\ccaJ4oak.s:27674  .debug_str:000000000001a355 .LASF617
C:\Users\CYMR90~1\AppData\Local\Temp\ccaJ4oak.s:26839  .debug_str:0000000000016d16 .LASF618
C:\Users\CYMR90~1\AppData\Local\Temp\ccaJ4oak.s:29812  .debug_str:00000000000229d6 .LASF619
C:\Users\CYMR90~1\AppData\Local\Temp\ccaJ4oak.s:24097  .debug_str:000000000000bf42 .LASF620
C:\Users\CYMR90~1\AppData\Local\Temp\ccaJ4oak.s:22875  .debug_str:0000000000006eea .LASF621
C:\Users\CYMR90~1\AppData\Local\Temp\ccaJ4oak.s:30000  .debug_str:00000000000234f0 .LASF622
C:\Users\CYMR90~1\AppData\Local\Temp\ccaJ4oak.s:29098  .debug_str:000000000001fee6 .LASF623
C:\Users\CYMR90~1\AppData\Local\Temp\ccaJ4oak.s:31078  .debug_str:0000000000027b28 .LASF624
C:\Users\CYMR90~1\AppData\Local\Temp\ccaJ4oak.s:31688  .debug_str:000000000002a1f7 .LASF625
C:\Users\CYMR90~1\AppData\Local\Temp\ccaJ4oak.s:26143  .debug_str:00000000000140e4 .LASF626
C:\Users\CYMR90~1\AppData\Local\Temp\ccaJ4oak.s:31944  .debug_str:000000000002b0f3 .LASF627
C:\Users\CYMR90~1\AppData\Local\Temp\ccaJ4oak.s:26555  .debug_str:0000000000015a27 .LASF628
C:\Users\CYMR90~1\AppData\Local\Temp\ccaJ4oak.s:29748  .debug_str:000000000002260b .LASF629
C:\Users\CYMR90~1\AppData\Local\Temp\ccaJ4oak.s:25183  .debug_str:0000000000010303 .LASF630
C:\Users\CYMR90~1\AppData\Local\Temp\ccaJ4oak.s:24493  .debug_str:000000000000d909 .LASF631
C:\Users\CYMR90~1\AppData\Local\Temp\ccaJ4oak.s:29710  .debug_str:00000000000223de .LASF632
C:\Users\CYMR90~1\AppData\Local\Temp\ccaJ4oak.s:24207  .debug_str:000000000000c640 .LASF633
C:\Users\CYMR90~1\AppData\Local\Temp\ccaJ4oak.s:21291  .debug_str:0000000000000c07 .LASF634
C:\Users\CYMR90~1\AppData\Local\Temp\ccaJ4oak.s:27584  .debug_str:0000000000019e22 .LASF635
C:\Users\CYMR90~1\AppData\Local\Temp\ccaJ4oak.s:26763  .debug_str:0000000000016783 .LASF636
C:\Users\CYMR90~1\AppData\Local\Temp\ccaJ4oak.s:28356  .debug_str:000000000001d130 .LASF637
C:\Users\CYMR90~1\AppData\Local\Temp\ccaJ4oak.s:22005  .debug_str:00000000000037ef .LASF638
C:\Users\CYMR90~1\AppData\Local\Temp\ccaJ4oak.s:25559  .debug_str:0000000000011bce .LASF639
C:\Users\CYMR90~1\AppData\Local\Temp\ccaJ4oak.s:23139  .debug_str:0000000000008064 .LASF640
C:\Users\CYMR90~1\AppData\Local\Temp\ccaJ4oak.s:25785  .debug_str:00000000000129f4 .LASF641
C:\Users\CYMR90~1\AppData\Local\Temp\ccaJ4oak.s:23995  .debug_str:000000000000b827 .LASF642
C:\Users\CYMR90~1\AppData\Local\Temp\ccaJ4oak.s:31062  .debug_str:0000000000027a18 .LASF643
C:\Users\CYMR90~1\AppData\Local\Temp\ccaJ4oak.s:24361  .debug_str:000000000000d039 .LASF644
C:\Users\CYMR90~1\AppData\Local\Temp\ccaJ4oak.s:22189  .debug_str:0000000000004409 .LASF645
C:\Users\CYMR90~1\AppData\Local\Temp\ccaJ4oak.s:23021  .debug_str:000000000000783f .LASF646
C:\Users\CYMR90~1\AppData\Local\Temp\ccaJ4oak.s:21937  .debug_str:00000000000033cc .LASF647
C:\Users\CYMR90~1\AppData\Local\Temp\ccaJ4oak.s:22311  .debug_str:0000000000004c6e .LASF648
C:\Users\CYMR90~1\AppData\Local\Temp\ccaJ4oak.s:31586  .debug_str:0000000000029bed .LASF649
C:\Users\CYMR90~1\AppData\Local\Temp\ccaJ4oak.s:25477  .debug_str:0000000000011539 .LASF650
C:\Users\CYMR90~1\AppData\Local\Temp\ccaJ4oak.s:31704  .debug_str:000000000002a2d3 .LASF651
C:\Users\CYMR90~1\AppData\Local\Temp\ccaJ4oak.s:25093  .debug_str:000000000000fd4a .LASF652
C:\Users\CYMR90~1\AppData\Local\Temp\ccaJ4oak.s:21183  .debug_str:00000000000004fe .LASF653
C:\Users\CYMR90~1\AppData\Local\Temp\ccaJ4oak.s:31928  .debug_str:000000000002b01b .LASF654
C:\Users\CYMR90~1\AppData\Local\Temp\ccaJ4oak.s:23371  .debug_str:0000000000008fda .LASF655
C:\Users\CYMR90~1\AppData\Local\Temp\ccaJ4oak.s:31136  .debug_str:0000000000027f51 .LASF656
C:\Users\CYMR90~1\AppData\Local\Temp\ccaJ4oak.s:21235  .debug_str:0000000000000850 .LASF657
C:\Users\CYMR90~1\AppData\Local\Temp\ccaJ4oak.s:31756  .debug_str:000000000002a5f4 .LASF658
C:\Users\CYMR90~1\AppData\Local\Temp\ccaJ4oak.s:25881  .debug_str:000000000001304a .LASF659
C:\Users\CYMR90~1\AppData\Local\Temp\ccaJ4oak.s:28290  .debug_str:000000000001cbbf .LASF660
C:\Users\CYMR90~1\AppData\Local\Temp\ccaJ4oak.s:24775  .debug_str:000000000000e9d5 .LASF661
C:\Users\CYMR90~1\AppData\Local\Temp\ccaJ4oak.s:28948  .debug_str:000000000001f5b1 .LASF662
C:\Users\CYMR90~1\AppData\Local\Temp\ccaJ4oak.s:30920  .debug_str:0000000000027134 .LASF663
C:\Users\CYMR90~1\AppData\Local\Temp\ccaJ4oak.s:25455  .debug_str:000000000001140a .LASF664
C:\Users\CYMR90~1\AppData\Local\Temp\ccaJ4oak.s:25447  .debug_str:00000000000113b4 .LASF665
C:\Users\CYMR90~1\AppData\Local\Temp\ccaJ4oak.s:27358  .debug_str:0000000000018ee6 .LASF666
C:\Users\CYMR90~1\AppData\Local\Temp\ccaJ4oak.s:22605  .debug_str:0000000000005e34 .LASF667
C:\Users\CYMR90~1\AppData\Local\Temp\ccaJ4oak.s:32440  .debug_str:000000000002d1c6 .LASF668
C:\Users\CYMR90~1\AppData\Local\Temp\ccaJ4oak.s:22987  .debug_str:000000000000764a .LASF669
C:\Users\CYMR90~1\AppData\Local\Temp\ccaJ4oak.s:29596  .debug_str:0000000000021d41 .LASF670
C:\Users\CYMR90~1\AppData\Local\Temp\ccaJ4oak.s:25865  .debug_str:0000000000012f3b .LASF671
C:\Users\CYMR90~1\AppData\Local\Temp\ccaJ4oak.s:28998  .debug_str:000000000001f877 .LASF672
C:\Users\CYMR90~1\AppData\Local\Temp\ccaJ4oak.s:29724  .debug_str:00000000000224af .LASF673
C:\Users\CYMR90~1\AppData\Local\Temp\ccaJ4oak.s:21567  .debug_str:0000000000001d29 .LASF674
C:\Users\CYMR90~1\AppData\Local\Temp\ccaJ4oak.s:26541  .debug_str:0000000000015948 .LASF676
C:\Users\CYMR90~1\AppData\Local\Temp\ccaJ4oak.s:30166  .debug_str:0000000000023f5b .LASF677
C:\Users\CYMR90~1\AppData\Local\Temp\ccaJ4oak.s:27596  .debug_str:0000000000019ed2 .LASF678
C:\Users\CYMR90~1\AppData\Local\Temp\ccaJ4oak.s:30272  .debug_str:00000000000246e0 .LASF679
C:\Users\CYMR90~1\AppData\Local\Temp\ccaJ4oak.s:28716  .debug_str:000000000001e776 .LASF680
C:\Users\CYMR90~1\AppData\Local\Temp\ccaJ4oak.s:31600  .debug_str:0000000000029cea .LASF681
C:\Users\CYMR90~1\AppData\Local\Temp\ccaJ4oak.s:22191  .debug_str:0000000000004447 .LASF682
C:\Users\CYMR90~1\AppData\Local\Temp\ccaJ4oak.s:22111  .debug_str:0000000000003ec5 .LASF683
C:\Users\CYMR90~1\AppData\Local\Temp\ccaJ4oak.s:23507  .debug_str:00000000000097ea .LASF684
C:\Users\CYMR90~1\AppData\Local\Temp\ccaJ4oak.s:28048  .debug_str:000000000001bc3c .LASF685
C:\Users\CYMR90~1\AppData\Local\Temp\ccaJ4oak.s:29458  .debug_str:00000000000214ef .LASF686
C:\Users\CYMR90~1\AppData\Local\Temp\ccaJ4oak.s:26817  .debug_str:0000000000016b47 .LASF687
C:\Users\CYMR90~1\AppData\Local\Temp\ccaJ4oak.s:25381  .debug_str:0000000000010fd9 .LASF688
C:\Users\CYMR90~1\AppData\Local\Temp\ccaJ4oak.s:21987  .debug_str:00000000000036df .LASF689
C:\Users\CYMR90~1\AppData\Local\Temp\ccaJ4oak.s:22881  .debug_str:0000000000006f69 .LASF690
C:\Users\CYMR90~1\AppData\Local\Temp\ccaJ4oak.s:25725  .debug_str:0000000000012613 .LASF691
C:\Users\CYMR90~1\AppData\Local\Temp\ccaJ4oak.s:26579  .debug_str:0000000000015b96 .LASF692
C:\Users\CYMR90~1\AppData\Local\Temp\ccaJ4oak.s:22573  .debug_str:0000000000005c59 .LASF695
C:\Users\CYMR90~1\AppData\Local\Temp\ccaJ4oak.s:26980  .debug_str:000000000001771a .LASF696
C:\Users\CYMR90~1\AppData\Local\Temp\ccaJ4oak.s:26878  .debug_str:000000000001714c .LASF697
C:\Users\CYMR90~1\AppData\Local\Temp\ccaJ4oak.s:28018  .debug_str:000000000001baab .LASF698
C:\Users\CYMR90~1\AppData\Local\Temp\ccaJ4oak.s:30206  .debug_str:0000000000024189 .LASF699
C:\Users\CYMR90~1\AppData\Local\Temp\ccaJ4oak.s:26317  .debug_str:0000000000014b82 .LASF702
C:\Users\CYMR90~1\AppData\Local\Temp\ccaJ4oak.s:23529  .debug_str:0000000000009941 .LASF703
C:\Users\CYMR90~1\AppData\Local\Temp\ccaJ4oak.s:28892  .debug_str:000000000001f24f .LASF704
C:\Users\CYMR90~1\AppData\Local\Temp\ccaJ4oak.s:22387  .debug_str:0000000000005108 .LASF705
C:\Users\CYMR90~1\AppData\Local\Temp\ccaJ4oak.s:26645  .debug_str:0000000000016011 .LASF706
C:\Users\CYMR90~1\AppData\Local\Temp\ccaJ4oak.s:24971  .debug_str:000000000000f576 .LASF707
C:\Users\CYMR90~1\AppData\Local\Temp\ccaJ4oak.s:31336  .debug_str:0000000000028d30 .LASF708
C:\Users\CYMR90~1\AppData\Local\Temp\ccaJ4oak.s:30576  .debug_str:0000000000025c1b .LASF709
C:\Users\CYMR90~1\AppData\Local\Temp\ccaJ4oak.s:24613  .debug_str:000000000000e019 .LASF710
C:\Users\CYMR90~1\AppData\Local\Temp\ccaJ4oak.s:25131  .debug_str:000000000000ffa8 .LASF711
C:\Users\CYMR90~1\AppData\Local\Temp\ccaJ4oak.s:26793  .debug_str:000000000001696f .LASF712
C:\Users\CYMR90~1\AppData\Local\Temp\ccaJ4oak.s:23767  .debug_str:000000000000a817 .LASF713
C:\Users\CYMR90~1\AppData\Local\Temp\ccaJ4oak.s:32150  .debug_str:000000000002be73 .LASF714
C:\Users\CYMR90~1\AppData\Local\Temp\ccaJ4oak.s:23123  .debug_str:0000000000007f54 .LASF715
C:\Users\CYMR90~1\AppData\Local\Temp\ccaJ4oak.s:24035  .debug_str:000000000000bab3 .LASF716
C:\Users\CYMR90~1\AppData\Local\Temp\ccaJ4oak.s:29114  .debug_str:0000000000020004 .LASF717
C:\Users\CYMR90~1\AppData\Local\Temp\ccaJ4oak.s:30534  .debug_str:0000000000025917 .LASF718
C:\Users\CYMR90~1\AppData\Local\Temp\ccaJ4oak.s:30316  .debug_str:0000000000024976 .LASF719
C:\Users\CYMR90~1\AppData\Local\Temp\ccaJ4oak.s:27294  .debug_str:0000000000018a5e .LASF720
C:\Users\CYMR90~1\AppData\Local\Temp\ccaJ4oak.s:21625  .debug_str:0000000000002097 .LASF721
C:\Users\CYMR90~1\AppData\Local\Temp\ccaJ4oak.s:29224  .debug_str:00000000000206d7 .LASF722
C:\Users\CYMR90~1\AppData\Local\Temp\ccaJ4oak.s:28204  .debug_str:000000000001c5db .LASF723
C:\Users\CYMR90~1\AppData\Local\Temp\ccaJ4oak.s:28766  .debug_str:000000000001eaaf .LASF724
C:\Users\CYMR90~1\AppData\Local\Temp\ccaJ4oak.s:29702  .debug_str:000000000002238c .LASF725
C:\Users\CYMR90~1\AppData\Local\Temp\ccaJ4oak.s:25979  .debug_str:0000000000013714 .LASF726
C:\Users\CYMR90~1\AppData\Local\Temp\ccaJ4oak.s:23761  .debug_str:000000000000a7bd .LASF727
C:\Users\CYMR90~1\AppData\Local\Temp\ccaJ4oak.s:30670  .debug_str:0000000000026202 .LASF728
C:\Users\CYMR90~1\AppData\Local\Temp\ccaJ4oak.s:29004  .debug_str:000000000001f8f5 .LASF729
C:\Users\CYMR90~1\AppData\Local\Temp\ccaJ4oak.s:27484  .debug_str:000000000001974d .LASF730
C:\Users\CYMR90~1\AppData\Local\Temp\ccaJ4oak.s:25951  .debug_str:0000000000013539 .LASF731
C:\Users\CYMR90~1\AppData\Local\Temp\ccaJ4oak.s:30608  .debug_str:0000000000025e34 .LASF732
C:\Users\CYMR90~1\AppData\Local\Temp\ccaJ4oak.s:32364  .debug_str:000000000002cced .LASF733
C:\Users\CYMR90~1\AppData\Local\Temp\ccaJ4oak.s:25431  .debug_str:000000000001129d .LASF734
C:\Users\CYMR90~1\AppData\Local\Temp\ccaJ4oak.s:25357  .debug_str:0000000000010ea2 .LASF735
C:\Users\CYMR90~1\AppData\Local\Temp\ccaJ4oak.s:32288  .debug_str:000000000002c7ac .LASF736
C:\Users\CYMR90~1\AppData\Local\Temp\ccaJ4oak.s:24329  .debug_str:000000000000ce2c .LASF737
C:\Users\CYMR90~1\AppData\Local\Temp\ccaJ4oak.s:28354  .debug_str:000000000001d11f .LASF738
C:\Users\CYMR90~1\AppData\Local\Temp\ccaJ4oak.s:32032  .debug_str:000000000002b69d .LASF739
C:\Users\CYMR90~1\AppData\Local\Temp\ccaJ4oak.s:21535  .debug_str:0000000000001b1a .LASF740
C:\Users\CYMR90~1\AppData\Local\Temp\ccaJ4oak.s:24267  .debug_str:000000000000ca83 .LASF741
C:\Users\CYMR90~1\AppData\Local\Temp\ccaJ4oak.s:21509  .debug_str:00000000000019a9 .LASF742
C:\Users\CYMR90~1\AppData\Local\Temp\ccaJ4oak.s:25391  .debug_str:0000000000011045 .LASF743
C:\Users\CYMR90~1\AppData\Local\Temp\ccaJ4oak.s:21973  .debug_str:0000000000003631 .LASF744
C:\Users\CYMR90~1\AppData\Local\Temp\ccaJ4oak.s:23379  .debug_str:000000000000905b .LASF745
C:\Users\CYMR90~1\AppData\Local\Temp\ccaJ4oak.s:29714  .debug_str:000000000002242d .LASF746
C:\Users\CYMR90~1\AppData\Local\Temp\ccaJ4oak.s:21405  .debug_str:00000000000012d6 .LASF747
C:\Users\CYMR90~1\AppData\Local\Temp\ccaJ4oak.s:21395  .debug_str:0000000000001254 .LASF748
C:\Users\CYMR90~1\AppData\Local\Temp\ccaJ4oak.s:22553  .debug_str:0000000000005afb .LASF750
C:\Users\CYMR90~1\AppData\Local\Temp\ccaJ4oak.s:25309  .debug_str:0000000000010afd .LASF751
C:\Users\CYMR90~1\AppData\Local\Temp\ccaJ4oak.s:31488  .debug_str:000000000002961b .LASF752
C:\Users\CYMR90~1\AppData\Local\Temp\ccaJ4oak.s:25249  .debug_str:000000000001070d .LASF753
C:\Users\CYMR90~1\AppData\Local\Temp\ccaJ4oak.s:22433  .debug_str:00000000000053d7 .LASF754
C:\Users\CYMR90~1\AppData\Local\Temp\ccaJ4oak.s:24019  .debug_str:000000000000b9cd .LASF755
C:\Users\CYMR90~1\AppData\Local\Temp\ccaJ4oak.s:27560  .debug_str:0000000000019cdf .LASF756
C:\Users\CYMR90~1\AppData\Local\Temp\ccaJ4oak.s:23517  .debug_str:0000000000009899 .LASF757
C:\Users\CYMR90~1\AppData\Local\Temp\ccaJ4oak.s:30560  .debug_str:0000000000025b33 .LASF758
C:\Users\CYMR90~1\AppData\Local\Temp\ccaJ4oak.s:27196  .debug_str:0000000000018468 .LASF759
C:\Users\CYMR90~1\AppData\Local\Temp\ccaJ4oak.s:27930  .debug_str:000000000001b572 .LASF760
C:\Users\CYMR90~1\AppData\Local\Temp\ccaJ4oak.s:32132  .debug_str:000000000002bd2d .LASF761
C:\Users\CYMR90~1\AppData\Local\Temp\ccaJ4oak.s:23945  .debug_str:000000000000b49e .LASF762
C:\Users\CYMR90~1\AppData\Local\Temp\ccaJ4oak.s:27940  .debug_str:000000000001b630 .LASF765
C:\Users\CYMR90~1\AppData\Local\Temp\ccaJ4oak.s:26615  .debug_str:0000000000015de4 .LASF766
C:\Users\CYMR90~1\AppData\Local\Temp\ccaJ4oak.s:29606  .debug_str:0000000000021dbf .LASF767
C:\Users\CYMR90~1\AppData\Local\Temp\ccaJ4oak.s:26605  .debug_str:0000000000015d74 .LASF768
C:\Users\CYMR90~1\AppData\Local\Temp\ccaJ4oak.s:21777  .debug_str:00000000000029e1 .LASF769
C:\Users\CYMR90~1\AppData\Local\Temp\ccaJ4oak.s:28066  .debug_str:000000000001bda3 .LASF770
C:\Users\CYMR90~1\AppData\Local\Temp\ccaJ4oak.s:26701  .debug_str:000000000001638f .LASF771
C:\Users\CYMR90~1\AppData\Local\Temp\ccaJ4oak.s:30280  .debug_str:0000000000024759 .LASF772
C:\Users\CYMR90~1\AppData\Local\Temp\ccaJ4oak.s:29902  .debug_str:0000000000022f70 .LASF773
C:\Users\CYMR90~1\AppData\Local\Temp\ccaJ4oak.s:24693  .debug_str:000000000000e4c7 .LASF774
C:\Users\CYMR90~1\AppData\Local\Temp\ccaJ4oak.s:30610  .debug_str:0000000000025e4a .LASF775
C:\Users\CYMR90~1\AppData\Local\Temp\ccaJ4oak.s:23659  .debug_str:000000000000a1b8 .LASF776
C:\Users\CYMR90~1\AppData\Local\Temp\ccaJ4oak.s:23675  .debug_str:000000000000a2bc .LASF777
C:\Users\CYMR90~1\AppData\Local\Temp\ccaJ4oak.s:28706  .debug_str:000000000001e6d5 .LASF778
C:\Users\CYMR90~1\AppData\Local\Temp\ccaJ4oak.s:25195  .debug_str:00000000000103de .LASF779
C:\Users\CYMR90~1\AppData\Local\Temp\ccaJ4oak.s:28956  .debug_str:000000000001f626 .LASF780
C:\Users\CYMR90~1\AppData\Local\Temp\ccaJ4oak.s:29602  .debug_str:0000000000021da6 .LASF781
C:\Users\CYMR90~1\AppData\Local\Temp\ccaJ4oak.s:25675  .debug_str:000000000001230a .LASF782
C:\Users\CYMR90~1\AppData\Local\Temp\ccaJ4oak.s:26825  .debug_str:0000000000016c6a .LASF783
C:\Users\CYMR90~1\AppData\Local\Temp\ccaJ4oak.s:25575  .debug_str:0000000000011ccc .LASF784
C:\Users\CYMR90~1\AppData\Local\Temp\ccaJ4oak.s:24875  .debug_str:000000000000efa1 .LASF785
C:\Users\CYMR90~1\AppData\Local\Temp\ccaJ4oak.s:29968  .debug_str:0000000000023309 .LASF786
C:\Users\CYMR90~1\AppData\Local\Temp\ccaJ4oak.s:26331  .debug_str:0000000000014ca7 .LASF787
C:\Users\CYMR90~1\AppData\Local\Temp\ccaJ4oak.s:28640  .debug_str:000000000001e2f3 .LASF788
C:\Users\CYMR90~1\AppData\Local\Temp\ccaJ4oak.s:25053  .debug_str:000000000000fac8 .LASF789
C:\Users\CYMR90~1\AppData\Local\Temp\ccaJ4oak.s:22485  .debug_str:00000000000056f5 .LASF790
C:\Users\CYMR90~1\AppData\Local\Temp\ccaJ4oak.s:30962  .debug_str:0000000000027439 .LASF791
C:\Users\CYMR90~1\AppData\Local\Temp\ccaJ4oak.s:23245  .debug_str:00000000000087ae .LASF792
C:\Users\CYMR90~1\AppData\Local\Temp\ccaJ4oak.s:32370  .debug_str:000000000002cd3b .LASF793
C:\Users\CYMR90~1\AppData\Local\Temp\ccaJ4oak.s:23031  .debug_str:0000000000007913 .LASF794
C:\Users\CYMR90~1\AppData\Local\Temp\ccaJ4oak.s:31216  .debug_str:000000000002854d .LASF795
C:\Users\CYMR90~1\AppData\Local\Temp\ccaJ4oak.s:29198  .debug_str:00000000000204e3 .LASF796
C:\Users\CYMR90~1\AppData\Local\Temp\ccaJ4oak.s:31920  .debug_str:000000000002afca .LASF797
C:\Users\CYMR90~1\AppData\Local\Temp\ccaJ4oak.s:22865  .debug_str:0000000000006e47 .LASF798
C:\Users\CYMR90~1\AppData\Local\Temp\ccaJ4oak.s:31278  .debug_str:00000000000289ab .LASF799
C:\Users\CYMR90~1\AppData\Local\Temp\ccaJ4oak.s:22449  .debug_str:00000000000054ce .LASF800
C:\Users\CYMR90~1\AppData\Local\Temp\ccaJ4oak.s:27694  .debug_str:000000000001a60a .LASF801
C:\Users\CYMR90~1\AppData\Local\Temp\ccaJ4oak.s:27726  .debug_str:000000000001a7f4 .LASF802
C:\Users\CYMR90~1\AppData\Local\Temp\ccaJ4oak.s:23579  .debug_str:0000000000009cc8 .LASF803
C:\Users\CYMR90~1\AppData\Local\Temp\ccaJ4oak.s:26081  .debug_str:0000000000013d44 .LASF804
C:\Users\CYMR90~1\AppData\Local\Temp\ccaJ4oak.s:22879  .debug_str:0000000000006f0e .LASF805
C:\Users\CYMR90~1\AppData\Local\Temp\ccaJ4oak.s:25527  .debug_str:0000000000011926 .LASF806
C:\Users\CYMR90~1\AppData\Local\Temp\ccaJ4oak.s:28662  .debug_str:000000000001e409 .LASF807
C:\Users\CYMR90~1\AppData\Local\Temp\ccaJ4oak.s:28254  .debug_str:000000000001c9a9 .LASF808
C:\Users\CYMR90~1\AppData\Local\Temp\ccaJ4oak.s:30680  .debug_str:0000000000026299 .LASF809
C:\Users\CYMR90~1\AppData\Local\Temp\ccaJ4oak.s:32136  .debug_str:000000000002bd82 .LASF810
C:\Users\CYMR90~1\AppData\Local\Temp\ccaJ4oak.s:23269  .debug_str:0000000000008922 .LASF811
C:\Users\CYMR90~1\AppData\Local\Temp\ccaJ4oak.s:22173  .debug_str:0000000000004331 .LASF812
C:\Users\CYMR90~1\AppData\Local\Temp\ccaJ4oak.s:32174  .debug_str:000000000002c06d .LASF813
C:\Users\CYMR90~1\AppData\Local\Temp\ccaJ4oak.s:22549  .debug_str:0000000000005ad4 .LASF814
C:\Users\CYMR90~1\AppData\Local\Temp\ccaJ4oak.s:22777  .debug_str:000000000000688a .LASF815
C:\Users\CYMR90~1\AppData\Local\Temp\ccaJ4oak.s:28032  .debug_str:000000000001bb69 .LASF816
C:\Users\CYMR90~1\AppData\Local\Temp\ccaJ4oak.s:23443  .debug_str:00000000000093fb .LASF817
C:\Users\CYMR90~1\AppData\Local\Temp\ccaJ4oak.s:28174  .debug_str:000000000001c44a .LASF818
C:\Users\CYMR90~1\AppData\Local\Temp\ccaJ4oak.s:28070  .debug_str:000000000001bdbb .LASF819
C:\Users\CYMR90~1\AppData\Local\Temp\ccaJ4oak.s:21277  .debug_str:0000000000000b0d .LASF820
C:\Users\CYMR90~1\AppData\Local\Temp\ccaJ4oak.s:31758  .debug_str:000000000002a604 .LASF821
C:\Users\CYMR90~1\AppData\Local\Temp\ccaJ4oak.s:30276  .debug_str:000000000002471e .LASF822
C:\Users\CYMR90~1\AppData\Local\Temp\ccaJ4oak.s:23407  .debug_str:00000000000091bc .LASF823
C:\Users\CYMR90~1\AppData\Local\Temp\ccaJ4oak.s:26751  .debug_str:00000000000166e0 .LASF824
C:\Users\CYMR90~1\AppData\Local\Temp\ccaJ4oak.s:28358  .debug_str:000000000001d15a .LASF825
C:\Users\CYMR90~1\AppData\Local\Temp\ccaJ4oak.s:26539  .debug_str:0000000000015927 .LASF826
C:\Users\CYMR90~1\AppData\Local\Temp\ccaJ4oak.s:22055  .debug_str:0000000000003b1d .LASF827
C:\Users\CYMR90~1\AppData\Local\Temp\ccaJ4oak.s:24853  .debug_str:000000000000ee7f .LASF828
C:\Users\CYMR90~1\AppData\Local\Temp\ccaJ4oak.s:30386  .debug_str:0000000000024e35 .LASF829
C:\Users\CYMR90~1\AppData\Local\Temp\ccaJ4oak.s:30550  .debug_str:0000000000025a73 .LASF830
C:\Users\CYMR90~1\AppData\Local\Temp\ccaJ4oak.s:24025  .debug_str:000000000000ba28 .LASF831
C:\Users\CYMR90~1\AppData\Local\Temp\ccaJ4oak.s:24799  .debug_str:000000000000eb5f .LASF832
C:\Users\CYMR90~1\AppData\Local\Temp\ccaJ4oak.s:22635  .debug_str:0000000000005fdc .LASF833
C:\Users\CYMR90~1\AppData\Local\Temp\ccaJ4oak.s:25433  .debug_str:00000000000112ae .LASF834
C:\Users\CYMR90~1\AppData\Local\Temp\ccaJ4oak.s:27220  .debug_str:00000000000185e3 .LASF835
C:\Users\CYMR90~1\AppData\Local\Temp\ccaJ4oak.s:25339  .debug_str:0000000000010d2f .LASF836
C:\Users\CYMR90~1\AppData\Local\Temp\ccaJ4oak.s:29106  .debug_str:000000000001ff88 .LASF837
C:\Users\CYMR90~1\AppData\Local\Temp\ccaJ4oak.s:23315  .debug_str:0000000000008c1d .LASF838
C:\Users\CYMR90~1\AppData\Local\Temp\ccaJ4oak.s:22473  .debug_str:0000000000005656 .LASF839
C:\Users\CYMR90~1\AppData\Local\Temp\ccaJ4oak.s:25239  .debug_str:000000000001065c .LASF840
C:\Users\CYMR90~1\AppData\Local\Temp\ccaJ4oak.s:24157  .debug_str:000000000000c32b .LASF841
C:\Users\CYMR90~1\AppData\Local\Temp\ccaJ4oak.s:28272  .debug_str:000000000001cab9 .LASF842
C:\Users\CYMR90~1\AppData\Local\Temp\ccaJ4oak.s:21347  .debug_str:0000000000000f9c .LASF843
C:\Users\CYMR90~1\AppData\Local\Temp\ccaJ4oak.s:21709  .debug_str:0000000000002558 .LASF844
C:\Users\CYMR90~1\AppData\Local\Temp\ccaJ4oak.s:24477  .debug_str:000000000000d84a .LASF845
C:\Users\CYMR90~1\AppData\Local\Temp\ccaJ4oak.s:21109  .debug_str:0000000000000096 .LASF846
C:\Users\CYMR90~1\AppData\Local\Temp\ccaJ4oak.s:23111  .debug_str:0000000000007eb3 .LASF847
C:\Users\CYMR90~1\AppData\Local\Temp\ccaJ4oak.s:28962  .debug_str:000000000001f674 .LASF848
C:\Users\CYMR90~1\AppData\Local\Temp\ccaJ4oak.s:23079  .debug_str:0000000000007c2d .LASF849
C:\Users\CYMR90~1\AppData\Local\Temp\ccaJ4oak.s:24451  .debug_str:000000000000d688 .LASF852
C:\Users\CYMR90~1\AppData\Local\Temp\ccaJ4oak.s:31330  .debug_str:0000000000028cd8 .LASF853
C:\Users\CYMR90~1\AppData\Local\Temp\ccaJ4oak.s:26389  .debug_str:00000000000150a8 .LASF854
C:\Users\CYMR90~1\AppData\Local\Temp\ccaJ4oak.s:29612  .debug_str:0000000000021e54 .LASF856
C:\Users\CYMR90~1\AppData\Local\Temp\ccaJ4oak.s:28500  .debug_str:000000000001da64 .LASF857
C:\Users\CYMR90~1\AppData\Local\Temp\ccaJ4oak.s:31148  .debug_str:0000000000028005 .LASF858
C:\Users\CYMR90~1\AppData\Local\Temp\ccaJ4oak.s:24437  .debug_str:000000000000d5a4 .LASF859
C:\Users\CYMR90~1\AppData\Local\Temp\ccaJ4oak.s:25389  .debug_str:000000000001103b .LASF860
C:\Users\CYMR90~1\AppData\Local\Temp\ccaJ4oak.s:29544  .debug_str:0000000000021a0c .LASF861
C:\Users\CYMR90~1\AppData\Local\Temp\ccaJ4oak.s:28698  .debug_str:000000000001e685 .LASF862
C:\Users\CYMR90~1\AppData\Local\Temp\ccaJ4oak.s:21445  .debug_str:0000000000001534 .LASF863
C:\Users\CYMR90~1\AppData\Local\Temp\ccaJ4oak.s:22115  .debug_str:0000000000003ef3 .LASF864
C:\Users\CYMR90~1\AppData\Local\Temp\ccaJ4oak.s:22519  .debug_str:0000000000005929 .LASF865
C:\Users\CYMR90~1\AppData\Local\Temp\ccaJ4oak.s:23707  .debug_str:000000000000a4d3 .LASF866
C:\Users\CYMR90~1\AppData\Local\Temp\ccaJ4oak.s:23183  .debug_str:00000000000083d5 .LASF867
C:\Users\CYMR90~1\AppData\Local\Temp\ccaJ4oak.s:28426  .debug_str:000000000001d55f .LASF868
C:\Users\CYMR90~1\AppData\Local\Temp\ccaJ4oak.s:29046  .debug_str:000000000001fbb1 .LASF869
C:\Users\CYMR90~1\AppData\Local\Temp\ccaJ4oak.s:30140  .debug_str:0000000000023dba .LASF870
C:\Users\CYMR90~1\AppData\Local\Temp\ccaJ4oak.s:23351  .debug_str:0000000000008e8e .LASF871
C:\Users\CYMR90~1\AppData\Local\Temp\ccaJ4oak.s:23785  .debug_str:000000000000aa50 .LASF872
C:\Users\CYMR90~1\AppData\Local\Temp\ccaJ4oak.s:28264  .debug_str:000000000001ca47 .LASF873
C:\Users\CYMR90~1\AppData\Local\Temp\ccaJ4oak.s:29920  .debug_str:0000000000023078 .LASF874
C:\Users\CYMR90~1\AppData\Local\Temp\ccaJ4oak.s:25595  .debug_str:0000000000011dc7 .LASF875
C:\Users\CYMR90~1\AppData\Local\Temp\ccaJ4oak.s:26293  .debug_str:0000000000014a66 .LASF876
C:\Users\CYMR90~1\AppData\Local\Temp\ccaJ4oak.s:23585  .debug_str:0000000000009d1d .LASF877
C:\Users\CYMR90~1\AppData\Local\Temp\ccaJ4oak.s:27972  .debug_str:000000000001b826 .LASF878
C:\Users\CYMR90~1\AppData\Local\Temp\ccaJ4oak.s:25385  .debug_str:0000000000011016 .LASF879
C:\Users\CYMR90~1\AppData\Local\Temp\ccaJ4oak.s:26930  .debug_str:000000000001744b .LASF880
C:\Users\CYMR90~1\AppData\Local\Temp\ccaJ4oak.s:22451  .debug_str:00000000000054e7 .LASF881
C:\Users\CYMR90~1\AppData\Local\Temp\ccaJ4oak.s:25823  .debug_str:0000000000012ca8 .LASF882
C:\Users\CYMR90~1\AppData\Local\Temp\ccaJ4oak.s:28934  .debug_str:000000000001f4f8 .LASF883
C:\Users\CYMR90~1\AppData\Local\Temp\ccaJ4oak.s:29118  .debug_str:0000000000020031 .LASF884
C:\Users\CYMR90~1\AppData\Local\Temp\ccaJ4oak.s:32426  .debug_str:000000000002d0c4 .LASF885
C:\Users\CYMR90~1\AppData\Local\Temp\ccaJ4oak.s:27978  .debug_str:000000000001b87e .LASF886
C:\Users\CYMR90~1\AppData\Local\Temp\ccaJ4oak.s:23455  .debug_str:00000000000094a2 .LASF887
C:\Users\CYMR90~1\AppData\Local\Temp\ccaJ4oak.s:30088  .debug_str:0000000000023acb .LASF888
C:\Users\CYMR90~1\AppData\Local\Temp\ccaJ4oak.s:25761  .debug_str:0000000000012872 .LASF889
C:\Users\CYMR90~1\AppData\Local\Temp\ccaJ4oak.s:30018  .debug_str:0000000000023616 .LASF890
C:\Users\CYMR90~1\AppData\Local\Temp\ccaJ4oak.s:22267  .debug_str:00000000000049e2 .LASF891
C:\Users\CYMR90~1\AppData\Local\Temp\ccaJ4oak.s:24747  .debug_str:000000000000e846 .LASF892
C:\Users\CYMR90~1\AppData\Local\Temp\ccaJ4oak.s:30794  .debug_str:0000000000026984 .LASF893
C:\Users\CYMR90~1\AppData\Local\Temp\ccaJ4oak.s:30186  .debug_str:000000000002407d .LASF894
C:\Users\CYMR90~1\AppData\Local\Temp\ccaJ4oak.s:21417  .debug_str:0000000000001380 .LASF895
C:\Users\CYMR90~1\AppData\Local\Temp\ccaJ4oak.s:26145  .debug_str:000000000001411c .LASF896
C:\Users\CYMR90~1\AppData\Local\Temp\ccaJ4oak.s:22359  .debug_str:0000000000004f55 .LASF897
C:\Users\CYMR90~1\AppData\Local\Temp\ccaJ4oak.s:23575  .debug_str:0000000000009c89 .LASF898
C:\Users\CYMR90~1\AppData\Local\Temp\ccaJ4oak.s:31090  .debug_str:0000000000027c38 .LASF899
C:\Users\CYMR90~1\AppData\Local\Temp\ccaJ4oak.s:23903  .debug_str:000000000000b23a .LASF900
C:\Users\CYMR90~1\AppData\Local\Temp\ccaJ4oak.s:28024  .debug_str:000000000001bae1 .LASF901
C:\Users\CYMR90~1\AppData\Local\Temp\ccaJ4oak.s:31624  .debug_str:0000000000029e62 .LASF902
C:\Users\CYMR90~1\AppData\Local\Temp\ccaJ4oak.s:30384  .debug_str:0000000000024e0f .LASF903
C:\Users\CYMR90~1\AppData\Local\Temp\ccaJ4oak.s:31238  .debug_str:00000000000286b8 .LASF904
C:\Users\CYMR90~1\AppData\Local\Temp\ccaJ4oak.s:25807  .debug_str:0000000000012b9a .LASF905
C:\Users\CYMR90~1\AppData\Local\Temp\ccaJ4oak.s:23233  .debug_str:0000000000008714 .LASF906
C:\Users\CYMR90~1\AppData\Local\Temp\ccaJ4oak.s:31800  .debug_str:000000000002a8ec .LASF907
C:\Users\CYMR90~1\AppData\Local\Temp\ccaJ4oak.s:24743  .debug_str:000000000000e803 .LASF908
C:\Users\CYMR90~1\AppData\Local\Temp\ccaJ4oak.s:31066  .debug_str:0000000000027a78 .LASF909
C:\Users\CYMR90~1\AppData\Local\Temp\ccaJ4oak.s:25359  .debug_str:0000000000010eb3 .LASF910
C:\Users\CYMR90~1\AppData\Local\Temp\ccaJ4oak.s:21811  .debug_str:0000000000002bfb .LASF911
C:\Users\CYMR90~1\AppData\Local\Temp\ccaJ4oak.s:21389  .debug_str:0000000000001217 .LASF912
C:\Users\CYMR90~1\AppData\Local\Temp\ccaJ4oak.s:29460  .debug_str:0000000000021513 .LASF913
C:\Users\CYMR90~1\AppData\Local\Temp\ccaJ4oak.s:30366  .debug_str:0000000000024cea .LASF914
C:\Users\CYMR90~1\AppData\Local\Temp\ccaJ4oak.s:24279  .debug_str:000000000000cb55 .LASF915
C:\Users\CYMR90~1\AppData\Local\Temp\ccaJ4oak.s:26904  .debug_str:00000000000172a9 .LASF916
C:\Users\CYMR90~1\AppData\Local\Temp\ccaJ4oak.s:25177  .debug_str:0000000000010292 .LASF917
C:\Users\CYMR90~1\AppData\Local\Temp\ccaJ4oak.s:31872  .debug_str:000000000002acdb .LASF918
C:\Users\CYMR90~1\AppData\Local\Temp\ccaJ4oak.s:21375  .debug_str:0000000000001123 .LASF919
C:\Users\CYMR90~1\AppData\Local\Temp\ccaJ4oak.s:23889  .debug_str:000000000000b14f .LASF920
C:\Users\CYMR90~1\AppData\Local\Temp\ccaJ4oak.s:30318  .debug_str:000000000002498b .LASF921
C:\Users\CYMR90~1\AppData\Local\Temp\ccaJ4oak.s:27720  .debug_str:000000000001a782 .LASF922
C:\Users\CYMR90~1\AppData\Local\Temp\ccaJ4oak.s:30828  .debug_str:0000000000026b79 .LASF923
C:\Users\CYMR90~1\AppData\Local\Temp\ccaJ4oak.s:26860  .debug_str:0000000000017030 .LASF924
C:\Users\CYMR90~1\AppData\Local\Temp\ccaJ4oak.s:21767  .debug_str:000000000000292a .LASF925
C:\Users\CYMR90~1\AppData\Local\Temp\ccaJ4oak.s:27932  .debug_str:000000000001b5ac .LASF926
C:\Users\CYMR90~1\AppData\Local\Temp\ccaJ4oak.s:21487  .debug_str:0000000000001837 .LASF927
C:\Users\CYMR90~1\AppData\Local\Temp\ccaJ4oak.s:26323  .debug_str:0000000000014c21 .LASF928
C:\Users\CYMR90~1\AppData\Local\Temp\ccaJ4oak.s:28994  .debug_str:000000000001f83e .LASF929
C:\Users\CYMR90~1\AppData\Local\Temp\ccaJ4oak.s:32134  .debug_str:000000000002bd65 .LASF930
C:\Users\CYMR90~1\AppData\Local\Temp\ccaJ4oak.s:32362  .debug_str:000000000002cccf .LASF931
C:\Users\CYMR90~1\AppData\Local\Temp\ccaJ4oak.s:28894  .debug_str:000000000001f263 .LASF932
C:\Users\CYMR90~1\AppData\Local\Temp\ccaJ4oak.s:31602  .debug_str:0000000000029cfa .LASF933
C:\Users\CYMR90~1\AppData\Local\Temp\ccaJ4oak.s:26665  .debug_str:000000000001616b .LASF934
C:\Users\CYMR90~1\AppData\Local\Temp\ccaJ4oak.s:27492  .debug_str:00000000000197c7 .LASF935
C:\Users\CYMR90~1\AppData\Local\Temp\ccaJ4oak.s:26543  .debug_str:000000000001595c .LASF936
C:\Users\CYMR90~1\AppData\Local\Temp\ccaJ4oak.s:30452  .debug_str:00000000000252da .LASF937
C:\Users\CYMR90~1\AppData\Local\Temp\ccaJ4oak.s:21295  .debug_str:0000000000000c40 .LASF938
C:\Users\CYMR90~1\AppData\Local\Temp\ccaJ4oak.s:29262  .debug_str:0000000000020930 .LASF939
C:\Users\CYMR90~1\AppData\Local\Temp\ccaJ4oak.s:30536  .debug_str:0000000000025923 .LASF940
C:\Users\CYMR90~1\AppData\Local\Temp\ccaJ4oak.s:24027  .debug_str:000000000000ba46 .LASF941
C:\Users\CYMR90~1\AppData\Local\Temp\ccaJ4oak.s:27708  .debug_str:000000000001a6c9 .LASF942
C:\Users\CYMR90~1\AppData\Local\Temp\ccaJ4oak.s:24787  .debug_str:000000000000ea6d .LASF943
C:\Users\CYMR90~1\AppData\Local\Temp\ccaJ4oak.s:30658  .debug_str:000000000002613e .LASF944
C:\Users\CYMR90~1\AppData\Local\Temp\ccaJ4oak.s:28120  .debug_str:000000000001c10e .LASF945
C:\Users\CYMR90~1\AppData\Local\Temp\ccaJ4oak.s:24991  .debug_str:000000000000f6a4 .LASF946
C:\Users\CYMR90~1\AppData\Local\Temp\ccaJ4oak.s:27008  .debug_str:00000000000178db .LASF947
C:\Users\CYMR90~1\AppData\Local\Temp\ccaJ4oak.s:28624  .debug_str:000000000001e20d .LASF948
C:\Users\CYMR90~1\AppData\Local\Temp\ccaJ4oak.s:25335  .debug_str:0000000000010cf1 .LASF949
C:\Users\CYMR90~1\AppData\Local\Temp\ccaJ4oak.s:24337  .debug_str:000000000000ce98 .LASF950
C:\Users\CYMR90~1\AppData\Local\Temp\ccaJ4oak.s:22941  .debug_str:0000000000007367 .LASF952
C:\Users\CYMR90~1\AppData\Local\Temp\ccaJ4oak.s:26465  .debug_str:000000000001550e .LASF953
C:\Users\CYMR90~1\AppData\Local\Temp\ccaJ4oak.s:24373  .debug_str:000000000000d10c .LASF954
C:\Users\CYMR90~1\AppData\Local\Temp\ccaJ4oak.s:32354  .debug_str:000000000002cc5a .LASF955
C:\Users\CYMR90~1\AppData\Local\Temp\ccaJ4oak.s:31502  .debug_str:00000000000296cd .LASF956
C:\Users\CYMR90~1\AppData\Local\Temp\ccaJ4oak.s:31592  .debug_str:0000000000029c64 .LASF960
C:\Users\CYMR90~1\AppData\Local\Temp\ccaJ4oak.s:23481  .debug_str:0000000000009690 .LASF961
C:\Users\CYMR90~1\AppData\Local\Temp\ccaJ4oak.s:30862  .debug_str:0000000000026da1 .LASF962
C:\Users\CYMR90~1\AppData\Local\Temp\ccaJ4oak.s:25567  .debug_str:0000000000011c50 .LASF963
C:\Users\CYMR90~1\AppData\Local\Temp\ccaJ4oak.s:22965  .debug_str:0000000000007514 .LASF964
C:\Users\CYMR90~1\AppData\Local\Temp\ccaJ4oak.s:29644  .debug_str:0000000000022015 .LASF965
C:\Users\CYMR90~1\AppData\Local\Temp\ccaJ4oak.s:27926  .debug_str:000000000001b540 .LASF966
C:\Users\CYMR90~1\AppData\Local\Temp\ccaJ4oak.s:30800  .debug_str:00000000000269e0 .LASF967
C:\Users\CYMR90~1\AppData\Local\Temp\ccaJ4oak.s:31912  .debug_str:000000000002af53 .LASF968
C:\Users\CYMR90~1\AppData\Local\Temp\ccaJ4oak.s:22697  .debug_str:0000000000006401 .LASF969
C:\Users\CYMR90~1\AppData\Local\Temp\ccaJ4oak.s:26185  .debug_str:00000000000143bc .LASF970
C:\Users\CYMR90~1\AppData\Local\Temp\ccaJ4oak.s:32002  .debug_str:000000000002b4ab .LASF971
C:\Users\CYMR90~1\AppData\Local\Temp\ccaJ4oak.s:24797  .debug_str:000000000000eb39 .LASF972
C:\Users\CYMR90~1\AppData\Local\Temp\ccaJ4oak.s:26247  .debug_str:0000000000014776 .LASF973
C:\Users\CYMR90~1\AppData\Local\Temp\ccaJ4oak.s:24399  .debug_str:000000000000d2ae .LASF974
C:\Users\CYMR90~1\AppData\Local\Temp\ccaJ4oak.s:26797  .debug_str:00000000000169cf .LASF975
C:\Users\CYMR90~1\AppData\Local\Temp\ccaJ4oak.s:32386  .debug_str:000000000002cdfc .LASF976
C:\Users\CYMR90~1\AppData\Local\Temp\ccaJ4oak.s:24331  .debug_str:000000000000ce3d .LASF977
C:\Users\CYMR90~1\AppData\Local\Temp\ccaJ4oak.s:32414  .debug_str:000000000002d033 .LASF978
C:\Users\CYMR90~1\AppData\Local\Temp\ccaJ4oak.s:30640  .debug_str:0000000000026005 .LASF979
C:\Users\CYMR90~1\AppData\Local\Temp\ccaJ4oak.s:30700  .debug_str:00000000000263cf .LASF980
C:\Users\CYMR90~1\AppData\Local\Temp\ccaJ4oak.s:24851  .debug_str:000000000000ee65 .LASF981
C:\Users\CYMR90~1\AppData\Local\Temp\ccaJ4oak.s:22397  .debug_str:00000000000051b8 .LASF982
C:\Users\CYMR90~1\AppData\Local\Temp\ccaJ4oak.s:25591  .debug_str:0000000000011daa .LASF983
C:\Users\CYMR90~1\AppData\Local\Temp\ccaJ4oak.s:28334  .debug_str:000000000001cf4b .LASF984
C:\Users\CYMR90~1\AppData\Local\Temp\ccaJ4oak.s:28348  .debug_str:000000000001d037 .LASF985
C:\Users\CYMR90~1\AppData\Local\Temp\ccaJ4oak.s:29932  .debug_str:000000000002310e .LASF986
C:\Users\CYMR90~1\AppData\Local\Temp\ccaJ4oak.s:26611  .debug_str:0000000000015dc0 .LASF987
C:\Users\CYMR90~1\AppData\Local\Temp\ccaJ4oak.s:21831  .debug_str:0000000000002d17 .LASF988
C:\Users\CYMR90~1\AppData\Local\Temp\ccaJ4oak.s:29850  .debug_str:0000000000022c82 .LASF989
C:\Users\CYMR90~1\AppData\Local\Temp\ccaJ4oak.s:27308  .debug_str:0000000000018b1f .LASF990
C:\Users\CYMR90~1\AppData\Local\Temp\ccaJ4oak.s:24327  .debug_str:000000000000ce15 .LASF991
C:\Users\CYMR90~1\AppData\Local\Temp\ccaJ4oak.s:30802  .debug_str:0000000000026a08 .LASF992
C:\Users\CYMR90~1\AppData\Local\Temp\ccaJ4oak.s:22983  .debug_str:0000000000007611 .LASF993
C:\Users\CYMR90~1\AppData\Local\Temp\ccaJ4oak.s:30620  .debug_str:0000000000025eb4 .LASF994
C:\Users\CYMR90~1\AppData\Local\Temp\ccaJ4oak.s:27392  .debug_str:00000000000191e4 .LASF995
C:\Users\CYMR90~1\AppData\Local\Temp\ccaJ4oak.s:31410  .debug_str:000000000002918f .LASF996
C:\Users\CYMR90~1\AppData\Local\Temp\ccaJ4oak.s:30112  .debug_str:0000000000023c27 .LASF997
C:\Users\CYMR90~1\AppData\Local\Temp\ccaJ4oak.s:29478  .debug_str:0000000000021614 .LASF998
C:\Users\CYMR90~1\AppData\Local\Temp\ccaJ4oak.s:21721  .debug_str:00000000000025ec .LASF999
C:\Users\CYMR90~1\AppData\Local\Temp\ccaJ4oak.s:22061  .debug_str:0000000000003b75 .LASF1000
C:\Users\CYMR90~1\AppData\Local\Temp\ccaJ4oak.s:30292  .debug_str:0000000000024817 .LASF1001
C:\Users\CYMR90~1\AppData\Local\Temp\ccaJ4oak.s:25185  .debug_str:0000000000010339 .LASF1002
C:\Users\CYMR90~1\AppData\Local\Temp\ccaJ4oak.s:22351  .debug_str:0000000000004efc .LASF1003
C:\Users\CYMR90~1\AppData\Local\Temp\ccaJ4oak.s:28158  .debug_str:000000000001c367 .LASF1004
C:\Users\CYMR90~1\AppData\Local\Temp\ccaJ4oak.s:25545  .debug_str:0000000000011a6b .LASF1005
C:\Users\CYMR90~1\AppData\Local\Temp\ccaJ4oak.s:24295  .debug_str:000000000000cc4a .LASF1006
C:\Users\CYMR90~1\AppData\Local\Temp\ccaJ4oak.s:22667  .debug_str:0000000000006231 .LASF1007
C:\Users\CYMR90~1\AppData\Local\Temp\ccaJ4oak.s:29640  .debug_str:0000000000021fdd .LASF1008
C:\Users\CYMR90~1\AppData\Local\Temp\ccaJ4oak.s:27086  .debug_str:0000000000017da6 .LASF1009
C:\Users\CYMR90~1\AppData\Local\Temp\ccaJ4oak.s:27244  .debug_str:000000000001872b .LASF1010
C:\Users\CYMR90~1\AppData\Local\Temp\ccaJ4oak.s:24619  .debug_str:000000000000e067 .LASF1011
C:\Users\CYMR90~1\AppData\Local\Temp\ccaJ4oak.s:28396  .debug_str:000000000001d39e .LASF1012
C:\Users\CYMR90~1\AppData\Local\Temp\ccaJ4oak.s:24813  .debug_str:000000000000ec2c .LASF1013
C:\Users\CYMR90~1\AppData\Local\Temp\ccaJ4oak.s:27512  .debug_str:0000000000019958 .LASF1014
C:\Users\CYMR90~1\AppData\Local\Temp\ccaJ4oak.s:22059  .debug_str:0000000000003b5f .LASF1015
C:\Users\CYMR90~1\AppData\Local\Temp\ccaJ4oak.s:25009  .debug_str:000000000000f7a8 .LASF1016
C:\Users\CYMR90~1\AppData\Local\Temp\ccaJ4oak.s:22509  .debug_str:000000000000587e .LASF1017
C:\Users\CYMR90~1\AppData\Local\Temp\ccaJ4oak.s:30952  .debug_str:0000000000027301 .LASF1018
C:\Users\CYMR90~1\AppData\Local\Temp\ccaJ4oak.s:24861  .debug_str:000000000000eee7 .LASF1019
C:\Users\CYMR90~1\AppData\Local\Temp\ccaJ4oak.s:21715  .debug_str:00000000000025a3 .LASF1020
C:\Users\CYMR90~1\AppData\Local\Temp\ccaJ4oak.s:27126  .debug_str:0000000000018034 .LASF1021
C:\Users\CYMR90~1\AppData\Local\Temp\ccaJ4oak.s:24155  .debug_str:000000000000c313 .LASF1022
C:\Users\CYMR90~1\AppData\Local\Temp\ccaJ4oak.s:30880  .debug_str:0000000000026e9c .LASF1023
C:\Users\CYMR90~1\AppData\Local\Temp\ccaJ4oak.s:23391  .debug_str:00000000000090fe .LASF1024
C:\Users\CYMR90~1\AppData\Local\Temp\ccaJ4oak.s:27696  .debug_str:000000000001a624 .LASF1025
C:\Users\CYMR90~1\AppData\Local\Temp\ccaJ4oak.s:25363  .debug_str:0000000000010ef4 .LASF1026
C:\Users\CYMR90~1\AppData\Local\Temp\ccaJ4oak.s:26315  .debug_str:0000000000014b6d .LASF1027
C:\Users\CYMR90~1\AppData\Local\Temp\ccaJ4oak.s:28476  .debug_str:000000000001d8c9 .LASF1028
C:\Users\CYMR90~1\AppData\Local\Temp\ccaJ4oak.s:28854  .debug_str:000000000001efda .LASF1029
C:\Users\CYMR90~1\AppData\Local\Temp\ccaJ4oak.s:30158  .debug_str:0000000000023ecf .LASF1030
C:\Users\CYMR90~1\AppData\Local\Temp\ccaJ4oak.s:29218  .debug_str:0000000000020691 .LASF1031
C:\Users\CYMR90~1\AppData\Local\Temp\ccaJ4oak.s:31504  .debug_str:0000000000029735 .LASF1032
C:\Users\CYMR90~1\AppData\Local\Temp\ccaJ4oak.s:23537  .debug_str:0000000000009a18 .LASF1033
C:\Users\CYMR90~1\AppData\Local\Temp\ccaJ4oak.s:22407  .debug_str:0000000000005246 .LASF1034
C:\Users\CYMR90~1\AppData\Local\Temp\ccaJ4oak.s:27436  .debug_str:000000000001946b .LASF1035
C:\Users\CYMR90~1\AppData\Local\Temp\ccaJ4oak.s:27698  .debug_str:000000000001a639 .LASF1036
C:\Users\CYMR90~1\AppData\Local\Temp\ccaJ4oak.s:29946  .debug_str:00000000000231c4 .LASF1037
C:\Users\CYMR90~1\AppData\Local\Temp\ccaJ4oak.s:25033  .debug_str:000000000000f9c3 .LASF1038
C:\Users\CYMR90~1\AppData\Local\Temp\ccaJ4oak.s:28576  .debug_str:000000000001df52 .LASF1039
C:\Users\CYMR90~1\AppData\Local\Temp\ccaJ4oak.s:26481  .debug_str:0000000000015628 .LASF1040
C:\Users\CYMR90~1\AppData\Local\Temp\ccaJ4oak.s:24941  .debug_str:000000000000f3a1 .LASF1041
C:\Users\CYMR90~1\AppData\Local\Temp\ccaJ4oak.s:30690  .debug_str:0000000000026336 .LASF1042
C:\Users\CYMR90~1\AppData\Local\Temp\ccaJ4oak.s:25187  .debug_str:0000000000010350 .LASF1043
C:\Users\CYMR90~1\AppData\Local\Temp\ccaJ4oak.s:21127  .debug_str:000000000000019a .LASF1044
C:\Users\CYMR90~1\AppData\Local\Temp\ccaJ4oak.s:23401  .debug_str:000000000000916b .LASF1045
C:\Users\CYMR90~1\AppData\Local\Temp\ccaJ4oak.s:27628  .debug_str:000000000001a0b0 .LASF1046
C:\Users\CYMR90~1\AppData\Local\Temp\ccaJ4oak.s:26735  .debug_str:0000000000016574 .LASF1047
C:\Users\CYMR90~1\AppData\Local\Temp\ccaJ4oak.s:29990  .debug_str:0000000000023453 .LASF1048
C:\Users\CYMR90~1\AppData\Local\Temp\ccaJ4oak.s:28820  .debug_str:000000000001edc9 .LASF1049
C:\Users\CYMR90~1\AppData\Local\Temp\ccaJ4oak.s:21905  .debug_str:00000000000031c2 .LASF1050
C:\Users\CYMR90~1\AppData\Local\Temp\ccaJ4oak.s:28830  .debug_str:000000000001ee54 .LASF1051
C:\Users\CYMR90~1\AppData\Local\Temp\ccaJ4oak.s:29028  .debug_str:000000000001fa7d .LASF1052
C:\Users\CYMR90~1\AppData\Local\Temp\ccaJ4oak.s:23901  .debug_str:000000000000b228 .LASF1053
C:\Users\CYMR90~1\AppData\Local\Temp\ccaJ4oak.s:29892  .debug_str:0000000000022ee5 .LASF1054
C:\Users\CYMR90~1\AppData\Local\Temp\ccaJ4oak.s:25851  .debug_str:0000000000012e48 .LASF1055
C:\Users\CYMR90~1\AppData\Local\Temp\ccaJ4oak.s:24793  .debug_str:000000000000eae7 .LASF1056
C:\Users\CYMR90~1\AppData\Local\Temp\ccaJ4oak.s:31126  .debug_str:0000000000027eb5 .LASF1057
C:\Users\CYMR90~1\AppData\Local\Temp\ccaJ4oak.s:31718  .debug_str:000000000002a381 .LASF1058
C:\Users\CYMR90~1\AppData\Local\Temp\ccaJ4oak.s:30450  .debug_str:00000000000252b8 .LASF1059
C:\Users\CYMR90~1\AppData\Local\Temp\ccaJ4oak.s:21575  .debug_str:0000000000001dac .LASF1060
C:\Users\CYMR90~1\AppData\Local\Temp\ccaJ4oak.s:23213  .debug_str:00000000000085e7 .LASF1061
C:\Users\CYMR90~1\AppData\Local\Temp\ccaJ4oak.s:21259  .debug_str:00000000000009a5 .LASF1062
C:\Users\CYMR90~1\AppData\Local\Temp\ccaJ4oak.s:26221  .debug_str:00000000000145a1 .LASF1063
C:\Users\CYMR90~1\AppData\Local\Temp\ccaJ4oak.s:22113  .debug_str:0000000000003edc .LASF1064
C:\Users\CYMR90~1\AppData\Local\Temp\ccaJ4oak.s:21199  .debug_str:00000000000005ca .LASF1065
C:\Users\CYMR90~1\AppData\Local\Temp\ccaJ4oak.s:32420  .debug_str:000000000002d07c .LASF1066
C:\Users\CYMR90~1\AppData\Local\Temp\ccaJ4oak.s:30294  .debug_str:000000000002482f .LASF1067
C:\Users\CYMR90~1\AppData\Local\Temp\ccaJ4oak.s:30060  .debug_str:000000000002392f .LASF1068
C:\Users\CYMR90~1\AppData\Local\Temp\ccaJ4oak.s:28366  .debug_str:000000000001d1b4 .LASF1069
C:\Users\CYMR90~1\AppData\Local\Temp\ccaJ4oak.s:21313  .debug_str:0000000000000d32 .LASF1070
C:\Users\CYMR90~1\AppData\Local\Temp\ccaJ4oak.s:23665  .debug_str:000000000000a20c .LASF1071
C:\Users\CYMR90~1\AppData\Local\Temp\ccaJ4oak.s:29798  .debug_str:000000000002291a .LASF1072
C:\Users\CYMR90~1\AppData\Local\Temp\ccaJ4oak.s:28330  .debug_str:000000000001cf09 .LASF1073
C:\Users\CYMR90~1\AppData\Local\Temp\ccaJ4oak.s:31374  .debug_str:0000000000028f2e .LASF1074
C:\Users\CYMR90~1\AppData\Local\Temp\ccaJ4oak.s:26938  .debug_str:00000000000174ac .LASF1075
C:\Users\CYMR90~1\AppData\Local\Temp\ccaJ4oak.s:21759  .debug_str:00000000000028c4 .LASF1076
C:\Users\CYMR90~1\AppData\Local\Temp\ccaJ4oak.s:31806  .debug_str:000000000002a93b .LASF1077
C:\Users\CYMR90~1\AppData\Local\Temp\ccaJ4oak.s:22737  .debug_str:0000000000006651 .LASF1078
C:\Users\CYMR90~1\AppData\Local\Temp\ccaJ4oak.s:29260  .debug_str:000000000002091e .LASF1079
C:\Users\CYMR90~1\AppData\Local\Temp\ccaJ4oak.s:24631  .debug_str:000000000000e11b .LASF1080
C:\Users\CYMR90~1\AppData\Local\Temp\ccaJ4oak.s:28140  .debug_str:000000000001c251 .LASF1081
C:\Users\CYMR90~1\AppData\Local\Temp\ccaJ4oak.s:30982  .debug_str:0000000000027580 .LASF1082
C:\Users\CYMR90~1\AppData\Local\Temp\ccaJ4oak.s:26421  .debug_str:000000000001529b .LASF1083
C:\Users\CYMR90~1\AppData\Local\Temp\ccaJ4oak.s:29484  .debug_str:000000000002167a .LASF1084
C:\Users\CYMR90~1\AppData\Local\Temp\ccaJ4oak.s:26097  .debug_str:0000000000013e41 .LASF1085
C:\Users\CYMR90~1\AppData\Local\Temp\ccaJ4oak.s:21523  .debug_str:0000000000001a64 .LASF1086
C:\Users\CYMR90~1\AppData\Local\Temp\ccaJ4oak.s:24665  .debug_str:000000000000e324 .LASF1087
C:\Users\CYMR90~1\AppData\Local\Temp\ccaJ4oak.s:30698  .debug_str:00000000000263c0 .LASF1088
C:\Users\CYMR90~1\AppData\Local\Temp\ccaJ4oak.s:29792  .debug_str:00000000000228c2 .LASF1089
C:\Users\CYMR90~1\AppData\Local\Temp\ccaJ4oak.s:21365  .debug_str:0000000000001081 .LASF1090
C:\Users\CYMR90~1\AppData\Local\Temp\ccaJ4oak.s:32350  .debug_str:000000000002cc02 .LASF1091
C:\Users\CYMR90~1\AppData\Local\Temp\ccaJ4oak.s:31088  .debug_str:0000000000027c20 .LASF1092
C:\Users\CYMR90~1\AppData\Local\Temp\ccaJ4oak.s:25011  .debug_str:000000000000f7be .LASF1093
C:\Users\CYMR90~1\AppData\Local\Temp\ccaJ4oak.s:30742  .debug_str:0000000000026631 .LASF1094
C:\Users\CYMR90~1\AppData\Local\Temp\ccaJ4oak.s:26497  .debug_str:00000000000156c2 .LASF1095
C:\Users\CYMR90~1\AppData\Local\Temp\ccaJ4oak.s:27950  .debug_str:000000000001b6bc .LASF1096
C:\Users\CYMR90~1\AppData\Local\Temp\ccaJ4oak.s:28480  .debug_str:000000000001d91b .LASF1097
C:\Users\CYMR90~1\AppData\Local\Temp\ccaJ4oak.s:22723  .debug_str:000000000000659d .LASF1098
C:\Users\CYMR90~1\AppData\Local\Temp\ccaJ4oak.s:25871  .debug_str:0000000000012f7f .LASF1099
C:\Users\CYMR90~1\AppData\Local\Temp\ccaJ4oak.s:25181  .debug_str:00000000000102e9 .LASF1100
C:\Users\CYMR90~1\AppData\Local\Temp\ccaJ4oak.s:30072  .debug_str:00000000000239cf .LASF1101
C:\Users\CYMR90~1\AppData\Local\Temp\ccaJ4oak.s:24343  .debug_str:000000000000cef2 .LASF1102
C:\Users\CYMR90~1\AppData\Local\Temp\ccaJ4oak.s:29730  .debug_str:00000000000224f0 .LASF1103
C:\Users\CYMR90~1\AppData\Local\Temp\ccaJ4oak.s:31324  .debug_str:0000000000028c86 .LASF1104
C:\Users\CYMR90~1\AppData\Local\Temp\ccaJ4oak.s:29152  .debug_str:000000000002020c .LASF1105
C:\Users\CYMR90~1\AppData\Local\Temp\ccaJ4oak.s:26045  .debug_str:0000000000013b2b .LASF1106
C:\Users\CYMR90~1\AppData\Local\Temp\ccaJ4oak.s:29986  .debug_str:000000000002341d .LASF1107
C:\Users\CYMR90~1\AppData\Local\Temp\ccaJ4oak.s:27866  .debug_str:000000000001b168 .LASF1108
C:\Users\CYMR90~1\AppData\Local\Temp\ccaJ4oak.s:22741  .debug_str:000000000000668d .LASF1109
C:\Users\CYMR90~1\AppData\Local\Temp\ccaJ4oak.s:23695  .debug_str:000000000000a3e5 .LASF1110
C:\Users\CYMR90~1\AppData\Local\Temp\ccaJ4oak.s:21585  .debug_str:0000000000001e4d .LASF1111
C:\Users\CYMR90~1\AppData\Local\Temp\ccaJ4oak.s:22823  .debug_str:0000000000006b9e .LASF1112
C:\Users\CYMR90~1\AppData\Local\Temp\ccaJ4oak.s:23925  .debug_str:000000000000b39c .LASF1113
C:\Users\CYMR90~1\AppData\Local\Temp\ccaJ4oak.s:22477  .debug_str:000000000000567e .LASF1114
C:\Users\CYMR90~1\AppData\Local\Temp\ccaJ4oak.s:23487  .debug_str:00000000000096cc .LASF1115
C:\Users\CYMR90~1\AppData\Local\Temp\ccaJ4oak.s:31168  .debug_str:0000000000028197 .LASF1116
C:\Users\CYMR90~1\AppData\Local\Temp\ccaJ4oak.s:31668  .debug_str:000000000002a0bc .LASF1117
C:\Users\CYMR90~1\AppData\Local\Temp\ccaJ4oak.s:22639  .debug_str:000000000000606c .LASF1118
C:\Users\CYMR90~1\AppData\Local\Temp\ccaJ4oak.s:27102  .debug_str:0000000000017eaa .LASF1119
C:\Users\CYMR90~1\AppData\Local\Temp\ccaJ4oak.s:23181  .debug_str:00000000000083b8 .LASF1120
C:\Users\CYMR90~1\AppData\Local\Temp\ccaJ4oak.s:23385  .debug_str:000000000000909d .LASF1121
C:\Users\CYMR90~1\AppData\Local\Temp\ccaJ4oak.s:25983  .debug_str:0000000000013743 .LASF1122
C:\Users\CYMR90~1\AppData\Local\Temp\ccaJ4oak.s:25617  .debug_str:0000000000011f35 .LASF1123
C:\Users\CYMR90~1\AppData\Local\Temp\ccaJ4oak.s:29236  .debug_str:000000000002079f .LASF1124
C:\Users\CYMR90~1\AppData\Local\Temp\ccaJ4oak.s:26425  .debug_str:00000000000152c4 .LASF1125
C:\Users\CYMR90~1\AppData\Local\Temp\ccaJ4oak.s:26517  .debug_str:00000000000157fb .LASF1126
C:\Users\CYMR90~1\AppData\Local\Temp\ccaJ4oak.s:29882  .debug_str:0000000000022e47 .LASF1127
C:\Users\CYMR90~1\AppData\Local\Temp\ccaJ4oak.s:30980  .debug_str:000000000002756b .LASF1128
C:\Users\CYMR90~1\AppData\Local\Temp\ccaJ4oak.s:22521  .debug_str:0000000000005936 .LASF1129
C:\Users\CYMR90~1\AppData\Local\Temp\ccaJ4oak.s:26515  .debug_str:00000000000157e6 .LASF1130
C:\Users\CYMR90~1\AppData\Local\Temp\ccaJ4oak.s:31500  .debug_str:00000000000296b8 .LASF1131
C:\Users\CYMR90~1\AppData\Local\Temp\ccaJ4oak.s:31904  .debug_str:000000000002aeea .LASF1132
C:\Users\CYMR90~1\AppData\Local\Temp\ccaJ4oak.s:27214  .debug_str:000000000001855e .LASF1133
C:\Users\CYMR90~1\AppData\Local\Temp\ccaJ4oak.s:30042  .debug_str:00000000000237c2 .LASF1134
C:\Users\CYMR90~1\AppData\Local\Temp\ccaJ4oak.s:23067  .debug_str:0000000000007b87 .LASF1135
C:\Users\CYMR90~1\AppData\Local\Temp\ccaJ4oak.s:22291  .debug_str:0000000000004b55 .LASF1136
C:\Users\CYMR90~1\AppData\Local\Temp\ccaJ4oak.s:22119  .debug_str:0000000000003f19 .LASF1137
C:\Users\CYMR90~1\AppData\Local\Temp\ccaJ4oak.s:31510  .debug_str:0000000000029794 .LASF1138
C:\Users\CYMR90~1\AppData\Local\Temp\ccaJ4oak.s:28606  .debug_str:000000000001e11f .LASF1139
C:\Users\CYMR90~1\AppData\Local\Temp\ccaJ4oak.s:28516  .debug_str:000000000001db4b .LASF1140
C:\Users\CYMR90~1\AppData\Local\Temp\ccaJ4oak.s:21173  .debug_str:0000000000000483 .LASF1141
C:\Users\CYMR90~1\AppData\Local\Temp\ccaJ4oak.s:25409  .debug_str:0000000000011152 .LASF1142
C:\Users\CYMR90~1\AppData\Local\Temp\ccaJ4oak.s:24671  .debug_str:000000000000e397 .LASF1143
C:\Users\CYMR90~1\AppData\Local\Temp\ccaJ4oak.s:31036  .debug_str:0000000000027888 .LASF1144
C:\Users\CYMR90~1\AppData\Local\Temp\ccaJ4oak.s:29196  .debug_str:00000000000204c9 .LASF1145
C:\Users\CYMR90~1\AppData\Local\Temp\ccaJ4oak.s:24191  .debug_str:000000000000c551 .LASF1146
C:\Users\CYMR90~1\AppData\Local\Temp\ccaJ4oak.s:32346  .debug_str:000000000002cbc0 .LASF1147
C:\Users\CYMR90~1\AppData\Local\Temp\ccaJ4oak.s:26964  .debug_str:0000000000017603 .LASF1148
C:\Users\CYMR90~1\AppData\Local\Temp\ccaJ4oak.s:27222  .debug_str:000000000001860b .LASF1149
C:\Users\CYMR90~1\AppData\Local\Temp\ccaJ4oak.s:27970  .debug_str:000000000001b7eb .LASF1150
C:\Users\CYMR90~1\AppData\Local\Temp\ccaJ4oak.s:21587  .debug_str:0000000000001e6b .LASF1151
C:\Users\CYMR90~1\AppData\Local\Temp\ccaJ4oak.s:28384  .debug_str:000000000001d2e6 .LASF1152
C:\Users\CYMR90~1\AppData\Local\Temp\ccaJ4oak.s:23511  .debug_str:000000000000980b .LASF1153
C:\Users\CYMR90~1\AppData\Local\Temp\ccaJ4oak.s:29498  .debug_str:000000000002172c .LASF1154
C:\Users\CYMR90~1\AppData\Local\Temp\ccaJ4oak.s:28738  .debug_str:000000000001e917 .LASF1155
C:\Users\CYMR90~1\AppData\Local\Temp\ccaJ4oak.s:22411  .debug_str:0000000000005272 .LASF1156
C:\Users\CYMR90~1\AppData\Local\Temp\ccaJ4oak.s:28572  .debug_str:000000000001df09 .LASF1157
C:\Users\CYMR90~1\AppData\Local\Temp\ccaJ4oak.s:23943  .debug_str:000000000000b48c .LASF1158
C:\Users\CYMR90~1\AppData\Local\Temp\ccaJ4oak.s:31686  .debug_str:000000000002a1e5 .LASF1159
C:\Users\CYMR90~1\AppData\Local\Temp\ccaJ4oak.s:21471  .debug_str:00000000000016a2 .LASF1160
C:\Users\CYMR90~1\AppData\Local\Temp\ccaJ4oak.s:31768  .debug_str:000000000002a6e3 .LASF1161
C:\Users\CYMR90~1\AppData\Local\Temp\ccaJ4oak.s:31450  .debug_str:00000000000293e3 .LASF1162
C:\Users\CYMR90~1\AppData\Local\Temp\ccaJ4oak.s:28466  .debug_str:000000000001d85b .LASF1163
C:\Users\CYMR90~1\AppData\Local\Temp\ccaJ4oak.s:27598  .debug_str:0000000000019ee3 .LASF1164
C:\Users\CYMR90~1\AppData\Local\Temp\ccaJ4oak.s:24483  .debug_str:000000000000d893 .LASF1165
C:\Users\CYMR90~1\AppData\Local\Temp\ccaJ4oak.s:29122  .debug_str:000000000002006d .LASF1166
C:\Users\CYMR90~1\AppData\Local\Temp\ccaJ4oak.s:25371  .debug_str:0000000000010f5f .LASF1167
C:\Users\CYMR90~1\AppData\Local\Temp\ccaJ4oak.s:23509  .debug_str:0000000000009801 .LASF1168
C:\Users\CYMR90~1\AppData\Local\Temp\ccaJ4oak.s:26457  .debug_str:00000000000154b7 .LASF1169
C:\Users\CYMR90~1\AppData\Local\Temp\ccaJ4oak.s:27806  .debug_str:000000000001ad80 .LASF1170
C:\Users\CYMR90~1\AppData\Local\Temp\ccaJ4oak.s:27514  .debug_str:000000000001996f .LASF1171
C:\Users\CYMR90~1\AppData\Local\Temp\ccaJ4oak.s:31712  .debug_str:000000000002a34f .LASF1172
C:\Users\CYMR90~1\AppData\Local\Temp\ccaJ4oak.s:26745  .debug_str:00000000000165fd .LASF1173
C:\Users\CYMR90~1\AppData\Local\Temp\ccaJ4oak.s:21293  .debug_str:0000000000000c32 .LASF1174
C:\Users\CYMR90~1\AppData\Local\Temp\ccaJ4oak.s:21695  .debug_str:0000000000002464 .LASF1175
C:\Users\CYMR90~1\AppData\Local\Temp\ccaJ4oak.s:25955  .debug_str:000000000001358c .LASF1176
C:\Users\CYMR90~1\AppData\Local\Temp\ccaJ4oak.s:24291  .debug_str:000000000000cc1a .LASF1177
C:\Users\CYMR90~1\AppData\Local\Temp\ccaJ4oak.s:28524  .debug_str:000000000001dbce .LASF1178
C:\Users\CYMR90~1\AppData\Local\Temp\ccaJ4oak.s:24907  .debug_str:000000000000f176 .LASF1179
C:\Users\CYMR90~1\AppData\Local\Temp\ccaJ4oak.s:24469  .debug_str:000000000000d7e3 .LASF1180
C:\Users\CYMR90~1\AppData\Local\Temp\ccaJ4oak.s:30256  .debug_str:00000000000245cf .LASF1181
C:\Users\CYMR90~1\AppData\Local\Temp\ccaJ4oak.s:31456  .debug_str:0000000000029419 .LASF1182
C:\Users\CYMR90~1\AppData\Local\Temp\ccaJ4oak.s:21869  .debug_str:0000000000002f66 .LASF1183
C:\Users\CYMR90~1\AppData\Local\Temp\ccaJ4oak.s:28842  .debug_str:000000000001ef0f .LASF1184
C:\Users\CYMR90~1\AppData\Local\Temp\ccaJ4oak.s:29294  .debug_str:0000000000020af8 .LASF1185
C:\Users\CYMR90~1\AppData\Local\Temp\ccaJ4oak.s:30490  .debug_str:00000000000255ed .LASF1186
C:\Users\CYMR90~1\AppData\Local\Temp\ccaJ4oak.s:21591  .debug_str:0000000000001e9d .LASF1187
C:\Users\CYMR90~1\AppData\Local\Temp\ccaJ4oak.s:22531  .debug_str:00000000000059c6 .LASF1188
C:\Users\CYMR90~1\AppData\Local\Temp\ccaJ4oak.s:29778  .debug_str:00000000000227d5 .LASF1189
C:\Users\CYMR90~1\AppData\Local\Temp\ccaJ4oak.s:23071  .debug_str:0000000000007bb8 .LASF1190
C:\Users\CYMR90~1\AppData\Local\Temp\ccaJ4oak.s:29828  .debug_str:0000000000022ad7 .LASF1191
C:\Users\CYMR90~1\AppData\Local\Temp\ccaJ4oak.s:24265  .debug_str:000000000000ca71 .LASF1192
C:\Users\CYMR90~1\AppData\Local\Temp\ccaJ4oak.s:29486  .debug_str:000000000002168c .LASF1193
C:\Users\CYMR90~1\AppData\Local\Temp\ccaJ4oak.s:24515  .debug_str:000000000000da4a .LASF1194
C:\Users\CYMR90~1\AppData\Local\Temp\ccaJ4oak.s:28068  .debug_str:000000000001bdb0 .LASF1195
C:\Users\CYMR90~1\AppData\Local\Temp\ccaJ4oak.s:25453  .debug_str:00000000000113ff .LASF1196
C:\Users\CYMR90~1\AppData\Local\Temp\ccaJ4oak.s:29522  .debug_str:00000000000218b4 .LASF1197
C:\Users\CYMR90~1\AppData\Local\Temp\ccaJ4oak.s:31710  .debug_str:000000000002a340 .LASF1198
C:\Users\CYMR90~1\AppData\Local\Temp\ccaJ4oak.s:26767  .debug_str:00000000000167f2 .LASF1199
C:\Users\CYMR90~1\AppData\Local\Temp\ccaJ4oak.s:31716  .debug_str:000000000002a376 .LASF1200
C:\Users\CYMR90~1\AppData\Local\Temp\ccaJ4oak.s:23759  .debug_str:000000000000a7b1 .LASF1201
C:\Users\CYMR90~1\AppData\Local\Temp\ccaJ4oak.s:23417  .debug_str:000000000000927b .LASF1202
C:\Users\CYMR90~1\AppData\Local\Temp\ccaJ4oak.s:26952  .debug_str:0000000000017562 .LASF1203
C:\Users\CYMR90~1\AppData\Local\Temp\ccaJ4oak.s:30814  .debug_str:0000000000026ab1 .LASF1204
C:\Users\CYMR90~1\AppData\Local\Temp\ccaJ4oak.s:26007  .debug_str:00000000000138ff .LASF1205
C:\Users\CYMR90~1\AppData\Local\Temp\ccaJ4oak.s:25077  .debug_str:000000000000fc4f .LASF1206
C:\Users\CYMR90~1\AppData\Local\Temp\ccaJ4oak.s:31682  .debug_str:000000000002a1b3 .LASF1207
C:\Users\CYMR90~1\AppData\Local\Temp\ccaJ4oak.s:30348  .debug_str:0000000000024bd5 .LASF1208
C:\Users\CYMR90~1\AppData\Local\Temp\ccaJ4oak.s:25003  .debug_str:000000000000f766 .LASF1209
C:\Users\CYMR90~1\AppData\Local\Temp\ccaJ4oak.s:22423  .debug_str:0000000000005324 .LASF1210
C:\Users\CYMR90~1\AppData\Local\Temp\ccaJ4oak.s:22523  .debug_str:000000000000594c .LASF1211
C:\Users\CYMR90~1\AppData\Local\Temp\ccaJ4oak.s:23217  .debug_str:000000000000862b .LASF1212
C:\Users\CYMR90~1\AppData\Local\Temp\ccaJ4oak.s:22817  .debug_str:0000000000006b1e .LASF1213
C:\Users\CYMR90~1\AppData\Local\Temp\ccaJ4oak.s:21705  .debug_str:0000000000002520 .LASF1214
C:\Users\CYMR90~1\AppData\Local\Temp\ccaJ4oak.s:23553  .debug_str:0000000000009b32 .LASF1215
C:\Users\CYMR90~1\AppData\Local\Temp\ccaJ4oak.s:21647  .debug_str:000000000000219b .LASF1216
C:\Users\CYMR90~1\AppData\Local\Temp\ccaJ4oak.s:29942  .debug_str:0000000000023197 .LASF1217
C:\Users\CYMR90~1\AppData\Local\Temp\ccaJ4oak.s:29956  .debug_str:000000000002324b .LASF1218
C:\Users\CYMR90~1\AppData\Local\Temp\ccaJ4oak.s:30402  .debug_str:0000000000024f65 .LASF1219
C:\Users\CYMR90~1\AppData\Local\Temp\ccaJ4oak.s:27954  .debug_str:000000000001b6f0 .LASF1220
C:\Users\CYMR90~1\AppData\Local\Temp\ccaJ4oak.s:24559  .debug_str:000000000000dcb7 .LASF1221
C:\Users\CYMR90~1\AppData\Local\Temp\ccaJ4oak.s:26273  .debug_str:0000000000014924 .LASF1222
C:\Users\CYMR90~1\AppData\Local\Temp\ccaJ4oak.s:21889  .debug_str:000000000000309a .LASF1223
C:\Users\CYMR90~1\AppData\Local\Temp\ccaJ4oak.s:30594  .debug_str:0000000000025d3e .LASF1224
C:\Users\CYMR90~1\AppData\Local\Temp\ccaJ4oak.s:31000  .debug_str:000000000002769b .LASF1225
C:\Users\CYMR90~1\AppData\Local\Temp\ccaJ4oak.s:24031  .debug_str:000000000000ba80 .LASF1226
C:\Users\CYMR90~1\AppData\Local\Temp\ccaJ4oak.s:22957  .debug_str:00000000000074a4 .LASF1227
C:\Users\CYMR90~1\AppData\Local\Temp\ccaJ4oak.s:21979  .debug_str:0000000000003679 .LASF1228
C:\Users\CYMR90~1\AppData\Local\Temp\ccaJ4oak.s:32404  .debug_str:000000000002cf98 .LASF1229
C:\Users\CYMR90~1\AppData\Local\Temp\ccaJ4oak.s:31432  .debug_str:00000000000292d3 .LASF1230
C:\Users\CYMR90~1\AppData\Local\Temp\ccaJ4oak.s:30458  .debug_str:000000000002532f .LASF1231
C:\Users\CYMR90~1\AppData\Local\Temp\ccaJ4oak.s:29472  .debug_str:00000000000215cb .LASF1232
C:\Users\CYMR90~1\AppData\Local\Temp\ccaJ4oak.s:29354  .debug_str:0000000000020e7a .LASF1233
C:\Users\CYMR90~1\AppData\Local\Temp\ccaJ4oak.s:28404  .debug_str:000000000001d401 .LASF1234
C:\Users\CYMR90~1\AppData\Local\Temp\ccaJ4oak.s:27468  .debug_str:0000000000019671 .LASF1235
C:\Users\CYMR90~1\AppData\Local\Temp\ccaJ4oak.s:26169  .debug_str:00000000000142c9 .LASF1236
C:\Users\CYMR90~1\AppData\Local\Temp\ccaJ4oak.s:25535  .debug_str:00000000000119eb .LASF1237
C:\Users\CYMR90~1\AppData\Local\Temp\ccaJ4oak.s:31964  .debug_str:000000000002b238 .LASF1238
C:\Users\CYMR90~1\AppData\Local\Temp\ccaJ4oak.s:23625  .debug_str:0000000000009f6b .LASF1239
C:\Users\CYMR90~1\AppData\Local\Temp\ccaJ4oak.s:22633  .debug_str:0000000000005fc5 .LASF1240
C:\Users\CYMR90~1\AppData\Local\Temp\ccaJ4oak.s:21663  .debug_str:0000000000002287 .LASF1241
C:\Users\CYMR90~1\AppData\Local\Temp\ccaJ4oak.s:32102  .debug_str:000000000002bb7a .LASF1242
C:\Users\CYMR90~1\AppData\Local\Temp\ccaJ4oak.s:21187  .debug_str:0000000000000534 .LASF1243
C:\Users\CYMR90~1\AppData\Local\Temp\ccaJ4oak.s:31576  .debug_str:0000000000029b79 .LASF1244
C:\Users\CYMR90~1\AppData\Local\Temp\ccaJ4oak.s:30600  .debug_str:0000000000025d90 .LASF1245
C:\Users\CYMR90~1\AppData\Local\Temp\ccaJ4oak.s:29630  .debug_str:0000000000021f48 .LASF1246
C:\Users\CYMR90~1\AppData\Local\Temp\ccaJ4oak.s:28646  .debug_str:000000000001e33b .LASF1247
C:\Users\CYMR90~1\AppData\Local\Temp\ccaJ4oak.s:27752  .debug_str:000000000001aa1a .LASF1248
C:\Users\CYMR90~1\AppData\Local\Temp\ccaJ4oak.s:26809  .debug_str:0000000000016ad6 .LASF1249
C:\Users\CYMR90~1\AppData\Local\Temp\ccaJ4oak.s:25875  .debug_str:0000000000012fe2 .LASF1250
C:\Users\CYMR90~1\AppData\Local\Temp\ccaJ4oak.s:24913  .debug_str:000000000000f1bb .LASF1251
C:\Users\CYMR90~1\AppData\Local\Temp\ccaJ4oak.s:27064  .debug_str:0000000000017c8a .LASF1252
C:\Users\CYMR90~1\AppData\Local\Temp\ccaJ4oak.s:24405  .debug_str:000000000000d328 .LASF1253
C:\Users\CYMR90~1\AppData\Local\Temp\ccaJ4oak.s:23431  .debug_str:000000000000934a .LASF1254
C:\Users\CYMR90~1\AppData\Local\Temp\ccaJ4oak.s:21431  .debug_str:000000000000147b .LASF1255
C:\Users\CYMR90~1\AppData\Local\Temp\ccaJ4oak.s:24319  .debug_str:000000000000cdbf .LASF1256
C:\Users\CYMR90~1\AppData\Local\Temp\ccaJ4oak.s:22589  .debug_str:0000000000005d4b .LASF1257
C:\Users\CYMR90~1\AppData\Local\Temp\ccaJ4oak.s:27336  .debug_str:0000000000018d84 .LASF1258
C:\Users\CYMR90~1\AppData\Local\Temp\ccaJ4oak.s:27338  .debug_str:0000000000018d97 .LASF1259
C:\Users\CYMR90~1\AppData\Local\Temp\ccaJ4oak.s:29832  .debug_str:0000000000022b07 .LASF1260
C:\Users\CYMR90~1\AppData\Local\Temp\ccaJ4oak.s:27948  .debug_str:000000000001b6a9 .LASF1261
C:\Users\CYMR90~1\AppData\Local\Temp\ccaJ4oak.s:25341  .debug_str:0000000000010df5 .LASF1262
C:\Users\CYMR90~1\AppData\Local\Temp\ccaJ4oak.s:22481  .debug_str:00000000000056c1 .LASF1263
C:\Users\CYMR90~1\AppData\Local\Temp\ccaJ4oak.s:24647  .debug_str:000000000000e201 .LASF1264
C:\Users\CYMR90~1\AppData\Local\Temp\ccaJ4oak.s:26833  .debug_str:0000000000016ce3 .LASF1265
C:\Users\CYMR90~1\AppData\Local\Temp\ccaJ4oak.s:28618  .debug_str:000000000001e1d3 .LASF1266
C:\Users\CYMR90~1\AppData\Local\Temp\ccaJ4oak.s:29860  .debug_str:0000000000022d2a .LASF1267
C:\Users\CYMR90~1\AppData\Local\Temp\ccaJ4oak.s:30036  .debug_str:0000000000023778 .LASF1268
C:\Users\CYMR90~1\AppData\Local\Temp\ccaJ4oak.s:25471  .debug_str:00000000000114f1 .LASF1269
C:\Users\CYMR90~1\AppData\Local\Temp\ccaJ4oak.s:27864  .debug_str:000000000001b153 .LASF1270
C:\Users\CYMR90~1\AppData\Local\Temp\ccaJ4oak.s:32012  .debug_str:000000000002b56f .LASF1271
C:\Users\CYMR90~1\AppData\Local\Temp\ccaJ4oak.s:31538  .debug_str:0000000000029947 .LASF1272
C:\Users\CYMR90~1\AppData\Local\Temp\ccaJ4oak.s:28526  .debug_str:000000000001dbdb .LASF1273
C:\Users\CYMR90~1\AppData\Local\Temp\ccaJ4oak.s:21249  .debug_str:0000000000000917 .LASF1274
C:\Users\CYMR90~1\AppData\Local\Temp\ccaJ4oak.s:27344  .debug_str:0000000000018de5 .LASF1275
C:\Users\CYMR90~1\AppData\Local\Temp\ccaJ4oak.s:21355  .debug_str:0000000000000ffd .LASF1276
C:\Users\CYMR90~1\AppData\Local\Temp\ccaJ4oak.s:23647  .debug_str:000000000000a0e8 .LASF1277
C:\Users\CYMR90~1\AppData\Local\Temp\ccaJ4oak.s:22653  .debug_str:0000000000006146 .LASF1278
C:\Users\CYMR90~1\AppData\Local\Temp\ccaJ4oak.s:21693  .debug_str:0000000000002452 .LASF1279
C:\Users\CYMR90~1\AppData\Local\Temp\ccaJ4oak.s:32126  .debug_str:000000000002bcde .LASF1280
C:\Users\CYMR90~1\AppData\Local\Temp\ccaJ4oak.s:22543  .debug_str:0000000000005a8a .LASF1281
C:\Users\CYMR90~1\AppData\Local\Temp\ccaJ4oak.s:21577  .debug_str:0000000000001dc9 .LASF1282
C:\Users\CYMR90~1\AppData\Local\Temp\ccaJ4oak.s:28688  .debug_str:000000000001e5ce .LASF1283
C:\Users\CYMR90~1\AppData\Local\Temp\ccaJ4oak.s:21321  .debug_str:0000000000000da2 .LASF1284
C:\Users\CYMR90~1\AppData\Local\Temp\ccaJ4oak.s:30062  .debug_str:0000000000023949 .LASF1285
C:\Users\CYMR90~1\AppData\Local\Temp\ccaJ4oak.s:29072  .debug_str:000000000001fd2c .LASF1286
C:\Users\CYMR90~1\AppData\Local\Temp\ccaJ4oak.s:28134  .debug_str:000000000001c1d2 .LASF1287
C:\Users\CYMR90~1\AppData\Local\Temp\ccaJ4oak.s:27176  .debug_str:000000000001832e .LASF1288
C:\Users\CYMR90~1\AppData\Local\Temp\ccaJ4oak.s:26209  .debug_str:0000000000014513 .LASF1289
C:\Users\CYMR90~1\AppData\Local\Temp\ccaJ4oak.s:25271  .debug_str:00000000000108e8 .LASF1290
C:\Users\CYMR90~1\AppData\Local\Temp\ccaJ4oak.s:29578  .debug_str:0000000000021c30 .LASF1291
C:\Users\CYMR90~1\AppData\Local\Temp\ccaJ4oak.s:28594  .debug_str:000000000001e082 .LASF1292
C:\Users\CYMR90~1\AppData\Local\Temp\ccaJ4oak.s:27688  .debug_str:000000000001a5d2 .LASF1293
C:\Users\CYMR90~1\AppData\Local\Temp\ccaJ4oak.s:26697  .debug_str:0000000000016363 .LASF1294
C:\Users\CYMR90~1\AppData\Local\Temp\ccaJ4oak.s:25769  .debug_str:00000000000128f6 .LASF1295
C:\Users\CYMR90~1\AppData\Local\Temp\ccaJ4oak.s:24805  .debug_str:000000000000ebc4 .LASF1296
C:\Users\CYMR90~1\AppData\Local\Temp\ccaJ4oak.s:24169  .debug_str:000000000000c3fb .LASF1297
C:\Users\CYMR90~1\AppData\Local\Temp\ccaJ4oak.s:29038  .debug_str:000000000001fb08 .LASF1298
C:\Users\CYMR90~1\AppData\Local\Temp\ccaJ4oak.s:28108  .debug_str:000000000001c05c .LASF1299
C:\Users\CYMR90~1\AppData\Local\Temp\ccaJ4oak.s:21439  .debug_str:00000000000014ea .LASF1300
C:\Users\CYMR90~1\AppData\Local\Temp\ccaJ4oak.s:28080  .debug_str:000000000001be84 .LASF1301
C:\Users\CYMR90~1\AppData\Local\Temp\ccaJ4oak.s:29290  .debug_str:0000000000020ad5 .LASF1302
C:\Users\CYMR90~1\AppData\Local\Temp\ccaJ4oak.s:26743  .debug_str:00000000000165ea .LASF1303
C:\Users\CYMR90~1\AppData\Local\Temp\ccaJ4oak.s:27608  .debug_str:0000000000019f87 .LASF1304
C:\Users\CYMR90~1\AppData\Local\Temp\ccaJ4oak.s:27580  .debug_str:0000000000019df3 .LASF1305
C:\Users\CYMR90~1\AppData\Local\Temp\ccaJ4oak.s:23329  .debug_str:0000000000008cef .LASF1306
C:\Users\CYMR90~1\AppData\Local\Temp\ccaJ4oak.s:22325  .debug_str:0000000000004d74 .LASF1307
C:\Users\CYMR90~1\AppData\Local\Temp\ccaJ4oak.s:21367  .debug_str:0000000000001093 .LASF1308
C:\Users\CYMR90~1\AppData\Local\Temp\ccaJ4oak.s:31784  .debug_str:000000000002a7e2 .LASF1309
C:\Users\CYMR90~1\AppData\Local\Temp\ccaJ4oak.s:30810  .debug_str:0000000000026a76 .LASF1310
C:\Users\CYMR90~1\AppData\Local\Temp\ccaJ4oak.s:29836  .debug_str:0000000000022b35 .LASF1311
C:\Users\CYMR90~1\AppData\Local\Temp\ccaJ4oak.s:26079  .debug_str:0000000000013d2d .LASF1312
C:\Users\CYMR90~1\AppData\Local\Temp\ccaJ4oak.s:22535  .debug_str:0000000000005a18 .LASF1313
C:\Users\CYMR90~1\AppData\Local\Temp\ccaJ4oak.s:25929  .debug_str:0000000000013338 .LASF1314
C:\Users\CYMR90~1\AppData\Local\Temp\ccaJ4oak.s:32000  .debug_str:000000000002b493 .LASF1315
C:\Users\CYMR90~1\AppData\Local\Temp\ccaJ4oak.s:30530  .debug_str:00000000000258c8 .LASF1316
C:\Users\CYMR90~1\AppData\Local\Temp\ccaJ4oak.s:30054  .debug_str:00000000000238a7 .LASF1317
C:\Users\CYMR90~1\AppData\Local\Temp\ccaJ4oak.s:29064  .debug_str:000000000001fcbf .LASF1318
C:\Users\CYMR90~1\AppData\Local\Temp\ccaJ4oak.s:28144  .debug_str:000000000001c27c .LASF1319
C:\Users\CYMR90~1\AppData\Local\Temp\ccaJ4oak.s:27186  .debug_str:00000000000183dc .LASF1320
C:\Users\CYMR90~1\AppData\Local\Temp\ccaJ4oak.s:26219  .debug_str:0000000000014589 .LASF1321
C:\Users\CYMR90~1\AppData\Local\Temp\ccaJ4oak.s:25277  .debug_str:0000000000010943 .LASF1322
C:\Users\CYMR90~1\AppData\Local\Temp\ccaJ4oak.s:25739  .debug_str:00000000000126fe .LASF1323
C:\Users\CYMR90~1\AppData\Local\Temp\ccaJ4oak.s:24173  .debug_str:000000000000c420 .LASF1324
C:\Users\CYMR90~1\AppData\Local\Temp\ccaJ4oak.s:23809  .debug_str:000000000000ab95 .LASF1325
C:\Users\CYMR90~1\AppData\Local\Temp\ccaJ4oak.s:22825  .debug_str:0000000000006bba .LASF1326
C:\Users\CYMR90~1\AppData\Local\Temp\ccaJ4oak.s:21847  .debug_str:0000000000002e16 .LASF1327
C:\Users\CYMR90~1\AppData\Local\Temp\ccaJ4oak.s:32280  .debug_str:000000000002c75a .LASF1328
C:\Users\CYMR90~1\AppData\Local\Temp\ccaJ4oak.s:31352  .debug_str:0000000000028dfe .LASF1329
C:\Users\CYMR90~1\AppData\Local\Temp\ccaJ4oak.s:30382  .debug_str:0000000000024df7 .LASF1330
C:\Users\CYMR90~1\AppData\Local\Temp\ccaJ4oak.s:29392  .debug_str:0000000000021081 .LASF1331
C:\Users\CYMR90~1\AppData\Local\Temp\ccaJ4oak.s:28438  .debug_str:000000000001d652 .LASF1332
C:\Users\CYMR90~1\AppData\Local\Temp\ccaJ4oak.s:28864  .debug_str:000000000001f088 .LASF1333
C:\Users\CYMR90~1\AppData\Local\Temp\ccaJ4oak.s:27964  .debug_str:000000000001b78f .LASF1334
C:\Users\CYMR90~1\AppData\Local\Temp\ccaJ4oak.s:26659  .debug_str:000000000001612f .LASF1335
C:\Users\CYMR90~1\AppData\Local\Temp\ccaJ4oak.s:24315  .debug_str:000000000000cd83 .LASF1336
C:\Users\CYMR90~1\AppData\Local\Temp\ccaJ4oak.s:29080  .debug_str:000000000001fd8b .LASF1337
C:\Users\CYMR90~1\AppData\Local\Temp\ccaJ4oak.s:25615  .debug_str:0000000000011f20 .LASF1338
C:\Users\CYMR90~1\AppData\Local\Temp\ccaJ4oak.s:21475  .debug_str:00000000000016da .LASF1339
C:\Users\CYMR90~1\AppData\Local\Temp\ccaJ4oak.s:23597  .debug_str:0000000000009dc7 .LASF1340
C:\Users\CYMR90~1\AppData\Local\Temp\ccaJ4oak.s:22603  .debug_str:0000000000005e1f .LASF1341
C:\Users\CYMR90~1\AppData\Local\Temp\ccaJ4oak.s:21633  .debug_str:00000000000020e4 .LASF1342
C:\Users\CYMR90~1\AppData\Local\Temp\ccaJ4oak.s:32080  .debug_str:000000000002b9f0 .LASF1343
C:\Users\CYMR90~1\AppData\Local\Temp\ccaJ4oak.s:31870  .debug_str:000000000002acc5 .LASF1344
C:\Users\CYMR90~1\AppData\Local\Temp\ccaJ4oak.s:30896  .debug_str:0000000000026fca .LASF1345
C:\Users\CYMR90~1\AppData\Local\Temp\ccaJ4oak.s:29922  .debug_str:0000000000023081 .LASF1346
C:\Users\CYMR90~1\AppData\Local\Temp\ccaJ4oak.s:31308  .debug_str:0000000000028b91 .LASF1347
C:\Users\CYMR90~1\AppData\Local\Temp\ccaJ4oak.s:28010  .debug_str:000000000001ba56 .LASF1348
C:\Users\CYMR90~1\AppData\Local\Temp\ccaJ4oak.s:24605  .debug_str:000000000000df97 .LASF1349
C:\Users\CYMR90~1\AppData\Local\Temp\ccaJ4oak.s:26089  .debug_str:0000000000013dd3 .LASF1350
C:\Users\CYMR90~1\AppData\Local\Temp\ccaJ4oak.s:29222  .debug_str:00000000000206c1 .LASF1351
C:\Users\CYMR90~1\AppData\Local\Temp\ccaJ4oak.s:24187  .debug_str:000000000000c526 .LASF1352
C:\Users\CYMR90~1\AppData\Local\Temp\ccaJ4oak.s:23115  .debug_str:0000000000007ee7 .LASF1353
C:\Users\CYMR90~1\AppData\Local\Temp\ccaJ4oak.s:23679  .debug_str:000000000000a2f1 .LASF1354
C:\Users\CYMR90~1\AppData\Local\Temp\ccaJ4oak.s:22687  .debug_str:0000000000006390 .LASF1355
C:\Users\CYMR90~1\AppData\Local\Temp\ccaJ4oak.s:21717  .debug_str:00000000000025c0 .LASF1356
C:\Users\CYMR90~1\AppData\Local\Temp\ccaJ4oak.s:32156  .debug_str:000000000002befc .LASF1357
C:\Users\CYMR90~1\AppData\Local\Temp\ccaJ4oak.s:26181  .debug_str:0000000000014391 .LASF1358
C:\Users\CYMR90~1\AppData\Local\Temp\ccaJ4oak.s:22819  .debug_str:0000000000006b62 .LASF1359
C:\Users\CYMR90~1\AppData\Local\Temp\ccaJ4oak.s:29268  .debug_str:0000000000020987 .LASF1360
C:\Users\CYMR90~1\AppData\Local\Temp\ccaJ4oak.s:28232  .debug_str:000000000001c7b9 .LASF1361
C:\Users\CYMR90~1\AppData\Local\Temp\ccaJ4oak.s:27278  .debug_str:0000000000018940 .LASF1362
C:\Users\CYMR90~1\AppData\Local\Temp\ccaJ4oak.s:31318  .debug_str:0000000000028c22 .LASF1363
C:\Users\CYMR90~1\AppData\Local\Temp\ccaJ4oak.s:26581  .debug_str:0000000000015bb0 .LASF1364
C:\Users\CYMR90~1\AppData\Local\Temp\ccaJ4oak.s:23235  .debug_str:000000000000872e .LASF1365
C:\Users\CYMR90~1\AppData\Local\Temp\ccaJ4oak.s:30924  .debug_str:0000000000027175 .LASF1366
C:\Users\CYMR90~1\AppData\Local\Temp\ccaJ4oak.s:30168  .debug_str:0000000000023f6c .LASF1367
C:\Users\CYMR90~1\AppData\Local\Temp\ccaJ4oak.s:29162  .debug_str:0000000000020299 .LASF1368
C:\Users\CYMR90~1\AppData\Local\Temp\ccaJ4oak.s:27440  .debug_str:0000000000019497 .LASF1369
C:\Users\CYMR90~1\AppData\Local\Temp\ccaJ4oak.s:25321  .debug_str:0000000000010c03 .LASF1370
C:\Users\CYMR90~1\AppData\Local\Temp\ccaJ4oak.s:28448  .debug_str:000000000001d6dd .LASF1371
C:\Users\CYMR90~1\AppData\Local\Temp\ccaJ4oak.s:21765  .debug_str:0000000000002917 .LASF1372
C:\Users\CYMR90~1\AppData\Local\Temp\ccaJ4oak.s:24359  .debug_str:000000000000d022 .LASF1373
C:\Users\CYMR90~1\AppData\Local\Temp\ccaJ4oak.s:27488  .debug_str:0000000000019786 .LASF1374
C:\Users\CYMR90~1\AppData\Local\Temp\ccaJ4oak.s:30592  .debug_str:0000000000025d27 .LASF1375
C:\Users\CYMR90~1\AppData\Local\Temp\ccaJ4oak.s:22353  .debug_str:0000000000004f13 .LASF1376
C:\Users\CYMR90~1\AppData\Local\Temp\ccaJ4oak.s:25519  .debug_str:000000000001183b .LASF1377
C:\Users\CYMR90~1\AppData\Local\Temp\ccaJ4oak.s:28600  .debug_str:000000000001e0dc .LASF1378
C:\Users\CYMR90~1\AppData\Local\Temp\ccaJ4oak.s:31780  .debug_str:000000000002a7a5 .LASF1379
C:\Users\CYMR90~1\AppData\Local\Temp\ccaJ4oak.s:31748  .debug_str:000000000002a584 .LASF1380
C:\Users\CYMR90~1\AppData\Local\Temp\ccaJ4oak.s:23445  .debug_str:000000000000941b .LASF1381
C:\Users\CYMR90~1\AppData\Local\Temp\ccaJ4oak.s:26553  .debug_str:0000000000015a0f .LASF1382
C:\Users\CYMR90~1\AppData\Local\Temp\ccaJ4oak.s:29674  .debug_str:00000000000221d4 .LASF1383
C:\Users\CYMR90~1\AppData\Local\Temp\ccaJ4oak.s:21447  .debug_str:000000000000153d .LASF1384
C:\Users\CYMR90~1\AppData\Local\Temp\ccaJ4oak.s:25993  .debug_str:000000000001380f .LASF1385
C:\Users\CYMR90~1\AppData\Local\Temp\ccaJ4oak.s:27786  .debug_str:000000000001ac44 .LASF1386
C:\Users\CYMR90~1\AppData\Local\Temp\ccaJ4oak.s:30886  .debug_str:0000000000026f09 .LASF1387
C:\Users\CYMR90~1\AppData\Local\Temp\ccaJ4oak.s:22641  .debug_str:000000000000608e .LASF1388
C:\Users\CYMR90~1\AppData\Local\Temp\ccaJ4oak.s:25719  .debug_str:00000000000125c2 .LASF1389
C:\Users\CYMR90~1\AppData\Local\Temp\ccaJ4oak.s:25083  .debug_str:000000000000fc95 .LASF1390
C:\Users\CYMR90~1\AppData\Local\Temp\ccaJ4oak.s:28092  .debug_str:000000000001bf48 .LASF1391
C:\Users\CYMR90~1\AppData\Local\Temp\ccaJ4oak.s:31224  .debug_str:00000000000285d4 .LASF1392
C:\Users\CYMR90~1\AppData\Local\Temp\ccaJ4oak.s:22991  .debug_str:000000000000768a .LASF1393
C:\Users\CYMR90~1\AppData\Local\Temp\ccaJ4oak.s:26119  .debug_str:0000000000013f7f .LASF1394
C:\Users\CYMR90~1\AppData\Local\Temp\ccaJ4oak.s:26271  .debug_str:000000000001490c .LASF1395
C:\Users\CYMR90~1\AppData\Local\Temp\ccaJ4oak.s:32462  .debug_str:000000000002d315 .LASF1396
C:\Users\CYMR90~1\AppData\Local\Temp\ccaJ4oak.s:24239  .debug_str:000000000000c83e .LASF1397
C:\Users\CYMR90~1\AppData\Local\Temp\ccaJ4oak.s:27362  .debug_str:0000000000018f05 .LASF1398
C:\Users\CYMR90~1\AppData\Local\Temp\ccaJ4oak.s:25425  .debug_str:0000000000011247 .LASF1399
C:\Users\CYMR90~1\AppData\Local\Temp\ccaJ4oak.s:26725  .debug_str:00000000000164fb .LASF1400
C:\Users\CYMR90~1\AppData\Local\Temp\ccaJ4oak.s:21403  .debug_str:00000000000012be .LASF1401
C:\Users\CYMR90~1\AppData\Local\Temp\ccaJ4oak.s:29144  .debug_str:00000000000201b5 .LASF1402
C:\Users\CYMR90~1\AppData\Local\Temp\ccaJ4oak.s:24069  .debug_str:000000000000bd17 .LASF1403
C:\Users\CYMR90~1\AppData\Local\Temp\ccaJ4oak.s:28912  .debug_str:000000000001f388 .LASF1404
C:\Users\CYMR90~1\AppData\Local\Temp\ccaJ4oak.s:22133  .debug_str:000000000000406c .LASF1405
C:\Users\CYMR90~1\AppData\Local\Temp\ccaJ4oak.s:31706  .debug_str:000000000002a2f0 .LASF1406
C:\Users\CYMR90~1\AppData\Local\Temp\ccaJ4oak.s:29880  .debug_str:0000000000022e2f .LASF1407
C:\Users\CYMR90~1\AppData\Local\Temp\ccaJ4oak.s:30040  .debug_str:00000000000237aa .LASF1408
C:\Users\CYMR90~1\AppData\Local\Temp\ccaJ4oak.s:21801  .debug_str:0000000000002b37 .LASF1409
C:\Users\CYMR90~1\AppData\Local\Temp\ccaJ4oak.s:24987  .debug_str:000000000000f672 .LASF1410
C:\Users\CYMR90~1\AppData\Local\Temp\ccaJ4oak.s:31448  .debug_str:00000000000293ca .LASF1411
C:\Users\CYMR90~1\AppData\Local\Temp\ccaJ4oak.s:23223  .debug_str:0000000000008680 .LASF1412
C:\Users\CYMR90~1\AppData\Local\Temp\ccaJ4oak.s:26343  .debug_str:0000000000014d57 .LASF1413
C:\Users\CYMR90~1\AppData\Local\Temp\ccaJ4oak.s:29452  .debug_str:000000000002149f .LASF1414
C:\Users\CYMR90~1\AppData\Local\Temp\ccaJ4oak.s:21251  .debug_str:000000000000092a .LASF1415
C:\Users\CYMR90~1\AppData\Local\Temp\ccaJ4oak.s:24325  .debug_str:000000000000cdfc .LASF1416
C:\Users\CYMR90~1\AppData\Local\Temp\ccaJ4oak.s:27466  .debug_str:0000000000019658 .LASF1417
C:\Users\CYMR90~1\AppData\Local\Temp\ccaJ4oak.s:28972  .debug_str:000000000001f711 .LASF1418
C:\Users\CYMR90~1\AppData\Local\Temp\ccaJ4oak.s:22333  .debug_str:0000000000004dde .LASF1419
C:\Users\CYMR90~1\AppData\Local\Temp\ccaJ4oak.s:25411  .debug_str:0000000000011168 .LASF1420
C:\Users\CYMR90~1\AppData\Local\Temp\ccaJ4oak.s:24761  .debug_str:000000000000e903 .LASF1421
C:\Users\CYMR90~1\AppData\Local\Temp\ccaJ4oak.s:27900  .debug_str:000000000001b3b5 .LASF1422
C:\Users\CYMR90~1\AppData\Local\Temp\ccaJ4oak.s:30998  .debug_str:0000000000027682 .LASF1423
C:\Users\CYMR90~1\AppData\Local\Temp\ccaJ4oak.s:21873  .debug_str:0000000000002f9f .LASF1424
C:\Users\CYMR90~1\AppData\Local\Temp\ccaJ4oak.s:25933  .debug_str:0000000000013366 .LASF1425
C:\Users\CYMR90~1\AppData\Local\Temp\ccaJ4oak.s:28904  .debug_str:000000000001f2ef .LASF1426
C:\Users\CYMR90~1\AppData\Local\Temp\ccaJ4oak.s:32166  .debug_str:000000000002bfef .LASF1427
C:\Users\CYMR90~1\AppData\Local\Temp\ccaJ4oak.s:23941  .debug_str:000000000000b473 .LASF1428
C:\Users\CYMR90~1\AppData\Local\Temp\ccaJ4oak.s:27042  .debug_str:0000000000017b45 .LASF1429
C:\Users\CYMR90~1\AppData\Local\Temp\ccaJ4oak.s:30178  .debug_str:000000000002400c .LASF1430
C:\Users\CYMR90~1\AppData\Local\Temp\ccaJ4oak.s:28914  .debug_str:000000000001f3a0 .LASF1431
C:\Users\CYMR90~1\AppData\Local\Temp\ccaJ4oak.s:21213  .debug_str:00000000000006db .LASF1432
C:\Users\CYMR90~1\AppData\Local\Temp\ccaJ4oak.s:32106  .debug_str:000000000002bba9 .LASF1433
C:\Users\CYMR90~1\AppData\Local\Temp\ccaJ4oak.s:29148  .debug_str:00000000000201df .LASF1434
C:\Users\CYMR90~1\AppData\Local\Temp\ccaJ4oak.s:28200  .debug_str:000000000001c5b8 .LASF1435
C:\Users\CYMR90~1\AppData\Local\Temp\ccaJ4oak.s:27248  .debug_str:0000000000018752 .LASF1436
C:\Users\CYMR90~1\AppData\Local\Temp\ccaJ4oak.s:26681  .debug_str:0000000000016283 .LASF1437
C:\Users\CYMR90~1\AppData\Local\Temp\ccaJ4oak.s:31030  .debug_str:0000000000027839 .LASF1438
C:\Users\CYMR90~1\AppData\Local\Temp\ccaJ4oak.s:31338  .debug_str:0000000000028d41 .LASF1439
C:\Users\CYMR90~1\AppData\Local\Temp\ccaJ4oak.s:29070  .debug_str:000000000001fd18 .LASF1440
C:\Users\CYMR90~1\AppData\Local\Temp\ccaJ4oak.s:28132  .debug_str:000000000001c1be .LASF1441
C:\Users\CYMR90~1\AppData\Local\Temp\ccaJ4oak.s:27174  .debug_str:000000000001831a .LASF1442
C:\Users\CYMR90~1\AppData\Local\Temp\ccaJ4oak.s:26207  .debug_str:00000000000144ff .LASF1443
C:\Users\CYMR90~1\AppData\Local\Temp\ccaJ4oak.s:25269  .debug_str:00000000000108d4 .LASF1444
C:\Users\CYMR90~1\AppData\Local\Temp\ccaJ4oak.s:32122  .debug_str:000000000002bca6 .LASF1445
C:\Users\CYMR90~1\AppData\Local\Temp\ccaJ4oak.s:23337  .debug_str:0000000000008d5d .LASF1446
C:\Users\CYMR90~1\AppData\Local\Temp\ccaJ4oak.s:24899  .debug_str:000000000000f0f4 .LASF1447
C:\Users\CYMR90~1\AppData\Local\Temp\ccaJ4oak.s:30418  .debug_str:000000000002505e .LASF1448
C:\Users\CYMR90~1\AppData\Local\Temp\ccaJ4oak.s:29428  .debug_str:0000000000021281 .LASF1449
C:\Users\CYMR90~1\AppData\Local\Temp\ccaJ4oak.s:28458  .debug_str:000000000001d7f2 .LASF1450
C:\Users\CYMR90~1\AppData\Local\Temp\ccaJ4oak.s:27534  .debug_str:0000000000019b33 .LASF1451
C:\Users\CYMR90~1\AppData\Local\Temp\ccaJ4oak.s:26551  .debug_str:00000000000159fa .LASF1452
C:\Users\CYMR90~1\AppData\Local\Temp\ccaJ4oak.s:23939  .debug_str:000000000000b460 .LASF1453
C:\Users\CYMR90~1\AppData\Local\Temp\ccaJ4oak.s:22551  .debug_str:0000000000005aeb .LASF1454
C:\Users\CYMR90~1\AppData\Local\Temp\ccaJ4oak.s:23739  .debug_str:000000000000a69b .LASF1455
C:\Users\CYMR90~1\AppData\Local\Temp\ccaJ4oak.s:28818  .debug_str:000000000001edb6 .LASF1456
C:\Users\CYMR90~1\AppData\Local\Temp\ccaJ4oak.s:30466  .debug_str:00000000000253d2 .LASF1457
C:\Users\CYMR90~1\AppData\Local\Temp\ccaJ4oak.s:22297  .debug_str:0000000000004bbd .LASF1458
C:\Users\CYMR90~1\AppData\Local\Temp\ccaJ4oak.s:28898  .debug_str:000000000001f2a1 .LASF1459
C:\Users\CYMR90~1\AppData\Local\Temp\ccaJ4oak.s:25747  .debug_str:0000000000012775 .LASF1460
C:\Users\CYMR90~1\AppData\Local\Temp\ccaJ4oak.s:23849  .debug_str:000000000000ae12 .LASF1461
C:\Users\CYMR90~1\AppData\Local\Temp\ccaJ4oak.s:25041  .debug_str:000000000000fa31 .LASF1462
C:\Users\CYMR90~1\AppData\Local\Temp\ccaJ4oak.s:25525  .debug_str:0000000000011916 .LASF1463
C:\Users\CYMR90~1\AppData\Local\Temp\ccaJ4oak.s:26613  .debug_str:0000000000015dcc .LASF1464
C:\Users\CYMR90~1\AppData\Local\Temp\ccaJ4oak.s:31894  .debug_str:000000000002ae62 .LASF1465
C:\Users\CYMR90~1\AppData\Local\Temp\ccaJ4oak.s:24203  .debug_str:000000000000c602 .LASF1466
C:\Users\CYMR90~1\AppData\Local\Temp\ccaJ4oak.s:26211  .debug_str:0000000000014526 .LASF1467
C:\Users\CYMR90~1\AppData\Local\Temp\ccaJ4oak.s:30916  .debug_str:00000000000270fe .LASF1468
C:\Users\CYMR90~1\AppData\Local\Temp\ccaJ4oak.s:25213  .debug_str:00000000000104ce .LASF1469
C:\Users\CYMR90~1\AppData\Local\Temp\ccaJ4oak.s:23295  .debug_str:0000000000008ad9 .LASF1470
C:\Users\CYMR90~1\AppData\Local\Temp\ccaJ4oak.s:25501  .debug_str:0000000000011720 .LASF1471
C:\Users\CYMR90~1\AppData\Local\Temp\ccaJ4oak.s:27068  .debug_str:0000000000017cb5 .LASF1472
C:\Users\CYMR90~1\AppData\Local\Temp\ccaJ4oak.s:30372  .debug_str:0000000000024d55 .LASF1473
C:\Users\CYMR90~1\AppData\Local\Temp\ccaJ4oak.s:31004  .debug_str:00000000000276d3 .LASF1474
C:\Users\CYMR90~1\AppData\Local\Temp\ccaJ4oak.s:21303  .debug_str:0000000000000cab .LASF1475
C:\Users\CYMR90~1\AppData\Local\Temp\ccaJ4oak.s:23225  .debug_str:0000000000008699 .LASF1476
C:\Users\CYMR90~1\AppData\Local\Temp\ccaJ4oak.s:21825  .debug_str:0000000000002cd3 .LASF1477
C:\Users\CYMR90~1\AppData\Local\Temp\ccaJ4oak.s:31190  .debug_str:0000000000028319 .LASF1478
C:\Users\CYMR90~1\AppData\Local\Temp\ccaJ4oak.s:30216  .debug_str:00000000000242fe .LASF1479
C:\Users\CYMR90~1\AppData\Local\Temp\ccaJ4oak.s:21949  .debug_str:00000000000034ab .LASF1480
C:\Users\CYMR90~1\AppData\Local\Temp\ccaJ4oak.s:24195  .debug_str:000000000000c582 .LASF1481
C:\Users\CYMR90~1\AppData\Local\Temp\ccaJ4oak.s:30340  .debug_str:0000000000024b6c .LASF1482
C:\Users\CYMR90~1\AppData\Local\Temp\ccaJ4oak.s:23531  .debug_str:00000000000099b0 .LASF1483
C:\Users\CYMR90~1\AppData\Local\Temp\ccaJ4oak.s:22339  .debug_str:0000000000004e37 .LASF1484
C:\Users\CYMR90~1\AppData\Local\Temp\ccaJ4oak.s:24771  .debug_str:000000000000e99f .LASF1485
C:\Users\CYMR90~1\AppData\Local\Temp\ccaJ4oak.s:26179  .debug_str:000000000001437e .LASF1486
C:\Users\CYMR90~1\AppData\Local\Temp\ccaJ4oak.s:27782  .debug_str:000000000001ac15 .LASF1487
C:\Users\CYMR90~1\AppData\Local\Temp\ccaJ4oak.s:21135  .debug_str:000000000000021d .LASF1488
C:\Users\CYMR90~1\AppData\Local\Temp\ccaJ4oak.s:26569  .debug_str:0000000000015af7 .LASF1489
C:\Users\CYMR90~1\AppData\Local\Temp\ccaJ4oak.s:24565  .debug_str:000000000000dcf5 .LASF1490
C:\Users\CYMR90~1\AppData\Local\Temp\ccaJ4oak.s:31414  .debug_str:00000000000291cd .LASF1491
C:\Users\CYMR90~1\AppData\Local\Temp\ccaJ4oak.s:21795  .debug_str:0000000000002ad0 .LASF1492
C:\Users\CYMR90~1\AppData\Local\Temp\ccaJ4oak.s:29382  .debug_str:0000000000021002 .LASF1493
C:\Users\CYMR90~1\AppData\Local\Temp\ccaJ4oak.s:31634  .debug_str:0000000000029ef5 .LASF1494
C:\Users\CYMR90~1\AppData\Local\Temp\ccaJ4oak.s:22979  .debug_str:00000000000075e6 .LASF1495
C:\Users\CYMR90~1\AppData\Local\Temp\ccaJ4oak.s:30686  .debug_str:00000000000262f4 .LASF1496
C:\Users\CYMR90~1\AppData\Local\Temp\ccaJ4oak.s:31386  .debug_str:0000000000029009 .LASF1497
C:\Users\CYMR90~1\AppData\Local\Temp\ccaJ4oak.s:22779  .debug_str:00000000000068a5 .LASF1498
C:\Users\CYMR90~1\AppData\Local\Temp\ccaJ4oak.s:23621  .debug_str:0000000000009f32 .LASF1499
C:\Users\CYMR90~1\AppData\Local\Temp\ccaJ4oak.s:32336  .debug_str:000000000002cb12 .LASF1500
C:\Users\CYMR90~1\AppData\Local\Temp\ccaJ4oak.s:31548  .debug_str:00000000000299d4 .LASF1501
C:\Users\CYMR90~1\AppData\Local\Temp\ccaJ4oak.s:29282  .debug_str:0000000000020a65 .LASF1502
C:\Users\CYMR90~1\AppData\Local\Temp\ccaJ4oak.s:22759  .debug_str:0000000000006774 .LASF1503
C:\Users\CYMR90~1\AppData\Local\Temp\ccaJ4oak.s:31636  .debug_str:0000000000029f03 .LASF1504
C:\Users\CYMR90~1\AppData\Local\Temp\ccaJ4oak.s:28658  .debug_str:000000000001e3e9 .LASF1505
C:\Users\CYMR90~1\AppData\Local\Temp\ccaJ4oak.s:27986  .debug_str:000000000001b8f4 .LASF1506
C:\Users\CYMR90~1\AppData\Local\Temp\ccaJ4oak.s:24893  .debug_str:000000000000f0a5 .LASF1507
C:\Users\CYMR90~1\AppData\Local\Temp\ccaJ4oak.s:29488  .debug_str:0000000000021697 .LASF1508
C:\Users\CYMR90~1\AppData\Local\Temp\ccaJ4oak.s:25683  .debug_str:0000000000012361 .LASF1509
C:\Users\CYMR90~1\AppData\Local\Temp\ccaJ4oak.s:31294  .debug_str:0000000000028a99 .LASF1510
C:\Users\CYMR90~1\AppData\Local\Temp\ccaJ4oak.s:30074  .debug_str:00000000000239ef .LASF1511
C:\Users\CYMR90~1\AppData\Local\Temp\ccaJ4oak.s:21989  .debug_str:00000000000036f9 .LASF1512
C:\Users\CYMR90~1\AppData\Local\Temp\ccaJ4oak.s:26635  .debug_str:0000000000015f93 .LASF1513
C:\Users\CYMR90~1\AppData\Local\Temp\ccaJ4oak.s:30492  .debug_str:0000000000025601 .LASF1514
C:\Users\CYMR90~1\AppData\Local\Temp\ccaJ4oak.s:28874  .debug_str:000000000001f155 .LASF1515
C:\Users\CYMR90~1\AppData\Local\Temp\ccaJ4oak.s:32060  .debug_str:000000000002b87e .LASF1516
C:\Users\CYMR90~1\AppData\Local\Temp\ccaJ4oak.s:28708  .debug_str:000000000001e6e3 .LASF1517
C:\Users\CYMR90~1\AppData\Local\Temp\ccaJ4oak.s:30722  .debug_str:00000000000264fc .LASF1518
C:\Users\CYMR90~1\AppData\Local\Temp\ccaJ4oak.s:25673  .debug_str:00000000000122ef .LASF1519
C:\Users\CYMR90~1\AppData\Local\Temp\ccaJ4oak.s:29096  .debug_str:000000000001fecb .LASF1520
C:\Users\CYMR90~1\AppData\Local\Temp\ccaJ4oak.s:28160  .debug_str:000000000001c37d .LASF1521
C:\Users\CYMR90~1\AppData\Local\Temp\ccaJ4oak.s:29420  .debug_str:0000000000021212 .LASF1522
C:\Users\CYMR90~1\AppData\Local\Temp\ccaJ4oak.s:27438  .debug_str:000000000001947b .LASF1523
C:\Users\CYMR90~1\AppData\Local\Temp\ccaJ4oak.s:30076  .debug_str:0000000000023a05 .LASF1524
C:\Users\CYMR90~1\AppData\Local\Temp\ccaJ4oak.s:22413  .debug_str:0000000000005289 .LASF1525
C:\Users\CYMR90~1\AppData\Local\Temp\ccaJ4oak.s:28106  .debug_str:000000000001c041 .LASF1526
C:\Users\CYMR90~1\AppData\Local\Temp\ccaJ4oak.s:24215  .debug_str:000000000000c6c1 .LASF1527
C:\Users\CYMR90~1\AppData\Local\Temp\ccaJ4oak.s:29830  .debug_str:0000000000022aeb .LASF1528
C:\Users\CYMR90~1\AppData\Local\Temp\ccaJ4oak.s:31084  .debug_str:0000000000027b90 .LASF1529
C:\Users\CYMR90~1\AppData\Local\Temp\ccaJ4oak.s:30332  .debug_str:0000000000024a67 .LASF1530
C:\Users\CYMR90~1\AppData\Local\Temp\ccaJ4oak.s:30396  .debug_str:0000000000024ed9 .LASF1531
C:\Users\CYMR90~1\AppData\Local\Temp\ccaJ4oak.s:22155  .debug_str:0000000000004186 .LASF1532
C:\Users\CYMR90~1\AppData\Local\Temp\ccaJ4oak.s:27388  .debug_str:00000000000190d0 .LASF1533
C:\Users\CYMR90~1\AppData\Local\Temp\ccaJ4oak.s:30210  .debug_str:00000000000241be .LASF1534
C:\Users\CYMR90~1\AppData\Local\Temp\ccaJ4oak.s:23779  .debug_str:000000000000a918 .LASF1535
C:\Users\CYMR90~1\AppData\Local\Temp\ccaJ4oak.s:30400  .debug_str:0000000000024f59 .LASF1536
C:\Users\CYMR90~1\AppData\Local\Temp\ccaJ4oak.s:29728  .debug_str:00000000000224e0 .LASF1537
C:\Users\CYMR90~1\AppData\Local\Temp\ccaJ4oak.s:30958  .debug_str:000000000002735b .LASF1538
C:\Users\CYMR90~1\AppData\Local\Temp\ccaJ4oak.s:30854  .debug_str:0000000000026d14 .LASF1539
C:\Users\CYMR90~1\AppData\Local\Temp\ccaJ4oak.s:25553  .debug_str:0000000000011b67 .LASF1540
C:\Users\CYMR90~1\AppData\Local\Temp\ccaJ4oak.s:31574  .debug_str:0000000000029b5c .LASF1541
C:\Users\CYMR90~1\AppData\Local\Temp\ccaJ4oak.s:24543  .debug_str:000000000000dbe1 .LASF1542
C:\Users\CYMR90~1\AppData\Local\Temp\ccaJ4oak.s:21915  .debug_str:0000000000003234 .LASF1543
C:\Users\CYMR90~1\AppData\Local\Temp\ccaJ4oak.s:25125  .debug_str:000000000000ff3a .LASF1544
C:\Users\CYMR90~1\AppData\Local\Temp\ccaJ4oak.s:23159  .debug_str:0000000000008240 .LASF1545
C:\Users\CYMR90~1\AppData\Local\Temp\ccaJ4oak.s:23629  .debug_str:0000000000009fa5 .LASF1546
C:\Users\CYMR90~1\AppData\Local\Temp\ccaJ4oak.s:24269  .debug_str:000000000000ca96 .LASF1547
C:\Users\CYMR90~1\AppData\Local\Temp\ccaJ4oak.s:31164  .debug_str:0000000000028119 .LASF1548
C:\Users\CYMR90~1\AppData\Local\Temp\ccaJ4oak.s:30656  .debug_str:00000000000260dc .LASF1549
C:\Users\CYMR90~1\AppData\Local\Temp\ccaJ4oak.s:28052  .debug_str:000000000001bc79 .LASF1550
C:\Users\CYMR90~1\AppData\Local\Temp\ccaJ4oak.s:25421  .debug_str:00000000000111f9 .LASF1551
C:\Users\CYMR90~1\AppData\Local\Temp\ccaJ4oak.s:28022  .debug_str:000000000001bacb .LASF1552
C:\Users\CYMR90~1\AppData\Local\Temp\ccaJ4oak.s:21371  .debug_str:00000000000010d6 .LASF1553
C:\Users\CYMR90~1\AppData\Local\Temp\ccaJ4oak.s:21687  .debug_str:00000000000023e7 .LASF1554
C:\Users\CYMR90~1\AppData\Local\Temp\ccaJ4oak.s:28744  .debug_str:000000000001e961 .LASF1555
C:\Users\CYMR90~1\AppData\Local\Temp\ccaJ4oak.s:27340  .debug_str:0000000000018da6 .LASF1556
C:\Users\CYMR90~1\AppData\Local\Temp\ccaJ4oak.s:27364  .debug_str:0000000000018f1d .LASF1557
C:\Users\CYMR90~1\AppData\Local\Temp\ccaJ4oak.s:31662  .debug_str:000000000002a06d .LASF1558
C:\Users\CYMR90~1\AppData\Local\Temp\ccaJ4oak.s:25265  .debug_str:00000000000108a8 .LASF1559
C:\Users\CYMR90~1\AppData\Local\Temp\ccaJ4oak.s:30086  .debug_str:0000000000023a7e .LASF1560
C:\Users\CYMR90~1\AppData\Local\Temp\ccaJ4oak.s:30518  .debug_str:00000000000257ca .LASF1561
C:\Users\CYMR90~1\AppData\Local\Temp\ccaJ4oak.s:25375  .debug_str:0000000000010f8d .LASF1562
C:\Users\CYMR90~1\AppData\Local\Temp\ccaJ4oak.s:25051  .debug_str:000000000000faae .LASF1563
C:\Users\CYMR90~1\AppData\Local\Temp\ccaJ4oak.s:32164  .debug_str:000000000002bf49 .LASF1564
C:\Users\CYMR90~1\AppData\Local\Temp\ccaJ4oak.s:22787  .debug_str:000000000000690e .LASF1565
C:\Users\CYMR90~1\AppData\Local\Temp\ccaJ4oak.s:28456  .debug_str:000000000001d764 .LASF1566
C:\Users\CYMR90~1\AppData\Local\Temp\ccaJ4oak.s:27736  .debug_str:000000000001a8bc .LASF1567
C:\Users\CYMR90~1\AppData\Local\Temp\ccaJ4oak.s:29214  .debug_str:00000000000205ec .LASF1568
C:\Users\CYMR90~1\AppData\Local\Temp\ccaJ4oak.s:25551  .debug_str:0000000000011ac0 .LASF1569
C:\Users\CYMR90~1\AppData\Local\Temp\ccaJ4oak.s:30544  .debug_str:00000000000259a0 .LASF1570
C:\Users\CYMR90~1\AppData\Local\Temp\ccaJ4oak.s:25953  .debug_str:000000000001354c .LASF1571
C:\Users\CYMR90~1\AppData\Local\Temp\ccaJ4oak.s:22465  .debug_str:00000000000055ca .LASF1572
C:\Users\CYMR90~1\AppData\Local\Temp\ccaJ4oak.s:26375  .debug_str:0000000000014fa6 .LASF1573
C:\Users\CYMR90~1\AppData\Local\Temp\ccaJ4oak.s:31280  .debug_str:00000000000289c4 .LASF1574
C:\Users\CYMR90~1\AppData\Local\Temp\ccaJ4oak.s:26846  .debug_str:0000000000016f40 .LASF1575
C:\Users\CYMR90~1\AppData\Local\Temp\ccaJ4oak.s:24929  .debug_str:000000000000f2d6 .LASF1576
C:\Users\CYMR90~1\AppData\Local\Temp\ccaJ4oak.s:28748  .debug_str:000000000001e9a3 .LASF1577
C:\Users\CYMR90~1\AppData\Local\Temp\ccaJ4oak.s:31772  .debug_str:000000000002a709 .LASF1578
C:\Users\CYMR90~1\AppData\Local\Temp\ccaJ4oak.s:21697  .debug_str:0000000000002472 .LASF1579
C:\Users\CYMR90~1\AppData\Local\Temp\ccaJ4oak.s:28300  .debug_str:000000000001cc6e .LASF1580
C:\Users\CYMR90~1\AppData\Local\Temp\ccaJ4oak.s:23745  .debug_str:000000000000a6ee .LASF1581
C:\Users\CYMR90~1\AppData\Local\Temp\ccaJ4oak.s:24457  .debug_str:000000000000d6fc .LASF1582
C:\Users\CYMR90~1\AppData\Local\Temp\ccaJ4oak.s:23149  .debug_str:0000000000008114 .LASF1583
C:\Users\CYMR90~1\AppData\Local\Temp\ccaJ4oak.s:30960  .debug_str:0000000000027379 .LASF1584
C:\Users\CYMR90~1\AppData\Local\Temp\ccaJ4oak.s:28556  .debug_str:000000000001dd9c .LASF1585
C:\Users\CYMR90~1\AppData\Local\Temp\ccaJ4oak.s:32388  .debug_str:000000000002ce0e .LASF1586
C:\Users\CYMR90~1\AppData\Local\Temp\ccaJ4oak.s:24429  .debug_str:000000000000d49d .LASF1587
C:\Users\CYMR90~1\AppData\Local\Temp\ccaJ4oak.s:23107  .debug_str:0000000000007dda .LASF1588
C:\Users\CYMR90~1\AppData\Local\Temp\ccaJ4oak.s:26821  .debug_str:0000000000016b91 .LASF1589
C:\Users\CYMR90~1\AppData\Local\Temp\ccaJ4oak.s:23969  .debug_str:000000000000b5fa .LASF1590
C:\Users\CYMR90~1\AppData\Local\Temp\ccaJ4oak.s:26749  .debug_str:000000000001662c .LASF1591
C:\Users\CYMR90~1\AppData\Local\Temp\ccaJ4oak.s:23347  .debug_str:0000000000008dcb .LASF1592
C:\Users\CYMR90~1\AppData\Local\Temp\ccaJ4oak.s:25945  .debug_str:0000000000013467 .LASF1593
C:\Users\CYMR90~1\AppData\Local\Temp\ccaJ4oak.s:25257  .debug_str:0000000000010779 .LASF1594
C:\Users\CYMR90~1\AppData\Local\Temp\ccaJ4oak.s:31198  .debug_str:0000000000028397 .LASF1595
C:\Users\CYMR90~1\AppData\Local\Temp\ccaJ4oak.s:21337  .debug_str:0000000000000e7f .LASF1596
C:\Users\CYMR90~1\AppData\Local\Temp\ccaJ4oak.s:28326  .debug_str:000000000001ce36 .LASF1597
C:\Users\CYMR90~1\AppData\Local\Temp\ccaJ4oak.s:22265  .debug_str:000000000000492e .LASF1598
C:\Users\CYMR90~1\AppData\Local\Temp\ccaJ4oak.s:30468  .debug_str:00000000000253e1 .LASF1599
C:\Users\CYMR90~1\AppData\Local\Temp\ccaJ4oak.s:21481  .debug_str:0000000000001733 .LASF1600
C:\Users\CYMR90~1\AppData\Local\Temp\ccaJ4oak.s:25013  .debug_str:000000000000f7d6 .LASF1601
C:\Users\CYMR90~1\AppData\Local\Temp\ccaJ4oak.s:29444  .debug_str:0000000000021379 .LASF1602
C:\Users\CYMR90~1\AppData\Local\Temp\ccaJ4oak.s:28350  .debug_str:000000000001d046 .LASF1603
C:\Users\CYMR90~1\AppData\Local\Temp\ccaJ4oak.s:28244  .debug_str:000000000001c864 .LASF1604
C:\Users\CYMR90~1\AppData\Local\Temp\ccaJ4oak.s:30448  .debug_str:000000000002520c .LASF1605
C:\Users\CYMR90~1\AppData\Local\Temp\ccaJ4oak.s:30374  .debug_str:0000000000024d6b .LASF1606
C:\Users\CYMR90~1\AppData\Local\Temp\ccaJ4oak.s:30326  .debug_str:0000000000024a13 .LASF1607
C:\Users\CYMR90~1\AppData\Local\Temp\ccaJ4oak.s:27284  .debug_str:0000000000018992 .LASF1608
C:\Users\CYMR90~1\AppData\Local\Temp\ccaJ4oak.s:22241  .debug_str:00000000000047a1 .LASF1609
C:\Users\CYMR90~1\AppData\Local\Temp\ccaJ4oak.s:29658  .debug_str:00000000000220d9 .LASF1610
C:\Users\CYMR90~1\AppData\Local\Temp\ccaJ4oak.s:32290  .debug_str:000000000002c7bd .LASF1611
C:\Users\CYMR90~1\AppData\Local\Temp\ccaJ4oak.s:28196  .debug_str:000000000001c57c .LASF1612
C:\Users\CYMR90~1\AppData\Local\Temp\ccaJ4oak.s:26257  .debug_str:0000000000014832 .LASF1613
C:\Users\CYMR90~1\AppData\Local\Temp\ccaJ4oak.s:23615  .debug_str:0000000000009ed4 .LASF1614
C:\Users\CYMR90~1\AppData\Local\Temp\ccaJ4oak.s:27884  .debug_str:000000000001b28a .LASF1615
C:\Users\CYMR90~1\AppData\Local\Temp\ccaJ4oak.s:29546  .debug_str:0000000000021a18 .LASF1616
C:\Users\CYMR90~1\AppData\Local\Temp\ccaJ4oak.s:26349  .debug_str:0000000000014db7 .LASF1617
C:\Users\CYMR90~1\AppData\Local\Temp\ccaJ4oak.s:28256  .debug_str:000000000001c9d8 .LASF1618
C:\Users\CYMR90~1\AppData\Local\Temp\ccaJ4oak.s:22289  .debug_str:0000000000004b37 .LASF1619
C:\Users\CYMR90~1\AppData\Local\Temp\ccaJ4oak.s:24003  .debug_str:000000000000b8cb .LASF1620
C:\Users\CYMR90~1\AppData\Local\Temp\ccaJ4oak.s:24845  .debug_str:000000000000ee17 .LASF1621
C:\Users\CYMR90~1\AppData\Local\Temp\ccaJ4oak.s:21853  .debug_str:0000000000002e75 .LASF1622
C:\Users\CYMR90~1\AppData\Local\Temp\ccaJ4oak.s:29244  .debug_str:00000000000207f9 .LASF1623
C:\Users\CYMR90~1\AppData\Local\Temp\ccaJ4oak.s:25947  .debug_str:0000000000013502 .LASF1624
C:\Users\CYMR90~1\AppData\Local\Temp\ccaJ4oak.s:24103  .debug_str:000000000000bf9f .LASF1625
C:\Users\CYMR90~1\AppData\Local\Temp\ccaJ4oak.s:29950  .debug_str:00000000000231f3 .LASF1626
C:\Users\CYMR90~1\AppData\Local\Temp\ccaJ4oak.s:22783  .debug_str:00000000000068e0 .LASF1627
C:\Users\CYMR90~1\AppData\Local\Temp\ccaJ4oak.s:28990  .debug_str:000000000001f81e .LASF1628
C:\Users\CYMR90~1\AppData\Local\Temp\ccaJ4oak.s:23861  .debug_str:000000000000aed4 .LASF1629
C:\Users\CYMR90~1\AppData\Local\Temp\ccaJ4oak.s:29738  .debug_str:0000000000022558 .LASF1630
C:\Users\CYMR90~1\AppData\Local\Temp\ccaJ4oak.s:23331  .debug_str:0000000000008d06 .LASF1631
C:\Users\CYMR90~1\AppData\Local\Temp\ccaJ4oak.s:21437  .debug_str:00000000000014d7 .LASF1632
C:\Users\CYMR90~1\AppData\Local\Temp\ccaJ4oak.s:28000  .debug_str:000000000001b9e3 .LASF1633
C:\Users\CYMR90~1\AppData\Local\Temp\ccaJ4oak.s:26976  .debug_str:00000000000176df .LASF1634
C:\Users\CYMR90~1\AppData\Local\Temp\ccaJ4oak.s:24085  .debug_str:000000000000be22 .LASF1635
C:\Users\CYMR90~1\AppData\Local\Temp\ccaJ4oak.s:24189  .debug_str:000000000000c53c .LASF1636
C:\Users\CYMR90~1\AppData\Local\Temp\ccaJ4oak.s:27854  .debug_str:000000000001b0c8 .LASF1637
C:\Users\CYMR90~1\AppData\Local\Temp\ccaJ4oak.s:24253  .debug_str:000000000000c983 .LASF1638
C:\Users\CYMR90~1\AppData\Local\Temp\ccaJ4oak.s:23979  .debug_str:000000000000b71f .LASF1639
C:\Users\CYMR90~1\AppData\Local\Temp\ccaJ4oak.s:27190  .debug_str:000000000001840d .LASF1640
C:\Users\CYMR90~1\AppData\Local\Temp\ccaJ4oak.s:25219  .debug_str:000000000001052a .LASF1641
C:\Users\CYMR90~1\AppData\Local\Temp\ccaJ4oak.s:30314  .debug_str:0000000000024961 .LASF1642
C:\Users\CYMR90~1\AppData\Local\Temp\ccaJ4oak.s:25561  .debug_str:0000000000011c08 .LASF1643
C:\Users\CYMR90~1\AppData\Local\Temp\ccaJ4oak.s:29132  .debug_str:0000000000020107 .LASF1644
C:\Users\CYMR90~1\AppData\Local\Temp\ccaJ4oak.s:32258  .debug_str:000000000002c631 .LASF1645
C:\Users\CYMR90~1\AppData\Local\Temp\ccaJ4oak.s:21843  .debug_str:0000000000002ded .LASF1646
C:\Users\CYMR90~1\AppData\Local\Temp\ccaJ4oak.s:26785  .debug_str:0000000000016901 .LASF1647
C:\Users\CYMR90~1\AppData\Local\Temp\ccaJ4oak.s:26886  .debug_str:00000000000171cf .LASF1648
C:\Users\CYMR90~1\AppData\Local\Temp\ccaJ4oak.s:21637  .debug_str:0000000000002118 .LASF1649
C:\Users\CYMR90~1\AppData\Local\Temp\ccaJ4oak.s:23175  .debug_str:0000000000008359 .LASF1650
C:\Users\CYMR90~1\AppData\Local\Temp\ccaJ4oak.s:29966  .debug_str:00000000000232f3 .LASF1651
C:\Users\CYMR90~1\AppData\Local\Temp\ccaJ4oak.s:25311  .debug_str:0000000000010b0b .LASF1652
C:\Users\CYMR90~1\AppData\Local\Temp\ccaJ4oak.s:23063  .debug_str:0000000000007b07 .LASF1653
C:\Users\CYMR90~1\AppData\Local\Temp\ccaJ4oak.s:21377  .debug_str:0000000000001147 .LASF1654
C:\Users\CYMR90~1\AppData\Local\Temp\ccaJ4oak.s:27084  .debug_str:0000000000017d8e .LASF1657
C:\Users\CYMR90~1\AppData\Local\Temp\ccaJ4oak.s:31820  .debug_str:000000000002a9f7 .LASF1658
C:\Users\CYMR90~1\AppData\Local\Temp\ccaJ4oak.s:25343  .debug_str:0000000000010e03 .LASF1659
C:\Users\CYMR90~1\AppData\Local\Temp\ccaJ4oak.s:27412  .debug_str:0000000000019317 .LASF1660
C:\Users\CYMR90~1\AppData\Local\Temp\ccaJ4oak.s:32056  .debug_str:000000000002b83f .LASF1661
C:\Users\CYMR90~1\AppData\Local\Temp\ccaJ4oak.s:32090  .debug_str:000000000002ba9b .LASF1662
C:\Users\CYMR90~1\AppData\Local\Temp\ccaJ4oak.s:29332  .debug_str:0000000000020d44 .LASF1663
C:\Users\CYMR90~1\AppData\Local\Temp\ccaJ4oak.s:26311  .debug_str:0000000000014b3f .LASF1664
C:\Users\CYMR90~1\AppData\Local\Temp\ccaJ4oak.s:28506  .debug_str:000000000001dab4 .LASF1665
C:\Users\CYMR90~1\AppData\Local\Temp\ccaJ4oak.s:29422  .debug_str:000000000002122d .LASF1666
C:\Users\CYMR90~1\AppData\Local\Temp\ccaJ4oak.s:25055  .debug_str:000000000000fad4 .LASF1667
C:\Users\CYMR90~1\AppData\Local\Temp\ccaJ4oak.s:24755  .debug_str:000000000000e8b5 .LASF1668
C:\Users\CYMR90~1\AppData\Local\Temp\ccaJ4oak.s:22075  .debug_str:0000000000003c4c .LASF1669
C:\Users\CYMR90~1\AppData\Local\Temp\ccaJ4oak.s:23367  .debug_str:0000000000008f97 .LASF1670
C:\Users\CYMR90~1\AppData\Local\Temp\ccaJ4oak.s:22307  .debug_str:0000000000004c40 .LASF1671
C:\Users\CYMR90~1\AppData\Local\Temp\ccaJ4oak.s:26163  .debug_str:0000000000014268 .LASF1672
C:\Users\CYMR90~1\AppData\Local\Temp\ccaJ4oak.s:26231  .debug_str:000000000001464c .LASF1673
C:\Users\CYMR90~1\AppData\Local\Temp\ccaJ4oak.s:25635  .debug_str:000000000001203c .LASF1674
C:\Users\CYMR90~1\AppData\Local\Temp\ccaJ4oak.s:24795  .debug_str:000000000000eafc .LASF1675
C:\Users\CYMR90~1\AppData\Local\Temp\ccaJ4oak.s:30338  .debug_str:0000000000024b52 .LASF1676
C:\Users\CYMR90~1\AppData\Local\Temp\ccaJ4oak.s:25773  .debug_str:000000000001291f .LASF1677
C:\Users\CYMR90~1\AppData\Local\Temp\ccaJ4oak.s:32260  .debug_str:000000000002c646 .LASF1678
C:\Users\CYMR90~1\AppData\Local\Temp\ccaJ4oak.s:21747  .debug_str:00000000000027b5 .LASF1679
C:\Users\CYMR90~1\AppData\Local\Temp\ccaJ4oak.s:25293  .debug_str:0000000000010a32 .LASF1680
C:\Users\CYMR90~1\AppData\Local\Temp\ccaJ4oak.s:26479  .debug_str:00000000000155f9 .LASF1681
C:\Users\CYMR90~1\AppData\Local\Temp\ccaJ4oak.s:25145  .debug_str:000000000001009f .LASF1682
C:\Users\CYMR90~1\AppData\Local\Temp\ccaJ4oak.s:27838  .debug_str:000000000001af5e .LASF1683
C:\Users\CYMR90~1\AppData\Local\Temp\ccaJ4oak.s:29916  .debug_str:0000000000023048 .LASF1684
C:\Users\CYMR90~1\AppData\Local\Temp\ccaJ4oak.s:30846  .debug_str:0000000000026c81 .LASF1685
C:\Users\CYMR90~1\AppData\Local\Temp\ccaJ4oak.s:25291  .debug_str:0000000000010a1a .LASF1686
C:\Users\CYMR90~1\AppData\Local\Temp\ccaJ4oak.s:29226  .debug_str:00000000000206ea .LASF1687
C:\Users\CYMR90~1\AppData\Local\Temp\ccaJ4oak.s:31564  .debug_str:0000000000029ab1 .LASF1688
C:\Users\CYMR90~1\AppData\Local\Temp\ccaJ4oak.s:30102  .debug_str:0000000000023b88 .LASF1689
C:\Users\CYMR90~1\AppData\Local\Temp\ccaJ4oak.s:27960  .debug_str:000000000001b741 .LASF1690
C:\Users\CYMR90~1\AppData\Local\Temp\ccaJ4oak.s:26033  .debug_str:0000000000013a86 .LASF1691
C:\Users\CYMR90~1\AppData\Local\Temp\ccaJ4oak.s:29642  .debug_str:0000000000021ff9 .LASF1692
C:\Users\CYMR90~1\AppData\Local\Temp\ccaJ4oak.s:27274  .debug_str:0000000000018916 .LASF1693
C:\Users\CYMR90~1\AppData\Local\Temp\ccaJ4oak.s:23169  .debug_str:00000000000082e5 .LASF1694
C:\Users\CYMR90~1\AppData\Local\Temp\ccaJ4oak.s:25215  .debug_str:00000000000104de .LASF1695
C:\Users\CYMR90~1\AppData\Local\Temp\ccaJ4oak.s:27052  .debug_str:0000000000017bc4 .LASF1696
C:\Users\CYMR90~1\AppData\Local\Temp\ccaJ4oak.s:26357  .debug_str:0000000000014e57 .LASF1697
C:\Users\CYMR90~1\AppData\Local\Temp\ccaJ4oak.s:28888  .debug_str:000000000001f20e .LASF1698
C:\Users\CYMR90~1\AppData\Local\Temp\ccaJ4oak.s:27448  .debug_str:0000000000019542 .LASF1699
C:\Users\CYMR90~1\AppData\Local\Temp\ccaJ4oak.s:29344  .debug_str:0000000000020df8 .LASF1700
C:\Users\CYMR90~1\AppData\Local\Temp\ccaJ4oak.s:28884  .debug_str:000000000001f1d1 .LASF1701
C:\Users\CYMR90~1\AppData\Local\Temp\ccaJ4oak.s:30150  .debug_str:0000000000023e47 .LASF1702
C:\Users\CYMR90~1\AppData\Local\Temp\ccaJ4oak.s:30108  .debug_str:0000000000023bd7 .LASF1703
C:\Users\CYMR90~1\AppData\Local\Temp\ccaJ4oak.s:29632  .debug_str:0000000000021f5f .LASF1704
C:\Users\CYMR90~1\AppData\Local\Temp\ccaJ4oak.s:28088  .debug_str:000000000001beed .LASF1705
C:\Users\CYMR90~1\AppData\Local\Temp\ccaJ4oak.s:29490  .debug_str:00000000000216ab .LASF1706
C:\Users\CYMR90~1\AppData\Local\Temp\ccaJ4oak.s:26962  .debug_str:00000000000175df .LASF1707
C:\Users\CYMR90~1\AppData\Local\Temp\ccaJ4oak.s:25949  .debug_str:0000000000013515 .LASF1708
C:\Users\CYMR90~1\AppData\Local\Temp\ccaJ4oak.s:28638  .debug_str:000000000001e2d1 .LASF1709
C:\Users\CYMR90~1\AppData\Local\Temp\ccaJ4oak.s:27192  .debug_str:0000000000018422 .LASF1710
C:\Users\CYMR90~1\AppData\Local\Temp\ccaJ4oak.s:31038  .debug_str:000000000002789f .LASF1711
C:\Users\CYMR90~1\AppData\Local\Temp\ccaJ4oak.s:25581  .debug_str:0000000000011d1b .LASF1712
C:\Users\CYMR90~1\AppData\Local\Temp\ccaJ4oak.s:22709  .debug_str:00000000000064b3 .LASF1713
C:\Users\CYMR90~1\AppData\Local\Temp\ccaJ4oak.s:25061  .debug_str:000000000000fb31 .LASF1714
C:\Users\CYMR90~1\AppData\Local\Temp\ccaJ4oak.s:28452  .debug_str:000000000001d718 .LASF1715
C:\Users\CYMR90~1\AppData\Local\Temp\ccaJ4oak.s:25289  .debug_str:00000000000109ee .LASF1716
C:\Users\CYMR90~1\AppData\Local\Temp\ccaJ4oak.s:28604  .debug_str:000000000001e0fd .LASF1717
C:\Users\CYMR90~1\AppData\Local\Temp\ccaJ4oak.s:27156  .debug_str:00000000000181ef .LASF1718
C:\Users\CYMR90~1\AppData\Local\Temp\ccaJ4oak.s:25523  .debug_str:0000000000011868 .LASF1719
C:\Users\CYMR90~1\AppData\Local\Temp\ccaJ4oak.s:27516  .debug_str:000000000001997c .LASF1720
C:\Users\CYMR90~1\AppData\Local\Temp\ccaJ4oak.s:26023  .debug_str:00000000000139e3 .LASF1721
C:\Users\CYMR90~1\AppData\Local\Temp\ccaJ4oak.s:21673  .debug_str:000000000000232e .LASF1722
C:\Users\CYMR90~1\AppData\Local\Temp\ccaJ4oak.s:27846  .debug_str:000000000001aff8 .LASF1723
C:\Users\CYMR90~1\AppData\Local\Temp\ccaJ4oak.s:21737  .debug_str:0000000000002724 .LASF1724
C:\Users\CYMR90~1\AppData\Local\Temp\ccaJ4oak.s:26547  .debug_str:000000000001599d .LASF1725
C:\Users\CYMR90~1\AppData\Local\Temp\ccaJ4oak.s:31364  .debug_str:0000000000028e8d .LASF1726
C:\Users\CYMR90~1\AppData\Local\Temp\ccaJ4oak.s:22597  .debug_str:0000000000005da6 .LASF1727
C:\Users\CYMR90~1\AppData\Local\Temp\ccaJ4oak.s:31006  .debug_str:00000000000276e7 .LASF1728
C:\Users\CYMR90~1\AppData\Local\Temp\ccaJ4oak.s:28298  .debug_str:000000000001cc37 .LASF1729
C:\Users\CYMR90~1\AppData\Local\Temp\ccaJ4oak.s:32168  .debug_str:000000000002c008 .LASF1730
C:\Users\CYMR90~1\AppData\Local\Temp\ccaJ4oak.s:30832  .debug_str:0000000000026bbb .LASF1731
C:\Users\CYMR90~1\AppData\Local\Temp\ccaJ4oak.s:25459  .debug_str:0000000000011435 .LASF1732
C:\Users\CYMR90~1\AppData\Local\Temp\ccaJ4oak.s:23475  .debug_str:00000000000095bd .LASF1733
C:\Users\CYMR90~1\AppData\Local\Temp\ccaJ4oak.s:21441  .debug_str:00000000000014fb .LASF1734
C:\Users\CYMR90~1\AppData\Local\Temp\ccaJ4oak.s:26918  .debug_str:0000000000017392 .LASF1735
C:\Users\CYMR90~1\AppData\Local\Temp\ccaJ4oak.s:29058  .debug_str:000000000001fc63 .LASF1736
C:\Users\CYMR90~1\AppData\Local\Temp\ccaJ4oak.s:23467  .debug_str:0000000000009547 .LASF1737
C:\Users\CYMR90~1\AppData\Local\Temp\ccaJ4oak.s:23189  .debug_str:0000000000008435 .LASF1738
C:\Users\CYMR90~1\AppData\Local\Temp\ccaJ4oak.s:30842  .debug_str:0000000000026c52 .LASF1739
C:\Users\CYMR90~1\AppData\Local\Temp\ccaJ4oak.s:24819  .debug_str:000000000000ec8a .LASF1740
C:\Users\CYMR90~1\AppData\Local\Temp\ccaJ4oak.s:23811  .debug_str:000000000000abad .LASF1741
C:\Users\CYMR90~1\AppData\Local\Temp\ccaJ4oak.s:28910  .debug_str:000000000001f355 .LASF1742
C:\Users\CYMR90~1\AppData\Local\Temp\ccaJ4oak.s:24301  .debug_str:000000000000cc9c .LASF1743
C:\Users\CYMR90~1\AppData\Local\Temp\ccaJ4oak.s:31118  .debug_str:0000000000027dfd .LASF1744
C:\Users\CYMR90~1\AppData\Local\Temp\ccaJ4oak.s:23195  .debug_str:00000000000084a7 .LASF1745
C:\Users\CYMR90~1\AppData\Local\Temp\ccaJ4oak.s:25117  .debug_str:000000000000feb1 .LASF1746
C:\Users\CYMR90~1\AppData\Local\Temp\ccaJ4oak.s:30154  .debug_str:0000000000023e8d .LASF1747
C:\Users\CYMR90~1\AppData\Local\Temp\ccaJ4oak.s:29746  .debug_str:00000000000225e8 .LASF1748
C:\Users\CYMR90~1\AppData\Local\Temp\ccaJ4oak.s:25285  .debug_str:00000000000109b6 .LASF1749
C:\Users\CYMR90~1\AppData\Local\Temp\ccaJ4oak.s:23975  .debug_str:000000000000b6d6 .LASF1750
C:\Users\CYMR90~1\AppData\Local\Temp\ccaJ4oak.s:27088  .debug_str:0000000000017dc2 .LASF1751
C:\Users\CYMR90~1\AppData\Local\Temp\ccaJ4oak.s:22341  .debug_str:0000000000004e4b .LASF1752
C:\Users\CYMR90~1\AppData\Local\Temp\ccaJ4oak.s:27820  .debug_str:000000000001ae56 .LASF1753
C:\Users\CYMR90~1\AppData\Local\Temp\ccaJ4oak.s:27718  .debug_str:000000000001a75c .LASF1754
C:\Users\CYMR90~1\AppData\Local\Temp\ccaJ4oak.s:24243  .debug_str:000000000000c882 .LASF1755
C:\Users\CYMR90~1\AppData\Local\Temp\ccaJ4oak.s:25843  .debug_str:0000000000012dbc .LASF1756
C:\Users\CYMR90~1\AppData\Local\Temp\ccaJ4oak.s:27914  .debug_str:000000000001b486 .LASF1757
C:\Users\CYMR90~1\AppData\Local\Temp\ccaJ4oak.s:24917  .debug_str:000000000000f1f0 .LASF1758
C:\Users\CYMR90~1\AppData\Local\Temp\ccaJ4oak.s:23009  .debug_str:000000000000778d .LASF1759
C:\Users\CYMR90~1\AppData\Local\Temp\ccaJ4oak.s:27658  .debug_str:000000000001a253 .LASF1760
C:\Users\CYMR90~1\AppData\Local\Temp\ccaJ4oak.s:23297  .debug_str:0000000000008aeb .LASF1761
C:\Users\CYMR90~1\AppData\Local\Temp\ccaJ4oak.s:21503  .debug_str:0000000000001950 .LASF1762
C:\Users\CYMR90~1\AppData\Local\Temp\ccaJ4oak.s:30354  .debug_str:0000000000024c21 .LASF1763
C:\Users\CYMR90~1\AppData\Local\Temp\ccaJ4oak.s:23037  .debug_str:0000000000007968 .LASF1764
C:\Users\CYMR90~1\AppData\Local\Temp\ccaJ4oak.s:22725  .debug_str:00000000000065b4 .LASF1765
C:\Users\CYMR90~1\AppData\Local\Temp\ccaJ4oak.s:21483  .debug_str:00000000000017e9 .LASF1766
C:\Users\CYMR90~1\AppData\Local\Temp\ccaJ4oak.s:28028  .debug_str:000000000001bb24 .LASF1767
C:\Users\CYMR90~1\AppData\Local\Temp\ccaJ4oak.s:21545  .debug_str:0000000000001bc7 .LASF1768
C:\Users\CYMR90~1\AppData\Local\Temp\ccaJ4oak.s:30546  .debug_str:0000000000025a2e .LASF1769
C:\Users\CYMR90~1\AppData\Local\Temp\ccaJ4oak.s:32244  .debug_str:000000000002c540 .LASF1770
C:\Users\CYMR90~1\AppData\Local\Temp\ccaJ4oak.s:24137  .debug_str:000000000000c1d4 .LASF1771
C:\Users\CYMR90~1\AppData\Local\Temp\ccaJ4oak.s:23717  .debug_str:000000000000a544 .LASF1772
C:\Users\CYMR90~1\AppData\Local\Temp\ccaJ4oak.s:32308  .debug_str:000000000002c8fe .LASF1773
C:\Users\CYMR90~1\AppData\Local\Temp\ccaJ4oak.s:21267  .debug_str:0000000000000a14 .LASF1774
C:\Users\CYMR90~1\AppData\Local\Temp\ccaJ4oak.s:31270  .debug_str:0000000000028905 .LASF1775
C:\Users\CYMR90~1\AppData\Local\Temp\ccaJ4oak.s:26249  .debug_str:000000000001479e .LASF1776
C:\Users\CYMR90~1\AppData\Local\Temp\ccaJ4oak.s:24995  .debug_str:000000000000f6d9 .LASF1777
C:\Users\CYMR90~1\AppData\Local\Temp\ccaJ4oak.s:27080  .debug_str:0000000000017d5d .LASF1778
C:\Users\CYMR90~1\AppData\Local\Temp\ccaJ4oak.s:22439  .debug_str:0000000000005433 .LASF1779
C:\Users\CYMR90~1\AppData\Local\Temp\ccaJ4oak.s:30584  .debug_str:0000000000025c9d .LASF1780
C:\Users\CYMR90~1\AppData\Local\Temp\ccaJ4oak.s:29782  .debug_str:000000000002280f .LASF1781
C:\Users\CYMR90~1\AppData\Local\Temp\ccaJ4oak.s:28306  .debug_str:000000000001ccd9 .LASF1784
C:\Users\CYMR90~1\AppData\Local\Temp\ccaJ4oak.s:27462  .debug_str:0000000000019612 .LASF1785
C:\Users\CYMR90~1\AppData\Local\Temp\ccaJ4oak.s:27306  .debug_str:0000000000018afd .LASF1786
C:\Users\CYMR90~1\AppData\Local\Temp\ccaJ4oak.s:26295  .debug_str:0000000000014a70 .LASF1787
C:\Users\CYMR90~1\AppData\Local\Temp\ccaJ4oak.s:31698  .debug_str:000000000002a271 .LASF1788
C:\Users\CYMR90~1\AppData\Local\Temp\ccaJ4oak.s:32004  .debug_str:000000000002b4d1 .LASF1789
C:\Users\CYMR90~1\AppData\Local\Temp\ccaJ4oak.s:22011  .debug_str:0000000000003873 .LASF1790
C:\Users\CYMR90~1\AppData\Local\Temp\ccaJ4oak.s:21131  .debug_str:00000000000001e7 .LASF1791
C:\Users\CYMR90~1\AppData\Local\Temp\ccaJ4oak.s:30926  .debug_str:0000000000027189 .LASF1792
C:\Users\CYMR90~1\AppData\Local\Temp\ccaJ4oak.s:29996  .debug_str:00000000000234a9 .LASF1793
C:\Users\CYMR90~1\AppData\Local\Temp\ccaJ4oak.s:31886  .debug_str:000000000002adb9 .LASF1794
C:\Users\CYMR90~1\AppData\Local\Temp\ccaJ4oak.s:31202  .debug_str:0000000000028468 .LASF1795
C:\Users\CYMR90~1\AppData\Local\Temp\ccaJ4oak.s:25961  .debug_str:00000000000135df .LASF1796
C:\Users\CYMR90~1\AppData\Local\Temp\ccaJ4oak.s:26235  .debug_str:000000000001468e .LASF1797
C:\Users\CYMR90~1\AppData\Local\Temp\ccaJ4oak.s:25347  .debug_str:0000000000010e20 .LASF1798
C:\Users\CYMR90~1\AppData\Local\Temp\ccaJ4oak.s:24163  .debug_str:000000000000c394 .LASF1799
C:\Users\CYMR90~1\AppData\Local\Temp\ccaJ4oak.s:26992  .debug_str:00000000000177de .LASF1800
C:\Users\CYMR90~1\AppData\Local\Temp\ccaJ4oak.s:27298  .debug_str:0000000000018a8c .LASF1801
C:\Users\CYMR90~1\AppData\Local\Temp\ccaJ4oak.s:26379  .debug_str:0000000000014fe0 .LASF1802
C:\Users\CYMR90~1\AppData\Local\Temp\ccaJ4oak.s:25405  .debug_str:0000000000011117 .LASF1803
C:\Users\CYMR90~1\AppData\Local\Temp\ccaJ4oak.s:24895  .debug_str:000000000000f0bc .LASF1804
C:\Users\CYMR90~1\AppData\Local\Temp\ccaJ4oak.s:29576  .debug_str:0000000000021c09 .LASF1805
C:\Users\CYMR90~1\AppData\Local\Temp\ccaJ4oak.s:26259  .debug_str:0000000000014856 .LASF1806
C:\Users\CYMR90~1\AppData\Local\Temp\ccaJ4oak.s:29172  .debug_str:0000000000020316 .LASF1807
C:\Users\CYMR90~1\AppData\Local\Temp\ccaJ4oak.s:26403  .debug_str:0000000000015176 .LASF1808
C:\Users\CYMR90~1\AppData\Local\Temp\ccaJ4oak.s:31194  .debug_str:0000000000028356 .LASF1809
C:\Users\CYMR90~1\AppData\Local\Temp\ccaJ4oak.s:28400  .debug_str:000000000001d3d0 .LASF1810
C:\Users\CYMR90~1\AppData\Local\Temp\ccaJ4oak.s:27094  .debug_str:0000000000017e37 .LASF1811
C:\Users\CYMR90~1\AppData\Local\Temp\ccaJ4oak.s:21461  .debug_str:0000000000001618 .LASF1812
C:\Users\CYMR90~1\AppData\Local\Temp\ccaJ4oak.s:25299  .debug_str:0000000000010a78 .LASF1813
C:\Users\CYMR90~1\AppData\Local\Temp\ccaJ4oak.s:25565  .debug_str:0000000000011c3a .LASF1814
C:\Users\CYMR90~1\AppData\Local\Temp\ccaJ4oak.s:28380  .debug_str:000000000001d2b5 .LASF1815
C:\Users\CYMR90~1\AppData\Local\Temp\ccaJ4oak.s:27058  .debug_str:0000000000017c36 .LASF1816
C:\Users\CYMR90~1\AppData\Local\Temp\ccaJ4oak.s:28388  .debug_str:000000000001d333 .LASF1817
C:\Users\CYMR90~1\AppData\Local\Temp\ccaJ4oak.s:28834  .debug_str:000000000001eea2 .LASF1818
C:\Users\CYMR90~1\AppData\Local\Temp\ccaJ4oak.s:25115  .debug_str:000000000000fe9c .LASF1819
C:\Users\CYMR90~1\AppData\Local\Temp\ccaJ4oak.s:29314  .debug_str:0000000000020c1f .LASF1820
C:\Users\CYMR90~1\AppData\Local\Temp\ccaJ4oak.s:22753  .debug_str:0000000000006735 .LASF1821
C:\Users\CYMR90~1\AppData\Local\Temp\ccaJ4oak.s:23129  .debug_str:0000000000007fcf .LASF1822
C:\Users\CYMR90~1\AppData\Local\Temp\ccaJ4oak.s:28764  .debug_str:000000000001ea98 .LASF1823
C:\Users\CYMR90~1\AppData\Local\Temp\ccaJ4oak.s:31472  .debug_str:0000000000029502 .LASF1824
C:\Users\CYMR90~1\AppData\Local\Temp\ccaJ4oak.s:24039  .debug_str:000000000000bb66 .LASF1825
C:\Users\CYMR90~1\AppData\Local\Temp\ccaJ4oak.s:29410  .debug_str:000000000002117b .LASF1826
C:\Users\CYMR90~1\AppData\Local\Temp\ccaJ4oak.s:31826  .debug_str:000000000002aa31 .LASF1827
C:\Users\CYMR90~1\AppData\Local\Temp\ccaJ4oak.s:24863  .debug_str:000000000000ef07 .LASF1828
C:\Users\CYMR90~1\AppData\Local\Temp\ccaJ4oak.s:24937  .debug_str:000000000000f365 .LASF1829
C:\Users\CYMR90~1\AppData\Local\Temp\ccaJ4oak.s:25711  .debug_str:0000000000012537 .LASF1830
C:\Users\CYMR90~1\AppData\Local\Temp\ccaJ4oak.s:23497  .debug_str:000000000000976b .LASF1831
C:\Users\CYMR90~1\AppData\Local\Temp\ccaJ4oak.s:30872  .debug_str:0000000000026e13 .LASF1832
C:\Users\CYMR90~1\AppData\Local\Temp\ccaJ4oak.s:24299  .debug_str:000000000000cc81 .LASF1833
C:\Users\CYMR90~1\AppData\Local\Temp\ccaJ4oak.s:22953  .debug_str:0000000000007465 .LASF1834
C:\Users\CYMR90~1\AppData\Local\Temp\ccaJ4oak.s:26699  .debug_str:0000000000016377 .LASF1835
C:\Users\CYMR90~1\AppData\Local\Temp\ccaJ4oak.s:30736  .debug_str:00000000000265cb .LASF1836
C:\Users\CYMR90~1\AppData\Local\Temp\ccaJ4oak.s:26669  .debug_str:00000000000161b8 .LASF1837
C:\Users\CYMR90~1\AppData\Local\Temp\ccaJ4oak.s:27386  .debug_str:00000000000190b8 .LASF1838
C:\Users\CYMR90~1\AppData\Local\Temp\ccaJ4oak.s:25351  .debug_str:0000000000010e58 .LASF1839
C:\Users\CYMR90~1\AppData\Local\Temp\ccaJ4oak.s:28336  .debug_str:000000000001cf5c .LASF1840
C:\Users\CYMR90~1\AppData\Local\Temp\ccaJ4oak.s:27620  .debug_str:000000000001a038 .LASF1841
C:\Users\CYMR90~1\AppData\Local\Temp\ccaJ4oak.s:30430  .debug_str:0000000000025107 .LASF1842
C:\Users\CYMR90~1\AppData\Local\Temp\ccaJ4oak.s:30822  .debug_str:0000000000026b1a .LASF1843
C:\Users\CYMR90~1\AppData\Local\Temp\ccaJ4oak.s:32022  .debug_str:000000000002b61e .LASF1844
C:\Users\CYMR90~1\AppData\Local\Temp\ccaJ4oak.s:31880  .debug_str:000000000002ad66 .LASF1845
C:\Users\CYMR90~1\AppData\Local\Temp\ccaJ4oak.s:23231  .debug_str:00000000000086fd .LASF1846
C:\Users\CYMR90~1\AppData\Local\Temp\ccaJ4oak.s:28540  .debug_str:000000000001dc8b .LASF1847
C:\Users\CYMR90~1\AppData\Local\Temp\ccaJ4oak.s:29684  .debug_str:0000000000022262 .LASF1848
C:\Users\CYMR90~1\AppData\Local\Temp\ccaJ4oak.s:29698  .debug_str:0000000000022346 .LASF1849
C:\Users\CYMR90~1\AppData\Local\Temp\ccaJ4oak.s:28920  .debug_str:000000000001f3f3 .LASF1850
C:\Users\CYMR90~1\AppData\Local\Temp\ccaJ4oak.s:23289  .debug_str:0000000000008a68 .LASF1851
C:\Users\CYMR90~1\AppData\Local\Temp\ccaJ4oak.s:30776  .debug_str:000000000002684f .LASF1852
C:\Users\CYMR90~1\AppData\Local\Temp\ccaJ4oak.s:24545  .debug_str:000000000000dbfe .LASF1853
C:\Users\CYMR90~1\AppData\Local\Temp\ccaJ4oak.s:21921  .debug_str:00000000000032c8 .LASF1854
C:\Users\CYMR90~1\AppData\Local\Temp\ccaJ4oak.s:28420  .debug_str:000000000001d515 .LASF1855
C:\Users\CYMR90~1\AppData\Local\Temp\ccaJ4oak.s:31044  .debug_str:000000000002790d .LASF1856
C:\Users\CYMR90~1\AppData\Local\Temp\ccaJ4oak.s:23373  .debug_str:0000000000009002 .LASF1857
C:\Users\CYMR90~1\AppData\Local\Temp\ccaJ4oak.s:24225  .debug_str:000000000000c775 .LASF1858
C:\Users\CYMR90~1\AppData\Local\Temp\ccaJ4oak.s:31140  .debug_str:0000000000027f87 .LASF1859
C:\Users\CYMR90~1\AppData\Local\Temp\ccaJ4oak.s:26409  .debug_str:00000000000151d7 .LASF1860
C:\Users\CYMR90~1\AppData\Local\Temp\ccaJ4oak.s:27328  .debug_str:0000000000018cd7 .LASF1861
C:\Users\CYMR90~1\AppData\Local\Temp\ccaJ4oak.s:25163  .debug_str:0000000000010197 .LASF1862
C:\Users\CYMR90~1\AppData\Local\Temp\ccaJ4oak.s:22905  .debug_str:00000000000070bb .LASF1863
C:\Users\CYMR90~1\AppData\Local\Temp\ccaJ4oak.s:27242  .debug_str:000000000001870a .LASF1864
C:\Users\CYMR90~1\AppData\Local\Temp\ccaJ4oak.s:22547  .debug_str:0000000000005aa8 .LASF1865
C:\Users\CYMR90~1\AppData\Local\Temp\ccaJ4oak.s:29888  .debug_str:0000000000022eab .LASF1866
C:\Users\CYMR90~1\AppData\Local\Temp\ccaJ4oak.s:29102  .debug_str:000000000001ff31 .LASF1867
C:\Users\CYMR90~1\AppData\Local\Temp\ccaJ4oak.s:24161  .debug_str:000000000000c364 .LASF1868
C:\Users\CYMR90~1\AppData\Local\Temp\ccaJ4oak.s:21247  .debug_str:00000000000008e6 .LASF1869
C:\Users\CYMR90~1\AppData\Local\Temp\ccaJ4oak.s:23211  .debug_str:00000000000085af .LASF1870
C:\Users\CYMR90~1\AppData\Local\Temp\ccaJ4oak.s:31422  .debug_str:0000000000029220 .LASF1871
C:\Users\CYMR90~1\AppData\Local\Temp\ccaJ4oak.s:30524  .debug_str:000000000002584c .LASF1872
C:\Users\CYMR90~1\AppData\Local\Temp\ccaJ4oak.s:26537  .debug_str:00000000000158fe .LASF1873
C:\Users\CYMR90~1\AppData\Local\Temp\ccaJ4oak.s:23073  .debug_str:0000000000007bcc .LASF1874
C:\Users\CYMR90~1\AppData\Local\Temp\ccaJ4oak.s:23953  .debug_str:000000000000b518 .LASF1875
C:\Users\CYMR90~1\AppData\Local\Temp\ccaJ4oak.s:31598  .debug_str:0000000000029cc1 .LASF1876
C:\Users\CYMR90~1\AppData\Local\Temp\ccaJ4oak.s:27856  .debug_str:000000000001b0dd .LASF1877
C:\Users\CYMR90~1\AppData\Local\Temp\ccaJ4oak.s:28596  .debug_str:000000000001e096 .LASF1878
C:\Users\CYMR90~1\AppData\Local\Temp\ccaJ4oak.s:24999  .debug_str:000000000000f712 .LASF1879
C:\Users\CYMR90~1\AppData\Local\Temp\ccaJ4oak.s:23333  .debug_str:0000000000008d1d .LASF1880
C:\Users\CYMR90~1\AppData\Local\Temp\ccaJ4oak.s:28900  .debug_str:000000000001f2b6 .LASF1881
C:\Users\CYMR90~1\AppData\Local\Temp\ccaJ4oak.s:21357  .debug_str:000000000000100b .LASF1882
C:\Users\CYMR90~1\AppData\Local\Temp\ccaJ4oak.s:29304  .debug_str:0000000000020b8e .LASF1883
C:\Users\CYMR90~1\AppData\Local\Temp\ccaJ4oak.s:32018  .debug_str:000000000002b5d6 .LASF1884
C:\Users\CYMR90~1\AppData\Local\Temp\ccaJ4oak.s:29008  .debug_str:000000000001f92e .LASF1885
C:\Users\CYMR90~1\AppData\Local\Temp\ccaJ4oak.s:31156  .debug_str:0000000000028087 .LASF1886
C:\Users\CYMR90~1\AppData\Local\Temp\ccaJ4oak.s:23551  .debug_str:0000000000009b08 .LASF1887
C:\Users\CYMR90~1\AppData\Local\Temp\ccaJ4oak.s:23363  .debug_str:0000000000008f59 .LASF1888
C:\Users\CYMR90~1\AppData\Local\Temp\ccaJ4oak.s:32052  .debug_str:000000000002b7fd .LASF1889
C:\Users\CYMR90~1\AppData\Local\Temp\ccaJ4oak.s:27478  .debug_str:00000000000196d1 .LASF1890
C:\Users\CYMR90~1\AppData\Local\Temp\ccaJ4oak.s:23543  .debug_str:0000000000009a62 .LASF1891
C:\Users\CYMR90~1\AppData\Local\Temp\ccaJ4oak.s:23635  .debug_str:000000000000a029 .LASF1892
C:\Users\CYMR90~1\AppData\Local\Temp\ccaJ4oak.s:28226  .debug_str:000000000001c743 .LASF1893
C:\Users\CYMR90~1\AppData\Local\Temp\ccaJ4oak.s:23357  .debug_str:0000000000008eed .LASF1894
C:\Users\CYMR90~1\AppData\Local\Temp\ccaJ4oak.s:24615  .debug_str:000000000000e02d .LASF1895
C:\Users\CYMR90~1\AppData\Local\Temp\ccaJ4oak.s:26928  .debug_str:0000000000017426 .LASF1896
C:\Users\CYMR90~1\AppData\Local\Temp\ccaJ4oak.s:21563  .debug_str:0000000000001cdd .LASF1897
C:\Users\CYMR90~1\AppData\Local\Temp\ccaJ4oak.s:30894  .debug_str:0000000000026fa4 .LASF1898
C:\Users\CYMR90~1\AppData\Local\Temp\ccaJ4oak.s:27724  .debug_str:000000000001a7ce .LASF1899
C:\Users\CYMR90~1\AppData\Local\Temp\ccaJ4oak.s:24431  .debug_str:000000000000d555 .LASF1900
C:\Users\CYMR90~1\AppData\Local\Temp\ccaJ4oak.s:21167  .debug_str:000000000000040c .LASF1901
C:\Users\CYMR90~1\AppData\Local\Temp\ccaJ4oak.s:21995  .debug_str:000000000000374b .LASF1902
C:\Users\CYMR90~1\AppData\Local\Temp\ccaJ4oak.s:24063  .debug_str:000000000000bc98 .LASF1903
C:\Users\CYMR90~1\AppData\Local\Temp\ccaJ4oak.s:32310  .debug_str:000000000002c925 .LASF1904
C:\Users\CYMR90~1\AppData\Local\Temp\ccaJ4oak.s:26801  .debug_str:0000000000016a50 .LASF1905
C:\Users\CYMR90~1\AppData\Local\Temp\ccaJ4oak.s:23513  .debug_str:0000000000009826 .LASF1906
C:\Users\CYMR90~1\AppData\Local\Temp\ccaJ4oak.s:31236  .debug_str:000000000002867c .LASF1907
C:\Users\CYMR90~1\AppData\Local\Temp\ccaJ4oak.s:28266  .debug_str:000000000001ca54 .LASF1908
C:\Users\CYMR90~1\AppData\Local\Temp\ccaJ4oak.s:22533  .debug_str:00000000000059da .LASF1909
C:\Users\CYMR90~1\AppData\Local\Temp\ccaJ4oak.s:31590  .debug_str:0000000000029c44 .LASF1910
C:\Users\CYMR90~1\AppData\Local\Temp\ccaJ4oak.s:27902  .debug_str:000000000001b3ce .LASF1911
C:\Users\CYMR90~1\AppData\Local\Temp\ccaJ4oak.s:27578  .debug_str:0000000000019dd4 .LASF1912
C:\Users\CYMR90~1\AppData\Local\Temp\ccaJ4oak.s:23973  .debug_str:000000000000b6b7 .LASF1913
C:\Users\CYMR90~1\AppData\Local\Temp\ccaJ4oak.s:23807  .debug_str:000000000000ab55 .LASF1914
C:\Users\CYMR90~1\AppData\Local\Temp\ccaJ4oak.s:29204  .debug_str:0000000000020533 .LASF1915
C:\Users\CYMR90~1\AppData\Local\Temp\ccaJ4oak.s:30500  .debug_str:000000000002567b .LASF1916
C:\Users\CYMR90~1\AppData\Local\Temp\ccaJ4oak.s:27092  .debug_str:0000000000017e0b .LASF1917
C:\Users\CYMR90~1\AppData\Local\Temp\ccaJ4oak.s:23709  .debug_str:000000000000a4da .LASF1918
C:\Users\CYMR90~1\AppData\Local\Temp\ccaJ4oak.s:31648  .debug_str:0000000000029f96 .LASF1919
C:\Users\CYMR90~1\AppData\Local\Temp\ccaJ4oak.s:28236  .debug_str:000000000001c7da .LASF1920
C:\Users\CYMR90~1\AppData\Local\Temp\ccaJ4oak.s:24393  .debug_str:000000000000d23b .LASF1921
C:\Users\CYMR90~1\AppData\Local\Temp\ccaJ4oak.s:22925  .debug_str:0000000000007230 .LASF1922
C:\Users\CYMR90~1\AppData\Local\Temp\ccaJ4oak.s:29274  .debug_str:00000000000209df .LASF1923
C:\Users\CYMR90~1\AppData\Local\Temp\ccaJ4oak.s:31376  .debug_str:0000000000028f4a .LASF1924
C:\Users\CYMR90~1\AppData\Local\Temp\ccaJ4oak.s:23831  .debug_str:000000000000acef .LASF1925
C:\Users\CYMR90~1\AppData\Local\Temp\ccaJ4oak.s:29100  .debug_str:000000000001ff03 .LASF1926
C:\Users\CYMR90~1\AppData\Local\Temp\ccaJ4oak.s:28136  .debug_str:000000000001c1e5 .LASF1927
C:\Users\CYMR90~1\AppData\Local\Temp\ccaJ4oak.s:25485  .debug_str:00000000000115e2 .LASF1928
C:\Users\CYMR90~1\AppData\Local\Temp\ccaJ4oak.s:22975  .debug_str:000000000000758a .LASF1929
C:\Users\CYMR90~1\AppData\Local\Temp\ccaJ4oak.s:29026  .debug_str:000000000001fa4e .LASF1930
C:\Users\CYMR90~1\AppData\Local\Temp\ccaJ4oak.s:32342  .debug_str:000000000002cb69 .LASF1931
C:\Users\CYMR90~1\AppData\Local\Temp\ccaJ4oak.s:32010  .debug_str:000000000002b53f .LASF1932
C:\Users\CYMR90~1\AppData\Local\Temp\ccaJ4oak.s:23085  .debug_str:0000000000007c67 .LASF1933
C:\Users\CYMR90~1\AppData\Local\Temp\ccaJ4oak.s:24141  .debug_str:000000000000c22f .LASF1934
C:\Users\CYMR90~1\AppData\Local\Temp\ccaJ4oak.s:28208  .debug_str:000000000001c612 .LASF1935
C:\Users\CYMR90~1\AppData\Local\Temp\ccaJ4oak.s:22577  .debug_str:0000000000005c85 .LASF1936
C:\Users\CYMR90~1\AppData\Local\Temp\ccaJ4oak.s:28072  .debug_str:000000000001bde2 .LASF1937
C:\Users\CYMR90~1\AppData\Local\Temp\ccaJ4oak.s:27040  .debug_str:0000000000017b19 .LASF1938
C:\Users\CYMR90~1\AppData\Local\Temp\ccaJ4oak.s:31528  .debug_str:00000000000298cf .LASF1939
C:\Users\CYMR90~1\AppData\Local\Temp\ccaJ4oak.s:23275  .debug_str:000000000000897f .LASF1940
C:\Users\CYMR90~1\AppData\Local\Temp\ccaJ4oak.s:31440  .debug_str:0000000000029354 .LASF1941
C:\Users\CYMR90~1\AppData\Local\Temp\ccaJ4oak.s:28318  .debug_str:000000000001cd9f .LASF1942
C:\Users\CYMR90~1\AppData\Local\Temp\ccaJ4oak.s:24199  .debug_str:000000000000c5c8 .LASF1943
C:\Users\CYMR90~1\AppData\Local\Temp\ccaJ4oak.s:25333  .debug_str:0000000000010cd2 .LASF1944
C:\Users\CYMR90~1\AppData\Local\Temp\ccaJ4oak.s:29136  .debug_str:0000000000020143 .LASF1945
C:\Users\CYMR90~1\AppData\Local\Temp\ccaJ4oak.s:26067  .debug_str:0000000000013c81 .LASF1946
C:\Users\CYMR90~1\AppData\Local\Temp\ccaJ4oak.s:22871  .debug_str:0000000000006ea5 .LASF1947
C:\Users\CYMR90~1\AppData\Local\Temp\ccaJ4oak.s:21771  .debug_str:0000000000002974 .LASF1948
C:\Users\CYMR90~1\AppData\Local\Temp\ccaJ4oak.s:27956  .debug_str:000000000001b6ff .LASF1949
C:\Users\CYMR90~1\AppData\Local\Temp\ccaJ4oak.s:24883  .debug_str:000000000000efff .LASF1950
C:\Users\CYMR90~1\AppData\Local\Temp\ccaJ4oak.s:21635  .debug_str:00000000000020f9 .LASF1951
C:\Users\CYMR90~1\AppData\Local\Temp\ccaJ4oak.s:29904  .debug_str:0000000000022f7e .LASF1952
C:\Users\CYMR90~1\AppData\Local\Temp\ccaJ4oak.s:30632  .debug_str:0000000000025f7b .LASF1953
C:\Users\CYMR90~1\AppData\Local\Temp\ccaJ4oak.s:26193  .debug_str:000000000001443e .LASF1954
C:\Users\CYMR90~1\AppData\Local\Temp\ccaJ4oak.s:29424  .debug_str:0000000000021250 .LASF1955
C:\Users\CYMR90~1\AppData\Local\Temp\ccaJ4oak.s:30104  .debug_str:0000000000023ba0 .LASF1956
C:\Users\CYMR90~1\AppData\Local\Temp\ccaJ4oak.s:21689  .debug_str:0000000000002411 .LASF1957
C:\Users\CYMR90~1\AppData\Local\Temp\ccaJ4oak.s:31852  .debug_str:000000000002abb8 .LASF1958
C:\Users\CYMR90~1\AppData\Local\Temp\ccaJ4oak.s:23091  .debug_str:0000000000007cd8 .LASF1959
C:\Users\CYMR90~1\AppData\Local\Temp\ccaJ4oak.s:31424  .debug_str:000000000002925f .LASF1960
C:\Users\CYMR90~1\AppData\Local\Temp\ccaJ4oak.s:28274  .debug_str:000000000001cada .LASF1961
C:\Users\CYMR90~1\AppData\Local\Temp\ccaJ4oak.s:21209  .debug_str:000000000000065a .LASF1962
C:\Users\CYMR90~1\AppData\Local\Temp\ccaJ4oak.s:26583  .debug_str:0000000000015bc6 .LASF1963
C:\Users\CYMR90~1\AppData\Local\Temp\ccaJ4oak.s:30482  .debug_str:000000000002555d .LASF1964
C:\Users\CYMR90~1\AppData\Local\Temp\ccaJ4oak.s:22929  .debug_str:000000000000729b .LASF1965
C:\Users\CYMR90~1\AppData\Local\Temp\ccaJ4oak.s:28410  .debug_str:000000000001d459 .LASF1966
C:\Users\CYMR90~1\AppData\Local\Temp\ccaJ4oak.s:31950  .debug_str:000000000002b15a .LASF1967
C:\Users\CYMR90~1\AppData\Local\Temp\ccaJ4oak.s:28250  .debug_str:000000000001c969 .LASF1968
C:\Users\CYMR90~1\AppData\Local\Temp\ccaJ4oak.s:29790  .debug_str:000000000002289f .LASF1969
C:\Users\CYMR90~1\AppData\Local\Temp\ccaJ4oak.s:22913  .debug_str:000000000000715e .LASF1970
C:\Users\CYMR90~1\AppData\Local\Temp\ccaJ4oak.s:29794  .debug_str:00000000000228d0 .LASF1971
C:\Users\CYMR90~1\AppData\Local\Temp\ccaJ4oak.s:30516  .debug_str:00000000000257a2 .LASF1972
C:\Users\CYMR90~1\AppData\Local\Temp\ccaJ4oak.s:23947  .debug_str:000000000000b4ba .LASF1973
C:\Users\CYMR90~1\AppData\Local\Temp\ccaJ4oak.s:27046  .debug_str:0000000000017b7a .LASF1974
C:\Users\CYMR90~1\AppData\Local\Temp\ccaJ4oak.s:26661  .debug_str:0000000000016145 .LASF1975
C:\Users\CYMR90~1\AppData\Local\Temp\ccaJ4oak.s:24489  .debug_str:000000000000d8c6 .LASF1976
C:\Users\CYMR90~1\AppData\Local\Temp\ccaJ4oak.s:22571  .debug_str:0000000000005c3e .LASF1977
C:\Users\CYMR90~1\AppData\Local\Temp\ccaJ4oak.s:25825  .debug_str:0000000000012cc1 .LASF1978
C:\Users\CYMR90~1\AppData\Local\Temp\ccaJ4oak.s:24841  .debug_str:000000000000edea .LASF1979
C:\Users\CYMR90~1\AppData\Local\Temp\ccaJ4oak.s:24075  .debug_str:000000000000bd65 .LASF1980
C:\Users\CYMR90~1\AppData\Local\Temp\ccaJ4oak.s:32192  .debug_str:000000000002c17f .LASF1981
C:\Users\CYMR90~1\AppData\Local\Temp\ccaJ4oak.s:23349  .debug_str:0000000000008e81 .LASF1982
C:\Users\CYMR90~1\AppData\Local\Temp\ccaJ4oak.s:31464  .debug_str:0000000000029487 .LASF1983
C:\Users\CYMR90~1\AppData\Local\Temp\ccaJ4oak.s:25659  .debug_str:0000000000012211 .LASF1984
C:\Users\CYMR90~1\AppData\Local\Temp\ccaJ4oak.s:21513  .debug_str:00000000000019d2 .LASF1985
C:\Users\CYMR90~1\AppData\Local\Temp\ccaJ4oak.s:30026  .debug_str:00000000000236c9 .LASF1986
C:\Users\CYMR90~1\AppData\Local\Temp\ccaJ4oak.s:31354  .debug_str:0000000000028e16 .LASF1987
C:\Users\CYMR90~1\AppData\Local\Temp\ccaJ4oak.s:31442  .debug_str:000000000002937c .LASF1988
C:\Users\CYMR90~1\AppData\Local\Temp\ccaJ4oak.s:25685  .debug_str:0000000000012375 .LASF1989
C:\Users\CYMR90~1\AppData\Local\Temp\ccaJ4oak.s:31690  .debug_str:000000000002a215 .LASF1990
C:\Users\CYMR90~1\AppData\Local\Temp\ccaJ4oak.s:31214  .debug_str:0000000000028531 .LASF1991
C:\Users\CYMR90~1\AppData\Local\Temp\ccaJ4oak.s:21407  .debug_str:00000000000012e9 .LASF1992
C:\Users\CYMR90~1\AppData\Local\Temp\ccaJ4oak.s:21261  .debug_str:00000000000009c2 .LASF1993
C:\Users\CYMR90~1\AppData\Local\Temp\ccaJ4oak.s:27906  .debug_str:000000000001b414 .LASF1994
C:\Users\CYMR90~1\AppData\Local\Temp\ccaJ4oak.s:28966  .debug_str:000000000001f6b9 .LASF1995
C:\Users\CYMR90~1\AppData\Local\Temp\ccaJ4oak.s:26876  .debug_str:0000000000017130 .LASF1996
C:\Users\CYMR90~1\AppData\Local\Temp\ccaJ4oak.s:25619  .debug_str:0000000000011f4a .LASF1997
C:\Users\CYMR90~1\AppData\Local\Temp\ccaJ4oak.s:26972  .debug_str:00000000000176a0 .LASF1998
C:\Users\CYMR90~1\AppData\Local\Temp\ccaJ4oak.s:26127  .debug_str:0000000000014013 .LASF1999
C:\Users\CYMR90~1\AppData\Local\Temp\ccaJ4oak.s:32186  .debug_str:000000000002c12b .LASF2000
C:\Users\CYMR90~1\AppData\Local\Temp\ccaJ4oak.s:22163  .debug_str:000000000000429b .LASF2001
C:\Users\CYMR90~1\AppData\Local\Temp\ccaJ4oak.s:23589  .debug_str:0000000000009d40 .LASF2002
C:\Users\CYMR90~1\AppData\Local\Temp\ccaJ4oak.s:21917  .debug_str:0000000000003265 .LASF2003
C:\Users\CYMR90~1\AppData\Local\Temp\ccaJ4oak.s:30642  .debug_str:0000000000026019 .LASF2004
C:\Users\CYMR90~1\AppData\Local\Temp\ccaJ4oak.s:25175  .debug_str:0000000000010281 .LASF2005
C:\Users\CYMR90~1\AppData\Local\Temp\ccaJ4oak.s:23955  .debug_str:000000000000b541 .LASF2006
C:\Users\CYMR90~1\AppData\Local\Temp\ccaJ4oak.s:22751  .debug_str:0000000000006712 .LASF2007
C:\Users\CYMR90~1\AppData\Local\Temp\ccaJ4oak.s:21833  .debug_str:0000000000002d2d .LASF2008
C:\Users\CYMR90~1\AppData\Local\Temp\ccaJ4oak.s:23627  .debug_str:0000000000009f82 .LASF2009
C:\Users\CYMR90~1\AppData\Local\Temp\ccaJ4oak.s:32138  .debug_str:000000000002bdb4 .LASF2010
C:\Users\CYMR90~1\AppData\Local\Temp\ccaJ4oak.s:26970  .debug_str:000000000001767c .LASF2011
C:\Users\CYMR90~1\AppData\Local\Temp\ccaJ4oak.s:21935  .debug_str:00000000000033a8 .LASF2012
C:\Users\CYMR90~1\AppData\Local\Temp\ccaJ4oak.s:31412  .debug_str:00000000000291a7 .LASF2013
C:\Users\CYMR90~1\AppData\Local\Temp\ccaJ4oak.s:25653  .debug_str:0000000000012197 .LASF2014
C:\Users\CYMR90~1\AppData\Local\Temp\ccaJ4oak.s:21951  .debug_str:00000000000034be .LASF2015
C:\Users\CYMR90~1\AppData\Local\Temp\ccaJ4oak.s:24395  .debug_str:000000000000d267 .LASF2016
C:\Users\CYMR90~1\AppData\Local\Temp\ccaJ4oak.s:26922  .debug_str:00000000000173ca .LASF2017
C:\Users\CYMR90~1\AppData\Local\Temp\ccaJ4oak.s:28986  .debug_str:000000000001f7d4 .LASF2018
C:\Users\CYMR90~1\AppData\Local\Temp\ccaJ4oak.s:31572  .debug_str:0000000000029b36 .LASF2019
C:\Users\CYMR90~1\AppData\Local\Temp\ccaJ4oak.s:30974  .debug_str:00000000000274f8 .LASF2020
C:\Users\CYMR90~1\AppData\Local\Temp\ccaJ4oak.s:26017  .debug_str:0000000000013973 .LASF2021
C:\Users\CYMR90~1\AppData\Local\Temp\ccaJ4oak.s:27832  .debug_str:000000000001aef3 .LASF2022
C:\Users\CYMR90~1\AppData\Local\Temp\ccaJ4oak.s:26205  .debug_str:00000000000144db .LASF2023
C:\Users\CYMR90~1\AppData\Local\Temp\ccaJ4oak.s:30270  .debug_str:00000000000246bc .LASF2024
C:\Users\CYMR90~1\AppData\Local\Temp\ccaJ4oak.s:28930  .debug_str:000000000001f492 .LASF2025
C:\Users\CYMR90~1\AppData\Local\Temp\ccaJ4oak.s:21787  .debug_str:0000000000002a43 .LASF2026
C:\Users\CYMR90~1\AppData\Local\Temp\ccaJ4oak.s:29364  .debug_str:0000000000020f07 .LASF2027
C:\Users\CYMR90~1\AppData\Local\Temp\ccaJ4oak.s:23205  .debug_str:0000000000008545 .LASF2028
C:\Users\CYMR90~1\AppData\Local\Temp\ccaJ4oak.s:26065  .debug_str:0000000000013c5d .LASF2029
C:\Users\CYMR90~1\AppData\Local\Temp\ccaJ4oak.s:28674  .debug_str:000000000001e4e4 .LASF2030
C:\Users\CYMR90~1\AppData\Local\Temp\ccaJ4oak.s:25921  .debug_str:00000000000132bf .LASF2031
C:\Users\CYMR90~1\AppData\Local\Temp\ccaJ4oak.s:27038  .debug_str:0000000000017af2 .LASF2032
C:\Users\CYMR90~1\AppData\Local\Temp\ccaJ4oak.s:32216  .debug_str:000000000002c315 .LASF2033
C:\Users\CYMR90~1\AppData\Local\Temp\ccaJ4oak.s:29476  .debug_str:00000000000215ef .LASF2034
C:\Users\CYMR90~1\AppData\Local\Temp\ccaJ4oak.s:25373  .debug_str:0000000000010f69 .LASF2035
C:\Users\CYMR90~1\AppData\Local\Temp\ccaJ4oak.s:31132  .debug_str:0000000000027f09 .LASF2036
C:\Users\CYMR90~1\AppData\Local\Temp\ccaJ4oak.s:27260  .debug_str:00000000000187f9 .LASF2037
C:\Users\CYMR90~1\AppData\Local\Temp\ccaJ4oak.s:29200  .debug_str:00000000000204ee .LASF2038
C:\Users\CYMR90~1\AppData\Local\Temp\ccaJ4oak.s:25557  .debug_str:0000000000011ba7 .LASF2039
C:\Users\CYMR90~1\AppData\Local\Temp\ccaJ4oak.s:21925  .debug_str:000000000000330a .LASF2040
C:\Users\CYMR90~1\AppData\Local\Temp\ccaJ4oak.s:21659  .debug_str:0000000000002248 .LASF2041
C:\Users\CYMR90~1\AppData\Local\Temp\ccaJ4oak.s:27418  .debug_str:0000000000019354 .LASF2042
C:\Users\CYMR90~1\AppData\Local\Temp\ccaJ4oak.s:31678  .debug_str:000000000002a168 .LASF2043
C:\Users\CYMR90~1\AppData\Local\Temp\ccaJ4oak.s:23207  .debug_str:000000000000856a .LASF2044
C:\Users\CYMR90~1\AppData\Local\Temp\ccaJ4oak.s:29572  .debug_str:0000000000021bcc .LASF2045
C:\Users\CYMR90~1\AppData\Local\Temp\ccaJ4oak.s:25469  .debug_str:00000000000114cc .LASF2046
C:\Users\CYMR90~1\AppData\Local\Temp\ccaJ4oak.s:24961  .debug_str:000000000000f4ef .LASF2047
C:\Users\CYMR90~1\AppData\Local\Temp\ccaJ4oak.s:28946  .debug_str:000000000001f58d .LASF2048
C:\Users\CYMR90~1\AppData\Local\Temp\ccaJ4oak.s:29500  .debug_str:0000000000021748 .LASF2049
C:\Users\CYMR90~1\AppData\Local\Temp\ccaJ4oak.s:25759  .debug_str:000000000001284b .LASF2050
C:\Users\CYMR90~1\AppData\Local\Temp\ccaJ4oak.s:21953  .debug_str:00000000000034e5 .LASF2051
C:\Users\CYMR90~1\AppData\Local\Temp\ccaJ4oak.s:21123  .debug_str:000000000000014f .LASF2052
C:\Users\CYMR90~1\AppData\Local\Temp\ccaJ4oak.s:21539  .debug_str:0000000000001b5b .LASF2053
C:\Users\CYMR90~1\AppData\Local\Temp\ccaJ4oak.s:26978  .debug_str:00000000000176f6 .LASF2054
C:\Users\CYMR90~1\AppData\Local\Temp\ccaJ4oak.s:31378  .debug_str:0000000000028f8a .LASF2055
C:\Users\CYMR90~1\AppData\Local\Temp\ccaJ4oak.s:30976  .debug_str:000000000002751f .LASF2056
C:\Users\CYMR90~1\AppData\Local\Temp\ccaJ4oak.s:26019  .debug_str:000000000001399a .LASF2057
C:\Users\CYMR90~1\AppData\Local\Temp\ccaJ4oak.s:24571  .debug_str:000000000000dd49 .LASF2058
C:\Users\CYMR90~1\AppData\Local\Temp\ccaJ4oak.s:22583  .debug_str:0000000000005cf0 .LASF2059
C:\Users\CYMR90~1\AppData\Local\Temp\ccaJ4oak.s:31388  .debug_str:000000000002901d .LASF2060
C:\Users\CYMR90~1\AppData\Local\Temp\ccaJ4oak.s:21465  .debug_str:0000000000001668 .LASF2061
C:\Users\CYMR90~1\AppData\Local\Temp\ccaJ4oak.s:22023  .debug_str:000000000000392e .LASF2062
C:\Users\CYMR90~1\AppData\Local\Temp\ccaJ4oak.s:30942  .debug_str:000000000002725d .LASF2063
C:\Users\CYMR90~1\AppData\Local\Temp\ccaJ4oak.s:25407  .debug_str:000000000001113b .LASF2064
C:\Users\CYMR90~1\AppData\Local\Temp\ccaJ4oak.s:27320  .debug_str:0000000000018bd8 .LASF2065
C:\Users\CYMR90~1\AppData\Local\Temp\ccaJ4oak.s:30746  .debug_str:000000000002668c .LASF2066
C:\Users\CYMR90~1\AppData\Local\Temp\ccaJ4oak.s:23377  .debug_str:0000000000009044 .LASF2067
C:\Users\CYMR90~1\AppData\Local\Temp\ccaJ4oak.s:31658  .debug_str:000000000002a03c .LASF2068
C:\Users\CYMR90~1\AppData\Local\Temp\ccaJ4oak.s:32378  .debug_str:000000000002cda2 .LASF2069
C:\Users\CYMR90~1\AppData\Local\Temp\ccaJ4oak.s:22057  .debug_str:0000000000003b47 .LASF2070
C:\Users\CYMR90~1\AppData\Local\Temp\ccaJ4oak.s:30004  .debug_str:0000000000023527 .LASF2071
C:\Users\CYMR90~1\AppData\Local\Temp\ccaJ4oak.s:27402  .debug_str:000000000001928d .LASF2072
C:\Users\CYMR90~1\AppData\Local\Temp\ccaJ4oak.s:24955  .debug_str:000000000000f498 .LASF2073
C:\Users\CYMR90~1\AppData\Local\Temp\ccaJ4oak.s:23239  .debug_str:0000000000008758 .LASF2074
C:\Users\CYMR90~1\AppData\Local\Temp\ccaJ4oak.s:28508  .debug_str:000000000001dad8 .LASF2075
C:\Users\CYMR90~1\AppData\Local\Temp\ccaJ4oak.s:26709  .debug_str:0000000000016419 .LASF2076
C:\Users\CYMR90~1\AppData\Local\Temp\ccaJ4oak.s:24729  .debug_str:000000000000e6ec .LASF2077
C:\Users\CYMR90~1\AppData\Local\Temp\ccaJ4oak.s:24871  .debug_str:000000000000ef5e .LASF2078
C:\Users\CYMR90~1\AppData\Local\Temp\ccaJ4oak.s:28950  .debug_str:000000000001f5c4 .LASF2079
C:\Users\CYMR90~1\AppData\Local\Temp\ccaJ4oak.s:26649  .debug_str:0000000000016068 .LASF2080
C:\Users\CYMR90~1\AppData\Local\Temp\ccaJ4oak.s:25613  .debug_str:0000000000011f08 .LASF2081
C:\Users\CYMR90~1\AppData\Local\Temp\ccaJ4oak.s:28742  .debug_str:000000000001e945 .LASF2082
C:\Users\CYMR90~1\AppData\Local\Temp\ccaJ4oak.s:23957  .debug_str:000000000000b550 .LASF2083
C:\Users\CYMR90~1\AppData\Local\Temp\ccaJ4oak.s:29648  .debug_str:0000000000022048 .LASF2084
C:\Users\CYMR90~1\AppData\Local\Temp\ccaJ4oak.s:24587  .debug_str:000000000000de4f .LASF2085
C:\Users\CYMR90~1\AppData\Local\Temp\ccaJ4oak.s:23081  .debug_str:0000000000007c40 .LASF2086
C:\Users\CYMR90~1\AppData\Local\Temp\ccaJ4oak.s:30662  .debug_str:0000000000026181 .LASF2087
C:\Users\CYMR90~1\AppData\Local\Temp\ccaJ4oak.s:24759  .debug_str:000000000000e8e9 .LASF2088
C:\Users\CYMR90~1\AppData\Local\Temp\ccaJ4oak.s:26683  .debug_str:0000000000016297 .LASF2089
C:\Users\CYMR90~1\AppData\Local\Temp\ccaJ4oak.s:22183  .debug_str:00000000000043bb .LASF2090
C:\Users\CYMR90~1\AppData\Local\Temp\ccaJ4oak.s:25045  .debug_str:000000000000fa5e .LASF2091
C:\Users\CYMR90~1\AppData\Local\Temp\ccaJ4oak.s:31922  .debug_str:000000000002afd5 .LASF2092
C:\Users\CYMR90~1\AppData\Local\Temp\ccaJ4oak.s:28750  .debug_str:000000000001e9bc .LASF2093
C:\Users\CYMR90~1\AppData\Local\Temp\ccaJ4oak.s:23573  .debug_str:0000000000009c6e .LASF2094
C:\Users\CYMR90~1\AppData\Local\Temp\ccaJ4oak.s:27740  .debug_str:000000000001a976 .LASF2095
C:\Users\CYMR90~1\AppData\Local\Temp\ccaJ4oak.s:22121  .debug_str:0000000000003f30 .LASF2096
C:\Users\CYMR90~1\AppData\Local\Temp\ccaJ4oak.s:23673  .debug_str:000000000000a280 .LASF2097
C:\Users\CYMR90~1\AppData\Local\Temp\ccaJ4oak.s:28832  .debug_str:000000000001ee66 .LASF2098
C:\Users\CYMR90~1\AppData\Local\Temp\ccaJ4oak.s:22039  .debug_str:0000000000003a0b .LASF2099
C:\Users\CYMR90~1\AppData\Local\Temp\ccaJ4oak.s:25499  .debug_str:00000000000116e1 .LASF2100
C:\Users\CYMR90~1\AppData\Local\Temp\ccaJ4oak.s:21809  .debug_str:0000000000002bbc .LASF2101
C:\Users\CYMR90~1\AppData\Local\Temp\ccaJ4oak.s:23029  .debug_str:00000000000078d6 .LASF2102
C:\Users\CYMR90~1\AppData\Local\Temp\ccaJ4oak.s:26373  .debug_str:0000000000014f65 .LASF2103
C:\Users\CYMR90~1\AppData\Local\Temp\ccaJ4oak.s:23305  .debug_str:0000000000008b79 .LASF2104
C:\Users\CYMR90~1\AppData\Local\Temp\ccaJ4oak.s:29194  .debug_str:00000000000204a5 .LASF2105
C:\Users\CYMR90~1\AppData\Local\Temp\ccaJ4oak.s:23815  .debug_str:000000000000abef .LASF2106
C:\Users\CYMR90~1\AppData\Local\Temp\ccaJ4oak.s:29712  .debug_str:0000000000022409 .LASF2107
C:\Users\CYMR90~1\AppData\Local\Temp\ccaJ4oak.s:29030  .debug_str:000000000001fa8f .LASF2108
C:\Users\CYMR90~1\AppData\Local\Temp\ccaJ4oak.s:30236  .debug_str:000000000002443a .LASF2109
C:\Users\CYMR90~1\AppData\Local\Temp\ccaJ4oak.s:30812  .debug_str:0000000000026a8d .LASF2110
C:\Users\CYMR90~1\AppData\Local\Temp\ccaJ4oak.s:30646  .debug_str:000000000002604c .LASF2111
C:\Users\CYMR90~1\AppData\Local\Temp\ccaJ4oak.s:30286  .debug_str:000000000002479d .LASF2112
C:\Users\CYMR90~1\AppData\Local\Temp\ccaJ4oak.s:29328  .debug_str:0000000000020d03 .LASF2113
C:\Users\CYMR90~1\AppData\Local\Temp\ccaJ4oak.s:25221  .debug_str:000000000001053f .LASF2114
C:\Users\CYMR90~1\AppData\Local\Temp\ccaJ4oak.s:27366  .debug_str:0000000000018f31 .LASF2115
C:\Users\CYMR90~1\AppData\Local\Temp\ccaJ4oak.s:29174  .debug_str:000000000002032a .LASF2116
C:\Users\CYMR90~1\AppData\Local\Temp\ccaJ4oak.s:24091  .debug_str:000000000000be9e .LASF2117
C:\Users\CYMR90~1\AppData\Local\Temp\ccaJ4oak.s:22809  .debug_str:0000000000006aae .LASF2118
C:\Users\CYMR90~1\AppData\Local\Temp\ccaJ4oak.s:32108  .debug_str:000000000002bbbc .LASF2119
C:\Users\CYMR90~1\AppData\Local\Temp\ccaJ4oak.s:32194  .debug_str:000000000002c190 .LASF2120
C:\Users\CYMR90~1\AppData\Local\Temp\ccaJ4oak.s:26111  .debug_str:0000000000013ef7 .LASF2121
C:\Users\CYMR90~1\AppData\Local\Temp\ccaJ4oak.s:23775  .debug_str:000000000000a8c7 .LASF2122
C:\Users\CYMR90~1\AppData\Local\Temp\ccaJ4oak.s:27984  .debug_str:000000000001b8d5 .LASF2123
C:\Users\CYMR90~1\AppData\Local\Temp\ccaJ4oak.s:27292  .debug_str:0000000000018a3c .LASF2124
C:\Users\CYMR90~1\AppData\Local\Temp\ccaJ4oak.s:31954  .debug_str:000000000002b197 .LASF2125
C:\Users\CYMR90~1\AppData\Local\Temp\ccaJ4oak.s:28530  .debug_str:000000000001dc0e .LASF2126
C:\Users\CYMR90~1\AppData\Local\Temp\ccaJ4oak.s:27380  .debug_str:0000000000019039 .LASF2127
C:\Users\CYMR90~1\AppData\Local\Temp\ccaJ4oak.s:25795  .debug_str:0000000000012aa6 .LASF2128
C:\Users\CYMR90~1\AppData\Local\Temp\ccaJ4oak.s:28026  .debug_str:000000000001bafd .LASF2129
C:\Users\CYMR90~1\AppData\Local\Temp\ccaJ4oak.s:30638  .debug_str:0000000000025fde .LASF2130
C:\Users\CYMR90~1\AppData\Local\Temp\ccaJ4oak.s:21145  .debug_str:000000000000029d .LASF2131
C:\Users\CYMR90~1\AppData\Local\Temp\ccaJ4oak.s:22259  .debug_str:00000000000048cd .LASF2132
C:\Users\CYMR90~1\AppData\Local\Temp\ccaJ4oak.s:27568  .debug_str:0000000000019d25 .LASF2133
C:\Users\CYMR90~1\AppData\Local\Temp\ccaJ4oak.s:26850  .debug_str:0000000000016f77 .LASF2134
C:\Users\CYMR90~1\AppData\Local\Temp\ccaJ4oak.s:28578  .debug_str:000000000001df68 .LASF2135
C:\Users\CYMR90~1\AppData\Local\Temp\ccaJ4oak.s:22225  .debug_str:000000000000468d .LASF2136
C:\Users\CYMR90~1\AppData\Local\Temp\ccaJ4oak.s:28806  .debug_str:000000000001eccf .LASF2137
C:\Users\CYMR90~1\AppData\Local\Temp\ccaJ4oak.s:21525  .debug_str:0000000000001a76 .LASF2138
C:\Users\CYMR90~1\AppData\Local\Temp\ccaJ4oak.s:27556  .debug_str:0000000000019c7d .LASF2139
C:\Users\CYMR90~1\AppData\Local\Temp\ccaJ4oak.s:24257  .debug_str:000000000000c9c7 .LASF2140
C:\Users\CYMR90~1\AppData\Local\Temp\ccaJ4oak.s:22471  .debug_str:0000000000005637 .LASF2141
C:\Users\CYMR90~1\AppData\Local\Temp\ccaJ4oak.s:32144  .debug_str:000000000002be11 .LASF2142
C:\Users\CYMR90~1\AppData\Local\Temp\ccaJ4oak.s:24733  .debug_str:000000000000e727 .LASF2143
C:\Users\CYMR90~1\AppData\Local\Temp\ccaJ4oak.s:29450  .debug_str:000000000002147a .LASF2144
C:\Users\CYMR90~1\AppData\Local\Temp\ccaJ4oak.s:28486  .debug_str:000000000001d96e .LASF2145
C:\Users\CYMR90~1\AppData\Local\Temp\ccaJ4oak.s:28414  .debug_str:000000000001d496 .LASF2146
C:\Users\CYMR90~1\AppData\Local\Temp\ccaJ4oak.s:21583  .debug_str:0000000000001e1b .LASF2147
C:\Users\CYMR90~1\AppData\Local\Temp\ccaJ4oak.s:29470  .debug_str:000000000002159b .LASF2148
C:\Users\CYMR90~1\AppData\Local\Temp\ccaJ4oak.s:31020  .debug_str:00000000000277a1 .LASF2149
C:\Users\CYMR90~1\AppData\Local\Temp\ccaJ4oak.s:25637  .debug_str:0000000000012059 .LASF2150
C:\Users\CYMR90~1\AppData\Local\Temp\ccaJ4oak.s:26858  .debug_str:0000000000016ffc .LASF2151
C:\Users\CYMR90~1\AppData\Local\Temp\ccaJ4oak.s:23765  .debug_str:000000000000a7e4 .LASF2152
C:\Users\CYMR90~1\AppData\Local\Temp\ccaJ4oak.s:26437  .debug_str:0000000000015383 .LASF2153
C:\Users\CYMR90~1\AppData\Local\Temp\ccaJ4oak.s:21955  .debug_str:000000000000350c .LASF2154
C:\Users\CYMR90~1\AppData\Local\Temp\ccaJ4oak.s:28826  .debug_str:000000000001ee0c .LASF2155
C:\Users\CYMR90~1\AppData\Local\Temp\ccaJ4oak.s:27962  .debug_str:000000000001b760 .LASF2156
C:\Users\CYMR90~1\AppData\Local\Temp\ccaJ4oak.s:27014  .debug_str:000000000001792e .LASF2157
C:\Users\CYMR90~1\AppData\Local\Temp\ccaJ4oak.s:30244  .debug_str:00000000000244d3 .LASF2158
C:\Users\CYMR90~1\AppData\Local\Temp\ccaJ4oak.s:25801  .debug_str:0000000000012b03 .LASF2159
C:\Users\CYMR90~1\AppData\Local\Temp\ccaJ4oak.s:24535  .debug_str:000000000000db58 .LASF2160
C:\Users\CYMR90~1\AppData\Local\Temp\ccaJ4oak.s:23291  .debug_str:0000000000008a85 .LASF2161
C:\Users\CYMR90~1\AppData\Local\Temp\ccaJ4oak.s:25199  .debug_str:00000000000103fe .LASF2162
C:\Users\CYMR90~1\AppData\Local\Temp\ccaJ4oak.s:28228  .debug_str:000000000001c76f .LASF2163
C:\Users\CYMR90~1\AppData\Local\Temp\ccaJ4oak.s:25487  .debug_str:0000000000011611 .LASF2164
C:\Users\CYMR90~1\AppData\Local\Temp\ccaJ4oak.s:25713  .debug_str:000000000001254b .LASF2165
C:\Users\CYMR90~1\AppData\Local\Temp\ccaJ4oak.s:25393  .debug_str:0000000000011058 .LASF2166
C:\Users\CYMR90~1\AppData\Local\Temp\ccaJ4oak.s:28212  .debug_str:000000000001c64a .LASF2167
C:\Users\CYMR90~1\AppData\Local\Temp\ccaJ4oak.s:21643  .debug_str:000000000000216a .LASF2168
C:\Users\CYMR90~1\AppData\Local\Temp\ccaJ4oak.s:24781  .debug_str:000000000000ea22 .LASF2169
C:\Users\CYMR90~1\AppData\Local\Temp\ccaJ4oak.s:28598  .debug_str:000000000001e0c0 .LASF2170
C:\Users\CYMR90~1\AppData\Local\Temp\ccaJ4oak.s:27654  .debug_str:000000000001a217 .LASF2171
C:\Users\CYMR90~1\AppData\Local\Temp\ccaJ4oak.s:24623  .debug_str:000000000000e09c .LASF2172
C:\Users\CYMR90~1\AppData\Local\Temp\ccaJ4oak.s:23971  .debug_str:000000000000b697 .LASF2173
C:\Users\CYMR90~1\AppData\Local\Temp\ccaJ4oak.s:27022  .debug_str:00000000000179e8 .LASF2174
C:\Users\CYMR90~1\AppData\Local\Temp\ccaJ4oak.s:31874  .debug_str:000000000002acfd .LASF2175
C:\Users\CYMR90~1\AppData\Local\Temp\ccaJ4oak.s:22281  .debug_str:0000000000004ab1 .LASF2176
C:\Users\CYMR90~1\AppData\Local\Temp\ccaJ4oak.s:28114  .debug_str:000000000001c0aa .LASF2177
C:\Users\CYMR90~1\AppData\Local\Temp\ccaJ4oak.s:28510  .debug_str:000000000001daf0 .LASF2178
C:\Users\CYMR90~1\AppData\Local\Temp\ccaJ4oak.s:26329  .debug_str:0000000000014c8a .LASF2179
C:\Users\CYMR90~1\AppData\Local\Temp\ccaJ4oak.s:31230  .debug_str:000000000002862c .LASF2180
C:\Users\CYMR90~1\AppData\Local\Temp\ccaJ4oak.s:27862  .debug_str:000000000001b140 .LASF2181
C:\Users\CYMR90~1\AppData\Local\Temp\ccaJ4oak.s:24541  .debug_str:000000000000dbc3 .LASF2182
C:\Users\CYMR90~1\AppData\Local\Temp\ccaJ4oak.s:22051  .debug_str:0000000000003ae1 .LASF2183
C:\Users\CYMR90~1\AppData\Local\Temp\ccaJ4oak.s:21317  .debug_str:0000000000000d6d .LASF2184
C:\Users\CYMR90~1\AppData\Local\Temp\ccaJ4oak.s:31082  .debug_str:0000000000027b72 .LASF2185
C:\Users\CYMR90~1\AppData\Local\Temp\ccaJ4oak.s:29454  .debug_str:00000000000214b8 .LASF2186
C:\Users\CYMR90~1\AppData\Local\Temp\ccaJ4oak.s:22475  .debug_str:000000000000566b .LASF2187
C:\Users\CYMR90~1\AppData\Local\Temp\ccaJ4oak.s:27590  .debug_str:0000000000019e95 .LASF2188
C:\Users\CYMR90~1\AppData\Local\Temp\ccaJ4oak.s:26910  .debug_str:0000000000017313 .LASF2189
C:\Users\CYMR90~1\AppData\Local\Temp\ccaJ4oak.s:28286  .debug_str:000000000001cb79 .LASF2190
C:\Users\CYMR90~1\AppData\Local\Temp\ccaJ4oak.s:27818  .debug_str:000000000001ae30 .LASF2191
C:\Users\CYMR90~1\AppData\Local\Temp\ccaJ4oak.s:31002  .debug_str:00000000000276ad .LASF2192
C:\Users\CYMR90~1\AppData\Local\Temp\ccaJ4oak.s:25397  .debug_str:000000000001108c .LASF2193
C:\Users\CYMR90~1\AppData\Local\Temp\ccaJ4oak.s:29610  .debug_str:0000000000021e2b .LASF2194
C:\Users\CYMR90~1\AppData\Local\Temp\ccaJ4oak.s:31540  .debug_str:0000000000029956 .LASF2195
C:\Users\CYMR90~1\AppData\Local\Temp\ccaJ4oak.s:25605  .debug_str:0000000000011e5d .LASF2196
C:\Users\CYMR90~1\AppData\Local\Temp\ccaJ4oak.s:32006  .debug_str:000000000002b4f5 .LASF2197
C:\Users\CYMR90~1\AppData\Local\Temp\ccaJ4oak.s:28694  .debug_str:000000000001e63f .LASF2198
C:\Users\CYMR90~1\AppData\Local\Temp\ccaJ4oak.s:22367  .debug_str:0000000000004fdb .LASF2199
C:\Users\CYMR90~1\AppData\Local\Temp\ccaJ4oak.s:31402  .debug_str:00000000000290e5 .LASF2200
C:\Users\CYMR90~1\AppData\Local\Temp\ccaJ4oak.s:31970  .debug_str:000000000002b280 .LASF2201
C:\Users\CYMR90~1\AppData\Local\Temp\ccaJ4oak.s:24603  .debug_str:000000000000df6c .LASF2202
C:\Users\CYMR90~1\AppData\Local\Temp\ccaJ4oak.s:24575  .debug_str:000000000000dd7f .LASF2203
C:\Users\CYMR90~1\AppData\Local\Temp\ccaJ4oak.s:23949  .debug_str:000000000000b4cb .LASF2204
C:\Users\CYMR90~1\AppData\Local\Temp\ccaJ4oak.s:26125  .debug_str:0000000000013fe8 .LASF2205
C:\Users\CYMR90~1\AppData\Local\Temp\ccaJ4oak.s:31244  .debug_str:0000000000028721 .LASF2206
C:\Users\CYMR90~1\AppData\Local\Temp\ccaJ4oak.s:24933  .debug_str:000000000000f312 .LASF2207
C:\Users\CYMR90~1\AppData\Local\Temp\ccaJ4oak.s:28060  .debug_str:000000000001bd3d .LASF2208
C:\Users\CYMR90~1\AppData\Local\Temp\ccaJ4oak.s:30378  .debug_str:0000000000024daf .LASF2209
C:\Users\CYMR90~1\AppData\Local\Temp\ccaJ4oak.s:24533  .debug_str:000000000000db31 .LASF2210
C:\Users\CYMR90~1\AppData\Local\Temp\ccaJ4oak.s:29504  .debug_str:0000000000021783 .LASF2211
C:\Users\CYMR90~1\AppData\Local\Temp\ccaJ4oak.s:21397  .debug_str:000000000000126a .LASF2212
C:\Users\CYMR90~1\AppData\Local\Temp\ccaJ4oak.s:27764  .debug_str:000000000001aad9 .LASF2213
C:\Users\CYMR90~1\AppData\Local\Temp\ccaJ4oak.s:28248  .debug_str:000000000001c940 .LASF2214
C:\Users\CYMR90~1\AppData\Local\Temp\ccaJ4oak.s:21903  .debug_str:0000000000003199 .LASF2215
C:\Users\CYMR90~1\AppData\Local\Temp\ccaJ4oak.s:30660  .debug_str:0000000000026158 .LASF2216
C:\Users\CYMR90~1\AppData\Local\Temp\ccaJ4oak.s:31476  .debug_str:000000000002953a .LASF2217
C:\Users\CYMR90~1\AppData\Local\Temp\ccaJ4oak.s:29270  .debug_str:000000000002099d .LASF2218
C:\Users\CYMR90~1\AppData\Local\Temp\ccaJ4oak.s:31196  .debug_str:000000000002836b .LASF2219
C:\Users\CYMR90~1\AppData\Local\Temp\ccaJ4oak.s:22989  .debug_str:000000000000765e .LASF2220
C:\Users\CYMR90~1\AppData\Local\Temp\ccaJ4oak.s:29280  .debug_str:0000000000020a39 .LASF2221
C:\Users\CYMR90~1\AppData\Local\Temp\ccaJ4oak.s:23049  .debug_str:0000000000007a13 .LASF2222
C:\Users\CYMR90~1\AppData\Local\Temp\ccaJ4oak.s:28078  .debug_str:000000000001be58 .LASF2223
C:\Users\CYMR90~1\AppData\Local\Temp\ccaJ4oak.s:31240  .debug_str:00000000000286e0 .LASF2224
C:\Users\CYMR90~1\AppData\Local\Temp\ccaJ4oak.s:24817  .debug_str:000000000000ec5e .LASF2225
C:\Users\CYMR90~1\AppData\Local\Temp\ccaJ4oak.s:22293  .debug_str:0000000000004b6d .LASF2226
C:\Users\CYMR90~1\AppData\Local\Temp\ccaJ4oak.s:24335  .debug_str:000000000000ce82 .LASF2227
C:\Users\CYMR90~1\AppData\Local\Temp\ccaJ4oak.s:32464  .debug_str:000000000002d32d .LASF2228
C:\Users\CYMR90~1\AppData\Local\Temp\ccaJ4oak.s:22665  .debug_str:000000000000621b .LASF2229
C:\Users\CYMR90~1\AppData\Local\Temp\ccaJ4oak.s:26287  .debug_str:0000000000014a07 .LASF2230
C:\Users\CYMR90~1\AppData\Local\Temp\ccaJ4oak.s:32034  .debug_str:000000000002b6ae .LASF2231
C:\Users\CYMR90~1\AppData\Local\Temp\ccaJ4oak.s:23741  .debug_str:000000000000a6b0 .LASF2232
C:\Users\CYMR90~1\AppData\Local\Temp\ccaJ4oak.s:27254  .debug_str:000000000001879b .LASF2233
C:\Users\CYMR90~1\AppData\Local\Temp\ccaJ4oak.s:21677  .debug_str:0000000000002366 .LASF2234
C:\Users\CYMR90~1\AppData\Local\Temp\ccaJ4oak.s:26197  .debug_str:0000000000014469 .LASF2235
C:\Users\CYMR90~1\AppData\Local\Temp\ccaJ4oak.s:23043  .debug_str:00000000000079c6 .LASF2236
C:\Users\CYMR90~1\AppData\Local\Temp\ccaJ4oak.s:24193  .debug_str:000000000000c569 .LASF2237
C:\Users\CYMR90~1\AppData\Local\Temp\ccaJ4oak.s:25241  .debug_str:0000000000010677 .LASF2238
C:\Users\CYMR90~1\AppData\Local\Temp\ccaJ4oak.s:29408  .debug_str:000000000002115e .LASF2239
C:\Users\CYMR90~1\AppData\Local\Temp\ccaJ4oak.s:30838  .debug_str:0000000000026c25 .LASF2240
C:\Users\CYMR90~1\AppData\Local\Temp\ccaJ4oak.s:25253  .debug_str:0000000000010731 .LASF2241
C:\Users\CYMR90~1\AppData\Local\Temp\ccaJ4oak.s:25647  .debug_str:0000000000012133 .LASF2242
C:\Users\CYMR90~1\AppData\Local\Temp\ccaJ4oak.s:24707  .debug_str:000000000000e593 .LASF2243
C:\Users\CYMR90~1\AppData\Local\Temp\ccaJ4oak.s:22679  .debug_str:0000000000006316 .LASF2244
C:\Users\CYMR90~1\AppData\Local\Temp\ccaJ4oak.s:21723  .debug_str:0000000000002602 .LASF2245
C:\Users\CYMR90~1\AppData\Local\Temp\ccaJ4oak.s:28472  .debug_str:000000000001d88f .LASF2246
C:\Users\CYMR90~1\AppData\Local\Temp\ccaJ4oak.s:30720  .debug_str:00000000000264e4 .LASF2247
C:\Users\CYMR90~1\AppData\Local\Temp\ccaJ4oak.s:29060  .debug_str:000000000001fc85 .LASF2248
C:\Users\CYMR90~1\AppData\Local\Temp\ccaJ4oak.s:29076  .debug_str:000000000001fd5d .LASF2249
C:\Users\CYMR90~1\AppData\Local\Temp\ccaJ4oak.s:30132  .debug_str:0000000000023d45 .LASF2250
C:\Users\CYMR90~1\AppData\Local\Temp\ccaJ4oak.s:30944  .debug_str:0000000000027273 .LASF2251
C:\Users\CYMR90~1\AppData\Local\Temp\ccaJ4oak.s:28176  .debug_str:000000000001c46e .LASF2252
C:\Users\CYMR90~1\AppData\Local\Temp\ccaJ4oak.s:28340  .debug_str:000000000001cf9a .LASF2253
C:\Users\CYMR90~1\AppData\Local\Temp\ccaJ4oak.s:23261  .debug_str:00000000000088a5 .LASF2254
C:\Users\CYMR90~1\AppData\Local\Temp\ccaJ4oak.s:26005  .debug_str:00000000000138e5 .LASF2255
C:\Users\CYMR90~1\AppData\Local\Temp\ccaJ4oak.s:29556  .debug_str:0000000000021a9b .LASF2256
C:\Users\CYMR90~1\AppData\Local\Temp\ccaJ4oak.s:31838  .debug_str:000000000002aae4 .LASF2257
C:\Users\CYMR90~1\AppData\Local\Temp\ccaJ4oak.s:30364  .debug_str:0000000000024ccb .LASF2258
C:\Users\CYMR90~1\AppData\Local\Temp\ccaJ4oak.s:22835  .debug_str:0000000000006c3b .LASF2259
C:\Users\CYMR90~1\AppData\Local\Temp\ccaJ4oak.s:25155  .debug_str:0000000000010111 .LASF2260
C:\Users\CYMR90~1\AppData\Local\Temp\ccaJ4oak.s:22781  .debug_str:00000000000068bc .LASF2261
C:\Users\CYMR90~1\AppData\Local\Temp\ccaJ4oak.s:32252  .debug_str:000000000002c5be .LASF2262
C:\Users\CYMR90~1\AppData\Local\Temp\ccaJ4oak.s:31664  .debug_str:000000000002a07b .LASF2263
C:\Users\CYMR90~1\AppData\Local\Temp\ccaJ4oak.s:24445  .debug_str:000000000000d634 .LASF2264
C:\Users\CYMR90~1\AppData\Local\Temp\ccaJ4oak.s:23489  .debug_str:00000000000096e8 .LASF2265
C:\Users\CYMR90~1\AppData\Local\Temp\ccaJ4oak.s:22045  .debug_str:0000000000003a94 .LASF2266
C:\Users\CYMR90~1\AppData\Local\Temp\ccaJ4oak.s:25167  .debug_str:00000000000101ea .LASF2267
C:\Users\CYMR90~1\AppData\Local\Temp\ccaJ4oak.s:23929  .debug_str:000000000000b3d6 .LASF2268
C:\Users\CYMR90~1\AppData\Local\Temp\ccaJ4oak.s:22711  .debug_str:00000000000064d9 .LASF2269
C:\Users\CYMR90~1\AppData\Local\Temp\ccaJ4oak.s:30138  .debug_str:0000000000023d95 .LASF2270
C:\Users\CYMR90~1\AppData\Local\Temp\ccaJ4oak.s:29288  .debug_str:0000000000020ab4 .LASF2271
C:\Users\CYMR90~1\AppData\Local\Temp\ccaJ4oak.s:25707  .debug_str:00000000000124ea .LASF2272
C:\Users\CYMR90~1\AppData\Local\Temp\ccaJ4oak.s:30398  .debug_str:0000000000024f38 .LASF2273
C:\Users\CYMR90~1\AppData\Local\Temp\ccaJ4oak.s:31016  .debug_str:0000000000027774 .LASF2274
C:\Users\CYMR90~1\AppData\Local\Temp\ccaJ4oak.s:23473  .debug_str:00000000000095ae .LASF2275
C:\Users\CYMR90~1\AppData\Local\Temp\ccaJ4oak.s:24811  .debug_str:000000000000ec07 .LASF2276
C:\Users\CYMR90~1\AppData\Local\Temp\ccaJ4oak.s:22845  .debug_str:0000000000006cf8 .LASF2277
C:\Users\CYMR90~1\AppData\Local\Temp\ccaJ4oak.s:25217  .debug_str:0000000000010506 .LASF2278
C:\Users\CYMR90~1\AppData\Local\Temp\ccaJ4oak.s:32124  .debug_str:000000000002bcba .LASF2279
C:\Users\CYMR90~1\AppData\Local\Temp\ccaJ4oak.s:30788  .debug_str:0000000000026929 .LASF2280
C:\Users\CYMR90~1\AppData\Local\Temp\ccaJ4oak.s:21255  .debug_str:000000000000096e .LASF2281
C:\Users\CYMR90~1\AppData\Local\Temp\ccaJ4oak.s:25609  .debug_str:0000000000011eb2 .LASF2282
C:\Users\CYMR90~1\AppData\Local\Temp\ccaJ4oak.s:28770  .debug_str:000000000001eae7 .LASF2283
C:\Users\CYMR90~1\AppData\Local\Temp\ccaJ4oak.s:32066  .debug_str:000000000002b929 .LASF2284
C:\Users\CYMR90~1\AppData\Local\Temp\ccaJ4oak.s:23931  .debug_str:000000000000b3fb .LASF2285
C:\Users\CYMR90~1\AppData\Local\Temp\ccaJ4oak.s:22887  .debug_str:0000000000006fb8 .LASF2286
C:\Users\CYMR90~1\AppData\Local\Temp\ccaJ4oak.s:30356  .debug_str:0000000000024c48 .LASF2287
C:\Users\CYMR90~1\AppData\Local\Temp\ccaJ4oak.s:30092  .debug_str:0000000000023aff .LASF2288
C:\Users\CYMR90~1\AppData\Local\Temp\ccaJ4oak.s:25383  .debug_str:0000000000010ffd .LASF2289
C:\Users\CYMR90~1\AppData\Local\Temp\ccaJ4oak.s:28550  .debug_str:000000000001dd4c .LASF2290
C:\Users\CYMR90~1\AppData\Local\Temp\ccaJ4oak.s:31808  .debug_str:000000000002a955 .LASF2291
C:\Users\CYMR90~1\AppData\Local\Temp\ccaJ4oak.s:21557  .debug_str:0000000000001c97 .LASF2292
C:\Users\CYMR90~1\AppData\Local\Temp\ccaJ4oak.s:26297  .debug_str:0000000000014a92 .LASF2293
C:\Users\CYMR90~1\AppData\Local\Temp\ccaJ4oak.s:31018  .debug_str:0000000000027786 .LASF2294
C:\Users\CYMR90~1\AppData\Local\Temp\ccaJ4oak.s:27918  .debug_str:000000000001b4c7 .LASF2295
C:\Users\CYMR90~1\AppData\Local\Temp\ccaJ4oak.s:29068  .debug_str:000000000001fcfd .LASF2296
C:\Users\CYMR90~1\AppData\Local\Temp\ccaJ4oak.s:22445  .debug_str:0000000000005497 .LASF2297
C:\Users\CYMR90~1\AppData\Local\Temp\ccaJ4oak.s:27180  .debug_str:0000000000018362 .LASF2298
C:\Users\CYMR90~1\AppData\Local\Temp\ccaJ4oak.s:31908  .debug_str:000000000002af17 .LASF2299
C:\Users\CYMR90~1\AppData\Local\Temp\ccaJ4oak.s:28034  .debug_str:000000000001bb85 .LASF2300
C:\Users\CYMR90~1\AppData\Local\Temp\ccaJ4oak.s:31076  .debug_str:0000000000027b0d .LASF2301
C:\Users\CYMR90~1\AppData\Local\Temp\ccaJ4oak.s:21743  .debug_str:0000000000002783 .LASF2302
C:\Users\CYMR90~1\AppData\Local\Temp\ccaJ4oak.s:29124  .debug_str:0000000000020078 .LASF2303
C:\Users\CYMR90~1\AppData\Local\Temp\ccaJ4oak.s:22495  .debug_str:0000000000005765 .LASF2304
C:\Users\CYMR90~1\AppData\Local\Temp\ccaJ4oak.s:27234  .debug_str:000000000001869f .LASF2305
C:\Users\CYMR90~1\AppData\Local\Temp\ccaJ4oak.s:31966  .debug_str:000000000002b24f .LASF2306
C:\Users\CYMR90~1\AppData\Local\Temp\ccaJ4oak.s:31842  .debug_str:000000000002ab1c .LASF2307
C:\Users\CYMR90~1\AppData\Local\Temp\ccaJ4oak.s:23715  .debug_str:000000000000a52d .LASF2308
C:\Users\CYMR90~1\AppData\Local\Temp\ccaJ4oak.s:26926  .debug_str:000000000001740f .LASF2309
C:\Users\CYMR90~1\AppData\Local\Temp\ccaJ4oak.s:30142  .debug_str:0000000000023dc6 .LASF2310
C:\Users\CYMR90~1\AppData\Local\Temp\ccaJ4oak.s:21993  .debug_str:0000000000003734 .LASF2311
C:\Users\CYMR90~1\AppData\Local\Temp\ccaJ4oak.s:25261  .debug_str:0000000000010867 .LASF2312
C:\Users\CYMR90~1\AppData\Local\Temp\ccaJ4oak.s:28444  .debug_str:000000000001d6b3 .LASF2313
C:\Users\CYMR90~1\AppData\Local\Temp\ccaJ4oak.s:25457  .debug_str:000000000001141e .LASF2314
C:\Users\CYMR90~1\AppData\Local\Temp\ccaJ4oak.s:26051  .debug_str:0000000000013b89 .LASF2315
C:\Users\CYMR90~1\AppData\Local\Temp\ccaJ4oak.s:24435  .debug_str:000000000000d58d .LASF2316
C:\Users\CYMR90~1\AppData\Local\Temp\ccaJ4oak.s:27808  .debug_str:000000000001ad8d .LASF2317
C:\Users\CYMR90~1\AppData\Local\Temp\ccaJ4oak.s:21139  .debug_str:0000000000000241 .LASF2318
C:\Users\CYMR90~1\AppData\Local\Temp\ccaJ4oak.s:27836  .debug_str:000000000001af45 .LASF2319
C:\Users\CYMR90~1\AppData\Local\Temp\ccaJ4oak.s:30562  .debug_str:0000000000025b4d .LASF2320
C:\Users\CYMR90~1\AppData\Local\Temp\ccaJ4oak.s:23965  .debug_str:000000000000b5ce .LASF2321
C:\Users\CYMR90~1\AppData\Local\Temp\ccaJ4oak.s:28616  .debug_str:000000000001e1ba .LASF2322
C:\Users\CYMR90~1\AppData\Local\Temp\ccaJ4oak.s:24287  .debug_str:000000000000cbef .LASF2323
C:\Users\CYMR90~1\AppData\Local\Temp\ccaJ4oak.s:26729  .debug_str:0000000000016521 .LASF2324
C:\Users\CYMR90~1\AppData\Local\Temp\ccaJ4oak.s:28828  .debug_str:000000000001ee3b .LASF2325
C:\Users\CYMR90~1\AppData\Local\Temp\ccaJ4oak.s:25927  .debug_str:000000000001331f .LASF2326
C:\Users\CYMR90~1\AppData\Local\Temp\ccaJ4oak.s:30614  .debug_str:0000000000025e6e .LASF2327
C:\Users\CYMR90~1\AppData\Local\Temp\ccaJ4oak.s:30196  .debug_str:0000000000024108 .LASF2328
C:\Users\CYMR90~1\AppData\Local\Temp\ccaJ4oak.s:28666  .debug_str:000000000001e47b .LASF2329
C:\Users\CYMR90~1\AppData\Local\Temp\ccaJ4oak.s:22041  .debug_str:0000000000003a49 .LASF2330
C:\Users\CYMR90~1\AppData\Local\Temp\ccaJ4oak.s:26787  .debug_str:0000000000016916 .LASF2331
C:\Users\CYMR90~1\AppData\Local\Temp\ccaJ4oak.s:23845  .debug_str:000000000000add9 .LASF2332
C:\Users\CYMR90~1\AppData\Local\Temp\ccaJ4oak.s:26954  .debug_str:000000000001756e .LASF2333
C:\Users\CYMR90~1\AppData\Local\Temp\ccaJ4oak.s:30182  .debug_str:0000000000024057 .LASF2334
C:\Users\CYMR90~1\AppData\Local\Temp\ccaJ4oak.s:22025  .debug_str:0000000000003944 .LASF2335
C:\Users\CYMR90~1\AppData\Local\Temp\ccaJ4oak.s:25295  .debug_str:0000000000010a47 .LASF2336
C:\Users\CYMR90~1\AppData\Local\Temp\ccaJ4oak.s:25539  .debug_str:0000000000011a16 .LASF2337
C:\Users\CYMR90~1\AppData\Local\Temp\ccaJ4oak.s:31732  .debug_str:000000000002a464 .LASF2338
C:\Users\CYMR90~1\AppData\Local\Temp\ccaJ4oak.s:22233  .debug_str:0000000000004720 .LASF2339
C:\Users\CYMR90~1\AppData\Local\Temp\ccaJ4oak.s:30986  .debug_str:00000000000275cb .LASF2340
C:\Users\CYMR90~1\AppData\Local\Temp\ccaJ4oak.s:29934  .debug_str:0000000000023119 .LASF2341
C:\Users\CYMR90~1\AppData\Local\Temp\ccaJ4oak.s:31300  .debug_str:0000000000028ae6 .LASF2342
C:\Users\CYMR90~1\AppData\Local\Temp\ccaJ4oak.s:24679  .debug_str:000000000000e405 .LASF2343
C:\Users\CYMR90~1\AppData\Local\Temp\ccaJ4oak.s:29348  .debug_str:0000000000020e27 .LASF2344
C:\Users\CYMR90~1\AppData\Local\Temp\ccaJ4oak.s:22735  .debug_str:0000000000006638 .LASF2345
C:\Users\CYMR90~1\AppData\Local\Temp\ccaJ4oak.s:27472  .debug_str:0000000000019699 .LASF2346
C:\Users\CYMR90~1\AppData\Local\Temp\ccaJ4oak.s:27852  .debug_str:000000000001b0af .LASF2347
C:\Users\CYMR90~1\AppData\Local\Temp\ccaJ4oak.s:25547  .debug_str:0000000000011a83 .LASF2348
C:\Users\CYMR90~1\AppData\Local\Temp\ccaJ4oak.s:30254  .debug_str:00000000000245b6 .LASF2349
C:\Users\CYMR90~1\AppData\Local\Temp\ccaJ4oak.s:24143  .debug_str:000000000000c25f .LASF2350
C:\Users\CYMR90~1\AppData\Local\Temp\ccaJ4oak.s:29402  .debug_str:00000000000210f3 .LASF2351
C:\Users\CYMR90~1\AppData\Local\Temp\ccaJ4oak.s:22785  .debug_str:00000000000068f5 .LASF2352
C:\Users\CYMR90~1\AppData\Local\Temp\ccaJ4oak.s:27522  .debug_str:0000000000019a45 .LASF2353
C:\Users\CYMR90~1\AppData\Local\Temp\ccaJ4oak.s:32248  .debug_str:000000000002c57f .LASF2354
C:\Users\CYMR90~1\AppData\Local\Temp\ccaJ4oak.s:25601  .debug_str:0000000000011e0f .LASF2355
C:\Users\CYMR90~1\AppData\Local\Temp\ccaJ4oak.s:25517  .debug_str:0000000000011822 .LASF2356
C:\Users\CYMR90~1\AppData\Local\Temp\ccaJ4oak.s:29090  .debug_str:000000000001fe5e .LASF2357
C:\Users\CYMR90~1\AppData\Local\Temp\ccaJ4oak.s:30416  .debug_str:0000000000025047 .LASF2358
C:\Users\CYMR90~1\AppData\Local\Temp\ccaJ4oak.s:28740  .debug_str:000000000001e92e .LASF2359
C:\Users\CYMR90~1\AppData\Local\Temp\ccaJ4oak.s:27144  .debug_str:0000000000018124 .LASF2360
C:\Users\CYMR90~1\AppData\Local\Temp\ccaJ4oak.s:30564  .debug_str:0000000000025b66 .LASF2361
C:\Users\CYMR90~1\AppData\Local\Temp\ccaJ4oak.s:22419  .debug_str:00000000000052f1 .LASF2362
C:\Users\CYMR90~1\AppData\Local\Temp\ccaJ4oak.s:25679  .debug_str:0000000000012331 .LASF2363
C:\Users\CYMR90~1\AppData\Local\Temp\ccaJ4oak.s:28836  .debug_str:000000000001eeb7 .LASF2364
C:\Users\CYMR90~1\AppData\Local\Temp\ccaJ4oak.s:30346  .debug_str:0000000000024bbe .LASF2365
C:\Users\CYMR90~1\AppData\Local\Temp\ccaJ4oak.s:23913  .debug_str:000000000000b2fb .LASF2366
C:\Users\CYMR90~1\AppData\Local\Temp\ccaJ4oak.s:30266  .debug_str:000000000002465b .LASF2367
C:\Users\CYMR90~1\AppData\Local\Temp\ccaJ4oak.s:32062  .debug_str:000000000002b899 .LASF2368
C:\Users\CYMR90~1\AppData\Local\Temp\ccaJ4oak.s:28328  .debug_str:000000000001cef0 .LASF2369
C:\Users\CYMR90~1\AppData\Local\Temp\ccaJ4oak.s:21683  .debug_str:00000000000023b2 .LASF2370
C:\Users\CYMR90~1\AppData\Local\Temp\ccaJ4oak.s:26417  .debug_str:0000000000015246 .LASF2371
C:\Users\CYMR90~1\AppData\Local\Temp\ccaJ4oak.s:31144  .debug_str:0000000000027fcd .LASF2372
C:\Users\CYMR90~1\AppData\Local\Temp\ccaJ4oak.s:24523  .debug_str:000000000000daa3 .LASF2373
C:\Users\CYMR90~1\AppData\Local\Temp\ccaJ4oak.s:29190  .debug_str:000000000002045d .LASF2374
C:\Users\CYMR90~1\AppData\Local\Temp\ccaJ4oak.s:27304  .debug_str:0000000000018ae4 .LASF2375
C:\Users\CYMR90~1\AppData\Local\Temp\ccaJ4oak.s:22105  .debug_str:0000000000003e5e .LASF2376
C:\Users\CYMR90~1\AppData\Local\Temp\ccaJ4oak.s:21739  .debug_str:0000000000002746 .LASF2377
C:\Users\CYMR90~1\AppData\Local\Temp\ccaJ4oak.s:26461  .debug_str:00000000000154de .LASF2378
C:\Users\CYMR90~1\AppData\Local\Temp\ccaJ4oak.s:31200  .debug_str:000000000002844f .LASF2379
C:\Users\CYMR90~1\AppData\Local\Temp\ccaJ4oak.s:24579  .debug_str:000000000000ddd0 .LASF2380
C:\Users\CYMR90~1\AppData\Local\Temp\ccaJ4oak.s:29246  .debug_str:0000000000020810 .LASF2381
C:\Users\CYMR90~1\AppData\Local\Temp\ccaJ4oak.s:31420  .debug_str:0000000000029207 .LASF2382
C:\Users\CYMR90~1\AppData\Local\Temp\ccaJ4oak.s:21887  .debug_str:0000000000003081 .LASF2383
C:\Users\CYMR90~1\AppData\Local\Temp\ccaJ4oak.s:26499  .debug_str:00000000000156dc .LASF2384
C:\Users\CYMR90~1\AppData\Local\Temp\ccaJ4oak.s:31186  .debug_str:00000000000282e3 .LASF2385
C:\Users\CYMR90~1\AppData\Local\Temp\ccaJ4oak.s:29524  .debug_str:00000000000218c3 .LASF2386
C:\Users\CYMR90~1\AppData\Local\Temp\ccaJ4oak.s:27924  .debug_str:000000000001b527 .LASF2387
C:\Users\CYMR90~1\AppData\Local\Temp\ccaJ4oak.s:28040  .debug_str:000000000001bbd0 .LASF2388
C:\Users\CYMR90~1\AppData\Local\Temp\ccaJ4oak.s:31274  .debug_str:000000000002896e .LASF2389
C:\Users\CYMR90~1\AppData\Local\Temp\ccaJ4oak.s:23137  .debug_str:000000000000804b .LASF2390
C:\Users\CYMR90~1\AppData\Local\Temp\ccaJ4oak.s:26265  .debug_str:00000000000148af .LASF2391
C:\Users\CYMR90~1\AppData\Local\Temp\ccaJ4oak.s:25981  .debug_str:0000000000013728 .LASF2392
C:\Users\CYMR90~1\AppData\Local\Temp\ccaJ4oak.s:30674  .debug_str:0000000000026239 .LASF2393
C:\Users\CYMR90~1\AppData\Local\Temp\ccaJ4oak.s:24059  .debug_str:000000000000bc66 .LASF2394
C:\Users\CYMR90~1\AppData\Local\Temp\ccaJ4oak.s:28718  .debug_str:000000000001e787 .LASF2395
C:\Users\CYMR90~1\AppData\Local\Temp\ccaJ4oak.s:22093  .debug_str:0000000000003d99 .LASF2396
C:\Users\CYMR90~1\AppData\Local\Temp\ccaJ4oak.s:26848  .debug_str:0000000000016f5c .LASF2397
C:\Users\CYMR90~1\AppData\Local\Temp\ccaJ4oak.s:31558  .debug_str:0000000000029a5e .LASF2398
C:\Users\CYMR90~1\AppData\Local\Temp\ccaJ4oak.s:24945  .debug_str:000000000000f3c8 .LASF2399
C:\Users\CYMR90~1\AppData\Local\Temp\ccaJ4oak.s:22995  .debug_str:00000000000076af .LASF2400
C:\Users\CYMR90~1\AppData\Local\Temp\ccaJ4oak.s:24113  .debug_str:000000000000c045 .LASF2401
C:\Users\CYMR90~1\AppData\Local\Temp\ccaJ4oak.s:28760  .debug_str:000000000001ea62 .LASF2402
C:\Users\CYMR90~1\AppData\Local\Temp\ccaJ4oak.s:22147  .debug_str:0000000000004108 .LASF2403
C:\Users\CYMR90~1\AppData\Local\Temp\ccaJ4oak.s:21527  .debug_str:0000000000001a97 .LASF2404
C:\Users\CYMR90~1\AppData\Local\Temp\ccaJ4oak.s:31610  .debug_str:0000000000029d83 .LASF2405
C:\Users\CYMR90~1\AppData\Local\Temp\ccaJ4oak.s:25005  .debug_str:000000000000f772 .LASF2406
C:\Users\CYMR90~1\AppData\Local\Temp\ccaJ4oak.s:24723  .debug_str:000000000000e68a .LASF2407
C:\Users\CYMR90~1\AppData\Local\Temp\ccaJ4oak.s:27934  .debug_str:000000000001b5d5 .LASF2408
C:\Users\CYMR90~1\AppData\Local\Temp\ccaJ4oak.s:31154  .debug_str:0000000000028074 .LASF2409
C:\Users\CYMR90~1\AppData\Local\Temp\ccaJ4oak.s:23013  .debug_str:00000000000077dc .LASF2410
C:\Users\CYMR90~1\AppData\Local\Temp\ccaJ4oak.s:26149  .debug_str:000000000001415d .LASF2411
C:\Users\CYMR90~1\AppData\Local\Temp\ccaJ4oak.s:29346  .debug_str:0000000000020e14 .LASF2412
C:\Users\CYMR90~1\AppData\Local\Temp\ccaJ4oak.s:31544  .debug_str:000000000002999b .LASF2413
C:\Users\CYMR90~1\AppData\Local\Temp\ccaJ4oak.s:24487  .debug_str:000000000000d8b3 .LASF2414
C:\Users\CYMR90~1\AppData\Local\Temp\ccaJ4oak.s:27714  .debug_str:000000000001a723 .LASF2415
C:\Users\CYMR90~1\AppData\Local\Temp\ccaJ4oak.s:30914  .debug_str:00000000000270eb .LASF2416
C:\Users\CYMR90~1\AppData\Local\Temp\ccaJ4oak.s:31242  .debug_str:000000000002870c .LASF2417
C:\Users\CYMR90~1\AppData\Local\Temp\ccaJ4oak.s:24625  .debug_str:000000000000e0bc .LASF2418
C:\Users\CYMR90~1\AppData\Local\Temp\ccaJ4oak.s:29292  .debug_str:0000000000020ae3 .LASF2419
C:\Users\CYMR90~1\AppData\Local\Temp\ccaJ4oak.s:22657  .debug_str:0000000000006184 .LASF2420
C:\Users\CYMR90~1\AppData\Local\Temp\ccaJ4oak.s:27408  .debug_str:00000000000192f4 .LASF2421
C:\Users\CYMR90~1\AppData\Local\Temp\ccaJ4oak.s:28180  .debug_str:000000000001c4aa .LASF2422
C:\Users\CYMR90~1\AppData\Local\Temp\ccaJ4oak.s:24449  .debug_str:000000000000d673 .LASF2423
C:\Users\CYMR90~1\AppData\Local\Temp\ccaJ4oak.s:30192  .debug_str:00000000000240c7 .LASF2424
C:\Users\CYMR90~1\AppData\Local\Temp\ccaJ4oak.s:28268  .debug_str:000000000001ca8f .LASF2425
C:\Users\CYMR90~1\AppData\Local\Temp\ccaJ4oak.s:29436  .debug_str:00000000000212f6 .LASF2426
C:\Users\CYMR90~1\AppData\Local\Temp\ccaJ4oak.s:22815  .debug_str:0000000000006b09 .LASF2427
C:\Users\CYMR90~1\AppData\Local\Temp\ccaJ4oak.s:27546  .debug_str:0000000000019be5 .LASF2428
C:\Users\CYMR90~1\AppData\Local\Temp\ccaJ4oak.s:32276  .debug_str:000000000002c72a .LASF2429
C:\Users\CYMR90~1\AppData\Local\Temp\ccaJ4oak.s:25627  .debug_str:0000000000011fb7 .LASF2430
C:\Users\CYMR90~1\AppData\Local\Temp\ccaJ4oak.s:30328  .debug_str:0000000000024a35 .LASF2431
C:\Users\CYMR90~1\AppData\Local\Temp\ccaJ4oak.s:25837  .debug_str:0000000000012d46 .LASF2432
C:\Users\CYMR90~1\AppData\Local\Temp\ccaJ4oak.s:21975  .debug_str:0000000000003646 .LASF2433
C:\Users\CYMR90~1\AppData\Local\Temp\ccaJ4oak.s:27204  .debug_str:00000000000184c6 .LASF2434
C:\Users\CYMR90~1\AppData\Local\Temp\ccaJ4oak.s:23547  .debug_str:0000000000009acd .LASF2435
C:\Users\CYMR90~1\AppData\Local\Temp\ccaJ4oak.s:32028  .debug_str:000000000002b665 .LASF2436
C:\Users\CYMR90~1\AppData\Local\Temp\ccaJ4oak.s:30634  .debug_str:0000000000025f9b .LASF2437
C:\Users\CYMR90~1\AppData\Local\Temp\ccaJ4oak.s:26625  .debug_str:0000000000015eb6 .LASF2438
C:\Users\CYMR90~1\AppData\Local\Temp\ccaJ4oak.s:26387  .debug_str:0000000000015084 .LASF2439
C:\Users\CYMR90~1\AppData\Local\Temp\ccaJ4oak.s:26771  .debug_str:000000000001681f .LASF2440
C:\Users\CYMR90~1\AppData\Local\Temp\ccaJ4oak.s:23611  .debug_str:0000000000009e9b .LASF2441
C:\Users\CYMR90~1\AppData\Local\Temp\ccaJ4oak.s:30304  .debug_str:00000000000248b9 .LASF2442
C:\Users\CYMR90~1\AppData\Local\Temp\ccaJ4oak.s:31372  .debug_str:0000000000028f0a .LASF2443
C:\Users\CYMR90~1\AppData\Local\Temp\ccaJ4oak.s:21221  .debug_str:0000000000000753 .LASF2444
C:\Users\CYMR90~1\AppData\Local\Temp\ccaJ4oak.s:23033  .debug_str:000000000000791e .LASF2445
C:\Users\CYMR90~1\AppData\Local\Temp\ccaJ4oak.s:22019  .debug_str:00000000000038f1 .LASF2446
C:\Users\CYMR90~1\AppData\Local\Temp\ccaJ4oak.s:30528  .debug_str:00000000000258a4 .LASF2447
C:\Users\CYMR90~1\AppData\Local\Temp\ccaJ4oak.s:25629  .debug_str:0000000000011fcc .LASF2448
C:\Users\CYMR90~1\AppData\Local\Temp\ccaJ4oak.s:24397  .debug_str:000000000000d28c .LASF2449
C:\Users\CYMR90~1\AppData\Local\Temp\ccaJ4oak.s:29022  .debug_str:000000000001fa06 .LASF2450
C:\Users\CYMR90~1\AppData\Local\Temp\ccaJ4oak.s:28150  .debug_str:000000000001c2f5 .LASF2451
C:\Users\CYMR90~1\AppData\Local\Temp\ccaJ4oak.s:22065  .debug_str:0000000000003ba2 .LASF2452
C:\Users\CYMR90~1\AppData\Local\Temp\ccaJ4oak.s:30682  .debug_str:00000000000262c9 .LASF2453
C:\Users\CYMR90~1\AppData\Local\Temp\ccaJ4oak.s:24369  .debug_str:000000000000d0c4 .LASF2454
C:\Users\CYMR90~1\AppData\Local\Temp\ccaJ4oak.s:23451  .debug_str:0000000000009466 .LASF2455
C:\Users\CYMR90~1\AppData\Local\Temp\ccaJ4oak.s:22415  .debug_str:00000000000052a4 .LASF2456
C:\Users\CYMR90~1\AppData\Local\Temp\ccaJ4oak.s:31026  .debug_str:0000000000027806 .LASF2457
C:\Users\CYMR90~1\AppData\Local\Temp\ccaJ4oak.s:31328  .debug_str:0000000000028cb6 .LASF2458
C:\Users\CYMR90~1\AppData\Local\Temp\ccaJ4oak.s:25483  .debug_str:00000000000115c0 .LASF2459
C:\Users\CYMR90~1\AppData\Local\Temp\ccaJ4oak.s:29386  .debug_str:000000000002102b .LASF2460
C:\Users\CYMR90~1\AppData\Local\Temp\ccaJ4oak.s:26545  .debug_str:000000000001597b .LASF2461
C:\Users\CYMR90~1\AppData\Local\Temp\ccaJ4oak.s:27106  .debug_str:0000000000017eea .LASF2462
C:\Users\CYMR90~1\AppData\Local\Temp\ccaJ4oak.s:25959  .debug_str:00000000000135bd .LASF2463
C:\Users\CYMR90~1\AppData\Local\Temp\ccaJ4oak.s:26443  .debug_str:000000000001540c .LASF2464
C:\Users\CYMR90~1\AppData\Local\Temp\ccaJ4oak.s:25159  .debug_str:0000000000010150 .LASF2465
C:\Users\CYMR90~1\AppData\Local\Temp\ccaJ4oak.s:25435  .debug_str:00000000000112d8 .LASF2466
C:\Users\CYMR90~1\AppData\Local\Temp\ccaJ4oak.s:24529  .debug_str:000000000000daf6 .LASF2467
C:\Users\CYMR90~1\AppData\Local\Temp\ccaJ4oak.s:23527  .debug_str:000000000000991e .LASF2468
C:\Users\CYMR90~1\AppData\Local\Temp\ccaJ4oak.s:32026  .debug_str:000000000002b642 .LASF2469
C:\Users\CYMR90~1\AppData\Local\Temp\ccaJ4oak.s:24007  .debug_str:000000000000b928 .LASF2470
C:\Users\CYMR90~1\AppData\Local\Temp\ccaJ4oak.s:31366  .debug_str:0000000000028ead .LASF2471
C:\Users\CYMR90~1\AppData\Local\Temp\ccaJ4oak.s:30080  .debug_str:0000000000023a38 .LASF2472
C:\Users\CYMR90~1\AppData\Local\Temp\ccaJ4oak.s:26934  .debug_str:000000000001747e .LASF2473
C:\Users\CYMR90~1\AppData\Local\Temp\ccaJ4oak.s:26563  .debug_str:0000000000015ab1 .LASF2474
C:\Users\CYMR90~1\AppData\Local\Temp\ccaJ4oak.s:26695  .debug_str:0000000000016351 .LASF2475
C:\Users\CYMR90~1\AppData\Local\Temp\ccaJ4oak.s:31048  .debug_str:0000000000027944 .LASF2476
C:\Users\CYMR90~1\AppData\Local\Temp\ccaJ4oak.s:24387  .debug_str:000000000000d1d6 .LASF2477
C:\Users\CYMR90~1\AppData\Local\Temp\ccaJ4oak.s:28808  .debug_str:000000000001ecf0 .LASF2478
C:\Users\CYMR90~1\AppData\Local\Temp\ccaJ4oak.s:22933  .debug_str:00000000000072d5 .LASF2479
C:\Users\CYMR90~1\AppData\Local\Temp\ccaJ4oak.s:21359  .debug_str:0000000000001036 .LASF2480
C:\Users\CYMR90~1\AppData\Local\Temp\ccaJ4oak.s:27798  .debug_str:000000000001ad09 .LASF2481
C:\Users\CYMR90~1\AppData\Local\Temp\ccaJ4oak.s:23787  .debug_str:000000000000aa5c .LASF2482
C:\Users\CYMR90~1\AppData\Local\Temp\ccaJ4oak.s:26675  .debug_str:000000000001621b .LASF2483
C:\Users\CYMR90~1\AppData\Local\Temp\ccaJ4oak.s:24111  .debug_str:000000000000c02d .LASF2484
C:\Users\CYMR90~1\AppData\Local\Temp\ccaJ4oak.s:24235  .debug_str:000000000000c802 .LASF2485
C:\Users\CYMR90~1\AppData\Local\Temp\ccaJ4oak.s:28188  .debug_str:000000000001c50f .LASF2486
C:\Users\CYMR90~1\AppData\Local\Temp\ccaJ4oak.s:22357  .debug_str:0000000000004f3f .LASF2487
C:\Users\CYMR90~1\AppData\Local\Temp\ccaJ4oak.s:28046  .debug_str:000000000001bc27 .LASF2488
C:\Users\CYMR90~1\AppData\Local\Temp\ccaJ4oak.s:26549  .debug_str:00000000000159e4 .LASF2489
C:\Users\CYMR90~1\AppData\Local\Temp\ccaJ4oak.s:31508  .debug_str:000000000002977d .LASF2490
C:\Users\CYMR90~1\AppData\Local\Temp\ccaJ4oak.s:29676  .debug_str:00000000000221ec .LASF2491
C:\Users\CYMR90~1\AppData\Local\Temp\ccaJ4oak.s:22327  .debug_str:0000000000004d8b .LASF2492
C:\Users\CYMR90~1\AppData\Local\Temp\ccaJ4oak.s:21373  .debug_str:0000000000001109 .LASF2493
C:\Users\CYMR90~1\AppData\Local\Temp\ccaJ4oak.s:31790  .debug_str:000000000002a835 .LASF2494
C:\Users\CYMR90~1\AppData\Local\Temp\ccaJ4oak.s:21315  .debug_str:0000000000000d4d .LASF2495
C:\Users\CYMR90~1\AppData\Local\Temp\ccaJ4oak.s:23053  .debug_str:0000000000007a65 .LASF2496
C:\Users\CYMR90~1\AppData\Local\Temp\ccaJ4oak.s:23525  .debug_str:00000000000098fe .LASF2497
C:\Users\CYMR90~1\AppData\Local\Temp\ccaJ4oak.s:25815  .debug_str:0000000000012c1a .LASF2498
C:\Users\CYMR90~1\AppData\Local\Temp\ccaJ4oak.s:23581  .debug_str:0000000000009ce4 .LASF2499
C:\Users\CYMR90~1\AppData\Local\Temp\ccaJ4oak.s:22107  .debug_str:0000000000003e77 .LASF2500
C:\Users\CYMR90~1\AppData\Local\Temp\ccaJ4oak.s:28058  .debug_str:000000000001bd1b .LASF2501
C:\Users\CYMR90~1\AppData\Local\Temp\ccaJ4oak.s:21543  .debug_str:0000000000001ba3 .LASF2502
C:\Users\CYMR90~1\AppData\Local\Temp\ccaJ4oak.s:28758  .debug_str:000000000001ea40 .LASF2503
C:\Users\CYMR90~1\AppData\Local\Temp\ccaJ4oak.s:32372  .debug_str:000000000002cd4b .LASF2504
C:\Users\CYMR90~1\AppData\Local\Temp\ccaJ4oak.s:21553  .debug_str:0000000000001c5d .LASF2505
C:\Users\CYMR90~1\AppData\Local\Temp\ccaJ4oak.s:26063  .debug_str:0000000000013c39 .LASF2506
C:\Users\CYMR90~1\AppData\Local\Temp\ccaJ4oak.s:29654  .debug_str:0000000000022090 .LASF2507
C:\Users\CYMR90~1\AppData\Local\Temp\ccaJ4oak.s:32142  .debug_str:000000000002bdf3 .LASF2508
C:\Users\CYMR90~1\AppData\Local\Temp\ccaJ4oak.s:25491  .debug_str:0000000000011664 .LASF2509
C:\Users\CYMR90~1\AppData\Local\Temp\ccaJ4oak.s:24833  .debug_str:000000000000ed88 .LASF2510
C:\Users\CYMR90~1\AppData\Local\Temp\ccaJ4oak.s:28312  .debug_str:000000000001cd4b .LASF2511
C:\Users\CYMR90~1\AppData\Local\Temp\ccaJ4oak.s:27582  .debug_str:0000000000019e06 .LASF2512
C:\Users\CYMR90~1\AppData\Local\Temp\ccaJ4oak.s:22373  .debug_str:0000000000005040 .LASF2513
C:\Users\CYMR90~1\AppData\Local\Temp\ccaJ4oak.s:22287  .debug_str:0000000000004b1c .LASF2514
C:\Users\CYMR90~1\AppData\Local\Temp\ccaJ4oak.s:32406  .debug_str:000000000002cfae .LASF2515
C:\Users\CYMR90~1\AppData\Local\Temp\ccaJ4oak.s:28928  .debug_str:000000000001f474 .LASF2516
C:\Users\CYMR90~1\AppData\Local\Temp\ccaJ4oak.s:23209  .debug_str:0000000000008591 .LASF2517
C:\Users\CYMR90~1\AppData\Local\Temp\ccaJ4oak.s:23197  .debug_str:00000000000084f0 .LASF2518
C:\Users\CYMR90~1\AppData\Local\Temp\ccaJ4oak.s:30570  .debug_str:0000000000025bc0 .LASF2519
C:\Users\CYMR90~1\AppData\Local\Temp\ccaJ4oak.s:25449  .debug_str:00000000000113c7 .LASF2520
C:\Users\CYMR90~1\AppData\Local\Temp\ccaJ4oak.s:26693  .debug_str:000000000001632d .LASF2521
C:\Users\CYMR90~1\AppData\Local\Temp\ccaJ4oak.s:28004  .debug_str:000000000001ba14 .LASF2522
C:\Users\CYMR90~1\AppData\Local\Temp\ccaJ4oak.s:31306  .debug_str:0000000000028b75 .LASF2523
C:\Users\CYMR90~1\AppData\Local\Temp\ccaJ4oak.s:29530  .debug_str:0000000000021931 .LASF2524
C:\Users\CYMR90~1\AppData\Local\Temp\ccaJ4oak.s:28554  .debug_str:000000000001dd77 .LASF2525
C:\Users\CYMR90~1\AppData\Local\Temp\ccaJ4oak.s:27558  .debug_str:0000000000019cba .LASF2526
C:\Users\CYMR90~1\AppData\Local\Temp\ccaJ4oak.s:26651  .debug_str:0000000000016086 .LASF2527
C:\Users\CYMR90~1\AppData\Local\Temp\ccaJ4oak.s:25715  .debug_str:000000000001257a .LASF2528
C:\Users\CYMR90~1\AppData\Local\Temp\ccaJ4oak.s:23793  .debug_str:000000000000aaa3 .LASF2529
C:\Users\CYMR90~1\AppData\Local\Temp\ccaJ4oak.s:26477  .debug_str:00000000000155d4 .LASF2530
C:\Users\CYMR90~1\AppData\Local\Temp\ccaJ4oak.s:22209  .debug_str:000000000000457b .LASF2531
C:\Users\CYMR90~1\AppData\Local\Temp\ccaJ4oak.s:21913  .debug_str:000000000000321a .LASF2532
C:\Users\CYMR90~1\AppData\Local\Temp\ccaJ4oak.s:23453  .debug_str:0000000000009488 .LASF2533
C:\Users\CYMR90~1\AppData\Local\Temp\ccaJ4oak.s:21311  .debug_str:0000000000000d16 .LASF2534
C:\Users\CYMR90~1\AppData\Local\Temp\ccaJ4oak.s:24621  .debug_str:000000000000e07e .LASF2535
C:\Users\CYMR90~1\AppData\Local\Temp\ccaJ4oak.s:23267  .debug_str:0000000000008907 .LASF2536
C:\Users\CYMR90~1\AppData\Local\Temp\ccaJ4oak.s:21603  .debug_str:0000000000001f4f .LASF2537
C:\Users\CYMR90~1\AppData\Local\Temp\ccaJ4oak.s:24073  .debug_str:000000000000bd46 .LASF2538
C:\Users\CYMR90~1\AppData\Local\Temp\ccaJ4oak.s:21413  .debug_str:000000000000133b .LASF2539
C:\Users\CYMR90~1\AppData\Local\Temp\ccaJ4oak.s:27682  .debug_str:000000000001a57d .LASF2540
C:\Users\CYMR90~1\AppData\Local\Temp\ccaJ4oak.s:27470  .debug_str:0000000000019688 .LASF2541
C:\Users\CYMR90~1\AppData\Local\Temp\ccaJ4oak.s:25987  .debug_str:0000000000013795 .LASF2542
C:\Users\CYMR90~1\AppData\Local\Temp\ccaJ4oak.s:31208  .debug_str:00000000000284c9 .LASF2543
C:\Users\CYMR90~1\AppData\Local\Temp\ccaJ4oak.s:23651  .debug_str:000000000000a12c .LASF2544
C:\Users\CYMR90~1\AppData\Local\Temp\ccaJ4oak.s:27728  .debug_str:000000000001a810 .LASF2545
C:\Users\CYMR90~1\AppData\Local\Temp\ccaJ4oak.s:28360  .debug_str:000000000001d168 .LASF2546
C:\Users\CYMR90~1\AppData\Local\Temp\ccaJ4oak.s:26870  .debug_str:00000000000170c3 .LASF2547
C:\Users\CYMR90~1\AppData\Local\Temp\ccaJ4oak.s:30798  .debug_str:00000000000269c7 .LASF2548
C:\Users\CYMR90~1\AppData\Local\Temp\ccaJ4oak.s:25931  .debug_str:0000000000013350 .LASF2549
C:\Users\CYMR90~1\AppData\Local\Temp\ccaJ4oak.s:28608  .debug_str:000000000001e139 .LASF2550
C:\Users\CYMR90~1\AppData\Local\Temp\ccaJ4oak.s:21667  .debug_str:00000000000022b7 .LASF2551
C:\Users\CYMR90~1\AppData\Local\Temp\ccaJ4oak.s:26507  .debug_str:000000000001574c .LASF2552
C:\Users\CYMR90~1\AppData\Local\Temp\ccaJ4oak.s:21299  .debug_str:0000000000000c75 .LASF2553
C:\Users\CYMR90~1\AppData\Local\Temp\ccaJ4oak.s:28460  .debug_str:000000000001d807 .LASF2554
C:\Users\CYMR90~1\AppData\Local\Temp\ccaJ4oak.s:29024  .debug_str:000000000001fa28 .LASF2555
C:\Users\CYMR90~1\AppData\Local\Temp\ccaJ4oak.s:30376  .debug_str:0000000000024d89 .LASF2556
C:\Users\CYMR90~1\AppData\Local\Temp\ccaJ4oak.s:22479  .debug_str:000000000000569a .LASF2557
C:\Users\CYMR90~1\AppData\Local\Temp\ccaJ4oak.s:22067  .debug_str:0000000000003bc4 .LASF2558
C:\Users\CYMR90~1\AppData\Local\Temp\ccaJ4oak.s:26191  .debug_str:0000000000014411 .LASF2559
C:\Users\CYMR90~1\AppData\Local\Temp\ccaJ4oak.s:24147  .debug_str:000000000000c293 .LASF2560
C:\Users\CYMR90~1\AppData\Local\Temp\ccaJ4oak.s:28916  .debug_str:000000000001f3b9 .LASF2561
C:\Users\CYMR90~1\AppData\Local\Temp\ccaJ4oak.s:24705  .debug_str:000000000000e56e .LASF2562
C:\Users\CYMR90~1\AppData\Local\Temp\ccaJ4oak.s:28730  .debug_str:000000000001e868 .LASF2563
C:\Users\CYMR90~1\AppData\Local\Temp\ccaJ4oak.s:32356  .debug_str:000000000002cc75 .LASF2564
C:\Users\CYMR90~1\AppData\Local\Temp\ccaJ4oak.s:22595  .debug_str:0000000000005d88 .LASF2565
C:\Users\CYMR90~1\AppData\Local\Temp\ccaJ4oak.s:27712  .debug_str:000000000001a705 .LASF2566
C:\Users\CYMR90~1\AppData\Local\Temp\ccaJ4oak.s:23867  .debug_str:000000000000af4e .LASF2567
C:\Users\CYMR90~1\AppData\Local\Temp\ccaJ4oak.s:30506  .debug_str:00000000000256e5 .LASF2568
C:\Users\CYMR90~1\AppData\Local\Temp\ccaJ4oak.s:21861  .debug_str:0000000000002ee4 .LASF2569
C:\Users\CYMR90~1\AppData\Local\Temp\ccaJ4oak.s:32234  .debug_str:000000000002c454 .LASF2570
C:\Users\CYMR90~1\AppData\Local\Temp\ccaJ4oak.s:21449  .debug_str:0000000000001555 .LASF2571
C:\Users\CYMR90~1\AppData\Local\Temp\ccaJ4oak.s:21219  .debug_str:0000000000000726 .LASF2572
C:\Users\CYMR90~1\AppData\Local\Temp\ccaJ4oak.s:29692  .debug_str:00000000000222ec .LASF2573
C:\Users\CYMR90~1\AppData\Local\Temp\ccaJ4oak.s:26085  .debug_str:0000000000013d8e .LASF2574
C:\Users\CYMR90~1\AppData\Local\Temp\ccaJ4oak.s:25879  .debug_str:000000000001301d .LASF2575
C:\Users\CYMR90~1\AppData\Local\Temp\ccaJ4oak.s:28724  .debug_str:000000000001e7fd .LASF2576
C:\Users\CYMR90~1\AppData\Local\Temp\ccaJ4oak.s:23997  .debug_str:000000000000b863 .LASF2577
C:\Users\CYMR90~1\AppData\Local\Temp\ccaJ4oak.s:22869  .debug_str:0000000000006e78 .LASF2578
C:\Users\CYMR90~1\AppData\Local\Temp\ccaJ4oak.s:29020  .debug_str:000000000001f9d8 .LASF2579
C:\Users\CYMR90~1\AppData\Local\Temp\ccaJ4oak.s:31566  .debug_str:0000000000029ac5 .LASF2580
C:\Users\CYMR90~1\AppData\Local\Temp\ccaJ4oak.s:27020  .debug_str:00000000000179b8 .LASF2581
C:\Users\CYMR90~1\AppData\Local\Temp\ccaJ4oak.s:28374  .debug_str:000000000001d244 .LASF2582
C:\Users\CYMR90~1\AppData\Local\Temp\ccaJ4oak.s:26253  .debug_str:00000000000147ed .LASF2583
C:\Users\CYMR90~1\AppData\Local\Temp\ccaJ4oak.s:24531  .debug_str:000000000000db19 .LASF2584
C:\Users\CYMR90~1\AppData\Local\Temp\ccaJ4oak.s:27892  .debug_str:000000000001b318 .LASF2585
C:\Users\CYMR90~1\AppData\Local\Temp\ccaJ4oak.s:31946  .debug_str:000000000002b129 .LASF2586
C:\Users\CYMR90~1\AppData\Local\Temp\ccaJ4oak.s:22385  .debug_str:00000000000050f0 .LASF2587
C:\Users\CYMR90~1\AppData\Local\Temp\ccaJ4oak.s:23025  .debug_str:0000000000007898 .LASF2588
C:\Users\CYMR90~1\AppData\Local\Temp\ccaJ4oak.s:31380  .debug_str:0000000000028fb0 .LASF2589
C:\Users\CYMR90~1\AppData\Local\Temp\ccaJ4oak.s:27394  .debug_str:00000000000191fc .LASF2590
C:\Users\CYMR90~1\AppData\Local\Temp\ccaJ4oak.s:30446  .debug_str:00000000000251f2 .LASF2591
C:\Users\CYMR90~1\AppData\Local\Temp\ccaJ4oak.s:24377  .debug_str:000000000000d13a .LASF2592
C:\Users\CYMR90~1\AppData\Local\Temp\ccaJ4oak.s:29586  .debug_str:0000000000021c9b .LASF2593
C:\Users\CYMR90~1\AppData\Local\Temp\ccaJ4oak.s:29844  .debug_str:0000000000022bb2 .LASF2594
C:\Users\CYMR90~1\AppData\Local\Temp\ccaJ4oak.s:28258  .debug_str:000000000001c9f9 .LASF2595
C:\Users\CYMR90~1\AppData\Local\Temp\ccaJ4oak.s:22049  .debug_str:0000000000003ac6 .LASF2596
C:\Users\CYMR90~1\AppData\Local\Temp\ccaJ4oak.s:27346  .debug_str:0000000000018df5 .LASF2597
C:\Users\CYMR90~1\AppData\Local\Temp\ccaJ4oak.s:21231  .debug_str:00000000000007fc .LASF2598
C:\Users\CYMR90~1\AppData\Local\Temp\ccaJ4oak.s:29116  .debug_str:0000000000020016 .LASF2599
C:\Users\CYMR90~1\AppData\Local\Temp\ccaJ4oak.s:31296  .debug_str:0000000000028ab4 .LASF2600
C:\Users\CYMR90~1\AppData\Local\Temp\ccaJ4oak.s:23165  .debug_str:00000000000082a9 .LASF2601
C:\Users\CYMR90~1\AppData\Local\Temp\ccaJ4oak.s:21189  .debug_str:000000000000054b .LASF2602
C:\Users\CYMR90~1\AppData\Local\Temp\ccaJ4oak.s:29582  .debug_str:0000000000021c5f .LASF2603
C:\Users\CYMR90~1\AppData\Local\Temp\ccaJ4oak.s:21361  .debug_str:0000000000001048 .LASF2604
C:\Users\CYMR90~1\AppData\Local\Temp\ccaJ4oak.s:24633  .debug_str:000000000000e12d .LASF2605
C:\Users\CYMR90~1\AppData\Local\Temp\ccaJ4oak.s:27858  .debug_str:000000000001b106 .LASF2606
C:\Users\CYMR90~1\AppData\Local\Temp\ccaJ4oak.s:31052  .debug_str:0000000000027989 .LASF2607
C:\Users\CYMR90~1\AppData\Local\Temp\ccaJ4oak.s:22911  .debug_str:0000000000007148 .LASF2608
C:\Users\CYMR90~1\AppData\Local\Temp\ccaJ4oak.s:26141  .debug_str:00000000000140ce .LASF2609
C:\Users\CYMR90~1\AppData\Local\Temp\ccaJ4oak.s:22591  .debug_str:0000000000005d5b .LASF2610
C:\Users\CYMR90~1\AppData\Local\Temp\ccaJ4oak.s:27342  .debug_str:0000000000018dcd .LASF2611
C:\Users\CYMR90~1\AppData\Local\Temp\ccaJ4oak.s:32072  .debug_str:000000000002b982 .LASF2612
C:\Users\CYMR90~1\AppData\Local\Temp\ccaJ4oak.s:25427  .debug_str:000000000001125f .LASF2613
C:\Users\CYMR90~1\AppData\Local\Temp\ccaJ4oak.s:30118  .debug_str:0000000000023c70 .LASF2614
C:\Users\CYMR90~1\AppData\Local\Temp\ccaJ4oak.s:23503  .debug_str:00000000000097bf .LASF2615
C:\Users\CYMR90~1\AppData\Local\Temp\ccaJ4oak.s:23879  .debug_str:000000000000b0d7 .LASF2616
C:\Users\CYMR90~1\AppData\Local\Temp\ccaJ4oak.s:24539  .debug_str:000000000000dba9 .LASF2617
C:\Users\CYMR90~1\AppData\Local\Temp\ccaJ4oak.s:29838  .debug_str:0000000000022b4c .LASF2618
C:\Users\CYMR90~1\AppData\Local\Temp\ccaJ4oak.s:27072  .debug_str:0000000000017cec .LASF2619
C:\Users\CYMR90~1\AppData\Local\Temp\ccaJ4oak.s:22305  .debug_str:0000000000004c26 .LASF2620
C:\Users\CYMR90~1\AppData\Local\Temp\ccaJ4oak.s:23747  .debug_str:000000000000a705 .LASF2621
C:\Users\CYMR90~1\AppData\Local\Temp\ccaJ4oak.s:28944  .debug_str:000000000001f571 .LASF2622
C:\Users\CYMR90~1\AppData\Local\Temp\ccaJ4oak.s:22883  .debug_str:0000000000006f83 .LASF2623
C:\Users\CYMR90~1\AppData\Local\Temp\ccaJ4oak.s:28062  .debug_str:000000000001bd68 .LASF2624
C:\Users\CYMR90~1\AppData\Local\Temp\ccaJ4oak.s:24233  .debug_str:000000000000c7e6 .LASF2625
C:\Users\CYMR90~1\AppData\Local\Temp\ccaJ4oak.s:23981  .debug_str:000000000000b732 .LASF2626
C:\Users\CYMR90~1\AppData\Local\Temp\ccaJ4oak.s:29186  .debug_str:000000000002041c .LASF2627
C:\Users\CYMR90~1\AppData\Local\Temp\ccaJ4oak.s:23119  .debug_str:0000000000007f21 .LASF2628
C:\Users\CYMR90~1\AppData\Local\Temp\ccaJ4oak.s:28280  .debug_str:000000000001cb2f .LASF2629
C:\Users\CYMR90~1\AppData\Local\Temp\ccaJ4oak.s:22169  .debug_str:00000000000042fb .LASF2630
C:\Users\CYMR90~1\AppData\Local\Temp\ccaJ4oak.s:30094  .debug_str:0000000000023b18 .LASF2631
C:\Users\CYMR90~1\AppData\Local\Temp\ccaJ4oak.s:27374  .debug_str:0000000000018fe5 .LASF2632
C:\Users\CYMR90~1\AppData\Local\Temp\ccaJ4oak.s:21629  .debug_str:00000000000020bd .LASF2633
C:\Users\CYMR90~1\AppData\Local\Temp\ccaJ4oak.s:21981  .debug_str:000000000000368f .LASF2634
C:\Users\CYMR90~1\AppData\Local\Temp\ccaJ4oak.s:30574  .debug_str:0000000000025c03 .LASF2635
C:\Users\CYMR90~1\AppData\Local\Temp\ccaJ4oak.s:27916  .debug_str:000000000001b4af .LASF2636
C:\Users\CYMR90~1\AppData\Local\Temp\ccaJ4oak.s:27060  .debug_str:0000000000017c4d .LASF2637
C:\Users\CYMR90~1\AppData\Local\Temp\ccaJ4oak.s:32262  .debug_str:000000000002c65f .LASF2638
C:\Users\CYMR90~1\AppData\Local\Temp\ccaJ4oak.s:26139  .debug_str:00000000000140b4 .LASF2639
C:\Users\CYMR90~1\AppData\Local\Temp\ccaJ4oak.s:31404  .debug_str:000000000002910e .LASF2640
C:\Users\CYMR90~1\AppData\Local\Temp\ccaJ4oak.s:25237  .debug_str:0000000000010642 .LASF2641
C:\Users\CYMR90~1\AppData\Local\Temp\ccaJ4oak.s:27814  .debug_str:000000000001adf8 .LASF2642
C:\Users\CYMR90~1\AppData\Local\Temp\ccaJ4oak.s:21661  .debug_str:000000000000226c .LASF2643
C:\Users\CYMR90~1\AppData\Local\Temp\ccaJ4oak.s:26862  .debug_str:0000000000017054 .LASF2644
C:\Users\CYMR90~1\AppData\Local\Temp\ccaJ4oak.s:26173  .debug_str:0000000000014306 .LASF2645
C:\Users\CYMR90~1\AppData\Local\Temp\ccaJ4oak.s:25943  .debug_str:000000000001344c .LASF2646
C:\Users\CYMR90~1\AppData\Local\Temp\ccaJ4oak.s:24837  .debug_str:000000000000edb9 .LASF2647
C:\Users\CYMR90~1\AppData\Local\Temp\ccaJ4oak.s:31948  .debug_str:000000000002b141 .LASF2648
C:\Users\CYMR90~1\AppData\Local\Temp\ccaJ4oak.s:23819  .debug_str:000000000000ac2e .LASF2649
C:\Users\CYMR90~1\AppData\Local\Temp\ccaJ4oak.s:27018  .debug_str:000000000001799f .LASF2650
C:\Users\CYMR90~1\AppData\Local\Temp\ccaJ4oak.s:30250  .debug_str:000000000002454f .LASF2651
C:\Users\CYMR90~1\AppData\Local\Temp\ccaJ4oak.s:22089  .debug_str:0000000000003d62 .LASF2652
C:\Users\CYMR90~1\AppData\Local\Temp\ccaJ4oak.s:25361  .debug_str:0000000000010edb .LASF2653
C:\Users\CYMR90~1\AppData\Local\Temp\ccaJ4oak.s:28532  .debug_str:000000000001dc34 .LASF2654
C:\Users\CYMR90~1\AppData\Local\Temp\ccaJ4oak.s:31700  .debug_str:000000000002a295 .LASF2655
C:\Users\CYMR90~1\AppData\Local\Temp\ccaJ4oak.s:23577  .debug_str:0000000000009caf .LASF2656
C:\Users\CYMR90~1\AppData\Local\Temp\ccaJ4oak.s:26789  .debug_str:000000000001692f .LASF2657
C:\Users\CYMR90~1\AppData\Local\Temp\ccaJ4oak.s:28762  .debug_str:000000000001ea7d .LASF2658
C:\Users\CYMR90~1\AppData\Local\Temp\ccaJ4oak.s:22149  .debug_str:0000000000004123 .LASF2659
C:\Users\CYMR90~1\AppData\Local\Temp\ccaJ4oak.s:26894  .debug_str:000000000001721d .LASF2660
C:\Users\CYMR90~1\AppData\Local\Temp\ccaJ4oak.s:31612  .debug_str:0000000000029d9e .LASF2661
C:\Users\CYMR90~1\AppData\Local\Temp\ccaJ4oak.s:25007  .debug_str:000000000000f78d .LASF2662
C:\Users\CYMR90~1\AppData\Local\Temp\ccaJ4oak.s:29670  .debug_str:00000000000221a2 .LASF2663
C:\Users\CYMR90~1\AppData\Local\Temp\ccaJ4oak.s:23039  .debug_str:000000000000798f .LASF2664
C:\Users\CYMR90~1\AppData\Local\Temp\ccaJ4oak.s:26267  .debug_str:00000000000148c8 .LASF2665
C:\Users\CYMR90~1\AppData\Local\Temp\ccaJ4oak.s:29374  .debug_str:0000000000020f92 .LASF2666
C:\Users\CYMR90~1\AppData\Local\Temp\ccaJ4oak.s:21263  .debug_str:00000000000009de .LASF2667
C:\Users\CYMR90~1\AppData\Local\Temp\ccaJ4oak.s:24517  .debug_str:000000000000da55 .LASF2668
C:\Users\CYMR90~1\AppData\Local\Temp\ccaJ4oak.s:27746  .debug_str:000000000001a9c7 .LASF2669
C:\Users\CYMR90~1\AppData\Local\Temp\ccaJ4oak.s:30936  .debug_str:0000000000027211 .LASF2670
C:\Users\CYMR90~1\AppData\Local\Temp\ccaJ4oak.s:22803  .debug_str:0000000000006a5a .LASF2671
C:\Users\CYMR90~1\AppData\Local\Temp\ccaJ4oak.s:26039  .debug_str:0000000000013add .LASF2672
C:\Users\CYMR90~1\AppData\Local\Temp\ccaJ4oak.s:29232  .debug_str:0000000000020764 .LASF2673
C:\Users\CYMR90~1\AppData\Local\Temp\ccaJ4oak.s:26577  .debug_str:0000000000015b7d .LASF2674
C:\Users\CYMR90~1\AppData\Local\Temp\ccaJ4oak.s:31310  .debug_str:0000000000028ba7 .LASF2675
C:\Users\CYMR90~1\AppData\Local\Temp\ccaJ4oak.s:24689  .debug_str:000000000000e496 .LASF2676
C:\Users\CYMR90~1\AppData\Local\Temp\ccaJ4oak.s:22743  .debug_str:00000000000066a2 .LASF2677
C:\Users\CYMR90~1\AppData\Local\Temp\ccaJ4oak.s:27482  .debug_str:0000000000019734 .LASF2678
C:\Users\CYMR90~1\AppData\Local\Temp\ccaJ4oak.s:25997  .debug_str:0000000000013851 .LASF2679
C:\Users\CYMR90~1\AppData\Local\Temp\ccaJ4oak.s:29176  .debug_str:0000000000020353 .LASF2680
C:\Users\CYMR90~1\AppData\Local\Temp\ccaJ4oak.s:32448  .debug_str:000000000002d240 .LASF2681
C:\Users\CYMR90~1\AppData\Local\Temp\ccaJ4oak.s:28152  .debug_str:000000000001c317 .LASF2682
C:\Users\CYMR90~1\AppData\Local\Temp\ccaJ4oak.s:30230  .debug_str:00000000000243e6 .LASF2683
C:\Users\CYMR90~1\AppData\Local\Temp\ccaJ4oak.s:30648  .debug_str:0000000000026070 .LASF2684
C:\Users\CYMR90~1\AppData\Local\Temp\ccaJ4oak.s:24525  .debug_str:000000000000dabc .LASF2685
C:\Users\CYMR90~1\AppData\Local\Temp\ccaJ4oak.s:25771  .debug_str:000000000001290a .LASF2686
C:\Users\CYMR90~1\AppData\Local\Temp\ccaJ4oak.s:28918  .debug_str:000000000001f3de .LASF2687
C:\Users\CYMR90~1\AppData\Local\Temp\ccaJ4oak.s:32212  .debug_str:000000000002c2e1 .LASF2688
C:\Users\CYMR90~1\AppData\Local\Temp\ccaJ4oak.s:29672  .debug_str:00000000000221bd .LASF2689
C:\Users\CYMR90~1\AppData\Local\Temp\ccaJ4oak.s:31674  .debug_str:000000000002a12b .LASF2690
C:\Users\CYMR90~1\AppData\Local\Temp\ccaJ4oak.s:22063  .debug_str:0000000000003b8b .LASF2691
C:\Users\CYMR90~1\AppData\Local\Temp\ccaJ4oak.s:26811  .debug_str:0000000000016aed .LASF2692
C:\Users\CYMR90~1\AppData\Local\Temp\ccaJ4oak.s:31532  .debug_str:000000000002990e .LASF2693
C:\Users\CYMR90~1\AppData\Local\Temp\ccaJ4oak.s:24923  .debug_str:000000000000f263 .LASF2694
C:\Users\CYMR90~1\AppData\Local\Temp\ccaJ4oak.s:26779  .debug_str:00000000000168aa .LASF2695
C:\Users\CYMR90~1\AppData\Local\Temp\ccaJ4oak.s:31498  .debug_str:00000000000296a3 .LASF2696
C:\Users\CYMR90~1\AppData\Local\Temp\ccaJ4oak.s:24897  .debug_str:000000000000f0df .LASF2697
C:\Users\CYMR90~1\AppData\Local\Temp\ccaJ4oak.s:29560  .debug_str:0000000000021adc .LASF2698
C:\Users\CYMR90~1\AppData\Local\Temp\ccaJ4oak.s:26049  .debug_str:0000000000013b74 .LASF2699
C:\Users\CYMR90~1\AppData\Local\Temp\ccaJ4oak.s:21569  .debug_str:0000000000001d3e .LASF2700
C:\Users\CYMR90~1\AppData\Local\Temp\ccaJ4oak.s:26309  .debug_str:0000000000014b2a .LASF2701
C:\Users\CYMR90~1\AppData\Local\Temp\ccaJ4oak.s:31032  .debug_str:000000000002784d .LASF2702
C:\Users\CYMR90~1\AppData\Local\Temp\ccaJ4oak.s:24417  .debug_str:000000000000d418 .LASF2703
C:\Users\CYMR90~1\AppData\Local\Temp\ccaJ4oak.s:29078  .debug_str:000000000001fd76 .LASF2704
C:\Users\CYMR90~1\AppData\Local\Temp\ccaJ4oak.s:24045  .debug_str:000000000000bbb1 .LASF2705
C:\Users\CYMR90~1\AppData\Local\Temp\ccaJ4oak.s:28710  .debug_str:000000000001e6f9 .LASF2706
C:\Users\CYMR90~1\AppData\Local\Temp\ccaJ4oak.s:22079  .debug_str:0000000000003c97 .LASF2707
C:\Users\CYMR90~1\AppData\Local\Temp\ccaJ4oak.s:26827  .debug_str:0000000000016c78 .LASF2708
C:\Users\CYMR90~1\AppData\Local\Temp\ccaJ4oak.s:23419  .debug_str:0000000000009288 .LASF2709
C:\Users\CYMR90~1\AppData\Local\Temp\ccaJ4oak.s:30200  .debug_str:0000000000024140 .LASF2710
C:\Users\CYMR90~1\AppData\Local\Temp\ccaJ4oak.s:21579  .debug_str:0000000000001ddc .LASF2711
C:\Users\CYMR90~1\AppData\Local\Temp\ccaJ4oak.s:24859  .debug_str:000000000000eed2 .LASF2712
C:\Users\CYMR90~1\AppData\Local\Temp\ccaJ4oak.s:30990  .debug_str:0000000000027602 .LASF2713
C:\Users\CYMR90~1\AppData\Local\Temp\ccaJ4oak.s:31284  .debug_str:0000000000028a15 .LASF2714
C:\Users\CYMR90~1\AppData\Local\Temp\ccaJ4oak.s:23047  .debug_str:00000000000079fe .LASF2715
C:\Users\CYMR90~1\AppData\Local\Temp\ccaJ4oak.s:26275  .debug_str:0000000000014931 .LASF2716
C:\Users\CYMR90~1\AppData\Local\Temp\ccaJ4oak.s:23587  .debug_str:0000000000009d2b .LASF2717
C:\Users\CYMR90~1\AppData\Local\Temp\ccaJ4oak.s:21349  .debug_str:0000000000000fac .LASF2718
C:\Users\CYMR90~1\AppData\Local\Temp\ccaJ4oak.s:24617  .debug_str:000000000000e052 .LASF2719
C:\Users\CYMR90~1\AppData\Local\Temp\ccaJ4oak.s:23143  .debug_str:00000000000080c6 .LASF2720
C:\Users\CYMR90~1\AppData\Local\Temp\ccaJ4oak.s:27122  .debug_str:000000000001800b .LASF2721
C:\Users\CYMR90~1\AppData\Local\Temp\ccaJ4oak.s:31858  .debug_str:000000000002ac31 .LASF2722
C:\Users\CYMR90~1\AppData\Local\Temp\ccaJ4oak.s:25235  .debug_str:000000000001062b .LASF2723
C:\Users\CYMR90~1\AppData\Local\Temp\ccaJ4oak.s:29918  .debug_str:0000000000023061 .LASF2724
C:\Users\CYMR90~1\AppData\Local\Temp\ccaJ4oak.s:30540  .debug_str:0000000000025972 .LASF2725
C:\Users\CYMR90~1\AppData\Local\Temp\ccaJ4oak.s:28014  .debug_str:000000000001ba7c .LASF2726
C:\Users\CYMR90~1\AppData\Local\Temp\ccaJ4oak.s:25413  .debug_str:0000000000011181 .LASF2727
C:\Users\CYMR90~1\AppData\Local\Temp\ccaJ4oak.s:31724  .debug_str:000000000002a3c7 .LASF2728
C:\Users\CYMR90~1\AppData\Local\Temp\ccaJ4oak.s:22831  .debug_str:0000000000006c05 .LASF2729
C:\Users\CYMR90~1\AppData\Local\Temp\ccaJ4oak.s:23241  .debug_str:000000000000876f .LASF2730
C:\Users\CYMR90~1\AppData\Local\Temp\ccaJ4oak.s:24211  .debug_str:000000000000c675 .LASF2731
C:\Users\CYMR90~1\AppData\Local\Temp\ccaJ4oak.s:31742  .debug_str:000000000002a4fa .LASF2732
C:\Users\CYMR90~1\AppData\Local\Temp\ccaJ4oak.s:21991  .debug_str:0000000000003717 .LASF2733
C:\Users\CYMR90~1\AppData\Local\Temp\ccaJ4oak.s:26960  .debug_str:00000000000175c2 .LASF2734
C:\Users\CYMR90~1\AppData\Local\Temp\ccaJ4oak.s:22363  .debug_str:0000000000004fab .LASF2735
C:\Users\CYMR90~1\AppData\Local\Temp\ccaJ4oak.s:25765  .debug_str:00000000000128a7 .LASF2736
C:\Users\CYMR90~1\AppData\Local\Temp\ccaJ4oak.s:22409  .debug_str:0000000000005257 .LASF2737
C:\Users\CYMR90~1\AppData\Local\Temp\ccaJ4oak.s:29242  .debug_str:00000000000207dc .LASF2738
C:\Users\CYMR90~1\AppData\Local\Temp\ccaJ4oak.s:26035  .debug_str:0000000000013aa1 .LASF2739
C:\Users\CYMR90~1\AppData\Local\Temp\ccaJ4oak.s:24827  .debug_str:000000000000ed1d .LASF2740
C:\Users\CYMR90~1\AppData\Local\Temp\ccaJ4oak.s:23871  .debug_str:000000000000afa3 .LASF2741
C:\Users\CYMR90~1\AppData\Local\Temp\ccaJ4oak.s:21411  .debug_str:000000000000131d .LASF2742
C:\Users\CYMR90~1\AppData\Local\Temp\ccaJ4oak.s:24245  .debug_str:000000000000c8a8 .LASF2743
C:\Users\CYMR90~1\AppData\Local\Temp\ccaJ4oak.s:26043  .debug_str:0000000000013b18 .LASF2744
C:\Users\CYMR90~1\AppData\Local\Temp\ccaJ4oak.s:29238  .debug_str:00000000000207b4 .LASF2745
C:\Users\CYMR90~1\AppData\Local\Temp\ccaJ4oak.s:21133  .debug_str:000000000000020a .LASF2746
C:\Users\CYMR90~1\AppData\Local\Temp\ccaJ4oak.s:24375  .debug_str:000000000000d127 .LASF2747
C:\Users\CYMR90~1\AppData\Local\Temp\ccaJ4oak.s:27586  .debug_str:0000000000019e5c .LASF2748
C:\Users\CYMR90~1\AppData\Local\Temp\ccaJ4oak.s:21327  .debug_str:0000000000000dfb .LASF2749
C:\Users\CYMR90~1\AppData\Local\Temp\ccaJ4oak.s:22557  .debug_str:0000000000005b31 .LASF2750
C:\Users\CYMR90~1\AppData\Local\Temp\ccaJ4oak.s:29400  .debug_str:00000000000210e0 .LASF2751
C:\Users\CYMR90~1\AppData\Local\Temp\ccaJ4oak.s:27822  .debug_str:000000000001ae7c .LASF2752
C:\Users\CYMR90~1\AppData\Local\Temp\ccaJ4oak.s:32270  .debug_str:000000000002c6e2 .LASF2753
C:\Users\CYMR90~1\AppData\Local\Temp\ccaJ4oak.s:21443  .debug_str:000000000000151f .LASF2754
C:\Users\CYMR90~1\AppData\Local\Temp\ccaJ4oak.s:26183  .debug_str:00000000000143a7 .LASF2755
C:\Users\CYMR90~1\AppData\Local\Temp\ccaJ4oak.s:30906  .debug_str:000000000002706b .LASF2756
C:\Users\CYMR90~1\AppData\Local\Temp\ccaJ4oak.s:31940  .debug_str:000000000002b0c7 .LASF2757
C:\Users\CYMR90~1\AppData\Local\Temp\ccaJ4oak.s:28154  .debug_str:000000000001c32c .LASF2758
C:\Users\CYMR90~1\AppData\Local\Temp\ccaJ4oak.s:24425  .debug_str:000000000000d470 .LASF2759
C:\Users\CYMR90~1\AppData\Local\Temp\ccaJ4oak.s:29706  .debug_str:00000000000223b4 .LASF2760
C:\Users\CYMR90~1\AppData\Local\Temp\ccaJ4oak.s:21561  .debug_str:0000000000001cca .LASF2761
C:\Users\CYMR90~1\AppData\Local\Temp\ccaJ4oak.s:24843  .debug_str:000000000000ee04 .LASF2762
C:\Users\CYMR90~1\AppData\Local\Temp\ccaJ4oak.s:28036  .debug_str:000000000001bba0 .LASF2763
C:\Users\CYMR90~1\AppData\Local\Temp\ccaJ4oak.s:31178  .debug_str:000000000002825b .LASF2764
C:\Users\CYMR90~1\AppData\Local\Temp\ccaJ4oak.s:24767  .debug_str:000000000000e966 .LASF2765
C:\Users\CYMR90~1\AppData\Local\Temp\ccaJ4oak.s:26261  .debug_str:0000000000014878 .LASF2766
C:\Users\CYMR90~1\AppData\Local\Temp\ccaJ4oak.s:26301  .debug_str:0000000000014ac6 .LASF2767
C:\Users\CYMR90~1\AppData\Local\Temp\ccaJ4oak.s:24697  .debug_str:000000000000e4f3 .LASF2768
C:\Users\CYMR90~1\AppData\Local\Temp\ccaJ4oak.s:24601  .debug_str:000000000000df59 .LASF2769
C:\Users\CYMR90~1\AppData\Local\Temp\ccaJ4oak.s:26835  .debug_str:0000000000016cf2 .LASF2770
C:\Users\CYMR90~1\AppData\Local\Temp\ccaJ4oak.s:29704  .debug_str:000000000002239f .LASF2771
C:\Users\CYMR90~1\AppData\Local\Temp\ccaJ4oak.s:24943  .debug_str:000000000000f3b3 .LASF2772
C:\Users\CYMR90~1\AppData\Local\Temp\ccaJ4oak.s:29608  .debug_str:0000000000021e16 .LASF2773
C:\Users\CYMR90~1\AppData\Local\Temp\ccaJ4oak.s:29776  .debug_str:00000000000227c0 .LASF2774
C:\Users\CYMR90~1\AppData\Local\Temp\ccaJ4oak.s:27738  .debug_str:000000000001a961 .LASF2775
C:\Users\CYMR90~1\AppData\Local\Temp\ccaJ4oak.s:26986  .debug_str:0000000000017763 .LASF2776
C:\Users\CYMR90~1\AppData\Local\Temp\ccaJ4oak.s:24709  .debug_str:000000000000e5ad .LASF2777
C:\Users\CYMR90~1\AppData\Local\Temp\ccaJ4oak.s:25889  .debug_str:00000000000130c5 .LASF2778
C:\Users\CYMR90~1\AppData\Local\Temp\ccaJ4oak.s:25855  .debug_str:0000000000012e84 .LASF2779
C:\Users\CYMR90~1\AppData\Local\Temp\ccaJ4oak.s:21907  .debug_str:00000000000031d4 .LASF2780
C:\Users\CYMR90~1\AppData\Local\Temp\ccaJ4oak.s:21789  .debug_str:0000000000002a6a .LASF2781
C:\Users\CYMR90~1\AppData\Local\Temp\ccaJ4oak.s:29362  .debug_str:0000000000020eec .LASF2782
C:\Users\CYMR90~1\AppData\Local\Temp\ccaJ4oak.s:30380  .debug_str:0000000000024dda .LASF2783
C:\Users\CYMR90~1\AppData\Local\Temp\ccaJ4oak.s:30046  .debug_str:000000000002381c .LASF2784
C:\Users\CYMR90~1\AppData\Local\Temp\ccaJ4oak.s:23933  .debug_str:000000000000b414 .LASF2785
C:\Users\CYMR90~1\AppData\Local\Temp\ccaJ4oak.s:27124  .debug_str:0000000000018022 .LASF2786
C:\Users\CYMR90~1\AppData\Local\Temp\ccaJ4oak.s:30358  .debug_str:0000000000024c61 .LASF2787
C:\Users\CYMR90~1\AppData\Local\Temp\ccaJ4oak.s:22201  .debug_str:00000000000044f9 .LASF2788
C:\Users\CYMR90~1\AppData\Local\Temp\ccaJ4oak.s:24289  .debug_str:000000000000cc08 .LASF2789
C:\Users\CYMR90~1\AppData\Local\Temp\ccaJ4oak.s:28552  .debug_str:000000000001dd65 .LASF2790
C:\Users\CYMR90~1\AppData\Local\Temp\ccaJ4oak.s:31810  .debug_str:000000000002a96e .LASF2791
C:\Users\CYMR90~1\AppData\Local\Temp\ccaJ4oak.s:23689  .debug_str:000000000000a38b .LASF2792
C:\Users\CYMR90~1\AppData\Local\Temp\ccaJ4oak.s:26900  .debug_str:000000000001727a .LASF2793
C:\Users\CYMR90~1\AppData\Local\Temp\ccaJ4oak.s:30114  .debug_str:0000000000023c3e .LASF2794
C:\Users\CYMR90~1\AppData\Local\Temp\ccaJ4oak.s:28284  .debug_str:000000000001cb65 .LASF2795
C:\Users\CYMR90~1\AppData\Local\Temp\ccaJ4oak.s:21627  .debug_str:00000000000020a9 .LASF2796
C:\Users\CYMR90~1\AppData\Local\Temp\ccaJ4oak.s:26365  .debug_str:0000000000014ee3 .LASF2797
C:\Users\CYMR90~1\AppData\Local\Temp\ccaJ4oak.s:31092  .debug_str:0000000000027c57 .LASF2798
C:\Users\CYMR90~1\AppData\Local\Temp\ccaJ4oak.s:23829  .debug_str:000000000000acdb .LASF2799
C:\Users\CYMR90~1\AppData\Local\Temp\ccaJ4oak.s:29142  .debug_str:00000000000201a1 .LASF2800
C:\Users\CYMR90~1\AppData\Local\Temp\ccaJ4oak.s:31766  .debug_str:000000000002a6cb .LASF2801
C:\Users\CYMR90~1\AppData\Local\Temp\ccaJ4oak.s:31976  .debug_str:000000000002b2eb .LASF2802
C:\Users\CYMR90~1\AppData\Local\Temp\ccaJ4oak.s:27774  .debug_str:000000000001ab69 .LASF2803
C:\Users\CYMR90~1\AppData\Local\Temp\ccaJ4oak.s:22947  .debug_str:00000000000073d4 .LASF2804
C:\Users\CYMR90~1\AppData\Local\Temp\ccaJ4oak.s:23249  .debug_str:00000000000087e7 .LASF2805
C:\Users\CYMR90~1\AppData\Local\Temp\ccaJ4oak.s:27184  .debug_str:0000000000018395 .LASF2806
C:\Users\CYMR90~1\AppData\Local\Temp\ccaJ4oak.s:32076  .debug_str:000000000002b9af .LASF2807
C:\Users\CYMR90~1\AppData\Local\Temp\ccaJ4oak.s:25623  .debug_str:0000000000011f85 .LASF2808
C:\Users\CYMR90~1\AppData\Local\Temp\ccaJ4oak.s:29380  .debug_str:0000000000020fe1 .LASF2809
C:\Users\CYMR90~1\AppData\Local\Temp\ccaJ4oak.s:22647  .debug_str:00000000000060dd .LASF2810
C:\Users\CYMR90~1\AppData\Local\Temp\ccaJ4oak.s:29388  .debug_str:000000000002104d .LASF2811
C:\Users\CYMR90~1\AppData\Local\Temp\ccaJ4oak.s:30786  .debug_str:0000000000026909 .LASF2812
C:\Users\CYMR90~1\AppData\Local\Temp\ccaJ4oak.s:32184  .debug_str:000000000002c10b .LASF2813
C:\Users\CYMR90~1\AppData\Local\Temp\ccaJ4oak.s:22159  .debug_str:0000000000004255 .LASF2814
C:\Users\CYMR90~1\AppData\Local\Temp\ccaJ4oak.s:25897  .debug_str:0000000000013153 .LASF2815
C:\Users\CYMR90~1\AppData\Local\Temp\ccaJ4oak.s:31288  .debug_str:0000000000028a43 .LASF2816
C:\Users\CYMR90~1\AppData\Local\Temp\ccaJ4oak.s:29206  .debug_str:0000000000020561 .LASF2817
C:\Users\CYMR90~1\AppData\Local\Temp\ccaJ4oak.s:28116  .debug_str:000000000001c0c7 .LASF2818
C:\Users\CYMR90~1\AppData\Local\Temp\ccaJ4oak.s:27680  .debug_str:000000000001a53f .LASF2819
C:\Users\CYMR90~1\AppData\Local\Temp\ccaJ4oak.s:27604  .debug_str:0000000000019f3b .LASF2820
C:\Users\CYMR90~1\AppData\Local\Temp\ccaJ4oak.s:29820  .debug_str:0000000000022a4c .LASF2821
C:\Users\CYMR90~1\AppData\Local\Temp\ccaJ4oak.s:28112  .debug_str:000000000001c09a .LASF2822
C:\Users\CYMR90~1\AppData\Local\Temp\ccaJ4oak.s:27246  .debug_str:0000000000018742 .LASF2823
C:\Users\CYMR90~1\AppData\Local\Temp\ccaJ4oak.s:28628  .debug_str:000000000001e24d .LASF2824
C:\Users\CYMR90~1\AppData\Local\Temp\ccaJ4oak.s:25833  .debug_str:0000000000012d18 .LASF2825
C:\Users\CYMR90~1\AppData\Local\Temp\ccaJ4oak.s:24563  .debug_str:000000000000dce5 .LASF2826
C:\Users\CYMR90~1\AppData\Local\Temp\ccaJ4oak.s:23683  .debug_str:000000000000a328 .LASF2827
C:\Users\CYMR90~1\AppData\Local\Temp\ccaJ4oak.s:22789  .debug_str:0000000000006988 .LASF2828
C:\Users\CYMR90~1\AppData\Local\Temp\ccaJ4oak.s:21911  .debug_str:000000000000320a .LASF2829
C:\Users\CYMR90~1\AppData\Local\Temp\ccaJ4oak.s:32422  .debug_str:000000000002d090 .LASF2830
C:\Users\CYMR90~1\AppData\Local\Temp\ccaJ4oak.s:26721  .debug_str:00000000000164d4 .LASF2831
C:\Users\CYMR90~1\AppData\Local\Temp\ccaJ4oak.s:30284  .debug_str:000000000002478b .LASF2832
C:\Users\CYMR90~1\AppData\Local\Temp\ccaJ4oak.s:22123  .debug_str:0000000000003fcd .LASF2833
C:\Users\CYMR90~1\AppData\Local\Temp\ccaJ4oak.s:25399  .debug_str:00000000000110b3 .LASF2834
C:\Users\CYMR90~1\AppData\Local\Temp\ccaJ4oak.s:28568  .debug_str:000000000001ded5 .LASF2835
C:\Users\CYMR90~1\AppData\Local\Temp\ccaJ4oak.s:31828  .debug_str:000000000002aa47 .LASF2836
C:\Users\CYMR90~1\AppData\Local\Temp\ccaJ4oak.s:23701  .debug_str:000000000000a474 .LASF2837
C:\Users\CYMR90~1\AppData\Local\Temp\ccaJ4oak.s:29900  .debug_str:0000000000022f5f .LASF2838
C:\Users\CYMR90~1\AppData\Local\Temp\ccaJ4oak.s:32376  .debug_str:000000000002cd95 .LASF2839
C:\Users\CYMR90~1\AppData\Local\Temp\ccaJ4oak.s:25651  .debug_str:0000000000012176 .LASF2840
C:\Users\CYMR90~1\AppData\Local\Temp\ccaJ4oak.s:26521  .debug_str:0000000000015826 .LASF2841
C:\Users\CYMR90~1\AppData\Local\Temp\ccaJ4oak.s:21711  .debug_str:0000000000002568 .LASF2842
C:\Users\CYMR90~1\AppData\Local\Temp\ccaJ4oak.s:28352  .debug_str:000000000001d0fe .LASF2843
C:\Users\CYMR90~1\AppData\Local\Temp\ccaJ4oak.s:27742  .debug_str:000000000001a98f .LASF2844
C:\Users\CYMR90~1\AppData\Local\Temp\ccaJ4oak.s:27780  .debug_str:000000000001abf4 .LASF2845
C:\Users\CYMR90~1\AppData\Local\Temp\ccaJ4oak.s:26747  .debug_str:000000000001660b .LASF2846
C:\Users\CYMR90~1\AppData\Local\Temp\ccaJ4oak.s:23999  .debug_str:000000000000b891 .LASF2847
C:\Users\CYMR90~1\AppData\Local\Temp\ccaJ4oak.s:26133  .debug_str:0000000000014067 .LASF2848
C:\Users\CYMR90~1\AppData\Local\Temp\ccaJ4oak.s:30704  .debug_str:00000000000263ef .LASF2849
C:\Users\CYMR90~1\AppData\Local\Temp\ccaJ4oak.s:27942  .debug_str:000000000001b641 .LASF2850
C:\Users\CYMR90~1\AppData\Local\Temp\ccaJ4oak.s:22629  .debug_str:0000000000005f88 .LASF2851
C:\Users\CYMR90~1\AppData\Local\Temp\ccaJ4oak.s:24561  .debug_str:000000000000dcc3 .LASF2852
C:\Users\CYMR90~1\AppData\Local\Temp\ccaJ4oak.s:26441  .debug_str:00000000000153cf .LASF2853
C:\Users\CYMR90~1\AppData\Local\Temp\ccaJ4oak.s:31068  .debug_str:0000000000027a9e .LASF2854
C:\Users\CYMR90~1\AppData\Local\Temp\ccaJ4oak.s:24127  .debug_str:000000000000c159 .LASF2855
C:\Users\CYMR90~1\AppData\Local\Temp\ccaJ4oak.s:24691  .debug_str:000000000000e4af .LASF2856
C:\Users\CYMR90~1\AppData\Local\Temp\ccaJ4oak.s:28672  .debug_str:000000000001e4d1 .LASF2857
C:\Users\CYMR90~1\AppData\Local\Temp\ccaJ4oak.s:22383  .debug_str:00000000000050da .LASF2858
C:\Users\CYMR90~1\AppData\Local\Temp\ccaJ4oak.s:31934  .debug_str:000000000002b06e .LASF2859
C:\Users\CYMR90~1\AppData\Local\Temp\ccaJ4oak.s:30130  .debug_str:0000000000023d30 .LASF2860
C:\Users\CYMR90~1\AppData\Local\Temp\ccaJ4oak.s:30938  .debug_str:0000000000027228 .LASF2861
C:\Users\CYMR90~1\AppData\Local\Temp\ccaJ4oak.s:29352  .debug_str:0000000000020e66 .LASF2862
C:\Users\CYMR90~1\AppData\Local\Temp\ccaJ4oak.s:32452  .debug_str:000000000002d274 .LASF2863
C:\Users\CYMR90~1\AppData\Local\Temp\ccaJ4oak.s:21883  .debug_str:0000000000003046 .LASF2864
C:\Users\CYMR90~1\AppData\Local\Temp\ccaJ4oak.s:21605  .debug_str:0000000000001f71 .LASF2865
C:\Users\CYMR90~1\AppData\Local\Temp\ccaJ4oak.s:28700  .debug_str:000000000001e68d .LASF2866
C:\Users\CYMR90~1\AppData\Local\Temp\ccaJ4oak.s:21859  .debug_str:0000000000002ecd .LASF2867
C:\Users\CYMR90~1\AppData\Local\Temp\ccaJ4oak.s:21153  .debug_str:0000000000000347 .LASF2868
C:\Users\CYMR90~1\AppData\Local\Temp\ccaJ4oak.s:32230  .debug_str:000000000002c3df .LASF2869
C:\Users\CYMR90~1\AppData\Local\Temp\ccaJ4oak.s:30844  .debug_str:0000000000026c6d .LASF2870
C:\Users\CYMR90~1\AppData\Local\Temp\ccaJ4oak.s:22613  .debug_str:0000000000005ea8 .LASF2871
C:\Users\CYMR90~1\AppData\Local\Temp\ccaJ4oak.s:31906  .debug_str:000000000002af02 .LASF2872
C:\Users\CYMR90~1\AppData\Local\Temp\ccaJ4oak.s:28270  .debug_str:000000000001caa4 .LASF2873
C:\Users\CYMR90~1\AppData\Local\Temp\ccaJ4oak.s:29256  .debug_str:00000000000208d8 .LASF2874
C:\Users\CYMR90~1\AppData\Local\Temp\ccaJ4oak.s:25067  .debug_str:000000000000fb9f .LASF2875
C:\Users\CYMR90~1\AppData\Local\Temp\ccaJ4oak.s:24197  .debug_str:000000000000c596 .LASF2876
C:\Users\CYMR90~1\AppData\Local\Temp\ccaJ4oak.s:28002  .debug_str:000000000001b9f8 .LASF2877
C:\Users\CYMR90~1\AppData\Local\Temp\ccaJ4oak.s:31248  .debug_str:000000000002876c .LASF2878
C:\Users\CYMR90~1\AppData\Local\Temp\ccaJ4oak.s:29664  .debug_str:000000000002212d .LASF2879
C:\Users\CYMR90~1\AppData\Local\Temp\ccaJ4oak.s:27992  .debug_str:000000000001b954 .LASF2880
C:\Users\CYMR90~1\AppData\Local\Temp\ccaJ4oak.s:22211  .debug_str:0000000000004597 .LASF2881
C:\Users\CYMR90~1\AppData\Local\Temp\ccaJ4oak.s:28316  .debug_str:000000000001cd7d .LASF2882
C:\Users\CYMR90~1\AppData\Local\Temp\ccaJ4oak.s:31496  .debug_str:0000000000029682 .LASF2883
C:\Users\CYMR90~1\AppData\Local\Temp\ccaJ4oak.s:23097  .debug_str:0000000000007d26 .LASF2884
C:\Users\CYMR90~1\AppData\Local\Temp\ccaJ4oak.s:28450  .debug_str:000000000001d6ed .LASF2885
C:\Users\CYMR90~1\AppData\Local\Temp\ccaJ4oak.s:24501  .debug_str:000000000000d98e .LASF2886
C:\Users\CYMR90~1\AppData\Local\Temp\ccaJ4oak.s:31998  .debug_str:000000000002b466 .LASF2887
C:\Users\CYMR90~1\AppData\Local\Temp\ccaJ4oak.s:27118  .debug_str:0000000000017fb9 .LASF2888
C:\Users\CYMR90~1\AppData\Local\Temp\ccaJ4oak.s:22077  .debug_str:0000000000003c74 .LASF2889
C:\Users\CYMR90~1\AppData\Local\Temp\ccaJ4oak.s:32040  .debug_str:000000000002b713 .LASF2890
C:\Users\CYMR90~1\AppData\Local\Temp\ccaJ4oak.s:24765  .debug_str:000000000000e944 .LASF2891
C:\Users\CYMR90~1\AppData\Local\Temp\ccaJ4oak.s:24887  .debug_str:000000000000f038 .LASF2892
C:\Users\CYMR90~1\AppData\Local\Temp\ccaJ4oak.s:26347  .debug_str:0000000000014d96 .LASF2893
C:\Users\CYMR90~1\AppData\Local\Temp\ccaJ4oak.s:26245  .debug_str:000000000001474b .LASF2894
C:\Users\CYMR90~1\AppData\Local\Temp\ccaJ4oak.s:24911  .debug_str:000000000000f1a0 .LASF2895
C:\Users\CYMR90~1\AppData\Local\Temp\ccaJ4oak.s:24589  .debug_str:000000000000de6d .LASF2896
C:\Users\CYMR90~1\AppData\Local\Temp\ccaJ4oak.s:30064  .debug_str:000000000002395c .LASF2897
C:\Users\CYMR90~1\AppData\Local\Temp\ccaJ4oak.s:26932  .debug_str:0000000000017459 .LASF2898
C:\Users\CYMR90~1\AppData\Local\Temp\ccaJ4oak.s:26029  .debug_str:0000000000013a37 .LASF2899
C:\Users\CYMR90~1\AppData\Local\Temp\ccaJ4oak.s:23317  .debug_str:0000000000008c3b .LASF2900
C:\Users\CYMR90~1\AppData\Local\Temp\ccaJ4oak.s:31752  .debug_str:000000000002a5c0 .LASF2901
C:\Users\CYMR90~1\AppData\Local\Temp\ccaJ4oak.s:32220  .debug_str:000000000002c35e .LASF2902
C:\Users\CYMR90~1\AppData\Local\Temp\ccaJ4oak.s:26433  .debug_str:000000000001533f .LASF2903
C:\Users\CYMR90~1\AppData\Local\Temp\ccaJ4oak.s:22461  .debug_str:0000000000005571 .LASF2904
C:\Users\CYMR90~1\AppData\Local\Temp\ccaJ4oak.s:26617  .debug_str:0000000000015e39 .LASF2905
C:\Users\CYMR90~1\AppData\Local\Temp\ccaJ4oak.s:29800  .debug_str:0000000000022935 .LASF2906
C:\Users\CYMR90~1\AppData\Local\Temp\ccaJ4oak.s:25255  .debug_str:000000000001074c .LASF2907
C:\Users\CYMR90~1\AppData\Local\Temp\ccaJ4oak.s:23723  .debug_str:000000000000a5ca .LASF2908
C:\Users\CYMR90~1\AppData\Local\Temp\ccaJ4oak.s:21253  .debug_str:0000000000000943 .LASF2909
C:\Users\CYMR90~1\AppData\Local\Temp\ccaJ4oak.s:29250  .debug_str:0000000000020859 .LASF2910
C:\Users\CYMR90~1\AppData\Local\Temp\ccaJ4oak.s:32292  .debug_str:000000000002c7e2 .LASF2911
C:\Users\CYMR90~1\AppData\Local\Temp\ccaJ4oak.s:30194  .debug_str:00000000000240dc .LASF2912
C:\Users\CYMR90~1\AppData\Local\Temp\ccaJ4oak.s:29570  .debug_str:0000000000021ba0 .LASF2913
C:\Users\CYMR90~1\AppData\Local\Temp\ccaJ4oak.s:22417  .debug_str:00000000000052c6 .LASF2914
C:\Users\CYMR90~1\AppData\Local\Temp\ccaJ4oak.s:32428  .debug_str:000000000002d0de .LASF2915
C:\Users\CYMR90~1\AppData\Local\Temp\ccaJ4oak.s:24785  .debug_str:000000000000ea59 .LASF2916
C:\Users\CYMR90~1\AppData\Local\Temp\ccaJ4oak.s:28128  .debug_str:000000000001c177 .LASF2917
C:\Users\CYMR90~1\AppData\Local\Temp\ccaJ4oak.s:29826  .debug_str:0000000000022ac0 .LASF2918
C:\Users\CYMR90~1\AppData\Local\Temp\ccaJ4oak.s:30422  .debug_str:0000000000025091 .LASF2919
C:\Users\CYMR90~1\AppData\Local\Temp\ccaJ4oak.s:24499  .debug_str:000000000000d975 .LASF2920
C:\Users\CYMR90~1\AppData\Local\Temp\ccaJ4oak.s:29240  .debug_str:00000000000207c7 .LASF2921
C:\Users\CYMR90~1\AppData\Local\Temp\ccaJ4oak.s:31608  .debug_str:0000000000029d6d .LASF2922
C:\Users\CYMR90~1\AppData\Local\Temp\ccaJ4oak.s:24149  .debug_str:000000000000c2c1 .LASF2923
C:\Users\CYMR90~1\AppData\Local\Temp\ccaJ4oak.s:22931  .debug_str:00000000000072be .LASF2924
C:\Users\CYMR90~1\AppData\Local\Temp\ccaJ4oak.s:29412  .debug_str:0000000000021193 .LASF2925
C:\Users\CYMR90~1\AppData\Local\Temp\ccaJ4oak.s:25111  .debug_str:000000000000fe5e .LASF2926
C:\Users\CYMR90~1\AppData\Local\Temp\ccaJ4oak.s:21867  .debug_str:0000000000002f4f .LASF2927
C:\Users\CYMR90~1\AppData\Local\Temp\ccaJ4oak.s:24209  .debug_str:000000000000c661 .LASF2928
C:\Users\CYMR90~1\AppData\Local\Temp\ccaJ4oak.s:24715  .debug_str:000000000000e60f .LASF2929
C:\Users\CYMR90~1\AppData\Local\Temp\ccaJ4oak.s:32030  .debug_str:000000000002b687 .LASF2930
C:\Users\CYMR90~1\AppData\Local\Temp\ccaJ4oak.s:22901  .debug_str:000000000000707c .LASF2931
C:\Users\CYMR90~1\AppData\Local\Temp\ccaJ4oak.s:29138  .debug_str:0000000000020162 .LASF2932
C:\Users\CYMR90~1\AppData\Local\Temp\ccaJ4oak.s:25099  .debug_str:000000000000fd8b .LASF2933
C:\Users\CYMR90~1\AppData\Local\Temp\ccaJ4oak.s:26944  .debug_str:0000000000017519 .LASF2934
C:\Users\CYMR90~1\AppData\Local\Temp\ccaJ4oak.s:23539  .debug_str:0000000000009a29 .LASF2935
C:\Users\CYMR90~1\AppData\Local\Temp\ccaJ4oak.s:23643  .debug_str:000000000000a0b6 .LASF2936
C:\Users\CYMR90~1\AppData\Local\Temp\ccaJ4oak.s:24667  .debug_str:000000000000e336 .LASF2937
C:\Users\CYMR90~1\AppData\Local\Temp\ccaJ4oak.s:23757  .debug_str:000000000000a798 .LASF2938
C:\Users\CYMR90~1\AppData\Local\Temp\ccaJ4oak.s:30424  .debug_str:00000000000250a8 .LASF2939
C:\Users\CYMR90~1\AppData\Local\Temp\ccaJ4oak.s:24839  .debug_str:000000000000edd4 .LASF2940
C:\Users\CYMR90~1\AppData\Local\Temp\ccaJ4oak.s:25395  .debug_str:0000000000011074 .LASF2941
C:\Users\CYMR90~1\AppData\Local\Temp\ccaJ4oak.s:31172  .debug_str:00000000000281ef .LASF2942
C:\Users\CYMR90~1\AppData\Local\Temp\ccaJ4oak.s:23285  .debug_str:0000000000008a2e .LASF2943
C:\Users\CYMR90~1\AppData\Local\Temp\ccaJ4oak.s:27006  .debug_str:00000000000178c2 .LASF2944
C:\Users\CYMR90~1\AppData\Local\Temp\ccaJ4oak.s:31268  .debug_str:00000000000288eb .LASF2945
C:\Users\CYMR90~1\AppData\Local\Temp\ccaJ4oak.s:21141  .debug_str:000000000000025a .LASF2946
C:\Users\CYMR90~1\AppData\Local\Temp\ccaJ4oak.s:22131  .debug_str:000000000000404f .LASF2947
C:\Users\CYMR90~1\AppData\Local\Temp\ccaJ4oak.s:28178  .debug_str:000000000001c48b .LASF2948
C:\Users\CYMR90~1\AppData\Local\Temp\ccaJ4oak.s:27982  .debug_str:000000000001b8b8 .LASF2949
C:\Users\CYMR90~1\AppData\Local\Temp\ccaJ4oak.s:30438  .debug_str:000000000002517c .LASF2950
C:\Users\CYMR90~1\AppData\Local\Temp\ccaJ4oak.s:24505  .debug_str:000000000000d9d2 .LASF2951
C:\Users\CYMR90~1\AppData\Local\Temp\ccaJ4oak.s:27592  .debug_str:0000000000019ea8 .LASF2952
C:\Users\CYMR90~1\AppData\Local\Temp\ccaJ4oak.s:21383  .debug_str:00000000000011c8 .LASF2953
C:\Users\CYMR90~1\AppData\Local\Temp\ccaJ4oak.s:24885  .debug_str:000000000000f01e .LASF2954
C:\Users\CYMR90~1\AppData\Local\Temp\ccaJ4oak.s:28182  .debug_str:000000000001c4bf .LASF2955
C:\Users\CYMR90~1\AppData\Local\Temp\ccaJ4oak.s:31542  .debug_str:000000000002997c .LASF2956
C:\Users\CYMR90~1\AppData\Local\Temp\ccaJ4oak.s:21519  .debug_str:0000000000001a1c .LASF2957
C:\Users\CYMR90~1\AppData\Local\Temp\ccaJ4oak.s:23609  .debug_str:0000000000009e80 .LASF2958
C:\Users\CYMR90~1\AppData\Local\Temp\ccaJ4oak.s:30968  .debug_str:000000000002749d .LASF2959
C:\Users\CYMR90~1\AppData\Local\Temp\ccaJ4oak.s:23173  .debug_str:000000000000833e .LASF2960
C:\Users\CYMR90~1\AppData\Local\Temp\ccaJ4oak.s:24673  .debug_str:000000000000e3af .LASF2961
C:\Users\CYMR90~1\AppData\Local\Temp\ccaJ4oak.s:30198  .debug_str:0000000000024121 .LASF2962
C:\Users\CYMR90~1\AppData\Local\Temp\ccaJ4oak.s:27524  .debug_str:0000000000019a5e .LASF2963
C:\Users\CYMR90~1\AppData\Local\Temp\ccaJ4oak.s:23561  .debug_str:0000000000009ba6 .LASF2964
C:\Users\CYMR90~1\AppData\Local\Temp\ccaJ4oak.s:28926  .debug_str:000000000001f461 .LASF2965
C:\Users\CYMR90~1\AppData\Local\Temp\ccaJ4oak.s:23147  .debug_str:00000000000080ff .LASF2966
C:\Users\CYMR90~1\AppData\Local\Temp\ccaJ4oak.s:30498  .debug_str:0000000000025663 .LASF2967
C:\Users\CYMR90~1\AppData\Local\Temp\ccaJ4oak.s:30820  .debug_str:0000000000026b05 .LASF2968
C:\Users\CYMR90~1\AppData\Local\Temp\ccaJ4oak.s:25475  .debug_str:0000000000011522 .LASF2969
C:\Users\CYMR90~1\AppData\Local\Temp\ccaJ4oak.s:30334  .debug_str:0000000000024b27 .LASF2970
C:\Users\CYMR90~1\AppData\Local\Temp\ccaJ4oak.s:29390  .debug_str:000000000002106d .LASF2971
C:\Users\CYMR90~1\AppData\Local\Temp\ccaJ4oak.s:25365  .debug_str:0000000000010f09 .LASF2972
C:\Users\CYMR90~1\AppData\Local\Temp\ccaJ4oak.s:30912  .debug_str:00000000000270d3 .LASF2973
C:\Users\CYMR90~1\AppData\Local\Temp\ccaJ4oak.s:30068  .debug_str:0000000000023999 .LASF2974
C:\Users\CYMR90~1\AppData\Local\Temp\ccaJ4oak.s:26890  .debug_str:00000000000171f8 .LASF2975
C:\Users\CYMR90~1\AppData\Local\Temp\ccaJ4oak.s:26637  .debug_str:0000000000015fa8 .LASF2976
C:\Users\CYMR90~1\AppData\Local\Temp\ccaJ4oak.s:28882  .debug_str:000000000001f1b9 .LASF2977
C:\Users\CYMR90~1\AppData\Local\Temp\ccaJ4oak.s:25325  .debug_str:0000000000010c4f .LASF2978
C:\Users\CYMR90~1\AppData\Local\Temp\ccaJ4oak.s:25451  .debug_str:00000000000113eb .LASF2979
C:\Users\CYMR90~1\AppData\Local\Temp\ccaJ4oak.s:24855  .debug_str:000000000000eea1 .LASF2980
C:\Users\CYMR90~1\AppData\Local\Temp\ccaJ4oak.s:24989  .debug_str:000000000000f68a .LASF2981
C:\Users\CYMR90~1\AppData\Local\Temp\ccaJ4oak.s:28614  .debug_str:000000000001e1a3 .LASF2982
C:\Users\CYMR90~1\AppData\Local\Temp\ccaJ4oak.s:31286  .debug_str:0000000000028a2a .LASF2983
C:\Users\CYMR90~1\AppData\Local\Temp\ccaJ4oak.s:26759  .debug_str:0000000000016749 .LASF2984
C:\Users\CYMR90~1\AppData\Local\Temp\ccaJ4oak.s:30190  .debug_str:00000000000240ad .LASF2985
C:\Users\CYMR90~1\AppData\Local\Temp\ccaJ4oak.s:21665  .debug_str:000000000000229e .LASF2986
C:\Users\CYMR90~1\AppData\Local\Temp\ccaJ4oak.s:22923  .debug_str:0000000000007216 .LASF2987
C:\Users\CYMR90~1\AppData\Local\Temp\ccaJ4oak.s:30370  .debug_str:0000000000024d3a .LASF2988
C:\Users\CYMR90~1\AppData\Local\Temp\ccaJ4oak.s:23661  .debug_str:000000000000a1c6 .LASF2989
C:\Users\CYMR90~1\AppData\Local\Temp\ccaJ4oak.s:26137  .debug_str:000000000001409d .LASF2990
C:\Users\CYMR90~1\AppData\Local\Temp\ccaJ4oak.s:24815  .debug_str:000000000000ec44 .LASF2991
C:\Users\CYMR90~1\AppData\Local\Temp\ccaJ4oak.s:26487  .debug_str:0000000000015653 .LASF2992
C:\Users\CYMR90~1\AppData\Local\Temp\ccaJ4oak.s:29330  .debug_str:0000000000020d2b .LASF2993
C:\Users\CYMR90~1\AppData\Local\Temp\ccaJ4oak.s:27272  .debug_str:00000000000188c7 .LASF2994
C:\Users\CYMR90~1\AppData\Local\Temp\ccaJ4oak.s:29184  .debug_str:00000000000203c7 .LASF2995
C:\Users\CYMR90~1\AppData\Local\Temp\ccaJ4oak.s:31426  .debug_str:000000000002927f .LASF2996
C:\Users\CYMR90~1\AppData\Local\Temp\ccaJ4oak.s:29846  .debug_str:0000000000022bcd .LASF2997
C:\Users\CYMR90~1\AppData\Local\Temp\ccaJ4oak.s:24219  .debug_str:000000000000c6ea .LASF2998
C:\Users\CYMR90~1\AppData\Local\Temp\ccaJ4oak.s:32242  .debug_str:000000000002c506 .LASF2999
C:\Users\CYMR90~1\AppData\Local\Temp\ccaJ4oak.s:28974  .debug_str:000000000001f72a .LASF3000
C:\Users\CYMR90~1\AppData\Local\Temp\ccaJ4oak.s:30950  .debug_str:00000000000272d5 .LASF3001
C:\Users\CYMR90~1\AppData\Local\Temp\ccaJ4oak.s:30692  .debug_str:000000000002635f .LASF3002
C:\Users\CYMR90~1\AppData\Local\Temp\ccaJ4oak.s:24125  .debug_str:000000000000c131 .LASF3003
C:\Users\CYMR90~1\AppData\Local\Temp\ccaJ4oak.s:26533  .debug_str:00000000000158c7 .LASF3004
C:\Users\CYMR90~1\AppData\Local\Temp\ccaJ4oak.s:26435  .debug_str:000000000001536a .LASF3005
C:\Users\CYMR90~1\AppData\Local\Temp\ccaJ4oak.s:27334  .debug_str:0000000000018d63 .LASF3006
C:\Users\CYMR90~1\AppData\Local\Temp\ccaJ4oak.s:29010  .debug_str:000000000001f959 .LASF3007
C:\Users\CYMR90~1\AppData\Local\Temp\ccaJ4oak.s:29536  .debug_str:00000000000219a0 .LASF3008
C:\Users\CYMR90~1\AppData\Local\Temp\ccaJ4oak.s:32380  .debug_str:000000000002cdb9 .LASF3009
C:\Users\CYMR90~1\AppData\Local\Temp\ccaJ4oak.s:25047  .debug_str:000000000000fa7e .LASF3010
C:\Users\CYMR90~1\AppData\Local\Temp\ccaJ4oak.s:21881  .debug_str:000000000000301a .LASF3011
C:\Users\CYMR90~1\AppData\Local\Temp\ccaJ4oak.s:24903  .debug_str:000000000000f12f .LASF3012
C:\Users\CYMR90~1\AppData\Local\Temp\ccaJ4oak.s:29208  .debug_str:0000000000020586 .LASF3013
C:\Users\CYMR90~1\AppData\Local\Temp\ccaJ4oak.s:26509  .debug_str:0000000000015771 .LASF3014
C:\Users\CYMR90~1\AppData\Local\Temp\ccaJ4oak.s:22671  .debug_str:0000000000006263 .LASF3015
C:\Users\CYMR90~1\AppData\Local\Temp\ccaJ4oak.s:28124  .debug_str:000000000001c140 .LASF3016
C:\Users\CYMR90~1\AppData\Local\Temp\ccaJ4oak.s:27152  .debug_str:0000000000018195 .LASF3017
C:\Users\CYMR90~1\AppData\Local\Temp\ccaJ4oak.s:29044  .debug_str:000000000001fb89 .LASF3018
C:\Users\CYMR90~1\AppData\Local\Temp\ccaJ4oak.s:25327  .debug_str:0000000000010c67 .LASF3019
C:\Users\CYMR90~1\AppData\Local\Temp\ccaJ4oak.s:31218  .debug_str:0000000000028558 .LASF3020
C:\Users\CYMR90~1\AppData\Local\Temp\ccaJ4oak.s:23383  .debug_str:0000000000009075 .LASF3021
C:\Users\CYMR90~1\AppData\Local\Temp\ccaJ4oak.s:22469  .debug_str:000000000000560f .LASF3022
C:\Users\CYMR90~1\AppData\Local\Temp\ccaJ4oak.s:21501  .debug_str:0000000000001928 .LASF3023
C:\Users\CYMR90~1\AppData\Local\Temp\ccaJ4oak.s:26123  .debug_str:0000000000013fc0 .LASF3024
C:\Users\CYMR90~1\AppData\Local\Temp\ccaJ4oak.s:29482  .debug_str:0000000000021651 .LASF3025
C:\Users\CYMR90~1\AppData\Local\Temp\ccaJ4oak.s:28512  .debug_str:000000000001db0d .LASF3026
C:\Users\CYMR90~1\AppData\Local\Temp\ccaJ4oak.s:27672  .debug_str:000000000001a32c .LASF3027
C:\Users\CYMR90~1\AppData\Local\Temp\ccaJ4oak.s:26679  .debug_str:000000000001625a .LASF3028
C:\Users\CYMR90~1\AppData\Local\Temp\ccaJ4oak.s:25743  .debug_str:0000000000012734 .LASF3029
C:\Users\CYMR90~1\AppData\Local\Temp\ccaJ4oak.s:24777  .debug_str:000000000000e9e8 .LASF3030
C:\Users\CYMR90~1\AppData\Local\Temp\ccaJ4oak.s:24919  .debug_str:000000000000f217 .LASF3031
C:\Users\CYMR90~1\AppData\Local\Temp\ccaJ4oak.s:30904  .debug_str:000000000002703e .LASF3032
C:\Users\CYMR90~1\AppData\Local\Temp\ccaJ4oak.s:30688  .debug_str:0000000000026309 .LASF3033
C:\Users\CYMR90~1\AppData\Local\Temp\ccaJ4oak.s:25231  .debug_str:00000000000105dc .LASF3034
C:\Users\CYMR90~1\AppData\Local\Temp\ccaJ4oak.s:24081  .debug_str:000000000000bdcf .LASF3035
C:\Users\CYMR90~1\AppData\Local\Temp\ccaJ4oak.s:22977  .debug_str:00000000000075b9 .LASF3036
C:\Users\CYMR90~1\AppData\Local\Temp\ccaJ4oak.s:28344  .debug_str:000000000001cfe5 .LASF3037
C:\Users\CYMR90~1\AppData\Local\Temp\ccaJ4oak.s:29960  .debug_str:0000000000023287 .LASF3038
C:\Users\CYMR90~1\AppData\Local\Temp\ccaJ4oak.s:24255  .debug_str:000000000000c996 .LASF3039
C:\Users\CYMR90~1\AppData\Local\Temp\ccaJ4oak.s:22537  .debug_str:0000000000005a30 .LASF3040
C:\Users\CYMR90~1\AppData\Local\Temp\ccaJ4oak.s:22317  .debug_str:0000000000004ce4 .LASF3041
C:\Users\CYMR90~1\AppData\Local\Temp\ccaJ4oak.s:28260  .debug_str:000000000001ca14 .LASF3042
C:\Users\CYMR90~1\AppData\Local\Temp\ccaJ4oak.s:26775  .debug_str:0000000000016864 .LASF3043
C:\Users\CYMR90~1\AppData\Local\Temp\ccaJ4oak.s:21813  .debug_str:0000000000002c1a .LASF3044
C:\Users\CYMR90~1\AppData\Local\Temp\ccaJ4oak.s:32320  .debug_str:000000000002c9ef .LASF3045
C:\Users\CYMR90~1\AppData\Local\Temp\ccaJ4oak.s:31256  .debug_str:0000000000028804 .LASF3046
C:\Users\CYMR90~1\AppData\Local\Temp\ccaJ4oak.s:22283  .debug_str:0000000000004ace .LASF3047
C:\Users\CYMR90~1\AppData\Local\Temp\ccaJ4oak.s:28104  .debug_str:000000000001c013 .LASF3048
C:\Users\CYMR90~1\AppData\Local\Temp\ccaJ4oak.s:25331  .debug_str:0000000000010cac .LASF3049
C:\Users\CYMR90~1\AppData\Local\Temp\ccaJ4oak.s:28398  .debug_str:000000000001d3b6 .LASF3050
C:\Users\CYMR90~1\AppData\Local\Temp\ccaJ4oak.s:21193  .debug_str:0000000000000587 .LASF3051
C:\Users\CYMR90~1\AppData\Local\Temp\ccaJ4oak.s:25919  .debug_str:00000000000132a3 .LASF3052
C:\Users\CYMR90~1\AppData\Local\Temp\ccaJ4oak.s:30636  .debug_str:0000000000025fbc .LASF3053
C:\Users\CYMR90~1\AppData\Local\Temp\ccaJ4oak.s:25827  .debug_str:0000000000012cda .LASF3054
C:\Users\CYMR90~1\AppData\Local\Temp\ccaJ4oak.s:22695  .debug_str:00000000000063e1 .LASF3055
C:\Users\CYMR90~1\AppData\Local\Temp\ccaJ4oak.s:27116  .debug_str:0000000000017fa1 .LASF3056
C:\Users\CYMR90~1\AppData\Local\Temp\ccaJ4oak.s:25577  .debug_str:0000000000011cda .LASF3057
C:\Users\CYMR90~1\AppData\Local\Temp\ccaJ4oak.s:24121  .debug_str:000000000000c0ef .LASF3058
C:\Users\CYMR90~1\AppData\Local\Temp\ccaJ4oak.s:27968  .debug_str:000000000001b7c9 .LASF3059
C:\Users\CYMR90~1\AppData\Local\Temp\ccaJ4oak.s:24473  .debug_str:000000000000d810 .LASF3060
C:\Users\CYMR90~1\AppData\Local\Temp\ccaJ4oak.s:23449  .debug_str:0000000000009446 .LASF3061
C:\Users\CYMR90~1\AppData\Local\Temp\ccaJ4oak.s:30344  .debug_str:0000000000024b9c .LASF3062
C:\Users\CYMR90~1\AppData\Local\Temp\ccaJ4oak.s:25621  .debug_str:0000000000011f65 .LASF3063
C:\Users\CYMR90~1\AppData\Local\Temp\ccaJ4oak.s:29930  .debug_str:00000000000230ee .LASF3064
C:\Users\CYMR90~1\AppData\Local\Temp\ccaJ4oak.s:23783  .debug_str:000000000000aa38 .LASF3065
C:\Users\CYMR90~1\AppData\Local\Temp\ccaJ4oak.s:27538  .debug_str:0000000000019b6b .LASF3066
C:\Users\CYMR90~1\AppData\Local\Temp\ccaJ4oak.s:30868  .debug_str:0000000000026de3 .LASF3067
C:\Users\CYMR90~1\AppData\Local\Temp\ccaJ4oak.s:24503  .debug_str:000000000000d9ad .LASF3068
C:\Users\CYMR90~1\AppData\Local\Temp\ccaJ4oak.s:22587  .debug_str:0000000000005d25 .LASF3069
C:\Users\CYMR90~1\AppData\Local\Temp\ccaJ4oak.s:24107  .debug_str:000000000000bfdc .LASF3070
C:\Users\CYMR90~1\AppData\Local\Temp\ccaJ4oak.s:22885  .debug_str:0000000000006f9f .LASF3071
C:\Users\CYMR90~1\AppData\Local\Temp\ccaJ4oak.s:24803  .debug_str:000000000000ebad .LASF3072
C:\Users\CYMR90~1\AppData\Local\Temp\ccaJ4oak.s:21339  .debug_str:0000000000000f35 .LASF3073
C:\Users\CYMR90~1\AppData\Local\Temp\ccaJ4oak.s:32054  .debug_str:000000000002b827 .LASF3074
C:\Users\CYMR90~1\AppData\Local\Temp\ccaJ4oak.s:31650  .debug_str:0000000000029fc2 .LASF3075
C:\Users\CYMR90~1\AppData\Local\Temp\ccaJ4oak.s:29056  .debug_str:000000000001fc47 .LASF3076
C:\Users\CYMR90~1\AppData\Local\Temp\ccaJ4oak.s:30188  .debug_str:0000000000024095 .LASF3077
C:\Users\CYMR90~1\AppData\Local\Temp\ccaJ4oak.s:28632  .debug_str:000000000001e283 .LASF3078
C:\Users\CYMR90~1\AppData\Local\Temp\ccaJ4oak.s:29016  .debug_str:000000000001f9a3 .LASF3079
C:\Users\CYMR90~1\AppData\Local\Temp\ccaJ4oak.s:31008  .debug_str:0000000000027701 .LASF3080
C:\Users\CYMR90~1\AppData\Local\Temp\ccaJ4oak.s:26213  .debug_str:000000000001453a .LASF3081
C:\Users\CYMR90~1\AppData\Local\Temp\ccaJ4oak.s:26781  .debug_str:00000000000168bf .LASF3082
C:\Users\CYMR90~1\AppData\Local\Temp\ccaJ4oak.s:21597  .debug_str:0000000000001ef4 .LASF3083
C:\Users\CYMR90~1\AppData\Local\Temp\ccaJ4oak.s:29002  .debug_str:000000000001f8bb .LASF3084
C:\Users\CYMR90~1\AppData\Local\Temp\ccaJ4oak.s:28952  .debug_str:000000000001f5e2 .LASF3085
C:\Users\CYMR90~1\AppData\Local\Temp\ccaJ4oak.s:28076  .debug_str:000000000001be36 .LASF3086
C:\Users\CYMR90~1\AppData\Local\Temp\ccaJ4oak.s:21769  .debug_str:0000000000002950 .LASF3087
C:\Users\CYMR90~1\AppData\Local\Temp\ccaJ4oak.s:30504  .debug_str:00000000000256c6 .LASF3088
C:\Users\CYMR90~1\AppData\Local\Temp\ccaJ4oak.s:24389  .debug_str:000000000000d1e9 .LASF3089
C:\Users\CYMR90~1\AppData\Local\Temp\ccaJ4oak.s:22129  .debug_str:0000000000004029 .LASF3090
C:\Users\CYMR90~1\AppData\Local\Temp\ccaJ4oak.s:21863  .debug_str:0000000000002f04 .LASF3091
C:\Users\CYMR90~1\AppData\Local\Temp\ccaJ4oak.s:23281  .debug_str:00000000000089f4 .LASF3092
C:\Users\CYMR90~1\AppData\Local\Temp\ccaJ4oak.s:29744  .debug_str:00000000000225c0 .LASF3093
C:\Users\CYMR90~1\AppData\Local\Temp\ccaJ4oak.s:29768  .debug_str:0000000000022741 .LASF3094
C:\Users\CYMR90~1\AppData\Local\Temp\ccaJ4oak.s:23653  .debug_str:000000000000a153 .LASF3095
C:\Users\CYMR90~1\AppData\Local\Temp\ccaJ4oak.s:24595  .debug_str:000000000000debe .LASF3096
C:\Users\CYMR90~1\AppData\Local\Temp\ccaJ4oak.s:30940  .debug_str:000000000002723c .LASF3097
C:\Users\CYMR90~1\AppData\Local\Temp\ccaJ4oak.s:24637  .debug_str:000000000000e173 .LASF3098
C:\Users\CYMR90~1\AppData\Local\Temp\ccaJ4oak.s:30110  .debug_str:0000000000023bfb .LASF3099
C:\Users\CYMR90~1\AppData\Local\Temp\ccaJ4oak.s:27496  .debug_str:000000000001980b .LASF3100
C:\Users\CYMR90~1\AppData\Local\Temp\ccaJ4oak.s:24115  .debug_str:000000000000c060 .LASF3101
C:\Users\CYMR90~1\AppData\Local\Temp\ccaJ4oak.s:29212  .debug_str:00000000000205c8 .LASF3102
C:\Users\CYMR90~1\AppData\Local\Temp\ccaJ4oak.s:27048  .debug_str:0000000000017b87 .LASF3103
C:\Users\CYMR90~1\AppData\Local\Temp\ccaJ4oak.s:31250  .debug_str:0000000000028792 .LASF3104
C:\Users\CYMR90~1\AppData\Local\Temp\ccaJ4oak.s:28726  .debug_str:000000000001e82c .LASF3105
C:\Users\CYMR90~1\AppData\Local\Temp\ccaJ4oak.s:28050  .debug_str:000000000001bc53 .LASF3106
C:\Users\CYMR90~1\AppData\Local\Temp\ccaJ4oak.s:31128  .debug_str:0000000000027eca .LASF3107
C:\Users\CYMR90~1\AppData\Local\Temp\ccaJ4oak.s:21623  .debug_str:0000000000002078 .LASF3108
C:\Users\CYMR90~1\AppData\Local\Temp\ccaJ4oak.s:24829  .debug_str:000000000000ed3b .LASF3109
C:\Users\CYMR90~1\AppData\Local\Temp\ccaJ4oak.s:24873  .debug_str:000000000000ef77 .LASF3110
C:\Users\CYMR90~1\AppData\Local\Temp\ccaJ4oak.s:30774  .debug_str:0000000000026827 .LASF3111
C:\Users\CYMR90~1\AppData\Local\Temp\ccaJ4oak.s:31134  .debug_str:0000000000027f2d .LASF3112
C:\Users\CYMR90~1\AppData\Local\Temp\ccaJ4oak.s:27142  .debug_str:0000000000018113 .LASF3113
C:\Users\CYMR90~1\AppData\Local\Temp\ccaJ4oak.s:29878  .debug_str:0000000000022e22 .LASF3114
C:\Users\CYMR90~1\AppData\Local\Temp\ccaJ4oak.s:21457  .debug_str:00000000000015c3 .LASF3115
C:\Users\CYMR90~1\AppData\Local\Temp\ccaJ4oak.s:21761  .debug_str:00000000000028de .LASF3116
C:\Users\CYMR90~1\AppData\Local\Temp\ccaJ4oak.s:31728  .debug_str:000000000002a413 .LASF3117
C:\Users\CYMR90~1\AppData\Local\Temp\ccaJ4oak.s:22675  .debug_str:00000000000062cd .LASF3118
C:\Users\CYMR90~1\AppData\Local\Temp\ccaJ4oak.s:25923  .debug_str:00000000000132e5 .LASF3119
C:\Users\CYMR90~1\AppData\Local\Temp\ccaJ4oak.s:24463  .debug_str:000000000000d758 .LASF3120
C:\Users\CYMR90~1\AppData\Local\Temp\ccaJ4oak.s:29438  .debug_str:000000000002130b .LASF3121
C:\Users\CYMR90~1\AppData\Local\Temp\ccaJ4oak.s:27508  .debug_str:000000000001990d .LASF3122
C:\Users\CYMR90~1\AppData\Local\Temp\ccaJ4oak.s:23631  .debug_str:0000000000009fde .LASF3123
C:\Users\CYMR90~1\AppData\Local\Temp\ccaJ4oak.s:23387  .debug_str:00000000000090b2 .LASF3124
C:\Users\CYMR90~1\AppData\Local\Temp\ccaJ4oak.s:23983  .debug_str:000000000000b74f .LASF3125
C:\Users\CYMR90~1\AppData\Local\Temp\ccaJ4oak.s:22205  .debug_str:0000000000004531 .LASF3126
C:\Users\CYMR90~1\AppData\Local\Temp\ccaJ4oak.s:25349  .debug_str:0000000000010e42 .LASF3127
C:\Users\CYMR90~1\AppData\Local\Temp\ccaJ4oak.s:27032  .debug_str:0000000000017a9b .LASF3128
C:\Users\CYMR90~1\AppData\Local\Temp\ccaJ4oak.s:23257  .debug_str:0000000000008857 .LASF3129
C:\Users\CYMR90~1\AppData\Local\Temp\ccaJ4oak.s:24061  .debug_str:000000000000bc81 .LASF3130
C:\Users\CYMR90~1\AppData\Local\Temp\ccaJ4oak.s:24009  .debug_str:000000000000b93f .LASF3131
C:\Users\CYMR90~1\AppData\Local\Temp\ccaJ4oak.s:26936  .debug_str:0000000000017494 .LASF3132
C:\Users\CYMR90~1\AppData\Local\Temp\ccaJ4oak.s:30864  .debug_str:0000000000026daa .LASF3133
C:\Users\CYMR90~1\AppData\Local\Temp\ccaJ4oak.s:23731  .debug_str:000000000000a635 .LASF3134
C:\Users\CYMR90~1\AppData\Local\Temp\ccaJ4oak.s:21735  .debug_str:000000000000270e .LASF3135
C:\Users\CYMR90~1\AppData\Local\Temp\ccaJ4oak.s:28752  .debug_str:000000000001e9d5 .LASF3136
C:\Users\CYMR90~1\AppData\Local\Temp\ccaJ4oak.s:31900  .debug_str:000000000002aeb1 .LASF3137
C:\Users\CYMR90~1\AppData\Local\Temp\ccaJ4oak.s:27318  .debug_str:0000000000018bc4 .LASF3138
C:\Users\CYMR90~1\AppData\Local\Temp\ccaJ4oak.s:21531  .debug_str:0000000000001ae1 .LASF3139
C:\Users\CYMR90~1\AppData\Local\Temp\ccaJ4oak.s:32332  .debug_str:000000000002cad8 .LASF3140
C:\Users\CYMR90~1\AppData\Local\Temp\ccaJ4oak.s:26493  .debug_str:0000000000015687 .LASF3141
C:\Users\CYMR90~1\AppData\Local\Temp\ccaJ4oak.s:30290  .debug_str:0000000000024800 .LASF3142
C:\Users\CYMR90~1\AppData\Local\Temp\ccaJ4oak.s:23667  .debug_str:000000000000a227 .LASF3143
C:\Users\CYMR90~1\AppData\Local\Temp\ccaJ4oak.s:21555  .debug_str:0000000000001c7f .LASF3144
C:\Users\CYMR90~1\AppData\Local\Temp\ccaJ4oak.s:22701  .debug_str:000000000000644f .LASF3145
C:\Users\CYMR90~1\AppData\Local\Temp\ccaJ4oak.s:27928  .debug_str:000000000001b55d .LASF3146
C:\Users\CYMR90~1\AppData\Local\Temp\ccaJ4oak.s:22137  .debug_str:0000000000004098 .LASF3147
C:\Users\CYMR90~1\AppData\Local\Temp\ccaJ4oak.s:23393  .debug_str:0000000000009115 .LASF3148
C:\Users\CYMR90~1\AppData\Local\Temp\ccaJ4oak.s:22447  .debug_str:00000000000054b2 .LASF3149
C:\Users\CYMR90~1\AppData\Local\Temp\ccaJ4oak.s:23801  .debug_str:000000000000ab12 .LASF3150
C:\Users\CYMR90~1\AppData\Local\Temp\ccaJ4oak.s:24133  .debug_str:000000000000c1a1 .LASF3151
C:\Users\CYMR90~1\AppData\Local\Temp\ccaJ4oak.s:21779  .debug_str:00000000000029ef .LASF3152
C:\Users\CYMR90~1\AppData\Local\Temp\ccaJ4oak.s:29726  .debug_str:00000000000224c3 .LASF3153
C:\Users\CYMR90~1\AppData\Local\Temp\ccaJ4oak.s:26399  .debug_str:0000000000015136 .LASF3154
C:\Users\CYMR90~1\AppData\Local\Temp\ccaJ4oak.s:22973  .debug_str:0000000000007572 .LASF3155
C:\Users\CYMR90~1\AppData\Local\Temp\ccaJ4oak.s:27908  .debug_str:000000000001b42e .LASF3156
C:\Users\CYMR90~1\AppData\Local\Temp\ccaJ4oak.s:22585  .debug_str:0000000000005d06 .LASF3157
C:\Users\CYMR90~1\AppData\Local\Temp\ccaJ4oak.s:23483  .debug_str:000000000000969a .LASF3158
C:\Users\CYMR90~1\AppData\Local\Temp\ccaJ4oak.s:25763  .debug_str:000000000001288b .LASF3159
C:\Users\CYMR90~1\AppData\Local\Temp\ccaJ4oak.s:22683  .debug_str:0000000000006354 .LASF3160
C:\Users\CYMR90~1\AppData\Local\Temp\ccaJ4oak.s:31114  .debug_str:0000000000027db7 .LASF3161
C:\Users\CYMR90~1\AppData\Local\Temp\ccaJ4oak.s:27132  .debug_str:0000000000018087 .LASF3162
C:\Users\CYMR90~1\AppData\Local\Temp\ccaJ4oak.s:25977  .debug_str:00000000000136f4 .LASF3163
C:\Users\CYMR90~1\AppData\Local\Temp\ccaJ4oak.s:29742  .debug_str:00000000000225a7 .LASF3164
C:\Users\CYMR90~1\AppData\Local\Temp\ccaJ4oak.s:31552  .debug_str:00000000000299f1 .LASF3165
C:\Users\CYMR90~1\AppData\Local\Temp\ccaJ4oak.s:27768  .debug_str:000000000001ab16 .LASF3166
C:\Users\CYMR90~1\AppData\Local\Temp\ccaJ4oak.s:22843  .debug_str:0000000000006cdb .LASF3167
C:\Users\CYMR90~1\AppData\Local\Temp\ccaJ4oak.s:22453  .debug_str:00000000000054f6 .LASF3168
C:\Users\CYMR90~1\AppData\Local\Temp\ccaJ4oak.s:28670  .debug_str:000000000001e4b4 .LASF3169
C:\Users\CYMR90~1\AppData\Local\Temp\ccaJ4oak.s:24695  .debug_str:000000000000e4d5 .LASF3170
C:\Users\CYMR90~1\AppData\Local\Temp\ccaJ4oak.s:29948  .debug_str:00000000000231d6 .LASF3171
C:\Users\CYMR90~1\AppData\Local\Temp\ccaJ4oak.s:26988  .debug_str:000000000001779c .LASF3172
C:\Users\CYMR90~1\AppData\Local\Temp\ccaJ4oak.s:30408  .debug_str:0000000000024fae .LASF3173
C:\Users\CYMR90~1\AppData\Local\Temp\ccaJ4oak.s:29784  .debug_str:0000000000022830 .LASF3174
C:\Users\CYMR90~1\AppData\Local\Temp\ccaJ4oak.s:27044  .debug_str:0000000000017b5e .LASF3175
C:\Users\CYMR90~1\AppData\Local\Temp\ccaJ4oak.s:31988  .debug_str:000000000002b3b2 .LASF3176
C:\Users\CYMR90~1\AppData\Local\Temp\ccaJ4oak.s:32296  .debug_str:000000000002c83e .LASF3177
C:\Users\CYMR90~1\AppData\Local\Temp\ccaJ4oak.s:26031  .debug_str:0000000000013a66 .LASF3178
C:\Users\CYMR90~1\AppData\Local\Temp\ccaJ4oak.s:22083  .debug_str:0000000000003ce7 .LASF3179
C:\Users\CYMR90~1\AppData\Local\Temp\ccaJ4oak.s:24921  .debug_str:000000000000f246 .LASF3180
C:\Users\CYMR90~1\AppData\Local\Temp\ccaJ4oak.s:22053  .debug_str:0000000000003aff .LASF3181
C:\Users\CYMR90~1\AppData\Local\Temp\ccaJ4oak.s:25463  .debug_str:000000000001147f .LASF3182
C:\Users\CYMR90~1\AppData\Local\Temp\ccaJ4oak.s:25283  .debug_str:000000000001099a .LASF3183
C:\Users\CYMR90~1\AppData\Local\Temp\ccaJ4oak.s:22813  .debug_str:0000000000006aed .LASF3184
C:\Users\CYMR90~1\AppData\Local\Temp\ccaJ4oak.s:25671  .debug_str:00000000000122d3 .LASF3185
C:\Users\CYMR90~1\AppData\Local\Temp\ccaJ4oak.s:25329  .debug_str:0000000000010c8f .LASF3186
C:\Users\CYMR90~1\AppData\Local\Temp\ccaJ4oak.s:23057  .debug_str:0000000000007ab4 .LASF3187
C:\Users\CYMR90~1\AppData\Local\Temp\ccaJ4oak.s:23737  .debug_str:000000000000a67f .LASF3188
C:\Users\CYMR90~1\AppData\Local\Temp\ccaJ4oak.s:26157  .debug_str:0000000000014200 .LASF3189
C:\Users\CYMR90~1\AppData\Local\Temp\ccaJ4oak.s:28678  .debug_str:000000000001e523 .LASF3190
C:\Users\CYMR90~1\AppData\Local\Temp\ccaJ4oak.s:22245  .debug_str:00000000000047f7 .LASF3191
C:\Users\CYMR90~1\AppData\Local\Temp\ccaJ4oak.s:29210  .debug_str:00000000000205b2 .LASF3192
C:\Users\CYMR90~1\AppData\Local\Temp\ccaJ4oak.s:29580  .debug_str:0000000000021c44 .LASF3193
C:\Users\CYMR90~1\AppData\Local\Temp\ccaJ4oak.s:23541  .debug_str:0000000000009a45 .LASF3194
C:\Users\CYMR90~1\AppData\Local\Temp\ccaJ4oak.s:22889  .debug_str:0000000000006fd1 .LASF3195
C:\Users\CYMR90~1\AppData\Local\Temp\ccaJ4oak.s:23403  .debug_str:0000000000009183 .LASF3196
C:\Users\CYMR90~1\AppData\Local\Temp\ccaJ4oak.s:21841  .debug_str:0000000000002dcd .LASF3197
C:\Users\CYMR90~1\AppData\Local\Temp\ccaJ4oak.s:32146  .debug_str:000000000002be30 .LASF3198
C:\Users\CYMR90~1\AppData\Local\Temp\ccaJ4oak.s:22685  .debug_str:0000000000006372 .LASF3199
C:\Users\CYMR90~1\AppData\Local\Temp\ccaJ4oak.s:21227  .debug_str:00000000000007b7 .LASF3200
C:\Users\CYMR90~1\AppData\Local\Temp\ccaJ4oak.s:22251  .debug_str:0000000000004874 .LASF3201
C:\Users\CYMR90~1\AppData\Local\Temp\ccaJ4oak.s:29682  .debug_str:0000000000022243 .LASF3202
C:\Users\CYMR90~1\AppData\Local\Temp\ccaJ4oak.s:25753  .debug_str:00000000000127d9 .LASF3203
C:\Users\CYMR90~1\AppData\Local\Temp\ccaJ4oak.s:29298  .debug_str:0000000000020b25 .LASF3204
C:\Users\CYMR90~1\AppData\Local\Temp\ccaJ4oak.s:21163  .debug_str:00000000000003d9 .LASF3205
C:\Users\CYMR90~1\AppData\Local\Temp\ccaJ4oak.s:28890  .debug_str:000000000001f232 .LASF3206
C:\Users\CYMR90~1\AppData\Local\Temp\ccaJ4oak.s:27756  .debug_str:000000000001aa54 .LASF3207
C:\Users\CYMR90~1\AppData\Local\Temp\ccaJ4oak.s:28668  .debug_str:000000000001e494 .LASF3208
C:\Users\CYMR90~1\AppData\Local\Temp\ccaJ4oak.s:28252  .debug_str:000000000001c98b .LASF3209
C:\Users\CYMR90~1\AppData\Local\Temp\ccaJ4oak.s:27112  .debug_str:0000000000017f6b .LASF3210
C:\Users\CYMR90~1\AppData\Local\Temp\ccaJ4oak.s:25631  .debug_str:0000000000011fee .LASF3211
C:\Users\CYMR90~1\AppData\Local\Temp\ccaJ4oak.s:23623  .debug_str:0000000000009f4b .LASF3212
C:\Users\CYMR90~1\AppData\Local\Temp\ccaJ4oak.s:28542  .debug_str:000000000001dca8 .LASF3213
C:\Users\CYMR90~1\AppData\Local\Temp\ccaJ4oak.s:32246  .debug_str:000000000002c567 .LASF3214
C:\Users\CYMR90~1\AppData\Local\Temp\ccaJ4oak.s:27518  .debug_str:0000000000019a13 .LASF3215
C:\Users\CYMR90~1\AppData\Local\Temp\ccaJ4oak.s:27824  .debug_str:000000000001ae8f .LASF3216
C:\Users\CYMR90~1\AppData\Local\Temp\ccaJ4oak.s:30336  .debug_str:0000000000024b3a .LASF3217
C:\Users\CYMR90~1\AppData\Local\Temp\ccaJ4oak.s:22459  .debug_str:0000000000005559 .LASF3218
C:\Users\CYMR90~1\AppData\Local\Temp\ccaJ4oak.s:25511  .debug_str:00000000000117b5 .LASF3219
C:\Users\CYMR90~1\AppData\Local\Temp\ccaJ4oak.s:28496  .debug_str:000000000001da35 .LASF3220
C:\Users\CYMR90~1\AppData\Local\Temp\ccaJ4oak.s:24593  .debug_str:000000000000dea6 .LASF3221
C:\Users\CYMR90~1\AppData\Local\Temp\ccaJ4oak.s:31490  .debug_str:0000000000029628 .LASF3222
C:\Users\CYMR90~1\AppData\Local\Temp\ccaJ4oak.s:22985  .debug_str:0000000000007629 .LASF3223
C:\Users\CYMR90~1\AppData\Local\Temp\ccaJ4oak.s:31770  .debug_str:000000000002a6eb .LASF3224
C:\Users\CYMR90~1\AppData\Local\Temp\ccaJ4oak.s:30552  .debug_str:0000000000025a92 .LASF3225
C:\Users\CYMR90~1\AppData\Local\Temp\ccaJ4oak.s:22009  .debug_str:000000000000384f .LASF3226
C:\Users\CYMR90~1\AppData\Local\Temp\ccaJ4oak.s:25225  .debug_str:000000000001057e .LASF3227
C:\Users\CYMR90~1\AppData\Local\Temp\ccaJ4oak.s:31222  .debug_str:00000000000285a6 .LASF3228
C:\Users\CYMR90~1\AppData\Local\Temp\ccaJ4oak.s:25695  .debug_str:0000000000012440 .LASF3229
C:\Users\CYMR90~1\AppData\Local\Temp\ccaJ4oak.s:23797  .debug_str:000000000000aaea .LASF3230
C:\Users\CYMR90~1\AppData\Local\Temp\ccaJ4oak.s:32046  .debug_str:000000000002b793 .LASF3231
C:\Users\CYMR90~1\AppData\Local\Temp\ccaJ4oak.s:23885  .debug_str:000000000000b123 .LASF3232
C:\Users\CYMR90~1\AppData\Local\Temp\ccaJ4oak.s:27570  .debug_str:0000000000019d4c .LASF3233
C:\Users\CYMR90~1\AppData\Local\Temp\ccaJ4oak.s:31798  .debug_str:000000000002a8b4 .LASF3234
C:\Users\CYMR90~1\AppData\Local\Temp\ccaJ4oak.s:27312  .debug_str:0000000000018b3b .LASF3235
C:\Users\CYMR90~1\AppData\Local\Temp\ccaJ4oak.s:31836  .debug_str:000000000002aac5 .LASF3236
C:\Users\CYMR90~1\AppData\Local\Temp\ccaJ4oak.s:29404  .debug_str:000000000002110c .LASF3237
C:\Users\CYMR90~1\AppData\Local\Temp\ccaJ4oak.s:30792  .debug_str:0000000000026966 .LASF3238
C:\Users\CYMR90~1\AppData\Local\Temp\ccaJ4oak.s:24439  .debug_str:000000000000d5a9 .LASF3239
C:\Users\CYMR90~1\AppData\Local\Temp\ccaJ4oak.s:30176  .debug_str:0000000000023fe9 .LASF3240
C:\Users\CYMR90~1\AppData\Local\Temp\ccaJ4oak.s:26283  .debug_str:00000000000149b6 .LASF3241
C:\Users\CYMR90~1\AppData\Local\Temp\ccaJ4oak.s:25121  .debug_str:000000000000fef3 .LASF3242
C:\Users\CYMR90~1\AppData\Local\Temp\ccaJ4oak.s:28240  .debug_str:000000000001c821 .LASF3243
C:\Users\CYMR90~1\AppData\Local\Temp\ccaJ4oak.s:31054  .debug_str:000000000002799f .LASF3244
C:\Users\CYMR90~1\AppData\Local\Temp\ccaJ4oak.s:22033  .debug_str:00000000000039af .LASF3245
C:\Users\CYMR90~1\AppData\Local\Temp\ccaJ4oak.s:28474  .debug_str:000000000001d8a6 .LASF3246
C:\Users\CYMR90~1\AppData\Local\Temp\ccaJ4oak.s:31232  .debug_str:000000000002864a .LASF3247
C:\Users\CYMR90~1\AppData\Local\Temp\ccaJ4oak.s:30954  .debug_str:0000000000027319 .LASF3248
C:\Users\CYMR90~1\AppData\Local\Temp\ccaJ4oak.s:29656  .debug_str:00000000000220ad .LASF3249
C:\Users\CYMR90~1\AppData\Local\Temp\ccaJ4oak.s:26469  .debug_str:000000000001554b .LASF3250
C:\Users\CYMR90~1\AppData\Local\Temp\ccaJ4oak.s:23389  .debug_str:00000000000090d6 .LASF3251
C:\Users\CYMR90~1\AppData\Local\Temp\ccaJ4oak.s:28378  .debug_str:000000000001d294 .LASF3252
C:\Users\CYMR90~1\AppData\Local\Temp\ccaJ4oak.s:25849  .debug_str:0000000000012e27 .LASF3253
C:\Users\CYMR90~1\AppData\Local\Temp\ccaJ4oak.s:23863  .debug_str:000000000000aee9 .LASF3254
C:\Users\CYMR90~1\AppData\Local\Temp\ccaJ4oak.s:28310  .debug_str:000000000001cd24 .LASF3255
C:\Users\CYMR90~1\AppData\Local\Temp\ccaJ4oak.s:30428  .debug_str:00000000000250dd .LASF3256
C:\Users\CYMR90~1\AppData\Local\Temp\ccaJ4oak.s:22335  .debug_str:0000000000004df7 .LASF3257
C:\Users\CYMR90~1\AppData\Local\Temp\ccaJ4oak.s:31738  .debug_str:000000000002a4cd .LASF3258
C:\Users\CYMR90~1\AppData\Local\Temp\ccaJ4oak.s:30618  .debug_str:0000000000025e9a .LASF3259
C:\Users\CYMR90~1\AppData\Local\Temp\ccaJ4oak.s:27612  .debug_str:0000000000019fb3 .LASF3260
C:\Users\CYMR90~1\AppData\Local\Temp\ccaJ4oak.s:27618  .debug_str:000000000001a01d .LASF3261
C:\Users\CYMR90~1\AppData\Local\Temp\ccaJ4oak.s:30908  .debug_str:0000000000027080 .LASF3262
C:\Users\CYMR90~1\AppData\Local\Temp\ccaJ4oak.s:25731  .debug_str:0000000000012668 .LASF3263
C:\Users\CYMR90~1\AppData\Local\Temp\ccaJ4oak.s:31708  .debug_str:000000000002a308 .LASF3264
C:\Users\CYMR90~1\AppData\Local\Temp\ccaJ4oak.s:25445  .debug_str:000000000001137d .LASF3265
C:\Users\CYMR90~1\AppData\Local\Temp\ccaJ4oak.s:30984  .debug_str:0000000000027592 .LASF3266
C:\Users\CYMR90~1\AppData\Local\Temp\ccaJ4oak.s:22223  .debug_str:0000000000004656 .LASF3267
C:\Users\CYMR90~1\AppData\Local\Temp\ccaJ4oak.s:25319  .debug_str:0000000000010bca .LASF3268
C:\Users\CYMR90~1\AppData\Local\Temp\ccaJ4oak.s:28650  .debug_str:000000000001e375 .LASF3269
C:\Users\CYMR90~1\AppData\Local\Temp\ccaJ4oak.s:25655  .debug_str:00000000000121be .LASF3270
C:\Users\CYMR90~1\AppData\Local\Temp\ccaJ4oak.s:25075  .debug_str:000000000000fc18 .LASF3271
C:\Users\CYMR90~1\AppData\Local\Temp\ccaJ4oak.s:25847  .debug_str:0000000000012dee .LASF3272
C:\Users\CYMR90~1\AppData\Local\Temp\ccaJ4oak.s:29886  .debug_str:0000000000022e78 .LASF3273
C:\Users\CYMR90~1\AppData\Local\Temp\ccaJ4oak.s:26657  .debug_str:00000000000160fa .LASF3274
C:\Users\CYMR90~1\AppData\Local\Temp\ccaJ4oak.s:28222  .debug_str:000000000001c6e3 .LASF3275
C:\Users\CYMR90~1\AppData\Local\Temp\ccaJ4oak.s:24087  .debug_str:000000000000be37 .LASF3276
C:\Users\CYMR90~1\AppData\Local\Temp\ccaJ4oak.s:23089  .debug_str:0000000000007cb3 .LASF3277
C:\Users\CYMR90~1\AppData\Local\Temp\ccaJ4oak.s:22389  .debug_str:000000000000511b .LASF3278
C:\Users\CYMR90~1\AppData\Local\Temp\ccaJ4oak.s:25797  .debug_str:0000000000012acc .LASF3279
C:\Users\CYMR90~1\AppData\Local\Temp\ccaJ4oak.s:21381  .debug_str:0000000000001198 .LASF3280
C:\Users\CYMR90~1\AppData\Local\Temp\ccaJ4oak.s:21473  .debug_str:00000000000016aa .LASF3281
C:\Users\CYMR90~1\AppData\Local\Temp\ccaJ4oak.s:31182  .debug_str:0000000000028293 .LASF3282
C:\Users\CYMR90~1\AppData\Local\Temp\ccaJ4oak.s:27894  .debug_str:000000000001b330 .LASF3283
C:\Users\CYMR90~1\AppData\Local\Temp\ccaJ4oak.s:24353  .debug_str:000000000000cf91 .LASF3284
C:\Users\CYMR90~1\AppData\Local\Temp\ccaJ4oak.s:26243  .debug_str:0000000000014712 .LASF3285
C:\Users\CYMR90~1\AppData\Local\Temp\ccaJ4oak.s:27224  .debug_str:000000000001862b .LASF3286
C:\Users\CYMR90~1\AppData\Local\Temp\ccaJ4oak.s:25073  .debug_str:000000000000fbff .LASF3287
C:\Users\CYMR90~1\AppData\Local\Temp\ccaJ4oak.s:28704  .debug_str:000000000001e6c3 .LASF3288
C:\Users\CYMR90~1\AppData\Local\Temp\ccaJ4oak.s:24171  .debug_str:000000000000c40d .LASF3289
C:\Users\CYMR90~1\AppData\Local\Temp\ccaJ4oak.s:23735  .debug_str:000000000000a65c .LASF3290
C:\Users\CYMR90~1\AppData\Local\Temp\ccaJ4oak.s:26717  .debug_str:000000000001648d .LASF3291
C:\Users\CYMR90~1\AppData\Local\Temp\ccaJ4oak.s:27668  .debug_str:000000000001a2ea .LASF3292
C:\Users\CYMR90~1\AppData\Local\Temp\ccaJ4oak.s:28954  .debug_str:000000000001f601 .LASF3293
C:\Users\CYMR90~1\AppData\Local\Temp\ccaJ4oak.s:25149  .debug_str:00000000000100cd .LASF3294
C:\Users\CYMR90~1\AppData\Local\Temp\ccaJ4oak.s:32326  .debug_str:000000000002ca68 .LASF3295
C:\Users\CYMR90~1\AppData\Local\Temp\ccaJ4oak.s:27034  .debug_str:0000000000017ab2 .LASF3296
C:\Users\CYMR90~1\AppData\Local\Temp\ccaJ4oak.s:29680  .debug_str:000000000002221f .LASF3297
C:\Users\CYMR90~1\AppData\Local\Temp\ccaJ4oak.s:24049  .debug_str:000000000000bbdd .LASF3298
C:\Users\CYMR90~1\AppData\Local\Temp\ccaJ4oak.s:29962  .debug_str:00000000000232b4 .LASF3299
C:\Users\CYMR90~1\AppData\Local\Temp\ccaJ4oak.s:26121  .debug_str:0000000000013f97 .LASF3300
C:\Users\CYMR90~1\AppData\Local\Temp\ccaJ4oak.s:28848  .debug_str:000000000001ef60 .LASF3301
C:\Users\CYMR90~1\AppData\Local\Temp\ccaJ4oak.s:24905  .debug_str:000000000000f151 .LASF3302
C:\Users\CYMR90~1\AppData\Local\Temp\ccaJ4oak.s:31702  .debug_str:000000000002a2ae .LASF3303
C:\Users\CYMR90~1\AppData\Local\Temp\ccaJ4oak.s:25223  .debug_str:0000000000010567 .LASF3304
C:\Users\CYMR90~1\AppData\Local\Temp\ccaJ4oak.s:31312  .debug_str:0000000000028bc0 .LASF3305
C:\Users\CYMR90~1\AppData\Local\Temp\ccaJ4oak.s:26413  .debug_str:0000000000015219 .LASF3306
C:\Users\CYMR90~1\AppData\Local\Temp\ccaJ4oak.s:25541  .debug_str:0000000000011a2d .LASF3307
C:\Users\CYMR90~1\AppData\Local\Temp\ccaJ4oak.s:23427  .debug_str:0000000000009309 .LASF3308
C:\Users\CYMR90~1\AppData\Local\Temp\ccaJ4oak.s:23015  .debug_str:00000000000077ef .LASF3309
C:\Users\CYMR90~1\AppData\Local\Temp\ccaJ4oak.s:32446  .debug_str:000000000002d228 .LASF3310
C:\Users\CYMR90~1\AppData\Local\Temp\ccaJ4oak.s:22179  .debug_str:000000000000437a .LASF3311
C:\Users\CYMR90~1\AppData\Local\Temp\ccaJ4oak.s:31962  .debug_str:000000000002b220 .LASF3312
C:\Users\CYMR90~1\AppData\Local\Temp\ccaJ4oak.s:24511  .debug_str:000000000000da12 .LASF3313
C:\Users\CYMR90~1\AppData\Local\Temp\ccaJ4oak.s:27202  .debug_str:00000000000184b0 .LASF3314
C:\Users\CYMR90~1\AppData\Local\Temp\ccaJ4oak.s:26655  .debug_str:00000000000160e2 .LASF3315
C:\Users\CYMR90~1\AppData\Local\Temp\ccaJ4oak.s:29974  .debug_str:0000000000023354 .LASF3316
C:\Users\CYMR90~1\AppData\Local\Temp\ccaJ4oak.s:21393  .debug_str:000000000000123e .LASF3317
C:\Users\CYMR90~1\AppData\Local\Temp\ccaJ4oak.s:22349  .debug_str:0000000000004ee6 .LASF3318
C:\Users\CYMR90~1\AppData\Local\Temp\ccaJ4oak.s:29840  .debug_str:0000000000022b66 .LASF3319
C:\Users\CYMR90~1\AppData\Local\Temp\ccaJ4oak.s:22601  .debug_str:0000000000005e08 .LASF3320
C:\Users\CYMR90~1\AppData\Local\Temp\ccaJ4oak.s:30160  .debug_str:0000000000023ee4 .LASF3321
C:\Users\CYMR90~1\AppData\Local\Temp\ccaJ4oak.s:30580  .debug_str:0000000000025c6b .LASF3322
C:\Users\CYMR90~1\AppData\Local\Temp\ccaJ4oak.s:29286  .debug_str:0000000000020a9e .LASF3323
C:\Users\CYMR90~1\AppData\Local\Temp\ccaJ4oak.s:26557  .debug_str:0000000000015a5f .LASF3324
C:\Users\CYMR90~1\AppData\Local\Temp\ccaJ4oak.s:26303  .debug_str:0000000000014ad9 .LASF3325
C:\Users\CYMR90~1\AppData\Local\Temp\ccaJ4oak.s:27024  .debug_str:0000000000017a08 .LASF3326
C:\Users\CYMR90~1\AppData\Local\Temp\ccaJ4oak.s:29178  .debug_str:0000000000020368 .LASF3327
C:\Users\CYMR90~1\AppData\Local\Temp\ccaJ4oak.s:22981  .debug_str:00000000000075fb .LASF3328
C:\Users\CYMR90~1\AppData\Local\Temp\ccaJ4oak.s:21157  .debug_str:0000000000000380 .LASF3329
C:\Users\CYMR90~1\AppData\Local\Temp\ccaJ4oak.s:31334  .debug_str:0000000000028d18 .LASF3330
C:\Users\CYMR90~1\AppData\Local\Temp\ccaJ4oak.s:21289  .debug_str:0000000000000bf1 .LASF3331
C:\Users\CYMR90~1\AppData\Local\Temp\ccaJ4oak.s:29660  .debug_str:00000000000220fd .LASF3332
C:\Users\CYMR90~1\AppData\Local\Temp\ccaJ4oak.s:26449  .debug_str:0000000000015457 .LASF3333
C:\Users\CYMR90~1\AppData\Local\Temp\ccaJ4oak.s:26099  .debug_str:0000000000013e53 .LASF3334
C:\Users\CYMR90~1\AppData\Local\Temp\ccaJ4oak.s:24379  .debug_str:000000000000d154 .LASF3335
C:\Users\CYMR90~1\AppData\Local\Temp\ccaJ4oak.s:29964  .debug_str:00000000000232da .LASF3336
C:\Users\CYMR90~1\AppData\Local\Temp\ccaJ4oak.s:27938  .debug_str:000000000001b612 .LASF3337
C:\Users\CYMR90~1\AppData\Local\Temp\ccaJ4oak.s:26715  .debug_str:0000000000016470 .LASF3338
C:\Users\CYMR90~1\AppData\Local\Temp\ccaJ4oak.s:30426  .debug_str:00000000000250bf .LASF3339
C:\Users\CYMR90~1\AppData\Local\Temp\ccaJ4oak.s:25039  .debug_str:000000000000fa14 .LASF3340
C:\Users\CYMR90~1\AppData\Local\Temp\ccaJ4oak.s:29884  .debug_str:0000000000022e5c .LASF3341
C:\Users\CYMR90~1\AppData\Local\Temp\ccaJ4oak.s:25941  .debug_str:000000000001342e .LASF3342
C:\Users\CYMR90~1\AppData\Local\Temp\ccaJ4oak.s:28424  .debug_str:000000000001d544 .LASF3343
C:\Users\CYMR90~1\AppData\Local\Temp\ccaJ4oak.s:22811  .debug_str:0000000000006ad6 .LASF3344
C:\Users\CYMR90~1\AppData\Local\Temp\ccaJ4oak.s:32366  .debug_str:000000000002ccfd .LASF3345
C:\Users\CYMR90~1\AppData\Local\Temp\ccaJ4oak.s:23001  .debug_str:0000000000007714 .LASF3346
C:\Users\CYMR90~1\AppData\Local\Temp\ccaJ4oak.s:22103  .debug_str:0000000000003e44 .LASF3347
C:\Users\CYMR90~1\AppData\Local\Temp\ccaJ4oak.s:32036  .debug_str:000000000002b6c7 .LASF3348
C:\Users\CYMR90~1\AppData\Local\Temp\ccaJ4oak.s:23893  .debug_str:000000000000b191 .LASF3349
C:\Users\CYMR90~1\AppData\Local\Temp\ccaJ4oak.s:26093  .debug_str:0000000000013dfe .LASF3350
C:\Users\CYMR90~1\AppData\Local\Temp\ccaJ4oak.s:22381  .debug_str:00000000000050bb .LASF3351
C:\Users\CYMR90~1\AppData\Local\Temp\ccaJ4oak.s:23771  .debug_str:000000000000a871 .LASF3352
C:\Users\CYMR90~1\AppData\Local\Temp\ccaJ4oak.s:22581  .debug_str:0000000000005cc6 .LASF3353
C:\Users\CYMR90~1\AppData\Local\Temp\ccaJ4oak.s:23991  .debug_str:000000000000b7df .LASF3354
C:\Users\CYMR90~1\AppData\Local\Temp\ccaJ4oak.s:22515  .debug_str:00000000000058c9 .LASF3355
C:\Users\CYMR90~1\AppData\Local\Temp\ccaJ4oak.s:25649  .debug_str:000000000001214d .LASF3356
C:\Users\CYMR90~1\AppData\Local\Temp\ccaJ4oak.s:31086  .debug_str:0000000000027bf2 .LASF3357
C:\Users\CYMR90~1\AppData\Local\Temp\ccaJ4oak.s:27458  .debug_str:00000000000195cd .LASF3358
C:\Users\CYMR90~1\AppData\Local\Temp\ccaJ4oak.s:26765  .debug_str:00000000000167b7 .LASF3359
C:\Users\CYMR90~1\AppData\Local\Temp\ccaJ4oak.s:32396  .debug_str:000000000002cf21 .LASF3360
C:\Users\CYMR90~1\AppData\Local\Temp\ccaJ4oak.s:28924  .debug_str:000000000001f43a .LASF3361
C:\Users\CYMR90~1\AppData\Local\Temp\ccaJ4oak.s:25579  .debug_str:0000000000011cf4 .LASF3362
C:\Users\CYMR90~1\AppData\Local\Temp\ccaJ4oak.s:22707  .debug_str:000000000000648c .LASF3363
C:\Users\CYMR90~1\AppData\Local\Temp\ccaJ4oak.s:30020  .debug_str:0000000000023637 .LASF3364
C:\Users\CYMR90~1\AppData\Local\Temp\ccaJ4oak.s:26609  .debug_str:0000000000015d99 .LASF3365
C:\Users\CYMR90~1\AppData\Local\Temp\ccaJ4oak.s:23219  .debug_str:000000000000863c .LASF3366
C:\Users\CYMR90~1\AppData\Local\Temp\ccaJ4oak.s:27148  .debug_str:000000000001814c .LASF3367
C:\Users\CYMR90~1\AppData\Local\Temp\ccaJ4oak.s:32098  .debug_str:000000000002bb19 .LASF3368
C:\Users\CYMR90~1\AppData\Local\Temp\ccaJ4oak.s:30654  .debug_str:00000000000260b8 .LASF3369
C:\Users\CYMR90~1\AppData\Local\Temp\ccaJ4oak.s:21493  .debug_str:00000000000018a2 .LASF3370
C:\Users\CYMR90~1\AppData\Local\Temp\ccaJ4oak.s:22555  .debug_str:0000000000005b0a .LASF3371
C:\Users\CYMR90~1\AppData\Local\Temp\ccaJ4oak.s:28712  .debug_str:000000000001e70f .LASF3372
C:\Users\CYMR90~1\AppData\Local\Temp\ccaJ4oak.s:28932  .debug_str:000000000001f4b8 .LASF3373
C:\Users\CYMR90~1\AppData\Local\Temp\ccaJ4oak.s:30070  .debug_str:00000000000239b0 .LASF3374
C:\Users\CYMR90~1\AppData\Local\Temp\ccaJ4oak.s:21489  .debug_str:000000000000185b .LASF3375
C:\Users\CYMR90~1\AppData\Local\Temp\ccaJ4oak.s:27258  .debug_str:00000000000187d7 .LASF3376
C:\Users\CYMR90~1\AppData\Local\Temp\ccaJ4oak.s:32348  .debug_str:000000000002cbe0 .LASF3377
C:\Users\CYMR90~1\AppData\Local\Temp\ccaJ4oak.s:23963  .debug_str:000000000000b58f .LASF3378
C:\Users\CYMR90~1\AppData\Local\Temp\ccaJ4oak.s:27130  .debug_str:0000000000018067 .LASF3379
C:\Users\CYMR90~1\AppData\Local\Temp\ccaJ4oak.s:21425  .debug_str:0000000000001420 .LASF3380
C:\Users\CYMR90~1\AppData\Local\Temp\ccaJ4oak.s:25493  .debug_str:0000000000011681 .LASF3381
C:\Users\CYMR90~1\AppData\Local\Temp\ccaJ4oak.s:24179  .debug_str:000000000000c483 .LASF3382
C:\Users\CYMR90~1\AppData\Local\Temp\ccaJ4oak.s:24443  .debug_str:000000000000d5f4 .LASF3383
C:\Users\CYMR90~1\AppData\Local\Temp\ccaJ4oak.s:32094  .debug_str:000000000002bace .LASF3384
C:\Users\CYMR90~1\AppData\Local\Temp\ccaJ4oak.s:29128  .debug_str:00000000000200ba .LASF3385
C:\Users\CYMR90~1\AppData\Local\Temp\ccaJ4oak.s:24935  .debug_str:000000000000f33d .LASF3386
C:\Users\CYMR90~1\AppData\Local\Temp\ccaJ4oak.s:30578  .debug_str:0000000000025c43 .LASF3387
C:\Users\CYMR90~1\AppData\Local\Temp\ccaJ4oak.s:29514  .debug_str:000000000002181f .LASF3388
C:\Users\CYMR90~1\AppData\Local\Temp\ccaJ4oak.s:25191  .debug_str:0000000000010390 .LASF3389
C:\Users\CYMR90~1\AppData\Local\Temp\ccaJ4oak.s:29126  .debug_str:0000000000020093 .LASF3390
C:\Users\CYMR90~1\AppData\Local\Temp\ccaJ4oak.s:26251  .debug_str:00000000000147c6 .LASF3391
C:\Users\CYMR90~1\AppData\Local\Temp\ccaJ4oak.s:31972  .debug_str:000000000002b2a9 .LASF3392
C:\Users\CYMR90~1\AppData\Local\Temp\ccaJ4oak.s:21171  .debug_str:0000000000000443 .LASF3393
C:\Users\CYMR90~1\AppData\Local\Temp\ccaJ4oak.s:29158  .debug_str:0000000000020254 .LASF3394
C:\Users\CYMR90~1\AppData\Local\Temp\ccaJ4oak.s:30714  .debug_str:0000000000026488 .LASF3395
C:\Users\CYMR90~1\AppData\Local\Temp\ccaJ4oak.s:32400  .debug_str:000000000002cf5e .LASF3396
C:\Users\CYMR90~1\AppData\Local\Temp\ccaJ4oak.s:23603  .debug_str:0000000000009e21 .LASF3397
C:\Users\CYMR90~1\AppData\Local\Temp\ccaJ4oak.s:27498  .debug_str:000000000001982e .LASF3398
C:\Users\CYMR90~1\AppData\Local\Temp\ccaJ4oak.s:24909  .debug_str:000000000000f181 .LASF3399
C:\Users\CYMR90~1\AppData\Local\Temp\ccaJ4oak.s:28846  .debug_str:000000000001ef42 .LASF3400
C:\Users\CYMR90~1\AppData\Local\Temp\ccaJ4oak.s:32274  .debug_str:000000000002c70b .LASF3401
C:\Users\CYMR90~1\AppData\Local\Temp\ccaJ4oak.s:31898  .debug_str:000000000002ae91 .LASF3402
C:\Users\CYMR90~1\AppData\Local\Temp\ccaJ4oak.s:28090  .debug_str:000000000001bf17 .LASF3403
C:\Users\CYMR90~1\AppData\Local\Temp\ccaJ4oak.s:22087  .debug_str:0000000000003d35 .LASF3404
C:\Users\CYMR90~1\AppData\Local\Temp\ccaJ4oak.s:23875  .debug_str:000000000000afdf .LASF3405
C:\Users\CYMR90~1\AppData\Local\Temp\ccaJ4oak.s:24931  .debug_str:000000000000f2ef .LASF3406
C:\Users\CYMR90~1\AppData\Local\Temp\ccaJ4oak.s:29590  .debug_str:0000000000021cd9 .LASF3407
C:\Users\CYMR90~1\AppData\Local\Temp\ccaJ4oak.s:26823  .debug_str:0000000000016c49 .LASF3408
C:\Users\CYMR90~1\AppData\Local\Temp\ccaJ4oak.s:28610  .debug_str:000000000001e14f .LASF3409
C:\Users\CYMR90~1\AppData\Local\Temp\ccaJ4oak.s:27844  .debug_str:000000000001afd1 .LASF3410
C:\Users\CYMR90~1\AppData\Local\Temp\ccaJ4oak.s:29614  .debug_str:0000000000021e5a .LASF3411
C:\Users\CYMR90~1\AppData\Local\Temp\ccaJ4oak.s:23841  .debug_str:000000000000ad9b .LASF3412
C:\Users\CYMR90~1\AppData\Local\Temp\ccaJ4oak.s:26215  .debug_str:0000000000014554 .LASF3413
C:\Users\CYMR90~1\AppData\Local\Temp\ccaJ4oak.s:22651  .debug_str:0000000000006128 .LASF3414
C:\Users\CYMR90~1\AppData\Local\Temp\ccaJ4oak.s:29342  .debug_str:0000000000020dd8 .LASF3415
C:\Users\CYMR90~1\AppData\Local\Temp\ccaJ4oak.s:25835  .debug_str:0000000000012d28 .LASF3416
C:\Users\CYMR90~1\AppData\Local\Temp\ccaJ4oak.s:27912  .debug_str:000000000001b468 .LASF3417
C:\Users\CYMR90~1\AppData\Local\Temp\ccaJ4oak.s:27784  .debug_str:000000000001ac2a .LASF3418
C:\Users\CYMR90~1\AppData\Local\Temp\ccaJ4oak.s:22403  .debug_str:0000000000005206 .LASF3419
C:\Users\CYMR90~1\AppData\Local\Temp\ccaJ4oak.s:29202  .debug_str:0000000000020515 .LASF3420
C:\Users\CYMR90~1\AppData\Local\Temp\ccaJ4oak.s:25907  .debug_str:0000000000013203 .LASF3421
C:\Users\CYMR90~1\AppData\Local\Temp\ccaJ4oak.s:23711  .debug_str:000000000000a506 .LASF3422
C:\Users\CYMR90~1\AppData\Local\Temp\ccaJ4oak.s:28242  .debug_str:000000000001c846 .LASF3423
C:\Users\CYMR90~1\AppData\Local\Temp\ccaJ4oak.s:22919  .debug_str:00000000000071b5 .LASF3424
C:\Users\CYMR90~1\AppData\Local\Temp\ccaJ4oak.s:30902  .debug_str:000000000002701c .LASF3425
C:\Users\CYMR90~1\AppData\Local\Temp\ccaJ4oak.s:22315  .debug_str:0000000000004cc0 .LASF3426
C:\Users\CYMR90~1\AppData\Local\Temp\ccaJ4oak.s:22649  .debug_str:0000000000006117 .LASF3427
C:\Users\CYMR90~1\AppData\Local\Temp\ccaJ4oak.s:21607  .debug_str:0000000000001f87 .LASF3428
C:\Users\CYMR90~1\AppData\Local\Temp\ccaJ4oak.s:27206  .debug_str:00000000000184e7 .LASF3429
C:\Users\CYMR90~1\AppData\Local\Temp\ccaJ4oak.s:26924  .debug_str:00000000000173ee .LASF3430
C:\Users\CYMR90~1\AppData\Local\Temp\ccaJ4oak.s:27966  .debug_str:000000000001b7a7 .LASF3431
C:\Users\CYMR90~1\AppData\Local\Temp\ccaJ4oak.s:24607  .debug_str:000000000000dfad .LASF3432
C:\Users\CYMR90~1\AppData\Local\Temp\ccaJ4oak.s:29336  .debug_str:0000000000020d82 .LASF3433
C:\Users\CYMR90~1\AppData\Local\Temp\ccaJ4oak.s:30228  .debug_str:00000000000243c1 .LASF3434
C:\Users\CYMR90~1\AppData\Local\Temp\ccaJ4oak.s:31098  .debug_str:0000000000027ca5 .LASF3435
C:\Users\CYMR90~1\AppData\Local\Temp\ccaJ4oak.s:29464  .debug_str:000000000002154c .LASF3436
C:\Users\CYMR90~1\AppData\Local\Temp\ccaJ4oak.s:30738  .debug_str:00000000000265e6 .LASF3437
C:\Users\CYMR90~1\AppData\Local\Temp\ccaJ4oak.s:22939  .debug_str:0000000000007343 .LASF3438
C:\Users\CYMR90~1\AppData\Local\Temp\ccaJ4oak.s:27974  .debug_str:000000000001b834 .LASF3439
C:\Users\CYMR90~1\AppData\Local\Temp\ccaJ4oak.s:21699  .debug_str:000000000000248a .LASF3440
C:\Users\CYMR90~1\AppData\Local\Temp\ccaJ4oak.s:30496  .debug_str:000000000002563f .LASF3441
C:\Users\CYMR90~1\AppData\Local\Temp\ccaJ4oak.s:24185  .debug_str:000000000000c502 .LASF3442
C:\Users\CYMR90~1\AppData\Local\Temp\ccaJ4oak.s:26689  .debug_str:00000000000162e3 .LASF3443
C:\Users\CYMR90~1\AppData\Local\Temp\ccaJ4oak.s:30934  .debug_str:00000000000271ee .LASF3444
C:\Users\CYMR90~1\AppData\Local\Temp\ccaJ4oak.s:23827  .debug_str:000000000000acb7 .LASF3445
C:\Users\CYMR90~1\AppData\Local\Temp\ccaJ4oak.s:24685  .debug_str:000000000000e44c .LASF3446
C:\Users\CYMR90~1\AppData\Local\Temp\ccaJ4oak.s:22319  .debug_str:0000000000004d0f .LASF3447
C:\Users\CYMR90~1\AppData\Local\Temp\ccaJ4oak.s:21283  .debug_str:0000000000000b77 .LASF3448
C:\Users\CYMR90~1\AppData\Local\Temp\ccaJ4oak.s:29626  .debug_str:0000000000021f09 .LASF3449
C:\Users\CYMR90~1\AppData\Local\Temp\ccaJ4oak.s:23847  .debug_str:000000000000adf0 .LASF3450
C:\Users\CYMR90~1\AppData\Local\Temp\ccaJ4oak.s:22001  .debug_str:00000000000037af .LASF3451
C:\Users\CYMR90~1\AppData\Local\Temp\ccaJ4oak.s:21453  .debug_str:0000000000001589 .LASF3452
C:\Users\CYMR90~1\AppData\Local\Temp\ccaJ4oak.s:27226  .debug_str:0000000000018644 .LASF3453
C:\Users\CYMR90~1\AppData\Local\Temp\ccaJ4oak.s:26711  .debug_str:0000000000016430 .LASF3454
C:\Users\CYMR90~1\AppData\Local\Temp\ccaJ4oak.s:25895  .debug_str:0000000000013137 .LASF3455
C:\Users\CYMR90~1\AppData\Local\Temp\ccaJ4oak.s:27576  .debug_str:0000000000019db5 .LASF3456
C:\Users\CYMR90~1\AppData\Local\Temp\ccaJ4oak.s:31862  .debug_str:000000000002ac5c .LASF3457
C:\Users\CYMR90~1\AppData\Local\Temp\ccaJ4oak.s:26777  .debug_str:0000000000016891 .LASF3458
C:\Users\CYMR90~1\AppData\Local\Temp\ccaJ4oak.s:25813  .debug_str:0000000000012c01 .LASF3459
C:\Users\CYMR90~1\AppData\Local\Temp\ccaJ4oak.s:27868  .debug_str:000000000001b182 .LASF3460
C:\Users\CYMR90~1\AppData\Local\Temp\ccaJ4oak.s:30768  .debug_str:00000000000267c8 .LASF3461
C:\Users\CYMR90~1\AppData\Local\Temp\ccaJ4oak.s:23155  .debug_str:000000000000820b .LASF3462
C:\Users\CYMR90~1\AppData\Local\Temp\ccaJ4oak.s:21827  .debug_str:0000000000002ce9 .LASF3463
C:\Users\CYMR90~1\AppData\Local\Temp\ccaJ4oak.s:29552  .debug_str:0000000000021a6b .LASF3464
C:\Users\CYMR90~1\AppData\Local\Temp\ccaJ4oak.s:28880  .debug_str:000000000001f19e .LASF3465
C:\Users\CYMR90~1\AppData\Local\Temp\ccaJ4oak.s:29170  .debug_str:00000000000202fc .LASF3466
C:\Users\CYMR90~1\AppData\Local\Temp\ccaJ4oak.s:29708  .debug_str:00000000000223c7 .LASF3467
C:\Users\CYMR90~1\AppData\Local\Temp\ccaJ4oak.s:25317  .debug_str:0000000000010bb2 .LASF3468
C:\Users\CYMR90~1\AppData\Local\Temp\ccaJ4oak.s:22867  .debug_str:0000000000006e5e .LASF3469
C:\Users\CYMR90~1\AppData\Local\Temp\ccaJ4oak.s:32020  .debug_str:000000000002b601 .LASF3470
C:\Users\CYMR90~1\AppData\Local\Temp\ccaJ4oak.s:31850  .debug_str:000000000002ab9b .LASF3471
C:\Users\CYMR90~1\AppData\Local\Temp\ccaJ4oak.s:28564  .debug_str:000000000001de8c .LASF3472
C:\Users\CYMR90~1\AppData\Local\Temp\ccaJ4oak.s:21265  .debug_str:00000000000009f5 .LASF3473
C:\Users\CYMR90~1\AppData\Local\Temp\ccaJ4oak.s:30870  .debug_str:0000000000026df4 .LASF3474
C:\Users\CYMR90~1\AppData\Local\Temp\ccaJ4oak.s:25107  .debug_str:000000000000fe24 .LASF3475
C:\Users\CYMR90~1\AppData\Local\Temp\ccaJ4oak.s:32338  .debug_str:000000000002cb29 .LASF3476
C:\Users\CYMR90~1\AppData\Local\Temp\ccaJ4oak.s:27390  .debug_str:00000000000191c9 .LASF3477
C:\Users\CYMR90~1\AppData\Local\Temp\ccaJ4oak.s:31958  .debug_str:000000000002b1dd .LASF3478
C:\Users\CYMR90~1\AppData\Local\Temp\ccaJ4oak.s:27432  .debug_str:000000000001942a .LASF3479
C:\Users\CYMR90~1\AppData\Local\Temp\ccaJ4oak.s:29694  .debug_str:000000000002231b .LASF3480
C:\Users\CYMR90~1\AppData\Local\Temp\ccaJ4oak.s:26151  .debug_str:0000000000014170 .LASF3481
C:\Users\CYMR90~1\AppData\Local\Temp\ccaJ4oak.s:24277  .debug_str:000000000000cb40 .LASF3482
C:\Users\CYMR90~1\AppData\Local\Temp\ccaJ4oak.s:21891  .debug_str:00000000000030aa .LASF3483
C:\Users\CYMR90~1\AppData\Local\Temp\ccaJ4oak.s:27750  .debug_str:000000000001aa00 .LASF3484
C:\Users\CYMR90~1\AppData\Local\Temp\ccaJ4oak.s:28958  .debug_str:000000000001f634 .LASF3485
C:\Users\CYMR90~1\AppData\Local\Temp\ccaJ4oak.s:31654  .debug_str:0000000000029fff .LASF3486
C:\Users\CYMR90~1\AppData\Local\Temp\ccaJ4oak.s:30856  .debug_str:0000000000026d56 .LASF3487
C:\Users\CYMR90~1\AppData\Local\Temp\ccaJ4oak.s:29756  .debug_str:0000000000022690 .LASF3488
C:\Users\CYMR90~1\AppData\Local\Temp\ccaJ4oak.s:30442  .debug_str:00000000000251bd .LASF3489
C:\Users\CYMR90~1\AppData\Local\Temp\ccaJ4oak.s:28562  .debug_str:000000000001de70 .LASF3490
C:\Users\CYMR90~1\AppData\Local\Temp\ccaJ4oak.s:28620  .debug_str:000000000001e1e5 .LASF3491
C:\Users\CYMR90~1\AppData\Local\Temp\ccaJ4oak.s:27656  .debug_str:000000000001a237 .LASF3492
C:\Users\CYMR90~1\AppData\Local\Temp\ccaJ4oak.s:21165  .debug_str:00000000000003f6 .LASF3493
C:\Users\CYMR90~1\AppData\Local\Temp\ccaJ4oak.s:27012  .debug_str:0000000000017915 .LASF3494
C:\Users\CYMR90~1\AppData\Local\Temp\ccaJ4oak.s:30624  .debug_str:0000000000025ef0 .LASF3495
C:\Users\CYMR90~1\AppData\Local\Temp\ccaJ4oak.s:22435  .debug_str:00000000000053ef .LASF3496
C:\Users\CYMR90~1\AppData\Local\Temp\ccaJ4oak.s:21505  .debug_str:0000000000001977 .LASF3497
C:\Users\CYMR90~1\AppData\Local\Temp\ccaJ4oak.s:26565  .debug_str:0000000000015ac6 .LASF3498
C:\Users\CYMR90~1\AppData\Local\Temp\ccaJ4oak.s:22345  .debug_str:0000000000004e99 .LASF3499
C:\Users\CYMR90~1\AppData\Local\Temp\ccaJ4oak.s:23519  .debug_str:00000000000098b2 .LASF3500
C:\Users\CYMR90~1\AppData\Local\Temp\ccaJ4oak.s:28636  .debug_str:000000000001e2b5 .LASF3501
C:\Users\CYMR90~1\AppData\Local\Temp\ccaJ4oak.s:21599  .debug_str:0000000000001f11 .LASF3502
C:\Users\CYMR90~1\AppData\Local\Temp\ccaJ4oak.s:28940  .debug_str:000000000001f54c .LASF3503
C:\Users\CYMR90~1\AppData\Local\Temp\ccaJ4oak.s:23495  .debug_str:0000000000009750 .LASF3504
C:\Users\CYMR90~1\AppData\Local\Temp\ccaJ4oak.s:27138  .debug_str:00000000000180e9 .LASF3505
C:\Users\CYMR90~1\AppData\Local\Temp\ccaJ4oak.s:30726  .debug_str:000000000002652e .LASF3506
C:\Users\CYMR90~1\AppData\Local\Temp\ccaJ4oak.s:24645  .debug_str:000000000000e1e4 .LASF3507
C:\Users\CYMR90~1\AppData\Local\Temp\ccaJ4oak.s:28696  .debug_str:000000000001e668 .LASF3508
C:\Users\CYMR90~1\AppData\Local\Temp\ccaJ4oak.s:32228  .debug_str:000000000002c3c2 .LASF3509
C:\Users\CYMR90~1\AppData\Local\Temp\ccaJ4oak.s:24959  .debug_str:000000000000f4d4 .LASF3510
C:\Users\CYMR90~1\AppData\Local\Temp\ccaJ4oak.s:28980  .debug_str:000000000001f78d .LASF3511
C:\Users\CYMR90~1\AppData\Local\Temp\ccaJ4oak.s:22303  .debug_str:0000000000004c08 .LASF3512
C:\Users\CYMR90~1\AppData\Local\Temp\ccaJ4oak.s:28876  .debug_str:000000000001f16a .LASF3513
C:\Users\CYMR90~1\AppData\Local\Temp\ccaJ4oak.s:24655  .debug_str:000000000000e284 .LASF3514
C:\Users\CYMR90~1\AppData\Local\Temp\ccaJ4oak.s:31974  .debug_str:000000000002b2d0 .LASF3515
C:\Users\CYMR90~1\AppData\Local\Temp\ccaJ4oak.s:31058  .debug_str:00000000000279e1 .LASF3516
C:\Users\CYMR90~1\AppData\Local\Temp\ccaJ4oak.s:26906  .debug_str:00000000000172d1 .LASF3517
C:\Users\CYMR90~1\AppData\Local\Temp\ccaJ4oak.s:28436  .debug_str:000000000001d638 .LASF3518
C:\Users\CYMR90~1\AppData\Local\Temp\ccaJ4oak.s:26956  .debug_str:0000000000017585 .LASF3519
C:\Users\CYMR90~1\AppData\Local\Temp\ccaJ4oak.s:30460  .debug_str:0000000000025345 .LASF3520
C:\Users\CYMR90~1\AppData\Local\Temp\ccaJ4oak.s:28582  .debug_str:000000000001dfc4 .LASF3521
C:\Users\CYMR90~1\AppData\Local\Temp\ccaJ4oak.s:29516  .debug_str:000000000002185e .LASF3522
C:\Users\CYMR90~1\AppData\Local\Temp\ccaJ4oak.s:25211  .debug_str:00000000000104b4 .LASF3523
C:\Users\CYMR90~1\AppData\Local\Temp\ccaJ4oak.s:27690  .debug_str:000000000001a5e6 .LASF3524
C:\Users\CYMR90~1\AppData\Local\Temp\ccaJ4oak.s:32358  .debug_str:000000000002cc9f .LASF3525
C:\Users\CYMR90~1\AppData\Local\Temp\ccaJ4oak.s:24365  .debug_str:000000000000d092 .LASF3526
C:\Users\CYMR90~1\AppData\Local\Temp\ccaJ4oak.s:27188  .debug_str:00000000000183f4 .LASF3527
C:\Users\CYMR90~1\AppData\Local\Temp\ccaJ4oak.s:23523  .debug_str:00000000000098e4 .LASF3528
C:\Users\CYMR90~1\AppData\Local\Temp\ccaJ4oak.s:30724  .debug_str:0000000000026511 .LASF3529
C:\Users\CYMR90~1\AppData\Local\Temp\ccaJ4oak.s:31794  .debug_str:000000000002a874 .LASF3530
C:\Users\CYMR90~1\AppData\Local\Temp\ccaJ4oak.s:24071  .debug_str:000000000000bd2b .LASF3531
C:\Users\CYMR90~1\AppData\Local\Temp\ccaJ4oak.s:31206  .debug_str:00000000000284ae .LASF3532
C:\Users\CYMR90~1\AppData\Local\Temp\ccaJ4oak.s:28096  .debug_str:000000000001bf8f .LASF3533
C:\Users\CYMR90~1\AppData\Local\Temp\ccaJ4oak.s:31666  .debug_str:000000000002a0a3 .LASF3534
C:\Users\CYMR90~1\AppData\Local\Temp\ccaJ4oak.s:21671  .debug_str:0000000000002315 .LASF3535
C:\Users\CYMR90~1\AppData\Local\Temp\ccaJ4oak.s:30780  .debug_str:00000000000268a3 .LASF3536
C:\Users\CYMR90~1\AppData\Local\Temp\ccaJ4oak.s:27530  .debug_str:0000000000019aef .LASF3537
C:\Users\CYMR90~1\AppData\Local\Temp\ccaJ4oak.s:27452  .debug_str:000000000001957b .LASF3538
C:\Users\CYMR90~1\AppData\Local\Temp\ccaJ4oak.s:27872  .debug_str:000000000001b1c2 .LASF3539
C:\Users\CYMR90~1\AppData\Local\Temp\ccaJ4oak.s:21679  .debug_str:000000000000237f .LASF3540
C:\Users\CYMR90~1\AppData\Local\Temp\ccaJ4oak.s:31124  .debug_str:0000000000027e9a .LASF3541
C:\Users\CYMR90~1\AppData\Local\Temp\ccaJ4oak.s:28522  .debug_str:000000000001dbb3 .LASF3542
C:\Users\CYMR90~1\AppData\Local\Temp\ccaJ4oak.s:30478  .debug_str:000000000002552a .LASF3543
C:\Users\CYMR90~1\AppData\Local\Temp\ccaJ4oak.s:29758  .debug_str:00000000000226ac .LASF3544
C:\Users\CYMR90~1\AppData\Local\Temp\ccaJ4oak.s:29296  .debug_str:0000000000020b0c .LASF3545
C:\Users\CYMR90~1\AppData\Local\Temp\ccaJ4oak.s:32182  .debug_str:000000000002c0f0 .LASF3546
C:\Users\CYMR90~1\AppData\Local\Temp\ccaJ4oak.s:31914  .debug_str:000000000002af7d .LASF3547
C:\Users\CYMR90~1\AppData\Local\Temp\ccaJ4oak.s:21225  .debug_str:000000000000079d .LASF3548
C:\Users\CYMR90~1\AppData\Local\Temp\ccaJ4oak.s:24877  .debug_str:000000000000efaa .LASF3549
C:\Users\CYMR90~1\AppData\Local\Temp\ccaJ4oak.s:26255  .debug_str:0000000000014819 .LASF3550
C:\Users\CYMR90~1\AppData\Local\Temp\ccaJ4oak.s:30082  .debug_str:0000000000023a4d .LASF3551
C:\Users\CYMR90~1\AppData\Local\Temp\ccaJ4oak.s:27704  .debug_str:000000000001a689 .LASF3552
C:\Users\CYMR90~1\AppData\Local\Temp\ccaJ4oak.s:26854  .debug_str:0000000000016fc2 .LASF3553
C:\Users\CYMR90~1\AppData\Local\Temp\ccaJ4oak.s:27296  .debug_str:0000000000018a73 .LASF3554
C:\Users\CYMR90~1\AppData\Local\Temp\ccaJ4oak.s:31628  .debug_str:0000000000029ea1 .LASF3555
C:\Users\CYMR90~1\AppData\Local\Temp\ccaJ4oak.s:24419  .debug_str:000000000000d42d .LASF3556
C:\Users\CYMR90~1\AppData\Local\Temp\ccaJ4oak.s:26902  .debug_str:000000000001728c .LASF3557
C:\Users\CYMR90~1\AppData\Local\Temp\ccaJ4oak.s:32104  .debug_str:000000000002bb91 .LASF3558
C:\Users\CYMR90~1\AppData\Local\Temp\ccaJ4oak.s:26327  .debug_str:0000000000014c6d .LASF3559
C:\Users\CYMR90~1\AppData\Local\Temp\ccaJ4oak.s:28664  .debug_str:000000000001e462 .LASF3560
C:\Users\CYMR90~1\AppData\Local\Temp\ccaJ4oak.s:31534  .debug_str:0000000000029925 .LASF3561
C:\Users\CYMR90~1\AppData\Local\Temp\ccaJ4oak.s:21821  .debug_str:0000000000002cae .LASF3562
C:\Users\CYMR90~1\AppData\Local\Temp\ccaJ4oak.s:28860  .debug_str:000000000001f02f .LASF3563
C:\Users\CYMR90~1\AppData\Local\Temp\ccaJ4oak.s:23645  .debug_str:000000000000a0cd .LASF3564
C:\Users\CYMR90~1\AppData\Local\Temp\ccaJ4oak.s:21943  .debug_str:000000000000344e .LASF3565
C:\Users\CYMR90~1\AppData\Local\Temp\ccaJ4oak.s:23891  .debug_str:000000000000b178 .LASF3566
C:\Users\CYMR90~1\AppData\Local\Temp\ccaJ4oak.s:22833  .debug_str:0000000000006c20 .LASF3567
C:\Users\CYMR90~1\AppData\Local\Temp\ccaJ4oak.s:30406  .debug_str:0000000000024f92 .LASF3568
C:\Users\CYMR90~1\AppData\Local\Temp\ccaJ4oak.s:27770  .debug_str:000000000001ab35 .LASF3569
C:\Users\CYMR90~1\AppData\Local\Temp\ccaJ4oak.s:27626  .debug_str:000000000001a096 .LASF3570
C:\Users\CYMR90~1\AppData\Local\Temp\ccaJ4oak.s:22791  .debug_str:0000000000006998 .LASF3571
C:\Users\CYMR90~1\AppData\Local\Temp\ccaJ4oak.s:24753  .debug_str:000000000000e89b .LASF3572
C:\Users\CYMR90~1\AppData\Local\Temp\ccaJ4oak.s:24591  .debug_str:000000000000de89 .LASF3573
C:\Users\CYMR90~1\AppData\Local\Temp\ccaJ4oak.s:23221  .debug_str:0000000000008663 .LASF3574
C:\Users\CYMR90~1\AppData\Local\Temp\ccaJ4oak.s:23405  .debug_str:00000000000091a2 .LASF3575
C:\Users\CYMR90~1\AppData\Local\Temp\ccaJ4oak.s:23993  .debug_str:000000000000b801 .LASF3576
C:\Users\CYMR90~1\AppData\Local\Temp\ccaJ4oak.s:21967  .debug_str:00000000000035cb .LASF3577
C:\Users\CYMR90~1\AppData\Local\Temp\ccaJ4oak.s:23339  .debug_str:0000000000008d71 .LASF3578
C:\Users\CYMR90~1\AppData\Local\Temp\ccaJ4oak.s:21147  .debug_str:00000000000002de .LASF3579
C:\Users\CYMR90~1\AppData\Local\Temp\ccaJ4oak.s:26898  .debug_str:000000000001725e .LASF3580
C:\Users\CYMR90~1\AppData\Local\Temp\ccaJ4oak.s:24145  .debug_str:000000000000c278 .LASF3581
C:\Users\CYMR90~1\AppData\Local\Temp\ccaJ4oak.s:30016  .debug_str:00000000000235fd .LASF3582
C:\Users\CYMR90~1\AppData\Local\Temp\ccaJ4oak.s:32092  .debug_str:000000000002bab4 .LASF3583
C:\Users\CYMR90~1\AppData\Local\Temp\ccaJ4oak.s:25701  .debug_str:000000000001249c .LASF3584
C:\Users\CYMR90~1\AppData\Local\Temp\ccaJ4oak.s:25555  .debug_str:0000000000011b91 .LASF3585
C:\Users\CYMR90~1\AppData\Local\Temp\ccaJ4oak.s:27888  .debug_str:000000000001b2f1 .LASF3586
C:\Users\CYMR90~1\AppData\Local\Temp\ccaJ4oak.s:30030  .debug_str:0000000000023711 .LASF3587
C:\Users\CYMR90~1\AppData\Local\Temp\ccaJ4oak.s:31466  .debug_str:00000000000294a7 .LASF3588
C:\Users\CYMR90~1\AppData\Local\Temp\ccaJ4oak.s:27544  .debug_str:0000000000019bc8 .LASF3589
C:\Users\CYMR90~1\AppData\Local\Temp\ccaJ4oak.s:28844  .debug_str:000000000001ef23 .LASF3590
C:\Users\CYMR90~1\AppData\Local\Temp\ccaJ4oak.s:29952  .debug_str:0000000000023208 .LASF3591
C:\Users\CYMR90~1\AppData\Local\Temp\ccaJ4oak.s:30808  .debug_str:0000000000026a52 .LASF3592
C:\Users\CYMR90~1\AppData\Local\Temp\ccaJ4oak.s:21325  .debug_str:0000000000000dd7 .LASF3593
C:\Users\CYMR90~1\AppData\Local\Temp\ccaJ4oak.s:24821  .debug_str:000000000000ecbf .LASF3594
C:\Users\CYMR90~1\AppData\Local\Temp\ccaJ4oak.s:32178  .debug_str:000000000002c0bf .LASF3595
C:\Users\CYMR90~1\AppData\Local\Temp\ccaJ4oak.s:27370  .debug_str:0000000000018f7f .LASF3596
C:\Users\CYMR90~1\AppData\Local\Temp\ccaJ4oak.s:21807  .debug_str:0000000000002b7e .LASF3597
C:\Users\CYMR90~1\AppData\Local\Temp\ccaJ4oak.s:21477  .debug_str:00000000000016ef .LASF3598
C:\Users\CYMR90~1\AppData\Local\Temp\ccaJ4oak.s:22949  .debug_str:0000000000007417 .LASF3599
C:\Users\CYMR90~1\AppData\Local\Temp\ccaJ4oak.s:24339  .debug_str:000000000000ceb4 .LASF3600
C:\Users\CYMR90~1\AppData\Local\Temp\ccaJ4oak.s:25745  .debug_str:000000000001275d .LASF3601
C:\Users\CYMR90~1\AppData\Local\Temp\ccaJ4oak.s:29396  .debug_str:00000000000210bf .LASF3602
C:\Users\CYMR90~1\AppData\Local\Temp\ccaJ4oak.s:29666  .debug_str:0000000000022147 .LASF3603
C:\Users\CYMR90~1\AppData\Local\Temp\ccaJ4oak.s:23501  .debug_str:00000000000097a7 .LASF3604
C:\Users\CYMR90~1\AppData\Local\Temp\ccaJ4oak.s:30078  .debug_str:0000000000023a1f .LASF3605
C:\Users\CYMR90~1\AppData\Local\Temp\ccaJ4oak.s:32302  .debug_str:000000000002c8a2 .LASF3606
C:\Users\CYMR90~1\AppData\Local\Temp\ccaJ4oak.s:25147  .debug_str:00000000000100b4 .LASF3607
C:\Users\CYMR90~1\AppData\Local\Temp\ccaJ4oak.s:24643  .debug_str:000000000000e1cb .LASF3608
C:\Users\CYMR90~1\AppData\Local\Temp\ccaJ4oak.s:28786  .debug_str:000000000001ebbc .LASF3609
C:\Users\CYMR90~1\AppData\Local\Temp\ccaJ4oak.s:22263  .debug_str:0000000000004916 .LASF3610
C:\Users\CYMR90~1\AppData\Local\Temp\ccaJ4oak.s:21551  .debug_str:0000000000001c48 .LASF3611
C:\Users\CYMR90~1\AppData\Local\Temp\ccaJ4oak.s:23583  .debug_str:0000000000009d06 .LASF3612
C:\Users\CYMR90~1\AppData\Local\Temp\ccaJ4oak.s:29928  .debug_str:00000000000230d6 .LASF3613
C:\Users\CYMR90~1\AppData\Local\Temp\ccaJ4oak.s:25587  .debug_str:0000000000011d71 .LASF3614
C:\Users\CYMR90~1\AppData\Local\Temp\ccaJ4oak.s:26131  .debug_str:0000000000014052 .LASF3615
C:\Users\CYMR90~1\AppData\Local\Temp\ccaJ4oak.s:23465  .debug_str:0000000000009531 .LASF3616
C:\Users\CYMR90~1\AppData\Local\Temp\ccaJ4oak.s:27788  .debug_str:000000000001ac5c .LASF3617
C:\Users\CYMR90~1\AppData\Local\Temp\ccaJ4oak.s:27372  .debug_str:0000000000018fcf .LASF3618
C:\Users\CYMR90~1\AppData\Local\Temp\ccaJ4oak.s:31326  .debug_str:0000000000028c9a .LASF3619
C:\Users\CYMR90~1\AppData\Local\Temp\ccaJ4oak.s:27056  .debug_str:0000000000017bfc .LASF3620
C:\Users\CYMR90~1\AppData\Local\Temp\ccaJ4oak.s:31246  .debug_str:000000000002874c .LASF3621
C:\Users\CYMR90~1\AppData\Local\Temp\ccaJ4oak.s:24653  .debug_str:000000000000e265 .LASF3622
C:\Users\CYMR90~1\AppData\Local\Temp\ccaJ4oak.s:23135  .debug_str:000000000000802b .LASF3623
C:\Users\CYMR90~1\AppData\Local\Temp\ccaJ4oak.s:32236  .debug_str:000000000002c474 .LASF3624
C:\Users\CYMR90~1\AppData\Local\Temp\ccaJ4oak.s:26453  .debug_str:0000000000015489 .LASF3625
C:\Users\CYMR90~1\AppData\Local\Temp\ccaJ4oak.s:28168  .debug_str:000000000001c3db .LASF3626
C:\Users\CYMR90~1\AppData\Local\Temp\ccaJ4oak.s:27602  .debug_str:0000000000019f1e .LASF3627
C:\Users\CYMR90~1\AppData\Local\Temp\ccaJ4oak.s:30226  .debug_str:0000000000024384 .LASF3628
C:\Users\CYMR90~1\AppData\Local\Temp\ccaJ4oak.s:29446  .debug_str:000000000002142f .LASF3629
C:\Users\CYMR90~1\AppData\Local\Temp\ccaJ4oak.s:24023  .debug_str:000000000000ba06 .LASF3630
C:\Users\CYMR90~1\AppData\Local\Temp\ccaJ4oak.s:27648  .debug_str:000000000001a1c7 .LASF3631
C:\Users\CYMR90~1\AppData\Local\Temp\ccaJ4oak.s:21115  .debug_str:00000000000000dc .LASF3632
C:\Users\CYMR90~1\AppData\Local\Temp\ccaJ4oak.s:25549  .debug_str:0000000000011a9c .LASF3633
C:\Users\CYMR90~1\AppData\Local\Temp\ccaJ4oak.s:29492  .debug_str:00000000000216d9 .LASF3634
C:\Users\CYMR90~1\AppData\Local\Temp\ccaJ4oak.s:29754  .debug_str:000000000002266b .LASF3635
C:\Users\CYMR90~1\AppData\Local\Temp\ccaJ4oak.s:26643  .debug_str:0000000000015fec .LASF3636
C:\Users\CYMR90~1\AppData\Local\Temp\ccaJ4oak.s:31596  .debug_str:0000000000029c9c .LASF3637
C:\Users\CYMR90~1\AppData\Local\Temp\ccaJ4oak.s:24247  .debug_str:000000000000c8c6 .LASF3638
C:\Users\CYMR90~1\AppData\Local\Temp\ccaJ4oak.s:32424  .debug_str:000000000002d0a0 .LASF3639
C:\Users\CYMR90~1\AppData\Local\Temp\ccaJ4oak.s:30056  .debug_str:00000000000238bf .LASF3640
C:\Users\CYMR90~1\AppData\Local\Temp\ccaJ4oak.s:30494  .debug_str:000000000002561b .LASF3641
C:\Users\CYMR90~1\AppData\Local\Temp\ccaJ4oak.s:25589  .debug_str:0000000000011d86 .LASF3642
C:\Users\CYMR90~1\AppData\Local\Temp\ccaJ4oak.s:25957  .debug_str:0000000000013598 .LASF3643
C:\Users\CYMR90~1\AppData\Local\Temp\ccaJ4oak.s:21573  .debug_str:0000000000001d6b .LASF3644
C:\Users\CYMR90~1\AppData\Local\Temp\ccaJ4oak.s:22917  .debug_str:0000000000007191 .LASF3645
C:\Users\CYMR90~1\AppData\Local\Temp\ccaJ4oak.s:32048  .debug_str:000000000002b7b2 .LASF3646
C:\Users\CYMR90~1\AppData\Local\Temp\ccaJ4oak.s:26673  .debug_str:00000000000161f7 .LASF3647
C:\Users\CYMR90~1\AppData\Local\Temp\ccaJ4oak.s:27464  .debug_str:0000000000019634 .LASF3648
C:\Users\CYMR90~1\AppData\Local\Temp\ccaJ4oak.s:24527  .debug_str:000000000000dad1 .LASF3649
C:\Users\CYMR90~1\AppData\Local\Temp\ccaJ4oak.s:25805  .debug_str:0000000000012b5a .LASF3650
C:\Users\CYMR90~1\AppData\Local\Temp\ccaJ4oak.s:21345  .debug_str:0000000000000f7a .LASF3651
C:\Users\CYMR90~1\AppData\Local\Temp\ccaJ4oak.s:27734  .debug_str:000000000001a89a .LASF3652
C:\Users\CYMR90~1\AppData\Local\Temp\ccaJ4oak.s:22181  .debug_str:0000000000004399 .LASF3653
C:\Users\CYMR90~1\AppData\Local\Temp\ccaJ4oak.s:27980  .debug_str:000000000001b896 .LASF3654
C:\Users\CYMR90~1\AppData\Local\Temp\ccaJ4oak.s:22457  .debug_str:0000000000005537 .LASF3655
C:\Users\CYMR90~1\AppData\Local\Temp\ccaJ4oak.s:23567  .debug_str:0000000000009bf1 .LASF3656
C:\Users\CYMR90~1\AppData\Local\Temp\ccaJ4oak.s:22739  .debug_str:000000000000666b .LASF3657
C:\Users\CYMR90~1\AppData\Local\Temp\ccaJ4oak.s:28484  .debug_str:000000000001d94c .LASF3658
C:\Users\CYMR90~1\AppData\Local\Temp\ccaJ4oak.s:30972  .debug_str:00000000000274d6 .LASF3659
C:\Users\CYMR90~1\AppData\Local\Temp\ccaJ4oak.s:29688  .debug_str:00000000000222a3 .LASF3660
C:\Users\CYMR90~1\AppData\Local\Temp\ccaJ4oak.s:22775  .debug_str:0000000000006866 .LASF3661
C:\Users\CYMR90~1\AppData\Local\Temp\ccaJ4oak.s:31606  .debug_str:0000000000029d49 .LASF3662
C:\Users\CYMR90~1\AppData\Local\Temp\ccaJ4oak.s:28936  .debug_str:000000000001f512 .LASF3663
C:\Users\CYMR90~1\AppData\Local\Temp\ccaJ4oak.s:26353  .debug_str:0000000000014dfd .LASF3664
C:\Users\CYMR90~1\AppData\Local\Temp\ccaJ4oak.s:23843  .debug_str:000000000000adb5 .LASF3665
C:\Users\CYMR90~1\AppData\Local\Temp\ccaJ4oak.s:21207  .debug_str:0000000000000636 .LASF3666
C:\Users\CYMR90~1\AppData\Local\Temp\ccaJ4oak.s:25091  .debug_str:000000000000fd26 .LASF3667
C:\Users\CYMR90~1\AppData\Local\Temp\ccaJ4oak.s:24029  .debug_str:000000000000ba5c .LASF3668
C:\Users\CYMR90~1\AppData\Local\Temp\ccaJ4oak.s:24801  .debug_str:000000000000eb89 .LASF3669
C:\Users\CYMR90~1\AppData\Local\Temp\ccaJ4oak.s:22955  .debug_str:0000000000007480 .LASF3670
C:\Users\CYMR90~1\AppData\Local\Temp\ccaJ4oak.s:31040  .debug_str:00000000000278c3 .LASF3671
C:\Users\CYMR90~1\AppData\Local\Temp\ccaJ4oak.s:28406  .debug_str:000000000001d418 .LASF3672
C:\Users\CYMR90~1\AppData\Local\Temp\ccaJ4oak.s:25901  .debug_str:0000000000013197 .LASF3673
C:\Users\CYMR90~1\AppData\Local\Temp\ccaJ4oak.s:27996  .debug_str:000000000001b999 .LASF3674
C:\Users\CYMR90~1\AppData\Local\Temp\ccaJ4oak.s:32008  .debug_str:000000000002b51b .LASF3675
C:\Users\CYMR90~1\AppData\Local\Temp\ccaJ4oak.s:25229  .debug_str:00000000000105b8 .LASF3676
C:\Users\CYMR90~1\AppData\Local\Temp\ccaJ4oak.s:31276  .debug_str:0000000000028987 .LASF3677
C:\Users\CYMR90~1\AppData\Local\Temp\ccaJ4oak.s:24227  .debug_str:000000000000c791 .LASF3678
C:\Users\CYMR90~1\AppData\Local\Temp\ccaJ4oak.s:21655  .debug_str:0000000000002202 .LASF3679
C:\Users\CYMR90~1\AppData\Local\Temp\ccaJ4oak.s:25207  .debug_str:0000000000010476 .LASF3680
C:\Users\CYMR90~1\AppData\Local\Temp\ccaJ4oak.s:25129  .debug_str:000000000000ff84 .LASF3681
C:\Users\CYMR90~1\AppData\Local\Temp\ccaJ4oak.s:25337  .debug_str:0000000000010d0b .LASF3682
C:\Users\CYMR90~1\AppData\Local\Temp\ccaJ4oak.s:29668  .debug_str:000000000002215f .LASF3683
C:\Users\CYMR90~1\AppData\Local\Temp\ccaJ4oak.s:26015  .debug_str:000000000001394c .LASF3684
C:\Users\CYMR90~1\AppData\Local\Temp\ccaJ4oak.s:23125  .debug_str:0000000000007f93 .LASF3685
C:\Users\CYMR90~1\AppData\Local\Temp\ccaJ4oak.s:29906  .debug_str:0000000000022f9d .LASF3686
C:\Users\CYMR90~1\AppData\Local\Temp\ccaJ4oak.s:32050  .debug_str:000000000002b7d6 .LASF3687
C:\Users\CYMR90~1\AppData\Local\Temp\ccaJ4oak.s:31580  .debug_str:0000000000029ba6 .LASF3688
C:\Users\CYMR90~1\AppData\Local\Temp\ccaJ4oak.s:28084  .debug_str:000000000001beb9 .LASF3689
C:\Users\CYMR90~1\AppData\Local\Temp\ccaJ4oak.s:22921  .debug_str:00000000000071d3 .LASF3690
C:\Users\CYMR90~1\AppData\Local\Temp\ccaJ4oak.s:22505  .debug_str:0000000000005836 .LASF3691
C:\Users\CYMR90~1\AppData\Local\Temp\ccaJ4oak.s:23007  .debug_str:000000000000776b .LASF3692
C:\Users\CYMR90~1\AppData\Local\Temp\ccaJ4oak.s:21959  .debug_str:0000000000003558 .LASF3693
C:\Users\CYMR90~1\AppData\Local\Temp\ccaJ4oak.s:30310  .debug_str:0000000000024919 .LASF3694
C:\Users\CYMR90~1\AppData\Local\Temp\ccaJ4oak.s:25157  .debug_str:000000000001012e .LASF3695
C:\Users\CYMR90~1\AppData\Local\Temp\ccaJ4oak.s:23313  .debug_str:0000000000008bda .LASF3696
C:\Users\CYMR90~1\AppData\Local\Temp\ccaJ4oak.s:23415  .debug_str:0000000000009255 .LASF3697
C:\Users\CYMR90~1\AppData\Local\Temp\ccaJ4oak.s:29562  .debug_str:0000000000021af1 .LASF3698
C:\Users\CYMR90~1\AppData\Local\Temp\ccaJ4oak.s:31514  .debug_str:00000000000297d5 .LASF3699
C:\Users\CYMR90~1\AppData\Local\Temp\ccaJ4oak.s:29818  .debug_str:0000000000022a25 .LASF3700
C:\Users\CYMR90~1\AppData\Local\Temp\ccaJ4oak.s:31408  .debug_str:000000000002914c .LASF3701
C:\Users\CYMR90~1\AppData\Local\Temp\ccaJ4oak.s:21239  .debug_str:0000000000000870 .LASF3702
C:\Users\CYMR90~1\AppData\Local\Temp\ccaJ4oak.s:29854  .debug_str:0000000000022cad .LASF3703
C:\Users\CYMR90~1\AppData\Local\Temp\ccaJ4oak.s:26856  .debug_str:0000000000016fda .LASF3704
C:\Users\CYMR90~1\AppData\Local\Temp\ccaJ4oak.s:23851  .debug_str:000000000000ae29 .LASF3705
C:\Users\CYMR90~1\AppData\Local\Temp\ccaJ4oak.s:24401  .debug_str:000000000000d2fb .LASF3706
C:\Users\CYMR90~1\AppData\Local\Temp\ccaJ4oak.s:22907  .debug_str:00000000000070e2 .LASF3707
C:\Users\CYMR90~1\AppData\Local\Temp\ccaJ4oak.s:26473  .debug_str:0000000000015588 .LASF3708
C:\Users\CYMR90~1\AppData\Local\Temp\ccaJ4oak.s:24273  .debug_str:000000000000cb10 .LASF3709
C:\Users\CYMR90~1\AppData\Local\Temp\ccaJ4oak.s:29924  .debug_str:0000000000023097 .LASF3710
C:\Users\CYMR90~1\AppData\Local\Temp\ccaJ4oak.s:27886  .debug_str:000000000001b2ae .LASF3711
C:\Users\CYMR90~1\AppData\Local\Temp\ccaJ4oak.s:29862  .debug_str:0000000000022d3c .LASF3712
C:\Users\CYMR90~1\AppData\Local\Temp\ccaJ4oak.s:26996  .debug_str:0000000000017820 .LASF3713
C:\Users\CYMR90~1\AppData\Local\Temp\ccaJ4oak.s:24719  .debug_str:000000000000e64b .LASF3714
C:\Users\CYMR90~1\AppData\Local\Temp\ccaJ4oak.s:28906  .debug_str:000000000001f308 .LASF3715
C:\Users\CYMR90~1\AppData\Local\Temp\ccaJ4oak.s:23907  .debug_str:000000000000b26d .LASF3716
C:\Users\CYMR90~1\AppData\Local\Temp\ccaJ4oak.s:26177  .debug_str:000000000001435c .LASF3717
C:\Users\CYMR90~1\AppData\Local\Temp\ccaJ4oak.s:27136  .debug_str:00000000000180c7 .LASF3718
C:\Users\CYMR90~1\AppData\Local\Temp\ccaJ4oak.s:30866  .debug_str:0000000000026dc1 .LASF3719
C:\Users\CYMR90~1\AppData\Local\Temp\ccaJ4oak.s:23691  .debug_str:000000000000a39d .LASF3720
C:\Users\CYMR90~1\AppData\Local\Temp\ccaJ4oak.s:22425  .debug_str:0000000000005330 .LASF3721
C:\Users\CYMR90~1\AppData\Local\Temp\ccaJ4oak.s:27430  .debug_str:0000000000019408 .LASF3722
C:\Users\CYMR90~1\AppData\Local\Temp\ccaJ4oak.s:23951  .debug_str:000000000000b4f6 .LASF3723
C:\Users\CYMR90~1\AppData\Local\Temp\ccaJ4oak.s:24687  .debug_str:000000000000e474 .LASF3724
C:\Users\CYMR90~1\AppData\Local\Temp\ccaJ4oak.s:27748  .debug_str:000000000001a9de .LASF3725
C:\Users\CYMR90~1\AppData\Local\Temp\ccaJ4oak.s:31994  .debug_str:000000000002b41d .LASF3726
C:\Users\CYMR90~1\AppData\Local\Temp\ccaJ4oak.s:24547  .debug_str:000000000000dc19 .LASF3727
C:\Users\CYMR90~1\AppData\Local\Temp\ccaJ4oak.s:22513  .debug_str:00000000000058a5 .LASF3728
C:\Users\CYMR90~1\AppData\Local\Temp\ccaJ4oak.s:31638  .debug_str:0000000000029f1a .LASF3729
C:\Users\CYMR90~1\AppData\Local\Temp\ccaJ4oak.s:29358  .debug_str:0000000000020eaa .LASF3730
C:\Users\CYMR90~1\AppData\Local\Temp\ccaJ4oak.s:22517  .debug_str:0000000000005905 .LASF3731
C:\Users\CYMR90~1\AppData\Local\Temp\ccaJ4oak.s:21353  .debug_str:0000000000000fd9 .LASF3732
C:\Users\CYMR90~1\AppData\Local\Temp\ccaJ4oak.s:22611  .debug_str:0000000000005e84 .LASF3733
C:\Users\CYMR90~1\AppData\Local\Temp\ccaJ4oak.s:26061  .debug_str:0000000000013c15 .LASF3734
C:\Users\CYMR90~1\AppData\Local\Temp\ccaJ4oak.s:31916  .debug_str:000000000002af99 .LASF3735
C:\Users\CYMR90~1\AppData\Local\Temp\ccaJ4oak.s:30672  .debug_str:0000000000026215 .LASF3736
C:\Users\CYMR90~1\AppData\Local\Temp\ccaJ4oak.s:22337  .debug_str:0000000000004e13 .LASF3737
C:\Users\CYMR90~1\AppData\Local\Temp\ccaJ4oak.s:30144  .debug_str:0000000000023ddd .LASF3738
C:\Users\CYMR90~1\AppData\Local\Temp\ccaJ4oak.s:29278  .debug_str:0000000000020a15 .LASF3739
C:\Users\CYMR90~1\AppData\Local\Temp\ccaJ4oak.s:31792  .debug_str:000000000002a850 .LASF3740
C:\Users\CYMR90~1\AppData\Local\Temp\ccaJ4oak.s:24823  .debug_str:000000000000ecd7 .LASF3741
C:\Users\CYMR90~1\AppData\Local\Temp\ccaJ4oak.s:22525  .debug_str:000000000000595b .LASF3742
C:\Users\CYMR90~1\AppData\Local\Temp\ccaJ4oak.s:24183  .debug_str:000000000000c4de .LASF3743
C:\Users\CYMR90~1\AppData\Local\Temp\ccaJ4oak.s:29370  .debug_str:0000000000020f4c .LASF3744
C:\Users\CYMR90~1\AppData\Local\Temp\ccaJ4oak.s:27238  .debug_str:00000000000186d2 .LASF3745
C:\Users\CYMR90~1\AppData\Local\Temp\ccaJ4oak.s:28322  .debug_str:000000000001cde7 .LASF3746
C:\Users\CYMR90~1\AppData\Local\Temp\ccaJ4oak.s:31382  .debug_str:0000000000028fca .LASF3747
C:\Users\CYMR90~1\AppData\Local\Temp\ccaJ4oak.s:29188  .debug_str:0000000000020439 .LASF3748
C:\Users\CYMR90~1\AppData\Local\Temp\ccaJ4oak.s:32330  .debug_str:000000000002cab2 .LASF3749
C:\Users\CYMR90~1\AppData\Local\Temp\ccaJ4oak.s:21997  .debug_str:0000000000003772 .LASF3750
C:\Users\CYMR90~1\AppData\Local\Temp\ccaJ4oak.s:30476  .debug_str:0000000000025500 .LASF3751
C:\Users\CYMR90~1\AppData\Local\Temp\ccaJ4oak.s:21363  .debug_str:000000000000105e .LASF3752
C:\Users\CYMR90~1\AppData\Local\Temp\ccaJ4oak.s:28488  .debug_str:000000000001d993 .LASF3753
C:\Users\CYMR90~1\AppData\Local\Temp\ccaJ4oak.s:25935  .debug_str:000000000001337f .LASF3754
C:\Users\CYMR90~1\AppData\Local\Temp\ccaJ4oak.s:32418  .debug_str:000000000002d052 .LASF3755
C:\Users\CYMR90~1\AppData\Local\Temp\ccaJ4oak.s:21797  .debug_str:0000000000002ae5 .LASF3756
C:\Users\CYMR90~1\AppData\Local\Temp\ccaJ4oak.s:30922  .debug_str:0000000000027148 .LASF3757
C:\Users\CYMR90~1\AppData\Local\Temp\ccaJ4oak.s:25791  .debug_str:0000000000012a56 .LASF3758
C:\Users\CYMR90~1\AppData\Local\Temp\ccaJ4oak.s:29180  .debug_str:000000000002037f .LASF3759
C:\Users\CYMR90~1\AppData\Local\Temp\ccaJ4oak.s:29322  .debug_str:0000000000020c91 .LASF3760
C:\Users\CYMR90~1\AppData\Local\Temp\ccaJ4oak.s:21323  .debug_str:0000000000000db5 .LASF3761
C:\Users\CYMR90~1\AppData\Local\Temp\ccaJ4oak.s:28548  .debug_str:000000000001dd20 .LASF3762
C:\Users\CYMR90~1\AppData\Local\Temp\ccaJ4oak.s:21421  .debug_str:00000000000013b7 .LASF3763
C:\Users\CYMR90~1\AppData\Local\Temp\ccaJ4oak.s:31176  .debug_str:000000000002822b .LASF3764
C:\Users\CYMR90~1\AppData\Local\Temp\ccaJ4oak.s:25687  .debug_str:000000000001238f .LASF3765
C:\Users\CYMR90~1\AppData\Local\Temp\ccaJ4oak.s:28684  .debug_str:000000000001e578 .LASF3766
C:\Users\CYMR90~1\AppData\Local\Temp\ccaJ4oak.s:27600  .debug_str:0000000000019eee .LASF3767
C:\Users\CYMR90~1\AppData\Local\Temp\ccaJ4oak.s:26361  .debug_str:0000000000014e94 .LASF3768
C:\Users\CYMR90~1\AppData\Local\Temp\ccaJ4oak.s:25179  .debug_str:00000000000102b9 .LASF3769
C:\Users\CYMR90~1\AppData\Local\Temp\ccaJ4oak.s:32038  .debug_str:000000000002b6e3 .LASF3770
C:\Users\CYMR90~1\AppData\Local\Temp\ccaJ4oak.s:30394  .debug_str:0000000000024ea9 .LASF3771
C:\Users\CYMR90~1\AppData\Local\Temp\ccaJ4oak.s:21537  .debug_str:0000000000001b2b .LASF3772
C:\Users\CYMR90~1\AppData\Local\Temp\ccaJ4oak.s:31162  .debug_str:00000000000280e8 .LASF3773
C:\Users\CYMR90~1\AppData\Local\Temp\ccaJ4oak.s:31400  .debug_str:00000000000290b3 .LASF3774
C:\Users\CYMR90~1\AppData\Local\Temp\ccaJ4oak.s:24355  .debug_str:000000000000cfca .LASF3775
C:\Users\CYMR90~1\AppData\Local\Temp\ccaJ4oak.s:31744  .debug_str:000000000002a517 .LASF3776
C:\Users\CYMR90~1\AppData\Local\Temp\ccaJ4oak.s:21547  .debug_str:0000000000001bf2 .LASF3777
C:\Users\CYMR90~1\AppData\Local\Temp\ccaJ4oak.s:30410  .debug_str:0000000000024fcc .LASF3778
C:\Users\CYMR90~1\AppData\Local\Temp\ccaJ4oak.s:23649  .debug_str:000000000000a0fa .LASF3779
C:\Users\CYMR90~1\AppData\Local\Temp\ccaJ4oak.s:29430  .debug_str:0000000000021296 .LASF3780
C:\Users\CYMR90~1\AppData\Local\Temp\ccaJ4oak.s:26591  .debug_str:0000000000015c52 .LASF3781
C:\Users\CYMR90~1\AppData\Local\Temp\ccaJ4oak.s:27616  .debug_str:0000000000019feb .LASF3782
C:\Users\CYMR90~1\AppData\Local\Temp\ccaJ4oak.s:24461  .debug_str:000000000000d726 .LASF3783
C:\Users\CYMR90~1\AppData\Local\Temp\ccaJ4oak.s:22565  .debug_str:0000000000005baa .LASF3784
C:\Users\CYMR90~1\AppData\Local\Temp\ccaJ4oak.s:31080  .debug_str:0000000000027b40 .LASF3785
C:\Users\CYMR90~1\AppData\Local\Temp\ccaJ4oak.s:24953  .debug_str:000000000000f466 .LASF3786
C:\Users\CYMR90~1\AppData\Local\Temp\ccaJ4oak.s:24139  .debug_str:000000000000c1fd .LASF3787
C:\Users\CYMR90~1\AppData\Local\Temp\ccaJ4oak.s:30034  .debug_str:0000000000023746 .LASF3788
C:\Users\CYMR90~1\AppData\Local\Temp\ccaJ4oak.s:21269  .debug_str:0000000000000a40 .LASF3789
C:\Users\CYMR90~1\AppData\Local\Temp\ccaJ4oak.s:22101  .debug_str:0000000000003e12 .LASF3790
C:\Users\CYMR90~1\AppData\Local\Temp\ccaJ4oak.s:31050  .debug_str:0000000000027957 .LASF3791
C:\Users\CYMR90~1\AppData\Local\Temp\ccaJ4oak.s:22717  .debug_str:000000000000652c .LASF3792
C:\Users\CYMR90~1\AppData\Local\Temp\ccaJ4oak.s:24067  .debug_str:000000000000bce5 .LASF3793
C:\Users\CYMR90~1\AppData\Local\Temp\ccaJ4oak.s:25169  .debug_str:0000000000010210 .LASF3794
C:\Users\CYMR90~1\AppData\Local\Temp\ccaJ4oak.s:29406  .debug_str:000000000002112c .LASF3795
C:\Users\CYMR90~1\AppData\Local\Temp\ccaJ4oak.s:22347  .debug_str:0000000000004eb4 .LASF3796
C:\Users\CYMR90~1\AppData\Local\Temp\ccaJ4oak.s:26571  .debug_str:0000000000015b0e .LASF3797
C:\Users\CYMR90~1\AppData\Local\Temp\ccaJ4oak.s:30882  .debug_str:0000000000026eb1 .LASF3798
C:\Users\CYMR90~1\AppData\Local\Temp\ccaJ4oak.s:23839  .debug_str:000000000000ad69 .LASF3799
C:\Users\CYMR90~1\AppData\Local\Temp\ccaJ4oak.s:26153  .debug_str:000000000001418b .LASF3800
C:\Users\CYMR90~1\AppData\Local\Temp\ccaJ4oak.s:30462  .debug_str:0000000000025363 .LASF3801
C:\Users\CYMR90~1\AppData\Local\Temp\ccaJ4oak.s:24333  .debug_str:000000000000ce50 .LASF3802
C:\Users\CYMR90~1\AppData\Local\Temp\ccaJ4oak.s:29598  .debug_str:0000000000021d55 .LASF3803
C:\Users\CYMR90~1\AppData\Local\Temp\ccaJ4oak.s:27702  .debug_str:000000000001a657 .LASF3804
C:\Users\CYMR90~1\AppData\Local\Temp\ccaJ4oak.s:31992  .debug_str:000000000002b3eb .LASF3805
C:\Users\CYMR90~1\AppData\Local\Temp\ccaJ4oak.s:24947  .debug_str:000000000000f3e3 .LASF3806
C:\Users\CYMR90~1\AppData\Local\Temp\ccaJ4oak.s:29092  .debug_str:000000000001fe75 .LASF3807
C:\Users\CYMR90~1\AppData\Local\Temp\ccaJ4oak.s:22043  .debug_str:0000000000003a62 .LASF3808
C:\Users\CYMR90~1\AppData\Local\Temp\ccaJ4oak.s:25021  .debug_str:000000000000f903 .LASF3809
C:\Users\CYMR90~1\AppData\Local\Temp\ccaJ4oak.s:30180  .debug_str:0000000000024025 .LASF3810
C:\Users\CYMR90~1\AppData\Local\Temp\ccaJ4oak.s:23535  .debug_str:00000000000099e6 .LASF3811
C:\Users\CYMR90~1\AppData\Local\Temp\ccaJ4oak.s:27842  .debug_str:000000000001af9f .LASF3812
C:\Users\CYMR90~1\AppData\Local\Temp\ccaJ4oak.s:22151  .debug_str:000000000000413e .LASF3813
C:\Users\CYMR90~1\AppData\Local\Temp\ccaJ4oak.s:30224  .debug_str:0000000000024352 .LASF3814
C:\Users\CYMR90~1\AppData\Local\Temp\ccaJ4oak.s:23179  .debug_str:0000000000008386 .LASF3815
C:\Users\CYMR90~1\AppData\Local\Temp\ccaJ4oak.s:24791  .debug_str:000000000000eab5 .LASF3816
C:\Users\CYMR90~1\AppData\Local\Temp\ccaJ4oak.s:31672  .debug_str:000000000002a0f9 .LASF3817
C:\Users\CYMR90~1\AppData\Local\Temp\ccaJ4oak.s:23005  .debug_str:0000000000007739 .LASF3818
C:\Users\CYMR90~1\AppData\Local\Temp\ccaJ4oak.s:28964  .debug_str:000000000001f687 .LASF3819
C:\Users\CYMR90~1\AppData\Local\Temp\ccaJ4oak.s:21751  .debug_str:0000000000002819 .LASF3820
C:\Users\CYMR90~1\AppData\Local\Temp\ccaJ4oak.s:27170  .debug_str:00000000000182c9 .LASF3821
C:\Users\CYMR90~1\AppData\Local\Temp\ccaJ4oak.s:30362  .debug_str:0000000000024c99 .LASF3822
C:\Users\CYMR90~1\AppData\Local\Temp\ccaJ4oak.s:23187  .debug_str:0000000000008403 .LASF3823
C:\Users\CYMR90~1\AppData\Local\Temp\ccaJ4oak.s:30628  .debug_str:0000000000025f2f .LASF3824
C:\Users\CYMR90~1\AppData\Local\Temp\ccaJ4oak.s:25733  .debug_str:000000000001269c .LASF3825
C:\Users\CYMR90~1\AppData\Local\Temp\ccaJ4oak.s:29910  .debug_str:0000000000022fdc .LASF3826
C:\Users\CYMR90~1\AppData\Local\Temp\ccaJ4oak.s:22859  .debug_str:0000000000006dcb .LASF3827
C:\Users\CYMR90~1\AppData\Local\Temp\ccaJ4oak.s:25781  .debug_str:0000000000012996 .LASF3828
C:\Users\CYMR90~1\AppData\Local\Temp\ccaJ4oak.s:29094  .debug_str:000000000001fea7 .LASF3829
C:\Users\CYMR90~1\AppData\Local\Temp\ccaJ4oak.s:25693  .debug_str:000000000001241c .LASF3830
C:\Users\CYMR90~1\AppData\Local\Temp\ccaJ4oak.s:30664  .debug_str:000000000002619f .LASF3831
C:\Users\CYMR90~1\AppData\Local\Temp\ccaJ4oak.s:29736  .debug_str:0000000000022534 .LASF3832
C:\Users\CYMR90~1\AppData\Local\Temp\ccaJ4oak.s:30602  .debug_str:0000000000025da7 .LASF3833
C:\Users\CYMR90~1\AppData\Local\Temp\ccaJ4oak.s:24737  .debug_str:000000000000e760 .LASF3834
C:\Users\CYMR90~1\AppData\Local\Temp\ccaJ4oak.s:30234  .debug_str:0000000000024418 .LASF3835
C:\Users\CYMR90~1\AppData\Local\Temp\ccaJ4oak.s:26587  .debug_str:0000000000015c01 .LASF3836
C:\Users\CYMR90~1\AppData\Local\Temp\ccaJ4oak.s:27010  .debug_str:00000000000178f3 .LASF3837
C:\Users\CYMR90~1\AppData\Local\Temp\ccaJ4oak.s:24021  .debug_str:000000000000b9e4 .LASF3838
C:\Users\CYMR90~1\AppData\Local\Temp\ccaJ4oak.s:26369  .debug_str:0000000000014f1d .LASF3839
C:\Users\CYMR90~1\AppData\Local\Temp\ccaJ4oak.s:29302  .debug_str:0000000000020b6c .LASF3840
C:\Users\CYMR90~1\AppData\Local\Temp\ccaJ4oak.s:26393  .debug_str:00000000000150d2 .LASF3841
C:\Users\CYMR90~1\AppData\Local\Temp\ccaJ4oak.s:30696  .debug_str:000000000002639e .LASF3842
C:\Users\CYMR90~1\AppData\Local\Temp\ccaJ4oak.s:27456  .debug_str:00000000000195aa .LASF3843
C:\Users\CYMR90~1\AppData\Local\Temp\ccaJ4oak.s:25439  .debug_str:000000000001131e .LASF3844
C:\Users\CYMR90~1\AppData\Local\Temp\ccaJ4oak.s:23099  .debug_str:0000000000007d47 .LASF3845
C:\Users\CYMR90~1\AppData\Local\Temp\ccaJ4oak.s:21433  .debug_str:000000000000148d .LASF3846
C:\Users\CYMR90~1\AppData\Local\Temp\ccaJ4oak.s:21117  .debug_str:00000000000000ff .LASF3847
C:\Users\CYMR90~1\AppData\Local\Temp\ccaJ4oak.s:26009  .debug_str:000000000001390b .LASF3848
C:\Users\CYMR90~1\AppData\Local\Temp\ccaJ4oak.s:22483  .debug_str:00000000000056d1 .LASF3849
C:\Users\CYMR90~1\AppData\Local\Temp\ccaJ4oak.s:27268  .debug_str:0000000000018882 .LASF3850
C:\Users\CYMR90~1\AppData\Local\Temp\ccaJ4oak.s:24629  .debug_str:000000000000e0f7 .LASF3851
C:\Users\CYMR90~1\AppData\Local\Temp\ccaJ4oak.s:23657  .debug_str:000000000000a194 .LASF3852
C:\Users\CYMR90~1\AppData\Local\Temp\ccaJ4oak.s:25123  .debug_str:000000000000ff16 .LASF3853
C:\Users\CYMR90~1\AppData\Local\Temp\ccaJ4oak.s:26974  .debug_str:00000000000176bb .LASF3854
C:\Users\CYMR90~1\AppData\Local\Temp\ccaJ4oak.s:26429  .debug_str:00000000000152f5 .LASF3855
C:\Users\CYMR90~1\AppData\Local\Temp\ccaJ4oak.s:25819  .debug_str:0000000000012c65 .LASF3856
C:\Users\CYMR90~1\AppData\Local\Temp\ccaJ4oak.s:28118  .debug_str:000000000001c0ea .LASF3857
C:\Users\CYMR90~1\AppData\Local\Temp\ccaJ4oak.s:24741  .debug_str:000000000000e7df .LASF3858
C:\Users\CYMR90~1\AppData\Local\Temp\ccaJ4oak.s:21307  .debug_str:0000000000000cd9 .LASF3859
C:\Users\CYMR90~1\AppData\Local\Temp\ccaJ4oak.s:31406  .debug_str:0000000000029128 .LASF3860
C:\Users\CYMR90~1\AppData\Local\Temp\ccaJ4oak.s:25883  .debug_str:000000000001305c .LASF3861
C:\Users\CYMR90~1\AppData\Local\Temp\ccaJ4oak.s:28502  .debug_str:000000000001da6c .LASF3862
C:\Users\CYMR90~1\AppData\Local\Temp\ccaJ4oak.s:21691  .debug_str:000000000000242e .LASF3863
C:\Users\CYMR90~1\AppData\Local\Temp\ccaJ4oak.s:21601  .debug_str:0000000000001f2b .LASF3864
C:\Users\CYMR90~1\AppData\Local\Temp\ccaJ4oak.s:30470  .debug_str:0000000000025499 .LASF3865
C:\Users\CYMR90~1\AppData\Local\Temp\ccaJ4oak.s:30248  .debug_str:000000000002452b .LASF3866
C:\Users\CYMR90~1\AppData\Local\Temp\ccaJ4oak.s:26852  .debug_str:0000000000016f9e .LASF3867
C:\Users\CYMR90~1\AppData\Local\Temp\ccaJ4oak.s:26159  .debug_str:000000000001421a .LASF3868
C:\Users\CYMR90~1\AppData\Local\Temp\ccaJ4oak.s:31394  .debug_str:000000000002906e .LASF3869
C:\Users\CYMR90~1\AppData\Local\Temp\ccaJ4oak.s:27990  .debug_str:000000000001b930 .LASF3870
C:\Users\CYMR90~1\AppData\Local\Temp\ccaJ4oak.s:21835  .debug_str:0000000000002d50 .LASF3871
C:\Users\CYMR90~1\AppData\Local\Temp\ccaJ4oak.s:31776  .debug_str:000000000002a752 .LASF3872
C:\Users\CYMR90~1\AppData\Local\Temp\ccaJ4oak.s:32082  .debug_str:000000000002ba05 .LASF3873
C:\Users\CYMR90~1\AppData\Local\Temp\ccaJ4oak.s:23821  .debug_str:000000000000ac47 .LASF3874
C:\Users\CYMR90~1\AppData\Local\Temp\ccaJ4oak.s:32390  .debug_str:000000000002cec4 .LASF3875
C:\Users\CYMR90~1\AppData\Local\Temp\ccaJ4oak.s:32312  .debug_str:000000000002c962 .LASF3876
C:\Users\CYMR90~1\AppData\Local\Temp\ccaJ4oak.s:25569  .debug_str:0000000000011c58 .LASF3877
C:\Users\CYMR90~1\AppData\Local\Temp\ccaJ4oak.s:22125  .debug_str:0000000000003fdf .LASF3878
C:\Users\CYMR90~1\AppData\Local\Temp\ccaJ4oak.s:30100  .debug_str:0000000000023b64 .LASF3879
C:\Users\CYMR90~1\AppData\Local\Temp\ccaJ4oak.s:26691  .debug_str:0000000000016309 .LASF3880
C:\Users\CYMR90~1\AppData\Local\Temp\ccaJ4oak.s:25137  .debug_str:0000000000010029 .LASF3881
C:\Users\CYMR90~1\AppData\Local\Temp\ccaJ4oak.s:31254  .debug_str:00000000000287e0 .LASF3882
C:\Users\CYMR90~1\AppData\Local\Temp\ccaJ4oak.s:29234  .debug_str:000000000002077b .LASF3883
C:\Users\CYMR90~1\AppData\Local\Temp\ccaJ4oak.s:23145  .debug_str:00000000000080db .LASF3884
C:\Users\CYMR90~1\AppData\Local\Temp\ccaJ4oak.s:31094  .debug_str:0000000000027c6b .LASF3885
C:\Users\CYMR90~1\AppData\Local\Temp\ccaJ4oak.s:27710  .debug_str:000000000001a6e1 .LASF3886
C:\Users\CYMR90~1\AppData\Local\Temp\ccaJ4oak.s:24305  .debug_str:000000000000cce3 .LASF3887
C:\Users\CYMR90~1\AppData\Local\Temp\ccaJ4oak.s:32254  .debug_str:000000000002c5e5 .LASF3888
C:\Users\CYMR90~1\AppData\Local\Temp\ccaJ4oak.s:22239  .debug_str:000000000000477d .LASF3889
C:\Users\CYMR90~1\AppData\Local\Temp\ccaJ4oak.s:25443  .debug_str:0000000000011359 .LASF3890
C:\Users\CYMR90~1\AppData\Local\Temp\ccaJ4oak.s:28338  .debug_str:000000000001cf76 .LASF3891
C:\Users\CYMR90~1\AppData\Local\Temp\ccaJ4oak.s:29954  .debug_str:0000000000023227 .LASF3892
C:\Users\CYMR90~1\AppData\Local\Temp\ccaJ4oak.s:31332  .debug_str:0000000000028cf4 .LASF3893
C:\Users\CYMR90~1\AppData\Local\Temp\ccaJ4oak.s:21839  .debug_str:0000000000002da9 .LASF3894
C:\Users\CYMR90~1\AppData\Local\Temp\ccaJ4oak.s:28812  .debug_str:000000000001ed42 .LASF3895
C:\Users\CYMR90~1\AppData\Local\Temp\ccaJ4oak.s:26401  .debug_str:0000000000015152 .LASF3896
C:\Users\CYMR90~1\AppData\Local\Temp\ccaJ4oak.s:22997  .debug_str:00000000000076ca .LASF3897
C:\Users\CYMR90~1\AppData\Local\Temp\ccaJ4oak.s:30948  .debug_str:00000000000272b1 .LASF3898
C:\Users\CYMR90~1\AppData\Local\Temp\ccaJ4oak.s:23117  .debug_str:0000000000007efd .LASF3899
C:\Users\CYMR90~1\AppData\Local\Temp\ccaJ4oak.s:24159  .debug_str:000000000000c340 .LASF3900
C:\Users\CYMR90~1\AppData\Local\Temp\ccaJ4oak.s:32112  .debug_str:000000000002bbfc .LASF3901
C:\Users\CYMR90~1\AppData\Local\Temp\ccaJ4oak.s:21741  .debug_str:000000000000275f .LASF3902
C:\Users\CYMR90~1\AppData\Local\Temp\ccaJ4oak.s:30124  .debug_str:0000000000023cda .LASF3903
C:\Users\CYMR90~1\AppData\Local\Temp\ccaJ4oak.s:32044  .debug_str:000000000002b76f .LASF3904
C:\Users\CYMR90~1\AppData\Local\Temp\ccaJ4oak.s:28504  .debug_str:000000000001da90 .LASF3905
C:\Users\CYMR90~1\AppData\Local\Temp\ccaJ4oak.s:25161  .debug_str:0000000000010173 .LASF3906
C:\Users\CYMR90~1\AppData\Local\Temp\ccaJ4oak.s:21541  .debug_str:0000000000001b7f .LASF3907
C:\Users\CYMR90~1\AppData\Local\Temp\ccaJ4oak.s:29652  .debug_str:000000000002206c .LASF3908
C:\Users\CYMR90~1\AppData\Local\Temp\ccaJ4oak.s:26263  .debug_str:000000000001488b .LASF3909
C:\Users\CYMR90~1\AppData\Local\Temp\ccaJ4oak.s:24957  .debug_str:000000000000f4b0 .LASF3910
C:\Users\CYMR90~1\AppData\Local\Temp\ccaJ4oak.s:27540  .debug_str:0000000000019b7e .LASF3911
C:\Users\CYMR90~1\AppData\Local\Temp\ccaJ4oak.s:27420  .debug_str:0000000000019378 .LASF3912
C:\Users\CYMR90~1\AppData\Local\Temp\ccaJ4oak.s:28800  .debug_str:000000000001ec85 .LASF3913
C:\Users\CYMR90~1\AppData\Local\Temp\ccaJ4oak.s:30744  .debug_str:0000000000026668 .LASF3914
C:\Users\CYMR90~1\AppData\Local\Temp\ccaJ4oak.s:28866  .debug_str:000000000001f0a0 .LASF3915
C:\Users\CYMR90~1\AppData\Local\Temp\ccaJ4oak.s:23469  .debug_str:0000000000009572 .LASF3916
C:\Users\CYMR90~1\AppData\Local\Temp\ccaJ4oak.s:31892  .debug_str:000000000002ae3e .LASF3917
C:\Users\CYMR90~1\AppData\Local\Temp\ccaJ4oak.s:28376  .debug_str:000000000001d270 .LASF3918
C:\Users\CYMR90~1\AppData\Local\Temp\ccaJ4oak.s:29588  .debug_str:0000000000021cb5 .LASF3919
C:\Users\CYMR90~1\AppData\Local\Temp\ccaJ4oak.s:21549  .debug_str:0000000000001c24 .LASF3920
C:\Users\CYMR90~1\AppData\Local\Temp\ccaJ4oak.s:29506  .debug_str:00000000000217aa .LASF3921
C:\Users\CYMR90~1\AppData\Local\Temp\ccaJ4oak.s:26115  .debug_str:0000000000013f42 .LASF3922
C:\Users\CYMR90~1\AppData\Local\Temp\ccaJ4oak.s:31788  .debug_str:000000000002a811 .LASF3923
C:\Users\CYMR90~1\AppData\Local\Temp\ccaJ4oak.s:29440  .debug_str:000000000002132f .LASF3924
C:\Users\CYMR90~1\AppData\Local\Temp\ccaJ4oak.s:26057  .debug_str:0000000000013bda .LASF3925
C:\Users\CYMR90~1\AppData\Local\Temp\ccaJ4oak.s:30760  .debug_str:000000000002675a .LASF3926
C:\Users\CYMR90~1\AppData\Local\Temp\ccaJ4oak.s:30590  .debug_str:0000000000025d03 .LASF3927
C:\Users\CYMR90~1\AppData\Local\Temp\ccaJ4oak.s:27194  .debug_str:0000000000018444 .LASF3928
C:\Users\CYMR90~1\AppData\Local\Temp\ccaJ4oak.s:32368  .debug_str:000000000002cd17 .LASF3929
C:\Users\CYMR90~1\AppData\Local\Temp\ccaJ4oak.s:32334  .debug_str:000000000002caee .LASF3930
C:\Users\CYMR90~1\AppData\Local\Temp\ccaJ4oak.s:22031  .debug_str:000000000000398b .LASF3931
C:\Users\CYMR90~1\AppData\Local\Temp\ccaJ4oak.s:28518  .debug_str:000000000001db63 .LASF3932
C:\Users\CYMR90~1\AppData\Local\Temp\ccaJ4oak.s:22909  .debug_str:0000000000007123 .LASF3933
C:\Users\CYMR90~1\AppData\Local\Temp\ccaJ4oak.s:23051  .debug_str:0000000000007a3f .LASF3934
C:\Users\CYMR90~1\AppData\Local\Temp\ccaJ4oak.s:27078  .debug_str:0000000000017d37 .LASF3935
C:\Users\CYMR90~1\AppData\Local\Temp\ccaJ4oak.s:31034  .debug_str:0000000000027862 .LASF3936
C:\Users\CYMR90~1\AppData\Local\Temp\ccaJ4oak.s:23633  .debug_str:000000000000a003 .LASF3937
C:\Users\CYMR90~1\AppData\Local\Temp\ccaJ4oak.s:32188  .debug_str:000000000002c149 .LASF3938
C:\Users\CYMR90~1\AppData\Local\Temp\ccaJ4oak.s:23161  .debug_str:000000000000827b .LASF3939
C:\Users\CYMR90~1\AppData\Local\Temp\ccaJ4oak.s:25505  .debug_str:000000000001175b .LASF3940
C:\Users\CYMR90~1\AppData\Local\Temp\ccaJ4oak.s:28042  .debug_str:000000000001bbe9 .LASF3941
C:\Users\CYMR90~1\AppData\Local\Temp\ccaJ4oak.s:32100  .debug_str:000000000002bb54 .LASF3942
C:\Users\CYMR90~1\AppData\Local\Temp\ccaJ4oak.s:26201  .debug_str:000000000001449e .LASF3943
C:\Users\CYMR90~1\AppData\Local\Temp\ccaJ4oak.s:28630  .debug_str:000000000001e25d .LASF3944
C:\Users\CYMR90~1\AppData\Local\Temp\ccaJ4oak.s:30964  .debug_str:000000000002744b .LASF3945
C:\Users\CYMR90~1\AppData\Local\Temp\ccaJ4oak.s:21977  .debug_str:0000000000003653 .LASF3946
C:\Users\CYMR90~1\AppData\Local\Temp\ccaJ4oak.s:29334  .debug_str:0000000000020d5c .LASF3947
C:\Users\CYMR90~1\AppData\Local\Temp\ccaJ4oak.s:21893  .debug_str:00000000000030c5 .LASF3948
C:\Users\CYMR90~1\AppData\Local\Temp\ccaJ4oak.s:28970  .debug_str:000000000001f6eb .LASF3949
C:\Users\CYMR90~1\AppData\Local\Temp\ccaJ4oak.s:31362  .debug_str:0000000000028e67 .LASF3950
C:\Users\CYMR90~1\AppData\Local\Temp\ccaJ4oak.s:25839  .debug_str:0000000000012d57 .LASF3951
C:\Users\CYMR90~1\AppData\Local\Temp\ccaJ4oak.s:24627  .debug_str:000000000000e0d1 .LASF3952
C:\Users\CYMR90~1\AppData\Local\Temp\ccaJ4oak.s:21639  .debug_str:000000000000212b .LASF3953
C:\Users\CYMR90~1\AppData\Local\Temp\ccaJ4oak.s:23185  .debug_str:00000000000083dd .LASF3954
C:\Users\CYMR90~1\AppData\Local\Temp\ccaJ4oak.s:25531  .debug_str:0000000000011999 .LASF3955
C:\Users\CYMR90~1\AppData\Local\Temp\ccaJ4oak.s:27446  .debug_str:000000000001951c .LASF3956
C:\Users\CYMR90~1\AppData\Local\Temp\ccaJ4oak.s:25495  .debug_str:00000000000116a2 .LASF3957
C:\Users\CYMR90~1\AppData\Local\Temp\ccaJ4oak.s:21191  .debug_str:0000000000000561 .LASF3958
C:\Users\CYMR90~1\AppData\Local\Temp\ccaJ4oak.s:27922  .debug_str:000000000001b501 .LASF3959
C:\Users\CYMR90~1\AppData\Local\Temp\ccaJ4oak.s:31956  .debug_str:000000000002b1b7 .LASF3960
C:\Users\CYMR90~1\AppData\Local\Temp\ccaJ4oak.s:24555  .debug_str:000000000000dc7c .LASF3961
C:\Users\CYMR90~1\AppData\Local\Temp\ccaJ4oak.s:23563  .debug_str:0000000000009bba .LASF3962
C:\Users\CYMR90~1\AppData\Local\Temp\ccaJ4oak.s:27486  .debug_str:0000000000019760 .LASF3963
C:\Users\CYMR90~1\AppData\Local\Temp\ccaJ4oak.s:23437  .debug_str:00000000000093a4 .LASF3964
C:\Users\CYMR90~1\AppData\Local\Temp\ccaJ4oak.s:27382  .debug_str:000000000001907a .LASF3965
C:\Users\CYMR90~1\AppData\Local\Temp\ccaJ4oak.s:31322  .debug_str:0000000000028c60 .LASF3966
C:\Users\CYMR90~1\AppData\Local\Temp\ccaJ4oak.s:26335  .debug_str:0000000000014cc8 .LASF3967
C:\Users\CYMR90~1\AppData\Local\Temp\ccaJ4oak.s:27876  .debug_str:000000000001b201 .LASF3968
C:\Users\CYMR90~1\AppData\Local\Temp\ccaJ4oak.s:31890  .debug_str:000000000002ae18 .LASF3969
C:\Users\CYMR90~1\AppData\Local\Temp\ccaJ4oak.s:24491  .debug_str:000000000000d8e3 .LASF3970
C:\Users\CYMR90~1\AppData\Local\Temp\ccaJ4oak.s:23619  .debug_str:0000000000009f0c .LASF3971
C:\Users\CYMR90~1\AppData\Local\Temp\ccaJ4oak.s:25969  .debug_str:0000000000013657 .LASF3972
C:\Users\CYMR90~1\AppData\Local\Temp\ccaJ4oak.s:29394  .debug_str:0000000000021099 .LASF3973
C:\Users\CYMR90~1\AppData\Local\Temp\ccaJ4oak.s:31166  .debug_str:0000000000028171 .LASF3974
C:\Users\CYMR90~1\AppData\Local\Temp\ccaJ4oak.s:28468  .debug_str:000000000001d863 .LASF3975
C:\Users\CYMR90~1\AppData\Local\Temp\ccaJ4oak.s:23857  .debug_str:000000000000ae81 .LASF3976
C:\Users\CYMR90~1\AppData\Local\Temp\ccaJ4oak.s:27812  .debug_str:000000000001add2 .LASF3977
C:\Users\CYMR90~1\AppData\Local\Temp\ccaJ4oak.s:31818  .debug_str:000000000002a9d1 .LASF3978
C:\Users\CYMR90~1\AppData\Local\Temp\ccaJ4oak.s:27134  .debug_str:00000000000180a1 .LASF3979
C:\Users\CYMR90~1\AppData\Local\Temp\ccaJ4oak.s:25939  .debug_str:0000000000013408 .LASF3980
C:\Users\CYMR90~1\AppData\Local\Temp\ccaJ4oak.s:32314  .debug_str:000000000002c986 .LASF3981
C:\Users\CYMR90~1\AppData\Local\Temp\ccaJ4oak.s:25503  .debug_str:0000000000011735 .LASF3982
C:\Users\CYMR90~1\AppData\Local\Temp\ccaJ4oak.s:21929  .debug_str:0000000000003344 .LASF3983
C:\Users\CYMR90~1\AppData\Local\Temp\ccaJ4oak.s:31192  .debug_str:0000000000028330 .LASF3984
C:\Users\CYMR90~1\AppData\Local\Temp\ccaJ4oak.s:31764  .debug_str:000000000002a6a5 .LASF3985
C:\Users\CYMR90~1\AppData\Local\Temp\ccaJ4oak.s:22745  .debug_str:00000000000066bb .LASF3986
C:\Users\CYMR90~1\AppData\Local\Temp\ccaJ4oak.s:31754  .debug_str:000000000002a5ce .LASF3987
C:\Users\CYMR90~1\AppData\Local\Temp\ccaJ4oak.s:24357  .debug_str:000000000000cffc .LASF3988
C:\Users\CYMR90~1\AppData\Local\Temp\ccaJ4oak.s:28276  .debug_str:000000000001cafa .LASF3989
C:\Users\CYMR90~1\AppData\Local\Temp\ccaJ4oak.s:32250  .debug_str:000000000002c598 .LASF3990
C:\Users\CYMR90~1\AppData\Local\Temp\ccaJ4oak.s:22295  .debug_str:0000000000004b97 .LASF3991
C:\Users\CYMR90~1\AppData\Local\Temp\ccaJ4oak.s:26325  .debug_str:0000000000014c47 .LASF3992
C:\Users\CYMR90~1\AppData\Local\Temp\ccaJ4oak.s:25853  .debug_str:0000000000012e5e .LASF3993
C:\Users\CYMR90~1\AppData\Local\Temp\ccaJ4oak.s:23721  .debug_str:000000000000a5a4 .LASF3994
C:\Users\CYMR90~1\AppData\Local\Temp\ccaJ4oak.s:27666  .debug_str:000000000001a2c4 .LASF3995
C:\Users\CYMR90~1\AppData\Local\Temp\ccaJ4oak.s:25171  .debug_str:0000000000010242 .LASF3996
C:\Users\CYMR90~1\AppData\Local\Temp\ccaJ4oak.s:28054  .debug_str:000000000001bcd1 .LASF3997
C:\Users\CYMR90~1\AppData\Local\Temp\ccaJ4oak.s:28206  .debug_str:000000000001c5ec .LASF3998
C:\Users\CYMR90~1\AppData\Local\Temp\ccaJ4oak.s:29510  .debug_str:00000000000217d9 .LASF3999
C:\Users\CYMR90~1\AppData\Local\Temp\ccaJ4oak.s:24773  .debug_str:000000000000e9af .LASF4000
C:\Users\CYMR90~1\AppData\Local\Temp\ccaJ4oak.s:28656  .debug_str:000000000001e3c3 .LASF4001
C:\Users\CYMR90~1\AppData\Local\Temp\ccaJ4oak.s:21281  .debug_str:0000000000000b51 .LASF4002
C:\Users\CYMR90~1\AppData\Local\Temp\ccaJ4oak.s:29686  .debug_str:000000000002227d .LASF4003
C:\Users\CYMR90~1\AppData\Local\Temp\ccaJ4oak.s:29780  .debug_str:00000000000227e9 .LASF4004
C:\Users\CYMR90~1\AppData\Local\Temp\ccaJ4oak.s:31620  .debug_str:0000000000029e13 .LASF4005
C:\Users\CYMR90~1\AppData\Local\Temp\ccaJ4oak.s:24223  .debug_str:000000000000c74f .LASF4006
C:\Users\CYMR90~1\AppData\Local\Temp\ccaJ4oak.s:26345  .debug_str:0000000000014d70 .LASF4007
C:\Users\CYMR90~1\AppData\Local\Temp\ccaJ4oak.s:32118  .debug_str:000000000002bc5a .LASF4008
C:\Users\CYMR90~1\AppData\Local\Temp\ccaJ4oak.s:28682  .debug_str:000000000001e552 .LASF4009
C:\Users\CYMR90~1\AppData\Local\Temp\ccaJ4oak.s:28588  .debug_str:000000000001e028 .LASF4010
C:\Users\CYMR90~1\AppData\Local\Temp\ccaJ4oak.s:21223  .debug_str:0000000000000777 .LASF4011
C:\Users\CYMR90~1\AppData\Local\Temp\ccaJ4oak.s:32298  .debug_str:000000000002c859 .LASF4012
C:\Users\CYMR90~1\AppData\Local\Temp\ccaJ4oak.s:22203  .debug_str:000000000000450b .LASF4013
C:\Users\CYMR90~1\AppData\Local\Temp\ccaJ4oak.s:31556  .debug_str:0000000000029a38 .LASF4014
C:\Users\CYMR90~1\AppData\Local\Temp\ccaJ4oak.s:27548  .debug_str:0000000000019bfa .LASF4015
C:\Users\CYMR90~1\AppData\Local\Temp\ccaJ4oak.s:29870  .debug_str:0000000000022d9a .LASF4016
C:\Users\CYMR90~1\AppData\Local\Temp\ccaJ4oak.s:32058  .debug_str:000000000002b858 .LASF4017
C:\Users\CYMR90~1\AppData\Local\Temp\ccaJ4oak.s:24649  .debug_str:000000000000e213 .LASF4018
C:\Users\CYMR90~1\AppData\Local\Temp\ccaJ4oak.s:22507  .debug_str:0000000000005858 .LASF4019
C:\Users\CYMR90~1\AppData\Local\Temp\ccaJ4oak.s:21151  .debug_str:0000000000000321 .LASF4020
C:\Users\CYMR90~1\AppData\Local\Temp\ccaJ4oak.s:25709  .debug_str:0000000000012511 .LASF4021
C:\Users\CYMR90~1\AppData\Local\Temp\ccaJ4oak.s:22071  .debug_str:0000000000003bfb .LASF4022
C:\Users\CYMR90~1\AppData\Local\Temp\ccaJ4oak.s:26189  .debug_str:00000000000143eb .LASF4023
C:\Users\CYMR90~1\AppData\Local\Temp\ccaJ4oak.s:24099  .debug_str:000000000000bf58 .LASF4024
C:\Users\CYMR90~1\AppData\Local\Temp\ccaJ4oak.s:21435  .debug_str:00000000000014b1 .LASF4025
C:\Users\CYMR90~1\AppData\Local\Temp\ccaJ4oak.s:24413  .debug_str:000000000000d3c7 .LASF4026
C:\Users\CYMR90~1\AppData\Local\Temp\ccaJ4oak.s:28852  .debug_str:000000000001efb4 .LASF4027
C:\Users\CYMR90~1\AppData\Local\Temp\ccaJ4oak.s:29032  .debug_str:000000000001fab3 .LASF4028
C:\Users\CYMR90~1\AppData\Local\Temp\ccaJ4oak.s:32460  .debug_str:000000000002d2ef .LASF4029
C:\Users\CYMR90~1\AppData\Local\Temp\ccaJ4oak.s:21429  .debug_str:0000000000001455 .LASF4030
C:\Users\CYMR90~1\AppData\Local\Temp\ccaJ4oak.s:25639  .debug_str:000000000001208c .LASF4031
C:\Users\CYMR90~1\AppData\Local\Temp\ccaJ4oak.s:27976  .debug_str:000000000001b858 .LASF4032
C:\Users\CYMR90~1\AppData\Local\Temp\ccaJ4oak.s:30650  .debug_str:0000000000026085 .LASF4033
C:\Users\CYMR90~1\AppData\Local\Temp\ccaJ4oak.s:26371  .debug_str:0000000000014f3f .LASF4034
C:\Users\CYMR90~1\AppData\Local\Temp\ccaJ4oak.s:29584  .debug_str:0000000000021c75 .LASF4035
C:\Users\CYMR90~1\AppData\Local\Temp\ccaJ4oak.s:21885  .debug_str:000000000000305b .LASF4036
C:\Users\CYMR90~1\AppData\Local\Temp\ccaJ4oak.s:23227  .debug_str:00000000000086ad .LASF4037
C:\Users\CYMR90~1\AppData\Local\Temp\ccaJ4oak.s:27164  .debug_str:000000000001826c .LASF4038
C:\Users\CYMR90~1\AppData\Local\Temp\ccaJ4oak.s:31112  .debug_str:0000000000027d91 .LASF4039
C:\Users\CYMR90~1\AppData\Local\Temp\ccaJ4oak.s:31104  .debug_str:0000000000027d12 .LASF4040
C:\Users\CYMR90~1\AppData\Local\Temp\ccaJ4oak.s:32318  .debug_str:000000000002c9c9 .LASF4041
C:\Users\CYMR90~1\AppData\Local\Temp\ccaJ4oak.s:31676  .debug_str:000000000002a142 .LASF4042
C:\Users\CYMR90~1\AppData\Local\Temp\ccaJ4oak.s:27368  .debug_str:0000000000018f59 .LASF4043
C:\Users\CYMR90~1\AppData\Local\Temp\ccaJ4oak.s:21757  .debug_str:000000000000289e .LASF4044
C:\Users\CYMR90~1\AppData\Local\Temp\ccaJ4oak.s:30556  .debug_str:0000000000025af0 .LASF4045
C:\Users\CYMR90~1\AppData\Local\Temp\ccaJ4oak.s:23167  .debug_str:00000000000082bf .LASF4046
C:\Users\CYMR90~1\AppData\Local\Temp\ccaJ4oak.s:27090  .debug_str:0000000000017de5 .LASF4047
C:\Users\CYMR90~1\AppData\Local\Temp\ccaJ4oak.s:31882  .debug_str:000000000002ad7d .LASF4048
C:\Users\CYMR90~1\AppData\Local\Temp\ccaJ4oak.s:22095  .debug_str:0000000000003db4 .LASF4049
C:\Users\CYMR90~1\AppData\Local\Temp\ccaJ4oak.s:27588  .debug_str:0000000000019e6f .LASF4050
C:\Users\CYMR90~1\AppData\Local\Temp\ccaJ4oak.s:31614  .debug_str:0000000000029db9 .LASF4051
C:\Users\CYMR90~1\AppData\Local\Temp\ccaJ4oak.s:30028  .debug_str:00000000000236eb .LASF4052
C:\Users\CYMR90~1\AppData\Local\Temp\ccaJ4oak.s:29066  .debug_str:000000000001fcd7 .LASF4053
C:\Users\CYMR90~1\AppData\Local\Temp\ccaJ4oak.s:30390  .debug_str:0000000000024e70 .LASF4054
C:\Users\CYMR90~1\AppData\Local\Temp\ccaJ4oak.s:32410  .debug_str:000000000002cff6 .LASF4055
C:\Users\CYMR90~1\AppData\Local\Temp\ccaJ4oak.s:27030  .debug_str:0000000000017a75 .LASF4056
C:\Users\CYMR90~1\AppData\Local\Temp\ccaJ4oak.s:23319  .debug_str:0000000000008c4c .LASF4057
C:\Users\CYMR90~1\AppData\Local\Temp\ccaJ4oak.s:27758  .debug_str:000000000001aa74 .LASF4058
C:\Users\CYMR90~1\AppData\Local\Temp\ccaJ4oak.s:27998  .debug_str:000000000001b9bd .LASF4059
C:\Users\CYMR90~1\AppData\Local\Temp\ccaJ4oak.s:31546  .debug_str:00000000000299ae .LASF4060
C:\Users\CYMR90~1\AppData\Local\Temp\ccaJ4oak.s:24153  .debug_str:000000000000c2ed .LASF4061
C:\Users\CYMR90~1\AppData\Local\Temp\ccaJ4oak.s:24569  .debug_str:000000000000dd23 .LASF4062
C:\Users\CYMR90~1\AppData\Local\Temp\ccaJ4oak.s:25035  .debug_str:000000000000f9d5 .LASF4063
C:\Users\CYMR90~1\AppData\Local\Temp\ccaJ4oak.s:23027  .debug_str:00000000000078b0 .LASF4064
C:\Users\CYMR90~1\AppData\Local\Temp\ccaJ4oak.s:26966  .debug_str:000000000001763e .LASF4065
C:\Users\CYMR90~1\AppData\Local\Temp\ccaJ4oak.s:30006  .debug_str:000000000002353f .LASF4066
C:\Users\CYMR90~1\AppData\Local\Temp\ccaJ4oak.s:23499  .debug_str:0000000000009781 .LASF4067
C:\Users\CYMR90~1\AppData\Local\Temp\ccaJ4oak.s:32374  .debug_str:000000000002cd6f .LASF4068
C:\Users\CYMR90~1\AppData\Local\Temp\ccaJ4oak.s:31484  .debug_str:00000000000295d5 .LASF4069
C:\Users\CYMR90~1\AppData\Local\Temp\ccaJ4oak.s:24093  .debug_str:000000000000bedf .LASF4070
C:\Users\CYMR90~1\AppData\Local\Temp\ccaJ4oak.s:28074  .debug_str:000000000001be10 .LASF4071
C:\Users\CYMR90~1\AppData\Local\Temp\ccaJ4oak.s:30412  .debug_str:0000000000024ffe .LASF4072
C:\Users\CYMR90~1\AppData\Local\Temp\ccaJ4oak.s:26431  .debug_str:0000000000015319 .LASF4073
C:\Users\CYMR90~1\AppData\Local\Temp\ccaJ4oak.s:26908  .debug_str:00000000000172ed .LASF4074
C:\Users\CYMR90~1\AppData\Local\Temp\ccaJ4oak.s:28814  .debug_str:000000000001ed66 .LASF4075
C:\Users\CYMR90~1\AppData\Local\Temp\ccaJ4oak.s:21333  .debug_str:0000000000000e43 .LASF4076
C:\Users\CYMR90~1\AppData\Local\Temp\ccaJ4oak.s:27398  .debug_str:0000000000019243 .LASF4077
C:\Users\CYMR90~1\AppData\Local\Temp\ccaJ4oak.s:26914  .debug_str:0000000000017359 .LASF4078
C:\Users\CYMR90~1\AppData\Local\Temp\ccaJ4oak.s:29230  .debug_str:000000000002073e .LASF4079
C:\Users\CYMR90~1\AppData\Local\Temp\ccaJ4oak.s:31594  .debug_str:0000000000029c76 .LASF4080
C:\Users\CYMR90~1\AppData\Local\Temp\ccaJ4oak.s:31902  .debug_str:000000000002aec4 .LASF4081
C:\Users\CYMR90~1\AppData\Local\Temp\ccaJ4oak.s:24951  .debug_str:000000000000f440 .LASF4082
C:\Users\CYMR90~1\AppData\Local\Temp\ccaJ4oak.s:32324  .debug_str:000000000002ca42 .LASF4083
C:\Users\CYMR90~1\AppData\Local\Temp\ccaJ4oak.s:30782  .debug_str:00000000000268bd .LASF4084
C:\Users\CYMR90~1\AppData\Local\Temp\ccaJ4oak.s:24901  .debug_str:000000000000f109 .LASF4085
C:\Users\CYMR90~1\AppData\Local\Temp\ccaJ4oak.s:27330  .debug_str:0000000000018d17 .LASF4086
C:\Users\CYMR90~1\AppData\Local\Temp\ccaJ4oak.s:30434  .debug_str:0000000000025140 .LASF4087
C:\Users\CYMR90~1\AppData\Local\Temp\ccaJ4oak.s:30262  .debug_str:000000000002461c .LASF4088
C:\Users\CYMR90~1\AppData\Local\Temp\ccaJ4oak.s:27904  .debug_str:000000000001b3ee .LASF4089
C:\Users\CYMR90~1\AppData\Local\Temp\ccaJ4oak.s:31832  .debug_str:000000000002aa7f .LASF4090
C:\Users\CYMR90~1\AppData\Local\Temp\ccaJ4oak.s:24441  .debug_str:000000000000d5ce .LASF4091
C:\Users\CYMR90~1\AppData\Local\Temp\ccaJ4oak.s:30784  .debug_str:00000000000268e3 .LASF4092
C:\Users\CYMR90~1\AppData\Local\Temp\ccaJ4oak.s:26815  .debug_str:0000000000016b21 .LASF4093
C:\Users\CYMR90~1\AppData\Local\Temp\ccaJ4oak.s:23323  .debug_str:0000000000008c86 .LASF4094
C:\Users\CYMR90~1\AppData\Local\Temp\ccaJ4oak.s:27256  .debug_str:00000000000187b1 .LASF4095
C:\Users\CYMR90~1\AppData\Local\Temp\ccaJ4oak.s:25301  .debug_str:0000000000010a93 .LASF4096
C:\Users\CYMR90~1\AppData\Local\Temp\ccaJ4oak.s:23897  .debug_str:000000000000b1d7 .LASF4097
C:\Users\CYMR90~1\AppData\Local\Temp\ccaJ4oak.s:27290  .debug_str:0000000000018a16 .LASF4098
C:\Users\CYMR90~1\AppData\Local\Temp\ccaJ4oak.s:27510  .debug_str:0000000000019932 .LASF4099
C:\Users\CYMR90~1\AppData\Local\Temp\ccaJ4oak.s:31986  .debug_str:000000000002b38c .LASF4100
C:\Users\CYMR90~1\AppData\Local\Temp\ccaJ4oak.s:22951  .debug_str:000000000000743f .LASF4101
C:\Users\CYMR90~1\AppData\Local\Temp\ccaJ4oak.s:32264  .debug_str:000000000002c679 .LASF4102
C:\Users\CYMR90~1\AppData\Local\Temp\ccaJ4oak.s:29284  .debug_str:0000000000020a78 .LASF4103
C:\Users\CYMR90~1\AppData\Local\Temp\ccaJ4oak.s:22893  .debug_str:000000000000700c .LASF4104
C:\Users\CYMR90~1\AppData\Local\Temp\ccaJ4oak.s:31228  .debug_str:0000000000028606 .LASF4105
C:\Users\CYMR90~1\AppData\Local\Temp\ccaJ4oak.s:23825  .debug_str:000000000000ac91 .LASF4106
C:\Users\CYMR90~1\AppData\Local\Temp\ccaJ4oak.s:22497  .debug_str:0000000000005780 .LASF4107
C:\Users\CYMR90~1\AppData\Local\Temp\ccaJ4oak.s:23265  .debug_str:00000000000088e1 .LASF4108
C:\Users\CYMR90~1\AppData\Local\Temp\ccaJ4oak.s:24313  .debug_str:000000000000cd5d .LASF4109
C:\Users\CYMR90~1\AppData\Local\Temp\ccaJ4oak.s:28224  .debug_str:000000000001c71d .LASF4110
C:\Users\CYMR90~1\AppData\Local\Temp\ccaJ4oak.s:32198  .debug_str:000000000002c1c3 .LASF4111
C:\Users\CYMR90~1\AppData\Local\Temp\ccaJ4oak.s:24889  .debug_str:000000000000f064 .LASF4112
C:\Users\CYMR90~1\AppData\Local\Temp\ccaJ4oak.s:29006  .debug_str:000000000001f908 .LASF4113
C:\Users\CYMR90~1\AppData\Local\Temp\ccaJ4oak.s:29638  .debug_str:0000000000021fb7 .LASF4114
C:\Users\CYMR90~1\AppData\Local\Temp\ccaJ4oak.s:32014  .debug_str:000000000002b582 .LASF4115
C:\Users\CYMR90~1\AppData\Local\Temp\ccaJ4oak.s:27716  .debug_str:000000000001a736 .LASF4116
C:\Users\CYMR90~1\AppData\Local\Temp\ccaJ4oak.s:24083  .debug_str:000000000000bdfc .LASF4117
C:\Users\CYMR90~1\AppData\Local\Temp\ccaJ4oak.s:27684  .debug_str:000000000001a590 .LASF4118
C:\Users\CYMR90~1\AppData\Local\Temp\ccaJ4oak.s:28156  .debug_str:000000000001c341 .LASF4119
C:\Users\CYMR90~1\AppData\Local\Temp\ccaJ4oak.s:21229  .debug_str:00000000000007d6 .LASF4120
C:\Users\CYMR90~1\AppData\Local\Temp\ccaJ4oak.s:24237  .debug_str:000000000000c818 .LASF4121
C:\Users\CYMR90~1\AppData\Local\Temp\ccaJ4oak.s:28690  .debug_str:000000000001e5e1 .LASF4122
C:\Users\CYMR90~1\AppData\Local\Temp\ccaJ4oak.s:22569  .debug_str:0000000000005c18 .LASF4123
C:\Users\CYMR90~1\AppData\Local\Temp\ccaJ4oak.s:23693  .debug_str:000000000000a3bf .LASF4124
C:\Users\CYMR90~1\AppData\Local\Temp\ccaJ4oak.s:27630  .debug_str:000000000001a0c8 .LASF4125
C:\Users\CYMR90~1\AppData\Local\Temp\ccaJ4oak.s:31568  .debug_str:0000000000029af5 .LASF4126
C:\Users\CYMR90~1\AppData\Local\Temp\ccaJ4oak.s:24177  .debug_str:000000000000c45d .LASF4127
C:\Users\CYMR90~1\AppData\Local\Temp\ccaJ4oak.s:28102  .debug_str:000000000001bfed .LASF4128
C:\Users\CYMR90~1\AppData\Local\Temp\ccaJ4oak.s:28332  .debug_str:000000000001cf25 .LASF4129
C:\Users\CYMR90~1\AppData\Local\Temp\ccaJ4oak.s:27778  .debug_str:000000000001abce .LASF4130
C:\Users\CYMR90~1\AppData\Local\Temp\ccaJ4oak.s:28626  .debug_str:000000000001e227 .LASF4131
C:\Users\CYMR90~1\AppData\Local\Temp\ccaJ4oak.s:32266  .debug_str:000000000002c69f .LASF4132
C:\Users\CYMR90~1\AppData\Local\Temp\ccaJ4oak.s:23781  .debug_str:000000000000aa12 .LASF4133
C:\Users\CYMR90~1\AppData\Local\Temp\ccaJ4oak.s:22231  .debug_str:00000000000046fa .LASF4134
C:\Users\CYMR90~1\AppData\Local\Temp\ccaJ4oak.s:26291  .debug_str:0000000000014a40 .LASF4135
C:\Users\CYMR90~1\AppData\Local\Temp\ccaJ4oak.s:30238  .debug_str:000000000002445e .LASF4136
C:\Users\CYMR90~1\AppData\Local\Temp\ccaJ4oak.s:22821  .debug_str:0000000000006b78 .LASF4137
C:\Users\CYMR90~1\AppData\Local\Temp\ccaJ4oak.s:29716  .debug_str:0000000000022440 .LASF4138
C:\Users\CYMR90~1\AppData\Local\Temp\ccaJ4oak.s:32096  .debug_str:000000000002baf3 .LASF4139
C:\Users\CYMR90~1\AppData\Local\Temp\ccaJ4oak.s:22805  .debug_str:0000000000006a71 .LASF4140
C:\Users\CYMR90~1\AppData\Local\Temp\ccaJ4oak.s:27250  .debug_str:0000000000018765 .LASF4141
C:\Users\CYMR90~1\AppData\Local\Temp\ccaJ4oak.s:31290  .debug_str:0000000000028a68 .LASF4142
C:\Users\CYMR90~1\AppData\Local\Temp\ccaJ4oak.s:30626  .debug_str:0000000000025f09 .LASF4143
C:\Users\CYMR90~1\AppData\Local\Temp\ccaJ4oak.s:26225  .debug_str:00000000000145c7 .LASF4144
C:\Users\CYMR90~1\AppData\Local\Temp\ccaJ4oak.s:30324  .debug_str:00000000000249ed .LASF4145
C:\Users\CYMR90~1\AppData\Local\Temp\ccaJ4oak.s:30918  .debug_str:000000000002710e .LASF4146
C:\Users\CYMR90~1\AppData\Local\Temp\ccaJ4oak.s:28434  .debug_str:000000000001d612 .LASF4147
C:\Users\CYMR90~1\AppData\Local\Temp\ccaJ4oak.s:29160  .debug_str:0000000000020273 .LASF4148
C:\Users\CYMR90~1\AppData\Local\Temp\ccaJ4oak.s:26573  .debug_str:0000000000015b40 .LASF4149
C:\Users\CYMR90~1\AppData\Local\Temp\ccaJ4oak.s:28868  .debug_str:000000000001f0c4 .LASF4150
C:\Users\CYMR90~1\AppData\Local\Temp\ccaJ4oak.s:24577  .debug_str:000000000000ddaa .LASF4151
C:\Users\CYMR90~1\AppData\Local\Temp\ccaJ4oak.s:23141  .debug_str:00000000000080a0 .LASF4152
C:\Users\CYMR90~1\AppData\Local\Temp\ccaJ4oak.s:30514  .debug_str:000000000002577c .LASF4153
C:\Users\CYMR90~1\AppData\Local\Temp\ccaJ4oak.s:32120  .debug_str:000000000002bc80 .LASF4154
C:\Users\CYMR90~1\AppData\Local\Temp\ccaJ4oak.s:23491  .debug_str:0000000000009708 .LASF4155
C:\Users\CYMR90~1\AppData\Local\Temp\ccaJ4oak.s:26629  .debug_str:0000000000015eee .LASF4156
C:\Users\CYMR90~1\AppData\Local\Temp\ccaJ4oak.s:30572  .debug_str:0000000000025bdd .LASF4157
C:\Users\CYMR90~1\AppData\Local\Temp\ccaJ4oak.s:25703  .debug_str:00000000000124b6 .LASF4158
C:\Users\CYMR90~1\AppData\Local\Temp\ccaJ4oak.s:25755  .debug_str:00000000000127f9 .LASF4159
C:\Users\CYMR90~1\AppData\Local\Temp\ccaJ4oak.s:24341  .debug_str:000000000000cecc .LASF4160
C:\Users\CYMR90~1\AppData\Local\Temp\ccaJ4oak.s:23751  .debug_str:000000000000a739 .LASF4161
C:\Users\CYMR90~1\AppData\Local\Temp\ccaJ4oak.s:27706  .debug_str:000000000001a6a3 .LASF4162
C:\Users\CYMR90~1\AppData\Local\Temp\ccaJ4oak.s:24769  .debug_str:000000000000e979 .LASF4163
C:\Users\CYMR90~1\AppData\Local\Temp\ccaJ4oak.s:22609  .debug_str:0000000000005e5e .LASF4164
C:\Users\CYMR90~1\AppData\Local\Temp\ccaJ4oak.s:28896  .debug_str:000000000001f27b .LASF4165
C:\Users\CYMR90~1\AppData\Local\Temp\ccaJ4oak.s:30510  .debug_str:000000000002572a .LASF4166
C:\Users\CYMR90~1\AppData\Local\Temp\ccaJ4oak.s:30302  .debug_str:0000000000024893 .LASF4167
C:\Users\CYMR90~1\AppData\Local\Temp\ccaJ4oak.s:22161  .debug_str:0000000000004275 .LASF4168
C:\Users\CYMR90~1\AppData\Local\Temp\ccaJ4oak.s:27874  .debug_str:000000000001b1db .LASF4169
C:\Users\CYMR90~1\AppData\Local\Temp\ccaJ4oak.s:25367  .debug_str:0000000000010f1e .LASF4170
C:\Users\CYMR90~1\AppData\Local\Temp\ccaJ4oak.s:27622  .debug_str:000000000001a051 .LASF4171
C:\Users\CYMR90~1\AppData\Local\Temp\ccaJ4oak.s:31562  .debug_str:0000000000029a8b .LASF4172
C:\Users\CYMR90~1\AppData\Local\Temp\ccaJ4oak.s:30900  .debug_str:0000000000026ff6 .LASF4173
C:\Users\CYMR90~1\AppData\Local\Temp\ccaJ4oak.s:26503  .debug_str:000000000001570e .LASF4174
C:\Users\CYMR90~1\AppData\Local\Temp\ccaJ4oak.s:23477  .debug_str:00000000000095de .LASF4175
C:\Users\CYMR90~1\AppData\Local\Temp\ccaJ4oak.s:23035  .debug_str:0000000000007942 .LASF4176
C:\Users\CYMR90~1\AppData\Local\Temp\ccaJ4oak.s:30456  .debug_str:0000000000025309 .LASF4177
C:\Users\CYMR90~1\AppData\Local\Temp\ccaJ4oak.s:32454  .debug_str:000000000002d28b .LASF4178
C:\Users\CYMR90~1\AppData\Local\Temp\ccaJ4oak.s:22331  .debug_str:0000000000004db8 .LASF4179
C:\Users\CYMR90~1\AppData\Local\Temp\ccaJ4oak.s:24717  .debug_str:000000000000e625 .LASF4180
C:\Users\CYMR90~1\AppData\Local\Temp\ccaJ4oak.s:22563  .debug_str:0000000000005b84 .LASF4181
C:\Users\CYMR90~1\AppData\Local\Temp\ccaJ4oak.s:24105  .debug_str:000000000000bfb6 .LASF4182
C:\Users\CYMR90~1\AppData\Local\Temp\ccaJ4oak.s:25429  .debug_str:0000000000011277 .LASF4183
C:\Users\CYMR90~1\AppData\Local\Temp\ccaJ4oak.s:23591  .debug_str:0000000000009d66 .LASF4184
C:\Users\CYMR90~1\AppData\Local\Temp\ccaJ4oak.s:30668  .debug_str:00000000000261dc .LASF4185
C:\Users\CYMR90~1\AppData\Local\Temp\ccaJ4oak.s:27000  .debug_str:000000000001785f .LASF4186
C:\Users\CYMR90~1\AppData\Local\Temp\ccaJ4oak.s:27502  .debug_str:0000000000019888 .LASF4187
C:\Users\CYMR90~1\AppData\Local\Temp\ccaJ4oak.s:28214  .debug_str:000000000001c666 .LASF4188
C:\Users\CYMR90~1\AppData\Local\Temp\ccaJ4oak.s:27506  .debug_str:00000000000198e7 .LASF4189
C:\Users\CYMR90~1\AppData\Local\Temp\ccaJ4oak.s:31438  .debug_str:000000000002932e .LASF4190
C:\Users\CYMR90~1\AppData\Local\Temp\ccaJ4oak.s:24037  .debug_str:000000000000bb40 .LASF4191
C:\Users\CYMR90~1\AppData\Local\Temp\ccaJ4oak.s:23911  .debug_str:000000000000b2d5 .LASF4192
C:\Users\CYMR90~1\AppData\Local\Temp\ccaJ4oak.s:25065  .debug_str:000000000000fb79 .LASF4193
C:\Users\CYMR90~1\AppData\Local\Temp\ccaJ4oak.s:22903  .debug_str:0000000000007095 .LASF4194
C:\Users\CYMR90~1\AppData\Local\Temp\ccaJ4oak.s:26942  .debug_str:00000000000174f3 .LASF4195
C:\Users\CYMR90~1\AppData\Local\Temp\ccaJ4oak.s:30892  .debug_str:0000000000026f7e .LASF4196
C:\Users\CYMR90~1\AppData\Local\Temp\ccaJ4oak.s:29378  .debug_str:0000000000020fbb .LASF4197
C:\Users\CYMR90~1\AppData\Local\Temp\ccaJ4oak.s:27434  .debug_str:0000000000019445 .LASF4198
C:\Users\CYMR90~1\AppData\Local\Temp\ccaJ4oak.s:22731  .debug_str:0000000000006601 .LASF4199
C:\Users\CYMR90~1\AppData\Local\Temp\ccaJ4oak.s:23977  .debug_str:000000000000b6f9 .LASF4200
C:\Users\CYMR90~1\AppData\Local\Temp\ccaJ4oak.s:27426  .debug_str:00000000000193cf .LASF4201
C:\Users\CYMR90~1\AppData\Local\Temp\ccaJ4oak.s:25597  .debug_str:0000000000011dd1 .LASF4202
C:\Users\CYMR90~1\AppData\Local\Temp\ccaJ4oak.s:22643  .debug_str:00000000000060a6 .LASF4203
C:\Users\CYMR90~1\AppData\Local\Temp\ccaJ4oak.s:26880  .debug_str:000000000001715e .LASF4204
C:\Users\CYMR90~1\AppData\Local\Temp\ccaJ4oak.s:30818  .debug_str:0000000000026adf .LASF4205
C:\Users\CYMR90~1\AppData\Local\Temp\ccaJ4oak.s:23421  .debug_str:000000000000929e .LASF4206
C:\Users\CYMR90~1\AppData\Local\Temp\ccaJ4oak.s:21491  .debug_str:000000000000187c .LASF4207
C:\Users\CYMR90~1\AppData\Local\Temp\ccaJ4oak.s:27542  .debug_str:0000000000019ba2 .LASF4208
C:\Users\CYMR90~1\AppData\Local\Temp\ccaJ4oak.s:23909  .debug_str:000000000000b2af .LASF4209
C:\Users\CYMR90~1\AppData\Local\Temp\ccaJ4oak.s:22677  .debug_str:00000000000062f0 .LASF4210
C:\Users\CYMR90~1\AppData\Local\Temp\ccaJ4oak.s:31782  .debug_str:000000000002a7bc .LASF4211
C:\Users\CYMR90~1\AppData\Local\Temp\ccaJ4oak.s:24481  .debug_str:000000000000d86d .LASF4212
C:\Users\CYMR90~1\AppData\Local\Temp\ccaJ4oak.s:21497  .debug_str:00000000000018e2 .LASF4213
C:\Users\CYMR90~1\AppData\Local\Temp\ccaJ4oak.s:30758  .debug_str:0000000000026734 .LASF4214
C:\Users\CYMR90~1\AppData\Local\Temp\ccaJ4oak.s:25135  .debug_str:0000000000010003 .LASF4215
C:\Users\CYMR90~1\AppData\Local\Temp\ccaJ4oak.s:27606  .debug_str:0000000000019f61 .LASF4216
C:\Users\CYMR90~1\AppData\Local\Temp\ccaJ4oak.s:29774  .debug_str:000000000002279a .LASF4217
C:\Users\CYMR90~1\AppData\Local\Temp\ccaJ4oak.s:32148  .debug_str:000000000002be4d .LASF4218
C:\Users\CYMR90~1\AppData\Local\Temp\ccaJ4oak.s:27802  .debug_str:000000000001ad34 .LASF4219
C:\Users\CYMR90~1\AppData\Local\Temp\ccaJ4oak.s:31720  .debug_str:000000000002a397 .LASF4220
C:\Users\CYMR90~1\AppData\Local\Temp\ccaJ4oak.s:28642  .debug_str:000000000001e2fc .LASF4221
C:\Users\CYMR90~1\AppData\Local\Temp\ccaJ4oak.s:25081  .debug_str:000000000000fc6f .LASF4222
C:\Users\CYMR90~1\AppData\Local\Temp\ccaJ4oak.s:25415  .debug_str:0000000000011197 .LASF4223
C:\Users\CYMR90~1\AppData\Local\Temp\ccaJ4oak.s:23293  .debug_str:0000000000008ab3 .LASF4224
C:\Users\CYMR90~1\AppData\Local\Temp\ccaJ4oak.s:23369  .debug_str:0000000000008fb4 .LASF4225
C:\Users\CYMR90~1\AppData\Local\Temp\ccaJ4oak.s:26229  .debug_str:0000000000014626 .LASF4226
C:\Users\CYMR90~1\AppData\Local\Temp\ccaJ4oak.s:24317  .debug_str:000000000000cd99 .LASF4227
C:\Users\CYMR90~1\AppData\Local\Temp\ccaJ4oak.s:27732  .debug_str:000000000001a874 .LASF4228
C:\Users\CYMR90~1\AppData\Local\Temp\ccaJ4oak.s:26107  .debug_str:0000000000013ebc .LASF4229
C:\Users\CYMR90~1\AppData\Local\Temp\ccaJ4oak.s:28686  .debug_str:000000000001e5a8 .LASF4230
C:\Users\CYMR90~1\AppData\Local\Temp\ccaJ4oak.s:29442  .debug_str:0000000000021353 .LASF4231
C:\Users\CYMR90~1\AppData\Local\Temp\ccaJ4oak.s:25543  .debug_str:0000000000011a45 .LASF4232
C:\Users\CYMR90~1\AppData\Local\Temp\ccaJ4oak.s:23823  .debug_str:000000000000ac6b .LASF4233
C:\Users\CYMR90~1\AppData\Local\Temp\ccaJ4oak.s:21933  .debug_str:0000000000003382 .LASF4234
C:\Users\CYMR90~1\AppData\Local\Temp\ccaJ4oak.s:25911  .debug_str:0000000000013242 .LASF4235
C:\Users\CYMR90~1\AppData\Local\Temp\ccaJ4oak.s:29480  .debug_str:000000000002162b .LASF4236
C:\Users\CYMR90~1\AppData\Local\Temp\ccaJ4oak.s:22401  .debug_str:00000000000051e0 .LASF4237
C:\Users\CYMR90~1\AppData\Local\Temp\ccaJ4oak.s:26367  .debug_str:0000000000014ef7 .LASF4238
C:\Users\CYMR90~1\AppData\Local\Temp\ccaJ4oak.s:30312  .debug_str:000000000002493b .LASF4239
C:\Users\CYMR90~1\AppData\Local\Temp\ccaJ4oak.s:22895  .debug_str:0000000000007032 .LASF4240
C:\Users\CYMR90~1\AppData\Local\Temp\ccaJ4oak.s:22175  .debug_str:000000000000434b .LASF4241
C:\Users\CYMR90~1\AppData\Local\Temp\ccaJ4oak.s:30884  .debug_str:0000000000026ee3 .LASF4242
C:\Users\CYMR90~1\AppData\Local\Temp\ccaJ4oak.s:29084  .debug_str:000000000001fdcf .LASF4243
C:\Users\CYMR90~1\AppData\Local\Temp\ccaJ4oak.s:25861  .debug_str:0000000000012ef9 .LASF4244
C:\Users\CYMR90~1\AppData\Local\Temp\ccaJ4oak.s:29764  .debug_str:00000000000226e8 .LASF4245
C:\Users\CYMR90~1\AppData\Local\Temp\ccaJ4oak.s:25689  .debug_str:00000000000123bf .LASF4246
C:\Users\CYMR90~1\AppData\Local\Temp\ccaJ4oak.s:26411  .debug_str:00000000000151f3 .LASF4247
C:\Users\CYMR90~1\AppData\Local\Temp\ccaJ4oak.s:32322  .debug_str:000000000002ca1c .LASF4248
C:\Users\CYMR90~1\AppData\Local\Temp\ccaJ4oak.s:31042  .debug_str:00000000000278e7 .LASF4249
C:\Users\CYMR90~1\AppData\Local\Temp\ccaJ4oak.s:26783  .debug_str:00000000000168db .LASF4250
C:\Users\CYMR90~1\AppData\Local\Temp\ccaJ4oak.s:25275  .debug_str:000000000001091d .LASF4251
C:\Users\CYMR90~1\AppData\Local\Temp\ccaJ4oak.s:23413  .debug_str:000000000000922f .LASF4252
C:\Users\CYMR90~1\AppData\Local\Temp\ccaJ4oak.s:31830  .debug_str:000000000002aa59 .LASF4253
C:\Users\CYMR90~1\AppData\Local\Temp\ccaJ4oak.s:29690  .debug_str:00000000000222c6 .LASF4254
C:\Users\CYMR90~1\AppData\Local\Temp\ccaJ4oak.s:26667  .debug_str:0000000000016192 .LASF4255
C:\Users\CYMR90~1\AppData\Local\Temp\ccaJ4oak.s:26241  .debug_str:00000000000146ec .LASF4256
C:\Users\CYMR90~1\AppData\Local\Temp\ccaJ4oak.s:24985  .debug_str:000000000000f64c .LASF4257
C:\Users\CYMR90~1\AppData\Local\Temp\ccaJ4oak.s:22767  .debug_str:00000000000067e0 .LASF4258
C:\Users\CYMR90~1\AppData\Local\Temp\ccaJ4oak.s:26713  .debug_str:000000000001644a .LASF4259
C:\Users\CYMR90~1\AppData\Local\Temp\ccaJ4oak.s:30750  .debug_str:00000000000266ba .LASF4260
C:\Users\CYMR90~1\AppData\Local\Temp\ccaJ4oak.s:23359  .debug_str:0000000000008f29 .LASF4261
C:\Users\CYMR90~1\AppData\Local\Temp\ccaJ4oak.s:27286  .debug_str:00000000000189b6 .LASF4262
C:\Users\CYMR90~1\AppData\Local\Temp\ccaJ4oak.s:24371  .debug_str:000000000000d0e6 .LASF4263
C:\Users\CYMR90~1\AppData\Local\Temp\ccaJ4oak.s:22207  .debug_str:0000000000004555 .LASF4264
C:\Users\CYMR90~1\AppData\Local\Temp\ccaJ4oak.s:26171  .debug_str:00000000000142e0 .LASF4265
C:\Users\CYMR90~1\AppData\Local\Temp\ccaJ4oak.s:24123  .debug_str:000000000000c10b .LASF4266
C:\Users\CYMR90~1\AppData\Local\Temp\ccaJ4oak.s:22699  .debug_str:0000000000006429 .LASF4267
C:\Users\CYMR90~1\AppData\Local\Temp\ccaJ4oak.s:21815  .debug_str:0000000000002c47 .LASF4268
C:\Users\CYMR90~1\AppData\Local\Temp\ccaJ4oak.s:32328  .debug_str:000000000002ca8c .LASF4269
C:\Users\CYMR90~1\AppData\Local\Temp\ccaJ4oak.s:23307  .debug_str:0000000000008b9d .LASF4270
C:\Users\CYMR90~1\AppData\Local\Temp\ccaJ4oak.s:27218  .debug_str:00000000000185bd .LASF4271
C:\Users\CYMR90~1\AppData\Local\Temp\ccaJ4oak.s:21565  .debug_str:0000000000001d03 .LASF4272
C:\Users\CYMR90~1\AppData\Local\Temp\ccaJ4oak.s:28220  .debug_str:000000000001c6bd .LASF4273
C:\Users\CYMR90~1\AppData\Local\Temp\ccaJ4oak.s:26101  .debug_str:0000000000013e6f .LASF4274
C:\Users\CYMR90~1\AppData\Local\Temp\ccaJ4oak.s:30048  .debug_str:000000000002383b .LASF4275
C:\Users\CYMR90~1\AppData\Local\Temp\ccaJ4oak.s:26513  .debug_str:00000000000157c0 .LASF4276
C:\Users\CYMR90~1\AppData\Local\Temp\ccaJ4oak.s:31220  .debug_str:0000000000028580 .LASF4277
C:\Users\CYMR90~1\AppData\Local\Temp\ccaJ4oak.s:24497  .debug_str:000000000000d94f .LASF4278
C:\Users\CYMR90~1\AppData\Local\Temp\ccaJ4oak.s:23215  .debug_str:0000000000008605 .LASF4279
C:\Users\CYMR90~1\AppData\Local\Temp\ccaJ4oak.s:29130  .debug_str:00000000000200e1 .LASF4280
C:\Users\CYMR90~1\AppData\Local\Temp\ccaJ4oak.s:31100  .debug_str:0000000000027cca .LASF4281
C:\Users\CYMR90~1\AppData\Local\Temp\ccaJ4oak.s:23697  .debug_str:000000000000a3fd .LASF4282
C:\Users\CYMR90~1\AppData\Local\Temp\ccaJ4oak.s:32130  .debug_str:000000000002bd07 .LASF4283
C:\Users\CYMR90~1\AppData\Local\Temp\ccaJ4oak.s:22999  .debug_str:00000000000076ee .LASF4284
C:\Users\CYMR90~1\AppData\Local\Temp\ccaJ4oak.s:22559  .debug_str:0000000000005b44 .LASF4285
C:\Users\CYMR90~1\AppData\Local\Temp\ccaJ4oak.s:25669  .debug_str:00000000000122ad .LASF4286
C:\Users\CYMR90~1\AppData\Local\Temp\ccaJ4oak.s:26561  .debug_str:0000000000015a8b .LASF4287
C:\Users\CYMR90~1\AppData\Local\Temp\ccaJ4oak.s:23153  .debug_str:00000000000081e5 .LASF4288
C:\Users\CYMR90~1\AppData\Local\Temp\ccaJ4oak.s:26753  .debug_str:00000000000166ed .LASF4289
C:\Users\CYMR90~1\AppData\Local\Temp\ccaJ4oak.s:23685  .debug_str:000000000000a338 .LASF4290
C:\Users\CYMR90~1\AppData\Local\Temp\ccaJ4oak.s:21799  .debug_str:0000000000002b11 .LASF4291
C:\Users\CYMR90~1\AppData\Local\Temp\ccaJ4oak.s:29104  .debug_str:000000000001ff62 .LASF4292
C:\Users\CYMR90~1\AppData\Local\Temp\ccaJ4oak.s:23895  .debug_str:000000000000b1b1 .LASF4293
C:\Users\CYMR90~1\AppData\Local\Temp\ccaJ4oak.s:22491  .debug_str:0000000000005734 .LASF4294
C:\Users\CYMR90~1\AppData\Local\Temp\ccaJ4oak.s:23103  .debug_str:0000000000007d85 .LASF4295
C:\Users\CYMR90~1\AppData\Local\Temp\ccaJ4oak.s:31526  .debug_str:00000000000298a9 .LASF4296
C:\Users\CYMR90~1\AppData\Local\Temp\ccaJ4oak.s:23075  .debug_str:0000000000007bf5 .LASF4297
C:\Users\CYMR90~1\AppData\Local\Temp\ccaJ4oak.s:22659  .debug_str:0000000000006199 .LASF4298
C:\Users\CYMR90~1\AppData\Local\Temp\ccaJ4oak.s:23429  .debug_str:0000000000009324 .LASF4299
C:\Users\CYMR90~1\AppData\Local\Temp\ccaJ4oak.s:30128  .debug_str:0000000000023d0a .LASF4300
C:\Users\CYMR90~1\AppData\Local\Temp\ccaJ4oak.s:22257  .debug_str:00000000000048a7 .LASF4301
C:\Users\CYMR90~1\AppData\Local\Temp\ccaJ4oak.s:22855  .debug_str:0000000000006d78 .LASF4302
C:\Users\CYMR90~1\AppData\Local\Temp\ccaJ4oak.s:31996  .debug_str:000000000002b440 .LASF4303
C:\Users\CYMR90~1\AppData\Local\Temp\ccaJ4oak.s:22431  .debug_str:00000000000053b1 .LASF4304
C:\Users\CYMR90~1\AppData\Local\Temp\ccaJ4oak.s:23705  .debug_str:000000000000a4ad .LASF4305
C:\Users\CYMR90~1\AppData\Local\Temp\ccaJ4oak.s:23011  .debug_str:00000000000077b6 .LASF4306
C:\Users\CYMR90~1\AppData\Local\Temp\ccaJ4oak.s:28370  .debug_str:000000000001d1f3 .LASF4307
C:\Users\CYMR90~1\AppData\Local\Temp\ccaJ4oak.s:30716  .debug_str:00000000000264a9 .LASF4308
C:\Users\CYMR90~1\AppData\Local\Temp\ccaJ4oak.s:27722  .debug_str:000000000001a7a8 .LASF4309
C:\Users\CYMR90~1\AppData\Local\Temp\ccaJ4oak.s:24065  .debug_str:000000000000bcbf .LASF4310
C:\Users\CYMR90~1\AppData\Local\Temp\ccaJ4oak.s:31470  .debug_str:00000000000294dc .LASF4311
C:\Users\CYMR90~1\AppData\Local\Temp\ccaJ4oak.s:23833  .debug_str:000000000000ad1d .LASF4312
C:\Users\CYMR90~1\AppData\Local\Temp\ccaJ4oak.s:21125  .debug_str:0000000000000174 .LASF4313
C:\Users\CYMR90~1\AppData\Local\Temp\ccaJ4oak.s:30360  .debug_str:0000000000024c73 .LASF4314
C:\Users\CYMR90~1\AppData\Local\Temp\ccaJ4oak.s:29538  .debug_str:00000000000219bd .LASF4315
C:\Users\CYMR90~1\AppData\Local\Temp\ccaJ4oak.s:26896  .debug_str:0000000000017238 .LASF4316
C:\Users\CYMR90~1\AppData\Local\Temp\ccaJ4oak.s:30836  .debug_str:0000000000026bff .LASF4317
C:\Users\CYMR90~1\AppData\Local\Temp\ccaJ4oak.s:27026  .debug_str:0000000000017a1e .LASF4318
C:\Users\CYMR90~1\AppData\Local\Temp\ccaJ4oak.s:27804  .debug_str:000000000001ad5a .LASF4319
C:\Users\CYMR90~1\AppData\Local\Temp\ccaJ4oak.s:30796  .debug_str:00000000000269a1 .LASF4320
C:\Users\CYMR90~1\AppData\Local\Temp\ccaJ4oak.s:24011  .debug_str:000000000000b955 .LASF4321
C:\Users\CYMR90~1\AppData\Local\Temp\ccaJ4oak.s:27944  .debug_str:000000000001b662 .LASF4322
C:\Users\CYMR90~1\AppData\Local\Temp\ccaJ4oak.s:29978  .debug_str:00000000000233a5 .LASF4323
C:\Users\CYMR90~1\AppData\Local\Temp\ccaJ4oak.s:22873  .debug_str:0000000000006ec4 .LASF4324
C:\Users\CYMR90~1\AppData\Local\Temp\ccaJ4oak.s:26829  .debug_str:0000000000016c8e .LASF4325
C:\Users\CYMR90~1\AppData\Local\Temp\ccaJ4oak.s:30772  .debug_str:0000000000026801 .LASF4326
C:\Users\CYMR90~1\AppData\Local\Temp\ccaJ4oak.s:22197  .debug_str:00000000000044ad .LASF4327
C:\Users\CYMR90~1\AppData\Local\Temp\ccaJ4oak.s:27332  .debug_str:0000000000018d3d .LASF4328
C:\Users\CYMR90~1\AppData\Local\Temp\ccaJ4oak.s:25973  .debug_str:00000000000136b7 .LASF4329
C:\Users\CYMR90~1\AppData\Local\Temp\ccaJ4oak.s:28082  .debug_str:000000000001be93 .LASF4330
C:\Users\CYMR90~1\AppData\Local\Temp\ccaJ4oak.s:27896  .debug_str:000000000001b362 .LASF4331
C:\Users\CYMR90~1\AppData\Local\Temp\ccaJ4oak.s:26339  .debug_str:0000000000014d02 .LASF4332
C:\Users\CYMR90~1\AppData\Local\Temp\ccaJ4oak.s:22199  .debug_str:00000000000044d3 .LASF4333
C:\Users\CYMR90~1\AppData\Local\Temp\ccaJ4oak.s:30740  .debug_str:000000000002660b .LASF4334
C:\Users\CYMR90~1\AppData\Local\Temp\ccaJ4oak.s:25507  .debug_str:0000000000011781 .LASF4335
C:\Users\CYMR90~1\AppData\Local\Temp\ccaJ4oak.s:29418  .debug_str:00000000000211ec .LASF4336
C:\Users\CYMR90~1\AppData\Local\Temp\ccaJ4oak.s:22007  .debug_str:0000000000003829 .LASF4337
C:\Users\CYMR90~1\AppData\Local\Temp\ccaJ4oak.s:25991  .debug_str:00000000000137e9 .LASF4338
C:\Users\CYMR90~1\AppData\Local\Temp\ccaJ4oak.s:29324  .debug_str:0000000000020cb2 .LASF4339
C:\Users\CYMR90~1\AppData\Local\Temp\ccaJ4oak.s:28194  .debug_str:000000000001c556 .LASF4340
C:\Users\CYMR90~1\AppData\Local\Temp\ccaJ4oak.s:27350  .debug_str:0000000000018e5d .LASF4341
C:\Users\CYMR90~1\AppData\Local\Temp\ccaJ4oak.s:28908  .debug_str:000000000001f32f .LASF4342
C:\Users\CYMR90~1\AppData\Local\Temp\ccaJ4oak.s:22195  .debug_str:0000000000004487 .LASF4343
C:\Users\CYMR90~1\AppData\Local\Temp\ccaJ4oak.s:22127  .debug_str:0000000000004003 .LASF4344
C:\Users\CYMR90~1\AppData\Local\Temp\ccaJ4oak.s:29350  .debug_str:0000000000020e40 .LASF4345
C:\Users\CYMR90~1\AppData\Local\Temp\ccaJ4oak.s:27314  .debug_str:0000000000018b57 .LASF4346
C:\Users\CYMR90~1\AppData\Local\Temp\ccaJ4oak.s:26021  .debug_str:00000000000139c1 .LASF4347
C:\Users\CYMR90~1\AppData\Local\Temp\ccaJ4oak.s:29872  .debug_str:0000000000022dc0 .LASF4348
C:\Users\CYMR90~1\AppData\Local\Temp\ccaJ4oak.s:32430  .debug_str:000000000002d0f4 .LASF4349
C:\Users\CYMR90~1\AppData\Local\Temp\ccaJ4oak.s:23805  .debug_str:000000000000ab44 .LASF4350
C:\Users\CYMR90~1\AppData\Local\Temp\ccaJ4oak.s:24479  .debug_str:000000000000d860 .LASF4351
C:\Users\CYMR90~1\AppData\Local\Temp\ccaJ4oak.s:29998  .debug_str:00000000000234cc .LASF4352
C:\Users\CYMR90~1\AppData\Local\Temp\ccaJ4oak.s:28544  .debug_str:000000000001dcde .LASF4353
C:\Users\CYMR90~1\AppData\Local\Temp\ccaJ4oak.s:21185  .debug_str:0000000000000511 .LASF4354
C:\Users\CYMR90~1\AppData\Local\Temp\ccaJ4oak.s:22247  .debug_str:000000000000480d .LASF4355
C:\Users\CYMR90~1\AppData\Local\Temp\ccaJ4oak.s:24663  .debug_str:000000000000e301 .LASF4356
C:\Users\CYMR90~1\AppData\Local\Temp\ccaJ4oak.s:22827  .debug_str:0000000000006bd2 .LASF4357
C:\Users\CYMR90~1\AppData\Local\Temp\ccaJ4oak.s:26041  .debug_str:0000000000013af4 .LASF4358
C:\Users\CYMR90~1\AppData\Local\Temp\ccaJ4oak.s:25667  .debug_str:0000000000012286 .LASF4359
C:\Users\CYMR90~1\AppData\Local\Temp\ccaJ4oak.s:21875  .debug_str:0000000000002fb8 .LASF4360
C:\Users\CYMR90~1\AppData\Local\Temp\ccaJ4oak.s:22455  .debug_str:0000000000005514 .LASF4361
C:\Users\CYMR90~1\AppData\Local\Temp\ccaJ4oak.s:21963  .debug_str:0000000000003590 .LASF4362
C:\Users\CYMR90~1\AppData\Local\Temp\ccaJ4oak.s:21143  .debug_str:0000000000000275 .LASF4363
C:\Users\CYMR90~1\AppData\Local\Temp\ccaJ4oak.s:23423  .debug_str:00000000000092c4 .LASF4364
C:\Users\CYMR90~1\AppData\Local\Temp\ccaJ4oak.s:26803  .debug_str:0000000000016a8c .LASF4365
C:\Users\CYMR90~1\AppData\Local\Temp\ccaJ4oak.s:21865  .debug_str:0000000000002f2b .LASF4366
C:\Users\CYMR90~1\AppData\Local\Temp\ccaJ4oak.s:30860  .debug_str:0000000000026d7d .LASF4367
C:\Users\CYMR90~1\AppData\Local\Temp\ccaJ4oak.s:26671  .debug_str:00000000000161d3 .LASF4368
C:\Users\CYMR90~1\AppData\Local\Temp\ccaJ4oak.s:27326  .debug_str:0000000000018cb0 .LASF4369
C:\Users\CYMR90~1\AppData\Local\Temp\ccaJ4oak.s:30010  .debug_str:000000000002359c .LASF4370
C:\Users\CYMR90~1\AppData\Local\Temp\ccaJ4oak.s:29796  .debug_str:00000000000228f6 .LASF4371
C:\Users\CYMR90~1\AppData\Local\Temp\ccaJ4oak.s:25877  .debug_str:0000000000012ff9 .LASF4372
C:\Users\CYMR90~1\AppData\Local\Temp\ccaJ4oak.s:31518  .debug_str:000000000002982d .LASF4373
C:\Users\CYMR90~1\AppData\Local\Temp\ccaJ4oak.s:31750  .debug_str:000000000002a59c .LASF4374
C:\Users\CYMR90~1\AppData\Local\Temp\ccaJ4oak.s:28442  .debug_str:000000000001d68f .LASF4375
C:\Users\CYMR90~1\AppData\Local\Temp\ccaJ4oak.s:30622  .debug_str:0000000000025ecc .LASF4376
C:\Users\CYMR90~1\AppData\Local\Temp\ccaJ4oak.s:25401  .debug_str:00000000000110c5 .LASF4377
C:\Users\CYMR90~1\AppData\Local\Temp\ccaJ4oak.s:28590  .debug_str:000000000001e04e .LASF4378
C:\Users\CYMR90~1\AppData\Local\Temp\ccaJ4oak.s:23595  .debug_str:0000000000009da3 .LASF4379
C:\Users\CYMR90~1\AppData\Local\Temp\ccaJ4oak.s:27860  .debug_str:000000000001b11c .LASF4380
C:\Users\CYMR90~1\AppData\Local\Temp\ccaJ4oak.s:28440  .debug_str:000000000001d66a .LASF4381
C:\Users\CYMR90~1\AppData\Local\Temp\ccaJ4oak.s:23989  .debug_str:000000000000b7ba .LASF4382
C:\Users\CYMR90~1\AppData\Local\Temp\ccaJ4oak.s:27004  .debug_str:000000000001789d .LASF4383
C:\Users\CYMR90~1\AppData\Local\Temp\ccaJ4oak.s:28146  .debug_str:000000000001c294 .LASF4384
C:\Users\CYMR90~1\AppData\Local\Temp\ccaJ4oak.s:25809  .debug_str:0000000000012bb9 .LASF4385
C:\Users\CYMR90~1\AppData\Local\Temp\ccaJ4oak.s:29306  .debug_str:0000000000020bb9 .LASF4386
C:\Users\CYMR90~1\AppData\Local\Temp\ccaJ4oak.s:23921  .debug_str:000000000000b359 .LASF4387
C:\Users\CYMR90~1\AppData\Local\Temp\ccaJ4oak.s:21533  .debug_str:0000000000001af5 .LASF4388
C:\Users\CYMR90~1\AppData\Local\Temp\ccaJ4oak.s:26511  .debug_str:000000000001579b .LASF4389
C:\Users\CYMR90~1\AppData\Local\Temp\ccaJ4oak.s:25859  .debug_str:0000000000012ed4 .LASF4390
C:\Users\CYMR90~1\AppData\Local\Temp\ccaJ4oak.s:32128  .debug_str:000000000002bcf0 .LASF4391
C:\Users\CYMR90~1\AppData\Local\Temp\ccaJ4oak.s:27454  .debug_str:0000000000019593 .LASF4392
C:\Users\CYMR90~1\AppData\Local\Temp\ccaJ4oak.s:27002  .debug_str:0000000000017885 .LASF4393
C:\Users\CYMR90~1\AppData\Local\Temp\ccaJ4oak.s:28464  .debug_str:000000000001d842 .LASF4394
C:\Users\CYMR90~1\AppData\Local\Temp\ccaJ4oak.s:30136  .debug_str:0000000000023d7c .LASF4395
C:\Users\CYMR90~1\AppData\Local\Temp\ccaJ4oak.s:22489  .debug_str:000000000000571b .LASF4396
C:\Users\CYMR90~1\AppData\Local\Temp\ccaJ4oak.s:21427  .debug_str:0000000000001441 .LASF4397
C:\Users\CYMR90~1\AppData\Local\Temp\ccaJ4oak.s:28772  .debug_str:000000000001eb00 .LASF4398
C:\Users\CYMR90~1\AppData\Local\Temp\ccaJ4oak.s:29496  .debug_str:0000000000021714 .LASF4399
C:\Users\CYMR90~1\AppData\Local\Temp\ccaJ4oak.s:31694  .debug_str:000000000002a245 .LASF4400
C:\Users\CYMR90~1\AppData\Local\Temp\ccaJ4oak.s:25521  .debug_str:0000000000011852 .LASF4401
C:\Users\CYMR90~1\AppData\Local\Temp\ccaJ4oak.s:31350  .debug_str:0000000000028de5 .LASF4402
C:\Users\CYMR90~1\AppData\Local\Temp\ccaJ4oak.s:26299  .debug_str:0000000000014aad .LASF4403
C:\Users\CYMR90~1\AppData\Local\Temp\ccaJ4oak.s:23881  .debug_str:000000000000b0f1 .LASF4404
C:\Users\CYMR90~1\AppData\Local\Temp\ccaJ4oak.s:29264  .debug_str:0000000000020948 .LASF4405
C:\Users\CYMR90~1\AppData\Local\Temp\ccaJ4oak.s:23321  .debug_str:0000000000008c72 .LASF4406
C:\Users\CYMR90~1\AppData\Local\Temp\ccaJ4oak.s:26920  .debug_str:00000000000173b5 .LASF4407
C:\Users\CYMR90~1\AppData\Local\Temp\ccaJ4oak.s:30096  .debug_str:0000000000023b35 .LASF4408
C:\Users\CYMR90~1\AppData\Local\Temp\ccaJ4oak.s:30928  .debug_str:00000000000271ac .LASF4409
C:\Users\CYMR90~1\AppData\Local\Temp\ccaJ4oak.s:26337  .debug_str:0000000000014cee .LASF4410
C:\Users\CYMR90~1\AppData\Local\Temp\ccaJ4oak.s:28680  .debug_str:000000000001e53b .LASF4411
C:\Users\CYMR90~1\AppData\Local\Temp\ccaJ4oak.s:24297  .debug_str:000000000000cc6a .LASF4412
C:\Users\CYMR90~1\AppData\Local\Temp\ccaJ4oak.s:26109  .debug_str:0000000000013ee2 .LASF4413
C:\Users\CYMR90~1\AppData\Local\Temp\ccaJ4oak.s:28514  .debug_str:000000000001db36 .LASF4414
C:\Users\CYMR90~1\AppData\Local\Temp\ccaJ4oak.s:25885  .debug_str:0000000000013080 .LASF4415
C:\Users\CYMR90~1\AppData\Local\Temp\ccaJ4oak.s:29338  .debug_str:0000000000020da7 .LASF4416
C:\Users\CYMR90~1\AppData\Local\Temp\ccaJ4oak.s:24857  .debug_str:000000000000eebd .LASF4417
C:\Users\CYMR90~1\AppData\Local\Temp\ccaJ4oak.s:28462  .debug_str:000000000001d82d .LASF4418
C:\Users\CYMR90~1\AppData\Local\Temp\ccaJ4oak.s:21845  .debug_str:0000000000002e02 .LASF4419
C:\Users\CYMR90~1\AppData\Local\Temp\ccaJ4oak.s:21617  .debug_str:0000000000002038 .LASF4420
C:\Users\CYMR90~1\AppData\Local\Temp\ccaJ4oak.s:27066  .debug_str:0000000000017ca1 .LASF4421
C:\Users\CYMR90~1\AppData\Local\Temp\ccaJ4oak.s:23237  .debug_str:0000000000008744 .LASF4422
C:\Users\CYMR90~1\AppData\Local\Temp\ccaJ4oak.s:31822  .debug_str:000000000002aa08 .LASF4423
C:\Users\CYMR90~1\AppData\Local\Temp\ccaJ4oak.s:23087  .debug_str:0000000000007c9c .LASF4424
C:\Users\CYMR90~1\AppData\Local\Temp\ccaJ4oak.s:21195  .debug_str:000000000000059f .LASF4425
C:\Users\CYMR90~1\AppData\Local\Temp\ccaJ4oak.s:30352  .debug_str:0000000000024c0a .LASF4426
C:\Users\CYMR90~1\AppData\Local\Temp\ccaJ4oak.s:27236  .debug_str:00000000000186ba .LASF4427
C:\Users\CYMR90~1\AppData\Local\Temp\ccaJ4oak.s:24965  .debug_str:000000000000f52f .LASF4428
C:\Users\CYMR90~1\AppData\Local\Temp\ccaJ4oak.s:29938  .debug_str:000000000002316a .LASF4429
C:\Users\CYMR90~1\AppData\Local\Temp\ccaJ4oak.s:29752  .debug_str:0000000000022656 .LASF4430
C:\Users\CYMR90~1\AppData\Local\Temp\ccaJ4oak.s:24151  .debug_str:000000000000c2d9 .LASF4431
C:\Users\CYMR90~1\AppData\Local\Temp\ccaJ4oak.s:25465  .debug_str:000000000001149e .LASF4432
C:\Users\CYMR90~1\AppData\Local\Temp\ccaJ4oak.s:22309  .debug_str:0000000000004c58 .LASF4433
C:\Users\CYMR90~1\AppData\Local\Temp\ccaJ4oak.s:30694  .debug_str:0000000000026388 .LASF4434
C:\Users\CYMR90~1\AppData\Local\Temp\ccaJ4oak.s:24553  .debug_str:000000000000dc65 .LASF4435
C:\Users\CYMR90~1\AppData\Local\Temp\ccaJ4oak.s:25965  .debug_str:0000000000013621 .LASF4436
C:\Users\CYMR90~1\AppData\Local\Temp\ccaJ4oak.s:23299  .debug_str:0000000000008b14 .LASF4437
C:\Users\CYMR90~1\AppData\Local\Temp\ccaJ4oak.s:26519  .debug_str:0000000000015811 .LASF4438
C:\Users\CYMR90~1\AppData\Local\Temp\ccaJ4oak.s:30484  .debug_str:0000000000025580 .LASF4439
C:\Users\CYMR90~1\AppData\Local\Temp\ccaJ4oak.s:21719  .debug_str:00000000000025d6 .LASF4440
C:\Users\CYMR90~1\AppData\Local\Temp\ccaJ4oak.s:26687  .debug_str:00000000000162cd .LASF4441
C:\Users\CYMR90~1\AppData\Local\Temp\ccaJ4oak.s:21335  .debug_str:0000000000000e69 .LASF4442
C:\Users\CYMR90~1\AppData\Local\Temp\ccaJ4oak.s:25355  .debug_str:0000000000010e86 .LASF4443
C:\Users\CYMR90~1\AppData\Local\Temp\ccaJ4oak.s:24033  .debug_str:000000000000ba96 .LASF4444
C:\Users\CYMR90~1\AppData\Local\Temp\ccaJ4oak.s:29034  .debug_str:000000000001fad9 .LASF4445
C:\Users\CYMR90~1\AppData\Local\Temp\ccaJ4oak.s:28016  .debug_str:000000000001ba93 .LASF4446
C:\Users\CYMR90~1\AppData\Local\Temp\ccaJ4oak.s:25775  .debug_str:0000000000012958 .LASF4447
C:\Users\CYMR90~1\AppData\Local\Temp\ccaJ4oak.s:21713  .debug_str:0000000000002589 .LASF4448
C:\Users\CYMR90~1\AppData\Local\Temp\ccaJ4oak.s:28412  .debug_str:000000000001d47c .LASF4449
C:\Users\CYMR90~1\AppData\Local\Temp\ccaJ4oak.s:24271  .debug_str:000000000000caf8 .LASF4450
C:\Users\CYMR90~1\AppData\Local\Temp\ccaJ4oak.s:22117  .debug_str:0000000000003efe .LASF4451
C:\Users\CYMR90~1\AppData\Local\Temp\ccaJ4oak.s:27686  .debug_str:000000000001a5b6 .LASF4452
C:\Users\CYMR90~1\AppData\Local\Temp\ccaJ4oak.s:29908  .debug_str:0000000000022fc3 .LASF4453
C:\Users\CYMR90~1\AppData\Local\Temp\ccaJ4oak.s:31478  .debug_str:0000000000029563 .LASF4454
C:\Users\CYMR90~1\AppData\Local\Temp\ccaJ4oak.s:26769  .debug_str:0000000000016803 .LASF4455
C:\Users\CYMR90~1\AppData\Local\Temp\ccaJ4oak.s:27422  .debug_str:000000000001939c .LASF4456
C:\Users\CYMR90~1\AppData\Local\Temp\ccaJ4oak.s:22487  .debug_str:0000000000005702 .LASF4457
C:\Users\CYMR90~1\AppData\Local\Temp\ccaJ4oak.s:31616  .debug_str:0000000000029ddf .LASF4458
C:\Users\CYMR90~1\AppData\Local\Temp\ccaJ4oak.s:25143  .debug_str:0000000000010082 .LASF4459
C:\Users\CYMR90~1\AppData\Local\Temp\ccaJ4oak.s:28314  .debug_str:000000000001cd64 .LASF4460
C:\Users\CYMR90~1\AppData\Local\Temp\ccaJ4oak.s:29616  .debug_str:0000000000021e74 .LASF4461
C:\Users\CYMR90~1\AppData\Local\Temp\ccaJ4oak.s:24509  .debug_str:000000000000d9fc .LASF4462
C:\Users\CYMR90~1\AppData\Local\Temp\ccaJ4oak.s:31968  .debug_str:000000000002b26a .LASF4463
C:\Users\CYMR90~1\AppData\Local\Temp\ccaJ4oak.s:24053  .debug_str:000000000000bc12 .LASF4464
C:\Users\CYMR90~1\AppData\Local\Temp\ccaJ4oak.s:29216  .debug_str:0000000000020678 .LASF4465
C:\Users\CYMR90~1\AppData\Local\Temp\ccaJ4oak.s:26627  .debug_str:0000000000015ed8 .LASF4466
C:\Users\CYMR90~1\AppData\Local\Temp\ccaJ4oak.s:30084  .debug_str:0000000000023a68 .LASF4467
C:\Users\CYMR90~1\AppData\Local\Temp\ccaJ4oak.s:31938  .debug_str:000000000002b0b0 .LASF4468
C:\Users\CYMR90~1\AppData\Local\Temp\ccaJ4oak.s:29414  .debug_str:00000000000211a9 .LASF4469
C:\Users\CYMR90~1\AppData\Local\Temp\ccaJ4oak.s:29762  .debug_str:00000000000226d0 .LASF4470
C:\Users\CYMR90~1\AppData\Local\Temp\ccaJ4oak.s:26757  .debug_str:0000000000016731 .LASF4471
C:\Users\CYMR90~1\AppData\Local\Temp\ccaJ4oak.s:23283  .debug_str:0000000000008a1b .LASF4472
C:\Users\CYMR90~1\AppData\Local\Temp\ccaJ4oak.s:30520  .debug_str:0000000000025817 .LASF4473
C:\Users\CYMR90~1\AppData\Local\Temp\ccaJ4oak.s:27744  .debug_str:000000000001a9b0 .LASF4474
C:\Users\CYMR90~1\AppData\Local\Temp\ccaJ4oak.s:21331  .debug_str:0000000000000e2b .LASF4475
C:\Users\CYMR90~1\AppData\Local\Temp\ccaJ4oak.s:29734  .debug_str:000000000002251f .LASF4476
C:\Users\CYMR90~1\AppData\Local\Temp\ccaJ4oak.s:31462  .debug_str:000000000002946f .LASF4477
C:\Users\CYMR90~1\AppData\Local\Temp\ccaJ4oak.s:21805  .debug_str:0000000000002b66 .LASF4478
C:\Users\CYMR90~1\AppData\Local\Temp\ccaJ4oak.s:24835  .debug_str:000000000000eda1 .LASF4479
C:\Users\CYMR90~1\AppData\Local\Temp\ccaJ4oak.s:32402  .debug_str:000000000002cf80 .LASF4480
C:\Users\CYMR90~1\AppData\Local\Temp\ccaJ4oak.s:22027  .debug_str:000000000000395b .LASF4481
C:\Users\CYMR90~1\AppData\Local\Temp\ccaJ4oak.s:21781  .debug_str:0000000000002a0b .LASF4482
C:\Users\CYMR90~1\AppData\Local\Temp\ccaJ4oak.s:30436  .debug_str:0000000000025166 .LASF4483
C:\Users\CYMR90~1\AppData\Local\Temp\ccaJ4oak.s:25097  .debug_str:000000000000fd75 .LASF4484
C:\Users\CYMR90~1\AppData\Local\Temp\ccaJ4oak.s:26091  .debug_str:0000000000013de9 .LASF4485
C:\Users\CYMR90~1\AppData\Local\Temp\ccaJ4oak.s:22607  .debug_str:0000000000005e48 .LASF4486
C:\Users\CYMR90~1\AppData\Local\Temp\ccaJ4oak.s:22187  .debug_str:00000000000043f3 .LASF4487
C:\Users\CYMR90~1\AppData\Local\Temp\ccaJ4oak.s:29534  .debug_str:000000000002198b .LASF4488
C:\Users\CYMR90~1\AppData\Local\Temp\ccaJ4oak.s:22035  .debug_str:00000000000039d4 .LASF4489
C:\Users\CYMR90~1\AppData\Local\Temp\ccaJ4oak.s:22279  .debug_str:0000000000004a98 .LASF4490
C:\Users\CYMR90~1\AppData\Local\Temp\ccaJ4oak.s:29318  .debug_str:0000000000020c58 .LASF4491
C:\Users\CYMR90~1\AppData\Local\Temp\ccaJ4oak.s:30748  .debug_str:00000000000266a3 .LASF4492
C:\Users\CYMR90~1\AppData\Local\Temp\ccaJ4oak.s:31926  .debug_str:000000000002b006 .LASF4493
C:\Users\CYMR90~1\AppData\Local\Temp\ccaJ4oak.s:30666  .debug_str:00000000000261c3 .LASF4494
C:\Users\CYMR90~1\AppData\Local\Temp\ccaJ4oak.s:21479  .debug_str:000000000000171a .LASF4495
C:\Users\CYMR90~1\AppData\Local\Temp\ccaJ4oak.s:28644  .debug_str:000000000001e322 .LASF4496
C:\Users\CYMR90~1\AppData\Local\Temp\ccaJ4oak.s:30970  .debug_str:00000000000274bb .LASF4497
C:\Users\CYMR90~1\AppData\Local\Temp\ccaJ4oak.s:23727  .debug_str:000000000000a603 .LASF4498
C:\Users\CYMR90~1\AppData\Local\Temp\ccaJ4oak.s:32282  .debug_str:000000000002c772 .LASF4499
C:\Users\CYMR90~1\AppData\Local\Temp\ccaJ4oak.s:31632  .debug_str:0000000000029edc .LASF4500
C:\Users\CYMR90~1\AppData\Local\Temp\ccaJ4oak.s:23093  .debug_str:0000000000007cf6 .LASF4501
C:\Users\CYMR90~1\AppData\Local\Temp\ccaJ4oak.s:22171  .debug_str:0000000000004318 .LASF4502
C:\Users\CYMR90~1\AppData\Local\Temp\ccaJ4oak.s:30830  .debug_str:0000000000026ba2 .LASF4503
C:\Users\CYMR90~1\AppData\Local\Temp\ccaJ4oak.s:28198  .debug_str:000000000001c59f .LASF4504
C:\Users\CYMR90~1\AppData\Local\Temp\ccaJ4oak.s:30804  .debug_str:0000000000026a1f .LASF4505
C:\Users\CYMR90~1\AppData\Local\Temp\ccaJ4oak.s:29456  .debug_str:00000000000214d6 .LASF4506
C:\Users\CYMR90~1\AppData\Local\Temp\ccaJ4oak.s:25037  .debug_str:000000000000f9fb .LASF4507
C:\Users\CYMR90~1\AppData\Local\Temp\ccaJ4oak.s:28746  .debug_str:000000000001e98a .LASF4508
C:\Users\CYMR90~1\AppData\Local\Temp\ccaJ4oak.s:22541  .debug_str:0000000000005a70 .LASF4509
C:\Users\CYMR90~1\AppData\Local\Temp\ccaJ4oak.s:29958  .debug_str:000000000002326d .LASF4510
C:\Users\CYMR90~1\AppData\Local\Temp\ccaJ4oak.s:27354  .debug_str:0000000000018ea0 .LASF4511
C:\Users\CYMR90~1\AppData\Local\Temp\ccaJ4oak.s:21681  .debug_str:0000000000002398 .LASF4512
C:\Users\CYMR90~1\AppData\Local\Temp\ccaJ4oak.s:21895  .debug_str:00000000000030eb .LASF4513
C:\Users\CYMR90~1\AppData\Local\Temp\ccaJ4oak.s:30630  .debug_str:0000000000025f61 .LASF4514
C:\Users\CYMR90~1\AppData\Local\Temp\ccaJ4oak.s:26527  .debug_str:000000000001587d .LASF4515
C:\Users\CYMR90~1\AppData\Local\Temp\ccaJ4oak.s:32438  .debug_str:000000000002d1ac .LASF4516
C:\Users\CYMR90~1\AppData\Local\Temp\ccaJ4oak.s:22561  .debug_str:0000000000005b6a .LASF4517
C:\Users\CYMR90~1\AppData\Local\Temp\ccaJ4oak.s:31226  .debug_str:00000000000285ec .LASF4518
C:\Users\CYMR90~1\AppData\Local\Temp\ccaJ4oak.s:32436  .debug_str:000000000002d173 .LASF4519
C:\Users\CYMR90~1\AppData\Local\Temp\ccaJ4oak.s:28574  .debug_str:000000000001df27 .LASF4520
C:\Users\CYMR90~1\AppData\Local\Temp\ccaJ4oak.s:22863  .debug_str:0000000000006e0d .LASF4521
C:\Users\CYMR90~1\AppData\Local\Temp\ccaJ4oak.s:22323  .debug_str:0000000000004d48 .LASF4522
C:\Users\CYMR90~1\AppData\Local\Temp\ccaJ4oak.s:26872  .debug_str:00000000000170db .LASF4523
C:\Users\CYMR90~1\AppData\Local\Temp\ccaJ4oak.s:32068  .debug_str:000000000002b942 .LASF4524
C:\Users\CYMR90~1\AppData\Local\Temp\ccaJ4oak.s:25909  .debug_str:0000000000013223 .LASF4525
C:\Users\CYMR90~1\AppData\Local\Temp\ccaJ4oak.s:31696  .debug_str:000000000002a25e .LASF4526
C:\Users\CYMR90~1\AppData\Local\Temp\ccaJ4oak.s:30778  .debug_str:0000000000026869 .LASF4527
C:\Users\CYMR90~1\AppData\Local\Temp\ccaJ4oak.s:30994  .debug_str:000000000002762d .LASF4528
C:\Users\CYMR90~1\AppData\Local\Temp\ccaJ4oak.s:31524  .debug_str:000000000002986e .LASF4529
C:\Users\CYMR90~1\AppData\Local\Temp\ccaJ4oak.s:28110  .debug_str:000000000001c06d .LASF4530
C:\Users\CYMR90~1\AppData\Local\Temp\ccaJ4oak.s:27572  .debug_str:0000000000019d6b .LASF4531
C:\Users\CYMR90~1\AppData\Local\Temp\ccaJ4oak.s:23151  .debug_str:00000000000081cc .LASF4532
C:\Users\CYMR90~1\AppData\Local\Temp\ccaJ4oak.s:28282  .debug_str:000000000001cb4c .LASF4533
C:\Users\CYMR90~1\AppData\Local\Temp\ccaJ4oak.s:27878  .debug_str:000000000001b227 .LASF4534
C:\Users\CYMR90~1\AppData\Local\Temp\ccaJ4oak.s:29808  .debug_str:0000000000022997 .LASF4535
C:\Users\CYMR90~1\AppData\Local\Temp\ccaJ4oak.s:30734  .debug_str:00000000000265b2 .LASF4536
C:\Users\CYMR90~1\AppData\Local\Temp\ccaJ4oak.s:21593  .debug_str:0000000000001eb1 .LASF4537
C:\Users\CYMR90~1\AppData\Local\Temp\ccaJ4oak.s:26703  .debug_str:000000000001639c .LASF4538
C:\Users\CYMR90~1\AppData\Local\Temp\ccaJ4oak.s:21909  .debug_str:00000000000031f1 .LASF4539
C:\Users\CYMR90~1\AppData\Local\Temp\ccaJ4oak.s:29050  .debug_str:000000000001fbd7 .LASF4540
C:\Users\CYMR90~1\AppData\Local\Temp\ccaJ4oak.s:28754  .debug_str:000000000001e9ef .LASF4541
C:\Users\CYMR90~1\AppData\Local\Temp\ccaJ4oak.s:21387  .debug_str:00000000000011fe .LASF4542
C:\Users\CYMR90~1\AppData\Local\Temp\ccaJ4oak.s:30464  .debug_str:0000000000025395 .LASF4543
C:\Users\CYMR90~1\AppData\Local\Temp\ccaJ4oak.s:23259  .debug_str:000000000000886d .LASF4544
C:\Users\CYMR90~1\AppData\Local\Temp\ccaJ4oak.s:28382  .debug_str:000000000001d2cb .LASF4545
C:\Users\CYMR90~1\AppData\Local\Temp\ccaJ4oak.s:28402  .debug_str:000000000001d3e5 .LASF4546
C:\Users\CYMR90~1\AppData\Local\Temp\ccaJ4oak.s:29360  .debug_str:0000000000020ece .LASF4547
C:\Users\CYMR90~1\AppData\Local\Temp\ccaJ4oak.s:27816  .debug_str:000000000001ae13 .LASF4548
C:\Users\CYMR90~1\AppData\Local\Temp\ccaJ4oak.s:22579  .debug_str:0000000000005cab .LASF4549
C:\Users\CYMR90~1\AppData\Local\Temp\ccaJ4oak.s:31188  .debug_str:00000000000282fc .LASF4550
C:\Users\CYMR90~1\AppData\Local\Temp\ccaJ4oak.s:30090  .debug_str:0000000000023ae4 .LASF4551
C:\Users\CYMR90~1\AppData\Local\Temp\ccaJ4oak.s:26419  .debug_str:000000000001525f .LASF4552
C:\Users\CYMR90~1\AppData\Local\Temp\ccaJ4oak.s:32392  .debug_str:000000000002cee8 .LASF4553
C:\Users\CYMR90~1\AppData\Local\Temp\ccaJ4oak.s:21871  .debug_str:0000000000002f7a .LASF4554
C:\Users\CYMR90~1\AppData\Local\Temp\ccaJ4oak.s:21129  .debug_str:00000000000001c8 .LASF4555
C:\Users\CYMR90~1\AppData\Local\Temp\ccaJ4oak.s:27526  .debug_str:0000000000019a79 .LASF4556
C:\Users\CYMR90~1\AppData\Local\Temp\ccaJ4oak.s:25303  .debug_str:0000000000010ab9 .LASF4557
C:\Users\CYMR90~1\AppData\Local\Temp\ccaJ4oak.s:22185  .debug_str:00000000000043db .LASF4558
C:\Users\CYMR90~1\AppData\Local\Temp\ccaJ4oak.s:27460  .debug_str:00000000000195fa .LASF4559
C:\Users\CYMR90~1\AppData\Local\Temp\ccaJ4oak.s:30790  .debug_str:000000000002694e .LASF4560
C:\Users\CYMR90~1\AppData\Local\Temp\ccaJ4oak.s:21155  .debug_str:000000000000035d .LASF4561
C:\Users\CYMR90~1\AppData\Local\Temp\ccaJ4oak.s:21203  .debug_str:00000000000005ed .LASF4562
C:\Users\CYMR90~1\AppData\Local\Temp\ccaJ4oak.s:31444  .debug_str:0000000000029395 .LASF4563
C:\Users\CYMR90~1\AppData\Local\Temp\ccaJ4oak.s:22215  .debug_str:00000000000045e5 .LASF4564
C:\Users\CYMR90~1\AppData\Local\Temp\ccaJ4oak.s:23873  .debug_str:000000000000afc1 .LASF4565
C:\Users\CYMR90~1\AppData\Local\Temp\ccaJ4oak.s:21177  .debug_str:00000000000004ae .LASF4566
C:\Users\CYMR90~1\AppData\Local\Temp\ccaJ4oak.s:28734  .debug_str:000000000001e8c8 .LASF4567
C:\Users\CYMR90~1\AppData\Local\Temp\ccaJ4oak.s:26882  .debug_str:0000000000017184 .LASF4568
C:\Users\CYMR90~1\AppData\Local\Temp\ccaJ4oak.s:21731  .debug_str:00000000000026b2 .LASF4569
C:\Users\CYMR90~1\AppData\Local\Temp\ccaJ4oak.s:30898  .debug_str:0000000000026fe0 .LASF4570
C:\Users\CYMR90~1\AppData\Local\Temp\ccaJ4oak.s:32238  .debug_str:000000000002c4af .LASF4571
C:\Users\CYMR90~1\AppData\Local\Temp\ccaJ4oak.s:29182  .debug_str:000000000002039f .LASF4572
C:\Users\CYMR90~1\AppData\Local\Temp\ccaJ4oak.s:24213  .debug_str:000000000000c692 .LASF4573
C:\Users\CYMR90~1\AppData\Local\Temp\ccaJ4oak.s:29816  .debug_str:0000000000022a06 .LASF4574
C:\Users\CYMR90~1\AppData\Local\Temp\ccaJ4oak.s:24117  .debug_str:000000000000c08b .LASF4575
C:\Users\CYMR90~1\AppData\Local\Temp\ccaJ4oak.s:29806  .debug_str:0000000000022979 .LASF4576
C:\Users\CYMR90~1\AppData\Local\Temp\ccaJ4oak.s:31342  .debug_str:0000000000028d64 .LASF4577
C:\Users\CYMR90~1\AppData\Local\Temp\ccaJ4oak.s:22623  .debug_str:0000000000005f3f .LASF4578
C:\Users\CYMR90~1\AppData\Local\Temp\ccaJ4oak.s:25419  .debug_str:00000000000111d8 .LASF4579
C:\Users\CYMR90~1\AppData\Local\Temp\ccaJ4oak.s:24599  .debug_str:000000000000df1a .LASF4580
C:\Users\CYMR90~1\AppData\Local\Temp\ccaJ4oak.s:22269  .debug_str:00000000000049fe .LASF4581
C:\Users\CYMR90~1\AppData\Local\Temp\ccaJ4oak.s:23545  .debug_str:0000000000009a8c .LASF4582
C:\Users\CYMR90~1\AppData\Local\Temp\ccaJ4oak.s:26083  .debug_str:0000000000013d5c .LASF4583
C:\Users\CYMR90~1\AppData\Local\Temp\ccaJ4oak.s:22081  .debug_str:0000000000003cad .LASF4584
C:\Users\CYMR90~1\AppData\Local\Temp\ccaJ4oak.s:22857  .debug_str:0000000000006d9e .LASF4585
C:\Users\CYMR90~1\AppData\Local\Temp\ccaJ4oak.s:21105  .debug_str:000000000000002e .LASF4586
C:\Users\CYMR90~1\AppData\Local\Temp\ccaJ4oak.s:25403  .debug_str:00000000000110e9 .LASF4587
C:\Users\CYMR90~1\AppData\Local\Temp\ccaJ4oak.s:27776  .debug_str:000000000001ab90 .LASF4588
C:\Users\CYMR90~1\AppData\Local\Temp\ccaJ4oak.s:26831  .debug_str:0000000000016cb4 .LASF4589
C:\Users\CYMR90~1\AppData\Local\Temp\ccaJ4oak.s:32176  .debug_str:000000000002c080 .LASF4590
C:\Users\CYMR90~1\AppData\Local\Temp\ccaJ4oak.s:30240  .debug_str:0000000000024484 .LASF4591
C:\Users\CYMR90~1\AppData\Local\Temp\ccaJ4oak.s:24701  .debug_str:000000000000e526 .LASF4592
C:\Users\CYMR90~1\AppData\Local\Temp\ccaJ4oak.s:28856  .debug_str:000000000001eff1 .LASF4593
C:\Users\CYMR90~1\AppData\Local\Temp\ccaJ4oak.s:26351  .debug_str:0000000000014dd8 .LASF4594
C:\Users\CYMR90~1\AppData\Local\Temp\ccaJ4oak.s:31512  .debug_str:00000000000297ae .LASF4595
C:\Users\CYMR90~1\AppData\Local\Temp\ccaJ4oak.s:27378  .debug_str:0000000000019012 .LASF4596
C:\Users\CYMR90~1\AppData\Local\Temp\ccaJ4oak.s:25937  .debug_str:00000000000133af .LASF4597
C:\Users\CYMR90~1\AppData\Local\Temp\ccaJ4oak.s:21725  .debug_str:000000000000261c .LASF4598
C:\Users\CYMR90~1\AppData\Local\Temp\ccaJ4oak.s:28838  .debug_str:000000000001eece .LASF4599
C:\Users\CYMR90~1\AppData\Local\Temp\ccaJ4oak.s:23719  .debug_str:000000000000a56b .LASF4600
C:\Users\CYMR90~1\AppData\Local\Temp\ccaJ4oak.s:21233  .debug_str:0000000000000817 .LASF4601
C:\Users\CYMR90~1\AppData\Local\Temp\ccaJ4oak.s:27792  .debug_str:000000000001ac8f .LASF4602
C:\Users\CYMR90~1\AppData\Local\Temp\ccaJ4oak.s:30278  .debug_str:000000000002472b .LASF4603
C:\Users\CYMR90~1\AppData\Local\Temp\ccaJ4oak.s:26495  .debug_str:000000000001569d .LASF4604
C:\Users\CYMR90~1\AppData\Local\Temp\ccaJ4oak.s:27442  .debug_str:00000000000194a9 .LASF4605
C:\Users\CYMR90~1\AppData\Local\Temp\ccaJ4oak.s:24109  .debug_str:000000000000c003 .LASF4606
C:\Users\CYMR90~1\AppData\Local\Temp\ccaJ4oak.s:27504  .debug_str:00000000000198ae .LASF4607
C:\Users\CYMR90~1\AppData\Local\Temp\ccaJ4oak.s:29416  .debug_str:00000000000211c1 .LASF4608
C:\Users\CYMR90~1\AppData\Local\Temp\ccaJ4oak.s:27528  .debug_str:0000000000019ab4 .LASF4609
C:\Users\CYMR90~1\AppData\Local\Temp\ccaJ4oak.s:22167  .debug_str:00000000000042cf .LASF4610
C:\Users\CYMR90~1\AppData\Local\Temp\ccaJ4oak.s:23769  .debug_str:000000000000a838 .LASF4611
C:\Users\CYMR90~1\AppData\Local\Temp\ccaJ4oak.s:24465  .debug_str:000000000000d77c .LASF4612
C:\Users\CYMR90~1\AppData\Local\Temp\ccaJ4oak.s:29252  .debug_str:0000000000020885 .LASF4613
C:\Users\CYMR90~1\AppData\Local\Temp\ccaJ4oak.s:28850  .debug_str:000000000001ef88 .LASF4614
C:\Users\CYMR90~1\AppData\Local\Temp\ccaJ4oak.s:24597  .debug_str:000000000000dede .LASF4615
C:\Users\CYMR90~1\AppData\Local\Temp\ccaJ4oak.s:27898  .debug_str:000000000001b388 .LASF4616
C:\Users\CYMR90~1\AppData\Local\Temp\ccaJ4oak.s:31746  .debug_str:000000000002a549 .LASF4617
C:\Users\CYMR90~1\AppData\Local\Temp\ccaJ4oak.s:25323  .debug_str:0000000000010c14 .LASF4618
C:\Users\CYMR90~1\AppData\Local\Temp\ccaJ4oak.s:26047  .debug_str:0000000000013b41 .LASF4619
C:\Users\CYMR90~1\AppData\Local\Temp\ccaJ4oak.s:29700  .debug_str:0000000000022361 .LASF4620
C:\Users\CYMR90~1\AppData\Local\Temp\ccaJ4oak.s:31848  .debug_str:000000000002ab72 .LASF4621
C:\Users\CYMR90~1\AppData\Local\Temp\ccaJ4oak.s:25113  .debug_str:000000000000fe74 .LASF4622
C:\Users\CYMR90~1\AppData\Local\Temp\ccaJ4oak.s:29766  .debug_str:000000000002270e .LASF4623
C:\Users\CYMR90~1\AppData\Local\Temp\ccaJ4oak.s:32086  .debug_str:000000000002ba40 .LASF4624
C:\Users\CYMR90~1\AppData\Local\Temp\ccaJ4oak.s:30282  .debug_str:0000000000024766 .LASF4625
C:\Users\CYMR90~1\AppData\Local\Temp\ccaJ4oak.s:26773  .debug_str:0000000000016840 .LASF4626
C:\Users\CYMR90~1\AppData\Local\Temp\ccaJ4oak.s:28246  .debug_str:000000000001c91c .LASF4627
C:\Users\CYMR90~1\AppData\Local\Temp\ccaJ4oak.s:27552  .debug_str:0000000000019c3d .LASF4628
C:\Users\CYMR90~1\AppData\Local\Temp\ccaJ4oak.s:25245  .debug_str:00000000000106b3 .LASF4629
C:\Users\CYMR90~1\AppData\Local\Temp\ccaJ4oak.s:25677  .debug_str:0000000000012318 .LASF4630
C:\Users\CYMR90~1\AppData\Local\Temp\ccaJ4oak.s:21965  .debug_str:00000000000035b2 .LASF4631
C:\Users\CYMR90~1\AppData\Local\Temp\ccaJ4oak.s:22849  .debug_str:0000000000006d32 .LASF4632
C:\Users\CYMR90~1\AppData\Local\Temp\ccaJ4oak.s:25737  .debug_str:00000000000126e5 .LASF4633
C:\Users\CYMR90~1\AppData\Local\Temp\ccaJ4oak.s:31888  .debug_str:000000000002addb .LASF4634
C:\Users\CYMR90~1\AppData\Local\Temp\ccaJ4oak.s:24721  .debug_str:000000000000e671 .LASF4635
C:\Users\CYMR90~1\AppData\Local\Temp\ccaJ4oak.s:27650  .debug_str:000000000001a1e9 .LASF4636
C:\Users\CYMR90~1\AppData\Local\Temp\ccaJ4oak.s:21319  .debug_str:0000000000000d8b .LASF4637
C:\Users\CYMR90~1\AppData\Local\Temp\ccaJ4oak.s:31110  .debug_str:0000000000027d7a .LASF4638
C:\Users\CYMR90~1\AppData\Local\Temp\ccaJ4oak.s:32352  .debug_str:000000000002cc1e .LASF4639
C:\Users\CYMR90~1\AppData\Local\Temp\ccaJ4oak.s:24495  .debug_str:000000000000d930 .LASF4640
C:\Users\CYMR90~1\AppData\Local\Temp\ccaJ4oak.s:27172  .debug_str:00000000000182fb .LASF4641
C:\Users\CYMR90~1\AppData\Local\Temp\ccaJ4oak.s:21469  .debug_str:0000000000001684 .LASF4642
C:\Users\CYMR90~1\AppData\Local\Temp\ccaJ4oak.s:30152  .debug_str:0000000000023e6f .LASF4643
C:\Users\CYMR90~1\AppData\Local\Temp\ccaJ4oak.s:26641  .debug_str:0000000000015fce .LASF4644
C:\Users\CYMR90~1\AppData\Local\Temp\ccaJ4oak.s:31812  .debug_str:000000000002a980 .LASF4645
C:\Users\CYMR90~1\AppData\Local\Temp\ccaJ4oak.s:30764  .debug_str:0000000000026790 .LASF4646
C:\Users\CYMR90~1\AppData\Local\Temp\ccaJ4oak.s:31816  .debug_str:000000000002a9b4 .LASF4647
C:\Users\CYMR90~1\AppData\Local\Temp\ccaJ4oak.s:28186  .debug_str:000000000001c4f4 .LASF4648
C:\Users\CYMR90~1\AppData\Local\Temp\ccaJ4oak.s:21415  .debug_str:0000000000001365 .LASF4649
C:\Users\CYMR90~1\AppData\Local\Temp\ccaJ4oak.s:30538  .debug_str:000000000002593b .LASF4650
C:\Users\CYMR90~1\AppData\Local\Temp\ccaJ4oak.s:28094  .debug_str:000000000001bf60 .LASF4651
C:\Users\CYMR90~1\AppData\Local\Temp\ccaJ4oak.s:22615  .debug_str:0000000000005ebc .LASF4652
C:\Users\CYMR90~1\AppData\Local\Temp\ccaJ4oak.s:24727  .debug_str:000000000000e6bf .LASF4653
C:\Users\CYMR90~1\AppData\Local\Temp\ccaJ4oak.s:29192  .debug_str:0000000000020476 .LASF4654
C:\Users\CYMR90~1\AppData\Local\Temp\ccaJ4oak.s:25873  .debug_str:0000000000012fb6 .LASF4655
C:\Users\CYMR90~1\AppData\Local\Temp\ccaJ4oak.s:30910  .debug_str:00000000000270b2 .LASF4656
C:\Users\CYMR90~1\AppData\Local\Temp\ccaJ4oak.s:26405  .debug_str:000000000001518a .LASF4657
C:\Users\CYMR90~1\AppData\Local\Temp\ccaJ4oak.s:26155  .debug_str:00000000000141bd .LASF4658
C:\Users\CYMR90~1\AppData\Local\Temp\ccaJ4oak.s:25233  .debug_str:0000000000010609 .LASF4659
C:\Users\CYMR90~1\AppData\Local\Temp\ccaJ4oak.s:29062  .debug_str:000000000001fc9d .LASF4660
C:\Users\CYMR90~1\AppData\Local\Temp\ccaJ4oak.s:24825  .debug_str:000000000000ecfb .LASF4661
C:\Users\CYMR90~1\AppData\Local\Temp\ccaJ4oak.s:22527  .debug_str:000000000000597f .LASF4662
C:\Users\CYMR90~1\AppData\Local\Temp\ccaJ4oak.s:31652  .debug_str:0000000000029fdd .LASF4663
C:\Users\CYMR90~1\AppData\Local\Temp\ccaJ4oak.s:29372  .debug_str:0000000000020f70 .LASF4664
C:\Users\CYMR90~1\AppData\Local\Temp\ccaJ4oak.s:32170  .debug_str:000000000002c034 .LASF4665
C:\Users\CYMR90~1\AppData\Local\Temp\ccaJ4oak.s:25027  .debug_str:000000000000f977 .LASF4666
C:\Users\CYMR90~1\AppData\Local\Temp\ccaJ4oak.s:23435  .debug_str:0000000000009382 .LASF4667
C:\Users\CYMR90~1\AppData\Local\Temp\ccaJ4oak.s:31846  .debug_str:000000000002ab50 .LASF4668
C:\Users\CYMR90~1\AppData\Local\Temp\ccaJ4oak.s:30022  .debug_str:000000000002365e .LASF4669
C:\Users\CYMR90~1\AppData\Local\Temp\ccaJ4oak.s:31316  .debug_str:0000000000028bfe .LASF4670
C:\Users\CYMR90~1\AppData\Local\Temp\ccaJ4oak.s:22839  .debug_str:0000000000006c94 .LASF4671
C:\Users\CYMR90~1\AppData\Local\Temp\ccaJ4oak.s:29620  .debug_str:0000000000021e98 .LASF4672
C:\Users\CYMR90~1\AppData\Local\Temp\ccaJ4oak.s:31474  .debug_str:0000000000029519 .LASF4673
C:\Users\CYMR90~1\AppData\Local\Temp\ccaJ4oak.s:31212  .debug_str:000000000002850e .LASF4674
C:\Users\CYMR90~1\AppData\Local\Temp\ccaJ4oak.s:30502  .debug_str:00000000000256a7 .LASF4675
C:\Users\CYMR90~1\AppData\Local\Temp\ccaJ4oak.s:27624  .debug_str:000000000001a077 .LASF4676
C:\Users\CYMR90~1\AppData\Local\Temp\ccaJ4oak.s:23605  .debug_str:0000000000009e43 .LASF4677
C:\Users\CYMR90~1\AppData\Local\Temp\ccaJ4oak.s:25029  .debug_str:000000000000f999 .LASF4678
C:\Users\CYMR90~1\AppData\Local\Temp\ccaJ4oak.s:21685  .debug_str:00000000000023cb .LASF4679
C:\Users\CYMR90~1\AppData\Local\Temp\ccaJ4oak.s:23753  .debug_str:000000000000a75f .LASF4680
C:\Users\CYMR90~1\AppData\Local\Temp\ccaJ4oak.s:28702  .debug_str:000000000001e6a2 .LASF4681
C:\Users\CYMR90~1\AppData\Local\Temp\ccaJ4oak.s:26950  .debug_str:0000000000017544 .LASF4682
C:\Users\CYMR90~1\AppData\Local\Temp\ccaJ4oak.s:24415  .debug_str:000000000000d3ed .LASF4683
C:\Users\CYMR90~1\AppData\Local\Temp\ccaJ4oak.s:32226  .debug_str:000000000002c39b .LASF4684
C:\Users\CYMR90~1\AppData\Local\Temp\ccaJ4oak.s:26791  .debug_str:0000000000016948 .LASF4685
C:\Users\CYMR90~1\AppData\Local\Temp\ccaJ4oak.s:31876  .debug_str:000000000002ad1d .LASF4686
C:\Users\CYMR90~1\AppData\Local\Temp\ccaJ4oak.s:21901  .debug_str:0000000000003173 .LASF4687
C:\Users\CYMR90~1\AppData\Local\Temp\ccaJ4oak.s:21423  .debug_str:0000000000001404 .LASF4688
C:\Users\CYMR90~1\AppData\Local\Temp\ccaJ4oak.s:26799  .debug_str:0000000000016a34 .LASF4689
C:\Users\CYMR90~1\AppData\Local\Temp\ccaJ4oak.s:23327  .debug_str:0000000000008ccf .LASF4690
C:\Users\CYMR90~1\AppData\Local\Temp\ccaJ4oak.s:30988  .debug_str:00000000000275e2 .LASF4691
C:\Users\CYMR90~1\AppData\Local\Temp\ccaJ4oak.s:29912  .debug_str:000000000002300e .LASF4692
C:\Users\CYMR90~1\AppData\Local\Temp\ccaJ4oak.s:21657  .debug_str:0000000000002226 .LASF4693
C:\Users\CYMR90~1\AppData\Local\Temp\ccaJ4oak.s:22799  .debug_str:0000000000006a24 .LASF4694
C:\Users\CYMR90~1\AppData\Local\Temp\ccaJ4oak.s:31130  .debug_str:0000000000027eee .LASF4695
C:\Users\CYMR90~1\AppData\Local\Temp\ccaJ4oak.s:28634  .debug_str:000000000001e29b .LASF4696
C:\Users\CYMR90~1\AppData\Local\Temp\ccaJ4oak.s:23157  .debug_str:0000000000008223 .LASF4697
C:\Users\CYMR90~1\AppData\Local\Temp\ccaJ4oak.s:31046  .debug_str:0000000000027927 .LASF4698
C:\Users\CYMR90~1\AppData\Local\Temp\ccaJ4oak.s:24891  .debug_str:000000000000f08a .LASF4699
C:\Users\CYMR90~1\AppData\Local\Temp\ccaJ4oak.s:28320  .debug_str:000000000001cdc7 .LASF4700
C:\Users\CYMR90~1\AppData\Local\Temp\ccaJ4oak.s:28454  .debug_str:000000000001d744 .LASF4701
C:\Users\CYMR90~1\AppData\Local\Temp\ccaJ4oak.s:21641  .debug_str:0000000000002151 .LASF4702
C:\Users\CYMR90~1\AppData\Local\Temp\ccaJ4oak.s:25057  .debug_str:000000000000fb01 .LASF4703
C:\Users\CYMR90~1\AppData\Local\Temp\ccaJ4oak.s:31630  .debug_str:0000000000029ebd .LASF4704
C:\Users\CYMR90~1\AppData\Local\Temp\ccaJ4oak.s:24867  .debug_str:000000000000ef2e .LASF4705
C:\Users\CYMR90~1\AppData\Local\Temp\ccaJ4oak.s:28238  .debug_str:000000000001c806 .LASF4706
C:\Users\CYMR90~1\AppData\Local\Temp\ccaJ4oak.s:23937  .debug_str:000000000000b44f .LASF4707
C:\Users\CYMR90~1\AppData\Local\Temp\ccaJ4oak.s:27098  .debug_str:0000000000017e71 .LASF4708
C:\Users\CYMR90~1\AppData\Local\Temp\ccaJ4oak.s:25273  .debug_str:00000000000108fb .LASF4709
C:\Users\CYMR90~1\AppData\Local\Temp\ccaJ4oak.s:21729  .debug_str:0000000000002690 .LASF4710
C:\Users\CYMR90~1\AppData\Local\Temp\ccaJ4oak.s:29898  .debug_str:0000000000022f3d .LASF4711
C:\Users\CYMR90~1\AppData\Local\Temp\ccaJ4oak.s:21455  .debug_str:00000000000015a1 .LASF4712
C:\Users\CYMR90~1\AppData\Local\Temp\ccaJ4oak.s:21287  .debug_str:0000000000000bcc .LASF4713
C:\Users\CYMR90~1\AppData\Local\Temp\ccaJ4oak.s:22371  .debug_str:000000000000501e .LASF4714
C:\Users\CYMR90~1\AppData\Local\Temp\ccaJ4oak.s:23017  .debug_str:0000000000007806 .LASF4715
C:\Users\CYMR90~1\AppData\Local\Temp\ccaJ4oak.s:30718  .debug_str:00000000000264cf .LASF4716
C:\Users\CYMR90~1\AppData\Local\Temp\ccaJ4oak.s:21645  .debug_str:0000000000002186 .LASF4717
C:\Users\CYMR90~1\AppData\Local\Temp\ccaJ4oak.s:29432  .debug_str:00000000000212c8 .LASF4718
C:\Users\CYMR90~1\AppData\Local\Temp\ccaJ4oak.s:24013  .debug_str:000000000000b97b .LASF4719
C:\Users\CYMR90~1\AppData\Local\Temp\ccaJ4oak.s:28538  .debug_str:000000000001dc75 .LASF4720
C:\Users\CYMR90~1\AppData\Local\Temp\ccaJ4oak.s:23365  .debug_str:0000000000008f84 .LASF4721
C:\Users\CYMR90~1\AppData\Local\Temp\ccaJ4oak.s:29048  .debug_str:000000000001fbc1 .LASF4722
C:\Users\CYMR90~1\AppData\Local\Temp\ccaJ4oak.s:29678  .debug_str:0000000000022207 .LASF4723
C:\Users\CYMR90~1\AppData\Local\Temp\ccaJ4oak.s:27240  .debug_str:00000000000186f6 .LASF4724
C:\Users\CYMR90~1\AppData\Local\Temp\ccaJ4oak.s:29772  .debug_str:0000000000022784 .LASF4725
C:\Users\CYMR90~1\AppData\Local\Temp\ccaJ4oak.s:26723  .debug_str:00000000000164e4 .LASF4726
C:\Users\CYMR90~1\AppData\Local\Temp\ccaJ4oak.s:26623  .debug_str:0000000000015e9f .LASF4727
C:\Users\CYMR90~1\AppData\Local\Temp\ccaJ4oak.s:26203  .debug_str:00000000000144c4 .LASF4728
C:\Users\CYMR90~1\AppData\Local\Temp\ccaJ4oak.s:23121  .debug_str:0000000000007f3e .LASF4729
C:\Users\CYMR90~1\AppData\Local\Temp\ccaJ4oak.s:25441  .debug_str:0000000000011342 .LASF4730
C:\Users\CYMR90~1\AppData\Local\Temp\ccaJ4oak.s:28498  .debug_str:000000000001da4d .LASF4731
C:\Users\CYMR90~1\AppData\Local\Temp\ccaJ4oak.s:32412  .debug_str:000000000002d01c .LASF4732
C:\Users\CYMR90~1\AppData\Local\Temp\ccaJ4oak.s:24711  .debug_str:000000000000e5c9 .LASF4733
C:\Users\CYMR90~1\AppData\Local\Temp\ccaJ4oak.s:27200  .debug_str:000000000001849a .LASF4734
C:\Users\CYMR90~1\AppData\Local\Temp\ccaJ4oak.s:21507  .debug_str:0000000000001992 .LASF4735
C:\Users\CYMR90~1\AppData\Local\Temp\ccaJ4oak.s:22153  .debug_str:0000000000004170 .LASF4736
C:\Users\CYMR90~1\AppData\Local\Temp\ccaJ4oak.s:22157  .debug_str:0000000000004240 .LASF4737
C:\Users\CYMR90~1\AppData\Local\Temp\ccaJ4oak.s:25353  .debug_str:0000000000010e72 .LASF4738
C:\Users\CYMR90~1\AppData\Local\Temp\ccaJ4oak.s:30174  .debug_str:0000000000023fd2 .LASF4739
C:\Users\CYMR90~1\AppData\Local\Temp\ccaJ4oak.s:24041  .debug_str:000000000000bb80 .LASF4740
C:\Users\CYMR90~1\AppData\Local\Temp\ccaJ4oak.s:23749  .debug_str:000000000000a721 .LASF4741
C:\Users\CYMR90~1\AppData\Local\Temp\ccaJ4oak.s:21985  .debug_str:00000000000036c9 .LASF4742
C:\Users\CYMR90~1\AppData\Local\Temp\ccaJ4oak.s:30050  .debug_str:0000000000023861 .LASF4743
C:\Users\CYMR90~1\AppData\Local\Temp\ccaJ4oak.s:30596  .debug_str:0000000000025d4d .LASF4744
C:\Users\CYMR90~1\AppData\Local\Temp\ccaJ4oak.s:30242  .debug_str:00000000000244b4 .LASF4745
C:\Users\CYMR90~1\AppData\Local\Temp\ccaJ4oak.s:29982  .debug_str:00000000000233e4 .LASF4746
C:\Users\CYMR90~1\AppData\Local\Temp\ccaJ4oak.s:26501  .debug_str:00000000000156f5 .LASF4747
C:\Users\CYMR90~1\AppData\Local\Temp\ccaJ4oak.s:32016  .debug_str:000000000002b5a8 .LASF4748
C:\Users\CYMR90~1\AppData\Local\Temp\ccaJ4oak.s:30288  .debug_str:00000000000247de .LASF4749
C:\Users\CYMR90~1\AppData\Local\Temp\ccaJ4oak.s:27490  .debug_str:000000000001979d .LASF4750
C:\Users\CYMR90~1\AppData\Local\Temp\ccaJ4oak.s:28520  .debug_str:000000000001db87 .LASF4751
C:\Users\CYMR90~1\AppData\Local\Temp\ccaJ4oak.s:26707  .debug_str:00000000000163e8 .LASF4752
C:\Users\CYMR90~1\AppData\Local\Temp\ccaJ4oak.s:23375  .debug_str:000000000000901e .LASF4753
C:\Users\CYMR90~1\AppData\Local\Temp\ccaJ4oak.s:27494  .debug_str:00000000000197e5 .LASF4754
C:\Users\CYMR90~1\AppData\Local\Temp\ccaJ4oak.s:27288  .debug_str:00000000000189dc .LASF4755
C:\Users\CYMR90~1\AppData\Local\Temp\ccaJ4oak.s:26958  .debug_str:00000000000175a0 .LASF4756
C:\Users\CYMR90~1\AppData\Local\Temp\ccaJ4oak.s:26737  .debug_str:000000000001658f .LASF4757
C:\Users\CYMR90~1\AppData\Local\Temp\ccaJ4oak.s:22097  .debug_str:0000000000003dda .LASF4758
C:\Users\CYMR90~1\AppData\Local\Temp\ccaJ4oak.s:31010  .debug_str:000000000002771c .LASF4759
C:\Users\CYMR90~1\AppData\Local\Temp\ccaJ4oak.s:24683  .debug_str:000000000000e425 .LASF4760
C:\Users\CYMR90~1\AppData\Local\Temp\ccaJ4oak.s:22145  .debug_str:00000000000040ed .LASF4761
C:\Users\CYMR90~1\AppData\Local\Temp\ccaJ4oak.s:26341  .debug_str:0000000000014d28 .LASF4762
C:\Users\CYMR90~1\AppData\Local\Temp\ccaJ4oak.s:24677  .debug_str:000000000000e3df .LASF4763
C:\Users\CYMR90~1\AppData\Local\Temp\ccaJ4oak.s:21669  .debug_str:00000000000022f0 .LASF4764
C:\Users\CYMR90~1\AppData\Local\Temp\ccaJ4oak.s:31854  .debug_str:000000000002abd6 .LASF4765
C:\Users\CYMR90~1\AppData\Local\Temp\ccaJ4oak.s:23277  .debug_str:00000000000089a7 .LASF4766
C:\Users\CYMR90~1\AppData\Local\Temp\ccaJ4oak.s:21857  .debug_str:0000000000002eb7 .LASF4767
C:\Users\CYMR90~1\AppData\Local\Temp\ccaJ4oak.s:31096  .debug_str:0000000000027c8f .LASF4768
C:\Users\CYMR90~1\AppData\Local\Temp\ccaJ4oak.s:31584  .debug_str:0000000000029bd7 .LASF4769
C:\Users\CYMR90~1\AppData\Local\Temp\ccaJ4oak.s:27614  .debug_str:0000000000019fd4 .LASF4770
C:\Users\CYMR90~1\AppData\Local\Temp\ccaJ4oak.s:27652  .debug_str:000000000001a200 .LASF4771
C:\Users\CYMR90~1\AppData\Local\Temp\ccaJ4oak.s:30542  .debug_str:0000000000025989 .LASF4772
C:\Users\CYMR90~1\AppData\Local\Temp\ccaJ4oak.s:26439  .debug_str:00000000000153b7 .LASF4773
C:\Users\CYMR90~1\AppData\Local\Temp\ccaJ4oak.s:32382  .debug_str:000000000002cdd6 .LASF4774
C:\Users\CYMR90~1\AppData\Local\Temp\ccaJ4oak.s:31264  .debug_str:00000000000288b2 .LASF4775
C:\Users\CYMR90~1\AppData\Local\Temp\ccaJ4oak.s:29992  .debug_str:000000000002346a .LASF4776
C:\Users\CYMR90~1\AppData\Local\Temp\ccaJ4oak.s:28802  .debug_str:000000000001eca9 .LASF4777
C:\Users\CYMR90~1\AppData\Local\Temp\ccaJ4oak.s:25247  .debug_str:00000000000106f1 .LASF4778
C:\Users\CYMR90~1\AppData\Local\Temp\ccaJ4oak.s:32268  .debug_str:000000000002c6c5 .LASF4779
C:\Users\CYMR90~1\AppData\Local\Temp\ccaJ4oak.s:30420  .debug_str:0000000000025073 .LASF4780
C:\Users\CYMR90~1\AppData\Local\Temp\ccaJ4oak.s:30330  .debug_str:0000000000024a4a .LASF4781
C:\Users\CYMR90~1\AppData\Local\Temp\ccaJ4oak.s:22891  .debug_str:0000000000006fea .LASF4782
C:\Users\CYMR90~1\AppData\Local\Temp\ccaJ4oak.s:26761  .debug_str:0000000000016760 .LASF4783
C:\Users\CYMR90~1\AppData\Local\Temp\ccaJ4oak.s:31074  .debug_str:0000000000027ae7 .LASF4784
C:\Users\CYMR90~1\AppData\Local\Temp\ccaJ4oak.s:28302  .debug_str:000000000001cc82 .LASF4785
C:\Users\CYMR90~1\AppData\Local\Temp\ccaJ4oak.s:27096  .debug_str:0000000000017e4c .LASF4786
C:\Users\CYMR90~1\AppData\Local\Temp\ccaJ4oak.s:27062  .debug_str:0000000000017c67 .LASF4787
C:\Users\CYMR90~1\AppData\Local\Temp\ccaJ4oak.s:30012  .debug_str:00000000000235c3 .LASF4788
C:\Users\CYMR90~1\AppData\Local\Temp\ccaJ4oak.s:23177  .debug_str:000000000000836c .LASF4789
C:\Users\CYMR90~1\AppData\Local\Temp\ccaJ4oak.s:28288  .debug_str:000000000001cb9f .LASF4790
C:\Users\CYMR90~1\AppData\Local\Temp\ccaJ4oak.s:23795  .debug_str:000000000000aac8 .LASF4791
C:\Users\CYMR90~1\AppData\Local\Temp\ccaJ4oak.s:22769  .debug_str:0000000000006806 .LASF4792
C:\Users\CYMR90~1\AppData\Local\Temp\ccaJ4oak.s:26755  .debug_str:0000000000016713 .LASF4793
C:\Users\CYMR90~1\AppData\Local\Temp\ccaJ4oak.s:27910  .debug_str:000000000001b44c .LASF4794
C:\Users\CYMR90~1\AppData\Local\Temp\ccaJ4oak.s:22135  .debug_str:0000000000004084 .LASF4795
C:\Users\CYMR90~1\AppData\Local\Temp\ccaJ4oak.s:30616  .debug_str:0000000000025e87 .LASF4796
C:\Users\CYMR90~1\AppData\Local\Temp\ccaJ4oak.s:24763  .debug_str:000000000000e91c .LASF4797
C:\Users\CYMR90~1\AppData\Local\Temp\ccaJ4oak.s:28372  .debug_str:000000000001d219 .LASF4798
C:\Users\CYMR90~1\AppData\Local\Temp\ccaJ4oak.s:26237  .debug_str:00000000000146b0 .LASF4799
C:\Users\CYMR90~1\AppData\Local\Temp\ccaJ4oak.s:23899  .debug_str:000000000000b1fd .LASF4800
C:\Users\CYMR90~1\AppData\Local\Temp\ccaJ4oak.s:29326  .debug_str:0000000000020cd8 .LASF4801
C:\Users\CYMR90~1\AppData\Local\Temp\ccaJ4oak.s:30730  .debug_str:0000000000026562 .LASF4802
C:\Users\CYMR90~1\AppData\Local\Temp\ccaJ4oak.s:29012  .debug_str:000000000001f976 .LASF4803
C:\Users\CYMR90~1\AppData\Local\Temp\ccaJ4oak.s:29622  .debug_str:0000000000021ebc .LASF4804
C:\Users\CYMR90~1\AppData\Local\Temp\ccaJ4oak.s:27880  .debug_str:000000000001b240 .LASF4805
C:\Users\CYMR90~1\AppData\Local\Temp\ccaJ4oak.s:29164  .debug_str:00000000000202aa .LASF4806
C:\Users\CYMR90~1\AppData\Local\Temp\ccaJ4oak.s:30678  .debug_str:000000000002626c .LASF4807
C:\Users\CYMR90~1\AppData\Local\Temp\ccaJ4oak.s:30156  .debug_str:0000000000023eaf .LASF4808
C:\Users\CYMR90~1\AppData\Local\Temp\ccaJ4oak.s:29970  .debug_str:0000000000023312 .LASF4809
C:\Users\CYMR90~1\AppData\Local\Temp\ccaJ4oak.s:32442  .debug_str:000000000002d1d9 .LASF4810
C:\Users\CYMR90~1\AppData\Local\Temp\ccaJ4oak.s:22763  .debug_str:00000000000067a7 .LASF4811
C:\Users\CYMR90~1\AppData\Local\Temp\ccaJ4oak.s:22391  .debug_str:0000000000005142 .LASF4812
C:\Users\CYMR90~1\AppData\Local\Temp\ccaJ4oak.s:29874  .debug_str:0000000000022de2 .LASF4813
C:\Users\CYMR90~1\AppData\Local\Temp\ccaJ4oak.s:29824  .debug_str:0000000000022a9e .LASF4814
C:\Users\CYMR90~1\AppData\Local\Temp\ccaJ4oak.s:29108  .debug_str:000000000001ff9a .LASF4815
C:\Users\CYMR90~1\AppData\Local\Temp\ccaJ4oak.s:21271  .debug_str:0000000000000a72 .LASF4816
C:\Users\CYMR90~1\AppData\Local\Temp\ccaJ4oak.s:26025  .debug_str:00000000000139fd .LASF4817
C:\Users\CYMR90~1\AppData\Local\Temp\ccaJ4oak.s:27150  .debug_str:0000000000018173 .LASF4818
C:\Users\CYMR90~1\AppData\Local\Temp\ccaJ4oak.s:24749  .debug_str:000000000000e864 .LASF4819
C:\Users\CYMR90~1\AppData\Local\Temp\ccaJ4oak.s:28346  .debug_str:000000000001d012 .LASF4820
C:\Users\CYMR90~1\AppData\Local\Temp\ccaJ4oak.s:26377  .debug_str:0000000000014fbd .LASF4821
C:\Users\CYMR90~1\AppData\Local\Temp\ccaJ4oak.s:21653  .debug_str:00000000000021df .LASF4822
C:\Users\CYMR90~1\AppData\Local\Temp\ccaJ4oak.s:23131  .debug_str:0000000000007feb .LASF4823
C:\Users\CYMR90~1\AppData\Local\Temp\ccaJ4oak.s:24175  .debug_str:000000000000c438 .LASF4824
C:\Users\CYMR90~1\AppData\Local\Temp\ccaJ4oak.s:26523  .debug_str:0000000000015846 .LASF4825
C:\Users\CYMR90~1\AppData\Local\Temp\ccaJ4oak.s:28038  .debug_str:000000000001bbb3 .LASF4826
C:\Users\CYMR90~1\AppData\Local\Temp\ccaJ4oak.s:22221  .debug_str:000000000000463a .LASF4827
C:\Users\CYMR90~1\AppData\Local\Temp\ccaJ4oak.s:23253  .debug_str:0000000000008825 .LASF4828
C:\Users\CYMR90~1\AppData\Local\Temp\ccaJ4oak.s:22275  .debug_str:0000000000004a5f .LASF4829
C:\Users\CYMR90~1\AppData\Local\Temp\ccaJ4oak.s:28612  .debug_str:000000000001e181 .LASF4830
C:\Users\CYMR90~1\AppData\Local\Temp\ccaJ4oak.s:30260  .debug_str:00000000000245f9 .LASF4831
C:\Users\CYMR90~1\AppData\Local\Temp\ccaJ4oak.s:31762  .debug_str:000000000002a681 .LASF4832
C:\Users\CYMR90~1\AppData\Local\Temp\ccaJ4oak.s:25101  .debug_str:000000000000fda5 .LASF4833
C:\Users\CYMR90~1\AppData\Local\Temp\ccaJ4oak.s:29646  .debug_str:0000000000022024 .LASF4834
C:\Users\CYMR90~1\AppData\Local\Temp\ccaJ4oak.s:31204  .debug_str:000000000002848a .LASF4835
C:\Users\CYMR90~1\AppData\Local\Temp\ccaJ4oak.s:30038  .debug_str:0000000000023786 .LASF4836
C:\Users\CYMR90~1\AppData\Local\Temp\ccaJ4oak.s:26397  .debug_str:000000000001510d .LASF4837
C:\Users\CYMR90~1\AppData\Local\Temp\ccaJ4oak.s:31960  .debug_str:000000000002b1f7 .LASF4838
C:\Users\CYMR90~1\AppData\Local\Temp\ccaJ4oak.s:23935  .debug_str:000000000000b426 .LASF4839
C:\Users\CYMR90~1\AppData\Local\Temp\ccaJ4oak.s:31460  .debug_str:0000000000029446 .LASF4840
C:\Users\CYMR90~1\AppData\Local\Temp\ccaJ4oak.s:26475  .debug_str:00000000000155ab .LASF4841
C:\Users\CYMR90~1\AppData\Local\Temp\ccaJ4oak.s:29526  .debug_str:00000000000218dc .LASF4842
C:\Users\CYMR90~1\AppData\Local\Temp\ccaJ4oak.s:31864  .debug_str:000000000002ac74 .LASF4843
C:\Users\CYMR90~1\AppData\Local\Temp\ccaJ4oak.s:21243  .debug_str:00000000000008ae .LASF4844
C:\Users\CYMR90~1\AppData\Local\Temp\ccaJ4oak.s:27936  .debug_str:000000000001b5e8 .LASF4845
C:\Users\CYMR90~1\AppData\Local\Temp\ccaJ4oak.s:28816  .debug_str:000000000001ed8c .LASF4846
C:\Users\CYMR90~1\AppData\Local\Temp\ccaJ4oak.s:23671  .debug_str:000000000000a256 .LASF4847
C:\Users\CYMR90~1\AppData\Local\Temp\ccaJ4oak.s:22503  .debug_str:000000000000580c .LASF4848
C:\Users\CYMR90~1\AppData\Local\Temp\ccaJ4oak.s:25025  .debug_str:000000000000f94d .LASF4849
C:\Users\CYMR90~1\AppData\Local\Temp\ccaJ4oak.s:27282  .debug_str:000000000001896a .LASF4850
C:\Users\CYMR90~1\AppData\Local\Temp\ccaJ4oak.s:21753  .debug_str:000000000000284b .LASF4851
C:\Users\CYMR90~1\AppData\Local\Temp\ccaJ4oak.s:27532  .debug_str:0000000000019b07 .LASF4852
C:\Users\CYMR90~1\AppData\Local\Temp\ccaJ4oak.s:28870  .debug_str:000000000001f0ea .LASF4853
C:\Users\CYMR90~1\AppData\Local\Temp\ccaJ4oak.s:21279  .debug_str:0000000000000b38 .LASF4854
C:\Users\CYMR90~1\AppData\Local\Temp\ccaJ4oak.s:22747  .debug_str:00000000000066e1 .LASF4855
C:\Users\CYMR90~1\AppData\Local\Temp\ccaJ4oak.s:25783  .debug_str:00000000000129db .LASF4856
C:\Users\CYMR90~1\AppData\Local\Temp\ccaJ4oak.s:28794  .debug_str:000000000001ec31 .LASF4857
C:\Users\CYMR90~1\AppData\Local\Temp\ccaJ4oak.s:28362  .debug_str:000000000001d181 .LASF4858
C:\Users\CYMR90~1\AppData\Local\Temp\ccaJ4oak.s:31910  .debug_str:000000000002af32 .LASF4859
C:\Users\CYMR90~1\AppData\Local\Temp\ccaJ4oak.s:24095  .debug_str:000000000000bf05 .LASF4860
C:\Users\CYMR90~1\AppData\Local\Temp\ccaJ4oak.s:27120  .debug_str:0000000000017fe8 .LASF4861
C:\Users\CYMR90~1\AppData\Local\Temp\ccaJ4oak.s:26129  .debug_str:000000000001402f .LASF4862
C:\Users\CYMR90~1\AppData\Local\Temp\ccaJ4oak.s:27104  .debug_str:0000000000017ec7 .LASF4863
C:\Users\CYMR90~1\AppData\Local\Temp\ccaJ4oak.s:29312  .debug_str:0000000000020bfd .LASF4864
C:\Users\CYMR90~1\AppData\Local\Temp\ccaJ4oak.s:29316  .debug_str:0000000000020c36 .LASF4865
C:\Users\CYMR90~1\AppData\Local\Temp\ccaJ4oak.s:21879  .debug_str:0000000000002ff8 .LASF4866
C:\Users\CYMR90~1\AppData\Local\Temp\ccaJ4oak.s:24847  .debug_str:000000000000ee2a .LASF4867
C:\Users\CYMR90~1\AppData\Local\Temp\ccaJ4oak.s:31656  .debug_str:000000000002a01a .LASF4868
C:\Users\CYMR90~1\AppData\Local\Temp\ccaJ4oak.s:23287  .debug_str:0000000000008a46 .LASF4869
C:\Users\CYMR90~1\AppData\Local\Temp\ccaJ4oak.s:25063  .debug_str:000000000000fb57 .LASF4870
C:\Users\CYMR90~1\AppData\Local\Temp\ccaJ4oak.s:21819  .debug_str:0000000000002c8c .LASF4871
C:\Users\CYMR90~1\AppData\Local\Temp\ccaJ4oak.s:25089  .debug_str:000000000000fd04 .LASF4872
C:\Users\CYMR90~1\AppData\Local\Temp\ccaJ4oak.s:26912  .debug_str:0000000000017337 .LASF4873
C:\Users\CYMR90~1\AppData\Local\Temp\ccaJ4oak.s:24537  .debug_str:000000000000db86 .LASF4874
C:\Users\CYMR90~1\AppData\Local\Temp\ccaJ4oak.s:26990  .debug_str:00000000000177bb .LASF4875
C:\Users\CYMR90~1\AppData\Local\Temp\ccaJ4oak.s:23557  .debug_str:0000000000009b6b .LASF4876
C:\Users\CYMR90~1\AppData\Local\Temp\ccaJ4oak.s:26391  .debug_str:00000000000150af .LASF4877
C:\Users\CYMR90~1\AppData\Local\Temp\ccaJ4oak.s:26289  .debug_str:0000000000014a1d .LASF4878
C:\Users\CYMR90~1\AppData\Local\Temp\ccaJ4oak.s:23243  .debug_str:000000000000878b .LASF4879
C:\Users\CYMR90~1\AppData\Local\Temp\ccaJ4oak.s:22429  .debug_str:000000000000538c .LASF4880
C:\Users\CYMR90~1\AppData\Local\Temp\ccaJ4oak.s:30212  .debug_str:00000000000242b6 .LASF4881
C:\Users\CYMR90~1\AppData\Local\Temp\ccaJ4oak.s:31896  .debug_str:000000000002ae75 .LASF4882
C:\Users\CYMR90~1\AppData\Local\Temp\ccaJ4oak.s:27182  .debug_str:000000000001837d .LASF4883
C:\Users\CYMR90~1\AppData\Local\Temp\ccaJ4oak.s:31390  .debug_str:0000000000029033 .LASF4884
C:\Users\CYMR90~1\AppData\Local\Temp\ccaJ4oak.s:31072  .debug_str:0000000000027ac5 .LASF4885
C:\Users\CYMR90~1\AppData\Local\Temp\ccaJ4oak.s:23533  .debug_str:00000000000099c4 .LASF4886
C:\Users\CYMR90~1\AppData\Local\Temp\ccaJ4oak.s:30816  .debug_str:0000000000026abd .LASF4887
C:\Users\CYMR90~1\AppData\Local\Temp\ccaJ4oak.s:27166  .debug_str:0000000000018292 .LASF4888
C:\Users\CYMR90~1\AppData\Local\Temp\ccaJ4oak.s:27070  .debug_str:0000000000017cc9 .LASF4889
C:\Users\CYMR90~1\AppData\Local\Temp\ccaJ4oak.s:30946  .debug_str:000000000002728e .LASF4890
C:\Users\CYMR90~1\AppData\Local\Temp\ccaJ4oak.s:24949  .debug_str:000000000000f415 .LASF4891
C:\Users\CYMR90~1\AppData\Local\Temp\ccaJ4oak.s:28324  .debug_str:000000000001ce0b .LASF4892
C:\Users\CYMR90~1\AppData\Local\Temp\ccaJ4oak.s:27356  .debug_str:0000000000018eba .LASF4893
C:\Users\CYMR90~1\AppData\Local\Temp\ccaJ4oak.s:24251  .debug_str:000000000000c954 .LASF4894
C:\Users\CYMR90~1\AppData\Local\Temp\ccaJ4oak.s:30472  .debug_str:00000000000254bd .LASF4895
C:\Users\CYMR90~1\AppData\Local\Temp\ccaJ4oak.s:23663  .debug_str:000000000000a1e0 .LASF4896
C:\Users\CYMR90~1\AppData\Local\Temp\ccaJ4oak.s:30296  .debug_str:0000000000024843 .LASF4897
C:\Users\CYMR90~1\AppData\Local\Temp\ccaJ4oak.s:28098  .debug_str:000000000001bfaa .LASF4898
C:\Users\CYMR90~1\AppData\Local\Temp\ccaJ4oak.s:24391  .debug_str:000000000000d20e .LASF4899
C:\Users\CYMR90~1\AppData\Local\Temp\ccaJ4oak.s:25263  .debug_str:000000000001087e .LASF4900
C:\Users\CYMR90~1\AppData\Local\Temp\ccaJ4oak.s:21595  .debug_str:0000000000001eca .LASF4901
C:\Users\CYMR90~1\AppData\Local\Temp\ccaJ4oak.s:26864  .debug_str:000000000001706f .LASF4902
C:\Users\CYMR90~1\AppData\Local\Temp\ccaJ4oak.s:28172  .debug_str:000000000001c41f .LASF4903
C:\Users\CYMR90~1\AppData\Local\Temp\ccaJ4oak.s:26285  .debug_str:00000000000149db .LASF4904
C:\Users\CYMR90~1\AppData\Local\Temp\ccaJ4oak.s:22213  .debug_str:00000000000045b9 .LASF4905
C:\Users\CYMR90~1\AppData\Local\Temp\ccaJ4oak.s:27810  .debug_str:000000000001ada6 .LASF4906
C:\Users\CYMR90~1\AppData\Local\Temp\ccaJ4oak.s:30566  .debug_str:0000000000025b7d .LASF4907
C:\Users\CYMR90~1\AppData\Local\Temp\ccaJ4oak.s:25001  .debug_str:000000000000f73b .LASF4908
C:\Users\CYMR90~1\AppData\Local\Temp\ccaJ4oak.s:24089  .debug_str:000000000000be71 .LASF4909
C:\Users\CYMR90~1\AppData\Local\Temp\ccaJ4oak.s:21107  .debug_str:000000000000006a .LASF4910
C:\Users\CYMR90~1\AppData\Local\Temp\ccaJ4oak.s:24165  .debug_str:000000000000c3b5 .LASF4911
C:\Users\CYMR90~1\AppData\Local\Temp\ccaJ4oak.s:22765  .debug_str:00000000000067ca .LASF4912
C:\Users\CYMR90~1\AppData\Local\Temp\ccaJ4oak.s:32110  .debug_str:000000000002bbe4 .LASF4913
C:\Users\CYMR90~1\AppData\Local\Temp\ccaJ4oak.s:26529  .debug_str:0000000000015897 .LASF4914
C:\Users\CYMR90~1\AppData\Local\Temp\ccaJ4oak.s:24047  .debug_str:000000000000bbc7 .LASF4915
C:\Users\CYMR90~1\AppData\Local\Temp\ccaJ4oak.s:26381  .debug_str:0000000000015004 .LASF4916
C:\Users\CYMR90~1\AppData\Local\Temp\ccaJ4oak.s:24001  .debug_str:000000000000b8b2 .LASF4917
C:\Users\CYMR90~1\AppData\Local\Temp\ccaJ4oak.s:26575  .debug_str:0000000000015b66 .LASF4918
C:\Users\CYMR90~1\AppData\Local\Temp\ccaJ4oak.s:25369  .debug_str:0000000000010f44 .LASF4919
C:\Users\CYMR90~1\AppData\Local\Temp\ccaJ4oak.s:25387  .debug_str:0000000000011024 .LASF4920
C:\Users\CYMR90~1\AppData\Local\Temp\ccaJ4oak.s:25699  .debug_str:0000000000012485 .LASF4921
C:\Users\CYMR90~1\AppData\Local\Temp\ccaJ4oak.s:26447  .debug_str:0000000000015440 .LASF4922
C:\Users\CYMR90~1\AppData\Local\Temp\ccaJ4oak.s:31260  .debug_str:000000000002886a .LASF4923
C:\Users\CYMR90~1\AppData\Local\Temp\ccaJ4oak.s:31266  .debug_str:00000000000288d4 .LASF4924
C:\Users\CYMR90~1\AppData\Local\Temp\ccaJ4oak.s:23019  .debug_str:0000000000007828 .LASF4925
C:\Users\CYMR90~1\AppData\Local\Temp\ccaJ4oak.s:32162  .debug_str:000000000002bf31 .LASF4926
C:\Users\CYMR90~1\AppData\Local\Temp\ccaJ4oak.s:32180  .debug_str:000000000002c0d8 .LASF4927
C:\Users\CYMR90~1\AppData\Local\Temp\ccaJ4oak.s:29340  .debug_str:0000000000020dbf .LASF4928
C:\Users\CYMR90~1\AppData\Local\Temp\ccaJ4oak.s:21305  .debug_str:0000000000000cc1 .LASF4929
C:\Users\CYMR90~1\AppData\Local\Temp\ccaJ4oak.s:24043  .debug_str:000000000000bb98 .LASF4930
C:\Users\CYMR90~1\AppData\Local\Temp\ccaJ4oak.s:28798  .debug_str:000000000001ec6d .LASF4931
C:\Users\CYMR90~1\AppData\Local\Temp\ccaJ4oak.s:22755  .debug_str:000000000000674c .LASF4932
C:\Users\CYMR90~1\AppData\Local\Temp\ccaJ4oak.s:24475  .debug_str:000000000000d82e .LASF4933
C:\Users\CYMR90~1\AppData\Local\Temp\ccaJ4oak.s:25893  .debug_str:0000000000013119 .LASF4934
C:\Users\CYMR90~1\AppData\Local\Temp\ccaJ4oak.s:25305  .debug_str:0000000000010ad2 .LASF4935
C:\Users\CYMR90~1\AppData\Local\Temp\ccaJ4oak.s:29634  .debug_str:0000000000021f89 .LASF4936
C:\Users\CYMR90~1\AppData\Local\Temp\ccaJ4oak.s:28676  .debug_str:000000000001e508 .LASF4937
C:\Users\CYMR90~1\AppData\Local\Temp\ccaJ4oak.s:22421  .debug_str:0000000000005308 .LASF4938
C:\Users\CYMR90~1\AppData\Local\Temp\ccaJ4oak.s:29468  .debug_str:000000000002157f .LASF4939
C:\Users\CYMR90~1\AppData\Local\Temp\ccaJ4oak.s:26631  .debug_str:0000000000015f14 .LASF4940
C:\Users\CYMR90~1\AppData\Local\Temp\ccaJ4oak.s:22661  .debug_str:00000000000061bf .LASF4941
C:\Users\CYMR90~1\AppData\Local\Temp\ccaJ4oak.s:23133  .debug_str:000000000000800f .LASF4942
C:\Users\CYMR90~1\AppData\Local\Temp\ccaJ4oak.s:26459  .debug_str:00000000000154c2 .LASF4943
C:\Users\CYMR90~1\AppData\Local\Temp\ccaJ4oak.s:29112  .debug_str:000000000001ffe8 .LASF4944
C:\Users\CYMR90~1\AppData\Local\Temp\ccaJ4oak.s:31298  .debug_str:0000000000028aca .LASF4945
C:\Users\CYMR90~1\AppData\Local\Temp\ccaJ4oak.s:26105  .debug_str:0000000000013e9f .LASF4946
C:\Users\CYMR90~1\AppData\Local\Temp\ccaJ4oak.s:26037  .debug_str:0000000000013abf .LASF4947
C:\Users\CYMR90~1\AppData\Local\Temp\ccaJ4oak.s:21703  .debug_str:0000000000002502 .LASF4948
C:\Users\CYMR90~1\AppData\Local\Temp\ccaJ4oak.s:28728  .debug_str:000000000001e84a .LASF4949
C:\Users\CYMR90~1\AppData\Local\Temp\ccaJ4oak.s:28190  .debug_str:000000000001c528 .LASF4950
C:\Users\CYMR90~1\AppData\Local\Temp\ccaJ4oak.s:30522  .debug_str:000000000002582e .LASF4951
C:\Users\CYMR90~1\AppData\Local\Temp\ccaJ4oak.s:22807  .debug_str:0000000000006a97 .LASF4952
C:\Users\CYMR90~1\AppData\Local\Temp\ccaJ4oak.s:21559  .debug_str:0000000000001cb2 .LASF4953
C:\Users\CYMR90~1\AppData\Local\Temp\ccaJ4oak.s:23395  .debug_str:000000000000912c .LASF4954
C:\Users\CYMR90~1\AppData\Local\Temp\ccaJ4oak.s:23559  .debug_str:0000000000009b8e .LASF4955
C:\Users\CYMR90~1\AppData\Local\Temp\ccaJ4oak.s:21571  .debug_str:0000000000001d53 .LASF4956
C:\Users\CYMR90~1\AppData\Local\Temp\ccaJ4oak.s:32204  .debug_str:000000000002c23a .LASF4957
C:\Users\CYMR90~1\AppData\Local\Temp\ccaJ4oak.s:26333  .debug_str:0000000000014cb0 .LASF4958
C:\Users\CYMR90~1\AppData\Local\Temp\ccaJ4oak.s:26741  .debug_str:00000000000165d2 .LASF4959
C:\Users\CYMR90~1\AppData\Local\Temp\ccaJ4oak.s:25831  .debug_str:0000000000012d00 .LASF4960
C:\Users\CYMR90~1\AppData\Local\Temp\ccaJ4oak.s:23883  .debug_str:000000000000b10a .LASF4961
C:\Users\CYMR90~1\AppData\Local\Temp\ccaJ4oak.s:26395  .debug_str:00000000000150f4 .LASF4962
C:\Users\CYMR90~1\AppData\Local\Temp\ccaJ4oak.s:22943  .debug_str:000000000000737a .LASF4963
C:\Users\CYMR90~1\AppData\Local\Temp\ccaJ4oak.s:27162  .debug_str:0000000000018255 .LASF4964
C:\Users\CYMR90~1\AppData\Local\Temp\ccaJ4oak.s:25049  .debug_str:000000000000fa96 .LASF4965
C:\Users\CYMR90~1\AppData\Local\Temp\ccaJ4oak.s:26559  .debug_str:0000000000015a73 .LASF4966
C:\Users\CYMR90~1\AppData\Local\Temp\ccaJ4oak.s:24411  .debug_str:000000000000d3af .LASF4967
C:\Users\CYMR90~1\AppData\Local\Temp\ccaJ4oak.s:27830  .debug_str:000000000001aedb .LASF4968
C:\Users\CYMR90~1\AppData\Local\Temp\ccaJ4oak.s:32458  .debug_str:000000000002d2d7 .LASF4969
C:\Users\CYMR90~1\AppData\Local\Temp\ccaJ4oak.s:21999  .debug_str:0000000000003797 .LASF4970
C:\Users\CYMR90~1\AppData\Local\Temp\ccaJ4oak.s:29896  .debug_str:0000000000022f25 .LASF4971
C:\Users\CYMR90~1\AppData\Local\Temp\ccaJ4oak.s:29834  .debug_str:0000000000022b18 .LASF4972
C:\Users\CYMR90~1\AppData\Local\Temp\ccaJ4oak.s:22375  .debug_str:000000000000505c .LASF4973
C:\Users\CYMR90~1\AppData\Local\Temp\ccaJ4oak.s:23607  .debug_str:0000000000009e62 .LASF4974
C:\Users\CYMR90~1\AppData\Local\Temp\ccaJ4oak.s:23555  .debug_str:0000000000009b4a .LASF4975
C:\Users\CYMR90~1\AppData\Local\Temp\ccaJ4oak.s:24453  .debug_str:000000000000d698 .LASF4976
C:\Users\CYMR90~1\AppData\Local\Temp\ccaJ4oak.s:21651  .debug_str:00000000000021c2 .LASF4977
C:\Users\CYMR90~1\AppData\Local\Temp\ccaJ4oak.s:29600  .debug_str:0000000000021d87 .LASF4978
C:\Users\CYMR90~1\AppData\Local\Temp\ccaJ4oak.s:29228  .debug_str:000000000002071f .LASF4979
C:\Users\CYMR90~1\AppData\Local\Temp\ccaJ4oak.s:30956  .debug_str:0000000000027338 .LASF4980
C:\Users\CYMR90~1\AppData\Local\Temp\ccaJ4oak.s:21517  .debug_str:00000000000019fd .LASF4981
C:\Users\CYMR90~1\AppData\Local\Temp\ccaJ4oak.s:25071  .debug_str:000000000000fbde .LASF4982
C:\Users\CYMR90~1\AppData\Local\Temp\ccaJ4oak.s:23441  .debug_str:00000000000093da .LASF4983
C:\Users\CYMR90~1\AppData\Local\Temp\ccaJ4oak.s:30414  .debug_str:0000000000025024 .LASF4984
C:\Users\CYMR90~1\AppData\Local\Temp\ccaJ4oak.s:31878  .debug_str:000000000002ad43 .LASF4985
C:\Users\CYMR90~1\AppData\Local\Temp\ccaJ4oak.s:26884  .debug_str:00000000000171b2 .LASF4986
C:\Users\CYMR90~1\AppData\Local\Temp\ccaJ4oak.s:26994  .debug_str:0000000000017802 .LASF4987
C:\Users\CYMR90~1\AppData\Local\Temp\ccaJ4oak.s:28546  .debug_str:000000000001dd02 .LASF4988
C:\Users\CYMR90~1\AppData\Local\Temp\ccaJ4oak.s:23681  .debug_str:000000000000a307 .LASF4989
C:\Users\CYMR90~1\AppData\Local\Temp\ccaJ4oak.s:28978  .debug_str:000000000001f76f .LASF4990
C:\Users\CYMR90~1\AppData\Local\Temp\ccaJ4oak.s:30172  .debug_str:0000000000023fb5 .LASF4991
C:\Users\CYMR90~1\AppData\Local\Temp\ccaJ4oak.s:25821  .debug_str:0000000000012c89 .LASF4992
C:\Users\CYMR90~1\AppData\Local\Temp\ccaJ4oak.s:22003  .debug_str:00000000000037d0 .LASF4993
C:\Users\CYMR90~1\AppData\Local\Temp\ccaJ4oak.s:22193  .debug_str:0000000000004464 .LASF4994
C:\Users\CYMR90~1\AppData\Local\Temp\ccaJ4oak.s:31108  .debug_str:0000000000027d5b .LASF4995
C:\Users\CYMR90~1\AppData\Local\Temp\ccaJ4oak.s:25473  .debug_str:0000000000011501 .LASF4996
C:\Users\CYMR90~1\AppData\Local\Temp\ccaJ4oak.s:24055  .debug_str:000000000000bc2e .LASF4997
C:\Users\CYMR90~1\AppData\Local\Temp\ccaJ4oak.s:30164  .debug_str:0000000000023f38 .LASF4998
C:\Users\CYMR90~1\AppData\Local\Temp\ccaJ4oak.s:30274  .debug_str:00000000000246fb .LASF4999
C:\Users\CYMR90~1\AppData\Local\Temp\ccaJ4oak.s:26531  .debug_str:00000000000158ad .LASF5000
C:\Users\CYMR90~1\AppData\Local\Temp\ccaJ4oak.s:22029  .debug_str:0000000000003972 .LASF5001
C:\Users\CYMR90~1\AppData\Local\Temp\ccaJ4oak.s:26866  .debug_str:0000000000017099 .LASF5002
C:\Users\CYMR90~1\AppData\Local\Temp\ccaJ4oak.s:21971  .debug_str:0000000000003617 .LASF5003
C:\Users\CYMR90~1\AppData\Local\Temp\ccaJ4oak.s:22313  .debug_str:0000000000004ca6 .LASF5004
C:\Users\CYMR90~1\AppData\Local\Temp\ccaJ4oak.s:22715  .debug_str:0000000000006513 .LASF5005
C:\Users\CYMR90~1\AppData\Local\Temp\ccaJ4oak.s:30752  .debug_str:00000000000266e0 .LASF5006
C:\Users\CYMR90~1\AppData\Local\Temp\ccaJ4oak.s:31660  .debug_str:000000000002a053 .LASF5007
C:\Users\CYMR90~1\AppData\Local\Temp\ccaJ4oak.s:21217  .debug_str:000000000000070c .LASF5008
C:\Users\CYMR90~1\AppData\Local\Temp\ccaJ4oak.s:26451  .debug_str:0000000000015470 .LASF5009
C:\Users\CYMR90~1\AppData\Local\Temp\ccaJ4oak.s:32140  .debug_str:000000000002bdd7 .LASF5010
C:\Users\CYMR90~1\AppData\Local\Temp\ccaJ4oak.s:23869  .debug_str:000000000000af88 .LASF5011
C:\Users\CYMR90~1\AppData\Local\Temp\ccaJ4oak.s:22801  .debug_str:0000000000006a3f .LASF5012
C:\Users\CYMR90~1\AppData\Local\Temp\ccaJ4oak.s:31060  .debug_str:00000000000279fe .LASF5013
C:\Users\CYMR90~1\AppData\Local\Temp\ccaJ4oak.s:27772  .debug_str:000000000001ab4e .LASF5014
C:\Users\CYMR90~1\AppData\Local\Temp\ccaJ4oak.s:28886  .debug_str:000000000001f1f3 .LASF5015
C:\Users\CYMR90~1\AppData\Local\Temp\ccaJ4oak.s:28030  .debug_str:000000000001bb4e .LASF5016
C:\Users\CYMR90~1\AppData\Local\Temp\ccaJ4oak.s:22501  .debug_str:00000000000057f3 .LASF5017
C:\Users\CYMR90~1\AppData\Local\Temp\ccaJ4oak.s:29926  .debug_str:00000000000230ba .LASF5018
C:\Users\CYMR90~1\AppData\Local\Temp\ccaJ4oak.s:29944  .debug_str:00000000000231a8 .LASF5019
C:\Users\CYMR90~1\AppData\Local\Temp\ccaJ4oak.s:30444  .debug_str:00000000000251d8 .LASF5020
C:\Users\CYMR90~1\AppData\Local\Temp\ccaJ4oak.s:31368  .debug_str:0000000000028ec8 .LASF5021
C:\Users\CYMR90~1\AppData\Local\Temp\ccaJ4oak.s:29984  .debug_str:00000000000233fd .LASF5022
C:\Users\CYMR90~1\AppData\Local\Temp\ccaJ4oak.s:31486  .debug_str:00000000000295fb .LASF5023
C:\Users\CYMR90~1\AppData\Local\Temp\ccaJ4oak.s:25899  .debug_str:0000000000013177 .LASF5024
C:\Users\CYMR90~1\AppData\Local\Temp\ccaJ4oak.s:25721  .debug_str:00000000000125da .LASF5025
C:\Users\CYMR90~1\AppData\Local\Temp\ccaJ4oak.s:29512  .debug_str:00000000000217ff .LASF5026
C:\Users\CYMR90~1\AppData\Local\Temp\ccaJ4oak.s:28162  .debug_str:000000000001c395 .LASF5027
C:\Users\CYMR90~1\AppData\Local\Temp\ccaJ4oak.s:25903  .debug_str:00000000000131bb .LASF5028
C:\Users\CYMR90~1\AppData\Local\Temp\ccaJ4oak.s:27074  .debug_str:0000000000017d06 .LASF5029
C:\Users\CYMR90~1\AppData\Local\Temp\ccaJ4oak.s:22369  .debug_str:0000000000005004 .LASF5030
C:\Users\CYMR90~1\AppData\Local\Temp\ccaJ4oak.s:29494  .debug_str:00000000000216fd .LASF5031
C:\Users\CYMR90~1\AppData\Local\Temp\ccaJ4oak.s:26807  .debug_str:0000000000016abf .LASF5032
C:\Users\CYMR90~1\AppData\Local\Temp\ccaJ4oak.s:21877  .debug_str:0000000000002fdf .LASF5033
C:\Users\CYMR90~1\AppData\Local\Temp\ccaJ4oak.s:28790  .debug_str:000000000001ebeb .LASF5034
C:\Users\CYMR90~1\AppData\Local\Temp\ccaJ4oak.s:29732  .debug_str:0000000000022507 .LASF5035
C:\Users\CYMR90~1\AppData\Local\Temp\ccaJ4oak.s:31158  .debug_str:00000000000280c6 .LASF5036
C:\Users\CYMR90~1\AppData\Local\Temp\ccaJ4oak.s:30204  .debug_str:000000000002416c .LASF5037
C:\Users\CYMR90~1\AppData\Local\Temp\ccaJ4oak.s:28428  .debug_str:000000000001d56f .LASF5038
C:\Users\CYMR90~1\AppData\Local\Temp\ccaJ4oak.s:28408  .debug_str:000000000001d43c .LASF5039
C:\Users\CYMR90~1\AppData\Local\Temp\ccaJ4oak.s:29518  .debug_str:000000000002187d .LASF5040
C:\Users\CYMR90~1\AppData\Local\Temp\ccaJ4oak.s:25777  .debug_str:000000000001296d .LASF5041
C:\Users\CYMR90~1\AppData\Local\Temp\ccaJ4oak.s:27178  .debug_str:0000000000018341 .LASF5042
C:\Users\CYMR90~1\AppData\Local\Temp\ccaJ4oak.s:22967  .debug_str:000000000000751b .LASF5043
C:\Users\CYMR90~1\AppData\Local\Temp\ccaJ4oak.s:27754  .debug_str:000000000001aa31 .LASF5044
C:\Users\CYMR90~1\AppData\Local\Temp\ccaJ4oak.s:31604  .debug_str:0000000000029d26 .LASF5045
C:\Users\CYMR90~1\AppData\Local\Temp\ccaJ4oak.s:24231  .debug_str:000000000000c7c3 .LASF5046
C:\Users\CYMR90~1\AppData\Local\Temp\ccaJ4oak.s:23853  .debug_str:000000000000ae4b .LASF5047
C:\Users\CYMR90~1\AppData\Local\Temp\ccaJ4oak.s:24879  .debug_str:000000000000efc4 .LASF5048
C:\Users\CYMR90~1\AppData\Local\Temp\ccaJ4oak.s:22841  .debug_str:0000000000006cb8 .LASF5049
C:\Users\CYMR90~1\AppData\Local\Temp\ccaJ4oak.s:29154  .debug_str:000000000002021f .LASF5050
C:\Users\CYMR90~1\AppData\Local\Temp\ccaJ4oak.s:21707  .debug_str:0000000000002538 .LASF5051
C:\Users\CYMR90~1\AppData\Local\Temp\ccaJ4oak.s:29972  .debug_str:0000000000023334 .LASF5052
C:\Users\CYMR90~1\AppData\Local\Temp\ccaJ4oak.s:26795  .debug_str:00000000000169af .LASF5053
C:\Users\CYMR90~1\AppData\Local\Temp\ccaJ4oak.s:31834  .debug_str:000000000002aaa5 .LASF5054
C:\Users\CYMR90~1\AppData\Local\Temp\ccaJ4oak.s:25069  .debug_str:000000000000fbbe .LASF5055
C:\Users\CYMR90~1\AppData\Local\Temp\ccaJ4oak.s:31152  .debug_str:0000000000028054 .LASF5056
C:\Users\CYMR90~1\AppData\Local\Temp\ccaJ4oak.s:23041  .debug_str:00000000000079a6 .LASF5057
C:\Users\CYMR90~1\AppData\Local\Temp\ccaJ4oak.s:24471  .debug_str:000000000000d7ef .LASF5058
C:\Users\CYMR90~1\AppData\Local\Temp\ccaJ4oak.s:32340  .debug_str:000000000002cb48 .LASF5059
C:\Users\CYMR90~1\AppData\Local\Temp\ccaJ4oak.s:24101  .debug_str:000000000000bf7e .LASF5060
C:\Users\CYMR90~1\AppData\Local\Temp\ccaJ4oak.s:23655  .debug_str:000000000000a173 .LASF5061
C:\Users\CYMR90~1\AppData\Local\Temp\ccaJ4oak.s:31064  .debug_str:0000000000027a56 .LASF5062
C:\Users\CYMR90~1\AppData\Local\Temp\ccaJ4oak.s:25513  .debug_str:00000000000117cd .LASF5063
C:\Users\CYMR90~1\AppData\Local\Temp\ccaJ4oak.s:22285  .debug_str:0000000000004af8 .LASF5064
C:\Users\CYMR90~1\AppData\Local\Temp\ccaJ4oak.s:23599  .debug_str:0000000000009ddc .LASF5065
C:\Users\CYMR90~1\AppData\Local\Temp\ccaJ4oak.s:27400  .debug_str:0000000000019269 .LASF5066
C:\Users\CYMR90~1\AppData\Local\Temp\ccaJ4oak.s:28368  .debug_str:000000000001d1cf .LASF5067
C:\Users\CYMR90~1\AppData\Local\Temp\ccaJ4oak.s:24015  .debug_str:000000000000b992 .LASF5068
C:\Users\CYMR90~1\AppData\Local\Temp\ccaJ4oak.s:24309  .debug_str:000000000000cd22 .LASF5069
C:\Users\CYMR90~1\AppData\Local\Temp\ccaJ4oak.s:26589  .debug_str:0000000000015c23 .LASF5070
C:\Users\CYMR90~1\AppData\Local\Temp\ccaJ4oak.s:24713  .debug_str:000000000000e5de .LASF5071
C:\Users\CYMR90~1\AppData\Local\Temp\ccaJ4oak.s:27574  .debug_str:0000000000019d84 .LASF5072
C:\Users\CYMR90~1\AppData\Local\Temp\ccaJ4oak.s:27316  .debug_str:0000000000018b93 .LASF5073
C:\Users\CYMR90~1\AppData\Local\Temp\ccaJ4oak.s:30052  .debug_str:0000000000023876 .LASF5074
C:\Users\CYMR90~1\AppData\Local\Temp\ccaJ4oak.s:22243  .debug_str:00000000000047c6 .LASF5075
C:\Users\CYMR90~1\AppData\Local\Temp\ccaJ4oak.s:21285  .debug_str:0000000000000b9b .LASF5076
C:\Users\CYMR90~1\AppData\Local\Temp\ccaJ4oak.s:25603  .debug_str:0000000000011e28 .LASF5077
C:\Users\CYMR90~1\AppData\Local\Temp\ccaJ4oak.s:26355  .debug_str:0000000000014e21 .LASF5078
C:\Users\CYMR90~1\AppData\Local\Temp\ccaJ4oak.s:32206  .debug_str:000000000002c252 .LASF5079
C:\Users\CYMR90~1\AppData\Local\Temp\ccaJ4oak.s:23191  .debug_str:0000000000008449 .LASF5080
C:\Users\CYMR90~1\AppData\Local\Temp\ccaJ4oak.s:23743  .debug_str:000000000000a6c6 .LASF5081
C:\Users\CYMR90~1\AppData\Local\Temp\ccaJ4oak.s:27406  .debug_str:00000000000192cb .LASF5082
C:\Users\CYMR90~1\AppData\Local\Temp\ccaJ4oak.s:24651  .debug_str:000000000000e239 .LASF5083
C:\Users\CYMR90~1\AppData\Local\Temp\ccaJ4oak.s:32256  .debug_str:000000000002c609 .LASF5084
C:\Users\CYMR90~1\AppData\Local\Temp\ccaJ4oak.s:21521  .debug_str:0000000000001a3b .LASF5085
C:\Users\CYMR90~1\AppData\Local\Temp\ccaJ4oak.s:31142  .debug_str:0000000000027fa3 .LASF5086
C:\Users\CYMR90~1\AppData\Local\Temp\ccaJ4oak.s:28490  .debug_str:000000000001d9d3 .LASF5087
C:\Users\CYMR90~1\AppData\Local\Temp\ccaJ4oak.s:25995  .debug_str:0000000000013827 .LASF5088
C:\Users\CYMR90~1\AppData\Local\Temp\ccaJ4oak.s:23703  .debug_str:000000000000a486 .LASF5089
C:\Users\CYMR90~1\AppData\Local\Temp\ccaJ4oak.s:29558  .debug_str:0000000000021ab4 .LASF5090
C:\Users\CYMR90~1\AppData\Local\Temp\ccaJ4oak.s:25905  .debug_str:00000000000131db .LASF5091
C:\Users\CYMR90~1\AppData\Local\Temp\ccaJ4oak.s:27302  .debug_str:0000000000018abb .LASF5092
C:\Users\CYMR90~1\AppData\Local\Temp\ccaJ4oak.s:26001  .debug_str:0000000000013888 .LASF5093
C:\Users\CYMR90~1\AppData\Local\Temp\ccaJ4oak.s:30246  .debug_str:0000000000024501 .LASF5094
C:\Users\CYMR90~1\AppData\Local\Temp\ccaJ4oak.s:23229  .debug_str:00000000000086d3 .LASF5095
C:\Users\CYMR90~1\AppData\Local\Temp\ccaJ4oak.s:21775  .debug_str:00000000000029b7 .LASF5096
C:\Users\CYMR90~1\AppData\Local\Temp\ccaJ4oak.s:25573  .debug_str:0000000000011ca3 .LASF5097
C:\Users\CYMR90~1\AppData\Local\Temp\ccaJ4oak.s:29110  .debug_str:000000000001ffbd .LASF5098
C:\Users\CYMR90~1\AppData\Local\Temp\ccaJ4oak.s:21923  .debug_str:00000000000032e0 .LASF5099
C:\Users\CYMR90~1\AppData\Local\Temp\ccaJ4oak.s:29042  .debug_str:000000000001fb4a .LASF5100
C:\Users\CYMR90~1\AppData\Local\Temp\ccaJ4oak.s:25989  .debug_str:00000000000137bc .LASF5101
C:\Users\CYMR90~1\AppData\Local\Temp\ccaJ4oak.s:31480  .debug_str:000000000002957f .LASF5102
C:\Users\CYMR90~1\AppData\Local\Temp\ccaJ4oak.s:23687  .debug_str:000000000000a35e .LASF5103
C:\Users\CYMR90~1\AppData\Local\Temp\ccaJ4oak.s:27396  .debug_str:0000000000019216 .LASF5104
C:\Users\CYMR90~1\AppData\Local\Temp\ccaJ4oak.s:31736  .debug_str:000000000002a4a0 .LASF5105
C:\Users\CYMR90~1\AppData\Local\Temp\ccaJ4oak.s:24659  .debug_str:000000000000e2ba .LASF5106
C:\Users\CYMR90~1\AppData\Local\Temp\ccaJ4oak.s:31730  .debug_str:000000000002a437 .LASF5107
C:\Users\CYMR90~1\AppData\Local\Temp\ccaJ4oak.s:21855  .debug_str:0000000000002e8a .LASF5108
C:\Users\CYMR90~1\AppData\Local\Temp\ccaJ4oak.s:27834  .debug_str:000000000001af18 .LASF5109
C:\Users\CYMR90~1\AppData\Local\Temp\ccaJ4oak.s:24979  .debug_str:000000000000f5e9 .LASF5110
C:\Users\CYMR90~1\AppData\Local\Temp\ccaJ4oak.s:26165  .debug_str:0000000000014282 .LASF5111
C:\Users\CYMR90~1\AppData\Local\Temp\ccaJ4oak.s:21529  .debug_str:0000000000001ab2 .LASF5112
C:\Users\CYMR90~1\AppData\Local\Temp\ccaJ4oak.s:23411  .debug_str:0000000000009200 .LASF5113
C:\Users\CYMR90~1\AppData\Local\Temp\ccaJ4oak.s:28342  .debug_str:000000000001cfb6 .LASF5114
C:\Users\CYMR90~1\AppData\Local\Temp\ccaJ4oak.s:31778  .debug_str:000000000002a776 .LASF5115
C:\Users\CYMR90~1\AppData\Local\Temp\ccaJ4oak.s:22237  .debug_str:000000000000474e .LASF5116
C:\Users\CYMR90~1\AppData\Local\Temp\ccaJ4oak.s:30526  .debug_str:0000000000025875 .LASF5117
C:\Users\CYMR90~1\AppData\Local\Temp\ccaJ4oak.s:29000  .debug_str:000000000001f88c .LASF5118
C:\Users\CYMR90~1\AppData\Local\Temp\ccaJ4oak.s:28170  .debug_str:000000000001c3f7 .LASF5119
C:\Users\CYMR90~1\AppData\Local\Temp\ccaJ4oak.s:29134  .debug_str:000000000002011a .LASF5120
C:\Users\CYMR90~1\AppData\Local\Temp\ccaJ4oak.s:32408  .debug_str:000000000002cfcd .LASF5121
C:\Users\CYMR90~1\AppData\Local\Temp\ccaJ4oak.s:30874  .debug_str:0000000000026e28 .LASF5122
C:\Users\CYMR90~1\AppData\Local\Temp\ccaJ4oak.s:22393  .debug_str:0000000000005166 .LASF5123
C:\Users\CYMR90~1\AppData\Local\Temp\ccaJ4oak.s:29528  .debug_str:0000000000021908 .LASF5124
C:\Users\CYMR90~1\AppData\Local\Temp\ccaJ4oak.s:29448  .debug_str:0000000000021451 .LASF5125
C:\Users\CYMR90~1\AppData\Local\Temp\ccaJ4oak.s:25817  .debug_str:0000000000012c3c .LASF5126
C:\Users\CYMR90~1\AppData\Local\Temp\ccaJ4oak.s:27108  .debug_str:0000000000017f0c .LASF5127
C:\Users\CYMR90~1\AppData\Local\Temp\ccaJ4oak.s:25313  .debug_str:0000000000010b80 .LASF5128
C:\Users\CYMR90~1\AppData\Local\Temp\ccaJ4oak.s:27212  .debug_str:0000000000018538 .LASF5129
C:\Users\CYMR90~1\AppData\Local\Temp\ccaJ4oak.s:27794  .debug_str:000000000001acce .LASF5130
C:\Users\CYMR90~1\AppData\Local\Temp\ccaJ4oak.s:29140  .debug_str:000000000002017b .LASF5131
C:\Users\CYMR90~1\AppData\Local\Temp\ccaJ4oak.s:32444  .debug_str:000000000002d1fb .LASF5132
C:\Users\CYMR90~1\AppData\Local\Temp\ccaJ4oak.s:26277  .debug_str:0000000000014946 .LASF5133
C:\Users\CYMR90~1\AppData\Local\Temp\ccaJ4oak.s:27644  .debug_str:000000000001a18e .LASF5134
C:\Users\CYMR90~1\AppData\Local\Temp\ccaJ4oak.s:22463  .debug_str:000000000000559c .LASF5135
C:\Users\CYMR90~1\AppData\Local\Temp\ccaJ4oak.s:30268  .debug_str:0000000000024674 .LASF5136
C:\Users\CYMR90~1\AppData\Local\Temp\ccaJ4oak.s:31146  .debug_str:0000000000027fe6 .LASF5137
C:\Users\CYMR90~1\AppData\Local\Temp\ccaJ4oak.s:23061  .debug_str:0000000000007ae8 .LASF5138
C:\Users\CYMR90~1\AppData\Local\Temp\ccaJ4oak.s:32214  .debug_str:000000000002c2f6 .LASF5139
C:\Users\CYMR90~1\AppData\Local\Temp\ccaJ4oak.s:24831  .debug_str:000000000000ed5b .LASF5140
C:\Users\CYMR90~1\AppData\Local\Temp\ccaJ4oak.s:27028  .debug_str:0000000000017a44 .LASF5141
C:\Users\CYMR90~1\AppData\Local\Temp\ccaJ4oak.s:23171  .debug_str:000000000000830d .LASF5142
C:\Users\CYMR90~1\AppData\Local\Temp\ccaJ4oak.s:22771  .debug_str:0000000000006828 .LASF5143
C:\Users\CYMR90~1\AppData\Local\Temp\ccaJ4oak.s:22361  .debug_str:0000000000004f79 .LASF5144
C:\Users\CYMR90~1\AppData\Local\Temp\ccaJ4oak.s:30966  .debug_str:0000000000027471 .LASF5145
C:\Users\CYMR90~1\AppData\Local\Temp\ccaJ4oak.s:27154  .debug_str:00000000000181bd .LASF5146
C:\Users\CYMR90~1\AppData\Local\Temp\ccaJ4oak.s:25757  .debug_str:000000000001281f .LASF5147
C:\Users\CYMR90~1\AppData\Local\Temp\ccaJ4oak.s:24259  .debug_str:000000000000c9e6 .LASF5148
C:\Users\CYMR90~1\AppData\Local\Temp\ccaJ4oak.s:28732  .debug_str:000000000001e892 .LASF5149
C:\Users\CYMR90~1\AppData\Local\Temp\ccaJ4oak.s:23409  .debug_str:00000000000091cf .LASF5150
C:\Users\CYMR90~1\AppData\Local\Temp\ccaJ4oak.s:31936  .debug_str:000000000002b086 .LASF5151
C:\Users\CYMR90~1\AppData\Local\Temp\ccaJ4oak.s:28722  .debug_str:000000000001e7b6 .LASF5152
C:\Users\CYMR90~1\AppData\Local\Temp\ccaJ4oak.s:23263  .debug_str:00000000000088c0 .LASF5153
C:\Users\CYMR90~1\AppData\Local\Temp\ccaJ4oak.s:31056  .debug_str:00000000000279c2 .LASF5154
C:\Users\CYMR90~1\AppData\Local\Temp\ccaJ4oak.s:32450  .debug_str:000000000002d255 .LASF5155
C:\Users\CYMR90~1\AppData\Local\Temp\ccaJ4oak.s:29052  .debug_str:000000000001fbf0 .LASF5156
C:\Users\CYMR90~1\AppData\Local\Temp\ccaJ4oak.s:31344  .debug_str:0000000000028d82 .LASF5157
C:\Users\CYMR90~1\AppData\Local\Temp\ccaJ4oak.s:22343  .debug_str:0000000000004e71 .LASF5158
C:\Users\CYMR90~1\AppData\Local\Temp\ccaJ4oak.s:22689  .debug_str:00000000000063a6 .LASF5159
C:\Users\CYMR90~1\AppData\Local\Temp\ccaJ4oak.s:27664  .debug_str:000000000001a2a5 .LASF5160
C:\Users\CYMR90~1\AppData\Local\Temp\ccaJ4oak.s:26363  .debug_str:0000000000014ec4 .LASF5161
C:\Users\CYMR90~1\AppData\Local\Temp\ccaJ4oak.s:25119  .debug_str:000000000000fed4 .LASF5162
C:\Users\CYMR90~1\AppData\Local\Temp\ccaJ4oak.s:31796  .debug_str:000000000002a88f .LASF5163
C:\Users\CYMR90~1\AppData\Local\Temp\ccaJ4oak.s:28768  .debug_str:000000000001eac1 .LASF5164
C:\Users\CYMR90~1\AppData\Local\Temp\ccaJ4oak.s:29592  .debug_str:0000000000021d05 .LASF5165
C:\Users\CYMR90~1\AppData\Local\Temp\ccaJ4oak.s:27870  .debug_str:000000000001b19b .LASF5166
C:\Users\CYMR90~1\AppData\Local\Temp\ccaJ4oak.s:23459  .debug_str:00000000000094d3 .LASF5167
C:\Users\CYMR90~1\AppData\Local\Temp\ccaJ4oak.s:21159  .debug_str:0000000000000398 .LASF5168
C:\Users\CYMR90~1\AppData\Local\Temp\ccaJ4oak.s:25533  .debug_str:00000000000119bf .LASF5169
C:\Users\CYMR90~1\AppData\Local\Temp\ccaJ4oak.s:21755  .debug_str:0000000000002873 .LASF5170
C:\Users\CYMR90~1\AppData\Local\Temp\ccaJ4oak.s:28776  .debug_str:000000000001eb33 .LASF5171
C:\Users\CYMR90~1\AppData\Local\Temp\ccaJ4oak.s:26385  .debug_str:0000000000015059 .LASF5172
C:\Users\CYMR90~1\AppData\Local\Temp\ccaJ4oak.s:21103  .debug_str:0000000000000000 .LASF5173
C:\Users\CYMR90~1\AppData\Local\Temp\ccaJ4oak.s:26269  .debug_str:00000000000148df .LASF5174
C:\Users\CYMR90~1\AppData\Local\Temp\ccaJ4oak.s:31482  .debug_str:00000000000295ac .LASF5175
C:\Users\CYMR90~1\AppData\Local\Temp\ccaJ4oak.s:30350  .debug_str:0000000000024be1 .LASF5176
C:\Users\CYMR90~1\AppData\Local\Temp\ccaJ4oak.s:31116  .debug_str:0000000000027dd2 .LASF5177
C:\Users\CYMR90~1\AppData\Local\Temp\ccaJ4oak.s:22467  .debug_str:00000000000055e6 .LASF5178
C:\Users\CYMR90~1\AppData\Local\Temp\ccaJ4oak.s:26819  .debug_str:0000000000016b6b .LASF5179
C:\Users\CYMR90~1\AppData\Local\Temp\ccaJ4oak.s:29088  .debug_str:000000000001fe37 .LASF5180
C:\Users\CYMR90~1\AppData\Local\Temp\ccaJ4oak.s:27760  .debug_str:000000000001aa9a .LASF5181
C:\Users\CYMR90~1\AppData\Local\Temp\ccaJ4oak.s:32432  .debug_str:000000000002d116 .LASF5182
C:\Users\CYMR90~1\AppData\Local\Temp\ccaJ4oak.s:26940  .debug_str:00000000000174c8 .LASF5183
C:\Users\CYMR90~1\AppData\Local\Temp\ccaJ4oak.s:22655  .debug_str:0000000000006158 .LASF5184
C:\Users\CYMR90~1\AppData\Local\Temp\ccaJ4oak.s:24939  .debug_str:000000000000f379 .LASF5185
C:\Users\CYMR90~1\AppData\Local\Temp\ccaJ4oak.s:25643  .debug_str:00000000000120f1 .LASF5186
C:\Users\CYMR90~1\AppData\Local\Temp\ccaJ4oak.s:27266  .debug_str:0000000000018858 .LASF5187
C:\Users\CYMR90~1\AppData\Local\Temp\ccaJ4oak.s:22437  .debug_str:0000000000005408 .LASF5188
C:\Users\CYMR90~1\AppData\Local\Temp\ccaJ4oak.s:30512  .debug_str:0000000000025750 .LASF5189
C:\Users\CYMR90~1\AppData\Local\Temp\ccaJ4oak.s:31302  .debug_str:0000000000028aff .LASF5190
C:\Users\CYMR90~1\AppData\Local\Temp\ccaJ4oak.s:30756  .debug_str:0000000000026707 .LASF5191
C:\Users\CYMR90~1\AppData\Local\Temp\ccaJ4oak.s:28792  .debug_str:000000000001ec03 .LASF5192
C:\Users\CYMR90~1\AppData\Local\Temp\ccaJ4oak.s:24349  .debug_str:000000000000cf3f .LASF5193
C:\Users\CYMR90~1\AppData\Local\Temp\ccaJ4oak.s:29248  .debug_str:0000000000020829 .LASF5194
C:\Users\CYMR90~1\AppData\Local\Temp\ccaJ4oak.s:25015  .debug_str:000000000000f890 .LASF5195
C:\Users\CYMR90~1\AppData\Local\Temp\ccaJ4oak.s:22073  .debug_str:0000000000003c21 .LASF5196
C:\Users\CYMR90~1\AppData\Local\Temp\ccaJ4oak.s:30732  .debug_str:000000000002658c .LASF5197
C:\Users\CYMR90~1\AppData\Local\Temp\ccaJ4oak.s:25917  .debug_str:000000000001327d .LASF5198
C:\Users\CYMR90~1\AppData\Local\Temp\ccaJ4oak.s:24131  .debug_str:000000000000c17b .LASF5199
C:\Users\CYMR90~1\AppData\Local\Temp\ccaJ4oak.s:22017  .debug_str:00000000000038cb .LASF5200
C:\Users\CYMR90~1\AppData\Local\Temp\ccaJ4oak.s:29936  .debug_str:0000000000023130 .LASF5201
C:\Users\CYMR90~1\AppData\Local\Temp\ccaJ4oak.s:25019  .debug_str:000000000000f8df .LASF5202
C:\Users\CYMR90~1\AppData\Local\Temp\ccaJ4oak.s:22529  .debug_str:00000000000059a1 .LASF5203
C:\Users\CYMR90~1\AppData\Local\Temp\ccaJ4oak.s:31180  .debug_str:000000000002826e .LASF5204
C:\Users\CYMR90~1\AppData\Local\Temp\ccaJ4oak.s:25697  .debug_str:0000000000012463 .LASF5205
C:\Users\CYMR90~1\AppData\Local\Temp\ccaJ4oak.s:21849  .debug_str:0000000000002e2e .LASF5206
C:\Users\CYMR90~1\AppData\Local\Temp\ccaJ4oak.s:30588  .debug_str:0000000000025cde .LASF5207
C:\Users\CYMR90~1\AppData\Local\Temp\ccaJ4oak.s:30978  .debug_str:0000000000027546 .LASF5208
C:\Users\CYMR90~1\AppData\Local\Temp\ccaJ4oak.s:25461  .debug_str:000000000001145a .LASF5209
C:\Users\CYMR90~1\AppData\Local\Temp\ccaJ4oak.s:26653  .debug_str:00000000000160ab .LASF5210
C:\Users\CYMR90~1\AppData\Local\Temp\ccaJ4oak.s:29976  .debug_str:000000000002336d .LASF5211
C:\Users\CYMR90~1\AppData\Local\Temp\ccaJ4oak.s:28714  .debug_str:000000000001e736 .LASF5212
C:\Users\CYMR90~1\AppData\Local\Temp\ccaJ4oak.s:29624  .debug_str:0000000000021ee4 .LASF5213
C:\Users\CYMR90~1\AppData\Local\Temp\ccaJ4oak.s:32456  .debug_str:000000000002d2b1 .LASF5214
C:\Users\CYMR90~1\AppData\Local\Temp\ccaJ4oak.s:29810  .debug_str:00000000000229b0 .LASF5215
C:\Users\CYMR90~1\AppData\Local\Temp\ccaJ4oak.s:21485  .debug_str:0000000000001811 .LASF5216
C:\Users\CYMR90~1\AppData\Local\Temp\ccaJ4oak.s:23045  .debug_str:00000000000079dc .LASF5217
C:\Users\CYMR90~1\AppData\Local\Temp\ccaJ4oak.s:22395  .debug_str:000000000000518f .LASF5218
C:\Users\CYMR90~1\AppData\Local\Temp\ccaJ4oak.s:29842  .debug_str:0000000000022b7f .LASF5219
C:\Users\CYMR90~1\AppData\Local\Temp\ccaJ4oak.s:25767  .debug_str:00000000000128c2 .LASF5220
C:\Users\CYMR90~1\AppData\Local\Temp\ccaJ4oak.s:30322  .debug_str:00000000000249c5 .LASF5221
C:\Users\CYMR90~1\AppData\Local\Temp\ccaJ4oak.s:31622  .debug_str:0000000000029e39 .LASF5222
C:\Users\CYMR90~1\AppData\Local\Temp\ccaJ4oak.s:29894  .debug_str:0000000000022efd .LASF5223
C:\Users\CYMR90~1\AppData\Local\Temp\ccaJ4oak.s:30554  .debug_str:0000000000025ac7 .LASF5224
C:\Users\CYMR90~1\AppData\Local\Temp\ccaJ4oak.s:30604  .debug_str:0000000000025de7 .LASF5225
C:\Users\CYMR90~1\AppData\Local\Temp\ccaJ4oak.s:29366  .debug_str:0000000000020f2e .LASF5226
C:\Users\CYMR90~1\AppData\Local\Temp\ccaJ4oak.s:31106  .debug_str:0000000000027d38 .LASF5227
C:\Users\CYMR90~1\AppData\Local\Temp\ccaJ4oak.s:25281  .debug_str:0000000000010976 .LASF5228
C:\Users\CYMR90~1\AppData\Local\Temp\ccaJ4oak.s:30440  .debug_str:0000000000025199 .LASF5229
C:\Users\CYMR90~1\AppData\Local\Temp\ccaJ4oak.s:23803  .debug_str:000000000000ab2d .LASF5230
C:\Users\CYMR90~1\AppData\Local\Temp\ccaJ4oak.s:25315  .debug_str:0000000000010b9f .LASF5231
C:\Users\CYMR90~1\AppData\Local\Temp\ccaJ4oak.s:31884  .debug_str:000000000002ada3 .LASF5232
C:\Users\CYMR90~1\AppData\Local\Temp\ccaJ4oak.s:23335  .debug_str:0000000000008d47 .LASF5233
C:\Users\CYMR90~1\AppData\Local\Temp\ccaJ4oak.s:23915  .debug_str:000000000000b312 .LASF5234
C:\Users\CYMR90~1\AppData\Local\Temp\ccaJ4oak.s:30612  .debug_str:0000000000025e58 .LASF5235
C:\Users\CYMR90~1\AppData\Local\Temp\ccaJ4oak.s:21379  .debug_str:0000000000001182 .LASF5236
C:\Users\CYMR90~1\AppData\Local\Temp\ccaJ4oak.s:26733  .debug_str:0000000000016557 .LASF5237
C:\Users\CYMR90~1\AppData\Local\Temp\ccaJ4oak.s:26279  .debug_str:0000000000014976 .LASF5238
C:\Users\CYMR90~1\AppData\Local\Temp\ccaJ4oak.s:31102  .debug_str:0000000000027cf0 .LASF5239
C:\Users\CYMR90~1\AppData\Local\Temp\ccaJ4oak.s:24779  .debug_str:000000000000ea11 .LASF5240
C:\Users\CYMR90~1\AppData\Local\Temp\ccaJ4oak.s:27270  .debug_str:00000000000188a6 .LASF5241
C:\Users\CYMR90~1\AppData\Local\Temp\ccaJ4oak.s:28736  .debug_str:000000000001e8e6 .LASF5242
C:\Users\CYMR90~1\AppData\Local\Temp\ccaJ4oak.s:25515  .debug_str:00000000000117f1 .LASF5243
C:\Users\CYMR90~1\AppData\Local\Temp\ccaJ4oak.s:29040  .debug_str:000000000001fb19 .LASF5244
C:\Users\CYMR90~1\AppData\Local\Temp\ccaJ4oak.s:22377  .debug_str:000000000000507a .LASF5245
C:\Users\CYMR90~1\AppData\Local\Temp\ccaJ4oak.s:26053  .debug_str:0000000000013ba0 .LASF5246
C:\Users\CYMR90~1\AppData\Local\Temp\ccaJ4oak.s:29082  .debug_str:000000000001fda0 .LASF5247
C:\Users\CYMR90~1\AppData\Local\Temp\ccaJ4oak.s:24635  .debug_str:000000000000e143 .LASF5248
C:\Users\CYMR90~1\AppData\Local\Temp\ccaJ4oak.s:28304  .debug_str:000000000001cca8 .LASF5249
C:\Users\CYMR90~1\AppData\Local\Temp\ccaJ4oak.s:31726  .debug_str:000000000002a3e2 .LASF5250
C:\Users\CYMR90~1\AppData\Local\Temp\ccaJ4oak.s:31516  .debug_str:00000000000297fb .LASF5251
C:\Users\CYMR90~1\AppData\Local\Temp\ccaJ4oak.s:32294  .debug_str:000000000002c80c .LASF5252
C:\Users\CYMR90~1\AppData\Local\Temp\ccaJ4oak.s:24789  .debug_str:000000000000ea85 .LASF5253
C:\Users\CYMR90~1\AppData\Local\Temp\ccaJ4oak.s:21459  .debug_str:00000000000015e7 .LASF5254
C:\Users\CYMR90~1\AppData\Local\Temp\ccaJ4oak.s:30258  .debug_str:00000000000245e3 .LASF5255
C:\Users\CYMR90~1\AppData\Local\Temp\ccaJ4oak.s:30932  .debug_str:00000000000271d7 .LASF5256
C:\Users\CYMR90~1\AppData\Local\Temp\ccaJ4oak.s:27800  .debug_str:000000000001ad1e .LASF5257
C:\Users\CYMR90~1\AppData\Local\Temp\ccaJ4oak.s:28788  .debug_str:000000000001ebd5 .LASF5258
C:\Users\CYMR90~1\AppData\Local\Temp\ccaJ4oak.s:21309  .debug_str:0000000000000cfd .LASF5259
C:\Users\CYMR90~1\AppData\Local\Temp\ccaJ4oak.s:29384  .debug_str:0000000000021012 .LASF5260
C:\Users\CYMR90~1\AppData\Local\Temp\ccaJ4oak.s:24263  .debug_str:000000000000ca5a .LASF5261
C:\Users\CYMR90~1\AppData\Local\Temp\ccaJ4oak.s:26597  .debug_str:0000000000015cc3 .LASF5262
C:\Users\CYMR90~1\AppData\Local\Temp\ccaJ4oak.s:25043  .debug_str:000000000000fa45 .LASF5263
C:\Users\CYMR90~1\AppData\Local\Temp\ccaJ4oak.s:27208  .debug_str:0000000000018508 .LASF5264
C:\Users\CYMR90~1\AppData\Local\Temp\ccaJ4oak.s:31786  .debug_str:000000000002a7f9 .LASF5265
C:\Users\CYMR90~1\AppData\Local\Temp\ccaJ4oak.s:25985  .debug_str:000000000001377f .LASF5266
C:\Users\CYMR90~1\AppData\Local\Temp\ccaJ4oak.s:28968  .debug_str:000000000001f6d5 .LASF5267
C:\Users\CYMR90~1\AppData\Local\Temp\ccaJ4oak.s:23023  .debug_str:0000000000007881 .LASF5268
C:\Users\CYMR90~1\AppData\Local\Temp\ccaJ4oak.s:30474  .debug_str:00000000000254e8 .LASF5269
C:\Users\CYMR90~1\AppData\Local\Temp\ccaJ4oak.s:22899  .debug_str:0000000000007062 .LASF5270
C:\Users\CYMR90~1\AppData\Local\Temp\ccaJ4oak.s:31012  .debug_str:0000000000027741 .LASF5271
C:\Users\CYMR90~1\AppData\Local\Temp\ccaJ4oak.s:31494  .debug_str:0000000000029667 .LASF5272
C:\Users\CYMR90~1\AppData\Local\Temp\ccaJ4oak.s:29718  .debug_str:0000000000022466 .LASF5273
C:\Users\CYMR90~1\AppData\Local\Temp\ccaJ4oak.s:26505  .debug_str:0000000000015734 .LASF5274
C:\Users\CYMR90~1\AppData\Local\Temp\ccaJ4oak.s:23341  .debug_str:0000000000008d8e .LASF5275
C:\Users\CYMR90~1\AppData\Local\Temp\ccaJ4oak.s:21931  .debug_str:000000000000336a .LASF5276
C:\Users\CYMR90~1\AppData\Local\Temp\ccaJ4oak.s:32202  .debug_str:000000000002c222 .LASF5277
C:\Users\CYMR90~1\AppData\Local\Temp\ccaJ4oak.s:23521  .debug_str:00000000000098cd .LASF5278
C:\Users\CYMR90~1\AppData\Local\Temp\ccaJ4oak.s:23345  .debug_str:0000000000008db5 .LASF5279
C:\Users\CYMR90~1\AppData\Local\Temp\ccaJ4oak.s:31692  .debug_str:000000000002a22e .LASF5280
C:\Users\CYMR90~1\AppData\Local\Temp\ccaJ4oak.s:24881  .debug_str:000000000000efe7 .LASF5281
C:\Users\CYMR90~1\AppData\Local\Temp\ccaJ4oak.s:31384  .debug_str:0000000000028fee .LASF5282
C:\Users\CYMR90~1\AppData\Local\Temp\ccaJ4oak.s:23457  .debug_str:00000000000094bb .LASF5283
C:\Users\CYMR90~1\AppData\Local\Temp\ccaJ4oak.s:32088  .debug_str:000000000002ba83 .LASF5284
C:\Users\CYMR90~1\AppData\Local\Temp\ccaJ4oak.s:29542  .debug_str:00000000000219f4 .LASF5285
C:\Users\CYMR90~1\AppData\Local\Temp\ccaJ4oak.s:25023  .debug_str:000000000000f935 .LASF5286
C:\Users\CYMR90~1\AppData\Local\Temp\ccaJ4oak.s:22219  .debug_str:0000000000004622 .LASF5287
C:\Users\CYMR90~1\AppData\Local\Temp\ccaJ4oak.s:27762  .debug_str:000000000001aac1 .LASF5288
C:\Users\CYMR90~1\AppData\Local\Temp\ccaJ4oak.s:25377  .debug_str:0000000000010fa4 .LASF5289
C:\Users\CYMR90~1\AppData\Local\Temp\ccaJ4oak.s:24963  .debug_str:000000000000f513 .LASF5290
C:\Users\CYMR90~1\AppData\Local\Temp\ccaJ4oak.s:21215  .debug_str:00000000000006f4 .LASF5291
C:\Users\CYMR90~1\AppData\Local\Temp\ccaJ4oak.s:21161  .debug_str:00000000000003c2 .LASF5292
C:\Users\CYMR90~1\AppData\Local\Temp\ccaJ4oak.s:21511  .debug_str:00000000000019bb .LASF5293
C:\Users\CYMR90~1\AppData\Local\Temp\ccaJ4oak.s:30066  .debug_str:0000000000023982 .LASF5294
C:\Users\CYMR90~1\AppData\Local\Temp\ccaJ4oak.s:30728  .debug_str:000000000002654b .LASF5295
C:\Users\CYMR90~1\AppData\Local\Temp\ccaJ4oak.s:25869  .debug_str:0000000000012f68 .LASF5296
C:\Users\CYMR90~1\AppData\Local\Temp\ccaJ4oak.s:27796  .debug_str:000000000001acf2 .LASF5297
C:\Users\CYMR90~1\AppData\Local\Temp\ccaJ4oak.s:21803  .debug_str:0000000000002b4f .LASF5298
C:\Users\CYMR90~1\AppData\Local\Temp\ccaJ4oak.s:26603  .debug_str:0000000000015d5c .LASF5299
C:\Users\CYMR90~1\AppData\Local\Temp\ccaJ4oak.s:29166  .debug_str:00000000000202d7 .LASF5300
C:\Users\CYMR90~1\AppData\Local\Temp\ccaJ4oak.s:28494  .debug_str:000000000001da1c .LASF5301
C:\Users\CYMR90~1\AppData\Local\Temp\ccaJ4oak.s:23251  .debug_str:000000000000880e .LASF5302
C:\Users\CYMR90~1\AppData\Local\Temp\ccaJ4oak.s:29868  .debug_str:0000000000022d82 .LASF5303
C:\Users\CYMR90~1\AppData\Local\Temp\ccaJ4oak.s:29146  .debug_str:00000000000201c7 .LASF5304
C:\Users\CYMR90~1\AppData\Local\Temp\ccaJ4oak.s:22277  .debug_str:0000000000004a81 .LASF5305
C:\Users\CYMR90~1\AppData\Local\Temp\ccaJ4oak.s:22713  .debug_str:00000000000064fc .LASF5306
C:\Users\CYMR90~1\AppData\Local\Temp\ccaJ4oak.s:29822  .debug_str:0000000000022a7f .LASF5307
C:\Users\CYMR90~1\AppData\Local\Temp\ccaJ4oak.s:31570  .debug_str:0000000000029b1b .LASF5308
C:\Users\CYMR90~1\AppData\Local\Temp\ccaJ4oak.s:27384  .debug_str:00000000000190a0 .LASF5309
C:\Users\CYMR90~1\AppData\Local\Temp\ccaJ4oak.s:24167  .debug_str:000000000000c3df .LASF5310
C:\Users\CYMR90~1\AppData\Local\Temp\ccaJ4oak.s:25379  .debug_str:0000000000010fbc .LASF5311
C:\Users\CYMR90~1\AppData\Local\Temp\ccaJ4oak.s:25735  .debug_str:00000000000126ce .LASF5312
C:\Users\CYMR90~1\AppData\Local\Temp\ccaJ4oak.s:29254  .debug_str:00000000000208bf .LASF5313
C:\Users\CYMR90~1\AppData\Local\Temp\ccaJ4oak.s:26059  .debug_str:0000000000013bfe .LASF5314
C:\Users\CYMR90~1\AppData\Local\Temp\ccaJ4oak.s:31520  .debug_str:0000000000029851 .LASF5315
C:\Users\CYMR90~1\AppData\Local\Temp\ccaJ4oak.s:25203  .debug_str:0000000000010445 .LASF5316
C:\Users\CYMR90~1\AppData\Local\Temp\ccaJ4oak.s:24421  .debug_str:000000000000d44a .LASF5317
C:\Users\CYMR90~1\AppData\Local\Temp\ccaJ4oak.s:28878  .debug_str:000000000001f186 .LASF5318
C:\Users\CYMR90~1\AppData\Local\Temp\ccaJ4oak.s:32114  .debug_str:000000000002bc20 .LASF5319
C:\Users\CYMR90~1\AppData\Local\Temp\ccaJ4oak.s:29848  .debug_str:0000000000022c6b .LASF5320
C:\Users\CYMR90~1\AppData\Local\Temp\ccaJ4oak.s:29988  .debug_str:000000000002343c .LASF5321
C:\Users\CYMR90~1\AppData\Local\Temp\ccaJ4oak.s:23959  .debug_str:000000000000b569 .LASF5322
C:\Users\CYMR90~1\AppData\Local\Temp\ccaJ4oak.s:30122  .debug_str:0000000000023cc2 .LASF5323
C:\Users\CYMR90~1\AppData\Local\Temp\ccaJ4oak.s:29722  .debug_str:0000000000022497 .LASF5324
C:\Users\CYMR90~1\AppData\Local\Temp\ccaJ4oak.s:27632  .debug_str:000000000001a0ee .LASF5325
C:\Users\CYMR90~1\AppData\Local\Temp\ccaJ4oak.s:27168  .debug_str:00000000000182b4 .LASF5326
C:\Users\CYMR90~1\AppData\Local\Temp\ccaJ4oak.s:29594  .debug_str:0000000000021d2b .LASF5327
C:\Users\CYMR90~1\AppData\Local\Temp\ccaJ4oak.s:32084  .debug_str:000000000002ba29 .LASF5328
C:\Users\CYMR90~1\AppData\Local\Temp\ccaJ4oak.s:23095  .debug_str:0000000000007d0f .LASF5329
C:\Users\CYMR90~1\AppData\Local\Temp\ccaJ4oak.s:22539  .debug_str:0000000000005a59 .LASF5330
C:\Users\CYMR90~1\AppData\Local\Temp\ccaJ4oak.s:22851  .debug_str:0000000000006d4b .LASF5331
C:\Users\CYMR90~1\AppData\Local\Temp\ccaJ4oak.s:24303  .debug_str:000000000000cccc .LASF5332
C:\Users\CYMR90~1\AppData\Local\Temp\ccaJ4oak.s:25663  .debug_str:000000000001224c .LASF5333
C:\Users\CYMR90~1\AppData\Local\Temp\ccaJ4oak.s:24057  .debug_str:000000000000bc4f .LASF5334
C:\Users\CYMR90~1\AppData\Local\Temp\ccaJ4oak.s:31122  .debug_str:0000000000027e83 .LASF5335
C:\Users\CYMR90~1\AppData\Local\Temp\ccaJ4oak.s:30712  .debug_str:0000000000026471 .LASF5336
C:\Users\CYMR90~1\AppData\Local\Temp\ccaJ4oak.s:26415  .debug_str:000000000001522f .LASF5337
C:\Users\CYMR90~1\AppData\Local\Temp\ccaJ4oak.s:29036  .debug_str:000000000001faf1 .LASF5338
C:\Users\CYMR90~1\AppData\Local\Temp\ccaJ4oak.s:25975  .debug_str:00000000000136dd .LASF5339
C:\Users\CYMR90~1\AppData\Local\Temp\ccaJ4oak.s:32272  .debug_str:000000000002c6f5 .LASF5340
C:\Users\CYMR90~1\AppData\Local\Temp\ccaJ4oak.s:28534  .debug_str:000000000001dc4d .LASF5341
C:\Users\CYMR90~1\AppData\Local\Temp\ccaJ4oak.s:29272  .debug_str:00000000000209c9 .LASF5342
C:\Users\CYMR90~1\AppData\Local\Temp\ccaJ4oak.s:29434  .debug_str:00000000000212df .LASF5343
C:\Users\CYMR90~1\AppData\Local\Temp\ccaJ4oak.s:24381  .debug_str:000000000000d174 .LASF5344
C:\Users\CYMR90~1\AppData\Local\Temp\ccaJ4oak.s:28482  .debug_str:000000000001d936 .LASF5345
C:\Users\CYMR90~1\AppData\Local\Temp\ccaJ4oak.s:27050  .debug_str:0000000000017bad .LASF5346
C:\Users\CYMR90~1\AppData\Local\Temp\ccaJ4oak.s:26217  .debug_str:0000000000014572 .LASF5347
C:\Users\CYMR90~1\AppData\Local\Temp\ccaJ4oak.s:24519  .debug_str:000000000000da6c .LASF5348
C:\Users\CYMR90~1\AppData\Local\Temp\ccaJ4oak.s:26423  .debug_str:00000000000152ad .LASF5349
C:\Users\CYMR90~1\AppData\Local\Temp\ccaJ4oak.s:24447  .debug_str:000000000000d65c .LASF5350
C:\Users\CYMR90~1\AppData\Local\Temp\ccaJ4oak.s:26087  .debug_str:0000000000013dbc .LASF5351
C:\Users\CYMR90~1\AppData\Local\Temp\ccaJ4oak.s:28364  .debug_str:000000000001d198 .LASF5352
C:\Users\CYMR90~1\AppData\Local\Temp\ccaJ4oak.s:23637  .debug_str:000000000000a053 .LASF5353
C:\Users\CYMR90~1\AppData\Local\Temp\ccaJ4oak.s:30454  .debug_str:00000000000252f4 .LASF5354
C:\Users\CYMR90~1\AppData\Local\Temp\ccaJ4oak.s:28394  .debug_str:000000000001d387 .LASF5355
C:\Users\CYMR90~1\AppData\Local\Temp\ccaJ4oak.s:32360  .debug_str:000000000002ccb6 .LASF5356
C:\Users\CYMR90~1\AppData\Local\Temp\ccaJ4oak.s:26607  .debug_str:0000000000015d82 .LASF5357
C:\Users\CYMR90~1\AppData\Local\Temp\ccaJ4oak.s:23669  .debug_str:000000000000a23e .LASF5358
C:\Users\CYMR90~1\AppData\Local\Temp\ccaJ4oak.s:24485  .debug_str:000000000000d89c .LASF5359
C:\Users\CYMR90~1\AppData\Local\Temp\ccaJ4oak.s:29156  .debug_str:000000000002023d .LASF5360
C:\Users\CYMR90~1\AppData\Local\Temp\ccaJ4oak.s:30548  .debug_str:0000000000025a56 .LASF5361
C:\Users\CYMR90~1\AppData\Local\Temp\ccaJ4oak.s:24281  .debug_str:000000000000cb7b .LASF5362
C:\Users\CYMR90~1\AppData\Local\Temp\ccaJ4oak.s:23699  .debug_str:000000000000a423 .LASF5363
C:\Users\CYMR90~1\AppData\Local\Temp\ccaJ4oak.s:27850  .debug_str:000000000001b054 .LASF5364
C:\Users\CYMR90~1\AppData\Local\Temp\ccaJ4oak.s:25103  .debug_str:000000000000fdc9 .LASF5365
C:\Users\CYMR90~1\AppData\Local\Temp\ccaJ4oak.s:27324  .debug_str:0000000000018c10 .LASF5366
C:\Users\CYMR90~1\AppData\Local\Temp\ccaJ4oak.s:24249  .debug_str:000000000000c907 .LASF5367
C:\Users\CYMR90~1\AppData\Local\Temp\ccaJ4oak.s:24385  .debug_str:000000000000d19a .LASF5368
C:\Users\CYMR90~1\AppData\Local\Temp\ccaJ4oak.s:26467  .debug_str:0000000000015529 .LASF5369
C:\Users\CYMR90~1\AppData\Local\Temp\ccaJ4oak.s:28528  .debug_str:000000000001dbec .LASF5370
C:\Users\CYMR90~1\AppData\Local\Temp\ccaJ4oak.s:23425  .debug_str:00000000000092e7 .LASF5371
C:\Users\CYMR90~1\AppData\Local\Temp\ccaJ4oak.s:23493  .debug_str:000000000000972e .LASF5372
C:\Users\CYMR90~1\AppData\Local\Temp\ccaJ4oak.s:28418  .debug_str:000000000001d4f4 .LASF5373
C:\Users\CYMR90~1\AppData\Local\Temp\ccaJ4oak.s:26984  .debug_str:0000000000017741 .LASF5374
C:\Users\CYMR90~1\AppData\Local\Temp\ccaJ4oak.s:29740  .debug_str:0000000000022571 .LASF5375
C:\Users\CYMR90~1\AppData\Local\Temp\ccaJ4oak.s:21111  .debug_str:00000000000000a6 .LASF5376
C:\Users\CYMR90~1\AppData\Local\Temp\ccaJ4oak.s:29120  .debug_str:000000000002004b .LASF5377
C:\Users\CYMR90~1\AppData\Local\Temp\ccaJ4oak.s:32434  .debug_str:000000000002d13d .LASF5378
C:\Users\CYMR90~1\AppData\Local\Temp\ccaJ4oak.s:28558  .debug_str:000000000001de37 .LASF5379
C:\Users\CYMR90~1\AppData\Local\Temp\ccaJ4oak.s:32208  .debug_str:000000000002c290 .LASF5380
C:\Users\CYMR90~1\AppData\Local\Temp\ccaJ4oak.s:21733  .debug_str:00000000000026d5 .LASF5381
C:\Users\CYMR90~1\AppData\Local\Temp\ccaJ4oak.s:29356  .debug_str:0000000000020e91 .LASF5382
C:\Users\CYMR90~1\AppData\Local\Temp\ccaJ4oak.s:27634  .debug_str:000000000001a105 .LASF5383
C:\Users\CYMR90~1\AppData\Local\Temp\ccaJ4oak.s:21205  .debug_str:000000000000061e .LASF5384
C:\Users\CYMR90~1\AppData\Local\Temp\ccaJ4oak.s:25691  .debug_str:00000000000123e5 .LASF5385
C:\Users\CYMR90~1\AppData\Local\Temp\ccaJ4oak.s:26117  .debug_str:0000000000013f66 .LASF5386
C:\Users\CYMR90~1\AppData\Local\Temp\ccaJ4oak.s:25661  .debug_str:0000000000012233 .LASF5387
C:\Users\CYMR90~1\AppData\Local\Temp\ccaJ4oak.s:22719  .debug_str:000000000000655e .LASF5388
C:\Users\CYMR90~1\AppData\Local\Temp\ccaJ4oak.s:28858  .debug_str:000000000001f016 .LASF5389
C:\Users\CYMR90~1\AppData\Local\Temp\ccaJ4oak.s:26998  .debug_str:0000000000017846 .LASF5390
C:\Users\CYMR90~1\AppData\Local\Temp\ccaJ4oak.s:21463  .debug_str:000000000000162d .LASF5391
C:\Users\CYMR90~1\AppData\Local\Temp\ccaJ4oak.s:29074  .debug_str:000000000001fd3f .LASF5392
C:\Users\CYMR90~1\AppData\Local\Temp\ccaJ4oak.s:21817  .debug_str:0000000000002c6d .LASF5393
C:\Users\CYMR90~1\AppData\Local\Temp\ccaJ4oak.s:30008  .debug_str:0000000000023565 .LASF5394
C:\Users\CYMR90~1\AppData\Local\Temp\ccaJ4oak.s:21419  .debug_str:000000000000139a .LASF5395
C:\Users\CYMR90~1\AppData\Local\Temp\ccaJ4oak.s:30876  .debug_str:0000000000026e51 .LASF5396
C:\Users\CYMR90~1\AppData\Local\Temp\ccaJ4oak.s:29786  .debug_str:000000000002284f .LASF5397
C:\Users\CYMR90~1\AppData\Local\Temp\ccaJ4oak.s:22037  .debug_str:00000000000039ed .LASF5398
C:\Users\CYMR90~1\AppData\Local\Temp\ccaJ4oak.s:23923  .debug_str:000000000000b37e .LASF5399
C:\Users\CYMR90~1\AppData\Local\Temp\ccaJ4oak.s:30170  .debug_str:0000000000023f7e .LASF5400
C:\Users\CYMR90~1\AppData\Local\Temp\ccaJ4oak.s:22619  .debug_str:0000000000005f0c .LASF5401
C:\Users\CYMR90~1\AppData\Local\Temp\ccaJ4oak.s:31022  .debug_str:00000000000277d2 .LASF5402
C:\Users\CYMR90~1\AppData\Local\Temp\ccaJ4oak.s:23193  .debug_str:0000000000008471 .LASF5403
C:\Users\CYMR90~1\AppData\Local\Temp\ccaJ4oak.s:31984  .debug_str:000000000002b372 .LASF5404
C:\Users\CYMR90~1\AppData\Local\Temp\ccaJ4oak.s:29150  .debug_str:00000000000201f2 .LASF5405
C:\Users\CYMR90~1\AppData\Local\Temp\ccaJ4oak.s:27480  .debug_str:00000000000196fc .LASF5406
C:\Users\CYMR90~1\AppData\Local\Temp\ccaJ4oak.s:21343  .debug_str:0000000000000f60 .LASF5407
C:\Users\CYMR90~1\AppData\Local\Temp\ccaJ4oak.s:28982  .debug_str:000000000001f7aa .LASF5408
C:\Users\CYMR90~1\AppData\Local\Temp\ccaJ4oak.s:22567  .debug_str:0000000000005bdc .LASF5409
C:\Users\CYMR90~1\AppData\Local\Temp\ccaJ4oak.s:31952  .debug_str:000000000002b17c .LASF5410
C:\Users\CYMR90~1\AppData\Local\Temp\ccaJ4oak.s:26731  .debug_str:000000000001653a .LASF5411
C:\Users\CYMR90~1\AppData\Local\Temp\ccaJ4oak.s:26525  .debug_str:0000000000015862 .LASF5412
C:\Users\CYMR90~1\AppData\Local\Temp\ccaJ4oak.s:27550  .debug_str:0000000000019c20 .LASF5413
C:\Users\CYMR90~1\AppData\Local\Temp\ccaJ4oak.s:23985  .debug_str:000000000000b774 .LASF5414
C:\Users\CYMR90~1\AppData\Local\Temp\ccaJ4oak.s:30342  .debug_str:0000000000024b80 .LASF5415
C:\Users\CYMR90~1\AppData\Local\Temp\ccaJ4oak.s:31930  .debug_str:000000000002b03c .LASF5416
C:\Users\CYMR90~1\AppData\Local\Temp\ccaJ4oak.s:22085  .debug_str:0000000000003cfe .LASF5417
C:\Users\CYMR90~1\AppData\Local\Temp\ccaJ4oak.s:28778  .debug_str:000000000001eb5f .LASF5418
C:\Users\CYMR90~1\AppData\Local\Temp\ccaJ4oak.s:28064  .debug_str:000000000001bd84 .LASF5419
C:\Users\CYMR90~1\AppData\Local\Temp\ccaJ4oak.s:25891  .debug_str:00000000000130e2 .LASF5420
C:\Users\CYMR90~1\AppData\Local\Temp\ccaJ4oak.s:31684  .debug_str:000000000002a1bf .LASF5421
C:\Users\CYMR90~1\AppData\Local\Temp\ccaJ4oak.s:29568  .debug_str:0000000000021b79 .LASF5422
C:\Users\CYMR90~1\AppData\Local\Temp\ccaJ4oak.s:23515  .debug_str:0000000000009862 .LASF5423
C:\Users\CYMR90~1\AppData\Local\Temp\ccaJ4oak.s:32344  .debug_str:000000000002cb99 .LASF5424
C:\Users\CYMR90~1\AppData\Local\Temp\ccaJ4oak.s:31392  .debug_str:0000000000029046 .LASF5425
C:\Users\CYMR90~1\AppData\Local\Temp\ccaJ4oak.s:21919  .debug_str:0000000000003290 .LASF5426
C:\Users\CYMR90~1\AppData\Local\Temp\ccaJ4oak.s:29520  .debug_str:0000000000021895 .LASF5427
C:\Users\CYMR90~1\AppData\Local\Temp\ccaJ4oak.s:32306  .debug_str:000000000002c8de .LASF5428
C:\Users\CYMR90~1\AppData\Local\Temp\ccaJ4oak.s:28756  .debug_str:000000000001ea08 .LASF5429
C:\Users\CYMR90~1\AppData\Local\Temp\ccaJ4oak.s:31642  .debug_str:0000000000029f61 .LASF5430
C:\Users\CYMR90~1\AppData\Local\Temp\ccaJ4oak.s:26601  .debug_str:0000000000015d3c .LASF5431
C:\Users\CYMR90~1\AppData\Local\Temp\ccaJ4oak.s:28692  .debug_str:000000000001e607 .LASF5432
C:\Users\CYMR90~1\AppData\Local\Temp\ccaJ4oak.s:24993  .debug_str:000000000000f6be .LASF5433
C:\Users\CYMR90~1\AppData\Local\Temp\ccaJ4oak.s:24983  .debug_str:000000000000f631 .LASF5434
C:\Users\CYMR90~1\AppData\Local\Temp\ccaJ4oak.s:29054  .debug_str:000000000001fc0f .LASF5435
C:\Users\CYMR90~1\AppData\Local\Temp\ccaJ4oak.s:30766  .debug_str:00000000000267ad .LASF5436
C:\Users\CYMR90~1\AppData\Local\Temp\ccaJ4oak.s:21495  .debug_str:00000000000018c8 .LASF5437
C:\Users\CYMR90~1\AppData\Local\Temp\ccaJ4oak.s:27730  .debug_str:000000000001a838 .LASF5438
C:\Users\CYMR90~1\AppData\Local\Temp\ccaJ4oak.s:21297  .debug_str:0000000000000c5a .LASF5439
C:\Users\CYMR90~1\AppData\Local\Temp\ccaJ4oak.s:26813  .debug_str:0000000000016b04 .LASF5440
C:\Users\CYMR90~1\AppData\Local\Temp\ccaJ4oak.s:21611  .debug_str:0000000000001fad .LASF5441
C:\Users\CYMR90~1\AppData\Local\Temp\ccaJ4oak.s:21941  .debug_str:0000000000003419 .LASF5442
C:\Users\CYMR90~1\AppData\Local\Temp\ccaJ4oak.s:24735  .debug_str:000000000000e746 .LASF5443
C:\Users\CYMR90~1\AppData\Local\Temp\ccaJ4oak.s:25467  .debug_str:00000000000114b4 .LASF5444
C:\Users\CYMR90~1\AppData\Local\Temp\ccaJ4oak.s:23855  .debug_str:000000000000ae6e .LASF5445
C:\Users\CYMR90~1\AppData\Local\Temp\ccaJ4oak.s:22139  .debug_str:00000000000040b0 .LASF5446
C:\Users\CYMR90~1\AppData\Local\Temp\ccaJ4oak.s:32042  .debug_str:000000000002b748 .LASF5447
C:\Users\CYMR90~1\AppData\Local\Temp\ccaJ4oak.s:23677  .debug_str:000000000000a2ca .LASF5448
C:\Users\CYMR90~1\AppData\Local\Temp\ccaJ4oak.s:29300  .debug_str:0000000000020b44 .LASF5449
C:\Users\CYMR90~1\AppData\Local\Temp\ccaJ4oak.s:30002  .debug_str:000000000002350f .LASF5450
C:\Users\CYMR90~1\AppData\Local\Temp\ccaJ4oak.s:32078  .debug_str:000000000002b9d8 .LASF5451
C:\Users\CYMR90~1\AppData\Local\Temp\ccaJ4oak.s:21401  .debug_str:00000000000012a6 .LASF5452
C:\Users\CYMR90~1\AppData\Local\Temp\ccaJ4oak.s:30676  .debug_str:0000000000026254 .LASF5453
C:\Users\CYMR90~1\AppData\Local\Temp\ccaJ4oak.s:29636  .debug_str:0000000000021fa1 .LASF5454
C:\Users\CYMR90~1\AppData\Local\Temp\ccaJ4oak.s:28560  .debug_str:000000000001de59 .LASF5455
C:\Users\CYMR90~1\AppData\Local\Temp\ccaJ4oak.s:25165  .debug_str:00000000000101b1 .LASF5456
C:\Users\CYMR90~1\AppData\Local\Temp\ccaJ4oak.s:21581  .debug_str:0000000000001df1 .LASF5457
C:\Users\CYMR90~1\AppData\Local\Temp\ccaJ4oak.s:27828  .debug_str:000000000001aeb1 .LASF5458
C:\Users\CYMR90~1\AppData\Local\Temp\ccaJ4oak.s:24609  .debug_str:000000000000dfce .LASF5459
C:\Users\CYMR90~1\AppData\Local\Temp\ccaJ4oak.s:26161  .debug_str:000000000001423e .LASF5460
C:\Users\CYMR90~1\AppData\Local\Temp\ccaJ4oak.s:31258  .debug_str:0000000000028831 .LASF5461
C:\Users\CYMR90~1\AppData\Local\Temp\ccaJ4oak.s:32200  .debug_str:000000000002c1e9 .LASF5462
C:\Users\CYMR90~1\AppData\Local\Temp\ccaJ4oak.s:24585  .debug_str:000000000000de42 .LASF5463
C:\Users\CYMR90~1\AppData\Local\Temp\ccaJ4oak.s:24611  .debug_str:000000000000dff8 .LASF5464
C:\Users\CYMR90~1\AppData\Local\Temp\ccaJ4oak.s:23109  .debug_str:0000000000007e90 .LASF5465
C:\Users\CYMR90~1\AppData\Local\Temp\ccaJ4oak.s:23461  .debug_str:00000000000094fe .LASF5466
C:\Users\CYMR90~1\AppData\Local\Temp\ccaJ4oak.s:31670  .debug_str:000000000002a0d9 .LASF5467
C:\Users\CYMR90~1\AppData\Local\Temp\ccaJ4oak.s:28392  .debug_str:000000000001d364 .LASF5468
C:\Users\CYMR90~1\AppData\Local\Temp\ccaJ4oak.s:27958  .debug_str:000000000001b71e .LASF5469
C:\Users\CYMR90~1\AppData\Local\Temp\ccaJ4oak.s:25437  .debug_str:00000000000112fb .LASF5470
C:\Users\CYMR90~1\AppData\Local\Temp\ccaJ4oak.s:26113  .debug_str:0000000000013f20 .LASF5471
C:\Users\CYMR90~1\AppData\Local\Temp\ccaJ4oak.s:32300  .debug_str:000000000002c87f .LASF5472
C:\Users\CYMR90~1\AppData\Local\Temp\ccaJ4oak.s:31856  .debug_str:000000000002ac0e .LASF5473
C:\Users\CYMR90~1\AppData\Local\Temp\ccaJ4oak.s:28796  .debug_str:000000000001ec4a .LASF5474
C:\Users\CYMR90~1\AppData\Local\Temp\ccaJ4oak.s:27988  .debug_str:000000000001b90d .LASF5475
C:\Users\CYMR90~1\AppData\Local\Temp\ccaJ4oak.s:25729  .debug_str:0000000000012645 .LASF5476
C:\Users\CYMR90~1\AppData\Local\Temp\ccaJ4oak.s:30208  .debug_str:000000000002419b .LASF5477
C:\Users\CYMR90~1\AppData\Local\Temp\ccaJ4oak.s:24293  .debug_str:000000000000cc27 .LASF5478
C:\Users\CYMR90~1\AppData\Local\Temp\ccaJ4oak.s:23325  .debug_str:0000000000008cac .LASF5479
C:\Users\CYMR90~1\AppData\Local\Temp\ccaJ4oak.s:24351  .debug_str:000000000000cf6f .LASF5480
C:\Users\CYMR90~1\AppData\Local\Temp\ccaJ4oak.s:23113  .debug_str:0000000000007ec5 .LASF5481
C:\Users\CYMR90~1\AppData\Local\Temp\ccaJ4oak.s:22229  .debug_str:00000000000046d8 .LASF5482
C:\Users\CYMR90~1\AppData\Local\Temp\ccaJ4oak.s:32116  .debug_str:000000000002bc38 .LASF5483
C:\Users\CYMR90~1\AppData\Local\Temp\ccaJ4oak.s:30532  .debug_str:00000000000258e0 .LASF5484
C:\Users\CYMR90~1\AppData\Local\Temp\ccaJ4oak.s:23301  .debug_str:0000000000008b29 .LASF5485
C:\Users\CYMR90~1\AppData\Local\Temp\ccaJ4oak.s:30992  .debug_str:0000000000027617 .LASF5486
C:\Users\CYMR90~1\AppData\Local\Temp\ccaJ4oak.s:23247  .debug_str:00000000000087c4 .LASF5487
C:\Users\CYMR90~1\AppData\Local\Temp\ccaJ4oak.s:27198  .debug_str:0000000000018482 .LASF5488
C:\Users\CYMR90~1\AppData\Local\Temp\ccaJ4oak.s:22299  .debug_str:0000000000004bcd .LASF5489
C:\Users\CYMR90~1\AppData\Local\Temp\ccaJ4oak.s:32172  .debug_str:000000000002c056 .LASF5490
C:\Users\CYMR90~1\AppData\Local\Temp\ccaJ4oak.s:32398  .debug_str:000000000002cf48 .LASF5491
C:\Users\CYMR90~1\AppData\Local\Temp\ccaJ4oak.s:25741  .debug_str:0000000000012716 .LASF5492
C:\Users\CYMR90~1\AppData\Local\Temp\ccaJ4oak.s:23817  .debug_str:000000000000ac13 .LASF5493
C:\Users\CYMR90~1\AppData\Local\Temp\ccaJ4oak.s:23485  .debug_str:00000000000096b7 .LASF5494
C:\Users\CYMR90~1\AppData\Local\Temp\ccaJ4oak.s:26888  .debug_str:00000000000171e3 .LASF5495
C:\Users\CYMR90~1\AppData\Local\Temp\ccaJ4oak.s:26077  .debug_str:0000000000013d18 .LASF5496
C:\Users\CYMR90~1\AppData\Local\Temp\ccaJ4oak.s:22441  .debug_str:000000000000545b .LASF5497
C:\Users\CYMR90~1\AppData\Local\Temp\ccaJ4oak.s:30840  .debug_str:0000000000026c3c .LASF5498
C:\Users\CYMR90~1\AppData\Local\Temp\ccaJ4oak.s:30834  .debug_str:0000000000026bea .LASF5499
C:\Users\CYMR90~1\AppData\Local\Temp\ccaJ4oak.s:21175  .debug_str:0000000000000499 .LASF5500
C:\Users\CYMR90~1\AppData\Local\Temp\ccaJ4oak.s:26585  .debug_str:0000000000015be9 .LASF5501
C:\Users\CYMR90~1\AppData\Local\Temp\ccaJ4oak.s:29788  .debug_str:0000000000022887 .LASF5502
C:\Users\CYMR90~1\AppData\Local\Temp\ccaJ4oak.s:23755  .debug_str:000000000000a780 .LASF5503
C:\Users\CYMR90~1\AppData\Local\Temp\ccaJ4oak.s:25189  .debug_str:0000000000010378 .LASF5504
C:\Users\CYMR90~1\AppData\Local\Temp\ccaJ4oak.s:31578  .debug_str:0000000000029b90 .LASF5505
C:\Users\CYMR90~1\AppData\Local\Temp\ccaJ4oak.s:31814  .debug_str:000000000002a99e .LASF5506
C:\Users\CYMR90~1\AppData\Local\Temp\ccaJ4oak.s:27076  .debug_str:0000000000017d21 .LASF5507
C:\Users\CYMR90~1\AppData\Local\Temp\ccaJ4oak.s:30320  .debug_str:00000000000249af .LASF5508
C:\Users\CYMR90~1\AppData\Local\Temp\ccaJ4oak.s:24347  .debug_str:000000000000cf24 .LASF5509
C:\Users\CYMR90~1\AppData\Local\Temp\ccaJ4oak.s:24367  .debug_str:000000000000d0a9 .LASF5510
C:\Users\CYMR90~1\AppData\Local\Temp\ccaJ4oak.s:30930  .debug_str:00000000000271be .LASF5511
C:\Users\CYMR90~1\AppData\Local\Temp\ccaJ4oak.s:27110  .debug_str:0000000000017f52 .LASF5512
C:\Users\CYMR90~1\AppData\Local\Temp\ccaJ4oak.s:22681  .debug_str:0000000000006330 .LASF5513
C:\Users\CYMR90~1\AppData\Local\Temp\ccaJ4oak.s:22617  .debug_str:0000000000005ef1 .LASF5514
C:\Users\CYMR90~1\AppData\Local\Temp\ccaJ4oak.s:22637  .debug_str:0000000000006006 .LASF5515
C:\Users\CYMR90~1\AppData\Local\Temp\ccaJ4oak.s:22091  .debug_str:0000000000003d7b .LASF5516
C:\Users\CYMR90~1\AppData\Local\Temp\ccaJ4oak.s:29994  .debug_str:000000000002348b .LASF5517
C:\Users\CYMR90~1\AppData\Local\Temp\ccaJ4oak.s:28996  .debug_str:000000000001f85a .LASF5518
C:\Users\CYMR90~1\AppData\Local\Temp\ccaJ4oak.s:27500  .debug_str:000000000001986b .LASF5519
C:\Users\CYMR90~1\AppData\Local\Temp\ccaJ4oak.s:27450  .debug_str:000000000001955e .LASF5520
C:\Users\CYMR90~1\AppData\Local\Temp\ccaJ4oak.s:30232  .debug_str:00000000000243fb .LASF5521
C:\Users\CYMR90~1\AppData\Local\Temp\ccaJ4oak.s:25017  .debug_str:000000000000f8c2 .LASF5522
C:\Users\CYMR90~1\AppData\Local\Temp\ccaJ4oak.s:28782  .debug_str:000000000001eb92 .LASF5523
C:\Users\CYMR90~1\AppData\Local\Temp\ccaJ4oak.s:25563  .debug_str:0000000000011c1d .LASF5524
C:\Users\CYMR90~1\AppData\Local\Temp\ccaJ4oak.s:29462  .debug_str:000000000002152f .LASF5525
C:\Users\CYMR90~1\AppData\Local\Temp\ccaJ4oak.s:29876  .debug_str:0000000000022e04 .LASF5526
C:\Users\CYMR90~1\AppData\Local\Temp\ccaJ4oak.s:24915  .debug_str:000000000000f1d2 .LASF5527
C:\Users\CYMR90~1\AppData\Local\Temp\ccaJ4oak.s:28584  .debug_str:000000000001dfe3 .LASF5528
C:\Users\CYMR90~1\AppData\Local\Temp\ccaJ4oak.s:27640  .debug_str:000000000001a15e .LASF5529
C:\Users\CYMR90~1\AppData\Local\Temp\ccaJ4oak.s:22935  .debug_str:00000000000072ea .LASF5530
C:\Users\CYMR90~1\AppData\Local\Temp\ccaJ4oak.s:28492  .debug_str:000000000001d9fd .LASF5531
C:\Users\CYMR90~1\AppData\Local\Temp\ccaJ4oak.s:31174  .debug_str:000000000002820c .LASF5532
C:\Users\CYMR90~1\AppData\Local\Temp\ccaJ4oak.s:30162  .debug_str:0000000000023efe .LASF5533
C:\Users\CYMR90~1\AppData\Local\Temp\ccaJ4oak.s:25967  .debug_str:0000000000013638 .LASF5534
C:\Users\CYMR90~1\AppData\Local\Temp\ccaJ4oak.s:27920  .debug_str:000000000001b4e2 .LASF5535
C:\Users\CYMR90~1\AppData\Local\Temp\ccaJ4oak.s:26307  .debug_str:0000000000014b0b .LASF5536
C:\Users\CYMR90~1\AppData\Local\Temp\ccaJ4oak.s:21211  .debug_str:0000000000000699 .LASF5537
C:\Users\CYMR90~1\AppData\Local\Temp\ccaJ4oak.s:28648  .debug_str:000000000001e352 .LASF5538
C:\Users\CYMR90~1\AppData\Local\Temp\ccaJ4oak.s:22599  .debug_str:0000000000005de9 .LASF5539
C:\Users\CYMR90~1\AppData\Local\Temp\ccaJ4oak.s:21947  .debug_str:0000000000003480 .LASF5540
C:\Users\CYMR90~1\AppData\Local\Temp\ccaJ4oak.s:23919  .debug_str:000000000000b33a .LASF5541
C:\Users\CYMR90~1\AppData\Local\Temp\ccaJ4oak.s:28432  .debug_str:000000000001d5cb .LASF5542
C:\Users\CYMR90~1\AppData\Local\Temp\ccaJ4oak.s:28056  .debug_str:000000000001bcf7 .LASF5543
C:\Users\CYMR90~1\AppData\Local\Temp\ccaJ4oak.s:22405  .debug_str:0000000000005220 .LASF5544
C:\Users\CYMR90~1\AppData\Local\Temp\ccaJ4oak.s:30826  .debug_str:0000000000026b51 .LASF5545
C:\Users\CYMR90~1\AppData\Local\Temp\ccaJ4oak.s:21773  .debug_str:0000000000002993 .LASF5546
C:\Users\CYMR90~1\AppData\Local\Temp\ccaJ4oak.s:27352  .debug_str:0000000000018e83 .LASF5547
C:\Users\CYMR90~1\AppData\Local\Temp\ccaJ4oak.s:23791  .debug_str:000000000000aa83 .LASF5548
C:\Users\CYMR90~1\AppData\Local\Temp\ccaJ4oak.s:23433  .debug_str:0000000000009361 .LASF5549
C:\Users\CYMR90~1\AppData\Local\Temp\ccaJ4oak.s:29258  .debug_str:00000000000208fe .LASF5550
C:\Users\CYMR90~1\AppData\Local\Temp\ccaJ4oak.s:26095  .debug_str:0000000000013e20 .LASF5551
C:\Users\CYMR90~1\AppData\Local\Temp\ccaJ4oak.s:21749  .debug_str:00000000000027ee .LASF5552
C:\Users\CYMR90~1\AppData\Local\Temp\ccaJ4oak.s:21369  .debug_str:00000000000010aa .LASF5553
C:\Users\CYMR90~1\AppData\Local\Temp\ccaJ4oak.s:26719  .debug_str:00000000000164b1 .LASF5554
C:\Users\CYMR90~1\AppData\Local\Temp\ccaJ4oak.s:25489  .debug_str:0000000000011640 .LASF5555
                           .group:0000000000000000 wm4.0.10abbef32179bc1260444192115bdf5e
                           .group:0000000000000000 wm4.stddef.h.39.144cf5ddcd53cbfdac30259dc1a6c87f
                           .group:0000000000000000 wm4._newlib_version.h.4.bfdf54b0af045d4a71376ae00f63a22c
                           .group:0000000000000000 wm4.newlib.h.18.08a2ecba46890ca2aa56bbe21686e6c3
                           .group:0000000000000000 wm4.ieeefp.h.202.4f2759f5758fd82153cfbf98692f2ced
                           .group:0000000000000000 wm4.features.h.22.fad1cec3bc7ff06488171438dbdcfd02
                           .group:0000000000000000 wm4.config.h.83.13bbc8852bfac55b724c9822481355b5
                           .group:0000000000000000 wm4._ansi.h.31.de524f58584151836e90d8620a16f8e8
                           .group:0000000000000000 wm4.stdio.h.31.7c0e28c411445f3f9c5b11accf882760
                           .group:0000000000000000 wm4._default_types.h.6.959254cf5f09734ea7516c89e8bb21bd
                           .group:0000000000000000 wm4.stddef.h.155.ba788add86a0e365f264484f110c3c29
                           .group:0000000000000000 wm4.cdefs.h.49.39045112216f6a021dbdffe3bf5accce
                           .group:0000000000000000 wm4.stdarg.h.34.3a23a216c0c293b3d2ea2e89281481e6
                           .group:0000000000000000 wm4._types.h.20.dd0d04dca3800a0d2a6129b87f3adbb2
                           .group:0000000000000000 wm4.stddef.h.155.3588ebfdd1e8c7ede80509bb9c3b8009
                           .group:0000000000000000 wm4._types.h.127.34941de1b2539d59d5cac00e0dd27a45
                           .group:0000000000000000 wm4.reent.h.17.e292bf8b0bec6c96e131a54347145a30
                           .group:0000000000000000 wm4.lock.h.2.c0958401bd0ce484d507ee19aacab817
                           .group:0000000000000000 wm4.reent.h.77.dcd6129ff07fe81bd5636db29abe53b2
                           .group:0000000000000000 wm4.types.h.40.8b6acba56cefbb11746718204edc8f5e
                           .group:0000000000000000 wm4._stdint.h.10.c24fa3af3bc1706662bb5593a907e841
                           .group:0000000000000000 wm4._endian.h.18.1bf9649e8e5bbc91042012680270b9ed
                           .group:0000000000000000 wm4.endian.h.9.49f3a4695c1b61e8a0808de3c4a106cb
                           .group:0000000000000000 wm4._timeval.h.32.bec3221fa7a9bb0bdde696c9c57e47d2
                           .group:0000000000000000 wm4.timespec.h.41.d855182eb0e690443ab8651bcedca6e1
                           .group:0000000000000000 wm4.select.h.19.40cd3f2bfc456b193b790c2754690ebf
                           .group:0000000000000000 wm4.types.h.51.5571ec98f267d17d3c670b7a3ba33afa
                           .group:0000000000000000 wm4.sched.h.22.c60982713a5c428609783c78f9c78d95
                           .group:0000000000000000 wm4._pthreadtypes.h.36.fcee9961c35163dde6267ef772ad1972
                           .group:0000000000000000 wm4.stdio.h.2.4aa87247282eca6c8f36f9de33d8df1a
                           .group:0000000000000000 wm4.stdio.h.81.932d0c162786b883f622b8d05c120c78
                           .group:0000000000000000 wm4.gd32vw55x.h.47.379378190858578060a317909b2c8d8a
                           .group:0000000000000000 wm4._intsup.h.10.48bafbb683905c4daa4565a85aeeb264
                           .group:0000000000000000 wm4.stdint.h.23.d53047a68f4a85177f80b422d52785ed
                           .group:0000000000000000 wm4.nmsis_version.h.19.ffa173da8efb17b1050904994d6f500e
                           .group:0000000000000000 wm4.riscv_bits.h.19.ee94eb3d39937793d4cd0a62363e5d00
                           .group:0000000000000000 wm4.riscv_encoding.h.35.f5d37fad7abbab8278b4bb6f1e32fa65
                           .group:0000000000000000 wm4.nmsis_gcc.h.61.5d70d7598ffc79c3c991d847a574cf23
                           .group:0000000000000000 wm4.core_feature_base.h.20.e99d3e75c26a8f3341d35bf20d0e1d20
                           .group:0000000000000000 wm4.core_feature_fpu.h.19.695f2200274659b530cb97cda749ff4f
                           .group:0000000000000000 wm4.core_feature_dsp.h.19.e8f8d7aa42f197807aefedb6584486cd
                           .group:0000000000000000 wm4.core_compatiable.h.19.5b8282d61b1f6889a82895616b730084
                           .group:0000000000000000 wm4.core_feature_eclic.h.19.e0c091d0cbda79e8b3b031b979ebd5a1
                           .group:0000000000000000 wm4.core_feature_timer.h.19.21a5151282de34c37dfa6d84e262aa54
                           .group:0000000000000000 wm4.system_gd32vw55x.h.32.f1fcb1212d387c35ac955b0e96ada468
                           .group:0000000000000000 wm4.gd32vw55x.h.231.3529c650aff38c9372f7e03177fd2c8a
                           .group:0000000000000000 wm4.gd32vw55x_adc.h.42.ae73acec1704ef509ccecb41a875b50e
                           .group:0000000000000000 wm4.gd32vw55x_crc.h.37.c58f296814c2300a4b067c08bd88d54e
                           .group:0000000000000000 wm4.gd32vw55x_dbg.h.36.311650c8545549d482ceca8befc5a232
                           .group:0000000000000000 wm4.gd32vw55x_dma.h.36.f4adc751172b2a7b1533dda72e948737
                           .group:0000000000000000 wm4.gd32vw55x_eclic.h.36.0411499f2b2493c67246e32ccae096c1
                           .group:0000000000000000 wm4.gd32vw55x_efuse.h.36.091404cecbab70359dfd93faec5fdb62
                           .group:0000000000000000 wm4.gd32vw55x_exti.h.36.de7508334dd12f1a6a673521a1a835f5
                           .group:0000000000000000 wm4.gd32vw55x_fmc.h.36.a4b0b94c47ffe23a2fa09260c5ed4850
                           .group:0000000000000000 wm4.gd32vw55x_fwdgt.h.36.4846b6900fd24b5bfce4986c9a8ce677
                           .group:0000000000000000 wm4.gd32vw55x_gpio.h.36.adfee1371bb58d3d9043c47bdb25a90f
                           .group:0000000000000000 wm4.gd32vw55x_hau.h.36.f3cbcbd7b67c9e5bdc7a1100b1bf3458
                           .group:0000000000000000 wm4.gd32vw55x_i2c.h.36.3848990933925e084eb427083790c53f
                           .group:0000000000000000 wm4.gd32vw55x_pkcau.h.36.bb2235f4cf4967063a51bfa9aca5ef27
                           .group:0000000000000000 wm4.gd32vw55x_pmu.h.36.4c76091f1415551526d489ccf2c42052
                           .group:0000000000000000 wm4.gd32vw55x_qspi.h.36.2d2c181cfe19b935a9641008fc786613
                           .group:0000000000000000 wm4.gd32vw55x_rcu.h.36.780a8a45c00d563711cceb445027ef47
                           .group:0000000000000000 wm4.gd32vw55x_rtc.h.36.3172855e8715659e080e0eab46fdf175
                           .group:0000000000000000 wm4.gd32vw55x_spi.h.36.9fa1be2b09fb73e4b5886e97f0e96d58
                           .group:0000000000000000 wm4.gd32vw55x_syscfg.h.36.010551f05591f5e34051d2e15df0352b
                           .group:0000000000000000 wm4.gd32vw55x_timer.h.38.2cbee78ea60d47145be361b2d2c55070
                           .group:0000000000000000 wm4.gd32vw55x_trng.h.36.c9e7807af1b1ab68d3bbb54f4ed5cd73
                           .group:0000000000000000 wm4.gd32vw55x_usart.h.36.f5c497cca17945a34f154b0e17017d02
                           .group:0000000000000000 wm4.gd32vw55x_wwdgt.h.36.f7a443b7302efc0e5c335888582ee197
                           .group:0000000000000000 wm4.gd32vw55x_cau.h.41.50579844007a51268a8149adfbc49583

UNDEFINED SYMBOLS
rcu_periph_reset_enable
rcu_periph_reset_disable
