   1              		.file	"gd32vw55x_qspi.c"
   2              		.option nopic
   3              		.attribute arch, "rv32i2p0_m2p0_a2p0_c2p0"
   4              		.attribute unaligned_access, 0
   5              		.attribute stack_align, 16
   6              		.text
   7              	.Ltext0:
   8              		.cfi_sections	.debug_frame
   9              		.section	.text.qspi_deinit,"ax",@progbits
  10              		.align	1
  11              		.globl	qspi_deinit
  13              	qspi_deinit:
  14              	.LFB347:
  15              		.file 1 "../Firmware/GD32VW55x_standard_peripheral/Source/gd32vw55x_qspi.c"
   1:../Firmware/GD32VW55x_standard_peripheral/Source/gd32vw55x_qspi.c **** /*!
   2:../Firmware/GD32VW55x_standard_peripheral/Source/gd32vw55x_qspi.c ****     \file    gd32vw55x_qspi.c
   3:../Firmware/GD32VW55x_standard_peripheral/Source/gd32vw55x_qspi.c ****     \brief   QSPI driver
   4:../Firmware/GD32VW55x_standard_peripheral/Source/gd32vw55x_qspi.c **** 
   5:../Firmware/GD32VW55x_standard_peripheral/Source/gd32vw55x_qspi.c ****     \version 2025-01-16, V1.4.0, firmware for GD32VW55x
   6:../Firmware/GD32VW55x_standard_peripheral/Source/gd32vw55x_qspi.c **** */
   7:../Firmware/GD32VW55x_standard_peripheral/Source/gd32vw55x_qspi.c **** 
   8:../Firmware/GD32VW55x_standard_peripheral/Source/gd32vw55x_qspi.c **** /*
   9:../Firmware/GD32VW55x_standard_peripheral/Source/gd32vw55x_qspi.c ****     Copyright (c) 2025, GigaDevice Semiconductor Inc.
  10:../Firmware/GD32VW55x_standard_peripheral/Source/gd32vw55x_qspi.c **** 
  11:../Firmware/GD32VW55x_standard_peripheral/Source/gd32vw55x_qspi.c ****     Redistribution and use in source and binary forms, with or without modification,
  12:../Firmware/GD32VW55x_standard_peripheral/Source/gd32vw55x_qspi.c **** are permitted provided that the following conditions are met:
  13:../Firmware/GD32VW55x_standard_peripheral/Source/gd32vw55x_qspi.c **** 
  14:../Firmware/GD32VW55x_standard_peripheral/Source/gd32vw55x_qspi.c ****     1. Redistributions of source code must retain the above copyright notice, this
  15:../Firmware/GD32VW55x_standard_peripheral/Source/gd32vw55x_qspi.c ****        list of conditions and the following disclaimer.
  16:../Firmware/GD32VW55x_standard_peripheral/Source/gd32vw55x_qspi.c ****     2. Redistributions in binary form must reproduce the above copyright notice,
  17:../Firmware/GD32VW55x_standard_peripheral/Source/gd32vw55x_qspi.c ****        this list of conditions and the following disclaimer in the documentation
  18:../Firmware/GD32VW55x_standard_peripheral/Source/gd32vw55x_qspi.c ****        and/or other materials provided with the distribution.
  19:../Firmware/GD32VW55x_standard_peripheral/Source/gd32vw55x_qspi.c ****     3. Neither the name of the copyright holder nor the names of its contributors
  20:../Firmware/GD32VW55x_standard_peripheral/Source/gd32vw55x_qspi.c ****        may be used to endorse or promote products derived from this software without
  21:../Firmware/GD32VW55x_standard_peripheral/Source/gd32vw55x_qspi.c ****        specific prior written permission.
  22:../Firmware/GD32VW55x_standard_peripheral/Source/gd32vw55x_qspi.c **** 
  23:../Firmware/GD32VW55x_standard_peripheral/Source/gd32vw55x_qspi.c ****     THIS SOFTWARE IS PROVIDED BY THE COPYRIGHT HOLDERS AND CONTRIBUTORS "AS IS"
  24:../Firmware/GD32VW55x_standard_peripheral/Source/gd32vw55x_qspi.c **** AND ANY EXPRESS OR IMPLIED WARRANTIES, INCLUDING, BUT NOT LIMITED TO, THE IMPLIED
  25:../Firmware/GD32VW55x_standard_peripheral/Source/gd32vw55x_qspi.c **** WARRANTIES OF MERCHANTABILITY AND FITNESS FOR A PARTICULAR PURPOSE ARE DISCLAIMED.
  26:../Firmware/GD32VW55x_standard_peripheral/Source/gd32vw55x_qspi.c **** IN NO EVENT SHALL THE COPYRIGHT HOLDER OR CONTRIBUTORS BE LIABLE FOR ANY DIRECT,
  27:../Firmware/GD32VW55x_standard_peripheral/Source/gd32vw55x_qspi.c **** INDIRECT, INCIDENTAL, SPECIAL, EXEMPLARY, OR CONSEQUENTIAL DAMAGES (INCLUDING, BUT
  28:../Firmware/GD32VW55x_standard_peripheral/Source/gd32vw55x_qspi.c **** NOT LIMITED TO, PROCUREMENT OF SUBSTITUTE GOODS OR SERVICES; LOSS OF USE, DATA, OR
  29:../Firmware/GD32VW55x_standard_peripheral/Source/gd32vw55x_qspi.c **** PROFITS; OR BUSINESS INTERRUPTION) HOWEVER CAUSED AND ON ANY THEORY OF LIABILITY,
  30:../Firmware/GD32VW55x_standard_peripheral/Source/gd32vw55x_qspi.c **** WHETHER IN CONTRACT, STRICT LIABILITY, OR TORT (INCLUDING NEGLIGENCE OR OTHERWISE)
  31:../Firmware/GD32VW55x_standard_peripheral/Source/gd32vw55x_qspi.c **** ARISING IN ANY WAY OUT OF THE USE OF THIS SOFTWARE, EVEN IF ADVISED OF THE POSSIBILITY
  32:../Firmware/GD32VW55x_standard_peripheral/Source/gd32vw55x_qspi.c **** OF SUCH DAMAGE.
  33:../Firmware/GD32VW55x_standard_peripheral/Source/gd32vw55x_qspi.c **** */
  34:../Firmware/GD32VW55x_standard_peripheral/Source/gd32vw55x_qspi.c **** 
  35:../Firmware/GD32VW55x_standard_peripheral/Source/gd32vw55x_qspi.c **** #include "gd32vw55x_qspi.h"
  36:../Firmware/GD32VW55x_standard_peripheral/Source/gd32vw55x_qspi.c **** 
  37:../Firmware/GD32VW55x_standard_peripheral/Source/gd32vw55x_qspi.c **** /* QSPI register bit offset */
  38:../Firmware/GD32VW55x_standard_peripheral/Source/gd32vw55x_qspi.c **** #define CTL_FTL_OFFSET            ((uint32_t)0x00000008U)               /*!< bit offset of FTL in Q
  39:../Firmware/GD32VW55x_standard_peripheral/Source/gd32vw55x_qspi.c **** #define CTL_PSC_OFFSET            ((uint32_t)0x00000018U)               /*!< bit offset of PSC in Q
  40:../Firmware/GD32VW55x_standard_peripheral/Source/gd32vw55x_qspi.c **** #define DCFG_FMSZ_OFFSET          ((uint32_t)0x00000010U)               /*!< bit offset of FMSZ in 
  41:../Firmware/GD32VW55x_standard_peripheral/Source/gd32vw55x_qspi.c **** #define TCFG_DUMYC_OFFSET         ((uint32_t)0x00000012U)               /*!< bit offset of DUMYC in
  42:../Firmware/GD32VW55x_standard_peripheral/Source/gd32vw55x_qspi.c **** 
  43:../Firmware/GD32VW55x_standard_peripheral/Source/gd32vw55x_qspi.c **** /* configure QSPI functional mode */
  44:../Firmware/GD32VW55x_standard_peripheral/Source/gd32vw55x_qspi.c **** static void qspi_config(qspi_command_struct *cmd, uint32_t functionalmode);
  45:../Firmware/GD32VW55x_standard_peripheral/Source/gd32vw55x_qspi.c **** 
  46:../Firmware/GD32VW55x_standard_peripheral/Source/gd32vw55x_qspi.c **** /*!
  47:../Firmware/GD32VW55x_standard_peripheral/Source/gd32vw55x_qspi.c ****     \brief      reset QSPI
  48:../Firmware/GD32VW55x_standard_peripheral/Source/gd32vw55x_qspi.c ****     \param[in]  none
  49:../Firmware/GD32VW55x_standard_peripheral/Source/gd32vw55x_qspi.c ****     \param[out] none
  50:../Firmware/GD32VW55x_standard_peripheral/Source/gd32vw55x_qspi.c ****     \retval     none
  51:../Firmware/GD32VW55x_standard_peripheral/Source/gd32vw55x_qspi.c **** */
  52:../Firmware/GD32VW55x_standard_peripheral/Source/gd32vw55x_qspi.c **** void qspi_deinit(void)
  53:../Firmware/GD32VW55x_standard_peripheral/Source/gd32vw55x_qspi.c **** {
  16              		.loc 1 53 1
  17              		.cfi_startproc
  18 0000 4111     		addi	sp,sp,-16
  19              		.cfi_def_cfa_offset 16
  20 0002 06C6     		sw	ra,12(sp)
  21 0004 22C4     		sw	s0,8(sp)
  22              		.cfi_offset 1, -4
  23              		.cfi_offset 8, -8
  24 0006 0008     		addi	s0,sp,16
  25              		.cfi_def_cfa 8, 0
  54:../Firmware/GD32VW55x_standard_peripheral/Source/gd32vw55x_qspi.c ****     rcu_periph_reset_enable(RCU_QSPIRST);
  26              		.loc 1 54 5
  27 0008 13051060 		li	a0,1537
  28 000c 97000000 		call	rcu_periph_reset_enable
  28      E7800000 
  55:../Firmware/GD32VW55x_standard_peripheral/Source/gd32vw55x_qspi.c ****     rcu_periph_reset_disable(RCU_QSPIRST);
  29              		.loc 1 55 5
  30 0014 13051060 		li	a0,1537
  31 0018 97000000 		call	rcu_periph_reset_disable
  31      E7800000 
  56:../Firmware/GD32VW55x_standard_peripheral/Source/gd32vw55x_qspi.c **** }
  32              		.loc 1 56 1
  33 0020 0100     		nop
  34 0022 B240     		lw	ra,12(sp)
  35              		.cfi_restore 1
  36 0024 2244     		lw	s0,8(sp)
  37              		.cfi_restore 8
  38              		.cfi_def_cfa 2, 16
  39 0026 4101     		addi	sp,sp,16
  40              		.cfi_def_cfa_offset 0
  41 0028 8280     		jr	ra
  42              		.cfi_endproc
  43              	.LFE347:
  45              		.section	.text.qspi_struct_para_init,"ax",@progbits
  46              		.align	1
  47              		.globl	qspi_struct_para_init
  49              	qspi_struct_para_init:
  50              	.LFB348:
  57:../Firmware/GD32VW55x_standard_peripheral/Source/gd32vw55x_qspi.c **** 
  58:../Firmware/GD32VW55x_standard_peripheral/Source/gd32vw55x_qspi.c **** /*!
  59:../Firmware/GD32VW55x_standard_peripheral/Source/gd32vw55x_qspi.c ****     \brief      initialize the parameters of QSPI structure with the default values
  60:../Firmware/GD32VW55x_standard_peripheral/Source/gd32vw55x_qspi.c ****     \param[in]  none
  61:../Firmware/GD32VW55x_standard_peripheral/Source/gd32vw55x_qspi.c ****     \param[out] init_para: QSPI parameter structure
  62:../Firmware/GD32VW55x_standard_peripheral/Source/gd32vw55x_qspi.c ****     \retval     none
  63:../Firmware/GD32VW55x_standard_peripheral/Source/gd32vw55x_qspi.c **** */
  64:../Firmware/GD32VW55x_standard_peripheral/Source/gd32vw55x_qspi.c **** void qspi_struct_para_init(qspi_init_struct *init_para)
  65:../Firmware/GD32VW55x_standard_peripheral/Source/gd32vw55x_qspi.c **** {
  51              		.loc 1 65 1
  52              		.cfi_startproc
  53 0000 0111     		addi	sp,sp,-32
  54              		.cfi_def_cfa_offset 32
  55 0002 22CE     		sw	s0,28(sp)
  56              		.cfi_offset 8, -4
  57 0004 0010     		addi	s0,sp,32
  58              		.cfi_def_cfa 8, 0
  59 0006 2326A4FE 		sw	a0,-20(s0)
  66:../Firmware/GD32VW55x_standard_peripheral/Source/gd32vw55x_qspi.c ****     /* set the QSPI struct with the default values */
  67:../Firmware/GD32VW55x_standard_peripheral/Source/gd32vw55x_qspi.c ****     init_para->clock_mode     = QSPI_CLOCK_MODE_0;
  60              		.loc 1 67 31
  61 000a 8327C4FE 		lw	a5,-20(s0)
  62 000e 23AA0700 		sw	zero,20(a5)
  68:../Firmware/GD32VW55x_standard_peripheral/Source/gd32vw55x_qspi.c ****     init_para->prescaler      = 3U;
  63              		.loc 1 68 31
  64 0012 8327C4FE 		lw	a5,-20(s0)
  65 0016 0D47     		li	a4,3
  66 0018 98C3     		sw	a4,0(a5)
  69:../Firmware/GD32VW55x_standard_peripheral/Source/gd32vw55x_qspi.c ****     init_para->fifo_threshold = 16U;
  67              		.loc 1 69 31
  68 001a 8327C4FE 		lw	a5,-20(s0)
  69 001e 4147     		li	a4,16
  70 0020 D8C3     		sw	a4,4(a5)
  70:../Firmware/GD32VW55x_standard_peripheral/Source/gd32vw55x_qspi.c ****     init_para->sample_shift   = QSPI_SAMPLE_SHIFTING_NONE;
  71              		.loc 1 70 31
  72 0022 8327C4FE 		lw	a5,-20(s0)
  73 0026 23A40700 		sw	zero,8(a5)
  71:../Firmware/GD32VW55x_standard_peripheral/Source/gd32vw55x_qspi.c ****     init_para->flash_size     = 0x1FU;
  74              		.loc 1 71 31
  75 002a 8327C4FE 		lw	a5,-20(s0)
  76 002e 7D47     		li	a4,31
  77 0030 D8C7     		sw	a4,12(a5)
  72:../Firmware/GD32VW55x_standard_peripheral/Source/gd32vw55x_qspi.c ****     init_para->cs_high_time   = QSPI_CS_HIGH_TIME_1_CYCLE;
  78              		.loc 1 72 31
  79 0032 8327C4FE 		lw	a5,-20(s0)
  80 0036 23A80700 		sw	zero,16(a5)
  73:../Firmware/GD32VW55x_standard_peripheral/Source/gd32vw55x_qspi.c **** }
  81              		.loc 1 73 1
  82 003a 0100     		nop
  83 003c 7244     		lw	s0,28(sp)
  84              		.cfi_restore 8
  85              		.cfi_def_cfa 2, 32
  86 003e 0561     		addi	sp,sp,32
  87              		.cfi_def_cfa_offset 0
  88 0040 8280     		jr	ra
  89              		.cfi_endproc
  90              	.LFE348:
  92              		.section	.text.qspi_cmd_struct_para_init,"ax",@progbits
  93              		.align	1
  94              		.globl	qspi_cmd_struct_para_init
  96              	qspi_cmd_struct_para_init:
  97              	.LFB349:
  74:../Firmware/GD32VW55x_standard_peripheral/Source/gd32vw55x_qspi.c **** 
  75:../Firmware/GD32VW55x_standard_peripheral/Source/gd32vw55x_qspi.c **** /*!
  76:../Firmware/GD32VW55x_standard_peripheral/Source/gd32vw55x_qspi.c ****     \brief      initialize the parameters of QSPI command structure with the default values
  77:../Firmware/GD32VW55x_standard_peripheral/Source/gd32vw55x_qspi.c ****     \param[in]  none
  78:../Firmware/GD32VW55x_standard_peripheral/Source/gd32vw55x_qspi.c ****     \param[out] init_para: QSPI command parameter structure
  79:../Firmware/GD32VW55x_standard_peripheral/Source/gd32vw55x_qspi.c ****     \retval     none
  80:../Firmware/GD32VW55x_standard_peripheral/Source/gd32vw55x_qspi.c **** */
  81:../Firmware/GD32VW55x_standard_peripheral/Source/gd32vw55x_qspi.c **** void qspi_cmd_struct_para_init(qspi_command_struct *init_para)
  82:../Firmware/GD32VW55x_standard_peripheral/Source/gd32vw55x_qspi.c **** {
  98              		.loc 1 82 1
  99              		.cfi_startproc
 100 0000 0111     		addi	sp,sp,-32
 101              		.cfi_def_cfa_offset 32
 102 0002 22CE     		sw	s0,28(sp)
 103              		.cfi_offset 8, -4
 104 0004 0010     		addi	s0,sp,32
 105              		.cfi_def_cfa 8, 0
 106 0006 2326A4FE 		sw	a0,-20(s0)
  83:../Firmware/GD32VW55x_standard_peripheral/Source/gd32vw55x_qspi.c ****     /* set the QSPI command struct with the default values */
  84:../Firmware/GD32VW55x_standard_peripheral/Source/gd32vw55x_qspi.c ****     init_para->instruction_mode = QSPI_INSTRUCTION_NONE;
 107              		.loc 1 84 33
 108 000a 8327C4FE 		lw	a5,-20(s0)
 109 000e 23A00700 		sw	zero,0(a5)
  85:../Firmware/GD32VW55x_standard_peripheral/Source/gd32vw55x_qspi.c ****     init_para->instruction      = 0U;
 110              		.loc 1 85 33
 111 0012 8327C4FE 		lw	a5,-20(s0)
 112 0016 23A20700 		sw	zero,4(a5)
  86:../Firmware/GD32VW55x_standard_peripheral/Source/gd32vw55x_qspi.c ****     init_para->addr_mode        = QSPI_ADDR_NONE;
 113              		.loc 1 86 33
 114 001a 8327C4FE 		lw	a5,-20(s0)
 115 001e 23A40700 		sw	zero,8(a5)
  87:../Firmware/GD32VW55x_standard_peripheral/Source/gd32vw55x_qspi.c ****     init_para->addr_size        = QSPI_ADDR_8_BITS;
 116              		.loc 1 87 33
 117 0022 8327C4FE 		lw	a5,-20(s0)
 118 0026 23A60700 		sw	zero,12(a5)
  88:../Firmware/GD32VW55x_standard_peripheral/Source/gd32vw55x_qspi.c ****     init_para->addr             = 0U;
 119              		.loc 1 88 33
 120 002a 8327C4FE 		lw	a5,-20(s0)
 121 002e 23A80700 		sw	zero,16(a5)
  89:../Firmware/GD32VW55x_standard_peripheral/Source/gd32vw55x_qspi.c ****     init_para->altebytes_mode   = QSPI_ALTE_BYTES_NONE;
 122              		.loc 1 89 33
 123 0032 8327C4FE 		lw	a5,-20(s0)
 124 0036 23AA0700 		sw	zero,20(a5)
  90:../Firmware/GD32VW55x_standard_peripheral/Source/gd32vw55x_qspi.c ****     init_para->altebytes_size   = QSPI_ALTE_BYTES_8_BITS;
 125              		.loc 1 90 33
 126 003a 8327C4FE 		lw	a5,-20(s0)
 127 003e 23AC0700 		sw	zero,24(a5)
  91:../Firmware/GD32VW55x_standard_peripheral/Source/gd32vw55x_qspi.c ****     init_para->altebytes        = 0U;
 128              		.loc 1 91 33
 129 0042 8327C4FE 		lw	a5,-20(s0)
 130 0046 23AE0700 		sw	zero,28(a5)
  92:../Firmware/GD32VW55x_standard_peripheral/Source/gd32vw55x_qspi.c ****     init_para->dummycycles      = 0U;
 131              		.loc 1 92 33
 132 004a 8327C4FE 		lw	a5,-20(s0)
 133 004e 23A00702 		sw	zero,32(a5)
  93:../Firmware/GD32VW55x_standard_peripheral/Source/gd32vw55x_qspi.c ****     init_para->data_mode        = QSPI_DATA_NONE;
 134              		.loc 1 93 33
 135 0052 8327C4FE 		lw	a5,-20(s0)
 136 0056 23A20702 		sw	zero,36(a5)
  94:../Firmware/GD32VW55x_standard_peripheral/Source/gd32vw55x_qspi.c ****     init_para->data_length      = 0U;
 137              		.loc 1 94 33
 138 005a 8327C4FE 		lw	a5,-20(s0)
 139 005e 23A40702 		sw	zero,40(a5)
  95:../Firmware/GD32VW55x_standard_peripheral/Source/gd32vw55x_qspi.c ****     init_para->sioo_mode        = QSPI_SIOO_INST_EVERY_CMD;
 140              		.loc 1 95 33
 141 0062 8327C4FE 		lw	a5,-20(s0)
 142 0066 23A60702 		sw	zero,44(a5)
  96:../Firmware/GD32VW55x_standard_peripheral/Source/gd32vw55x_qspi.c **** }
 143              		.loc 1 96 1
 144 006a 0100     		nop
 145 006c 7244     		lw	s0,28(sp)
 146              		.cfi_restore 8
 147              		.cfi_def_cfa 2, 32
 148 006e 0561     		addi	sp,sp,32
 149              		.cfi_def_cfa_offset 0
 150 0070 8280     		jr	ra
 151              		.cfi_endproc
 152              	.LFE349:
 154              		.section	.text.qspi_polling_struct_para_init,"ax",@progbits
 155              		.align	1
 156              		.globl	qspi_polling_struct_para_init
 158              	qspi_polling_struct_para_init:
 159              	.LFB350:
  97:../Firmware/GD32VW55x_standard_peripheral/Source/gd32vw55x_qspi.c **** 
  98:../Firmware/GD32VW55x_standard_peripheral/Source/gd32vw55x_qspi.c **** /*!
  99:../Firmware/GD32VW55x_standard_peripheral/Source/gd32vw55x_qspi.c ****     \brief      initialize the parameters of QSPI read polling structure with the default values
 100:../Firmware/GD32VW55x_standard_peripheral/Source/gd32vw55x_qspi.c ****     \param[in]  none
 101:../Firmware/GD32VW55x_standard_peripheral/Source/gd32vw55x_qspi.c ****     \param[out] init_para: QSPI read polling parameter structure
 102:../Firmware/GD32VW55x_standard_peripheral/Source/gd32vw55x_qspi.c ****     \retval     none
 103:../Firmware/GD32VW55x_standard_peripheral/Source/gd32vw55x_qspi.c **** */
 104:../Firmware/GD32VW55x_standard_peripheral/Source/gd32vw55x_qspi.c **** void qspi_polling_struct_para_init(qspi_polling_struct *init_para)
 105:../Firmware/GD32VW55x_standard_peripheral/Source/gd32vw55x_qspi.c **** {
 160              		.loc 1 105 1
 161              		.cfi_startproc
 162 0000 0111     		addi	sp,sp,-32
 163              		.cfi_def_cfa_offset 32
 164 0002 22CE     		sw	s0,28(sp)
 165              		.cfi_offset 8, -4
 166 0004 0010     		addi	s0,sp,32
 167              		.cfi_def_cfa 8, 0
 168 0006 2326A4FE 		sw	a0,-20(s0)
 106:../Firmware/GD32VW55x_standard_peripheral/Source/gd32vw55x_qspi.c ****     /* set the QSPI read polling struct with the default values */
 107:../Firmware/GD32VW55x_standard_peripheral/Source/gd32vw55x_qspi.c ****     init_para->match            = 0U;
 169              		.loc 1 107 33
 170 000a 8327C4FE 		lw	a5,-20(s0)
 171 000e 23A00700 		sw	zero,0(a5)
 108:../Firmware/GD32VW55x_standard_peripheral/Source/gd32vw55x_qspi.c ****     init_para->mask             = 0U;
 172              		.loc 1 108 33
 173 0012 8327C4FE 		lw	a5,-20(s0)
 174 0016 23A20700 		sw	zero,4(a5)
 109:../Firmware/GD32VW55x_standard_peripheral/Source/gd32vw55x_qspi.c ****     init_para->interval         = 0U;
 175              		.loc 1 109 33
 176 001a 8327C4FE 		lw	a5,-20(s0)
 177 001e 23A40700 		sw	zero,8(a5)
 110:../Firmware/GD32VW55x_standard_peripheral/Source/gd32vw55x_qspi.c ****     init_para->statusbytes_size = 1U;
 178              		.loc 1 110 33
 179 0022 8327C4FE 		lw	a5,-20(s0)
 180 0026 0547     		li	a4,1
 181 0028 D8C7     		sw	a4,12(a5)
 111:../Firmware/GD32VW55x_standard_peripheral/Source/gd32vw55x_qspi.c ****     init_para->match_mode       = QSPI_MATCH_MODE_AND;
 182              		.loc 1 111 33
 183 002a 8327C4FE 		lw	a5,-20(s0)
 184 002e 23A80700 		sw	zero,16(a5)
 112:../Firmware/GD32VW55x_standard_peripheral/Source/gd32vw55x_qspi.c ****     init_para->polling_stop     = QSPI_POLLING_STOP_DISABLE;
 185              		.loc 1 112 33
 186 0032 8327C4FE 		lw	a5,-20(s0)
 187 0036 23AA0700 		sw	zero,20(a5)
 113:../Firmware/GD32VW55x_standard_peripheral/Source/gd32vw55x_qspi.c **** }
 188              		.loc 1 113 1
 189 003a 0100     		nop
 190 003c 7244     		lw	s0,28(sp)
 191              		.cfi_restore 8
 192              		.cfi_def_cfa 2, 32
 193 003e 0561     		addi	sp,sp,32
 194              		.cfi_def_cfa_offset 0
 195 0040 8280     		jr	ra
 196              		.cfi_endproc
 197              	.LFE350:
 199              		.section	.text.qspi_init,"ax",@progbits
 200              		.align	1
 201              		.globl	qspi_init
 203              	qspi_init:
 204              	.LFB351:
 114:../Firmware/GD32VW55x_standard_peripheral/Source/gd32vw55x_qspi.c **** 
 115:../Firmware/GD32VW55x_standard_peripheral/Source/gd32vw55x_qspi.c **** /*!
 116:../Firmware/GD32VW55x_standard_peripheral/Source/gd32vw55x_qspi.c ****     \brief      initialize QSPI
 117:../Firmware/GD32VW55x_standard_peripheral/Source/gd32vw55x_qspi.c ****     \param[in]  qspi_struct: QSPI parameter initialization structure
 118:../Firmware/GD32VW55x_standard_peripheral/Source/gd32vw55x_qspi.c ****                             and the member values are shown as below:
 119:../Firmware/GD32VW55x_standard_peripheral/Source/gd32vw55x_qspi.c ****                   prescaler: between 0 and 255
 120:../Firmware/GD32VW55x_standard_peripheral/Source/gd32vw55x_qspi.c ****                   fifo_threshold: between 1 and 16
 121:../Firmware/GD32VW55x_standard_peripheral/Source/gd32vw55x_qspi.c ****                   sample_shift: QSPI_SAMPLE_SHIFTING_NONE, QSPI_SAMPLE_SHIFTING_HALFCYCLE, QSPI_SAM
 122:../Firmware/GD32VW55x_standard_peripheral/Source/gd32vw55x_qspi.c ****                   flash_size: between 0 and 28
 123:../Firmware/GD32VW55x_standard_peripheral/Source/gd32vw55x_qspi.c ****                   cs_high_time: QSPI_CS_HIGH_TIME_1_CYCLE, QSPI_CS_HIGH_TIME_2_CYCLE, QSPI_CS_HIGH_
 124:../Firmware/GD32VW55x_standard_peripheral/Source/gd32vw55x_qspi.c ****                                 QSPI_CS_HIGH_TIME_4_CYCLE, QSPI_CS_HIGH_TIME_5_CYCLE, QSPI_CS_HIGH_
 125:../Firmware/GD32VW55x_standard_peripheral/Source/gd32vw55x_qspi.c ****                                 QSPI_CS_HIGH_TIME_7_CYCLE, QSPI_CS_HIGH_TIME_8_CYCLE
 126:../Firmware/GD32VW55x_standard_peripheral/Source/gd32vw55x_qspi.c ****                   clock_mode: QSPI_CLOCK_MODE_0, QSPI_CLOCK_MODE_3
 127:../Firmware/GD32VW55x_standard_peripheral/Source/gd32vw55x_qspi.c ****     \param[out] none
 128:../Firmware/GD32VW55x_standard_peripheral/Source/gd32vw55x_qspi.c ****     \retval     none
 129:../Firmware/GD32VW55x_standard_peripheral/Source/gd32vw55x_qspi.c **** */
 130:../Firmware/GD32VW55x_standard_peripheral/Source/gd32vw55x_qspi.c **** void qspi_init(qspi_init_struct *qspi_struct)
 131:../Firmware/GD32VW55x_standard_peripheral/Source/gd32vw55x_qspi.c **** {
 205              		.loc 1 131 1
 206              		.cfi_startproc
 207 0000 0111     		addi	sp,sp,-32
 208              		.cfi_def_cfa_offset 32
 209 0002 22CE     		sw	s0,28(sp)
 210              		.cfi_offset 8, -4
 211 0004 0010     		addi	s0,sp,32
 212              		.cfi_def_cfa 8, 0
 213 0006 2326A4FE 		sw	a0,-20(s0)
 132:../Firmware/GD32VW55x_standard_peripheral/Source/gd32vw55x_qspi.c ****     /* configure prescaler, sample_shift, fifo_threshold */
 133:../Firmware/GD32VW55x_standard_peripheral/Source/gd32vw55x_qspi.c ****     QSPI_CTL &= ~(QSPI_CTL_PSC | QSPI_CTL_SSAMPLE | QSPI_CTL_FTL);
 214              		.loc 1 133 14
 215 000a B7670240 		li	a5,1073897472
 216 000e 93870780 		addi	a5,a5,-2048
 217 0012 9443     		lw	a3,0(a5)
 218 0014 B7670240 		li	a5,1073897472
 219 0018 93870780 		addi	a5,a5,-2048
 220 001c 37F7FF00 		li	a4,16773120
 221 0020 1307F70C 		addi	a4,a4,207
 222 0024 758F     		and	a4,a3,a4
 223 0026 98C3     		sw	a4,0(a5)
 134:../Firmware/GD32VW55x_standard_peripheral/Source/gd32vw55x_qspi.c ****     QSPI_CTL |= (qspi_struct->prescaler << CTL_PSC_OFFSET) | qspi_struct->sample_shift | ((qspi_str
 224              		.loc 1 134 14
 225 0028 B7670240 		li	a5,1073897472
 226 002c 93870780 		addi	a5,a5,-2048
 227 0030 9443     		lw	a3,0(a5)
 228              		.loc 1 134 29
 229 0032 8327C4FE 		lw	a5,-20(s0)
 230 0036 9C43     		lw	a5,0(a5)
 231              		.loc 1 134 41
 232 0038 13978701 		slli	a4,a5,24
 233              		.loc 1 134 73
 234 003c 8327C4FE 		lw	a5,-20(s0)
 235 0040 9C47     		lw	a5,8(a5)
 236              		.loc 1 134 60
 237 0042 5D8F     		or	a4,a4,a5
 238              		.loc 1 134 103
 239 0044 8327C4FE 		lw	a5,-20(s0)
 240 0048 DC43     		lw	a5,4(a5)
 241              		.loc 1 134 120
 242 004a FD17     		addi	a5,a5,-1
 243              		.loc 1 134 126
 244 004c A207     		slli	a5,a5,8
 245              		.loc 1 134 88
 246 004e 5D8F     		or	a4,a4,a5
 247              		.loc 1 134 14
 248 0050 B7670240 		li	a5,1073897472
 249 0054 93870780 		addi	a5,a5,-2048
 250 0058 558F     		or	a4,a3,a4
 251 005a 98C3     		sw	a4,0(a5)
 135:../Firmware/GD32VW55x_standard_peripheral/Source/gd32vw55x_qspi.c **** 
 136:../Firmware/GD32VW55x_standard_peripheral/Source/gd32vw55x_qspi.c ****     /* configure flash_size, cs_high_time, clock_mode */
 137:../Firmware/GD32VW55x_standard_peripheral/Source/gd32vw55x_qspi.c ****     QSPI_DCFG &= ~((QSPI_DCFG_FMSZ) | QSPI_CS_HIGH_TIME_8_CYCLE | QSPI_DCFG_CKMOD);
 252              		.loc 1 137 15
 253 005c B7670240 		li	a5,1073897472
 254 0060 93874780 		addi	a5,a5,-2044
 255 0064 9443     		lw	a3,0(a5)
 256 0066 B7670240 		li	a5,1073897472
 257 006a 93874780 		addi	a5,a5,-2044
 258 006e 3707E1FF 		li	a4,-2031616
 259 0072 1307E78F 		addi	a4,a4,-1794
 260 0076 758F     		and	a4,a3,a4
 261 0078 98C3     		sw	a4,0(a5)
 138:../Firmware/GD32VW55x_standard_peripheral/Source/gd32vw55x_qspi.c ****     QSPI_DCFG |= ((qspi_struct->flash_size << DCFG_FMSZ_OFFSET) | qspi_struct->cs_high_time | qspi_
 262              		.loc 1 138 15
 263 007a B7670240 		li	a5,1073897472
 264 007e 93874780 		addi	a5,a5,-2044
 265 0082 9443     		lw	a3,0(a5)
 266              		.loc 1 138 31
 267 0084 8327C4FE 		lw	a5,-20(s0)
 268 0088 DC47     		lw	a5,12(a5)
 269              		.loc 1 138 44
 270 008a 13970701 		slli	a4,a5,16
 271              		.loc 1 138 78
 272 008e 8327C4FE 		lw	a5,-20(s0)
 273 0092 9C4B     		lw	a5,16(a5)
 274              		.loc 1 138 65
 275 0094 5D8F     		or	a4,a4,a5
 276              		.loc 1 138 106
 277 0096 8327C4FE 		lw	a5,-20(s0)
 278 009a DC4B     		lw	a5,20(a5)
 279              		.loc 1 138 93
 280 009c 5D8F     		or	a4,a4,a5
 281              		.loc 1 138 15
 282 009e B7670240 		li	a5,1073897472
 283 00a2 93874780 		addi	a5,a5,-2044
 284 00a6 558F     		or	a4,a3,a4
 285 00a8 98C3     		sw	a4,0(a5)
 139:../Firmware/GD32VW55x_standard_peripheral/Source/gd32vw55x_qspi.c **** }
 286              		.loc 1 139 1
 287 00aa 0100     		nop
 288 00ac 7244     		lw	s0,28(sp)
 289              		.cfi_restore 8
 290              		.cfi_def_cfa 2, 32
 291 00ae 0561     		addi	sp,sp,32
 292              		.cfi_def_cfa_offset 0
 293 00b0 8280     		jr	ra
 294              		.cfi_endproc
 295              	.LFE351:
 297              		.section	.text.qspi_enable,"ax",@progbits
 298              		.align	1
 299              		.globl	qspi_enable
 301              	qspi_enable:
 302              	.LFB352:
 140:../Firmware/GD32VW55x_standard_peripheral/Source/gd32vw55x_qspi.c **** 
 141:../Firmware/GD32VW55x_standard_peripheral/Source/gd32vw55x_qspi.c **** /*!
 142:../Firmware/GD32VW55x_standard_peripheral/Source/gd32vw55x_qspi.c ****     \brief      enable QSPI
 143:../Firmware/GD32VW55x_standard_peripheral/Source/gd32vw55x_qspi.c ****     \param[in]  none
 144:../Firmware/GD32VW55x_standard_peripheral/Source/gd32vw55x_qspi.c ****     \param[out] none
 145:../Firmware/GD32VW55x_standard_peripheral/Source/gd32vw55x_qspi.c ****     \retval     none
 146:../Firmware/GD32VW55x_standard_peripheral/Source/gd32vw55x_qspi.c **** */
 147:../Firmware/GD32VW55x_standard_peripheral/Source/gd32vw55x_qspi.c **** void qspi_enable(void)
 148:../Firmware/GD32VW55x_standard_peripheral/Source/gd32vw55x_qspi.c **** {
 303              		.loc 1 148 1
 304              		.cfi_startproc
 305 0000 4111     		addi	sp,sp,-16
 306              		.cfi_def_cfa_offset 16
 307 0002 22C6     		sw	s0,12(sp)
 308              		.cfi_offset 8, -4
 309 0004 0008     		addi	s0,sp,16
 310              		.cfi_def_cfa 8, 0
 149:../Firmware/GD32VW55x_standard_peripheral/Source/gd32vw55x_qspi.c ****     QSPI_CTL |= (uint32_t)QSPI_CTL_QSPIEN;
 311              		.loc 1 149 14
 312 0006 B7670240 		li	a5,1073897472
 313 000a 93870780 		addi	a5,a5,-2048
 314 000e 9843     		lw	a4,0(a5)
 315 0010 B7670240 		li	a5,1073897472
 316 0014 93870780 		addi	a5,a5,-2048
 317 0018 13671700 		ori	a4,a4,1
 318 001c 98C3     		sw	a4,0(a5)
 150:../Firmware/GD32VW55x_standard_peripheral/Source/gd32vw55x_qspi.c **** }
 319              		.loc 1 150 1
 320 001e 0100     		nop
 321 0020 3244     		lw	s0,12(sp)
 322              		.cfi_restore 8
 323              		.cfi_def_cfa 2, 16
 324 0022 4101     		addi	sp,sp,16
 325              		.cfi_def_cfa_offset 0
 326 0024 8280     		jr	ra
 327              		.cfi_endproc
 328              	.LFE352:
 330              		.section	.text.qspi_disable,"ax",@progbits
 331              		.align	1
 332              		.globl	qspi_disable
 334              	qspi_disable:
 335              	.LFB353:
 151:../Firmware/GD32VW55x_standard_peripheral/Source/gd32vw55x_qspi.c **** 
 152:../Firmware/GD32VW55x_standard_peripheral/Source/gd32vw55x_qspi.c **** /*!
 153:../Firmware/GD32VW55x_standard_peripheral/Source/gd32vw55x_qspi.c ****     \brief      disable QSPI
 154:../Firmware/GD32VW55x_standard_peripheral/Source/gd32vw55x_qspi.c ****     \param[in]  none
 155:../Firmware/GD32VW55x_standard_peripheral/Source/gd32vw55x_qspi.c ****     \param[out] none
 156:../Firmware/GD32VW55x_standard_peripheral/Source/gd32vw55x_qspi.c ****     \retval     none
 157:../Firmware/GD32VW55x_standard_peripheral/Source/gd32vw55x_qspi.c **** */
 158:../Firmware/GD32VW55x_standard_peripheral/Source/gd32vw55x_qspi.c **** void qspi_disable(void)
 159:../Firmware/GD32VW55x_standard_peripheral/Source/gd32vw55x_qspi.c **** {
 336              		.loc 1 159 1
 337              		.cfi_startproc
 338 0000 4111     		addi	sp,sp,-16
 339              		.cfi_def_cfa_offset 16
 340 0002 22C6     		sw	s0,12(sp)
 341              		.cfi_offset 8, -4
 342 0004 0008     		addi	s0,sp,16
 343              		.cfi_def_cfa 8, 0
 160:../Firmware/GD32VW55x_standard_peripheral/Source/gd32vw55x_qspi.c ****     QSPI_CTL &= (uint32_t)(~QSPI_CTL_QSPIEN);
 344              		.loc 1 160 14
 345 0006 B7670240 		li	a5,1073897472
 346 000a 93870780 		addi	a5,a5,-2048
 347 000e 9843     		lw	a4,0(a5)
 348 0010 B7670240 		li	a5,1073897472
 349 0014 93870780 		addi	a5,a5,-2048
 350 0018 799B     		andi	a4,a4,-2
 351 001a 98C3     		sw	a4,0(a5)
 161:../Firmware/GD32VW55x_standard_peripheral/Source/gd32vw55x_qspi.c **** }
 352              		.loc 1 161 1
 353 001c 0100     		nop
 354 001e 3244     		lw	s0,12(sp)
 355              		.cfi_restore 8
 356              		.cfi_def_cfa 2, 16
 357 0020 4101     		addi	sp,sp,16
 358              		.cfi_def_cfa_offset 0
 359 0022 8280     		jr	ra
 360              		.cfi_endproc
 361              	.LFE353:
 363              		.section	.text.qspi_dma_enable,"ax",@progbits
 364              		.align	1
 365              		.globl	qspi_dma_enable
 367              	qspi_dma_enable:
 368              	.LFB354:
 162:../Firmware/GD32VW55x_standard_peripheral/Source/gd32vw55x_qspi.c **** 
 163:../Firmware/GD32VW55x_standard_peripheral/Source/gd32vw55x_qspi.c **** /*!
 164:../Firmware/GD32VW55x_standard_peripheral/Source/gd32vw55x_qspi.c ****     \brief      enable QSPI DMA
 165:../Firmware/GD32VW55x_standard_peripheral/Source/gd32vw55x_qspi.c ****     \param[in]  none
 166:../Firmware/GD32VW55x_standard_peripheral/Source/gd32vw55x_qspi.c ****     \param[out] none
 167:../Firmware/GD32VW55x_standard_peripheral/Source/gd32vw55x_qspi.c ****     \retval     none
 168:../Firmware/GD32VW55x_standard_peripheral/Source/gd32vw55x_qspi.c **** */
 169:../Firmware/GD32VW55x_standard_peripheral/Source/gd32vw55x_qspi.c **** void qspi_dma_enable(void)
 170:../Firmware/GD32VW55x_standard_peripheral/Source/gd32vw55x_qspi.c **** {
 369              		.loc 1 170 1
 370              		.cfi_startproc
 371 0000 4111     		addi	sp,sp,-16
 372              		.cfi_def_cfa_offset 16
 373 0002 22C6     		sw	s0,12(sp)
 374              		.cfi_offset 8, -4
 375 0004 0008     		addi	s0,sp,16
 376              		.cfi_def_cfa 8, 0
 171:../Firmware/GD32VW55x_standard_peripheral/Source/gd32vw55x_qspi.c ****     QSPI_CTL |= (uint32_t)(QSPI_CTL_DMAEN);
 377              		.loc 1 171 14
 378 0006 B7670240 		li	a5,1073897472
 379 000a 93870780 		addi	a5,a5,-2048
 380 000e 9843     		lw	a4,0(a5)
 381 0010 B7670240 		li	a5,1073897472
 382 0014 93870780 		addi	a5,a5,-2048
 383 0018 13674700 		ori	a4,a4,4
 384 001c 98C3     		sw	a4,0(a5)
 172:../Firmware/GD32VW55x_standard_peripheral/Source/gd32vw55x_qspi.c **** }
 385              		.loc 1 172 1
 386 001e 0100     		nop
 387 0020 3244     		lw	s0,12(sp)
 388              		.cfi_restore 8
 389              		.cfi_def_cfa 2, 16
 390 0022 4101     		addi	sp,sp,16
 391              		.cfi_def_cfa_offset 0
 392 0024 8280     		jr	ra
 393              		.cfi_endproc
 394              	.LFE354:
 396              		.section	.text.qspi_dma_disable,"ax",@progbits
 397              		.align	1
 398              		.globl	qspi_dma_disable
 400              	qspi_dma_disable:
 401              	.LFB355:
 173:../Firmware/GD32VW55x_standard_peripheral/Source/gd32vw55x_qspi.c **** 
 174:../Firmware/GD32VW55x_standard_peripheral/Source/gd32vw55x_qspi.c **** /*!
 175:../Firmware/GD32VW55x_standard_peripheral/Source/gd32vw55x_qspi.c ****     \brief      disable QSPI DMA
 176:../Firmware/GD32VW55x_standard_peripheral/Source/gd32vw55x_qspi.c ****     \param[in]  none
 177:../Firmware/GD32VW55x_standard_peripheral/Source/gd32vw55x_qspi.c ****     \param[out] none
 178:../Firmware/GD32VW55x_standard_peripheral/Source/gd32vw55x_qspi.c ****     \retval     none
 179:../Firmware/GD32VW55x_standard_peripheral/Source/gd32vw55x_qspi.c **** */
 180:../Firmware/GD32VW55x_standard_peripheral/Source/gd32vw55x_qspi.c **** void qspi_dma_disable(void)
 181:../Firmware/GD32VW55x_standard_peripheral/Source/gd32vw55x_qspi.c **** {
 402              		.loc 1 181 1
 403              		.cfi_startproc
 404 0000 4111     		addi	sp,sp,-16
 405              		.cfi_def_cfa_offset 16
 406 0002 22C6     		sw	s0,12(sp)
 407              		.cfi_offset 8, -4
 408 0004 0008     		addi	s0,sp,16
 409              		.cfi_def_cfa 8, 0
 182:../Firmware/GD32VW55x_standard_peripheral/Source/gd32vw55x_qspi.c ****     QSPI_CTL &= (uint32_t)(~QSPI_CTL_DMAEN);
 410              		.loc 1 182 14
 411 0006 B7670240 		li	a5,1073897472
 412 000a 93870780 		addi	a5,a5,-2048
 413 000e 9843     		lw	a4,0(a5)
 414 0010 B7670240 		li	a5,1073897472
 415 0014 93870780 		addi	a5,a5,-2048
 416 0018 6D9B     		andi	a4,a4,-5
 417 001a 98C3     		sw	a4,0(a5)
 183:../Firmware/GD32VW55x_standard_peripheral/Source/gd32vw55x_qspi.c **** }
 418              		.loc 1 183 1
 419 001c 0100     		nop
 420 001e 3244     		lw	s0,12(sp)
 421              		.cfi_restore 8
 422              		.cfi_def_cfa 2, 16
 423 0020 4101     		addi	sp,sp,16
 424              		.cfi_def_cfa_offset 0
 425 0022 8280     		jr	ra
 426              		.cfi_endproc
 427              	.LFE355:
 429              		.section	.text.qspi_command_config,"ax",@progbits
 430              		.align	1
 431              		.globl	qspi_command_config
 433              	qspi_command_config:
 434              	.LFB356:
 184:../Firmware/GD32VW55x_standard_peripheral/Source/gd32vw55x_qspi.c **** 
 185:../Firmware/GD32VW55x_standard_peripheral/Source/gd32vw55x_qspi.c **** /*!
 186:../Firmware/GD32VW55x_standard_peripheral/Source/gd32vw55x_qspi.c ****     \brief      configure QSPI command parameters
 187:../Firmware/GD32VW55x_standard_peripheral/Source/gd32vw55x_qspi.c ****     \param[in]  cmd: QSPI command parameter structure
 188:../Firmware/GD32VW55x_standard_peripheral/Source/gd32vw55x_qspi.c ****                              and the member values are shown as below:
 189:../Firmware/GD32VW55x_standard_peripheral/Source/gd32vw55x_qspi.c ****                   instruction_mode: QSPI_INSTRUCTION_NONE, QSPI_INSTRUCTION_1_LINE,
 190:../Firmware/GD32VW55x_standard_peripheral/Source/gd32vw55x_qspi.c ****                                     QSPI_INSTRUCTION_2_LINES, QSPI_INSTRUCTION_4_LINES
 191:../Firmware/GD32VW55x_standard_peripheral/Source/gd32vw55x_qspi.c ****                   instruction: reference flash commands description
 192:../Firmware/GD32VW55x_standard_peripheral/Source/gd32vw55x_qspi.c ****                   addr_mode: QSPI_ADDR_NONE, QSPI_ADDR_1_LINE, QSPI_ADDR_2_LINES, QSPI_ADDR_4_LINES
 193:../Firmware/GD32VW55x_standard_peripheral/Source/gd32vw55x_qspi.c ****                   addr_size: QSPI_ADDR_8_BITS, QSPI_ADDR_16_BITS, QSPI_ADDR_24_BITS, QSPI_ADDR_32_B
 194:../Firmware/GD32VW55x_standard_peripheral/Source/gd32vw55x_qspi.c ****                   addr: 0-flash size
 195:../Firmware/GD32VW55x_standard_peripheral/Source/gd32vw55x_qspi.c ****                   altebytes_mode: QSPI_ALTE_BYTES_NONE, QSPI_ALTE_BYTES_1_LINE,
 196:../Firmware/GD32VW55x_standard_peripheral/Source/gd32vw55x_qspi.c ****                                   QSPI_ALTE_BYTES_2_LINES, QSPI_ALTE_BYTES_4_LINES
 197:../Firmware/GD32VW55x_standard_peripheral/Source/gd32vw55x_qspi.c ****                   altebytes_size: QSPI_ALTE_BYTES_8_BITS, QSPI_ALTE_BYTES_16_BITS,
 198:../Firmware/GD32VW55x_standard_peripheral/Source/gd32vw55x_qspi.c ****                                   QSPI_ALTE_BYTES_24_BITS, QSPI_ALTE_BYTES_32_BITS
 199:../Firmware/GD32VW55x_standard_peripheral/Source/gd32vw55x_qspi.c ****                   altebytes: 0-0xFFFFFFFF
 200:../Firmware/GD32VW55x_standard_peripheral/Source/gd32vw55x_qspi.c ****                   dummycycles: between 0 and 31
 201:../Firmware/GD32VW55x_standard_peripheral/Source/gd32vw55x_qspi.c ****                   data_mode: QSPI_DATA_NONE, QSPI_DATA_1_LINE, QSPI_DATA_2_LINES, QSPI_DATA_4_LINES
 202:../Firmware/GD32VW55x_standard_peripheral/Source/gd32vw55x_qspi.c ****                   data_length: 0-0xFFFFFFFF
 203:../Firmware/GD32VW55x_standard_peripheral/Source/gd32vw55x_qspi.c ****                   sioo_mode: QSPI_SIOO_INST_EVERY_CMD, QSPI_SIOO_INST_ONLY_FIRST_CMD
 204:../Firmware/GD32VW55x_standard_peripheral/Source/gd32vw55x_qspi.c ****     \param[out] none
 205:../Firmware/GD32VW55x_standard_peripheral/Source/gd32vw55x_qspi.c ****     \retval     none
 206:../Firmware/GD32VW55x_standard_peripheral/Source/gd32vw55x_qspi.c **** */
 207:../Firmware/GD32VW55x_standard_peripheral/Source/gd32vw55x_qspi.c **** void qspi_command_config(qspi_command_struct *cmd)
 208:../Firmware/GD32VW55x_standard_peripheral/Source/gd32vw55x_qspi.c **** {
 435              		.loc 1 208 1
 436              		.cfi_startproc
 437 0000 0111     		addi	sp,sp,-32
 438              		.cfi_def_cfa_offset 32
 439 0002 06CE     		sw	ra,28(sp)
 440 0004 22CC     		sw	s0,24(sp)
 441              		.cfi_offset 1, -4
 442              		.cfi_offset 8, -8
 443 0006 0010     		addi	s0,sp,32
 444              		.cfi_def_cfa 8, 0
 445 0008 2326A4FE 		sw	a0,-20(s0)
 209:../Firmware/GD32VW55x_standard_peripheral/Source/gd32vw55x_qspi.c ****     /* call the configuration function */
 210:../Firmware/GD32VW55x_standard_peripheral/Source/gd32vw55x_qspi.c ****     qspi_config(cmd, QSPI_NORMAL_WRITE);
 446              		.loc 1 210 5
 447 000c 8145     		li	a1,0
 448 000e 0325C4FE 		lw	a0,-20(s0)
 449 0012 97000000 		call	qspi_config
 449      E7800000 
 211:../Firmware/GD32VW55x_standard_peripheral/Source/gd32vw55x_qspi.c **** 
 212:../Firmware/GD32VW55x_standard_peripheral/Source/gd32vw55x_qspi.c ****     if(cmd->data_mode == QSPI_DATA_NONE) {
 450              		.loc 1 212 11
 451 001a 8327C4FE 		lw	a5,-20(s0)
 452 001e DC53     		lw	a5,36(a5)
 453              		.loc 1 212 7
 454 0020 99EF     		bne	a5,zero,.L13
 213:../Firmware/GD32VW55x_standard_peripheral/Source/gd32vw55x_qspi.c ****         /* when there is no data phase, the transfer start as soon as the configuration is done
 214:../Firmware/GD32VW55x_standard_peripheral/Source/gd32vw55x_qspi.c ****         so wait until TC flag is set to go back in idle state */
 215:../Firmware/GD32VW55x_standard_peripheral/Source/gd32vw55x_qspi.c ****         while((QSPI_STAT & QSPI_FLAG_TC) == 0U) {
 455              		.loc 1 215 14
 456 0022 0100     		nop
 457              	.L12:
 458              		.loc 1 215 16 discriminator 1
 459 0024 B7670240 		li	a5,1073897472
 460 0028 93878780 		addi	a5,a5,-2040
 461 002c 9C43     		lw	a5,0(a5)
 462              		.loc 1 215 26 discriminator 1
 463 002e 898B     		andi	a5,a5,2
 464              		.loc 1 215 14 discriminator 1
 465 0030 F5DB     		beq	a5,zero,.L12
 216:../Firmware/GD32VW55x_standard_peripheral/Source/gd32vw55x_qspi.c ****         }
 217:../Firmware/GD32VW55x_standard_peripheral/Source/gd32vw55x_qspi.c ****         QSPI_STATC = QSPI_STATC_TCC;
 466              		.loc 1 217 9
 467 0032 B7670240 		li	a5,1073897472
 468 0036 9387C780 		addi	a5,a5,-2036
 469              		.loc 1 217 20
 470 003a 0947     		li	a4,2
 471 003c 98C3     		sw	a4,0(a5)
 472              	.L13:
 218:../Firmware/GD32VW55x_standard_peripheral/Source/gd32vw55x_qspi.c ****     }
 219:../Firmware/GD32VW55x_standard_peripheral/Source/gd32vw55x_qspi.c **** }
 473              		.loc 1 219 1
 474 003e 0100     		nop
 475 0040 F240     		lw	ra,28(sp)
 476              		.cfi_restore 1
 477 0042 6244     		lw	s0,24(sp)
 478              		.cfi_restore 8
 479              		.cfi_def_cfa 2, 32
 480 0044 0561     		addi	sp,sp,32
 481              		.cfi_def_cfa_offset 0
 482 0046 8280     		jr	ra
 483              		.cfi_endproc
 484              	.LFE356:
 486              		.section	.text.qspi_polling_config,"ax",@progbits
 487              		.align	1
 488              		.globl	qspi_polling_config
 490              	qspi_polling_config:
 491              	.LFB357:
 220:../Firmware/GD32VW55x_standard_peripheral/Source/gd32vw55x_qspi.c **** 
 221:../Firmware/GD32VW55x_standard_peripheral/Source/gd32vw55x_qspi.c **** /*!
 222:../Firmware/GD32VW55x_standard_peripheral/Source/gd32vw55x_qspi.c ****     \brief      configure QSPI read polling mode
 223:../Firmware/GD32VW55x_standard_peripheral/Source/gd32vw55x_qspi.c ****     \param[in]  cmd: QSPI command parameter structure
 224:../Firmware/GD32VW55x_standard_peripheral/Source/gd32vw55x_qspi.c ****                              and the member values are shown as below:
 225:../Firmware/GD32VW55x_standard_peripheral/Source/gd32vw55x_qspi.c ****                   instruction_mode: QSPI_INSTRUCTION_NONE, QSPI_INSTRUCTION_1_LINE,
 226:../Firmware/GD32VW55x_standard_peripheral/Source/gd32vw55x_qspi.c ****                                     QSPI_INSTRUCTION_2_LINES, QSPI_INSTRUCTION_4_LINES
 227:../Firmware/GD32VW55x_standard_peripheral/Source/gd32vw55x_qspi.c ****                   instruction: reference flash commands description
 228:../Firmware/GD32VW55x_standard_peripheral/Source/gd32vw55x_qspi.c ****                   addr_mode: QSPI_ADDR_NONE, QSPI_ADDR_1_LINE, QSPI_ADDR_2_LINES, QSPI_ADDR_4_LINES
 229:../Firmware/GD32VW55x_standard_peripheral/Source/gd32vw55x_qspi.c ****                   addr_size: QSPI_ADDR_8_BITS, QSPI_ADDR_16_BITS, QSPI_ADDR_24_BITS, QSPI_ADDR_32_B
 230:../Firmware/GD32VW55x_standard_peripheral/Source/gd32vw55x_qspi.c ****                   addr: 0-flash size
 231:../Firmware/GD32VW55x_standard_peripheral/Source/gd32vw55x_qspi.c ****                   altebytes_mode: QSPI_ALTE_BYTES_NONE, QSPI_ALTE_BYTES_1_LINE,
 232:../Firmware/GD32VW55x_standard_peripheral/Source/gd32vw55x_qspi.c ****                                   QSPI_ALTE_BYTES_2_LINES, QSPI_ALTE_BYTES_4_LINES
 233:../Firmware/GD32VW55x_standard_peripheral/Source/gd32vw55x_qspi.c ****                   altebytes_size: QSPI_ALTE_BYTES_8_BITS, QSPI_ALTE_BYTES_16_BITS,
 234:../Firmware/GD32VW55x_standard_peripheral/Source/gd32vw55x_qspi.c ****                                   QSPI_ALTE_BYTES_24_BITS, QSPI_ALTE_BYTES_32_BITS
 235:../Firmware/GD32VW55x_standard_peripheral/Source/gd32vw55x_qspi.c ****                   altebytes: 0-0xFFFFFFFF
 236:../Firmware/GD32VW55x_standard_peripheral/Source/gd32vw55x_qspi.c ****                   dummycycles: between 0 and 31
 237:../Firmware/GD32VW55x_standard_peripheral/Source/gd32vw55x_qspi.c ****                   data_mode: QSPI_DATA_NONE, QSPI_DATA_1_LINE, QSPI_DATA_2_LINES, QSPI_DATA_4_LINES
 238:../Firmware/GD32VW55x_standard_peripheral/Source/gd32vw55x_qspi.c ****                   data_length: 0-0xFFFFFFFF
 239:../Firmware/GD32VW55x_standard_peripheral/Source/gd32vw55x_qspi.c ****                   sioo_mode: QSPI_SIOO_INST_EVERY_CMD, QSPI_SIOO_INST_ONLY_FIRST_CMD
 240:../Firmware/GD32VW55x_standard_peripheral/Source/gd32vw55x_qspi.c ****     \param[in]  cfg: QSPI read polling parameter structure
 241:../Firmware/GD32VW55x_standard_peripheral/Source/gd32vw55x_qspi.c ****                              and the member values are shown as below:
 242:../Firmware/GD32VW55x_standard_peripheral/Source/gd32vw55x_qspi.c ****                   match: between 0 and 0xFFFFFFFF
 243:../Firmware/GD32VW55x_standard_peripheral/Source/gd32vw55x_qspi.c ****                   mask: between 0 and 0xFFFFFFFF
 244:../Firmware/GD32VW55x_standard_peripheral/Source/gd32vw55x_qspi.c ****                   interval: between 0 and 0xFFFF
 245:../Firmware/GD32VW55x_standard_peripheral/Source/gd32vw55x_qspi.c ****                   statusbytes_size: between 1 and 4
 246:../Firmware/GD32VW55x_standard_peripheral/Source/gd32vw55x_qspi.c ****                   match_mode: QSPI_MATCH_MODE_AND, QSPI_MATCH_MODE_OR
 247:../Firmware/GD32VW55x_standard_peripheral/Source/gd32vw55x_qspi.c ****                   polling_stop: QSPI_POLLING_STOP_DISABLE,QSPI_POLLING_STOP_ENABLE
 248:../Firmware/GD32VW55x_standard_peripheral/Source/gd32vw55x_qspi.c ****     \param[out] none
 249:../Firmware/GD32VW55x_standard_peripheral/Source/gd32vw55x_qspi.c ****     \retval     none
 250:../Firmware/GD32VW55x_standard_peripheral/Source/gd32vw55x_qspi.c **** */
 251:../Firmware/GD32VW55x_standard_peripheral/Source/gd32vw55x_qspi.c **** void qspi_polling_config(qspi_command_struct *cmd, qspi_polling_struct *cfg)
 252:../Firmware/GD32VW55x_standard_peripheral/Source/gd32vw55x_qspi.c **** {
 492              		.loc 1 252 1
 493              		.cfi_startproc
 494 0000 0111     		addi	sp,sp,-32
 495              		.cfi_def_cfa_offset 32
 496 0002 06CE     		sw	ra,28(sp)
 497 0004 22CC     		sw	s0,24(sp)
 498              		.cfi_offset 1, -4
 499              		.cfi_offset 8, -8
 500 0006 0010     		addi	s0,sp,32
 501              		.cfi_def_cfa 8, 0
 502 0008 2326A4FE 		sw	a0,-20(s0)
 503 000c 2324B4FE 		sw	a1,-24(s0)
 253:../Firmware/GD32VW55x_standard_peripheral/Source/gd32vw55x_qspi.c ****     /* configure the match value */
 254:../Firmware/GD32VW55x_standard_peripheral/Source/gd32vw55x_qspi.c ****     QSPI_STATMATCH = cfg->match;
 504              		.loc 1 254 5
 505 0010 B7670240 		li	a5,1073897472
 506 0014 93878782 		addi	a5,a5,-2008
 507              		.loc 1 254 25
 508 0018 032784FE 		lw	a4,-24(s0)
 509 001c 1843     		lw	a4,0(a4)
 510              		.loc 1 254 20
 511 001e 98C3     		sw	a4,0(a5)
 255:../Firmware/GD32VW55x_standard_peripheral/Source/gd32vw55x_qspi.c ****     /* configure the mask value */
 256:../Firmware/GD32VW55x_standard_peripheral/Source/gd32vw55x_qspi.c ****     QSPI_STATMK = cfg->mask;
 512              		.loc 1 256 5
 513 0020 B7670240 		li	a5,1073897472
 514 0024 93874782 		addi	a5,a5,-2012
 515              		.loc 1 256 22
 516 0028 032784FE 		lw	a4,-24(s0)
 517 002c 5843     		lw	a4,4(a4)
 518              		.loc 1 256 17
 519 002e 98C3     		sw	a4,0(a5)
 257:../Firmware/GD32VW55x_standard_peripheral/Source/gd32vw55x_qspi.c ****     /* configure the interval cycle */
 258:../Firmware/GD32VW55x_standard_peripheral/Source/gd32vw55x_qspi.c ****     QSPI_INTERVAL = cfg->interval;
 520              		.loc 1 258 5
 521 0030 B7670240 		li	a5,1073897472
 522 0034 9387C782 		addi	a5,a5,-2004
 523              		.loc 1 258 24
 524 0038 032784FE 		lw	a4,-24(s0)
 525 003c 1847     		lw	a4,8(a4)
 526              		.loc 1 258 19
 527 003e 98C3     		sw	a4,0(a5)
 259:../Firmware/GD32VW55x_standard_peripheral/Source/gd32vw55x_qspi.c ****     /* configure the read polling match mode and read polling mode stop */
 260:../Firmware/GD32VW55x_standard_peripheral/Source/gd32vw55x_qspi.c ****     QSPI_CTL &= ~(QSPI_CTL_RPMS | QSPI_CTL_RPMM);
 528              		.loc 1 260 14
 529 0040 B7670240 		li	a5,1073897472
 530 0044 93870780 		addi	a5,a5,-2048
 531 0048 9443     		lw	a3,0(a5)
 532 004a B7670240 		li	a5,1073897472
 533 004e 93870780 		addi	a5,a5,-2048
 534 0052 370740FF 		li	a4,-12582912
 535 0056 7D17     		addi	a4,a4,-1
 536 0058 758F     		and	a4,a3,a4
 537 005a 98C3     		sw	a4,0(a5)
 261:../Firmware/GD32VW55x_standard_peripheral/Source/gd32vw55x_qspi.c ****     QSPI_CTL |= (cfg->match_mode | cfg->polling_stop);
 538              		.loc 1 261 14
 539 005c B7670240 		li	a5,1073897472
 540 0060 93870780 		addi	a5,a5,-2048
 541 0064 9443     		lw	a3,0(a5)
 542              		.loc 1 261 21
 543 0066 832784FE 		lw	a5,-24(s0)
 544 006a 984B     		lw	a4,16(a5)
 545              		.loc 1 261 39
 546 006c 832784FE 		lw	a5,-24(s0)
 547 0070 DC4B     		lw	a5,20(a5)
 548              		.loc 1 261 34
 549 0072 5D8F     		or	a4,a4,a5
 550              		.loc 1 261 14
 551 0074 B7670240 		li	a5,1073897472
 552 0078 93870780 		addi	a5,a5,-2048
 553 007c 558F     		or	a4,a3,a4
 554 007e 98C3     		sw	a4,0(a5)
 262:../Firmware/GD32VW55x_standard_peripheral/Source/gd32vw55x_qspi.c **** 
 263:../Firmware/GD32VW55x_standard_peripheral/Source/gd32vw55x_qspi.c ****     cmd->data_length = cfg->statusbytes_size;
 555              		.loc 1 263 27
 556 0080 832784FE 		lw	a5,-24(s0)
 557 0084 D847     		lw	a4,12(a5)
 558              		.loc 1 263 22
 559 0086 8327C4FE 		lw	a5,-20(s0)
 560 008a 98D7     		sw	a4,40(a5)
 264:../Firmware/GD32VW55x_standard_peripheral/Source/gd32vw55x_qspi.c ****     qspi_config(cmd, QSPI_READ_POLLING);
 561              		.loc 1 264 5
 562 008c B7050008 		li	a1,134217728
 563 0090 0325C4FE 		lw	a0,-20(s0)
 564 0094 97000000 		call	qspi_config
 564      E7800000 
 265:../Firmware/GD32VW55x_standard_peripheral/Source/gd32vw55x_qspi.c **** }
 565              		.loc 1 265 1
 566 009c 0100     		nop
 567 009e F240     		lw	ra,28(sp)
 568              		.cfi_restore 1
 569 00a0 6244     		lw	s0,24(sp)
 570              		.cfi_restore 8
 571              		.cfi_def_cfa 2, 32
 572 00a2 0561     		addi	sp,sp,32
 573              		.cfi_def_cfa_offset 0
 574 00a4 8280     		jr	ra
 575              		.cfi_endproc
 576              	.LFE357:
 578              		.section	.text.qspi_memorymapped_config,"ax",@progbits
 579              		.align	1
 580              		.globl	qspi_memorymapped_config
 582              	qspi_memorymapped_config:
 583              	.LFB358:
 266:../Firmware/GD32VW55x_standard_peripheral/Source/gd32vw55x_qspi.c **** 
 267:../Firmware/GD32VW55x_standard_peripheral/Source/gd32vw55x_qspi.c **** /*!
 268:../Firmware/GD32VW55x_standard_peripheral/Source/gd32vw55x_qspi.c ****     \brief      configure QSPI memory mapped mode
 269:../Firmware/GD32VW55x_standard_peripheral/Source/gd32vw55x_qspi.c ****     \param[in]  cmd: QSPI command parameter structure
 270:../Firmware/GD32VW55x_standard_peripheral/Source/gd32vw55x_qspi.c ****                              and the member values are shown as below:
 271:../Firmware/GD32VW55x_standard_peripheral/Source/gd32vw55x_qspi.c ****                   instruction_mode: QSPI_INSTRUCTION_NONE, QSPI_INSTRUCTION_1_LINE,
 272:../Firmware/GD32VW55x_standard_peripheral/Source/gd32vw55x_qspi.c ****                                     QSPI_INSTRUCTION_2_LINES, QSPI_INSTRUCTION_4_LINES
 273:../Firmware/GD32VW55x_standard_peripheral/Source/gd32vw55x_qspi.c ****                   instruction: reference flash commands description
 274:../Firmware/GD32VW55x_standard_peripheral/Source/gd32vw55x_qspi.c ****                   addr_mode: QSPI_ADDR_NONE, QSPI_ADDR_1_LINE, QSPI_ADDR_2_LINES, QSPI_ADDR_4_LINES
 275:../Firmware/GD32VW55x_standard_peripheral/Source/gd32vw55x_qspi.c ****                   addr_size: QSPI_ADDR_8_BITS, QSPI_ADDR_16_BITS, QSPI_ADDR_24_BITS, QSPI_ADDR_32_B
 276:../Firmware/GD32VW55x_standard_peripheral/Source/gd32vw55x_qspi.c ****                   addr: 0-flash size
 277:../Firmware/GD32VW55x_standard_peripheral/Source/gd32vw55x_qspi.c ****                   altebytes_mode: QSPI_ALTE_BYTES_NONE, QSPI_ALTE_BYTES_1_LINE,
 278:../Firmware/GD32VW55x_standard_peripheral/Source/gd32vw55x_qspi.c ****                                   QSPI_ALTE_BYTES_2_LINES, QSPI_ALTE_BYTES_4_LINES
 279:../Firmware/GD32VW55x_standard_peripheral/Source/gd32vw55x_qspi.c ****                   altebytes_size: QSPI_ALTE_BYTES_8_BITS, QSPI_ALTE_BYTES_16_BITS,
 280:../Firmware/GD32VW55x_standard_peripheral/Source/gd32vw55x_qspi.c ****                                   QSPI_ALTE_BYTES_24_BITS, QSPI_ALTE_BYTES_32_BITS
 281:../Firmware/GD32VW55x_standard_peripheral/Source/gd32vw55x_qspi.c ****                   altebytes: 0-0xFFFFFFFF
 282:../Firmware/GD32VW55x_standard_peripheral/Source/gd32vw55x_qspi.c ****                   dummycycles: between 0 and 31
 283:../Firmware/GD32VW55x_standard_peripheral/Source/gd32vw55x_qspi.c ****                   data_mode: QSPI_DATA_NONE, QSPI_DATA_1_LINE, QSPI_DATA_2_LINES, QSPI_DATA_4_LINES
 284:../Firmware/GD32VW55x_standard_peripheral/Source/gd32vw55x_qspi.c ****                   data_length: 0-0xFFFFFFFF
 285:../Firmware/GD32VW55x_standard_peripheral/Source/gd32vw55x_qspi.c ****                   sioo_mode: QSPI_SIOO_INST_EVERY_CMD, QSPI_SIOO_INST_ONLY_FIRST_CMD
 286:../Firmware/GD32VW55x_standard_peripheral/Source/gd32vw55x_qspi.c ****     \param[in]  timeout: 0-0xFFFF
 287:../Firmware/GD32VW55x_standard_peripheral/Source/gd32vw55x_qspi.c ****     \param[in]  toen:
 288:../Firmware/GD32VW55x_standard_peripheral/Source/gd32vw55x_qspi.c ****       \arg        QSPI_TMOUT_DISABLE: disable timeout counter
 289:../Firmware/GD32VW55x_standard_peripheral/Source/gd32vw55x_qspi.c ****       \arg        QSPI_TMOUT_ENABLE: enable timeout counter
 290:../Firmware/GD32VW55x_standard_peripheral/Source/gd32vw55x_qspi.c ****     \param[out] none
 291:../Firmware/GD32VW55x_standard_peripheral/Source/gd32vw55x_qspi.c ****     \retval     none
 292:../Firmware/GD32VW55x_standard_peripheral/Source/gd32vw55x_qspi.c **** */
 293:../Firmware/GD32VW55x_standard_peripheral/Source/gd32vw55x_qspi.c **** void qspi_memorymapped_config(qspi_command_struct *cmd, uint16_t timeout, uint32_t toen)
 294:../Firmware/GD32VW55x_standard_peripheral/Source/gd32vw55x_qspi.c **** {
 584              		.loc 1 294 1
 585              		.cfi_startproc
 586 0000 0111     		addi	sp,sp,-32
 587              		.cfi_def_cfa_offset 32
 588 0002 06CE     		sw	ra,28(sp)
 589 0004 22CC     		sw	s0,24(sp)
 590              		.cfi_offset 1, -4
 591              		.cfi_offset 8, -8
 592 0006 0010     		addi	s0,sp,32
 593              		.cfi_def_cfa 8, 0
 594 0008 2326A4FE 		sw	a0,-20(s0)
 595 000c AE87     		mv	a5,a1
 596 000e 2322C4FE 		sw	a2,-28(s0)
 597 0012 2315F4FE 		sh	a5,-22(s0)
 295:../Firmware/GD32VW55x_standard_peripheral/Source/gd32vw55x_qspi.c ****     /* enable timeout */
 296:../Firmware/GD32VW55x_standard_peripheral/Source/gd32vw55x_qspi.c ****     QSPI_CTL &= ~QSPI_CTL_TMOUTEN;
 598              		.loc 1 296 14
 599 0016 B7670240 		li	a5,1073897472
 600 001a 93870780 		addi	a5,a5,-2048
 601 001e 9843     		lw	a4,0(a5)
 602 0020 B7670240 		li	a5,1073897472
 603 0024 93870780 		addi	a5,a5,-2048
 604 0028 5D9B     		andi	a4,a4,-9
 605 002a 98C3     		sw	a4,0(a5)
 297:../Firmware/GD32VW55x_standard_peripheral/Source/gd32vw55x_qspi.c ****     QSPI_CTL |= toen;
 606              		.loc 1 297 14
 607 002c B7670240 		li	a5,1073897472
 608 0030 93870780 		addi	a5,a5,-2048
 609 0034 9443     		lw	a3,0(a5)
 610 0036 B7670240 		li	a5,1073897472
 611 003a 93870780 		addi	a5,a5,-2048
 612 003e 032744FE 		lw	a4,-28(s0)
 613 0042 558F     		or	a4,a3,a4
 614 0044 98C3     		sw	a4,0(a5)
 298:../Firmware/GD32VW55x_standard_peripheral/Source/gd32vw55x_qspi.c **** 
 299:../Firmware/GD32VW55x_standard_peripheral/Source/gd32vw55x_qspi.c ****     if(toen == QSPI_CTL_TMOUTEN) {
 615              		.loc 1 299 7
 616 0046 032744FE 		lw	a4,-28(s0)
 617 004a A147     		li	a5,8
 618 004c 631CF702 		bne	a4,a5,.L16
 300:../Firmware/GD32VW55x_standard_peripheral/Source/gd32vw55x_qspi.c ****         /* configure the timeout value */
 301:../Firmware/GD32VW55x_standard_peripheral/Source/gd32vw55x_qspi.c ****         QSPI_TMOUT = timeout;
 619              		.loc 1 301 9
 620 0050 B7670240 		li	a5,1073897472
 621 0054 93870783 		addi	a5,a5,-2000
 622              		.loc 1 301 20
 623 0058 0357A4FE 		lhu	a4,-22(s0)
 624 005c 98C3     		sw	a4,0(a5)
 302:../Firmware/GD32VW55x_standard_peripheral/Source/gd32vw55x_qspi.c ****         QSPI_STATC = QSPI_STATC_TMOUTC;
 625              		.loc 1 302 9
 626 005e B7670240 		li	a5,1073897472
 627 0062 9387C780 		addi	a5,a5,-2036
 628              		.loc 1 302 20
 629 0066 4147     		li	a4,16
 630 0068 98C3     		sw	a4,0(a5)
 303:../Firmware/GD32VW55x_standard_peripheral/Source/gd32vw55x_qspi.c ****         /* enable the QSPI timeout interrupt */
 304:../Firmware/GD32VW55x_standard_peripheral/Source/gd32vw55x_qspi.c ****         QSPI_CTL |= QSPI_CTL_TMOUTIE;
 631              		.loc 1 304 18
 632 006a B7670240 		li	a5,1073897472
 633 006e 93870780 		addi	a5,a5,-2048
 634 0072 9443     		lw	a3,0(a5)
 635 0074 B7670240 		li	a5,1073897472
 636 0078 93870780 		addi	a5,a5,-2048
 637 007c 37071000 		li	a4,1048576
 638 0080 558F     		or	a4,a3,a4
 639 0082 98C3     		sw	a4,0(a5)
 640              	.L16:
 305:../Firmware/GD32VW55x_standard_peripheral/Source/gd32vw55x_qspi.c ****     }
 306:../Firmware/GD32VW55x_standard_peripheral/Source/gd32vw55x_qspi.c ****     qspi_config(cmd, QSPI_MEMORY_MAPPED);
 641              		.loc 1 306 5
 642 0084 B705000C 		li	a1,201326592
 643 0088 0325C4FE 		lw	a0,-20(s0)
 644 008c 97000000 		call	qspi_config
 644      E7800000 
 307:../Firmware/GD32VW55x_standard_peripheral/Source/gd32vw55x_qspi.c **** }
 645              		.loc 1 307 1
 646 0094 0100     		nop
 647 0096 F240     		lw	ra,28(sp)
 648              		.cfi_restore 1
 649 0098 6244     		lw	s0,24(sp)
 650              		.cfi_restore 8
 651              		.cfi_def_cfa 2, 32
 652 009a 0561     		addi	sp,sp,32
 653              		.cfi_def_cfa_offset 0
 654 009c 8280     		jr	ra
 655              		.cfi_endproc
 656              	.LFE358:
 658              		.section	.text.qspi_data_transmit,"ax",@progbits
 659              		.align	1
 660              		.globl	qspi_data_transmit
 662              	qspi_data_transmit:
 663              	.LFB359:
 308:../Firmware/GD32VW55x_standard_peripheral/Source/gd32vw55x_qspi.c **** 
 309:../Firmware/GD32VW55x_standard_peripheral/Source/gd32vw55x_qspi.c **** /*!
 310:../Firmware/GD32VW55x_standard_peripheral/Source/gd32vw55x_qspi.c ****     \brief      QSPI transmit data function
 311:../Firmware/GD32VW55x_standard_peripheral/Source/gd32vw55x_qspi.c ****     \param[in]  tdata: pointer to the data to be transmitted
 312:../Firmware/GD32VW55x_standard_peripheral/Source/gd32vw55x_qspi.c ****     \param[out] none
 313:../Firmware/GD32VW55x_standard_peripheral/Source/gd32vw55x_qspi.c ****     \retval     none
 314:../Firmware/GD32VW55x_standard_peripheral/Source/gd32vw55x_qspi.c **** */
 315:../Firmware/GD32VW55x_standard_peripheral/Source/gd32vw55x_qspi.c **** void qspi_data_transmit(uint8_t *tdata)
 316:../Firmware/GD32VW55x_standard_peripheral/Source/gd32vw55x_qspi.c **** {
 664              		.loc 1 316 1
 665              		.cfi_startproc
 666 0000 7971     		addi	sp,sp,-48
 667              		.cfi_def_cfa_offset 48
 668 0002 22D6     		sw	s0,44(sp)
 669              		.cfi_offset 8, -4
 670 0004 0018     		addi	s0,sp,48
 671              		.cfi_def_cfa 8, 0
 672 0006 232EA4FC 		sw	a0,-36(s0)
 317:../Firmware/GD32VW55x_standard_peripheral/Source/gd32vw55x_qspi.c ****     uint32_t tx_cnt;
 318:../Firmware/GD32VW55x_standard_peripheral/Source/gd32vw55x_qspi.c **** 
 319:../Firmware/GD32VW55x_standard_peripheral/Source/gd32vw55x_qspi.c ****     tx_cnt = QSPI_DTLEN + 1U;
 673              		.loc 1 319 14
 674 000a B7670240 		li	a5,1073897472
 675 000e 93870781 		addi	a5,a5,-2032
 676 0012 9C43     		lw	a5,0(a5)
 677              		.loc 1 319 12
 678 0014 8507     		addi	a5,a5,1
 679 0016 2326F4FE 		sw	a5,-20(s0)
 320:../Firmware/GD32VW55x_standard_peripheral/Source/gd32vw55x_qspi.c **** 
 321:../Firmware/GD32VW55x_standard_peripheral/Source/gd32vw55x_qspi.c ****     QSPI_TCFG = (QSPI_TCFG & ~QSPI_MEMORY_MAPPED) | QSPI_NORMAL_WRITE;
 680              		.loc 1 321 18
 681 001a B7670240 		li	a5,1073897472
 682 001e 93874781 		addi	a5,a5,-2028
 683 0022 9443     		lw	a3,0(a5)
 684              		.loc 1 321 5
 685 0024 B7670240 		li	a5,1073897472
 686 0028 93874781 		addi	a5,a5,-2028
 687              		.loc 1 321 51
 688 002c 370700F4 		li	a4,-201326592
 689 0030 7D17     		addi	a4,a4,-1
 690 0032 758F     		and	a4,a3,a4
 691              		.loc 1 321 15
 692 0034 98C3     		sw	a4,0(a5)
 322:../Firmware/GD32VW55x_standard_peripheral/Source/gd32vw55x_qspi.c **** 
 323:../Firmware/GD32VW55x_standard_peripheral/Source/gd32vw55x_qspi.c ****     while(tx_cnt > 0U) {
 693              		.loc 1 323 10
 694 0036 25A8     		j	.L18
 695              	.L20:
 324:../Firmware/GD32VW55x_standard_peripheral/Source/gd32vw55x_qspi.c ****         while((QSPI_STAT & QSPI_FLAG_FT) == 0U) {
 696              		.loc 1 324 14
 697 0038 0100     		nop
 698              	.L19:
 699              		.loc 1 324 16 discriminator 1
 700 003a B7670240 		li	a5,1073897472
 701 003e 93878780 		addi	a5,a5,-2040
 702 0042 9C43     		lw	a5,0(a5)
 703              		.loc 1 324 26 discriminator 1
 704 0044 918B     		andi	a5,a5,4
 705              		.loc 1 324 14 discriminator 1
 706 0046 F5DB     		beq	a5,zero,.L19
 325:../Firmware/GD32VW55x_standard_peripheral/Source/gd32vw55x_qspi.c ****         }
 326:../Firmware/GD32VW55x_standard_peripheral/Source/gd32vw55x_qspi.c ****         /* transmit data */
 327:../Firmware/GD32VW55x_standard_peripheral/Source/gd32vw55x_qspi.c ****         *(uint8_t *)(QSPI + 0x00000020U) = *tdata++;
 707              		.loc 1 327 50
 708 0048 8327C4FD 		lw	a5,-36(s0)
 709 004c 13871700 		addi	a4,a5,1
 710 0050 232EE4FC 		sw	a4,-36(s0)
 711              		.loc 1 327 9
 712 0054 37670240 		li	a4,1073897472
 713 0058 13070782 		addi	a4,a4,-2016
 714              		.loc 1 327 44
 715 005c 83C70700 		lbu	a5,0(a5)
 716              		.loc 1 327 42
 717 0060 2300F700 		sb	a5,0(a4)
 328:../Firmware/GD32VW55x_standard_peripheral/Source/gd32vw55x_qspi.c ****         tx_cnt--;
 718              		.loc 1 328 15
 719 0064 8327C4FE 		lw	a5,-20(s0)
 720 0068 FD17     		addi	a5,a5,-1
 721 006a 2326F4FE 		sw	a5,-20(s0)
 722              	.L18:
 323:../Firmware/GD32VW55x_standard_peripheral/Source/gd32vw55x_qspi.c ****         while((QSPI_STAT & QSPI_FLAG_FT) == 0U) {
 723              		.loc 1 323 10
 724 006e 8327C4FE 		lw	a5,-20(s0)
 725 0072 F9F3     		bne	a5,zero,.L20
 329:../Firmware/GD32VW55x_standard_peripheral/Source/gd32vw55x_qspi.c ****     }
 330:../Firmware/GD32VW55x_standard_peripheral/Source/gd32vw55x_qspi.c **** }
 726              		.loc 1 330 1
 727 0074 0100     		nop
 728 0076 0100     		nop
 729 0078 3254     		lw	s0,44(sp)
 730              		.cfi_restore 8
 731              		.cfi_def_cfa 2, 48
 732 007a 4561     		addi	sp,sp,48
 733              		.cfi_def_cfa_offset 0
 734 007c 8280     		jr	ra
 735              		.cfi_endproc
 736              	.LFE359:
 738              		.section	.text.qspi_data_receive,"ax",@progbits
 739              		.align	1
 740              		.globl	qspi_data_receive
 742              	qspi_data_receive:
 743              	.LFB360:
 331:../Firmware/GD32VW55x_standard_peripheral/Source/gd32vw55x_qspi.c **** 
 332:../Firmware/GD32VW55x_standard_peripheral/Source/gd32vw55x_qspi.c **** /*!
 333:../Firmware/GD32VW55x_standard_peripheral/Source/gd32vw55x_qspi.c ****     \brief      QSPI receive data function
 334:../Firmware/GD32VW55x_standard_peripheral/Source/gd32vw55x_qspi.c ****     \param[in]  none
 335:../Firmware/GD32VW55x_standard_peripheral/Source/gd32vw55x_qspi.c ****     \param[out] rdata: pointer to the data to be received
 336:../Firmware/GD32VW55x_standard_peripheral/Source/gd32vw55x_qspi.c ****     \retval     none
 337:../Firmware/GD32VW55x_standard_peripheral/Source/gd32vw55x_qspi.c **** */
 338:../Firmware/GD32VW55x_standard_peripheral/Source/gd32vw55x_qspi.c **** void qspi_data_receive(uint8_t *rdata)
 339:../Firmware/GD32VW55x_standard_peripheral/Source/gd32vw55x_qspi.c **** {
 744              		.loc 1 339 1
 745              		.cfi_startproc
 746 0000 7971     		addi	sp,sp,-48
 747              		.cfi_def_cfa_offset 48
 748 0002 22D6     		sw	s0,44(sp)
 749              		.cfi_offset 8, -4
 750 0004 0018     		addi	s0,sp,48
 751              		.cfi_def_cfa 8, 0
 752 0006 232EA4FC 		sw	a0,-36(s0)
 340:../Firmware/GD32VW55x_standard_peripheral/Source/gd32vw55x_qspi.c ****     uint32_t rx_cnt, addr;
 341:../Firmware/GD32VW55x_standard_peripheral/Source/gd32vw55x_qspi.c **** 
 342:../Firmware/GD32VW55x_standard_peripheral/Source/gd32vw55x_qspi.c ****     rx_cnt = QSPI_DTLEN + 1U;
 753              		.loc 1 342 14
 754 000a B7670240 		li	a5,1073897472
 755 000e 93870781 		addi	a5,a5,-2032
 756 0012 9C43     		lw	a5,0(a5)
 757              		.loc 1 342 12
 758 0014 8507     		addi	a5,a5,1
 759 0016 2326F4FE 		sw	a5,-20(s0)
 343:../Firmware/GD32VW55x_standard_peripheral/Source/gd32vw55x_qspi.c ****     addr = QSPI_ADDR;
 760              		.loc 1 343 12
 761 001a B7670240 		li	a5,1073897472
 762 001e 93878781 		addi	a5,a5,-2024
 763              		.loc 1 343 10
 764 0022 9C43     		lw	a5,0(a5)
 765 0024 2324F4FE 		sw	a5,-24(s0)
 344:../Firmware/GD32VW55x_standard_peripheral/Source/gd32vw55x_qspi.c **** 
 345:../Firmware/GD32VW55x_standard_peripheral/Source/gd32vw55x_qspi.c ****     QSPI_TCFG = (QSPI_TCFG & ~QSPI_MEMORY_MAPPED) | QSPI_NORMAL_READ;
 766              		.loc 1 345 18
 767 0028 B7670240 		li	a5,1073897472
 768 002c 93874781 		addi	a5,a5,-2028
 769 0030 9843     		lw	a4,0(a5)
 770              		.loc 1 345 28
 771 0032 B70700F4 		li	a5,-201326592
 772 0036 FD17     		addi	a5,a5,-1
 773 0038 B376F700 		and	a3,a4,a5
 774              		.loc 1 345 5
 775 003c B7670240 		li	a5,1073897472
 776 0040 93874781 		addi	a5,a5,-2028
 777              		.loc 1 345 51
 778 0044 37070004 		li	a4,67108864
 779 0048 558F     		or	a4,a3,a4
 780              		.loc 1 345 15
 781 004a 98C3     		sw	a4,0(a5)
 346:../Firmware/GD32VW55x_standard_peripheral/Source/gd32vw55x_qspi.c ****     /* start the transfer by re-writing the address in QSPI_ADDR register */
 347:../Firmware/GD32VW55x_standard_peripheral/Source/gd32vw55x_qspi.c ****     QSPI_ADDR = addr;
 782              		.loc 1 347 5
 783 004c B7670240 		li	a5,1073897472
 784 0050 93878781 		addi	a5,a5,-2024
 785              		.loc 1 347 15
 786 0054 032784FE 		lw	a4,-24(s0)
 787 0058 98C3     		sw	a4,0(a5)
 348:../Firmware/GD32VW55x_standard_peripheral/Source/gd32vw55x_qspi.c **** 
 349:../Firmware/GD32VW55x_standard_peripheral/Source/gd32vw55x_qspi.c ****     while(rx_cnt > 0U) {
 788              		.loc 1 349 10
 789 005a 25A8     		j	.L22
 790              	.L24:
 350:../Firmware/GD32VW55x_standard_peripheral/Source/gd32vw55x_qspi.c ****         while((QSPI_STAT & (QSPI_FLAG_FT | QSPI_FLAG_TC)) == 0U) {
 791              		.loc 1 350 14
 792 005c 0100     		nop
 793              	.L23:
 794              		.loc 1 350 16 discriminator 1
 795 005e B7670240 		li	a5,1073897472
 796 0062 93878780 		addi	a5,a5,-2040
 797 0066 9C43     		lw	a5,0(a5)
 798              		.loc 1 350 26 discriminator 1
 799 0068 998B     		andi	a5,a5,6
 800              		.loc 1 350 14 discriminator 1
 801 006a F5DB     		beq	a5,zero,.L23
 351:../Firmware/GD32VW55x_standard_peripheral/Source/gd32vw55x_qspi.c ****         }
 352:../Firmware/GD32VW55x_standard_peripheral/Source/gd32vw55x_qspi.c ****         *rdata++ = *(uint8_t *)(QSPI + 0x00000020U);
 802              		.loc 1 352 20
 803 006c B7670240 		li	a5,1073897472
 804 0070 13870782 		addi	a4,a5,-2016
 805              		.loc 1 352 15
 806 0074 8327C4FD 		lw	a5,-36(s0)
 807 0078 93861700 		addi	a3,a5,1
 808 007c 232ED4FC 		sw	a3,-36(s0)
 809              		.loc 1 352 20
 810 0080 03470700 		lbu	a4,0(a4)
 811              		.loc 1 352 18
 812 0084 2380E700 		sb	a4,0(a5)
 353:../Firmware/GD32VW55x_standard_peripheral/Source/gd32vw55x_qspi.c ****         rx_cnt--;
 813              		.loc 1 353 15
 814 0088 8327C4FE 		lw	a5,-20(s0)
 815 008c FD17     		addi	a5,a5,-1
 816 008e 2326F4FE 		sw	a5,-20(s0)
 817              	.L22:
 349:../Firmware/GD32VW55x_standard_peripheral/Source/gd32vw55x_qspi.c ****         while((QSPI_STAT & (QSPI_FLAG_FT | QSPI_FLAG_TC)) == 0U) {
 818              		.loc 1 349 10
 819 0092 8327C4FE 		lw	a5,-20(s0)
 820 0096 F9F3     		bne	a5,zero,.L24
 354:../Firmware/GD32VW55x_standard_peripheral/Source/gd32vw55x_qspi.c ****     }
 355:../Firmware/GD32VW55x_standard_peripheral/Source/gd32vw55x_qspi.c **** }
 821              		.loc 1 355 1
 822 0098 0100     		nop
 823 009a 0100     		nop
 824 009c 3254     		lw	s0,44(sp)
 825              		.cfi_restore 8
 826              		.cfi_def_cfa 2, 48
 827 009e 4561     		addi	sp,sp,48
 828              		.cfi_def_cfa_offset 0
 829 00a0 8280     		jr	ra
 830              		.cfi_endproc
 831              	.LFE360:
 833              		.section	.text.qspi_transmission_abort,"ax",@progbits
 834              		.align	1
 835              		.globl	qspi_transmission_abort
 837              	qspi_transmission_abort:
 838              	.LFB361:
 356:../Firmware/GD32VW55x_standard_peripheral/Source/gd32vw55x_qspi.c **** 
 357:../Firmware/GD32VW55x_standard_peripheral/Source/gd32vw55x_qspi.c **** /*!
 358:../Firmware/GD32VW55x_standard_peripheral/Source/gd32vw55x_qspi.c ****     \brief      abort the current transmission
 359:../Firmware/GD32VW55x_standard_peripheral/Source/gd32vw55x_qspi.c ****     \param[in]  none
 360:../Firmware/GD32VW55x_standard_peripheral/Source/gd32vw55x_qspi.c ****     \param[out] none
 361:../Firmware/GD32VW55x_standard_peripheral/Source/gd32vw55x_qspi.c ****     \retval     none
 362:../Firmware/GD32VW55x_standard_peripheral/Source/gd32vw55x_qspi.c **** */
 363:../Firmware/GD32VW55x_standard_peripheral/Source/gd32vw55x_qspi.c **** void qspi_transmission_abort(void)
 364:../Firmware/GD32VW55x_standard_peripheral/Source/gd32vw55x_qspi.c **** {
 839              		.loc 1 364 1
 840              		.cfi_startproc
 841 0000 4111     		addi	sp,sp,-16
 842              		.cfi_def_cfa_offset 16
 843 0002 22C6     		sw	s0,12(sp)
 844              		.cfi_offset 8, -4
 845 0004 0008     		addi	s0,sp,16
 846              		.cfi_def_cfa 8, 0
 365:../Firmware/GD32VW55x_standard_peripheral/Source/gd32vw55x_qspi.c ****     QSPI_CTL |= QSPI_CTL_ABORT;
 847              		.loc 1 365 14
 848 0006 B7670240 		li	a5,1073897472
 849 000a 93870780 		addi	a5,a5,-2048
 850 000e 9843     		lw	a4,0(a5)
 851 0010 B7670240 		li	a5,1073897472
 852 0014 93870780 		addi	a5,a5,-2048
 853 0018 13672700 		ori	a4,a4,2
 854 001c 98C3     		sw	a4,0(a5)
 366:../Firmware/GD32VW55x_standard_peripheral/Source/gd32vw55x_qspi.c **** }
 855              		.loc 1 366 1
 856 001e 0100     		nop
 857 0020 3244     		lw	s0,12(sp)
 858              		.cfi_restore 8
 859              		.cfi_def_cfa 2, 16
 860 0022 4101     		addi	sp,sp,16
 861              		.cfi_def_cfa_offset 0
 862 0024 8280     		jr	ra
 863              		.cfi_endproc
 864              	.LFE361:
 866              		.section	.text.qspi_flag_get,"ax",@progbits
 867              		.align	1
 868              		.globl	qspi_flag_get
 870              	qspi_flag_get:
 871              	.LFB362:
 367:../Firmware/GD32VW55x_standard_peripheral/Source/gd32vw55x_qspi.c **** 
 368:../Firmware/GD32VW55x_standard_peripheral/Source/gd32vw55x_qspi.c **** /*!
 369:../Firmware/GD32VW55x_standard_peripheral/Source/gd32vw55x_qspi.c ****     \brief      get QSPI flag status
 370:../Firmware/GD32VW55x_standard_peripheral/Source/gd32vw55x_qspi.c ****     \param[in]  flag: QSPI flag
 371:../Firmware/GD32VW55x_standard_peripheral/Source/gd32vw55x_qspi.c ****                 only one parameter can be selected which are shown as below:
 372:../Firmware/GD32VW55x_standard_peripheral/Source/gd32vw55x_qspi.c ****       \arg        QSPI_FLAG_BUSY: busy flag
 373:../Firmware/GD32VW55x_standard_peripheral/Source/gd32vw55x_qspi.c ****       \arg        QSPI_FLAG_TERR: transfer error flag
 374:../Firmware/GD32VW55x_standard_peripheral/Source/gd32vw55x_qspi.c ****       \arg        QSPI_FLAG_TC: transfer complete flag
 375:../Firmware/GD32VW55x_standard_peripheral/Source/gd32vw55x_qspi.c ****       \arg        QSPI_FLAG_FT: FIFO threshold flag
 376:../Firmware/GD32VW55x_standard_peripheral/Source/gd32vw55x_qspi.c ****       \arg        QSPI_FLAG_RPMF: read polling match flag
 377:../Firmware/GD32VW55x_standard_peripheral/Source/gd32vw55x_qspi.c ****       \arg        QSPI_FLAG_TMOUT: timeout flag
 378:../Firmware/GD32VW55x_standard_peripheral/Source/gd32vw55x_qspi.c ****     \param[out] none
 379:../Firmware/GD32VW55x_standard_peripheral/Source/gd32vw55x_qspi.c ****     \retval     FlagStatus: SET or RESET
 380:../Firmware/GD32VW55x_standard_peripheral/Source/gd32vw55x_qspi.c **** */
 381:../Firmware/GD32VW55x_standard_peripheral/Source/gd32vw55x_qspi.c **** FlagStatus qspi_flag_get(uint32_t flag)
 382:../Firmware/GD32VW55x_standard_peripheral/Source/gd32vw55x_qspi.c **** {
 872              		.loc 1 382 1
 873              		.cfi_startproc
 874 0000 0111     		addi	sp,sp,-32
 875              		.cfi_def_cfa_offset 32
 876 0002 22CE     		sw	s0,28(sp)
 877              		.cfi_offset 8, -4
 878 0004 0010     		addi	s0,sp,32
 879              		.cfi_def_cfa 8, 0
 880 0006 2326A4FE 		sw	a0,-20(s0)
 383:../Firmware/GD32VW55x_standard_peripheral/Source/gd32vw55x_qspi.c ****     if(RESET != (QSPI_STAT & flag)) {
 881              		.loc 1 383 18
 882 000a B7670240 		li	a5,1073897472
 883 000e 93878780 		addi	a5,a5,-2040
 884 0012 9843     		lw	a4,0(a5)
 885              		.loc 1 383 28
 886 0014 8327C4FE 		lw	a5,-20(s0)
 887 0018 F98F     		and	a5,a4,a5
 888              		.loc 1 383 7
 889 001a 99C3     		beq	a5,zero,.L27
 384:../Firmware/GD32VW55x_standard_peripheral/Source/gd32vw55x_qspi.c ****         return SET;
 890              		.loc 1 384 16
 891 001c 8547     		li	a5,1
 892 001e 11A0     		j	.L28
 893              	.L27:
 385:../Firmware/GD32VW55x_standard_peripheral/Source/gd32vw55x_qspi.c ****     } else {
 386:../Firmware/GD32VW55x_standard_peripheral/Source/gd32vw55x_qspi.c ****         return RESET;
 894              		.loc 1 386 16
 895 0020 8147     		li	a5,0
 896              	.L28:
 387:../Firmware/GD32VW55x_standard_peripheral/Source/gd32vw55x_qspi.c ****     }
 388:../Firmware/GD32VW55x_standard_peripheral/Source/gd32vw55x_qspi.c **** }
 897              		.loc 1 388 1
 898 0022 3E85     		mv	a0,a5
 899 0024 7244     		lw	s0,28(sp)
 900              		.cfi_restore 8
 901              		.cfi_def_cfa 2, 32
 902 0026 0561     		addi	sp,sp,32
 903              		.cfi_def_cfa_offset 0
 904 0028 8280     		jr	ra
 905              		.cfi_endproc
 906              	.LFE362:
 908              		.section	.text.qspi_flag_clear,"ax",@progbits
 909              		.align	1
 910              		.globl	qspi_flag_clear
 912              	qspi_flag_clear:
 913              	.LFB363:
 389:../Firmware/GD32VW55x_standard_peripheral/Source/gd32vw55x_qspi.c **** 
 390:../Firmware/GD32VW55x_standard_peripheral/Source/gd32vw55x_qspi.c **** /*!
 391:../Firmware/GD32VW55x_standard_peripheral/Source/gd32vw55x_qspi.c ****     \brief      clear QSPI flag status
 392:../Firmware/GD32VW55x_standard_peripheral/Source/gd32vw55x_qspi.c ****     \param[in]  flag: QSPI flag
 393:../Firmware/GD32VW55x_standard_peripheral/Source/gd32vw55x_qspi.c ****                 one or more parameters can be selected which are shown as below:
 394:../Firmware/GD32VW55x_standard_peripheral/Source/gd32vw55x_qspi.c ****       \arg        QSPI_FLAG_TERR: transfer error flag
 395:../Firmware/GD32VW55x_standard_peripheral/Source/gd32vw55x_qspi.c ****       \arg        QSPI_FLAG_TC: transfer complete flag
 396:../Firmware/GD32VW55x_standard_peripheral/Source/gd32vw55x_qspi.c ****       \arg        QSPI_FLAG_RPMF: read polling match flag
 397:../Firmware/GD32VW55x_standard_peripheral/Source/gd32vw55x_qspi.c ****       \arg        QSPI_FLAG_TMOUT: timeout flag
 398:../Firmware/GD32VW55x_standard_peripheral/Source/gd32vw55x_qspi.c ****     \param[out] none
 399:../Firmware/GD32VW55x_standard_peripheral/Source/gd32vw55x_qspi.c ****     \retval     none
 400:../Firmware/GD32VW55x_standard_peripheral/Source/gd32vw55x_qspi.c **** */
 401:../Firmware/GD32VW55x_standard_peripheral/Source/gd32vw55x_qspi.c **** void qspi_flag_clear(uint32_t flag)
 402:../Firmware/GD32VW55x_standard_peripheral/Source/gd32vw55x_qspi.c **** {
 914              		.loc 1 402 1
 915              		.cfi_startproc
 916 0000 0111     		addi	sp,sp,-32
 917              		.cfi_def_cfa_offset 32
 918 0002 22CE     		sw	s0,28(sp)
 919              		.cfi_offset 8, -4
 920 0004 0010     		addi	s0,sp,32
 921              		.cfi_def_cfa 8, 0
 922 0006 2326A4FE 		sw	a0,-20(s0)
 403:../Firmware/GD32VW55x_standard_peripheral/Source/gd32vw55x_qspi.c ****     QSPI_STATC |= (uint32_t)flag;
 923              		.loc 1 403 16
 924 000a B7670240 		li	a5,1073897472
 925 000e 9387C780 		addi	a5,a5,-2036
 926 0012 9443     		lw	a3,0(a5)
 927 0014 B7670240 		li	a5,1073897472
 928 0018 9387C780 		addi	a5,a5,-2036
 929 001c 0327C4FE 		lw	a4,-20(s0)
 930 0020 558F     		or	a4,a3,a4
 931 0022 98C3     		sw	a4,0(a5)
 404:../Firmware/GD32VW55x_standard_peripheral/Source/gd32vw55x_qspi.c **** }
 932              		.loc 1 404 1
 933 0024 0100     		nop
 934 0026 7244     		lw	s0,28(sp)
 935              		.cfi_restore 8
 936              		.cfi_def_cfa 2, 32
 937 0028 0561     		addi	sp,sp,32
 938              		.cfi_def_cfa_offset 0
 939 002a 8280     		jr	ra
 940              		.cfi_endproc
 941              	.LFE363:
 943              		.section	.text.qspi_interrupt_enable,"ax",@progbits
 944              		.align	1
 945              		.globl	qspi_interrupt_enable
 947              	qspi_interrupt_enable:
 948              	.LFB364:
 405:../Firmware/GD32VW55x_standard_peripheral/Source/gd32vw55x_qspi.c **** 
 406:../Firmware/GD32VW55x_standard_peripheral/Source/gd32vw55x_qspi.c **** /*!
 407:../Firmware/GD32VW55x_standard_peripheral/Source/gd32vw55x_qspi.c ****     \brief      enable QSPI interrupt
 408:../Firmware/GD32VW55x_standard_peripheral/Source/gd32vw55x_qspi.c ****     \param[in]  interrupt: QSPI interrupt
 409:../Firmware/GD32VW55x_standard_peripheral/Source/gd32vw55x_qspi.c ****                 one or more parameters can be selected which is shown as below:
 410:../Firmware/GD32VW55x_standard_peripheral/Source/gd32vw55x_qspi.c ****       \arg        QSPI_INT_TC: transfer complete interrupt
 411:../Firmware/GD32VW55x_standard_peripheral/Source/gd32vw55x_qspi.c ****       \arg        QSPI_INT_FT: FIFO threshold interrupt
 412:../Firmware/GD32VW55x_standard_peripheral/Source/gd32vw55x_qspi.c ****       \arg        QSPI_INT_TERR: transfer error interrupt
 413:../Firmware/GD32VW55x_standard_peripheral/Source/gd32vw55x_qspi.c ****       \arg        QSPI_INT_RPMF: read polling match interrupt
 414:../Firmware/GD32VW55x_standard_peripheral/Source/gd32vw55x_qspi.c ****       \arg        QSPI_INT_TMOUT: timeout interrupt
 415:../Firmware/GD32VW55x_standard_peripheral/Source/gd32vw55x_qspi.c ****     \param[out] none
 416:../Firmware/GD32VW55x_standard_peripheral/Source/gd32vw55x_qspi.c ****     \retval     none
 417:../Firmware/GD32VW55x_standard_peripheral/Source/gd32vw55x_qspi.c **** */
 418:../Firmware/GD32VW55x_standard_peripheral/Source/gd32vw55x_qspi.c **** void qspi_interrupt_enable(uint32_t interrupt)
 419:../Firmware/GD32VW55x_standard_peripheral/Source/gd32vw55x_qspi.c **** {
 949              		.loc 1 419 1
 950              		.cfi_startproc
 951 0000 0111     		addi	sp,sp,-32
 952              		.cfi_def_cfa_offset 32
 953 0002 22CE     		sw	s0,28(sp)
 954              		.cfi_offset 8, -4
 955 0004 0010     		addi	s0,sp,32
 956              		.cfi_def_cfa 8, 0
 957 0006 2326A4FE 		sw	a0,-20(s0)
 420:../Firmware/GD32VW55x_standard_peripheral/Source/gd32vw55x_qspi.c ****     QSPI_CTL |= (uint32_t)interrupt;
 958              		.loc 1 420 14
 959 000a B7670240 		li	a5,1073897472
 960 000e 93870780 		addi	a5,a5,-2048
 961 0012 9443     		lw	a3,0(a5)
 962 0014 B7670240 		li	a5,1073897472
 963 0018 93870780 		addi	a5,a5,-2048
 964 001c 0327C4FE 		lw	a4,-20(s0)
 965 0020 558F     		or	a4,a3,a4
 966 0022 98C3     		sw	a4,0(a5)
 421:../Firmware/GD32VW55x_standard_peripheral/Source/gd32vw55x_qspi.c **** }
 967              		.loc 1 421 1
 968 0024 0100     		nop
 969 0026 7244     		lw	s0,28(sp)
 970              		.cfi_restore 8
 971              		.cfi_def_cfa 2, 32
 972 0028 0561     		addi	sp,sp,32
 973              		.cfi_def_cfa_offset 0
 974 002a 8280     		jr	ra
 975              		.cfi_endproc
 976              	.LFE364:
 978              		.section	.text.qspi_interrupt_disable,"ax",@progbits
 979              		.align	1
 980              		.globl	qspi_interrupt_disable
 982              	qspi_interrupt_disable:
 983              	.LFB365:
 422:../Firmware/GD32VW55x_standard_peripheral/Source/gd32vw55x_qspi.c **** 
 423:../Firmware/GD32VW55x_standard_peripheral/Source/gd32vw55x_qspi.c **** /*!
 424:../Firmware/GD32VW55x_standard_peripheral/Source/gd32vw55x_qspi.c ****     \brief      disable QSPI interrupt
 425:../Firmware/GD32VW55x_standard_peripheral/Source/gd32vw55x_qspi.c ****     \param[in]  interrupt: QSPI interrupt
 426:../Firmware/GD32VW55x_standard_peripheral/Source/gd32vw55x_qspi.c ****                 one or more parameters can be selected which is shown as below:
 427:../Firmware/GD32VW55x_standard_peripheral/Source/gd32vw55x_qspi.c ****       \arg        QSPI_INT_TC: transfer complete interrupt
 428:../Firmware/GD32VW55x_standard_peripheral/Source/gd32vw55x_qspi.c ****       \arg        QSPI_INT_FT: FIFO threshold interrupt
 429:../Firmware/GD32VW55x_standard_peripheral/Source/gd32vw55x_qspi.c ****       \arg        QSPI_INT_TERR: transfer error interrupt
 430:../Firmware/GD32VW55x_standard_peripheral/Source/gd32vw55x_qspi.c ****       \arg        QSPI_INT_RPMF: read polling match interrupt
 431:../Firmware/GD32VW55x_standard_peripheral/Source/gd32vw55x_qspi.c ****       \arg        QSPI_INT_TMOUT: timeout interrupt
 432:../Firmware/GD32VW55x_standard_peripheral/Source/gd32vw55x_qspi.c ****     \param[out] none
 433:../Firmware/GD32VW55x_standard_peripheral/Source/gd32vw55x_qspi.c ****     \retval     none
 434:../Firmware/GD32VW55x_standard_peripheral/Source/gd32vw55x_qspi.c **** */
 435:../Firmware/GD32VW55x_standard_peripheral/Source/gd32vw55x_qspi.c **** void qspi_interrupt_disable(uint32_t interrupt)
 436:../Firmware/GD32VW55x_standard_peripheral/Source/gd32vw55x_qspi.c **** {
 984              		.loc 1 436 1
 985              		.cfi_startproc
 986 0000 0111     		addi	sp,sp,-32
 987              		.cfi_def_cfa_offset 32
 988 0002 22CE     		sw	s0,28(sp)
 989              		.cfi_offset 8, -4
 990 0004 0010     		addi	s0,sp,32
 991              		.cfi_def_cfa 8, 0
 992 0006 2326A4FE 		sw	a0,-20(s0)
 437:../Firmware/GD32VW55x_standard_peripheral/Source/gd32vw55x_qspi.c ****     QSPI_CTL &= ~(uint32_t)interrupt;
 993              		.loc 1 437 14
 994 000a B7670240 		li	a5,1073897472
 995 000e 93870780 		addi	a5,a5,-2048
 996 0012 9443     		lw	a3,0(a5)
 997              		.loc 1 437 17
 998 0014 8327C4FE 		lw	a5,-20(s0)
 999 0018 13C7F7FF 		not	a4,a5
 1000              		.loc 1 437 14
 1001 001c B7670240 		li	a5,1073897472
 1002 0020 93870780 		addi	a5,a5,-2048
 1003 0024 758F     		and	a4,a3,a4
 1004 0026 98C3     		sw	a4,0(a5)
 438:../Firmware/GD32VW55x_standard_peripheral/Source/gd32vw55x_qspi.c **** }
 1005              		.loc 1 438 1
 1006 0028 0100     		nop
 1007 002a 7244     		lw	s0,28(sp)
 1008              		.cfi_restore 8
 1009              		.cfi_def_cfa 2, 32
 1010 002c 0561     		addi	sp,sp,32
 1011              		.cfi_def_cfa_offset 0
 1012 002e 8280     		jr	ra
 1013              		.cfi_endproc
 1014              	.LFE365:
 1016              		.section	.text.qspi_interrupt_flag_get,"ax",@progbits
 1017              		.align	1
 1018              		.globl	qspi_interrupt_flag_get
 1020              	qspi_interrupt_flag_get:
 1021              	.LFB366:
 439:../Firmware/GD32VW55x_standard_peripheral/Source/gd32vw55x_qspi.c **** 
 440:../Firmware/GD32VW55x_standard_peripheral/Source/gd32vw55x_qspi.c **** /*!
 441:../Firmware/GD32VW55x_standard_peripheral/Source/gd32vw55x_qspi.c ****     \brief      get QSPI interrupt flag status
 442:../Firmware/GD32VW55x_standard_peripheral/Source/gd32vw55x_qspi.c ****     \param[in]  int_flag: QSPI interrupt flag
 443:../Firmware/GD32VW55x_standard_peripheral/Source/gd32vw55x_qspi.c ****                 only one parameter can be selected which are shown as below:
 444:../Firmware/GD32VW55x_standard_peripheral/Source/gd32vw55x_qspi.c ****       \arg        QSPI_INT_FLAG_TERR: transfer error interrupt flag
 445:../Firmware/GD32VW55x_standard_peripheral/Source/gd32vw55x_qspi.c ****       \arg        QSPI_INT_FLAG_TC: transfer complete interrupt flag
 446:../Firmware/GD32VW55x_standard_peripheral/Source/gd32vw55x_qspi.c ****       \arg        QSPI_INT_FLAG_FT: FIFO threshold interrupt flag
 447:../Firmware/GD32VW55x_standard_peripheral/Source/gd32vw55x_qspi.c ****       \arg        QSPI_INT_FLAG_RPMF: read polling match interrupt flag
 448:../Firmware/GD32VW55x_standard_peripheral/Source/gd32vw55x_qspi.c ****       \arg        QSPI_INT_FLAG_TMOUT: timeout interrupt flag
 449:../Firmware/GD32VW55x_standard_peripheral/Source/gd32vw55x_qspi.c ****     \param[out] none
 450:../Firmware/GD32VW55x_standard_peripheral/Source/gd32vw55x_qspi.c ****     \retval     FlagStatus: SET or RESET
 451:../Firmware/GD32VW55x_standard_peripheral/Source/gd32vw55x_qspi.c **** */
 452:../Firmware/GD32VW55x_standard_peripheral/Source/gd32vw55x_qspi.c **** FlagStatus qspi_interrupt_flag_get(uint32_t int_flag)
 453:../Firmware/GD32VW55x_standard_peripheral/Source/gd32vw55x_qspi.c **** {
 1022              		.loc 1 453 1
 1023              		.cfi_startproc
 1024 0000 7971     		addi	sp,sp,-48
 1025              		.cfi_def_cfa_offset 48
 1026 0002 22D6     		sw	s0,44(sp)
 1027              		.cfi_offset 8, -4
 1028 0004 0018     		addi	s0,sp,48
 1029              		.cfi_def_cfa 8, 0
 1030 0006 232EA4FC 		sw	a0,-36(s0)
 454:../Firmware/GD32VW55x_standard_peripheral/Source/gd32vw55x_qspi.c ****     uint32_t reg1 = QSPI_CTL;
 1031              		.loc 1 454 21
 1032 000a B7670240 		li	a5,1073897472
 1033 000e 93870780 		addi	a5,a5,-2048
 1034              		.loc 1 454 14
 1035 0012 9C43     		lw	a5,0(a5)
 1036 0014 2326F4FE 		sw	a5,-20(s0)
 455:../Firmware/GD32VW55x_standard_peripheral/Source/gd32vw55x_qspi.c ****     uint32_t reg2 = QSPI_STAT;
 1037              		.loc 1 455 21
 1038 0018 B7670240 		li	a5,1073897472
 1039 001c 93878780 		addi	a5,a5,-2040
 1040              		.loc 1 455 14
 1041 0020 9C43     		lw	a5,0(a5)
 1042 0022 2324F4FE 		sw	a5,-24(s0)
 1043 0026 0327C4FD 		lw	a4,-36(s0)
 1044 002a C147     		li	a5,16
 1045 002c 63E2E70A 		bgtu	a4,a5,.L43
 1046 0030 8327C4FD 		lw	a5,-36(s0)
 1047 0034 13972700 		slli	a4,a5,2
 1048 0038 97070000 		lla	a5,.L35
 1048      93870700 
 1049 0040 BA97     		add	a5,a4,a5
 1050 0042 9843     		lw	a4,0(a5)
 1051 0044 97070000 		lla	a5,.L35
 1051      93870700 
 1052 004c BA97     		add	a5,a4,a5
 1053 004e 8287     		jr	a5
 1054              		.section	.rodata.qspi_interrupt_flag_get,"a",@progbits
 1055              		.align	2
 1056              		.align	2
 1057              	.L35:
 1058 0000 00000000 		.word	.L43-.L35
 1059 0004 00000000 		.word	.L39-.L35
 1060 0008 00000000 		.word	.L38-.L35
 1061 000c 00000000 		.word	.L43-.L35
 1062 0010 00000000 		.word	.L37-.L35
 1063 0014 00000000 		.word	.L43-.L35
 1064 0018 00000000 		.word	.L43-.L35
 1065 001c 00000000 		.word	.L43-.L35
 1066 0020 00000000 		.word	.L36-.L35
 1067 0024 00000000 		.word	.L43-.L35
 1068 0028 00000000 		.word	.L43-.L35
 1069 002c 00000000 		.word	.L43-.L35
 1070 0030 00000000 		.word	.L43-.L35
 1071 0034 00000000 		.word	.L43-.L35
 1072 0038 00000000 		.word	.L43-.L35
 1073 003c 00000000 		.word	.L43-.L35
 1074 0040 00000000 		.word	.L34-.L35
 1075              		.section	.text.qspi_interrupt_flag_get
 1076              	.L39:
 456:../Firmware/GD32VW55x_standard_peripheral/Source/gd32vw55x_qspi.c **** 
 457:../Firmware/GD32VW55x_standard_peripheral/Source/gd32vw55x_qspi.c ****     switch(int_flag) {
 458:../Firmware/GD32VW55x_standard_peripheral/Source/gd32vw55x_qspi.c ****     /* QSPI transfer error interrupt flag */
 459:../Firmware/GD32VW55x_standard_peripheral/Source/gd32vw55x_qspi.c ****     case QSPI_INT_FLAG_TERR:
 460:../Firmware/GD32VW55x_standard_peripheral/Source/gd32vw55x_qspi.c ****         reg1 = reg1 & QSPI_STAT_TERR;
 1077              		.loc 1 460 14
 1078 0050 8327C4FE 		lw	a5,-20(s0)
 1079 0054 858B     		andi	a5,a5,1
 1080 0056 2326F4FE 		sw	a5,-20(s0)
 461:../Firmware/GD32VW55x_standard_peripheral/Source/gd32vw55x_qspi.c ****         reg2 = reg2 & QSPI_CTL_TERRIE;
 1081              		.loc 1 461 14
 1082 005a 032784FE 		lw	a4,-24(s0)
 1083 005e C167     		li	a5,65536
 1084 0060 F98F     		and	a5,a4,a5
 1085 0062 2324F4FE 		sw	a5,-24(s0)
 462:../Firmware/GD32VW55x_standard_peripheral/Source/gd32vw55x_qspi.c ****         break;
 1086              		.loc 1 462 9
 1087 0066 B5A0     		j	.L40
 1088              	.L38:
 463:../Firmware/GD32VW55x_standard_peripheral/Source/gd32vw55x_qspi.c ****     /* QSPI transfer complete interrupt flag */
 464:../Firmware/GD32VW55x_standard_peripheral/Source/gd32vw55x_qspi.c ****     case QSPI_INT_FLAG_TC:
 465:../Firmware/GD32VW55x_standard_peripheral/Source/gd32vw55x_qspi.c ****         reg1 = reg1 & QSPI_STAT_TC;
 1089              		.loc 1 465 14
 1090 0068 8327C4FE 		lw	a5,-20(s0)
 1091 006c 898B     		andi	a5,a5,2
 1092 006e 2326F4FE 		sw	a5,-20(s0)
 466:../Firmware/GD32VW55x_standard_peripheral/Source/gd32vw55x_qspi.c ****         reg2 = reg2 & QSPI_CTL_TCIE;
 1093              		.loc 1 466 14
 1094 0072 032784FE 		lw	a4,-24(s0)
 1095 0076 B7070200 		li	a5,131072
 1096 007a F98F     		and	a5,a4,a5
 1097 007c 2324F4FE 		sw	a5,-24(s0)
 467:../Firmware/GD32VW55x_standard_peripheral/Source/gd32vw55x_qspi.c ****         break;
 1098              		.loc 1 467 9
 1099 0080 89A8     		j	.L40
 1100              	.L37:
 468:../Firmware/GD32VW55x_standard_peripheral/Source/gd32vw55x_qspi.c ****     /* QSPI FIFO threshold interrupt flag */
 469:../Firmware/GD32VW55x_standard_peripheral/Source/gd32vw55x_qspi.c ****     case QSPI_INT_FLAG_FT:
 470:../Firmware/GD32VW55x_standard_peripheral/Source/gd32vw55x_qspi.c ****         reg1 = reg1 & QSPI_STAT_FT;
 1101              		.loc 1 470 14
 1102 0082 8327C4FE 		lw	a5,-20(s0)
 1103 0086 918B     		andi	a5,a5,4
 1104 0088 2326F4FE 		sw	a5,-20(s0)
 471:../Firmware/GD32VW55x_standard_peripheral/Source/gd32vw55x_qspi.c ****         reg2 = reg2 & QSPI_CTL_FTIE;
 1105              		.loc 1 471 14
 1106 008c 032784FE 		lw	a4,-24(s0)
 1107 0090 B7070400 		li	a5,262144
 1108 0094 F98F     		and	a5,a4,a5
 1109 0096 2324F4FE 		sw	a5,-24(s0)
 472:../Firmware/GD32VW55x_standard_peripheral/Source/gd32vw55x_qspi.c ****         break;
 1110              		.loc 1 472 9
 1111 009a 25A8     		j	.L40
 1112              	.L36:
 473:../Firmware/GD32VW55x_standard_peripheral/Source/gd32vw55x_qspi.c ****     /* QSPI status match interrupt flag */
 474:../Firmware/GD32VW55x_standard_peripheral/Source/gd32vw55x_qspi.c ****     case QSPI_INT_FLAG_RPMF:
 475:../Firmware/GD32VW55x_standard_peripheral/Source/gd32vw55x_qspi.c ****         reg1 = reg1 & QSPI_STAT_RPMF;
 1113              		.loc 1 475 14
 1114 009c 8327C4FE 		lw	a5,-20(s0)
 1115 00a0 A18B     		andi	a5,a5,8
 1116 00a2 2326F4FE 		sw	a5,-20(s0)
 476:../Firmware/GD32VW55x_standard_peripheral/Source/gd32vw55x_qspi.c ****         reg2 = reg2 & QSPI_CTL_RPMFIE;
 1117              		.loc 1 476 14
 1118 00a6 032784FE 		lw	a4,-24(s0)
 1119 00aa B7070800 		li	a5,524288
 1120 00ae F98F     		and	a5,a4,a5
 1121 00b0 2324F4FE 		sw	a5,-24(s0)
 477:../Firmware/GD32VW55x_standard_peripheral/Source/gd32vw55x_qspi.c ****         break;
 1122              		.loc 1 477 9
 1123 00b4 39A8     		j	.L40
 1124              	.L34:
 478:../Firmware/GD32VW55x_standard_peripheral/Source/gd32vw55x_qspi.c ****     /* QSPI timeout interrupt flag */
 479:../Firmware/GD32VW55x_standard_peripheral/Source/gd32vw55x_qspi.c ****     case QSPI_INT_FLAG_TMOUT:
 480:../Firmware/GD32VW55x_standard_peripheral/Source/gd32vw55x_qspi.c ****         reg1 = reg1 & QSPI_STAT_TMOUT;
 1125              		.loc 1 480 14
 1126 00b6 8327C4FE 		lw	a5,-20(s0)
 1127 00ba C18B     		andi	a5,a5,16
 1128 00bc 2326F4FE 		sw	a5,-20(s0)
 481:../Firmware/GD32VW55x_standard_peripheral/Source/gd32vw55x_qspi.c ****         reg2 = reg2 & QSPI_CTL_TMOUTIE;
 1129              		.loc 1 481 14
 1130 00c0 032784FE 		lw	a4,-24(s0)
 1131 00c4 B7071000 		li	a5,1048576
 1132 00c8 F98F     		and	a5,a4,a5
 1133 00ca 2324F4FE 		sw	a5,-24(s0)
 482:../Firmware/GD32VW55x_standard_peripheral/Source/gd32vw55x_qspi.c ****         break;
 1134              		.loc 1 482 9
 1135 00ce 11A0     		j	.L40
 1136              	.L43:
 483:../Firmware/GD32VW55x_standard_peripheral/Source/gd32vw55x_qspi.c ****     default :
 484:../Firmware/GD32VW55x_standard_peripheral/Source/gd32vw55x_qspi.c ****         break;
 1137              		.loc 1 484 9
 1138 00d0 0100     		nop
 1139              	.L40:
 485:../Firmware/GD32VW55x_standard_peripheral/Source/gd32vw55x_qspi.c ****     }
 486:../Firmware/GD32VW55x_standard_peripheral/Source/gd32vw55x_qspi.c ****     /* get QSPI interrupt flag status */
 487:../Firmware/GD32VW55x_standard_peripheral/Source/gd32vw55x_qspi.c ****     if(reg1 && reg2) {
 1140              		.loc 1 487 7
 1141 00d2 8327C4FE 		lw	a5,-20(s0)
 1142 00d6 91C7     		beq	a5,zero,.L41
 1143              		.loc 1 487 13 discriminator 1
 1144 00d8 832784FE 		lw	a5,-24(s0)
 1145 00dc 99C3     		beq	a5,zero,.L41
 488:../Firmware/GD32VW55x_standard_peripheral/Source/gd32vw55x_qspi.c ****         return SET;
 1146              		.loc 1 488 16
 1147 00de 8547     		li	a5,1
 1148 00e0 11A0     		j	.L42
 1149              	.L41:
 489:../Firmware/GD32VW55x_standard_peripheral/Source/gd32vw55x_qspi.c ****     } else {
 490:../Firmware/GD32VW55x_standard_peripheral/Source/gd32vw55x_qspi.c ****         return RESET;
 1150              		.loc 1 490 16
 1151 00e2 8147     		li	a5,0
 1152              	.L42:
 491:../Firmware/GD32VW55x_standard_peripheral/Source/gd32vw55x_qspi.c ****     }
 492:../Firmware/GD32VW55x_standard_peripheral/Source/gd32vw55x_qspi.c **** }
 1153              		.loc 1 492 1
 1154 00e4 3E85     		mv	a0,a5
 1155 00e6 3254     		lw	s0,44(sp)
 1156              		.cfi_restore 8
 1157              		.cfi_def_cfa 2, 48
 1158 00e8 4561     		addi	sp,sp,48
 1159              		.cfi_def_cfa_offset 0
 1160 00ea 8280     		jr	ra
 1161              		.cfi_endproc
 1162              	.LFE366:
 1164              		.section	.text.qspi_interrupt_flag_clear,"ax",@progbits
 1165              		.align	1
 1166              		.globl	qspi_interrupt_flag_clear
 1168              	qspi_interrupt_flag_clear:
 1169              	.LFB367:
 493:../Firmware/GD32VW55x_standard_peripheral/Source/gd32vw55x_qspi.c **** 
 494:../Firmware/GD32VW55x_standard_peripheral/Source/gd32vw55x_qspi.c **** /*!
 495:../Firmware/GD32VW55x_standard_peripheral/Source/gd32vw55x_qspi.c ****     \brief      clear QSPI interrupt flag status
 496:../Firmware/GD32VW55x_standard_peripheral/Source/gd32vw55x_qspi.c ****     \param[in]  int_flag: QSPI interrupt flag
 497:../Firmware/GD32VW55x_standard_peripheral/Source/gd32vw55x_qspi.c ****                 one or more parameters can be selected which are shown as below:
 498:../Firmware/GD32VW55x_standard_peripheral/Source/gd32vw55x_qspi.c ****       \arg        QSPI_INT_FLAG_TERR: transfer error interrupt flag
 499:../Firmware/GD32VW55x_standard_peripheral/Source/gd32vw55x_qspi.c ****       \arg        QSPI_INT_FLAG_TC: transfer complete interrupt flag
 500:../Firmware/GD32VW55x_standard_peripheral/Source/gd32vw55x_qspi.c ****       \arg        QSPI_INT_FLAG_RPMF: read polling match interrupt flag
 501:../Firmware/GD32VW55x_standard_peripheral/Source/gd32vw55x_qspi.c ****       \arg        QSPI_INT_FLAG_TMOUT: timeout interrupt flag
 502:../Firmware/GD32VW55x_standard_peripheral/Source/gd32vw55x_qspi.c ****     \param[out] none
 503:../Firmware/GD32VW55x_standard_peripheral/Source/gd32vw55x_qspi.c ****     \retval     none
 504:../Firmware/GD32VW55x_standard_peripheral/Source/gd32vw55x_qspi.c **** */
 505:../Firmware/GD32VW55x_standard_peripheral/Source/gd32vw55x_qspi.c **** void qspi_interrupt_flag_clear(uint32_t int_flag)
 506:../Firmware/GD32VW55x_standard_peripheral/Source/gd32vw55x_qspi.c **** {
 1170              		.loc 1 506 1
 1171              		.cfi_startproc
 1172 0000 0111     		addi	sp,sp,-32
 1173              		.cfi_def_cfa_offset 32
 1174 0002 22CE     		sw	s0,28(sp)
 1175              		.cfi_offset 8, -4
 1176 0004 0010     		addi	s0,sp,32
 1177              		.cfi_def_cfa 8, 0
 1178 0006 2326A4FE 		sw	a0,-20(s0)
 507:../Firmware/GD32VW55x_standard_peripheral/Source/gd32vw55x_qspi.c ****     QSPI_STATC |= (uint32_t)int_flag;
 1179              		.loc 1 507 16
 1180 000a B7670240 		li	a5,1073897472
 1181 000e 9387C780 		addi	a5,a5,-2036
 1182 0012 9443     		lw	a3,0(a5)
 1183 0014 B7670240 		li	a5,1073897472
 1184 0018 9387C780 		addi	a5,a5,-2036
 1185 001c 0327C4FE 		lw	a4,-20(s0)
 1186 0020 558F     		or	a4,a3,a4
 1187 0022 98C3     		sw	a4,0(a5)
 508:../Firmware/GD32VW55x_standard_peripheral/Source/gd32vw55x_qspi.c **** }
 1188              		.loc 1 508 1
 1189 0024 0100     		nop
 1190 0026 7244     		lw	s0,28(sp)
 1191              		.cfi_restore 8
 1192              		.cfi_def_cfa 2, 32
 1193 0028 0561     		addi	sp,sp,32
 1194              		.cfi_def_cfa_offset 0
 1195 002a 8280     		jr	ra
 1196              		.cfi_endproc
 1197              	.LFE367:
 1199              		.section	.text.qspi_config,"ax",@progbits
 1200              		.align	1
 1202              	qspi_config:
 1203              	.LFB368:
 509:../Firmware/GD32VW55x_standard_peripheral/Source/gd32vw55x_qspi.c **** 
 510:../Firmware/GD32VW55x_standard_peripheral/Source/gd32vw55x_qspi.c **** /*!
 511:../Firmware/GD32VW55x_standard_peripheral/Source/gd32vw55x_qspi.c ****     \brief      configure QSPI functional mode
 512:../Firmware/GD32VW55x_standard_peripheral/Source/gd32vw55x_qspi.c ****     \param[in]  cmd: QSPI command parameter structure
 513:../Firmware/GD32VW55x_standard_peripheral/Source/gd32vw55x_qspi.c ****                              and the member values are shown as below:
 514:../Firmware/GD32VW55x_standard_peripheral/Source/gd32vw55x_qspi.c ****                   instruction_mode: QSPI_INSTRUCTION_NONE, QSPI_INSTRUCTION_1_LINE,
 515:../Firmware/GD32VW55x_standard_peripheral/Source/gd32vw55x_qspi.c ****                                     QSPI_INSTRUCTION_2_LINES, QSPI_INSTRUCTION_4_LINES
 516:../Firmware/GD32VW55x_standard_peripheral/Source/gd32vw55x_qspi.c ****                   instruction: reference flash commands description
 517:../Firmware/GD32VW55x_standard_peripheral/Source/gd32vw55x_qspi.c ****                   addr_mode: QSPI_ADDR_NONE, QSPI_ADDR_1_LINE, QSPI_ADDR_2_LINES, QSPI_ADDR_4_LINES
 518:../Firmware/GD32VW55x_standard_peripheral/Source/gd32vw55x_qspi.c ****                   addr_size: QSPI_ADDR_8_BITS, QSPI_ADDR_16_BITS, QSPI_ADDR_24_BITS, QSPI_ADDR_32_B
 519:../Firmware/GD32VW55x_standard_peripheral/Source/gd32vw55x_qspi.c ****                   addr: 0-flash size
 520:../Firmware/GD32VW55x_standard_peripheral/Source/gd32vw55x_qspi.c ****                   altebytes_mode: QSPI_ALTE_BYTES_NONE, QSPI_ALTE_BYTES_1_LINE,
 521:../Firmware/GD32VW55x_standard_peripheral/Source/gd32vw55x_qspi.c ****                                   QSPI_ALTE_BYTES_2_LINES, QSPI_ALTE_BYTES_4_LINES
 522:../Firmware/GD32VW55x_standard_peripheral/Source/gd32vw55x_qspi.c ****                   altebytes_size: QSPI_ALTE_BYTES_8_BITS, QSPI_ALTE_BYTES_16_BITS,
 523:../Firmware/GD32VW55x_standard_peripheral/Source/gd32vw55x_qspi.c ****                                   QSPI_ALTE_BYTES_24_BITS, QSPI_ALTE_BYTES_32_BITS
 524:../Firmware/GD32VW55x_standard_peripheral/Source/gd32vw55x_qspi.c ****                   altebytes: 0-0xFFFFFFFF
 525:../Firmware/GD32VW55x_standard_peripheral/Source/gd32vw55x_qspi.c ****                   dummycycles: between 0 and 31
 526:../Firmware/GD32VW55x_standard_peripheral/Source/gd32vw55x_qspi.c ****                   data_mode: QSPI_DATA_NONE, QSPI_DATA_1_LINE, QSPI_DATA_2_LINES, QSPI_DATA_4_LINES
 527:../Firmware/GD32VW55x_standard_peripheral/Source/gd32vw55x_qspi.c ****                   data_length: 0-0xFFFFFFFF
 528:../Firmware/GD32VW55x_standard_peripheral/Source/gd32vw55x_qspi.c ****                   sioo_mode: QSPI_SIOO_INST_EVERY_CMD, QSPI_SIOO_INST_ONLY_FIRST_CMD
 529:../Firmware/GD32VW55x_standard_peripheral/Source/gd32vw55x_qspi.c ****     \param[in]  functionalmode: QSPI functional mode select
 530:../Firmware/GD32VW55x_standard_peripheral/Source/gd32vw55x_qspi.c ****                 only one parameter can be selected which is shown as below:
 531:../Firmware/GD32VW55x_standard_peripheral/Source/gd32vw55x_qspi.c ****       \arg        QSPI_NORMAL_WRITE
 532:../Firmware/GD32VW55x_standard_peripheral/Source/gd32vw55x_qspi.c ****       \arg        QSPI_NORMAL_READ
 533:../Firmware/GD32VW55x_standard_peripheral/Source/gd32vw55x_qspi.c ****       \arg        QSPI_READ_POLLING
 534:../Firmware/GD32VW55x_standard_peripheral/Source/gd32vw55x_qspi.c ****       \arg        QSPI_MEMORY_MAPPED
 535:../Firmware/GD32VW55x_standard_peripheral/Source/gd32vw55x_qspi.c ****     \param[out] none
 536:../Firmware/GD32VW55x_standard_peripheral/Source/gd32vw55x_qspi.c ****     \retval     none
 537:../Firmware/GD32VW55x_standard_peripheral/Source/gd32vw55x_qspi.c **** */
 538:../Firmware/GD32VW55x_standard_peripheral/Source/gd32vw55x_qspi.c **** static void qspi_config(qspi_command_struct *cmd, uint32_t functionalmode)
 539:../Firmware/GD32VW55x_standard_peripheral/Source/gd32vw55x_qspi.c **** {
 1204              		.loc 1 539 1
 1205              		.cfi_startproc
 1206 0000 0111     		addi	sp,sp,-32
 1207              		.cfi_def_cfa_offset 32
 1208 0002 22CE     		sw	s0,28(sp)
 1209              		.cfi_offset 8, -4
 1210 0004 0010     		addi	s0,sp,32
 1211              		.cfi_def_cfa 8, 0
 1212 0006 2326A4FE 		sw	a0,-20(s0)
 1213 000a 2324B4FE 		sw	a1,-24(s0)
 540:../Firmware/GD32VW55x_standard_peripheral/Source/gd32vw55x_qspi.c ****     if((cmd->data_mode != QSPI_DATA_NONE) && (functionalmode != QSPI_MEMORY_MAPPED)) {
 1214              		.loc 1 540 12
 1215 000e 8327C4FE 		lw	a5,-20(s0)
 1216 0012 DC53     		lw	a5,36(a5)
 1217              		.loc 1 540 7
 1218 0014 85C3     		beq	a5,zero,.L46
 1219              		.loc 1 540 43 discriminator 1
 1220 0016 032784FE 		lw	a4,-24(s0)
 1221 001a B707000C 		li	a5,201326592
 1222 001e 630BF700 		beq	a4,a5,.L46
 541:../Firmware/GD32VW55x_standard_peripheral/Source/gd32vw55x_qspi.c ****         /* configure QSPI_DTLEN register with the number of data to read or write */
 542:../Firmware/GD32VW55x_standard_peripheral/Source/gd32vw55x_qspi.c ****         QSPI_DTLEN = cmd->data_length - 1U;
 1223              		.loc 1 542 25
 1224 0022 8327C4FE 		lw	a5,-20(s0)
 1225 0026 9857     		lw	a4,40(a5)
 1226              		.loc 1 542 9
 1227 0028 B7670240 		li	a5,1073897472
 1228 002c 93870781 		addi	a5,a5,-2032
 1229              		.loc 1 542 39
 1230 0030 7D17     		addi	a4,a4,-1
 1231              		.loc 1 542 20
 1232 0032 98C3     		sw	a4,0(a5)
 1233              	.L46:
 543:../Firmware/GD32VW55x_standard_peripheral/Source/gd32vw55x_qspi.c ****     }
 544:../Firmware/GD32VW55x_standard_peripheral/Source/gd32vw55x_qspi.c **** 
 545:../Firmware/GD32VW55x_standard_peripheral/Source/gd32vw55x_qspi.c ****     if(cmd->instruction_mode != QSPI_INSTRUCTION_NONE) {
 1234              		.loc 1 545 11
 1235 0034 8327C4FE 		lw	a5,-20(s0)
 1236 0038 9C43     		lw	a5,0(a5)
 1237              		.loc 1 545 7
 1238 003a 638A071A 		beq	a5,zero,.L47
 546:../Firmware/GD32VW55x_standard_peripheral/Source/gd32vw55x_qspi.c ****         if(cmd->altebytes_mode != QSPI_ALTE_BYTES_NONE) {
 1239              		.loc 1 546 15
 1240 003e 8327C4FE 		lw	a5,-20(s0)
 1241 0042 DC4B     		lw	a5,20(a5)
 1242              		.loc 1 546 11
 1243 0044 FDC3     		beq	a5,zero,.L48
 547:../Firmware/GD32VW55x_standard_peripheral/Source/gd32vw55x_qspi.c ****             /* configure QSPI_ALTE register with alternate bytes value */
 548:../Firmware/GD32VW55x_standard_peripheral/Source/gd32vw55x_qspi.c ****             QSPI_ALTE = cmd->altebytes;
 1244              		.loc 1 548 13
 1245 0046 B7670240 		li	a5,1073897472
 1246 004a 9387C781 		addi	a5,a5,-2020
 1247              		.loc 1 548 28
 1248 004e 0327C4FE 		lw	a4,-20(s0)
 1249 0052 584F     		lw	a4,28(a4)
 1250              		.loc 1 548 23
 1251 0054 98C3     		sw	a4,0(a5)
 549:../Firmware/GD32VW55x_standard_peripheral/Source/gd32vw55x_qspi.c **** 
 550:../Firmware/GD32VW55x_standard_peripheral/Source/gd32vw55x_qspi.c ****             if(cmd->addr_mode != QSPI_ADDR_NONE) {
 1252              		.loc 1 550 19
 1253 0056 8327C4FE 		lw	a5,-20(s0)
 1254 005a 9C47     		lw	a5,8(a5)
 1255              		.loc 1 550 15
 1256 005c ADCF     		beq	a5,zero,.L49
 551:../Firmware/GD32VW55x_standard_peripheral/Source/gd32vw55x_qspi.c ****                 /* command with instruction, address and alternate bytes */
 552:../Firmware/GD32VW55x_standard_peripheral/Source/gd32vw55x_qspi.c ****                 /* configure QSPI_TCFG register with all communications parameters */
 553:../Firmware/GD32VW55x_standard_peripheral/Source/gd32vw55x_qspi.c ****                 QSPI_TCFG = cmd->data_mode | (cmd->dummycycles << TCFG_DUMYC_OFFSET) | cmd->sioo_mo
 1257              		.loc 1 553 32
 1258 005e 8327C4FE 		lw	a5,-20(s0)
 1259 0062 D853     		lw	a4,36(a5)
 1260              		.loc 1 553 50
 1261 0064 8327C4FE 		lw	a5,-20(s0)
 1262 0068 9C53     		lw	a5,32(a5)
 1263              		.loc 1 553 64
 1264 006a CA07     		slli	a5,a5,18
 1265              		.loc 1 553 44
 1266 006c 5D8F     		or	a4,a4,a5
 1267              		.loc 1 553 91
 1268 006e 8327C4FE 		lw	a5,-20(s0)
 1269 0072 DC57     		lw	a5,44(a5)
 1270              		.loc 1 553 86
 1271 0074 5D8F     		or	a4,a4,a5
 554:../Firmware/GD32VW55x_standard_peripheral/Source/gd32vw55x_qspi.c ****                             cmd->altebytes_size | cmd->altebytes_mode |
 1272              		.loc 1 554 32
 1273 0076 8327C4FE 		lw	a5,-20(s0)
 1274 007a 9C4F     		lw	a5,24(a5)
 553:../Firmware/GD32VW55x_standard_peripheral/Source/gd32vw55x_qspi.c ****                             cmd->altebytes_size | cmd->altebytes_mode |
 1275              		.loc 1 553 103
 1276 007c 5D8F     		or	a4,a4,a5
 1277              		.loc 1 554 54
 1278 007e 8327C4FE 		lw	a5,-20(s0)
 1279 0082 DC4B     		lw	a5,20(a5)
 1280              		.loc 1 554 49
 1281 0084 5D8F     		or	a4,a4,a5
 555:../Firmware/GD32VW55x_standard_peripheral/Source/gd32vw55x_qspi.c ****                             cmd->addr_size | cmd->addr_mode | cmd->instruction_mode |
 1282              		.loc 1 555 32
 1283 0086 8327C4FE 		lw	a5,-20(s0)
 1284 008a DC47     		lw	a5,12(a5)
 554:../Firmware/GD32VW55x_standard_peripheral/Source/gd32vw55x_qspi.c ****                             cmd->altebytes_size | cmd->altebytes_mode |
 1285              		.loc 1 554 71
 1286 008c 5D8F     		or	a4,a4,a5
 1287              		.loc 1 555 49
 1288 008e 8327C4FE 		lw	a5,-20(s0)
 1289 0092 9C47     		lw	a5,8(a5)
 1290              		.loc 1 555 44
 1291 0094 5D8F     		or	a4,a4,a5
 1292              		.loc 1 555 66
 1293 0096 8327C4FE 		lw	a5,-20(s0)
 1294 009a 9C43     		lw	a5,0(a5)
 1295              		.loc 1 555 61
 1296 009c 5D8F     		or	a4,a4,a5
 556:../Firmware/GD32VW55x_standard_peripheral/Source/gd32vw55x_qspi.c ****                             cmd->instruction | functionalmode;
 1297              		.loc 1 556 32
 1298 009e 8327C4FE 		lw	a5,-20(s0)
 1299 00a2 DC43     		lw	a5,4(a5)
 555:../Firmware/GD32VW55x_standard_peripheral/Source/gd32vw55x_qspi.c ****                             cmd->addr_size | cmd->addr_mode | cmd->instruction_mode |
 1300              		.loc 1 555 85
 1301 00a4 B366F700 		or	a3,a4,a5
 553:../Firmware/GD32VW55x_standard_peripheral/Source/gd32vw55x_qspi.c ****                             cmd->altebytes_size | cmd->altebytes_mode |
 1302              		.loc 1 553 17
 1303 00a8 B7670240 		li	a5,1073897472
 1304 00ac 93874781 		addi	a5,a5,-2028
 1305              		.loc 1 556 46
 1306 00b0 032784FE 		lw	a4,-24(s0)
 1307 00b4 558F     		or	a4,a3,a4
 553:../Firmware/GD32VW55x_standard_peripheral/Source/gd32vw55x_qspi.c ****                             cmd->altebytes_size | cmd->altebytes_mode |
 1308              		.loc 1 553 27
 1309 00b6 98C3     		sw	a4,0(a5)
 557:../Firmware/GD32VW55x_standard_peripheral/Source/gd32vw55x_qspi.c **** 
 558:../Firmware/GD32VW55x_standard_peripheral/Source/gd32vw55x_qspi.c ****                 if(functionalmode != QSPI_MEMORY_MAPPED) {
 1310              		.loc 1 558 19
 1311 00b8 032784FE 		lw	a4,-24(s0)
 1312 00bc B707000C 		li	a5,201326592
 1313 00c0 6302F72C 		beq	a4,a5,.L55
 559:../Firmware/GD32VW55x_standard_peripheral/Source/gd32vw55x_qspi.c ****                     /* configure QSPI_ADDR register with address value */
 560:../Firmware/GD32VW55x_standard_peripheral/Source/gd32vw55x_qspi.c ****                     QSPI_ADDR = cmd->addr;
 1314              		.loc 1 560 21
 1315 00c4 B7670240 		li	a5,1073897472
 1316 00c8 93878781 		addi	a5,a5,-2024
 1317              		.loc 1 560 36
 1318 00cc 0327C4FE 		lw	a4,-20(s0)
 1319 00d0 184B     		lw	a4,16(a4)
 1320              		.loc 1 560 31
 1321 00d2 98C3     		sw	a4,0(a5)
 561:../Firmware/GD32VW55x_standard_peripheral/Source/gd32vw55x_qspi.c ****                 }
 562:../Firmware/GD32VW55x_standard_peripheral/Source/gd32vw55x_qspi.c ****             } else {
 563:../Firmware/GD32VW55x_standard_peripheral/Source/gd32vw55x_qspi.c ****                 /* command with instruction and alternate bytes */
 564:../Firmware/GD32VW55x_standard_peripheral/Source/gd32vw55x_qspi.c ****                 /* configure QSPI_TCFG register with all communications parameters */
 565:../Firmware/GD32VW55x_standard_peripheral/Source/gd32vw55x_qspi.c ****                 QSPI_TCFG = cmd->data_mode | (cmd->dummycycles << TCFG_DUMYC_OFFSET) | cmd->sioo_mo
 566:../Firmware/GD32VW55x_standard_peripheral/Source/gd32vw55x_qspi.c ****                             cmd->altebytes_size | cmd->altebytes_mode |
 567:../Firmware/GD32VW55x_standard_peripheral/Source/gd32vw55x_qspi.c ****                             cmd->addr_mode | cmd->instruction_mode |
 568:../Firmware/GD32VW55x_standard_peripheral/Source/gd32vw55x_qspi.c ****                             cmd->instruction | functionalmode;
 569:../Firmware/GD32VW55x_standard_peripheral/Source/gd32vw55x_qspi.c ****             }
 570:../Firmware/GD32VW55x_standard_peripheral/Source/gd32vw55x_qspi.c ****         } else {
 571:../Firmware/GD32VW55x_standard_peripheral/Source/gd32vw55x_qspi.c ****             if(cmd->addr_mode != QSPI_ADDR_NONE) {
 572:../Firmware/GD32VW55x_standard_peripheral/Source/gd32vw55x_qspi.c ****                 /* command with instruction and address */
 573:../Firmware/GD32VW55x_standard_peripheral/Source/gd32vw55x_qspi.c ****                 /* configure QSPI_TCFG register with all communications parameters */
 574:../Firmware/GD32VW55x_standard_peripheral/Source/gd32vw55x_qspi.c ****                 QSPI_TCFG = cmd->data_mode | (cmd->dummycycles << TCFG_DUMYC_OFFSET) | cmd->sioo_mo
 575:../Firmware/GD32VW55x_standard_peripheral/Source/gd32vw55x_qspi.c ****                             cmd->altebytes_mode | cmd->addr_size | cmd->addr_mode |
 576:../Firmware/GD32VW55x_standard_peripheral/Source/gd32vw55x_qspi.c ****                             cmd->instruction_mode | cmd->instruction | functionalmode;
 577:../Firmware/GD32VW55x_standard_peripheral/Source/gd32vw55x_qspi.c **** 
 578:../Firmware/GD32VW55x_standard_peripheral/Source/gd32vw55x_qspi.c ****                 if(functionalmode != QSPI_MEMORY_MAPPED) {
 579:../Firmware/GD32VW55x_standard_peripheral/Source/gd32vw55x_qspi.c ****                     /* configure QSPI_ADDR register with address value */
 580:../Firmware/GD32VW55x_standard_peripheral/Source/gd32vw55x_qspi.c ****                     QSPI_ADDR = cmd->addr;
 581:../Firmware/GD32VW55x_standard_peripheral/Source/gd32vw55x_qspi.c ****                 }
 582:../Firmware/GD32VW55x_standard_peripheral/Source/gd32vw55x_qspi.c ****             } else {
 583:../Firmware/GD32VW55x_standard_peripheral/Source/gd32vw55x_qspi.c ****                 /* command with only instruction */
 584:../Firmware/GD32VW55x_standard_peripheral/Source/gd32vw55x_qspi.c ****                 /* configure QSPI_TCFG register with all communications parameters */
 585:../Firmware/GD32VW55x_standard_peripheral/Source/gd32vw55x_qspi.c ****                 QSPI_TCFG = cmd->data_mode | (cmd->dummycycles << TCFG_DUMYC_OFFSET) | cmd->sioo_mo
 586:../Firmware/GD32VW55x_standard_peripheral/Source/gd32vw55x_qspi.c ****                             cmd->altebytes_mode | cmd->addr_mode | cmd->instruction_mode |
 587:../Firmware/GD32VW55x_standard_peripheral/Source/gd32vw55x_qspi.c ****                             cmd->instruction | functionalmode;
 588:../Firmware/GD32VW55x_standard_peripheral/Source/gd32vw55x_qspi.c ****             }
 589:../Firmware/GD32VW55x_standard_peripheral/Source/gd32vw55x_qspi.c ****         }
 590:../Firmware/GD32VW55x_standard_peripheral/Source/gd32vw55x_qspi.c ****     } else {
 591:../Firmware/GD32VW55x_standard_peripheral/Source/gd32vw55x_qspi.c ****         if(cmd->altebytes_mode != QSPI_ALTE_BYTES_NONE) {
 592:../Firmware/GD32VW55x_standard_peripheral/Source/gd32vw55x_qspi.c ****             /* configure QSPI_ALTE register with alternate bytes value */
 593:../Firmware/GD32VW55x_standard_peripheral/Source/gd32vw55x_qspi.c ****             QSPI_ALTE = cmd->altebytes;
 594:../Firmware/GD32VW55x_standard_peripheral/Source/gd32vw55x_qspi.c **** 
 595:../Firmware/GD32VW55x_standard_peripheral/Source/gd32vw55x_qspi.c ****             if(cmd->addr_mode != QSPI_ADDR_NONE) {
 596:../Firmware/GD32VW55x_standard_peripheral/Source/gd32vw55x_qspi.c ****                 /* command with address and alternate bytes */
 597:../Firmware/GD32VW55x_standard_peripheral/Source/gd32vw55x_qspi.c ****                 /* configure QSPI_TCFG register with all communications parameters */
 598:../Firmware/GD32VW55x_standard_peripheral/Source/gd32vw55x_qspi.c ****                 QSPI_TCFG = cmd->data_mode | (cmd->dummycycles << TCFG_DUMYC_OFFSET) | cmd->sioo_mo
 599:../Firmware/GD32VW55x_standard_peripheral/Source/gd32vw55x_qspi.c ****                             cmd->altebytes_mode | cmd->altebytes_size | cmd->addr_size |
 600:../Firmware/GD32VW55x_standard_peripheral/Source/gd32vw55x_qspi.c ****                             cmd->addr_mode | cmd->instruction_mode | functionalmode;
 601:../Firmware/GD32VW55x_standard_peripheral/Source/gd32vw55x_qspi.c **** 
 602:../Firmware/GD32VW55x_standard_peripheral/Source/gd32vw55x_qspi.c ****                 if(functionalmode != QSPI_MEMORY_MAPPED) {
 603:../Firmware/GD32VW55x_standard_peripheral/Source/gd32vw55x_qspi.c ****                     /* configure QSPI_ADDR register with address value */
 604:../Firmware/GD32VW55x_standard_peripheral/Source/gd32vw55x_qspi.c ****                     QSPI_ADDR = cmd->addr;
 605:../Firmware/GD32VW55x_standard_peripheral/Source/gd32vw55x_qspi.c ****                 }
 606:../Firmware/GD32VW55x_standard_peripheral/Source/gd32vw55x_qspi.c ****             } else {
 607:../Firmware/GD32VW55x_standard_peripheral/Source/gd32vw55x_qspi.c ****                 /* command with only alternate bytes */
 608:../Firmware/GD32VW55x_standard_peripheral/Source/gd32vw55x_qspi.c ****                 /* configure QSPI_TCFG register with all communications parameters */
 609:../Firmware/GD32VW55x_standard_peripheral/Source/gd32vw55x_qspi.c ****                 QSPI_TCFG = cmd->data_mode | (cmd->dummycycles << TCFG_DUMYC_OFFSET) | cmd->sioo_mo
 610:../Firmware/GD32VW55x_standard_peripheral/Source/gd32vw55x_qspi.c ****                             cmd->altebytes_mode | cmd->altebytes_size |
 611:../Firmware/GD32VW55x_standard_peripheral/Source/gd32vw55x_qspi.c ****                             cmd->addr_mode | cmd->instruction_mode | functionalmode;
 612:../Firmware/GD32VW55x_standard_peripheral/Source/gd32vw55x_qspi.c ****             }
 613:../Firmware/GD32VW55x_standard_peripheral/Source/gd32vw55x_qspi.c ****         } else {
 614:../Firmware/GD32VW55x_standard_peripheral/Source/gd32vw55x_qspi.c ****             if(cmd->addr_mode != QSPI_ADDR_NONE) {
 615:../Firmware/GD32VW55x_standard_peripheral/Source/gd32vw55x_qspi.c ****                 /* command with only address */
 616:../Firmware/GD32VW55x_standard_peripheral/Source/gd32vw55x_qspi.c ****                 /* configure QSPI_TCFG register with all communications parameters */
 617:../Firmware/GD32VW55x_standard_peripheral/Source/gd32vw55x_qspi.c ****                 QSPI_TCFG = cmd->data_mode | (cmd->dummycycles << TCFG_DUMYC_OFFSET) | cmd->sioo_mo
 618:../Firmware/GD32VW55x_standard_peripheral/Source/gd32vw55x_qspi.c ****                             cmd->altebytes_mode | cmd->addr_size |
 619:../Firmware/GD32VW55x_standard_peripheral/Source/gd32vw55x_qspi.c ****                             cmd->addr_mode | cmd->instruction_mode | functionalmode;
 620:../Firmware/GD32VW55x_standard_peripheral/Source/gd32vw55x_qspi.c **** 
 621:../Firmware/GD32VW55x_standard_peripheral/Source/gd32vw55x_qspi.c ****                 if(functionalmode != QSPI_MEMORY_MAPPED) {
 622:../Firmware/GD32VW55x_standard_peripheral/Source/gd32vw55x_qspi.c ****                     /* configure QSPI_ADDR register with address value */
 623:../Firmware/GD32VW55x_standard_peripheral/Source/gd32vw55x_qspi.c ****                     QSPI_ADDR = cmd->addr;
 624:../Firmware/GD32VW55x_standard_peripheral/Source/gd32vw55x_qspi.c ****                 }
 625:../Firmware/GD32VW55x_standard_peripheral/Source/gd32vw55x_qspi.c ****             } else {
 626:../Firmware/GD32VW55x_standard_peripheral/Source/gd32vw55x_qspi.c ****                 /* command with only data phase */
 627:../Firmware/GD32VW55x_standard_peripheral/Source/gd32vw55x_qspi.c ****                 if(cmd->data_mode != QSPI_DATA_NONE) {
 628:../Firmware/GD32VW55x_standard_peripheral/Source/gd32vw55x_qspi.c ****                     /* configure QSPI_TCFG register with all communications parameters */
 629:../Firmware/GD32VW55x_standard_peripheral/Source/gd32vw55x_qspi.c ****                     QSPI_TCFG = cmd->data_mode | (cmd->dummycycles << TCFG_DUMYC_OFFSET) | cmd->sio
 630:../Firmware/GD32VW55x_standard_peripheral/Source/gd32vw55x_qspi.c ****                                 cmd->altebytes_mode | cmd->addr_mode |
 631:../Firmware/GD32VW55x_standard_peripheral/Source/gd32vw55x_qspi.c ****                                 cmd->instruction_mode | functionalmode;
 632:../Firmware/GD32VW55x_standard_peripheral/Source/gd32vw55x_qspi.c ****                 }
 633:../Firmware/GD32VW55x_standard_peripheral/Source/gd32vw55x_qspi.c ****             }
 634:../Firmware/GD32VW55x_standard_peripheral/Source/gd32vw55x_qspi.c ****         }
 635:../Firmware/GD32VW55x_standard_peripheral/Source/gd32vw55x_qspi.c ****     }
 636:../Firmware/GD32VW55x_standard_peripheral/Source/gd32vw55x_qspi.c **** }
 1322              		.loc 1 636 1
 1323 00d4 45AC     		j	.L55
 1324              	.L49:
 565:../Firmware/GD32VW55x_standard_peripheral/Source/gd32vw55x_qspi.c ****                             cmd->altebytes_size | cmd->altebytes_mode |
 1325              		.loc 1 565 32
 1326 00d6 8327C4FE 		lw	a5,-20(s0)
 1327 00da D853     		lw	a4,36(a5)
 565:../Firmware/GD32VW55x_standard_peripheral/Source/gd32vw55x_qspi.c ****                             cmd->altebytes_size | cmd->altebytes_mode |
 1328              		.loc 1 565 50
 1329 00dc 8327C4FE 		lw	a5,-20(s0)
 1330 00e0 9C53     		lw	a5,32(a5)
 565:../Firmware/GD32VW55x_standard_peripheral/Source/gd32vw55x_qspi.c ****                             cmd->altebytes_size | cmd->altebytes_mode |
 1331              		.loc 1 565 64
 1332 00e2 CA07     		slli	a5,a5,18
 565:../Firmware/GD32VW55x_standard_peripheral/Source/gd32vw55x_qspi.c ****                             cmd->altebytes_size | cmd->altebytes_mode |
 1333              		.loc 1 565 44
 1334 00e4 5D8F     		or	a4,a4,a5
 565:../Firmware/GD32VW55x_standard_peripheral/Source/gd32vw55x_qspi.c ****                             cmd->altebytes_size | cmd->altebytes_mode |
 1335              		.loc 1 565 91
 1336 00e6 8327C4FE 		lw	a5,-20(s0)
 1337 00ea DC57     		lw	a5,44(a5)
 565:../Firmware/GD32VW55x_standard_peripheral/Source/gd32vw55x_qspi.c ****                             cmd->altebytes_size | cmd->altebytes_mode |
 1338              		.loc 1 565 86
 1339 00ec 5D8F     		or	a4,a4,a5
 566:../Firmware/GD32VW55x_standard_peripheral/Source/gd32vw55x_qspi.c ****                             cmd->addr_mode | cmd->instruction_mode |
 1340              		.loc 1 566 32
 1341 00ee 8327C4FE 		lw	a5,-20(s0)
 1342 00f2 9C4F     		lw	a5,24(a5)
 565:../Firmware/GD32VW55x_standard_peripheral/Source/gd32vw55x_qspi.c ****                             cmd->altebytes_size | cmd->altebytes_mode |
 1343              		.loc 1 565 103
 1344 00f4 5D8F     		or	a4,a4,a5
 566:../Firmware/GD32VW55x_standard_peripheral/Source/gd32vw55x_qspi.c ****                             cmd->addr_mode | cmd->instruction_mode |
 1345              		.loc 1 566 54
 1346 00f6 8327C4FE 		lw	a5,-20(s0)
 1347 00fa DC4B     		lw	a5,20(a5)
 566:../Firmware/GD32VW55x_standard_peripheral/Source/gd32vw55x_qspi.c ****                             cmd->addr_mode | cmd->instruction_mode |
 1348              		.loc 1 566 49
 1349 00fc 5D8F     		or	a4,a4,a5
 567:../Firmware/GD32VW55x_standard_peripheral/Source/gd32vw55x_qspi.c ****                             cmd->instruction | functionalmode;
 1350              		.loc 1 567 32
 1351 00fe 8327C4FE 		lw	a5,-20(s0)
 1352 0102 9C47     		lw	a5,8(a5)
 566:../Firmware/GD32VW55x_standard_peripheral/Source/gd32vw55x_qspi.c ****                             cmd->addr_mode | cmd->instruction_mode |
 1353              		.loc 1 566 71
 1354 0104 5D8F     		or	a4,a4,a5
 567:../Firmware/GD32VW55x_standard_peripheral/Source/gd32vw55x_qspi.c ****                             cmd->instruction | functionalmode;
 1355              		.loc 1 567 49
 1356 0106 8327C4FE 		lw	a5,-20(s0)
 1357 010a 9C43     		lw	a5,0(a5)
 567:../Firmware/GD32VW55x_standard_peripheral/Source/gd32vw55x_qspi.c ****                             cmd->instruction | functionalmode;
 1358              		.loc 1 567 44
 1359 010c 5D8F     		or	a4,a4,a5
 568:../Firmware/GD32VW55x_standard_peripheral/Source/gd32vw55x_qspi.c ****             }
 1360              		.loc 1 568 32
 1361 010e 8327C4FE 		lw	a5,-20(s0)
 1362 0112 DC43     		lw	a5,4(a5)
 567:../Firmware/GD32VW55x_standard_peripheral/Source/gd32vw55x_qspi.c ****                             cmd->instruction | functionalmode;
 1363              		.loc 1 567 68
 1364 0114 B366F700 		or	a3,a4,a5
 565:../Firmware/GD32VW55x_standard_peripheral/Source/gd32vw55x_qspi.c ****                             cmd->altebytes_size | cmd->altebytes_mode |
 1365              		.loc 1 565 17
 1366 0118 B7670240 		li	a5,1073897472
 1367 011c 93874781 		addi	a5,a5,-2028
 568:../Firmware/GD32VW55x_standard_peripheral/Source/gd32vw55x_qspi.c ****             }
 1368              		.loc 1 568 46
 1369 0120 032784FE 		lw	a4,-24(s0)
 1370 0124 558F     		or	a4,a3,a4
 565:../Firmware/GD32VW55x_standard_peripheral/Source/gd32vw55x_qspi.c ****                             cmd->altebytes_size | cmd->altebytes_mode |
 1371              		.loc 1 565 27
 1372 0126 98C3     		sw	a4,0(a5)
 1373              		.loc 1 636 1
 1374 0128 B1AC     		j	.L55
 1375              	.L48:
 571:../Firmware/GD32VW55x_standard_peripheral/Source/gd32vw55x_qspi.c ****                 /* command with instruction and address */
 1376              		.loc 1 571 19
 1377 012a 8327C4FE 		lw	a5,-20(s0)
 1378 012e 9C47     		lw	a5,8(a5)
 571:../Firmware/GD32VW55x_standard_peripheral/Source/gd32vw55x_qspi.c ****                 /* command with instruction and address */
 1379              		.loc 1 571 15
 1380 0130 ADCB     		beq	a5,zero,.L51
 574:../Firmware/GD32VW55x_standard_peripheral/Source/gd32vw55x_qspi.c ****                             cmd->altebytes_mode | cmd->addr_size | cmd->addr_mode |
 1381              		.loc 1 574 32
 1382 0132 8327C4FE 		lw	a5,-20(s0)
 1383 0136 D853     		lw	a4,36(a5)
 574:../Firmware/GD32VW55x_standard_peripheral/Source/gd32vw55x_qspi.c ****                             cmd->altebytes_mode | cmd->addr_size | cmd->addr_mode |
 1384              		.loc 1 574 50
 1385 0138 8327C4FE 		lw	a5,-20(s0)
 1386 013c 9C53     		lw	a5,32(a5)
 574:../Firmware/GD32VW55x_standard_peripheral/Source/gd32vw55x_qspi.c ****                             cmd->altebytes_mode | cmd->addr_size | cmd->addr_mode |
 1387              		.loc 1 574 64
 1388 013e CA07     		slli	a5,a5,18
 574:../Firmware/GD32VW55x_standard_peripheral/Source/gd32vw55x_qspi.c ****                             cmd->altebytes_mode | cmd->addr_size | cmd->addr_mode |
 1389              		.loc 1 574 44
 1390 0140 5D8F     		or	a4,a4,a5
 574:../Firmware/GD32VW55x_standard_peripheral/Source/gd32vw55x_qspi.c ****                             cmd->altebytes_mode | cmd->addr_size | cmd->addr_mode |
 1391              		.loc 1 574 91
 1392 0142 8327C4FE 		lw	a5,-20(s0)
 1393 0146 DC57     		lw	a5,44(a5)
 574:../Firmware/GD32VW55x_standard_peripheral/Source/gd32vw55x_qspi.c ****                             cmd->altebytes_mode | cmd->addr_size | cmd->addr_mode |
 1394              		.loc 1 574 86
 1395 0148 5D8F     		or	a4,a4,a5
 575:../Firmware/GD32VW55x_standard_peripheral/Source/gd32vw55x_qspi.c ****                             cmd->instruction_mode | cmd->instruction | functionalmode;
 1396              		.loc 1 575 32
 1397 014a 8327C4FE 		lw	a5,-20(s0)
 1398 014e DC4B     		lw	a5,20(a5)
 574:../Firmware/GD32VW55x_standard_peripheral/Source/gd32vw55x_qspi.c ****                             cmd->altebytes_mode | cmd->addr_size | cmd->addr_mode |
 1399              		.loc 1 574 103
 1400 0150 5D8F     		or	a4,a4,a5
 575:../Firmware/GD32VW55x_standard_peripheral/Source/gd32vw55x_qspi.c ****                             cmd->instruction_mode | cmd->instruction | functionalmode;
 1401              		.loc 1 575 54
 1402 0152 8327C4FE 		lw	a5,-20(s0)
 1403 0156 DC47     		lw	a5,12(a5)
 575:../Firmware/GD32VW55x_standard_peripheral/Source/gd32vw55x_qspi.c ****                             cmd->instruction_mode | cmd->instruction | functionalmode;
 1404              		.loc 1 575 49
 1405 0158 5D8F     		or	a4,a4,a5
 575:../Firmware/GD32VW55x_standard_peripheral/Source/gd32vw55x_qspi.c ****                             cmd->instruction_mode | cmd->instruction | functionalmode;
 1406              		.loc 1 575 71
 1407 015a 8327C4FE 		lw	a5,-20(s0)
 1408 015e 9C47     		lw	a5,8(a5)
 575:../Firmware/GD32VW55x_standard_peripheral/Source/gd32vw55x_qspi.c ****                             cmd->instruction_mode | cmd->instruction | functionalmode;
 1409              		.loc 1 575 66
 1410 0160 5D8F     		or	a4,a4,a5
 576:../Firmware/GD32VW55x_standard_peripheral/Source/gd32vw55x_qspi.c **** 
 1411              		.loc 1 576 32
 1412 0162 8327C4FE 		lw	a5,-20(s0)
 1413 0166 9C43     		lw	a5,0(a5)
 575:../Firmware/GD32VW55x_standard_peripheral/Source/gd32vw55x_qspi.c ****                             cmd->instruction_mode | cmd->instruction | functionalmode;
 1414              		.loc 1 575 83
 1415 0168 5D8F     		or	a4,a4,a5
 576:../Firmware/GD32VW55x_standard_peripheral/Source/gd32vw55x_qspi.c **** 
 1416              		.loc 1 576 56
 1417 016a 8327C4FE 		lw	a5,-20(s0)
 1418 016e DC43     		lw	a5,4(a5)
 576:../Firmware/GD32VW55x_standard_peripheral/Source/gd32vw55x_qspi.c **** 
 1419              		.loc 1 576 51
 1420 0170 B366F700 		or	a3,a4,a5
 574:../Firmware/GD32VW55x_standard_peripheral/Source/gd32vw55x_qspi.c ****                             cmd->altebytes_mode | cmd->addr_size | cmd->addr_mode |
 1421              		.loc 1 574 17
 1422 0174 B7670240 		li	a5,1073897472
 1423 0178 93874781 		addi	a5,a5,-2028
 576:../Firmware/GD32VW55x_standard_peripheral/Source/gd32vw55x_qspi.c **** 
 1424              		.loc 1 576 70
 1425 017c 032784FE 		lw	a4,-24(s0)
 1426 0180 558F     		or	a4,a3,a4
 574:../Firmware/GD32VW55x_standard_peripheral/Source/gd32vw55x_qspi.c ****                             cmd->altebytes_mode | cmd->addr_size | cmd->addr_mode |
 1427              		.loc 1 574 27
 1428 0182 98C3     		sw	a4,0(a5)
 578:../Firmware/GD32VW55x_standard_peripheral/Source/gd32vw55x_qspi.c ****                     /* configure QSPI_ADDR register with address value */
 1429              		.loc 1 578 19
 1430 0184 032784FE 		lw	a4,-24(s0)
 1431 0188 B707000C 		li	a5,201326592
 1432 018c 630CF71E 		beq	a4,a5,.L55
 580:../Firmware/GD32VW55x_standard_peripheral/Source/gd32vw55x_qspi.c ****                 }
 1433              		.loc 1 580 21
 1434 0190 B7670240 		li	a5,1073897472
 1435 0194 93878781 		addi	a5,a5,-2024
 580:../Firmware/GD32VW55x_standard_peripheral/Source/gd32vw55x_qspi.c ****                 }
 1436              		.loc 1 580 36
 1437 0198 0327C4FE 		lw	a4,-20(s0)
 1438 019c 184B     		lw	a4,16(a4)
 580:../Firmware/GD32VW55x_standard_peripheral/Source/gd32vw55x_qspi.c ****                 }
 1439              		.loc 1 580 31
 1440 019e 98C3     		sw	a4,0(a5)
 1441              		.loc 1 636 1
 1442 01a0 D5A2     		j	.L55
 1443              	.L51:
 585:../Firmware/GD32VW55x_standard_peripheral/Source/gd32vw55x_qspi.c ****                             cmd->altebytes_mode | cmd->addr_mode | cmd->instruction_mode |
 1444              		.loc 1 585 32
 1445 01a2 8327C4FE 		lw	a5,-20(s0)
 1446 01a6 D853     		lw	a4,36(a5)
 585:../Firmware/GD32VW55x_standard_peripheral/Source/gd32vw55x_qspi.c ****                             cmd->altebytes_mode | cmd->addr_mode | cmd->instruction_mode |
 1447              		.loc 1 585 50
 1448 01a8 8327C4FE 		lw	a5,-20(s0)
 1449 01ac 9C53     		lw	a5,32(a5)
 585:../Firmware/GD32VW55x_standard_peripheral/Source/gd32vw55x_qspi.c ****                             cmd->altebytes_mode | cmd->addr_mode | cmd->instruction_mode |
 1450              		.loc 1 585 64
 1451 01ae CA07     		slli	a5,a5,18
 585:../Firmware/GD32VW55x_standard_peripheral/Source/gd32vw55x_qspi.c ****                             cmd->altebytes_mode | cmd->addr_mode | cmd->instruction_mode |
 1452              		.loc 1 585 44
 1453 01b0 5D8F     		or	a4,a4,a5
 585:../Firmware/GD32VW55x_standard_peripheral/Source/gd32vw55x_qspi.c ****                             cmd->altebytes_mode | cmd->addr_mode | cmd->instruction_mode |
 1454              		.loc 1 585 91
 1455 01b2 8327C4FE 		lw	a5,-20(s0)
 1456 01b6 DC57     		lw	a5,44(a5)
 585:../Firmware/GD32VW55x_standard_peripheral/Source/gd32vw55x_qspi.c ****                             cmd->altebytes_mode | cmd->addr_mode | cmd->instruction_mode |
 1457              		.loc 1 585 86
 1458 01b8 5D8F     		or	a4,a4,a5
 586:../Firmware/GD32VW55x_standard_peripheral/Source/gd32vw55x_qspi.c ****                             cmd->instruction | functionalmode;
 1459              		.loc 1 586 32
 1460 01ba 8327C4FE 		lw	a5,-20(s0)
 1461 01be DC4B     		lw	a5,20(a5)
 585:../Firmware/GD32VW55x_standard_peripheral/Source/gd32vw55x_qspi.c ****                             cmd->altebytes_mode | cmd->addr_mode | cmd->instruction_mode |
 1462              		.loc 1 585 103
 1463 01c0 5D8F     		or	a4,a4,a5
 586:../Firmware/GD32VW55x_standard_peripheral/Source/gd32vw55x_qspi.c ****                             cmd->instruction | functionalmode;
 1464              		.loc 1 586 54
 1465 01c2 8327C4FE 		lw	a5,-20(s0)
 1466 01c6 9C47     		lw	a5,8(a5)
 586:../Firmware/GD32VW55x_standard_peripheral/Source/gd32vw55x_qspi.c ****                             cmd->instruction | functionalmode;
 1467              		.loc 1 586 49
 1468 01c8 5D8F     		or	a4,a4,a5
 586:../Firmware/GD32VW55x_standard_peripheral/Source/gd32vw55x_qspi.c ****                             cmd->instruction | functionalmode;
 1469              		.loc 1 586 71
 1470 01ca 8327C4FE 		lw	a5,-20(s0)
 1471 01ce 9C43     		lw	a5,0(a5)
 586:../Firmware/GD32VW55x_standard_peripheral/Source/gd32vw55x_qspi.c ****                             cmd->instruction | functionalmode;
 1472              		.loc 1 586 66
 1473 01d0 5D8F     		or	a4,a4,a5
 587:../Firmware/GD32VW55x_standard_peripheral/Source/gd32vw55x_qspi.c ****             }
 1474              		.loc 1 587 32
 1475 01d2 8327C4FE 		lw	a5,-20(s0)
 1476 01d6 DC43     		lw	a5,4(a5)
 586:../Firmware/GD32VW55x_standard_peripheral/Source/gd32vw55x_qspi.c ****                             cmd->instruction | functionalmode;
 1477              		.loc 1 586 90
 1478 01d8 B366F700 		or	a3,a4,a5
 585:../Firmware/GD32VW55x_standard_peripheral/Source/gd32vw55x_qspi.c ****                             cmd->altebytes_mode | cmd->addr_mode | cmd->instruction_mode |
 1479              		.loc 1 585 17
 1480 01dc B7670240 		li	a5,1073897472
 1481 01e0 93874781 		addi	a5,a5,-2028
 587:../Firmware/GD32VW55x_standard_peripheral/Source/gd32vw55x_qspi.c ****             }
 1482              		.loc 1 587 46
 1483 01e4 032784FE 		lw	a4,-24(s0)
 1484 01e8 558F     		or	a4,a3,a4
 585:../Firmware/GD32VW55x_standard_peripheral/Source/gd32vw55x_qspi.c ****                             cmd->altebytes_mode | cmd->addr_mode | cmd->instruction_mode |
 1485              		.loc 1 585 27
 1486 01ea 98C3     		sw	a4,0(a5)
 1487              		.loc 1 636 1
 1488 01ec 61AA     		j	.L55
 1489              	.L47:
 591:../Firmware/GD32VW55x_standard_peripheral/Source/gd32vw55x_qspi.c ****             /* configure QSPI_ALTE register with alternate bytes value */
 1490              		.loc 1 591 15
 1491 01ee 8327C4FE 		lw	a5,-20(s0)
 1492 01f2 DC4B     		lw	a5,20(a5)
 591:../Firmware/GD32VW55x_standard_peripheral/Source/gd32vw55x_qspi.c ****             /* configure QSPI_ALTE register with alternate bytes value */
 1493              		.loc 1 591 11
 1494 01f4 F9CB     		beq	a5,zero,.L52
 593:../Firmware/GD32VW55x_standard_peripheral/Source/gd32vw55x_qspi.c **** 
 1495              		.loc 1 593 13
 1496 01f6 B7670240 		li	a5,1073897472
 1497 01fa 9387C781 		addi	a5,a5,-2020
 593:../Firmware/GD32VW55x_standard_peripheral/Source/gd32vw55x_qspi.c **** 
 1498              		.loc 1 593 28
 1499 01fe 0327C4FE 		lw	a4,-20(s0)
 1500 0202 584F     		lw	a4,28(a4)
 593:../Firmware/GD32VW55x_standard_peripheral/Source/gd32vw55x_qspi.c **** 
 1501              		.loc 1 593 23
 1502 0204 98C3     		sw	a4,0(a5)
 595:../Firmware/GD32VW55x_standard_peripheral/Source/gd32vw55x_qspi.c ****                 /* command with address and alternate bytes */
 1503              		.loc 1 595 19
 1504 0206 8327C4FE 		lw	a5,-20(s0)
 1505 020a 9C47     		lw	a5,8(a5)
 595:../Firmware/GD32VW55x_standard_peripheral/Source/gd32vw55x_qspi.c ****                 /* command with address and alternate bytes */
 1506              		.loc 1 595 15
 1507 020c ADCB     		beq	a5,zero,.L53
 598:../Firmware/GD32VW55x_standard_peripheral/Source/gd32vw55x_qspi.c ****                             cmd->altebytes_mode | cmd->altebytes_size | cmd->addr_size |
 1508              		.loc 1 598 32
 1509 020e 8327C4FE 		lw	a5,-20(s0)
 1510 0212 D853     		lw	a4,36(a5)
 598:../Firmware/GD32VW55x_standard_peripheral/Source/gd32vw55x_qspi.c ****                             cmd->altebytes_mode | cmd->altebytes_size | cmd->addr_size |
 1511              		.loc 1 598 50
 1512 0214 8327C4FE 		lw	a5,-20(s0)
 1513 0218 9C53     		lw	a5,32(a5)
 598:../Firmware/GD32VW55x_standard_peripheral/Source/gd32vw55x_qspi.c ****                             cmd->altebytes_mode | cmd->altebytes_size | cmd->addr_size |
 1514              		.loc 1 598 64
 1515 021a CA07     		slli	a5,a5,18
 598:../Firmware/GD32VW55x_standard_peripheral/Source/gd32vw55x_qspi.c ****                             cmd->altebytes_mode | cmd->altebytes_size | cmd->addr_size |
 1516              		.loc 1 598 44
 1517 021c 5D8F     		or	a4,a4,a5
 598:../Firmware/GD32VW55x_standard_peripheral/Source/gd32vw55x_qspi.c ****                             cmd->altebytes_mode | cmd->altebytes_size | cmd->addr_size |
 1518              		.loc 1 598 91
 1519 021e 8327C4FE 		lw	a5,-20(s0)
 1520 0222 DC57     		lw	a5,44(a5)
 598:../Firmware/GD32VW55x_standard_peripheral/Source/gd32vw55x_qspi.c ****                             cmd->altebytes_mode | cmd->altebytes_size | cmd->addr_size |
 1521              		.loc 1 598 86
 1522 0224 5D8F     		or	a4,a4,a5
 599:../Firmware/GD32VW55x_standard_peripheral/Source/gd32vw55x_qspi.c ****                             cmd->addr_mode | cmd->instruction_mode | functionalmode;
 1523              		.loc 1 599 32
 1524 0226 8327C4FE 		lw	a5,-20(s0)
 1525 022a DC4B     		lw	a5,20(a5)
 598:../Firmware/GD32VW55x_standard_peripheral/Source/gd32vw55x_qspi.c ****                             cmd->altebytes_mode | cmd->altebytes_size | cmd->addr_size |
 1526              		.loc 1 598 103
 1527 022c 5D8F     		or	a4,a4,a5
 599:../Firmware/GD32VW55x_standard_peripheral/Source/gd32vw55x_qspi.c ****                             cmd->addr_mode | cmd->instruction_mode | functionalmode;
 1528              		.loc 1 599 54
 1529 022e 8327C4FE 		lw	a5,-20(s0)
 1530 0232 9C4F     		lw	a5,24(a5)
 599:../Firmware/GD32VW55x_standard_peripheral/Source/gd32vw55x_qspi.c ****                             cmd->addr_mode | cmd->instruction_mode | functionalmode;
 1531              		.loc 1 599 49
 1532 0234 5D8F     		or	a4,a4,a5
 599:../Firmware/GD32VW55x_standard_peripheral/Source/gd32vw55x_qspi.c ****                             cmd->addr_mode | cmd->instruction_mode | functionalmode;
 1533              		.loc 1 599 76
 1534 0236 8327C4FE 		lw	a5,-20(s0)
 1535 023a DC47     		lw	a5,12(a5)
 599:../Firmware/GD32VW55x_standard_peripheral/Source/gd32vw55x_qspi.c ****                             cmd->addr_mode | cmd->instruction_mode | functionalmode;
 1536              		.loc 1 599 71
 1537 023c 5D8F     		or	a4,a4,a5
 600:../Firmware/GD32VW55x_standard_peripheral/Source/gd32vw55x_qspi.c **** 
 1538              		.loc 1 600 32
 1539 023e 8327C4FE 		lw	a5,-20(s0)
 1540 0242 9C47     		lw	a5,8(a5)
 599:../Firmware/GD32VW55x_standard_peripheral/Source/gd32vw55x_qspi.c ****                             cmd->addr_mode | cmd->instruction_mode | functionalmode;
 1541              		.loc 1 599 88
 1542 0244 5D8F     		or	a4,a4,a5
 600:../Firmware/GD32VW55x_standard_peripheral/Source/gd32vw55x_qspi.c **** 
 1543              		.loc 1 600 49
 1544 0246 8327C4FE 		lw	a5,-20(s0)
 1545 024a 9C43     		lw	a5,0(a5)
 600:../Firmware/GD32VW55x_standard_peripheral/Source/gd32vw55x_qspi.c **** 
 1546              		.loc 1 600 44
 1547 024c B366F700 		or	a3,a4,a5
 598:../Firmware/GD32VW55x_standard_peripheral/Source/gd32vw55x_qspi.c ****                             cmd->altebytes_mode | cmd->altebytes_size | cmd->addr_size |
 1548              		.loc 1 598 17
 1549 0250 B7670240 		li	a5,1073897472
 1550 0254 93874781 		addi	a5,a5,-2028
 600:../Firmware/GD32VW55x_standard_peripheral/Source/gd32vw55x_qspi.c **** 
 1551              		.loc 1 600 68
 1552 0258 032784FE 		lw	a4,-24(s0)
 1553 025c 558F     		or	a4,a3,a4
 598:../Firmware/GD32VW55x_standard_peripheral/Source/gd32vw55x_qspi.c ****                             cmd->altebytes_mode | cmd->altebytes_size | cmd->addr_size |
 1554              		.loc 1 598 27
 1555 025e 98C3     		sw	a4,0(a5)
 602:../Firmware/GD32VW55x_standard_peripheral/Source/gd32vw55x_qspi.c ****                     /* configure QSPI_ADDR register with address value */
 1556              		.loc 1 602 19
 1557 0260 032784FE 		lw	a4,-24(s0)
 1558 0264 B707000C 		li	a5,201326592
 1559 0268 630EF710 		beq	a4,a5,.L55
 604:../Firmware/GD32VW55x_standard_peripheral/Source/gd32vw55x_qspi.c ****                 }
 1560              		.loc 1 604 21
 1561 026c B7670240 		li	a5,1073897472
 1562 0270 93878781 		addi	a5,a5,-2024
 604:../Firmware/GD32VW55x_standard_peripheral/Source/gd32vw55x_qspi.c ****                 }
 1563              		.loc 1 604 36
 1564 0274 0327C4FE 		lw	a4,-20(s0)
 1565 0278 184B     		lw	a4,16(a4)
 604:../Firmware/GD32VW55x_standard_peripheral/Source/gd32vw55x_qspi.c ****                 }
 1566              		.loc 1 604 31
 1567 027a 98C3     		sw	a4,0(a5)
 1568              		.loc 1 636 1
 1569 027c 21A2     		j	.L55
 1570              	.L53:
 609:../Firmware/GD32VW55x_standard_peripheral/Source/gd32vw55x_qspi.c ****                             cmd->altebytes_mode | cmd->altebytes_size |
 1571              		.loc 1 609 32
 1572 027e 8327C4FE 		lw	a5,-20(s0)
 1573 0282 D853     		lw	a4,36(a5)
 609:../Firmware/GD32VW55x_standard_peripheral/Source/gd32vw55x_qspi.c ****                             cmd->altebytes_mode | cmd->altebytes_size |
 1574              		.loc 1 609 50
 1575 0284 8327C4FE 		lw	a5,-20(s0)
 1576 0288 9C53     		lw	a5,32(a5)
 609:../Firmware/GD32VW55x_standard_peripheral/Source/gd32vw55x_qspi.c ****                             cmd->altebytes_mode | cmd->altebytes_size |
 1577              		.loc 1 609 64
 1578 028a CA07     		slli	a5,a5,18
 609:../Firmware/GD32VW55x_standard_peripheral/Source/gd32vw55x_qspi.c ****                             cmd->altebytes_mode | cmd->altebytes_size |
 1579              		.loc 1 609 44
 1580 028c 5D8F     		or	a4,a4,a5
 609:../Firmware/GD32VW55x_standard_peripheral/Source/gd32vw55x_qspi.c ****                             cmd->altebytes_mode | cmd->altebytes_size |
 1581              		.loc 1 609 91
 1582 028e 8327C4FE 		lw	a5,-20(s0)
 1583 0292 DC57     		lw	a5,44(a5)
 609:../Firmware/GD32VW55x_standard_peripheral/Source/gd32vw55x_qspi.c ****                             cmd->altebytes_mode | cmd->altebytes_size |
 1584              		.loc 1 609 86
 1585 0294 5D8F     		or	a4,a4,a5
 610:../Firmware/GD32VW55x_standard_peripheral/Source/gd32vw55x_qspi.c ****                             cmd->addr_mode | cmd->instruction_mode | functionalmode;
 1586              		.loc 1 610 32
 1587 0296 8327C4FE 		lw	a5,-20(s0)
 1588 029a DC4B     		lw	a5,20(a5)
 609:../Firmware/GD32VW55x_standard_peripheral/Source/gd32vw55x_qspi.c ****                             cmd->altebytes_mode | cmd->altebytes_size |
 1589              		.loc 1 609 103
 1590 029c 5D8F     		or	a4,a4,a5
 610:../Firmware/GD32VW55x_standard_peripheral/Source/gd32vw55x_qspi.c ****                             cmd->addr_mode | cmd->instruction_mode | functionalmode;
 1591              		.loc 1 610 54
 1592 029e 8327C4FE 		lw	a5,-20(s0)
 1593 02a2 9C4F     		lw	a5,24(a5)
 610:../Firmware/GD32VW55x_standard_peripheral/Source/gd32vw55x_qspi.c ****                             cmd->addr_mode | cmd->instruction_mode | functionalmode;
 1594              		.loc 1 610 49
 1595 02a4 5D8F     		or	a4,a4,a5
 611:../Firmware/GD32VW55x_standard_peripheral/Source/gd32vw55x_qspi.c ****             }
 1596              		.loc 1 611 32
 1597 02a6 8327C4FE 		lw	a5,-20(s0)
 1598 02aa 9C47     		lw	a5,8(a5)
 610:../Firmware/GD32VW55x_standard_peripheral/Source/gd32vw55x_qspi.c ****                             cmd->addr_mode | cmd->instruction_mode | functionalmode;
 1599              		.loc 1 610 71
 1600 02ac 5D8F     		or	a4,a4,a5
 611:../Firmware/GD32VW55x_standard_peripheral/Source/gd32vw55x_qspi.c ****             }
 1601              		.loc 1 611 49
 1602 02ae 8327C4FE 		lw	a5,-20(s0)
 1603 02b2 9C43     		lw	a5,0(a5)
 611:../Firmware/GD32VW55x_standard_peripheral/Source/gd32vw55x_qspi.c ****             }
 1604              		.loc 1 611 44
 1605 02b4 B366F700 		or	a3,a4,a5
 609:../Firmware/GD32VW55x_standard_peripheral/Source/gd32vw55x_qspi.c ****                             cmd->altebytes_mode | cmd->altebytes_size |
 1606              		.loc 1 609 17
 1607 02b8 B7670240 		li	a5,1073897472
 1608 02bc 93874781 		addi	a5,a5,-2028
 611:../Firmware/GD32VW55x_standard_peripheral/Source/gd32vw55x_qspi.c ****             }
 1609              		.loc 1 611 68
 1610 02c0 032784FE 		lw	a4,-24(s0)
 1611 02c4 558F     		or	a4,a3,a4
 609:../Firmware/GD32VW55x_standard_peripheral/Source/gd32vw55x_qspi.c ****                             cmd->altebytes_mode | cmd->altebytes_size |
 1612              		.loc 1 609 27
 1613 02c6 98C3     		sw	a4,0(a5)
 1614              		.loc 1 636 1
 1615 02c8 75A8     		j	.L55
 1616              	.L52:
 614:../Firmware/GD32VW55x_standard_peripheral/Source/gd32vw55x_qspi.c ****                 /* command with only address */
 1617              		.loc 1 614 19
 1618 02ca 8327C4FE 		lw	a5,-20(s0)
 1619 02ce 9C47     		lw	a5,8(a5)
 614:../Firmware/GD32VW55x_standard_peripheral/Source/gd32vw55x_qspi.c ****                 /* command with only address */
 1620              		.loc 1 614 15
 1621 02d0 ADC7     		beq	a5,zero,.L54
 617:../Firmware/GD32VW55x_standard_peripheral/Source/gd32vw55x_qspi.c ****                             cmd->altebytes_mode | cmd->addr_size |
 1622              		.loc 1 617 32
 1623 02d2 8327C4FE 		lw	a5,-20(s0)
 1624 02d6 D853     		lw	a4,36(a5)
 617:../Firmware/GD32VW55x_standard_peripheral/Source/gd32vw55x_qspi.c ****                             cmd->altebytes_mode | cmd->addr_size |
 1625              		.loc 1 617 50
 1626 02d8 8327C4FE 		lw	a5,-20(s0)
 1627 02dc 9C53     		lw	a5,32(a5)
 617:../Firmware/GD32VW55x_standard_peripheral/Source/gd32vw55x_qspi.c ****                             cmd->altebytes_mode | cmd->addr_size |
 1628              		.loc 1 617 64
 1629 02de CA07     		slli	a5,a5,18
 617:../Firmware/GD32VW55x_standard_peripheral/Source/gd32vw55x_qspi.c ****                             cmd->altebytes_mode | cmd->addr_size |
 1630              		.loc 1 617 44
 1631 02e0 5D8F     		or	a4,a4,a5
 617:../Firmware/GD32VW55x_standard_peripheral/Source/gd32vw55x_qspi.c ****                             cmd->altebytes_mode | cmd->addr_size |
 1632              		.loc 1 617 91
 1633 02e2 8327C4FE 		lw	a5,-20(s0)
 1634 02e6 DC57     		lw	a5,44(a5)
 617:../Firmware/GD32VW55x_standard_peripheral/Source/gd32vw55x_qspi.c ****                             cmd->altebytes_mode | cmd->addr_size |
 1635              		.loc 1 617 86
 1636 02e8 5D8F     		or	a4,a4,a5
 618:../Firmware/GD32VW55x_standard_peripheral/Source/gd32vw55x_qspi.c ****                             cmd->addr_mode | cmd->instruction_mode | functionalmode;
 1637              		.loc 1 618 32
 1638 02ea 8327C4FE 		lw	a5,-20(s0)
 1639 02ee DC4B     		lw	a5,20(a5)
 617:../Firmware/GD32VW55x_standard_peripheral/Source/gd32vw55x_qspi.c ****                             cmd->altebytes_mode | cmd->addr_size |
 1640              		.loc 1 617 103
 1641 02f0 5D8F     		or	a4,a4,a5
 618:../Firmware/GD32VW55x_standard_peripheral/Source/gd32vw55x_qspi.c ****                             cmd->addr_mode | cmd->instruction_mode | functionalmode;
 1642              		.loc 1 618 54
 1643 02f2 8327C4FE 		lw	a5,-20(s0)
 1644 02f6 DC47     		lw	a5,12(a5)
 618:../Firmware/GD32VW55x_standard_peripheral/Source/gd32vw55x_qspi.c ****                             cmd->addr_mode | cmd->instruction_mode | functionalmode;
 1645              		.loc 1 618 49
 1646 02f8 5D8F     		or	a4,a4,a5
 619:../Firmware/GD32VW55x_standard_peripheral/Source/gd32vw55x_qspi.c **** 
 1647              		.loc 1 619 32
 1648 02fa 8327C4FE 		lw	a5,-20(s0)
 1649 02fe 9C47     		lw	a5,8(a5)
 618:../Firmware/GD32VW55x_standard_peripheral/Source/gd32vw55x_qspi.c ****                             cmd->addr_mode | cmd->instruction_mode | functionalmode;
 1650              		.loc 1 618 66
 1651 0300 5D8F     		or	a4,a4,a5
 619:../Firmware/GD32VW55x_standard_peripheral/Source/gd32vw55x_qspi.c **** 
 1652              		.loc 1 619 49
 1653 0302 8327C4FE 		lw	a5,-20(s0)
 1654 0306 9C43     		lw	a5,0(a5)
 619:../Firmware/GD32VW55x_standard_peripheral/Source/gd32vw55x_qspi.c **** 
 1655              		.loc 1 619 44
 1656 0308 B366F700 		or	a3,a4,a5
 617:../Firmware/GD32VW55x_standard_peripheral/Source/gd32vw55x_qspi.c ****                             cmd->altebytes_mode | cmd->addr_size |
 1657              		.loc 1 617 17
 1658 030c B7670240 		li	a5,1073897472
 1659 0310 93874781 		addi	a5,a5,-2028
 619:../Firmware/GD32VW55x_standard_peripheral/Source/gd32vw55x_qspi.c **** 
 1660              		.loc 1 619 68
 1661 0314 032784FE 		lw	a4,-24(s0)
 1662 0318 558F     		or	a4,a3,a4
 617:../Firmware/GD32VW55x_standard_peripheral/Source/gd32vw55x_qspi.c ****                             cmd->altebytes_mode | cmd->addr_size |
 1663              		.loc 1 617 27
 1664 031a 98C3     		sw	a4,0(a5)
 621:../Firmware/GD32VW55x_standard_peripheral/Source/gd32vw55x_qspi.c ****                     /* configure QSPI_ADDR register with address value */
 1665              		.loc 1 621 19
 1666 031c 032784FE 		lw	a4,-24(s0)
 1667 0320 B707000C 		li	a5,201326592
 1668 0324 6300F706 		beq	a4,a5,.L55
 623:../Firmware/GD32VW55x_standard_peripheral/Source/gd32vw55x_qspi.c ****                 }
 1669              		.loc 1 623 21
 1670 0328 B7670240 		li	a5,1073897472
 1671 032c 93878781 		addi	a5,a5,-2024
 623:../Firmware/GD32VW55x_standard_peripheral/Source/gd32vw55x_qspi.c ****                 }
 1672              		.loc 1 623 36
 1673 0330 0327C4FE 		lw	a4,-20(s0)
 1674 0334 184B     		lw	a4,16(a4)
 623:../Firmware/GD32VW55x_standard_peripheral/Source/gd32vw55x_qspi.c ****                 }
 1675              		.loc 1 623 31
 1676 0336 98C3     		sw	a4,0(a5)
 1677              		.loc 1 636 1
 1678 0338 B1A0     		j	.L55
 1679              	.L54:
 627:../Firmware/GD32VW55x_standard_peripheral/Source/gd32vw55x_qspi.c ****                     /* configure QSPI_TCFG register with all communications parameters */
 1680              		.loc 1 627 23
 1681 033a 8327C4FE 		lw	a5,-20(s0)
 1682 033e DC53     		lw	a5,36(a5)
 627:../Firmware/GD32VW55x_standard_peripheral/Source/gd32vw55x_qspi.c ****                     /* configure QSPI_TCFG register with all communications parameters */
 1683              		.loc 1 627 19
 1684 0340 B1C3     		beq	a5,zero,.L55
 629:../Firmware/GD32VW55x_standard_peripheral/Source/gd32vw55x_qspi.c ****                                 cmd->altebytes_mode | cmd->addr_mode |
 1685              		.loc 1 629 36
 1686 0342 8327C4FE 		lw	a5,-20(s0)
 1687 0346 D853     		lw	a4,36(a5)
 629:../Firmware/GD32VW55x_standard_peripheral/Source/gd32vw55x_qspi.c ****                                 cmd->altebytes_mode | cmd->addr_mode |
 1688              		.loc 1 629 54
 1689 0348 8327C4FE 		lw	a5,-20(s0)
 1690 034c 9C53     		lw	a5,32(a5)
 629:../Firmware/GD32VW55x_standard_peripheral/Source/gd32vw55x_qspi.c ****                                 cmd->altebytes_mode | cmd->addr_mode |
 1691              		.loc 1 629 68
 1692 034e CA07     		slli	a5,a5,18
 629:../Firmware/GD32VW55x_standard_peripheral/Source/gd32vw55x_qspi.c ****                                 cmd->altebytes_mode | cmd->addr_mode |
 1693              		.loc 1 629 48
 1694 0350 5D8F     		or	a4,a4,a5
 629:../Firmware/GD32VW55x_standard_peripheral/Source/gd32vw55x_qspi.c ****                                 cmd->altebytes_mode | cmd->addr_mode |
 1695              		.loc 1 629 95
 1696 0352 8327C4FE 		lw	a5,-20(s0)
 1697 0356 DC57     		lw	a5,44(a5)
 629:../Firmware/GD32VW55x_standard_peripheral/Source/gd32vw55x_qspi.c ****                                 cmd->altebytes_mode | cmd->addr_mode |
 1698              		.loc 1 629 90
 1699 0358 5D8F     		or	a4,a4,a5
 630:../Firmware/GD32VW55x_standard_peripheral/Source/gd32vw55x_qspi.c ****                                 cmd->instruction_mode | functionalmode;
 1700              		.loc 1 630 36
 1701 035a 8327C4FE 		lw	a5,-20(s0)
 1702 035e DC4B     		lw	a5,20(a5)
 629:../Firmware/GD32VW55x_standard_peripheral/Source/gd32vw55x_qspi.c ****                                 cmd->altebytes_mode | cmd->addr_mode |
 1703              		.loc 1 629 107
 1704 0360 5D8F     		or	a4,a4,a5
 630:../Firmware/GD32VW55x_standard_peripheral/Source/gd32vw55x_qspi.c ****                                 cmd->instruction_mode | functionalmode;
 1705              		.loc 1 630 58
 1706 0362 8327C4FE 		lw	a5,-20(s0)
 1707 0366 9C47     		lw	a5,8(a5)
 630:../Firmware/GD32VW55x_standard_peripheral/Source/gd32vw55x_qspi.c ****                                 cmd->instruction_mode | functionalmode;
 1708              		.loc 1 630 53
 1709 0368 5D8F     		or	a4,a4,a5
 631:../Firmware/GD32VW55x_standard_peripheral/Source/gd32vw55x_qspi.c ****                 }
 1710              		.loc 1 631 36
 1711 036a 8327C4FE 		lw	a5,-20(s0)
 1712 036e 9C43     		lw	a5,0(a5)
 630:../Firmware/GD32VW55x_standard_peripheral/Source/gd32vw55x_qspi.c ****                                 cmd->instruction_mode | functionalmode;
 1713              		.loc 1 630 70
 1714 0370 B366F700 		or	a3,a4,a5
 629:../Firmware/GD32VW55x_standard_peripheral/Source/gd32vw55x_qspi.c ****                                 cmd->altebytes_mode | cmd->addr_mode |
 1715              		.loc 1 629 21
 1716 0374 B7670240 		li	a5,1073897472
 1717 0378 93874781 		addi	a5,a5,-2028
 631:../Firmware/GD32VW55x_standard_peripheral/Source/gd32vw55x_qspi.c ****                 }
 1718              		.loc 1 631 55
 1719 037c 032784FE 		lw	a4,-24(s0)
 1720 0380 558F     		or	a4,a3,a4
 629:../Firmware/GD32VW55x_standard_peripheral/Source/gd32vw55x_qspi.c ****                                 cmd->altebytes_mode | cmd->addr_mode |
 1721              		.loc 1 629 31
 1722 0382 98C3     		sw	a4,0(a5)
 1723              	.L55:
 1724              		.loc 1 636 1
 1725 0384 0100     		nop
 1726 0386 7244     		lw	s0,28(sp)
 1727              		.cfi_restore 8
 1728              		.cfi_def_cfa 2, 32
 1729 0388 0561     		addi	sp,sp,32
 1730              		.cfi_def_cfa_offset 0
 1731 038a 8280     		jr	ra
 1732              		.cfi_endproc
 1733              	.LFE368:
 1735              		.text
 1736              	.Letext0:
 1737              		.file 2 "e:\\gd32\\gd32embeddedbuilder_v1.5.2.30854\\tools\\nuclei_riscv_newlibc_prebuilt_win32_20
 1738              		.file 3 "e:\\gd32\\gd32embeddedbuilder_v1.5.2.30854\\tools\\nuclei_riscv_newlibc_prebuilt_win32_20
 1739              		.file 4 "../Firmware/GD32VW55x_standard_peripheral/gd32vw55x.h"
 1740              		.file 5 "../Firmware/GD32VW55x_standard_peripheral/Include/gd32vw55x_rcu.h"
 1741              		.file 6 "../Firmware/GD32VW55x_standard_peripheral/Include/gd32vw55x_qspi.h"
DEFINED SYMBOLS
                            *ABS*:0000000000000000 gd32vw55x_qspi.c
C:\Users\CYMR90~1\AppData\Local\Temp\ccBmAAlS.s:13     .text.qspi_deinit:0000000000000000 qspi_deinit
C:\Users\CYMR90~1\AppData\Local\Temp\ccBmAAlS.s:17     .text.qspi_deinit:0000000000000000 .L0 
C:\Users\CYMR90~1\AppData\Local\Temp\ccBmAAlS.s:18     .text.qspi_deinit:0000000000000000 .L0 
C:\Users\CYMR90~1\AppData\Local\Temp\ccBmAAlS.s:19     .text.qspi_deinit:0000000000000002 .L0 
C:\Users\CYMR90~1\AppData\Local\Temp\ccBmAAlS.s:22     .text.qspi_deinit:0000000000000006 .L0 
C:\Users\CYMR90~1\AppData\Local\Temp\ccBmAAlS.s:23     .text.qspi_deinit:0000000000000006 .L0 
C:\Users\CYMR90~1\AppData\Local\Temp\ccBmAAlS.s:25     .text.qspi_deinit:0000000000000008 .L0 
C:\Users\CYMR90~1\AppData\Local\Temp\ccBmAAlS.s:27     .text.qspi_deinit:0000000000000008 .L0 
C:\Users\CYMR90~1\AppData\Local\Temp\ccBmAAlS.s:30     .text.qspi_deinit:0000000000000014 .L0 
C:\Users\CYMR90~1\AppData\Local\Temp\ccBmAAlS.s:33     .text.qspi_deinit:0000000000000020 .L0 
C:\Users\CYMR90~1\AppData\Local\Temp\ccBmAAlS.s:35     .text.qspi_deinit:0000000000000024 .L0 
C:\Users\CYMR90~1\AppData\Local\Temp\ccBmAAlS.s:37     .text.qspi_deinit:0000000000000026 .L0 
C:\Users\CYMR90~1\AppData\Local\Temp\ccBmAAlS.s:38     .text.qspi_deinit:0000000000000026 .L0 
C:\Users\CYMR90~1\AppData\Local\Temp\ccBmAAlS.s:40     .text.qspi_deinit:0000000000000028 .L0 
C:\Users\CYMR90~1\AppData\Local\Temp\ccBmAAlS.s:42     .text.qspi_deinit:000000000000002a .L0 
C:\Users\CYMR90~1\AppData\Local\Temp\ccBmAAlS.s:49     .text.qspi_struct_para_init:0000000000000000 qspi_struct_para_init
C:\Users\CYMR90~1\AppData\Local\Temp\ccBmAAlS.s:52     .text.qspi_struct_para_init:0000000000000000 .L0 
C:\Users\CYMR90~1\AppData\Local\Temp\ccBmAAlS.s:53     .text.qspi_struct_para_init:0000000000000000 .L0 
C:\Users\CYMR90~1\AppData\Local\Temp\ccBmAAlS.s:54     .text.qspi_struct_para_init:0000000000000002 .L0 
C:\Users\CYMR90~1\AppData\Local\Temp\ccBmAAlS.s:56     .text.qspi_struct_para_init:0000000000000004 .L0 
C:\Users\CYMR90~1\AppData\Local\Temp\ccBmAAlS.s:58     .text.qspi_struct_para_init:0000000000000006 .L0 
C:\Users\CYMR90~1\AppData\Local\Temp\ccBmAAlS.s:61     .text.qspi_struct_para_init:000000000000000a .L0 
C:\Users\CYMR90~1\AppData\Local\Temp\ccBmAAlS.s:64     .text.qspi_struct_para_init:0000000000000012 .L0 
C:\Users\CYMR90~1\AppData\Local\Temp\ccBmAAlS.s:68     .text.qspi_struct_para_init:000000000000001a .L0 
C:\Users\CYMR90~1\AppData\Local\Temp\ccBmAAlS.s:72     .text.qspi_struct_para_init:0000000000000022 .L0 
C:\Users\CYMR90~1\AppData\Local\Temp\ccBmAAlS.s:75     .text.qspi_struct_para_init:000000000000002a .L0 
C:\Users\CYMR90~1\AppData\Local\Temp\ccBmAAlS.s:79     .text.qspi_struct_para_init:0000000000000032 .L0 
C:\Users\CYMR90~1\AppData\Local\Temp\ccBmAAlS.s:82     .text.qspi_struct_para_init:000000000000003a .L0 
C:\Users\CYMR90~1\AppData\Local\Temp\ccBmAAlS.s:84     .text.qspi_struct_para_init:000000000000003e .L0 
C:\Users\CYMR90~1\AppData\Local\Temp\ccBmAAlS.s:85     .text.qspi_struct_para_init:000000000000003e .L0 
C:\Users\CYMR90~1\AppData\Local\Temp\ccBmAAlS.s:87     .text.qspi_struct_para_init:0000000000000040 .L0 
C:\Users\CYMR90~1\AppData\Local\Temp\ccBmAAlS.s:89     .text.qspi_struct_para_init:0000000000000042 .L0 
C:\Users\CYMR90~1\AppData\Local\Temp\ccBmAAlS.s:96     .text.qspi_cmd_struct_para_init:0000000000000000 qspi_cmd_struct_para_init
C:\Users\CYMR90~1\AppData\Local\Temp\ccBmAAlS.s:99     .text.qspi_cmd_struct_para_init:0000000000000000 .L0 
C:\Users\CYMR90~1\AppData\Local\Temp\ccBmAAlS.s:100    .text.qspi_cmd_struct_para_init:0000000000000000 .L0 
C:\Users\CYMR90~1\AppData\Local\Temp\ccBmAAlS.s:101    .text.qspi_cmd_struct_para_init:0000000000000002 .L0 
C:\Users\CYMR90~1\AppData\Local\Temp\ccBmAAlS.s:103    .text.qspi_cmd_struct_para_init:0000000000000004 .L0 
C:\Users\CYMR90~1\AppData\Local\Temp\ccBmAAlS.s:105    .text.qspi_cmd_struct_para_init:0000000000000006 .L0 
C:\Users\CYMR90~1\AppData\Local\Temp\ccBmAAlS.s:108    .text.qspi_cmd_struct_para_init:000000000000000a .L0 
C:\Users\CYMR90~1\AppData\Local\Temp\ccBmAAlS.s:111    .text.qspi_cmd_struct_para_init:0000000000000012 .L0 
C:\Users\CYMR90~1\AppData\Local\Temp\ccBmAAlS.s:114    .text.qspi_cmd_struct_para_init:000000000000001a .L0 
C:\Users\CYMR90~1\AppData\Local\Temp\ccBmAAlS.s:117    .text.qspi_cmd_struct_para_init:0000000000000022 .L0 
C:\Users\CYMR90~1\AppData\Local\Temp\ccBmAAlS.s:120    .text.qspi_cmd_struct_para_init:000000000000002a .L0 
C:\Users\CYMR90~1\AppData\Local\Temp\ccBmAAlS.s:123    .text.qspi_cmd_struct_para_init:0000000000000032 .L0 
C:\Users\CYMR90~1\AppData\Local\Temp\ccBmAAlS.s:126    .text.qspi_cmd_struct_para_init:000000000000003a .L0 
C:\Users\CYMR90~1\AppData\Local\Temp\ccBmAAlS.s:129    .text.qspi_cmd_struct_para_init:0000000000000042 .L0 
C:\Users\CYMR90~1\AppData\Local\Temp\ccBmAAlS.s:132    .text.qspi_cmd_struct_para_init:000000000000004a .L0 
C:\Users\CYMR90~1\AppData\Local\Temp\ccBmAAlS.s:135    .text.qspi_cmd_struct_para_init:0000000000000052 .L0 
C:\Users\CYMR90~1\AppData\Local\Temp\ccBmAAlS.s:138    .text.qspi_cmd_struct_para_init:000000000000005a .L0 
C:\Users\CYMR90~1\AppData\Local\Temp\ccBmAAlS.s:141    .text.qspi_cmd_struct_para_init:0000000000000062 .L0 
C:\Users\CYMR90~1\AppData\Local\Temp\ccBmAAlS.s:144    .text.qspi_cmd_struct_para_init:000000000000006a .L0 
C:\Users\CYMR90~1\AppData\Local\Temp\ccBmAAlS.s:146    .text.qspi_cmd_struct_para_init:000000000000006e .L0 
C:\Users\CYMR90~1\AppData\Local\Temp\ccBmAAlS.s:147    .text.qspi_cmd_struct_para_init:000000000000006e .L0 
C:\Users\CYMR90~1\AppData\Local\Temp\ccBmAAlS.s:149    .text.qspi_cmd_struct_para_init:0000000000000070 .L0 
C:\Users\CYMR90~1\AppData\Local\Temp\ccBmAAlS.s:151    .text.qspi_cmd_struct_para_init:0000000000000072 .L0 
C:\Users\CYMR90~1\AppData\Local\Temp\ccBmAAlS.s:158    .text.qspi_polling_struct_para_init:0000000000000000 qspi_polling_struct_para_init
C:\Users\CYMR90~1\AppData\Local\Temp\ccBmAAlS.s:161    .text.qspi_polling_struct_para_init:0000000000000000 .L0 
C:\Users\CYMR90~1\AppData\Local\Temp\ccBmAAlS.s:162    .text.qspi_polling_struct_para_init:0000000000000000 .L0 
C:\Users\CYMR90~1\AppData\Local\Temp\ccBmAAlS.s:163    .text.qspi_polling_struct_para_init:0000000000000002 .L0 
C:\Users\CYMR90~1\AppData\Local\Temp\ccBmAAlS.s:165    .text.qspi_polling_struct_para_init:0000000000000004 .L0 
C:\Users\CYMR90~1\AppData\Local\Temp\ccBmAAlS.s:167    .text.qspi_polling_struct_para_init:0000000000000006 .L0 
C:\Users\CYMR90~1\AppData\Local\Temp\ccBmAAlS.s:170    .text.qspi_polling_struct_para_init:000000000000000a .L0 
C:\Users\CYMR90~1\AppData\Local\Temp\ccBmAAlS.s:173    .text.qspi_polling_struct_para_init:0000000000000012 .L0 
C:\Users\CYMR90~1\AppData\Local\Temp\ccBmAAlS.s:176    .text.qspi_polling_struct_para_init:000000000000001a .L0 
C:\Users\CYMR90~1\AppData\Local\Temp\ccBmAAlS.s:179    .text.qspi_polling_struct_para_init:0000000000000022 .L0 
C:\Users\CYMR90~1\AppData\Local\Temp\ccBmAAlS.s:183    .text.qspi_polling_struct_para_init:000000000000002a .L0 
C:\Users\CYMR90~1\AppData\Local\Temp\ccBmAAlS.s:186    .text.qspi_polling_struct_para_init:0000000000000032 .L0 
C:\Users\CYMR90~1\AppData\Local\Temp\ccBmAAlS.s:189    .text.qspi_polling_struct_para_init:000000000000003a .L0 
C:\Users\CYMR90~1\AppData\Local\Temp\ccBmAAlS.s:191    .text.qspi_polling_struct_para_init:000000000000003e .L0 
C:\Users\CYMR90~1\AppData\Local\Temp\ccBmAAlS.s:192    .text.qspi_polling_struct_para_init:000000000000003e .L0 
C:\Users\CYMR90~1\AppData\Local\Temp\ccBmAAlS.s:194    .text.qspi_polling_struct_para_init:0000000000000040 .L0 
C:\Users\CYMR90~1\AppData\Local\Temp\ccBmAAlS.s:196    .text.qspi_polling_struct_para_init:0000000000000042 .L0 
C:\Users\CYMR90~1\AppData\Local\Temp\ccBmAAlS.s:203    .text.qspi_init:0000000000000000 qspi_init
C:\Users\CYMR90~1\AppData\Local\Temp\ccBmAAlS.s:206    .text.qspi_init:0000000000000000 .L0 
C:\Users\CYMR90~1\AppData\Local\Temp\ccBmAAlS.s:207    .text.qspi_init:0000000000000000 .L0 
C:\Users\CYMR90~1\AppData\Local\Temp\ccBmAAlS.s:208    .text.qspi_init:0000000000000002 .L0 
C:\Users\CYMR90~1\AppData\Local\Temp\ccBmAAlS.s:210    .text.qspi_init:0000000000000004 .L0 
C:\Users\CYMR90~1\AppData\Local\Temp\ccBmAAlS.s:212    .text.qspi_init:0000000000000006 .L0 
C:\Users\CYMR90~1\AppData\Local\Temp\ccBmAAlS.s:215    .text.qspi_init:000000000000000a .L0 
C:\Users\CYMR90~1\AppData\Local\Temp\ccBmAAlS.s:225    .text.qspi_init:0000000000000028 .L0 
C:\Users\CYMR90~1\AppData\Local\Temp\ccBmAAlS.s:229    .text.qspi_init:0000000000000032 .L0 
C:\Users\CYMR90~1\AppData\Local\Temp\ccBmAAlS.s:232    .text.qspi_init:0000000000000038 .L0 
C:\Users\CYMR90~1\AppData\Local\Temp\ccBmAAlS.s:234    .text.qspi_init:000000000000003c .L0 
C:\Users\CYMR90~1\AppData\Local\Temp\ccBmAAlS.s:237    .text.qspi_init:0000000000000042 .L0 
C:\Users\CYMR90~1\AppData\Local\Temp\ccBmAAlS.s:239    .text.qspi_init:0000000000000044 .L0 
C:\Users\CYMR90~1\AppData\Local\Temp\ccBmAAlS.s:242    .text.qspi_init:000000000000004a .L0 
C:\Users\CYMR90~1\AppData\Local\Temp\ccBmAAlS.s:244    .text.qspi_init:000000000000004c .L0 
C:\Users\CYMR90~1\AppData\Local\Temp\ccBmAAlS.s:246    .text.qspi_init:000000000000004e .L0 
C:\Users\CYMR90~1\AppData\Local\Temp\ccBmAAlS.s:248    .text.qspi_init:0000000000000050 .L0 
C:\Users\CYMR90~1\AppData\Local\Temp\ccBmAAlS.s:253    .text.qspi_init:000000000000005c .L0 
C:\Users\CYMR90~1\AppData\Local\Temp\ccBmAAlS.s:263    .text.qspi_init:000000000000007a .L0 
C:\Users\CYMR90~1\AppData\Local\Temp\ccBmAAlS.s:267    .text.qspi_init:0000000000000084 .L0 
C:\Users\CYMR90~1\AppData\Local\Temp\ccBmAAlS.s:270    .text.qspi_init:000000000000008a .L0 
C:\Users\CYMR90~1\AppData\Local\Temp\ccBmAAlS.s:272    .text.qspi_init:000000000000008e .L0 
C:\Users\CYMR90~1\AppData\Local\Temp\ccBmAAlS.s:275    .text.qspi_init:0000000000000094 .L0 
C:\Users\CYMR90~1\AppData\Local\Temp\ccBmAAlS.s:277    .text.qspi_init:0000000000000096 .L0 
C:\Users\CYMR90~1\AppData\Local\Temp\ccBmAAlS.s:280    .text.qspi_init:000000000000009c .L0 
C:\Users\CYMR90~1\AppData\Local\Temp\ccBmAAlS.s:282    .text.qspi_init:000000000000009e .L0 
C:\Users\CYMR90~1\AppData\Local\Temp\ccBmAAlS.s:287    .text.qspi_init:00000000000000aa .L0 
C:\Users\CYMR90~1\AppData\Local\Temp\ccBmAAlS.s:289    .text.qspi_init:00000000000000ae .L0 
C:\Users\CYMR90~1\AppData\Local\Temp\ccBmAAlS.s:290    .text.qspi_init:00000000000000ae .L0 
C:\Users\CYMR90~1\AppData\Local\Temp\ccBmAAlS.s:292    .text.qspi_init:00000000000000b0 .L0 
C:\Users\CYMR90~1\AppData\Local\Temp\ccBmAAlS.s:294    .text.qspi_init:00000000000000b2 .L0 
C:\Users\CYMR90~1\AppData\Local\Temp\ccBmAAlS.s:301    .text.qspi_enable:0000000000000000 qspi_enable
C:\Users\CYMR90~1\AppData\Local\Temp\ccBmAAlS.s:304    .text.qspi_enable:0000000000000000 .L0 
C:\Users\CYMR90~1\AppData\Local\Temp\ccBmAAlS.s:305    .text.qspi_enable:0000000000000000 .L0 
C:\Users\CYMR90~1\AppData\Local\Temp\ccBmAAlS.s:306    .text.qspi_enable:0000000000000002 .L0 
C:\Users\CYMR90~1\AppData\Local\Temp\ccBmAAlS.s:308    .text.qspi_enable:0000000000000004 .L0 
C:\Users\CYMR90~1\AppData\Local\Temp\ccBmAAlS.s:310    .text.qspi_enable:0000000000000006 .L0 
C:\Users\CYMR90~1\AppData\Local\Temp\ccBmAAlS.s:312    .text.qspi_enable:0000000000000006 .L0 
C:\Users\CYMR90~1\AppData\Local\Temp\ccBmAAlS.s:320    .text.qspi_enable:000000000000001e .L0 
C:\Users\CYMR90~1\AppData\Local\Temp\ccBmAAlS.s:322    .text.qspi_enable:0000000000000022 .L0 
C:\Users\CYMR90~1\AppData\Local\Temp\ccBmAAlS.s:323    .text.qspi_enable:0000000000000022 .L0 
C:\Users\CYMR90~1\AppData\Local\Temp\ccBmAAlS.s:325    .text.qspi_enable:0000000000000024 .L0 
C:\Users\CYMR90~1\AppData\Local\Temp\ccBmAAlS.s:327    .text.qspi_enable:0000000000000026 .L0 
C:\Users\CYMR90~1\AppData\Local\Temp\ccBmAAlS.s:334    .text.qspi_disable:0000000000000000 qspi_disable
C:\Users\CYMR90~1\AppData\Local\Temp\ccBmAAlS.s:337    .text.qspi_disable:0000000000000000 .L0 
C:\Users\CYMR90~1\AppData\Local\Temp\ccBmAAlS.s:338    .text.qspi_disable:0000000000000000 .L0 
C:\Users\CYMR90~1\AppData\Local\Temp\ccBmAAlS.s:339    .text.qspi_disable:0000000000000002 .L0 
C:\Users\CYMR90~1\AppData\Local\Temp\ccBmAAlS.s:341    .text.qspi_disable:0000000000000004 .L0 
C:\Users\CYMR90~1\AppData\Local\Temp\ccBmAAlS.s:343    .text.qspi_disable:0000000000000006 .L0 
C:\Users\CYMR90~1\AppData\Local\Temp\ccBmAAlS.s:345    .text.qspi_disable:0000000000000006 .L0 
C:\Users\CYMR90~1\AppData\Local\Temp\ccBmAAlS.s:353    .text.qspi_disable:000000000000001c .L0 
C:\Users\CYMR90~1\AppData\Local\Temp\ccBmAAlS.s:355    .text.qspi_disable:0000000000000020 .L0 
C:\Users\CYMR90~1\AppData\Local\Temp\ccBmAAlS.s:356    .text.qspi_disable:0000000000000020 .L0 
C:\Users\CYMR90~1\AppData\Local\Temp\ccBmAAlS.s:358    .text.qspi_disable:0000000000000022 .L0 
C:\Users\CYMR90~1\AppData\Local\Temp\ccBmAAlS.s:360    .text.qspi_disable:0000000000000024 .L0 
C:\Users\CYMR90~1\AppData\Local\Temp\ccBmAAlS.s:367    .text.qspi_dma_enable:0000000000000000 qspi_dma_enable
C:\Users\CYMR90~1\AppData\Local\Temp\ccBmAAlS.s:370    .text.qspi_dma_enable:0000000000000000 .L0 
C:\Users\CYMR90~1\AppData\Local\Temp\ccBmAAlS.s:371    .text.qspi_dma_enable:0000000000000000 .L0 
C:\Users\CYMR90~1\AppData\Local\Temp\ccBmAAlS.s:372    .text.qspi_dma_enable:0000000000000002 .L0 
C:\Users\CYMR90~1\AppData\Local\Temp\ccBmAAlS.s:374    .text.qspi_dma_enable:0000000000000004 .L0 
C:\Users\CYMR90~1\AppData\Local\Temp\ccBmAAlS.s:376    .text.qspi_dma_enable:0000000000000006 .L0 
C:\Users\CYMR90~1\AppData\Local\Temp\ccBmAAlS.s:378    .text.qspi_dma_enable:0000000000000006 .L0 
C:\Users\CYMR90~1\AppData\Local\Temp\ccBmAAlS.s:386    .text.qspi_dma_enable:000000000000001e .L0 
C:\Users\CYMR90~1\AppData\Local\Temp\ccBmAAlS.s:388    .text.qspi_dma_enable:0000000000000022 .L0 
C:\Users\CYMR90~1\AppData\Local\Temp\ccBmAAlS.s:389    .text.qspi_dma_enable:0000000000000022 .L0 
C:\Users\CYMR90~1\AppData\Local\Temp\ccBmAAlS.s:391    .text.qspi_dma_enable:0000000000000024 .L0 
C:\Users\CYMR90~1\AppData\Local\Temp\ccBmAAlS.s:393    .text.qspi_dma_enable:0000000000000026 .L0 
C:\Users\CYMR90~1\AppData\Local\Temp\ccBmAAlS.s:400    .text.qspi_dma_disable:0000000000000000 qspi_dma_disable
C:\Users\CYMR90~1\AppData\Local\Temp\ccBmAAlS.s:403    .text.qspi_dma_disable:0000000000000000 .L0 
C:\Users\CYMR90~1\AppData\Local\Temp\ccBmAAlS.s:404    .text.qspi_dma_disable:0000000000000000 .L0 
C:\Users\CYMR90~1\AppData\Local\Temp\ccBmAAlS.s:405    .text.qspi_dma_disable:0000000000000002 .L0 
C:\Users\CYMR90~1\AppData\Local\Temp\ccBmAAlS.s:407    .text.qspi_dma_disable:0000000000000004 .L0 
C:\Users\CYMR90~1\AppData\Local\Temp\ccBmAAlS.s:409    .text.qspi_dma_disable:0000000000000006 .L0 
C:\Users\CYMR90~1\AppData\Local\Temp\ccBmAAlS.s:411    .text.qspi_dma_disable:0000000000000006 .L0 
C:\Users\CYMR90~1\AppData\Local\Temp\ccBmAAlS.s:419    .text.qspi_dma_disable:000000000000001c .L0 
C:\Users\CYMR90~1\AppData\Local\Temp\ccBmAAlS.s:421    .text.qspi_dma_disable:0000000000000020 .L0 
C:\Users\CYMR90~1\AppData\Local\Temp\ccBmAAlS.s:422    .text.qspi_dma_disable:0000000000000020 .L0 
C:\Users\CYMR90~1\AppData\Local\Temp\ccBmAAlS.s:424    .text.qspi_dma_disable:0000000000000022 .L0 
C:\Users\CYMR90~1\AppData\Local\Temp\ccBmAAlS.s:426    .text.qspi_dma_disable:0000000000000024 .L0 
C:\Users\CYMR90~1\AppData\Local\Temp\ccBmAAlS.s:433    .text.qspi_command_config:0000000000000000 qspi_command_config
C:\Users\CYMR90~1\AppData\Local\Temp\ccBmAAlS.s:436    .text.qspi_command_config:0000000000000000 .L0 
C:\Users\CYMR90~1\AppData\Local\Temp\ccBmAAlS.s:437    .text.qspi_command_config:0000000000000000 .L0 
C:\Users\CYMR90~1\AppData\Local\Temp\ccBmAAlS.s:438    .text.qspi_command_config:0000000000000002 .L0 
C:\Users\CYMR90~1\AppData\Local\Temp\ccBmAAlS.s:441    .text.qspi_command_config:0000000000000006 .L0 
C:\Users\CYMR90~1\AppData\Local\Temp\ccBmAAlS.s:442    .text.qspi_command_config:0000000000000006 .L0 
C:\Users\CYMR90~1\AppData\Local\Temp\ccBmAAlS.s:444    .text.qspi_command_config:0000000000000008 .L0 
C:\Users\CYMR90~1\AppData\Local\Temp\ccBmAAlS.s:447    .text.qspi_command_config:000000000000000c .L0 
C:\Users\CYMR90~1\AppData\Local\Temp\ccBmAAlS.s:1202   .text.qspi_config:0000000000000000 qspi_config
C:\Users\CYMR90~1\AppData\Local\Temp\ccBmAAlS.s:451    .text.qspi_command_config:000000000000001a .L0 
C:\Users\CYMR90~1\AppData\Local\Temp\ccBmAAlS.s:454    .text.qspi_command_config:0000000000000020 .L0 
C:\Users\CYMR90~1\AppData\Local\Temp\ccBmAAlS.s:456    .text.qspi_command_config:0000000000000022 .L0 
C:\Users\CYMR90~1\AppData\Local\Temp\ccBmAAlS.s:459    .text.qspi_command_config:0000000000000024 .L0 
C:\Users\CYMR90~1\AppData\Local\Temp\ccBmAAlS.s:463    .text.qspi_command_config:000000000000002e .L0 
C:\Users\CYMR90~1\AppData\Local\Temp\ccBmAAlS.s:465    .text.qspi_command_config:0000000000000030 .L0 
C:\Users\CYMR90~1\AppData\Local\Temp\ccBmAAlS.s:467    .text.qspi_command_config:0000000000000032 .L0 
C:\Users\CYMR90~1\AppData\Local\Temp\ccBmAAlS.s:470    .text.qspi_command_config:000000000000003a .L0 
C:\Users\CYMR90~1\AppData\Local\Temp\ccBmAAlS.s:474    .text.qspi_command_config:000000000000003e .L0 
C:\Users\CYMR90~1\AppData\Local\Temp\ccBmAAlS.s:476    .text.qspi_command_config:0000000000000042 .L0 
C:\Users\CYMR90~1\AppData\Local\Temp\ccBmAAlS.s:478    .text.qspi_command_config:0000000000000044 .L0 
C:\Users\CYMR90~1\AppData\Local\Temp\ccBmAAlS.s:479    .text.qspi_command_config:0000000000000044 .L0 
C:\Users\CYMR90~1\AppData\Local\Temp\ccBmAAlS.s:481    .text.qspi_command_config:0000000000000046 .L0 
C:\Users\CYMR90~1\AppData\Local\Temp\ccBmAAlS.s:483    .text.qspi_command_config:0000000000000048 .L0 
C:\Users\CYMR90~1\AppData\Local\Temp\ccBmAAlS.s:490    .text.qspi_polling_config:0000000000000000 qspi_polling_config
C:\Users\CYMR90~1\AppData\Local\Temp\ccBmAAlS.s:493    .text.qspi_polling_config:0000000000000000 .L0 
C:\Users\CYMR90~1\AppData\Local\Temp\ccBmAAlS.s:494    .text.qspi_polling_config:0000000000000000 .L0 
C:\Users\CYMR90~1\AppData\Local\Temp\ccBmAAlS.s:495    .text.qspi_polling_config:0000000000000002 .L0 
C:\Users\CYMR90~1\AppData\Local\Temp\ccBmAAlS.s:498    .text.qspi_polling_config:0000000000000006 .L0 
C:\Users\CYMR90~1\AppData\Local\Temp\ccBmAAlS.s:499    .text.qspi_polling_config:0000000000000006 .L0 
C:\Users\CYMR90~1\AppData\Local\Temp\ccBmAAlS.s:501    .text.qspi_polling_config:0000000000000008 .L0 
C:\Users\CYMR90~1\AppData\Local\Temp\ccBmAAlS.s:505    .text.qspi_polling_config:0000000000000010 .L0 
C:\Users\CYMR90~1\AppData\Local\Temp\ccBmAAlS.s:508    .text.qspi_polling_config:0000000000000018 .L0 
C:\Users\CYMR90~1\AppData\Local\Temp\ccBmAAlS.s:511    .text.qspi_polling_config:000000000000001e .L0 
C:\Users\CYMR90~1\AppData\Local\Temp\ccBmAAlS.s:513    .text.qspi_polling_config:0000000000000020 .L0 
C:\Users\CYMR90~1\AppData\Local\Temp\ccBmAAlS.s:516    .text.qspi_polling_config:0000000000000028 .L0 
C:\Users\CYMR90~1\AppData\Local\Temp\ccBmAAlS.s:519    .text.qspi_polling_config:000000000000002e .L0 
C:\Users\CYMR90~1\AppData\Local\Temp\ccBmAAlS.s:521    .text.qspi_polling_config:0000000000000030 .L0 
C:\Users\CYMR90~1\AppData\Local\Temp\ccBmAAlS.s:524    .text.qspi_polling_config:0000000000000038 .L0 
C:\Users\CYMR90~1\AppData\Local\Temp\ccBmAAlS.s:527    .text.qspi_polling_config:000000000000003e .L0 
C:\Users\CYMR90~1\AppData\Local\Temp\ccBmAAlS.s:529    .text.qspi_polling_config:0000000000000040 .L0 
C:\Users\CYMR90~1\AppData\Local\Temp\ccBmAAlS.s:539    .text.qspi_polling_config:000000000000005c .L0 
C:\Users\CYMR90~1\AppData\Local\Temp\ccBmAAlS.s:543    .text.qspi_polling_config:0000000000000066 .L0 
C:\Users\CYMR90~1\AppData\Local\Temp\ccBmAAlS.s:546    .text.qspi_polling_config:000000000000006c .L0 
C:\Users\CYMR90~1\AppData\Local\Temp\ccBmAAlS.s:549    .text.qspi_polling_config:0000000000000072 .L0 
C:\Users\CYMR90~1\AppData\Local\Temp\ccBmAAlS.s:551    .text.qspi_polling_config:0000000000000074 .L0 
C:\Users\CYMR90~1\AppData\Local\Temp\ccBmAAlS.s:556    .text.qspi_polling_config:0000000000000080 .L0 
C:\Users\CYMR90~1\AppData\Local\Temp\ccBmAAlS.s:559    .text.qspi_polling_config:0000000000000086 .L0 
C:\Users\CYMR90~1\AppData\Local\Temp\ccBmAAlS.s:562    .text.qspi_polling_config:000000000000008c .L0 
C:\Users\CYMR90~1\AppData\Local\Temp\ccBmAAlS.s:566    .text.qspi_polling_config:000000000000009c .L0 
C:\Users\CYMR90~1\AppData\Local\Temp\ccBmAAlS.s:568    .text.qspi_polling_config:00000000000000a0 .L0 
C:\Users\CYMR90~1\AppData\Local\Temp\ccBmAAlS.s:570    .text.qspi_polling_config:00000000000000a2 .L0 
C:\Users\CYMR90~1\AppData\Local\Temp\ccBmAAlS.s:571    .text.qspi_polling_config:00000000000000a2 .L0 
C:\Users\CYMR90~1\AppData\Local\Temp\ccBmAAlS.s:573    .text.qspi_polling_config:00000000000000a4 .L0 
C:\Users\CYMR90~1\AppData\Local\Temp\ccBmAAlS.s:575    .text.qspi_polling_config:00000000000000a6 .L0 
C:\Users\CYMR90~1\AppData\Local\Temp\ccBmAAlS.s:582    .text.qspi_memorymapped_config:0000000000000000 qspi_memorymapped_config
C:\Users\CYMR90~1\AppData\Local\Temp\ccBmAAlS.s:585    .text.qspi_memorymapped_config:0000000000000000 .L0 
C:\Users\CYMR90~1\AppData\Local\Temp\ccBmAAlS.s:586    .text.qspi_memorymapped_config:0000000000000000 .L0 
C:\Users\CYMR90~1\AppData\Local\Temp\ccBmAAlS.s:587    .text.qspi_memorymapped_config:0000000000000002 .L0 
C:\Users\CYMR90~1\AppData\Local\Temp\ccBmAAlS.s:590    .text.qspi_memorymapped_config:0000000000000006 .L0 
C:\Users\CYMR90~1\AppData\Local\Temp\ccBmAAlS.s:591    .text.qspi_memorymapped_config:0000000000000006 .L0 
C:\Users\CYMR90~1\AppData\Local\Temp\ccBmAAlS.s:593    .text.qspi_memorymapped_config:0000000000000008 .L0 
C:\Users\CYMR90~1\AppData\Local\Temp\ccBmAAlS.s:599    .text.qspi_memorymapped_config:0000000000000016 .L0 
C:\Users\CYMR90~1\AppData\Local\Temp\ccBmAAlS.s:607    .text.qspi_memorymapped_config:000000000000002c .L0 
C:\Users\CYMR90~1\AppData\Local\Temp\ccBmAAlS.s:616    .text.qspi_memorymapped_config:0000000000000046 .L0 
C:\Users\CYMR90~1\AppData\Local\Temp\ccBmAAlS.s:620    .text.qspi_memorymapped_config:0000000000000050 .L0 
C:\Users\CYMR90~1\AppData\Local\Temp\ccBmAAlS.s:623    .text.qspi_memorymapped_config:0000000000000058 .L0 
C:\Users\CYMR90~1\AppData\Local\Temp\ccBmAAlS.s:626    .text.qspi_memorymapped_config:000000000000005e .L0 
C:\Users\CYMR90~1\AppData\Local\Temp\ccBmAAlS.s:629    .text.qspi_memorymapped_config:0000000000000066 .L0 
C:\Users\CYMR90~1\AppData\Local\Temp\ccBmAAlS.s:632    .text.qspi_memorymapped_config:000000000000006a .L0 
C:\Users\CYMR90~1\AppData\Local\Temp\ccBmAAlS.s:642    .text.qspi_memorymapped_config:0000000000000084 .L0 
C:\Users\CYMR90~1\AppData\Local\Temp\ccBmAAlS.s:646    .text.qspi_memorymapped_config:0000000000000094 .L0 
C:\Users\CYMR90~1\AppData\Local\Temp\ccBmAAlS.s:648    .text.qspi_memorymapped_config:0000000000000098 .L0 
C:\Users\CYMR90~1\AppData\Local\Temp\ccBmAAlS.s:650    .text.qspi_memorymapped_config:000000000000009a .L0 
C:\Users\CYMR90~1\AppData\Local\Temp\ccBmAAlS.s:651    .text.qspi_memorymapped_config:000000000000009a .L0 
C:\Users\CYMR90~1\AppData\Local\Temp\ccBmAAlS.s:653    .text.qspi_memorymapped_config:000000000000009c .L0 
C:\Users\CYMR90~1\AppData\Local\Temp\ccBmAAlS.s:655    .text.qspi_memorymapped_config:000000000000009e .L0 
C:\Users\CYMR90~1\AppData\Local\Temp\ccBmAAlS.s:662    .text.qspi_data_transmit:0000000000000000 qspi_data_transmit
C:\Users\CYMR90~1\AppData\Local\Temp\ccBmAAlS.s:665    .text.qspi_data_transmit:0000000000000000 .L0 
C:\Users\CYMR90~1\AppData\Local\Temp\ccBmAAlS.s:666    .text.qspi_data_transmit:0000000000000000 .L0 
C:\Users\CYMR90~1\AppData\Local\Temp\ccBmAAlS.s:667    .text.qspi_data_transmit:0000000000000002 .L0 
C:\Users\CYMR90~1\AppData\Local\Temp\ccBmAAlS.s:669    .text.qspi_data_transmit:0000000000000004 .L0 
C:\Users\CYMR90~1\AppData\Local\Temp\ccBmAAlS.s:671    .text.qspi_data_transmit:0000000000000006 .L0 
C:\Users\CYMR90~1\AppData\Local\Temp\ccBmAAlS.s:674    .text.qspi_data_transmit:000000000000000a .L0 
C:\Users\CYMR90~1\AppData\Local\Temp\ccBmAAlS.s:678    .text.qspi_data_transmit:0000000000000014 .L0 
C:\Users\CYMR90~1\AppData\Local\Temp\ccBmAAlS.s:681    .text.qspi_data_transmit:000000000000001a .L0 
C:\Users\CYMR90~1\AppData\Local\Temp\ccBmAAlS.s:685    .text.qspi_data_transmit:0000000000000024 .L0 
C:\Users\CYMR90~1\AppData\Local\Temp\ccBmAAlS.s:688    .text.qspi_data_transmit:000000000000002c .L0 
C:\Users\CYMR90~1\AppData\Local\Temp\ccBmAAlS.s:692    .text.qspi_data_transmit:0000000000000034 .L0 
C:\Users\CYMR90~1\AppData\Local\Temp\ccBmAAlS.s:694    .text.qspi_data_transmit:0000000000000036 .L0 
C:\Users\CYMR90~1\AppData\Local\Temp\ccBmAAlS.s:697    .text.qspi_data_transmit:0000000000000038 .L0 
C:\Users\CYMR90~1\AppData\Local\Temp\ccBmAAlS.s:700    .text.qspi_data_transmit:000000000000003a .L0 
C:\Users\CYMR90~1\AppData\Local\Temp\ccBmAAlS.s:704    .text.qspi_data_transmit:0000000000000044 .L0 
C:\Users\CYMR90~1\AppData\Local\Temp\ccBmAAlS.s:706    .text.qspi_data_transmit:0000000000000046 .L0 
C:\Users\CYMR90~1\AppData\Local\Temp\ccBmAAlS.s:708    .text.qspi_data_transmit:0000000000000048 .L0 
C:\Users\CYMR90~1\AppData\Local\Temp\ccBmAAlS.s:712    .text.qspi_data_transmit:0000000000000054 .L0 
C:\Users\CYMR90~1\AppData\Local\Temp\ccBmAAlS.s:715    .text.qspi_data_transmit:000000000000005c .L0 
C:\Users\CYMR90~1\AppData\Local\Temp\ccBmAAlS.s:717    .text.qspi_data_transmit:0000000000000060 .L0 
C:\Users\CYMR90~1\AppData\Local\Temp\ccBmAAlS.s:719    .text.qspi_data_transmit:0000000000000064 .L0 
C:\Users\CYMR90~1\AppData\Local\Temp\ccBmAAlS.s:724    .text.qspi_data_transmit:000000000000006e .L0 
C:\Users\CYMR90~1\AppData\Local\Temp\ccBmAAlS.s:727    .text.qspi_data_transmit:0000000000000074 .L0 
C:\Users\CYMR90~1\AppData\Local\Temp\ccBmAAlS.s:730    .text.qspi_data_transmit:000000000000007a .L0 
C:\Users\CYMR90~1\AppData\Local\Temp\ccBmAAlS.s:731    .text.qspi_data_transmit:000000000000007a .L0 
C:\Users\CYMR90~1\AppData\Local\Temp\ccBmAAlS.s:733    .text.qspi_data_transmit:000000000000007c .L0 
C:\Users\CYMR90~1\AppData\Local\Temp\ccBmAAlS.s:735    .text.qspi_data_transmit:000000000000007e .L0 
C:\Users\CYMR90~1\AppData\Local\Temp\ccBmAAlS.s:742    .text.qspi_data_receive:0000000000000000 qspi_data_receive
C:\Users\CYMR90~1\AppData\Local\Temp\ccBmAAlS.s:745    .text.qspi_data_receive:0000000000000000 .L0 
C:\Users\CYMR90~1\AppData\Local\Temp\ccBmAAlS.s:746    .text.qspi_data_receive:0000000000000000 .L0 
C:\Users\CYMR90~1\AppData\Local\Temp\ccBmAAlS.s:747    .text.qspi_data_receive:0000000000000002 .L0 
C:\Users\CYMR90~1\AppData\Local\Temp\ccBmAAlS.s:749    .text.qspi_data_receive:0000000000000004 .L0 
C:\Users\CYMR90~1\AppData\Local\Temp\ccBmAAlS.s:751    .text.qspi_data_receive:0000000000000006 .L0 
C:\Users\CYMR90~1\AppData\Local\Temp\ccBmAAlS.s:754    .text.qspi_data_receive:000000000000000a .L0 
C:\Users\CYMR90~1\AppData\Local\Temp\ccBmAAlS.s:758    .text.qspi_data_receive:0000000000000014 .L0 
C:\Users\CYMR90~1\AppData\Local\Temp\ccBmAAlS.s:761    .text.qspi_data_receive:000000000000001a .L0 
C:\Users\CYMR90~1\AppData\Local\Temp\ccBmAAlS.s:764    .text.qspi_data_receive:0000000000000022 .L0 
C:\Users\CYMR90~1\AppData\Local\Temp\ccBmAAlS.s:767    .text.qspi_data_receive:0000000000000028 .L0 
C:\Users\CYMR90~1\AppData\Local\Temp\ccBmAAlS.s:771    .text.qspi_data_receive:0000000000000032 .L0 
C:\Users\CYMR90~1\AppData\Local\Temp\ccBmAAlS.s:775    .text.qspi_data_receive:000000000000003c .L0 
C:\Users\CYMR90~1\AppData\Local\Temp\ccBmAAlS.s:778    .text.qspi_data_receive:0000000000000044 .L0 
C:\Users\CYMR90~1\AppData\Local\Temp\ccBmAAlS.s:781    .text.qspi_data_receive:000000000000004a .L0 
C:\Users\CYMR90~1\AppData\Local\Temp\ccBmAAlS.s:783    .text.qspi_data_receive:000000000000004c .L0 
C:\Users\CYMR90~1\AppData\Local\Temp\ccBmAAlS.s:786    .text.qspi_data_receive:0000000000000054 .L0 
C:\Users\CYMR90~1\AppData\Local\Temp\ccBmAAlS.s:789    .text.qspi_data_receive:000000000000005a .L0 
C:\Users\CYMR90~1\AppData\Local\Temp\ccBmAAlS.s:792    .text.qspi_data_receive:000000000000005c .L0 
C:\Users\CYMR90~1\AppData\Local\Temp\ccBmAAlS.s:795    .text.qspi_data_receive:000000000000005e .L0 
C:\Users\CYMR90~1\AppData\Local\Temp\ccBmAAlS.s:799    .text.qspi_data_receive:0000000000000068 .L0 
C:\Users\CYMR90~1\AppData\Local\Temp\ccBmAAlS.s:801    .text.qspi_data_receive:000000000000006a .L0 
C:\Users\CYMR90~1\AppData\Local\Temp\ccBmAAlS.s:803    .text.qspi_data_receive:000000000000006c .L0 
C:\Users\CYMR90~1\AppData\Local\Temp\ccBmAAlS.s:806    .text.qspi_data_receive:0000000000000074 .L0 
C:\Users\CYMR90~1\AppData\Local\Temp\ccBmAAlS.s:810    .text.qspi_data_receive:0000000000000080 .L0 
C:\Users\CYMR90~1\AppData\Local\Temp\ccBmAAlS.s:812    .text.qspi_data_receive:0000000000000084 .L0 
C:\Users\CYMR90~1\AppData\Local\Temp\ccBmAAlS.s:814    .text.qspi_data_receive:0000000000000088 .L0 
C:\Users\CYMR90~1\AppData\Local\Temp\ccBmAAlS.s:819    .text.qspi_data_receive:0000000000000092 .L0 
C:\Users\CYMR90~1\AppData\Local\Temp\ccBmAAlS.s:822    .text.qspi_data_receive:0000000000000098 .L0 
C:\Users\CYMR90~1\AppData\Local\Temp\ccBmAAlS.s:825    .text.qspi_data_receive:000000000000009e .L0 
C:\Users\CYMR90~1\AppData\Local\Temp\ccBmAAlS.s:826    .text.qspi_data_receive:000000000000009e .L0 
C:\Users\CYMR90~1\AppData\Local\Temp\ccBmAAlS.s:828    .text.qspi_data_receive:00000000000000a0 .L0 
C:\Users\CYMR90~1\AppData\Local\Temp\ccBmAAlS.s:830    .text.qspi_data_receive:00000000000000a2 .L0 
C:\Users\CYMR90~1\AppData\Local\Temp\ccBmAAlS.s:837    .text.qspi_transmission_abort:0000000000000000 qspi_transmission_abort
C:\Users\CYMR90~1\AppData\Local\Temp\ccBmAAlS.s:840    .text.qspi_transmission_abort:0000000000000000 .L0 
C:\Users\CYMR90~1\AppData\Local\Temp\ccBmAAlS.s:841    .text.qspi_transmission_abort:0000000000000000 .L0 
C:\Users\CYMR90~1\AppData\Local\Temp\ccBmAAlS.s:842    .text.qspi_transmission_abort:0000000000000002 .L0 
C:\Users\CYMR90~1\AppData\Local\Temp\ccBmAAlS.s:844    .text.qspi_transmission_abort:0000000000000004 .L0 
C:\Users\CYMR90~1\AppData\Local\Temp\ccBmAAlS.s:846    .text.qspi_transmission_abort:0000000000000006 .L0 
C:\Users\CYMR90~1\AppData\Local\Temp\ccBmAAlS.s:848    .text.qspi_transmission_abort:0000000000000006 .L0 
C:\Users\CYMR90~1\AppData\Local\Temp\ccBmAAlS.s:856    .text.qspi_transmission_abort:000000000000001e .L0 
C:\Users\CYMR90~1\AppData\Local\Temp\ccBmAAlS.s:858    .text.qspi_transmission_abort:0000000000000022 .L0 
C:\Users\CYMR90~1\AppData\Local\Temp\ccBmAAlS.s:859    .text.qspi_transmission_abort:0000000000000022 .L0 
C:\Users\CYMR90~1\AppData\Local\Temp\ccBmAAlS.s:861    .text.qspi_transmission_abort:0000000000000024 .L0 
C:\Users\CYMR90~1\AppData\Local\Temp\ccBmAAlS.s:863    .text.qspi_transmission_abort:0000000000000026 .L0 
C:\Users\CYMR90~1\AppData\Local\Temp\ccBmAAlS.s:870    .text.qspi_flag_get:0000000000000000 qspi_flag_get
C:\Users\CYMR90~1\AppData\Local\Temp\ccBmAAlS.s:873    .text.qspi_flag_get:0000000000000000 .L0 
C:\Users\CYMR90~1\AppData\Local\Temp\ccBmAAlS.s:874    .text.qspi_flag_get:0000000000000000 .L0 
C:\Users\CYMR90~1\AppData\Local\Temp\ccBmAAlS.s:875    .text.qspi_flag_get:0000000000000002 .L0 
C:\Users\CYMR90~1\AppData\Local\Temp\ccBmAAlS.s:877    .text.qspi_flag_get:0000000000000004 .L0 
C:\Users\CYMR90~1\AppData\Local\Temp\ccBmAAlS.s:879    .text.qspi_flag_get:0000000000000006 .L0 
C:\Users\CYMR90~1\AppData\Local\Temp\ccBmAAlS.s:882    .text.qspi_flag_get:000000000000000a .L0 
C:\Users\CYMR90~1\AppData\Local\Temp\ccBmAAlS.s:886    .text.qspi_flag_get:0000000000000014 .L0 
C:\Users\CYMR90~1\AppData\Local\Temp\ccBmAAlS.s:889    .text.qspi_flag_get:000000000000001a .L0 
C:\Users\CYMR90~1\AppData\Local\Temp\ccBmAAlS.s:891    .text.qspi_flag_get:000000000000001c .L0 
C:\Users\CYMR90~1\AppData\Local\Temp\ccBmAAlS.s:895    .text.qspi_flag_get:0000000000000020 .L0 
C:\Users\CYMR90~1\AppData\Local\Temp\ccBmAAlS.s:898    .text.qspi_flag_get:0000000000000022 .L0 
C:\Users\CYMR90~1\AppData\Local\Temp\ccBmAAlS.s:900    .text.qspi_flag_get:0000000000000026 .L0 
C:\Users\CYMR90~1\AppData\Local\Temp\ccBmAAlS.s:901    .text.qspi_flag_get:0000000000000026 .L0 
C:\Users\CYMR90~1\AppData\Local\Temp\ccBmAAlS.s:903    .text.qspi_flag_get:0000000000000028 .L0 
C:\Users\CYMR90~1\AppData\Local\Temp\ccBmAAlS.s:905    .text.qspi_flag_get:000000000000002a .L0 
C:\Users\CYMR90~1\AppData\Local\Temp\ccBmAAlS.s:912    .text.qspi_flag_clear:0000000000000000 qspi_flag_clear
C:\Users\CYMR90~1\AppData\Local\Temp\ccBmAAlS.s:915    .text.qspi_flag_clear:0000000000000000 .L0 
C:\Users\CYMR90~1\AppData\Local\Temp\ccBmAAlS.s:916    .text.qspi_flag_clear:0000000000000000 .L0 
C:\Users\CYMR90~1\AppData\Local\Temp\ccBmAAlS.s:917    .text.qspi_flag_clear:0000000000000002 .L0 
C:\Users\CYMR90~1\AppData\Local\Temp\ccBmAAlS.s:919    .text.qspi_flag_clear:0000000000000004 .L0 
C:\Users\CYMR90~1\AppData\Local\Temp\ccBmAAlS.s:921    .text.qspi_flag_clear:0000000000000006 .L0 
C:\Users\CYMR90~1\AppData\Local\Temp\ccBmAAlS.s:924    .text.qspi_flag_clear:000000000000000a .L0 
C:\Users\CYMR90~1\AppData\Local\Temp\ccBmAAlS.s:933    .text.qspi_flag_clear:0000000000000024 .L0 
C:\Users\CYMR90~1\AppData\Local\Temp\ccBmAAlS.s:935    .text.qspi_flag_clear:0000000000000028 .L0 
C:\Users\CYMR90~1\AppData\Local\Temp\ccBmAAlS.s:936    .text.qspi_flag_clear:0000000000000028 .L0 
C:\Users\CYMR90~1\AppData\Local\Temp\ccBmAAlS.s:938    .text.qspi_flag_clear:000000000000002a .L0 
C:\Users\CYMR90~1\AppData\Local\Temp\ccBmAAlS.s:940    .text.qspi_flag_clear:000000000000002c .L0 
C:\Users\CYMR90~1\AppData\Local\Temp\ccBmAAlS.s:947    .text.qspi_interrupt_enable:0000000000000000 qspi_interrupt_enable
C:\Users\CYMR90~1\AppData\Local\Temp\ccBmAAlS.s:950    .text.qspi_interrupt_enable:0000000000000000 .L0 
C:\Users\CYMR90~1\AppData\Local\Temp\ccBmAAlS.s:951    .text.qspi_interrupt_enable:0000000000000000 .L0 
C:\Users\CYMR90~1\AppData\Local\Temp\ccBmAAlS.s:952    .text.qspi_interrupt_enable:0000000000000002 .L0 
C:\Users\CYMR90~1\AppData\Local\Temp\ccBmAAlS.s:954    .text.qspi_interrupt_enable:0000000000000004 .L0 
C:\Users\CYMR90~1\AppData\Local\Temp\ccBmAAlS.s:956    .text.qspi_interrupt_enable:0000000000000006 .L0 
C:\Users\CYMR90~1\AppData\Local\Temp\ccBmAAlS.s:959    .text.qspi_interrupt_enable:000000000000000a .L0 
C:\Users\CYMR90~1\AppData\Local\Temp\ccBmAAlS.s:968    .text.qspi_interrupt_enable:0000000000000024 .L0 
C:\Users\CYMR90~1\AppData\Local\Temp\ccBmAAlS.s:970    .text.qspi_interrupt_enable:0000000000000028 .L0 
C:\Users\CYMR90~1\AppData\Local\Temp\ccBmAAlS.s:971    .text.qspi_interrupt_enable:0000000000000028 .L0 
C:\Users\CYMR90~1\AppData\Local\Temp\ccBmAAlS.s:973    .text.qspi_interrupt_enable:000000000000002a .L0 
C:\Users\CYMR90~1\AppData\Local\Temp\ccBmAAlS.s:975    .text.qspi_interrupt_enable:000000000000002c .L0 
C:\Users\CYMR90~1\AppData\Local\Temp\ccBmAAlS.s:982    .text.qspi_interrupt_disable:0000000000000000 qspi_interrupt_disable
C:\Users\CYMR90~1\AppData\Local\Temp\ccBmAAlS.s:985    .text.qspi_interrupt_disable:0000000000000000 .L0 
C:\Users\CYMR90~1\AppData\Local\Temp\ccBmAAlS.s:986    .text.qspi_interrupt_disable:0000000000000000 .L0 
C:\Users\CYMR90~1\AppData\Local\Temp\ccBmAAlS.s:987    .text.qspi_interrupt_disable:0000000000000002 .L0 
C:\Users\CYMR90~1\AppData\Local\Temp\ccBmAAlS.s:989    .text.qspi_interrupt_disable:0000000000000004 .L0 
C:\Users\CYMR90~1\AppData\Local\Temp\ccBmAAlS.s:991    .text.qspi_interrupt_disable:0000000000000006 .L0 
C:\Users\CYMR90~1\AppData\Local\Temp\ccBmAAlS.s:994    .text.qspi_interrupt_disable:000000000000000a .L0 
C:\Users\CYMR90~1\AppData\Local\Temp\ccBmAAlS.s:998    .text.qspi_interrupt_disable:0000000000000014 .L0 
C:\Users\CYMR90~1\AppData\Local\Temp\ccBmAAlS.s:1001   .text.qspi_interrupt_disable:000000000000001c .L0 
C:\Users\CYMR90~1\AppData\Local\Temp\ccBmAAlS.s:1006   .text.qspi_interrupt_disable:0000000000000028 .L0 
C:\Users\CYMR90~1\AppData\Local\Temp\ccBmAAlS.s:1008   .text.qspi_interrupt_disable:000000000000002c .L0 
C:\Users\CYMR90~1\AppData\Local\Temp\ccBmAAlS.s:1009   .text.qspi_interrupt_disable:000000000000002c .L0 
C:\Users\CYMR90~1\AppData\Local\Temp\ccBmAAlS.s:1011   .text.qspi_interrupt_disable:000000000000002e .L0 
C:\Users\CYMR90~1\AppData\Local\Temp\ccBmAAlS.s:1013   .text.qspi_interrupt_disable:0000000000000030 .L0 
C:\Users\CYMR90~1\AppData\Local\Temp\ccBmAAlS.s:1020   .text.qspi_interrupt_flag_get:0000000000000000 qspi_interrupt_flag_get
C:\Users\CYMR90~1\AppData\Local\Temp\ccBmAAlS.s:1023   .text.qspi_interrupt_flag_get:0000000000000000 .L0 
C:\Users\CYMR90~1\AppData\Local\Temp\ccBmAAlS.s:1024   .text.qspi_interrupt_flag_get:0000000000000000 .L0 
C:\Users\CYMR90~1\AppData\Local\Temp\ccBmAAlS.s:1025   .text.qspi_interrupt_flag_get:0000000000000002 .L0 
C:\Users\CYMR90~1\AppData\Local\Temp\ccBmAAlS.s:1027   .text.qspi_interrupt_flag_get:0000000000000004 .L0 
C:\Users\CYMR90~1\AppData\Local\Temp\ccBmAAlS.s:1029   .text.qspi_interrupt_flag_get:0000000000000006 .L0 
C:\Users\CYMR90~1\AppData\Local\Temp\ccBmAAlS.s:1032   .text.qspi_interrupt_flag_get:000000000000000a .L0 
C:\Users\CYMR90~1\AppData\Local\Temp\ccBmAAlS.s:1035   .text.qspi_interrupt_flag_get:0000000000000012 .L0 
C:\Users\CYMR90~1\AppData\Local\Temp\ccBmAAlS.s:1038   .text.qspi_interrupt_flag_get:0000000000000018 .L0 
C:\Users\CYMR90~1\AppData\Local\Temp\ccBmAAlS.s:1041   .text.qspi_interrupt_flag_get:0000000000000020 .L0 
C:\Users\CYMR90~1\AppData\Local\Temp\ccBmAAlS.s:1078   .text.qspi_interrupt_flag_get:0000000000000050 .L0 
C:\Users\CYMR90~1\AppData\Local\Temp\ccBmAAlS.s:1082   .text.qspi_interrupt_flag_get:000000000000005a .L0 
C:\Users\CYMR90~1\AppData\Local\Temp\ccBmAAlS.s:1087   .text.qspi_interrupt_flag_get:0000000000000066 .L0 
C:\Users\CYMR90~1\AppData\Local\Temp\ccBmAAlS.s:1090   .text.qspi_interrupt_flag_get:0000000000000068 .L0 
C:\Users\CYMR90~1\AppData\Local\Temp\ccBmAAlS.s:1094   .text.qspi_interrupt_flag_get:0000000000000072 .L0 
C:\Users\CYMR90~1\AppData\Local\Temp\ccBmAAlS.s:1099   .text.qspi_interrupt_flag_get:0000000000000080 .L0 
C:\Users\CYMR90~1\AppData\Local\Temp\ccBmAAlS.s:1102   .text.qspi_interrupt_flag_get:0000000000000082 .L0 
C:\Users\CYMR90~1\AppData\Local\Temp\ccBmAAlS.s:1106   .text.qspi_interrupt_flag_get:000000000000008c .L0 
C:\Users\CYMR90~1\AppData\Local\Temp\ccBmAAlS.s:1111   .text.qspi_interrupt_flag_get:000000000000009a .L0 
C:\Users\CYMR90~1\AppData\Local\Temp\ccBmAAlS.s:1114   .text.qspi_interrupt_flag_get:000000000000009c .L0 
C:\Users\CYMR90~1\AppData\Local\Temp\ccBmAAlS.s:1118   .text.qspi_interrupt_flag_get:00000000000000a6 .L0 
C:\Users\CYMR90~1\AppData\Local\Temp\ccBmAAlS.s:1123   .text.qspi_interrupt_flag_get:00000000000000b4 .L0 
C:\Users\CYMR90~1\AppData\Local\Temp\ccBmAAlS.s:1126   .text.qspi_interrupt_flag_get:00000000000000b6 .L0 
C:\Users\CYMR90~1\AppData\Local\Temp\ccBmAAlS.s:1130   .text.qspi_interrupt_flag_get:00000000000000c0 .L0 
C:\Users\CYMR90~1\AppData\Local\Temp\ccBmAAlS.s:1135   .text.qspi_interrupt_flag_get:00000000000000ce .L0 
C:\Users\CYMR90~1\AppData\Local\Temp\ccBmAAlS.s:1138   .text.qspi_interrupt_flag_get:00000000000000d0 .L0 
C:\Users\CYMR90~1\AppData\Local\Temp\ccBmAAlS.s:1141   .text.qspi_interrupt_flag_get:00000000000000d2 .L0 
C:\Users\CYMR90~1\AppData\Local\Temp\ccBmAAlS.s:1144   .text.qspi_interrupt_flag_get:00000000000000d8 .L0 
C:\Users\CYMR90~1\AppData\Local\Temp\ccBmAAlS.s:1147   .text.qspi_interrupt_flag_get:00000000000000de .L0 
C:\Users\CYMR90~1\AppData\Local\Temp\ccBmAAlS.s:1151   .text.qspi_interrupt_flag_get:00000000000000e2 .L0 
C:\Users\CYMR90~1\AppData\Local\Temp\ccBmAAlS.s:1154   .text.qspi_interrupt_flag_get:00000000000000e4 .L0 
C:\Users\CYMR90~1\AppData\Local\Temp\ccBmAAlS.s:1156   .text.qspi_interrupt_flag_get:00000000000000e8 .L0 
C:\Users\CYMR90~1\AppData\Local\Temp\ccBmAAlS.s:1157   .text.qspi_interrupt_flag_get:00000000000000e8 .L0 
C:\Users\CYMR90~1\AppData\Local\Temp\ccBmAAlS.s:1159   .text.qspi_interrupt_flag_get:00000000000000ea .L0 
C:\Users\CYMR90~1\AppData\Local\Temp\ccBmAAlS.s:1161   .text.qspi_interrupt_flag_get:00000000000000ec .L0 
C:\Users\CYMR90~1\AppData\Local\Temp\ccBmAAlS.s:1168   .text.qspi_interrupt_flag_clear:0000000000000000 qspi_interrupt_flag_clear
C:\Users\CYMR90~1\AppData\Local\Temp\ccBmAAlS.s:1171   .text.qspi_interrupt_flag_clear:0000000000000000 .L0 
C:\Users\CYMR90~1\AppData\Local\Temp\ccBmAAlS.s:1172   .text.qspi_interrupt_flag_clear:0000000000000000 .L0 
C:\Users\CYMR90~1\AppData\Local\Temp\ccBmAAlS.s:1173   .text.qspi_interrupt_flag_clear:0000000000000002 .L0 
C:\Users\CYMR90~1\AppData\Local\Temp\ccBmAAlS.s:1175   .text.qspi_interrupt_flag_clear:0000000000000004 .L0 
C:\Users\CYMR90~1\AppData\Local\Temp\ccBmAAlS.s:1177   .text.qspi_interrupt_flag_clear:0000000000000006 .L0 
C:\Users\CYMR90~1\AppData\Local\Temp\ccBmAAlS.s:1180   .text.qspi_interrupt_flag_clear:000000000000000a .L0 
C:\Users\CYMR90~1\AppData\Local\Temp\ccBmAAlS.s:1189   .text.qspi_interrupt_flag_clear:0000000000000024 .L0 
C:\Users\CYMR90~1\AppData\Local\Temp\ccBmAAlS.s:1191   .text.qspi_interrupt_flag_clear:0000000000000028 .L0 
C:\Users\CYMR90~1\AppData\Local\Temp\ccBmAAlS.s:1192   .text.qspi_interrupt_flag_clear:0000000000000028 .L0 
C:\Users\CYMR90~1\AppData\Local\Temp\ccBmAAlS.s:1194   .text.qspi_interrupt_flag_clear:000000000000002a .L0 
C:\Users\CYMR90~1\AppData\Local\Temp\ccBmAAlS.s:1196   .text.qspi_interrupt_flag_clear:000000000000002c .L0 
C:\Users\CYMR90~1\AppData\Local\Temp\ccBmAAlS.s:1205   .text.qspi_config:0000000000000000 .L0 
C:\Users\CYMR90~1\AppData\Local\Temp\ccBmAAlS.s:1206   .text.qspi_config:0000000000000000 .L0 
C:\Users\CYMR90~1\AppData\Local\Temp\ccBmAAlS.s:1207   .text.qspi_config:0000000000000002 .L0 
C:\Users\CYMR90~1\AppData\Local\Temp\ccBmAAlS.s:1209   .text.qspi_config:0000000000000004 .L0 
C:\Users\CYMR90~1\AppData\Local\Temp\ccBmAAlS.s:1211   .text.qspi_config:0000000000000006 .L0 
C:\Users\CYMR90~1\AppData\Local\Temp\ccBmAAlS.s:1215   .text.qspi_config:000000000000000e .L0 
C:\Users\CYMR90~1\AppData\Local\Temp\ccBmAAlS.s:1218   .text.qspi_config:0000000000000014 .L0 
C:\Users\CYMR90~1\AppData\Local\Temp\ccBmAAlS.s:1220   .text.qspi_config:0000000000000016 .L0 
C:\Users\CYMR90~1\AppData\Local\Temp\ccBmAAlS.s:1224   .text.qspi_config:0000000000000022 .L0 
C:\Users\CYMR90~1\AppData\Local\Temp\ccBmAAlS.s:1227   .text.qspi_config:0000000000000028 .L0 
C:\Users\CYMR90~1\AppData\Local\Temp\ccBmAAlS.s:1230   .text.qspi_config:0000000000000030 .L0 
C:\Users\CYMR90~1\AppData\Local\Temp\ccBmAAlS.s:1232   .text.qspi_config:0000000000000032 .L0 
C:\Users\CYMR90~1\AppData\Local\Temp\ccBmAAlS.s:1235   .text.qspi_config:0000000000000034 .L0 
C:\Users\CYMR90~1\AppData\Local\Temp\ccBmAAlS.s:1238   .text.qspi_config:000000000000003a .L0 
C:\Users\CYMR90~1\AppData\Local\Temp\ccBmAAlS.s:1240   .text.qspi_config:000000000000003e .L0 
C:\Users\CYMR90~1\AppData\Local\Temp\ccBmAAlS.s:1243   .text.qspi_config:0000000000000044 .L0 
C:\Users\CYMR90~1\AppData\Local\Temp\ccBmAAlS.s:1245   .text.qspi_config:0000000000000046 .L0 
C:\Users\CYMR90~1\AppData\Local\Temp\ccBmAAlS.s:1248   .text.qspi_config:000000000000004e .L0 
C:\Users\CYMR90~1\AppData\Local\Temp\ccBmAAlS.s:1251   .text.qspi_config:0000000000000054 .L0 
C:\Users\CYMR90~1\AppData\Local\Temp\ccBmAAlS.s:1253   .text.qspi_config:0000000000000056 .L0 
C:\Users\CYMR90~1\AppData\Local\Temp\ccBmAAlS.s:1256   .text.qspi_config:000000000000005c .L0 
C:\Users\CYMR90~1\AppData\Local\Temp\ccBmAAlS.s:1258   .text.qspi_config:000000000000005e .L0 
C:\Users\CYMR90~1\AppData\Local\Temp\ccBmAAlS.s:1261   .text.qspi_config:0000000000000064 .L0 
C:\Users\CYMR90~1\AppData\Local\Temp\ccBmAAlS.s:1264   .text.qspi_config:000000000000006a .L0 
C:\Users\CYMR90~1\AppData\Local\Temp\ccBmAAlS.s:1266   .text.qspi_config:000000000000006c .L0 
C:\Users\CYMR90~1\AppData\Local\Temp\ccBmAAlS.s:1268   .text.qspi_config:000000000000006e .L0 
C:\Users\CYMR90~1\AppData\Local\Temp\ccBmAAlS.s:1271   .text.qspi_config:0000000000000074 .L0 
C:\Users\CYMR90~1\AppData\Local\Temp\ccBmAAlS.s:1273   .text.qspi_config:0000000000000076 .L0 
C:\Users\CYMR90~1\AppData\Local\Temp\ccBmAAlS.s:1276   .text.qspi_config:000000000000007c .L0 
C:\Users\CYMR90~1\AppData\Local\Temp\ccBmAAlS.s:1278   .text.qspi_config:000000000000007e .L0 
C:\Users\CYMR90~1\AppData\Local\Temp\ccBmAAlS.s:1281   .text.qspi_config:0000000000000084 .L0 
C:\Users\CYMR90~1\AppData\Local\Temp\ccBmAAlS.s:1283   .text.qspi_config:0000000000000086 .L0 
C:\Users\CYMR90~1\AppData\Local\Temp\ccBmAAlS.s:1286   .text.qspi_config:000000000000008c .L0 
C:\Users\CYMR90~1\AppData\Local\Temp\ccBmAAlS.s:1288   .text.qspi_config:000000000000008e .L0 
C:\Users\CYMR90~1\AppData\Local\Temp\ccBmAAlS.s:1291   .text.qspi_config:0000000000000094 .L0 
C:\Users\CYMR90~1\AppData\Local\Temp\ccBmAAlS.s:1293   .text.qspi_config:0000000000000096 .L0 
C:\Users\CYMR90~1\AppData\Local\Temp\ccBmAAlS.s:1296   .text.qspi_config:000000000000009c .L0 
C:\Users\CYMR90~1\AppData\Local\Temp\ccBmAAlS.s:1298   .text.qspi_config:000000000000009e .L0 
C:\Users\CYMR90~1\AppData\Local\Temp\ccBmAAlS.s:1301   .text.qspi_config:00000000000000a4 .L0 
C:\Users\CYMR90~1\AppData\Local\Temp\ccBmAAlS.s:1303   .text.qspi_config:00000000000000a8 .L0 
C:\Users\CYMR90~1\AppData\Local\Temp\ccBmAAlS.s:1306   .text.qspi_config:00000000000000b0 .L0 
C:\Users\CYMR90~1\AppData\Local\Temp\ccBmAAlS.s:1309   .text.qspi_config:00000000000000b6 .L0 
C:\Users\CYMR90~1\AppData\Local\Temp\ccBmAAlS.s:1311   .text.qspi_config:00000000000000b8 .L0 
C:\Users\CYMR90~1\AppData\Local\Temp\ccBmAAlS.s:1315   .text.qspi_config:00000000000000c4 .L0 
C:\Users\CYMR90~1\AppData\Local\Temp\ccBmAAlS.s:1318   .text.qspi_config:00000000000000cc .L0 
C:\Users\CYMR90~1\AppData\Local\Temp\ccBmAAlS.s:1321   .text.qspi_config:00000000000000d2 .L0 
C:\Users\CYMR90~1\AppData\Local\Temp\ccBmAAlS.s:1323   .text.qspi_config:00000000000000d4 .L0 
C:\Users\CYMR90~1\AppData\Local\Temp\ccBmAAlS.s:1326   .text.qspi_config:00000000000000d6 .L0 
C:\Users\CYMR90~1\AppData\Local\Temp\ccBmAAlS.s:1329   .text.qspi_config:00000000000000dc .L0 
C:\Users\CYMR90~1\AppData\Local\Temp\ccBmAAlS.s:1332   .text.qspi_config:00000000000000e2 .L0 
C:\Users\CYMR90~1\AppData\Local\Temp\ccBmAAlS.s:1334   .text.qspi_config:00000000000000e4 .L0 
C:\Users\CYMR90~1\AppData\Local\Temp\ccBmAAlS.s:1336   .text.qspi_config:00000000000000e6 .L0 
C:\Users\CYMR90~1\AppData\Local\Temp\ccBmAAlS.s:1339   .text.qspi_config:00000000000000ec .L0 
C:\Users\CYMR90~1\AppData\Local\Temp\ccBmAAlS.s:1341   .text.qspi_config:00000000000000ee .L0 
C:\Users\CYMR90~1\AppData\Local\Temp\ccBmAAlS.s:1344   .text.qspi_config:00000000000000f4 .L0 
C:\Users\CYMR90~1\AppData\Local\Temp\ccBmAAlS.s:1346   .text.qspi_config:00000000000000f6 .L0 
C:\Users\CYMR90~1\AppData\Local\Temp\ccBmAAlS.s:1349   .text.qspi_config:00000000000000fc .L0 
C:\Users\CYMR90~1\AppData\Local\Temp\ccBmAAlS.s:1351   .text.qspi_config:00000000000000fe .L0 
C:\Users\CYMR90~1\AppData\Local\Temp\ccBmAAlS.s:1354   .text.qspi_config:0000000000000104 .L0 
C:\Users\CYMR90~1\AppData\Local\Temp\ccBmAAlS.s:1356   .text.qspi_config:0000000000000106 .L0 
C:\Users\CYMR90~1\AppData\Local\Temp\ccBmAAlS.s:1359   .text.qspi_config:000000000000010c .L0 
C:\Users\CYMR90~1\AppData\Local\Temp\ccBmAAlS.s:1361   .text.qspi_config:000000000000010e .L0 
C:\Users\CYMR90~1\AppData\Local\Temp\ccBmAAlS.s:1364   .text.qspi_config:0000000000000114 .L0 
C:\Users\CYMR90~1\AppData\Local\Temp\ccBmAAlS.s:1366   .text.qspi_config:0000000000000118 .L0 
C:\Users\CYMR90~1\AppData\Local\Temp\ccBmAAlS.s:1369   .text.qspi_config:0000000000000120 .L0 
C:\Users\CYMR90~1\AppData\Local\Temp\ccBmAAlS.s:1372   .text.qspi_config:0000000000000126 .L0 
C:\Users\CYMR90~1\AppData\Local\Temp\ccBmAAlS.s:1374   .text.qspi_config:0000000000000128 .L0 
C:\Users\CYMR90~1\AppData\Local\Temp\ccBmAAlS.s:1377   .text.qspi_config:000000000000012a .L0 
C:\Users\CYMR90~1\AppData\Local\Temp\ccBmAAlS.s:1380   .text.qspi_config:0000000000000130 .L0 
C:\Users\CYMR90~1\AppData\Local\Temp\ccBmAAlS.s:1382   .text.qspi_config:0000000000000132 .L0 
C:\Users\CYMR90~1\AppData\Local\Temp\ccBmAAlS.s:1385   .text.qspi_config:0000000000000138 .L0 
C:\Users\CYMR90~1\AppData\Local\Temp\ccBmAAlS.s:1388   .text.qspi_config:000000000000013e .L0 
C:\Users\CYMR90~1\AppData\Local\Temp\ccBmAAlS.s:1390   .text.qspi_config:0000000000000140 .L0 
C:\Users\CYMR90~1\AppData\Local\Temp\ccBmAAlS.s:1392   .text.qspi_config:0000000000000142 .L0 
C:\Users\CYMR90~1\AppData\Local\Temp\ccBmAAlS.s:1395   .text.qspi_config:0000000000000148 .L0 
C:\Users\CYMR90~1\AppData\Local\Temp\ccBmAAlS.s:1397   .text.qspi_config:000000000000014a .L0 
C:\Users\CYMR90~1\AppData\Local\Temp\ccBmAAlS.s:1400   .text.qspi_config:0000000000000150 .L0 
C:\Users\CYMR90~1\AppData\Local\Temp\ccBmAAlS.s:1402   .text.qspi_config:0000000000000152 .L0 
C:\Users\CYMR90~1\AppData\Local\Temp\ccBmAAlS.s:1405   .text.qspi_config:0000000000000158 .L0 
C:\Users\CYMR90~1\AppData\Local\Temp\ccBmAAlS.s:1407   .text.qspi_config:000000000000015a .L0 
C:\Users\CYMR90~1\AppData\Local\Temp\ccBmAAlS.s:1410   .text.qspi_config:0000000000000160 .L0 
C:\Users\CYMR90~1\AppData\Local\Temp\ccBmAAlS.s:1412   .text.qspi_config:0000000000000162 .L0 
C:\Users\CYMR90~1\AppData\Local\Temp\ccBmAAlS.s:1415   .text.qspi_config:0000000000000168 .L0 
C:\Users\CYMR90~1\AppData\Local\Temp\ccBmAAlS.s:1417   .text.qspi_config:000000000000016a .L0 
C:\Users\CYMR90~1\AppData\Local\Temp\ccBmAAlS.s:1420   .text.qspi_config:0000000000000170 .L0 
C:\Users\CYMR90~1\AppData\Local\Temp\ccBmAAlS.s:1422   .text.qspi_config:0000000000000174 .L0 
C:\Users\CYMR90~1\AppData\Local\Temp\ccBmAAlS.s:1425   .text.qspi_config:000000000000017c .L0 
C:\Users\CYMR90~1\AppData\Local\Temp\ccBmAAlS.s:1428   .text.qspi_config:0000000000000182 .L0 
C:\Users\CYMR90~1\AppData\Local\Temp\ccBmAAlS.s:1430   .text.qspi_config:0000000000000184 .L0 
C:\Users\CYMR90~1\AppData\Local\Temp\ccBmAAlS.s:1434   .text.qspi_config:0000000000000190 .L0 
C:\Users\CYMR90~1\AppData\Local\Temp\ccBmAAlS.s:1437   .text.qspi_config:0000000000000198 .L0 
C:\Users\CYMR90~1\AppData\Local\Temp\ccBmAAlS.s:1440   .text.qspi_config:000000000000019e .L0 
C:\Users\CYMR90~1\AppData\Local\Temp\ccBmAAlS.s:1442   .text.qspi_config:00000000000001a0 .L0 
C:\Users\CYMR90~1\AppData\Local\Temp\ccBmAAlS.s:1445   .text.qspi_config:00000000000001a2 .L0 
C:\Users\CYMR90~1\AppData\Local\Temp\ccBmAAlS.s:1448   .text.qspi_config:00000000000001a8 .L0 
C:\Users\CYMR90~1\AppData\Local\Temp\ccBmAAlS.s:1451   .text.qspi_config:00000000000001ae .L0 
C:\Users\CYMR90~1\AppData\Local\Temp\ccBmAAlS.s:1453   .text.qspi_config:00000000000001b0 .L0 
C:\Users\CYMR90~1\AppData\Local\Temp\ccBmAAlS.s:1455   .text.qspi_config:00000000000001b2 .L0 
C:\Users\CYMR90~1\AppData\Local\Temp\ccBmAAlS.s:1458   .text.qspi_config:00000000000001b8 .L0 
C:\Users\CYMR90~1\AppData\Local\Temp\ccBmAAlS.s:1460   .text.qspi_config:00000000000001ba .L0 
C:\Users\CYMR90~1\AppData\Local\Temp\ccBmAAlS.s:1463   .text.qspi_config:00000000000001c0 .L0 
C:\Users\CYMR90~1\AppData\Local\Temp\ccBmAAlS.s:1465   .text.qspi_config:00000000000001c2 .L0 
C:\Users\CYMR90~1\AppData\Local\Temp\ccBmAAlS.s:1468   .text.qspi_config:00000000000001c8 .L0 
C:\Users\CYMR90~1\AppData\Local\Temp\ccBmAAlS.s:1470   .text.qspi_config:00000000000001ca .L0 
C:\Users\CYMR90~1\AppData\Local\Temp\ccBmAAlS.s:1473   .text.qspi_config:00000000000001d0 .L0 
C:\Users\CYMR90~1\AppData\Local\Temp\ccBmAAlS.s:1475   .text.qspi_config:00000000000001d2 .L0 
C:\Users\CYMR90~1\AppData\Local\Temp\ccBmAAlS.s:1478   .text.qspi_config:00000000000001d8 .L0 
C:\Users\CYMR90~1\AppData\Local\Temp\ccBmAAlS.s:1480   .text.qspi_config:00000000000001dc .L0 
C:\Users\CYMR90~1\AppData\Local\Temp\ccBmAAlS.s:1483   .text.qspi_config:00000000000001e4 .L0 
C:\Users\CYMR90~1\AppData\Local\Temp\ccBmAAlS.s:1486   .text.qspi_config:00000000000001ea .L0 
C:\Users\CYMR90~1\AppData\Local\Temp\ccBmAAlS.s:1488   .text.qspi_config:00000000000001ec .L0 
C:\Users\CYMR90~1\AppData\Local\Temp\ccBmAAlS.s:1491   .text.qspi_config:00000000000001ee .L0 
C:\Users\CYMR90~1\AppData\Local\Temp\ccBmAAlS.s:1494   .text.qspi_config:00000000000001f4 .L0 
C:\Users\CYMR90~1\AppData\Local\Temp\ccBmAAlS.s:1496   .text.qspi_config:00000000000001f6 .L0 
C:\Users\CYMR90~1\AppData\Local\Temp\ccBmAAlS.s:1499   .text.qspi_config:00000000000001fe .L0 
C:\Users\CYMR90~1\AppData\Local\Temp\ccBmAAlS.s:1502   .text.qspi_config:0000000000000204 .L0 
C:\Users\CYMR90~1\AppData\Local\Temp\ccBmAAlS.s:1504   .text.qspi_config:0000000000000206 .L0 
C:\Users\CYMR90~1\AppData\Local\Temp\ccBmAAlS.s:1507   .text.qspi_config:000000000000020c .L0 
C:\Users\CYMR90~1\AppData\Local\Temp\ccBmAAlS.s:1509   .text.qspi_config:000000000000020e .L0 
C:\Users\CYMR90~1\AppData\Local\Temp\ccBmAAlS.s:1512   .text.qspi_config:0000000000000214 .L0 
C:\Users\CYMR90~1\AppData\Local\Temp\ccBmAAlS.s:1515   .text.qspi_config:000000000000021a .L0 
C:\Users\CYMR90~1\AppData\Local\Temp\ccBmAAlS.s:1517   .text.qspi_config:000000000000021c .L0 
C:\Users\CYMR90~1\AppData\Local\Temp\ccBmAAlS.s:1519   .text.qspi_config:000000000000021e .L0 
C:\Users\CYMR90~1\AppData\Local\Temp\ccBmAAlS.s:1522   .text.qspi_config:0000000000000224 .L0 
C:\Users\CYMR90~1\AppData\Local\Temp\ccBmAAlS.s:1524   .text.qspi_config:0000000000000226 .L0 
C:\Users\CYMR90~1\AppData\Local\Temp\ccBmAAlS.s:1527   .text.qspi_config:000000000000022c .L0 
C:\Users\CYMR90~1\AppData\Local\Temp\ccBmAAlS.s:1529   .text.qspi_config:000000000000022e .L0 
C:\Users\CYMR90~1\AppData\Local\Temp\ccBmAAlS.s:1532   .text.qspi_config:0000000000000234 .L0 
C:\Users\CYMR90~1\AppData\Local\Temp\ccBmAAlS.s:1534   .text.qspi_config:0000000000000236 .L0 
C:\Users\CYMR90~1\AppData\Local\Temp\ccBmAAlS.s:1537   .text.qspi_config:000000000000023c .L0 
C:\Users\CYMR90~1\AppData\Local\Temp\ccBmAAlS.s:1539   .text.qspi_config:000000000000023e .L0 
C:\Users\CYMR90~1\AppData\Local\Temp\ccBmAAlS.s:1542   .text.qspi_config:0000000000000244 .L0 
C:\Users\CYMR90~1\AppData\Local\Temp\ccBmAAlS.s:1544   .text.qspi_config:0000000000000246 .L0 
C:\Users\CYMR90~1\AppData\Local\Temp\ccBmAAlS.s:1547   .text.qspi_config:000000000000024c .L0 
C:\Users\CYMR90~1\AppData\Local\Temp\ccBmAAlS.s:1549   .text.qspi_config:0000000000000250 .L0 
C:\Users\CYMR90~1\AppData\Local\Temp\ccBmAAlS.s:1552   .text.qspi_config:0000000000000258 .L0 
C:\Users\CYMR90~1\AppData\Local\Temp\ccBmAAlS.s:1555   .text.qspi_config:000000000000025e .L0 
C:\Users\CYMR90~1\AppData\Local\Temp\ccBmAAlS.s:1557   .text.qspi_config:0000000000000260 .L0 
C:\Users\CYMR90~1\AppData\Local\Temp\ccBmAAlS.s:1561   .text.qspi_config:000000000000026c .L0 
C:\Users\CYMR90~1\AppData\Local\Temp\ccBmAAlS.s:1564   .text.qspi_config:0000000000000274 .L0 
C:\Users\CYMR90~1\AppData\Local\Temp\ccBmAAlS.s:1567   .text.qspi_config:000000000000027a .L0 
C:\Users\CYMR90~1\AppData\Local\Temp\ccBmAAlS.s:1569   .text.qspi_config:000000000000027c .L0 
C:\Users\CYMR90~1\AppData\Local\Temp\ccBmAAlS.s:1572   .text.qspi_config:000000000000027e .L0 
C:\Users\CYMR90~1\AppData\Local\Temp\ccBmAAlS.s:1575   .text.qspi_config:0000000000000284 .L0 
C:\Users\CYMR90~1\AppData\Local\Temp\ccBmAAlS.s:1578   .text.qspi_config:000000000000028a .L0 
C:\Users\CYMR90~1\AppData\Local\Temp\ccBmAAlS.s:1580   .text.qspi_config:000000000000028c .L0 
C:\Users\CYMR90~1\AppData\Local\Temp\ccBmAAlS.s:1582   .text.qspi_config:000000000000028e .L0 
C:\Users\CYMR90~1\AppData\Local\Temp\ccBmAAlS.s:1585   .text.qspi_config:0000000000000294 .L0 
C:\Users\CYMR90~1\AppData\Local\Temp\ccBmAAlS.s:1587   .text.qspi_config:0000000000000296 .L0 
C:\Users\CYMR90~1\AppData\Local\Temp\ccBmAAlS.s:1590   .text.qspi_config:000000000000029c .L0 
C:\Users\CYMR90~1\AppData\Local\Temp\ccBmAAlS.s:1592   .text.qspi_config:000000000000029e .L0 
C:\Users\CYMR90~1\AppData\Local\Temp\ccBmAAlS.s:1595   .text.qspi_config:00000000000002a4 .L0 
C:\Users\CYMR90~1\AppData\Local\Temp\ccBmAAlS.s:1597   .text.qspi_config:00000000000002a6 .L0 
C:\Users\CYMR90~1\AppData\Local\Temp\ccBmAAlS.s:1600   .text.qspi_config:00000000000002ac .L0 
C:\Users\CYMR90~1\AppData\Local\Temp\ccBmAAlS.s:1602   .text.qspi_config:00000000000002ae .L0 
C:\Users\CYMR90~1\AppData\Local\Temp\ccBmAAlS.s:1605   .text.qspi_config:00000000000002b4 .L0 
C:\Users\CYMR90~1\AppData\Local\Temp\ccBmAAlS.s:1607   .text.qspi_config:00000000000002b8 .L0 
C:\Users\CYMR90~1\AppData\Local\Temp\ccBmAAlS.s:1610   .text.qspi_config:00000000000002c0 .L0 
C:\Users\CYMR90~1\AppData\Local\Temp\ccBmAAlS.s:1613   .text.qspi_config:00000000000002c6 .L0 
C:\Users\CYMR90~1\AppData\Local\Temp\ccBmAAlS.s:1615   .text.qspi_config:00000000000002c8 .L0 
C:\Users\CYMR90~1\AppData\Local\Temp\ccBmAAlS.s:1618   .text.qspi_config:00000000000002ca .L0 
C:\Users\CYMR90~1\AppData\Local\Temp\ccBmAAlS.s:1621   .text.qspi_config:00000000000002d0 .L0 
C:\Users\CYMR90~1\AppData\Local\Temp\ccBmAAlS.s:1623   .text.qspi_config:00000000000002d2 .L0 
C:\Users\CYMR90~1\AppData\Local\Temp\ccBmAAlS.s:1626   .text.qspi_config:00000000000002d8 .L0 
C:\Users\CYMR90~1\AppData\Local\Temp\ccBmAAlS.s:1629   .text.qspi_config:00000000000002de .L0 
C:\Users\CYMR90~1\AppData\Local\Temp\ccBmAAlS.s:1631   .text.qspi_config:00000000000002e0 .L0 
C:\Users\CYMR90~1\AppData\Local\Temp\ccBmAAlS.s:1633   .text.qspi_config:00000000000002e2 .L0 
C:\Users\CYMR90~1\AppData\Local\Temp\ccBmAAlS.s:1636   .text.qspi_config:00000000000002e8 .L0 
C:\Users\CYMR90~1\AppData\Local\Temp\ccBmAAlS.s:1638   .text.qspi_config:00000000000002ea .L0 
C:\Users\CYMR90~1\AppData\Local\Temp\ccBmAAlS.s:1641   .text.qspi_config:00000000000002f0 .L0 
C:\Users\CYMR90~1\AppData\Local\Temp\ccBmAAlS.s:1643   .text.qspi_config:00000000000002f2 .L0 
C:\Users\CYMR90~1\AppData\Local\Temp\ccBmAAlS.s:1646   .text.qspi_config:00000000000002f8 .L0 
C:\Users\CYMR90~1\AppData\Local\Temp\ccBmAAlS.s:1648   .text.qspi_config:00000000000002fa .L0 
C:\Users\CYMR90~1\AppData\Local\Temp\ccBmAAlS.s:1651   .text.qspi_config:0000000000000300 .L0 
C:\Users\CYMR90~1\AppData\Local\Temp\ccBmAAlS.s:1653   .text.qspi_config:0000000000000302 .L0 
C:\Users\CYMR90~1\AppData\Local\Temp\ccBmAAlS.s:1656   .text.qspi_config:0000000000000308 .L0 
C:\Users\CYMR90~1\AppData\Local\Temp\ccBmAAlS.s:1658   .text.qspi_config:000000000000030c .L0 
C:\Users\CYMR90~1\AppData\Local\Temp\ccBmAAlS.s:1661   .text.qspi_config:0000000000000314 .L0 
C:\Users\CYMR90~1\AppData\Local\Temp\ccBmAAlS.s:1664   .text.qspi_config:000000000000031a .L0 
C:\Users\CYMR90~1\AppData\Local\Temp\ccBmAAlS.s:1666   .text.qspi_config:000000000000031c .L0 
C:\Users\CYMR90~1\AppData\Local\Temp\ccBmAAlS.s:1670   .text.qspi_config:0000000000000328 .L0 
C:\Users\CYMR90~1\AppData\Local\Temp\ccBmAAlS.s:1673   .text.qspi_config:0000000000000330 .L0 
C:\Users\CYMR90~1\AppData\Local\Temp\ccBmAAlS.s:1676   .text.qspi_config:0000000000000336 .L0 
C:\Users\CYMR90~1\AppData\Local\Temp\ccBmAAlS.s:1678   .text.qspi_config:0000000000000338 .L0 
C:\Users\CYMR90~1\AppData\Local\Temp\ccBmAAlS.s:1681   .text.qspi_config:000000000000033a .L0 
C:\Users\CYMR90~1\AppData\Local\Temp\ccBmAAlS.s:1684   .text.qspi_config:0000000000000340 .L0 
C:\Users\CYMR90~1\AppData\Local\Temp\ccBmAAlS.s:1686   .text.qspi_config:0000000000000342 .L0 
C:\Users\CYMR90~1\AppData\Local\Temp\ccBmAAlS.s:1689   .text.qspi_config:0000000000000348 .L0 
C:\Users\CYMR90~1\AppData\Local\Temp\ccBmAAlS.s:1692   .text.qspi_config:000000000000034e .L0 
C:\Users\CYMR90~1\AppData\Local\Temp\ccBmAAlS.s:1694   .text.qspi_config:0000000000000350 .L0 
C:\Users\CYMR90~1\AppData\Local\Temp\ccBmAAlS.s:1696   .text.qspi_config:0000000000000352 .L0 
C:\Users\CYMR90~1\AppData\Local\Temp\ccBmAAlS.s:1699   .text.qspi_config:0000000000000358 .L0 
C:\Users\CYMR90~1\AppData\Local\Temp\ccBmAAlS.s:1701   .text.qspi_config:000000000000035a .L0 
C:\Users\CYMR90~1\AppData\Local\Temp\ccBmAAlS.s:1704   .text.qspi_config:0000000000000360 .L0 
C:\Users\CYMR90~1\AppData\Local\Temp\ccBmAAlS.s:1706   .text.qspi_config:0000000000000362 .L0 
C:\Users\CYMR90~1\AppData\Local\Temp\ccBmAAlS.s:1709   .text.qspi_config:0000000000000368 .L0 
C:\Users\CYMR90~1\AppData\Local\Temp\ccBmAAlS.s:1711   .text.qspi_config:000000000000036a .L0 
C:\Users\CYMR90~1\AppData\Local\Temp\ccBmAAlS.s:1714   .text.qspi_config:0000000000000370 .L0 
C:\Users\CYMR90~1\AppData\Local\Temp\ccBmAAlS.s:1716   .text.qspi_config:0000000000000374 .L0 
C:\Users\CYMR90~1\AppData\Local\Temp\ccBmAAlS.s:1719   .text.qspi_config:000000000000037c .L0 
C:\Users\CYMR90~1\AppData\Local\Temp\ccBmAAlS.s:1722   .text.qspi_config:0000000000000382 .L0 
C:\Users\CYMR90~1\AppData\Local\Temp\ccBmAAlS.s:1725   .text.qspi_config:0000000000000384 .L0 
C:\Users\CYMR90~1\AppData\Local\Temp\ccBmAAlS.s:1727   .text.qspi_config:0000000000000388 .L0 
C:\Users\CYMR90~1\AppData\Local\Temp\ccBmAAlS.s:1728   .text.qspi_config:0000000000000388 .L0 
C:\Users\CYMR90~1\AppData\Local\Temp\ccBmAAlS.s:1730   .text.qspi_config:000000000000038a .L0 
C:\Users\CYMR90~1\AppData\Local\Temp\ccBmAAlS.s:1732   .text.qspi_config:000000000000038c .L0 
C:\Users\CYMR90~1\AppData\Local\Temp\ccBmAAlS.s:45     .text.qspi_deinit:000000000000002a .L0 
C:\Users\CYMR90~1\AppData\Local\Temp\ccBmAAlS.s:92     .text.qspi_struct_para_init:0000000000000042 .L0 
C:\Users\CYMR90~1\AppData\Local\Temp\ccBmAAlS.s:154    .text.qspi_cmd_struct_para_init:0000000000000072 .L0 
C:\Users\CYMR90~1\AppData\Local\Temp\ccBmAAlS.s:199    .text.qspi_polling_struct_para_init:0000000000000042 .L0 
C:\Users\CYMR90~1\AppData\Local\Temp\ccBmAAlS.s:297    .text.qspi_init:00000000000000b2 .L0 
C:\Users\CYMR90~1\AppData\Local\Temp\ccBmAAlS.s:330    .text.qspi_enable:0000000000000026 .L0 
C:\Users\CYMR90~1\AppData\Local\Temp\ccBmAAlS.s:363    .text.qspi_disable:0000000000000024 .L0 
C:\Users\CYMR90~1\AppData\Local\Temp\ccBmAAlS.s:396    .text.qspi_dma_enable:0000000000000026 .L0 
C:\Users\CYMR90~1\AppData\Local\Temp\ccBmAAlS.s:429    .text.qspi_dma_disable:0000000000000024 .L0 
C:\Users\CYMR90~1\AppData\Local\Temp\ccBmAAlS.s:486    .text.qspi_command_config:0000000000000048 .L0 
C:\Users\CYMR90~1\AppData\Local\Temp\ccBmAAlS.s:578    .text.qspi_polling_config:00000000000000a6 .L0 
C:\Users\CYMR90~1\AppData\Local\Temp\ccBmAAlS.s:658    .text.qspi_memorymapped_config:000000000000009e .L0 
C:\Users\CYMR90~1\AppData\Local\Temp\ccBmAAlS.s:738    .text.qspi_data_transmit:000000000000007e .L0 
C:\Users\CYMR90~1\AppData\Local\Temp\ccBmAAlS.s:833    .text.qspi_data_receive:00000000000000a2 .L0 
C:\Users\CYMR90~1\AppData\Local\Temp\ccBmAAlS.s:866    .text.qspi_transmission_abort:0000000000000026 .L0 
C:\Users\CYMR90~1\AppData\Local\Temp\ccBmAAlS.s:908    .text.qspi_flag_get:000000000000002a .L0 
C:\Users\CYMR90~1\AppData\Local\Temp\ccBmAAlS.s:943    .text.qspi_flag_clear:000000000000002c .L0 
C:\Users\CYMR90~1\AppData\Local\Temp\ccBmAAlS.s:978    .text.qspi_interrupt_enable:000000000000002c .L0 
C:\Users\CYMR90~1\AppData\Local\Temp\ccBmAAlS.s:1016   .text.qspi_interrupt_disable:0000000000000030 .L0 
C:\Users\CYMR90~1\AppData\Local\Temp\ccBmAAlS.s:1164   .text.qspi_interrupt_flag_get:00000000000000ec .L0 
C:\Users\CYMR90~1\AppData\Local\Temp\ccBmAAlS.s:1199   .text.qspi_interrupt_flag_clear:000000000000002c .L0 
C:\Users\CYMR90~1\AppData\Local\Temp\ccBmAAlS.s:1735   .text.qspi_config:000000000000038c .L0 
                     .debug_frame:0000000000000000 .L0 
C:\Users\CYMR90~1\AppData\Local\Temp\ccBmAAlS.s:472    .text.qspi_command_config:000000000000003e .L13
C:\Users\CYMR90~1\AppData\Local\Temp\ccBmAAlS.s:457    .text.qspi_command_config:0000000000000024 .L12
C:\Users\CYMR90~1\AppData\Local\Temp\ccBmAAlS.s:640    .text.qspi_memorymapped_config:0000000000000084 .L16
C:\Users\CYMR90~1\AppData\Local\Temp\ccBmAAlS.s:722    .text.qspi_data_transmit:000000000000006e .L18
C:\Users\CYMR90~1\AppData\Local\Temp\ccBmAAlS.s:698    .text.qspi_data_transmit:000000000000003a .L19
C:\Users\CYMR90~1\AppData\Local\Temp\ccBmAAlS.s:695    .text.qspi_data_transmit:0000000000000038 .L20
C:\Users\CYMR90~1\AppData\Local\Temp\ccBmAAlS.s:817    .text.qspi_data_receive:0000000000000092 .L22
C:\Users\CYMR90~1\AppData\Local\Temp\ccBmAAlS.s:793    .text.qspi_data_receive:000000000000005e .L23
C:\Users\CYMR90~1\AppData\Local\Temp\ccBmAAlS.s:790    .text.qspi_data_receive:000000000000005c .L24
C:\Users\CYMR90~1\AppData\Local\Temp\ccBmAAlS.s:893    .text.qspi_flag_get:0000000000000020 .L27
C:\Users\CYMR90~1\AppData\Local\Temp\ccBmAAlS.s:896    .text.qspi_flag_get:0000000000000022 .L28
C:\Users\CYMR90~1\AppData\Local\Temp\ccBmAAlS.s:1057   .rodata.qspi_interrupt_flag_get:0000000000000000 .L35
C:\Users\CYMR90~1\AppData\Local\Temp\ccBmAAlS.s:1048   .text.qspi_interrupt_flag_get:0000000000000038 .L0 
C:\Users\CYMR90~1\AppData\Local\Temp\ccBmAAlS.s:1051   .text.qspi_interrupt_flag_get:0000000000000044 .L0 
C:\Users\CYMR90~1\AppData\Local\Temp\ccBmAAlS.s:1136   .text.qspi_interrupt_flag_get:00000000000000d0 .L43
C:\Users\CYMR90~1\AppData\Local\Temp\ccBmAAlS.s:1139   .text.qspi_interrupt_flag_get:00000000000000d2 .L40
C:\Users\CYMR90~1\AppData\Local\Temp\ccBmAAlS.s:1149   .text.qspi_interrupt_flag_get:00000000000000e2 .L41
C:\Users\CYMR90~1\AppData\Local\Temp\ccBmAAlS.s:1152   .text.qspi_interrupt_flag_get:00000000000000e4 .L42
C:\Users\CYMR90~1\AppData\Local\Temp\ccBmAAlS.s:1076   .text.qspi_interrupt_flag_get:0000000000000050 .L39
C:\Users\CYMR90~1\AppData\Local\Temp\ccBmAAlS.s:1088   .text.qspi_interrupt_flag_get:0000000000000068 .L38
C:\Users\CYMR90~1\AppData\Local\Temp\ccBmAAlS.s:1100   .text.qspi_interrupt_flag_get:0000000000000082 .L37
C:\Users\CYMR90~1\AppData\Local\Temp\ccBmAAlS.s:1112   .text.qspi_interrupt_flag_get:000000000000009c .L36
C:\Users\CYMR90~1\AppData\Local\Temp\ccBmAAlS.s:1124   .text.qspi_interrupt_flag_get:00000000000000b6 .L34
C:\Users\CYMR90~1\AppData\Local\Temp\ccBmAAlS.s:1233   .text.qspi_config:0000000000000034 .L46
C:\Users\CYMR90~1\AppData\Local\Temp\ccBmAAlS.s:1489   .text.qspi_config:00000000000001ee .L47
C:\Users\CYMR90~1\AppData\Local\Temp\ccBmAAlS.s:1375   .text.qspi_config:000000000000012a .L48
C:\Users\CYMR90~1\AppData\Local\Temp\ccBmAAlS.s:1324   .text.qspi_config:00000000000000d6 .L49
C:\Users\CYMR90~1\AppData\Local\Temp\ccBmAAlS.s:1723   .text.qspi_config:0000000000000384 .L55
C:\Users\CYMR90~1\AppData\Local\Temp\ccBmAAlS.s:1443   .text.qspi_config:00000000000001a2 .L51
C:\Users\CYMR90~1\AppData\Local\Temp\ccBmAAlS.s:1616   .text.qspi_config:00000000000002ca .L52
C:\Users\CYMR90~1\AppData\Local\Temp\ccBmAAlS.s:1570   .text.qspi_config:000000000000027e .L53
C:\Users\CYMR90~1\AppData\Local\Temp\ccBmAAlS.s:1679   .text.qspi_config:000000000000033a .L54
C:\Users\CYMR90~1\AppData\Local\Temp\ccBmAAlS.s:2639   .debug_abbrev:0000000000000000 .Ldebug_abbrev0
C:\Users\CYMR90~1\AppData\Local\Temp\ccBmAAlS.s:23647  .debug_str:000000000000afe6 .LASF5670
C:\Users\CYMR90~1\AppData\Local\Temp\ccBmAAlS.s:30492  .debug_str:0000000000026438 .LASF5671
C:\Users\CYMR90~1\AppData\Local\Temp\ccBmAAlS.s:23939  .debug_str:000000000000c39c .LASF5672
C:\Users\CYMR90~1\AppData\Local\Temp\ccBmAAlS.s:3182   .debug_ranges:0000000000000000 .Ldebug_ranges0
C:\Users\CYMR90~1\AppData\Local\Temp\ccBmAAlS.s:20877  .debug_line:0000000000000000 .Ldebug_line0
C:\Users\CYMR90~1\AppData\Local\Temp\ccBmAAlS.s:3230   .debug_macro:0000000000000000 .Ldebug_macro0
C:\Users\CYMR90~1\AppData\Local\Temp\ccBmAAlS.s:32186  .debug_str:000000000002d076 .LASF5560
C:\Users\CYMR90~1\AppData\Local\Temp\ccBmAAlS.s:20895  .debug_str:0000000000000123 .LASF5561
C:\Users\CYMR90~1\AppData\Local\Temp\ccBmAAlS.s:21827  .debug_str:0000000000003af7 .LASF5562
C:\Users\CYMR90~1\AppData\Local\Temp\ccBmAAlS.s:27032  .debug_str:00000000000187db .LASF5563
C:\Users\CYMR90~1\AppData\Local\Temp\ccBmAAlS.s:23129  .debug_str:0000000000008f3a .LASF5566
C:\Users\CYMR90~1\AppData\Local\Temp\ccBmAAlS.s:26495  .debug_str:000000000001646f .LASF5564
C:\Users\CYMR90~1\AppData\Local\Temp\ccBmAAlS.s:28366  .debug_str:000000000001dffa .LASF5565
C:\Users\CYMR90~1\AppData\Local\Temp\ccBmAAlS.s:24443  .debug_str:000000000000e33a .LASF5567
C:\Users\CYMR90~1\AppData\Local\Temp\ccBmAAlS.s:25949  .debug_str:0000000000014271 .LASF5568
C:\Users\CYMR90~1\AppData\Local\Temp\ccBmAAlS.s:28776  .debug_str:000000000001f858 .LASF5569
C:\Users\CYMR90~1\AppData\Local\Temp\ccBmAAlS.s:27246  .debug_str:0000000000019611 .LASF5570
C:\Users\CYMR90~1\AppData\Local\Temp\ccBmAAlS.s:26672  .debug_str:00000000000171f8 .LASF5571
C:\Users\CYMR90~1\AppData\Local\Temp\ccBmAAlS.s:30340  .debug_str:0000000000025b05 .LASF5572
C:\Users\CYMR90~1\AppData\Local\Temp\ccBmAAlS.s:28798  .debug_str:000000000001f9b8 .LASF855
C:\Users\CYMR90~1\AppData\Local\Temp\ccBmAAlS.s:26259  .debug_str:00000000000155bb .LASF5573
C:\Users\CYMR90~1\AppData\Local\Temp\ccBmAAlS.s:30272  .debug_str:00000000000255e8 .LASF5574
C:\Users\CYMR90~1\AppData\Local\Temp\ccBmAAlS.s:30460  .debug_str:000000000002628f .LASF5575
C:\Users\CYMR90~1\AppData\Local\Temp\ccBmAAlS.s:30028  .debug_str:0000000000024516 .LASF5576
C:\Users\CYMR90~1\AppData\Local\Temp\ccBmAAlS.s:23503  .debug_str:000000000000a62e .LASF5577
C:\Users\CYMR90~1\AppData\Local\Temp\ccBmAAlS.s:23655  .debug_str:000000000000b0fd .LASF5578
C:\Users\CYMR90~1\AppData\Local\Temp\ccBmAAlS.s:31206  .debug_str:000000000002929d .LASF5579
C:\Users\CYMR90~1\AppData\Local\Temp\ccBmAAlS.s:28562  .debug_str:000000000001ebb4 .LASF5580
C:\Users\CYMR90~1\AppData\Local\Temp\ccBmAAlS.s:29400  .debug_str:0000000000021ea5 .LASF5581
C:\Users\CYMR90~1\AppData\Local\Temp\ccBmAAlS.s:32164  .debug_str:000000000002cf1b .LASF5582
C:\Users\CYMR90~1\AppData\Local\Temp\ccBmAAlS.s:30632  .debug_str:0000000000026cdd .LASF5583
C:\Users\CYMR90~1\AppData\Local\Temp\ccBmAAlS.s:31690  .debug_str:000000000002b04e .LASF5584
C:\Users\CYMR90~1\AppData\Local\Temp\ccBmAAlS.s:26409  .debug_str:0000000000015f0e .LASF5585
C:\Users\CYMR90~1\AppData\Local\Temp\ccBmAAlS.s:21671  .debug_str:000000000000309d .LASF5586
C:\Users\CYMR90~1\AppData\Local\Temp\ccBmAAlS.s:25033  .debug_str:0000000000010760 .LASF5587
C:\Users\CYMR90~1\AppData\Local\Temp\ccBmAAlS.s:30534  .debug_str:00000000000266e5 .LASF5588
C:\Users\CYMR90~1\AppData\Local\Temp\ccBmAAlS.s:22737  .debug_str:00000000000074d0 .LASF5589
C:\Users\CYMR90~1\AppData\Local\Temp\ccBmAAlS.s:23979  .debug_str:000000000000c61e .LASF5590
C:\Users\CYMR90~1\AppData\Local\Temp\ccBmAAlS.s:32156  .debug_str:000000000002ce0b .LASF5591
C:\Users\CYMR90~1\AppData\Local\Temp\ccBmAAlS.s:22533  .debug_str:000000000000675e .LASF5592
C:\Users\CYMR90~1\AppData\Local\Temp\ccBmAAlS.s:31134  .debug_str:0000000000028e03 .LASF5593
C:\Users\CYMR90~1\AppData\Local\Temp\ccBmAAlS.s:31068  .debug_str:0000000000028a41 .LASF5594
C:\Users\CYMR90~1\AppData\Local\Temp\ccBmAAlS.s:29100  .debug_str:0000000000020c79 .LASF5595
C:\Users\CYMR90~1\AppData\Local\Temp\ccBmAAlS.s:22025  .debug_str:0000000000004818 .LASF5596
C:\Users\CYMR90~1\AppData\Local\Temp\ccBmAAlS.s:27470  .debug_str:000000000001a5b1 .LASF5597
C:\Users\CYMR90~1\AppData\Local\Temp\ccBmAAlS.s:24267  .debug_str:000000000000d8df .LASF5598
C:\Users\CYMR90~1\AppData\Local\Temp\ccBmAAlS.s:31998  .debug_str:000000000002c3bf .LASF5599
C:\Users\CYMR90~1\AppData\Local\Temp\ccBmAAlS.s:27180  .debug_str:0000000000019255 .LASF5600
C:\Users\CYMR90~1\AppData\Local\Temp\ccBmAAlS.s:22761  .debug_str:0000000000007633 .LASF5601
C:\Users\CYMR90~1\AppData\Local\Temp\ccBmAAlS.s:31970  .debug_str:000000000002c234 .LASF5602
C:\Users\CYMR90~1\AppData\Local\Temp\ccBmAAlS.s:29386  .debug_str:0000000000021dc0 .LASF5603
C:\Users\CYMR90~1\AppData\Local\Temp\ccBmAAlS.s:21915  .debug_str:0000000000004076 .LASF5604
C:\Users\CYMR90~1\AppData\Local\Temp\ccBmAAlS.s:29984  .debug_str:00000000000241fa .LASF5605
C:\Users\CYMR90~1\AppData\Local\Temp\ccBmAAlS.s:23729  .debug_str:000000000000b50d .LASF5606
C:\Users\CYMR90~1\AppData\Local\Temp\ccBmAAlS.s:27656  .debug_str:000000000001b1ee .LASF5607
C:\Users\CYMR90~1\AppData\Local\Temp\ccBmAAlS.s:21215  .debug_str:00000000000014c8 .LASF5608
C:\Users\CYMR90~1\AppData\Local\Temp\ccBmAAlS.s:29052  .debug_str:000000000002099e .LASF5609
C:\Users\CYMR90~1\AppData\Local\Temp\ccBmAAlS.s:22569  .debug_str:00000000000069b4 .LASF5610
C:\Users\CYMR90~1\AppData\Local\Temp\ccBmAAlS.s:29650  .debug_str:0000000000022db2 .LASF5611
C:\Users\CYMR90~1\AppData\Local\Temp\ccBmAAlS.s:32082  .debug_str:000000000002c95a .LASF5612
C:\Users\CYMR90~1\AppData\Local\Temp\ccBmAAlS.s:26972  .debug_str:000000000001842d .LASF5613
C:\Users\CYMR90~1\AppData\Local\Temp\ccBmAAlS.s:29242  .debug_str:000000000002150f .LASF5614
C:\Users\CYMR90~1\AppData\Local\Temp\ccBmAAlS.s:30384  .debug_str:0000000000025dcf .LASF5615
C:\Users\CYMR90~1\AppData\Local\Temp\ccBmAAlS.s:21759  .debug_str:0000000000003682 .LASF5616
C:\Users\CYMR90~1\AppData\Local\Temp\ccBmAAlS.s:28094  .debug_str:000000000001cd6a .LASF5617
C:\Users\CYMR90~1\AppData\Local\Temp\ccBmAAlS.s:28740  .debug_str:000000000001f641 .LASF5618
C:\Users\CYMR90~1\AppData\Local\Temp\ccBmAAlS.s:26209  .debug_str:00000000000152f1 .LASF5619
C:\Users\CYMR90~1\AppData\Local\Temp\ccBmAAlS.s:23197  .debug_str:00000000000092ff .LASF5620
C:\Users\CYMR90~1\AppData\Local\Temp\ccBmAAlS.s:25497  .debug_str:0000000000012580 .LASF5621
C:\Users\CYMR90~1\AppData\Local\Temp\ccBmAAlS.s:21983  .debug_str:0000000000004526 .LASF5622
C:\Users\CYMR90~1\AppData\Local\Temp\ccBmAAlS.s:24269  .debug_str:000000000000d8eb .LASF5623
C:\Users\CYMR90~1\AppData\Local\Temp\ccBmAAlS.s:23277  .debug_str:00000000000097e4 .LASF5624
C:\Users\CYMR90~1\AppData\Local\Temp\ccBmAAlS.s:29228  .debug_str:000000000002144a .LASF5625
C:\Users\CYMR90~1\AppData\Local\Temp\ccBmAAlS.s:24451  .debug_str:000000000000e395 .LASF5626
C:\Users\CYMR90~1\AppData\Local\Temp\ccBmAAlS.s:21517  .debug_str:000000000000271b .LASF5627
C:\Users\CYMR90~1\AppData\Local\Temp\ccBmAAlS.s:25637  .debug_str:0000000000012ecb .LASF5628
C:\Users\CYMR90~1\AppData\Local\Temp\ccBmAAlS.s:25183  .debug_str:0000000000011098 .LASF5629
C:\Users\CYMR90~1\AppData\Local\Temp\ccBmAAlS.s:26319  .debug_str:0000000000015932 .LASF5630
C:\Users\CYMR90~1\AppData\Local\Temp\ccBmAAlS.s:21633  .debug_str:0000000000002e6b .LASF5631
C:\Users\CYMR90~1\AppData\Local\Temp\ccBmAAlS.s:23389  .debug_str:0000000000009ee0 .LASF5632
C:\Users\CYMR90~1\AppData\Local\Temp\ccBmAAlS.s:26866  .debug_str:0000000000017ddd .LASF5633
C:\Users\CYMR90~1\AppData\Local\Temp\ccBmAAlS.s:29410  .debug_str:0000000000021f49 .LASF5634
C:\Users\CYMR90~1\AppData\Local\Temp\ccBmAAlS.s:27510  .debug_str:000000000001a89f .LASF5673
C:\Users\CYMR90~1\AppData\Local\Temp\ccBmAAlS.s:1203   .text.qspi_config:0000000000000000 .LFB368
C:\Users\CYMR90~1\AppData\Local\Temp\ccBmAAlS.s:1733   .text.qspi_config:000000000000038c .LFE368
C:\Users\CYMR90~1\AppData\Local\Temp\ccBmAAlS.s:27768  .debug_str:000000000001b89a .LASF5635
C:\Users\CYMR90~1\AppData\Local\Temp\ccBmAAlS.s:21017  .debug_str:000000000000085a .LASF5639
C:\Users\CYMR90~1\AppData\Local\Temp\ccBmAAlS.s:1169   .text.qspi_interrupt_flag_clear:0000000000000000 .LFB367
C:\Users\CYMR90~1\AppData\Local\Temp\ccBmAAlS.s:1197   .text.qspi_interrupt_flag_clear:000000000000002c .LFE367
C:\Users\CYMR90~1\AppData\Local\Temp\ccBmAAlS.s:25985  .debug_str:0000000000014457 .LASF5636
C:\Users\CYMR90~1\AppData\Local\Temp\ccBmAAlS.s:29658  .debug_str:0000000000022e10 .LASF5645
C:\Users\CYMR90~1\AppData\Local\Temp\ccBmAAlS.s:1021   .text.qspi_interrupt_flag_get:0000000000000000 .LFB366
C:\Users\CYMR90~1\AppData\Local\Temp\ccBmAAlS.s:1162   .text.qspi_interrupt_flag_get:00000000000000ec .LFE366
C:\Users\CYMR90~1\AppData\Local\Temp\ccBmAAlS.s:21443  .debug_str:00000000000022c7 .LASF5637
C:\Users\CYMR90~1\AppData\Local\Temp\ccBmAAlS.s:21445  .debug_str:00000000000022cc .LASF5638
C:\Users\CYMR90~1\AppData\Local\Temp\ccBmAAlS.s:31644  .debug_str:000000000002ad63 .LASF5640
C:\Users\CYMR90~1\AppData\Local\Temp\ccBmAAlS.s:983    .text.qspi_interrupt_disable:0000000000000000 .LFB365
C:\Users\CYMR90~1\AppData\Local\Temp\ccBmAAlS.s:1014   .text.qspi_interrupt_disable:0000000000000030 .LFE365
C:\Users\CYMR90~1\AppData\Local\Temp\ccBmAAlS.s:27596  .debug_str:000000000001adb4 .LASF5641
C:\Users\CYMR90~1\AppData\Local\Temp\ccBmAAlS.s:23785  .debug_str:000000000000b948 .LASF5642
C:\Users\CYMR90~1\AppData\Local\Temp\ccBmAAlS.s:948    .text.qspi_interrupt_enable:0000000000000000 .LFB364
C:\Users\CYMR90~1\AppData\Local\Temp\ccBmAAlS.s:976    .text.qspi_interrupt_enable:000000000000002c .LFE364
C:\Users\CYMR90~1\AppData\Local\Temp\ccBmAAlS.s:30264  .debug_str:0000000000025541 .LASF5643
C:\Users\CYMR90~1\AppData\Local\Temp\ccBmAAlS.s:913    .text.qspi_flag_clear:0000000000000000 .LFB363
C:\Users\CYMR90~1\AppData\Local\Temp\ccBmAAlS.s:941    .text.qspi_flag_clear:000000000000002c .LFE363
C:\Users\CYMR90~1\AppData\Local\Temp\ccBmAAlS.s:23491  .debug_str:000000000000a56f .LASF5644
C:\Users\CYMR90~1\AppData\Local\Temp\ccBmAAlS.s:28160  .debug_str:000000000001d2db .LASF5646
C:\Users\CYMR90~1\AppData\Local\Temp\ccBmAAlS.s:871    .text.qspi_flag_get:0000000000000000 .LFB362
C:\Users\CYMR90~1\AppData\Local\Temp\ccBmAAlS.s:906    .text.qspi_flag_get:000000000000002a .LFE362
C:\Users\CYMR90~1\AppData\Local\Temp\ccBmAAlS.s:24687  .debug_str:000000000000f1d6 .LASF5658
C:\Users\CYMR90~1\AppData\Local\Temp\ccBmAAlS.s:838    .text.qspi_transmission_abort:0000000000000000 .LFB361
C:\Users\CYMR90~1\AppData\Local\Temp\ccBmAAlS.s:864    .text.qspi_transmission_abort:0000000000000026 .LFE361
C:\Users\CYMR90~1\AppData\Local\Temp\ccBmAAlS.s:26810  .debug_str:0000000000017ac4 .LASF5647
C:\Users\CYMR90~1\AppData\Local\Temp\ccBmAAlS.s:743    .text.qspi_data_receive:0000000000000000 .LFB360
C:\Users\CYMR90~1\AppData\Local\Temp\ccBmAAlS.s:831    .text.qspi_data_receive:00000000000000a2 .LFE360
C:\Users\CYMR90~1\AppData\Local\Temp\ccBmAAlS.s:21579  .debug_str:0000000000002b14 .LASF5648
C:\Users\CYMR90~1\AppData\Local\Temp\ccBmAAlS.s:29472  .debug_str:00000000000222d5 .LASF5649
C:\Users\CYMR90~1\AppData\Local\Temp\ccBmAAlS.s:26620  .debug_str:0000000000016ef8 .LASF5650
C:\Users\CYMR90~1\AppData\Local\Temp\ccBmAAlS.s:663    .text.qspi_data_transmit:0000000000000000 .LFB359
C:\Users\CYMR90~1\AppData\Local\Temp\ccBmAAlS.s:736    .text.qspi_data_transmit:000000000000007e .LFE359
C:\Users\CYMR90~1\AppData\Local\Temp\ccBmAAlS.s:25097  .debug_str:0000000000010c0e .LASF5651
C:\Users\CYMR90~1\AppData\Local\Temp\ccBmAAlS.s:25259  .debug_str:000000000001156d .LASF5652
C:\Users\CYMR90~1\AppData\Local\Temp\ccBmAAlS.s:23445  .debug_str:000000000000a268 .LASF5653
C:\Users\CYMR90~1\AppData\Local\Temp\ccBmAAlS.s:583    .text.qspi_memorymapped_config:0000000000000000 .LFB358
C:\Users\CYMR90~1\AppData\Local\Temp\ccBmAAlS.s:656    .text.qspi_memorymapped_config:000000000000009e .LFE358
C:\Users\CYMR90~1\AppData\Local\Temp\ccBmAAlS.s:31654  .debug_str:000000000002add8 .LASF5654
C:\Users\CYMR90~1\AppData\Local\Temp\ccBmAAlS.s:31814  .debug_str:000000000002b807 .LASF5655
C:\Users\CYMR90~1\AppData\Local\Temp\ccBmAAlS.s:21681  .debug_str:000000000000316c .LASF5656
C:\Users\CYMR90~1\AppData\Local\Temp\ccBmAAlS.s:491    .text.qspi_polling_config:0000000000000000 .LFB357
C:\Users\CYMR90~1\AppData\Local\Temp\ccBmAAlS.s:576    .text.qspi_polling_config:00000000000000a6 .LFE357
C:\Users\CYMR90~1\AppData\Local\Temp\ccBmAAlS.s:23675  .debug_str:000000000000b228 .LASF5657
C:\Users\CYMR90~1\AppData\Local\Temp\ccBmAAlS.s:434    .text.qspi_command_config:0000000000000000 .LFB356
C:\Users\CYMR90~1\AppData\Local\Temp\ccBmAAlS.s:484    .text.qspi_command_config:0000000000000048 .LFE356
C:\Users\CYMR90~1\AppData\Local\Temp\ccBmAAlS.s:27950  .debug_str:000000000001c3cd .LASF5659
C:\Users\CYMR90~1\AppData\Local\Temp\ccBmAAlS.s:401    .text.qspi_dma_disable:0000000000000000 .LFB355
C:\Users\CYMR90~1\AppData\Local\Temp\ccBmAAlS.s:427    .text.qspi_dma_disable:0000000000000024 .LFE355
C:\Users\CYMR90~1\AppData\Local\Temp\ccBmAAlS.s:25813  .debug_str:00000000000139fb .LASF5660
C:\Users\CYMR90~1\AppData\Local\Temp\ccBmAAlS.s:368    .text.qspi_dma_enable:0000000000000000 .LFB354
C:\Users\CYMR90~1\AppData\Local\Temp\ccBmAAlS.s:394    .text.qspi_dma_enable:0000000000000026 .LFE354
C:\Users\CYMR90~1\AppData\Local\Temp\ccBmAAlS.s:24113  .debug_str:000000000000cec9 .LASF5661
C:\Users\CYMR90~1\AppData\Local\Temp\ccBmAAlS.s:335    .text.qspi_disable:0000000000000000 .LFB353
C:\Users\CYMR90~1\AppData\Local\Temp\ccBmAAlS.s:361    .text.qspi_disable:0000000000000024 .LFE353
C:\Users\CYMR90~1\AppData\Local\Temp\ccBmAAlS.s:27082  .debug_str:0000000000018acf .LASF5662
C:\Users\CYMR90~1\AppData\Local\Temp\ccBmAAlS.s:302    .text.qspi_enable:0000000000000000 .LFB352
C:\Users\CYMR90~1\AppData\Local\Temp\ccBmAAlS.s:328    .text.qspi_enable:0000000000000026 .LFE352
C:\Users\CYMR90~1\AppData\Local\Temp\ccBmAAlS.s:31248  .debug_str:0000000000029580 .LASF5663
C:\Users\CYMR90~1\AppData\Local\Temp\ccBmAAlS.s:204    .text.qspi_init:0000000000000000 .LFB351
C:\Users\CYMR90~1\AppData\Local\Temp\ccBmAAlS.s:295    .text.qspi_init:00000000000000b2 .LFE351
C:\Users\CYMR90~1\AppData\Local\Temp\ccBmAAlS.s:25351  .debug_str:0000000000011c24 .LASF5664
C:\Users\CYMR90~1\AppData\Local\Temp\ccBmAAlS.s:25831  .debug_str:0000000000013b1a .LASF5665
C:\Users\CYMR90~1\AppData\Local\Temp\ccBmAAlS.s:159    .text.qspi_polling_struct_para_init:0000000000000000 .LFB350
C:\Users\CYMR90~1\AppData\Local\Temp\ccBmAAlS.s:197    .text.qspi_polling_struct_para_init:0000000000000042 .LFE350
C:\Users\CYMR90~1\AppData\Local\Temp\ccBmAAlS.s:24129  .debug_str:000000000000cfdc .LASF5666
C:\Users\CYMR90~1\AppData\Local\Temp\ccBmAAlS.s:25117  .debug_str:0000000000010cf6 .LASF5667
C:\Users\CYMR90~1\AppData\Local\Temp\ccBmAAlS.s:97     .text.qspi_cmd_struct_para_init:0000000000000000 .LFB349
C:\Users\CYMR90~1\AppData\Local\Temp\ccBmAAlS.s:152    .text.qspi_cmd_struct_para_init:0000000000000072 .LFE349
C:\Users\CYMR90~1\AppData\Local\Temp\ccBmAAlS.s:23139  .debug_str:0000000000008fc5 .LASF5668
C:\Users\CYMR90~1\AppData\Local\Temp\ccBmAAlS.s:50     .text.qspi_struct_para_init:0000000000000000 .LFB348
C:\Users\CYMR90~1\AppData\Local\Temp\ccBmAAlS.s:90     .text.qspi_struct_para_init:0000000000000042 .LFE348
C:\Users\CYMR90~1\AppData\Local\Temp\ccBmAAlS.s:30466  .debug_str:00000000000262da .LASF5669
C:\Users\CYMR90~1\AppData\Local\Temp\ccBmAAlS.s:14     .text.qspi_deinit:0000000000000000 .LFB347
C:\Users\CYMR90~1\AppData\Local\Temp\ccBmAAlS.s:43     .text.qspi_deinit:000000000000002a .LFE347
C:\Users\CYMR90~1\AppData\Local\Temp\ccBmAAlS.s:1743   .debug_info:0000000000000000 .Ldebug_info0
C:\Users\CYMR90~1\AppData\Local\Temp\ccBmAAlS.s:3862   .debug_macro:0000000000000000 .Ldebug_macro2
C:\Users\CYMR90~1\AppData\Local\Temp\ccBmAAlS.s:28482  .debug_str:000000000001e6e5 .LASF314
C:\Users\CYMR90~1\AppData\Local\Temp\ccBmAAlS.s:26660  .debug_str:000000000001715f .LASF315
C:\Users\CYMR90~1\AppData\Local\Temp\ccBmAAlS.s:4809   .debug_macro:0000000000000000 .Ldebug_macro3
C:\Users\CYMR90~1\AppData\Local\Temp\ccBmAAlS.s:23077  .debug_str:0000000000008be4 .LASF369
C:\Users\CYMR90~1\AppData\Local\Temp\ccBmAAlS.s:22643  .debug_str:0000000000006e7e .LASF370
C:\Users\CYMR90~1\AppData\Local\Temp\ccBmAAlS.s:26902  .debug_str:0000000000018008 .LASF371
C:\Users\CYMR90~1\AppData\Local\Temp\ccBmAAlS.s:4973   .debug_macro:0000000000000000 .Ldebug_macro4
C:\Users\CYMR90~1\AppData\Local\Temp\ccBmAAlS.s:4993   .debug_macro:0000000000000000 .Ldebug_macro5
C:\Users\CYMR90~1\AppData\Local\Temp\ccBmAAlS.s:25539  .debug_str:000000000001284a .LASF390
C:\Users\CYMR90~1\AppData\Local\Temp\ccBmAAlS.s:5037   .debug_macro:0000000000000000 .Ldebug_macro6
C:\Users\CYMR90~1\AppData\Local\Temp\ccBmAAlS.s:5051   .debug_macro:0000000000000000 .Ldebug_macro7
C:\Users\CYMR90~1\AppData\Local\Temp\ccBmAAlS.s:5119   .debug_macro:0000000000000000 .Ldebug_macro8
C:\Users\CYMR90~1\AppData\Local\Temp\ccBmAAlS.s:5145   .debug_macro:0000000000000000 .Ldebug_macro9
C:\Users\CYMR90~1\AppData\Local\Temp\ccBmAAlS.s:5174   .debug_macro:0000000000000000 .Ldebug_macro10
C:\Users\CYMR90~1\AppData\Local\Temp\ccBmAAlS.s:27044  .debug_str:0000000000018877 .LASF433
C:\Users\CYMR90~1\AppData\Local\Temp\ccBmAAlS.s:5188   .debug_macro:0000000000000000 .Ldebug_macro11
C:\Users\CYMR90~1\AppData\Local\Temp\ccBmAAlS.s:5232   .debug_macro:0000000000000000 .Ldebug_macro12
C:\Users\CYMR90~1\AppData\Local\Temp\ccBmAAlS.s:5258   .debug_macro:0000000000000000 .Ldebug_macro13
C:\Users\CYMR90~1\AppData\Local\Temp\ccBmAAlS.s:30622  .debug_str:0000000000026c5b .LASF569
C:\Users\CYMR90~1\AppData\Local\Temp\ccBmAAlS.s:5629   .debug_macro:0000000000000000 .Ldebug_macro14
C:\Users\CYMR90~1\AppData\Local\Temp\ccBmAAlS.s:25059  .debug_str:00000000000108cd .LASF572
C:\Users\CYMR90~1\AppData\Local\Temp\ccBmAAlS.s:29954  .debug_str:0000000000023f8f .LASF573
C:\Users\CYMR90~1\AppData\Local\Temp\ccBmAAlS.s:5640   .debug_macro:0000000000000000 .Ldebug_macro15
C:\Users\CYMR90~1\AppData\Local\Temp\ccBmAAlS.s:5654   .debug_macro:0000000000000000 .Ldebug_macro16
C:\Users\CYMR90~1\AppData\Local\Temp\ccBmAAlS.s:31762  .debug_str:000000000002b4c1 .LASF578
C:\Users\CYMR90~1\AppData\Local\Temp\ccBmAAlS.s:5686   .debug_macro:0000000000000000 .Ldebug_macro17
C:\Users\CYMR90~1\AppData\Local\Temp\ccBmAAlS.s:5712   .debug_macro:0000000000000000 .Ldebug_macro18
C:\Users\CYMR90~1\AppData\Local\Temp\ccBmAAlS.s:5723   .debug_macro:0000000000000000 .Ldebug_macro19
C:\Users\CYMR90~1\AppData\Local\Temp\ccBmAAlS.s:5767   .debug_macro:0000000000000000 .Ldebug_macro20
C:\Users\CYMR90~1\AppData\Local\Temp\ccBmAAlS.s:5937   .debug_macro:0000000000000000 .Ldebug_macro21
C:\Users\CYMR90~1\AppData\Local\Temp\ccBmAAlS.s:5948   .debug_macro:0000000000000000 .Ldebug_macro22
C:\Users\CYMR90~1\AppData\Local\Temp\ccBmAAlS.s:25545  .debug_str:00000000000128a3 .LASF675
C:\Users\CYMR90~1\AppData\Local\Temp\ccBmAAlS.s:6004   .debug_macro:0000000000000000 .Ldebug_macro23
C:\Users\CYMR90~1\AppData\Local\Temp\ccBmAAlS.s:6021   .debug_macro:0000000000000000 .Ldebug_macro24
C:\Users\CYMR90~1\AppData\Local\Temp\ccBmAAlS.s:28768  .debug_str:000000000001f7e8 .LASF693
C:\Users\CYMR90~1\AppData\Local\Temp\ccBmAAlS.s:26908  .debug_str:0000000000018039 .LASF694
C:\Users\CYMR90~1\AppData\Local\Temp\ccBmAAlS.s:6065   .debug_macro:0000000000000000 .Ldebug_macro25
C:\Users\CYMR90~1\AppData\Local\Temp\ccBmAAlS.s:22095  .debug_str:0000000000004cfa .LASF700
C:\Users\CYMR90~1\AppData\Local\Temp\ccBmAAlS.s:23219  .debug_str:0000000000009439 .LASF701
C:\Users\CYMR90~1\AppData\Local\Temp\ccBmAAlS.s:6085   .debug_macro:0000000000000000 .Ldebug_macro26
C:\Users\CYMR90~1\AppData\Local\Temp\ccBmAAlS.s:6096   .debug_macro:0000000000000000 .Ldebug_macro27
C:\Users\CYMR90~1\AppData\Local\Temp\ccBmAAlS.s:6140   .debug_macro:0000000000000000 .Ldebug_macro28
C:\Users\CYMR90~1\AppData\Local\Temp\ccBmAAlS.s:22459  .debug_str:00000000000062ef .LASF749
C:\Users\CYMR90~1\AppData\Local\Temp\ccBmAAlS.s:6241   .debug_macro:0000000000000000 .Ldebug_macro29
C:\Users\CYMR90~1\AppData\Local\Temp\ccBmAAlS.s:6258   .debug_macro:0000000000000000 .Ldebug_macro30
C:\Users\CYMR90~1\AppData\Local\Temp\ccBmAAlS.s:20947  .debug_str:0000000000000472 .LASF763
C:\Users\CYMR90~1\AppData\Local\Temp\ccBmAAlS.s:22277  .debug_str:0000000000005806 .LASF764
C:\Users\CYMR90~1\AppData\Local\Temp\ccBmAAlS.s:6290   .debug_macro:0000000000000000 .Ldebug_macro31
C:\Users\CYMR90~1\AppData\Local\Temp\ccBmAAlS.s:6304   .debug_macro:0000000000000000 .Ldebug_macro32
C:\Users\CYMR90~1\AppData\Local\Temp\ccBmAAlS.s:6474   .debug_macro:0000000000000000 .Ldebug_macro33
C:\Users\CYMR90~1\AppData\Local\Temp\ccBmAAlS.s:24725  .debug_str:000000000000f432 .LASF850
C:\Users\CYMR90~1\AppData\Local\Temp\ccBmAAlS.s:27132  .debug_str:0000000000018eb1 .LASF851
C:\Users\CYMR90~1\AppData\Local\Temp\ccBmAAlS.s:6560   .debug_macro:0000000000000000 .Ldebug_macro34
C:\Users\CYMR90~1\AppData\Local\Temp\ccBmAAlS.s:6685   .debug_macro:0000000000000000 .Ldebug_macro35
C:\Users\CYMR90~1\AppData\Local\Temp\ccBmAAlS.s:21229  .debug_str:0000000000001563 .LASF951
C:\Users\CYMR90~1\AppData\Local\Temp\ccBmAAlS.s:6897   .debug_macro:0000000000000000 .Ldebug_macro36
C:\Users\CYMR90~1\AppData\Local\Temp\ccBmAAlS.s:22963  .debug_str:00000000000084be .LASF957
C:\Users\CYMR90~1\AppData\Local\Temp\ccBmAAlS.s:22515  .debug_str:000000000000664d .LASF958
C:\Users\CYMR90~1\AppData\Local\Temp\ccBmAAlS.s:21393  .debug_str:000000000000201d .LASF959
C:\Users\CYMR90~1\AppData\Local\Temp\ccBmAAlS.s:6917   .debug_macro:0000000000000000 .Ldebug_macro37
C:\Users\CYMR90~1\AppData\Local\Temp\ccBmAAlS.s:7009   .debug_macro:0000000000000000 .Ldebug_macro38
C:\Users\CYMR90~1\AppData\Local\Temp\ccBmAAlS.s:8655   .debug_macro:0000000000000000 .Ldebug_macro39
C:\Users\CYMR90~1\AppData\Local\Temp\ccBmAAlS.s:8747   .debug_macro:0000000000000000 .Ldebug_macro40
C:\Users\CYMR90~1\AppData\Local\Temp\ccBmAAlS.s:8803   .debug_macro:0000000000000000 .Ldebug_macro41
C:\Users\CYMR90~1\AppData\Local\Temp\ccBmAAlS.s:8817   .debug_macro:0000000000000000 .Ldebug_macro42
C:\Users\CYMR90~1\AppData\Local\Temp\ccBmAAlS.s:26455  .debug_str:0000000000016230 .LASF1655
C:\Users\CYMR90~1\AppData\Local\Temp\ccBmAAlS.s:23347  .debug_str:0000000000009c7e .LASF1656
C:\Users\CYMR90~1\AppData\Local\Temp\ccBmAAlS.s:9041   .debug_macro:0000000000000000 .Ldebug_macro43
C:\Users\CYMR90~1\AppData\Local\Temp\ccBmAAlS.s:9088   .debug_macro:0000000000000000 .Ldebug_macro44
C:\Users\CYMR90~1\AppData\Local\Temp\ccBmAAlS.s:9243   .debug_macro:0000000000000000 .Ldebug_macro45
C:\Users\CYMR90~1\AppData\Local\Temp\ccBmAAlS.s:9299   .debug_macro:0000000000000000 .Ldebug_macro46
C:\Users\CYMR90~1\AppData\Local\Temp\ccBmAAlS.s:9310   .debug_macro:0000000000000000 .Ldebug_macro47
C:\Users\CYMR90~1\AppData\Local\Temp\ccBmAAlS.s:31410  .debug_str:0000000000029f72 .LASF1782
C:\Users\CYMR90~1\AppData\Local\Temp\ccBmAAlS.s:26205  .debug_str:00000000000152c9 .LASF1783
C:\Users\CYMR90~1\AppData\Local\Temp\ccBmAAlS.s:9441   .debug_macro:0000000000000000 .Ldebug_macro48
C:\Users\CYMR90~1\AppData\Local\Temp\ccBmAAlS.s:10013  .debug_macro:0000000000000000 .Ldebug_macro49
C:\Users\CYMR90~1\AppData\Local\Temp\ccBmAAlS.s:10300  .debug_macro:0000000000000000 .Ldebug_macro50
C:\Users\CYMR90~1\AppData\Local\Temp\ccBmAAlS.s:10329  .debug_macro:0000000000000000 .Ldebug_macro51
C:\Users\CYMR90~1\AppData\Local\Temp\ccBmAAlS.s:10406  .debug_macro:0000000000000000 .Ldebug_macro52
C:\Users\CYMR90~1\AppData\Local\Temp\ccBmAAlS.s:10939  .debug_macro:0000000000000000 .Ldebug_macro53
C:\Users\CYMR90~1\AppData\Local\Temp\ccBmAAlS.s:10962  .debug_macro:0000000000000000 .Ldebug_macro54
C:\Users\CYMR90~1\AppData\Local\Temp\ccBmAAlS.s:11228  .debug_macro:0000000000000000 .Ldebug_macro55
C:\Users\CYMR90~1\AppData\Local\Temp\ccBmAAlS.s:11707  .debug_macro:0000000000000000 .Ldebug_macro56
C:\Users\CYMR90~1\AppData\Local\Temp\ccBmAAlS.s:12036  .debug_macro:0000000000000000 .Ldebug_macro57
C:\Users\CYMR90~1\AppData\Local\Temp\ccBmAAlS.s:12125  .debug_macro:0000000000000000 .Ldebug_macro58
C:\Users\CYMR90~1\AppData\Local\Temp\ccBmAAlS.s:12940  .debug_macro:0000000000000000 .Ldebug_macro59
C:\Users\CYMR90~1\AppData\Local\Temp\ccBmAAlS.s:13131  .debug_macro:0000000000000000 .Ldebug_macro60
C:\Users\CYMR90~1\AppData\Local\Temp\ccBmAAlS.s:13634  .debug_macro:0000000000000000 .Ldebug_macro61
C:\Users\CYMR90~1\AppData\Local\Temp\ccBmAAlS.s:13780  .debug_macro:0000000000000000 .Ldebug_macro62
C:\Users\CYMR90~1\AppData\Local\Temp\ccBmAAlS.s:14310  .debug_macro:0000000000000000 .Ldebug_macro63
C:\Users\CYMR90~1\AppData\Local\Temp\ccBmAAlS.s:17084  .debug_macro:0000000000000000 .Ldebug_macro64
C:\Users\CYMR90~1\AppData\Local\Temp\ccBmAAlS.s:18160  .debug_macro:0000000000000000 .Ldebug_macro65
C:\Users\CYMR90~1\AppData\Local\Temp\ccBmAAlS.s:18429  .debug_macro:0000000000000000 .Ldebug_macro66
C:\Users\CYMR90~1\AppData\Local\Temp\ccBmAAlS.s:18701  .debug_macro:0000000000000000 .Ldebug_macro67
C:\Users\CYMR90~1\AppData\Local\Temp\ccBmAAlS.s:19729  .debug_macro:0000000000000000 .Ldebug_macro68
C:\Users\CYMR90~1\AppData\Local\Temp\ccBmAAlS.s:19773  .debug_macro:0000000000000000 .Ldebug_macro69
C:\Users\CYMR90~1\AppData\Local\Temp\ccBmAAlS.s:20399  .debug_macro:0000000000000000 .Ldebug_macro70
C:\Users\CYMR90~1\AppData\Local\Temp\ccBmAAlS.s:20458  .debug_macro:0000000000000000 .Ldebug_macro71
C:\Users\CYMR90~1\AppData\Local\Temp\ccBmAAlS.s:28058  .debug_str:000000000001cb0e .LASF5556
C:\Users\CYMR90~1\AppData\Local\Temp\ccBmAAlS.s:22579  .debug_str:0000000000006a35 .LASF5557
C:\Users\CYMR90~1\AppData\Local\Temp\ccBmAAlS.s:27114  .debug_str:0000000000018d77 .LASF5558
C:\Users\CYMR90~1\AppData\Local\Temp\ccBmAAlS.s:25073  .debug_str:00000000000109e4 .LASF5559
C:\Users\CYMR90~1\AppData\Local\Temp\ccBmAAlS.s:22259  .debug_str:00000000000056cb .LASF0
C:\Users\CYMR90~1\AppData\Local\Temp\ccBmAAlS.s:26642  .debug_str:0000000000017060 .LASF1
C:\Users\CYMR90~1\AppData\Local\Temp\ccBmAAlS.s:24887  .debug_str:000000000000fe97 .LASF2
C:\Users\CYMR90~1\AppData\Local\Temp\ccBmAAlS.s:24947  .debug_str:0000000000010241 .LASF3
C:\Users\CYMR90~1\AppData\Local\Temp\ccBmAAlS.s:26263  .debug_str:00000000000155d9 .LASF4
C:\Users\CYMR90~1\AppData\Local\Temp\ccBmAAlS.s:31806  .debug_str:000000000002b7b1 .LASF5
C:\Users\CYMR90~1\AppData\Local\Temp\ccBmAAlS.s:22485  .debug_str:0000000000006497 .LASF6
C:\Users\CYMR90~1\AppData\Local\Temp\ccBmAAlS.s:31124  .debug_str:0000000000028d8c .LASF7
C:\Users\CYMR90~1\AppData\Local\Temp\ccBmAAlS.s:30068  .debug_str:0000000000024787 .LASF8
C:\Users\CYMR90~1\AppData\Local\Temp\ccBmAAlS.s:27984  .debug_str:000000000001c58b .LASF9
C:\Users\CYMR90~1\AppData\Local\Temp\ccBmAAlS.s:27332  .debug_str:0000000000019c52 .LASF10
C:\Users\CYMR90~1\AppData\Local\Temp\ccBmAAlS.s:27186  .debug_str:000000000001928d .LASF11
C:\Users\CYMR90~1\AppData\Local\Temp\ccBmAAlS.s:31646  .debug_str:000000000002ad7a .LASF12
C:\Users\CYMR90~1\AppData\Local\Temp\ccBmAAlS.s:27200  .debug_str:0000000000019364 .LASF13
C:\Users\CYMR90~1\AppData\Local\Temp\ccBmAAlS.s:23507  .debug_str:000000000000a658 .LASF14
C:\Users\CYMR90~1\AppData\Local\Temp\ccBmAAlS.s:28560  .debug_str:000000000001eb9d .LASF15
C:\Users\CYMR90~1\AppData\Local\Temp\ccBmAAlS.s:29318  .debug_str:00000000000219ac .LASF16
C:\Users\CYMR90~1\AppData\Local\Temp\ccBmAAlS.s:23553  .debug_str:000000000000a926 .LASF17
C:\Users\CYMR90~1\AppData\Local\Temp\ccBmAAlS.s:30354  .debug_str:0000000000025bdd .LASF18
C:\Users\CYMR90~1\AppData\Local\Temp\ccBmAAlS.s:24497  .debug_str:000000000000e68b .LASF19
C:\Users\CYMR90~1\AppData\Local\Temp\ccBmAAlS.s:21563  .debug_str:0000000000002a37 .LASF20
C:\Users\CYMR90~1\AppData\Local\Temp\ccBmAAlS.s:26994  .debug_str:0000000000018591 .LASF21
C:\Users\CYMR90~1\AppData\Local\Temp\ccBmAAlS.s:26992  .debug_str:0000000000018577 .LASF22
C:\Users\CYMR90~1\AppData\Local\Temp\ccBmAAlS.s:29624  .debug_str:0000000000022c36 .LASF23
C:\Users\CYMR90~1\AppData\Local\Temp\ccBmAAlS.s:27936  .debug_str:000000000001c2f4 .LASF24
C:\Users\CYMR90~1\AppData\Local\Temp\ccBmAAlS.s:21799  .debug_str:0000000000003914 .LASF25
C:\Users\CYMR90~1\AppData\Local\Temp\ccBmAAlS.s:26389  .debug_str:0000000000015db3 .LASF26
C:\Users\CYMR90~1\AppData\Local\Temp\ccBmAAlS.s:29628  .debug_str:0000000000022c6c .LASF27
C:\Users\CYMR90~1\AppData\Local\Temp\ccBmAAlS.s:29326  .debug_str:0000000000021a09 .LASF28
C:\Users\CYMR90~1\AppData\Local\Temp\ccBmAAlS.s:22209  .debug_str:00000000000053d4 .LASF29
C:\Users\CYMR90~1\AppData\Local\Temp\ccBmAAlS.s:28348  .debug_str:000000000001debf .LASF30
C:\Users\CYMR90~1\AppData\Local\Temp\ccBmAAlS.s:21175  .debug_str:0000000000001278 .LASF31
C:\Users\CYMR90~1\AppData\Local\Temp\ccBmAAlS.s:28804  .debug_str:000000000001f9ec .LASF32
C:\Users\CYMR90~1\AppData\Local\Temp\ccBmAAlS.s:23387  .debug_str:0000000000009ecb .LASF33
C:\Users\CYMR90~1\AppData\Local\Temp\ccBmAAlS.s:23235  .debug_str:0000000000009524 .LASF34
C:\Users\CYMR90~1\AppData\Local\Temp\ccBmAAlS.s:24529  .debug_str:000000000000e86f .LASF35
C:\Users\CYMR90~1\AppData\Local\Temp\ccBmAAlS.s:27440  .debug_str:000000000001a27c .LASF36
C:\Users\CYMR90~1\AppData\Local\Temp\ccBmAAlS.s:22735  .debug_str:00000000000074a8 .LASF37
C:\Users\CYMR90~1\AppData\Local\Temp\ccBmAAlS.s:24885  .debug_str:000000000000fe74 .LASF38
C:\Users\CYMR90~1\AppData\Local\Temp\ccBmAAlS.s:21765  .debug_str:00000000000036bc .LASF39
C:\Users\CYMR90~1\AppData\Local\Temp\ccBmAAlS.s:21555  .debug_str:00000000000029a5 .LASF40
C:\Users\CYMR90~1\AppData\Local\Temp\ccBmAAlS.s:25049  .debug_str:0000000000010840 .LASF41
C:\Users\CYMR90~1\AppData\Local\Temp\ccBmAAlS.s:25475  .debug_str:0000000000012412 .LASF42
C:\Users\CYMR90~1\AppData\Local\Temp\ccBmAAlS.s:25743  .debug_str:00000000000135fa .LASF43
C:\Users\CYMR90~1\AppData\Local\Temp\ccBmAAlS.s:27430  .debug_str:000000000001a1e9 .LASF44
C:\Users\CYMR90~1\AppData\Local\Temp\ccBmAAlS.s:25337  .debug_str:0000000000011b75 .LASF45
C:\Users\CYMR90~1\AppData\Local\Temp\ccBmAAlS.s:22031  .debug_str:0000000000004872 .LASF46
C:\Users\CYMR90~1\AppData\Local\Temp\ccBmAAlS.s:28352  .debug_str:000000000001defe .LASF47
C:\Users\CYMR90~1\AppData\Local\Temp\ccBmAAlS.s:30070  .debug_str:000000000002479c .LASF48
C:\Users\CYMR90~1\AppData\Local\Temp\ccBmAAlS.s:24279  .debug_str:000000000000d954 .LASF49
C:\Users\CYMR90~1\AppData\Local\Temp\ccBmAAlS.s:21389  .debug_str:0000000000001fea .LASF50
C:\Users\CYMR90~1\AppData\Local\Temp\ccBmAAlS.s:20897  .debug_str:0000000000000131 .LASF51
C:\Users\CYMR90~1\AppData\Local\Temp\ccBmAAlS.s:31422  .debug_str:000000000002a007 .LASF52
C:\Users\CYMR90~1\AppData\Local\Temp\ccBmAAlS.s:24089  .debug_str:000000000000cd74 .LASF53
C:\Users\CYMR90~1\AppData\Local\Temp\ccBmAAlS.s:25827  .debug_str:0000000000013ad1 .LASF54
C:\Users\CYMR90~1\AppData\Local\Temp\ccBmAAlS.s:24849  .debug_str:000000000000fc10 .LASF55
C:\Users\CYMR90~1\AppData\Local\Temp\ccBmAAlS.s:22823  .debug_str:0000000000007a20 .LASF56
C:\Users\CYMR90~1\AppData\Local\Temp\ccBmAAlS.s:26239  .debug_str:0000000000015487 .LASF57
C:\Users\CYMR90~1\AppData\Local\Temp\ccBmAAlS.s:21129  .debug_str:0000000000000fca .LASF58
C:\Users\CYMR90~1\AppData\Local\Temp\ccBmAAlS.s:30358  .debug_str:0000000000025c1d .LASF59
C:\Users\CYMR90~1\AppData\Local\Temp\ccBmAAlS.s:25751  .debug_str:0000000000013655 .LASF60
C:\Users\CYMR90~1\AppData\Local\Temp\ccBmAAlS.s:27708  .debug_str:000000000001b507 .LASF61
C:\Users\CYMR90~1\AppData\Local\Temp\ccBmAAlS.s:21625  .debug_str:0000000000002df1 .LASF62
C:\Users\CYMR90~1\AppData\Local\Temp\ccBmAAlS.s:24273  .debug_str:000000000000d910 .LASF63
C:\Users\CYMR90~1\AppData\Local\Temp\ccBmAAlS.s:24005  .debug_str:000000000000c7ae .LASF64
C:\Users\CYMR90~1\AppData\Local\Temp\ccBmAAlS.s:27416  .debug_str:000000000001a120 .LASF65
C:\Users\CYMR90~1\AppData\Local\Temp\ccBmAAlS.s:26059  .debug_str:000000000001490e .LASF66
C:\Users\CYMR90~1\AppData\Local\Temp\ccBmAAlS.s:31196  .debug_str:00000000000291dd .LASF67
C:\Users\CYMR90~1\AppData\Local\Temp\ccBmAAlS.s:31648  .debug_str:000000000002ad8d .LASF68
C:\Users\CYMR90~1\AppData\Local\Temp\ccBmAAlS.s:25291  .debug_str:0000000000011825 .LASF69
C:\Users\CYMR90~1\AppData\Local\Temp\ccBmAAlS.s:24423  .debug_str:000000000000e1e3 .LASF70
C:\Users\CYMR90~1\AppData\Local\Temp\ccBmAAlS.s:22043  .debug_str:00000000000049c5 .LASF71
C:\Users\CYMR90~1\AppData\Local\Temp\ccBmAAlS.s:25325  .debug_str:0000000000011a9f .LASF72
C:\Users\CYMR90~1\AppData\Local\Temp\ccBmAAlS.s:24955  .debug_str:00000000000102b2 .LASF73
C:\Users\CYMR90~1\AppData\Local\Temp\ccBmAAlS.s:25557  .debug_str:0000000000012994 .LASF74
C:\Users\CYMR90~1\AppData\Local\Temp\ccBmAAlS.s:25397  .debug_str:0000000000011f16 .LASF75
C:\Users\CYMR90~1\AppData\Local\Temp\ccBmAAlS.s:25495  .debug_str:0000000000012570 .LASF76
C:\Users\CYMR90~1\AppData\Local\Temp\ccBmAAlS.s:29986  .debug_str:0000000000024209 .LASF77
C:\Users\CYMR90~1\AppData\Local\Temp\ccBmAAlS.s:27912  .debug_str:000000000001c185 .LASF78
C:\Users\CYMR90~1\AppData\Local\Temp\ccBmAAlS.s:28318  .debug_str:000000000001dc79 .LASF79
C:\Users\CYMR90~1\AppData\Local\Temp\ccBmAAlS.s:31176  .debug_str:000000000002908e .LASF80
C:\Users\CYMR90~1\AppData\Local\Temp\ccBmAAlS.s:23339  .debug_str:0000000000009bf3 .LASF81
C:\Users\CYMR90~1\AppData\Local\Temp\ccBmAAlS.s:23539  .debug_str:000000000000a7fa .LASF82
C:\Users\CYMR90~1\AppData\Local\Temp\ccBmAAlS.s:31318  .debug_str:0000000000029a1f .LASF83
C:\Users\CYMR90~1\AppData\Local\Temp\ccBmAAlS.s:30442  .debug_str:000000000002616d .LASF84
C:\Users\CYMR90~1\AppData\Local\Temp\ccBmAAlS.s:22553  .debug_str:00000000000068b9 .LASF85
C:\Users\CYMR90~1\AppData\Local\Temp\ccBmAAlS.s:27616  .debug_str:000000000001af35 .LASF86
C:\Users\CYMR90~1\AppData\Local\Temp\ccBmAAlS.s:31346  .debug_str:0000000000029b83 .LASF87
C:\Users\CYMR90~1\AppData\Local\Temp\ccBmAAlS.s:28744  .debug_str:000000000001f667 .LASF88
C:\Users\CYMR90~1\AppData\Local\Temp\ccBmAAlS.s:27536  .debug_str:000000000001aa13 .LASF89
C:\Users\CYMR90~1\AppData\Local\Temp\ccBmAAlS.s:28772  .debug_str:000000000001f81b .LASF90
C:\Users\CYMR90~1\AppData\Local\Temp\ccBmAAlS.s:31552  .debug_str:000000000002a7f7 .LASF91
C:\Users\CYMR90~1\AppData\Local\Temp\ccBmAAlS.s:30366  .debug_str:0000000000025c95 .LASF92
C:\Users\CYMR90~1\AppData\Local\Temp\ccBmAAlS.s:23419  .debug_str:000000000000a0ce .LASF93
C:\Users\CYMR90~1\AppData\Local\Temp\ccBmAAlS.s:28196  .debug_str:000000000001d4d8 .LASF94
C:\Users\CYMR90~1\AppData\Local\Temp\ccBmAAlS.s:25781  .debug_str:0000000000013821 .LASF95
C:\Users\CYMR90~1\AppData\Local\Temp\ccBmAAlS.s:25765  .debug_str:0000000000013731 .LASF96
C:\Users\CYMR90~1\AppData\Local\Temp\ccBmAAlS.s:31854  .debug_str:000000000002bac4 .LASF97
C:\Users\CYMR90~1\AppData\Local\Temp\ccBmAAlS.s:25411  .debug_str:0000000000012019 .LASF98
C:\Users\CYMR90~1\AppData\Local\Temp\ccBmAAlS.s:29344  .debug_str:0000000000021b30 .LASF99
C:\Users\CYMR90~1\AppData\Local\Temp\ccBmAAlS.s:22771  .debug_str:00000000000076bf .LASF100
C:\Users\CYMR90~1\AppData\Local\Temp\ccBmAAlS.s:24901  .debug_str:000000000000ff62 .LASF101
C:\Users\CYMR90~1\AppData\Local\Temp\ccBmAAlS.s:26305  .debug_str:0000000000015830 .LASF102
C:\Users\CYMR90~1\AppData\Local\Temp\ccBmAAlS.s:25177  .debug_str:0000000000011043 .LASF103
C:\Users\CYMR90~1\AppData\Local\Temp\ccBmAAlS.s:24193  .debug_str:000000000000d3fb .LASF104
C:\Users\CYMR90~1\AppData\Local\Temp\ccBmAAlS.s:25347  .debug_str:0000000000011c0c .LASF105
C:\Users\CYMR90~1\AppData\Local\Temp\ccBmAAlS.s:28008  .debug_str:000000000001c731 .LASF106
C:\Users\CYMR90~1\AppData\Local\Temp\ccBmAAlS.s:25171  .debug_str:0000000000010fde .LASF107
C:\Users\CYMR90~1\AppData\Local\Temp\ccBmAAlS.s:24189  .debug_str:000000000000d3d7 .LASF108
C:\Users\CYMR90~1\AppData\Local\Temp\ccBmAAlS.s:25611  .debug_str:0000000000012d01 .LASF109
C:\Users\CYMR90~1\AppData\Local\Temp\ccBmAAlS.s:24553  .debug_str:000000000000ea09 .LASF110
C:\Users\CYMR90~1\AppData\Local\Temp\ccBmAAlS.s:27052  .debug_str:00000000000188f9 .LASF111
C:\Users\CYMR90~1\AppData\Local\Temp\ccBmAAlS.s:23673  .debug_str:000000000000b20f .LASF112
C:\Users\CYMR90~1\AppData\Local\Temp\ccBmAAlS.s:23417  .debug_str:000000000000a0a5 .LASF113
C:\Users\CYMR90~1\AppData\Local\Temp\ccBmAAlS.s:26339  .debug_str:0000000000015a48 .LASF114
C:\Users\CYMR90~1\AppData\Local\Temp\ccBmAAlS.s:31242  .debug_str:0000000000029526 .LASF115
C:\Users\CYMR90~1\AppData\Local\Temp\ccBmAAlS.s:29870  .debug_str:0000000000023aaa .LASF116
C:\Users\CYMR90~1\AppData\Local\Temp\ccBmAAlS.s:23169  .debug_str:0000000000009165 .LASF117
C:\Users\CYMR90~1\AppData\Local\Temp\ccBmAAlS.s:27766  .debug_str:000000000001b87e .LASF118
C:\Users\CYMR90~1\AppData\Local\Temp\ccBmAAlS.s:31964  .debug_str:000000000002c1eb .LASF119
C:\Users\CYMR90~1\AppData\Local\Temp\ccBmAAlS.s:24473  .debug_str:000000000000e4c4 .LASF120
C:\Users\CYMR90~1\AppData\Local\Temp\ccBmAAlS.s:29970  .debug_str:000000000002405e .LASF121
C:\Users\CYMR90~1\AppData\Local\Temp\ccBmAAlS.s:23967  .debug_str:000000000000c557 .LASF122
C:\Users\CYMR90~1\AppData\Local\Temp\ccBmAAlS.s:24075  .debug_str:000000000000ccc7 .LASF123
C:\Users\CYMR90~1\AppData\Local\Temp\ccBmAAlS.s:21733  .debug_str:00000000000034e7 .LASF124
C:\Users\CYMR90~1\AppData\Local\Temp\ccBmAAlS.s:22007  .debug_str:00000000000046bc .LASF125
C:\Users\CYMR90~1\AppData\Local\Temp\ccBmAAlS.s:30918  .debug_str:0000000000027f57 .LASF126
C:\Users\CYMR90~1\AppData\Local\Temp\ccBmAAlS.s:25353  .debug_str:0000000000011c30 .LASF127
C:\Users\CYMR90~1\AppData\Local\Temp\ccBmAAlS.s:28172  .debug_str:000000000001d37a .LASF128
C:\Users\CYMR90~1\AppData\Local\Temp\ccBmAAlS.s:23243  .debug_str:000000000000959c .LASF129
C:\Users\CYMR90~1\AppData\Local\Temp\ccBmAAlS.s:30486  .debug_str:00000000000263d3 .LASF130
C:\Users\CYMR90~1\AppData\Local\Temp\ccBmAAlS.s:30798  .debug_str:00000000000277ae .LASF131
C:\Users\CYMR90~1\AppData\Local\Temp\ccBmAAlS.s:30602  .debug_str:0000000000026b00 .LASF132
C:\Users\CYMR90~1\AppData\Local\Temp\ccBmAAlS.s:24449  .debug_str:000000000000e375 .LASF133
C:\Users\CYMR90~1\AppData\Local\Temp\ccBmAAlS.s:29888  .debug_str:0000000000023bbd .LASF134
C:\Users\CYMR90~1\AppData\Local\Temp\ccBmAAlS.s:22001  .debug_str:0000000000004655 .LASF135
C:\Users\CYMR90~1\AppData\Local\Temp\ccBmAAlS.s:22865  .debug_str:0000000000007cf6 .LASF136
C:\Users\CYMR90~1\AppData\Local\Temp\ccBmAAlS.s:31640  .debug_str:000000000002ad37 .LASF137
C:\Users\CYMR90~1\AppData\Local\Temp\ccBmAAlS.s:29728  .debug_str:00000000000231b2 .LASF138
C:\Users\CYMR90~1\AppData\Local\Temp\ccBmAAlS.s:31122  .debug_str:0000000000028d7c .LASF139
C:\Users\CYMR90~1\AppData\Local\Temp\ccBmAAlS.s:30248  .debug_str:0000000000025447 .LASF140
C:\Users\CYMR90~1\AppData\Local\Temp\ccBmAAlS.s:27864  .debug_str:000000000001be50 .LASF141
C:\Users\CYMR90~1\AppData\Local\Temp\ccBmAAlS.s:23377  .debug_str:0000000000009e2a .LASF142
C:\Users\CYMR90~1\AppData\Local\Temp\ccBmAAlS.s:31714  .debug_str:000000000002b191 .LASF143
C:\Users\CYMR90~1\AppData\Local\Temp\ccBmAAlS.s:27018  .debug_str:00000000000186f4 .LASF144
C:\Users\CYMR90~1\AppData\Local\Temp\ccBmAAlS.s:26071  .debug_str:00000000000149f3 .LASF145
C:\Users\CYMR90~1\AppData\Local\Temp\ccBmAAlS.s:24039  .debug_str:000000000000ca8a .LASF146
C:\Users\CYMR90~1\AppData\Local\Temp\ccBmAAlS.s:22041  .debug_str:00000000000049ae .LASF147
C:\Users\CYMR90~1\AppData\Local\Temp\ccBmAAlS.s:24597  .debug_str:000000000000ecc1 .LASF148
C:\Users\CYMR90~1\AppData\Local\Temp\ccBmAAlS.s:26996  .debug_str:00000000000185a5 .LASF149
C:\Users\CYMR90~1\AppData\Local\Temp\ccBmAAlS.s:20975  .debug_str:00000000000005e2 .LASF150
C:\Users\CYMR90~1\AppData\Local\Temp\ccBmAAlS.s:29328  .debug_str:0000000000021a23 .LASF151
C:\Users\CYMR90~1\AppData\Local\Temp\ccBmAAlS.s:25601  .debug_str:0000000000012c4d .LASF152
C:\Users\CYMR90~1\AppData\Local\Temp\ccBmAAlS.s:30254  .debug_str:000000000002549a .LASF153
C:\Users\CYMR90~1\AppData\Local\Temp\ccBmAAlS.s:28076  .debug_str:000000000001cc06 .LASF154
C:\Users\CYMR90~1\AppData\Local\Temp\ccBmAAlS.s:25011  .debug_str:0000000000010617 .LASF155
C:\Users\CYMR90~1\AppData\Local\Temp\ccBmAAlS.s:28088  .debug_str:000000000001ccec .LASF156
C:\Users\CYMR90~1\AppData\Local\Temp\ccBmAAlS.s:28202  .debug_str:000000000001d540 .LASF157
C:\Users\CYMR90~1\AppData\Local\Temp\ccBmAAlS.s:23893  .debug_str:000000000000c0b2 .LASF158
C:\Users\CYMR90~1\AppData\Local\Temp\ccBmAAlS.s:22967  .debug_str:00000000000084e0 .LASF159
C:\Users\CYMR90~1\AppData\Local\Temp\ccBmAAlS.s:27714  .debug_str:000000000001b55b .LASF160
C:\Users\CYMR90~1\AppData\Local\Temp\ccBmAAlS.s:29148  .debug_str:0000000000020f2f .LASF161
C:\Users\CYMR90~1\AppData\Local\Temp\ccBmAAlS.s:27324  .debug_str:0000000000019bc0 .LASF162
C:\Users\CYMR90~1\AppData\Local\Temp\ccBmAAlS.s:29878  .debug_str:0000000000023b1c .LASF163
C:\Users\CYMR90~1\AppData\Local\Temp\ccBmAAlS.s:31538  .debug_str:000000000002a729 .LASF164
C:\Users\CYMR90~1\AppData\Local\Temp\ccBmAAlS.s:22727  .debug_str:0000000000007447 .LASF165
C:\Users\CYMR90~1\AppData\Local\Temp\ccBmAAlS.s:31230  .debug_str:00000000000293f7 .LASF166
C:\Users\CYMR90~1\AppData\Local\Temp\ccBmAAlS.s:31048  .debug_str:00000000000288df .LASF167
C:\Users\CYMR90~1\AppData\Local\Temp\ccBmAAlS.s:29796  .debug_str:00000000000235ec .LASF168
C:\Users\CYMR90~1\AppData\Local\Temp\ccBmAAlS.s:26782  .debug_str:00000000000178c3 .LASF169
C:\Users\CYMR90~1\AppData\Local\Temp\ccBmAAlS.s:30664  .debug_str:0000000000026eac .LASF170
C:\Users\CYMR90~1\AppData\Local\Temp\ccBmAAlS.s:26417  .debug_str:0000000000015f6c .LASF171
C:\Users\CYMR90~1\AppData\Local\Temp\ccBmAAlS.s:27990  .debug_str:000000000001c5ee .LASF172
C:\Users\CYMR90~1\AppData\Local\Temp\ccBmAAlS.s:23369  .debug_str:0000000000009db6 .LASF173
C:\Users\CYMR90~1\AppData\Local\Temp\ccBmAAlS.s:29688  .debug_str:0000000000022fc7 .LASF174
C:\Users\CYMR90~1\AppData\Local\Temp\ccBmAAlS.s:22381  .debug_str:0000000000005e37 .LASF175
C:\Users\CYMR90~1\AppData\Local\Temp\ccBmAAlS.s:23211  .debug_str:00000000000093d0 .LASF176
C:\Users\CYMR90~1\AppData\Local\Temp\ccBmAAlS.s:21877  .debug_str:0000000000003e05 .LASF177
C:\Users\CYMR90~1\AppData\Local\Temp\ccBmAAlS.s:27194  .debug_str:00000000000192ff .LASF178
C:\Users\CYMR90~1\AppData\Local\Temp\ccBmAAlS.s:24127  .debug_str:000000000000cfc5 .LASF179
C:\Users\CYMR90~1\AppData\Local\Temp\ccBmAAlS.s:21383  .debug_str:0000000000001f65 .LASF180
C:\Users\CYMR90~1\AppData\Local\Temp\ccBmAAlS.s:31850  .debug_str:000000000002ba99 .LASF181
C:\Users\CYMR90~1\AppData\Local\Temp\ccBmAAlS.s:21159  .debug_str:00000000000011a7 .LASF182
C:\Users\CYMR90~1\AppData\Local\Temp\ccBmAAlS.s:25719  .debug_str:000000000001344c .LASF183
C:\Users\CYMR90~1\AppData\Local\Temp\ccBmAAlS.s:26139  .debug_str:0000000000014e63 .LASF184
C:\Users\CYMR90~1\AppData\Local\Temp\ccBmAAlS.s:31058  .debug_str:000000000002898e .LASF185
C:\Users\CYMR90~1\AppData\Local\Temp\ccBmAAlS.s:26696  .debug_str:000000000001735f .LASF186
C:\Users\CYMR90~1\AppData\Local\Temp\ccBmAAlS.s:31512  .debug_str:000000000002a51d .LASF187
C:\Users\CYMR90~1\AppData\Local\Temp\ccBmAAlS.s:28720  .debug_str:000000000001f543 .LASF188
C:\Users\CYMR90~1\AppData\Local\Temp\ccBmAAlS.s:24493  .debug_str:000000000000e655 .LASF189
C:\Users\CYMR90~1\AppData\Local\Temp\ccBmAAlS.s:25833  .debug_str:0000000000013b38 .LASF190
C:\Users\CYMR90~1\AppData\Local\Temp\ccBmAAlS.s:29206  .debug_str:0000000000021264 .LASF191
C:\Users\CYMR90~1\AppData\Local\Temp\ccBmAAlS.s:26573  .debug_str:00000000000169fe .LASF192
C:\Users\CYMR90~1\AppData\Local\Temp\ccBmAAlS.s:29444  .debug_str:0000000000022135 .LASF193
C:\Users\CYMR90~1\AppData\Local\Temp\ccBmAAlS.s:22337  .debug_str:0000000000005bb7 .LASF194
C:\Users\CYMR90~1\AppData\Local\Temp\ccBmAAlS.s:21703  .debug_str:00000000000032db .LASF195
C:\Users\CYMR90~1\AppData\Local\Temp\ccBmAAlS.s:24321  .debug_str:000000000000db95 .LASF196
C:\Users\CYMR90~1\AppData\Local\Temp\ccBmAAlS.s:25235  .debug_str:00000000000113dc .LASF197
C:\Users\CYMR90~1\AppData\Local\Temp\ccBmAAlS.s:22193  .debug_str:00000000000052c9 .LASF198
C:\Users\CYMR90~1\AppData\Local\Temp\ccBmAAlS.s:30952  .debug_str:00000000000281bb .LASF199
C:\Users\CYMR90~1\AppData\Local\Temp\ccBmAAlS.s:29090  .debug_str:0000000000020bce .LASF200
C:\Users\CYMR90~1\AppData\Local\Temp\ccBmAAlS.s:28210  .debug_str:000000000001d59e .LASF201
C:\Users\CYMR90~1\AppData\Local\Temp\ccBmAAlS.s:23345  .debug_str:0000000000009c3d .LASF202
C:\Users\CYMR90~1\AppData\Local\Temp\ccBmAAlS.s:31402  .debug_str:0000000000029ee1 .LASF203
C:\Users\CYMR90~1\AppData\Local\Temp\ccBmAAlS.s:21715  .debug_str:00000000000033ac .LASF204
C:\Users\CYMR90~1\AppData\Local\Temp\ccBmAAlS.s:24731  .debug_str:000000000000f48c .LASF205
C:\Users\CYMR90~1\AppData\Local\Temp\ccBmAAlS.s:31132  .debug_str:0000000000028ded .LASF206
C:\Users\CYMR90~1\AppData\Local\Temp\ccBmAAlS.s:25957  .debug_str:00000000000142f2 .LASF207
C:\Users\CYMR90~1\AppData\Local\Temp\ccBmAAlS.s:28760  .debug_str:000000000001f76d .LASF208
C:\Users\CYMR90~1\AppData\Local\Temp\ccBmAAlS.s:23961  .debug_str:000000000000c506 .LASF209
C:\Users\CYMR90~1\AppData\Local\Temp\ccBmAAlS.s:32064  .debug_str:000000000002c82e .LASF210
C:\Users\CYMR90~1\AppData\Local\Temp\ccBmAAlS.s:25927  .debug_str:0000000000014127 .LASF211
C:\Users\CYMR90~1\AppData\Local\Temp\ccBmAAlS.s:28600  .debug_str:000000000001edba .LASF212
C:\Users\CYMR90~1\AppData\Local\Temp\ccBmAAlS.s:27216  .debug_str:0000000000019450 .LASF213
C:\Users\CYMR90~1\AppData\Local\Temp\ccBmAAlS.s:22421  .debug_str:0000000000006083 .LASF214
C:\Users\CYMR90~1\AppData\Local\Temp\ccBmAAlS.s:25935  .debug_str:0000000000014197 .LASF215
C:\Users\CYMR90~1\AppData\Local\Temp\ccBmAAlS.s:27908  .debug_str:000000000001c135 .LASF216
C:\Users\CYMR90~1\AppData\Local\Temp\ccBmAAlS.s:28870  .debug_str:000000000001fe05 .LASF217
C:\Users\CYMR90~1\AppData\Local\Temp\ccBmAAlS.s:24805  .debug_str:000000000000f950 .LASF218
C:\Users\CYMR90~1\AppData\Local\Temp\ccBmAAlS.s:30256  .debug_str:00000000000254d6 .LASF219
C:\Users\CYMR90~1\AppData\Local\Temp\ccBmAAlS.s:30062  .debug_str:000000000002472e .LASF220
C:\Users\CYMR90~1\AppData\Local\Temp\ccBmAAlS.s:29588  .debug_str:0000000000022994 .LASF221
C:\Users\CYMR90~1\AppData\Local\Temp\ccBmAAlS.s:26219  .debug_str:000000000001538b .LASF222
C:\Users\CYMR90~1\AppData\Local\Temp\ccBmAAlS.s:22391  .debug_str:0000000000005eb9 .LASF223
C:\Users\CYMR90~1\AppData\Local\Temp\ccBmAAlS.s:23069  .debug_str:0000000000008b5b .LASF224
C:\Users\CYMR90~1\AppData\Local\Temp\ccBmAAlS.s:31724  .debug_str:000000000002b215 .LASF225
C:\Users\CYMR90~1\AppData\Local\Temp\ccBmAAlS.s:24387  .debug_str:000000000000dfca .LASF226
C:\Users\CYMR90~1\AppData\Local\Temp\ccBmAAlS.s:28072  .debug_str:000000000001cbd8 .LASF227
C:\Users\CYMR90~1\AppData\Local\Temp\ccBmAAlS.s:27918  .debug_str:000000000001c1db .LASF228
C:\Users\CYMR90~1\AppData\Local\Temp\ccBmAAlS.s:24335  .debug_str:000000000000dc72 .LASF229
C:\Users\CYMR90~1\AppData\Local\Temp\ccBmAAlS.s:28642  .debug_str:000000000001f03d .LASF230
C:\Users\CYMR90~1\AppData\Local\Temp\ccBmAAlS.s:28398  .debug_str:000000000001e1ae .LASF231
C:\Users\CYMR90~1\AppData\Local\Temp\ccBmAAlS.s:22433  .debug_str:0000000000006158 .LASF232
C:\Users\CYMR90~1\AppData\Local\Temp\ccBmAAlS.s:23021  .debug_str:0000000000008831 .LASF233
C:\Users\CYMR90~1\AppData\Local\Temp\ccBmAAlS.s:25003  .debug_str:0000000000010594 .LASF234
C:\Users\CYMR90~1\AppData\Local\Temp\ccBmAAlS.s:24727  .debug_str:000000000000f444 .LASF235
C:\Users\CYMR90~1\AppData\Local\Temp\ccBmAAlS.s:29804  .debug_str:0000000000023698 .LASF236
C:\Users\CYMR90~1\AppData\Local\Temp\ccBmAAlS.s:24749  .debug_str:000000000000f595 .LASF237
C:\Users\CYMR90~1\AppData\Local\Temp\ccBmAAlS.s:30482  .debug_str:0000000000026397 .LASF238
C:\Users\CYMR90~1\AppData\Local\Temp\ccBmAAlS.s:29788  .debug_str:000000000002356e .LASF239
C:\Users\CYMR90~1\AppData\Local\Temp\ccBmAAlS.s:30026  .debug_str:00000000000244fd .LASF240
C:\Users\CYMR90~1\AppData\Local\Temp\ccBmAAlS.s:22833  .debug_str:0000000000007b0c .LASF241
C:\Users\CYMR90~1\AppData\Local\Temp\ccBmAAlS.s:24409  .debug_str:000000000000e102 .LASF242
C:\Users\CYMR90~1\AppData\Local\Temp\ccBmAAlS.s:25393  .debug_str:0000000000011eae .LASF243
C:\Users\CYMR90~1\AppData\Local\Temp\ccBmAAlS.s:29814  .debug_str:0000000000023710 .LASF244
C:\Users\CYMR90~1\AppData\Local\Temp\ccBmAAlS.s:25585  .debug_str:0000000000012b2d .LASF245
C:\Users\CYMR90~1\AppData\Local\Temp\ccBmAAlS.s:28654  .debug_str:000000000001f122 .LASF246
C:\Users\CYMR90~1\AppData\Local\Temp\ccBmAAlS.s:26980  .debug_str:0000000000018492 .LASF247
C:\Users\CYMR90~1\AppData\Local\Temp\ccBmAAlS.s:26507  .debug_str:0000000000016527 .LASF248
C:\Users\CYMR90~1\AppData\Local\Temp\ccBmAAlS.s:28004  .debug_str:000000000001c701 .LASF249
C:\Users\CYMR90~1\AppData\Local\Temp\ccBmAAlS.s:27378  .debug_str:0000000000019ee9 .LASF250
C:\Users\CYMR90~1\AppData\Local\Temp\ccBmAAlS.s:27938  .debug_str:000000000001c303 .LASF251
C:\Users\CYMR90~1\AppData\Local\Temp\ccBmAAlS.s:29636  .debug_str:0000000000022cf1 .LASF252
C:\Users\CYMR90~1\AppData\Local\Temp\ccBmAAlS.s:24305  .debug_str:000000000000dad3 .LASF253
C:\Users\CYMR90~1\AppData\Local\Temp\ccBmAAlS.s:30332  .debug_str:0000000000025a9e .LASF254
C:\Users\CYMR90~1\AppData\Local\Temp\ccBmAAlS.s:24171  .debug_str:000000000000d26f .LASF255
C:\Users\CYMR90~1\AppData\Local\Temp\ccBmAAlS.s:27288  .debug_str:000000000001996f .LASF256
C:\Users\CYMR90~1\AppData\Local\Temp\ccBmAAlS.s:24405  .debug_str:000000000000e0d0 .LASF257
C:\Users\CYMR90~1\AppData\Local\Temp\ccBmAAlS.s:28586  .debug_str:000000000001ecd5 .LASF258
C:\Users\CYMR90~1\AppData\Local\Temp\ccBmAAlS.s:23635  .debug_str:000000000000aedf .LASF259
C:\Users\CYMR90~1\AppData\Local\Temp\ccBmAAlS.s:21053  .debug_str:0000000000000a9a .LASF260
C:\Users\CYMR90~1\AppData\Local\Temp\ccBmAAlS.s:31462  .debug_str:000000000002a260 .LASF261
C:\Users\CYMR90~1\AppData\Local\Temp\ccBmAAlS.s:30930  .debug_str:0000000000027ffd .LASF262
C:\Users\CYMR90~1\AppData\Local\Temp\ccBmAAlS.s:25903  .debug_str:0000000000013f51 .LASF263
C:\Users\CYMR90~1\AppData\Local\Temp\ccBmAAlS.s:27890  .debug_str:000000000001c021 .LASF264
C:\Users\CYMR90~1\AppData\Local\Temp\ccBmAAlS.s:24853  .debug_str:000000000000fc57 .LASF265
C:\Users\CYMR90~1\AppData\Local\Temp\ccBmAAlS.s:24337  .debug_str:000000000000dcb3 .LASF266
C:\Users\CYMR90~1\AppData\Local\Temp\ccBmAAlS.s:23685  .debug_str:000000000000b2b5 .LASF267
C:\Users\CYMR90~1\AppData\Local\Temp\ccBmAAlS.s:27992  .debug_str:000000000001c603 .LASF268
C:\Users\CYMR90~1\AppData\Local\Temp\ccBmAAlS.s:23985  .debug_str:000000000000c689 .LASF269
C:\Users\CYMR90~1\AppData\Local\Temp\ccBmAAlS.s:24921  .debug_str:00000000000100b9 .LASF270
C:\Users\CYMR90~1\AppData\Local\Temp\ccBmAAlS.s:26185  .debug_str:0000000000015152 .LASF271
C:\Users\CYMR90~1\AppData\Local\Temp\ccBmAAlS.s:30584  .debug_str:0000000000026a06 .LASF272
C:\Users\CYMR90~1\AppData\Local\Temp\ccBmAAlS.s:22601  .debug_str:0000000000006b93 .LASF273
C:\Users\CYMR90~1\AppData\Local\Temp\ccBmAAlS.s:21503  .debug_str:0000000000002608 .LASF274
C:\Users\CYMR90~1\AppData\Local\Temp\ccBmAAlS.s:22697  .debug_str:000000000000721f .LASF275
C:\Users\CYMR90~1\AppData\Local\Temp\ccBmAAlS.s:24045  .debug_str:000000000000cad3 .LASF276
C:\Users\CYMR90~1\AppData\Local\Temp\ccBmAAlS.s:23877  .debug_str:000000000000bfab .LASF277
C:\Users\CYMR90~1\AppData\Local\Temp\ccBmAAlS.s:21185  .debug_str:00000000000012ec .LASF278
C:\Users\CYMR90~1\AppData\Local\Temp\ccBmAAlS.s:22519  .debug_str:0000000000006677 .LASF279
C:\Users\CYMR90~1\AppData\Local\Temp\ccBmAAlS.s:31254  .debug_str:00000000000295c4 .LASF280
C:\Users\CYMR90~1\AppData\Local\Temp\ccBmAAlS.s:23393  .debug_str:0000000000009f0e .LASF281
C:\Users\CYMR90~1\AppData\Local\Temp\ccBmAAlS.s:22481  .debug_str:000000000000645a .LASF282
C:\Users\CYMR90~1\AppData\Local\Temp\ccBmAAlS.s:22385  .debug_str:0000000000005e67 .LASF283
C:\Users\CYMR90~1\AppData\Local\Temp\ccBmAAlS.s:22149  .debug_str:000000000000505d .LASF284
C:\Users\CYMR90~1\AppData\Local\Temp\ccBmAAlS.s:30128  .debug_str:0000000000024b9f .LASF285
C:\Users\CYMR90~1\AppData\Local\Temp\ccBmAAlS.s:30964  .debug_str:00000000000282b1 .LASF286
C:\Users\CYMR90~1\AppData\Local\Temp\ccBmAAlS.s:31238  .debug_str:0000000000029454 .LASF287
C:\Users\CYMR90~1\AppData\Local\Temp\ccBmAAlS.s:31146  .debug_str:0000000000028ea5 .LASF288
C:\Users\CYMR90~1\AppData\Local\Temp\ccBmAAlS.s:31992  .debug_str:000000000002c378 .LASF289
C:\Users\CYMR90~1\AppData\Local\Temp\ccBmAAlS.s:26922  .debug_str:0000000000018127 .LASF290
C:\Users\CYMR90~1\AppData\Local\Temp\ccBmAAlS.s:25961  .debug_str:0000000000014318 .LASF291
C:\Users\CYMR90~1\AppData\Local\Temp\ccBmAAlS.s:24871  .debug_str:000000000000fd71 .LASF292
C:\Users\CYMR90~1\AppData\Local\Temp\ccBmAAlS.s:21793  .debug_str:00000000000038ac .LASF293
C:\Users\CYMR90~1\AppData\Local\Temp\ccBmAAlS.s:29102  .debug_str:0000000000020c86 .LASF294
C:\Users\CYMR90~1\AppData\Local\Temp\ccBmAAlS.s:22067  .debug_str:0000000000004b26 .LASF295
C:\Users\CYMR90~1\AppData\Local\Temp\ccBmAAlS.s:31582  .debug_str:000000000002a9d7 .LASF296
C:\Users\CYMR90~1\AppData\Local\Temp\ccBmAAlS.s:31772  .debug_str:000000000002b547 .LASF297
C:\Users\CYMR90~1\AppData\Local\Temp\ccBmAAlS.s:26802  .debug_str:0000000000017a3c .LASF298
C:\Users\CYMR90~1\AppData\Local\Temp\ccBmAAlS.s:21037  .debug_str:0000000000000994 .LASF299
C:\Users\CYMR90~1\AppData\Local\Temp\ccBmAAlS.s:24825  .debug_str:000000000000fa91 .LASF300
C:\Users\CYMR90~1\AppData\Local\Temp\ccBmAAlS.s:27558  .debug_str:000000000001ab72 .LASF301
C:\Users\CYMR90~1\AppData\Local\Temp\ccBmAAlS.s:26065  .debug_str:0000000000014965 .LASF302
C:\Users\CYMR90~1\AppData\Local\Temp\ccBmAAlS.s:25533  .debug_str:00000000000127e6 .LASF303
C:\Users\CYMR90~1\AppData\Local\Temp\ccBmAAlS.s:21423  .debug_str:0000000000002188 .LASF304
C:\Users\CYMR90~1\AppData\Local\Temp\ccBmAAlS.s:23993  .debug_str:000000000000c70d .LASF305
C:\Users\CYMR90~1\AppData\Local\Temp\ccBmAAlS.s:29310  .debug_str:0000000000021946 .LASF306
C:\Users\CYMR90~1\AppData\Local\Temp\ccBmAAlS.s:24839  .debug_str:000000000000fb78 .LASF307
C:\Users\CYMR90~1\AppData\Local\Temp\ccBmAAlS.s:30148  .debug_str:0000000000024cf5 .LASF308
C:\Users\CYMR90~1\AppData\Local\Temp\ccBmAAlS.s:29754  .debug_str:000000000002335b .LASF309
C:\Users\CYMR90~1\AppData\Local\Temp\ccBmAAlS.s:24389  .debug_str:000000000000dfe3 .LASF310
C:\Users\CYMR90~1\AppData\Local\Temp\ccBmAAlS.s:30478  .debug_str:000000000002636c .LASF311
C:\Users\CYMR90~1\AppData\Local\Temp\ccBmAAlS.s:29980  .debug_str:00000000000241d2 .LASF312
C:\Users\CYMR90~1\AppData\Local\Temp\ccBmAAlS.s:24109  .debug_str:000000000000ce92 .LASF313
C:\Users\CYMR90~1\AppData\Local\Temp\ccBmAAlS.s:31168  .debug_str:0000000000029028 .LASF316
C:\Users\CYMR90~1\AppData\Local\Temp\ccBmAAlS.s:27432  .debug_str:000000000001a206 .LASF317
C:\Users\CYMR90~1\AppData\Local\Temp\ccBmAAlS.s:27774  .debug_str:000000000001b8cb .LASF318
C:\Users\CYMR90~1\AppData\Local\Temp\ccBmAAlS.s:24833  .debug_str:000000000000fb2e .LASF319
C:\Users\CYMR90~1\AppData\Local\Temp\ccBmAAlS.s:23753  .debug_str:000000000000b727 .LASF320
C:\Users\CYMR90~1\AppData\Local\Temp\ccBmAAlS.s:31194  .debug_str:00000000000291d1 .LASF321
C:\Users\CYMR90~1\AppData\Local\Temp\ccBmAAlS.s:24303  .debug_str:000000000000dac6 .LASF322
C:\Users\CYMR90~1\AppData\Local\Temp\ccBmAAlS.s:30428  .debug_str:0000000000026041 .LASF323
C:\Users\CYMR90~1\AppData\Local\Temp\ccBmAAlS.s:20915  .debug_str:000000000000025e .LASF324
C:\Users\CYMR90~1\AppData\Local\Temp\ccBmAAlS.s:31604  .debug_str:000000000002ab0c .LASF325
C:\Users\CYMR90~1\AppData\Local\Temp\ccBmAAlS.s:21849  .debug_str:0000000000003c2a .LASF326
C:\Users\CYMR90~1\AppData\Local\Temp\ccBmAAlS.s:25891  .debug_str:0000000000013e94 .LASF327
C:\Users\CYMR90~1\AppData\Local\Temp\ccBmAAlS.s:25535  .debug_str:00000000000127fb .LASF328
C:\Users\CYMR90~1\AppData\Local\Temp\ccBmAAlS.s:28438  .debug_str:000000000001e3fd .LASF329
C:\Users\CYMR90~1\AppData\Local\Temp\ccBmAAlS.s:28430  .debug_str:000000000001e3ac .LASF330
C:\Users\CYMR90~1\AppData\Local\Temp\ccBmAAlS.s:30624  .debug_str:0000000000026c6d .LASF331
C:\Users\CYMR90~1\AppData\Local\Temp\ccBmAAlS.s:31174  .debug_str:000000000002907f .LASF332
C:\Users\CYMR90~1\AppData\Local\Temp\ccBmAAlS.s:31368  .debug_str:0000000000029cd7 .LASF333
C:\Users\CYMR90~1\AppData\Local\Temp\ccBmAAlS.s:27406  .debug_str:000000000001a08b .LASF334
C:\Users\CYMR90~1\AppData\Local\Temp\ccBmAAlS.s:26846  .debug_str:0000000000017cc9 .LASF335
C:\Users\CYMR90~1\AppData\Local\Temp\ccBmAAlS.s:31218  .debug_str:0000000000029351 .LASF336
C:\Users\CYMR90~1\AppData\Local\Temp\ccBmAAlS.s:25457  .debug_str:00000000000122f4 .LASF337
C:\Users\CYMR90~1\AppData\Local\Temp\ccBmAAlS.s:29156  .debug_str:0000000000020f9b .LASF338
C:\Users\CYMR90~1\AppData\Local\Temp\ccBmAAlS.s:23511  .debug_str:000000000000a681 .LASF339
C:\Users\CYMR90~1\AppData\Local\Temp\ccBmAAlS.s:25671  .debug_str:00000000000130fb .LASF340
C:\Users\CYMR90~1\AppData\Local\Temp\ccBmAAlS.s:27608  .debug_str:000000000001ae7e .LASF341
C:\Users\CYMR90~1\AppData\Local\Temp\ccBmAAlS.s:23813  .debug_str:000000000000bb35 .LASF342
C:\Users\CYMR90~1\AppData\Local\Temp\ccBmAAlS.s:21167  .debug_str:0000000000001218 .LASF343
C:\Users\CYMR90~1\AppData\Local\Temp\ccBmAAlS.s:31336  .debug_str:0000000000029af2 .LASF344
C:\Users\CYMR90~1\AppData\Local\Temp\ccBmAAlS.s:31934  .debug_str:000000000002bfce .LASF345
C:\Users\CYMR90~1\AppData\Local\Temp\ccBmAAlS.s:24717  .debug_str:000000000000f3bc .LASF346
C:\Users\CYMR90~1\AppData\Local\Temp\ccBmAAlS.s:21025  .debug_str:00000000000008dd .LASF347
C:\Users\CYMR90~1\AppData\Local\Temp\ccBmAAlS.s:28952  .debug_str:0000000000020310 .LASF348
C:\Users\CYMR90~1\AppData\Local\Temp\ccBmAAlS.s:30940  .debug_str:00000000000280cc .LASF349
C:\Users\CYMR90~1\AppData\Local\Temp\ccBmAAlS.s:28432  .debug_str:000000000001e3b8 .LASF350
C:\Users\CYMR90~1\AppData\Local\Temp\ccBmAAlS.s:20955  .debug_str:00000000000004de .LASF351
C:\Users\CYMR90~1\AppData\Local\Temp\ccBmAAlS.s:28724  .debug_str:000000000001f573 .LASF352
C:\Users\CYMR90~1\AppData\Local\Temp\ccBmAAlS.s:30420  .debug_str:0000000000025fd7 .LASF353
C:\Users\CYMR90~1\AppData\Local\Temp\ccBmAAlS.s:28056  .debug_str:000000000001caff .LASF354
C:\Users\CYMR90~1\AppData\Local\Temp\ccBmAAlS.s:28224  .debug_str:000000000001d694 .LASF355
C:\Users\CYMR90~1\AppData\Local\Temp\ccBmAAlS.s:24199  .debug_str:000000000000d4f1 .LASF356
C:\Users\CYMR90~1\AppData\Local\Temp\ccBmAAlS.s:27364  .debug_str:0000000000019e3d .LASF357
C:\Users\CYMR90~1\AppData\Local\Temp\ccBmAAlS.s:30852  .debug_str:0000000000027ac7 .LASF358
C:\Users\CYMR90~1\AppData\Local\Temp\ccBmAAlS.s:25525  .debug_str:000000000001273b .LASF359
C:\Users\CYMR90~1\AppData\Local\Temp\ccBmAAlS.s:23605  .debug_str:000000000000ad28 .LASF360
C:\Users\CYMR90~1\AppData\Local\Temp\ccBmAAlS.s:28602  .debug_str:000000000001edd2 .LASF361
C:\Users\CYMR90~1\AppData\Local\Temp\ccBmAAlS.s:28396  .debug_str:000000000001e1a0 .LASF362
C:\Users\CYMR90~1\AppData\Local\Temp\ccBmAAlS.s:31114  .debug_str:0000000000028cfc .LASF363
C:\Users\CYMR90~1\AppData\Local\Temp\ccBmAAlS.s:23153  .debug_str:0000000000009091 .LASF364
C:\Users\CYMR90~1\AppData\Local\Temp\ccBmAAlS.s:31014  .debug_str:0000000000028659 .LASF365
C:\Users\CYMR90~1\AppData\Local\Temp\ccBmAAlS.s:22557  .debug_str:000000000000691e .LASF366
C:\Users\CYMR90~1\AppData\Local\Temp\ccBmAAlS.s:25661  .debug_str:0000000000013037 .LASF367
C:\Users\CYMR90~1\AppData\Local\Temp\ccBmAAlS.s:22841  .debug_str:0000000000007b8a .LASF368
C:\Users\CYMR90~1\AppData\Local\Temp\ccBmAAlS.s:26890  .debug_str:0000000000017f55 .LASF372
C:\Users\CYMR90~1\AppData\Local\Temp\ccBmAAlS.s:30666  .debug_str:0000000000026ef1 .LASF373
C:\Users\CYMR90~1\AppData\Local\Temp\ccBmAAlS.s:23589  .debug_str:000000000000ac1e .LASF374
C:\Users\CYMR90~1\AppData\Local\Temp\ccBmAAlS.s:26684  .debug_str:00000000000172b8 .LASF375
C:\Users\CYMR90~1\AppData\Local\Temp\ccBmAAlS.s:26876  .debug_str:0000000000017e8d .LASF376
C:\Users\CYMR90~1\AppData\Local\Temp\ccBmAAlS.s:29412  .debug_str:0000000000021f5d .LASF377
C:\Users\CYMR90~1\AppData\Local\Temp\ccBmAAlS.s:28074  .debug_str:000000000001cbf1 .LASF378
C:\Users\CYMR90~1\AppData\Local\Temp\ccBmAAlS.s:31764  .debug_str:000000000002b4d4 .LASF379
C:\Users\CYMR90~1\AppData\Local\Temp\ccBmAAlS.s:21521  .debug_str:0000000000002753 .LASF380
C:\Users\CYMR90~1\AppData\Local\Temp\ccBmAAlS.s:31706  .debug_str:000000000002b129 .LASF381
C:\Users\CYMR90~1\AppData\Local\Temp\ccBmAAlS.s:27782  .debug_str:000000000001b91c .LASF382
C:\Users\CYMR90~1\AppData\Local\Temp\ccBmAAlS.s:22619  .debug_str:0000000000006ccc .LASF383
C:\Users\CYMR90~1\AppData\Local\Temp\ccBmAAlS.s:23963  .debug_str:000000000000c521 .LASF384
C:\Users\CYMR90~1\AppData\Local\Temp\ccBmAAlS.s:27306  .debug_str:0000000000019aa3 .LASF385
C:\Users\CYMR90~1\AppData\Local\Temp\ccBmAAlS.s:24951  .debug_str:0000000000010283 .LASF386
C:\Users\CYMR90~1\AppData\Local\Temp\ccBmAAlS.s:21451  .debug_str:000000000000230c .LASF387
C:\Users\CYMR90~1\AppData\Local\Temp\ccBmAAlS.s:24555  .debug_str:000000000000ea29 .LASF388
C:\Users\CYMR90~1\AppData\Local\Temp\ccBmAAlS.s:23121  .debug_str:0000000000008eb3 .LASF389
C:\Users\CYMR90~1\AppData\Local\Temp\ccBmAAlS.s:21939  .debug_str:000000000000426e .LASF391
C:\Users\CYMR90~1\AppData\Local\Temp\ccBmAAlS.s:24959  .debug_str:00000000000102ef .LASF392
C:\Users\CYMR90~1\AppData\Local\Temp\ccBmAAlS.s:22115  .debug_str:0000000000004e43 .LASF393
C:\Users\CYMR90~1\AppData\Local\Temp\ccBmAAlS.s:30812  .debug_str:000000000002787a .LASF394
C:\Users\CYMR90~1\AppData\Local\Temp\ccBmAAlS.s:21477  .debug_str:000000000000246a .LASF395
C:\Users\CYMR90~1\AppData\Local\Temp\ccBmAAlS.s:23629  .debug_str:000000000000ae7b .LASF396
C:\Users\CYMR90~1\AppData\Local\Temp\ccBmAAlS.s:27412  .debug_str:000000000001a0eb .LASF397
C:\Users\CYMR90~1\AppData\Local\Temp\ccBmAAlS.s:31580  .debug_str:000000000002a9c5 .LASF398
C:\Users\CYMR90~1\AppData\Local\Temp\ccBmAAlS.s:26253  .debug_str:0000000000015577 .LASF399
C:\Users\CYMR90~1\AppData\Local\Temp\ccBmAAlS.s:28684  .debug_str:000000000001f2ed .LASF400
C:\Users\CYMR90~1\AppData\Local\Temp\ccBmAAlS.s:23111  .debug_str:0000000000008dbe .LASF401
C:\Users\CYMR90~1\AppData\Local\Temp\ccBmAAlS.s:26736  .debug_str:00000000000175e2 .LASF402
C:\Users\CYMR90~1\AppData\Local\Temp\ccBmAAlS.s:22449  .debug_str:0000000000006259 .LASF403
C:\Users\CYMR90~1\AppData\Local\Temp\ccBmAAlS.s:23565  .debug_str:000000000000aa92 .LASF404
C:\Users\CYMR90~1\AppData\Local\Temp\ccBmAAlS.s:24615  .debug_str:000000000000edaa .LASF405
C:\Users\CYMR90~1\AppData\Local\Temp\ccBmAAlS.s:27976  .debug_str:000000000001c51f .LASF406
C:\Users\CYMR90~1\AppData\Local\Temp\ccBmAAlS.s:26163  .debug_str:0000000000015010 .LASF407
C:\Users\CYMR90~1\AppData\Local\Temp\ccBmAAlS.s:27148  .debug_str:0000000000018f70 .LASF408
C:\Users\CYMR90~1\AppData\Local\Temp\ccBmAAlS.s:29356  .debug_str:0000000000021c05 .LASF409
C:\Users\CYMR90~1\AppData\Local\Temp\ccBmAAlS.s:22403  .debug_str:0000000000005f74 .LASF410
C:\Users\CYMR90~1\AppData\Local\Temp\ccBmAAlS.s:26365  .debug_str:0000000000015bd7 .LASF411
C:\Users\CYMR90~1\AppData\Local\Temp\ccBmAAlS.s:29478  .debug_str:0000000000022325 .LASF412
C:\Users\CYMR90~1\AppData\Local\Temp\ccBmAAlS.s:22593  .debug_str:0000000000006b33 .LASF413
C:\Users\CYMR90~1\AppData\Local\Temp\ccBmAAlS.s:31208  .debug_str:00000000000292aa .LASF414
C:\Users\CYMR90~1\AppData\Local\Temp\ccBmAAlS.s:24719  .debug_str:000000000000f3ca .LASF415
C:\Users\CYMR90~1\AppData\Local\Temp\ccBmAAlS.s:30542  .debug_str:0000000000026768 .LASF416
C:\Users\CYMR90~1\AppData\Local\Temp\ccBmAAlS.s:32062  .debug_str:000000000002c823 .LASF417
C:\Users\CYMR90~1\AppData\Local\Temp\ccBmAAlS.s:23039  .debug_str:000000000000895a .LASF418
C:\Users\CYMR90~1\AppData\Local\Temp\ccBmAAlS.s:31428  .debug_str:000000000002a05e .LASF419
C:\Users\CYMR90~1\AppData\Local\Temp\ccBmAAlS.s:22667  .debug_str:000000000000701c .LASF420
C:\Users\CYMR90~1\AppData\Local\Temp\ccBmAAlS.s:31624  .debug_str:000000000002ac22 .LASF421
C:\Users\CYMR90~1\AppData\Local\Temp\ccBmAAlS.s:23887  .debug_str:000000000000c062 .LASF422
C:\Users\CYMR90~1\AppData\Local\Temp\ccBmAAlS.s:24087  .debug_str:000000000000cd68 .LASF423
C:\Users\CYMR90~1\AppData\Local\Temp\ccBmAAlS.s:28580  .debug_str:000000000001ec96 .LASF424
C:\Users\CYMR90~1\AppData\Local\Temp\ccBmAAlS.s:27184  .debug_str:0000000000019274 .LASF425
C:\Users\CYMR90~1\AppData\Local\Temp\ccBmAAlS.s:20927  .debug_str:0000000000000327 .LASF426
C:\Users\CYMR90~1\AppData\Local\Temp\ccBmAAlS.s:31120  .debug_str:0000000000028d59 .LASF427
C:\Users\CYMR90~1\AppData\Local\Temp\ccBmAAlS.s:26447  .debug_str:00000000000161ac .LASF428
C:\Users\CYMR90~1\AppData\Local\Temp\ccBmAAlS.s:28362  .debug_str:000000000001dfb9 .LASF429
C:\Users\CYMR90~1\AppData\Local\Temp\ccBmAAlS.s:24899  .debug_str:000000000000ff59 .LASF430
C:\Users\CYMR90~1\AppData\Local\Temp\ccBmAAlS.s:26636  .debug_str:0000000000016ffd .LASF431
C:\Users\CYMR90~1\AppData\Local\Temp\ccBmAAlS.s:29432  .debug_str:0000000000022073 .LASF432
C:\Users\CYMR90~1\AppData\Local\Temp\ccBmAAlS.s:24071  .debug_str:000000000000cc88 .LASF434
C:\Users\CYMR90~1\AppData\Local\Temp\ccBmAAlS.s:22121  .debug_str:0000000000004e99 .LASF435
C:\Users\CYMR90~1\AppData\Local\Temp\ccBmAAlS.s:26820  .debug_str:0000000000017b44 .LASF436
C:\Users\CYMR90~1\AppData\Local\Temp\ccBmAAlS.s:22685  .debug_str:0000000000007145 .LASF437
C:\Users\CYMR90~1\AppData\Local\Temp\ccBmAAlS.s:31136  .debug_str:0000000000028e10 .LASF438
C:\Users\CYMR90~1\AppData\Local\Temp\ccBmAAlS.s:20889  .debug_str:00000000000000c7 .LASF439
C:\Users\CYMR90~1\AppData\Local\Temp\ccBmAAlS.s:28620  .debug_str:000000000001eeeb .LASF440
C:\Users\CYMR90~1\AppData\Local\Temp\ccBmAAlS.s:24311  .debug_str:000000000000db2b .LASF441
C:\Users\CYMR90~1\AppData\Local\Temp\ccBmAAlS.s:29662  .debug_str:0000000000022e48 .LASF442
C:\Users\CYMR90~1\AppData\Local\Temp\ccBmAAlS.s:28554  .debug_str:000000000001eb3a .LASF443
C:\Users\CYMR90~1\AppData\Local\Temp\ccBmAAlS.s:25031  .debug_str:0000000000010745 .LASF444
C:\Users\CYMR90~1\AppData\Local\Temp\ccBmAAlS.s:32056  .debug_str:000000000002c7d7 .LASF445
C:\Users\CYMR90~1\AppData\Local\Temp\ccBmAAlS.s:31990  .debug_str:000000000002c372 .LASF446
C:\Users\CYMR90~1\AppData\Local\Temp\ccBmAAlS.s:25379  .debug_str:0000000000011ddf .LASF447
C:\Users\CYMR90~1\AppData\Local\Temp\ccBmAAlS.s:29638  .debug_str:0000000000022d03 .LASF448
C:\Users\CYMR90~1\AppData\Local\Temp\ccBmAAlS.s:21949  .debug_str:0000000000004300 .LASF449
C:\Users\CYMR90~1\AppData\Local\Temp\ccBmAAlS.s:22705  .debug_str:00000000000072ad .LASF450
C:\Users\CYMR90~1\AppData\Local\Temp\ccBmAAlS.s:23313  .debug_str:0000000000009a49 .LASF451
C:\Users\CYMR90~1\AppData\Local\Temp\ccBmAAlS.s:26073  .debug_str:0000000000014a07 .LASF452
C:\Users\CYMR90~1\AppData\Local\Temp\ccBmAAlS.s:21395  .debug_str:0000000000002033 .LASF453
C:\Users\CYMR90~1\AppData\Local\Temp\ccBmAAlS.s:31996  .debug_str:000000000002c3ab .LASF454
C:\Users\CYMR90~1\AppData\Local\Temp\ccBmAAlS.s:24479  .debug_str:000000000000e52b .LASF455
C:\Users\CYMR90~1\AppData\Local\Temp\ccBmAAlS.s:29252  .debug_str:00000000000215a6 .LASF456
C:\Users\CYMR90~1\AppData\Local\Temp\ccBmAAlS.s:24165  .debug_str:000000000000d22b .LASF457
C:\Users\CYMR90~1\AppData\Local\Temp\ccBmAAlS.s:22461  .debug_str:0000000000006306 .LASF458
C:\Users\CYMR90~1\AppData\Local\Temp\ccBmAAlS.s:27036  .debug_str:0000000000018811 .LASF459
C:\Users\CYMR90~1\AppData\Local\Temp\ccBmAAlS.s:29006  .debug_str:00000000000206db .LASF460
C:\Users\CYMR90~1\AppData\Local\Temp\ccBmAAlS.s:30152  .debug_str:0000000000024d2b .LASF461
C:\Users\CYMR90~1\AppData\Local\Temp\ccBmAAlS.s:26601  .debug_str:0000000000016c13 .LASF462
C:\Users\CYMR90~1\AppData\Local\Temp\ccBmAAlS.s:27462  .debug_str:000000000001a563 .LASF463
C:\Users\CYMR90~1\AppData\Local\Temp\ccBmAAlS.s:24327  .debug_str:000000000000dbf7 .LASF464
C:\Users\CYMR90~1\AppData\Local\Temp\ccBmAAlS.s:25469  .debug_str:00000000000123b7 .LASF465
C:\Users\CYMR90~1\AppData\Local\Temp\ccBmAAlS.s:22613  .debug_str:0000000000006c86 .LASF466
C:\Users\CYMR90~1\AppData\Local\Temp\ccBmAAlS.s:23171  .debug_str:0000000000009174 .LASF467
C:\Users\CYMR90~1\AppData\Local\Temp\ccBmAAlS.s:31228  .debug_str:00000000000293e0 .LASF468
C:\Users\CYMR90~1\AppData\Local\Temp\ccBmAAlS.s:21747  .debug_str:00000000000035d4 .LASF469
C:\Users\CYMR90~1\AppData\Local\Temp\ccBmAAlS.s:24995  .debug_str:000000000001050f .LASF470
C:\Users\CYMR90~1\AppData\Local\Temp\ccBmAAlS.s:24873  .debug_str:000000000000fd8e .LASF471
C:\Users\CYMR90~1\AppData\Local\Temp\ccBmAAlS.s:24453  .debug_str:000000000000e39f .LASF472
C:\Users\CYMR90~1\AppData\Local\Temp\ccBmAAlS.s:21107  .debug_str:0000000000000e0c .LASF473
C:\Users\CYMR90~1\AppData\Local\Temp\ccBmAAlS.s:22729  .debug_str:000000000000745e .LASF474
C:\Users\CYMR90~1\AppData\Local\Temp\ccBmAAlS.s:21055  .debug_str:0000000000000ad8 .LASF475
C:\Users\CYMR90~1\AppData\Local\Temp\ccBmAAlS.s:21917  .debug_str:0000000000004084 .LASF476
C:\Users\CYMR90~1\AppData\Local\Temp\ccBmAAlS.s:21275  .debug_str:00000000000018e2 .LASF477
C:\Users\CYMR90~1\AppData\Local\Temp\ccBmAAlS.s:26391  .debug_str:0000000000015dd0 .LASF478
C:\Users\CYMR90~1\AppData\Local\Temp\ccBmAAlS.s:23771  .debug_str:000000000000b88b .LASF479
C:\Users\CYMR90~1\AppData\Local\Temp\ccBmAAlS.s:31620  .debug_str:000000000002abf2 .LASF480
C:\Users\CYMR90~1\AppData\Local\Temp\ccBmAAlS.s:26974  .debug_str:0000000000018438 .LASF481
C:\Users\CYMR90~1\AppData\Local\Temp\ccBmAAlS.s:23695  .debug_str:000000000000b34a .LASF482
C:\Users\CYMR90~1\AppData\Local\Temp\ccBmAAlS.s:22505  .debug_str:00000000000065b7 .LASF483
C:\Users\CYMR90~1\AppData\Local\Temp\ccBmAAlS.s:21021  .debug_str:0000000000000896 .LASF484
C:\Users\CYMR90~1\AppData\Local\Temp\ccBmAAlS.s:26920  .debug_str:0000000000018104 .LASF485
C:\Users\CYMR90~1\AppData\Local\Temp\ccBmAAlS.s:22133  .debug_str:0000000000004f5e .LASF486
C:\Users\CYMR90~1\AppData\Local\Temp\ccBmAAlS.s:27144  .debug_str:0000000000018f42 .LASF487
C:\Users\CYMR90~1\AppData\Local\Temp\ccBmAAlS.s:25019  .debug_str:00000000000106a1 .LASF488
C:\Users\CYMR90~1\AppData\Local\Temp\ccBmAAlS.s:25589  .debug_str:0000000000012b8f .LASF489
C:\Users\CYMR90~1\AppData\Local\Temp\ccBmAAlS.s:24047  .debug_str:000000000000cb14 .LASF490
C:\Users\CYMR90~1\AppData\Local\Temp\ccBmAAlS.s:23037  .debug_str:000000000000894c .LASF491
C:\Users\CYMR90~1\AppData\Local\Temp\ccBmAAlS.s:24675  .debug_str:000000000000f132 .LASF492
C:\Users\CYMR90~1\AppData\Local\Temp\ccBmAAlS.s:24985  .debug_str:0000000000010493 .LASF493
C:\Users\CYMR90~1\AppData\Local\Temp\ccBmAAlS.s:24879  .debug_str:000000000000fe02 .LASF494
C:\Users\CYMR90~1\AppData\Local\Temp\ccBmAAlS.s:27174  .debug_str:00000000000191f1 .LASF495
C:\Users\CYMR90~1\AppData\Local\Temp\ccBmAAlS.s:32078  .debug_str:000000000002c917 .LASF496
C:\Users\CYMR90~1\AppData\Local\Temp\ccBmAAlS.s:32016  .debug_str:000000000002c52f .LASF497
C:\Users\CYMR90~1\AppData\Local\Temp\ccBmAAlS.s:24723  .debug_str:000000000000f411 .LASF498
C:\Users\CYMR90~1\AppData\Local\Temp\ccBmAAlS.s:31236  .debug_str:000000000002942f .LASF499
C:\Users\CYMR90~1\AppData\Local\Temp\ccBmAAlS.s:31340  .debug_str:0000000000029b15 .LASF500
C:\Users\CYMR90~1\AppData\Local\Temp\ccBmAAlS.s:26037  .debug_str:00000000000147bd .LASF501
C:\Users\CYMR90~1\AppData\Local\Temp\ccBmAAlS.s:31294  .debug_str:000000000002985b .LASF502
C:\Users\CYMR90~1\AppData\Local\Temp\ccBmAAlS.s:25989  .debug_str:0000000000014486 .LASF503
C:\Users\CYMR90~1\AppData\Local\Temp\ccBmAAlS.s:21609  .debug_str:0000000000002cfb .LASF504
C:\Users\CYMR90~1\AppData\Local\Temp\ccBmAAlS.s:29922  .debug_str:0000000000023d9f .LASF505
C:\Users\CYMR90~1\AppData\Local\Temp\ccBmAAlS.s:30808  .debug_str:000000000002783f .LASF506
C:\Users\CYMR90~1\AppData\Local\Temp\ccBmAAlS.s:30372  .debug_str:0000000000025cff .LASF507
C:\Users\CYMR90~1\AppData\Local\Temp\ccBmAAlS.s:27092  .debug_str:0000000000018b73 .LASF508
C:\Users\CYMR90~1\AppData\Local\Temp\ccBmAAlS.s:29342  .debug_str:0000000000021af2 .LASF509
C:\Users\CYMR90~1\AppData\Local\Temp\ccBmAAlS.s:31032  .debug_str:00000000000287a4 .LASF510
C:\Users\CYMR90~1\AppData\Local\Temp\ccBmAAlS.s:26503  .debug_str:00000000000164d0 .LASF511
C:\Users\CYMR90~1\AppData\Local\Temp\ccBmAAlS.s:30654  .debug_str:0000000000026dfc .LASF512
C:\Users\CYMR90~1\AppData\Local\Temp\ccBmAAlS.s:30780  .debug_str:00000000000276ab .LASF513
C:\Users\CYMR90~1\AppData\Local\Temp\ccBmAAlS.s:31216  .debug_str:0000000000029316 .LASF514
C:\Users\CYMR90~1\AppData\Local\Temp\ccBmAAlS.s:25755  .debug_str:000000000001369e .LASF515
C:\Users\CYMR90~1\AppData\Local\Temp\ccBmAAlS.s:31090  .debug_str:0000000000028b92 .LASF516
C:\Users\CYMR90~1\AppData\Local\Temp\ccBmAAlS.s:27244  .debug_str:00000000000195fd .LASF517
C:\Users\CYMR90~1\AppData\Local\Temp\ccBmAAlS.s:31040  .debug_str:0000000000028858 .LASF518
C:\Users\CYMR90~1\AppData\Local\Temp\ccBmAAlS.s:27898  .debug_str:000000000001c089 .LASF519
C:\Users\CYMR90~1\AppData\Local\Temp\ccBmAAlS.s:31984  .debug_str:000000000002c310 .LASF520
C:\Users\CYMR90~1\AppData\Local\Temp\ccBmAAlS.s:28168  .debug_str:000000000001d331 .LASF521
C:\Users\CYMR90~1\AppData\Local\Temp\ccBmAAlS.s:30280  .debug_str:0000000000025641 .LASF522
C:\Users\CYMR90~1\AppData\Local\Temp\ccBmAAlS.s:25631  .debug_str:0000000000012e4a .LASF523
C:\Users\CYMR90~1\AppData\Local\Temp\ccBmAAlS.s:29830  .debug_str:0000000000023848 .LASF524
C:\Users\CYMR90~1\AppData\Local\Temp\ccBmAAlS.s:23251  .debug_str:0000000000009608 .LASF525
C:\Users\CYMR90~1\AppData\Local\Temp\ccBmAAlS.s:32006  .debug_str:000000000002c424 .LASF526
C:\Users\CYMR90~1\AppData\Local\Temp\ccBmAAlS.s:24487  .debug_str:000000000000e5a9 .LASF527
C:\Users\CYMR90~1\AppData\Local\Temp\ccBmAAlS.s:25493  .debug_str:0000000000012532 .LASF528
C:\Users\CYMR90~1\AppData\Local\Temp\ccBmAAlS.s:26371  .debug_str:0000000000015c34 .LASF529
C:\Users\CYMR90~1\AppData\Local\Temp\ccBmAAlS.s:26403  .debug_str:0000000000015e7d .LASF530
C:\Users\CYMR90~1\AppData\Local\Temp\ccBmAAlS.s:25419  .debug_str:000000000001209e .LASF531
C:\Users\CYMR90~1\AppData\Local\Temp\ccBmAAlS.s:21673  .debug_str:00000000000030a8 .LASF532
C:\Users\CYMR90~1\AppData\Local\Temp\ccBmAAlS.s:24173  .debug_str:000000000000d287 .LASF533
C:\Users\CYMR90~1\AppData\Local\Temp\ccBmAAlS.s:31844  .debug_str:000000000002b9dc .LASF534
C:\Users\CYMR90~1\AppData\Local\Temp\ccBmAAlS.s:24673  .debug_str:000000000000f0e6 .LASF535
C:\Users\CYMR90~1\AppData\Local\Temp\ccBmAAlS.s:30014  .debug_str:000000000002441d .LASF536
C:\Users\CYMR90~1\AppData\Local\Temp\ccBmAAlS.s:31494  .debug_str:000000000002a421 .LASF537
C:\Users\CYMR90~1\AppData\Local\Temp\ccBmAAlS.s:25249  .debug_str:00000000000114b4 .LASF538
C:\Users\CYMR90~1\AppData\Local\Temp\ccBmAAlS.s:30194  .debug_str:0000000000024fe2 .LASF539
C:\Users\CYMR90~1\AppData\Local\Temp\ccBmAAlS.s:27956  .debug_str:000000000001c40d .LASF540
C:\Users\CYMR90~1\AppData\Local\Temp\ccBmAAlS.s:30306  .debug_str:0000000000025861 .LASF541
C:\Users\CYMR90~1\AppData\Local\Temp\ccBmAAlS.s:28256  .debug_str:000000000001d8a9 .LASF542
C:\Users\CYMR90~1\AppData\Local\Temp\ccBmAAlS.s:22021  .debug_str:00000000000047b6 .LASF543
C:\Users\CYMR90~1\AppData\Local\Temp\ccBmAAlS.s:24417  .debug_str:000000000000e16a .LASF544
C:\Users\CYMR90~1\AppData\Local\Temp\ccBmAAlS.s:31280  .debug_str:0000000000029777 .LASF545
C:\Users\CYMR90~1\AppData\Local\Temp\ccBmAAlS.s:25767  .debug_str:0000000000013743 .LASF546
C:\Users\CYMR90~1\AppData\Local\Temp\ccBmAAlS.s:29532  .debug_str:000000000002261d .LASF547
C:\Users\CYMR90~1\AppData\Local\Temp\ccBmAAlS.s:31760  .debug_str:000000000002b4a6 .LASF548
C:\Users\CYMR90~1\AppData\Local\Temp\ccBmAAlS.s:21721  .debug_str:0000000000003412 .LASF549
C:\Users\CYMR90~1\AppData\Local\Temp\ccBmAAlS.s:22869  .debug_str:0000000000007d36 .LASF550
C:\Users\CYMR90~1\AppData\Local\Temp\ccBmAAlS.s:30548  .debug_str:00000000000267ae .LASF551
C:\Users\CYMR90~1\AppData\Local\Temp\ccBmAAlS.s:22429  .debug_str:000000000000610f .LASF552
C:\Users\CYMR90~1\AppData\Local\Temp\ccBmAAlS.s:23899  .debug_str:000000000000c124 .LASF553
C:\Users\CYMR90~1\AppData\Local\Temp\ccBmAAlS.s:23839  .debug_str:000000000000bcac .LASF554
C:\Users\CYMR90~1\AppData\Local\Temp\ccBmAAlS.s:24025  .debug_str:000000000000c96b .LASF555
C:\Users\CYMR90~1\AppData\Local\Temp\ccBmAAlS.s:22555  .debug_str:00000000000068cb .LASF556
C:\Users\CYMR90~1\AppData\Local\Temp\ccBmAAlS.s:22265  .debug_str:0000000000005717 .LASF557
C:\Users\CYMR90~1\AppData\Local\Temp\ccBmAAlS.s:25365  .debug_str:0000000000011d04 .LASF558
C:\Users\CYMR90~1\AppData\Local\Temp\ccBmAAlS.s:27120  .debug_str:0000000000018dcb .LASF559
C:\Users\CYMR90~1\AppData\Local\Temp\ccBmAAlS.s:31080  .debug_str:0000000000028ae1 .LASF560
C:\Users\CYMR90~1\AppData\Local\Temp\ccBmAAlS.s:21387  .debug_str:0000000000001f99 .LASF561
C:\Users\CYMR90~1\AppData\Local\Temp\ccBmAAlS.s:24831  .debug_str:000000000000fae3 .LASF562
C:\Users\CYMR90~1\AppData\Local\Temp\ccBmAAlS.s:24221  .debug_str:000000000000d619 .LASF563
C:\Users\CYMR90~1\AppData\Local\Temp\ccBmAAlS.s:23549  .debug_str:000000000000a8a9 .LASF564
C:\Users\CYMR90~1\AppData\Local\Temp\ccBmAAlS.s:29280  .debug_str:000000000002173e .LASF565
C:\Users\CYMR90~1\AppData\Local\Temp\ccBmAAlS.s:28498  .debug_str:000000000001e7ba .LASF566
C:\Users\CYMR90~1\AppData\Local\Temp\ccBmAAlS.s:25361  .debug_str:0000000000011cbc .LASF567
C:\Users\CYMR90~1\AppData\Local\Temp\ccBmAAlS.s:22431  .debug_str:0000000000006123 .LASF568
C:\Users\CYMR90~1\AppData\Local\Temp\ccBmAAlS.s:21081  .debug_str:0000000000000c9e .LASF570
C:\Users\CYMR90~1\AppData\Local\Temp\ccBmAAlS.s:26752  .debug_str:00000000000176d3 .LASF571
C:\Users\CYMR90~1\AppData\Local\Temp\ccBmAAlS.s:27894  .debug_str:000000000001c063 .LASF574
C:\Users\CYMR90~1\AppData\Local\Temp\ccBmAAlS.s:21991  .debug_str:00000000000045ba .LASF575
C:\Users\CYMR90~1\AppData\Local\Temp\ccBmAAlS.s:25995  .debug_str:0000000000014510 .LASF576
C:\Users\CYMR90~1\AppData\Local\Temp\ccBmAAlS.s:22965  .debug_str:00000000000084d2 .LASF577
C:\Users\CYMR90~1\AppData\Local\Temp\ccBmAAlS.s:29178  .debug_str:00000000000210cc .LASF579
C:\Users\CYMR90~1\AppData\Local\Temp\ccBmAAlS.s:28372  .debug_str:000000000001e04e .LASF580
C:\Users\CYMR90~1\AppData\Local\Temp\ccBmAAlS.s:29920  .debug_str:0000000000023d96 .LASF581
C:\Users\CYMR90~1\AppData\Local\Temp\ccBmAAlS.s:22387  .debug_str:0000000000005e7e .LASF582
C:\Users\CYMR90~1\AppData\Local\Temp\ccBmAAlS.s:24979  .debug_str:0000000000010429 .LASF583
C:\Users\CYMR90~1\AppData\Local\Temp\ccBmAAlS.s:21561  .debug_str:0000000000002a1d .LASF584
C:\Users\CYMR90~1\AppData\Local\Temp\ccBmAAlS.s:31374  .debug_str:0000000000029d36 .LASF585
C:\Users\CYMR90~1\AppData\Local\Temp\ccBmAAlS.s:29578  .debug_str:0000000000022915 .LASF586
C:\Users\CYMR90~1\AppData\Local\Temp\ccBmAAlS.s:27770  .debug_str:000000000001b8a9 .LASF587
C:\Users\CYMR90~1\AppData\Local\Temp\ccBmAAlS.s:23547  .debug_str:000000000000a899 .LASF588
C:\Users\CYMR90~1\AppData\Local\Temp\ccBmAAlS.s:27030  .debug_str:00000000000187ae .LASF589
C:\Users\CYMR90~1\AppData\Local\Temp\ccBmAAlS.s:27408  .debug_str:000000000001a094 .LASF590
C:\Users\CYMR90~1\AppData\Local\Temp\ccBmAAlS.s:28248  .debug_str:000000000001d83d .LASF591
C:\Users\CYMR90~1\AppData\Local\Temp\ccBmAAlS.s:30682  .debug_str:0000000000026ff6 .LASF592
C:\Users\CYMR90~1\AppData\Local\Temp\ccBmAAlS.s:29906  .debug_str:0000000000023ccc .LASF593
C:\Users\CYMR90~1\AppData\Local\Temp\ccBmAAlS.s:24941  .debug_str:00000000000101e9 .LASF594
C:\Users\CYMR90~1\AppData\Local\Temp\ccBmAAlS.s:25829  .debug_str:0000000000013afa .LASF595
C:\Users\CYMR90~1\AppData\Local\Temp\ccBmAAlS.s:25549  .debug_str:00000000000128e6 .LASF596
C:\Users\CYMR90~1\AppData\Local\Temp\ccBmAAlS.s:22731  .debug_str:000000000000747d .LASF597
C:\Users\CYMR90~1\AppData\Local\Temp\ccBmAAlS.s:30900  .debug_str:0000000000027e46 .LASF598
C:\Users\CYMR90~1\AppData\Local\Temp\ccBmAAlS.s:25711  .debug_str:00000000000133d0 .LASF599
C:\Users\CYMR90~1\AppData\Local\Temp\ccBmAAlS.s:28704  .debug_str:000000000001f41e .LASF600
C:\Users\CYMR90~1\AppData\Local\Temp\ccBmAAlS.s:27964  .debug_str:000000000001c479 .LASF601
C:\Users\CYMR90~1\AppData\Local\Temp\ccBmAAlS.s:30380  .debug_str:0000000000025d7e .LASF602
C:\Users\CYMR90~1\AppData\Local\Temp\ccBmAAlS.s:31096  .debug_str:0000000000028bf4 .LASF603
C:\Users\CYMR90~1\AppData\Local\Temp\ccBmAAlS.s:30990  .debug_str:00000000000284dc .LASF604
C:\Users\CYMR90~1\AppData\Local\Temp\ccBmAAlS.s:25659  .debug_str:000000000001301f .LASF605
C:\Users\CYMR90~1\AppData\Local\Temp\ccBmAAlS.s:29716  .debug_str:0000000000023129 .LASF606
C:\Users\CYMR90~1\AppData\Local\Temp\ccBmAAlS.s:23323  .debug_str:0000000000009b03 .LASF607
C:\Users\CYMR90~1\AppData\Local\Temp\ccBmAAlS.s:22827  .debug_str:0000000000007a69 .LASF608
C:\Users\CYMR90~1\AppData\Local\Temp\ccBmAAlS.s:23607  .debug_str:000000000000ad36 .LASF609
C:\Users\CYMR90~1\AppData\Local\Temp\ccBmAAlS.s:27808  .debug_str:000000000001ba81 .LASF610
C:\Users\CYMR90~1\AppData\Local\Temp\ccBmAAlS.s:22355  .debug_str:0000000000005cc5 .LASF611
C:\Users\CYMR90~1\AppData\Local\Temp\ccBmAAlS.s:29502  .debug_str:000000000002246e .LASF612
C:\Users\CYMR90~1\AppData\Local\Temp\ccBmAAlS.s:26229  .debug_str:00000000000153fd .LASF613
C:\Users\CYMR90~1\AppData\Local\Temp\ccBmAAlS.s:22889  .debug_str:0000000000007f30 .LASF614
C:\Users\CYMR90~1\AppData\Local\Temp\ccBmAAlS.s:20979  .debug_str:000000000000060f .LASF615
C:\Users\CYMR90~1\AppData\Local\Temp\ccBmAAlS.s:26475  .debug_str:0000000000016331 .LASF616
C:\Users\CYMR90~1\AppData\Local\Temp\ccBmAAlS.s:27444  .debug_str:000000000001a2c3 .LASF617
C:\Users\CYMR90~1\AppData\Local\Temp\ccBmAAlS.s:26603  .debug_str:0000000000016c22 .LASF618
C:\Users\CYMR90~1\AppData\Local\Temp\ccBmAAlS.s:29586  .debug_str:000000000002297a .LASF619
C:\Users\CYMR90~1\AppData\Local\Temp\ccBmAAlS.s:23855  .debug_str:000000000000be44 .LASF620
C:\Users\CYMR90~1\AppData\Local\Temp\ccBmAAlS.s:22641  .debug_str:0000000000006e68 .LASF621
C:\Users\CYMR90~1\AppData\Local\Temp\ccBmAAlS.s:29774  .debug_str:000000000002347f .LASF622
C:\Users\CYMR90~1\AppData\Local\Temp\ccBmAAlS.s:28882  .debug_str:000000000001fef6 .LASF623
C:\Users\CYMR90~1\AppData\Local\Temp\ccBmAAlS.s:30860  .debug_str:0000000000027b3c .LASF624
C:\Users\CYMR90~1\AppData\Local\Temp\ccBmAAlS.s:31468  .debug_str:000000000002a2bf .LASF625
C:\Users\CYMR90~1\AppData\Local\Temp\ccBmAAlS.s:25899  .debug_str:0000000000013ef0 .LASF626
C:\Users\CYMR90~1\AppData\Local\Temp\ccBmAAlS.s:31726  .debug_str:000000000002b22c .LASF627
C:\Users\CYMR90~1\AppData\Local\Temp\ccBmAAlS.s:26325  .debug_str:0000000000015968 .LASF628
C:\Users\CYMR90~1\AppData\Local\Temp\ccBmAAlS.s:29530  .debug_str:00000000000225e5 .LASF629
C:\Users\CYMR90~1\AppData\Local\Temp\ccBmAAlS.s:23045  .debug_str:00000000000089d1 .LASF630
C:\Users\CYMR90~1\AppData\Local\Temp\ccBmAAlS.s:28024  .debug_str:000000000001c8f0 .LASF631
C:\Users\CYMR90~1\AppData\Local\Temp\ccBmAAlS.s:29492  .debug_str:00000000000223ce .LASF632
C:\Users\CYMR90~1\AppData\Local\Temp\ccBmAAlS.s:23969  .debug_str:000000000000c582 .LASF633
C:\Users\CYMR90~1\AppData\Local\Temp\ccBmAAlS.s:21071  .debug_str:0000000000000c0b .LASF634
C:\Users\CYMR90~1\AppData\Local\Temp\ccBmAAlS.s:27354  .debug_str:0000000000019d99 .LASF635
C:\Users\CYMR90~1\AppData\Local\Temp\ccBmAAlS.s:26529  .debug_str:00000000000166d8 .LASF636
C:\Users\CYMR90~1\AppData\Local\Temp\ccBmAAlS.s:28136  .debug_str:000000000001d13b .LASF637
C:\Users\CYMR90~1\AppData\Local\Temp\ccBmAAlS.s:21785  .debug_str:0000000000003805 .LASF638
C:\Users\CYMR90~1\AppData\Local\Temp\ccBmAAlS.s:25313  .debug_str:00000000000119f1 .LASF639
C:\Users\CYMR90~1\AppData\Local\Temp\ccBmAAlS.s:22901  .debug_str:0000000000007fdf .LASF640
C:\Users\CYMR90~1\AppData\Local\Temp\ccBmAAlS.s:25531  .debug_str:00000000000127aa .LASF641
C:\Users\CYMR90~1\AppData\Local\Temp\ccBmAAlS.s:23761  .debug_str:000000000000b7a1 .LASF642
C:\Users\CYMR90~1\AppData\Local\Temp\ccBmAAlS.s:30844  .debug_str:0000000000027a2c .LASF643
C:\Users\CYMR90~1\AppData\Local\Temp\ccBmAAlS.s:24125  .debug_str:000000000000cf83 .LASF644
C:\Users\CYMR90~1\AppData\Local\Temp\ccBmAAlS.s:21961  .debug_str:000000000000439d .LASF645
C:\Users\CYMR90~1\AppData\Local\Temp\ccBmAAlS.s:22789  .debug_str:00000000000077d8 .LASF646
C:\Users\CYMR90~1\AppData\Local\Temp\ccBmAAlS.s:21713  .debug_str:0000000000003378 .LASF647
C:\Users\CYMR90~1\AppData\Local\Temp\ccBmAAlS.s:22077  .debug_str:0000000000004bb0 .LASF648
C:\Users\CYMR90~1\AppData\Local\Temp\ccBmAAlS.s:31372  .debug_str:0000000000029cf7 .LASF649
C:\Users\CYMR90~1\AppData\Local\Temp\ccBmAAlS.s:25231  .debug_str:000000000001135e .LASF650
C:\Users\CYMR90~1\AppData\Local\Temp\ccBmAAlS.s:31484  .debug_str:000000000002a399 .LASF651
C:\Users\CYMR90~1\AppData\Local\Temp\ccBmAAlS.s:24837  .debug_str:000000000000fb5e .LASF652
C:\Users\CYMR90~1\AppData\Local\Temp\ccBmAAlS.s:20959  .debug_str:00000000000004fe .LASF653
C:\Users\CYMR90~1\AppData\Local\Temp\ccBmAAlS.s:31710  .debug_str:000000000002b154 .LASF654
C:\Users\CYMR90~1\AppData\Local\Temp\ccBmAAlS.s:23141  .debug_str:0000000000008fdb .LASF655
C:\Users\CYMR90~1\AppData\Local\Temp\ccBmAAlS.s:30916  .debug_str:0000000000027f3f .LASF656
C:\Users\CYMR90~1\AppData\Local\Temp\ccBmAAlS.s:21015  .debug_str:000000000000084c .LASF657
C:\Users\CYMR90~1\AppData\Local\Temp\ccBmAAlS.s:31534  .debug_str:000000000002a6b1 .LASF658
C:\Users\CYMR90~1\AppData\Local\Temp\ccBmAAlS.s:25625  .debug_str:0000000000012dfc .LASF659
C:\Users\CYMR90~1\AppData\Local\Temp\ccBmAAlS.s:28070  .debug_str:000000000001cbc5 .LASF660
C:\Users\CYMR90~1\AppData\Local\Temp\ccBmAAlS.s:24521  .debug_str:000000000000e806 .LASF661
C:\Users\CYMR90~1\AppData\Local\Temp\ccBmAAlS.s:28730  .debug_str:000000000001f5be .LASF662
C:\Users\CYMR90~1\AppData\Local\Temp\ccBmAAlS.s:30696  .debug_str:00000000000270d1 .LASF663
C:\Users\CYMR90~1\AppData\Local\Temp\ccBmAAlS.s:25209  .debug_str:000000000001121f .LASF664
C:\Users\CYMR90~1\AppData\Local\Temp\ccBmAAlS.s:25201  .debug_str:00000000000111ae .LASF665
C:\Users\CYMR90~1\AppData\Local\Temp\ccBmAAlS.s:27130  .debug_str:0000000000018e9d .LASF666
C:\Users\CYMR90~1\AppData\Local\Temp\ccBmAAlS.s:22367  .debug_str:0000000000005d5d .LASF667
C:\Users\CYMR90~1\AppData\Local\Temp\ccBmAAlS.s:32210  .debug_str:000000000002d1e1 .LASF668
C:\Users\CYMR90~1\AppData\Local\Temp\ccBmAAlS.s:22753  .debug_str:00000000000075b4 .LASF669
C:\Users\CYMR90~1\AppData\Local\Temp\ccBmAAlS.s:29378  .debug_str:0000000000021d4d .LASF670
C:\Users\CYMR90~1\AppData\Local\Temp\ccBmAAlS.s:25609  .debug_str:0000000000012ced .LASF671
C:\Users\CYMR90~1\AppData\Local\Temp\ccBmAAlS.s:28782  .debug_str:000000000001f89a .LASF672
C:\Users\CYMR90~1\AppData\Local\Temp\ccBmAAlS.s:29506  .debug_str:000000000002249f .LASF673
C:\Users\CYMR90~1\AppData\Local\Temp\ccBmAAlS.s:21343  .debug_str:0000000000001d08 .LASF674
C:\Users\CYMR90~1\AppData\Local\Temp\ccBmAAlS.s:26311  .debug_str:0000000000015896 .LASF676
C:\Users\CYMR90~1\AppData\Local\Temp\ccBmAAlS.s:29938  .debug_str:0000000000023eae .LASF677
C:\Users\CYMR90~1\AppData\Local\Temp\ccBmAAlS.s:27366  .debug_str:0000000000019e49 .LASF678
C:\Users\CYMR90~1\AppData\Local\Temp\ccBmAAlS.s:30034  .debug_str:0000000000024588 .LASF679
C:\Users\CYMR90~1\AppData\Local\Temp\ccBmAAlS.s:28494  .debug_str:000000000001e78e .LASF680
C:\Users\CYMR90~1\AppData\Local\Temp\ccBmAAlS.s:31386  .debug_str:0000000000029df4 .LASF681
C:\Users\CYMR90~1\AppData\Local\Temp\ccBmAAlS.s:21963  .debug_str:00000000000043db .LASF682
C:\Users\CYMR90~1\AppData\Local\Temp\ccBmAAlS.s:21885  .debug_str:0000000000003e76 .LASF683
C:\Users\CYMR90~1\AppData\Local\Temp\ccBmAAlS.s:23279  .debug_str:00000000000097ee .LASF684
C:\Users\CYMR90~1\AppData\Local\Temp\ccBmAAlS.s:27816  .debug_str:000000000001bae7 .LASF685
C:\Users\CYMR90~1\AppData\Local\Temp\ccBmAAlS.s:29236  .debug_str:00000000000214b2 .LASF686
C:\Users\CYMR90~1\AppData\Local\Temp\ccBmAAlS.s:26583  .debug_str:0000000000016a79 .LASF687
C:\Users\CYMR90~1\AppData\Local\Temp\ccBmAAlS.s:25131  .debug_str:0000000000010d9e .LASF688
C:\Users\CYMR90~1\AppData\Local\Temp\ccBmAAlS.s:21767  .debug_str:00000000000036de .LASF689
C:\Users\CYMR90~1\AppData\Local\Temp\ccBmAAlS.s:22649  .debug_str:0000000000006f07 .LASF690
C:\Users\CYMR90~1\AppData\Local\Temp\ccBmAAlS.s:25477  .debug_str:000000000001242b .LASF691
C:\Users\CYMR90~1\AppData\Local\Temp\ccBmAAlS.s:26351  .debug_str:0000000000015af7 .LASF692
C:\Users\CYMR90~1\AppData\Local\Temp\ccBmAAlS.s:22335  .debug_str:0000000000005ba5 .LASF695
C:\Users\CYMR90~1\AppData\Local\Temp\ccBmAAlS.s:26750  .debug_str:00000000000176bc .LASF696
C:\Users\CYMR90~1\AppData\Local\Temp\ccBmAAlS.s:24155  .debug_str:000000000000d171 .LASF697
C:\Users\CYMR90~1\AppData\Local\Temp\ccBmAAlS.s:27780  .debug_str:000000000001b90a .LASF698
C:\Users\CYMR90~1\AppData\Local\Temp\ccBmAAlS.s:29974  .debug_str:0000000000024091 .LASF699
C:\Users\CYMR90~1\AppData\Local\Temp\ccBmAAlS.s:26069  .debug_str:0000000000014984 .LASF702
C:\Users\CYMR90~1\AppData\Local\Temp\ccBmAAlS.s:23303  .debug_str:0000000000009961 .LASF703
C:\Users\CYMR90~1\AppData\Local\Temp\ccBmAAlS.s:28674  .debug_str:000000000001f25d .LASF704
C:\Users\CYMR90~1\AppData\Local\Temp\ccBmAAlS.s:22157  .debug_str:00000000000050ba .LASF705
C:\Users\CYMR90~1\AppData\Local\Temp\ccBmAAlS.s:26415  .debug_str:0000000000015f5e .LASF706
C:\Users\CYMR90~1\AppData\Local\Temp\ccBmAAlS.s:24721  .debug_str:000000000000f3eb .LASF707
C:\Users\CYMR90~1\AppData\Local\Temp\ccBmAAlS.s:31110  .debug_str:0000000000028cd0 .LASF708
C:\Users\CYMR90~1\AppData\Local\Temp\ccBmAAlS.s:30348  .debug_str:0000000000025b77 .LASF709
C:\Users\CYMR90~1\AppData\Local\Temp\ccBmAAlS.s:24361  .debug_str:000000000000de58 .LASF710
C:\Users\CYMR90~1\AppData\Local\Temp\ccBmAAlS.s:24877  .debug_str:000000000000fdcf .LASF711
C:\Users\CYMR90~1\AppData\Local\Temp\ccBmAAlS.s:26559  .debug_str:00000000000168a4 .LASF712
C:\Users\CYMR90~1\AppData\Local\Temp\ccBmAAlS.s:23543  .debug_str:000000000000a83f .LASF713
C:\Users\CYMR90~1\AppData\Local\Temp\ccBmAAlS.s:31928  .debug_str:000000000002bf4f .LASF714
C:\Users\CYMR90~1\AppData\Local\Temp\ccBmAAlS.s:22885  .debug_str:0000000000007ecb .LASF715
C:\Users\CYMR90~1\AppData\Local\Temp\ccBmAAlS.s:23799  .debug_str:000000000000ba0b .LASF716
C:\Users\CYMR90~1\AppData\Local\Temp\ccBmAAlS.s:28896  .debug_str:000000000001fff8 .LASF717
C:\Users\CYMR90~1\AppData\Local\Temp\ccBmAAlS.s:31492  .debug_str:000000000002a415 .LASF718
C:\Users\CYMR90~1\AppData\Local\Temp\ccBmAAlS.s:30078  .debug_str:0000000000024820 .LASF719
C:\Users\CYMR90~1\AppData\Local\Temp\ccBmAAlS.s:27064  .debug_str:00000000000189c7 .LASF720
C:\Users\CYMR90~1\AppData\Local\Temp\ccBmAAlS.s:21399  .debug_str:0000000000002068 .LASF721
C:\Users\CYMR90~1\AppData\Local\Temp\ccBmAAlS.s:29010  .debug_str:000000000002070f .LASF722
C:\Users\CYMR90~1\AppData\Local\Temp\ccBmAAlS.s:27978  .debug_str:000000000001c52f .LASF723
C:\Users\CYMR90~1\AppData\Local\Temp\ccBmAAlS.s:28544  .debug_str:000000000001eac7 .LASF724
C:\Users\CYMR90~1\AppData\Local\Temp\ccBmAAlS.s:29484  .debug_str:000000000002237c .LASF725
C:\Users\CYMR90~1\AppData\Local\Temp\ccBmAAlS.s:25727  .debug_str:00000000000134dc .LASF726
C:\Users\CYMR90~1\AppData\Local\Temp\ccBmAAlS.s:23537  .debug_str:000000000000a7e5 .LASF727
C:\Users\CYMR90~1\AppData\Local\Temp\ccBmAAlS.s:30446  .debug_str:00000000000261a6 .LASF728
C:\Users\CYMR90~1\AppData\Local\Temp\ccBmAAlS.s:28788  .debug_str:000000000001f90f .LASF729
C:\Users\CYMR90~1\AppData\Local\Temp\ccBmAAlS.s:27254  .debug_str:0000000000019698 .LASF730
C:\Users\CYMR90~1\AppData\Local\Temp\ccBmAAlS.s:25699  .debug_str:0000000000013308 .LASF731
C:\Users\CYMR90~1\AppData\Local\Temp\ccBmAAlS.s:30382  .debug_str:0000000000025db9 .LASF732
C:\Users\CYMR90~1\AppData\Local\Temp\ccBmAAlS.s:32134  .debug_str:000000000002ccf8 .LASF733
C:\Users\CYMR90~1\AppData\Local\Temp\ccBmAAlS.s:25187  .debug_str:00000000000110c3 .LASF734
C:\Users\CYMR90~1\AppData\Local\Temp\ccBmAAlS.s:25107  .debug_str:0000000000010c7a .LASF735
C:\Users\CYMR90~1\AppData\Local\Temp\ccBmAAlS.s:32066  .debug_str:000000000002c844 .LASF736
C:\Users\CYMR90~1\AppData\Local\Temp\ccBmAAlS.s:24095  .debug_str:000000000000cdc7 .LASF737
C:\Users\CYMR90~1\AppData\Local\Temp\ccBmAAlS.s:31994  .debug_str:000000000002c39a .LASF738
C:\Users\CYMR90~1\AppData\Local\Temp\ccBmAAlS.s:31812  .debug_str:000000000002b7f6 .LASF739
C:\Users\CYMR90~1\AppData\Local\Temp\ccBmAAlS.s:21311  .debug_str:0000000000001af9 .LASF740
C:\Users\CYMR90~1\AppData\Local\Temp\ccBmAAlS.s:24031  .debug_str:000000000000c9db .LASF741
C:\Users\CYMR90~1\AppData\Local\Temp\ccBmAAlS.s:21285  .debug_str:0000000000001983 .LASF742
C:\Users\CYMR90~1\AppData\Local\Temp\ccBmAAlS.s:25143  .debug_str:0000000000010e30 .LASF743
C:\Users\CYMR90~1\AppData\Local\Temp\ccBmAAlS.s:21751  .debug_str:0000000000003611 .LASF744
C:\Users\CYMR90~1\AppData\Local\Temp\ccBmAAlS.s:23151  .debug_str:000000000000907c .LASF745
C:\Users\CYMR90~1\AppData\Local\Temp\ccBmAAlS.s:29496  .debug_str:000000000002241d .LASF746
C:\Users\CYMR90~1\AppData\Local\Temp\ccBmAAlS.s:21181  .debug_str:00000000000012bd .LASF747
C:\Users\CYMR90~1\AppData\Local\Temp\ccBmAAlS.s:21171  .debug_str:000000000000123b .LASF748
C:\Users\CYMR90~1\AppData\Local\Temp\ccBmAAlS.s:22315  .debug_str:0000000000005a37 .LASF750
C:\Users\CYMR90~1\AppData\Local\Temp\ccBmAAlS.s:25061  .debug_str:00000000000108df .LASF751
C:\Users\CYMR90~1\AppData\Local\Temp\ccBmAAlS.s:31276  .debug_str:0000000000029735 .LASF752
C:\Users\CYMR90~1\AppData\Local\Temp\ccBmAAlS.s:25001  .debug_str:0000000000010589 .LASF753
C:\Users\CYMR90~1\AppData\Local\Temp\ccBmAAlS.s:22199  .debug_str:000000000000533b .LASF754
C:\Users\CYMR90~1\AppData\Local\Temp\ccBmAAlS.s:23783  .debug_str:000000000000b931 .LASF755
C:\Users\CYMR90~1\AppData\Local\Temp\ccBmAAlS.s:27330  .debug_str:0000000000019c3a .LASF756
C:\Users\CYMR90~1\AppData\Local\Temp\ccBmAAlS.s:23289  .debug_str:000000000000989d .LASF757
C:\Users\CYMR90~1\AppData\Local\Temp\ccBmAAlS.s:30334  .debug_str:0000000000025abb .LASF758
C:\Users\CYMR90~1\AppData\Local\Temp\ccBmAAlS.s:32170  .debug_str:000000000002cf74 .LASF759
C:\Users\CYMR90~1\AppData\Local\Temp\ccBmAAlS.s:27694  .debug_str:000000000001b41b .LASF760
C:\Users\CYMR90~1\AppData\Local\Temp\ccBmAAlS.s:31910  .debug_str:000000000002be09 .LASF761
C:\Users\CYMR90~1\AppData\Local\Temp\ccBmAAlS.s:23713  .debug_str:000000000000b42b .LASF762
C:\Users\CYMR90~1\AppData\Local\Temp\ccBmAAlS.s:27702  .debug_str:000000000001b4af .LASF765
C:\Users\CYMR90~1\AppData\Local\Temp\ccBmAAlS.s:26385  .debug_str:0000000000015d31 .LASF766
C:\Users\CYMR90~1\AppData\Local\Temp\ccBmAAlS.s:29388  .debug_str:0000000000021dcb .LASF767
C:\Users\CYMR90~1\AppData\Local\Temp\ccBmAAlS.s:26377  .debug_str:0000000000015ccd .LASF768
C:\Users\CYMR90~1\AppData\Local\Temp\ccBmAAlS.s:21549  .debug_str:000000000000295c .LASF769
C:\Users\CYMR90~1\AppData\Local\Temp\ccBmAAlS.s:27832  .debug_str:000000000001bc2a .LASF770
C:\Users\CYMR90~1\AppData\Local\Temp\ccBmAAlS.s:26471  .debug_str:000000000001630b .LASF771
C:\Users\CYMR90~1\AppData\Local\Temp\ccBmAAlS.s:30044  .debug_str:0000000000024617 .LASF772
C:\Users\CYMR90~1\AppData\Local\Temp\ccBmAAlS.s:29674  .debug_str:0000000000022eeb .LASF773
C:\Users\CYMR90~1\AppData\Local\Temp\ccBmAAlS.s:28154  .debug_str:000000000001d27d .LASF774
C:\Users\CYMR90~1\AppData\Local\Temp\ccBmAAlS.s:30386  .debug_str:0000000000025de0 .LASF775
C:\Users\CYMR90~1\AppData\Local\Temp\ccBmAAlS.s:23437  .debug_str:000000000000a1f9 .LASF776
C:\Users\CYMR90~1\AppData\Local\Temp\ccBmAAlS.s:23453  .debug_str:000000000000a2ff .LASF777
C:\Users\CYMR90~1\AppData\Local\Temp\ccBmAAlS.s:28484  .debug_str:000000000001e6f7 .LASF778
C:\Users\CYMR90~1\AppData\Local\Temp\ccBmAAlS.s:24943  .debug_str:0000000000010211 .LASF779
C:\Users\CYMR90~1\AppData\Local\Temp\ccBmAAlS.s:28738  .debug_str:000000000001f633 .LASF780
C:\Users\CYMR90~1\AppData\Local\Temp\ccBmAAlS.s:29384  .debug_str:0000000000021db2 .LASF781
C:\Users\CYMR90~1\AppData\Local\Temp\ccBmAAlS.s:25429  .debug_str:0000000000012145 .LASF782
C:\Users\CYMR90~1\AppData\Local\Temp\ccBmAAlS.s:26589  .debug_str:0000000000016b76 .LASF783
C:\Users\CYMR90~1\AppData\Local\Temp\ccBmAAlS.s:25329  .debug_str:0000000000011aef .LASF784
C:\Users\CYMR90~1\AppData\Local\Temp\ccBmAAlS.s:24623  .debug_str:000000000000ee1b .LASF785
C:\Users\CYMR90~1\AppData\Local\Temp\ccBmAAlS.s:29744  .debug_str:00000000000232c8 .LASF786
C:\Users\CYMR90~1\AppData\Local\Temp\ccBmAAlS.s:26083  .debug_str:0000000000014aa9 .LASF787
C:\Users\CYMR90~1\AppData\Local\Temp\ccBmAAlS.s:28420  .debug_str:000000000001e316 .LASF788
C:\Users\CYMR90~1\AppData\Local\Temp\ccBmAAlS.s:24799  .debug_str:000000000000f910 .LASF789
C:\Users\CYMR90~1\AppData\Local\Temp\ccBmAAlS.s:22251  .debug_str:0000000000005666 .LASF790
C:\Users\CYMR90~1\AppData\Local\Temp\ccBmAAlS.s:30744  .debug_str:0000000000027461 .LASF791
C:\Users\CYMR90~1\AppData\Local\Temp\ccBmAAlS.s:23009  .debug_str:0000000000008761 .LASF792
C:\Users\CYMR90~1\AppData\Local\Temp\ccBmAAlS.s:32140  .debug_str:000000000002cd46 .LASF793
C:\Users\CYMR90~1\AppData\Local\Temp\ccBmAAlS.s:22799  .debug_str:00000000000078ac .LASF794
C:\Users\CYMR90~1\AppData\Local\Temp\ccBmAAlS.s:30996  .debug_str:000000000002853b .LASF795
C:\Users\CYMR90~1\AppData\Local\Temp\ccBmAAlS.s:28984  .debug_str:000000000002051a .LASF796
C:\Users\CYMR90~1\AppData\Local\Temp\ccBmAAlS.s:31702  .debug_str:000000000002b103 .LASF797
C:\Users\CYMR90~1\AppData\Local\Temp\ccBmAAlS.s:22631  .debug_str:0000000000006dc5 .LASF798
C:\Users\CYMR90~1\AppData\Local\Temp\ccBmAAlS.s:31054  .debug_str:000000000002895e .LASF799
C:\Users\CYMR90~1\AppData\Local\Temp\ccBmAAlS.s:22215  .debug_str:0000000000005432 .LASF800
C:\Users\CYMR90~1\AppData\Local\Temp\ccBmAAlS.s:27464  .debug_str:000000000001a570 .LASF801
C:\Users\CYMR90~1\AppData\Local\Temp\ccBmAAlS.s:27496  .debug_str:000000000001a740 .LASF802
C:\Users\CYMR90~1\AppData\Local\Temp\ccBmAAlS.s:23355  .debug_str:0000000000009cf2 .LASF803
C:\Users\CYMR90~1\AppData\Local\Temp\ccBmAAlS.s:25837  .debug_str:0000000000013b68 .LASF804
C:\Users\CYMR90~1\AppData\Local\Temp\ccBmAAlS.s:22645  .debug_str:0000000000006e8c .LASF805
C:\Users\CYMR90~1\AppData\Local\Temp\ccBmAAlS.s:25283  .debug_str:0000000000011761 .LASF806
C:\Users\CYMR90~1\AppData\Local\Temp\ccBmAAlS.s:28440  .debug_str:000000000001e409 .LASF807
C:\Users\CYMR90~1\AppData\Local\Temp\ccBmAAlS.s:28030  .debug_str:000000000001c956 .LASF808
C:\Users\CYMR90~1\AppData\Local\Temp\ccBmAAlS.s:30456  .debug_str:000000000002623d .LASF809
C:\Users\CYMR90~1\AppData\Local\Temp\ccBmAAlS.s:31914  .debug_str:000000000002be5e .LASF810
C:\Users\CYMR90~1\AppData\Local\Temp\ccBmAAlS.s:23035  .debug_str:0000000000008913 .LASF811
C:\Users\CYMR90~1\AppData\Local\Temp\ccBmAAlS.s:21947  .debug_str:00000000000042e6 .LASF812
C:\Users\CYMR90~1\AppData\Local\Temp\ccBmAAlS.s:31948  .debug_str:000000000002c112 .LASF813
C:\Users\CYMR90~1\AppData\Local\Temp\ccBmAAlS.s:22311  .debug_str:0000000000005a10 .LASF814
C:\Users\CYMR90~1\AppData\Local\Temp\ccBmAAlS.s:22537  .debug_str:0000000000006790 .LASF815
C:\Users\CYMR90~1\AppData\Local\Temp\ccBmAAlS.s:27796  .debug_str:000000000001b9db .LASF816
C:\Users\CYMR90~1\AppData\Local\Temp\ccBmAAlS.s:23215  .debug_str:0000000000009401 .LASF817
C:\Users\CYMR90~1\AppData\Local\Temp\ccBmAAlS.s:27944  .debug_str:000000000001c36d .LASF818
C:\Users\CYMR90~1\AppData\Local\Temp\ccBmAAlS.s:27836  .debug_str:000000000001bc42 .LASF819
C:\Users\CYMR90~1\AppData\Local\Temp\ccBmAAlS.s:21057  .debug_str:0000000000000b11 .LASF820
C:\Users\CYMR90~1\AppData\Local\Temp\ccBmAAlS.s:31536  .debug_str:000000000002a6c1 .LASF821
C:\Users\CYMR90~1\AppData\Local\Temp\ccBmAAlS.s:30040  .debug_str:00000000000245e7 .LASF822
C:\Users\CYMR90~1\AppData\Local\Temp\ccBmAAlS.s:23181  .debug_str:00000000000091f7 .LASF823
C:\Users\CYMR90~1\AppData\Local\Temp\ccBmAAlS.s:26517  .debug_str:0000000000016635 .LASF824
C:\Users\CYMR90~1\AppData\Local\Temp\ccBmAAlS.s:28138  .debug_str:000000000001d165 .LASF825
C:\Users\CYMR90~1\AppData\Local\Temp\ccBmAAlS.s:26309  .debug_str:0000000000015875 .LASF826
C:\Users\CYMR90~1\AppData\Local\Temp\ccBmAAlS.s:21835  .debug_str:0000000000003b5a .LASF827
C:\Users\CYMR90~1\AppData\Local\Temp\ccBmAAlS.s:24603  .debug_str:000000000000ed0e .LASF828
C:\Users\CYMR90~1\AppData\Local\Temp\ccBmAAlS.s:30146  .debug_str:0000000000024cca .LASF829
C:\Users\CYMR90~1\AppData\Local\Temp\ccBmAAlS.s:30324  .debug_str:00000000000259fb .LASF830
C:\Users\CYMR90~1\AppData\Local\Temp\ccBmAAlS.s:23789  .debug_str:000000000000b980 .LASF831
C:\Users\CYMR90~1\AppData\Local\Temp\ccBmAAlS.s:24545  .debug_str:000000000000e990 .LASF832
C:\Users\CYMR90~1\AppData\Local\Temp\ccBmAAlS.s:22395  .debug_str:0000000000005eea .LASF833
C:\Users\CYMR90~1\AppData\Local\Temp\ccBmAAlS.s:25189  .debug_str:00000000000110d4 .LASF834
C:\Users\CYMR90~1\AppData\Local\Temp\ccBmAAlS.s:26984  .debug_str:00000000000184fe .LASF835
C:\Users\CYMR90~1\AppData\Local\Temp\ccBmAAlS.s:25091  .debug_str:0000000000010b29 .LASF836
C:\Users\CYMR90~1\AppData\Local\Temp\ccBmAAlS.s:28890  .debug_str:000000000001ff98 .LASF837
C:\Users\CYMR90~1\AppData\Local\Temp\ccBmAAlS.s:23083  .debug_str:0000000000008c55 .LASF838
C:\Users\CYMR90~1\AppData\Local\Temp\ccBmAAlS.s:22239  .debug_str:00000000000055c7 .LASF839
C:\Users\CYMR90~1\AppData\Local\Temp\ccBmAAlS.s:24991  .debug_str:00000000000104d8 .LASF840
C:\Users\CYMR90~1\AppData\Local\Temp\ccBmAAlS.s:23915  .debug_str:000000000000c221 .LASF841
C:\Users\CYMR90~1\AppData\Local\Temp\ccBmAAlS.s:28048  .debug_str:000000000001ca82 .LASF842
C:\Users\CYMR90~1\AppData\Local\Temp\ccBmAAlS.s:21123  .debug_str:0000000000000f87 .LASF843
C:\Users\CYMR90~1\AppData\Local\Temp\ccBmAAlS.s:21485  .debug_str:0000000000002514 .LASF844
C:\Users\CYMR90~1\AppData\Local\Temp\ccBmAAlS.s:29898  .debug_str:0000000000023c64 .LASF845
C:\Users\CYMR90~1\AppData\Local\Temp\ccBmAAlS.s:20885  .debug_str:0000000000000096 .LASF846
C:\Users\CYMR90~1\AppData\Local\Temp\ccBmAAlS.s:22875  .debug_str:0000000000007e3e .LASF847
C:\Users\CYMR90~1\AppData\Local\Temp\ccBmAAlS.s:28746  .debug_str:000000000001f68b .LASF848
C:\Users\CYMR90~1\AppData\Local\Temp\ccBmAAlS.s:22843  .debug_str:0000000000007b9c .LASF849
C:\Users\CYMR90~1\AppData\Local\Temp\ccBmAAlS.s:24217  .debug_str:000000000000d5eb .LASF852
C:\Users\CYMR90~1\AppData\Local\Temp\ccBmAAlS.s:31104  .debug_str:0000000000028c78 .LASF853
C:\Users\CYMR90~1\AppData\Local\Temp\ccBmAAlS.s:26145  .debug_str:0000000000014ef1 .LASF854
C:\Users\CYMR90~1\AppData\Local\Temp\ccBmAAlS.s:29394  .debug_str:0000000000021e60 .LASF856
C:\Users\CYMR90~1\AppData\Local\Temp\ccBmAAlS.s:28276  .debug_str:000000000001da10 .LASF857
C:\Users\CYMR90~1\AppData\Local\Temp\ccBmAAlS.s:30928  .debug_str:0000000000027ff3 .LASF858
C:\Users\CYMR90~1\AppData\Local\Temp\ccBmAAlS.s:24203  .debug_str:000000000000d51a .LASF859
C:\Users\CYMR90~1\AppData\Local\Temp\ccBmAAlS.s:25141  .debug_str:0000000000010e26 .LASF860
C:\Users\CYMR90~1\AppData\Local\Temp\ccBmAAlS.s:29322  .debug_str:00000000000219da .LASF861
C:\Users\CYMR90~1\AppData\Local\Temp\ccBmAAlS.s:28476  .debug_str:000000000001e6a7 .LASF862
C:\Users\CYMR90~1\AppData\Local\Temp\ccBmAAlS.s:21223  .debug_str:0000000000001522 .LASF863
C:\Users\CYMR90~1\AppData\Local\Temp\ccBmAAlS.s:21891  .debug_str:0000000000003ecb .LASF864
C:\Users\CYMR90~1\AppData\Local\Temp\ccBmAAlS.s:22285  .debug_str:000000000000587d .LASF865
C:\Users\CYMR90~1\AppData\Local\Temp\ccBmAAlS.s:23485  .debug_str:000000000000a516 .LASF866
C:\Users\CYMR90~1\AppData\Local\Temp\ccBmAAlS.s:22945  .debug_str:000000000000836e .LASF867
C:\Users\CYMR90~1\AppData\Local\Temp\ccBmAAlS.s:28206  .debug_str:000000000001d570 .LASF868
C:\Users\CYMR90~1\AppData\Local\Temp\ccBmAAlS.s:28832  .debug_str:000000000001fbe0 .LASF869
C:\Users\CYMR90~1\AppData\Local\Temp\ccBmAAlS.s:29914  .debug_str:0000000000023d4f .LASF870
C:\Users\CYMR90~1\AppData\Local\Temp\ccBmAAlS.s:23119  .debug_str:0000000000008ea7 .LASF871
C:\Users\CYMR90~1\AppData\Local\Temp\ccBmAAlS.s:23561  .debug_str:000000000000aa70 .LASF872
C:\Users\CYMR90~1\AppData\Local\Temp\ccBmAAlS.s:28040  .debug_str:000000000001ca10 .LASF873
C:\Users\CYMR90~1\AppData\Local\Temp\ccBmAAlS.s:30626  .debug_str:0000000000026c76 .LASF874
C:\Users\CYMR90~1\AppData\Local\Temp\ccBmAAlS.s:25349  .debug_str:0000000000011c1a .LASF875
C:\Users\CYMR90~1\AppData\Local\Temp\ccBmAAlS.s:26047  .debug_str:0000000000014877 .LASF876
C:\Users\CYMR90~1\AppData\Local\Temp\ccBmAAlS.s:23361  .debug_str:0000000000009d47 .LASF877
C:\Users\CYMR90~1\AppData\Local\Temp\ccBmAAlS.s:27732  .debug_str:000000000001b682 .LASF878
C:\Users\CYMR90~1\AppData\Local\Temp\ccBmAAlS.s:31394  .debug_str:0000000000029e77 .LASF879
C:\Users\CYMR90~1\AppData\Local\Temp\ccBmAAlS.s:26700  .debug_str:00000000000173c0 .LASF880
C:\Users\CYMR90~1\AppData\Local\Temp\ccBmAAlS.s:22217  .debug_str:000000000000544b .LASF881
C:\Users\CYMR90~1\AppData\Local\Temp\ccBmAAlS.s:25569  .debug_str:0000000000012a5e .LASF882
C:\Users\CYMR90~1\AppData\Local\Temp\ccBmAAlS.s:28716  .debug_str:000000000001f505 .LASF883
C:\Users\CYMR90~1\AppData\Local\Temp\ccBmAAlS.s:28900  .debug_str:0000000000020025 .LASF884
C:\Users\CYMR90~1\AppData\Local\Temp\ccBmAAlS.s:32196  .debug_str:000000000002d0f5 .LASF885
C:\Users\CYMR90~1\AppData\Local\Temp\ccBmAAlS.s:27738  .debug_str:000000000001b6da .LASF886
C:\Users\CYMR90~1\AppData\Local\Temp\ccBmAAlS.s:23227  .debug_str:00000000000094a8 .LASF887
C:\Users\CYMR90~1\AppData\Local\Temp\ccBmAAlS.s:29860  .debug_str:0000000000023a2a .LASF888
C:\Users\CYMR90~1\AppData\Local\Temp\ccBmAAlS.s:25507  .debug_str:0000000000012628 .LASF889
C:\Users\CYMR90~1\AppData\Local\Temp\ccBmAAlS.s:29792  .debug_str:00000000000235a5 .LASF890
C:\Users\CYMR90~1\AppData\Local\Temp\ccBmAAlS.s:22037  .debug_str:0000000000004961 .LASF891
C:\Users\CYMR90~1\AppData\Local\Temp\ccBmAAlS.s:24495  .debug_str:000000000000e66d .LASF892
C:\Users\CYMR90~1\AppData\Local\Temp\ccBmAAlS.s:30572  .debug_str:0000000000026952 .LASF893
C:\Users\CYMR90~1\AppData\Local\Temp\ccBmAAlS.s:29956  .debug_str:0000000000023f9e .LASF894
C:\Users\CYMR90~1\AppData\Local\Temp\ccBmAAlS.s:21193  .debug_str:0000000000001367 .LASF895
C:\Users\CYMR90~1\AppData\Local\Temp\ccBmAAlS.s:25901  .debug_str:0000000000013f28 .LASF896
C:\Users\CYMR90~1\AppData\Local\Temp\ccBmAAlS.s:22125  .debug_str:0000000000004ec4 .LASF897
C:\Users\CYMR90~1\AppData\Local\Temp\ccBmAAlS.s:23351  .debug_str:0000000000009cb3 .LASF898
C:\Users\CYMR90~1\AppData\Local\Temp\ccBmAAlS.s:30872  .debug_str:0000000000027c44 .LASF899
C:\Users\CYMR90~1\AppData\Local\Temp\ccBmAAlS.s:23671  .debug_str:000000000000b1f5 .LASF900
C:\Users\CYMR90~1\AppData\Local\Temp\ccBmAAlS.s:27786  .debug_str:000000000001b940 .LASF901
C:\Users\CYMR90~1\AppData\Local\Temp\ccBmAAlS.s:31408  .debug_str:0000000000029f47 .LASF902
C:\Users\CYMR90~1\AppData\Local\Temp\ccBmAAlS.s:30144  .debug_str:0000000000024ca4 .LASF903
C:\Users\CYMR90~1\AppData\Local\Temp\ccBmAAlS.s:31018  .debug_str:00000000000286a6 .LASF904
C:\Users\CYMR90~1\AppData\Local\Temp\ccBmAAlS.s:25553  .debug_str:0000000000012950 .LASF905
C:\Users\CYMR90~1\AppData\Local\Temp\ccBmAAlS.s:22997  .debug_str:00000000000086c7 .LASF906
C:\Users\CYMR90~1\AppData\Local\Temp\ccBmAAlS.s:31578  .debug_str:000000000002a9a9 .LASF907
C:\Users\CYMR90~1\AppData\Local\Temp\ccBmAAlS.s:24491  .debug_str:000000000000e62a .LASF908
C:\Users\CYMR90~1\AppData\Local\Temp\ccBmAAlS.s:30848  .debug_str:0000000000027a8c .LASF909
C:\Users\CYMR90~1\AppData\Local\Temp\ccBmAAlS.s:25109  .debug_str:0000000000010c8b .LASF910
C:\Users\CYMR90~1\AppData\Local\Temp\ccBmAAlS.s:21583  .debug_str:0000000000002b59 .LASF911
C:\Users\CYMR90~1\AppData\Local\Temp\ccBmAAlS.s:21165  .debug_str:00000000000011fe .LASF912
C:\Users\CYMR90~1\AppData\Local\Temp\ccBmAAlS.s:29238  .debug_str:00000000000214d6 .LASF913
C:\Users\CYMR90~1\AppData\Local\Temp\ccBmAAlS.s:30126  .debug_str:0000000000024b74 .LASF914
C:\Users\CYMR90~1\AppData\Local\Temp\ccBmAAlS.s:24043  .debug_str:000000000000caad .LASF915
C:\Users\CYMR90~1\AppData\Local\Temp\ccBmAAlS.s:24351  .debug_str:000000000000dd99 .LASF916
C:\Users\CYMR90~1\AppData\Local\Temp\ccBmAAlS.s:24925  .debug_str:00000000000100e3 .LASF917
C:\Users\CYMR90~1\AppData\Local\Temp\ccBmAAlS.s:31652  .debug_str:000000000002adb6 .LASF918
C:\Users\CYMR90~1\AppData\Local\Temp\ccBmAAlS.s:21149  .debug_str:00000000000010e4 .LASF919
C:\Users\CYMR90~1\AppData\Local\Temp\ccBmAAlS.s:23657  .debug_str:000000000000b10a .LASF920
C:\Users\CYMR90~1\AppData\Local\Temp\ccBmAAlS.s:30080  .debug_str:0000000000024835 .LASF921
C:\Users\CYMR90~1\AppData\Local\Temp\ccBmAAlS.s:27490  .debug_str:000000000001a6ce .LASF922
C:\Users\CYMR90~1\AppData\Local\Temp\ccBmAAlS.s:30606  .debug_str:0000000000026b47 .LASF923
C:\Users\CYMR90~1\AppData\Local\Temp\ccBmAAlS.s:26628  .debug_str:0000000000016f79 .LASF924
C:\Users\CYMR90~1\AppData\Local\Temp\ccBmAAlS.s:21541  .debug_str:00000000000028c9 .LASF925
C:\Users\CYMR90~1\AppData\Local\Temp\ccBmAAlS.s:27696  .debug_str:000000000001b455 .LASF926
C:\Users\CYMR90~1\AppData\Local\Temp\ccBmAAlS.s:21263  .debug_str:000000000000180c .LASF927
C:\Users\CYMR90~1\AppData\Local\Temp\ccBmAAlS.s:26075  .debug_str:0000000000014a23 .LASF928
C:\Users\CYMR90~1\AppData\Local\Temp\ccBmAAlS.s:28778  .debug_str:000000000001f861 .LASF929
C:\Users\CYMR90~1\AppData\Local\Temp\ccBmAAlS.s:31912  .debug_str:000000000002be41 .LASF930
C:\Users\CYMR90~1\AppData\Local\Temp\ccBmAAlS.s:32132  .debug_str:000000000002ccda .LASF931
C:\Users\CYMR90~1\AppData\Local\Temp\ccBmAAlS.s:28676  .debug_str:000000000001f271 .LASF932
C:\Users\CYMR90~1\AppData\Local\Temp\ccBmAAlS.s:31388  .debug_str:0000000000029e04 .LASF933
C:\Users\CYMR90~1\AppData\Local\Temp\ccBmAAlS.s:26435  .debug_str:00000000000160e6 .LASF934
C:\Users\CYMR90~1\AppData\Local\Temp\ccBmAAlS.s:27262  .debug_str:0000000000019712 .LASF935
C:\Users\CYMR90~1\AppData\Local\Temp\ccBmAAlS.s:26313  .debug_str:00000000000158aa .LASF936
C:\Users\CYMR90~1\AppData\Local\Temp\ccBmAAlS.s:30218  .debug_str:00000000000251d5 .LASF937
C:\Users\CYMR90~1\AppData\Local\Temp\ccBmAAlS.s:21075  .debug_str:0000000000000c44 .LASF938
C:\Users\CYMR90~1\AppData\Local\Temp\ccBmAAlS.s:29048  .debug_str:000000000002096f .LASF939
C:\Users\CYMR90~1\AppData\Local\Temp\ccBmAAlS.s:30308  .debug_str:000000000002587e .LASF940
C:\Users\CYMR90~1\AppData\Local\Temp\ccBmAAlS.s:23791  .debug_str:000000000000b99e .LASF941
C:\Users\CYMR90~1\AppData\Local\Temp\ccBmAAlS.s:27478  .debug_str:000000000001a615 .LASF942
C:\Users\CYMR90~1\AppData\Local\Temp\ccBmAAlS.s:24533  .debug_str:000000000000e89e .LASF943
C:\Users\CYMR90~1\AppData\Local\Temp\ccBmAAlS.s:30434  .debug_str:00000000000260d4 .LASF944
C:\Users\CYMR90~1\AppData\Local\Temp\ccBmAAlS.s:27888  .debug_str:000000000001c009 .LASF945
C:\Users\CYMR90~1\AppData\Local\Temp\ccBmAAlS.s:24743  .debug_str:000000000000f539 .LASF946
C:\Users\CYMR90~1\AppData\Local\Temp\ccBmAAlS.s:26774  .debug_str:0000000000017841 .LASF947
C:\Users\CYMR90~1\AppData\Local\Temp\ccBmAAlS.s:28404  .debug_str:000000000001e230 .LASF948
C:\Users\CYMR90~1\AppData\Local\Temp\ccBmAAlS.s:25087  .debug_str:0000000000010aeb .LASF949
C:\Users\CYMR90~1\AppData\Local\Temp\ccBmAAlS.s:24101  .debug_str:000000000000ce1d .LASF950
C:\Users\CYMR90~1\AppData\Local\Temp\ccBmAAlS.s:22709  .debug_str:000000000000730a .LASF952
C:\Users\CYMR90~1\AppData\Local\Temp\ccBmAAlS.s:26231  .debug_str:0000000000015414 .LASF953
C:\Users\CYMR90~1\AppData\Local\Temp\ccBmAAlS.s:24135  .debug_str:000000000000d02e .LASF954
C:\Users\CYMR90~1\AppData\Local\Temp\ccBmAAlS.s:32124  .debug_str:000000000002cc65 .LASF955
C:\Users\CYMR90~1\AppData\Local\Temp\ccBmAAlS.s:31290  .debug_str:00000000000297de .LASF956
C:\Users\CYMR90~1\AppData\Local\Temp\ccBmAAlS.s:31378  .debug_str:0000000000029d6e .LASF960
C:\Users\CYMR90~1\AppData\Local\Temp\ccBmAAlS.s:23253  .debug_str:0000000000009694 .LASF961
C:\Users\CYMR90~1\AppData\Local\Temp\ccBmAAlS.s:30636  .debug_str:0000000000026d0c .LASF962
C:\Users\CYMR90~1\AppData\Local\Temp\ccBmAAlS.s:25321  .debug_str:0000000000011a73 .LASF963
C:\Users\CYMR90~1\AppData\Local\Temp\ccBmAAlS.s:22733  .debug_str:00000000000074a1 .LASF964
C:\Users\CYMR90~1\AppData\Local\Temp\ccBmAAlS.s:29426  .debug_str:0000000000022029 .LASF965
C:\Users\CYMR90~1\AppData\Local\Temp\ccBmAAlS.s:27690  .debug_str:000000000001b3e9 .LASF966
C:\Users\CYMR90~1\AppData\Local\Temp\ccBmAAlS.s:30578  .debug_str:00000000000269ae .LASF967
C:\Users\CYMR90~1\AppData\Local\Temp\ccBmAAlS.s:31696  .debug_str:000000000002b095 .LASF968
C:\Users\CYMR90~1\AppData\Local\Temp\ccBmAAlS.s:22453  .debug_str:0000000000006288 .LASF969
C:\Users\CYMR90~1\AppData\Local\Temp\ccBmAAlS.s:25945  .debug_str:0000000000014232 .LASF970
C:\Users\CYMR90~1\AppData\Local\Temp\ccBmAAlS.s:31784  .debug_str:000000000002b623 .LASF971
C:\Users\CYMR90~1\AppData\Local\Temp\ccBmAAlS.s:24543  .debug_str:000000000000e96a .LASF972
C:\Users\CYMR90~1\AppData\Local\Temp\ccBmAAlS.s:24511  .debug_str:000000000000e76f .LASF973
C:\Users\CYMR90~1\AppData\Local\Temp\ccBmAAlS.s:24161  .debug_str:000000000000d1bc .LASF974
C:\Users\CYMR90~1\AppData\Local\Temp\ccBmAAlS.s:26565  .debug_str:000000000001691e .LASF975
C:\Users\CYMR90~1\AppData\Local\Temp\ccBmAAlS.s:32158  .debug_str:000000000002ce19 .LASF976
C:\Users\CYMR90~1\AppData\Local\Temp\ccBmAAlS.s:24097  .debug_str:000000000000cdd8 .LASF977
C:\Users\CYMR90~1\AppData\Local\Temp\ccBmAAlS.s:32184  .debug_str:000000000002d064 .LASF978
C:\Users\CYMR90~1\AppData\Local\Temp\ccBmAAlS.s:30416  .debug_str:0000000000025f9b .LASF979
C:\Users\CYMR90~1\AppData\Local\Temp\ccBmAAlS.s:30476  .debug_str:0000000000026356 .LASF980
C:\Users\CYMR90~1\AppData\Local\Temp\ccBmAAlS.s:24599  .debug_str:000000000000ecda .LASF981
C:\Users\CYMR90~1\AppData\Local\Temp\ccBmAAlS.s:22165  .debug_str:000000000000513b .LASF982
C:\Users\CYMR90~1\AppData\Local\Temp\ccBmAAlS.s:25345  .debug_str:0000000000011bfd .LASF983
C:\Users\CYMR90~1\AppData\Local\Temp\ccBmAAlS.s:23123  .debug_str:0000000000008ec7 .LASF984
C:\Users\CYMR90~1\AppData\Local\Temp\ccBmAAlS.s:28130  .debug_str:000000000001d053 .LASF985
C:\Users\CYMR90~1\AppData\Local\Temp\ccBmAAlS.s:29708  .debug_str:00000000000230d7 .LASF986
C:\Users\CYMR90~1\AppData\Local\Temp\ccBmAAlS.s:26381  .debug_str:0000000000015d0d .LASF987
C:\Users\CYMR90~1\AppData\Local\Temp\ccBmAAlS.s:21601  .debug_str:0000000000002c6c .LASF988
C:\Users\CYMR90~1\AppData\Local\Temp\ccBmAAlS.s:29622  .debug_str:0000000000022c1f .LASF989
C:\Users\CYMR90~1\AppData\Local\Temp\ccBmAAlS.s:27078  .debug_str:0000000000018a99 .LASF990
C:\Users\CYMR90~1\AppData\Local\Temp\ccBmAAlS.s:24093  .debug_str:000000000000cdb0 .LASF991
C:\Users\CYMR90~1\AppData\Local\Temp\ccBmAAlS.s:30580  .debug_str:00000000000269d6 .LASF992
C:\Users\CYMR90~1\AppData\Local\Temp\ccBmAAlS.s:22749  .debug_str:000000000000757b .LASF993
C:\Users\CYMR90~1\AppData\Local\Temp\ccBmAAlS.s:30396  .debug_str:0000000000025e4a .LASF994
C:\Users\CYMR90~1\AppData\Local\Temp\ccBmAAlS.s:27162  .debug_str:0000000000019130 .LASF995
C:\Users\CYMR90~1\AppData\Local\Temp\ccBmAAlS.s:31188  .debug_str:000000000002917c .LASF996
C:\Users\CYMR90~1\AppData\Local\Temp\ccBmAAlS.s:28320  .debug_str:000000000001dc8b .LASF997
C:\Users\CYMR90~1\AppData\Local\Temp\ccBmAAlS.s:28382  .debug_str:000000000001e0cf .LASF998
C:\Users\CYMR90~1\AppData\Local\Temp\ccBmAAlS.s:21497  .debug_str:00000000000025a8 .LASF999
C:\Users\CYMR90~1\AppData\Local\Temp\ccBmAAlS.s:21841  .debug_str:0000000000003bb4 .LASF1000
C:\Users\CYMR90~1\AppData\Local\Temp\ccBmAAlS.s:30056  .debug_str:00000000000246d5 .LASF1001
C:\Users\CYMR90~1\AppData\Local\Temp\ccBmAAlS.s:24933  .debug_str:000000000001016b .LASF1002
C:\Users\CYMR90~1\AppData\Local\Temp\ccBmAAlS.s:22117  .debug_str:0000000000004e6b .LASF1003
C:\Users\CYMR90~1\AppData\Local\Temp\ccBmAAlS.s:27930  .debug_str:000000000001c2a2 .LASF1004
C:\Users\CYMR90~1\AppData\Local\Temp\ccBmAAlS.s:25299  .debug_str:000000000001188e .LASF1005
C:\Users\CYMR90~1\AppData\Local\Temp\ccBmAAlS.s:24059  .debug_str:000000000000cbcb .LASF1006
C:\Users\CYMR90~1\AppData\Local\Temp\ccBmAAlS.s:22427  .debug_str:00000000000060f1 .LASF1007
C:\Users\CYMR90~1\AppData\Local\Temp\ccBmAAlS.s:29422  .debug_str:0000000000021ff1 .LASF1008
C:\Users\CYMR90~1\AppData\Local\Temp\ccBmAAlS.s:26852  .debug_str:0000000000017d0d .LASF1009
C:\Users\CYMR90~1\AppData\Local\Temp\ccBmAAlS.s:27008  .debug_str:0000000000018645 .LASF1010
C:\Users\CYMR90~1\AppData\Local\Temp\ccBmAAlS.s:24367  .debug_str:000000000000dea6 .LASF1011
C:\Users\CYMR90~1\AppData\Local\Temp\ccBmAAlS.s:28176  .debug_str:000000000001d3af .LASF1012
C:\Users\CYMR90~1\AppData\Local\Temp\ccBmAAlS.s:24561  .debug_str:000000000000ea9f .LASF1013
C:\Users\CYMR90~1\AppData\Local\Temp\ccBmAAlS.s:27280  .debug_str:000000000001989c .LASF1014
C:\Users\CYMR90~1\AppData\Local\Temp\ccBmAAlS.s:23981  .debug_str:000000000000c62c .LASF1015
C:\Users\CYMR90~1\AppData\Local\Temp\ccBmAAlS.s:22319  .debug_str:0000000000005a62 .LASF1016
C:\Users\CYMR90~1\AppData\Local\Temp\ccBmAAlS.s:22275  .debug_str:00000000000057ef .LASF1017
C:\Users\CYMR90~1\AppData\Local\Temp\ccBmAAlS.s:30734  .debug_str:0000000000027321 .LASF1018
C:\Users\CYMR90~1\AppData\Local\Temp\ccBmAAlS.s:24611  .debug_str:000000000000ed76 .LASF1019
C:\Users\CYMR90~1\AppData\Local\Temp\ccBmAAlS.s:21491  .debug_str:000000000000255f .LASF1020
C:\Users\CYMR90~1\AppData\Local\Temp\ccBmAAlS.s:26888  .debug_str:0000000000017f38 .LASF1021
C:\Users\CYMR90~1\AppData\Local\Temp\ccBmAAlS.s:23913  .debug_str:000000000000c209 .LASF1022
C:\Users\CYMR90~1\AppData\Local\Temp\ccBmAAlS.s:30656  .debug_str:0000000000026e27 .LASF1023
C:\Users\CYMR90~1\AppData\Local\Temp\ccBmAAlS.s:23163  .debug_str:000000000000911f .LASF1024
C:\Users\CYMR90~1\AppData\Local\Temp\ccBmAAlS.s:27466  .debug_str:000000000001a58a .LASF1025
C:\Users\CYMR90~1\AppData\Local\Temp\ccBmAAlS.s:25113  .debug_str:0000000000010ccc .LASF1026
C:\Users\CYMR90~1\AppData\Local\Temp\ccBmAAlS.s:26067  .debug_str:000000000001496f .LASF1027
C:\Users\CYMR90~1\AppData\Local\Temp\ccBmAAlS.s:28254  .debug_str:000000000001d894 .LASF1028
C:\Users\CYMR90~1\AppData\Local\Temp\ccBmAAlS.s:28634  .debug_str:000000000001efcb .LASF1029
C:\Users\CYMR90~1\AppData\Local\Temp\ccBmAAlS.s:29932  .debug_str:0000000000023e5c .LASF1030
C:\Users\CYMR90~1\AppData\Local\Temp\ccBmAAlS.s:29004  .debug_str:00000000000206c9 .LASF1031
C:\Users\CYMR90~1\AppData\Local\Temp\ccBmAAlS.s:31292  .debug_str:0000000000029846 .LASF1032
C:\Users\CYMR90~1\AppData\Local\Temp\ccBmAAlS.s:23311  .debug_str:0000000000009a38 .LASF1033
C:\Users\CYMR90~1\AppData\Local\Temp\ccBmAAlS.s:22173  .debug_str:00000000000051bd .LASF1034
C:\Users\CYMR90~1\AppData\Local\Temp\ccBmAAlS.s:27208  .debug_str:00000000000193da .LASF1035
C:\Users\CYMR90~1\AppData\Local\Temp\ccBmAAlS.s:27468  .debug_str:000000000001a59f .LASF1036
C:\Users\CYMR90~1\AppData\Local\Temp\ccBmAAlS.s:29722  .debug_str:000000000002316e .LASF1037
C:\Users\CYMR90~1\AppData\Local\Temp\ccBmAAlS.s:24781  .debug_str:000000000000f81c .LASF1038
C:\Users\CYMR90~1\AppData\Local\Temp\ccBmAAlS.s:28358  .debug_str:000000000001df69 .LASF1039
C:\Users\CYMR90~1\AppData\Local\Temp\ccBmAAlS.s:26251  .debug_str:0000000000015565 .LASF1040
C:\Users\CYMR90~1\AppData\Local\Temp\ccBmAAlS.s:24691  .debug_str:000000000000f216 .LASF1041
C:\Users\CYMR90~1\AppData\Local\Temp\ccBmAAlS.s:26539  .debug_str:0000000000016770 .LASF1042
C:\Users\CYMR90~1\AppData\Local\Temp\ccBmAAlS.s:24935  .debug_str:0000000000010182 .LASF1043
C:\Users\CYMR90~1\AppData\Local\Temp\ccBmAAlS.s:20905  .debug_str:00000000000001c8 .LASF1044
C:\Users\CYMR90~1\AppData\Local\Temp\ccBmAAlS.s:23175  .debug_str:00000000000091a6 .LASF1045
C:\Users\CYMR90~1\AppData\Local\Temp\ccBmAAlS.s:27398  .debug_str:000000000001a01d .LASF1046
C:\Users\CYMR90~1\AppData\Local\Temp\ccBmAAlS.s:30832  .debug_str:000000000002798c .LASF1047
C:\Users\CYMR90~1\AppData\Local\Temp\ccBmAAlS.s:29764  .debug_str:00000000000233e2 .LASF1048
C:\Users\CYMR90~1\AppData\Local\Temp\ccBmAAlS.s:28598  .debug_str:000000000001eda2 .LASF1049
C:\Users\CYMR90~1\AppData\Local\Temp\ccBmAAlS.s:21679  .debug_str:000000000000315a .LASF1050
C:\Users\CYMR90~1\AppData\Local\Temp\ccBmAAlS.s:28608  .debug_str:000000000001ee2d .LASF1051
C:\Users\CYMR90~1\AppData\Local\Temp\ccBmAAlS.s:28814  .debug_str:000000000001faac .LASF1052
C:\Users\CYMR90~1\AppData\Local\Temp\ccBmAAlS.s:23669  .debug_str:000000000000b1e3 .LASF1053
C:\Users\CYMR90~1\AppData\Local\Temp\ccBmAAlS.s:29664  .debug_str:0000000000022e62 .LASF1054
C:\Users\CYMR90~1\AppData\Local\Temp\ccBmAAlS.s:25595  .debug_str:0000000000012bf8 .LASF1055
C:\Users\CYMR90~1\AppData\Local\Temp\ccBmAAlS.s:24539  .debug_str:000000000000e918 .LASF1056
C:\Users\CYMR90~1\AppData\Local\Temp\ccBmAAlS.s:30906  .debug_str:0000000000027ea6 .LASF1057
C:\Users\CYMR90~1\AppData\Local\Temp\ccBmAAlS.s:31498  .debug_str:000000000002a446 .LASF1058
C:\Users\CYMR90~1\AppData\Local\Temp\ccBmAAlS.s:30214  .debug_str:0000000000025192 .LASF1059
C:\Users\CYMR90~1\AppData\Local\Temp\ccBmAAlS.s:23501  .debug_str:000000000000a611 .LASF1060
C:\Users\CYMR90~1\AppData\Local\Temp\ccBmAAlS.s:22977  .debug_str:000000000000859a .LASF1061
C:\Users\CYMR90~1\AppData\Local\Temp\ccBmAAlS.s:21039  .debug_str:00000000000009a9 .LASF1062
C:\Users\CYMR90~1\AppData\Local\Temp\ccBmAAlS.s:25983  .debug_str:000000000001443a .LASF1063
C:\Users\CYMR90~1\AppData\Local\Temp\ccBmAAlS.s:21887  .debug_str:0000000000003e8d .LASF1064
C:\Users\CYMR90~1\AppData\Local\Temp\ccBmAAlS.s:20977  .debug_str:00000000000005f8 .LASF1065
C:\Users\CYMR90~1\AppData\Local\Temp\ccBmAAlS.s:32190  .debug_str:000000000002d0ad .LASF1066
C:\Users\CYMR90~1\AppData\Local\Temp\ccBmAAlS.s:30058  .debug_str:00000000000246ed .LASF1067
C:\Users\CYMR90~1\AppData\Local\Temp\ccBmAAlS.s:26563  .debug_str:0000000000016904 .LASF1068
C:\Users\CYMR90~1\AppData\Local\Temp\ccBmAAlS.s:28146  .debug_str:000000000001d1d8 .LASF1069
C:\Users\CYMR90~1\AppData\Local\Temp\ccBmAAlS.s:21091  .debug_str:0000000000000d1d .LASF1070
C:\Users\CYMR90~1\AppData\Local\Temp\ccBmAAlS.s:23443  .debug_str:000000000000a24d .LASF1071
C:\Users\CYMR90~1\AppData\Local\Temp\ccBmAAlS.s:29572  .debug_str:00000000000228b7 .LASF1072
C:\Users\CYMR90~1\AppData\Local\Temp\ccBmAAlS.s:28112  .debug_str:000000000001cf10 .LASF1073
C:\Users\CYMR90~1\AppData\Local\Temp\ccBmAAlS.s:31152  .debug_str:0000000000028f1a .LASF1074
C:\Users\CYMR90~1\AppData\Local\Temp\ccBmAAlS.s:26708  .debug_str:0000000000017421 .LASF1075
C:\Users\CYMR90~1\AppData\Local\Temp\ccBmAAlS.s:21535  .debug_str:0000000000002879 .LASF1076
C:\Users\CYMR90~1\AppData\Local\Temp\ccBmAAlS.s:31584  .debug_str:000000000002a9f8 .LASF1077
C:\Users\CYMR90~1\AppData\Local\Temp\ccBmAAlS.s:22489  .debug_str:00000000000064c1 .LASF1078
C:\Users\CYMR90~1\AppData\Local\Temp\ccBmAAlS.s:29046  .debug_str:000000000002095d .LASF1079
C:\Users\CYMR90~1\AppData\Local\Temp\ccBmAAlS.s:24379  .debug_str:000000000000df5a .LASF1080
C:\Users\CYMR90~1\AppData\Local\Temp\ccBmAAlS.s:27910  .debug_str:000000000001c173 .LASF1081
C:\Users\CYMR90~1\AppData\Local\Temp\ccBmAAlS.s:30766  .debug_str:00000000000275d2 .LASF1082
C:\Users\CYMR90~1\AppData\Local\Temp\ccBmAAlS.s:26177  .debug_str:00000000000150f6 .LASF1083
C:\Users\CYMR90~1\AppData\Local\Temp\ccBmAAlS.s:29262  .debug_str:000000000002164a .LASF1084
C:\Users\CYMR90~1\AppData\Local\Temp\ccBmAAlS.s:22195  .debug_str:0000000000005303 .LASF1085
C:\Users\CYMR90~1\AppData\Local\Temp\ccBmAAlS.s:21299  .debug_str:0000000000001a4c .LASF1086
C:\Users\CYMR90~1\AppData\Local\Temp\ccBmAAlS.s:24413  .debug_str:000000000000e13f .LASF1087
C:\Users\CYMR90~1\AppData\Local\Temp\ccBmAAlS.s:30474  .debug_str:0000000000026347 .LASF1088
C:\Users\CYMR90~1\AppData\Local\Temp\ccBmAAlS.s:29566  .debug_str:000000000002285f .LASF1089
C:\Users\CYMR90~1\AppData\Local\Temp\ccBmAAlS.s:21143  .debug_str:0000000000001088 .LASF1090
C:\Users\CYMR90~1\AppData\Local\Temp\ccBmAAlS.s:32120  .debug_str:000000000002cc0d .LASF1091
C:\Users\CYMR90~1\AppData\Local\Temp\ccBmAAlS.s:30870  .debug_str:0000000000027c2c .LASF1092
C:\Users\CYMR90~1\AppData\Local\Temp\ccBmAAlS.s:24763  .debug_str:000000000000f658 .LASF1093
C:\Users\CYMR90~1\AppData\Local\Temp\ccBmAAlS.s:30522  .debug_str:000000000002661b .LASF1094
C:\Users\CYMR90~1\AppData\Local\Temp\ccBmAAlS.s:26267  .debug_str:0000000000015610 .LASF1095
C:\Users\CYMR90~1\AppData\Local\Temp\ccBmAAlS.s:27712  .debug_str:000000000001b53b .LASF1096
C:\Users\CYMR90~1\AppData\Local\Temp\ccBmAAlS.s:28258  .debug_str:000000000001d8e6 .LASF1097
C:\Users\CYMR90~1\AppData\Local\Temp\ccBmAAlS.s:22477  .debug_str:000000000000641c .LASF1098
C:\Users\CYMR90~1\AppData\Local\Temp\ccBmAAlS.s:25615  .debug_str:0000000000012d31 .LASF1099
C:\Users\CYMR90~1\AppData\Local\Temp\ccBmAAlS.s:24929  .debug_str:000000000001013a .LASF1100
C:\Users\CYMR90~1\AppData\Local\Temp\ccBmAAlS.s:29844  .debug_str:000000000002392e .LASF1101
C:\Users\CYMR90~1\AppData\Local\Temp\ccBmAAlS.s:24107  .debug_str:000000000000ce77 .LASF1102
C:\Users\CYMR90~1\AppData\Local\Temp\ccBmAAlS.s:29512  .debug_str:00000000000224e0 .LASF1103
C:\Users\CYMR90~1\AppData\Local\Temp\ccBmAAlS.s:31100  .debug_str:0000000000028c42 .LASF1104
C:\Users\CYMR90~1\AppData\Local\Temp\ccBmAAlS.s:28934  .debug_str:0000000000020204 .LASF1105
C:\Users\CYMR90~1\AppData\Local\Temp\ccBmAAlS.s:25803  .debug_str:0000000000013957 .LASF1106
C:\Users\CYMR90~1\AppData\Local\Temp\ccBmAAlS.s:29760  .debug_str:00000000000233ac .LASF1107
C:\Users\CYMR90~1\AppData\Local\Temp\ccBmAAlS.s:27634  .debug_str:000000000001b06f .LASF1108
C:\Users\CYMR90~1\AppData\Local\Temp\ccBmAAlS.s:22493  .debug_str:00000000000064fd .LASF1109
C:\Users\CYMR90~1\AppData\Local\Temp\ccBmAAlS.s:23473  .debug_str:000000000000a428 .LASF1110
C:\Users\CYMR90~1\AppData\Local\Temp\ccBmAAlS.s:21361  .debug_str:0000000000001e2d .LASF1111
C:\Users\CYMR90~1\AppData\Local\Temp\ccBmAAlS.s:22587  .debug_str:0000000000006adc .LASF1112
C:\Users\CYMR90~1\AppData\Local\Temp\ccBmAAlS.s:23693  .debug_str:000000000000b329 .LASF1113
C:\Users\CYMR90~1\AppData\Local\Temp\ccBmAAlS.s:22243  .debug_str:00000000000055ef .LASF1114
C:\Users\CYMR90~1\AppData\Local\Temp\ccBmAAlS.s:23257  .debug_str:00000000000096bb .LASF1115
C:\Users\CYMR90~1\AppData\Local\Temp\ccBmAAlS.s:30950  .debug_str:00000000000281a2 .LASF1116
C:\Users\CYMR90~1\AppData\Local\Temp\ccBmAAlS.s:31450  .debug_str:000000000002a18e .LASF1117
C:\Users\CYMR90~1\AppData\Local\Temp\ccBmAAlS.s:22397  .debug_str:0000000000005f14 .LASF1118
C:\Users\CYMR90~1\AppData\Local\Temp\ccBmAAlS.s:26868  .debug_str:0000000000017dea .LASF1119
C:\Users\CYMR90~1\AppData\Local\Temp\ccBmAAlS.s:22943  .debug_str:0000000000008351 .LASF1120
C:\Users\CYMR90~1\AppData\Local\Temp\ccBmAAlS.s:23157  .debug_str:00000000000090be .LASF1121
C:\Users\CYMR90~1\AppData\Local\Temp\ccBmAAlS.s:25733  .debug_str:000000000001352e .LASF1122
C:\Users\CYMR90~1\AppData\Local\Temp\ccBmAAlS.s:25371  .debug_str:0000000000011d6e .LASF1123
C:\Users\CYMR90~1\AppData\Local\Temp\ccBmAAlS.s:29022  .debug_str:00000000000207d7 .LASF1124
C:\Users\CYMR90~1\AppData\Local\Temp\ccBmAAlS.s:26183  .debug_str:000000000001513c .LASF1125
C:\Users\CYMR90~1\AppData\Local\Temp\ccBmAAlS.s:26287  .debug_str:0000000000015749 .LASF1126
C:\Users\CYMR90~1\AppData\Local\Temp\ccBmAAlS.s:29654  .debug_str:0000000000022dd5 .LASF1127
C:\Users\CYMR90~1\AppData\Local\Temp\ccBmAAlS.s:30764  .debug_str:00000000000275bd .LASF1128
C:\Users\CYMR90~1\AppData\Local\Temp\ccBmAAlS.s:22287  .debug_str:000000000000588a .LASF1129
C:\Users\CYMR90~1\AppData\Local\Temp\ccBmAAlS.s:26285  .debug_str:0000000000015734 .LASF1130
C:\Users\CYMR90~1\AppData\Local\Temp\ccBmAAlS.s:31288  .debug_str:00000000000297c9 .LASF1131
C:\Users\CYMR90~1\AppData\Local\Temp\ccBmAAlS.s:31688  .debug_str:000000000002b036 .LASF1132
C:\Users\CYMR90~1\AppData\Local\Temp\ccBmAAlS.s:26978  .debug_str:0000000000018479 .LASF1133
C:\Users\CYMR90~1\AppData\Local\Temp\ccBmAAlS.s:29812  .debug_str:00000000000236fa .LASF1134
C:\Users\CYMR90~1\AppData\Local\Temp\ccBmAAlS.s:22831  .debug_str:0000000000007af6 .LASF1135
C:\Users\CYMR90~1\AppData\Local\Temp\ccBmAAlS.s:22061  .debug_str:0000000000004ad4 .LASF1136
C:\Users\CYMR90~1\AppData\Local\Temp\ccBmAAlS.s:21893  .debug_str:0000000000003ed6 .LASF1137
C:\Users\CYMR90~1\AppData\Local\Temp\ccBmAAlS.s:31298  .debug_str:00000000000298a5 .LASF1138
C:\Users\CYMR90~1\AppData\Local\Temp\ccBmAAlS.s:21009  .debug_str:00000000000007de .LASF1139
C:\Users\CYMR90~1\AppData\Local\Temp\ccBmAAlS.s:31284  .debug_str:000000000002979c .LASF1140
C:\Users\CYMR90~1\AppData\Local\Temp\ccBmAAlS.s:20951  .debug_str:000000000000049a .LASF1141
C:\Users\CYMR90~1\AppData\Local\Temp\ccBmAAlS.s:25163  .debug_str:0000000000010f73 .LASF1142
C:\Users\CYMR90~1\AppData\Local\Temp\ccBmAAlS.s:24419  .debug_str:000000000000e1b2 .LASF1143
C:\Users\CYMR90~1\AppData\Local\Temp\ccBmAAlS.s:30820  .debug_str:00000000000278d8 .LASF1144
C:\Users\CYMR90~1\AppData\Local\Temp\ccBmAAlS.s:28982  .debug_str:0000000000020500 .LASF1145
C:\Users\CYMR90~1\AppData\Local\Temp\ccBmAAlS.s:23949  .debug_str:000000000000c449 .LASF1146
C:\Users\CYMR90~1\AppData\Local\Temp\ccBmAAlS.s:32116  .debug_str:000000000002cbbb .LASF1147
C:\Users\CYMR90~1\AppData\Local\Temp\ccBmAAlS.s:26732  .debug_str:0000000000017581 .LASF1148
C:\Users\CYMR90~1\AppData\Local\Temp\ccBmAAlS.s:26986  .debug_str:0000000000018526 .LASF1149
C:\Users\CYMR90~1\AppData\Local\Temp\ccBmAAlS.s:27730  .debug_str:000000000001b647 .LASF1150
C:\Users\CYMR90~1\AppData\Local\Temp\ccBmAAlS.s:21363  .debug_str:0000000000001e4b .LASF1151
C:\Users\CYMR90~1\AppData\Local\Temp\ccBmAAlS.s:28166  .debug_str:000000000001d31a .LASF1152
C:\Users\CYMR90~1\AppData\Local\Temp\ccBmAAlS.s:23283  .debug_str:000000000000980f .LASF1153
C:\Users\CYMR90~1\AppData\Local\Temp\ccBmAAlS.s:29276  .debug_str:00000000000216fc .LASF1154
C:\Users\CYMR90~1\AppData\Local\Temp\ccBmAAlS.s:28514  .debug_str:000000000001e905 .LASF1155
C:\Users\CYMR90~1\AppData\Local\Temp\ccBmAAlS.s:22177  .debug_str:00000000000051e9 .LASF1156
C:\Users\CYMR90~1\AppData\Local\Temp\ccBmAAlS.s:28354  .debug_str:000000000001df20 .LASF1157
C:\Users\CYMR90~1\AppData\Local\Temp\ccBmAAlS.s:23711  .debug_str:000000000000b419 .LASF1158
C:\Users\CYMR90~1\AppData\Local\Temp\ccBmAAlS.s:31466  .debug_str:000000000002a2ad .LASF1159
C:\Users\CYMR90~1\AppData\Local\Temp\ccBmAAlS.s:21247  .debug_str:000000000000168a .LASF1160
C:\Users\CYMR90~1\AppData\Local\Temp\ccBmAAlS.s:31546  .debug_str:000000000002a7a0 .LASF1161
C:\Users\CYMR90~1\AppData\Local\Temp\ccBmAAlS.s:31234  .debug_str:0000000000029427 .LASF1162
C:\Users\CYMR90~1\AppData\Local\Temp\ccBmAAlS.s:28244  .debug_str:000000000001d80f .LASF1163
C:\Users\CYMR90~1\AppData\Local\Temp\ccBmAAlS.s:27368  .debug_str:0000000000019e5a .LASF1164
C:\Users\CYMR90~1\AppData\Local\Temp\ccBmAAlS.s:24247  .debug_str:000000000000d7c8 .LASF1165
C:\Users\CYMR90~1\AppData\Local\Temp\ccBmAAlS.s:28904  .debug_str:0000000000020061 .LASF1166
C:\Users\CYMR90~1\AppData\Local\Temp\ccBmAAlS.s:25121  .debug_str:0000000000010d29 .LASF1167
C:\Users\CYMR90~1\AppData\Local\Temp\ccBmAAlS.s:23281  .debug_str:0000000000009805 .LASF1168
C:\Users\CYMR90~1\AppData\Local\Temp\ccBmAAlS.s:26221  .debug_str:000000000001539c .LASF1169
C:\Users\CYMR90~1\AppData\Local\Temp\ccBmAAlS.s:27576  .debug_str:000000000001ac8d .LASF1170
C:\Users\CYMR90~1\AppData\Local\Temp\ccBmAAlS.s:27282  .debug_str:00000000000198b3 .LASF1171
C:\Users\CYMR90~1\AppData\Local\Temp\ccBmAAlS.s:21001  .debug_str:0000000000000772 .LASF1172
C:\Users\CYMR90~1\AppData\Local\Temp\ccBmAAlS.s:26511  .debug_str:0000000000016552 .LASF1173
C:\Users\CYMR90~1\AppData\Local\Temp\ccBmAAlS.s:21073  .debug_str:0000000000000c36 .LASF1174
C:\Users\CYMR90~1\AppData\Local\Temp\ccBmAAlS.s:21471  .debug_str:0000000000002420 .LASF1175
C:\Users\CYMR90~1\AppData\Local\Temp\ccBmAAlS.s:25703  .debug_str:000000000001335b .LASF1176
C:\Users\CYMR90~1\AppData\Local\Temp\ccBmAAlS.s:24053  .debug_str:000000000000cb86 .LASF1177
C:\Users\CYMR90~1\AppData\Local\Temp\ccBmAAlS.s:28306  .debug_str:000000000001dbe4 .LASF1178
C:\Users\CYMR90~1\AppData\Local\Temp\ccBmAAlS.s:24657  .debug_str:000000000000eff9 .LASF1179
C:\Users\CYMR90~1\AppData\Local\Temp\ccBmAAlS.s:24233  .debug_str:000000000000d719 .LASF1180
C:\Users\CYMR90~1\AppData\Local\Temp\ccBmAAlS.s:30018  .debug_str:0000000000024484 .LASF1181
C:\Users\CYMR90~1\AppData\Local\Temp\ccBmAAlS.s:23093  .debug_str:0000000000008ce4 .LASF1182
C:\Users\CYMR90~1\AppData\Local\Temp\ccBmAAlS.s:21643  .debug_str:0000000000002efe .LASF1183
C:\Users\CYMR90~1\AppData\Local\Temp\ccBmAAlS.s:28622  .debug_str:000000000001ef00 .LASF1184
C:\Users\CYMR90~1\AppData\Local\Temp\ccBmAAlS.s:29076  .debug_str:0000000000020ae8 .LASF1185
C:\Users\CYMR90~1\AppData\Local\Temp\ccBmAAlS.s:30258  .debug_str:00000000000254ef .LASF1186
C:\Users\CYMR90~1\AppData\Local\Temp\ccBmAAlS.s:24159  .debug_str:000000000000d1a8 .LASF1187
C:\Users\CYMR90~1\AppData\Local\Temp\ccBmAAlS.s:28386  .debug_str:000000000001e108 .LASF1188
C:\Users\CYMR90~1\AppData\Local\Temp\ccBmAAlS.s:29620  .debug_str:0000000000022c0b .LASF1189
C:\Users\CYMR90~1\AppData\Local\Temp\ccBmAAlS.s:22835  .debug_str:0000000000007b27 .LASF1190
C:\Users\CYMR90~1\AppData\Local\Temp\ccBmAAlS.s:29602  .debug_str:0000000000022a8e .LASF1191
C:\Users\CYMR90~1\AppData\Local\Temp\ccBmAAlS.s:24029  .debug_str:000000000000c9c9 .LASF1192
C:\Users\CYMR90~1\AppData\Local\Temp\ccBmAAlS.s:29264  .debug_str:000000000002165c .LASF1193
C:\Users\CYMR90~1\AppData\Local\Temp\ccBmAAlS.s:24275  .debug_str:000000000000d932 .LASF1194
C:\Users\CYMR90~1\AppData\Local\Temp\ccBmAAlS.s:27834  .debug_str:000000000001bc37 .LASF1195
C:\Users\CYMR90~1\AppData\Local\Temp\ccBmAAlS.s:25855  .debug_str:0000000000013c84 .LASF1196
C:\Users\CYMR90~1\AppData\Local\Temp\ccBmAAlS.s:29300  .debug_str:00000000000218a4 .LASF1197
C:\Users\CYMR90~1\AppData\Local\Temp\ccBmAAlS.s:31490  .debug_str:000000000002a406 .LASF1198
C:\Users\CYMR90~1\AppData\Local\Temp\ccBmAAlS.s:26533  .debug_str:0000000000016722 .LASF1199
C:\Users\CYMR90~1\AppData\Local\Temp\ccBmAAlS.s:31496  .debug_str:000000000002a43b .LASF1200
C:\Users\CYMR90~1\AppData\Local\Temp\ccBmAAlS.s:23535  .debug_str:000000000000a7d9 .LASF1201
C:\Users\CYMR90~1\AppData\Local\Temp\ccBmAAlS.s:23191  .debug_str:00000000000092b6 .LASF1202
C:\Users\CYMR90~1\AppData\Local\Temp\ccBmAAlS.s:26720  .debug_str:00000000000174e0 .LASF1203
C:\Users\CYMR90~1\AppData\Local\Temp\ccBmAAlS.s:30592  .debug_str:0000000000026a7f .LASF1204
C:\Users\CYMR90~1\AppData\Local\Temp\ccBmAAlS.s:25761  .debug_str:0000000000013701 .LASF1205
C:\Users\CYMR90~1\AppData\Local\Temp\ccBmAAlS.s:24823  .debug_str:000000000000fa85 .LASF1206
C:\Users\CYMR90~1\AppData\Local\Temp\ccBmAAlS.s:31464  .debug_str:000000000002a2a1 .LASF1207
C:\Users\CYMR90~1\AppData\Local\Temp\ccBmAAlS.s:30108  .debug_str:0000000000024a69 .LASF1208
C:\Users\CYMR90~1\AppData\Local\Temp\ccBmAAlS.s:24755  .debug_str:000000000000f5fb .LASF1209
C:\Users\CYMR90~1\AppData\Local\Temp\ccBmAAlS.s:22189  .debug_str:000000000000529b .LASF1210
C:\Users\CYMR90~1\AppData\Local\Temp\ccBmAAlS.s:22289  .debug_str:00000000000058a0 .LASF1211
C:\Users\CYMR90~1\AppData\Local\Temp\ccBmAAlS.s:22981  .debug_str:00000000000085de .LASF1212
C:\Users\CYMR90~1\AppData\Local\Temp\ccBmAAlS.s:22581  .debug_str:0000000000006a5c .LASF1213
C:\Users\CYMR90~1\AppData\Local\Temp\ccBmAAlS.s:21481  .debug_str:00000000000024dc .LASF1214
C:\Users\CYMR90~1\AppData\Local\Temp\ccBmAAlS.s:23327  .debug_str:0000000000009b45 .LASF1215
C:\Users\CYMR90~1\AppData\Local\Temp\ccBmAAlS.s:21421  .debug_str:0000000000002172 .LASF1216
C:\Users\CYMR90~1\AppData\Local\Temp\ccBmAAlS.s:29718  .debug_str:0000000000023141 .LASF1217
C:\Users\CYMR90~1\AppData\Local\Temp\ccBmAAlS.s:29732  .debug_str:00000000000231f2 .LASF1218
C:\Users\CYMR90~1\AppData\Local\Temp\ccBmAAlS.s:30162  .debug_str:0000000000024dfa .LASF1219
C:\Users\CYMR90~1\AppData\Local\Temp\ccBmAAlS.s:27716  .debug_str:000000000001b56f .LASF1220
C:\Users\CYMR90~1\AppData\Local\Temp\ccBmAAlS.s:24313  .debug_str:000000000000db40 .LASF1221
C:\Users\CYMR90~1\AppData\Local\Temp\ccBmAAlS.s:26031  .debug_str:000000000001476b .LASF1222
C:\Users\CYMR90~1\AppData\Local\Temp\ccBmAAlS.s:21663  .debug_str:0000000000003032 .LASF1223
C:\Users\CYMR90~1\AppData\Local\Temp\ccBmAAlS.s:27460  .debug_str:000000000001a554 .LASF1224
C:\Users\CYMR90~1\AppData\Local\Temp\ccBmAAlS.s:30784  .debug_str:00000000000276ed .LASF1225
C:\Users\CYMR90~1\AppData\Local\Temp\ccBmAAlS.s:23795  .debug_str:000000000000b9d8 .LASF1226
C:\Users\CYMR90~1\AppData\Local\Temp\ccBmAAlS.s:22723  .debug_str:00000000000073f7 .LASF1227
C:\Users\CYMR90~1\AppData\Local\Temp\ccBmAAlS.s:21761  .debug_str:000000000000368e .LASF1228
C:\Users\CYMR90~1\AppData\Local\Temp\ccBmAAlS.s:32174  .debug_str:000000000002cfb9 .LASF1229
C:\Users\CYMR90~1\AppData\Local\Temp\ccBmAAlS.s:31214  .debug_str:0000000000029300 .LASF1230
C:\Users\CYMR90~1\AppData\Local\Temp\ccBmAAlS.s:30224  .debug_str:000000000002522a .LASF1231
C:\Users\CYMR90~1\AppData\Local\Temp\ccBmAAlS.s:29250  .debug_str:0000000000021590 .LASF1232
C:\Users\CYMR90~1\AppData\Local\Temp\ccBmAAlS.s:29134  .debug_str:0000000000020e6c .LASF1233
C:\Users\CYMR90~1\AppData\Local\Temp\ccBmAAlS.s:28184  .debug_str:000000000001d412 .LASF1234
C:\Users\CYMR90~1\AppData\Local\Temp\ccBmAAlS.s:27238  .debug_str:00000000000195bc .LASF1235
C:\Users\CYMR90~1\AppData\Local\Temp\ccBmAAlS.s:25929  .debug_str:000000000001413f .LASF1236
C:\Users\CYMR90~1\AppData\Local\Temp\ccBmAAlS.s:25289  .debug_str:000000000001180e .LASF1237
C:\Users\CYMR90~1\AppData\Local\Temp\ccBmAAlS.s:27752  .debug_str:000000000001b7b0 .LASF1238
C:\Users\CYMR90~1\AppData\Local\Temp\ccBmAAlS.s:23403  .debug_str:0000000000009fa1 .LASF1239
C:\Users\CYMR90~1\AppData\Local\Temp\ccBmAAlS.s:22393  .debug_str:0000000000005ed3 .LASF1240
C:\Users\CYMR90~1\AppData\Local\Temp\ccBmAAlS.s:21437  .debug_str:000000000000225e .LASF1241
C:\Users\CYMR90~1\AppData\Local\Temp\ccBmAAlS.s:31884  .debug_str:000000000002bc9d .LASF1242
C:\Users\CYMR90~1\AppData\Local\Temp\ccBmAAlS.s:20965  .debug_str:000000000000054e .LASF1243
C:\Users\CYMR90~1\AppData\Local\Temp\ccBmAAlS.s:31362  .debug_str:0000000000029c83 .LASF1244
C:\Users\CYMR90~1\AppData\Local\Temp\ccBmAAlS.s:30374  .debug_str:0000000000025d29 .LASF1245
C:\Users\CYMR90~1\AppData\Local\Temp\ccBmAAlS.s:29414  .debug_str:0000000000021f74 .LASF1246
C:\Users\CYMR90~1\AppData\Local\Temp\ccBmAAlS.s:28426  .debug_str:000000000001e35e .LASF1247
C:\Users\CYMR90~1\AppData\Local\Temp\ccBmAAlS.s:27522  .debug_str:000000000001a92d .LASF1248
C:\Users\CYMR90~1\AppData\Local\Temp\ccBmAAlS.s:26577  .debug_str:0000000000016a25 .LASF1249
C:\Users\CYMR90~1\AppData\Local\Temp\ccBmAAlS.s:25619  .debug_str:0000000000012d94 .LASF1250
C:\Users\CYMR90~1\AppData\Local\Temp\ccBmAAlS.s:24663  .debug_str:000000000000f045 .LASF1251
C:\Users\CYMR90~1\AppData\Local\Temp\ccBmAAlS.s:26830  .debug_str:0000000000017be6 .LASF1252
C:\Users\CYMR90~1\AppData\Local\Temp\ccBmAAlS.s:24169  .debug_str:000000000000d258 .LASF1253
C:\Users\CYMR90~1\AppData\Local\Temp\ccBmAAlS.s:23205  .debug_str:0000000000009371 .LASF1254
C:\Users\CYMR90~1\AppData\Local\Temp\ccBmAAlS.s:21207  .debug_str:0000000000001459 .LASF1255
C:\Users\CYMR90~1\AppData\Local\Temp\ccBmAAlS.s:24085  .debug_str:000000000000cd5a .LASF1256
C:\Users\CYMR90~1\AppData\Local\Temp\ccBmAAlS.s:22349  .debug_str:0000000000005c7a .LASF1257
C:\Users\CYMR90~1\AppData\Local\Temp\ccBmAAlS.s:27104  .debug_str:0000000000018ce1 .LASF1258
C:\Users\CYMR90~1\AppData\Local\Temp\ccBmAAlS.s:27106  .debug_str:0000000000018cf4 .LASF1259
C:\Users\CYMR90~1\AppData\Local\Temp\ccBmAAlS.s:29606  .debug_str:0000000000022abe .LASF1260
C:\Users\CYMR90~1\AppData\Local\Temp\ccBmAAlS.s:27710  .debug_str:000000000001b528 .LASF1261
C:\Users\CYMR90~1\AppData\Local\Temp\ccBmAAlS.s:25093  .debug_str:0000000000010bef .LASF1262
C:\Users\CYMR90~1\AppData\Local\Temp\ccBmAAlS.s:22247  .debug_str:0000000000005632 .LASF1263
C:\Users\CYMR90~1\AppData\Local\Temp\ccBmAAlS.s:24395  .debug_str:000000000000e031 .LASF1264
C:\Users\CYMR90~1\AppData\Local\Temp\ccBmAAlS.s:26597  .debug_str:0000000000016bef .LASF1265
C:\Users\CYMR90~1\AppData\Local\Temp\ccBmAAlS.s:24447  .debug_str:000000000000e363 .LASF1266
C:\Users\CYMR90~1\AppData\Local\Temp\ccBmAAlS.s:29632  .debug_str:0000000000022cb8 .LASF1267
C:\Users\CYMR90~1\AppData\Local\Temp\ccBmAAlS.s:29806  .debug_str:00000000000236b0 .LASF1268
C:\Users\CYMR90~1\AppData\Local\Temp\ccBmAAlS.s:25225  .debug_str:0000000000011316 .LASF1269
C:\Users\CYMR90~1\AppData\Local\Temp\ccBmAAlS.s:31936  .debug_str:000000000002bfd8 .LASF1270
C:\Users\CYMR90~1\AppData\Local\Temp\ccBmAAlS.s:26832  .debug_str:0000000000017bfd .LASF1271
C:\Users\CYMR90~1\AppData\Local\Temp\ccBmAAlS.s:31326  .debug_str:0000000000029a77 .LASF1272
C:\Users\CYMR90~1\AppData\Local\Temp\ccBmAAlS.s:28308  .debug_str:000000000001dbf1 .LASF1273
C:\Users\CYMR90~1\AppData\Local\Temp\ccBmAAlS.s:21029  .debug_str:000000000000091b .LASF1274
C:\Users\CYMR90~1\AppData\Local\Temp\ccBmAAlS.s:27116  .debug_str:0000000000018da0 .LASF1275
C:\Users\CYMR90~1\AppData\Local\Temp\ccBmAAlS.s:21133  .debug_str:0000000000001004 .LASF1276
C:\Users\CYMR90~1\AppData\Local\Temp\ccBmAAlS.s:23425  .debug_str:000000000000a129 .LASF1277
C:\Users\CYMR90~1\AppData\Local\Temp\ccBmAAlS.s:22411  .debug_str:0000000000005fee .LASF1278
C:\Users\CYMR90~1\AppData\Local\Temp\ccBmAAlS.s:21469  .debug_str:000000000000240e .LASF1279
C:\Users\CYMR90~1\AppData\Local\Temp\ccBmAAlS.s:31904  .debug_str:000000000002bdba .LASF1280
C:\Users\CYMR90~1\AppData\Local\Temp\ccBmAAlS.s:22307  .debug_str:00000000000059d1 .LASF1281
C:\Users\CYMR90~1\AppData\Local\Temp\ccBmAAlS.s:21353  .debug_str:0000000000001da9 .LASF1282
C:\Users\CYMR90~1\AppData\Local\Temp\ccBmAAlS.s:28466  .debug_str:000000000001e601 .LASF1283
C:\Users\CYMR90~1\AppData\Local\Temp\ccBmAAlS.s:30816  .debug_str:000000000002789f .LASF1284
C:\Users\CYMR90~1\AppData\Local\Temp\ccBmAAlS.s:29834  .debug_str:00000000000238a8 .LASF1285
C:\Users\CYMR90~1\AppData\Local\Temp\ccBmAAlS.s:28856  .debug_str:000000000001fd3c .LASF1286
C:\Users\CYMR90~1\AppData\Local\Temp\ccBmAAlS.s:27902  .debug_str:000000000001c0cd .LASF1287
C:\Users\CYMR90~1\AppData\Local\Temp\ccBmAAlS.s:26938  .debug_str:0000000000018221 .LASF1288
C:\Users\CYMR90~1\AppData\Local\Temp\ccBmAAlS.s:25971  .debug_str:00000000000143ac .LASF1289
C:\Users\CYMR90~1\AppData\Local\Temp\ccBmAAlS.s:25023  .debug_str:00000000000106d2 .LASF1290
C:\Users\CYMR90~1\AppData\Local\Temp\ccBmAAlS.s:29360  .debug_str:0000000000021c42 .LASF1291
C:\Users\CYMR90~1\AppData\Local\Temp\ccBmAAlS.s:28374  .debug_str:000000000001e05e .LASF1292
C:\Users\CYMR90~1\AppData\Local\Temp\ccBmAAlS.s:27458  .debug_str:000000000001a540 .LASF1293
C:\Users\CYMR90~1\AppData\Local\Temp\ccBmAAlS.s:26467  .debug_str:00000000000162df .LASF1294
C:\Users\CYMR90~1\AppData\Local\Temp\ccBmAAlS.s:25515  .debug_str:00000000000126ac .LASF1295
C:\Users\CYMR90~1\AppData\Local\Temp\ccBmAAlS.s:24551  .debug_str:000000000000e9f5 .LASF1296
C:\Users\CYMR90~1\AppData\Local\Temp\ccBmAAlS.s:23927  .debug_str:000000000000c2f1 .LASF1297
C:\Users\CYMR90~1\AppData\Local\Temp\ccBmAAlS.s:28824  .debug_str:000000000001fb37 .LASF1298
C:\Users\CYMR90~1\AppData\Local\Temp\ccBmAAlS.s:27872  .debug_str:000000000001bed5 .LASF1299
C:\Users\CYMR90~1\AppData\Local\Temp\ccBmAAlS.s:26906  .debug_str:0000000000018028 .LASF1300
C:\Users\CYMR90~1\AppData\Local\Temp\ccBmAAlS.s:27846  .debug_str:000000000001bd0b .LASF1301
C:\Users\CYMR90~1\AppData\Local\Temp\ccBmAAlS.s:29072  .debug_str:0000000000020ac5 .LASF1302
C:\Users\CYMR90~1\AppData\Local\Temp\ccBmAAlS.s:26509  .debug_str:000000000001653f .LASF1303
C:\Users\CYMR90~1\AppData\Local\Temp\ccBmAAlS.s:27376  .debug_str:0000000000019ed8 .LASF1304
C:\Users\CYMR90~1\AppData\Local\Temp\ccBmAAlS.s:27350  .debug_str:0000000000019d6a .LASF1305
C:\Users\CYMR90~1\AppData\Local\Temp\ccBmAAlS.s:23097  .debug_str:0000000000008d18 .LASF1306
C:\Users\CYMR90~1\AppData\Local\Temp\ccBmAAlS.s:22091  .debug_str:0000000000004cc8 .LASF1307
C:\Users\CYMR90~1\AppData\Local\Temp\ccBmAAlS.s:21145  .debug_str:000000000000109a .LASF1308
C:\Users\CYMR90~1\AppData\Local\Temp\ccBmAAlS.s:31562  .debug_str:000000000002a89f .LASF1309
C:\Users\CYMR90~1\AppData\Local\Temp\ccBmAAlS.s:30588  .debug_str:0000000000026a44 .LASF1310
C:\Users\CYMR90~1\AppData\Local\Temp\ccBmAAlS.s:29608  .debug_str:0000000000022acf .LASF1311
C:\Users\CYMR90~1\AppData\Local\Temp\ccBmAAlS.s:25835  .debug_str:0000000000013b51 .LASF1312
C:\Users\CYMR90~1\AppData\Local\Temp\ccBmAAlS.s:24407  .debug_str:000000000000e0ea .LASF1313
C:\Users\CYMR90~1\AppData\Local\Temp\ccBmAAlS.s:25675  .debug_str:000000000001312a .LASF1314
C:\Users\CYMR90~1\AppData\Local\Temp\ccBmAAlS.s:31782  .debug_str:000000000002b60b .LASF1315
C:\Users\CYMR90~1\AppData\Local\Temp\ccBmAAlS.s:30302  .debug_str:0000000000025812 .LASF1316
C:\Users\CYMR90~1\AppData\Local\Temp\ccBmAAlS.s:29826  .debug_str:000000000002380c .LASF1317
C:\Users\CYMR90~1\AppData\Local\Temp\ccBmAAlS.s:28848  .debug_str:000000000001fccf .LASF1318
C:\Users\CYMR90~1\AppData\Local\Temp\ccBmAAlS.s:27914  .debug_str:000000000001c19e .LASF1319
C:\Users\CYMR90~1\AppData\Local\Temp\ccBmAAlS.s:26948  .debug_str:00000000000182cf .LASF1320
C:\Users\CYMR90~1\AppData\Local\Temp\ccBmAAlS.s:25981  .debug_str:0000000000014422 .LASF1321
C:\Users\CYMR90~1\AppData\Local\Temp\ccBmAAlS.s:25029  .debug_str:000000000001072d .LASF1322
C:\Users\CYMR90~1\AppData\Local\Temp\ccBmAAlS.s:25487  .debug_str:00000000000124db .LASF1323
C:\Users\CYMR90~1\AppData\Local\Temp\ccBmAAlS.s:23931  .debug_str:000000000000c316 .LASF1324
C:\Users\CYMR90~1\AppData\Local\Temp\ccBmAAlS.s:23585  .debug_str:000000000000abd1 .LASF1325
C:\Users\CYMR90~1\AppData\Local\Temp\ccBmAAlS.s:22589  .debug_str:0000000000006af8 .LASF1326
C:\Users\CYMR90~1\AppData\Local\Temp\ccBmAAlS.s:21619  .debug_str:0000000000002d9d .LASF1327
C:\Users\CYMR90~1\AppData\Local\Temp\ccBmAAlS.s:32058  .debug_str:000000000002c7f2 .LASF1328
C:\Users\CYMR90~1\AppData\Local\Temp\ccBmAAlS.s:31128  .debug_str:0000000000028dbb .LASF1329
C:\Users\CYMR90~1\AppData\Local\Temp\ccBmAAlS.s:30142  .debug_str:0000000000024c8c .LASF1330
C:\Users\CYMR90~1\AppData\Local\Temp\ccBmAAlS.s:29172  .debug_str:0000000000021076 .LASF1331
C:\Users\CYMR90~1\AppData\Local\Temp\ccBmAAlS.s:28216  .debug_str:000000000001d61c .LASF1332
C:\Users\CYMR90~1\AppData\Local\Temp\ccBmAAlS.s:28644  .debug_str:000000000001f079 .LASF1333
C:\Users\CYMR90~1\AppData\Local\Temp\ccBmAAlS.s:27724  .debug_str:000000000001b5eb .LASF1334
C:\Users\CYMR90~1\AppData\Local\Temp\ccBmAAlS.s:26429  .debug_str:000000000001607c .LASF1335
C:\Users\CYMR90~1\AppData\Local\Temp\ccBmAAlS.s:24081  .debug_str:000000000000cd2f .LASF1336
C:\Users\CYMR90~1\AppData\Local\Temp\ccBmAAlS.s:28864  .debug_str:000000000001fd9b .LASF1337
C:\Users\CYMR90~1\AppData\Local\Temp\ccBmAAlS.s:25369  .debug_str:0000000000011d59 .LASF1338
C:\Users\CYMR90~1\AppData\Local\Temp\ccBmAAlS.s:21251  .debug_str:00000000000016c2 .LASF1339
C:\Users\CYMR90~1\AppData\Local\Temp\ccBmAAlS.s:23373  .debug_str:0000000000009df1 .LASF1340
C:\Users\CYMR90~1\AppData\Local\Temp\ccBmAAlS.s:22365  .debug_str:0000000000005d48 .LASF1341
C:\Users\CYMR90~1\AppData\Local\Temp\ccBmAAlS.s:21407  .debug_str:00000000000020bb .LASF1342
C:\Users\CYMR90~1\AppData\Local\Temp\ccBmAAlS.s:31860  .debug_str:000000000002bb1a .LASF1343
C:\Users\CYMR90~1\AppData\Local\Temp\ccBmAAlS.s:31650  .debug_str:000000000002ada0 .LASF1344
C:\Users\CYMR90~1\AppData\Local\Temp\ccBmAAlS.s:30672  .debug_str:0000000000026f55 .LASF1345
C:\Users\CYMR90~1\AppData\Local\Temp\ccBmAAlS.s:29696  .debug_str:0000000000023034 .LASF1346
C:\Users\CYMR90~1\AppData\Local\Temp\ccBmAAlS.s:31084  .debug_str:0000000000028b44 .LASF1347
C:\Users\CYMR90~1\AppData\Local\Temp\ccBmAAlS.s:27772  .debug_str:000000000001b8b5 .LASF1348
C:\Users\CYMR90~1\AppData\Local\Temp\ccBmAAlS.s:28298  .debug_str:000000000001db63 .LASF1349
C:\Users\CYMR90~1\AppData\Local\Temp\ccBmAAlS.s:25847  .debug_str:0000000000013c0e .LASF1350
C:\Users\CYMR90~1\AppData\Local\Temp\ccBmAAlS.s:29008  .debug_str:00000000000206f9 .LASF1351
C:\Users\CYMR90~1\AppData\Local\Temp\ccBmAAlS.s:23945  .debug_str:000000000000c41e .LASF1352
C:\Users\CYMR90~1\AppData\Local\Temp\ccBmAAlS.s:22877  .debug_str:0000000000007e50 .LASF1353
C:\Users\CYMR90~1\AppData\Local\Temp\ccBmAAlS.s:23457  .debug_str:000000000000a334 .LASF1354
C:\Users\CYMR90~1\AppData\Local\Temp\ccBmAAlS.s:22443  .debug_str:000000000000620c .LASF1355
C:\Users\CYMR90~1\AppData\Local\Temp\ccBmAAlS.s:21493  .debug_str:000000000000257c .LASF1356
C:\Users\CYMR90~1\AppData\Local\Temp\ccBmAAlS.s:31932  .debug_str:000000000002bfb8 .LASF1357
C:\Users\CYMR90~1\AppData\Local\Temp\ccBmAAlS.s:25941  .debug_str:0000000000014207 .LASF1358
C:\Users\CYMR90~1\AppData\Local\Temp\ccBmAAlS.s:22583  .debug_str:0000000000006aa0 .LASF1359
C:\Users\CYMR90~1\AppData\Local\Temp\ccBmAAlS.s:29054  .debug_str:00000000000209ad .LASF1360
C:\Users\CYMR90~1\AppData\Local\Temp\ccBmAAlS.s:28006  .debug_str:000000000001c71b .LASF1361
C:\Users\CYMR90~1\AppData\Local\Temp\ccBmAAlS.s:27050  .debug_str:00000000000188e3 .LASF1362
C:\Users\CYMR90~1\AppData\Local\Temp\ccBmAAlS.s:31094  .debug_str:0000000000028bde .LASF1363
C:\Users\CYMR90~1\AppData\Local\Temp\ccBmAAlS.s:26353  .debug_str:0000000000015b11 .LASF1364
C:\Users\CYMR90~1\AppData\Local\Temp\ccBmAAlS.s:22999  .debug_str:00000000000086e1 .LASF1365
C:\Users\CYMR90~1\AppData\Local\Temp\ccBmAAlS.s:30702  .debug_str:000000000002712a .LASF1366
C:\Users\CYMR90~1\AppData\Local\Temp\ccBmAAlS.s:29940  .debug_str:0000000000023ebf .LASF1367
C:\Users\CYMR90~1\AppData\Local\Temp\ccBmAAlS.s:28946  .debug_str:00000000000202ba .LASF1368
C:\Users\CYMR90~1\AppData\Local\Temp\ccBmAAlS.s:27212  .debug_str:0000000000019406 .LASF1369
C:\Users\CYMR90~1\AppData\Local\Temp\ccBmAAlS.s:31820  .debug_str:000000000002b858 .LASF1370
C:\Users\CYMR90~1\AppData\Local\Temp\ccBmAAlS.s:28226  .debug_str:000000000001d6a7 .LASF1371
C:\Users\CYMR90~1\AppData\Local\Temp\ccBmAAlS.s:21539  .debug_str:00000000000028b6 .LASF1372
C:\Users\CYMR90~1\AppData\Local\Temp\ccBmAAlS.s:24123  .debug_str:000000000000cf6c .LASF1373
C:\Users\CYMR90~1\AppData\Local\Temp\ccBmAAlS.s:27258  .debug_str:00000000000196d1 .LASF1374
C:\Users\CYMR90~1\AppData\Local\Temp\ccBmAAlS.s:30364  .debug_str:0000000000025c7e .LASF1375
C:\Users\CYMR90~1\AppData\Local\Temp\ccBmAAlS.s:22119  .debug_str:0000000000004e82 .LASF1376
C:\Users\CYMR90~1\AppData\Local\Temp\ccBmAAlS.s:25275  .debug_str:0000000000011676 .LASF1377
C:\Users\CYMR90~1\AppData\Local\Temp\ccBmAAlS.s:28380  .debug_str:000000000001e0b8 .LASF1378
C:\Users\CYMR90~1\AppData\Local\Temp\ccBmAAlS.s:31558  .debug_str:000000000002a862 .LASF1379
C:\Users\CYMR90~1\AppData\Local\Temp\ccBmAAlS.s:31526  .debug_str:000000000002a641 .LASF1380
C:\Users\CYMR90~1\AppData\Local\Temp\ccBmAAlS.s:23217  .debug_str:0000000000009421 .LASF1381
C:\Users\CYMR90~1\AppData\Local\Temp\ccBmAAlS.s:26323  .debug_str:0000000000015950 .LASF1382
C:\Users\CYMR90~1\AppData\Local\Temp\ccBmAAlS.s:29456  .debug_str:00000000000221f4 .LASF1383
C:\Users\CYMR90~1\AppData\Local\Temp\ccBmAAlS.s:21225  .debug_str:000000000000152b .LASF1384
C:\Users\CYMR90~1\AppData\Local\Temp\ccBmAAlS.s:25745  .debug_str:0000000000013612 .LASF1385
C:\Users\CYMR90~1\AppData\Local\Temp\ccBmAAlS.s:27554  .debug_str:000000000001ab3e .LASF1386
C:\Users\CYMR90~1\AppData\Local\Temp\ccBmAAlS.s:30662  .debug_str:0000000000026e94 .LASF1387
C:\Users\CYMR90~1\AppData\Local\Temp\ccBmAAlS.s:22399  .debug_str:0000000000005f36 .LASF1388
C:\Users\CYMR90~1\AppData\Local\Temp\ccBmAAlS.s:25471  .debug_str:00000000000123da .LASF1389
C:\Users\CYMR90~1\AppData\Local\Temp\ccBmAAlS.s:24829  .debug_str:000000000000facb .LASF1390
C:\Users\CYMR90~1\AppData\Local\Temp\ccBmAAlS.s:27856  .debug_str:000000000001bdc1 .LASF1391
C:\Users\CYMR90~1\AppData\Local\Temp\ccBmAAlS.s:31004  .debug_str:00000000000285c2 .LASF1392
C:\Users\CYMR90~1\AppData\Local\Temp\ccBmAAlS.s:22759  .debug_str:000000000000761b .LASF1393
C:\Users\CYMR90~1\AppData\Local\Temp\ccBmAAlS.s:25875  .debug_str:0000000000013da0 .LASF1394
C:\Users\CYMR90~1\AppData\Local\Temp\ccBmAAlS.s:21839  .debug_str:0000000000003b9c .LASF1395
C:\Users\CYMR90~1\AppData\Local\Temp\ccBmAAlS.s:32232  .debug_str:000000000002d340 .LASF1396
C:\Users\CYMR90~1\AppData\Local\Temp\ccBmAAlS.s:24003  .debug_str:000000000000c796 .LASF1397
C:\Users\CYMR90~1\AppData\Local\Temp\ccBmAAlS.s:28592  .debug_str:000000000001ed4d .LASF1398
C:\Users\CYMR90~1\AppData\Local\Temp\ccBmAAlS.s:25179  .debug_str:0000000000011068 .LASF1399
C:\Users\CYMR90~1\AppData\Local\Temp\ccBmAAlS.s:26493  .debug_str:0000000000016457 .LASF1400
C:\Users\CYMR90~1\AppData\Local\Temp\ccBmAAlS.s:21179  .debug_str:00000000000012a5 .LASF1401
C:\Users\CYMR90~1\AppData\Local\Temp\ccBmAAlS.s:28926  .debug_str:00000000000201ad .LASF1402
C:\Users\CYMR90~1\AppData\Local\Temp\ccBmAAlS.s:23831  .debug_str:000000000000bc4b .LASF1403
C:\Users\CYMR90~1\AppData\Local\Temp\ccBmAAlS.s:28694  .debug_str:000000000001f396 .LASF1404
C:\Users\CYMR90~1\AppData\Local\Temp\ccBmAAlS.s:21907  .debug_str:0000000000004016 .LASF1405
C:\Users\CYMR90~1\AppData\Local\Temp\ccBmAAlS.s:31486  .debug_str:000000000002a3b6 .LASF1406
C:\Users\CYMR90~1\AppData\Local\Temp\ccBmAAlS.s:29652  .debug_str:0000000000022dbd .LASF1407
C:\Users\CYMR90~1\AppData\Local\Temp\ccBmAAlS.s:29810  .debug_str:00000000000236e2 .LASF1408
C:\Users\CYMR90~1\AppData\Local\Temp\ccBmAAlS.s:21571  .debug_str:0000000000002ab1 .LASF1409
C:\Users\CYMR90~1\AppData\Local\Temp\ccBmAAlS.s:24737  .debug_str:000000000000f4e7 .LASF1410
C:\Users\CYMR90~1\AppData\Local\Temp\ccBmAAlS.s:31232  .debug_str:000000000002940e .LASF1411
C:\Users\CYMR90~1\AppData\Local\Temp\ccBmAAlS.s:22987  .debug_str:0000000000008633 .LASF1412
C:\Users\CYMR90~1\AppData\Local\Temp\ccBmAAlS.s:26095  .debug_str:0000000000014b59 .LASF1413
C:\Users\CYMR90~1\AppData\Local\Temp\ccBmAAlS.s:29232  .debug_str:000000000002147b .LASF1414
C:\Users\CYMR90~1\AppData\Local\Temp\ccBmAAlS.s:21031  .debug_str:000000000000092e .LASF1415
C:\Users\CYMR90~1\AppData\Local\Temp\ccBmAAlS.s:24091  .debug_str:000000000000cd97 .LASF1416
C:\Users\CYMR90~1\AppData\Local\Temp\ccBmAAlS.s:27236  .debug_str:00000000000195a3 .LASF1417
C:\Users\CYMR90~1\AppData\Local\Temp\ccBmAAlS.s:28756  .debug_str:000000000001f728 .LASF1418
C:\Users\CYMR90~1\AppData\Local\Temp\ccBmAAlS.s:22099  .debug_str:0000000000004d32 .LASF1419
C:\Users\CYMR90~1\AppData\Local\Temp\ccBmAAlS.s:25165  .debug_str:0000000000010f89 .LASF1420
C:\Users\CYMR90~1\AppData\Local\Temp\ccBmAAlS.s:24507  .debug_str:000000000000e72e .LASF1421
C:\Users\CYMR90~1\AppData\Local\Temp\ccBmAAlS.s:27664  .debug_str:000000000001b268 .LASF1422
C:\Users\CYMR90~1\AppData\Local\Temp\ccBmAAlS.s:30782  .debug_str:00000000000276d4 .LASF1423
C:\Users\CYMR90~1\AppData\Local\Temp\ccBmAAlS.s:21647  .debug_str:0000000000002f37 .LASF1424
C:\Users\CYMR90~1\AppData\Local\Temp\ccBmAAlS.s:25679  .debug_str:0000000000013158 .LASF1425
C:\Users\CYMR90~1\AppData\Local\Temp\ccBmAAlS.s:28686  .debug_str:000000000001f2fd .LASF1426
C:\Users\CYMR90~1\AppData\Local\Temp\ccBmAAlS.s:31942  .debug_str:000000000002c0ab .LASF1427
C:\Users\CYMR90~1\AppData\Local\Temp\ccBmAAlS.s:23709  .debug_str:000000000000b400 .LASF1428
C:\Users\CYMR90~1\AppData\Local\Temp\ccBmAAlS.s:26808  .debug_str:0000000000017aab .LASF1429
C:\Users\CYMR90~1\AppData\Local\Temp\ccBmAAlS.s:29950  .debug_str:0000000000023f5f .LASF1430
C:\Users\CYMR90~1\AppData\Local\Temp\ccBmAAlS.s:28696  .debug_str:000000000001f3ae .LASF1431
C:\Users\CYMR90~1\AppData\Local\Temp\ccBmAAlS.s:20989  .debug_str:00000000000006b0 .LASF1432
C:\Users\CYMR90~1\AppData\Local\Temp\ccBmAAlS.s:29902  .debug_str:0000000000023ca0 .LASF1433
C:\Users\CYMR90~1\AppData\Local\Temp\ccBmAAlS.s:28930  .debug_str:00000000000201d7 .LASF1434
C:\Users\CYMR90~1\AppData\Local\Temp\ccBmAAlS.s:27972  .debug_str:000000000001c4eb .LASF1435
C:\Users\CYMR90~1\AppData\Local\Temp\ccBmAAlS.s:27014  .debug_str:00000000000186bb .LASF1436
C:\Users\CYMR90~1\AppData\Local\Temp\ccBmAAlS.s:26451  .debug_str:00000000000161fe .LASF1437
C:\Users\CYMR90~1\AppData\Local\Temp\ccBmAAlS.s:30814  .debug_str:000000000002788b .LASF1438
C:\Users\CYMR90~1\AppData\Local\Temp\ccBmAAlS.s:29832  .debug_str:0000000000023894 .LASF1439
C:\Users\CYMR90~1\AppData\Local\Temp\ccBmAAlS.s:28854  .debug_str:000000000001fd28 .LASF1440
C:\Users\CYMR90~1\AppData\Local\Temp\ccBmAAlS.s:27900  .debug_str:000000000001c0b9 .LASF1441
C:\Users\CYMR90~1\AppData\Local\Temp\ccBmAAlS.s:26936  .debug_str:000000000001820d .LASF1442
C:\Users\CYMR90~1\AppData\Local\Temp\ccBmAAlS.s:25969  .debug_str:0000000000014398 .LASF1443
C:\Users\CYMR90~1\AppData\Local\Temp\ccBmAAlS.s:25021  .debug_str:00000000000106be .LASF1444
C:\Users\CYMR90~1\AppData\Local\Temp\ccBmAAlS.s:31900  .debug_str:000000000002bd82 .LASF1445
C:\Users\CYMR90~1\AppData\Local\Temp\ccBmAAlS.s:23105  .debug_str:0000000000008d86 .LASF1446
C:\Users\CYMR90~1\AppData\Local\Temp\ccBmAAlS.s:24647  .debug_str:000000000000ef6e .LASF1447
C:\Users\CYMR90~1\AppData\Local\Temp\ccBmAAlS.s:30178  .debug_str:0000000000024eee .LASF1448
C:\Users\CYMR90~1\AppData\Local\Temp\ccBmAAlS.s:29208  .debug_str:000000000002127a .LASF1449
C:\Users\CYMR90~1\AppData\Local\Temp\ccBmAAlS.s:28236  .debug_str:000000000001d7a6 .LASF1450
C:\Users\CYMR90~1\AppData\Local\Temp\ccBmAAlS.s:27304  .debug_str:0000000000019a8e .LASF1451
C:\Users\CYMR90~1\AppData\Local\Temp\ccBmAAlS.s:26321  .debug_str:000000000001593b .LASF1452
C:\Users\CYMR90~1\AppData\Local\Temp\ccBmAAlS.s:23707  .debug_str:000000000000b3ed .LASF1453
C:\Users\CYMR90~1\AppData\Local\Temp\ccBmAAlS.s:22313  .debug_str:0000000000005a27 .LASF1454
C:\Users\CYMR90~1\AppData\Local\Temp\ccBmAAlS.s:23517  .debug_str:000000000000a6d5 .LASF1455
C:\Users\CYMR90~1\AppData\Local\Temp\ccBmAAlS.s:28596  .debug_str:000000000001ed8f .LASF1456
C:\Users\CYMR90~1\AppData\Local\Temp\ccBmAAlS.s:30232  .debug_str:00000000000252b9 .LASF1457
C:\Users\CYMR90~1\AppData\Local\Temp\ccBmAAlS.s:22065  .debug_str:0000000000004b16 .LASF1458
C:\Users\CYMR90~1\AppData\Local\Temp\ccBmAAlS.s:28680  .debug_str:000000000001f2af .LASF1459
C:\Users\CYMR90~1\AppData\Local\Temp\ccBmAAlS.s:25491  .debug_str:000000000001251c .LASF1460
C:\Users\CYMR90~1\AppData\Local\Temp\ccBmAAlS.s:23619  .debug_str:000000000000ade6 .LASF1461
C:\Users\CYMR90~1\AppData\Local\Temp\ccBmAAlS.s:24789  .debug_str:000000000000f893 .LASF1462
C:\Users\CYMR90~1\AppData\Local\Temp\ccBmAAlS.s:25281  .debug_str:0000000000011751 .LASF1463
C:\Users\CYMR90~1\AppData\Local\Temp\ccBmAAlS.s:26383  .debug_str:0000000000015d19 .LASF1464
C:\Users\CYMR90~1\AppData\Local\Temp\ccBmAAlS.s:31678  .debug_str:000000000002af8f .LASF1465
C:\Users\CYMR90~1\AppData\Local\Temp\ccBmAAlS.s:27566  .debug_str:000000000001ac03 .LASF1466
C:\Users\CYMR90~1\AppData\Local\Temp\ccBmAAlS.s:25973  .debug_str:00000000000143bf .LASF1467
C:\Users\CYMR90~1\AppData\Local\Temp\ccBmAAlS.s:30692  .debug_str:000000000002709b .LASF1468
C:\Users\CYMR90~1\AppData\Local\Temp\ccBmAAlS.s:24963  .debug_str:0000000000010323 .LASF1469
C:\Users\CYMR90~1\AppData\Local\Temp\ccBmAAlS.s:23061  .debug_str:0000000000008aec .LASF1470
C:\Users\CYMR90~1\AppData\Local\Temp\ccBmAAlS.s:25253  .debug_str:000000000001150c .LASF1471
C:\Users\CYMR90~1\AppData\Local\Temp\ccBmAAlS.s:26834  .debug_str:0000000000017c10 .LASF1472
C:\Users\CYMR90~1\AppData\Local\Temp\ccBmAAlS.s:30132  .debug_str:0000000000024bea .LASF1473
C:\Users\CYMR90~1\AppData\Local\Temp\ccBmAAlS.s:30788  .debug_str:0000000000027725 .LASF1474
C:\Users\CYMR90~1\AppData\Local\Temp\ccBmAAlS.s:21083  .debug_str:0000000000000caf .LASF1475
C:\Users\CYMR90~1\AppData\Local\Temp\ccBmAAlS.s:22989  .debug_str:000000000000864c .LASF1476
C:\Users\CYMR90~1\AppData\Local\Temp\ccBmAAlS.s:21597  .debug_str:0000000000002c3c .LASF1477
C:\Users\CYMR90~1\AppData\Local\Temp\ccBmAAlS.s:30970  .debug_str:0000000000028305 .LASF1478
C:\Users\CYMR90~1\AppData\Local\Temp\ccBmAAlS.s:29982  .debug_str:00000000000241e3 .LASF1479
C:\Users\CYMR90~1\AppData\Local\Temp\ccBmAAlS.s:21725  .debug_str:0000000000003457 .LASF1480
C:\Users\CYMR90~1\AppData\Local\Temp\ccBmAAlS.s:23955  .debug_str:000000000000c4a1 .LASF1481
C:\Users\CYMR90~1\AppData\Local\Temp\ccBmAAlS.s:30100  .debug_str:0000000000024a00 .LASF1482
C:\Users\CYMR90~1\AppData\Local\Temp\ccBmAAlS.s:23305  .debug_str:00000000000099d0 .LASF1483
C:\Users\CYMR90~1\AppData\Local\Temp\ccBmAAlS.s:22105  .debug_str:0000000000004d8b .LASF1484
C:\Users\CYMR90~1\AppData\Local\Temp\ccBmAAlS.s:24517  .debug_str:000000000000e7d0 .LASF1485
C:\Users\CYMR90~1\AppData\Local\Temp\ccBmAAlS.s:25939  .debug_str:00000000000141f4 .LASF1486
C:\Users\CYMR90~1\AppData\Local\Temp\ccBmAAlS.s:27550  .debug_str:000000000001ab0f .LASF1487
C:\Users\CYMR90~1\AppData\Local\Temp\ccBmAAlS.s:20913  .debug_str:000000000000024b .LASF1488
C:\Users\CYMR90~1\AppData\Local\Temp\ccBmAAlS.s:26341  .debug_str:0000000000015a5d .LASF1489
C:\Users\CYMR90~1\AppData\Local\Temp\ccBmAAlS.s:24319  .debug_str:000000000000db7e .LASF1490
C:\Users\CYMR90~1\AppData\Local\Temp\ccBmAAlS.s:31192  .debug_str:00000000000291ba .LASF1491
C:\Users\CYMR90~1\AppData\Local\Temp\ccBmAAlS.s:21565  .debug_str:0000000000002a4a .LASF1492
C:\Users\CYMR90~1\AppData\Local\Temp\ccBmAAlS.s:29162  .debug_str:0000000000020ff7 .LASF1493
C:\Users\CYMR90~1\AppData\Local\Temp\ccBmAAlS.s:31416  .debug_str:0000000000029fbe .LASF1494
C:\Users\CYMR90~1\AppData\Local\Temp\ccBmAAlS.s:22745  .debug_str:0000000000007550 .LASF1495
C:\Users\CYMR90~1\AppData\Local\Temp\ccBmAAlS.s:30462  .debug_str:0000000000026298 .LASF1496
C:\Users\CYMR90~1\AppData\Local\Temp\ccBmAAlS.s:31164  .debug_str:0000000000028ff5 .LASF1497
C:\Users\CYMR90~1\AppData\Local\Temp\ccBmAAlS.s:22539  .debug_str:00000000000067ab .LASF1498
C:\Users\CYMR90~1\AppData\Local\Temp\ccBmAAlS.s:23399  .debug_str:0000000000009f68 .LASF1499
C:\Users\CYMR90~1\AppData\Local\Temp\ccBmAAlS.s:32106  .debug_str:000000000002cb13 .LASF1500
C:\Users\CYMR90~1\AppData\Local\Temp\ccBmAAlS.s:31334  .debug_str:0000000000029ade .LASF1501
C:\Users\CYMR90~1\AppData\Local\Temp\ccBmAAlS.s:29064  .debug_str:0000000000020a55 .LASF1502
C:\Users\CYMR90~1\AppData\Local\Temp\ccBmAAlS.s:22517  .debug_str:000000000000665e .LASF1503
C:\Users\CYMR90~1\AppData\Local\Temp\ccBmAAlS.s:31418  .debug_str:0000000000029fcc .LASF1504
C:\Users\CYMR90~1\AppData\Local\Temp\ccBmAAlS.s:28436  .debug_str:000000000001e3e9 .LASF1505
C:\Users\CYMR90~1\AppData\Local\Temp\ccBmAAlS.s:27746  .debug_str:000000000001b750 .LASF1506
C:\Users\CYMR90~1\AppData\Local\Temp\ccBmAAlS.s:24641  .debug_str:000000000000ef1f .LASF1507
C:\Users\CYMR90~1\AppData\Local\Temp\ccBmAAlS.s:29266  .debug_str:0000000000021667 .LASF1508
C:\Users\CYMR90~1\AppData\Local\Temp\ccBmAAlS.s:25437  .debug_str:000000000001219b .LASF1509
C:\Users\CYMR90~1\AppData\Local\Temp\ccBmAAlS.s:31070  .debug_str:0000000000028a4c .LASF1510
C:\Users\CYMR90~1\AppData\Local\Temp\ccBmAAlS.s:29846  .debug_str:000000000002394e .LASF1511
C:\Users\CYMR90~1\AppData\Local\Temp\ccBmAAlS.s:21769  .debug_str:00000000000036f8 .LASF1512
C:\Users\CYMR90~1\AppData\Local\Temp\ccBmAAlS.s:26405  .debug_str:0000000000015ee0 .LASF1513
C:\Users\CYMR90~1\AppData\Local\Temp\ccBmAAlS.s:30260  .debug_str:0000000000025503 .LASF1514
C:\Users\CYMR90~1\AppData\Local\Temp\ccBmAAlS.s:28656  .debug_str:000000000001f163 .LASF1515
C:\Users\CYMR90~1\AppData\Local\Temp\ccBmAAlS.s:31840  .debug_str:000000000002b9a8 .LASF1516
C:\Users\CYMR90~1\AppData\Local\Temp\ccBmAAlS.s:28486  .debug_str:000000000001e705 .LASF1517
C:\Users\CYMR90~1\AppData\Local\Temp\ccBmAAlS.s:30500  .debug_str:00000000000264cd .LASF1518
C:\Users\CYMR90~1\AppData\Local\Temp\ccBmAAlS.s:25427  .debug_str:000000000001212a .LASF1519
C:\Users\CYMR90~1\AppData\Local\Temp\ccBmAAlS.s:28880  .debug_str:000000000001fedb .LASF1520
C:\Users\CYMR90~1\AppData\Local\Temp\ccBmAAlS.s:27932  .debug_str:000000000001c2b8 .LASF1521
C:\Users\CYMR90~1\AppData\Local\Temp\ccBmAAlS.s:29200  .debug_str:000000000002120b .LASF1522
C:\Users\CYMR90~1\AppData\Local\Temp\ccBmAAlS.s:27210  .debug_str:00000000000193ea .LASF1523
C:\Users\CYMR90~1\AppData\Local\Temp\ccBmAAlS.s:29848  .debug_str:0000000000023964 .LASF1524
C:\Users\CYMR90~1\AppData\Local\Temp\ccBmAAlS.s:22179  .debug_str:0000000000005200 .LASF1525
C:\Users\CYMR90~1\AppData\Local\Temp\ccBmAAlS.s:27870  .debug_str:000000000001beba .LASF1526
C:\Users\CYMR90~1\AppData\Local\Temp\ccBmAAlS.s:23977  .debug_str:000000000000c603 .LASF1527
C:\Users\CYMR90~1\AppData\Local\Temp\ccBmAAlS.s:29604  .debug_str:0000000000022aa2 .LASF1528
C:\Users\CYMR90~1\AppData\Local\Temp\ccBmAAlS.s:30866  .debug_str:0000000000027ba4 .LASF1529
C:\Users\CYMR90~1\AppData\Local\Temp\ccBmAAlS.s:30092  .debug_str:00000000000248fb .LASF1530
C:\Users\CYMR90~1\AppData\Local\Temp\ccBmAAlS.s:30156  .debug_str:0000000000024d6e .LASF1531
C:\Users\CYMR90~1\AppData\Local\Temp\ccBmAAlS.s:21929  .debug_str:000000000000413b .LASF1532
C:\Users\CYMR90~1\AppData\Local\Temp\ccBmAAlS.s:27158  .debug_str:000000000001901c .LASF1533
C:\Users\CYMR90~1\AppData\Local\Temp\ccBmAAlS.s:29976  .debug_str:00000000000240a3 .LASF1534
C:\Users\CYMR90~1\AppData\Local\Temp\ccBmAAlS.s:23555  .debug_str:000000000000a938 .LASF1535
C:\Users\CYMR90~1\AppData\Local\Temp\ccBmAAlS.s:30160  .debug_str:0000000000024dee .LASF1536
C:\Users\CYMR90~1\AppData\Local\Temp\ccBmAAlS.s:29510  .debug_str:00000000000224d0 .LASF1537
C:\Users\CYMR90~1\AppData\Local\Temp\ccBmAAlS.s:30740  .debug_str:0000000000027383 .LASF1538
C:\Users\CYMR90~1\AppData\Local\Temp\ccBmAAlS.s:30628  .debug_str:0000000000026c7f .LASF1539
C:\Users\CYMR90~1\AppData\Local\Temp\ccBmAAlS.s:25307  .debug_str:000000000001198a .LASF1540
C:\Users\CYMR90~1\AppData\Local\Temp\ccBmAAlS.s:31360  .debug_str:0000000000029c66 .LASF1541
C:\Users\CYMR90~1\AppData\Local\Temp\ccBmAAlS.s:24297  .debug_str:000000000000da6a .LASF1542
C:\Users\CYMR90~1\AppData\Local\Temp\ccBmAAlS.s:21691  .debug_str:00000000000031e0 .LASF1543
C:\Users\CYMR90~1\AppData\Local\Temp\ccBmAAlS.s:31824  .debug_str:000000000002b890 .LASF1544
C:\Users\CYMR90~1\AppData\Local\Temp\ccBmAAlS.s:22921  .debug_str:00000000000081bb .LASF1545
C:\Users\CYMR90~1\AppData\Local\Temp\ccBmAAlS.s:23407  .debug_str:0000000000009fdb .LASF1546
C:\Users\CYMR90~1\AppData\Local\Temp\ccBmAAlS.s:24033  .debug_str:000000000000c9ee .LASF1547
C:\Users\CYMR90~1\AppData\Local\Temp\ccBmAAlS.s:30946  .debug_str:0000000000028124 .LASF1548
C:\Users\CYMR90~1\AppData\Local\Temp\ccBmAAlS.s:30432  .debug_str:0000000000026072 .LASF1549
C:\Users\CYMR90~1\AppData\Local\Temp\ccBmAAlS.s:27820  .debug_str:000000000001bb24 .LASF1550
C:\Users\CYMR90~1\AppData\Local\Temp\ccBmAAlS.s:25175  .debug_str:000000000001101a .LASF1551
C:\Users\CYMR90~1\AppData\Local\Temp\ccBmAAlS.s:27784  .debug_str:000000000001b92a .LASF1552
C:\Users\CYMR90~1\AppData\Local\Temp\ccBmAAlS.s:21147  .debug_str:00000000000010b1 .LASF1553
C:\Users\CYMR90~1\AppData\Local\Temp\ccBmAAlS.s:21463  .debug_str:00000000000023a3 .LASF1554
C:\Users\CYMR90~1\AppData\Local\Temp\ccBmAAlS.s:28520  .debug_str:000000000001e94f .LASF1555
C:\Users\CYMR90~1\AppData\Local\Temp\ccBmAAlS.s:27108  .debug_str:0000000000018d03 .LASF1556
C:\Users\CYMR90~1\AppData\Local\Temp\ccBmAAlS.s:27136  .debug_str:0000000000018ed3 .LASF1557
C:\Users\CYMR90~1\AppData\Local\Temp\ccBmAAlS.s:31444  .debug_str:000000000002a13f .LASF1558
C:\Users\CYMR90~1\AppData\Local\Temp\ccBmAAlS.s:25017  .debug_str:0000000000010692 .LASF1559
C:\Users\CYMR90~1\AppData\Local\Temp\ccBmAAlS.s:29858  .debug_str:00000000000239dd .LASF1560
C:\Users\CYMR90~1\AppData\Local\Temp\ccBmAAlS.s:30290  .debug_str:0000000000025714 .LASF1561
C:\Users\CYMR90~1\AppData\Local\Temp\ccBmAAlS.s:25125  .debug_str:0000000000010d57 .LASF1562
C:\Users\CYMR90~1\AppData\Local\Temp\ccBmAAlS.s:22359  .debug_str:0000000000005cf8 .LASF1563
C:\Users\CYMR90~1\AppData\Local\Temp\ccBmAAlS.s:31940  .debug_str:000000000002c005 .LASF1564
C:\Users\CYMR90~1\AppData\Local\Temp\ccBmAAlS.s:22547  .debug_str:0000000000006814 .LASF1565
C:\Users\CYMR90~1\AppData\Local\Temp\ccBmAAlS.s:28234  .debug_str:000000000001d718 .LASF1566
C:\Users\CYMR90~1\AppData\Local\Temp\ccBmAAlS.s:27504  .debug_str:000000000001a7cc .LASF1567
C:\Users\CYMR90~1\AppData\Local\Temp\ccBmAAlS.s:29000  .debug_str:0000000000020624 .LASF1568
C:\Users\CYMR90~1\AppData\Local\Temp\ccBmAAlS.s:25305  .debug_str:00000000000118e3 .LASF1569
C:\Users\CYMR90~1\AppData\Local\Temp\ccBmAAlS.s:30318  .debug_str:0000000000025928 .LASF1570
C:\Users\CYMR90~1\AppData\Local\Temp\ccBmAAlS.s:25701  .debug_str:000000000001331b .LASF1571
C:\Users\CYMR90~1\AppData\Local\Temp\ccBmAAlS.s:22231  .debug_str:000000000000553b .LASF1572
C:\Users\CYMR90~1\AppData\Local\Temp\ccBmAAlS.s:26131  .debug_str:0000000000014def .LASF1573
C:\Users\CYMR90~1\AppData\Local\Temp\ccBmAAlS.s:31056  .debug_str:0000000000028977 .LASF1574
C:\Users\CYMR90~1\AppData\Local\Temp\ccBmAAlS.s:26610  .debug_str:0000000000016e4c .LASF1575
C:\Users\CYMR90~1\AppData\Local\Temp\ccBmAAlS.s:24677  .debug_str:000000000000f142 .LASF1576
C:\Users\CYMR90~1\AppData\Local\Temp\ccBmAAlS.s:28524  .debug_str:000000000001e991 .LASF1577
C:\Users\CYMR90~1\AppData\Local\Temp\ccBmAAlS.s:31550  .debug_str:000000000002a7c6 .LASF1578
C:\Users\CYMR90~1\AppData\Local\Temp\ccBmAAlS.s:21473  .debug_str:000000000000242e .LASF1579
C:\Users\CYMR90~1\AppData\Local\Temp\ccBmAAlS.s:28080  .debug_str:000000000001cc74 .LASF1580
C:\Users\CYMR90~1\AppData\Local\Temp\ccBmAAlS.s:23523  .debug_str:000000000000a728 .LASF1581
C:\Users\CYMR90~1\AppData\Local\Temp\ccBmAAlS.s:24223  .debug_str:000000000000d65f .LASF1582
C:\Users\CYMR90~1\AppData\Local\Temp\ccBmAAlS.s:22911  .debug_str:000000000000808f .LASF1583
C:\Users\CYMR90~1\AppData\Local\Temp\ccBmAAlS.s:30742  .debug_str:00000000000273a1 .LASF1584
C:\Users\CYMR90~1\AppData\Local\Temp\ccBmAAlS.s:28338  .debug_str:000000000001ddb3 .LASF1585
C:\Users\CYMR90~1\AppData\Local\Temp\ccBmAAlS.s:32160  .debug_str:000000000002ce2b .LASF1586
C:\Users\CYMR90~1\AppData\Local\Temp\ccBmAAlS.s:24195  .debug_str:000000000000d413 .LASF1587
C:\Users\CYMR90~1\AppData\Local\Temp\ccBmAAlS.s:22871  .debug_str:0000000000007d65 .LASF1588
C:\Users\CYMR90~1\AppData\Local\Temp\ccBmAAlS.s:26585  .debug_str:0000000000016a9d .LASF1589
C:\Users\CYMR90~1\AppData\Local\Temp\ccBmAAlS.s:23735  .debug_str:000000000000b574 .LASF1590
C:\Users\CYMR90~1\AppData\Local\Temp\ccBmAAlS.s:26515  .debug_str:0000000000016581 .LASF1591
C:\Users\CYMR90~1\AppData\Local\Temp\ccBmAAlS.s:23115  .debug_str:0000000000008de4 .LASF1592
C:\Users\CYMR90~1\AppData\Local\Temp\ccBmAAlS.s:25693  .debug_str:0000000000013236 .LASF1593
C:\Users\CYMR90~1\AppData\Local\Temp\ccBmAAlS.s:31240  .debug_str:0000000000029472 .LASF1594
C:\Users\CYMR90~1\AppData\Local\Temp\ccBmAAlS.s:30978  .debug_str:0000000000028383 .LASF1595
C:\Users\CYMR90~1\AppData\Local\Temp\ccBmAAlS.s:21113  .debug_str:0000000000000e65 .LASF1596
C:\Users\CYMR90~1\AppData\Local\Temp\ccBmAAlS.s:28108  .debug_str:000000000001ce3d .LASF1597
C:\Users\CYMR90~1\AppData\Local\Temp\ccBmAAlS.s:22035  .debug_str:00000000000048ad .LASF1598
C:\Users\CYMR90~1\AppData\Local\Temp\ccBmAAlS.s:30234  .debug_str:00000000000252c8 .LASF1599
C:\Users\CYMR90~1\AppData\Local\Temp\ccBmAAlS.s:21257  .debug_str:000000000000171b .LASF1600
C:\Users\CYMR90~1\AppData\Local\Temp\ccBmAAlS.s:24765  .debug_str:000000000000f670 .LASF1601
C:\Users\CYMR90~1\AppData\Local\Temp\ccBmAAlS.s:29222  .debug_str:000000000002135b .LASF1602
C:\Users\CYMR90~1\AppData\Local\Temp\ccBmAAlS.s:28132  .debug_str:000000000001d062 .LASF1603
C:\Users\CYMR90~1\AppData\Local\Temp\ccBmAAlS.s:28018  .debug_str:000000000001c7eb .LASF1604
C:\Users\CYMR90~1\AppData\Local\Temp\ccBmAAlS.s:30212  .debug_str:00000000000250e6 .LASF1605
C:\Users\CYMR90~1\AppData\Local\Temp\ccBmAAlS.s:30134  .debug_str:0000000000024c00 .LASF1606
C:\Users\CYMR90~1\AppData\Local\Temp\ccBmAAlS.s:30086  .debug_str:00000000000248a7 .LASF1607
C:\Users\CYMR90~1\AppData\Local\Temp\ccBmAAlS.s:27056  .debug_str:0000000000018935 .LASF1608
C:\Users\CYMR90~1\AppData\Local\Temp\ccBmAAlS.s:22013  .debug_str:0000000000004726 .LASF1609
C:\Users\CYMR90~1\AppData\Local\Temp\ccBmAAlS.s:29440  .debug_str:00000000000220ed .LASF1610
C:\Users\CYMR90~1\AppData\Local\Temp\ccBmAAlS.s:32068  .debug_str:000000000002c855 .LASF1611
C:\Users\CYMR90~1\AppData\Local\Temp\ccBmAAlS.s:27968  .debug_str:000000000001c4af .LASF1612
C:\Users\CYMR90~1\AppData\Local\Temp\ccBmAAlS.s:26017  .debug_str:000000000001469b .LASF1613
C:\Users\CYMR90~1\AppData\Local\Temp\ccBmAAlS.s:23391  .debug_str:0000000000009eeb .LASF1614
C:\Users\CYMR90~1\AppData\Local\Temp\ccBmAAlS.s:27650  .debug_str:000000000001b16a .LASF1615
C:\Users\CYMR90~1\AppData\Local\Temp\ccBmAAlS.s:29324  .debug_str:00000000000219e6 .LASF1616
C:\Users\CYMR90~1\AppData\Local\Temp\ccBmAAlS.s:26101  .debug_str:0000000000014bb1 .LASF1617
C:\Users\CYMR90~1\AppData\Local\Temp\ccBmAAlS.s:28032  .debug_str:000000000001c985 .LASF1618
C:\Users\CYMR90~1\AppData\Local\Temp\ccBmAAlS.s:22059  .debug_str:0000000000004ab6 .LASF1619
C:\Users\CYMR90~1\AppData\Local\Temp\ccBmAAlS.s:23769  .debug_str:000000000000b845 .LASF1620
C:\Users\CYMR90~1\AppData\Local\Temp\ccBmAAlS.s:24593  .debug_str:000000000000ec8a .LASF1621
C:\Users\CYMR90~1\AppData\Local\Temp\ccBmAAlS.s:21627  .debug_str:0000000000002e13 .LASF1622
C:\Users\CYMR90~1\AppData\Local\Temp\ccBmAAlS.s:29030  .debug_str:0000000000020838 .LASF1623
C:\Users\CYMR90~1\AppData\Local\Temp\ccBmAAlS.s:25695  .debug_str:00000000000132d1 .LASF1624
C:\Users\CYMR90~1\AppData\Local\Temp\ccBmAAlS.s:23861  .debug_str:000000000000bea1 .LASF1625
C:\Users\CYMR90~1\AppData\Local\Temp\ccBmAAlS.s:29726  .debug_str:000000000002319d .LASF1626
C:\Users\CYMR90~1\AppData\Local\Temp\ccBmAAlS.s:22543  .debug_str:00000000000067e6 .LASF1627
C:\Users\CYMR90~1\AppData\Local\Temp\ccBmAAlS.s:28774  .debug_str:000000000001f841 .LASF1628
C:\Users\CYMR90~1\AppData\Local\Temp\ccBmAAlS.s:23631  .debug_str:000000000000aea8 .LASF1629
C:\Users\CYMR90~1\AppData\Local\Temp\ccBmAAlS.s:29520  .debug_str:000000000002253c .LASF1630
C:\Users\CYMR90~1\AppData\Local\Temp\ccBmAAlS.s:23099  .debug_str:0000000000008d2f .LASF1631
C:\Users\CYMR90~1\AppData\Local\Temp\ccBmAAlS.s:21213  .debug_str:00000000000014b5 .LASF1632
C:\Users\CYMR90~1\AppData\Local\Temp\ccBmAAlS.s:27760  .debug_str:000000000001b833 .LASF1633
C:\Users\CYMR90~1\AppData\Local\Temp\ccBmAAlS.s:26746  .debug_str:0000000000017681 .LASF1634
C:\Users\CYMR90~1\AppData\Local\Temp\ccBmAAlS.s:23843  .debug_str:000000000000bd26 .LASF1635
C:\Users\CYMR90~1\AppData\Local\Temp\ccBmAAlS.s:23947  .debug_str:000000000000c434 .LASF1636
C:\Users\CYMR90~1\AppData\Local\Temp\ccBmAAlS.s:27622  .debug_str:000000000001afbe .LASF1637
C:\Users\CYMR90~1\AppData\Local\Temp\ccBmAAlS.s:24017  .debug_str:000000000000c8db .LASF1638
C:\Users\CYMR90~1\AppData\Local\Temp\ccBmAAlS.s:23745  .debug_str:000000000000b699 .LASF1639
C:\Users\CYMR90~1\AppData\Local\Temp\ccBmAAlS.s:26952  .debug_str:0000000000018300 .LASF1640
C:\Users\CYMR90~1\AppData\Local\Temp\ccBmAAlS.s:24969  .debug_str:000000000001037f .LASF1641
C:\Users\CYMR90~1\AppData\Local\Temp\ccBmAAlS.s:30076  .debug_str:000000000002480b .LASF1642
C:\Users\CYMR90~1\AppData\Local\Temp\ccBmAAlS.s:25315  .debug_str:0000000000011a2b .LASF1643
C:\Users\CYMR90~1\AppData\Local\Temp\ccBmAAlS.s:28914  .debug_str:0000000000020102 .LASF1644
C:\Users\CYMR90~1\AppData\Local\Temp\ccBmAAlS.s:32034  .debug_str:000000000002c67f .LASF1645
C:\Users\CYMR90~1\AppData\Local\Temp\ccBmAAlS.s:21615  .debug_str:0000000000002d74 .LASF1646
C:\Users\CYMR90~1\AppData\Local\Temp\ccBmAAlS.s:26551  .debug_str:0000000000016836 .LASF1647
C:\Users\CYMR90~1\AppData\Local\Temp\ccBmAAlS.s:26654  .debug_str:000000000001711e .LASF1648
C:\Users\CYMR90~1\AppData\Local\Temp\ccBmAAlS.s:21411  .debug_str:00000000000020ef .LASF1649
C:\Users\CYMR90~1\AppData\Local\Temp\ccBmAAlS.s:22937  .debug_str:00000000000082f2 .LASF1650
C:\Users\CYMR90~1\AppData\Local\Temp\ccBmAAlS.s:29742  .debug_str:00000000000232b2 .LASF1651
C:\Users\CYMR90~1\AppData\Local\Temp\ccBmAAlS.s:25063  .debug_str:00000000000108ed .LASF1652
C:\Users\CYMR90~1\AppData\Local\Temp\ccBmAAlS.s:22829  .debug_str:0000000000007a81 .LASF1653
C:\Users\CYMR90~1\AppData\Local\Temp\ccBmAAlS.s:21151  .debug_str:0000000000001108 .LASF1654
C:\Users\CYMR90~1\AppData\Local\Temp\ccBmAAlS.s:26848  .debug_str:0000000000017cd3 .LASF1657
C:\Users\CYMR90~1\AppData\Local\Temp\ccBmAAlS.s:31600  .debug_str:000000000002aae6 .LASF1658
C:\Users\CYMR90~1\AppData\Local\Temp\ccBmAAlS.s:25095  .debug_str:0000000000010bfd .LASF1659
C:\Users\CYMR90~1\AppData\Local\Temp\ccBmAAlS.s:27182  .debug_str:0000000000019263 .LASF1660
C:\Users\CYMR90~1\AppData\Local\Temp\ccBmAAlS.s:31836  .debug_str:000000000002b969 .LASF1661
C:\Users\CYMR90~1\AppData\Local\Temp\ccBmAAlS.s:31872  .debug_str:000000000002bbe7 .LASF1662
C:\Users\CYMR90~1\AppData\Local\Temp\ccBmAAlS.s:29114  .debug_str:0000000000020d4f .LASF1663
C:\Users\CYMR90~1\AppData\Local\Temp\ccBmAAlS.s:26063  .debug_str:0000000000014941 .LASF1664
C:\Users\CYMR90~1\AppData\Local\Temp\ccBmAAlS.s:28284  .debug_str:000000000001da78 .LASF1665
C:\Users\CYMR90~1\AppData\Local\Temp\ccBmAAlS.s:29202  .debug_str:0000000000021226 .LASF1666
C:\Users\CYMR90~1\AppData\Local\Temp\ccBmAAlS.s:30314  .debug_str:00000000000258e4 .LASF1667
C:\Users\CYMR90~1\AppData\Local\Temp\ccBmAAlS.s:24501  .debug_str:000000000000e6b8 .LASF1668
C:\Users\CYMR90~1\AppData\Local\Temp\ccBmAAlS.s:21855  .debug_str:0000000000003c77 .LASF1669
C:\Users\CYMR90~1\AppData\Local\Temp\ccBmAAlS.s:23135  .debug_str:0000000000008f82 .LASF1670
C:\Users\CYMR90~1\AppData\Local\Temp\ccBmAAlS.s:22073  .debug_str:0000000000004b82 .LASF1671
C:\Users\CYMR90~1\AppData\Local\Temp\ccBmAAlS.s:20963  .debug_str:0000000000000534 .LASF1672
C:\Users\CYMR90~1\AppData\Local\Temp\ccBmAAlS.s:25993  .debug_str:00000000000144d7 .LASF1673
C:\Users\CYMR90~1\AppData\Local\Temp\ccBmAAlS.s:25387  .debug_str:0000000000011e4e .LASF1674
C:\Users\CYMR90~1\AppData\Local\Temp\ccBmAAlS.s:24541  .debug_str:000000000000e92d .LASF1675
C:\Users\CYMR90~1\AppData\Local\Temp\ccBmAAlS.s:30098  .debug_str:00000000000249e6 .LASF1676
C:\Users\CYMR90~1\AppData\Local\Temp\ccBmAAlS.s:25519  .debug_str:00000000000126d5 .LASF1677
C:\Users\CYMR90~1\AppData\Local\Temp\ccBmAAlS.s:32036  .debug_str:000000000002c694 .LASF1678
C:\Users\CYMR90~1\AppData\Local\Temp\ccBmAAlS.s:21523  .debug_str:000000000000276a .LASF1679
C:\Users\CYMR90~1\AppData\Local\Temp\ccBmAAlS.s:25045  .debug_str:0000000000010814 .LASF1680
C:\Users\CYMR90~1\AppData\Local\Temp\ccBmAAlS.s:26249  .debug_str:0000000000015536 .LASF1681
C:\Users\CYMR90~1\AppData\Local\Temp\ccBmAAlS.s:24893  .debug_str:000000000000fef6 .LASF1682
C:\Users\CYMR90~1\AppData\Local\Temp\ccBmAAlS.s:27606  .debug_str:000000000001ae4f .LASF1683
C:\Users\CYMR90~1\AppData\Local\Temp\ccBmAAlS.s:29690  .debug_str:0000000000022fdf .LASF1684
C:\Users\CYMR90~1\AppData\Local\Temp\ccBmAAlS.s:30620  .debug_str:0000000000026c24 .LASF1685
C:\Users\CYMR90~1\AppData\Local\Temp\ccBmAAlS.s:25043  .debug_str:00000000000107fc .LASF1686
C:\Users\CYMR90~1\AppData\Local\Temp\ccBmAAlS.s:29012  .debug_str:0000000000020722 .LASF1687
C:\Users\CYMR90~1\AppData\Local\Temp\ccBmAAlS.s:31350  .debug_str:0000000000029bbb .LASF1688
C:\Users\CYMR90~1\AppData\Local\Temp\ccBmAAlS.s:29874  .debug_str:0000000000023ae7 .LASF1689
C:\Users\CYMR90~1\AppData\Local\Temp\ccBmAAlS.s:27720  .debug_str:000000000001b59d .LASF1690
C:\Users\CYMR90~1\AppData\Local\Temp\ccBmAAlS.s:25785  .debug_str:0000000000013868 .LASF1691
C:\Users\CYMR90~1\AppData\Local\Temp\ccBmAAlS.s:29424  .debug_str:000000000002200d .LASF1692
C:\Users\CYMR90~1\AppData\Local\Temp\ccBmAAlS.s:27042  .debug_str:0000000000018856 .LASF1693
C:\Users\CYMR90~1\AppData\Local\Temp\ccBmAAlS.s:22931  .debug_str:000000000000827e .LASF1694
C:\Users\CYMR90~1\AppData\Local\Temp\ccBmAAlS.s:24965  .debug_str:0000000000010333 .LASF1695
C:\Users\CYMR90~1\AppData\Local\Temp\ccBmAAlS.s:26818  .debug_str:0000000000017b20 .LASF1696
C:\Users\CYMR90~1\AppData\Local\Temp\ccBmAAlS.s:26109  .debug_str:0000000000014c44 .LASF1697
C:\Users\CYMR90~1\AppData\Local\Temp\ccBmAAlS.s:28670  .debug_str:000000000001f21c .LASF1698
C:\Users\CYMR90~1\AppData\Local\Temp\ccBmAAlS.s:27220  .debug_str:00000000000194b1 .LASF1699
C:\Users\CYMR90~1\AppData\Local\Temp\ccBmAAlS.s:29124  .debug_str:0000000000020dea .LASF1700
C:\Users\CYMR90~1\AppData\Local\Temp\ccBmAAlS.s:28666  .debug_str:000000000001f1df .LASF1701
C:\Users\CYMR90~1\AppData\Local\Temp\ccBmAAlS.s:29924  .debug_str:0000000000023ddc .LASF1702
C:\Users\CYMR90~1\AppData\Local\Temp\ccBmAAlS.s:24213  .debug_str:000000000000d5b0 .LASF1703
C:\Users\CYMR90~1\AppData\Local\Temp\ccBmAAlS.s:29416  .debug_str:0000000000021f8b .LASF1704
C:\Users\CYMR90~1\AppData\Local\Temp\ccBmAAlS.s:27852  .debug_str:000000000001bd66 .LASF1705
C:\Users\CYMR90~1\AppData\Local\Temp\ccBmAAlS.s:29268  .debug_str:000000000002167b .LASF1706
C:\Users\CYMR90~1\AppData\Local\Temp\ccBmAAlS.s:26730  .debug_str:000000000001755d .LASF1707
C:\Users\CYMR90~1\AppData\Local\Temp\ccBmAAlS.s:25697  .debug_str:00000000000132e4 .LASF1708
C:\Users\CYMR90~1\AppData\Local\Temp\ccBmAAlS.s:28418  .debug_str:000000000001e2f4 .LASF1709
C:\Users\CYMR90~1\AppData\Local\Temp\ccBmAAlS.s:26954  .debug_str:0000000000018315 .LASF1710
C:\Users\CYMR90~1\AppData\Local\Temp\ccBmAAlS.s:30822  .debug_str:00000000000278ef .LASF1711
C:\Users\CYMR90~1\AppData\Local\Temp\ccBmAAlS.s:25335  .debug_str:0000000000011b51 .LASF1712
C:\Users\CYMR90~1\AppData\Local\Temp\ccBmAAlS.s:22465  .debug_str:000000000000633a .LASF1713
C:\Users\CYMR90~1\AppData\Local\Temp\ccBmAAlS.s:24807  .debug_str:000000000000f967 .LASF1714
C:\Users\CYMR90~1\AppData\Local\Temp\ccBmAAlS.s:21745  .debug_str:00000000000035a8 .LASF1715
C:\Users\CYMR90~1\AppData\Local\Temp\ccBmAAlS.s:25041  .debug_str:00000000000107d0 .LASF1716
C:\Users\CYMR90~1\AppData\Local\Temp\ccBmAAlS.s:28384  .debug_str:000000000001e0e6 .LASF1717
C:\Users\CYMR90~1\AppData\Local\Temp\ccBmAAlS.s:26918  .debug_str:00000000000180e2 .LASF1718
C:\Users\CYMR90~1\AppData\Local\Temp\ccBmAAlS.s:25279  .debug_str:00000000000116a3 .LASF1719
C:\Users\CYMR90~1\AppData\Local\Temp\ccBmAAlS.s:27284  .debug_str:00000000000198c0 .LASF1720
C:\Users\CYMR90~1\AppData\Local\Temp\ccBmAAlS.s:25777  .debug_str:00000000000137e5 .LASF1721
C:\Users\CYMR90~1\AppData\Local\Temp\ccBmAAlS.s:21449  .debug_str:00000000000022ea .LASF1722
C:\Users\CYMR90~1\AppData\Local\Temp\ccBmAAlS.s:27614  .debug_str:000000000001aeee .LASF1723
C:\Users\CYMR90~1\AppData\Local\Temp\ccBmAAlS.s:21513  .debug_str:00000000000026e0 .LASF1724
C:\Users\CYMR90~1\AppData\Local\Temp\ccBmAAlS.s:26317  .debug_str:00000000000158eb .LASF1725
C:\Users\CYMR90~1\AppData\Local\Temp\ccBmAAlS.s:31140  .debug_str:0000000000028e4a .LASF1726
C:\Users\CYMR90~1\AppData\Local\Temp\ccBmAAlS.s:29556  .debug_str:0000000000022793 .LASF1727
C:\Users\CYMR90~1\AppData\Local\Temp\ccBmAAlS.s:30790  .debug_str:0000000000027739 .LASF1728
C:\Users\CYMR90~1\AppData\Local\Temp\ccBmAAlS.s:28078  .debug_str:000000000001cc3d .LASF1729
C:\Users\CYMR90~1\AppData\Local\Temp\ccBmAAlS.s:31944  .debug_str:000000000002c0c4 .LASF1730
C:\Users\CYMR90~1\AppData\Local\Temp\ccBmAAlS.s:30610  .debug_str:0000000000026b89 .LASF1731
C:\Users\CYMR90~1\AppData\Local\Temp\ccBmAAlS.s:25213  .debug_str:000000000001124e .LASF1732
C:\Users\CYMR90~1\AppData\Local\Temp\ccBmAAlS.s:23247  .debug_str:00000000000095c3 .LASF1733
C:\Users\CYMR90~1\AppData\Local\Temp\ccBmAAlS.s:21217  .debug_str:00000000000014d2 .LASF1734
C:\Users\CYMR90~1\AppData\Local\Temp\ccBmAAlS.s:26686  .debug_str:00000000000172cb .LASF1735
C:\Users\CYMR90~1\AppData\Local\Temp\ccBmAAlS.s:28842  .debug_str:000000000001fc73 .LASF1736
C:\Users\CYMR90~1\AppData\Local\Temp\ccBmAAlS.s:23239  .debug_str:000000000000954d .LASF1737
C:\Users\CYMR90~1\AppData\Local\Temp\ccBmAAlS.s:22953  .debug_str:00000000000083e8 .LASF1738
C:\Users\CYMR90~1\AppData\Local\Temp\ccBmAAlS.s:30616  .debug_str:0000000000026bf5 .LASF1739
C:\Users\CYMR90~1\AppData\Local\Temp\ccBmAAlS.s:24567  .debug_str:000000000000eafd .LASF1740
C:\Users\CYMR90~1\AppData\Local\Temp\ccBmAAlS.s:23587  .debug_str:000000000000abe9 .LASF1741
C:\Users\CYMR90~1\AppData\Local\Temp\ccBmAAlS.s:28692  .debug_str:000000000001f363 .LASF1742
C:\Users\CYMR90~1\AppData\Local\Temp\ccBmAAlS.s:24065  .debug_str:000000000000cc1d .LASF1743
C:\Users\CYMR90~1\AppData\Local\Temp\ccBmAAlS.s:30898  .debug_str:0000000000027dee .LASF1744
C:\Users\CYMR90~1\AppData\Local\Temp\ccBmAAlS.s:22959  .debug_str:000000000000845a .LASF1745
C:\Users\CYMR90~1\AppData\Local\Temp\ccBmAAlS.s:24863  .debug_str:000000000000fce8 .LASF1746
C:\Users\CYMR90~1\AppData\Local\Temp\ccBmAAlS.s:29928  .debug_str:0000000000023e1a .LASF1747
C:\Users\CYMR90~1\AppData\Local\Temp\ccBmAAlS.s:29528  .debug_str:00000000000225c2 .LASF1748
C:\Users\CYMR90~1\AppData\Local\Temp\ccBmAAlS.s:25039  .debug_str:00000000000107ad .LASF1749
C:\Users\CYMR90~1\AppData\Local\Temp\ccBmAAlS.s:23741  .debug_str:000000000000b650 .LASF1750
C:\Users\CYMR90~1\AppData\Local\Temp\ccBmAAlS.s:26854  .debug_str:0000000000017d29 .LASF1751
C:\Users\CYMR90~1\AppData\Local\Temp\ccBmAAlS.s:22107  .debug_str:0000000000004d9f .LASF1752
C:\Users\CYMR90~1\AppData\Local\Temp\ccBmAAlS.s:27590  .debug_str:000000000001ad63 .LASF1753
C:\Users\CYMR90~1\AppData\Local\Temp\ccBmAAlS.s:27488  .debug_str:000000000001a6a8 .LASF1754
C:\Users\CYMR90~1\AppData\Local\Temp\ccBmAAlS.s:24007  .debug_str:000000000000c7da .LASF1755
C:\Users\CYMR90~1\AppData\Local\Temp\ccBmAAlS.s:25587  .debug_str:0000000000012b6c .LASF1756
C:\Users\CYMR90~1\AppData\Local\Temp\ccBmAAlS.s:27676  .debug_str:000000000001b318 .LASF1757
C:\Users\CYMR90~1\AppData\Local\Temp\ccBmAAlS.s:24665  .debug_str:000000000000f05c .LASF1758
C:\Users\CYMR90~1\AppData\Local\Temp\ccBmAAlS.s:22777  .debug_str:0000000000007726 .LASF1759
C:\Users\CYMR90~1\AppData\Local\Temp\ccBmAAlS.s:27428  .debug_str:000000000001a1c0 .LASF1760
C:\Users\CYMR90~1\AppData\Local\Temp\ccBmAAlS.s:23063  .debug_str:0000000000008afe .LASF1761
C:\Users\CYMR90~1\AppData\Local\Temp\ccBmAAlS.s:21279  .debug_str:000000000000192a .LASF1762
C:\Users\CYMR90~1\AppData\Local\Temp\ccBmAAlS.s:30112  .debug_str:0000000000024a8c .LASF1763
C:\Users\CYMR90~1\AppData\Local\Temp\ccBmAAlS.s:22805  .debug_str:0000000000007901 .LASF1764
C:\Users\CYMR90~1\AppData\Local\Temp\ccBmAAlS.s:22479  .debug_str:0000000000006433 .LASF1765
C:\Users\CYMR90~1\AppData\Local\Temp\ccBmAAlS.s:21259  .debug_str:00000000000017d1 .LASF1766
C:\Users\CYMR90~1\AppData\Local\Temp\ccBmAAlS.s:27790  .debug_str:000000000001b983 .LASF1767
C:\Users\CYMR90~1\AppData\Local\Temp\ccBmAAlS.s:21321  .debug_str:0000000000001bab .LASF1768
C:\Users\CYMR90~1\AppData\Local\Temp\ccBmAAlS.s:30320  .debug_str:00000000000259b6 .LASF1769
C:\Users\CYMR90~1\AppData\Local\Temp\ccBmAAlS.s:32020  .debug_str:000000000002c58e .LASF1770
C:\Users\CYMR90~1\AppData\Local\Temp\ccBmAAlS.s:23895  .debug_str:000000000000c0c9 .LASF1771
C:\Users\CYMR90~1\AppData\Local\Temp\ccBmAAlS.s:23495  .debug_str:000000000000a58b .LASF1772
C:\Users\CYMR90~1\AppData\Local\Temp\ccBmAAlS.s:26217  .debug_str:0000000000015364 .LASF1773
C:\Users\CYMR90~1\AppData\Local\Temp\ccBmAAlS.s:21047  .debug_str:0000000000000a18 .LASF1774
C:\Users\CYMR90~1\AppData\Local\Temp\ccBmAAlS.s:31046  .debug_str:00000000000288b8 .LASF1775
C:\Users\CYMR90~1\AppData\Local\Temp\ccBmAAlS.s:26009  .debug_str:0000000000014607 .LASF1776
C:\Users\CYMR90~1\AppData\Local\Temp\ccBmAAlS.s:24747  .debug_str:000000000000f56e .LASF1777
C:\Users\CYMR90~1\AppData\Local\Temp\ccBmAAlS.s:26844  .debug_str:0000000000017ca2 .LASF1778
C:\Users\CYMR90~1\AppData\Local\Temp\ccBmAAlS.s:22205  .debug_str:0000000000005397 .LASF1779
C:\Users\CYMR90~1\AppData\Local\Temp\ccBmAAlS.s:30356  .debug_str:0000000000025bf4 .LASF1780
C:\Users\CYMR90~1\AppData\Local\Temp\ccBmAAlS.s:29560  .debug_str:00000000000227fc .LASF1781
C:\Users\CYMR90~1\AppData\Local\Temp\ccBmAAlS.s:28086  .debug_str:000000000001ccdf .LASF1784
C:\Users\CYMR90~1\AppData\Local\Temp\ccBmAAlS.s:27232  .debug_str:000000000001955d .LASF1785
C:\Users\CYMR90~1\AppData\Local\Temp\ccBmAAlS.s:27076  .debug_str:0000000000018a77 .LASF1786
C:\Users\CYMR90~1\AppData\Local\Temp\ccBmAAlS.s:26049  .debug_str:0000000000014881 .LASF1787
C:\Users\CYMR90~1\AppData\Local\Temp\ccBmAAlS.s:31478  .debug_str:000000000002a337 .LASF1788
C:\Users\CYMR90~1\AppData\Local\Temp\ccBmAAlS.s:31786  .debug_str:000000000002b649 .LASF1789
C:\Users\CYMR90~1\AppData\Local\Temp\ccBmAAlS.s:21791  .debug_str:0000000000003889 .LASF1790
C:\Users\CYMR90~1\AppData\Local\Temp\ccBmAAlS.s:20909  .debug_str:0000000000000215 .LASF1791
C:\Users\CYMR90~1\AppData\Local\Temp\ccBmAAlS.s:30704  .debug_str:000000000002713e .LASF1792
C:\Users\CYMR90~1\AppData\Local\Temp\ccBmAAlS.s:29770  .debug_str:0000000000023438 .LASF1793
C:\Users\CYMR90~1\AppData\Local\Temp\ccBmAAlS.s:31668  .debug_str:000000000002aeab .LASF1794
C:\Users\CYMR90~1\AppData\Local\Temp\ccBmAAlS.s:30982  .debug_str:0000000000028454 .LASF1795
C:\Users\CYMR90~1\AppData\Local\Temp\ccBmAAlS.s:25709  .debug_str:00000000000133ae .LASF1796
C:\Users\CYMR90~1\AppData\Local\Temp\ccBmAAlS.s:25997  .debug_str:0000000000014519 .LASF1797
C:\Users\CYMR90~1\AppData\Local\Temp\ccBmAAlS.s:25099  .debug_str:0000000000010c14 .LASF1798
C:\Users\CYMR90~1\AppData\Local\Temp\ccBmAAlS.s:23921  .debug_str:000000000000c28a .LASF1799
C:\Users\CYMR90~1\AppData\Local\Temp\ccBmAAlS.s:26760  .debug_str:000000000001775d .LASF1800
C:\Users\CYMR90~1\AppData\Local\Temp\ccBmAAlS.s:27068  .debug_str:00000000000189f5 .LASF1801
C:\Users\CYMR90~1\AppData\Local\Temp\ccBmAAlS.s:26135  .debug_str:0000000000014e29 .LASF1802
C:\Users\CYMR90~1\AppData\Local\Temp\ccBmAAlS.s:25159  .debug_str:0000000000010f38 .LASF1803
C:\Users\CYMR90~1\AppData\Local\Temp\ccBmAAlS.s:24643  .debug_str:000000000000ef36 .LASF1804
C:\Users\CYMR90~1\AppData\Local\Temp\ccBmAAlS.s:29358  .debug_str:0000000000021c1b .LASF1805
C:\Users\CYMR90~1\AppData\Local\Temp\ccBmAAlS.s:26019  .debug_str:00000000000146bf .LASF1806
C:\Users\CYMR90~1\AppData\Local\Temp\ccBmAAlS.s:28956  .debug_str:0000000000020337 .LASF1807
C:\Users\CYMR90~1\AppData\Local\Temp\ccBmAAlS.s:26159  .debug_str:0000000000014fbf .LASF1808
C:\Users\CYMR90~1\AppData\Local\Temp\ccBmAAlS.s:30974  .debug_str:0000000000028342 .LASF1809
C:\Users\CYMR90~1\AppData\Local\Temp\ccBmAAlS.s:28180  .debug_str:000000000001d3e1 .LASF1810
C:\Users\CYMR90~1\AppData\Local\Temp\ccBmAAlS.s:26860  .debug_str:0000000000017d9e .LASF1811
C:\Users\CYMR90~1\AppData\Local\Temp\ccBmAAlS.s:21239  .debug_str:0000000000001606 .LASF1812
C:\Users\CYMR90~1\AppData\Local\Temp\ccBmAAlS.s:25051  .debug_str:000000000001085a .LASF1813
C:\Users\CYMR90~1\AppData\Local\Temp\ccBmAAlS.s:25319  .debug_str:0000000000011a5d .LASF1814
C:\Users\CYMR90~1\AppData\Local\Temp\ccBmAAlS.s:28162  .debug_str:000000000001d2e9 .LASF1815
C:\Users\CYMR90~1\AppData\Local\Temp\ccBmAAlS.s:26824  .debug_str:0000000000017b92 .LASF1816
C:\Users\CYMR90~1\AppData\Local\Temp\ccBmAAlS.s:28170  .debug_str:000000000001d367 .LASF1817
C:\Users\CYMR90~1\AppData\Local\Temp\ccBmAAlS.s:28614  .debug_str:000000000001ee93 .LASF1818
C:\Users\CYMR90~1\AppData\Local\Temp\ccBmAAlS.s:24859  .debug_str:000000000000fcb0 .LASF1819
C:\Users\CYMR90~1\AppData\Local\Temp\ccBmAAlS.s:29096  .debug_str:0000000000020c40 .LASF1820
C:\Users\CYMR90~1\AppData\Local\Temp\ccBmAAlS.s:22509  .debug_str:00000000000065f2 .LASF1821
C:\Users\CYMR90~1\AppData\Local\Temp\ccBmAAlS.s:27070  .debug_str:0000000000018a19 .LASF1822
C:\Users\CYMR90~1\AppData\Local\Temp\ccBmAAlS.s:28542  .debug_str:000000000001eab0 .LASF1823
C:\Users\CYMR90~1\AppData\Local\Temp\ccBmAAlS.s:31260  .debug_str:000000000002961c .LASF1824
C:\Users\CYMR90~1\AppData\Local\Temp\ccBmAAlS.s:23803  .debug_str:000000000000bab3 .LASF1825
C:\Users\CYMR90~1\AppData\Local\Temp\ccBmAAlS.s:29190  .debug_str:0000000000021170 .LASF1826
C:\Users\CYMR90~1\AppData\Local\Temp\ccBmAAlS.s:31606  .debug_str:000000000002ab20 .LASF1827
C:\Users\CYMR90~1\AppData\Local\Temp\ccBmAAlS.s:24613  .debug_str:000000000000ed96 .LASF1828
C:\Users\CYMR90~1\AppData\Local\Temp\ccBmAAlS.s:24685  .debug_str:000000000000f1c2 .LASF1829
C:\Users\CYMR90~1\AppData\Local\Temp\ccBmAAlS.s:25463  .debug_str:000000000001234f .LASF1830
C:\Users\CYMR90~1\AppData\Local\Temp\ccBmAAlS.s:23267  .debug_str:000000000000975a .LASF1831
C:\Users\CYMR90~1\AppData\Local\Temp\ccBmAAlS.s:30646  .debug_str:0000000000026d7e .LASF1832
C:\Users\CYMR90~1\AppData\Local\Temp\ccBmAAlS.s:24063  .debug_str:000000000000cc02 .LASF1833
C:\Users\CYMR90~1\AppData\Local\Temp\ccBmAAlS.s:22719  .debug_str:00000000000073b8 .LASF1834
C:\Users\CYMR90~1\AppData\Local\Temp\ccBmAAlS.s:26469  .debug_str:00000000000162f3 .LASF1835
C:\Users\CYMR90~1\AppData\Local\Temp\ccBmAAlS.s:30516  .debug_str:00000000000265b5 .LASF1836
C:\Users\CYMR90~1\AppData\Local\Temp\ccBmAAlS.s:26439  .debug_str:0000000000016133 .LASF1837
C:\Users\CYMR90~1\AppData\Local\Temp\ccBmAAlS.s:27156  .debug_str:0000000000019004 .LASF1838
C:\Users\CYMR90~1\AppData\Local\Temp\ccBmAAlS.s:25103  .debug_str:0000000000010c4c .LASF1839
C:\Users\CYMR90~1\AppData\Local\Temp\ccBmAAlS.s:28118  .debug_str:000000000001cf78 .LASF1840
C:\Users\CYMR90~1\AppData\Local\Temp\ccBmAAlS.s:27390  .debug_str:0000000000019fa5 .LASF1841
C:\Users\CYMR90~1\AppData\Local\Temp\ccBmAAlS.s:30192  .debug_str:0000000000024fc9 .LASF1842
C:\Users\CYMR90~1\AppData\Local\Temp\ccBmAAlS.s:30600  .debug_str:0000000000026ae8 .LASF1843
C:\Users\CYMR90~1\AppData\Local\Temp\ccBmAAlS.s:31804  .debug_str:000000000002b799 .LASF1844
C:\Users\CYMR90~1\AppData\Local\Temp\ccBmAAlS.s:31662  .debug_str:000000000002ae58 .LASF1845
C:\Users\CYMR90~1\AppData\Local\Temp\ccBmAAlS.s:22995  .debug_str:00000000000086b0 .LASF1846
C:\Users\CYMR90~1\AppData\Local\Temp\ccBmAAlS.s:28322  .debug_str:000000000001dca2 .LASF1847
C:\Users\CYMR90~1\AppData\Local\Temp\ccBmAAlS.s:29466  .debug_str:0000000000022282 .LASF1848
C:\Users\CYMR90~1\AppData\Local\Temp\ccBmAAlS.s:29480  .debug_str:0000000000022336 .LASF1849
C:\Users\CYMR90~1\AppData\Local\Temp\ccBmAAlS.s:28702  .debug_str:000000000001f401 .LASF1850
C:\Users\CYMR90~1\AppData\Local\Temp\ccBmAAlS.s:23055  .debug_str:0000000000008a7b .LASF1851
C:\Users\CYMR90~1\AppData\Local\Temp\ccBmAAlS.s:30554  .debug_str:000000000002681c .LASF1852
C:\Users\CYMR90~1\AppData\Local\Temp\ccBmAAlS.s:24299  .debug_str:000000000000da87 .LASF1853
C:\Users\CYMR90~1\AppData\Local\Temp\ccBmAAlS.s:21697  .debug_str:0000000000003274 .LASF1854
C:\Users\CYMR90~1\AppData\Local\Temp\ccBmAAlS.s:28200  .debug_str:000000000001d526 .LASF1855
C:\Users\CYMR90~1\AppData\Local\Temp\ccBmAAlS.s:30828  .debug_str:000000000002795d .LASF1856
C:\Users\CYMR90~1\AppData\Local\Temp\ccBmAAlS.s:23145  .debug_str:0000000000009023 .LASF1857
C:\Users\CYMR90~1\AppData\Local\Temp\ccBmAAlS.s:23989  .debug_str:000000000000c6cd .LASF1858
C:\Users\CYMR90~1\AppData\Local\Temp\ccBmAAlS.s:30920  .debug_str:0000000000027f75 .LASF1859
C:\Users\CYMR90~1\AppData\Local\Temp\ccBmAAlS.s:26165  .debug_str:0000000000015020 .LASF1860
C:\Users\CYMR90~1\AppData\Local\Temp\ccBmAAlS.s:27096  .debug_str:0000000000018c34 .LASF1861
C:\Users\CYMR90~1\AppData\Local\Temp\ccBmAAlS.s:24911  .debug_str:000000000000fffe .LASF1862
C:\Users\CYMR90~1\AppData\Local\Temp\ccBmAAlS.s:22675  .debug_str:000000000000707f .LASF1863
C:\Users\CYMR90~1\AppData\Local\Temp\ccBmAAlS.s:27006  .debug_str:0000000000018624 .LASF1864
C:\Users\CYMR90~1\AppData\Local\Temp\ccBmAAlS.s:22309  .debug_str:00000000000059e4 .LASF1865
C:\Users\CYMR90~1\AppData\Local\Temp\ccBmAAlS.s:29660  .debug_str:0000000000022e28 .LASF1866
C:\Users\CYMR90~1\AppData\Local\Temp\ccBmAAlS.s:28886  .debug_str:000000000001ff41 .LASF1867
C:\Users\CYMR90~1\AppData\Local\Temp\ccBmAAlS.s:23919  .debug_str:000000000000c25a .LASF1868
C:\Users\CYMR90~1\AppData\Local\Temp\ccBmAAlS.s:21027  .debug_str:00000000000008ea .LASF1869
C:\Users\CYMR90~1\AppData\Local\Temp\ccBmAAlS.s:22975  .debug_str:0000000000008562 .LASF1870
C:\Users\CYMR90~1\AppData\Local\Temp\ccBmAAlS.s:31200  .debug_str:000000000002920d .LASF1871
C:\Users\CYMR90~1\AppData\Local\Temp\ccBmAAlS.s:30296  .debug_str:0000000000025796 .LASF1872
C:\Users\CYMR90~1\AppData\Local\Temp\ccBmAAlS.s:26307  .debug_str:000000000001584c .LASF1873
C:\Users\CYMR90~1\AppData\Local\Temp\ccBmAAlS.s:22837  .debug_str:0000000000007b3b .LASF1874
C:\Users\CYMR90~1\AppData\Local\Temp\ccBmAAlS.s:23721  .debug_str:000000000000b4a5 .LASF1875
C:\Users\CYMR90~1\AppData\Local\Temp\ccBmAAlS.s:31384  .debug_str:0000000000029dcb .LASF1876
C:\Users\CYMR90~1\AppData\Local\Temp\ccBmAAlS.s:27624  .debug_str:000000000001afd3 .LASF1877
C:\Users\CYMR90~1\AppData\Local\Temp\ccBmAAlS.s:28376  .debug_str:000000000001e072 .LASF1878
C:\Users\CYMR90~1\AppData\Local\Temp\ccBmAAlS.s:24751  .debug_str:000000000000f5a7 .LASF1879
C:\Users\CYMR90~1\AppData\Local\Temp\ccBmAAlS.s:23101  .debug_str:0000000000008d46 .LASF1880
C:\Users\CYMR90~1\AppData\Local\Temp\ccBmAAlS.s:28682  .debug_str:000000000001f2c4 .LASF1881
C:\Users\CYMR90~1\AppData\Local\Temp\ccBmAAlS.s:21135  .debug_str:0000000000001012 .LASF1882
C:\Users\CYMR90~1\AppData\Local\Temp\ccBmAAlS.s:29086  .debug_str:0000000000020b7e .LASF1883
C:\Users\CYMR90~1\AppData\Local\Temp\ccBmAAlS.s:31800  .debug_str:000000000002b751 .LASF1884
C:\Users\CYMR90~1\AppData\Local\Temp\ccBmAAlS.s:28792  .debug_str:000000000001f948 .LASF1885
C:\Users\CYMR90~1\AppData\Local\Temp\ccBmAAlS.s:30936  .debug_str:0000000000028075 .LASF1886
C:\Users\CYMR90~1\AppData\Local\Temp\ccBmAAlS.s:23325  .debug_str:0000000000009b1b .LASF1887
C:\Users\CYMR90~1\AppData\Local\Temp\ccBmAAlS.s:23131  .debug_str:0000000000008f44 .LASF1888
C:\Users\CYMR90~1\AppData\Local\Temp\ccBmAAlS.s:31832  .debug_str:000000000002b927 .LASF1889
C:\Users\CYMR90~1\AppData\Local\Temp\ccBmAAlS.s:27248  .debug_str:000000000001961c .LASF1890
C:\Users\CYMR90~1\AppData\Local\Temp\ccBmAAlS.s:23317  .debug_str:0000000000009a75 .LASF1891
C:\Users\CYMR90~1\AppData\Local\Temp\ccBmAAlS.s:23413  .debug_str:000000000000a05f .LASF1892
C:\Users\CYMR90~1\AppData\Local\Temp\ccBmAAlS.s:28000  .debug_str:000000000001c6a5 .LASF1893
C:\Users\CYMR90~1\AppData\Local\Temp\ccBmAAlS.s:23125  .debug_str:0000000000008ed8 .LASF1894
C:\Users\CYMR90~1\AppData\Local\Temp\ccBmAAlS.s:24363  .debug_str:000000000000de6c .LASF1895
C:\Users\CYMR90~1\AppData\Local\Temp\ccBmAAlS.s:26698  .debug_str:000000000001739b .LASF1896
C:\Users\CYMR90~1\AppData\Local\Temp\ccBmAAlS.s:21339  .debug_str:0000000000001cbc .LASF1897
C:\Users\CYMR90~1\AppData\Local\Temp\ccBmAAlS.s:30670  .debug_str:0000000000026f2f .LASF1898
C:\Users\CYMR90~1\AppData\Local\Temp\ccBmAAlS.s:27494  .debug_str:000000000001a71a .LASF1899
C:\Users\CYMR90~1\AppData\Local\Temp\ccBmAAlS.s:24197  .debug_str:000000000000d4cb .LASF1900
C:\Users\CYMR90~1\AppData\Local\Temp\ccBmAAlS.s:20945  .debug_str:000000000000044b .LASF1901
C:\Users\CYMR90~1\AppData\Local\Temp\ccBmAAlS.s:21775  .debug_str:0000000000003767 .LASF1902
C:\Users\CYMR90~1\AppData\Local\Temp\ccBmAAlS.s:23825  .debug_str:000000000000bbcc .LASF1903
C:\Users\CYMR90~1\AppData\Local\Temp\ccBmAAlS.s:32084  .debug_str:000000000002c967 .LASF1904
C:\Users\CYMR90~1\AppData\Local\Temp\ccBmAAlS.s:26569  .debug_str:000000000001699f .LASF1905
C:\Users\CYMR90~1\AppData\Local\Temp\ccBmAAlS.s:23285  .debug_str:000000000000982a .LASF1906
C:\Users\CYMR90~1\AppData\Local\Temp\ccBmAAlS.s:31016  .debug_str:000000000002866a .LASF1907
C:\Users\CYMR90~1\AppData\Local\Temp\ccBmAAlS.s:28042  .debug_str:000000000001ca1d .LASF1908
C:\Users\CYMR90~1\AppData\Local\Temp\ccBmAAlS.s:22297  .debug_str:000000000000591a .LASF1909
C:\Users\CYMR90~1\AppData\Local\Temp\ccBmAAlS.s:31376  .debug_str:0000000000029d4e .LASF1910
C:\Users\CYMR90~1\AppData\Local\Temp\ccBmAAlS.s:27666  .debug_str:000000000001b281 .LASF1911
C:\Users\CYMR90~1\AppData\Local\Temp\ccBmAAlS.s:27348  .debug_str:0000000000019d4b .LASF1912
C:\Users\CYMR90~1\AppData\Local\Temp\ccBmAAlS.s:23739  .debug_str:000000000000b631 .LASF1913
C:\Users\CYMR90~1\AppData\Local\Temp\ccBmAAlS.s:23583  .debug_str:000000000000ab91 .LASF1914
C:\Users\CYMR90~1\AppData\Local\Temp\ccBmAAlS.s:28990  .debug_str:000000000002056b .LASF1915
C:\Users\CYMR90~1\AppData\Local\Temp\ccBmAAlS.s:30270  .debug_str:00000000000255bc .LASF1916
C:\Users\CYMR90~1\AppData\Local\Temp\ccBmAAlS.s:26858  .debug_str:0000000000017d72 .LASF1917
C:\Users\CYMR90~1\AppData\Local\Temp\ccBmAAlS.s:23487  .debug_str:000000000000a51d .LASF1918
C:\Users\CYMR90~1\AppData\Local\Temp\ccBmAAlS.s:31430  .debug_str:000000000002a068 .LASF1919
C:\Users\CYMR90~1\AppData\Local\Temp\ccBmAAlS.s:28010  .debug_str:000000000001c748 .LASF1920
C:\Users\CYMR90~1\AppData\Local\Temp\ccBmAAlS.s:23777  .debug_str:000000000000b8d1 .LASF1921
C:\Users\CYMR90~1\AppData\Local\Temp\ccBmAAlS.s:22695  .debug_str:00000000000071f3 .LASF1922
C:\Users\CYMR90~1\AppData\Local\Temp\ccBmAAlS.s:29058  .debug_str:00000000000209d9 .LASF1923
C:\Users\CYMR90~1\AppData\Local\Temp\ccBmAAlS.s:31154  .debug_str:0000000000028f36 .LASF1924
C:\Users\CYMR90~1\AppData\Local\Temp\ccBmAAlS.s:23601  .debug_str:000000000000acd8 .LASF1925
C:\Users\CYMR90~1\AppData\Local\Temp\ccBmAAlS.s:28884  .debug_str:000000000001ff13 .LASF1926
C:\Users\CYMR90~1\AppData\Local\Temp\ccBmAAlS.s:27906  .debug_str:000000000001c107 .LASF1927
C:\Users\CYMR90~1\AppData\Local\Temp\ccBmAAlS.s:21815  .debug_str:00000000000039fb .LASF1928
C:\Users\CYMR90~1\AppData\Local\Temp\ccBmAAlS.s:22741  .debug_str:00000000000074f4 .LASF1929
C:\Users\CYMR90~1\AppData\Local\Temp\ccBmAAlS.s:28812  .debug_str:000000000001fa7d .LASF1930
C:\Users\CYMR90~1\AppData\Local\Temp\ccBmAAlS.s:32112  .debug_str:000000000002cb6a .LASF1931
C:\Users\CYMR90~1\AppData\Local\Temp\ccBmAAlS.s:31792  .debug_str:000000000002b6b7 .LASF1932
C:\Users\CYMR90~1\AppData\Local\Temp\ccBmAAlS.s:22849  .debug_str:0000000000007be5 .LASF1933
C:\Users\CYMR90~1\AppData\Local\Temp\ccBmAAlS.s:24891  .debug_str:000000000000fec6 .LASF1934
C:\Users\CYMR90~1\AppData\Local\Temp\ccBmAAlS.s:27982  .debug_str:000000000001c566 .LASF1935
C:\Users\CYMR90~1\AppData\Local\Temp\ccBmAAlS.s:22339  .debug_str:0000000000005bd1 .LASF1936
C:\Users\CYMR90~1\AppData\Local\Temp\ccBmAAlS.s:27838  .debug_str:000000000001bc69 .LASF1937
C:\Users\CYMR90~1\AppData\Local\Temp\ccBmAAlS.s:26806  .debug_str:0000000000017a7f .LASF1938
C:\Users\CYMR90~1\AppData\Local\Temp\ccBmAAlS.s:26111  .debug_str:0000000000014c70 .LASF1939
C:\Users\CYMR90~1\AppData\Local\Temp\ccBmAAlS.s:23041  .debug_str:0000000000008970 .LASF1940
C:\Users\CYMR90~1\AppData\Local\Temp\ccBmAAlS.s:31222  .debug_str:0000000000029381 .LASF1941
C:\Users\CYMR90~1\AppData\Local\Temp\ccBmAAlS.s:28100  .debug_str:000000000001cda6 .LASF1942
C:\Users\CYMR90~1\AppData\Local\Temp\ccBmAAlS.s:23959  .debug_str:000000000000c4e7 .LASF1943
C:\Users\CYMR90~1\AppData\Local\Temp\ccBmAAlS.s:25085  .debug_str:0000000000010acc .LASF1944
C:\Users\CYMR90~1\AppData\Local\Temp\ccBmAAlS.s:28918  .debug_str:000000000002013e .LASF1945
C:\Users\CYMR90~1\AppData\Local\Temp\ccBmAAlS.s:25825  .debug_str:0000000000013ab2 .LASF1946
C:\Users\CYMR90~1\AppData\Local\Temp\ccBmAAlS.s:22637  .debug_str:0000000000006e23 .LASF1947
C:\Users\CYMR90~1\AppData\Local\Temp\ccBmAAlS.s:21545  .debug_str:0000000000002913 .LASF1948
C:\Users\CYMR90~1\AppData\Local\Temp\ccBmAAlS.s:27718  .debug_str:000000000001b57e .LASF1949
C:\Users\CYMR90~1\AppData\Local\Temp\ccBmAAlS.s:24631  .debug_str:000000000000ee79 .LASF1950
C:\Users\CYMR90~1\AppData\Local\Temp\ccBmAAlS.s:21409  .debug_str:00000000000020d0 .LASF1951
C:\Users\CYMR90~1\AppData\Local\Temp\ccBmAAlS.s:29676  .debug_str:0000000000022ef9 .LASF1952
C:\Users\CYMR90~1\AppData\Local\Temp\ccBmAAlS.s:30408  .debug_str:0000000000025f11 .LASF1953
C:\Users\CYMR90~1\AppData\Local\Temp\ccBmAAlS.s:25955  .debug_str:00000000000142d7 .LASF1954
C:\Users\CYMR90~1\AppData\Local\Temp\ccBmAAlS.s:29204  .debug_str:0000000000021249 .LASF1955
C:\Users\CYMR90~1\AppData\Local\Temp\ccBmAAlS.s:29876  .debug_str:0000000000023aff .LASF1956
C:\Users\CYMR90~1\AppData\Local\Temp\ccBmAAlS.s:21465  .debug_str:00000000000023cd .LASF1957
C:\Users\CYMR90~1\AppData\Local\Temp\ccBmAAlS.s:31632  .debug_str:000000000002aca7 .LASF1958
C:\Users\CYMR90~1\AppData\Local\Temp\ccBmAAlS.s:22855  .debug_str:0000000000007c63 .LASF1959
C:\Users\CYMR90~1\AppData\Local\Temp\ccBmAAlS.s:31202  .debug_str:000000000002924c .LASF1960
C:\Users\CYMR90~1\AppData\Local\Temp\ccBmAAlS.s:28050  .debug_str:000000000001caa3 .LASF1961
C:\Users\CYMR90~1\AppData\Local\Temp\ccBmAAlS.s:20987  .debug_str:0000000000000671 .LASF1962
C:\Users\CYMR90~1\AppData\Local\Temp\ccBmAAlS.s:26355  .debug_str:0000000000015b27 .LASF1963
C:\Users\CYMR90~1\AppData\Local\Temp\ccBmAAlS.s:30250  .debug_str:000000000002545f .LASF1964
C:\Users\CYMR90~1\AppData\Local\Temp\ccBmAAlS.s:22699  .debug_str:000000000000725e .LASF1965
C:\Users\CYMR90~1\AppData\Local\Temp\ccBmAAlS.s:28190  .debug_str:000000000001d46a .LASF1966
C:\Users\CYMR90~1\AppData\Local\Temp\ccBmAAlS.s:31732  .debug_str:000000000002b293 .LASF1967
C:\Users\CYMR90~1\AppData\Local\Temp\ccBmAAlS.s:29260  .debug_str:0000000000021628 .LASF1968
C:\Users\CYMR90~1\AppData\Local\Temp\ccBmAAlS.s:29564  .debug_str:000000000002283c .LASF1969
C:\Users\CYMR90~1\AppData\Local\Temp\ccBmAAlS.s:22683  .debug_str:0000000000007122 .LASF1970
C:\Users\CYMR90~1\AppData\Local\Temp\ccBmAAlS.s:29568  .debug_str:000000000002286d .LASF1971
C:\Users\CYMR90~1\AppData\Local\Temp\ccBmAAlS.s:30288  .debug_str:00000000000256ec .LASF1972
C:\Users\CYMR90~1\AppData\Local\Temp\ccBmAAlS.s:27336  .debug_str:0000000000019c8b .LASF1973
C:\Users\CYMR90~1\AppData\Local\Temp\ccBmAAlS.s:27142  .debug_str:0000000000018f35 .LASF1974
C:\Users\CYMR90~1\AppData\Local\Temp\ccBmAAlS.s:31684  .debug_str:000000000002afef .LASF1975
C:\Users\CYMR90~1\AppData\Local\Temp\ccBmAAlS.s:22873  .debug_str:0000000000007e1b .LASF1976
C:\Users\CYMR90~1\AppData\Local\Temp\ccBmAAlS.s:23233  .debug_str:0000000000009504 .LASF1977
C:\Users\CYMR90~1\AppData\Local\Temp\ccBmAAlS.s:31452  .debug_str:000000000002a1ab .LASF1978
C:\Users\CYMR90~1\AppData\Local\Temp\ccBmAAlS.s:22163  .debug_str:0000000000005118 .LASF1979
C:\Users\CYMR90~1\AppData\Local\Temp\ccBmAAlS.s:30182  .debug_str:0000000000024f21 .LASF1980
C:\Users\CYMR90~1\AppData\Local\Temp\ccBmAAlS.s:30042  .debug_str:00000000000245f4 .LASF1981
C:\Users\CYMR90~1\AppData\Local\Temp\ccBmAAlS.s:29884  .debug_str:0000000000023b89 .LASF1982
C:\Users\CYMR90~1\AppData\Local\Temp\ccBmAAlS.s:30722  .debug_str:000000000002722e .LASF1983
C:\Users\CYMR90~1\AppData\Local\Temp\ccBmAAlS.s:31636  .debug_str:000000000002acfd .LASF1984
C:\Users\CYMR90~1\AppData\Local\Temp\ccBmAAlS.s:28572  .debug_str:000000000001ec1b .LASF1985
C:\Users\CYMR90~1\AppData\Local\Temp\ccBmAAlS.s:27748  .debug_str:000000000001b769 .LASF1986
C:\Users\CYMR90~1\AppData\Local\Temp\ccBmAAlS.s:26029  .debug_str:0000000000014748 .LASF1987
C:\Users\CYMR90~1\AppData\Local\Temp\ccBmAAlS.s:27038  .debug_str:000000000001881d .LASF1988
C:\Users\CYMR90~1\AppData\Local\Temp\ccBmAAlS.s:24057  .debug_str:000000000000cba8 .LASF1989
C:\Users\CYMR90~1\AppData\Local\Temp\ccBmAAlS.s:21911  .debug_str:0000000000004042 .LASF1990
C:\Users\CYMR90~1\AppData\Local\Temp\ccBmAAlS.s:24115  .debug_str:000000000000ced6 .LASF1991
C:\Users\CYMR90~1\AppData\Local\Temp\ccBmAAlS.s:25009  .debug_str:00000000000105f5 .LASF1992
C:\Users\CYMR90~1\AppData\Local\Temp\ccBmAAlS.s:27754  .debug_str:000000000001b7c7 .LASF1993
C:\Users\CYMR90~1\AppData\Local\Temp\ccBmAAlS.s:21131  .debug_str:0000000000000fe2 .LASF1994
C:\Users\CYMR90~1\AppData\Local\Temp\ccBmAAlS.s:30304  .debug_str:000000000002582a .LASF1995
C:\Users\CYMR90~1\AppData\Local\Temp\ccBmAAlS.s:21773  .debug_str:0000000000003733 .LASF1996
C:\Users\CYMR90~1\AppData\Local\Temp\ccBmAAlS.s:30776  .debug_str:0000000000027669 .LASF1997
C:\Users\CYMR90~1\AppData\Local\Temp\ccBmAAlS.s:23011  .debug_str:0000000000008777 .LASF1998
C:\Users\CYMR90~1\AppData\Local\Temp\ccBmAAlS.s:26960  .debug_str:000000000001837f .LASF1999
C:\Users\CYMR90~1\AppData\Local\Temp\ccBmAAlS.s:26457  .debug_str:0000000000016248 .LASF2000
C:\Users\CYMR90~1\AppData\Local\Temp\ccBmAAlS.s:25245  .debug_str:0000000000011477 .LASF2001
C:\Users\CYMR90~1\AppData\Local\Temp\ccBmAAlS.s:29576  .debug_str:00000000000228ff .LASF2002
C:\Users\CYMR90~1\AppData\Local\Temp\ccBmAAlS.s:30994  .debug_str:000000000002851d .LASF2003
C:\Users\CYMR90~1\AppData\Local\Temp\ccBmAAlS.s:24801  .debug_str:000000000000f91c .LASF2004
C:\Users\CYMR90~1\AppData\Local\Temp\ccBmAAlS.s:29468  .debug_str:000000000002229d .LASF2005
C:\Users\CYMR90~1\AppData\Local\Temp\ccBmAAlS.s:26656  .debug_str:0000000000017132 .LASF2006
C:\Users\CYMR90~1\AppData\Local\Temp\ccBmAAlS.s:31886  .debug_str:000000000002bcb4 .LASF2007
C:\Users\CYMR90~1\AppData\Local\Temp\ccBmAAlS.s:22207  .debug_str:00000000000053bf .LASF2008
C:\Users\CYMR90~1\AppData\Local\Temp\ccBmAAlS.s:25747  .debug_str:000000000001362a .LASF2009
C:\Users\CYMR90~1\AppData\Local\Temp\ccBmAAlS.s:28468  .debug_str:000000000001e614 .LASF2010
C:\Users\CYMR90~1\AppData\Local\Temp\ccBmAAlS.s:24083  .debug_str:000000000000cd45 .LASF2011
C:\Users\CYMR90~1\AppData\Local\Temp\ccBmAAlS.s:21323  .debug_str:0000000000001bd6 .LASF2012
C:\Users\CYMR90~1\AppData\Local\Temp\ccBmAAlS.s:29756  .debug_str:0000000000023374 .LASF2013
C:\Users\CYMR90~1\AppData\Local\Temp\ccBmAAlS.s:29518  .debug_str:0000000000022524 .LASF2014
C:\Users\CYMR90~1\AppData\Local\Temp\ccBmAAlS.s:27472  .debug_str:000000000001a5bd .LASF2015
C:\Users\CYMR90~1\AppData\Local\Temp\ccBmAAlS.s:31364  .debug_str:0000000000029c9a .LASF2016
C:\Users\CYMR90~1\AppData\Local\Temp\ccBmAAlS.s:29668  .debug_str:0000000000022ea2 .LASF2017
C:\Users\CYMR90~1\AppData\Local\Temp\ccBmAAlS.s:31794  .debug_str:000000000002b6e7 .LASF2018
C:\Users\CYMR90~1\AppData\Local\Temp\ccBmAAlS.s:28230  .debug_str:000000000001d6e2 .LASF2019
C:\Users\CYMR90~1\AppData\Local\Temp\ccBmAAlS.s:22573  .debug_str:00000000000069e9 .LASF2020
C:\Users\CYMR90~1\AppData\Local\Temp\ccBmAAlS.s:29712  .debug_str:00000000000230f9 .LASF2021
C:\Users\CYMR90~1\AppData\Local\Temp\ccBmAAlS.s:30712  .debug_str:00000000000271b0 .LASF2022
C:\Users\CYMR90~1\AppData\Local\Temp\ccBmAAlS.s:25127  .debug_str:0000000000010d6e .LASF2023
C:\Users\CYMR90~1\AppData\Local\Temp\ccBmAAlS.s:30648  .debug_str:0000000000026d93 .LASF2024
C:\Users\CYMR90~1\AppData\Local\Temp\ccBmAAlS.s:23801  .debug_str:000000000000ba98 .LASF2025
C:\Users\CYMR90~1\AppData\Local\Temp\ccBmAAlS.s:31746  .debug_str:000000000002b362 .LASF2026
C:\Users\CYMR90~1\AppData\Local\Temp\ccBmAAlS.s:21737  .debug_str:0000000000003526 .LASF2027
C:\Users\CYMR90~1\AppData\Local\Temp\ccBmAAlS.s:29768  .debug_str:000000000002341a .LASF2028
C:\Users\CYMR90~1\AppData\Local\Temp\ccBmAAlS.s:28780  .debug_str:000000000001f87d .LASF2029
C:\Users\CYMR90~1\AppData\Local\Temp\ccBmAAlS.s:25389  .debug_str:0000000000011e6b .LASF2030
C:\Users\CYMR90~1\AppData\Local\Temp\ccBmAAlS.s:26862  .debug_str:0000000000017db3 .LASF2031
C:\Users\CYMR90~1\AppData\Local\Temp\ccBmAAlS.s:23577  .debug_str:000000000000ab4c .LASF2032
C:\Users\CYMR90~1\AppData\Local\Temp\ccBmAAlS.s:24767  .debug_str:000000000000f72a .LASF2033
C:\Users\CYMR90~1\AppData\Local\Temp\ccBmAAlS.s:23781  .debug_str:000000000000b914 .LASF2034
C:\Users\CYMR90~1\AppData\Local\Temp\ccBmAAlS.s:25317  .debug_str:0000000000011a40 .LASF2035
C:\Users\CYMR90~1\AppData\Local\Temp\ccBmAAlS.s:29240  .debug_str:00000000000214f2 .LASF2036
C:\Users\CYMR90~1\AppData\Local\Temp\ccBmAAlS.s:29648  .debug_str:0000000000022d94 .LASF2037
C:\Users\CYMR90~1\AppData\Local\Temp\ccBmAAlS.s:30228  .debug_str:000000000002525e .LASF2038
C:\Users\CYMR90~1\AppData\Local\Temp\ccBmAAlS.s:25413  .debug_str:0000000000012033 .LASF2039
C:\Users\CYMR90~1\AppData\Local\Temp\ccBmAAlS.s:27410  .debug_str:000000000001a0cb .LASF2040
C:\Users\CYMR90~1\AppData\Local\Temp\ccBmAAlS.s:24111  .debug_str:000000000000cea9 .LASF2041
C:\Users\CYMR90~1\AppData\Local\Temp\ccBmAAlS.s:21553  .debug_str:0000000000002986 .LASF2042
C:\Users\CYMR90~1\AppData\Local\Temp\ccBmAAlS.s:22299  .debug_str:0000000000005958 .LASF2043
C:\Users\CYMR90~1\AppData\Local\Temp\ccBmAAlS.s:32162  .debug_str:000000000002cee1 .LASF2044
C:\Users\CYMR90~1\AppData\Local\Temp\ccBmAAlS.s:25715  .debug_str:0000000000013407 .LASF2045
C:\Users\CYMR90~1\AppData\Local\Temp\ccBmAAlS.s:29534  .debug_str:0000000000022630 .LASF2046
C:\Users\CYMR90~1\AppData\Local\Temp\ccBmAAlS.s:31166  .debug_str:0000000000029009 .LASF2047
C:\Users\CYMR90~1\AppData\Local\Temp\ccBmAAlS.s:27886  .debug_str:000000000001bfc7 .LASF2048
C:\Users\CYMR90~1\AppData\Local\Temp\ccBmAAlS.s:22891  .debug_str:0000000000007f46 .LASF2049
C:\Users\CYMR90~1\AppData\Local\Temp\ccBmAAlS.s:22361  .debug_str:0000000000005d12 .LASF2050
C:\Users\CYMR90~1\AppData\Local\Temp\ccBmAAlS.s:21723  .debug_str:000000000000342c .LASF2051
C:\Users\CYMR90~1\AppData\Local\Temp\ccBmAAlS.s:23687  .debug_str:000000000000b2c7 .LASF2052
C:\Users\CYMR90~1\AppData\Local\Temp\ccBmAAlS.s:30268  .debug_str:0000000000025575 .LASF2053
C:\Users\CYMR90~1\AppData\Local\Temp\ccBmAAlS.s:31590  .debug_str:000000000002aa46 .LASF2054
C:\Users\CYMR90~1\AppData\Local\Temp\ccBmAAlS.s:22171  .debug_str:0000000000005197 .LASF2055
C:\Users\CYMR90~1\AppData\Local\Temp\ccBmAAlS.s:30604  .debug_str:0000000000026b1f .LASF2056
C:\Users\CYMR90~1\AppData\Local\Temp\ccBmAAlS.s:28590  .debug_str:000000000001ed29 .LASF2057
C:\Users\CYMR90~1\AppData\Local\Temp\ccBmAAlS.s:26716  .debug_str:00000000000174a5 .LASF2058
C:\Users\CYMR90~1\AppData\Local\Temp\ccBmAAlS.s:23567  .debug_str:000000000000aaa3 .LASF2059
C:\Users\CYMR90~1\AppData\Local\Temp\ccBmAAlS.s:24355  .debug_str:000000000000ddec .LASF2060
C:\Users\CYMR90~1\AppData\Local\Temp\ccBmAAlS.s:29044  .debug_str:000000000002093d .LASF2061
C:\Users\CYMR90~1\AppData\Local\Temp\ccBmAAlS.s:25853  .debug_str:0000000000013c63 .LASF2062
C:\Users\CYMR90~1\AppData\Local\Temp\ccBmAAlS.s:21525  .debug_str:00000000000027a3 .LASF2063
C:\Users\CYMR90~1\AppData\Local\Temp\ccBmAAlS.s:27612  .debug_str:000000000001aec2 .LASF2064
C:\Users\CYMR90~1\AppData\Local\Temp\ccBmAAlS.s:26489  .debug_str:000000000001641d .LASF2065
C:\Users\CYMR90~1\AppData\Local\Temp\ccBmAAlS.s:23249  .debug_str:00000000000095e4 .LASF2066
C:\Users\CYMR90~1\AppData\Local\Temp\ccBmAAlS.s:23715  .debug_str:000000000000b447 .LASF2067
C:\Users\CYMR90~1\AppData\Local\Temp\ccBmAAlS.s:26812  .debug_str:0000000000017ad6 .LASF2068
C:\Users\CYMR90~1\AppData\Local\Temp\ccBmAAlS.s:26431  .debug_str:0000000000016092 .LASF2069
C:\Users\CYMR90~1\AppData\Local\Temp\ccBmAAlS.s:24253  .debug_str:000000000000d7fb .LASF2070
C:\Users\CYMR90~1\AppData\Local\Temp\ccBmAAlS.s:22333  .debug_str:0000000000005b8a .LASF2071
C:\Users\CYMR90~1\AppData\Local\Temp\ccBmAAlS.s:25571  .debug_str:0000000000012a77 .LASF2072
C:\Users\CYMR90~1\AppData\Local\Temp\ccBmAAlS.s:24589  .debug_str:000000000000ec5d .LASF2073
C:\Users\CYMR90~1\AppData\Local\Temp\ccBmAAlS.s:23837  .debug_str:000000000000bc99 .LASF2074
C:\Users\CYMR90~1\AppData\Local\Temp\ccBmAAlS.s:31966  .debug_str:000000000002c1fb .LASF2075
C:\Users\CYMR90~1\AppData\Local\Temp\ccBmAAlS.s:23117  .debug_str:0000000000008e9a .LASF2076
C:\Users\CYMR90~1\AppData\Local\Temp\ccBmAAlS.s:31250  .debug_str:000000000002958a .LASF2077
C:\Users\CYMR90~1\AppData\Local\Temp\ccBmAAlS.s:31868  .debug_str:000000000002bbad .LASF2078
C:\Users\CYMR90~1\AppData\Local\Temp\ccBmAAlS.s:21289  .debug_str:00000000000019ac .LASF2079
C:\Users\CYMR90~1\AppData\Local\Temp\ccBmAAlS.s:29798  .debug_str:0000000000023633 .LASF2080
C:\Users\CYMR90~1\AppData\Local\Temp\ccBmAAlS.s:31130  .debug_str:0000000000028dd3 .LASF2081
C:\Users\CYMR90~1\AppData\Local\Temp\ccBmAAlS.s:31224  .debug_str:00000000000293a9 .LASF2082
C:\Users\CYMR90~1\AppData\Local\Temp\ccBmAAlS.s:25439  .debug_str:00000000000121af .LASF2083
C:\Users\CYMR90~1\AppData\Local\Temp\ccBmAAlS.s:22895  .debug_str:0000000000007f8d .LASF2084
C:\Users\CYMR90~1\AppData\Local\Temp\ccBmAAlS.s:29682  .debug_str:0000000000022f57 .LASF2085
C:\Users\CYMR90~1\AppData\Local\Temp\ccBmAAlS.s:21183  .debug_str:00000000000012d0 .LASF2086
C:\Users\CYMR90~1\AppData\Local\Temp\ccBmAAlS.s:21041  .debug_str:00000000000009c6 .LASF2087
C:\Users\CYMR90~1\AppData\Local\Temp\ccBmAAlS.s:27670  .debug_str:000000000001b2c7 .LASF2088
C:\Users\CYMR90~1\AppData\Local\Temp\ccBmAAlS.s:28750  .debug_str:000000000001f6d0 .LASF2089
C:\Users\CYMR90~1\AppData\Local\Temp\ccBmAAlS.s:26644  .debug_str:0000000000017079 .LASF2090
C:\Users\CYMR90~1\AppData\Local\Temp\ccBmAAlS.s:25373  .debug_str:0000000000011d83 .LASF2091
C:\Users\CYMR90~1\AppData\Local\Temp\ccBmAAlS.s:26742  .debug_str:0000000000017642 .LASF2092
C:\Users\CYMR90~1\AppData\Local\Temp\ccBmAAlS.s:25883  .debug_str:0000000000013e25 .LASF2093
C:\Users\CYMR90~1\AppData\Local\Temp\ccBmAAlS.s:31960  .debug_str:000000000002c1a7 .LASF2094
C:\Users\CYMR90~1\AppData\Local\Temp\ccBmAAlS.s:21937  .debug_str:0000000000004250 .LASF2095
C:\Users\CYMR90~1\AppData\Local\Temp\ccBmAAlS.s:23365  .debug_str:0000000000009d6a .LASF2096
C:\Users\CYMR90~1\AppData\Local\Temp\ccBmAAlS.s:21693  .debug_str:0000000000003211 .LASF2097
C:\Users\CYMR90~1\AppData\Local\Temp\ccBmAAlS.s:30418  .debug_str:0000000000025faf .LASF2098
C:\Users\CYMR90~1\AppData\Local\Temp\ccBmAAlS.s:24923  .debug_str:00000000000100d2 .LASF2099
C:\Users\CYMR90~1\AppData\Local\Temp\ccBmAAlS.s:23723  .debug_str:000000000000b4ce .LASF2100
C:\Users\CYMR90~1\AppData\Local\Temp\ccBmAAlS.s:22507  .debug_str:00000000000065cf .LASF2101
C:\Users\CYMR90~1\AppData\Local\Temp\ccBmAAlS.s:21603  .debug_str:0000000000002c82 .LASF2102
C:\Users\CYMR90~1\AppData\Local\Temp\ccBmAAlS.s:23405  .debug_str:0000000000009fb8 .LASF2103
C:\Users\CYMR90~1\AppData\Local\Temp\ccBmAAlS.s:31916  .debug_str:000000000002be90 .LASF2104
C:\Users\CYMR90~1\AppData\Local\Temp\ccBmAAlS.s:26740  .debug_str:000000000001761e .LASF2105
C:\Users\CYMR90~1\AppData\Local\Temp\ccBmAAlS.s:21711  .debug_str:0000000000003354 .LASF2106
C:\Users\CYMR90~1\AppData\Local\Temp\ccBmAAlS.s:31190  .debug_str:0000000000029194 .LASF2107
C:\Users\CYMR90~1\AppData\Local\Temp\ccBmAAlS.s:25407  .debug_str:0000000000011fb9 .LASF2108
C:\Users\CYMR90~1\AppData\Local\Temp\ccBmAAlS.s:21727  .debug_str:000000000000346a .LASF2109
C:\Users\CYMR90~1\AppData\Local\Temp\ccBmAAlS.s:24157  .debug_str:000000000000d183 .LASF2110
C:\Users\CYMR90~1\AppData\Local\Temp\ccBmAAlS.s:26690  .debug_str:0000000000017303 .LASF2111
C:\Users\CYMR90~1\AppData\Local\Temp\ccBmAAlS.s:28770  .debug_str:000000000001f7f7 .LASF2112
C:\Users\CYMR90~1\AppData\Local\Temp\ccBmAAlS.s:31358  .debug_str:0000000000029c40 .LASF2113
C:\Users\CYMR90~1\AppData\Local\Temp\ccBmAAlS.s:30758  .debug_str:000000000002754a .LASF2114
C:\Users\CYMR90~1\AppData\Local\Temp\ccBmAAlS.s:25771  .debug_str:0000000000013775 .LASF2115
C:\Users\CYMR90~1\AppData\Local\Temp\ccBmAAlS.s:27602  .debug_str:000000000001adfd .LASF2116
C:\Users\CYMR90~1\AppData\Local\Temp\ccBmAAlS.s:25967  .debug_str:0000000000014374 .LASF2117
C:\Users\CYMR90~1\AppData\Local\Temp\ccBmAAlS.s:30032  .debug_str:0000000000024564 .LASF2118
C:\Users\CYMR90~1\AppData\Local\Temp\ccBmAAlS.s:28712  .debug_str:000000000001f49f .LASF2119
C:\Users\CYMR90~1\AppData\Local\Temp\ccBmAAlS.s:21557  .debug_str:00000000000029bd .LASF2120
C:\Users\CYMR90~1\AppData\Local\Temp\ccBmAAlS.s:29144  .debug_str:0000000000020ef9 .LASF2121
C:\Users\CYMR90~1\AppData\Local\Temp\ccBmAAlS.s:22969  .debug_str:00000000000084f8 .LASF2122
C:\Users\CYMR90~1\AppData\Local\Temp\ccBmAAlS.s:25823  .debug_str:0000000000013a8e .LASF2123
C:\Users\CYMR90~1\AppData\Local\Temp\ccBmAAlS.s:28452  .debug_str:000000000001e4e4 .LASF2124
C:\Users\CYMR90~1\AppData\Local\Temp\ccBmAAlS.s:25667  .debug_str:00000000000130b1 .LASF2125
C:\Users\CYMR90~1\AppData\Local\Temp\ccBmAAlS.s:26804  .debug_str:0000000000017a58 .LASF2126
C:\Users\CYMR90~1\AppData\Local\Temp\ccBmAAlS.s:30736  .debug_str:0000000000027339 .LASF2127
C:\Users\CYMR90~1\AppData\Local\Temp\ccBmAAlS.s:29254  .debug_str:00000000000215b4 .LASF2128
C:\Users\CYMR90~1\AppData\Local\Temp\ccBmAAlS.s:25123  .debug_str:0000000000010d33 .LASF2129
C:\Users\CYMR90~1\AppData\Local\Temp\ccBmAAlS.s:29160  .debug_str:0000000000020fd3 .LASF2130
C:\Users\CYMR90~1\AppData\Local\Temp\ccBmAAlS.s:27028  .debug_str:0000000000018788 .LASF2131
C:\Users\CYMR90~1\AppData\Local\Temp\ccBmAAlS.s:28986  .debug_str:0000000000020525 .LASF2132
C:\Users\CYMR90~1\AppData\Local\Temp\ccBmAAlS.s:25311  .debug_str:00000000000119ca .LASF2133
C:\Users\CYMR90~1\AppData\Local\Temp\ccBmAAlS.s:21701  .debug_str:00000000000032b6 .LASF2134
C:\Users\CYMR90~1\AppData\Local\Temp\ccBmAAlS.s:21433  .debug_str:000000000000221f .LASF2135
C:\Users\CYMR90~1\AppData\Local\Temp\ccBmAAlS.s:27188  .debug_str:00000000000192a0 .LASF2136
C:\Users\CYMR90~1\AppData\Local\Temp\ccBmAAlS.s:31460  .debug_str:000000000002a23a .LASF2137
C:\Users\CYMR90~1\AppData\Local\Temp\ccBmAAlS.s:22971  .debug_str:000000000000851d .LASF2138
C:\Users\CYMR90~1\AppData\Local\Temp\ccBmAAlS.s:29352  .debug_str:0000000000021bbd .LASF2139
C:\Users\CYMR90~1\AppData\Local\Temp\ccBmAAlS.s:25223  .debug_str:00000000000112f1 .LASF2140
C:\Users\CYMR90~1\AppData\Local\Temp\ccBmAAlS.s:24711  .debug_str:000000000000f364 .LASF2141
C:\Users\CYMR90~1\AppData\Local\Temp\ccBmAAlS.s:28728  .debug_str:000000000001f59a .LASF2142
C:\Users\CYMR90~1\AppData\Local\Temp\ccBmAAlS.s:29278  .debug_str:0000000000021718 .LASF2143
C:\Users\CYMR90~1\AppData\Local\Temp\ccBmAAlS.s:25505  .debug_str:0000000000012601 .LASF2144
C:\Users\CYMR90~1\AppData\Local\Temp\ccBmAAlS.s:21729  .debug_str:0000000000003491 .LASF2145
C:\Users\CYMR90~1\AppData\Local\Temp\ccBmAAlS.s:20899  .debug_str:000000000000014f .LASF2146
C:\Users\CYMR90~1\AppData\Local\Temp\ccBmAAlS.s:21315  .debug_str:0000000000001b3a .LASF2147
C:\Users\CYMR90~1\AppData\Local\Temp\ccBmAAlS.s:26748  .debug_str:0000000000017698 .LASF2148
C:\Users\CYMR90~1\AppData\Local\Temp\ccBmAAlS.s:31156  .debug_str:0000000000028f76 .LASF2149
C:\Users\CYMR90~1\AppData\Local\Temp\ccBmAAlS.s:30760  .debug_str:0000000000027571 .LASF2150
C:\Users\CYMR90~1\AppData\Local\Temp\ccBmAAlS.s:25773  .debug_str:000000000001379c .LASF2151
C:\Users\CYMR90~1\AppData\Local\Temp\ccBmAAlS.s:24325  .debug_str:000000000000dbd2 .LASF2152
C:\Users\CYMR90~1\AppData\Local\Temp\ccBmAAlS.s:31316  .debug_str:0000000000029a09 .LASF2153
C:\Users\CYMR90~1\AppData\Local\Temp\ccBmAAlS.s:26531  .debug_str:000000000001670c .LASF2154
C:\Users\CYMR90~1\AppData\Local\Temp\ccBmAAlS.s:21243  .debug_str:0000000000001656 .LASF2155
C:\Users\CYMR90~1\AppData\Local\Temp\ccBmAAlS.s:21803  .debug_str:0000000000003955 .LASF2156
C:\Users\CYMR90~1\AppData\Local\Temp\ccBmAAlS.s:30724  .debug_str:0000000000027251 .LASF2157
C:\Users\CYMR90~1\AppData\Local\Temp\ccBmAAlS.s:25161  .debug_str:0000000000010f5c .LASF2158
C:\Users\CYMR90~1\AppData\Local\Temp\ccBmAAlS.s:27090  .debug_str:0000000000018b5c .LASF2159
C:\Users\CYMR90~1\AppData\Local\Temp\ccBmAAlS.s:30526  .debug_str:0000000000026676 .LASF2160
C:\Users\CYMR90~1\AppData\Local\Temp\ccBmAAlS.s:23149  .debug_str:0000000000009065 .LASF2161
C:\Users\CYMR90~1\AppData\Local\Temp\ccBmAAlS.s:31440  .debug_str:000000000002a10e .LASF2162
C:\Users\CYMR90~1\AppData\Local\Temp\ccBmAAlS.s:32150  .debug_str:000000000002cdbf .LASF2163
C:\Users\CYMR90~1\AppData\Local\Temp\ccBmAAlS.s:21837  .debug_str:0000000000003b84 .LASF2164
C:\Users\CYMR90~1\AppData\Local\Temp\ccBmAAlS.s:29778  .debug_str:00000000000234b6 .LASF2165
C:\Users\CYMR90~1\AppData\Local\Temp\ccBmAAlS.s:27172  .debug_str:00000000000191d9 .LASF2166
C:\Users\CYMR90~1\AppData\Local\Temp\ccBmAAlS.s:24705  .debug_str:000000000000f30d .LASF2167
C:\Users\CYMR90~1\AppData\Local\Temp\ccBmAAlS.s:23003  .debug_str:000000000000870b .LASF2168
C:\Users\CYMR90~1\AppData\Local\Temp\ccBmAAlS.s:28286  .debug_str:000000000001da9c .LASF2169
C:\Users\CYMR90~1\AppData\Local\Temp\ccBmAAlS.s:26479  .debug_str:0000000000016395 .LASF2170
C:\Users\CYMR90~1\AppData\Local\Temp\ccBmAAlS.s:24477  .debug_str:000000000000e513 .LASF2171
C:\Users\CYMR90~1\AppData\Local\Temp\ccBmAAlS.s:24619  .debug_str:000000000000edd8 .LASF2172
C:\Users\CYMR90~1\AppData\Local\Temp\ccBmAAlS.s:28732  .debug_str:000000000001f5d1 .LASF2173
C:\Users\CYMR90~1\AppData\Local\Temp\ccBmAAlS.s:26419  .debug_str:0000000000015fb5 .LASF2174
C:\Users\CYMR90~1\AppData\Local\Temp\ccBmAAlS.s:25367  .debug_str:0000000000011d41 .LASF2175
C:\Users\CYMR90~1\AppData\Local\Temp\ccBmAAlS.s:28518  .debug_str:000000000001e933 .LASF2176
C:\Users\CYMR90~1\AppData\Local\Temp\ccBmAAlS.s:23725  .debug_str:000000000000b4dd .LASF2177
C:\Users\CYMR90~1\AppData\Local\Temp\ccBmAAlS.s:29430  .debug_str:000000000002205c .LASF2178
C:\Users\CYMR90~1\AppData\Local\Temp\ccBmAAlS.s:24339  .debug_str:000000000000dccb .LASF2179
C:\Users\CYMR90~1\AppData\Local\Temp\ccBmAAlS.s:22845  .debug_str:0000000000007baf .LASF2180
C:\Users\CYMR90~1\AppData\Local\Temp\ccBmAAlS.s:25607  .debug_str:0000000000012ccf .LASF2181
C:\Users\CYMR90~1\AppData\Local\Temp\ccBmAAlS.s:24505  .debug_str:000000000000e714 .LASF2182
C:\Users\CYMR90~1\AppData\Local\Temp\ccBmAAlS.s:26453  .debug_str:0000000000016212 .LASF2183
C:\Users\CYMR90~1\AppData\Local\Temp\ccBmAAlS.s:21955  .debug_str:000000000000434f .LASF2184
C:\Users\CYMR90~1\AppData\Local\Temp\ccBmAAlS.s:24793  .debug_str:000000000000f8c0 .LASF2185
C:\Users\CYMR90~1\AppData\Local\Temp\ccBmAAlS.s:31704  .debug_str:000000000002b10e .LASF2186
C:\Users\CYMR90~1\AppData\Local\Temp\ccBmAAlS.s:28528  .debug_str:000000000001e9d3 .LASF2187
C:\Users\CYMR90~1\AppData\Local\Temp\ccBmAAlS.s:23349  .debug_str:0000000000009c98 .LASF2188
C:\Users\CYMR90~1\AppData\Local\Temp\ccBmAAlS.s:27508  .debug_str:000000000001a886 .LASF2189
C:\Users\CYMR90~1\AppData\Local\Temp\ccBmAAlS.s:21895  .debug_str:0000000000003eed .LASF2190
C:\Users\CYMR90~1\AppData\Local\Temp\ccBmAAlS.s:23451  .debug_str:000000000000a2c3 .LASF2191
C:\Users\CYMR90~1\AppData\Local\Temp\ccBmAAlS.s:28610  .debug_str:000000000001ee3f .LASF2192
C:\Users\CYMR90~1\AppData\Local\Temp\ccBmAAlS.s:21819  .debug_str:0000000000003a48 .LASF2193
C:\Users\CYMR90~1\AppData\Local\Temp\ccBmAAlS.s:25251  .debug_str:00000000000114cd .LASF2194
C:\Users\CYMR90~1\AppData\Local\Temp\ccBmAAlS.s:21581  .debug_str:0000000000002b1a .LASF2195
C:\Users\CYMR90~1\AppData\Local\Temp\ccBmAAlS.s:22797  .debug_str:000000000000786f .LASF2196
C:\Users\CYMR90~1\AppData\Local\Temp\ccBmAAlS.s:26129  .debug_str:0000000000014dae .LASF2197
C:\Users\CYMR90~1\AppData\Local\Temp\ccBmAAlS.s:23071  .debug_str:0000000000008b77 .LASF2198
C:\Users\CYMR90~1\AppData\Local\Temp\ccBmAAlS.s:28980  .debug_str:00000000000204dc .LASF2199
C:\Users\CYMR90~1\AppData\Local\Temp\ccBmAAlS.s:23591  .debug_str:000000000000ac2b .LASF2200
C:\Users\CYMR90~1\AppData\Local\Temp\ccBmAAlS.s:29494  .debug_str:00000000000223f9 .LASF2201
C:\Users\CYMR90~1\AppData\Local\Temp\ccBmAAlS.s:28816  .debug_str:000000000001fabe .LASF2202
C:\Users\CYMR90~1\AppData\Local\Temp\ccBmAAlS.s:29998  .debug_str:00000000000242ef .LASF2203
C:\Users\CYMR90~1\AppData\Local\Temp\ccBmAAlS.s:30590  .debug_str:0000000000026a5b .LASF2204
C:\Users\CYMR90~1\AppData\Local\Temp\ccBmAAlS.s:30422  .debug_str:0000000000025fe2 .LASF2205
C:\Users\CYMR90~1\AppData\Local\Temp\ccBmAAlS.s:30050  .debug_str:000000000002465b .LASF2206
C:\Users\CYMR90~1\AppData\Local\Temp\ccBmAAlS.s:29110  .debug_str:0000000000020d0e .LASF2207
C:\Users\CYMR90~1\AppData\Local\Temp\ccBmAAlS.s:24971  .debug_str:0000000000010394 .LASF2208
C:\Users\CYMR90~1\AppData\Local\Temp\ccBmAAlS.s:27138  .debug_str:0000000000018ee7 .LASF2209
C:\Users\CYMR90~1\AppData\Local\Temp\ccBmAAlS.s:28958  .debug_str:000000000002034b .LASF2210
C:\Users\CYMR90~1\AppData\Local\Temp\ccBmAAlS.s:23849  .debug_str:000000000000bda2 .LASF2211
C:\Users\CYMR90~1\AppData\Local\Temp\ccBmAAlS.s:22571  .debug_str:00000000000069c1 .LASF2212
C:\Users\CYMR90~1\AppData\Local\Temp\ccBmAAlS.s:25149  .debug_str:0000000000010e85 .LASF2213
C:\Users\CYMR90~1\AppData\Local\Temp\ccBmAAlS.s:31968  .debug_str:000000000002c20c .LASF2214
C:\Users\CYMR90~1\AppData\Local\Temp\ccBmAAlS.s:25869  .debug_str:0000000000013d3a .LASF2215
C:\Users\CYMR90~1\AppData\Local\Temp\ccBmAAlS.s:23551  .debug_str:000000000000a8e7 .LASF2216
C:\Users\CYMR90~1\AppData\Local\Temp\ccBmAAlS.s:27744  .debug_str:000000000001b731 .LASF2217
C:\Users\CYMR90~1\AppData\Local\Temp\ccBmAAlS.s:27062  .debug_str:00000000000189a5 .LASF2218
C:\Users\CYMR90~1\AppData\Local\Temp\ccBmAAlS.s:31736  .debug_str:000000000002b2d0 .LASF2219
C:\Users\CYMR90~1\AppData\Local\Temp\ccBmAAlS.s:28312  .debug_str:000000000001dc24 .LASF2220
C:\Users\CYMR90~1\AppData\Local\Temp\ccBmAAlS.s:27150  .debug_str:0000000000018f85 .LASF2221
C:\Users\CYMR90~1\AppData\Local\Temp\ccBmAAlS.s:25541  .debug_str:000000000001285c .LASF2222
C:\Users\CYMR90~1\AppData\Local\Temp\ccBmAAlS.s:27788  .debug_str:000000000001b95c .LASF2223
C:\Users\CYMR90~1\AppData\Local\Temp\ccBmAAlS.s:30414  .debug_str:0000000000025f74 .LASF2224
C:\Users\CYMR90~1\AppData\Local\Temp\ccBmAAlS.s:20923  .debug_str:00000000000002cb .LASF2225
C:\Users\CYMR90~1\AppData\Local\Temp\ccBmAAlS.s:22029  .debug_str:000000000000484c .LASF2226
C:\Users\CYMR90~1\AppData\Local\Temp\ccBmAAlS.s:27338  .debug_str:0000000000019c9c .LASF2227
C:\Users\CYMR90~1\AppData\Local\Temp\ccBmAAlS.s:26616  .debug_str:0000000000016ead .LASF2228
C:\Users\CYMR90~1\AppData\Local\Temp\ccBmAAlS.s:28360  .debug_str:000000000001df7f .LASF2229
C:\Users\CYMR90~1\AppData\Local\Temp\ccBmAAlS.s:21999  .debug_str:0000000000004634 .LASF2230
C:\Users\CYMR90~1\AppData\Local\Temp\ccBmAAlS.s:28582  .debug_str:000000000001eca0 .LASF2231
C:\Users\CYMR90~1\AppData\Local\Temp\ccBmAAlS.s:21301  .debug_str:0000000000001a5e .LASF2232
C:\Users\CYMR90~1\AppData\Local\Temp\ccBmAAlS.s:27326  .debug_str:0000000000019bd8 .LASF2233
C:\Users\CYMR90~1\AppData\Local\Temp\ccBmAAlS.s:24021  .debug_str:000000000000c91f .LASF2234
C:\Users\CYMR90~1\AppData\Local\Temp\ccBmAAlS.s:22237  .debug_str:00000000000055a8 .LASF2235
C:\Users\CYMR90~1\AppData\Local\Temp\ccBmAAlS.s:31922  .debug_str:000000000002beed .LASF2236
C:\Users\CYMR90~1\AppData\Local\Temp\ccBmAAlS.s:24481  .debug_str:000000000000e54e .LASF2237
C:\Users\CYMR90~1\AppData\Local\Temp\ccBmAAlS.s:29230  .debug_str:0000000000021456 .LASF2238
C:\Users\CYMR90~1\AppData\Local\Temp\ccBmAAlS.s:28264  .debug_str:000000000001d939 .LASF2239
C:\Users\CYMR90~1\AppData\Local\Temp\ccBmAAlS.s:28194  .debug_str:000000000001d4a7 .LASF2240
C:\Users\CYMR90~1\AppData\Local\Temp\ccBmAAlS.s:21359  .debug_str:0000000000001dfb .LASF2241
C:\Users\CYMR90~1\AppData\Local\Temp\ccBmAAlS.s:29248  .debug_str:0000000000021560 .LASF2242
C:\Users\CYMR90~1\AppData\Local\Temp\ccBmAAlS.s:30804  .debug_str:00000000000277f3 .LASF2243
C:\Users\CYMR90~1\AppData\Local\Temp\ccBmAAlS.s:24231  .debug_str:000000000000d6e6 .LASF2244
C:\Users\CYMR90~1\AppData\Local\Temp\ccBmAAlS.s:26626  .debug_str:0000000000016f45 .LASF2245
C:\Users\CYMR90~1\AppData\Local\Temp\ccBmAAlS.s:23541  .debug_str:000000000000a80c .LASF2246
C:\Users\CYMR90~1\AppData\Local\Temp\ccBmAAlS.s:26195  .debug_str:00000000000151fb .LASF2247
C:\Users\CYMR90~1\AppData\Local\Temp\ccBmAAlS.s:21731  .debug_str:00000000000034b8 .LASF2248
C:\Users\CYMR90~1\AppData\Local\Temp\ccBmAAlS.s:28604  .debug_str:000000000001ede5 .LASF2249
C:\Users\CYMR90~1\AppData\Local\Temp\ccBmAAlS.s:27722  .debug_str:000000000001b5bc .LASF2250
C:\Users\CYMR90~1\AppData\Local\Temp\ccBmAAlS.s:26780  .debug_str:0000000000017894 .LASF2251
C:\Users\CYMR90~1\AppData\Local\Temp\ccBmAAlS.s:30006  .debug_str:0000000000024388 .LASF2252
C:\Users\CYMR90~1\AppData\Local\Temp\ccBmAAlS.s:25547  .debug_str:00000000000128b9 .LASF2253
C:\Users\CYMR90~1\AppData\Local\Temp\ccBmAAlS.s:24291  .debug_str:000000000000da04 .LASF2254
C:\Users\CYMR90~1\AppData\Local\Temp\ccBmAAlS.s:23057  .debug_str:0000000000008a98 .LASF2255
C:\Users\CYMR90~1\AppData\Local\Temp\ccBmAAlS.s:24949  .debug_str:0000000000010253 .LASF2256
C:\Users\CYMR90~1\AppData\Local\Temp\ccBmAAlS.s:28002  .debug_str:000000000001c6d1 .LASF2257
C:\Users\CYMR90~1\AppData\Local\Temp\ccBmAAlS.s:25241  .debug_str:000000000001142b .LASF2258
C:\Users\CYMR90~1\AppData\Local\Temp\ccBmAAlS.s:25465  .debug_str:0000000000012363 .LASF2259
C:\Users\CYMR90~1\AppData\Local\Temp\ccBmAAlS.s:25145  .debug_str:0000000000010e43 .LASF2260
C:\Users\CYMR90~1\AppData\Local\Temp\ccBmAAlS.s:26257  .debug_str:000000000001559f .LASF2261
C:\Users\CYMR90~1\AppData\Local\Temp\ccBmAAlS.s:21417  .debug_str:0000000000002141 .LASF2262
C:\Users\CYMR90~1\AppData\Local\Temp\ccBmAAlS.s:24527  .debug_str:000000000000e853 .LASF2263
C:\Users\CYMR90~1\AppData\Local\Temp\ccBmAAlS.s:28378  .debug_str:000000000001e09c .LASF2264
C:\Users\CYMR90~1\AppData\Local\Temp\ccBmAAlS.s:27424  .debug_str:000000000001a184 .LASF2265
C:\Users\CYMR90~1\AppData\Local\Temp\ccBmAAlS.s:24371  .debug_str:000000000000dedb .LASF2266
C:\Users\CYMR90~1\AppData\Local\Temp\ccBmAAlS.s:23737  .debug_str:000000000000b611 .LASF2267
C:\Users\CYMR90~1\AppData\Local\Temp\ccBmAAlS.s:26788  .debug_str:000000000001794e .LASF2268
C:\Users\CYMR90~1\AppData\Local\Temp\ccBmAAlS.s:23143  .debug_str:0000000000009003 .LASF2269
C:\Users\CYMR90~1\AppData\Local\Temp\ccBmAAlS.s:22051  .debug_str:0000000000004a30 .LASF2270
C:\Users\CYMR90~1\AppData\Local\Temp\ccBmAAlS.s:27880  .debug_str:000000000001bf49 .LASF2271
C:\Users\CYMR90~1\AppData\Local\Temp\ccBmAAlS.s:28288  .debug_str:000000000001dab4 .LASF2272
C:\Users\CYMR90~1\AppData\Local\Temp\ccBmAAlS.s:26081  .debug_str:0000000000014a8c .LASF2273
C:\Users\CYMR90~1\AppData\Local\Temp\ccBmAAlS.s:31010  .debug_str:000000000002861a .LASF2274
C:\Users\CYMR90~1\AppData\Local\Temp\ccBmAAlS.s:27630  .debug_str:000000000001b036 .LASF2275
C:\Users\CYMR90~1\AppData\Local\Temp\ccBmAAlS.s:24295  .debug_str:000000000000da4c .LASF2276
C:\Users\CYMR90~1\AppData\Local\Temp\ccBmAAlS.s:21831  .debug_str:0000000000003b1e .LASF2277
C:\Users\CYMR90~1\AppData\Local\Temp\ccBmAAlS.s:21095  .debug_str:0000000000000d58 .LASF2278
C:\Users\CYMR90~1\AppData\Local\Temp\ccBmAAlS.s:30864  .debug_str:0000000000027b86 .LASF2279
C:\Users\CYMR90~1\AppData\Local\Temp\ccBmAAlS.s:29234  .debug_str:0000000000021494 .LASF2280
C:\Users\CYMR90~1\AppData\Local\Temp\ccBmAAlS.s:22241  .debug_str:00000000000055dc .LASF2281
C:\Users\CYMR90~1\AppData\Local\Temp\ccBmAAlS.s:27360  .debug_str:0000000000019e0c .LASF2282
C:\Users\CYMR90~1\AppData\Local\Temp\ccBmAAlS.s:26678  .debug_str:000000000001724c .LASF2283
C:\Users\CYMR90~1\AppData\Local\Temp\ccBmAAlS.s:28066  .debug_str:000000000001cb7f .LASF2284
C:\Users\CYMR90~1\AppData\Local\Temp\ccBmAAlS.s:27588  .debug_str:000000000001ad3d .LASF2285
C:\Users\CYMR90~1\AppData\Local\Temp\ccBmAAlS.s:30786  .debug_str:00000000000276ff .LASF2286
C:\Users\CYMR90~1\AppData\Local\Temp\ccBmAAlS.s:25151  .debug_str:0000000000010ead .LASF2287
C:\Users\CYMR90~1\AppData\Local\Temp\ccBmAAlS.s:29392  .debug_str:0000000000021e37 .LASF2288
C:\Users\CYMR90~1\AppData\Local\Temp\ccBmAAlS.s:25233  .debug_str:00000000000113b6 .LASF2289
C:\Users\CYMR90~1\AppData\Local\Temp\ccBmAAlS.s:25359  .debug_str:0000000000011c96 .LASF2290
C:\Users\CYMR90~1\AppData\Local\Temp\ccBmAAlS.s:31788  .debug_str:000000000002b66d .LASF2291
C:\Users\CYMR90~1\AppData\Local\Temp\ccBmAAlS.s:28472  .debug_str:000000000001e661 .LASF2292
C:\Users\CYMR90~1\AppData\Local\Temp\ccBmAAlS.s:22135  .debug_str:0000000000004f71 .LASF2293
C:\Users\CYMR90~1\AppData\Local\Temp\ccBmAAlS.s:31180  .debug_str:00000000000290d2 .LASF2294
C:\Users\CYMR90~1\AppData\Local\Temp\ccBmAAlS.s:31752  .debug_str:000000000002b3f9 .LASF2295
C:\Users\CYMR90~1\AppData\Local\Temp\ccBmAAlS.s:24353  .debug_str:000000000000ddc1 .LASF2296
C:\Users\CYMR90~1\AppData\Local\Temp\ccBmAAlS.s:24329  .debug_str:000000000000dc08 .LASF2297
C:\Users\CYMR90~1\AppData\Local\Temp\ccBmAAlS.s:23717  .debug_str:000000000000b458 .LASF2298
C:\Users\CYMR90~1\AppData\Local\Temp\ccBmAAlS.s:25881  .debug_str:0000000000013dfa .LASF2299
C:\Users\CYMR90~1\AppData\Local\Temp\ccBmAAlS.s:31024  .debug_str:000000000002870f .LASF2300
C:\Users\CYMR90~1\AppData\Local\Temp\ccBmAAlS.s:24681  .debug_str:000000000000f181 .LASF2301
C:\Users\CYMR90~1\AppData\Local\Temp\ccBmAAlS.s:27826  .debug_str:000000000001bbc4 .LASF2302
C:\Users\CYMR90~1\AppData\Local\Temp\ccBmAAlS.s:30138  .debug_str:0000000000024c44 .LASF2303
C:\Users\CYMR90~1\AppData\Local\Temp\ccBmAAlS.s:24289  .debug_str:000000000000d9dd .LASF2304
C:\Users\CYMR90~1\AppData\Local\Temp\ccBmAAlS.s:29282  .debug_str:0000000000021753 .LASF2305
C:\Users\CYMR90~1\AppData\Local\Temp\ccBmAAlS.s:21173  .debug_str:0000000000001251 .LASF2306
C:\Users\CYMR90~1\AppData\Local\Temp\ccBmAAlS.s:27534  .debug_str:000000000001a9ec .LASF2307
C:\Users\CYMR90~1\AppData\Local\Temp\ccBmAAlS.s:28022  .debug_str:000000000001c8c7 .LASF2308
C:\Users\CYMR90~1\AppData\Local\Temp\ccBmAAlS.s:21677  .debug_str:0000000000003131 .LASF2309
C:\Users\CYMR90~1\AppData\Local\Temp\ccBmAAlS.s:30436  .debug_str:00000000000260ee .LASF2310
C:\Users\CYMR90~1\AppData\Local\Temp\ccBmAAlS.s:31264  .debug_str:0000000000029654 .LASF2311
C:\Users\CYMR90~1\AppData\Local\Temp\ccBmAAlS.s:25923  .debug_str:00000000000140cc .LASF2312
C:\Users\CYMR90~1\AppData\Local\Temp\ccBmAAlS.s:30976  .debug_str:0000000000028357 .LASF2313
C:\Users\CYMR90~1\AppData\Local\Temp\ccBmAAlS.s:22757  .debug_str:00000000000075ef .LASF2314
C:\Users\CYMR90~1\AppData\Local\Temp\ccBmAAlS.s:29062  .debug_str:0000000000020a29 .LASF2315
C:\Users\CYMR90~1\AppData\Local\Temp\ccBmAAlS.s:22817  .debug_str:00000000000079ac .LASF2316
C:\Users\CYMR90~1\AppData\Local\Temp\ccBmAAlS.s:27844  .debug_str:000000000001bcdf .LASF2317
C:\Users\CYMR90~1\AppData\Local\Temp\ccBmAAlS.s:31020  .debug_str:00000000000286ce .LASF2318
C:\Users\CYMR90~1\AppData\Local\Temp\ccBmAAlS.s:24565  .debug_str:000000000000ead1 .LASF2319
C:\Users\CYMR90~1\AppData\Local\Temp\ccBmAAlS.s:22063  .debug_str:0000000000004aec .LASF2320
C:\Users\CYMR90~1\AppData\Local\Temp\ccBmAAlS.s:21595  .debug_str:0000000000002c26 .LASF2321
C:\Users\CYMR90~1\AppData\Local\Temp\ccBmAAlS.s:32234  .debug_str:000000000002d358 .LASF2322
C:\Users\CYMR90~1\AppData\Local\Temp\ccBmAAlS.s:22423  .debug_str:00000000000060c3 .LASF2323
C:\Users\CYMR90~1\AppData\Local\Temp\ccBmAAlS.s:26043  .debug_str:000000000001483b .LASF2324
C:\Users\CYMR90~1\AppData\Local\Temp\ccBmAAlS.s:27124  .debug_str:0000000000018e3e .LASF2325
C:\Users\CYMR90~1\AppData\Local\Temp\ccBmAAlS.s:23519  .debug_str:000000000000a6ea .LASF2326
C:\Users\CYMR90~1\AppData\Local\Temp\ccBmAAlS.s:27020  .debug_str:0000000000018704 .LASF2327
C:\Users\CYMR90~1\AppData\Local\Temp\ccBmAAlS.s:21453  .debug_str:0000000000002322 .LASF2328
C:\Users\CYMR90~1\AppData\Local\Temp\ccBmAAlS.s:25959  .debug_str:0000000000014302 .LASF2329
C:\Users\CYMR90~1\AppData\Local\Temp\ccBmAAlS.s:22811  .debug_str:000000000000795f .LASF2330
C:\Users\CYMR90~1\AppData\Local\Temp\ccBmAAlS.s:23953  .debug_str:000000000000c488 .LASF2331
C:\Users\CYMR90~1\AppData\Local\Temp\ccBmAAlS.s:24993  .debug_str:00000000000104f3 .LASF2332
C:\Users\CYMR90~1\AppData\Local\Temp\ccBmAAlS.s:29188  .debug_str:0000000000021153 .LASF2333
C:\Users\CYMR90~1\AppData\Local\Temp\ccBmAAlS.s:30614  .debug_str:0000000000026bde .LASF2334
C:\Users\CYMR90~1\AppData\Local\Temp\ccBmAAlS.s:25005  .debug_str:00000000000105ad .LASF2335
C:\Users\CYMR90~1\AppData\Local\Temp\ccBmAAlS.s:25399  .debug_str:0000000000011f2f .LASF2336
C:\Users\CYMR90~1\AppData\Local\Temp\ccBmAAlS.s:24457  .debug_str:000000000000e3e0 .LASF2337
C:\Users\CYMR90~1\AppData\Local\Temp\ccBmAAlS.s:22437  .debug_str:00000000000061be .LASF2338
C:\Users\CYMR90~1\AppData\Local\Temp\ccBmAAlS.s:21499  .debug_str:00000000000025be .LASF2339
C:\Users\CYMR90~1\AppData\Local\Temp\ccBmAAlS.s:28250  .debug_str:000000000001d85a .LASF2340
C:\Users\CYMR90~1\AppData\Local\Temp\ccBmAAlS.s:30498  .debug_str:00000000000264b5 .LASF2341
C:\Users\CYMR90~1\AppData\Local\Temp\ccBmAAlS.s:28844  .debug_str:000000000001fc95 .LASF2342
C:\Users\CYMR90~1\AppData\Local\Temp\ccBmAAlS.s:28860  .debug_str:000000000001fd6d .LASF2343
C:\Users\CYMR90~1\AppData\Local\Temp\ccBmAAlS.s:29904  .debug_str:0000000000023cb3 .LASF2344
C:\Users\CYMR90~1\AppData\Local\Temp\ccBmAAlS.s:30726  .debug_str:0000000000027267 .LASF2345
C:\Users\CYMR90~1\AppData\Local\Temp\ccBmAAlS.s:27946  .debug_str:000000000001c391 .LASF2346
C:\Users\CYMR90~1\AppData\Local\Temp\ccBmAAlS.s:28122  .debug_str:000000000001cfb6 .LASF2347
C:\Users\CYMR90~1\AppData\Local\Temp\ccBmAAlS.s:23027  .debug_str:0000000000008896 .LASF2348
C:\Users\CYMR90~1\AppData\Local\Temp\ccBmAAlS.s:25757  .debug_str:00000000000136d1 .LASF2349
C:\Users\CYMR90~1\AppData\Local\Temp\ccBmAAlS.s:29334  .debug_str:0000000000021a75 .LASF2350
C:\Users\CYMR90~1\AppData\Local\Temp\ccBmAAlS.s:31618  .debug_str:000000000002abd3 .LASF2351
C:\Users\CYMR90~1\AppData\Local\Temp\ccBmAAlS.s:30124  .debug_str:0000000000024b55 .LASF2352
C:\Users\CYMR90~1\AppData\Local\Temp\ccBmAAlS.s:22599  .debug_str:0000000000006b79 .LASF2353
C:\Users\CYMR90~1\AppData\Local\Temp\ccBmAAlS.s:24903  .debug_str:000000000000ff78 .LASF2354
C:\Users\CYMR90~1\AppData\Local\Temp\ccBmAAlS.s:22541  .debug_str:00000000000067c2 .LASF2355
C:\Users\CYMR90~1\AppData\Local\Temp\ccBmAAlS.s:32028  .debug_str:000000000002c60c .LASF2356
C:\Users\CYMR90~1\AppData\Local\Temp\ccBmAAlS.s:31446  .debug_str:000000000002a14d .LASF2357
C:\Users\CYMR90~1\AppData\Local\Temp\ccBmAAlS.s:26169  .debug_str:0000000000015062 .LASF2358
C:\Users\CYMR90~1\AppData\Local\Temp\ccBmAAlS.s:23259  .debug_str:00000000000096d7 .LASF2359
C:\Users\CYMR90~1\AppData\Local\Temp\ccBmAAlS.s:21825  .debug_str:0000000000003ad1 .LASF2360
C:\Users\CYMR90~1\AppData\Local\Temp\ccBmAAlS.s:24913  .debug_str:0000000000010018 .LASF2361
C:\Users\CYMR90~1\AppData\Local\Temp\ccBmAAlS.s:23697  .debug_str:000000000000b363 .LASF2362
C:\Users\CYMR90~1\AppData\Local\Temp\ccBmAAlS.s:22467  .debug_str:0000000000006360 .LASF2363
C:\Users\CYMR90~1\AppData\Local\Temp\ccBmAAlS.s:29910  .debug_str:0000000000023d03 .LASF2364
C:\Users\CYMR90~1\AppData\Local\Temp\ccBmAAlS.s:29070  .debug_str:0000000000020aa4 .LASF2365
C:\Users\CYMR90~1\AppData\Local\Temp\ccBmAAlS.s:25459  .debug_str:0000000000012302 .LASF2366
C:\Users\CYMR90~1\AppData\Local\Temp\ccBmAAlS.s:30158  .debug_str:0000000000024dcd .LASF2367
C:\Users\CYMR90~1\AppData\Local\Temp\ccBmAAlS.s:30800  .debug_str:00000000000277c6 .LASF2368
C:\Users\CYMR90~1\AppData\Local\Temp\ccBmAAlS.s:23245  .debug_str:00000000000095b4 .LASF2369
C:\Users\CYMR90~1\AppData\Local\Temp\ccBmAAlS.s:24557  .debug_str:000000000000ea38 .LASF2370
C:\Users\CYMR90~1\AppData\Local\Temp\ccBmAAlS.s:22611  .debug_str:0000000000006c62 .LASF2371
C:\Users\CYMR90~1\AppData\Local\Temp\ccBmAAlS.s:24967  .debug_str:000000000001035b .LASF2372
C:\Users\CYMR90~1\AppData\Local\Temp\ccBmAAlS.s:31902  .debug_str:000000000002bd96 .LASF2373
C:\Users\CYMR90~1\AppData\Local\Temp\ccBmAAlS.s:30566  .debug_str:00000000000268f6 .LASF2374
C:\Users\CYMR90~1\AppData\Local\Temp\ccBmAAlS.s:21035  .debug_str:0000000000000972 .LASF2375
C:\Users\CYMR90~1\AppData\Local\Temp\ccBmAAlS.s:25363  .debug_str:0000000000011ceb .LASF2376
C:\Users\CYMR90~1\AppData\Local\Temp\ccBmAAlS.s:28548  .debug_str:000000000001eaef .LASF2377
C:\Users\CYMR90~1\AppData\Local\Temp\ccBmAAlS.s:31846  .debug_str:000000000002ba53 .LASF2378
C:\Users\CYMR90~1\AppData\Local\Temp\ccBmAAlS.s:23699  .debug_str:000000000000b388 .LASF2379
C:\Users\CYMR90~1\AppData\Local\Temp\ccBmAAlS.s:22655  .debug_str:0000000000006f56 .LASF2380
C:\Users\CYMR90~1\AppData\Local\Temp\ccBmAAlS.s:30114  .debug_str:0000000000024ab3 .LASF2381
C:\Users\CYMR90~1\AppData\Local\Temp\ccBmAAlS.s:29864  .debug_str:0000000000023a5e .LASF2382
C:\Users\CYMR90~1\AppData\Local\Temp\ccBmAAlS.s:25133  .debug_str:0000000000010dc2 .LASF2383
C:\Users\CYMR90~1\AppData\Local\Temp\ccBmAAlS.s:28332  .debug_str:000000000001dd63 .LASF2384
C:\Users\CYMR90~1\AppData\Local\Temp\ccBmAAlS.s:31588  .debug_str:000000000002aa2d .LASF2385
C:\Users\CYMR90~1\AppData\Local\Temp\ccBmAAlS.s:21335  .debug_str:0000000000001c8e .LASF2386
C:\Users\CYMR90~1\AppData\Local\Temp\ccBmAAlS.s:26051  .debug_str:00000000000148a3 .LASF2387
C:\Users\CYMR90~1\AppData\Local\Temp\ccBmAAlS.s:30802  .debug_str:00000000000277d8 .LASF2388
C:\Users\CYMR90~1\AppData\Local\Temp\ccBmAAlS.s:27684  .debug_str:000000000001b38f .LASF2389
C:\Users\CYMR90~1\AppData\Local\Temp\ccBmAAlS.s:28852  .debug_str:000000000001fd0d .LASF2390
C:\Users\CYMR90~1\AppData\Local\Temp\ccBmAAlS.s:22211  .debug_str:00000000000053fb .LASF2391
C:\Users\CYMR90~1\AppData\Local\Temp\ccBmAAlS.s:26942  .debug_str:0000000000018255 .LASF2392
C:\Users\CYMR90~1\AppData\Local\Temp\ccBmAAlS.s:31692  .debug_str:000000000002b059 .LASF2393
C:\Users\CYMR90~1\AppData\Local\Temp\ccBmAAlS.s:27798  .debug_str:000000000001b9f7 .LASF2394
C:\Users\CYMR90~1\AppData\Local\Temp\ccBmAAlS.s:30858  .debug_str:0000000000027b21 .LASF2395
C:\Users\CYMR90~1\AppData\Local\Temp\ccBmAAlS.s:24225  .debug_str:000000000000d675 .LASF2396
C:\Users\CYMR90~1\AppData\Local\Temp\ccBmAAlS.s:28906  .debug_str:000000000002006c .LASF2397
C:\Users\CYMR90~1\AppData\Local\Temp\ccBmAAlS.s:22261  .debug_str:00000000000056d6 .LASF2398
C:\Users\CYMR90~1\AppData\Local\Temp\ccBmAAlS.s:26998  .debug_str:00000000000185b9 .LASF2399
C:\Users\CYMR90~1\AppData\Local\Temp\ccBmAAlS.s:31748  .debug_str:000000000002b3c8 .LASF2400
C:\Users\CYMR90~1\AppData\Local\Temp\ccBmAAlS.s:31622  .debug_str:000000000002ac0b .LASF2401
C:\Users\CYMR90~1\AppData\Local\Temp\ccBmAAlS.s:23493  .debug_str:000000000000a574 .LASF2402
C:\Users\CYMR90~1\AppData\Local\Temp\ccBmAAlS.s:26694  .debug_str:0000000000017348 .LASF2403
C:\Users\CYMR90~1\AppData\Local\Temp\ccBmAAlS.s:29916  .debug_str:0000000000023d5b .LASF2404
C:\Users\CYMR90~1\AppData\Local\Temp\ccBmAAlS.s:21853  .debug_str:0000000000003c60 .LASF2405
C:\Users\CYMR90~1\AppData\Local\Temp\ccBmAAlS.s:25013  .debug_str:0000000000010651 .LASF2406
C:\Users\CYMR90~1\AppData\Local\Temp\ccBmAAlS.s:28222  .debug_str:000000000001d67d .LASF2407
C:\Users\CYMR90~1\AppData\Local\Temp\ccBmAAlS.s:31470  .debug_str:000000000002a2dd .LASF2408
C:\Users\CYMR90~1\AppData\Local\Temp\ccBmAAlS.s:25809  .debug_str:00000000000139b5 .LASF2409
C:\Users\CYMR90~1\AppData\Local\Temp\ccBmAAlS.s:24201  .debug_str:000000000000d503 .LASF2410
C:\Users\CYMR90~1\AppData\Local\Temp\ccBmAAlS.s:27578  .debug_str:000000000001ac9a .LASF2411
C:\Users\CYMR90~1\AppData\Local\Temp\ccBmAAlS.s:20917  .debug_str:000000000000026f .LASF2412
C:\Users\CYMR90~1\AppData\Local\Temp\ccBmAAlS.s:20931  .debug_str:0000000000000375 .LASF2413
C:\Users\CYMR90~1\AppData\Local\Temp\ccBmAAlS.s:30336  .debug_str:0000000000025ad5 .LASF2414
C:\Users\CYMR90~1\AppData\Local\Temp\ccBmAAlS.s:23733  .debug_str:000000000000b55b .LASF2415
C:\Users\CYMR90~1\AppData\Local\Temp\ccBmAAlS.s:28394  .debug_str:000000000001e187 .LASF2416
C:\Users\CYMR90~1\AppData\Local\Temp\ccBmAAlS.s:24049  .debug_str:000000000000cb2d .LASF2417
C:\Users\CYMR90~1\AppData\Local\Temp\ccBmAAlS.s:26497  .debug_str:000000000001647d .LASF2418
C:\Users\CYMR90~1\AppData\Local\Temp\ccBmAAlS.s:28606  .debug_str:000000000001ee14 .LASF2419
C:\Users\CYMR90~1\AppData\Local\Temp\ccBmAAlS.s:25673  .debug_str:0000000000013111 .LASF2420
C:\Users\CYMR90~1\AppData\Local\Temp\ccBmAAlS.s:30390  .debug_str:0000000000025e04 .LASF2421
C:\Users\CYMR90~1\AppData\Local\Temp\ccBmAAlS.s:23773  .debug_str:000000000000b8a2 .LASF2422
C:\Users\CYMR90~1\AppData\Local\Temp\ccBmAAlS.s:28444  .debug_str:000000000001e47b .LASF2423
C:\Users\CYMR90~1\AppData\Local\Temp\ccBmAAlS.s:21821  .debug_str:0000000000003a86 .LASF2424
C:\Users\CYMR90~1\AppData\Local\Temp\ccBmAAlS.s:26553  .debug_str:000000000001684b .LASF2425
C:\Users\CYMR90~1\AppData\Local\Temp\ccBmAAlS.s:23615  .debug_str:000000000000adad .LASF2426
C:\Users\CYMR90~1\AppData\Local\Temp\ccBmAAlS.s:26722  .debug_str:00000000000174ec .LASF2427
C:\Users\CYMR90~1\AppData\Local\Temp\ccBmAAlS.s:29952  .debug_str:0000000000023f78 .LASF2428
C:\Users\CYMR90~1\AppData\Local\Temp\ccBmAAlS.s:21805  .debug_str:000000000000396b .LASF2429
C:\Users\CYMR90~1\AppData\Local\Temp\ccBmAAlS.s:25047  .debug_str:0000000000010829 .LASF2430
C:\Users\CYMR90~1\AppData\Local\Temp\ccBmAAlS.s:25293  .debug_str:0000000000011839 .LASF2431
C:\Users\CYMR90~1\AppData\Local\Temp\ccBmAAlS.s:31510  .debug_str:000000000002a506 .LASF2432
C:\Users\CYMR90~1\AppData\Local\Temp\ccBmAAlS.s:22005  .debug_str:00000000000046a5 .LASF2433
C:\Users\CYMR90~1\AppData\Local\Temp\ccBmAAlS.s:30770  .debug_str:000000000002761d .LASF2434
C:\Users\CYMR90~1\AppData\Local\Temp\ccBmAAlS.s:29710  .debug_str:00000000000230e2 .LASF2435
C:\Users\CYMR90~1\AppData\Local\Temp\ccBmAAlS.s:31076  .debug_str:0000000000028a99 .LASF2436
C:\Users\CYMR90~1\AppData\Local\Temp\ccBmAAlS.s:24427  .debug_str:000000000000e220 .LASF2437
C:\Users\CYMR90~1\AppData\Local\Temp\ccBmAAlS.s:29128  .debug_str:0000000000020e19 .LASF2438
C:\Users\CYMR90~1\AppData\Local\Temp\ccBmAAlS.s:22487  .debug_str:00000000000064a8 .LASF2439
C:\Users\CYMR90~1\AppData\Local\Temp\ccBmAAlS.s:27242  .debug_str:00000000000195e4 .LASF2440
C:\Users\CYMR90~1\AppData\Local\Temp\ccBmAAlS.s:27620  .debug_str:000000000001afa5 .LASF2441
C:\Users\CYMR90~1\AppData\Local\Temp\ccBmAAlS.s:25301  .debug_str:00000000000118a6 .LASF2442
C:\Users\CYMR90~1\AppData\Local\Temp\ccBmAAlS.s:30016  .debug_str:000000000002446b .LASF2443
C:\Users\CYMR90~1\AppData\Local\Temp\ccBmAAlS.s:28098  .debug_str:000000000001cd8d .LASF2444
C:\Users\CYMR90~1\AppData\Local\Temp\ccBmAAlS.s:29182  .debug_str:00000000000210e8 .LASF2445
C:\Users\CYMR90~1\AppData\Local\Temp\ccBmAAlS.s:22545  .debug_str:00000000000067fb .LASF2446
C:\Users\CYMR90~1\AppData\Local\Temp\ccBmAAlS.s:27290  .debug_str:0000000000019989 .LASF2447
C:\Users\CYMR90~1\AppData\Local\Temp\ccBmAAlS.s:32024  .debug_str:000000000002c5cd .LASF2448
C:\Users\CYMR90~1\AppData\Local\Temp\ccBmAAlS.s:25355  .debug_str:0000000000011c48 .LASF2449
C:\Users\CYMR90~1\AppData\Local\Temp\ccBmAAlS.s:30066  .debug_str:000000000002476e .LASF2450
C:\Users\CYMR90~1\AppData\Local\Temp\ccBmAAlS.s:28874  .debug_str:000000000001fe6e .LASF2451
C:\Users\CYMR90~1\AppData\Local\Temp\ccBmAAlS.s:30176  .debug_str:0000000000024ed7 .LASF2452
C:\Users\CYMR90~1\AppData\Local\Temp\ccBmAAlS.s:28516  .debug_str:000000000001e91c .LASF2453
C:\Users\CYMR90~1\AppData\Local\Temp\ccBmAAlS.s:27134  .debug_str:0000000000018ebc .LASF2454
C:\Users\CYMR90~1\AppData\Local\Temp\ccBmAAlS.s:30338  .debug_str:0000000000025aee .LASF2455
C:\Users\CYMR90~1\AppData\Local\Temp\ccBmAAlS.s:22185  .debug_str:0000000000005268 .LASF2456
C:\Users\CYMR90~1\AppData\Local\Temp\ccBmAAlS.s:25433  .debug_str:000000000001216c .LASF2457
C:\Users\CYMR90~1\AppData\Local\Temp\ccBmAAlS.s:28616  .debug_str:000000000001eea8 .LASF2458
C:\Users\CYMR90~1\AppData\Local\Temp\ccBmAAlS.s:30106  .debug_str:0000000000024a52 .LASF2459
C:\Users\CYMR90~1\AppData\Local\Temp\ccBmAAlS.s:23681  .debug_str:000000000000b288 .LASF2460
C:\Users\CYMR90~1\AppData\Local\Temp\ccBmAAlS.s:29746  .debug_str:00000000000232d1 .LASF2461
C:\Users\CYMR90~1\AppData\Local\Temp\ccBmAAlS.s:31842  .debug_str:000000000002b9c3 .LASF2462
C:\Users\CYMR90~1\AppData\Local\Temp\ccBmAAlS.s:28110  .debug_str:000000000001cef7 .LASF2463
C:\Users\CYMR90~1\AppData\Local\Temp\ccBmAAlS.s:21459  .debug_str:000000000000236e .LASF2464
C:\Users\CYMR90~1\AppData\Local\Temp\ccBmAAlS.s:26173  .debug_str:00000000000150a1 .LASF2465
C:\Users\CYMR90~1\AppData\Local\Temp\ccBmAAlS.s:30924  .debug_str:0000000000027fbb .LASF2466
C:\Users\CYMR90~1\AppData\Local\Temp\ccBmAAlS.s:24281  .debug_str:000000000000d974 .LASF2467
C:\Users\CYMR90~1\AppData\Local\Temp\ccBmAAlS.s:28974  .debug_str:000000000002047e .LASF2468
C:\Users\CYMR90~1\AppData\Local\Temp\ccBmAAlS.s:27074  .debug_str:0000000000018a5e .LASF2469
C:\Users\CYMR90~1\AppData\Local\Temp\ccBmAAlS.s:21881  .debug_str:0000000000003e39 .LASF2470
C:\Users\CYMR90~1\AppData\Local\Temp\ccBmAAlS.s:21515  .debug_str:0000000000002702 .LASF2471
C:\Users\CYMR90~1\AppData\Local\Temp\ccBmAAlS.s:25725  .debug_str:00000000000134c3 .LASF2472
C:\Users\CYMR90~1\AppData\Local\Temp\ccBmAAlS.s:30980  .debug_str:000000000002843b .LASF2473
C:\Users\CYMR90~1\AppData\Local\Temp\ccBmAAlS.s:24333  .debug_str:000000000000dc59 .LASF2474
C:\Users\CYMR90~1\AppData\Local\Temp\ccBmAAlS.s:29032  .debug_str:000000000002084f .LASF2475
C:\Users\CYMR90~1\AppData\Local\Temp\ccBmAAlS.s:31198  .debug_str:00000000000291f4 .LASF2476
C:\Users\CYMR90~1\AppData\Local\Temp\ccBmAAlS.s:21661  .debug_str:0000000000003019 .LASF2477
C:\Users\CYMR90~1\AppData\Local\Temp\ccBmAAlS.s:26269  .debug_str:000000000001562a .LASF2478
C:\Users\CYMR90~1\AppData\Local\Temp\ccBmAAlS.s:30966  .debug_str:00000000000282cf .LASF2479
C:\Users\CYMR90~1\AppData\Local\Temp\ccBmAAlS.s:29302  .debug_str:00000000000218b3 .LASF2480
C:\Users\CYMR90~1\AppData\Local\Temp\ccBmAAlS.s:27688  .debug_str:000000000001b3d0 .LASF2481
C:\Users\CYMR90~1\AppData\Local\Temp\ccBmAAlS.s:27804  .debug_str:000000000001ba42 .LASF2482
C:\Users\CYMR90~1\AppData\Local\Temp\ccBmAAlS.s:31050  .debug_str:0000000000028921 .LASF2483
C:\Users\CYMR90~1\AppData\Local\Temp\ccBmAAlS.s:22899  .debug_str:0000000000007fc6 .LASF2484
C:\Users\CYMR90~1\AppData\Local\Temp\ccBmAAlS.s:26025  .debug_str:0000000000014718 .LASF2485
C:\Users\CYMR90~1\AppData\Local\Temp\ccBmAAlS.s:25729  .debug_str:00000000000134f0 .LASF2486
C:\Users\CYMR90~1\AppData\Local\Temp\ccBmAAlS.s:30450  .debug_str:00000000000261dd .LASF2487
C:\Users\CYMR90~1\AppData\Local\Temp\ccBmAAlS.s:23821  .debug_str:000000000000bb9a .LASF2488
C:\Users\CYMR90~1\AppData\Local\Temp\ccBmAAlS.s:28496  .debug_str:000000000001e79f .LASF2489
C:\Users\CYMR90~1\AppData\Local\Temp\ccBmAAlS.s:21871  .debug_str:0000000000003da6 .LASF2490
C:\Users\CYMR90~1\AppData\Local\Temp\ccBmAAlS.s:26612  .debug_str:0000000000016e68 .LASF2491
C:\Users\CYMR90~1\AppData\Local\Temp\ccBmAAlS.s:31344  .debug_str:0000000000029b68 .LASF2492
C:\Users\CYMR90~1\AppData\Local\Temp\ccBmAAlS.s:24695  .debug_str:000000000000f23d .LASF2493
C:\Users\CYMR90~1\AppData\Local\Temp\ccBmAAlS.s:22763  .debug_str:0000000000007640 .LASF2494
C:\Users\CYMR90~1\AppData\Local\Temp\ccBmAAlS.s:23871  .debug_str:000000000000bf47 .LASF2495
C:\Users\CYMR90~1\AppData\Local\Temp\ccBmAAlS.s:28538  .debug_str:000000000001ea7a .LASF2496
C:\Users\CYMR90~1\AppData\Local\Temp\ccBmAAlS.s:21921  .debug_str:00000000000040bd .LASF2497
C:\Users\CYMR90~1\AppData\Local\Temp\ccBmAAlS.s:21303  .debug_str:0000000000001a7f .LASF2498
C:\Users\CYMR90~1\AppData\Local\Temp\ccBmAAlS.s:31396  .debug_str:0000000000029e85 .LASF2499
C:\Users\CYMR90~1\AppData\Local\Temp\ccBmAAlS.s:24757  .debug_str:000000000000f607 .LASF2500
C:\Users\CYMR90~1\AppData\Local\Temp\ccBmAAlS.s:24471  .debug_str:000000000000e4b1 .LASF2501
C:\Users\CYMR90~1\AppData\Local\Temp\ccBmAAlS.s:27698  .debug_str:000000000001b47e .LASF2502
C:\Users\CYMR90~1\AppData\Local\Temp\ccBmAAlS.s:30934  .debug_str:0000000000028062 .LASF2503
C:\Users\CYMR90~1\AppData\Local\Temp\ccBmAAlS.s:22781  .debug_str:0000000000007775 .LASF2504
C:\Users\CYMR90~1\AppData\Local\Temp\ccBmAAlS.s:25905  .debug_str:0000000000013f69 .LASF2505
C:\Users\CYMR90~1\AppData\Local\Temp\ccBmAAlS.s:29126  .debug_str:0000000000020e06 .LASF2506
C:\Users\CYMR90~1\AppData\Local\Temp\ccBmAAlS.s:31330  .debug_str:0000000000029aa5 .LASF2507
C:\Users\CYMR90~1\AppData\Local\Temp\ccBmAAlS.s:24251  .debug_str:000000000000d7e8 .LASF2508
C:\Users\CYMR90~1\AppData\Local\Temp\ccBmAAlS.s:27484  .debug_str:000000000001a66f .LASF2509
C:\Users\CYMR90~1\AppData\Local\Temp\ccBmAAlS.s:30690  .debug_str:0000000000027088 .LASF2510
C:\Users\CYMR90~1\AppData\Local\Temp\ccBmAAlS.s:31022  .debug_str:00000000000286fa .LASF2511
C:\Users\CYMR90~1\AppData\Local\Temp\ccBmAAlS.s:24373  .debug_str:000000000000defb .LASF2512
C:\Users\CYMR90~1\AppData\Local\Temp\ccBmAAlS.s:29074  .debug_str:0000000000020ad3 .LASF2513
C:\Users\CYMR90~1\AppData\Local\Temp\ccBmAAlS.s:22415  .debug_str:000000000000602c .LASF2514
C:\Users\CYMR90~1\AppData\Local\Temp\ccBmAAlS.s:27178  .debug_str:0000000000019240 .LASF2515
C:\Users\CYMR90~1\AppData\Local\Temp\ccBmAAlS.s:24055  .debug_str:000000000000cb93 .LASF2516
C:\Users\CYMR90~1\AppData\Local\Temp\ccBmAAlS.s:25239  .debug_str:0000000000011416 .LASF2517
C:\Users\CYMR90~1\AppData\Local\Temp\ccBmAAlS.s:29962  .debug_str:0000000000023fe8 .LASF2518
C:\Users\CYMR90~1\AppData\Local\Temp\ccBmAAlS.s:28044  .debug_str:000000000001ca58 .LASF2519
C:\Users\CYMR90~1\AppData\Local\Temp\ccBmAAlS.s:29214  .debug_str:00000000000212d8 .LASF2520
C:\Users\CYMR90~1\AppData\Local\Temp\ccBmAAlS.s:22577  .debug_str:0000000000006a20 .LASF2521
C:\Users\CYMR90~1\AppData\Local\Temp\ccBmAAlS.s:27316  .debug_str:0000000000019b40 .LASF2522
C:\Users\CYMR90~1\AppData\Local\Temp\ccBmAAlS.s:32054  .debug_str:000000000002c7c2 .LASF2523
C:\Users\CYMR90~1\AppData\Local\Temp\ccBmAAlS.s:25381  .debug_str:0000000000011df0 .LASF2524
C:\Users\CYMR90~1\AppData\Local\Temp\ccBmAAlS.s:30088  .debug_str:00000000000248c9 .LASF2525
C:\Users\CYMR90~1\AppData\Local\Temp\ccBmAAlS.s:25581  .debug_str:0000000000012af6 .LASF2526
C:\Users\CYMR90~1\AppData\Local\Temp\ccBmAAlS.s:21755  .debug_str:000000000000364f .LASF2527
C:\Users\CYMR90~1\AppData\Local\Temp\ccBmAAlS.s:26966  .debug_str:00000000000183d6 .LASF2528
C:\Users\CYMR90~1\AppData\Local\Temp\ccBmAAlS.s:23321  .debug_str:0000000000009ae0 .LASF2529
C:\Users\CYMR90~1\AppData\Local\Temp\ccBmAAlS.s:22087  .debug_str:0000000000004c7a .LASF2530
C:\Users\CYMR90~1\AppData\Local\Temp\ccBmAAlS.s:30410  .debug_str:0000000000025f31 .LASF2531
C:\Users\CYMR90~1\AppData\Local\Temp\ccBmAAlS.s:26395  .debug_str:0000000000015e03 .LASF2532
C:\Users\CYMR90~1\AppData\Local\Temp\ccBmAAlS.s:26143  .debug_str:0000000000014ecd .LASF2533
C:\Users\CYMR90~1\AppData\Local\Temp\ccBmAAlS.s:26537  .debug_str:000000000001674f .LASF2534
C:\Users\CYMR90~1\AppData\Local\Temp\ccBmAAlS.s:23385  .debug_str:0000000000009ea7 .LASF2535
C:\Users\CYMR90~1\AppData\Local\Temp\ccBmAAlS.s:22627  .debug_str:0000000000006d67 .LASF2536
C:\Users\CYMR90~1\AppData\Local\Temp\ccBmAAlS.s:31148  .debug_str:0000000000028ec7 .LASF2537
C:\Users\CYMR90~1\AppData\Local\Temp\ccBmAAlS.s:20997  .debug_str:0000000000000728 .LASF2538
C:\Users\CYMR90~1\AppData\Local\Temp\ccBmAAlS.s:22801  .debug_str:00000000000078b7 .LASF2539
C:\Users\CYMR90~1\AppData\Local\Temp\ccBmAAlS.s:21797  .debug_str:00000000000038f0 .LASF2540
C:\Users\CYMR90~1\AppData\Local\Temp\ccBmAAlS.s:30300  .debug_str:00000000000257ee .LASF2541
C:\Users\CYMR90~1\AppData\Local\Temp\ccBmAAlS.s:25383  .debug_str:0000000000011e05 .LASF2542
C:\Users\CYMR90~1\AppData\Local\Temp\ccBmAAlS.s:24167  .debug_str:000000000000d236 .LASF2543
C:\Users\CYMR90~1\AppData\Local\Temp\ccBmAAlS.s:28808  .debug_str:000000000001fa35 .LASF2544
C:\Users\CYMR90~1\AppData\Local\Temp\ccBmAAlS.s:27920  .debug_str:000000000001c217 .LASF2545
C:\Users\CYMR90~1\AppData\Local\Temp\ccBmAAlS.s:21845  .debug_str:0000000000003be1 .LASF2546
C:\Users\CYMR90~1\AppData\Local\Temp\ccBmAAlS.s:30458  .debug_str:000000000002626d .LASF2547
C:\Users\CYMR90~1\AppData\Local\Temp\ccBmAAlS.s:24131  .debug_str:000000000000cfe6 .LASF2548
C:\Users\CYMR90~1\AppData\Local\Temp\ccBmAAlS.s:23223  .debug_str:000000000000946c .LASF2549
C:\Users\CYMR90~1\AppData\Local\Temp\ccBmAAlS.s:22181  .debug_str:000000000000521b .LASF2550
C:\Users\CYMR90~1\AppData\Local\Temp\ccBmAAlS.s:30810  .debug_str:0000000000027858 .LASF2551
C:\Users\CYMR90~1\AppData\Local\Temp\ccBmAAlS.s:31102  .debug_str:0000000000028c56 .LASF2552
C:\Users\CYMR90~1\AppData\Local\Temp\ccBmAAlS.s:25237  .debug_str:00000000000113f4 .LASF2553
C:\Users\CYMR90~1\AppData\Local\Temp\ccBmAAlS.s:29166  .debug_str:0000000000021020 .LASF2554
C:\Users\CYMR90~1\AppData\Local\Temp\ccBmAAlS.s:26315  .debug_str:00000000000158c9 .LASF2555
C:\Users\CYMR90~1\AppData\Local\Temp\ccBmAAlS.s:26870  .debug_str:0000000000017e07 .LASF2556
C:\Users\CYMR90~1\AppData\Local\Temp\ccBmAAlS.s:25707  .debug_str:000000000001338c .LASF2557
C:\Users\CYMR90~1\AppData\Local\Temp\ccBmAAlS.s:26203  .debug_str:00000000000152a6 .LASF2558
C:\Users\CYMR90~1\AppData\Local\Temp\ccBmAAlS.s:24907  .debug_str:000000000000ffb7 .LASF2559
C:\Users\CYMR90~1\AppData\Local\Temp\ccBmAAlS.s:25191  .debug_str:00000000000110fe .LASF2560
C:\Users\CYMR90~1\AppData\Local\Temp\ccBmAAlS.s:24285  .debug_str:000000000000d9a2 .LASF2561
C:\Users\CYMR90~1\AppData\Local\Temp\ccBmAAlS.s:23301  .debug_str:000000000000993e .LASF2562
C:\Users\CYMR90~1\AppData\Local\Temp\ccBmAAlS.s:31808  .debug_str:000000000002b7bd .LASF2563
C:\Users\CYMR90~1\AppData\Local\Temp\ccBmAAlS.s:24931  .debug_str:0000000000010154 .LASF2564
C:\Users\CYMR90~1\AppData\Local\Temp\ccBmAAlS.s:31142  .debug_str:0000000000028e6a .LASF2565
C:\Users\CYMR90~1\AppData\Local\Temp\ccBmAAlS.s:29852  .debug_str:0000000000023997 .LASF2566
C:\Users\CYMR90~1\AppData\Local\Temp\ccBmAAlS.s:26704  .debug_str:00000000000173f3 .LASF2567
C:\Users\CYMR90~1\AppData\Local\Temp\ccBmAAlS.s:26335  .debug_str:0000000000015a17 .LASF2568
C:\Users\CYMR90~1\AppData\Local\Temp\ccBmAAlS.s:26465  .debug_str:00000000000162cd .LASF2569
C:\Users\CYMR90~1\AppData\Local\Temp\ccBmAAlS.s:27792  .debug_str:000000000001b9ad .LASF2570
C:\Users\CYMR90~1\AppData\Local\Temp\ccBmAAlS.s:24149  .debug_str:000000000000d10c .LASF2571
C:\Users\CYMR90~1\AppData\Local\Temp\ccBmAAlS.s:28584  .debug_str:000000000001ecc1 .LASF2572
C:\Users\CYMR90~1\AppData\Local\Temp\ccBmAAlS.s:22703  .debug_str:0000000000007298 .LASF2573
C:\Users\CYMR90~1\AppData\Local\Temp\ccBmAAlS.s:21137  .debug_str:000000000000103d .LASF2574
C:\Users\CYMR90~1\AppData\Local\Temp\ccBmAAlS.s:27568  .debug_str:000000000001ac16 .LASF2575
C:\Users\CYMR90~1\AppData\Local\Temp\ccBmAAlS.s:23563  .debug_str:000000000000aa7c .LASF2576
C:\Users\CYMR90~1\AppData\Local\Temp\ccBmAAlS.s:26445  .debug_str:0000000000016196 .LASF2577
C:\Users\CYMR90~1\AppData\Local\Temp\ccBmAAlS.s:23869  .debug_str:000000000000bf2f .LASF2578
C:\Users\CYMR90~1\AppData\Local\Temp\ccBmAAlS.s:23999  .debug_str:000000000000c75a .LASF2579
C:\Users\CYMR90~1\AppData\Local\Temp\ccBmAAlS.s:27960  .debug_str:000000000001c442 .LASF2580
C:\Users\CYMR90~1\AppData\Local\Temp\ccBmAAlS.s:22123  .debug_str:0000000000004eae .LASF2581
C:\Users\CYMR90~1\AppData\Local\Temp\ccBmAAlS.s:27814  .debug_str:000000000001bad2 .LASF2582
C:\Users\CYMR90~1\AppData\Local\Temp\ccBmAAlS.s:31256  .debug_str:00000000000295df .LASF2583
C:\Users\CYMR90~1\AppData\Local\Temp\ccBmAAlS.s:31296  .debug_str:000000000002988e .LASF2584
C:\Users\CYMR90~1\AppData\Local\Temp\ccBmAAlS.s:29458  .debug_str:000000000002220c .LASF2585
C:\Users\CYMR90~1\AppData\Local\Temp\ccBmAAlS.s:22093  .debug_str:0000000000004cdf .LASF2586
C:\Users\CYMR90~1\AppData\Local\Temp\ccBmAAlS.s:29192  .debug_str:0000000000021188 .LASF2587
C:\Users\CYMR90~1\AppData\Local\Temp\ccBmAAlS.s:31568  .debug_str:000000000002a8f2 .LASF2588
C:\Users\CYMR90~1\AppData\Local\Temp\ccBmAAlS.s:21093  .debug_str:0000000000000d38 .LASF2589
C:\Users\CYMR90~1\AppData\Local\Temp\ccBmAAlS.s:22821  .debug_str:00000000000079fe .LASF2590
C:\Users\CYMR90~1\AppData\Local\Temp\ccBmAAlS.s:23299  .debug_str:000000000000991e .LASF2591
C:\Users\CYMR90~1\AppData\Local\Temp\ccBmAAlS.s:25561  .debug_str:00000000000129d0 .LASF2592
C:\Users\CYMR90~1\AppData\Local\Temp\ccBmAAlS.s:23357  .debug_str:0000000000009d0e .LASF2593
C:\Users\CYMR90~1\AppData\Local\Temp\ccBmAAlS.s:21883  .debug_str:0000000000003e52 .LASF2594
C:\Users\CYMR90~1\AppData\Local\Temp\ccBmAAlS.s:27824  .debug_str:000000000001bba2 .LASF2595
C:\Users\CYMR90~1\AppData\Local\Temp\ccBmAAlS.s:26958  .debug_str:000000000001835b .LASF2596
C:\Users\CYMR90~1\AppData\Local\Temp\ccBmAAlS.s:23421  .debug_str:000000000000a0ec .LASF2597
C:\Users\CYMR90~1\AppData\Local\Temp\ccBmAAlS.s:32142  .debug_str:000000000002cd56 .LASF2598
C:\Users\CYMR90~1\AppData\Local\Temp\ccBmAAlS.s:21331  .debug_str:0000000000001c54 .LASF2599
C:\Users\CYMR90~1\AppData\Local\Temp\ccBmAAlS.s:25821  .debug_str:0000000000013a6a .LASF2600
C:\Users\CYMR90~1\AppData\Local\Temp\ccBmAAlS.s:29436  .debug_str:00000000000220a4 .LASF2601
C:\Users\CYMR90~1\AppData\Local\Temp\ccBmAAlS.s:31920  .debug_str:000000000002becf .LASF2602
C:\Users\CYMR90~1\AppData\Local\Temp\ccBmAAlS.s:25243  .debug_str:000000000001145a .LASF2603
C:\Users\CYMR90~1\AppData\Local\Temp\ccBmAAlS.s:24581  .debug_str:000000000000ebfb .LASF2604
C:\Users\CYMR90~1\AppData\Local\Temp\ccBmAAlS.s:28092  .debug_str:000000000001cd51 .LASF2605
C:\Users\CYMR90~1\AppData\Local\Temp\ccBmAAlS.s:27352  .debug_str:0000000000019d7d .LASF2606
C:\Users\CYMR90~1\AppData\Local\Temp\ccBmAAlS.s:22143  .debug_str:0000000000004ff2 .LASF2607
C:\Users\CYMR90~1\AppData\Local\Temp\ccBmAAlS.s:22057  .debug_str:0000000000004a9b .LASF2608
C:\Users\CYMR90~1\AppData\Local\Temp\ccBmAAlS.s:32176  .debug_str:000000000002cfcf .LASF2609
C:\Users\CYMR90~1\AppData\Local\Temp\ccBmAAlS.s:28710  .debug_str:000000000001f481 .LASF2610
C:\Users\CYMR90~1\AppData\Local\Temp\ccBmAAlS.s:22973  .debug_str:0000000000008544 .LASF2611
C:\Users\CYMR90~1\AppData\Local\Temp\ccBmAAlS.s:22961  .debug_str:00000000000084a3 .LASF2612
C:\Users\CYMR90~1\AppData\Local\Temp\ccBmAAlS.s:30342  .debug_str:0000000000025b1c .LASF2613
C:\Users\CYMR90~1\AppData\Local\Temp\ccBmAAlS.s:25203  .debug_str:00000000000111c1 .LASF2614
C:\Users\CYMR90~1\AppData\Local\Temp\ccBmAAlS.s:26463  .debug_str:00000000000162a9 .LASF2615
C:\Users\CYMR90~1\AppData\Local\Temp\ccBmAAlS.s:27764  .debug_str:000000000001b864 .LASF2616
C:\Users\CYMR90~1\AppData\Local\Temp\ccBmAAlS.s:31082  .debug_str:0000000000028b28 .LASF2617
C:\Users\CYMR90~1\AppData\Local\Temp\ccBmAAlS.s:29308  .debug_str:0000000000021921 .LASF2618
C:\Users\CYMR90~1\AppData\Local\Temp\ccBmAAlS.s:28336  .debug_str:000000000001dd8e .LASF2619
C:\Users\CYMR90~1\AppData\Local\Temp\ccBmAAlS.s:27328  .debug_str:0000000000019c15 .LASF2620
C:\Users\CYMR90~1\AppData\Local\Temp\ccBmAAlS.s:26421  .debug_str:0000000000015fd3 .LASF2621
C:\Users\CYMR90~1\AppData\Local\Temp\ccBmAAlS.s:25467  .debug_str:0000000000012392 .LASF2622
C:\Users\CYMR90~1\AppData\Local\Temp\ccBmAAlS.s:29694  .debug_str:000000000002300f .LASF2623
C:\Users\CYMR90~1\AppData\Local\Temp\ccBmAAlS.s:26247  .debug_str:0000000000015511 .LASF2624
C:\Users\CYMR90~1\AppData\Local\Temp\ccBmAAlS.s:21981  .debug_str:000000000000450a .LASF2625
C:\Users\CYMR90~1\AppData\Local\Temp\ccBmAAlS.s:21689  .debug_str:00000000000031c6 .LASF2626
C:\Users\CYMR90~1\AppData\Local\Temp\ccBmAAlS.s:23225  .debug_str:000000000000948e .LASF2627
C:\Users\CYMR90~1\AppData\Local\Temp\ccBmAAlS.s:21089  .debug_str:0000000000000d01 .LASF2628
C:\Users\CYMR90~1\AppData\Local\Temp\ccBmAAlS.s:24369  .debug_str:000000000000debd .LASF2629
C:\Users\CYMR90~1\AppData\Local\Temp\ccBmAAlS.s:23033  .debug_str:00000000000088f8 .LASF2630
C:\Users\CYMR90~1\AppData\Local\Temp\ccBmAAlS.s:21377  .debug_str:0000000000001f20 .LASF2631
C:\Users\CYMR90~1\AppData\Local\Temp\ccBmAAlS.s:23835  .debug_str:000000000000bc7a .LASF2632
C:\Users\CYMR90~1\AppData\Local\Temp\ccBmAAlS.s:21189  .debug_str:0000000000001322 .LASF2633
C:\Users\CYMR90~1\AppData\Local\Temp\ccBmAAlS.s:27452  .debug_str:000000000001a4eb .LASF2634
C:\Users\CYMR90~1\AppData\Local\Temp\ccBmAAlS.s:27240  .debug_str:00000000000195d3 .LASF2635
C:\Users\CYMR90~1\AppData\Local\Temp\ccBmAAlS.s:25737  .debug_str:0000000000013580 .LASF2636
C:\Users\CYMR90~1\AppData\Local\Temp\ccBmAAlS.s:30988  .debug_str:00000000000284b5 .LASF2637
C:\Users\CYMR90~1\AppData\Local\Temp\ccBmAAlS.s:23429  .debug_str:000000000000a16d .LASF2638
C:\Users\CYMR90~1\AppData\Local\Temp\ccBmAAlS.s:27498  .debug_str:000000000001a75c .LASF2639
C:\Users\CYMR90~1\AppData\Local\Temp\ccBmAAlS.s:28140  .debug_str:000000000001d173 .LASF2640
C:\Users\CYMR90~1\AppData\Local\Temp\ccBmAAlS.s:26638  .debug_str:000000000001700c .LASF2641
C:\Users\CYMR90~1\AppData\Local\Temp\ccBmAAlS.s:30576  .debug_str:0000000000026995 .LASF2642
C:\Users\CYMR90~1\AppData\Local\Temp\ccBmAAlS.s:25677  .debug_str:0000000000013142 .LASF2643
C:\Users\CYMR90~1\AppData\Local\Temp\ccBmAAlS.s:20957  .debug_str:00000000000004e8 .LASF2644
C:\Users\CYMR90~1\AppData\Local\Temp\ccBmAAlS.s:21441  .debug_str:000000000000228e .LASF2645
C:\Users\CYMR90~1\AppData\Local\Temp\ccBmAAlS.s:26277  .debug_str:000000000001569a .LASF2646
C:\Users\CYMR90~1\AppData\Local\Temp\ccBmAAlS.s:21079  .debug_str:0000000000000c79 .LASF2647
C:\Users\CYMR90~1\AppData\Local\Temp\ccBmAAlS.s:28238  .debug_str:000000000001d7bb .LASF2648
C:\Users\CYMR90~1\AppData\Local\Temp\ccBmAAlS.s:28810  .debug_str:000000000001fa57 .LASF2649
C:\Users\CYMR90~1\AppData\Local\Temp\ccBmAAlS.s:30136  .debug_str:0000000000024c1e .LASF2650
C:\Users\CYMR90~1\AppData\Local\Temp\ccBmAAlS.s:22245  .debug_str:000000000000560b .LASF2651
C:\Users\CYMR90~1\AppData\Local\Temp\ccBmAAlS.s:21847  .debug_str:0000000000003c03 .LASF2652
C:\Users\CYMR90~1\AppData\Local\Temp\ccBmAAlS.s:25953  .debug_str:00000000000142aa .LASF2653
C:\Users\CYMR90~1\AppData\Local\Temp\ccBmAAlS.s:23905  .debug_str:000000000000c189 .LASF2654
C:\Users\CYMR90~1\AppData\Local\Temp\ccBmAAlS.s:28698  .debug_str:000000000001f3c7 .LASF2655
C:\Users\CYMR90~1\AppData\Local\Temp\ccBmAAlS.s:24455  .debug_str:000000000000e3bb .LASF2656
C:\Users\CYMR90~1\AppData\Local\Temp\ccBmAAlS.s:29600  .debug_str:0000000000022a64 .LASF2657
C:\Users\CYMR90~1\AppData\Local\Temp\ccBmAAlS.s:32126  .debug_str:000000000002cc80 .LASF2658
C:\Users\CYMR90~1\AppData\Local\Temp\ccBmAAlS.s:22357  .debug_str:0000000000005cda .LASF2659
C:\Users\CYMR90~1\AppData\Local\Temp\ccBmAAlS.s:27482  .debug_str:000000000001a651 .LASF2660
C:\Users\CYMR90~1\AppData\Local\Temp\ccBmAAlS.s:23637  .debug_str:000000000000af22 .LASF2661
C:\Users\CYMR90~1\AppData\Local\Temp\ccBmAAlS.s:30278  .debug_str:000000000002562f .LASF2662
C:\Users\CYMR90~1\AppData\Local\Temp\ccBmAAlS.s:21635  .debug_str:0000000000002e7c .LASF2663
C:\Users\CYMR90~1\AppData\Local\Temp\ccBmAAlS.s:32008  .debug_str:000000000002c483 .LASF2664
C:\Users\CYMR90~1\AppData\Local\Temp\ccBmAAlS.s:21227  .debug_str:0000000000001543 .LASF2665
C:\Users\CYMR90~1\AppData\Local\Temp\ccBmAAlS.s:20995  .debug_str:00000000000006fb .LASF2666
C:\Users\CYMR90~1\AppData\Local\Temp\ccBmAAlS.s:29474  .debug_str:00000000000222dc .LASF2667
C:\Users\CYMR90~1\AppData\Local\Temp\ccBmAAlS.s:25841  .debug_str:0000000000013bb2 .LASF2668
C:\Users\CYMR90~1\AppData\Local\Temp\ccBmAAlS.s:25623  .debug_str:0000000000012dcf .LASF2669
C:\Users\CYMR90~1\AppData\Local\Temp\ccBmAAlS.s:28502  .debug_str:000000000001e815 .LASF2670
C:\Users\CYMR90~1\AppData\Local\Temp\ccBmAAlS.s:23763  .debug_str:000000000000b7dd .LASF2671
C:\Users\CYMR90~1\AppData\Local\Temp\ccBmAAlS.s:22635  .debug_str:0000000000006df6 .LASF2672
C:\Users\CYMR90~1\AppData\Local\Temp\ccBmAAlS.s:28806  .debug_str:000000000001fa07 .LASF2673
C:\Users\CYMR90~1\AppData\Local\Temp\ccBmAAlS.s:31352  .debug_str:0000000000029bcf .LASF2674
C:\Users\CYMR90~1\AppData\Local\Temp\ccBmAAlS.s:26786  .debug_str:000000000001791e .LASF2675
C:\Users\CYMR90~1\AppData\Local\Temp\ccBmAAlS.s:28156  .debug_str:000000000001d28b .LASF2676
C:\Users\CYMR90~1\AppData\Local\Temp\ccBmAAlS.s:26013  .debug_str:0000000000014656 .LASF2677
C:\Users\CYMR90~1\AppData\Local\Temp\ccBmAAlS.s:24287  .debug_str:000000000000d9c5 .LASF2678
C:\Users\CYMR90~1\AppData\Local\Temp\ccBmAAlS.s:27658  .debug_str:000000000001b1f8 .LASF2679
C:\Users\CYMR90~1\AppData\Local\Temp\ccBmAAlS.s:31728  .debug_str:000000000002b262 .LASF2680
C:\Users\CYMR90~1\AppData\Local\Temp\ccBmAAlS.s:22155  .debug_str:00000000000050a2 .LASF2681
C:\Users\CYMR90~1\AppData\Local\Temp\ccBmAAlS.s:22793  .debug_str:0000000000007831 .LASF2682
C:\Users\CYMR90~1\AppData\Local\Temp\ccBmAAlS.s:31158  .debug_str:0000000000028f9c .LASF2683
C:\Users\CYMR90~1\AppData\Local\Temp\ccBmAAlS.s:27164  .debug_str:0000000000019148 .LASF2684
C:\Users\CYMR90~1\AppData\Local\Temp\ccBmAAlS.s:30210  .debug_str:00000000000250cc .LASF2685
C:\Users\CYMR90~1\AppData\Local\Temp\ccBmAAlS.s:24139  .debug_str:000000000000d05c .LASF2686
C:\Users\CYMR90~1\AppData\Local\Temp\ccBmAAlS.s:29368  .debug_str:0000000000021cad .LASF2687
C:\Users\CYMR90~1\AppData\Local\Temp\ccBmAAlS.s:29616  .debug_str:0000000000022b52 .LASF2688
C:\Users\CYMR90~1\AppData\Local\Temp\ccBmAAlS.s:28034  .debug_str:000000000001c9a6 .LASF2689
C:\Users\CYMR90~1\AppData\Local\Temp\ccBmAAlS.s:21829  .debug_str:0000000000003b03 .LASF2690
C:\Users\CYMR90~1\AppData\Local\Temp\ccBmAAlS.s:27118  .debug_str:0000000000018db0 .LASF2691
C:\Users\CYMR90~1\AppData\Local\Temp\ccBmAAlS.s:21011  .debug_str:00000000000007f8 .LASF2692
C:\Users\CYMR90~1\AppData\Local\Temp\ccBmAAlS.s:28898  .debug_str:000000000002000a .LASF2693
C:\Users\CYMR90~1\AppData\Local\Temp\ccBmAAlS.s:31072  .debug_str:0000000000028a67 .LASF2694
C:\Users\CYMR90~1\AppData\Local\Temp\ccBmAAlS.s:22927  .debug_str:0000000000008242 .LASF2695
C:\Users\CYMR90~1\AppData\Local\Temp\ccBmAAlS.s:23575  .debug_str:000000000000ab36 .LASF2696
C:\Users\CYMR90~1\AppData\Local\Temp\ccBmAAlS.s:29364  .debug_str:0000000000021c71 .LASF2697
C:\Users\CYMR90~1\AppData\Local\Temp\ccBmAAlS.s:21139  .debug_str:000000000000104f .LASF2698
C:\Users\CYMR90~1\AppData\Local\Temp\ccBmAAlS.s:24381  .debug_str:000000000000df6c .LASF2699
C:\Users\CYMR90~1\AppData\Local\Temp\ccBmAAlS.s:27626  .debug_str:000000000001affc .LASF2700
C:\Users\CYMR90~1\AppData\Local\Temp\ccBmAAlS.s:30834  .debug_str:00000000000279a7 .LASF2701
C:\Users\CYMR90~1\AppData\Local\Temp\ccBmAAlS.s:22681  .debug_str:000000000000710c .LASF2702
C:\Users\CYMR90~1\AppData\Local\Temp\ccBmAAlS.s:25897  .debug_str:0000000000013eda .LASF2703
C:\Users\CYMR90~1\AppData\Local\Temp\ccBmAAlS.s:22351  .debug_str:0000000000005c8a .LASF2704
C:\Users\CYMR90~1\AppData\Local\Temp\ccBmAAlS.s:27110  .debug_str:0000000000018d2a .LASF2705
C:\Users\CYMR90~1\AppData\Local\Temp\ccBmAAlS.s:31852  .debug_str:000000000002baac .LASF2706
C:\Users\CYMR90~1\AppData\Local\Temp\ccBmAAlS.s:25181  .debug_str:0000000000011080 .LASF2707
C:\Users\CYMR90~1\AppData\Local\Temp\ccBmAAlS.s:29890  .debug_str:0000000000023bdd .LASF2708
C:\Users\CYMR90~1\AppData\Local\Temp\ccBmAAlS.s:23275  .debug_str:00000000000097cc .LASF2709
C:\Users\CYMR90~1\AppData\Local\Temp\ccBmAAlS.s:23649  .debug_str:000000000000b0b3 .LASF2710
C:\Users\CYMR90~1\AppData\Local\Temp\ccBmAAlS.s:24293  .debug_str:000000000000da32 .LASF2711
C:\Users\CYMR90~1\AppData\Local\Temp\ccBmAAlS.s:29610  .debug_str:0000000000022ae6 .LASF2712
C:\Users\CYMR90~1\AppData\Local\Temp\ccBmAAlS.s:26838  .debug_str:0000000000017c47 .LASF2713
C:\Users\CYMR90~1\AppData\Local\Temp\ccBmAAlS.s:22071  .debug_str:0000000000004b68 .LASF2714
C:\Users\CYMR90~1\AppData\Local\Temp\ccBmAAlS.s:23525  .debug_str:000000000000a73f .LASF2715
C:\Users\CYMR90~1\AppData\Local\Temp\ccBmAAlS.s:28726  .debug_str:000000000001f57e .LASF2716
C:\Users\CYMR90~1\AppData\Local\Temp\ccBmAAlS.s:22651  .debug_str:0000000000006f21 .LASF2717
C:\Users\CYMR90~1\AppData\Local\Temp\ccBmAAlS.s:27828  .debug_str:000000000001bbef .LASF2718
C:\Users\CYMR90~1\AppData\Local\Temp\ccBmAAlS.s:23997  .debug_str:000000000000c73e .LASF2719
C:\Users\CYMR90~1\AppData\Local\Temp\ccBmAAlS.s:23747  .debug_str:000000000000b6ac .LASF2720
C:\Users\CYMR90~1\AppData\Local\Temp\ccBmAAlS.s:28970  .debug_str:000000000002043d .LASF2721
C:\Users\CYMR90~1\AppData\Local\Temp\ccBmAAlS.s:22881  .debug_str:0000000000007e8a .LASF2722
C:\Users\CYMR90~1\AppData\Local\Temp\ccBmAAlS.s:28060  .debug_str:000000000001cb35 .LASF2723
C:\Users\CYMR90~1\AppData\Local\Temp\ccBmAAlS.s:21943  .debug_str:00000000000042b0 .LASF2724
C:\Users\CYMR90~1\AppData\Local\Temp\ccBmAAlS.s:29866  .debug_str:0000000000023a77 .LASF2725
C:\Users\CYMR90~1\AppData\Local\Temp\ccBmAAlS.s:27146  .debug_str:0000000000018f58 .LASF2726
C:\Users\CYMR90~1\AppData\Local\Temp\ccBmAAlS.s:21403  .debug_str:000000000000208e .LASF2727
C:\Users\CYMR90~1\AppData\Local\Temp\ccBmAAlS.s:21763  .debug_str:00000000000036a4 .LASF2728
C:\Users\CYMR90~1\AppData\Local\Temp\ccBmAAlS.s:30346  .debug_str:0000000000025b5f .LASF2729
C:\Users\CYMR90~1\AppData\Local\Temp\ccBmAAlS.s:27682  .debug_str:000000000001b377 .LASF2730
C:\Users\CYMR90~1\AppData\Local\Temp\ccBmAAlS.s:26826  .debug_str:0000000000017ba9 .LASF2731
C:\Users\CYMR90~1\AppData\Local\Temp\ccBmAAlS.s:32038  .debug_str:000000000002c6ad .LASF2732
C:\Users\CYMR90~1\AppData\Local\Temp\ccBmAAlS.s:25895  .debug_str:0000000000013ec0 .LASF2733
C:\Users\CYMR90~1\AppData\Local\Temp\ccBmAAlS.s:31182  .debug_str:00000000000290fb .LASF2734
C:\Users\CYMR90~1\AppData\Local\Temp\ccBmAAlS.s:24989  .debug_str:00000000000104be .LASF2735
C:\Users\CYMR90~1\AppData\Local\Temp\ccBmAAlS.s:27584  .debug_str:000000000001ad05 .LASF2736
C:\Users\CYMR90~1\AppData\Local\Temp\ccBmAAlS.s:21435  .debug_str:0000000000002243 .LASF2737
C:\Users\CYMR90~1\AppData\Local\Temp\ccBmAAlS.s:26630  .debug_str:0000000000016f9d .LASF2738
C:\Users\CYMR90~1\AppData\Local\Temp\ccBmAAlS.s:25933  .debug_str:000000000001417c .LASF2739
C:\Users\CYMR90~1\AppData\Local\Temp\ccBmAAlS.s:25691  .debug_str:000000000001321b .LASF2740
C:\Users\CYMR90~1\AppData\Local\Temp\ccBmAAlS.s:24585  .debug_str:000000000000ec2c .LASF2741
C:\Users\CYMR90~1\AppData\Local\Temp\ccBmAAlS.s:31730  .debug_str:000000000002b27a .LASF2742
C:\Users\CYMR90~1\AppData\Local\Temp\ccBmAAlS.s:23593  .debug_str:000000000000ac4f .LASF2743
C:\Users\CYMR90~1\AppData\Local\Temp\ccBmAAlS.s:26784  .debug_str:0000000000017905 .LASF2744
C:\Users\CYMR90~1\AppData\Local\Temp\ccBmAAlS.s:30012  .debug_str:0000000000024404 .LASF2745
C:\Users\CYMR90~1\AppData\Local\Temp\ccBmAAlS.s:21869  .debug_str:0000000000003d8d .LASF2746
C:\Users\CYMR90~1\AppData\Local\Temp\ccBmAAlS.s:25111  .debug_str:0000000000010cb3 .LASF2747
C:\Users\CYMR90~1\AppData\Local\Temp\ccBmAAlS.s:28314  .debug_str:000000000001dc4a .LASF2748
C:\Users\CYMR90~1\AppData\Local\Temp\ccBmAAlS.s:31480  .debug_str:000000000002a35b .LASF2749
C:\Users\CYMR90~1\AppData\Local\Temp\ccBmAAlS.s:23353  .debug_str:0000000000009cd9 .LASF2750
C:\Users\CYMR90~1\AppData\Local\Temp\ccBmAAlS.s:26555  .debug_str:0000000000016864 .LASF2751
C:\Users\CYMR90~1\AppData\Local\Temp\ccBmAAlS.s:28540  .debug_str:000000000001ea95 .LASF2752
C:\Users\CYMR90~1\AppData\Local\Temp\ccBmAAlS.s:21923  .debug_str:00000000000040d8 .LASF2753
C:\Users\CYMR90~1\AppData\Local\Temp\ccBmAAlS.s:26662  .debug_str:000000000001716c .LASF2754
C:\Users\CYMR90~1\AppData\Local\Temp\ccBmAAlS.s:31398  .debug_str:0000000000029ea0 .LASF2755
C:\Users\CYMR90~1\AppData\Local\Temp\ccBmAAlS.s:24759  .debug_str:000000000000f622 .LASF2756
C:\Users\CYMR90~1\AppData\Local\Temp\ccBmAAlS.s:29452  .debug_str:00000000000221c2 .LASF2757
C:\Users\CYMR90~1\AppData\Local\Temp\ccBmAAlS.s:22807  .debug_str:0000000000007928 .LASF2758
C:\Users\CYMR90~1\AppData\Local\Temp\ccBmAAlS.s:26027  .debug_str:0000000000014731 .LASF2759
C:\Users\CYMR90~1\AppData\Local\Temp\ccBmAAlS.s:29154  .debug_str:0000000000020f84 .LASF2760
C:\Users\CYMR90~1\AppData\Local\Temp\ccBmAAlS.s:21043  .debug_str:00000000000009e2 .LASF2761
C:\Users\CYMR90~1\AppData\Local\Temp\ccBmAAlS.s:24277  .debug_str:000000000000d93d .LASF2762
C:\Users\CYMR90~1\AppData\Local\Temp\ccBmAAlS.s:27516  .debug_str:000000000001a8e3 .LASF2763
C:\Users\CYMR90~1\AppData\Local\Temp\ccBmAAlS.s:30718  .debug_str:0000000000027203 .LASF2764
C:\Users\CYMR90~1\AppData\Local\Temp\ccBmAAlS.s:22563  .debug_str:0000000000006960 .LASF2765
C:\Users\CYMR90~1\AppData\Local\Temp\ccBmAAlS.s:25795  .debug_str:00000000000138ed .LASF2766
C:\Users\CYMR90~1\AppData\Local\Temp\ccBmAAlS.s:29018  .debug_str:000000000002079c .LASF2767
C:\Users\CYMR90~1\AppData\Local\Temp\ccBmAAlS.s:26349  .debug_str:0000000000015ade .LASF2768
C:\Users\CYMR90~1\AppData\Local\Temp\ccBmAAlS.s:31086  .debug_str:0000000000028b5a .LASF2769
C:\Users\CYMR90~1\AppData\Local\Temp\ccBmAAlS.s:24437  .debug_str:000000000000e2ce .LASF2770
C:\Users\CYMR90~1\AppData\Local\Temp\ccBmAAlS.s:22495  .debug_str:0000000000006512 .LASF2771
C:\Users\CYMR90~1\AppData\Local\Temp\ccBmAAlS.s:27252  .debug_str:000000000001967f .LASF2772
C:\Users\CYMR90~1\AppData\Local\Temp\ccBmAAlS.s:25749  .debug_str:0000000000013640 .LASF2773
C:\Users\CYMR90~1\AppData\Local\Temp\ccBmAAlS.s:28960  .debug_str:0000000000020374 .LASF2774
C:\Users\CYMR90~1\AppData\Local\Temp\ccBmAAlS.s:32218  .debug_str:000000000002d26b .LASF2775
C:\Users\CYMR90~1\AppData\Local\Temp\ccBmAAlS.s:27922  .debug_str:000000000001c239 .LASF2776
C:\Users\CYMR90~1\AppData\Local\Temp\ccBmAAlS.s:29994  .debug_str:00000000000242b8 .LASF2777
C:\Users\CYMR90~1\AppData\Local\Temp\ccBmAAlS.s:30424  .debug_str:0000000000026006 .LASF2778
C:\Users\CYMR90~1\AppData\Local\Temp\ccBmAAlS.s:24283  .debug_str:000000000000d98d .LASF2779
C:\Users\CYMR90~1\AppData\Local\Temp\ccBmAAlS.s:25517  .debug_str:00000000000126c0 .LASF2780
C:\Users\CYMR90~1\AppData\Local\Temp\ccBmAAlS.s:28700  .debug_str:000000000001f3ec .LASF2781
C:\Users\CYMR90~1\AppData\Local\Temp\ccBmAAlS.s:31986  .debug_str:000000000002c33e .LASF2782
C:\Users\CYMR90~1\AppData\Local\Temp\ccBmAAlS.s:29454  .debug_str:00000000000221dd .LASF2783
C:\Users\CYMR90~1\AppData\Local\Temp\ccBmAAlS.s:31456  .debug_str:000000000002a1fd .LASF2784
C:\Users\CYMR90~1\AppData\Local\Temp\ccBmAAlS.s:21843  .debug_str:0000000000003bca .LASF2785
C:\Users\CYMR90~1\AppData\Local\Temp\ccBmAAlS.s:26579  .debug_str:0000000000016a3c .LASF2786
C:\Users\CYMR90~1\AppData\Local\Temp\ccBmAAlS.s:31320  .debug_str:0000000000029a36 .LASF2787
C:\Users\CYMR90~1\AppData\Local\Temp\ccBmAAlS.s:24671  .debug_str:000000000000f0cf .LASF2788
C:\Users\CYMR90~1\AppData\Local\Temp\ccBmAAlS.s:26545  .debug_str:00000000000167df .LASF2789
C:\Users\CYMR90~1\AppData\Local\Temp\ccBmAAlS.s:31286  .debug_str:00000000000297b4 .LASF2790
C:\Users\CYMR90~1\AppData\Local\Temp\ccBmAAlS.s:24645  .debug_str:000000000000ef59 .LASF2791
C:\Users\CYMR90~1\AppData\Local\Temp\ccBmAAlS.s:29338  .debug_str:0000000000021ab6 .LASF2792
C:\Users\CYMR90~1\AppData\Local\Temp\ccBmAAlS.s:25807  .debug_str:00000000000139a0 .LASF2793
C:\Users\CYMR90~1\AppData\Local\Temp\ccBmAAlS.s:21345  .debug_str:0000000000001d1d .LASF2794
C:\Users\CYMR90~1\AppData\Local\Temp\ccBmAAlS.s:26061  .debug_str:000000000001492c .LASF2795
C:\Users\CYMR90~1\AppData\Local\Temp\ccBmAAlS.s:25859  .debug_str:0000000000013ca7 .LASF2796
C:\Users\CYMR90~1\AppData\Local\Temp\ccBmAAlS.s:24181  .debug_str:000000000000d352 .LASF2797
C:\Users\CYMR90~1\AppData\Local\Temp\ccBmAAlS.s:28862  .debug_str:000000000001fd86 .LASF2798
C:\Users\CYMR90~1\AppData\Local\Temp\ccBmAAlS.s:23807  .debug_str:000000000000bae5 .LASF2799
C:\Users\CYMR90~1\AppData\Local\Temp\ccBmAAlS.s:28488  .debug_str:000000000001e71b .LASF2800
C:\Users\CYMR90~1\AppData\Local\Temp\ccBmAAlS.s:21859  .debug_str:0000000000003cc2 .LASF2801
C:\Users\CYMR90~1\AppData\Local\Temp\ccBmAAlS.s:26591  .debug_str:0000000000016b84 .LASF2802
C:\Users\CYMR90~1\AppData\Local\Temp\ccBmAAlS.s:23193  .debug_str:00000000000092c3 .LASF2803
C:\Users\CYMR90~1\AppData\Local\Temp\ccBmAAlS.s:29968  .debug_str:0000000000024048 .LASF2804
C:\Users\CYMR90~1\AppData\Local\Temp\ccBmAAlS.s:21355  .debug_str:0000000000001dbc .LASF2805
C:\Users\CYMR90~1\AppData\Local\Temp\ccBmAAlS.s:24609  .debug_str:000000000000ed61 .LASF2806
C:\Users\CYMR90~1\AppData\Local\Temp\ccBmAAlS.s:30774  .debug_str:0000000000027654 .LASF2807
C:\Users\CYMR90~1\AppData\Local\Temp\ccBmAAlS.s:31060  .debug_str:00000000000289c8 .LASF2808
C:\Users\CYMR90~1\AppData\Local\Temp\ccBmAAlS.s:22815  .debug_str:0000000000007997 .LASF2809
C:\Users\CYMR90~1\AppData\Local\Temp\ccBmAAlS.s:26033  .debug_str:0000000000014778 .LASF2810
C:\Users\CYMR90~1\AppData\Local\Temp\ccBmAAlS.s:23363  .debug_str:0000000000009d55 .LASF2811
C:\Users\CYMR90~1\AppData\Local\Temp\ccBmAAlS.s:21127  .debug_str:0000000000000fb5 .LASF2812
C:\Users\CYMR90~1\AppData\Local\Temp\ccBmAAlS.s:24365  .debug_str:000000000000de91 .LASF2813
C:\Users\CYMR90~1\AppData\Local\Temp\ccBmAAlS.s:22905  .debug_str:0000000000008041 .LASF2814
C:\Users\CYMR90~1\AppData\Local\Temp\ccBmAAlS.s:26884  .debug_str:0000000000017f0f .LASF2815
C:\Users\CYMR90~1\AppData\Local\Temp\ccBmAAlS.s:31638  .debug_str:000000000002ad20 .LASF2816
C:\Users\CYMR90~1\AppData\Local\Temp\ccBmAAlS.s:24987  .debug_str:00000000000104a7 .LASF2817
C:\Users\CYMR90~1\AppData\Local\Temp\ccBmAAlS.s:29692  .debug_str:0000000000022ff8 .LASF2818
C:\Users\CYMR90~1\AppData\Local\Temp\ccBmAAlS.s:30312  .debug_str:00000000000258cd .LASF2819
C:\Users\CYMR90~1\AppData\Local\Temp\ccBmAAlS.s:27776  .debug_str:000000000001b8db .LASF2820
C:\Users\CYMR90~1\AppData\Local\Temp\ccBmAAlS.s:25167  .debug_str:0000000000010fa2 .LASF2821
C:\Users\CYMR90~1\AppData\Local\Temp\ccBmAAlS.s:31504  .debug_str:000000000002a49a .LASF2822
C:\Users\CYMR90~1\AppData\Local\Temp\ccBmAAlS.s:22595  .debug_str:0000000000006b43 .LASF2823
C:\Users\CYMR90~1\AppData\Local\Temp\ccBmAAlS.s:23005  .debug_str:0000000000008722 .LASF2824
C:\Users\CYMR90~1\AppData\Local\Temp\ccBmAAlS.s:23973  .debug_str:000000000000c5b7 .LASF2825
C:\Users\CYMR90~1\AppData\Local\Temp\ccBmAAlS.s:31520  .debug_str:000000000002a5c5 .LASF2826
C:\Users\CYMR90~1\AppData\Local\Temp\ccBmAAlS.s:21771  .debug_str:0000000000003716 .LASF2827
C:\Users\CYMR90~1\AppData\Local\Temp\ccBmAAlS.s:26728  .debug_str:0000000000017540 .LASF2828
C:\Users\CYMR90~1\AppData\Local\Temp\ccBmAAlS.s:22129  .debug_str:0000000000004f1a .LASF2829
C:\Users\CYMR90~1\AppData\Local\Temp\ccBmAAlS.s:25511  .debug_str:000000000001265d .LASF2830
C:\Users\CYMR90~1\AppData\Local\Temp\ccBmAAlS.s:22175  .debug_str:00000000000051ce .LASF2831
C:\Users\CYMR90~1\AppData\Local\Temp\ccBmAAlS.s:29028  .debug_str:000000000002081b .LASF2832
C:\Users\CYMR90~1\AppData\Local\Temp\ccBmAAlS.s:25791  .debug_str:00000000000138b1 .LASF2833
C:\Users\CYMR90~1\AppData\Local\Temp\ccBmAAlS.s:24575  .debug_str:000000000000eb90 .LASF2834
C:\Users\CYMR90~1\AppData\Local\Temp\ccBmAAlS.s:23641  .debug_str:000000000000af77 .LASF2835
C:\Users\CYMR90~1\AppData\Local\Temp\ccBmAAlS.s:21187  .debug_str:0000000000001304 .LASF2836
C:\Users\CYMR90~1\AppData\Local\Temp\ccBmAAlS.s:24009  .debug_str:000000000000c800 .LASF2837
C:\Users\CYMR90~1\AppData\Local\Temp\ccBmAAlS.s:25801  .debug_str:0000000000013944 .LASF2838
C:\Users\CYMR90~1\AppData\Local\Temp\ccBmAAlS.s:29024  .debug_str:00000000000207ec .LASF2839
C:\Users\CYMR90~1\AppData\Local\Temp\ccBmAAlS.s:20911  .debug_str:0000000000000238 .LASF2840
C:\Users\CYMR90~1\AppData\Local\Temp\ccBmAAlS.s:24137  .debug_str:000000000000d049 .LASF2841
C:\Users\CYMR90~1\AppData\Local\Temp\ccBmAAlS.s:27356  .debug_str:0000000000019dd3 .LASF2842
C:\Users\CYMR90~1\AppData\Local\Temp\ccBmAAlS.s:21105  .debug_str:0000000000000df9 .LASF2843
C:\Users\CYMR90~1\AppData\Local\Temp\ccBmAAlS.s:30840  .debug_str:00000000000279ff .LASF2844
C:\Users\CYMR90~1\AppData\Local\Temp\ccBmAAlS.s:29180  .debug_str:00000000000210d5 .LASF2845
C:\Users\CYMR90~1\AppData\Local\Temp\ccBmAAlS.s:27592  .debug_str:000000000001ad89 .LASF2846
C:\Users\CYMR90~1\AppData\Local\Temp\ccBmAAlS.s:32048  .debug_str:000000000002c75f .LASF2847
C:\Users\CYMR90~1\AppData\Local\Temp\ccBmAAlS.s:21221  .debug_str:000000000000150d .LASF2848
C:\Users\CYMR90~1\AppData\Local\Temp\ccBmAAlS.s:25943  .debug_str:000000000001421d .LASF2849
C:\Users\CYMR90~1\AppData\Local\Temp\ccBmAAlS.s:24119  .debug_str:000000000000cf31 .LASF2850
C:\Users\CYMR90~1\AppData\Local\Temp\ccBmAAlS.s:31722  .debug_str:000000000002b200 .LASF2851
C:\Users\CYMR90~1\AppData\Local\Temp\ccBmAAlS.s:27926  .debug_str:000000000001c267 .LASF2852
C:\Users\CYMR90~1\AppData\Local\Temp\ccBmAAlS.s:24191  .debug_str:000000000000d3e6 .LASF2853
C:\Users\CYMR90~1\AppData\Local\Temp\ccBmAAlS.s:29488  .debug_str:00000000000223a4 .LASF2854
C:\Users\CYMR90~1\AppData\Local\Temp\ccBmAAlS.s:21337  .debug_str:0000000000001ca9 .LASF2855
C:\Users\CYMR90~1\AppData\Local\Temp\ccBmAAlS.s:24591  .debug_str:000000000000ec77 .LASF2856
C:\Users\CYMR90~1\AppData\Local\Temp\ccBmAAlS.s:27800  .debug_str:000000000001ba12 .LASF2857
C:\Users\CYMR90~1\AppData\Local\Temp\ccBmAAlS.s:30958  .debug_str:0000000000028247 .LASF2858
C:\Users\CYMR90~1\AppData\Local\Temp\ccBmAAlS.s:24513  .debug_str:000000000000e797 .LASF2859
C:\Users\CYMR90~1\AppData\Local\Temp\ccBmAAlS.s:26021  .debug_str:00000000000146e1 .LASF2860
C:\Users\CYMR90~1\AppData\Local\Temp\ccBmAAlS.s:26055  .debug_str:00000000000148d7 .LASF2861
C:\Users\CYMR90~1\AppData\Local\Temp\ccBmAAlS.s:21117  .debug_str:0000000000000f38 .LASF2862
C:\Users\CYMR90~1\AppData\Local\Temp\ccBmAAlS.s:21261  .debug_str:00000000000017f9 .LASF2863
C:\Users\CYMR90~1\AppData\Local\Temp\ccBmAAlS.s:26599  .debug_str:0000000000016bfe .LASF2864
C:\Users\CYMR90~1\AppData\Local\Temp\ccBmAAlS.s:29486  .debug_str:000000000002238f .LASF2865
C:\Users\CYMR90~1\AppData\Local\Temp\ccBmAAlS.s:24693  .debug_str:000000000000f228 .LASF2866
C:\Users\CYMR90~1\AppData\Local\Temp\ccBmAAlS.s:29390  .debug_str:0000000000021e22 .LASF2867
C:\Users\CYMR90~1\AppData\Local\Temp\ccBmAAlS.s:29554  .debug_str:000000000002277e .LASF2868
C:\Users\CYMR90~1\AppData\Local\Temp\ccBmAAlS.s:27506  .debug_str:000000000001a871 .LASF2869
C:\Users\CYMR90~1\AppData\Local\Temp\ccBmAAlS.s:26756  .debug_str:0000000000017705 .LASF2870
C:\Users\CYMR90~1\AppData\Local\Temp\ccBmAAlS.s:24459  .debug_str:000000000000e3fa .LASF2871
C:\Users\CYMR90~1\AppData\Local\Temp\ccBmAAlS.s:25633  .debug_str:0000000000012e77 .LASF2872
C:\Users\CYMR90~1\AppData\Local\Temp\ccBmAAlS.s:25599  .debug_str:0000000000012c34 .LASF2873
C:\Users\CYMR90~1\AppData\Local\Temp\ccBmAAlS.s:21683  .debug_str:0000000000003180 .LASF2874
C:\Users\CYMR90~1\AppData\Local\Temp\ccBmAAlS.s:21559  .debug_str:00000000000029e4 .LASF2875
C:\Users\CYMR90~1\AppData\Local\Temp\ccBmAAlS.s:29142  .debug_str:0000000000020ede .LASF2876
C:\Users\CYMR90~1\AppData\Local\Temp\ccBmAAlS.s:30140  .debug_str:0000000000024c6f .LASF2877
C:\Users\CYMR90~1\AppData\Local\Temp\ccBmAAlS.s:29818  .debug_str:0000000000023781 .LASF2878
C:\Users\CYMR90~1\AppData\Local\Temp\ccBmAAlS.s:23701  .debug_str:000000000000b3a1 .LASF2879
C:\Users\CYMR90~1\AppData\Local\Temp\ccBmAAlS.s:26886  .debug_str:0000000000017f26 .LASF2880
C:\Users\CYMR90~1\AppData\Local\Temp\ccBmAAlS.s:30116  .debug_str:0000000000024acc .LASF2881
C:\Users\CYMR90~1\AppData\Local\Temp\ccBmAAlS.s:21973  .debug_str:0000000000004488 .LASF2882
C:\Users\CYMR90~1\AppData\Local\Temp\ccBmAAlS.s:25135  .debug_str:0000000000010ddb .LASF2883
C:\Users\CYMR90~1\AppData\Local\Temp\ccBmAAlS.s:28334  .debug_str:000000000001dd7c .LASF2884
C:\Users\CYMR90~1\AppData\Local\Temp\ccBmAAlS.s:32146  .debug_str:000000000002cda0 .LASF2885
C:\Users\CYMR90~1\AppData\Local\Temp\ccBmAAlS.s:23467  .debug_str:000000000000a3ce .LASF2886
C:\Users\CYMR90~1\AppData\Local\Temp\ccBmAAlS.s:26668  .debug_str:00000000000171c9 .LASF2887
C:\Users\CYMR90~1\AppData\Local\Temp\ccBmAAlS.s:29886  .debug_str:0000000000023bab .LASF2888
C:\Users\CYMR90~1\AppData\Local\Temp\ccBmAAlS.s:28064  .debug_str:000000000001cb6b .LASF2889
C:\Users\CYMR90~1\AppData\Local\Temp\ccBmAAlS.s:21401  .debug_str:000000000000207a .LASF2890
C:\Users\CYMR90~1\AppData\Local\Temp\ccBmAAlS.s:26119  .debug_str:0000000000014d0e .LASF2891
C:\Users\CYMR90~1\AppData\Local\Temp\ccBmAAlS.s:30874  .debug_str:0000000000027c63 .LASF2892
C:\Users\CYMR90~1\AppData\Local\Temp\ccBmAAlS.s:24239  .debug_str:000000000000d764 .LASF2893
C:\Users\CYMR90~1\AppData\Local\Temp\ccBmAAlS.s:28924  .debug_str:0000000000020199 .LASF2894
C:\Users\CYMR90~1\AppData\Local\Temp\ccBmAAlS.s:31544  .debug_str:000000000002a788 .LASF2895
C:\Users\CYMR90~1\AppData\Local\Temp\ccBmAAlS.s:31758  .debug_str:000000000002b463 .LASF2896
C:\Users\CYMR90~1\AppData\Local\Temp\ccBmAAlS.s:27542  .debug_str:000000000001aa63 .LASF2897
C:\Users\CYMR90~1\AppData\Local\Temp\ccBmAAlS.s:22713  .debug_str:0000000000007336 .LASF2898
C:\Users\CYMR90~1\AppData\Local\Temp\ccBmAAlS.s:23013  .debug_str:000000000000879a .LASF2899
C:\Users\CYMR90~1\AppData\Local\Temp\ccBmAAlS.s:26946  .debug_str:0000000000018288 .LASF2900
C:\Users\CYMR90~1\AppData\Local\Temp\ccBmAAlS.s:31856  .debug_str:000000000002bad9 .LASF2901
C:\Users\CYMR90~1\AppData\Local\Temp\ccBmAAlS.s:25377  .debug_str:0000000000011dbe .LASF2902
C:\Users\CYMR90~1\AppData\Local\Temp\ccBmAAlS.s:26227  .debug_str:00000000000153dc .LASF2903
C:\Users\CYMR90~1\AppData\Local\Temp\ccBmAAlS.s:22405  .debug_str:0000000000005f85 .LASF2904
C:\Users\CYMR90~1\AppData\Local\Temp\ccBmAAlS.s:29168  .debug_str:0000000000021042 .LASF2905
C:\Users\CYMR90~1\AppData\Local\Temp\ccBmAAlS.s:30564  .debug_str:00000000000268d6 .LASF2906
C:\Users\CYMR90~1\AppData\Local\Temp\ccBmAAlS.s:31958  .debug_str:000000000002c187 .LASF2907
C:\Users\CYMR90~1\AppData\Local\Temp\ccBmAAlS.s:21933  .debug_str:000000000000420a .LASF2908
C:\Users\CYMR90~1\AppData\Local\Temp\ccBmAAlS.s:25641  .debug_str:0000000000012eed .LASF2909
C:\Users\CYMR90~1\AppData\Local\Temp\ccBmAAlS.s:31064  .debug_str:00000000000289f6 .LASF2910
C:\Users\CYMR90~1\AppData\Local\Temp\ccBmAAlS.s:28992  .debug_str:0000000000020599 .LASF2911
C:\Users\CYMR90~1\AppData\Local\Temp\ccBmAAlS.s:27884  .debug_str:000000000001bfa4 .LASF2912
C:\Users\CYMR90~1\AppData\Local\Temp\ccBmAAlS.s:27450  .debug_str:000000000001a4ad .LASF2913
C:\Users\CYMR90~1\AppData\Local\Temp\ccBmAAlS.s:27374  .debug_str:0000000000019eb2 .LASF2914
C:\Users\CYMR90~1\AppData\Local\Temp\ccBmAAlS.s:29594  .debug_str:00000000000229f0 .LASF2915
C:\Users\CYMR90~1\AppData\Local\Temp\ccBmAAlS.s:27876  .debug_str:000000000001bf13 .LASF2916
C:\Users\CYMR90~1\AppData\Local\Temp\ccBmAAlS.s:27012  .debug_str:00000000000186ab .LASF2917
C:\Users\CYMR90~1\AppData\Local\Temp\ccBmAAlS.s:28408  .debug_str:000000000001e270 .LASF2918
C:\Users\CYMR90~1\AppData\Local\Temp\ccBmAAlS.s:25577  .debug_str:0000000000012ac4 .LASF2919
C:\Users\CYMR90~1\AppData\Local\Temp\ccBmAAlS.s:24317  .debug_str:000000000000db6e .LASF2920
C:\Users\CYMR90~1\AppData\Local\Temp\ccBmAAlS.s:23461  .debug_str:000000000000a36b .LASF2921
C:\Users\CYMR90~1\AppData\Local\Temp\ccBmAAlS.s:22549  .debug_str:000000000000688e .LASF2922
C:\Users\CYMR90~1\AppData\Local\Temp\ccBmAAlS.s:21687  .debug_str:00000000000031b6 .LASF2923
C:\Users\CYMR90~1\AppData\Local\Temp\ccBmAAlS.s:32192  .debug_str:000000000002d0c1 .LASF2924
C:\Users\CYMR90~1\AppData\Local\Temp\ccBmAAlS.s:31324  .debug_str:0000000000029a67 .LASF2925
C:\Users\CYMR90~1\AppData\Local\Temp\ccBmAAlS.s:30048  .debug_str:0000000000024649 .LASF2926
C:\Users\CYMR90~1\AppData\Local\Temp\ccBmAAlS.s:21897  .debug_str:0000000000003f8a .LASF2927
C:\Users\CYMR90~1\AppData\Local\Temp\ccBmAAlS.s:25153  .debug_str:0000000000010ed4 .LASF2928
C:\Users\CYMR90~1\AppData\Local\Temp\ccBmAAlS.s:28350  .debug_str:000000000001deec .LASF2929
C:\Users\CYMR90~1\AppData\Local\Temp\ccBmAAlS.s:31608  .debug_str:000000000002ab36 .LASF2930
C:\Users\CYMR90~1\AppData\Local\Temp\ccBmAAlS.s:23479  .debug_str:000000000000a4b7 .LASF2931
C:\Users\CYMR90~1\AppData\Local\Temp\ccBmAAlS.s:29672  .debug_str:0000000000022eda .LASF2932
C:\Users\CYMR90~1\AppData\Local\Temp\ccBmAAlS.s:32148  .debug_str:000000000002cdb2 .LASF2933
C:\Users\CYMR90~1\AppData\Local\Temp\ccBmAAlS.s:25403  .debug_str:0000000000011f72 .LASF2934
C:\Users\CYMR90~1\AppData\Local\Temp\ccBmAAlS.s:26291  .debug_str:0000000000015774 .LASF2935
C:\Users\CYMR90~1\AppData\Local\Temp\ccBmAAlS.s:21487  .debug_str:0000000000002524 .LASF2936
C:\Users\CYMR90~1\AppData\Local\Temp\ccBmAAlS.s:28134  .debug_str:000000000001d11a .LASF2937
C:\Users\CYMR90~1\AppData\Local\Temp\ccBmAAlS.s:27512  .debug_str:000000000001a8ab .LASF2938
C:\Users\CYMR90~1\AppData\Local\Temp\ccBmAAlS.s:27548  .debug_str:000000000001aaee .LASF2939
C:\Users\CYMR90~1\AppData\Local\Temp\ccBmAAlS.s:26513  .debug_str:0000000000016560 .LASF2940
C:\Users\CYMR90~1\AppData\Local\Temp\ccBmAAlS.s:23765  .debug_str:000000000000b80b .LASF2941
C:\Users\CYMR90~1\AppData\Local\Temp\ccBmAAlS.s:25889  .debug_str:0000000000013e73 .LASF2942
C:\Users\CYMR90~1\AppData\Local\Temp\ccBmAAlS.s:30480  .debug_str:0000000000026376 .LASF2943
C:\Users\CYMR90~1\AppData\Local\Temp\ccBmAAlS.s:27704  .debug_str:000000000001b4c0 .LASF2944
C:\Users\CYMR90~1\AppData\Local\Temp\ccBmAAlS.s:22389  .debug_str:0000000000005e96 .LASF2945
C:\Users\CYMR90~1\AppData\Local\Temp\ccBmAAlS.s:24315  .debug_str:000000000000db4c .LASF2946
C:\Users\CYMR90~1\AppData\Local\Temp\ccBmAAlS.s:26201  .debug_str:0000000000015269 .LASF2947
C:\Users\CYMR90~1\AppData\Local\Temp\ccBmAAlS.s:30850  .debug_str:0000000000027ab2 .LASF2948
C:\Users\CYMR90~1\AppData\Local\Temp\ccBmAAlS.s:23885  .debug_str:000000000000c04e .LASF2949
C:\Users\CYMR90~1\AppData\Local\Temp\ccBmAAlS.s:24441  .debug_str:000000000000e322 .LASF2950
C:\Users\CYMR90~1\AppData\Local\Temp\ccBmAAlS.s:28450  .debug_str:000000000001e4d1 .LASF2951
C:\Users\CYMR90~1\AppData\Local\Temp\ccBmAAlS.s:22153  .debug_str:000000000000508c .LASF2952
C:\Users\CYMR90~1\AppData\Local\Temp\ccBmAAlS.s:31716  .debug_str:000000000002b1a7 .LASF2953
C:\Users\CYMR90~1\AppData\Local\Temp\ccBmAAlS.s:28800  .debug_str:000000000001f9bd .LASF2954
C:\Users\CYMR90~1\AppData\Local\Temp\ccBmAAlS.s:30720  .debug_str:000000000002721a .LASF2955
C:\Users\CYMR90~1\AppData\Local\Temp\ccBmAAlS.s:29132  .debug_str:0000000000020e58 .LASF2956
C:\Users\CYMR90~1\AppData\Local\Temp\ccBmAAlS.s:32222  .debug_str:000000000002d29f .LASF2957
C:\Users\CYMR90~1\AppData\Local\Temp\ccBmAAlS.s:21657  .debug_str:0000000000002fde .LASF2958
C:\Users\CYMR90~1\AppData\Local\Temp\ccBmAAlS.s:21379  .debug_str:0000000000001f42 .LASF2959
C:\Users\CYMR90~1\AppData\Local\Temp\ccBmAAlS.s:28478  .debug_str:000000000001e6af .LASF2960
C:\Users\CYMR90~1\AppData\Local\Temp\ccBmAAlS.s:21297  .debug_str:0000000000001a35 .LASF2961
C:\Users\CYMR90~1\AppData\Local\Temp\ccBmAAlS.s:25787  .debug_str:0000000000013883 .LASF2962
C:\Users\CYMR90~1\AppData\Local\Temp\ccBmAAlS.s:32004  .debug_str:000000000002c40e .LASF2963
C:\Users\CYMR90~1\AppData\Local\Temp\ccBmAAlS.s:30618  .debug_str:0000000000026c10 .LASF2964
C:\Users\CYMR90~1\AppData\Local\Temp\ccBmAAlS.s:22375  .debug_str:0000000000005dd1 .LASF2965
C:\Users\CYMR90~1\AppData\Local\Temp\ccBmAAlS.s:30830  .debug_str:0000000000027977 .LASF2966
C:\Users\CYMR90~1\AppData\Local\Temp\ccBmAAlS.s:28046  .debug_str:000000000001ca6d .LASF2967
C:\Users\CYMR90~1\AppData\Local\Temp\ccBmAAlS.s:29042  .debug_str:0000000000020917 .LASF2968
C:\Users\CYMR90~1\AppData\Local\Temp\ccBmAAlS.s:24813  .debug_str:000000000000f9d5 .LASF2969
C:\Users\CYMR90~1\AppData\Local\Temp\ccBmAAlS.s:23957  .debug_str:000000000000c4b5 .LASF2970
C:\Users\CYMR90~1\AppData\Local\Temp\ccBmAAlS.s:27762  .debug_str:000000000001b848 .LASF2971
C:\Users\CYMR90~1\AppData\Local\Temp\ccBmAAlS.s:31028  .debug_str:000000000002875a .LASF2972
C:\Users\CYMR90~1\AppData\Local\Temp\ccBmAAlS.s:29446  .debug_str:000000000002214d .LASF2973
C:\Users\CYMR90~1\AppData\Local\Temp\ccBmAAlS.s:30370  .debug_str:0000000000025cc2 .LASF2974
C:\Users\CYMR90~1\AppData\Local\Temp\ccBmAAlS.s:23609  .debug_str:000000000000ad4e .LASF2975
C:\Users\CYMR90~1\AppData\Local\Temp\ccBmAAlS.s:26850  .debug_str:0000000000017ceb .LASF2976
C:\Users\CYMR90~1\AppData\Local\Temp\ccBmAAlS.s:29354  .debug_str:0000000000021be4 .LASF2977
C:\Users\CYMR90~1\AppData\Local\Temp\ccBmAAlS.s:22861  .debug_str:0000000000007cb1 .LASF2978
C:\Users\CYMR90~1\AppData\Local\Temp\ccBmAAlS.s:28228  .debug_str:000000000001d6b7 .LASF2979
C:\Users\CYMR90~1\AppData\Local\Temp\ccBmAAlS.s:24261  .debug_str:000000000000d87d .LASF2980
C:\Users\CYMR90~1\AppData\Local\Temp\ccBmAAlS.s:31780  .debug_str:000000000002b5de .LASF2981
C:\Users\CYMR90~1\AppData\Local\Temp\ccBmAAlS.s:26880  .debug_str:0000000000017ebd .LASF2982
C:\Users\CYMR90~1\AppData\Local\Temp\ccBmAAlS.s:21857  .debug_str:0000000000003c9f .LASF2983
C:\Users\CYMR90~1\AppData\Local\Temp\ccBmAAlS.s:27112  .debug_str:0000000000018d42 .LASF2984
C:\Users\CYMR90~1\AppData\Local\Temp\ccBmAAlS.s:20903  .debug_str:00000000000001a6 .LASF2985
C:\Users\CYMR90~1\AppData\Local\Temp\ccBmAAlS.s:24635  .debug_str:000000000000eeb2 .LASF2986
C:\Users\CYMR90~1\AppData\Local\Temp\ccBmAAlS.s:26099  .debug_str:0000000000014b90 .LASF2987
C:\Users\CYMR90~1\AppData\Local\Temp\ccBmAAlS.s:26005  .debug_str:00000000000145c5 .LASF2988
C:\Users\CYMR90~1\AppData\Local\Temp\ccBmAAlS.s:24661  .debug_str:000000000000f02a .LASF2989
C:\Users\CYMR90~1\AppData\Local\Temp\ccBmAAlS.s:24341  .debug_str:000000000000dce9 .LASF2990
C:\Users\CYMR90~1\AppData\Local\Temp\ccBmAAlS.s:29836  .debug_str:00000000000238bb .LASF2991
C:\Users\CYMR90~1\AppData\Local\Temp\ccBmAAlS.s:26702  .debug_str:00000000000173ce .LASF2992
C:\Users\CYMR90~1\AppData\Local\Temp\ccBmAAlS.s:25783  .debug_str:0000000000013839 .LASF2993
C:\Users\CYMR90~1\AppData\Local\Temp\ccBmAAlS.s:23085  .debug_str:0000000000008c73 .LASF2994
C:\Users\CYMR90~1\AppData\Local\Temp\ccBmAAlS.s:31530  .debug_str:000000000002a67d .LASF2995
C:\Users\CYMR90~1\AppData\Local\Temp\ccBmAAlS.s:26097  .debug_str:0000000000014b72 .LASF2996
C:\Users\CYMR90~1\AppData\Local\Temp\ccBmAAlS.s:26191  .debug_str:00000000000151b7 .LASF2997
C:\Users\CYMR90~1\AppData\Local\Temp\ccBmAAlS.s:22227  .debug_str:00000000000054e2 .LASF2998
C:\Users\CYMR90~1\AppData\Local\Temp\ccBmAAlS.s:26387  .debug_str:0000000000015d86 .LASF2999
C:\Users\CYMR90~1\AppData\Local\Temp\ccBmAAlS.s:29574  .debug_str:00000000000228d2 .LASF3000
C:\Users\CYMR90~1\AppData\Local\Temp\ccBmAAlS.s:25007  .debug_str:00000000000105c8 .LASF3001
C:\Users\CYMR90~1\AppData\Local\Temp\ccBmAAlS.s:26367  .debug_str:0000000000015bee .LASF3002
C:\Users\CYMR90~1\AppData\Local\Temp\ccBmAAlS.s:21033  .debug_str:0000000000000947 .LASF3003
C:\Users\CYMR90~1\AppData\Local\Temp\ccBmAAlS.s:29036  .debug_str:0000000000020898 .LASF3004
C:\Users\CYMR90~1\AppData\Local\Temp\ccBmAAlS.s:32070  .debug_str:000000000002c87a .LASF3005
C:\Users\CYMR90~1\AppData\Local\Temp\ccBmAAlS.s:29964  .debug_str:0000000000023ffd .LASF3006
C:\Users\CYMR90~1\AppData\Local\Temp\ccBmAAlS.s:29348  .debug_str:0000000000021b7a .LASF3007
C:\Users\CYMR90~1\AppData\Local\Temp\ccBmAAlS.s:22183  .debug_str:000000000000523d .LASF3008
C:\Users\CYMR90~1\AppData\Local\Temp\ccBmAAlS.s:32198  .debug_str:000000000002d10f .LASF3009
C:\Users\CYMR90~1\AppData\Local\Temp\ccBmAAlS.s:24531  .debug_str:000000000000e88a .LASF3010
C:\Users\CYMR90~1\AppData\Local\Temp\ccBmAAlS.s:27896  .debug_str:000000000001c072 .LASF3011
C:\Users\CYMR90~1\AppData\Local\Temp\ccBmAAlS.s:21219  .debug_str:00000000000014f6 .LASF3012
C:\Users\CYMR90~1\AppData\Local\Temp\ccBmAAlS.s:25129  .debug_str:0000000000010d87 .LASF3013
C:\Users\CYMR90~1\AppData\Local\Temp\ccBmAAlS.s:24259  .debug_str:000000000000d864 .LASF3014
C:\Users\CYMR90~1\AppData\Local\Temp\ccBmAAlS.s:21405  .debug_str:00000000000020a6 .LASF3015
C:\Users\CYMR90~1\AppData\Local\Temp\ccBmAAlS.s:28588  .debug_str:000000000001ed13 .LASF3016
C:\Users\CYMR90~1\AppData\Local\Temp\ccBmAAlS.s:23907  .debug_str:000000000000c1b7 .LASF3017
C:\Users\CYMR90~1\AppData\Local\Temp\ccBmAAlS.s:22701  .debug_str:0000000000007281 .LASF3018
C:\Users\CYMR90~1\AppData\Local\Temp\ccBmAAlS.s:27040  .debug_str:0000000000018840 .LASF3019
C:\Users\CYMR90~1\AppData\Local\Temp\ccBmAAlS.s:24855  .debug_str:000000000000fc72 .LASF3020
C:\Users\CYMR90~1\AppData\Local\Temp\ccBmAAlS.s:21641  .debug_str:0000000000002ee7 .LASF3021
C:\Users\CYMR90~1\AppData\Local\Temp\ccBmAAlS.s:23971  .debug_str:000000000000c5a3 .LASF3022
C:\Users\CYMR90~1\AppData\Local\Temp\ccBmAAlS.s:24465  .debug_str:000000000000e45c .LASF3023
C:\Users\CYMR90~1\AppData\Local\Temp\ccBmAAlS.s:31810  .debug_str:000000000002b7e0 .LASF3024
C:\Users\CYMR90~1\AppData\Local\Temp\ccBmAAlS.s:22671  .debug_str:0000000000007040 .LASF3025
C:\Users\CYMR90~1\AppData\Local\Temp\ccBmAAlS.s:28920  .debug_str:000000000002015d .LASF3026
C:\Users\CYMR90~1\AppData\Local\Temp\ccBmAAlS.s:24843  .debug_str:000000000000fb9f .LASF3027
C:\Users\CYMR90~1\AppData\Local\Temp\ccBmAAlS.s:26714  .debug_str:000000000001748e .LASF3028
C:\Users\CYMR90~1\AppData\Local\Temp\ccBmAAlS.s:22139  .debug_str:0000000000004fb4 .LASF3029
C:\Users\CYMR90~1\AppData\Local\Temp\ccBmAAlS.s:31738  .debug_str:000000000002b2f0 .LASF3030
C:\Users\CYMR90~1\AppData\Local\Temp\ccBmAAlS.s:24415  .debug_str:000000000000e151 .LASF3031
C:\Users\CYMR90~1\AppData\Local\Temp\ccBmAAlS.s:23533  .debug_str:000000000000a7c0 .LASF3032
C:\Users\CYMR90~1\AppData\Local\Temp\ccBmAAlS.s:30186  .debug_str:0000000000024f6a .LASF3033
C:\Users\CYMR90~1\AppData\Local\Temp\ccBmAAlS.s:24587  .debug_str:000000000000ec47 .LASF3034
C:\Users\CYMR90~1\AppData\Local\Temp\ccBmAAlS.s:24385  .debug_str:000000000000dfb2 .LASF3035
C:\Users\CYMR90~1\AppData\Local\Temp\ccBmAAlS.s:30954  .debug_str:00000000000281fa .LASF3036
C:\Users\CYMR90~1\AppData\Local\Temp\ccBmAAlS.s:23051  .debug_str:0000000000008a41 .LASF3037
C:\Users\CYMR90~1\AppData\Local\Temp\ccBmAAlS.s:31888  .debug_str:000000000002bcc9 .LASF3038
C:\Users\CYMR90~1\AppData\Local\Temp\ccBmAAlS.s:31044  .debug_str:000000000002889e .LASF3039
C:\Users\CYMR90~1\AppData\Local\Temp\ccBmAAlS.s:20919  .debug_str:0000000000000288 .LASF3040
C:\Users\CYMR90~1\AppData\Local\Temp\ccBmAAlS.s:21905  .debug_str:0000000000003ff9 .LASF3041
C:\Users\CYMR90~1\AppData\Local\Temp\ccBmAAlS.s:27948  .debug_str:000000000001c3ae .LASF3042
C:\Users\CYMR90~1\AppData\Local\Temp\ccBmAAlS.s:27742  .debug_str:000000000001b714 .LASF3043
C:\Users\CYMR90~1\AppData\Local\Temp\ccBmAAlS.s:30202  .debug_str:0000000000025056 .LASF3044
C:\Users\CYMR90~1\AppData\Local\Temp\ccBmAAlS.s:24265  .debug_str:000000000000d8c1 .LASF3045
C:\Users\CYMR90~1\AppData\Local\Temp\ccBmAAlS.s:27362  .debug_str:0000000000019e1f .LASF3046
C:\Users\CYMR90~1\AppData\Local\Temp\ccBmAAlS.s:21157  .debug_str:0000000000001189 .LASF3047
C:\Users\CYMR90~1\AppData\Local\Temp\ccBmAAlS.s:24633  .debug_str:000000000000ee98 .LASF3048
C:\Users\CYMR90~1\AppData\Local\Temp\ccBmAAlS.s:27952  .debug_str:000000000001c3de .LASF3049
C:\Users\CYMR90~1\AppData\Local\Temp\ccBmAAlS.s:31328  .debug_str:0000000000029a86 .LASF3050
C:\Users\CYMR90~1\AppData\Local\Temp\ccBmAAlS.s:21293  .debug_str:00000000000019ed .LASF3051
C:\Users\CYMR90~1\AppData\Local\Temp\ccBmAAlS.s:23383  .debug_str:0000000000009e8c .LASF3052
C:\Users\CYMR90~1\AppData\Local\Temp\ccBmAAlS.s:30752  .debug_str:00000000000274ef .LASF3053
C:\Users\CYMR90~1\AppData\Local\Temp\ccBmAAlS.s:22935  .debug_str:00000000000082d7 .LASF3054
C:\Users\CYMR90~1\AppData\Local\Temp\ccBmAAlS.s:24421  .debug_str:000000000000e1ca .LASF3055
C:\Users\CYMR90~1\AppData\Local\Temp\ccBmAAlS.s:29966  .debug_str:0000000000024029 .LASF3056
C:\Users\CYMR90~1\AppData\Local\Temp\ccBmAAlS.s:27292  .debug_str:00000000000199a2 .LASF3057
C:\Users\CYMR90~1\AppData\Local\Temp\ccBmAAlS.s:23335  .debug_str:0000000000009bb9 .LASF3058
C:\Users\CYMR90~1\AppData\Local\Temp\ccBmAAlS.s:28708  .debug_str:000000000001f46e .LASF3059
C:\Users\CYMR90~1\AppData\Local\Temp\ccBmAAlS.s:22909  .debug_str:000000000000807a .LASF3060
C:\Users\CYMR90~1\AppData\Local\Temp\ccBmAAlS.s:30938  .debug_str:00000000000280b4 .LASF3061
C:\Users\CYMR90~1\AppData\Local\Temp\ccBmAAlS.s:30598  .debug_str:0000000000026ad3 .LASF3062
C:\Users\CYMR90~1\AppData\Local\Temp\ccBmAAlS.s:25229  .debug_str:0000000000011347 .LASF3063
C:\Users\CYMR90~1\AppData\Local\Temp\ccBmAAlS.s:30094  .debug_str:00000000000249bb .LASF3064
C:\Users\CYMR90~1\AppData\Local\Temp\ccBmAAlS.s:29170  .debug_str:0000000000021062 .LASF3065
C:\Users\CYMR90~1\AppData\Local\Temp\ccBmAAlS.s:25115  .debug_str:0000000000010ce1 .LASF3066
C:\Users\CYMR90~1\AppData\Local\Temp\ccBmAAlS.s:30688  .debug_str:0000000000027070 .LASF3067
C:\Users\CYMR90~1\AppData\Local\Temp\ccBmAAlS.s:29840  .debug_str:00000000000238f8 .LASF3068
C:\Users\CYMR90~1\AppData\Local\Temp\ccBmAAlS.s:26658  .debug_str:0000000000017147 .LASF3069
C:\Users\CYMR90~1\AppData\Local\Temp\ccBmAAlS.s:26407  .debug_str:0000000000015ef5 .LASF3070
C:\Users\CYMR90~1\AppData\Local\Temp\ccBmAAlS.s:28664  .debug_str:000000000001f1c7 .LASF3071
C:\Users\CYMR90~1\AppData\Local\Temp\ccBmAAlS.s:25077  .debug_str:0000000000010a49 .LASF3072
C:\Users\CYMR90~1\AppData\Local\Temp\ccBmAAlS.s:25205  .debug_str:00000000000111e5 .LASF3073
C:\Users\CYMR90~1\AppData\Local\Temp\ccBmAAlS.s:24605  .debug_str:000000000000ed30 .LASF3074
C:\Users\CYMR90~1\AppData\Local\Temp\ccBmAAlS.s:24741  .debug_str:000000000000f51f .LASF3075
C:\Users\CYMR90~1\AppData\Local\Temp\ccBmAAlS.s:28392  .debug_str:000000000001e170 .LASF3076
C:\Users\CYMR90~1\AppData\Local\Temp\ccBmAAlS.s:31062  .debug_str:00000000000289dd .LASF3077
C:\Users\CYMR90~1\AppData\Local\Temp\ccBmAAlS.s:26525  .debug_str:000000000001669e .LASF3078
C:\Users\CYMR90~1\AppData\Local\Temp\ccBmAAlS.s:29960  .debug_str:0000000000023fce .LASF3079
C:\Users\CYMR90~1\AppData\Local\Temp\ccBmAAlS.s:21439  .debug_str:0000000000002275 .LASF3080
C:\Users\CYMR90~1\AppData\Local\Temp\ccBmAAlS.s:22693  .debug_str:00000000000071d9 .LASF3081
C:\Users\CYMR90~1\AppData\Local\Temp\ccBmAAlS.s:31112  .debug_str:0000000000028ce1 .LASF3082
C:\Users\CYMR90~1\AppData\Local\Temp\ccBmAAlS.s:23439  .debug_str:000000000000a207 .LASF3083
C:\Users\CYMR90~1\AppData\Local\Temp\ccBmAAlS.s:25893  .debug_str:0000000000013ea9 .LASF3084
C:\Users\CYMR90~1\AppData\Local\Temp\ccBmAAlS.s:24563  .debug_str:000000000000eab7 .LASF3085
C:\Users\CYMR90~1\AppData\Local\Temp\ccBmAAlS.s:26255  .debug_str:0000000000015585 .LASF3086
C:\Users\CYMR90~1\AppData\Local\Temp\ccBmAAlS.s:29112  .debug_str:0000000000020d36 .LASF3087
C:\Users\CYMR90~1\AppData\Local\Temp\ccBmAAlS.s:27010  .debug_str:000000000001865c .LASF3088
C:\Users\CYMR90~1\AppData\Local\Temp\ccBmAAlS.s:28968  .debug_str:00000000000203e8 .LASF3089
C:\Users\CYMR90~1\AppData\Local\Temp\ccBmAAlS.s:31204  .debug_str:000000000002926c .LASF3090
C:\Users\CYMR90~1\AppData\Local\Temp\ccBmAAlS.s:29618  .debug_str:0000000000022b6d .LASF3091
C:\Users\CYMR90~1\AppData\Local\Temp\ccBmAAlS.s:23983  .debug_str:000000000000c642 .LASF3092
C:\Users\CYMR90~1\AppData\Local\Temp\ccBmAAlS.s:32018  .debug_str:000000000002c554 .LASF3093
C:\Users\CYMR90~1\AppData\Local\Temp\ccBmAAlS.s:28758  .debug_str:000000000001f741 .LASF3094
C:\Users\CYMR90~1\AppData\Local\Temp\ccBmAAlS.s:30732  .debug_str:00000000000272f5 .LASF3095
C:\Users\CYMR90~1\AppData\Local\Temp\ccBmAAlS.s:30468  .debug_str:00000000000262e6 .LASF3096
C:\Users\CYMR90~1\AppData\Local\Temp\ccBmAAlS.s:23883  .debug_str:000000000000c026 .LASF3097
C:\Users\CYMR90~1\AppData\Local\Temp\ccBmAAlS.s:26303  .debug_str:0000000000015815 .LASF3098
C:\Users\CYMR90~1\AppData\Local\Temp\ccBmAAlS.s:26193  .debug_str:00000000000151e2 .LASF3099
C:\Users\CYMR90~1\AppData\Local\Temp\ccBmAAlS.s:27102  .debug_str:0000000000018cc0 .LASF3100
C:\Users\CYMR90~1\AppData\Local\Temp\ccBmAAlS.s:28794  .debug_str:000000000001f973 .LASF3101
C:\Users\CYMR90~1\AppData\Local\Temp\ccBmAAlS.s:29314  .debug_str:0000000000021969 .LASF3102
C:\Users\CYMR90~1\AppData\Local\Temp\ccBmAAlS.s:32152  .debug_str:000000000002cdd6 .LASF3103
C:\Users\CYMR90~1\AppData\Local\Temp\ccBmAAlS.s:24795  .debug_str:000000000000f8e0 .LASF3104
C:\Users\CYMR90~1\AppData\Local\Temp\ccBmAAlS.s:21655  .debug_str:0000000000002fb2 .LASF3105
C:\Users\CYMR90~1\AppData\Local\Temp\ccBmAAlS.s:24651  .debug_str:000000000000efa9 .LASF3106
C:\Users\CYMR90~1\AppData\Local\Temp\ccBmAAlS.s:28994  .debug_str:00000000000205be .LASF3107
C:\Users\CYMR90~1\AppData\Local\Temp\ccBmAAlS.s:26279  .debug_str:00000000000156bf .LASF3108
C:\Users\CYMR90~1\AppData\Local\Temp\ccBmAAlS.s:25269  .debug_str:00000000000115f8 .LASF3109
C:\Users\CYMR90~1\AppData\Local\Temp\ccBmAAlS.s:27892  .debug_str:000000000001c03b .LASF3110
C:\Users\CYMR90~1\AppData\Local\Temp\ccBmAAlS.s:26914  .debug_str:0000000000018088 .LASF3111
C:\Users\CYMR90~1\AppData\Local\Temp\ccBmAAlS.s:28830  .debug_str:000000000001fbb8 .LASF3112
C:\Users\CYMR90~1\AppData\Local\Temp\ccBmAAlS.s:25079  .debug_str:0000000000010a61 .LASF3113
C:\Users\CYMR90~1\AppData\Local\Temp\ccBmAAlS.s:30998  .debug_str:0000000000028546 .LASF3114
C:\Users\CYMR90~1\AppData\Local\Temp\ccBmAAlS.s:23155  .debug_str:0000000000009096 .LASF3115
C:\Users\CYMR90~1\AppData\Local\Temp\ccBmAAlS.s:22235  .debug_str:0000000000005580 .LASF3116
C:\Users\CYMR90~1\AppData\Local\Temp\ccBmAAlS.s:21277  .debug_str:0000000000001902 .LASF3117
C:\Users\CYMR90~1\AppData\Local\Temp\ccBmAAlS.s:31700  .debug_str:000000000002b0db .LASF3118
C:\Users\CYMR90~1\AppData\Local\Temp\ccBmAAlS.s:29258  .debug_str:00000000000215ff .LASF3119
C:\Users\CYMR90~1\AppData\Local\Temp\ccBmAAlS.s:28292  .debug_str:000000000001daf8 .LASF3120
C:\Users\CYMR90~1\AppData\Local\Temp\ccBmAAlS.s:27442  .debug_str:000000000001a29a .LASF3121
C:\Users\CYMR90~1\AppData\Local\Temp\ccBmAAlS.s:26449  .debug_str:00000000000161d5 .LASF3122
C:\Users\CYMR90~1\AppData\Local\Temp\ccBmAAlS.s:25489  .debug_str:00000000000124f3 .LASF3123
C:\Users\CYMR90~1\AppData\Local\Temp\ccBmAAlS.s:24523  .debug_str:000000000000e819 .LASF3124
C:\Users\CYMR90~1\AppData\Local\Temp\ccBmAAlS.s:24667  .debug_str:000000000000f083 .LASF3125
C:\Users\CYMR90~1\AppData\Local\Temp\ccBmAAlS.s:30680  .debug_str:0000000000026fc9 .LASF3126
C:\Users\CYMR90~1\AppData\Local\Temp\ccBmAAlS.s:30464  .debug_str:00000000000262ad .LASF3127
C:\Users\CYMR90~1\AppData\Local\Temp\ccBmAAlS.s:24983  .debug_str:0000000000010466 .LASF3128
C:\Users\CYMR90~1\AppData\Local\Temp\ccBmAAlS.s:23841  .debug_str:000000000000bcf9 .LASF3129
C:\Users\CYMR90~1\AppData\Local\Temp\ccBmAAlS.s:22743  .debug_str:0000000000007523 .LASF3130
C:\Users\CYMR90~1\AppData\Local\Temp\ccBmAAlS.s:28126  .debug_str:000000000001d001 .LASF3131
C:\Users\CYMR90~1\AppData\Local\Temp\ccBmAAlS.s:29736  .debug_str:000000000002322e .LASF3132
C:\Users\CYMR90~1\AppData\Local\Temp\ccBmAAlS.s:24019  .debug_str:000000000000c8ee .LASF3133
C:\Users\CYMR90~1\AppData\Local\Temp\ccBmAAlS.s:22301  .debug_str:0000000000005977 .LASF3134
C:\Users\CYMR90~1\AppData\Local\Temp\ccBmAAlS.s:22083  .debug_str:0000000000004c2d .LASF3135
C:\Users\CYMR90~1\AppData\Local\Temp\ccBmAAlS.s:28038  .debug_str:000000000001c9e3 .LASF3136
C:\Users\CYMR90~1\AppData\Local\Temp\ccBmAAlS.s:26541  .debug_str:0000000000016799 .LASF3137
C:\Users\CYMR90~1\AppData\Local\Temp\ccBmAAlS.s:21585  .debug_str:0000000000002b78 .LASF3138
C:\Users\CYMR90~1\AppData\Local\Temp\ccBmAAlS.s:32092  .debug_str:000000000002ca14 .LASF3139
C:\Users\CYMR90~1\AppData\Local\Temp\ccBmAAlS.s:31036  .debug_str:00000000000287f2 .LASF3140
C:\Users\CYMR90~1\AppData\Local\Temp\ccBmAAlS.s:22053  .debug_str:0000000000004a4d .LASF3141
C:\Users\CYMR90~1\AppData\Local\Temp\ccBmAAlS.s:27868  .debug_str:000000000001be8c .LASF3142
C:\Users\CYMR90~1\AppData\Local\Temp\ccBmAAlS.s:25083  .debug_str:0000000000010aa6 .LASF3143
C:\Users\CYMR90~1\AppData\Local\Temp\ccBmAAlS.s:28178  .debug_str:000000000001d3c7 .LASF3144
C:\Users\CYMR90~1\AppData\Local\Temp\ccBmAAlS.s:20971  .debug_str:00000000000005b5 .LASF3145
C:\Users\CYMR90~1\AppData\Local\Temp\ccBmAAlS.s:25665  .debug_str:0000000000013095 .LASF3146
C:\Users\CYMR90~1\AppData\Local\Temp\ccBmAAlS.s:30412  .debug_str:0000000000025f52 .LASF3147
C:\Users\CYMR90~1\AppData\Local\Temp\ccBmAAlS.s:25573  .debug_str:0000000000012a90 .LASF3148
C:\Users\CYMR90~1\AppData\Local\Temp\ccBmAAlS.s:22451  .debug_str:0000000000006268 .LASF3149
C:\Users\CYMR90~1\AppData\Local\Temp\ccBmAAlS.s:26878  .debug_str:0000000000017ea5 .LASF3150
C:\Users\CYMR90~1\AppData\Local\Temp\ccBmAAlS.s:25331  .debug_str:0000000000011afd .LASF3151
C:\Users\CYMR90~1\AppData\Local\Temp\ccBmAAlS.s:23881  .debug_str:000000000000c00a .LASF3152
C:\Users\CYMR90~1\AppData\Local\Temp\ccBmAAlS.s:27728  .debug_str:000000000001b625 .LASF3153
C:\Users\CYMR90~1\AppData\Local\Temp\ccBmAAlS.s:24237  .debug_str:000000000000d746 .LASF3154
C:\Users\CYMR90~1\AppData\Local\Temp\ccBmAAlS.s:23221  .debug_str:000000000000944c .LASF3155
C:\Users\CYMR90~1\AppData\Local\Temp\ccBmAAlS.s:30104  .debug_str:0000000000024a30 .LASF3156
C:\Users\CYMR90~1\AppData\Local\Temp\ccBmAAlS.s:25375  .debug_str:0000000000011d9e .LASF3157
C:\Users\CYMR90~1\AppData\Local\Temp\ccBmAAlS.s:29706  .debug_str:00000000000230b7 .LASF3158
C:\Users\CYMR90~1\AppData\Local\Temp\ccBmAAlS.s:23559  .debug_str:000000000000aa58 .LASF3159
C:\Users\CYMR90~1\AppData\Local\Temp\ccBmAAlS.s:27308  .debug_str:0000000000019ac6 .LASF3160
C:\Users\CYMR90~1\AppData\Local\Temp\ccBmAAlS.s:30642  .debug_str:0000000000026d4e .LASF3161
C:\Users\CYMR90~1\AppData\Local\Temp\ccBmAAlS.s:24263  .debug_str:000000000000d89c .LASF3162
C:\Users\CYMR90~1\AppData\Local\Temp\ccBmAAlS.s:22347  .debug_str:0000000000005c54 .LASF3163
C:\Users\CYMR90~1\AppData\Local\Temp\ccBmAAlS.s:23865  .debug_str:000000000000bede .LASF3164
C:\Users\CYMR90~1\AppData\Local\Temp\ccBmAAlS.s:22653  .debug_str:0000000000006f3d .LASF3165
C:\Users\CYMR90~1\AppData\Local\Temp\ccBmAAlS.s:24549  .debug_str:000000000000e9de .LASF3166
C:\Users\CYMR90~1\AppData\Local\Temp\ccBmAAlS.s:21115  .debug_str:0000000000000f1b .LASF3167
C:\Users\CYMR90~1\AppData\Local\Temp\ccBmAAlS.s:31834  .debug_str:000000000002b951 .LASF3168
C:\Users\CYMR90~1\AppData\Local\Temp\ccBmAAlS.s:31432  .debug_str:000000000002a094 .LASF3169
C:\Users\CYMR90~1\AppData\Local\Temp\ccBmAAlS.s:28840  .debug_str:000000000001fc57 .LASF3170
C:\Users\CYMR90~1\AppData\Local\Temp\ccBmAAlS.s:29958  .debug_str:0000000000023fb6 .LASF3171
C:\Users\CYMR90~1\AppData\Local\Temp\ccBmAAlS.s:28412  .debug_str:000000000001e2a6 .LASF3172
C:\Users\CYMR90~1\AppData\Local\Temp\ccBmAAlS.s:28802  .debug_str:000000000001f9d2 .LASF3173
C:\Users\CYMR90~1\AppData\Local\Temp\ccBmAAlS.s:30792  .debug_str:0000000000027753 .LASF3174
C:\Users\CYMR90~1\AppData\Local\Temp\ccBmAAlS.s:25975  .debug_str:00000000000143d3 .LASF3175
C:\Users\CYMR90~1\AppData\Local\Temp\ccBmAAlS.s:26547  .debug_str:00000000000167f4 .LASF3176
C:\Users\CYMR90~1\AppData\Local\Temp\ccBmAAlS.s:21371  .debug_str:0000000000001ec5 .LASF3177
C:\Users\CYMR90~1\AppData\Local\Temp\ccBmAAlS.s:28786  .debug_str:000000000001f8d5 .LASF3178
C:\Users\CYMR90~1\AppData\Local\Temp\ccBmAAlS.s:28734  .debug_str:000000000001f5ef .LASF3179
C:\Users\CYMR90~1\AppData\Local\Temp\ccBmAAlS.s:27842  .debug_str:000000000001bcbd .LASF3180
C:\Users\CYMR90~1\AppData\Local\Temp\ccBmAAlS.s:21543  .debug_str:00000000000028ef .LASF3181
C:\Users\CYMR90~1\AppData\Local\Temp\ccBmAAlS.s:30276  .debug_str:0000000000025610 .LASF3182
C:\Users\CYMR90~1\AppData\Local\Temp\ccBmAAlS.s:24151  .debug_str:000000000000d11f .LASF3183
C:\Users\CYMR90~1\AppData\Local\Temp\ccBmAAlS.s:21901  .debug_str:0000000000003fc0 .LASF3184
C:\Users\CYMR90~1\AppData\Local\Temp\ccBmAAlS.s:21637  .debug_str:0000000000002e9c .LASF3185
C:\Users\CYMR90~1\AppData\Local\Temp\ccBmAAlS.s:23047  .debug_str:0000000000008a07 .LASF3186
C:\Users\CYMR90~1\AppData\Local\Temp\ccBmAAlS.s:28402  .debug_str:000000000001e208 .LASF3187
C:\Users\CYMR90~1\AppData\Local\Temp\ccBmAAlS.s:29548  .debug_str:000000000002271c .LASF3188
C:\Users\CYMR90~1\AppData\Local\Temp\ccBmAAlS.s:23431  .debug_str:000000000000a194 .LASF3189
C:\Users\CYMR90~1\AppData\Local\Temp\ccBmAAlS.s:24347  .debug_str:000000000000dd3a .LASF3190
C:\Users\CYMR90~1\AppData\Local\Temp\ccBmAAlS.s:26345  .debug_str:0000000000015aa6 .LASF3191
C:\Users\CYMR90~1\AppData\Local\Temp\ccBmAAlS.s:22463  .debug_str:0000000000006313 .LASF3192
C:\Users\CYMR90~1\AppData\Local\Temp\ccBmAAlS.s:29882  .debug_str:0000000000023b5d .LASF3193
C:\Users\CYMR90~1\AppData\Local\Temp\ccBmAAlS.s:27266  .debug_str:000000000001976c .LASF3194
C:\Users\CYMR90~1\AppData\Local\Temp\ccBmAAlS.s:23873  .debug_str:000000000000bf62 .LASF3195
C:\Users\CYMR90~1\AppData\Local\Temp\ccBmAAlS.s:28998  .debug_str:0000000000020600 .LASF3196
C:\Users\CYMR90~1\AppData\Local\Temp\ccBmAAlS.s:26814  .debug_str:0000000000017ae3 .LASF3197
C:\Users\CYMR90~1\AppData\Local\Temp\ccBmAAlS.s:31030  .debug_str:0000000000028780 .LASF3198
C:\Users\CYMR90~1\AppData\Local\Temp\ccBmAAlS.s:28504  .debug_str:000000000001e844 .LASF3199
C:\Users\CYMR90~1\AppData\Local\Temp\ccBmAAlS.s:27818  .debug_str:000000000001bafe .LASF3200
C:\Users\CYMR90~1\AppData\Local\Temp\ccBmAAlS.s:30908  .debug_str:0000000000027ebb .LASF3201
C:\Users\CYMR90~1\AppData\Local\Temp\ccBmAAlS.s:21397  .debug_str:0000000000002049 .LASF3202
C:\Users\CYMR90~1\AppData\Local\Temp\ccBmAAlS.s:24577  .debug_str:000000000000ebae .LASF3203
C:\Users\CYMR90~1\AppData\Local\Temp\ccBmAAlS.s:24621  .debug_str:000000000000edf1 .LASF3204
C:\Users\CYMR90~1\AppData\Local\Temp\ccBmAAlS.s:30552  .debug_str:00000000000267f4 .LASF3205
C:\Users\CYMR90~1\AppData\Local\Temp\ccBmAAlS.s:30914  .debug_str:0000000000027f1b .LASF3206
C:\Users\CYMR90~1\AppData\Local\Temp\ccBmAAlS.s:26904  .debug_str:0000000000018017 .LASF3207
C:\Users\CYMR90~1\AppData\Local\Temp\ccBmAAlS.s:23107  .debug_str:0000000000008d9a .LASF3208
C:\Users\CYMR90~1\AppData\Local\Temp\ccBmAAlS.s:21235  .debug_str:00000000000015b1 .LASF3209
C:\Users\CYMR90~1\AppData\Local\Temp\ccBmAAlS.s:21537  .debug_str:0000000000002893 .LASF3210
C:\Users\CYMR90~1\AppData\Local\Temp\ccBmAAlS.s:31506  .debug_str:000000000002a4b5 .LASF3211
C:\Users\CYMR90~1\AppData\Local\Temp\ccBmAAlS.s:22435  .debug_str:000000000000619b .LASF3212
C:\Users\CYMR90~1\AppData\Local\Temp\ccBmAAlS.s:25669  .debug_str:00000000000130d7 .LASF3213
C:\Users\CYMR90~1\AppData\Local\Temp\ccBmAAlS.s:24229  .debug_str:000000000000d6c2 .LASF3214
C:\Users\CYMR90~1\AppData\Local\Temp\ccBmAAlS.s:29216  .debug_str:00000000000212ed .LASF3215
C:\Users\CYMR90~1\AppData\Local\Temp\ccBmAAlS.s:27276  .debug_str:0000000000019851 .LASF3216
C:\Users\CYMR90~1\AppData\Local\Temp\ccBmAAlS.s:23409  .debug_str:000000000000a014 .LASF3217
C:\Users\CYMR90~1\AppData\Local\Temp\ccBmAAlS.s:23159  .debug_str:00000000000090d3 .LASF3218
C:\Users\CYMR90~1\AppData\Local\Temp\ccBmAAlS.s:23749  .debug_str:000000000000b6c9 .LASF3219
C:\Users\CYMR90~1\AppData\Local\Temp\ccBmAAlS.s:21977  .debug_str:00000000000044c0 .LASF3220
C:\Users\CYMR90~1\AppData\Local\Temp\ccBmAAlS.s:25101  .debug_str:0000000000010c36 .LASF3221
C:\Users\CYMR90~1\AppData\Local\Temp\ccBmAAlS.s:26798  .debug_str:0000000000017a01 .LASF3222
C:\Users\CYMR90~1\AppData\Local\Temp\ccBmAAlS.s:23023  .debug_str:0000000000008848 .LASF3223
C:\Users\CYMR90~1\AppData\Local\Temp\ccBmAAlS.s:23823  .debug_str:000000000000bbb5 .LASF3224
C:\Users\CYMR90~1\AppData\Local\Temp\ccBmAAlS.s:23775  .debug_str:000000000000b8bb .LASF3225
C:\Users\CYMR90~1\AppData\Local\Temp\ccBmAAlS.s:26706  .debug_str:0000000000017409 .LASF3226
C:\Users\CYMR90~1\AppData\Local\Temp\ccBmAAlS.s:30638  .debug_str:0000000000026d15 .LASF3227
C:\Users\CYMR90~1\AppData\Local\Temp\ccBmAAlS.s:23509  .debug_str:000000000000a66b .LASF3228
C:\Users\CYMR90~1\AppData\Local\Temp\ccBmAAlS.s:21511  .debug_str:00000000000026ca .LASF3229
C:\Users\CYMR90~1\AppData\Local\Temp\ccBmAAlS.s:28530  .debug_str:000000000001e9ec .LASF3230
C:\Users\CYMR90~1\AppData\Local\Temp\ccBmAAlS.s:21199  .debug_str:00000000000013eb .LASF3231
C:\Users\CYMR90~1\AppData\Local\Temp\ccBmAAlS.s:27088  .debug_str:0000000000018b48 .LASF3232
C:\Users\CYMR90~1\AppData\Local\Temp\ccBmAAlS.s:21307  .debug_str:0000000000001ac0 .LASF3233
C:\Users\CYMR90~1\AppData\Local\Temp\ccBmAAlS.s:32104  .debug_str:000000000002cafd .LASF3234
C:\Users\CYMR90~1\AppData\Local\Temp\ccBmAAlS.s:26261  .debug_str:00000000000155c3 .LASF3235
C:\Users\CYMR90~1\AppData\Local\Temp\ccBmAAlS.s:30054  .debug_str:00000000000246be .LASF3236
C:\Users\CYMR90~1\AppData\Local\Temp\ccBmAAlS.s:21623  .debug_str:0000000000002dda .LASF3237
C:\Users\CYMR90~1\AppData\Local\Temp\ccBmAAlS.s:21333  .debug_str:0000000000001c76 .LASF3238
C:\Users\CYMR90~1\AppData\Local\Temp\ccBmAAlS.s:22457  .debug_str:00000000000062d6 .LASF3239
C:\Users\CYMR90~1\AppData\Local\Temp\ccBmAAlS.s:27692  .debug_str:000000000001b406 .LASF3240
C:\Users\CYMR90~1\AppData\Local\Temp\ccBmAAlS.s:25789  .debug_str:0000000000013899 .LASF3241
C:\Users\CYMR90~1\AppData\Local\Temp\ccBmAAlS.s:23165  .debug_str:0000000000009136 .LASF3242
C:\Users\CYMR90~1\AppData\Local\Temp\ccBmAAlS.s:22213  .debug_str:0000000000005416 .LASF3243
C:\Users\CYMR90~1\AppData\Local\Temp\ccBmAAlS.s:31596  .debug_str:000000000002aaa5 .LASF3244
C:\Users\CYMR90~1\AppData\Local\Temp\ccBmAAlS.s:23891  .debug_str:000000000000c096 .LASF3245
C:\Users\CYMR90~1\AppData\Local\Temp\ccBmAAlS.s:21551  .debug_str:000000000000296a .LASF3246
C:\Users\CYMR90~1\AppData\Local\Temp\ccBmAAlS.s:29508  .debug_str:00000000000224b3 .LASF3247
C:\Users\CYMR90~1\AppData\Local\Temp\ccBmAAlS.s:26155  .debug_str:0000000000014f7f .LASF3248
C:\Users\CYMR90~1\AppData\Local\Temp\ccBmAAlS.s:22739  .debug_str:00000000000074dc .LASF3249
C:\Users\CYMR90~1\AppData\Local\Temp\ccBmAAlS.s:27672  .debug_str:000000000001b2e1 .LASF3250
C:\Users\CYMR90~1\AppData\Local\Temp\ccBmAAlS.s:22345  .debug_str:0000000000005c35 .LASF3251
C:\Users\CYMR90~1\AppData\Local\Temp\ccBmAAlS.s:23255  .debug_str:000000000000969e .LASF3252
C:\Users\CYMR90~1\AppData\Local\Temp\ccBmAAlS.s:25509  .debug_str:0000000000012641 .LASF3253
C:\Users\CYMR90~1\AppData\Local\Temp\ccBmAAlS.s:29526  .debug_str:00000000000225a4 .LASF3254
C:\Users\CYMR90~1\AppData\Local\Temp\ccBmAAlS.s:30894  .debug_str:0000000000027da8 .LASF3255
C:\Users\CYMR90~1\AppData\Local\Temp\ccBmAAlS.s:26894  .debug_str:0000000000017f8b .LASF3256
C:\Users\CYMR90~1\AppData\Local\Temp\ccBmAAlS.s:24739  .debug_str:000000000000f4ff .LASF3257
C:\Users\CYMR90~1\AppData\Local\Temp\ccBmAAlS.s:29524  .debug_str:000000000002258b .LASF3258
C:\Users\CYMR90~1\AppData\Local\Temp\ccBmAAlS.s:31338  .debug_str:0000000000029afb .LASF3259
C:\Users\CYMR90~1\AppData\Local\Temp\ccBmAAlS.s:27538  .debug_str:000000000001aa29 .LASF3260
C:\Users\CYMR90~1\AppData\Local\Temp\ccBmAAlS.s:22607  .debug_str:0000000000006c19 .LASF3261
C:\Users\CYMR90~1\AppData\Local\Temp\ccBmAAlS.s:22219  .debug_str:000000000000545a .LASF3262
C:\Users\CYMR90~1\AppData\Local\Temp\ccBmAAlS.s:28448  .debug_str:000000000001e4b4 .LASF3263
C:\Users\CYMR90~1\AppData\Local\Temp\ccBmAAlS.s:24445  .debug_str:000000000000e345 .LASF3264
C:\Users\CYMR90~1\AppData\Local\Temp\ccBmAAlS.s:29724  .debug_str:0000000000023180 .LASF3265
C:\Users\CYMR90~1\AppData\Local\Temp\ccBmAAlS.s:26758  .debug_str:000000000001773e .LASF3266
C:\Users\CYMR90~1\AppData\Local\Temp\ccBmAAlS.s:30168  .debug_str:0000000000024e4c .LASF3267
C:\Users\CYMR90~1\AppData\Local\Temp\ccBmAAlS.s:29562  .debug_str:000000000002281d .LASF3268
C:\Users\CYMR90~1\AppData\Local\Temp\ccBmAAlS.s:31980  .debug_str:000000000002c2ce .LASF3269
C:\Users\CYMR90~1\AppData\Local\Temp\ccBmAAlS.s:31770  .debug_str:000000000002b52a .LASF3270
C:\Users\CYMR90~1\AppData\Local\Temp\ccBmAAlS.s:32074  .debug_str:000000000002c8d6 .LASF3271
C:\Users\CYMR90~1\AppData\Local\Temp\ccBmAAlS.s:30484  .debug_str:00000000000263b3 .LASF3272
C:\Users\CYMR90~1\AppData\Local\Temp\ccBmAAlS.s:21863  .debug_str:0000000000003d12 .LASF3273
C:\Users\CYMR90~1\AppData\Local\Temp\ccBmAAlS.s:24669  .debug_str:000000000000f0b2 .LASF3274
C:\Users\CYMR90~1\AppData\Local\Temp\ccBmAAlS.s:21833  .debug_str:0000000000003b3c .LASF3275
C:\Users\CYMR90~1\AppData\Local\Temp\ccBmAAlS.s:25217  .debug_str:0000000000011298 .LASF3276
C:\Users\CYMR90~1\AppData\Local\Temp\ccBmAAlS.s:25037  .debug_str:0000000000010791 .LASF3277
C:\Users\CYMR90~1\AppData\Local\Temp\ccBmAAlS.s:22575  .debug_str:0000000000006a04 .LASF3278
C:\Users\CYMR90~1\AppData\Local\Temp\ccBmAAlS.s:25425  .debug_str:000000000001210e .LASF3279
C:\Users\CYMR90~1\AppData\Local\Temp\ccBmAAlS.s:25081  .debug_str:0000000000010a89 .LASF3280
C:\Users\CYMR90~1\AppData\Local\Temp\ccBmAAlS.s:22825  .debug_str:0000000000007a4d .LASF3281
C:\Users\CYMR90~1\AppData\Local\Temp\ccBmAAlS.s:23515  .debug_str:000000000000a6b9 .LASF3282
C:\Users\CYMR90~1\AppData\Local\Temp\ccBmAAlS.s:25913  .debug_str:000000000001400c .LASF3283
C:\Users\CYMR90~1\AppData\Local\Temp\ccBmAAlS.s:28456  .debug_str:000000000001e523 .LASF3284
C:\Users\CYMR90~1\AppData\Local\Temp\ccBmAAlS.s:22017  .debug_str:000000000000477c .LASF3285
C:\Users\CYMR90~1\AppData\Local\Temp\ccBmAAlS.s:28996  .debug_str:00000000000205ea .LASF3286
C:\Users\CYMR90~1\AppData\Local\Temp\ccBmAAlS.s:29362  .debug_str:0000000000021c56 .LASF3287
C:\Users\CYMR90~1\AppData\Local\Temp\ccBmAAlS.s:23315  .debug_str:0000000000009a58 .LASF3288
C:\Users\CYMR90~1\AppData\Local\Temp\ccBmAAlS.s:22657  .debug_str:0000000000006f6f .LASF3289
C:\Users\CYMR90~1\AppData\Local\Temp\ccBmAAlS.s:23177  .debug_str:00000000000091be .LASF3290
C:\Users\CYMR90~1\AppData\Local\Temp\ccBmAAlS.s:21613  .debug_str:0000000000002d54 .LASF3291
C:\Users\CYMR90~1\AppData\Local\Temp\ccBmAAlS.s:31924  .debug_str:000000000002bf0c .LASF3292
C:\Users\CYMR90~1\AppData\Local\Temp\ccBmAAlS.s:22441  .debug_str:00000000000061ee .LASF3293
C:\Users\CYMR90~1\AppData\Local\Temp\ccBmAAlS.s:21005  .debug_str:0000000000000799 .LASF3294
C:\Users\CYMR90~1\AppData\Local\Temp\ccBmAAlS.s:22023  .debug_str:00000000000047f9 .LASF3295
C:\Users\CYMR90~1\AppData\Local\Temp\ccBmAAlS.s:29464  .debug_str:0000000000022263 .LASF3296
C:\Users\CYMR90~1\AppData\Local\Temp\ccBmAAlS.s:25499  .debug_str:000000000001258f .LASF3297
C:\Users\CYMR90~1\AppData\Local\Temp\ccBmAAlS.s:29080  .debug_str:0000000000020b15 .LASF3298
C:\Users\CYMR90~1\AppData\Local\Temp\ccBmAAlS.s:20941  .debug_str:0000000000000418 .LASF3299
C:\Users\CYMR90~1\AppData\Local\Temp\ccBmAAlS.s:28672  .debug_str:000000000001f240 .LASF3300
C:\Users\CYMR90~1\AppData\Local\Temp\ccBmAAlS.s:27526  .debug_str:000000000001a967 .LASF3301
C:\Users\CYMR90~1\AppData\Local\Temp\ccBmAAlS.s:28446  .debug_str:000000000001e494 .LASF3302
C:\Users\CYMR90~1\AppData\Local\Temp\ccBmAAlS.s:28026  .debug_str:000000000001c917 .LASF3303
C:\Users\CYMR90~1\AppData\Local\Temp\ccBmAAlS.s:26874  .debug_str:0000000000017e6f .LASF3304
C:\Users\CYMR90~1\AppData\Local\Temp\ccBmAAlS.s:25385  .debug_str:0000000000011e27 .LASF3305
C:\Users\CYMR90~1\AppData\Local\Temp\ccBmAAlS.s:23401  .debug_str:0000000000009f81 .LASF3306
C:\Users\CYMR90~1\AppData\Local\Temp\ccBmAAlS.s:28324  .debug_str:000000000001dcbf .LASF3307
C:\Users\CYMR90~1\AppData\Local\Temp\ccBmAAlS.s:32022  .debug_str:000000000002c5b5 .LASF3308
C:\Users\CYMR90~1\AppData\Local\Temp\ccBmAAlS.s:27286  .debug_str:0000000000019957 .LASF3309
C:\Users\CYMR90~1\AppData\Local\Temp\ccBmAAlS.s:27594  .debug_str:000000000001ad9c .LASF3310
C:\Users\CYMR90~1\AppData\Local\Temp\ccBmAAlS.s:30096  .debug_str:00000000000249ce .LASF3311
C:\Users\CYMR90~1\AppData\Local\Temp\ccBmAAlS.s:31502  .debug_str:000000000002a482 .LASF3312
C:\Users\CYMR90~1\AppData\Local\Temp\ccBmAAlS.s:25261  .debug_str:0000000000011574 .LASF3313
C:\Users\CYMR90~1\AppData\Local\Temp\ccBmAAlS.s:28272  .debug_str:000000000001d9e1 .LASF3314
C:\Users\CYMR90~1\AppData\Local\Temp\ccBmAAlS.s:24345  .debug_str:000000000000dd22 .LASF3315
C:\Users\CYMR90~1\AppData\Local\Temp\ccBmAAlS.s:31278  .debug_str:0000000000029742 .LASF3316
C:\Users\CYMR90~1\AppData\Local\Temp\ccBmAAlS.s:22751  .debug_str:0000000000007593 .LASF3317
C:\Users\CYMR90~1\AppData\Local\Temp\ccBmAAlS.s:31548  .debug_str:000000000002a7a8 .LASF3318
C:\Users\CYMR90~1\AppData\Local\Temp\ccBmAAlS.s:30326  .debug_str:0000000000025a1a .LASF3319
C:\Users\CYMR90~1\AppData\Local\Temp\ccBmAAlS.s:21789  .debug_str:0000000000003865 .LASF3320
C:\Users\CYMR90~1\AppData\Local\Temp\ccBmAAlS.s:24977  .debug_str:0000000000010408 .LASF3321
C:\Users\CYMR90~1\AppData\Local\Temp\ccBmAAlS.s:31002  .debug_str:0000000000028594 .LASF3322
C:\Users\CYMR90~1\AppData\Local\Temp\ccBmAAlS.s:25449  .debug_str:000000000001227a .LASF3323
C:\Users\CYMR90~1\AppData\Local\Temp\ccBmAAlS.s:23573  .debug_str:000000000000ab17 .LASF3324
C:\Users\CYMR90~1\AppData\Local\Temp\ccBmAAlS.s:31826  .debug_str:000000000002b8bd .LASF3325
C:\Users\CYMR90~1\AppData\Local\Temp\ccBmAAlS.s:30122  .debug_str:0000000000024b36 .LASF3326
C:\Users\CYMR90~1\AppData\Local\Temp\ccBmAAlS.s:27340  .debug_str:0000000000019cc3 .LASF3327
C:\Users\CYMR90~1\AppData\Local\Temp\ccBmAAlS.s:31576  .debug_str:000000000002a971 .LASF3328
C:\Users\CYMR90~1\AppData\Local\Temp\ccBmAAlS.s:22529  .debug_str:0000000000006712 .LASF3329
C:\Users\CYMR90~1\AppData\Local\Temp\ccBmAAlS.s:31616  .debug_str:000000000002abb4 .LASF3330
C:\Users\CYMR90~1\AppData\Local\Temp\ccBmAAlS.s:29184  .debug_str:0000000000021101 .LASF3331
C:\Users\CYMR90~1\AppData\Local\Temp\ccBmAAlS.s:30570  .debug_str:0000000000026934 .LASF3332
C:\Users\CYMR90~1\AppData\Local\Temp\ccBmAAlS.s:24205  .debug_str:000000000000d51f .LASF3333
C:\Users\CYMR90~1\AppData\Local\Temp\ccBmAAlS.s:29948  .debug_str:0000000000023f3c .LASF3334
C:\Users\CYMR90~1\AppData\Local\Temp\ccBmAAlS.s:26039  .debug_str:00000000000147ea .LASF3335
C:\Users\CYMR90~1\AppData\Local\Temp\ccBmAAlS.s:24867  .debug_str:000000000000fd2a .LASF3336
C:\Users\CYMR90~1\AppData\Local\Temp\ccBmAAlS.s:28014  .debug_str:000000000001c799 .LASF3337
C:\Users\CYMR90~1\AppData\Local\Temp\ccBmAAlS.s:30836  .debug_str:00000000000279bd .LASF3338
C:\Users\CYMR90~1\AppData\Local\Temp\ccBmAAlS.s:21813  .debug_str:00000000000039d6 .LASF3339
C:\Users\CYMR90~1\AppData\Local\Temp\ccBmAAlS.s:28252  .debug_str:000000000001d871 .LASF3340
C:\Users\CYMR90~1\AppData\Local\Temp\ccBmAAlS.s:31012  .debug_str:0000000000028638 .LASF3341
C:\Users\CYMR90~1\AppData\Local\Temp\ccBmAAlS.s:23067  .debug_str:0000000000008b3c .LASF3342
C:\Users\CYMR90~1\AppData\Local\Temp\ccBmAAlS.s:29438  .debug_str:00000000000220c1 .LASF3343
C:\Users\CYMR90~1\AppData\Local\Temp\ccBmAAlS.s:26237  .debug_str:0000000000015461 .LASF3344
C:\Users\CYMR90~1\AppData\Local\Temp\ccBmAAlS.s:23161  .debug_str:00000000000090f7 .LASF3345
C:\Users\CYMR90~1\AppData\Local\Temp\ccBmAAlS.s:32114  .debug_str:000000000002cb9a .LASF3346
C:\Users\CYMR90~1\AppData\Local\Temp\ccBmAAlS.s:25593  .debug_str:0000000000012bd7 .LASF3347
C:\Users\CYMR90~1\AppData\Local\Temp\ccBmAAlS.s:23633  .debug_str:000000000000aebd .LASF3348
C:\Users\CYMR90~1\AppData\Local\Temp\ccBmAAlS.s:28090  .debug_str:000000000001cd2a .LASF3349
C:\Users\CYMR90~1\AppData\Local\Temp\ccBmAAlS.s:30190  .debug_str:0000000000024f9f .LASF3350
C:\Users\CYMR90~1\AppData\Local\Temp\ccBmAAlS.s:22101  .debug_str:0000000000004d4b .LASF3351
C:\Users\CYMR90~1\AppData\Local\Temp\ccBmAAlS.s:31516  .debug_str:000000000002a58b .LASF3352
C:\Users\CYMR90~1\AppData\Local\Temp\ccBmAAlS.s:30394  .debug_str:0000000000025e30 .LASF3353
C:\Users\CYMR90~1\AppData\Local\Temp\ccBmAAlS.s:27380  .debug_str:0000000000019f04 .LASF3354
C:\Users\CYMR90~1\AppData\Local\Temp\ccBmAAlS.s:27388  .debug_str:0000000000019f8a .LASF3355
C:\Users\CYMR90~1\AppData\Local\Temp\ccBmAAlS.s:30684  .debug_str:000000000002701d .LASF3356
C:\Users\CYMR90~1\AppData\Local\Temp\ccBmAAlS.s:25479  .debug_str:0000000000012445 .LASF3357
C:\Users\CYMR90~1\AppData\Local\Temp\ccBmAAlS.s:31488  .debug_str:000000000002a3ce .LASF3358
C:\Users\CYMR90~1\AppData\Local\Temp\ccBmAAlS.s:27048  .debug_str:00000000000188ac .LASF3359
C:\Users\CYMR90~1\AppData\Local\Temp\ccBmAAlS.s:30768  .debug_str:00000000000275e4 .LASF3360
C:\Users\CYMR90~1\AppData\Local\Temp\ccBmAAlS.s:21997  .debug_str:00000000000045fd .LASF3361
C:\Users\CYMR90~1\AppData\Local\Temp\ccBmAAlS.s:25071  .debug_str:00000000000109ab .LASF3362
C:\Users\CYMR90~1\AppData\Local\Temp\ccBmAAlS.s:28428  .debug_str:000000000001e375 .LASF3363
C:\Users\CYMR90~1\AppData\Local\Temp\ccBmAAlS.s:25409  .debug_str:0000000000011fe0 .LASF3364
C:\Users\CYMR90~1\AppData\Local\Temp\ccBmAAlS.s:24821  .debug_str:000000000000fa4e .LASF3365
C:\Users\CYMR90~1\AppData\Local\Temp\ccBmAAlS.s:25591  .debug_str:0000000000012b9e .LASF3366
C:\Users\CYMR90~1\AppData\Local\Temp\ccBmAAlS.s:29894  .debug_str:0000000000023c0d .LASF3367
C:\Users\CYMR90~1\AppData\Local\Temp\ccBmAAlS.s:26427  .debug_str:0000000000016047 .LASF3368
C:\Users\CYMR90~1\AppData\Local\Temp\ccBmAAlS.s:27996  .debug_str:000000000001c645 .LASF3369
C:\Users\CYMR90~1\AppData\Local\Temp\ccBmAAlS.s:23845  .debug_str:000000000000bd3b .LASF3370
C:\Users\CYMR90~1\AppData\Local\Temp\ccBmAAlS.s:22853  .debug_str:0000000000007c3e .LASF3371
C:\Users\CYMR90~1\AppData\Local\Temp\ccBmAAlS.s:22159  .debug_str:00000000000050cd .LASF3372
C:\Users\CYMR90~1\AppData\Local\Temp\ccBmAAlS.s:25543  .debug_str:0000000000012882 .LASF3373
C:\Users\CYMR90~1\AppData\Local\Temp\ccBmAAlS.s:21155  .debug_str:0000000000001159 .LASF3374
C:\Users\CYMR90~1\AppData\Local\Temp\ccBmAAlS.s:21249  .debug_str:0000000000001692 .LASF3375
C:\Users\CYMR90~1\AppData\Local\Temp\ccBmAAlS.s:30962  .debug_str:000000000002827f .LASF3376
C:\Users\CYMR90~1\AppData\Local\Temp\ccBmAAlS.s:27660  .debug_str:000000000001b210 .LASF3377
C:\Users\CYMR90~1\AppData\Local\Temp\ccBmAAlS.s:24117  .debug_str:000000000000cef8 .LASF3378
C:\Users\CYMR90~1\AppData\Local\Temp\ccBmAAlS.s:26003  .debug_str:000000000001458c .LASF3379
C:\Users\CYMR90~1\AppData\Local\Temp\ccBmAAlS.s:26988  .debug_str:0000000000018546 .LASF3380
C:\Users\CYMR90~1\AppData\Local\Temp\ccBmAAlS.s:24819  .debug_str:000000000000fa35 .LASF3381
C:\Users\CYMR90~1\AppData\Local\Temp\ccBmAAlS.s:22407  .debug_str:0000000000005fbf .LASF3382
C:\Users\CYMR90~1\AppData\Local\Temp\ccBmAAlS.s:21381  .debug_str:0000000000001f58 .LASF3383
C:\Users\CYMR90~1\AppData\Local\Temp\ccBmAAlS.s:26968  .debug_str:00000000000183f7 .LASF3384
C:\Users\CYMR90~1\AppData\Local\Temp\ccBmAAlS.s:26692  .debug_str:0000000000017327 .LASF3385
C:\Users\CYMR90~1\AppData\Local\Temp\ccBmAAlS.s:27726  .debug_str:000000000001b603 .LASF3386
C:\Users\CYMR90~1\AppData\Local\Temp\ccBmAAlS.s:24357  .debug_str:000000000000de0d .LASF3387
C:\Users\CYMR90~1\AppData\Local\Temp\ccBmAAlS.s:29118  .debug_str:0000000000020d8d .LASF3388
C:\Users\CYMR90~1\AppData\Local\Temp\ccBmAAlS.s:29992  .debug_str:0000000000024293 .LASF3389
C:\Users\CYMR90~1\AppData\Local\Temp\ccBmAAlS.s:30880  .debug_str:0000000000027cb1 .LASF3390
C:\Users\CYMR90~1\AppData\Local\Temp\ccBmAAlS.s:28012  .debug_str:000000000001c774 .LASF3391
C:\Users\CYMR90~1\AppData\Local\Temp\ccBmAAlS.s:30518  .debug_str:00000000000265d0 .LASF3392
C:\Users\CYMR90~1\AppData\Local\Temp\ccBmAAlS.s:22707  .debug_str:00000000000072e6 .LASF3393
C:\Users\CYMR90~1\AppData\Local\Temp\ccBmAAlS.s:27734  .debug_str:000000000001b690 .LASF3394
C:\Users\CYMR90~1\AppData\Local\Temp\ccBmAAlS.s:21475  .debug_str:0000000000002446 .LASF3395
C:\Users\CYMR90~1\AppData\Local\Temp\ccBmAAlS.s:30266  .debug_str:0000000000025551 .LASF3396
C:\Users\CYMR90~1\AppData\Local\Temp\ccBmAAlS.s:23943  .debug_str:000000000000c3fa .LASF3397
C:\Users\CYMR90~1\AppData\Local\Temp\ccBmAAlS.s:26459  .debug_str:000000000001625f .LASF3398
C:\Users\CYMR90~1\AppData\Local\Temp\ccBmAAlS.s:30716  .debug_str:00000000000271e0 .LASF3399
C:\Users\CYMR90~1\AppData\Local\Temp\ccBmAAlS.s:23599  .debug_str:000000000000acb4 .LASF3400
C:\Users\CYMR90~1\AppData\Local\Temp\ccBmAAlS.s:24433  .debug_str:000000000000e284 .LASF3401
C:\Users\CYMR90~1\AppData\Local\Temp\ccBmAAlS.s:22085  .debug_str:0000000000004c58 .LASF3402
C:\Users\CYMR90~1\AppData\Local\Temp\ccBmAAlS.s:21063  .debug_str:0000000000000b7b .LASF3403
C:\Users\CYMR90~1\AppData\Local\Temp\ccBmAAlS.s:29408  .debug_str:0000000000021f21 .LASF3404
C:\Users\CYMR90~1\AppData\Local\Temp\ccBmAAlS.s:23617  .debug_str:000000000000adc4 .LASF3405
C:\Users\CYMR90~1\AppData\Local\Temp\ccBmAAlS.s:21781  .debug_str:00000000000037cb .LASF3406
C:\Users\CYMR90~1\AppData\Local\Temp\ccBmAAlS.s:21231  .debug_str:0000000000001577 .LASF3407
C:\Users\CYMR90~1\AppData\Local\Temp\ccBmAAlS.s:27674  .debug_str:000000000001b2ff .LASF3408
C:\Users\CYMR90~1\AppData\Local\Temp\ccBmAAlS.s:26481  .debug_str:00000000000163ac .LASF3409
C:\Users\CYMR90~1\AppData\Local\Temp\ccBmAAlS.s:25639  .debug_str:0000000000012ed1 .LASF3410
C:\Users\CYMR90~1\AppData\Local\Temp\ccBmAAlS.s:27346  .debug_str:0000000000019d2c .LASF3411
C:\Users\CYMR90~1\AppData\Local\Temp\ccBmAAlS.s:31642  .debug_str:000000000002ad4b .LASF3412
C:\Users\CYMR90~1\AppData\Local\Temp\ccBmAAlS.s:26543  .debug_str:00000000000167c6 .LASF3413
C:\Users\CYMR90~1\AppData\Local\Temp\ccBmAAlS.s:25559  .debug_str:00000000000129b7 .LASF3414
C:\Users\CYMR90~1\AppData\Local\Temp\ccBmAAlS.s:27636  .debug_str:000000000001b089 .LASF3415
C:\Users\CYMR90~1\AppData\Local\Temp\ccBmAAlS.s:30546  .debug_str:0000000000026795 .LASF3416
C:\Users\CYMR90~1\AppData\Local\Temp\ccBmAAlS.s:22917  .debug_str:0000000000008186 .LASF3417
C:\Users\CYMR90~1\AppData\Local\Temp\ccBmAAlS.s:21599  .debug_str:0000000000002c52 .LASF3418
C:\Users\CYMR90~1\AppData\Local\Temp\ccBmAAlS.s:29330  .debug_str:0000000000021a39 .LASF3419
C:\Users\CYMR90~1\AppData\Local\Temp\ccBmAAlS.s:28662  .debug_str:000000000001f1ac .LASF3420
C:\Users\CYMR90~1\AppData\Local\Temp\ccBmAAlS.s:28954  .debug_str:000000000002031d .LASF3421
C:\Users\CYMR90~1\AppData\Local\Temp\ccBmAAlS.s:29490  .debug_str:00000000000223b7 .LASF3422
C:\Users\CYMR90~1\AppData\Local\Temp\ccBmAAlS.s:26990  .debug_str:000000000001855f .LASF3423
C:\Users\CYMR90~1\AppData\Local\Temp\ccBmAAlS.s:22633  .debug_str:0000000000006ddc .LASF3424
C:\Users\CYMR90~1\AppData\Local\Temp\ccBmAAlS.s:31802  .debug_str:000000000002b77c .LASF3425
C:\Users\CYMR90~1\AppData\Local\Temp\ccBmAAlS.s:31630  .debug_str:000000000002ac8a .LASF3426
C:\Users\CYMR90~1\AppData\Local\Temp\ccBmAAlS.s:28346  .debug_str:000000000001dea3 .LASF3427
C:\Users\CYMR90~1\AppData\Local\Temp\ccBmAAlS.s:21045  .debug_str:00000000000009f9 .LASF3428
C:\Users\CYMR90~1\AppData\Local\Temp\ccBmAAlS.s:30644  .debug_str:0000000000026d5f .LASF3429
C:\Users\CYMR90~1\AppData\Local\Temp\ccBmAAlS.s:24851  .debug_str:000000000000fc38 .LASF3430
C:\Users\CYMR90~1\AppData\Local\Temp\ccBmAAlS.s:32108  .debug_str:000000000002cb2a .LASF3431
C:\Users\CYMR90~1\AppData\Local\Temp\ccBmAAlS.s:27160  .debug_str:0000000000019115 .LASF3432
C:\Users\CYMR90~1\AppData\Local\Temp\ccBmAAlS.s:31740  .debug_str:000000000002b307 .LASF3433
C:\Users\CYMR90~1\AppData\Local\Temp\ccBmAAlS.s:27204  .debug_str:0000000000019399 .LASF3434
C:\Users\CYMR90~1\AppData\Local\Temp\ccBmAAlS.s:29476  .debug_str:000000000002230b .LASF3435
C:\Users\CYMR90~1\AppData\Local\Temp\ccBmAAlS.s:25907  .debug_str:0000000000013f7c .LASF3436
C:\Users\CYMR90~1\AppData\Local\Temp\ccBmAAlS.s:24041  .debug_str:000000000000ca98 .LASF3437
C:\Users\CYMR90~1\AppData\Local\Temp\ccBmAAlS.s:21665  .debug_str:0000000000003042 .LASF3438
C:\Users\CYMR90~1\AppData\Local\Temp\ccBmAAlS.s:27520  .debug_str:000000000001a913 .LASF3439
C:\Users\CYMR90~1\AppData\Local\Temp\ccBmAAlS.s:28742  .debug_str:000000000001f64b .LASF3440
C:\Users\CYMR90~1\AppData\Local\Temp\ccBmAAlS.s:31436  .debug_str:000000000002a0d1 .LASF3441
C:\Users\CYMR90~1\AppData\Local\Temp\ccBmAAlS.s:30630  .debug_str:0000000000026cc1 .LASF3442
C:\Users\CYMR90~1\AppData\Local\Temp\ccBmAAlS.s:29538  .debug_str:0000000000022674 .LASF3443
C:\Users\CYMR90~1\AppData\Local\Temp\ccBmAAlS.s:30206  .debug_str:0000000000025097 .LASF3444
C:\Users\CYMR90~1\AppData\Local\Temp\ccBmAAlS.s:28344  .debug_str:000000000001de87 .LASF3445
C:\Users\CYMR90~1\AppData\Local\Temp\ccBmAAlS.s:28400  .debug_str:000000000001e1ed .LASF3446
C:\Users\CYMR90~1\AppData\Local\Temp\ccBmAAlS.s:27426  .debug_str:000000000001a1a4 .LASF3447
C:\Users\CYMR90~1\AppData\Local\Temp\ccBmAAlS.s:20943  .debug_str:0000000000000435 .LASF3448
C:\Users\CYMR90~1\AppData\Local\Temp\ccBmAAlS.s:26778  .debug_str:000000000001787b .LASF3449
C:\Users\CYMR90~1\AppData\Local\Temp\ccBmAAlS.s:30400  .debug_str:0000000000025e86 .LASF3450
C:\Users\CYMR90~1\AppData\Local\Temp\ccBmAAlS.s:22201  .debug_str:0000000000005353 .LASF3451
C:\Users\CYMR90~1\AppData\Local\Temp\ccBmAAlS.s:21281  .debug_str:0000000000001951 .LASF3452
C:\Users\CYMR90~1\AppData\Local\Temp\ccBmAAlS.s:26337  .debug_str:0000000000015a2c .LASF3453
C:\Users\CYMR90~1\AppData\Local\Temp\ccBmAAlS.s:24761  .debug_str:000000000000f63d .LASF3454
C:\Users\CYMR90~1\AppData\Local\Temp\ccBmAAlS.s:23291  .debug_str:00000000000098b6 .LASF3455
C:\Users\CYMR90~1\AppData\Local\Temp\ccBmAAlS.s:28416  .debug_str:000000000001e2d8 .LASF3456
C:\Users\CYMR90~1\AppData\Local\Temp\ccBmAAlS.s:21373  .debug_str:0000000000001ee2 .LASF3457
C:\Users\CYMR90~1\AppData\Local\Temp\ccBmAAlS.s:28722  .debug_str:000000000001f559 .LASF3458
C:\Users\CYMR90~1\AppData\Local\Temp\ccBmAAlS.s:23265  .debug_str:000000000000973f .LASF3459
C:\Users\CYMR90~1\AppData\Local\Temp\ccBmAAlS.s:26900  .debug_str:0000000000017fed .LASF3460
C:\Users\CYMR90~1\AppData\Local\Temp\ccBmAAlS.s:30506  .debug_str:0000000000026518 .LASF3461
C:\Users\CYMR90~1\AppData\Local\Temp\ccBmAAlS.s:24393  .debug_str:000000000000e014 .LASF3462
C:\Users\CYMR90~1\AppData\Local\Temp\ccBmAAlS.s:28474  .debug_str:000000000001e68a .LASF3463
C:\Users\CYMR90~1\AppData\Local\Temp\ccBmAAlS.s:32002  .debug_str:000000000002c3f1 .LASF3464
C:\Users\CYMR90~1\AppData\Local\Temp\ccBmAAlS.s:24709  .debug_str:000000000000f349 .LASF3465
C:\Users\CYMR90~1\AppData\Local\Temp\ccBmAAlS.s:24141  .debug_str:000000000000d076 .LASF3466
C:\Users\CYMR90~1\AppData\Local\Temp\ccBmAAlS.s:22069  .debug_str:0000000000004b4a .LASF3467
C:\Users\CYMR90~1\AppData\Local\Temp\ccBmAAlS.s:28658  .debug_str:000000000001f178 .LASF3468
C:\Users\CYMR90~1\AppData\Local\Temp\ccBmAAlS.s:24403  .debug_str:000000000000e0b4 .LASF3469
C:\Users\CYMR90~1\AppData\Local\Temp\ccBmAAlS.s:31756  .debug_str:000000000002b448 .LASF3470
C:\Users\CYMR90~1\AppData\Local\Temp\ccBmAAlS.s:29320  .debug_str:00000000000219bd .LASF3471
C:\Users\CYMR90~1\AppData\Local\Temp\ccBmAAlS.s:26674  .debug_str:000000000001720a .LASF3472
C:\Users\CYMR90~1\AppData\Local\Temp\ccBmAAlS.s:28214  .debug_str:000000000001d602 .LASF3473
C:\Users\CYMR90~1\AppData\Local\Temp\ccBmAAlS.s:26724  .debug_str:0000000000017503 .LASF3474
C:\Users\CYMR90~1\AppData\Local\Temp\ccBmAAlS.s:30226  .debug_str:0000000000025240 .LASF3475
C:\Users\CYMR90~1\AppData\Local\Temp\ccBmAAlS.s:28364  .debug_str:000000000001dfdb .LASF3476
C:\Users\CYMR90~1\AppData\Local\Temp\ccBmAAlS.s:29292  .debug_str:0000000000021823 .LASF3477
C:\Users\CYMR90~1\AppData\Local\Temp\ccBmAAlS.s:24961  .debug_str:0000000000010309 .LASF3478
C:\Users\CYMR90~1\AppData\Local\Temp\ccBmAAlS.s:26105  .debug_str:0000000000014bf7 .LASF3479
C:\Users\CYMR90~1\AppData\Local\Temp\ccBmAAlS.s:32128  .debug_str:000000000002ccaa .LASF3480
C:\Users\CYMR90~1\AppData\Local\Temp\ccBmAAlS.s:29224  .debug_str:0000000000021411 .LASF3481
C:\Users\CYMR90~1\AppData\Local\Temp\ccBmAAlS.s:26950  .debug_str:00000000000182e7 .LASF3482
C:\Users\CYMR90~1\AppData\Local\Temp\ccBmAAlS.s:23295  .debug_str:00000000000098e8 .LASF3483
C:\Users\CYMR90~1\AppData\Local\Temp\ccBmAAlS.s:30502  .debug_str:00000000000264e2 .LASF3484
C:\Users\CYMR90~1\AppData\Local\Temp\ccBmAAlS.s:31572  .debug_str:000000000002a931 .LASF3485
C:\Users\CYMR90~1\AppData\Local\Temp\ccBmAAlS.s:23833  .debug_str:000000000000bc5f .LASF3486
C:\Users\CYMR90~1\AppData\Local\Temp\ccBmAAlS.s:30986  .debug_str:000000000002849a .LASF3487
C:\Users\CYMR90~1\AppData\Local\Temp\ccBmAAlS.s:27860  .debug_str:000000000001be08 .LASF3488
C:\Users\CYMR90~1\AppData\Local\Temp\ccBmAAlS.s:31448  .debug_str:000000000002a175 .LASF3489
C:\Users\CYMR90~1\AppData\Local\Temp\ccBmAAlS.s:21447  .debug_str:00000000000022d1 .LASF3490
C:\Users\CYMR90~1\AppData\Local\Temp\ccBmAAlS.s:30558  .debug_str:0000000000026870 .LASF3491
C:\Users\CYMR90~1\AppData\Local\Temp\ccBmAAlS.s:27298  .debug_str:0000000000019a33 .LASF3492
C:\Users\CYMR90~1\AppData\Local\Temp\ccBmAAlS.s:27222  .debug_str:00000000000194cd .LASF3493
C:\Users\CYMR90~1\AppData\Local\Temp\ccBmAAlS.s:27640  .debug_str:000000000001b0c9 .LASF3494
C:\Users\CYMR90~1\AppData\Local\Temp\ccBmAAlS.s:21455  .debug_str:000000000000233b .LASF3495
C:\Users\CYMR90~1\AppData\Local\Temp\ccBmAAlS.s:30904  .debug_str:0000000000027e8b .LASF3496
C:\Users\CYMR90~1\AppData\Local\Temp\ccBmAAlS.s:28304  .debug_str:000000000001dbc9 .LASF3497
C:\Users\CYMR90~1\AppData\Local\Temp\ccBmAAlS.s:30246  .debug_str:000000000002542c .LASF3498
C:\Users\CYMR90~1\AppData\Local\Temp\ccBmAAlS.s:29540  .debug_str:0000000000022690 .LASF3499
C:\Users\CYMR90~1\AppData\Local\Temp\ccBmAAlS.s:29078  .debug_str:0000000000020afc .LASF3500
C:\Users\CYMR90~1\AppData\Local\Temp\ccBmAAlS.s:31956  .debug_str:000000000002c16c .LASF3501
C:\Users\CYMR90~1\AppData\Local\Temp\ccBmAAlS.s:31698  .debug_str:000000000002b0bf .LASF3502
C:\Users\CYMR90~1\AppData\Local\Temp\ccBmAAlS.s:21003  .debug_str:000000000000077f .LASF3503
C:\Users\CYMR90~1\AppData\Local\Temp\ccBmAAlS.s:24625  .debug_str:000000000000ee24 .LASF3504
C:\Users\CYMR90~1\AppData\Local\Temp\ccBmAAlS.s:26015  .debug_str:0000000000014682 .LASF3505
C:\Users\CYMR90~1\AppData\Local\Temp\ccBmAAlS.s:29854  .debug_str:00000000000239ac .LASF3506
C:\Users\CYMR90~1\AppData\Local\Temp\ccBmAAlS.s:27474  .debug_str:000000000001a5d5 .LASF3507
C:\Users\CYMR90~1\AppData\Local\Temp\ccBmAAlS.s:26622  .debug_str:0000000000016f0b .LASF3508
C:\Users\CYMR90~1\AppData\Local\Temp\ccBmAAlS.s:27066  .debug_str:00000000000189dc .LASF3509
C:\Users\CYMR90~1\AppData\Local\Temp\ccBmAAlS.s:31518  .debug_str:000000000002a5a9 .LASF3510
C:\Users\CYMR90~1\AppData\Local\Temp\ccBmAAlS.s:24183  .debug_str:000000000000d367 .LASF3511
C:\Users\CYMR90~1\AppData\Local\Temp\ccBmAAlS.s:26670  .debug_str:00000000000171db .LASF3512
C:\Users\CYMR90~1\AppData\Local\Temp\ccBmAAlS.s:25991  .debug_str:00000000000144bf .LASF3513
C:\Users\CYMR90~1\AppData\Local\Temp\ccBmAAlS.s:26079  .debug_str:0000000000014a6f .LASF3514
C:\Users\CYMR90~1\AppData\Local\Temp\ccBmAAlS.s:28442  .debug_str:000000000001e462 .LASF3515
C:\Users\CYMR90~1\AppData\Local\Temp\ccBmAAlS.s:31322  .debug_str:0000000000029a4d .LASF3516
C:\Users\CYMR90~1\AppData\Local\Temp\ccBmAAlS.s:21593  .debug_str:0000000000002c0c .LASF3517
C:\Users\CYMR90~1\AppData\Local\Temp\ccBmAAlS.s:28640  .debug_str:000000000001f020 .LASF3518
C:\Users\CYMR90~1\AppData\Local\Temp\ccBmAAlS.s:23423  .debug_str:000000000000a10e .LASF3519
C:\Users\CYMR90~1\AppData\Local\Temp\ccBmAAlS.s:21719  .debug_str:00000000000033fa .LASF3520
C:\Users\CYMR90~1\AppData\Local\Temp\ccBmAAlS.s:23659  .debug_str:000000000000b133 .LASF3521
C:\Users\CYMR90~1\AppData\Local\Temp\ccBmAAlS.s:22597  .debug_str:0000000000006b5e .LASF3522
C:\Users\CYMR90~1\AppData\Local\Temp\ccBmAAlS.s:30166  .debug_str:0000000000024e30 .LASF3523
C:\Users\CYMR90~1\AppData\Local\Temp\ccBmAAlS.s:24271  .debug_str:000000000000d8f7 .LASF3524
C:\Users\CYMR90~1\AppData\Local\Temp\ccBmAAlS.s:27396  .debug_str:000000000001a003 .LASF3525
C:\Users\CYMR90~1\AppData\Local\Temp\ccBmAAlS.s:22551  .debug_str:000000000000689e .LASF3526
C:\Users\CYMR90~1\AppData\Local\Temp\ccBmAAlS.s:24499  .debug_str:000000000000e69e .LASF3527
C:\Users\CYMR90~1\AppData\Local\Temp\ccBmAAlS.s:24343  .debug_str:000000000000dd05 .LASF3528
C:\Users\CYMR90~1\AppData\Local\Temp\ccBmAAlS.s:22985  .debug_str:0000000000008616 .LASF3529
C:\Users\CYMR90~1\AppData\Local\Temp\ccBmAAlS.s:23179  .debug_str:00000000000091dd .LASF3530
C:\Users\CYMR90~1\AppData\Local\Temp\ccBmAAlS.s:23759  .debug_str:000000000000b77b .LASF3531
C:\Users\CYMR90~1\AppData\Local\Temp\ccBmAAlS.s:21743  .debug_str:000000000000357f .LASF3532
C:\Users\CYMR90~1\AppData\Local\Temp\ccBmAAlS.s:26181  .debug_str:000000000001511f .LASF3533
C:\Users\CYMR90~1\AppData\Local\Temp\ccBmAAlS.s:20925  .debug_str:000000000000030c .LASF3534
C:\Users\CYMR90~1\AppData\Local\Temp\ccBmAAlS.s:26666  .debug_str:00000000000171ad .LASF3535
C:\Users\CYMR90~1\AppData\Local\Temp\ccBmAAlS.s:23903  .debug_str:000000000000c16e .LASF3536
C:\Users\CYMR90~1\AppData\Local\Temp\ccBmAAlS.s:29790  .debug_str:000000000002358c .LASF3537
C:\Users\CYMR90~1\AppData\Local\Temp\ccBmAAlS.s:31874  .debug_str:000000000002bc00 .LASF3538
C:\Users\CYMR90~1\AppData\Local\Temp\ccBmAAlS.s:25453  .debug_str:00000000000122b4 .LASF3539
C:\Users\CYMR90~1\AppData\Local\Temp\ccBmAAlS.s:25309  .debug_str:00000000000119b4 .LASF3540
C:\Users\CYMR90~1\AppData\Local\Temp\ccBmAAlS.s:27654  .debug_str:000000000001b1d1 .LASF3541
C:\Users\CYMR90~1\AppData\Local\Temp\ccBmAAlS.s:29802  .debug_str:000000000002367b .LASF3542
C:\Users\CYMR90~1\AppData\Local\Temp\ccBmAAlS.s:31252  .debug_str:00000000000295aa .LASF3543
C:\Users\CYMR90~1\AppData\Local\Temp\ccBmAAlS.s:27314  .debug_str:0000000000019b23 .LASF3544
C:\Users\CYMR90~1\AppData\Local\Temp\ccBmAAlS.s:28624  .debug_str:000000000001ef14 .LASF3545
C:\Users\CYMR90~1\AppData\Local\Temp\ccBmAAlS.s:31088  .debug_str:0000000000028b73 .LASF3546
C:\Users\CYMR90~1\AppData\Local\Temp\ccBmAAlS.s:30586  .debug_str:0000000000026a20 .LASF3547
C:\Users\CYMR90~1\AppData\Local\Temp\ccBmAAlS.s:21103  .debug_str:0000000000000dd5 .LASF3548
C:\Users\CYMR90~1\AppData\Local\Temp\ccBmAAlS.s:24569  .debug_str:000000000000eb32 .LASF3549
C:\Users\CYMR90~1\AppData\Local\Temp\ccBmAAlS.s:31952  .debug_str:000000000002c13b .LASF3550
C:\Users\CYMR90~1\AppData\Local\Temp\ccBmAAlS.s:30730  .debug_str:00000000000272a5 .LASF3551
C:\Users\CYMR90~1\AppData\Local\Temp\ccBmAAlS.s:27882  .debug_str:000000000001bf66 .LASF3552
C:\Users\CYMR90~1\AppData\Local\Temp\ccBmAAlS.s:21253  .debug_str:00000000000016d7 .LASF3553
C:\Users\CYMR90~1\AppData\Local\Temp\ccBmAAlS.s:32216  .debug_str:000000000002d243 .LASF3554
C:\Users\CYMR90~1\AppData\Local\Temp\ccBmAAlS.s:24103  .debug_str:000000000000ce39 .LASF3555
C:\Users\CYMR90~1\AppData\Local\Temp\ccBmAAlS.s:22447  .debug_str:0000000000006241 .LASF3556
C:\Users\CYMR90~1\AppData\Local\Temp\ccBmAAlS.s:29176  .debug_str:00000000000210b4 .LASF3557
C:\Users\CYMR90~1\AppData\Local\Temp\ccBmAAlS.s:29448  .debug_str:0000000000022167 .LASF3558
C:\Users\CYMR90~1\AppData\Local\Temp\ccBmAAlS.s:23273  .debug_str:00000000000097b4 .LASF3559
C:\Users\CYMR90~1\AppData\Local\Temp\ccBmAAlS.s:29850  .debug_str:000000000002397e .LASF3560
C:\Users\CYMR90~1\AppData\Local\Temp\ccBmAAlS.s:22715  .debug_str:0000000000007379 .LASF3561
C:\Users\CYMR90~1\AppData\Local\Temp\ccBmAAlS.s:23611  .debug_str:000000000000ad70 .LASF3562
C:\Users\CYMR90~1\AppData\Local\Temp\ccBmAAlS.s:24391  .debug_str:000000000000dffb .LASF3563
C:\Users\CYMR90~1\AppData\Local\Temp\ccBmAAlS.s:28564  .debug_str:000000000001ebc1 .LASF3564
C:\Users\CYMR90~1\AppData\Local\Temp\ccBmAAlS.s:22033  .debug_str:0000000000004895 .LASF3565
C:\Users\CYMR90~1\AppData\Local\Temp\ccBmAAlS.s:21327  .debug_str:0000000000001c12 .LASF3566
C:\Users\CYMR90~1\AppData\Local\Temp\ccBmAAlS.s:23359  .debug_str:0000000000009d30 .LASF3567
C:\Users\CYMR90~1\AppData\Local\Temp\ccBmAAlS.s:29702  .debug_str:0000000000023089 .LASF3568
C:\Users\CYMR90~1\AppData\Local\Temp\ccBmAAlS.s:25341  .debug_str:0000000000011bc4 .LASF3569
C:\Users\CYMR90~1\AppData\Local\Temp\ccBmAAlS.s:25887  .debug_str:0000000000013e5e .LASF3570
C:\Users\CYMR90~1\AppData\Local\Temp\ccBmAAlS.s:23237  .debug_str:0000000000009537 .LASF3571
C:\Users\CYMR90~1\AppData\Local\Temp\ccBmAAlS.s:27556  .debug_str:000000000001ab56 .LASF3572
C:\Users\CYMR90~1\AppData\Local\Temp\ccBmAAlS.s:30352  .debug_str:0000000000025bc7 .LASF3573
C:\Users\CYMR90~1\AppData\Local\Temp\ccBmAAlS.s:29026  .debug_str:00000000000207ff .LASF3574
C:\Users\CYMR90~1\AppData\Local\Temp\ccBmAAlS.s:26822  .debug_str:0000000000017b58 .LASF3575
C:\Users\CYMR90~1\AppData\Local\Temp\ccBmAAlS.s:31026  .debug_str:000000000002873a .LASF3576
C:\Users\CYMR90~1\AppData\Local\Temp\ccBmAAlS.s:24401  .debug_str:000000000000e095 .LASF3577
C:\Users\CYMR90~1\AppData\Local\Temp\ccBmAAlS.s:22897  .debug_str:0000000000007fa6 .LASF3578
C:\Users\CYMR90~1\AppData\Local\Temp\ccBmAAlS.s:32010  .debug_str:000000000002c4a3 .LASF3579
C:\Users\CYMR90~1\AppData\Local\Temp\ccBmAAlS.s:28490  .debug_str:000000000001e731 .LASF3580
C:\Users\CYMR90~1\AppData\Local\Temp\ccBmAAlS.s:22317  .debug_str:0000000000005a46 .LASF3581
C:\Users\CYMR90~1\AppData\Local\Temp\ccBmAAlS.s:27372  .debug_str:0000000000019e95 .LASF3582
C:\Users\CYMR90~1\AppData\Local\Temp\ccBmAAlS.s:29990  .debug_str:0000000000024256 .LASF3583
C:\Users\CYMR90~1\AppData\Local\Temp\ccBmAAlS.s:29226  .debug_str:0000000000021428 .LASF3584
C:\Users\CYMR90~1\AppData\Local\Temp\ccBmAAlS.s:23787  .debug_str:000000000000b95e .LASF3585
C:\Users\CYMR90~1\AppData\Local\Temp\ccBmAAlS.s:27418  .debug_str:000000000001a134 .LASF3586
C:\Users\CYMR90~1\AppData\Local\Temp\ccBmAAlS.s:20891  .debug_str:00000000000000dc .LASF3587
C:\Users\CYMR90~1\AppData\Local\Temp\ccBmAAlS.s:25303  .debug_str:00000000000118bf .LASF3588
C:\Users\CYMR90~1\AppData\Local\Temp\ccBmAAlS.s:29270  .debug_str:00000000000216a9 .LASF3589
C:\Users\CYMR90~1\AppData\Local\Temp\ccBmAAlS.s:29536  .debug_str:000000000002264f .LASF3590
C:\Users\CYMR90~1\AppData\Local\Temp\ccBmAAlS.s:26413  .debug_str:0000000000015f39 .LASF3591
C:\Users\CYMR90~1\AppData\Local\Temp\ccBmAAlS.s:31382  .debug_str:0000000000029da6 .LASF3592
C:\Users\CYMR90~1\AppData\Local\Temp\ccBmAAlS.s:24011  .debug_str:000000000000c81e .LASF3593
C:\Users\CYMR90~1\AppData\Local\Temp\ccBmAAlS.s:32194  .debug_str:000000000002d0d1 .LASF3594
C:\Users\CYMR90~1\AppData\Local\Temp\ccBmAAlS.s:29828  .debug_str:0000000000023824 .LASF3595
C:\Users\CYMR90~1\AppData\Local\Temp\ccBmAAlS.s:30262  .debug_str:000000000002551d .LASF3596
C:\Users\CYMR90~1\AppData\Local\Temp\ccBmAAlS.s:25343  .debug_str:0000000000011bd9 .LASF3597
C:\Users\CYMR90~1\AppData\Local\Temp\ccBmAAlS.s:25705  .debug_str:0000000000013367 .LASF3598
C:\Users\CYMR90~1\AppData\Local\Temp\ccBmAAlS.s:21349  .debug_str:0000000000001d4a .LASF3599
C:\Users\CYMR90~1\AppData\Local\Temp\ccBmAAlS.s:22687  .debug_str:0000000000007155 .LASF3600
C:\Users\CYMR90~1\AppData\Local\Temp\ccBmAAlS.s:31828  .debug_str:000000000002b8dc .LASF3601
C:\Users\CYMR90~1\AppData\Local\Temp\ccBmAAlS.s:26443  .debug_str:0000000000016172 .LASF3602
C:\Users\CYMR90~1\AppData\Local\Temp\ccBmAAlS.s:27234  .debug_str:000000000001957f .LASF3603
C:\Users\CYMR90~1\AppData\Local\Temp\ccBmAAlS.s:23901  .debug_str:000000000000c149 .LASF3604
C:\Users\CYMR90~1\AppData\Local\Temp\ccBmAAlS.s:25551  .debug_str:0000000000012910 .LASF3605
C:\Users\CYMR90~1\AppData\Local\Temp\ccBmAAlS.s:21121  .debug_str:0000000000000f65 .LASF3606
C:\Users\CYMR90~1\AppData\Local\Temp\ccBmAAlS.s:27502  .debug_str:000000000001a7aa .LASF3607
C:\Users\CYMR90~1\AppData\Local\Temp\ccBmAAlS.s:21953  .debug_str:000000000000432d .LASF3608
C:\Users\CYMR90~1\AppData\Local\Temp\ccBmAAlS.s:27740  .debug_str:000000000001b6f2 .LASF3609
C:\Users\CYMR90~1\AppData\Local\Temp\ccBmAAlS.s:22223  .debug_str:000000000000549b .LASF3610
C:\Users\CYMR90~1\AppData\Local\Temp\ccBmAAlS.s:23343  .debug_str:0000000000009c1b .LASF3611
C:\Users\CYMR90~1\AppData\Local\Temp\ccBmAAlS.s:22491  .debug_str:00000000000064db .LASF3612
C:\Users\CYMR90~1\AppData\Local\Temp\ccBmAAlS.s:28262  .debug_str:000000000001d917 .LASF3613
C:\Users\CYMR90~1\AppData\Local\Temp\ccBmAAlS.s:30756  .debug_str:0000000000027528 .LASF3614
C:\Users\CYMR90~1\AppData\Local\Temp\ccBmAAlS.s:29470  .debug_str:00000000000222b2 .LASF3615
C:\Users\CYMR90~1\AppData\Local\Temp\ccBmAAlS.s:22535  .debug_str:000000000000676c .LASF3616
C:\Users\CYMR90~1\AppData\Local\Temp\ccBmAAlS.s:31392  .debug_str:0000000000029e53 .LASF3617
C:\Users\CYMR90~1\AppData\Local\Temp\ccBmAAlS.s:28718  .debug_str:000000000001f51f .LASF3618
C:\Users\CYMR90~1\AppData\Local\Temp\ccBmAAlS.s:24595  .debug_str:000000000000ec9d .LASF3619
C:\Users\CYMR90~1\AppData\Local\Temp\ccBmAAlS.s:23613  .debug_str:000000000000ad89 .LASF3620
C:\Users\CYMR90~1\AppData\Local\Temp\ccBmAAlS.s:20985  .debug_str:000000000000064d .LASF3621
C:\Users\CYMR90~1\AppData\Local\Temp\ccBmAAlS.s:24835  .debug_str:000000000000fb3a .LASF3622
C:\Users\CYMR90~1\AppData\Local\Temp\ccBmAAlS.s:23793  .debug_str:000000000000b9b4 .LASF3623
C:\Users\CYMR90~1\AppData\Local\Temp\ccBmAAlS.s:24547  .debug_str:000000000000e9ba .LASF3624
C:\Users\CYMR90~1\AppData\Local\Temp\ccBmAAlS.s:22721  .debug_str:00000000000073d3 .LASF3625
C:\Users\CYMR90~1\AppData\Local\Temp\ccBmAAlS.s:30824  .debug_str:0000000000027913 .LASF3626
C:\Users\CYMR90~1\AppData\Local\Temp\ccBmAAlS.s:28186  .debug_str:000000000001d429 .LASF3627
C:\Users\CYMR90~1\AppData\Local\Temp\ccBmAAlS.s:25645  .debug_str:0000000000012f31 .LASF3628
C:\Users\CYMR90~1\AppData\Local\Temp\ccBmAAlS.s:27756  .debug_str:000000000001b7e9 .LASF3629
C:\Users\CYMR90~1\AppData\Local\Temp\ccBmAAlS.s:31790  .debug_str:000000000002b693 .LASF3630
C:\Users\CYMR90~1\AppData\Local\Temp\ccBmAAlS.s:24981  .debug_str:0000000000010442 .LASF3631
C:\Users\CYMR90~1\AppData\Local\Temp\ccBmAAlS.s:31052  .debug_str:000000000002893a .LASF3632
C:\Users\CYMR90~1\AppData\Local\Temp\ccBmAAlS.s:23991  .debug_str:000000000000c6e9 .LASF3633
C:\Users\CYMR90~1\AppData\Local\Temp\ccBmAAlS.s:21429  .debug_str:00000000000021d9 .LASF3634
C:\Users\CYMR90~1\AppData\Local\Temp\ccBmAAlS.s:24957  .debug_str:00000000000102cb .LASF3635
C:\Users\CYMR90~1\AppData\Local\Temp\ccBmAAlS.s:24875  .debug_str:000000000000fdab .LASF3636
C:\Users\CYMR90~1\AppData\Local\Temp\ccBmAAlS.s:25089  .debug_str:0000000000010b05 .LASF3637
C:\Users\CYMR90~1\AppData\Local\Temp\ccBmAAlS.s:29450  .debug_str:000000000002217f .LASF3638
C:\Users\CYMR90~1\AppData\Local\Temp\ccBmAAlS.s:25769  .debug_str:000000000001374e .LASF3639
C:\Users\CYMR90~1\AppData\Local\Temp\ccBmAAlS.s:22887  .debug_str:0000000000007f0a .LASF3640
C:\Users\CYMR90~1\AppData\Local\Temp\ccBmAAlS.s:29678  .debug_str:0000000000022f18 .LASF3641
C:\Users\CYMR90~1\AppData\Local\Temp\ccBmAAlS.s:31830  .debug_str:000000000002b900 .LASF3642
C:\Users\CYMR90~1\AppData\Local\Temp\ccBmAAlS.s:31366  .debug_str:0000000000029cb0 .LASF3643
C:\Users\CYMR90~1\AppData\Local\Temp\ccBmAAlS.s:27850  .debug_str:000000000001bd40 .LASF3644
C:\Users\CYMR90~1\AppData\Local\Temp\ccBmAAlS.s:22691  .debug_str:0000000000007196 .LASF3645
C:\Users\CYMR90~1\AppData\Local\Temp\ccBmAAlS.s:22271  .debug_str:00000000000057a7 .LASF3646
C:\Users\CYMR90~1\AppData\Local\Temp\ccBmAAlS.s:22775  .debug_str:0000000000007704 .LASF3647
C:\Users\CYMR90~1\AppData\Local\Temp\ccBmAAlS.s:21735  .debug_str:0000000000003504 .LASF3648
C:\Users\CYMR90~1\AppData\Local\Temp\ccBmAAlS.s:30072  .debug_str:00000000000247c3 .LASF3649
C:\Users\CYMR90~1\AppData\Local\Temp\ccBmAAlS.s:24905  .debug_str:000000000000ff95 .LASF3650
C:\Users\CYMR90~1\AppData\Local\Temp\ccBmAAlS.s:23081  .debug_str:0000000000008c12 .LASF3651
C:\Users\CYMR90~1\AppData\Local\Temp\ccBmAAlS.s:23189  .debug_str:0000000000009290 .LASF3652
C:\Users\CYMR90~1\AppData\Local\Temp\ccBmAAlS.s:29340  .debug_str:0000000000021acb .LASF3653
C:\Users\CYMR90~1\AppData\Local\Temp\ccBmAAlS.s:31302  .debug_str:00000000000298e6 .LASF3654
C:\Users\CYMR90~1\AppData\Local\Temp\ccBmAAlS.s:29592  .debug_str:00000000000229c9 .LASF3655
C:\Users\CYMR90~1\AppData\Local\Temp\ccBmAAlS.s:31186  .debug_str:0000000000029139 .LASF3656
C:\Users\CYMR90~1\AppData\Local\Temp\ccBmAAlS.s:21019  .debug_str:0000000000000874 .LASF3657
C:\Users\CYMR90~1\AppData\Local\Temp\ccBmAAlS.s:29626  .debug_str:0000000000022c4a .LASF3658
C:\Users\CYMR90~1\AppData\Local\Temp\ccBmAAlS.s:26624  .debug_str:0000000000016f23 .LASF3659
C:\Users\CYMR90~1\AppData\Local\Temp\ccBmAAlS.s:23621  .debug_str:000000000000adfd .LASF3660
C:\Users\CYMR90~1\AppData\Local\Temp\ccBmAAlS.s:24163  .debug_str:000000000000d209 .LASF3661
C:\Users\CYMR90~1\AppData\Local\Temp\ccBmAAlS.s:22677  .debug_str:00000000000070a6 .LASF3662
C:\Users\CYMR90~1\AppData\Local\Temp\ccBmAAlS.s:26241  .debug_str:000000000001549e .LASF3663
C:\Users\CYMR90~1\AppData\Local\Temp\ccBmAAlS.s:24037  .debug_str:000000000000ca68 .LASF3664
C:\Users\CYMR90~1\AppData\Local\Temp\ccBmAAlS.s:29698  .debug_str:000000000002304a .LASF3665
C:\Users\CYMR90~1\AppData\Local\Temp\ccBmAAlS.s:27652  .debug_str:000000000001b18e .LASF3666
C:\Users\CYMR90~1\AppData\Local\Temp\ccBmAAlS.s:29634  .debug_str:0000000000022cca .LASF3667
C:\Users\CYMR90~1\AppData\Local\Temp\ccBmAAlS.s:26764  .debug_str:000000000001779f .LASF3668
C:\Users\CYMR90~1\AppData\Local\Temp\ccBmAAlS.s:24467  .debug_str:000000000000e472 .LASF3669
C:\Users\CYMR90~1\AppData\Local\Temp\ccBmAAlS.s:28688  .debug_str:000000000001f316 .LASF3670
C:\Users\CYMR90~1\AppData\Local\Temp\ccBmAAlS.s:24559  .debug_str:000000000000ea5d .LASF3671
C:\Users\CYMR90~1\AppData\Local\Temp\ccBmAAlS.s:25937  .debug_str:00000000000141d2 .LASF3672
C:\Users\CYMR90~1\AppData\Local\Temp\ccBmAAlS.s:26898  .debug_str:0000000000017fcb .LASF3673
C:\Users\CYMR90~1\AppData\Local\Temp\ccBmAAlS.s:30640  .debug_str:0000000000026d2c .LASF3674
C:\Users\CYMR90~1\AppData\Local\Temp\ccBmAAlS.s:23469  .debug_str:000000000000a3e0 .LASF3675
C:\Users\CYMR90~1\AppData\Local\Temp\ccBmAAlS.s:22191  .debug_str:00000000000052a7 .LASF3676
C:\Users\CYMR90~1\AppData\Local\Temp\ccBmAAlS.s:27202  .debug_str:0000000000019377 .LASF3677
C:\Users\CYMR90~1\AppData\Local\Temp\ccBmAAlS.s:23719  .debug_str:000000000000b483 .LASF3678
C:\Users\CYMR90~1\AppData\Local\Temp\ccBmAAlS.s:24435  .debug_str:000000000000e2ac .LASF3679
C:\Users\CYMR90~1\AppData\Local\Temp\ccBmAAlS.s:31930  .debug_str:000000000002bf96 .LASF3680
C:\Users\CYMR90~1\AppData\Local\Temp\ccBmAAlS.s:31776  .debug_str:000000000002b595 .LASF3681
C:\Users\CYMR90~1\AppData\Local\Temp\ccBmAAlS.s:24301  .debug_str:000000000000daa2 .LASF3682
C:\Users\CYMR90~1\AppData\Local\Temp\ccBmAAlS.s:22279  .debug_str:0000000000005816 .LASF3683
C:\Users\CYMR90~1\AppData\Local\Temp\ccBmAAlS.s:31420  .debug_str:0000000000029fe3 .LASF3684
C:\Users\CYMR90~1\AppData\Local\Temp\ccBmAAlS.s:29138  .debug_str:0000000000020e9c .LASF3685
C:\Users\CYMR90~1\AppData\Local\Temp\ccBmAAlS.s:22283  .debug_str:0000000000005859 .LASF3686
C:\Users\CYMR90~1\AppData\Local\Temp\ccBmAAlS.s:26363  .debug_str:0000000000015bb3 .LASF3687
C:\Users\CYMR90~1\AppData\Local\Temp\ccBmAAlS.s:22373  .debug_str:0000000000005dad .LASF3688
C:\Users\CYMR90~1\AppData\Local\Temp\ccBmAAlS.s:25819  .debug_str:0000000000013a46 .LASF3689
C:\Users\CYMR90~1\AppData\Local\Temp\ccBmAAlS.s:29332  .debug_str:0000000000021a51 .LASF3690
C:\Users\CYMR90~1\AppData\Local\Temp\ccBmAAlS.s:30448  .debug_str:00000000000261b9 .LASF3691
C:\Users\CYMR90~1\AppData\Local\Temp\ccBmAAlS.s:22103  .debug_str:0000000000004d67 .LASF3692
C:\Users\CYMR90~1\AppData\Local\Temp\ccBmAAlS.s:29918  .debug_str:0000000000023d72 .LASF3693
C:\Users\CYMR90~1\AppData\Local\Temp\ccBmAAlS.s:29060  .debug_str:0000000000020a05 .LASF3694
C:\Users\CYMR90~1\AppData\Local\Temp\ccBmAAlS.s:31570  .debug_str:000000000002a90d .LASF3695
C:\Users\CYMR90~1\AppData\Local\Temp\ccBmAAlS.s:24571  .debug_str:000000000000eb4a .LASF3696
C:\Users\CYMR90~1\AppData\Local\Temp\ccBmAAlS.s:22291  .debug_str:00000000000058af .LASF3697
C:\Users\CYMR90~1\AppData\Local\Temp\ccBmAAlS.s:23941  .debug_str:000000000000c3d6 .LASF3698
C:\Users\CYMR90~1\AppData\Local\Temp\ccBmAAlS.s:29150  .debug_str:0000000000020f3e .LASF3699
C:\Users\CYMR90~1\AppData\Local\Temp\ccBmAAlS.s:27002  .debug_str:00000000000185ec .LASF3700
C:\Users\CYMR90~1\AppData\Local\Temp\ccBmAAlS.s:28104  .debug_str:000000000001cdee .LASF3701
C:\Users\CYMR90~1\AppData\Local\Temp\ccBmAAlS.s:31160  .debug_str:0000000000028fb6 .LASF3702
C:\Users\CYMR90~1\AppData\Local\Temp\ccBmAAlS.s:28972  .debug_str:000000000002045a .LASF3703
C:\Users\CYMR90~1\AppData\Local\Temp\ccBmAAlS.s:32102  .debug_str:000000000002cad7 .LASF3704
C:\Users\CYMR90~1\AppData\Local\Temp\ccBmAAlS.s:21777  .debug_str:000000000000378e .LASF3705
C:\Users\CYMR90~1\AppData\Local\Temp\ccBmAAlS.s:30244  .debug_str:0000000000025402 .LASF3706
C:\Users\CYMR90~1\AppData\Local\Temp\ccBmAAlS.s:21141  .debug_str:0000000000001065 .LASF3707
C:\Users\CYMR90~1\AppData\Local\Temp\ccBmAAlS.s:28266  .debug_str:000000000001d95e .LASF3708
C:\Users\CYMR90~1\AppData\Local\Temp\ccBmAAlS.s:25681  .debug_str:0000000000013171 .LASF3709
C:\Users\CYMR90~1\AppData\Local\Temp\ccBmAAlS.s:32188  .debug_str:000000000002d083 .LASF3710
C:\Users\CYMR90~1\AppData\Local\Temp\ccBmAAlS.s:21567  .debug_str:0000000000002a5f .LASF3711
C:\Users\CYMR90~1\AppData\Local\Temp\ccBmAAlS.s:30698  .debug_str:00000000000270e5 .LASF3712
C:\Users\CYMR90~1\AppData\Local\Temp\ccBmAAlS.s:25537  .debug_str:000000000001280c .LASF3713
C:\Users\CYMR90~1\AppData\Local\Temp\ccBmAAlS.s:28964  .debug_str:00000000000203a0 .LASF3714
C:\Users\CYMR90~1\AppData\Local\Temp\ccBmAAlS.s:29104  .debug_str:0000000000020ca5 .LASF3715
C:\Users\CYMR90~1\AppData\Local\Temp\ccBmAAlS.s:21101  .debug_str:0000000000000db3 .LASF3716
C:\Users\CYMR90~1\AppData\Local\Temp\ccBmAAlS.s:28330  .debug_str:000000000001dd37 .LASF3717
C:\Users\CYMR90~1\AppData\Local\Temp\ccBmAAlS.s:21197  .debug_str:000000000000139e .LASF3718
C:\Users\CYMR90~1\AppData\Local\Temp\ccBmAAlS.s:30956  .debug_str:0000000000028217 .LASF3719
C:\Users\CYMR90~1\AppData\Local\Temp\ccBmAAlS.s:25441  .debug_str:00000000000121c9 .LASF3720
C:\Users\CYMR90~1\AppData\Local\Temp\ccBmAAlS.s:28462  .debug_str:000000000001e5ab .LASF3721
C:\Users\CYMR90~1\AppData\Local\Temp\ccBmAAlS.s:27370  .debug_str:0000000000019e65 .LASF3722
C:\Users\CYMR90~1\AppData\Local\Temp\ccBmAAlS.s:26115  .debug_str:0000000000014cbf .LASF3723
C:\Users\CYMR90~1\AppData\Local\Temp\ccBmAAlS.s:24927  .debug_str:000000000001010a .LASF3724
C:\Users\CYMR90~1\AppData\Local\Temp\ccBmAAlS.s:31818  .debug_str:000000000002b828 .LASF3725
C:\Users\CYMR90~1\AppData\Local\Temp\ccBmAAlS.s:30154  .debug_str:0000000000024d3e .LASF3726
C:\Users\CYMR90~1\AppData\Local\Temp\ccBmAAlS.s:21313  .debug_str:0000000000001b0a .LASF3727
C:\Users\CYMR90~1\AppData\Local\Temp\ccBmAAlS.s:30944  .debug_str:00000000000280f3 .LASF3728
C:\Users\CYMR90~1\AppData\Local\Temp\ccBmAAlS.s:31178  .debug_str:00000000000290a0 .LASF3729
C:\Users\CYMR90~1\AppData\Local\Temp\ccBmAAlS.s:20901  .debug_str:0000000000000174 .LASF3730
C:\Users\CYMR90~1\AppData\Local\Temp\ccBmAAlS.s:32052  .debug_str:000000000002c790 .LASF3731
C:\Users\CYMR90~1\AppData\Local\Temp\ccBmAAlS.s:23569  .debug_str:000000000000aac3 .LASF3732
C:\Users\CYMR90~1\AppData\Local\Temp\ccBmAAlS.s:30170  .debug_str:0000000000024e6a .LASF3733
C:\Users\CYMR90~1\AppData\Local\Temp\ccBmAAlS.s:23427  .debug_str:000000000000a13b .LASF3734
C:\Users\CYMR90~1\AppData\Local\Temp\ccBmAAlS.s:29210  .debug_str:000000000002128f .LASF3735
C:\Users\CYMR90~1\AppData\Local\Temp\ccBmAAlS.s:21605  .debug_str:0000000000002ca5 .LASF3736
C:\Users\CYMR90~1\AppData\Local\Temp\ccBmAAlS.s:27386  .debug_str:0000000000019f58 .LASF3737
C:\Users\CYMR90~1\AppData\Local\Temp\ccBmAAlS.s:24227  .debug_str:000000000000d690 .LASF3738
C:\Users\CYMR90~1\AppData\Local\Temp\ccBmAAlS.s:22327  .debug_str:0000000000005af6 .LASF3739
C:\Users\CYMR90~1\AppData\Local\Temp\ccBmAAlS.s:30862  .debug_str:0000000000027b54 .LASF3740
C:\Users\CYMR90~1\AppData\Local\Temp\ccBmAAlS.s:24703  .debug_str:000000000000f2db .LASF3741
C:\Users\CYMR90~1\AppData\Local\Temp\ccBmAAlS.s:23897  .debug_str:000000000000c0f2 .LASF3742
C:\Users\CYMR90~1\AppData\Local\Temp\ccBmAAlS.s:28940  .debug_str:000000000002024c .LASF3743
C:\Users\CYMR90~1\AppData\Local\Temp\ccBmAAlS.s:21049  .debug_str:0000000000000a44 .LASF3744
C:\Users\CYMR90~1\AppData\Local\Temp\ccBmAAlS.s:25339  .debug_str:0000000000011b92 .LASF3745
C:\Users\CYMR90~1\AppData\Local\Temp\ccBmAAlS.s:29630  .debug_str:0000000000022c86 .LASF3746
C:\Users\CYMR90~1\AppData\Local\Temp\ccBmAAlS.s:22473  .debug_str:00000000000063b3 .LASF3747
C:\Users\CYMR90~1\AppData\Local\Temp\ccBmAAlS.s:23829  .debug_str:000000000000bc19 .LASF3748
C:\Users\CYMR90~1\AppData\Local\Temp\ccBmAAlS.s:24915  .debug_str:000000000001003e .LASF3749
C:\Users\CYMR90~1\AppData\Local\Temp\ccBmAAlS.s:29186  .debug_str:0000000000021121 .LASF3750
C:\Users\CYMR90~1\AppData\Local\Temp\ccBmAAlS.s:22113  .debug_str:0000000000004e11 .LASF3751
C:\Users\CYMR90~1\AppData\Local\Temp\ccBmAAlS.s:26343  .debug_str:0000000000015a74 .LASF3752
C:\Users\CYMR90~1\AppData\Local\Temp\ccBmAAlS.s:30658  .debug_str:0000000000026e3c .LASF3753
C:\Users\CYMR90~1\AppData\Local\Temp\ccBmAAlS.s:26213  .debug_str:000000000001530f .LASF3754
C:\Users\CYMR90~1\AppData\Local\Temp\ccBmAAlS.s:25909  .debug_str:0000000000013f97 .LASF3755
C:\Users\CYMR90~1\AppData\Local\Temp\ccBmAAlS.s:32118  .debug_str:000000000002cbdb .LASF3756
C:\Users\CYMR90~1\AppData\Local\Temp\ccBmAAlS.s:24099  .debug_str:000000000000cdeb .LASF3757
C:\Users\CYMR90~1\AppData\Local\Temp\ccBmAAlS.s:29380  .debug_str:0000000000021d61 .LASF3758
C:\Users\CYMR90~1\AppData\Local\Temp\ccBmAAlS.s:22323  .debug_str:0000000000005a9e .LASF3759
C:\Users\CYMR90~1\AppData\Local\Temp\ccBmAAlS.s:31774  .debug_str:000000000002b563 .LASF3760
C:\Users\CYMR90~1\AppData\Local\Temp\ccBmAAlS.s:24697  .debug_str:000000000000f258 .LASF3761
C:\Users\CYMR90~1\AppData\Local\Temp\ccBmAAlS.s:28876  .debug_str:000000000001fe85 .LASF3762
C:\Users\CYMR90~1\AppData\Local\Temp\ccBmAAlS.s:21823  .debug_str:0000000000003a9f .LASF3763
C:\Users\CYMR90~1\AppData\Local\Temp\ccBmAAlS.s:24771  .debug_str:000000000000f76b .LASF3764
C:\Users\CYMR90~1\AppData\Local\Temp\ccBmAAlS.s:30438  .debug_str:0000000000026117 .LASF3765
C:\Users\CYMR90~1\AppData\Local\Temp\ccBmAAlS.s:23309  .debug_str:0000000000009a06 .LASF3766
C:\Users\CYMR90~1\AppData\Local\Temp\ccBmAAlS.s:27610  .debug_str:000000000001ae90 .LASF3767
C:\Users\CYMR90~1\AppData\Local\Temp\ccBmAAlS.s:21925  .debug_str:00000000000040f3 .LASF3768
C:\Users\CYMR90~1\AppData\Local\Temp\ccBmAAlS.s:29988  .debug_str:0000000000024224 .LASF3769
C:\Users\CYMR90~1\AppData\Local\Temp\ccBmAAlS.s:22941  .debug_str:000000000000831f .LASF3770
C:\Users\CYMR90~1\AppData\Local\Temp\ccBmAAlS.s:24537  .debug_str:000000000000e8e6 .LASF3771
C:\Users\CYMR90~1\AppData\Local\Temp\ccBmAAlS.s:31454  .debug_str:000000000002a1cb .LASF3772
C:\Users\CYMR90~1\AppData\Local\Temp\ccBmAAlS.s:22773  .debug_str:00000000000076d2 .LASF3773
C:\Users\CYMR90~1\AppData\Local\Temp\ccBmAAlS.s:28748  .debug_str:000000000001f69e .LASF3774
C:\Users\CYMR90~1\AppData\Local\Temp\ccBmAAlS.s:21527  .debug_str:00000000000027ce .LASF3775
C:\Users\CYMR90~1\AppData\Local\Temp\ccBmAAlS.s:26932  .debug_str:00000000000181bc .LASF3776
C:\Users\CYMR90~1\AppData\Local\Temp\ccBmAAlS.s:30120  .debug_str:0000000000024b04 .LASF3777
C:\Users\CYMR90~1\AppData\Local\Temp\ccBmAAlS.s:22951  .debug_str:00000000000083b6 .LASF3778
C:\Users\CYMR90~1\AppData\Local\Temp\ccBmAAlS.s:30404  .debug_str:0000000000025ec5 .LASF3779
C:\Users\CYMR90~1\AppData\Local\Temp\ccBmAAlS.s:25481  .debug_str:0000000000012479 .LASF3780
C:\Users\CYMR90~1\AppData\Local\Temp\ccBmAAlS.s:29684  .debug_str:0000000000022f73 .LASF3781
C:\Users\CYMR90~1\AppData\Local\Temp\ccBmAAlS.s:22625  .debug_str:0000000000006d35 .LASF3782
C:\Users\CYMR90~1\AppData\Local\Temp\ccBmAAlS.s:25527  .debug_str:000000000001274c .LASF3783
C:\Users\CYMR90~1\AppData\Local\Temp\ccBmAAlS.s:28878  .debug_str:000000000001feb7 .LASF3784
C:\Users\CYMR90~1\AppData\Local\Temp\ccBmAAlS.s:25447  .debug_str:0000000000012256 .LASF3785
C:\Users\CYMR90~1\AppData\Local\Temp\ccBmAAlS.s:30440  .debug_str:0000000000026149 .LASF3786
C:\Users\CYMR90~1\AppData\Local\Temp\ccBmAAlS.s:21951  .debug_str:0000000000004309 .LASF3787
C:\Users\CYMR90~1\AppData\Local\Temp\ccBmAAlS.s:24051  .debug_str:000000000000cb46 .LASF3788
C:\Users\CYMR90~1\AppData\Local\Temp\ccBmAAlS.s:24485  .debug_str:000000000000e587 .LASF3789
C:\Users\CYMR90~1\AppData\Local\Temp\ccBmAAlS.s:29996  .debug_str:00000000000242cd .LASF3790
C:\Users\CYMR90~1\AppData\Local\Temp\ccBmAAlS.s:26359  .debug_str:0000000000015b62 .LASF3791
C:\Users\CYMR90~1\AppData\Local\Temp\ccBmAAlS.s:26776  .debug_str:0000000000017859 .LASF3792
C:\Users\CYMR90~1\AppData\Local\Temp\ccBmAAlS.s:26199  .debug_str:0000000000015247 .LASF3793
C:\Users\CYMR90~1\AppData\Local\Temp\ccBmAAlS.s:26123  .debug_str:0000000000014d48 .LASF3794
C:\Users\CYMR90~1\AppData\Local\Temp\ccBmAAlS.s:29084  .debug_str:0000000000020b5c .LASF3795
C:\Users\CYMR90~1\AppData\Local\Temp\ccBmAAlS.s:26149  .debug_str:0000000000014f1b .LASF3796
C:\Users\CYMR90~1\AppData\Local\Temp\ccBmAAlS.s:30472  .debug_str:0000000000026325 .LASF3797
C:\Users\CYMR90~1\AppData\Local\Temp\ccBmAAlS.s:27226  .debug_str:00000000000194fc .LASF3798
C:\Users\CYMR90~1\AppData\Local\Temp\ccBmAAlS.s:25193  .debug_str:0000000000011121 .LASF3799
C:\Users\CYMR90~1\AppData\Local\Temp\ccBmAAlS.s:22863  .debug_str:0000000000007cd2 .LASF3800
C:\Users\CYMR90~1\AppData\Local\Temp\ccBmAAlS.s:21209  .debug_str:000000000000146b .LASF3801
C:\Users\CYMR90~1\AppData\Local\Temp\ccBmAAlS.s:20893  .debug_str:00000000000000ff .LASF3802
C:\Users\CYMR90~1\AppData\Local\Temp\ccBmAAlS.s:25763  .debug_str:000000000001370d .LASF3803
C:\Users\CYMR90~1\AppData\Local\Temp\ccBmAAlS.s:22249  .debug_str:0000000000005642 .LASF3804
C:\Users\CYMR90~1\AppData\Local\Temp\ccBmAAlS.s:23851  .debug_str:000000000000bde3 .LASF3805
C:\Users\CYMR90~1\AppData\Local\Temp\ccBmAAlS.s:24377  .debug_str:000000000000df36 .LASF3806
C:\Users\CYMR90~1\AppData\Local\Temp\ccBmAAlS.s:23435  .debug_str:000000000000a1d5 .LASF3807
C:\Users\CYMR90~1\AppData\Local\Temp\ccBmAAlS.s:24869  .debug_str:000000000000fd4d .LASF3808
C:\Users\CYMR90~1\AppData\Local\Temp\ccBmAAlS.s:26744  .debug_str:000000000001765d .LASF3809
C:\Users\CYMR90~1\AppData\Local\Temp\ccBmAAlS.s:26187  .debug_str:000000000001516d .LASF3810
C:\Users\CYMR90~1\AppData\Local\Temp\ccBmAAlS.s:25565  .debug_str:0000000000012a1b .LASF3811
C:\Users\CYMR90~1\AppData\Local\Temp\ccBmAAlS.s:27934  .debug_str:000000000001c2d0 .LASF3812
C:\Users\CYMR90~1\AppData\Local\Temp\ccBmAAlS.s:24489  .debug_str:000000000000e606 .LASF3813
C:\Users\CYMR90~1\AppData\Local\Temp\ccBmAAlS.s:21087  .debug_str:0000000000000cdd .LASF3814
C:\Users\CYMR90~1\AppData\Local\Temp\ccBmAAlS.s:31184  .debug_str:0000000000029115 .LASF3815
C:\Users\CYMR90~1\AppData\Local\Temp\ccBmAAlS.s:25627  .debug_str:0000000000012e0e .LASF3816
C:\Users\CYMR90~1\AppData\Local\Temp\ccBmAAlS.s:28278  .debug_str:000000000001da18 .LASF3817
C:\Users\CYMR90~1\AppData\Local\Temp\ccBmAAlS.s:21467  .debug_str:00000000000023ea .LASF3818
C:\Users\CYMR90~1\AppData\Local\Temp\ccBmAAlS.s:21375  .debug_str:0000000000001efc .LASF3819
C:\Users\CYMR90~1\AppData\Local\Temp\ccBmAAlS.s:30238  .debug_str:000000000002539b .LASF3820
C:\Users\CYMR90~1\AppData\Local\Temp\ccBmAAlS.s:30010  .debug_str:00000000000243e0 .LASF3821
C:\Users\CYMR90~1\AppData\Local\Temp\ccBmAAlS.s:26618  .debug_str:0000000000016ed4 .LASF3822
C:\Users\CYMR90~1\AppData\Local\Temp\ccBmAAlS.s:25919  .debug_str:000000000001407e .LASF3823
C:\Users\CYMR90~1\AppData\Local\Temp\ccBmAAlS.s:31172  .debug_str:000000000002905b .LASF3824
C:\Users\CYMR90~1\AppData\Local\Temp\ccBmAAlS.s:27750  .debug_str:000000000001b78c .LASF3825
C:\Users\CYMR90~1\AppData\Local\Temp\ccBmAAlS.s:21607  .debug_str:0000000000002cd7 .LASF3826
C:\Users\CYMR90~1\AppData\Local\Temp\ccBmAAlS.s:31554  .debug_str:000000000002a80f .LASF3827
C:\Users\CYMR90~1\AppData\Local\Temp\ccBmAAlS.s:31862  .debug_str:000000000002bb2f .LASF3828
C:\Users\CYMR90~1\AppData\Local\Temp\ccBmAAlS.s:24211  .debug_str:000000000000d58c .LASF3829
C:\Users\CYMR90~1\AppData\Local\Temp\ccBmAAlS.s:22111  .debug_str:0000000000004ded .LASF3830
C:\Users\CYMR90~1\AppData\Local\Temp\ccBmAAlS.s:32086  .debug_str:000000000002c9a4 .LASF3831
C:\Users\CYMR90~1\AppData\Local\Temp\ccBmAAlS.s:25323  .debug_str:0000000000011a7b .LASF3832
C:\Users\CYMR90~1\AppData\Local\Temp\ccBmAAlS.s:21899  .debug_str:0000000000003f9c .LASF3833
C:\Users\CYMR90~1\AppData\Local\Temp\ccBmAAlS.s:29872  .debug_str:0000000000023ac3 .LASF3834
C:\Users\CYMR90~1\AppData\Local\Temp\ccBmAAlS.s:26461  .debug_str:0000000000016285 .LASF3835
C:\Users\CYMR90~1\AppData\Local\Temp\ccBmAAlS.s:24883  .debug_str:000000000000fe50 .LASF3836
C:\Users\CYMR90~1\AppData\Local\Temp\ccBmAAlS.s:31034  .debug_str:00000000000287ce .LASF3837
C:\Users\CYMR90~1\AppData\Local\Temp\ccBmAAlS.s:29020  .debug_str:00000000000207b3 .LASF3838
C:\Users\CYMR90~1\AppData\Local\Temp\ccBmAAlS.s:22907  .debug_str:0000000000008056 .LASF3839
C:\Users\CYMR90~1\AppData\Local\Temp\ccBmAAlS.s:30876  .debug_str:0000000000027c77 .LASF3840
C:\Users\CYMR90~1\AppData\Local\Temp\ccBmAAlS.s:27480  .debug_str:000000000001a62d .LASF3841
C:\Users\CYMR90~1\AppData\Local\Temp\ccBmAAlS.s:24069  .debug_str:000000000000cc64 .LASF3842
C:\Users\CYMR90~1\AppData\Local\Temp\ccBmAAlS.s:32030  .debug_str:000000000002c633 .LASF3843
C:\Users\CYMR90~1\AppData\Local\Temp\ccBmAAlS.s:22011  .debug_str:0000000000004702 .LASF3844
C:\Users\CYMR90~1\AppData\Local\Temp\ccBmAAlS.s:25197  .debug_str:000000000001115c .LASF3845
C:\Users\CYMR90~1\AppData\Local\Temp\ccBmAAlS.s:28120  .debug_str:000000000001cf92 .LASF3846
C:\Users\CYMR90~1\AppData\Local\Temp\ccBmAAlS.s:29730  .debug_str:00000000000231ce .LASF3847
C:\Users\CYMR90~1\AppData\Local\Temp\ccBmAAlS.s:31106  .debug_str:0000000000028c94 .LASF3848
C:\Users\CYMR90~1\AppData\Local\Temp\ccBmAAlS.s:21611  .debug_str:0000000000002d30 .LASF3849
C:\Users\CYMR90~1\AppData\Local\Temp\ccBmAAlS.s:26738  .debug_str:00000000000175fa .LASF3850
C:\Users\CYMR90~1\AppData\Local\Temp\ccBmAAlS.s:26157  .debug_str:0000000000014f9b .LASF3851
C:\Users\CYMR90~1\AppData\Local\Temp\ccBmAAlS.s:22765  .debug_str:000000000000765b .LASF3852
C:\Users\CYMR90~1\AppData\Local\Temp\ccBmAAlS.s:22883  .debug_str:0000000000007ea7 .LASF3853
C:\Users\CYMR90~1\AppData\Local\Temp\ccBmAAlS.s:22879  .debug_str:0000000000007e66 .LASF3854
C:\Users\CYMR90~1\AppData\Local\Temp\ccBmAAlS.s:23917  .debug_str:000000000000c236 .LASF3855
C:\Users\CYMR90~1\AppData\Local\Temp\ccBmAAlS.s:31892  .debug_str:000000000002bcfa .LASF3856
C:\Users\CYMR90~1\AppData\Local\Temp\ccBmAAlS.s:21519  .debug_str:000000000000272f .LASF3857
C:\Users\CYMR90~1\AppData\Local\Temp\ccBmAAlS.s:29896  .debug_str:0000000000023c40 .LASF3858
C:\Users\CYMR90~1\AppData\Local\Temp\ccBmAAlS.s:25263  .debug_str:000000000001158c .LASF3859
C:\Users\CYMR90~1\AppData\Local\Temp\ccBmAAlS.s:28282  .debug_str:000000000001da54 .LASF3860
C:\Users\CYMR90~1\AppData\Local\Temp\ccBmAAlS.s:24909  .debug_str:000000000000ffda .LASF3861
C:\Users\CYMR90~1\AppData\Local\Temp\ccBmAAlS.s:21317  .debug_str:0000000000001b5e .LASF3862
C:\Users\CYMR90~1\AppData\Local\Temp\ccBmAAlS.s:29434  .debug_str:0000000000022080 .LASF3863
C:\Users\CYMR90~1\AppData\Local\Temp\ccBmAAlS.s:26023  .debug_str:00000000000146f4 .LASF3864
C:\Users\CYMR90~1\AppData\Local\Temp\ccBmAAlS.s:24707  .debug_str:000000000000f325 .LASF3865
C:\Users\CYMR90~1\AppData\Local\Temp\ccBmAAlS.s:27310  .debug_str:0000000000019ad9 .LASF3866
C:\Users\CYMR90~1\AppData\Local\Temp\ccBmAAlS.s:27190  .debug_str:00000000000192c4 .LASF3867
C:\Users\CYMR90~1\AppData\Local\Temp\ccBmAAlS.s:28576  .debug_str:000000000001ec56 .LASF3868
C:\Users\CYMR90~1\AppData\Local\Temp\ccBmAAlS.s:30524  .debug_str:0000000000026652 .LASF3869
C:\Users\CYMR90~1\AppData\Local\Temp\ccBmAAlS.s:28646  .debug_str:000000000001f091 .LASF3870
C:\Users\CYMR90~1\AppData\Local\Temp\ccBmAAlS.s:23241  .debug_str:0000000000009578 .LASF3871
C:\Users\CYMR90~1\AppData\Local\Temp\ccBmAAlS.s:31674  .debug_str:000000000002af30 .LASF3872
C:\Users\CYMR90~1\AppData\Local\Temp\ccBmAAlS.s:28158  .debug_str:000000000001d2b7 .LASF3873
C:\Users\CYMR90~1\AppData\Local\Temp\ccBmAAlS.s:29370  .debug_str:0000000000021cc7 .LASF3874
C:\Users\CYMR90~1\AppData\Local\Temp\ccBmAAlS.s:21325  .debug_str:0000000000001bee .LASF3875
C:\Users\CYMR90~1\AppData\Local\Temp\ccBmAAlS.s:29284  .debug_str:000000000002177a .LASF3876
C:\Users\CYMR90~1\AppData\Local\Temp\ccBmAAlS.s:25871  .debug_str:0000000000013d63 .LASF3877
C:\Users\CYMR90~1\AppData\Local\Temp\ccBmAAlS.s:31566  .debug_str:000000000002a8ce .LASF3878
C:\Users\CYMR90~1\AppData\Local\Temp\ccBmAAlS.s:29218  .debug_str:0000000000021311 .LASF3879
C:\Users\CYMR90~1\AppData\Local\Temp\ccBmAAlS.s:25815  .debug_str:0000000000013a0b .LASF3880
C:\Users\CYMR90~1\AppData\Local\Temp\ccBmAAlS.s:30540  .debug_str:0000000000026744 .LASF3881
C:\Users\CYMR90~1\AppData\Local\Temp\ccBmAAlS.s:30362  .debug_str:0000000000025c5a .LASF3882
C:\Users\CYMR90~1\AppData\Local\Temp\ccBmAAlS.s:26956  .debug_str:0000000000018337 .LASF3883
C:\Users\CYMR90~1\AppData\Local\Temp\ccBmAAlS.s:32138  .debug_str:000000000002cd22 .LASF3884
C:\Users\CYMR90~1\AppData\Local\Temp\ccBmAAlS.s:31522  .debug_str:000000000002a5e2 .LASF3885
C:\Users\CYMR90~1\AppData\Local\Temp\ccBmAAlS.s:21811  .debug_str:00000000000039b2 .LASF3886
C:\Users\CYMR90~1\AppData\Local\Temp\ccBmAAlS.s:28300  .debug_str:000000000001db79 .LASF3887
C:\Users\CYMR90~1\AppData\Local\Temp\ccBmAAlS.s:22679  .debug_str:00000000000070e7 .LASF3888
C:\Users\CYMR90~1\AppData\Local\Temp\ccBmAAlS.s:22819  .debug_str:00000000000079d8 .LASF3889
C:\Users\CYMR90~1\AppData\Local\Temp\ccBmAAlS.s:26842  .debug_str:0000000000017c7c .LASF3890
C:\Users\CYMR90~1\AppData\Local\Temp\ccBmAAlS.s:30818  .debug_str:00000000000278b2 .LASF3891
C:\Users\CYMR90~1\AppData\Local\Temp\ccBmAAlS.s:23411  .debug_str:000000000000a039 .LASF3892
C:\Users\CYMR90~1\AppData\Local\Temp\ccBmAAlS.s:31962  .debug_str:000000000002c1c5 .LASF3893
C:\Users\CYMR90~1\AppData\Local\Temp\ccBmAAlS.s:22923  .debug_str:00000000000081f6 .LASF3894
C:\Users\CYMR90~1\AppData\Local\Temp\ccBmAAlS.s:25255  .debug_str:0000000000011521 .LASF3895
C:\Users\CYMR90~1\AppData\Local\Temp\ccBmAAlS.s:27806  .debug_str:000000000001ba5b .LASF3896
C:\Users\CYMR90~1\AppData\Local\Temp\ccBmAAlS.s:31882  .debug_str:000000000002bc77 .LASF3897
C:\Users\CYMR90~1\AppData\Local\Temp\ccBmAAlS.s:25963  .debug_str:0000000000014337 .LASF3898
C:\Users\CYMR90~1\AppData\Local\Temp\ccBmAAlS.s:28410  .debug_str:000000000001e280 .LASF3899
C:\Users\CYMR90~1\AppData\Local\Temp\ccBmAAlS.s:30748  .debug_str:000000000002749d .LASF3900
C:\Users\CYMR90~1\AppData\Local\Temp\ccBmAAlS.s:21757  .debug_str:000000000000365c .LASF3901
C:\Users\CYMR90~1\AppData\Local\Temp\ccBmAAlS.s:29116  .debug_str:0000000000020d67 .LASF3902
C:\Users\CYMR90~1\AppData\Local\Temp\ccBmAAlS.s:21667  .debug_str:000000000000305d .LASF3903
C:\Users\CYMR90~1\AppData\Local\Temp\ccBmAAlS.s:28754  .debug_str:000000000001f702 .LASF3904
C:\Users\CYMR90~1\AppData\Local\Temp\ccBmAAlS.s:31138  .debug_str:0000000000028e24 .LASF3905
C:\Users\CYMR90~1\AppData\Local\Temp\ccBmAAlS.s:25583  .debug_str:0000000000012b07 .LASF3906
C:\Users\CYMR90~1\AppData\Local\Temp\ccBmAAlS.s:24375  .debug_str:000000000000df10 .LASF3907
C:\Users\CYMR90~1\AppData\Local\Temp\ccBmAAlS.s:21413  .debug_str:0000000000002102 .LASF3908
C:\Users\CYMR90~1\AppData\Local\Temp\ccBmAAlS.s:22949  .debug_str:0000000000008390 .LASF3909
C:\Users\CYMR90~1\AppData\Local\Temp\ccBmAAlS.s:25285  .debug_str:00000000000117bc .LASF3910
C:\Users\CYMR90~1\AppData\Local\Temp\ccBmAAlS.s:27218  .debug_str:000000000001948b .LASF3911
C:\Users\CYMR90~1\AppData\Local\Temp\ccBmAAlS.s:25247  .debug_str:000000000001148e .LASF3912
C:\Users\CYMR90~1\AppData\Local\Temp\ccBmAAlS.s:20969  .debug_str:000000000000058f .LASF3913
C:\Users\CYMR90~1\AppData\Local\Temp\ccBmAAlS.s:27686  .debug_str:000000000001b3aa .LASF3914
C:\Users\CYMR90~1\AppData\Local\Temp\ccBmAAlS.s:26521  .debug_str:0000000000016660 .LASF3915
C:\Users\CYMR90~1\AppData\Local\Temp\ccBmAAlS.s:24309  .debug_str:000000000000db05 .LASF3916
C:\Users\CYMR90~1\AppData\Local\Temp\ccBmAAlS.s:28706  .debug_str:000000000001f448 .LASF3917
C:\Users\CYMR90~1\AppData\Local\Temp\ccBmAAlS.s:27256  .debug_str:00000000000196ab .LASF3918
C:\Users\CYMR90~1\AppData\Local\Temp\ccBmAAlS.s:23209  .debug_str:00000000000093aa .LASF3919
C:\Users\CYMR90~1\AppData\Local\Temp\ccBmAAlS.s:27152  .debug_str:0000000000018fc6 .LASF3920
C:\Users\CYMR90~1\AppData\Local\Temp\ccBmAAlS.s:31098  .debug_str:0000000000028c1c .LASF3921
C:\Users\CYMR90~1\AppData\Local\Temp\ccBmAAlS.s:26087  .debug_str:0000000000014aca .LASF3922
C:\Users\CYMR90~1\AppData\Local\Temp\ccBmAAlS.s:27644  .debug_str:000000000001b0fe .LASF3923
C:\Users\CYMR90~1\AppData\Local\Temp\ccBmAAlS.s:31672  .debug_str:000000000002af0a .LASF3924
C:\Users\CYMR90~1\AppData\Local\Temp\ccBmAAlS.s:24255  .debug_str:000000000000d818 .LASF3925
C:\Users\CYMR90~1\AppData\Local\Temp\ccBmAAlS.s:23395  .debug_str:0000000000009f23 .LASF3926
C:\Users\CYMR90~1\AppData\Local\Temp\ccBmAAlS.s:25717  .debug_str:0000000000013426 .LASF3927
C:\Users\CYMR90~1\AppData\Local\Temp\ccBmAAlS.s:29174  .debug_str:000000000002108e .LASF3928
C:\Users\CYMR90~1\AppData\Local\Temp\ccBmAAlS.s:30948  .debug_str:000000000002817c .LASF3929
C:\Users\CYMR90~1\AppData\Local\Temp\ccBmAAlS.s:28246  .debug_str:000000000001d817 .LASF3930
C:\Users\CYMR90~1\AppData\Local\Temp\ccBmAAlS.s:23627  .debug_str:000000000000ae55 .LASF3931
C:\Users\CYMR90~1\AppData\Local\Temp\ccBmAAlS.s:27582  .debug_str:000000000001acdf .LASF3932
C:\Users\CYMR90~1\AppData\Local\Temp\ccBmAAlS.s:31598  .debug_str:000000000002aac0 .LASF3933
C:\Users\CYMR90~1\AppData\Local\Temp\ccBmAAlS.s:26896  .debug_str:0000000000017fa5 .LASF3934
C:\Users\CYMR90~1\AppData\Local\Temp\ccBmAAlS.s:28116  .debug_str:000000000001cf52 .LASF3935
C:\Users\CYMR90~1\AppData\Local\Temp\ccBmAAlS.s:32088  .debug_str:000000000002c9c8 .LASF3936
C:\Users\CYMR90~1\AppData\Local\Temp\ccBmAAlS.s:24659  .debug_str:000000000000f004 .LASF3937
C:\Users\CYMR90~1\AppData\Local\Temp\ccBmAAlS.s:21705  .debug_str:00000000000032f0 .LASF3938
C:\Users\CYMR90~1\AppData\Local\Temp\ccBmAAlS.s:30972  .debug_str:000000000002831c .LASF3939
C:\Users\CYMR90~1\AppData\Local\Temp\ccBmAAlS.s:31542  .debug_str:000000000002a762 .LASF3940
C:\Users\CYMR90~1\AppData\Local\Temp\ccBmAAlS.s:22497  .debug_str:000000000000652b .LASF3941
C:\Users\CYMR90~1\AppData\Local\Temp\ccBmAAlS.s:31532  .debug_str:000000000002a68b .LASF3942
C:\Users\CYMR90~1\AppData\Local\Temp\ccBmAAlS.s:24121  .debug_str:000000000000cf46 .LASF3943
C:\Users\CYMR90~1\AppData\Local\Temp\ccBmAAlS.s:28052  .debug_str:000000000001cac3 .LASF3944
C:\Users\CYMR90~1\AppData\Local\Temp\ccBmAAlS.s:32026  .debug_str:000000000002c5e6 .LASF3945
C:\Users\CYMR90~1\AppData\Local\Temp\ccBmAAlS.s:22925  .debug_str:000000000000821c .LASF3946
C:\Users\CYMR90~1\AppData\Local\Temp\ccBmAAlS.s:26077  .debug_str:0000000000014a49 .LASF3947
C:\Users\CYMR90~1\AppData\Local\Temp\ccBmAAlS.s:25597  .debug_str:0000000000012c0e .LASF3948
C:\Users\CYMR90~1\AppData\Local\Temp\ccBmAAlS.s:23499  .debug_str:000000000000a5eb .LASF3949
C:\Users\CYMR90~1\AppData\Local\Temp\ccBmAAlS.s:27436  .debug_str:000000000001a231 .LASF3950
C:\Users\CYMR90~1\AppData\Local\Temp\ccBmAAlS.s:24917  .debug_str:0000000000010070 .LASF3951
C:\Users\CYMR90~1\AppData\Local\Temp\ccBmAAlS.s:27822  .debug_str:000000000001bb7c .LASF3952
C:\Users\CYMR90~1\AppData\Local\Temp\ccBmAAlS.s:27980  .debug_str:000000000001c540 .LASF3953
C:\Users\CYMR90~1\AppData\Local\Temp\ccBmAAlS.s:29286  .debug_str:000000000002179e .LASF3954
C:\Users\CYMR90~1\AppData\Local\Temp\ccBmAAlS.s:24519  .debug_str:000000000000e7e0 .LASF3955
C:\Users\CYMR90~1\AppData\Local\Temp\ccBmAAlS.s:28434  .debug_str:000000000001e3c3 .LASF3956
C:\Users\CYMR90~1\AppData\Local\Temp\ccBmAAlS.s:21061  .debug_str:0000000000000b55 .LASF3957
C:\Users\CYMR90~1\AppData\Local\Temp\ccBmAAlS.s:27986  .debug_str:000000000001c59e .LASF3958
C:\Users\CYMR90~1\AppData\Local\Temp\ccBmAAlS.s:29558  .debug_str:00000000000227d6 .LASF3959
C:\Users\CYMR90~1\AppData\Local\Temp\ccBmAAlS.s:31404  .debug_str:0000000000029ef8 .LASF3960
C:\Users\CYMR90~1\AppData\Local\Temp\ccBmAAlS.s:23987  .debug_str:000000000000c6a7 .LASF3961
C:\Users\CYMR90~1\AppData\Local\Temp\ccBmAAlS.s:22503  .debug_str:0000000000006591 .LASF3962
C:\Users\CYMR90~1\AppData\Local\Temp\ccBmAAlS.s:31896  .debug_str:000000000002bd36 .LASF3963
C:\Users\CYMR90~1\AppData\Local\Temp\ccBmAAlS.s:32168  .debug_str:000000000002cf4e .LASF3964
C:\Users\CYMR90~1\AppData\Local\Temp\ccBmAAlS.s:28368  .debug_str:000000000001e004 .LASF3965
C:\Users\CYMR90~1\AppData\Local\Temp\ccBmAAlS.s:20999  .debug_str:000000000000074c .LASF3966
C:\Users\CYMR90~1\AppData\Local\Temp\ccBmAAlS.s:32076  .debug_str:000000000002c8f1 .LASF3967
C:\Users\CYMR90~1\AppData\Local\Temp\ccBmAAlS.s:21975  .debug_str:000000000000449a .LASF3968
C:\Users\CYMR90~1\AppData\Local\Temp\ccBmAAlS.s:31342  .debug_str:0000000000029b42 .LASF3969
C:\Users\CYMR90~1\AppData\Local\Temp\ccBmAAlS.s:27318  .debug_str:0000000000019b55 .LASF3970
C:\Users\CYMR90~1\AppData\Local\Temp\ccBmAAlS.s:29642  .debug_str:0000000000022d28 .LASF3971
C:\Users\CYMR90~1\AppData\Local\Temp\ccBmAAlS.s:31838  .debug_str:000000000002b982 .LASF3972
C:\Users\CYMR90~1\AppData\Local\Temp\ccBmAAlS.s:24397  .debug_str:000000000000e043 .LASF3973
C:\Users\CYMR90~1\AppData\Local\Temp\ccBmAAlS.s:22273  .debug_str:00000000000057c9 .LASF3974
C:\Users\CYMR90~1\AppData\Local\Temp\ccBmAAlS.s:20929  .debug_str:000000000000034f .LASF3975
C:\Users\CYMR90~1\AppData\Local\Temp\ccBmAAlS.s:25461  .debug_str:0000000000012329 .LASF3976
C:\Users\CYMR90~1\AppData\Local\Temp\ccBmAAlS.s:21851  .debug_str:0000000000003c3a .LASF3977
C:\Users\CYMR90~1\AppData\Local\Temp\ccBmAAlS.s:25951  .debug_str:0000000000014284 .LASF3978
C:\Users\CYMR90~1\AppData\Local\Temp\ccBmAAlS.s:23857  .debug_str:000000000000be5a .LASF3979
C:\Users\CYMR90~1\AppData\Local\Temp\ccBmAAlS.s:21211  .debug_str:000000000000148f .LASF3980
C:\Users\CYMR90~1\AppData\Local\Temp\ccBmAAlS.s:24177  .debug_str:000000000000d301 .LASF3981
C:\Users\CYMR90~1\AppData\Local\Temp\ccBmAAlS.s:28632  .debug_str:000000000001efa5 .LASF3982
C:\Users\CYMR90~1\AppData\Local\Temp\ccBmAAlS.s:28818  .debug_str:000000000001fae2 .LASF3983
C:\Users\CYMR90~1\AppData\Local\Temp\ccBmAAlS.s:32230  .debug_str:000000000002d31a .LASF3984
C:\Users\CYMR90~1\AppData\Local\Temp\ccBmAAlS.s:21205  .debug_str:0000000000001433 .LASF3985
C:\Users\CYMR90~1\AppData\Local\Temp\ccBmAAlS.s:25391  .debug_str:0000000000011e88 .LASF3986
C:\Users\CYMR90~1\AppData\Local\Temp\ccBmAAlS.s:27736  .debug_str:000000000001b6b4 .LASF3987
C:\Users\CYMR90~1\AppData\Local\Temp\ccBmAAlS.s:30426  .debug_str:000000000002601b .LASF3988
C:\Users\CYMR90~1\AppData\Local\Temp\ccBmAAlS.s:26125  .debug_str:0000000000014d6a .LASF3989
C:\Users\CYMR90~1\AppData\Local\Temp\ccBmAAlS.s:29366  .debug_str:0000000000021c87 .LASF3990
C:\Users\CYMR90~1\AppData\Local\Temp\ccBmAAlS.s:21659  .debug_str:0000000000002ff3 .LASF3991
C:\Users\CYMR90~1\AppData\Local\Temp\ccBmAAlS.s:22991  .debug_str:0000000000008660 .LASF3992
C:\Users\CYMR90~1\AppData\Local\Temp\ccBmAAlS.s:26926  .debug_str:000000000001815f .LASF3993
C:\Users\CYMR90~1\AppData\Local\Temp\ccBmAAlS.s:30892  .debug_str:0000000000027d82 .LASF3994
C:\Users\CYMR90~1\AppData\Local\Temp\ccBmAAlS.s:23489  .debug_str:000000000000a549 .LASF3995
C:\Users\CYMR90~1\AppData\Local\Temp\ccBmAAlS.s:32090  .debug_str:000000000002c9ee .LASF3996
C:\Users\CYMR90~1\AppData\Local\Temp\ccBmAAlS.s:31458  .debug_str:000000000002a214 .LASF3997
C:\Users\CYMR90~1\AppData\Local\Temp\ccBmAAlS.s:27140  .debug_str:0000000000018f0f .LASF3998
C:\Users\CYMR90~1\AppData\Local\Temp\ccBmAAlS.s:21533  .debug_str:0000000000002853 .LASF3999
C:\Users\CYMR90~1\AppData\Local\Temp\ccBmAAlS.s:30330  .debug_str:0000000000025a78 .LASF4000
C:\Users\CYMR90~1\AppData\Local\Temp\ccBmAAlS.s:22929  .debug_str:0000000000008258 .LASF4001
C:\Users\CYMR90~1\AppData\Local\Temp\ccBmAAlS.s:26856  .debug_str:0000000000017d4c .LASF4002
C:\Users\CYMR90~1\AppData\Local\Temp\ccBmAAlS.s:31664  .debug_str:000000000002ae6f .LASF4003
C:\Users\CYMR90~1\AppData\Local\Temp\ccBmAAlS.s:21873  .debug_str:0000000000003dc1 .LASF4004
C:\Users\CYMR90~1\AppData\Local\Temp\ccBmAAlS.s:27358  .debug_str:0000000000019de6 .LASF4005
C:\Users\CYMR90~1\AppData\Local\Temp\ccBmAAlS.s:31400  .debug_str:0000000000029ebb .LASF4006
C:\Users\CYMR90~1\AppData\Local\Temp\ccBmAAlS.s:29800  .debug_str:0000000000023655 .LASF4007
C:\Users\CYMR90~1\AppData\Local\Temp\ccBmAAlS.s:28850  .debug_str:000000000001fce7 .LASF4008
C:\Users\CYMR90~1\AppData\Local\Temp\ccBmAAlS.s:30150  .debug_str:0000000000024d05 .LASF4009
C:\Users\CYMR90~1\AppData\Local\Temp\ccBmAAlS.s:25273  .debug_str:0000000000011650 .LASF4010
C:\Users\CYMR90~1\AppData\Local\Temp\ccBmAAlS.s:26796  .debug_str:00000000000179db .LASF4011
C:\Users\CYMR90~1\AppData\Local\Temp\ccBmAAlS.s:23087  .debug_str:0000000000008c84 .LASF4012
C:\Users\CYMR90~1\AppData\Local\Temp\ccBmAAlS.s:27528  .debug_str:000000000001a987 .LASF4013
C:\Users\CYMR90~1\AppData\Local\Temp\ccBmAAlS.s:27758  .debug_str:000000000001b80d .LASF4014
C:\Users\CYMR90~1\AppData\Local\Temp\ccBmAAlS.s:31332  .debug_str:0000000000029ab8 .LASF4015
C:\Users\CYMR90~1\AppData\Local\Temp\ccBmAAlS.s:23911  .debug_str:000000000000c1e3 .LASF4016
C:\Users\CYMR90~1\AppData\Local\Temp\ccBmAAlS.s:24323  .debug_str:000000000000dbac .LASF4017
C:\Users\CYMR90~1\AppData\Local\Temp\ccBmAAlS.s:24783  .debug_str:000000000000f82e .LASF4018
C:\Users\CYMR90~1\AppData\Local\Temp\ccBmAAlS.s:22795  .debug_str:0000000000007849 .LASF4019
C:\Users\CYMR90~1\AppData\Local\Temp\ccBmAAlS.s:26734  .debug_str:00000000000175bc .LASF4020
C:\Users\CYMR90~1\AppData\Local\Temp\ccBmAAlS.s:29780  .debug_str:00000000000234ce .LASF4021
C:\Users\CYMR90~1\AppData\Local\Temp\ccBmAAlS.s:23271  .debug_str:000000000000978e .LASF4022
C:\Users\CYMR90~1\AppData\Local\Temp\ccBmAAlS.s:32144  .debug_str:000000000002cd7a .LASF4023
C:\Users\CYMR90~1\AppData\Local\Temp\ccBmAAlS.s:31272  .debug_str:00000000000296ef .LASF4024
C:\Users\CYMR90~1\AppData\Local\Temp\ccBmAAlS.s:28784  .debug_str:000000000001f8af .LASF4025
C:\Users\CYMR90~1\AppData\Local\Temp\ccBmAAlS.s:27840  .debug_str:000000000001bc97 .LASF4026
C:\Users\CYMR90~1\AppData\Local\Temp\ccBmAAlS.s:31754  .debug_str:000000000002b422 .LASF4027
C:\Users\CYMR90~1\AppData\Local\Temp\ccBmAAlS.s:26189  .debug_str:0000000000015191 .LASF4028
C:\Users\CYMR90~1\AppData\Local\Temp\ccBmAAlS.s:26676  .debug_str:0000000000017226 .LASF4029
C:\Users\CYMR90~1\AppData\Local\Temp\ccBmAAlS.s:28142  .debug_str:000000000001d18c .LASF4030
C:\Users\CYMR90~1\AppData\Local\Temp\ccBmAAlS.s:21109  .debug_str:0000000000000e29 .LASF4031
C:\Users\CYMR90~1\AppData\Local\Temp\ccBmAAlS.s:27168  .debug_str:000000000001918f .LASF4032
C:\Users\CYMR90~1\AppData\Local\Temp\ccBmAAlS.s:26682  .debug_str:0000000000017292 .LASF4033
C:\Users\CYMR90~1\AppData\Local\Temp\ccBmAAlS.s:29016  .debug_str:0000000000020776 .LASF4034
C:\Users\CYMR90~1\AppData\Local\Temp\ccBmAAlS.s:31380  .debug_str:0000000000029d80 .LASF4035
C:\Users\CYMR90~1\AppData\Local\Temp\ccBmAAlS.s:31686  .debug_str:000000000002b010 .LASF4036
C:\Users\CYMR90~1\AppData\Local\Temp\ccBmAAlS.s:24701  .debug_str:000000000000f2b5 .LASF4037
C:\Users\CYMR90~1\AppData\Local\Temp\ccBmAAlS.s:32096  .debug_str:000000000002ca67 .LASF4038
C:\Users\CYMR90~1\AppData\Local\Temp\ccBmAAlS.s:30560  .debug_str:000000000002688a .LASF4039
C:\Users\CYMR90~1\AppData\Local\Temp\ccBmAAlS.s:24649  .debug_str:000000000000ef83 .LASF4040
C:\Users\CYMR90~1\AppData\Local\Temp\ccBmAAlS.s:27098  .debug_str:0000000000018c74 .LASF4041
C:\Users\CYMR90~1\AppData\Local\Temp\ccBmAAlS.s:30196  .debug_str:0000000000025002 .LASF4042
C:\Users\CYMR90~1\AppData\Local\Temp\ccBmAAlS.s:30024  .debug_str:00000000000244d7 .LASF4043
C:\Users\CYMR90~1\AppData\Local\Temp\ccBmAAlS.s:27668  .debug_str:000000000001b2a1 .LASF4044
C:\Users\CYMR90~1\AppData\Local\Temp\ccBmAAlS.s:31612  .debug_str:000000000002ab6e .LASF4045
C:\Users\CYMR90~1\AppData\Local\Temp\ccBmAAlS.s:24207  .debug_str:000000000000d544 .LASF4046
C:\Users\CYMR90~1\AppData\Local\Temp\ccBmAAlS.s:30562  .debug_str:00000000000268b0 .LASF4047
C:\Users\CYMR90~1\AppData\Local\Temp\ccBmAAlS.s:26581  .debug_str:0000000000016a53 .LASF4048
C:\Users\CYMR90~1\AppData\Local\Temp\ccBmAAlS.s:23091  .debug_str:0000000000008cbe .LASF4049
C:\Users\CYMR90~1\AppData\Local\Temp\ccBmAAlS.s:27024  .debug_str:0000000000018740 .LASF4050
C:\Users\CYMR90~1\AppData\Local\Temp\ccBmAAlS.s:25053  .debug_str:0000000000010875 .LASF4051
C:\Users\CYMR90~1\AppData\Local\Temp\ccBmAAlS.s:23665  .debug_str:000000000000b192 .LASF4052
C:\Users\CYMR90~1\AppData\Local\Temp\ccBmAAlS.s:27060  .debug_str:000000000001897f .LASF4053
C:\Users\CYMR90~1\AppData\Local\Temp\ccBmAAlS.s:27278  .debug_str:0000000000019876 .LASF4054
C:\Users\CYMR90~1\AppData\Local\Temp\ccBmAAlS.s:31768  .debug_str:000000000002b504 .LASF4055
C:\Users\CYMR90~1\AppData\Local\Temp\ccBmAAlS.s:22717  .debug_str:0000000000007392 .LASF4056
C:\Users\CYMR90~1\AppData\Local\Temp\ccBmAAlS.s:32042  .debug_str:000000000002c6f6 .LASF4057
C:\Users\CYMR90~1\AppData\Local\Temp\ccBmAAlS.s:29066  .debug_str:0000000000020a68 .LASF4058
C:\Users\CYMR90~1\AppData\Local\Temp\ccBmAAlS.s:22661  .debug_str:0000000000006faa .LASF4059
C:\Users\CYMR90~1\AppData\Local\Temp\ccBmAAlS.s:31008  .debug_str:00000000000285f4 .LASF4060
C:\Users\CYMR90~1\AppData\Local\Temp\ccBmAAlS.s:23597  .debug_str:000000000000ac8e .LASF4061
C:\Users\CYMR90~1\AppData\Local\Temp\ccBmAAlS.s:22263  .debug_str:00000000000056f1 .LASF4062
C:\Users\CYMR90~1\AppData\Local\Temp\ccBmAAlS.s:23031  .debug_str:00000000000088d2 .LASF4063
C:\Users\CYMR90~1\AppData\Local\Temp\ccBmAAlS.s:24077  .debug_str:000000000000ccde .LASF4064
C:\Users\CYMR90~1\AppData\Local\Temp\ccBmAAlS.s:27998  .debug_str:000000000001c67f .LASF4065
C:\Users\CYMR90~1\AppData\Local\Temp\ccBmAAlS.s:31972  .debug_str:000000000002c23f .LASF4066
C:\Users\CYMR90~1\AppData\Local\Temp\ccBmAAlS.s:24637  .debug_str:000000000000eede .LASF4067
C:\Users\CYMR90~1\AppData\Local\Temp\ccBmAAlS.s:28790  .debug_str:000000000001f922 .LASF4068
C:\Users\CYMR90~1\AppData\Local\Temp\ccBmAAlS.s:29420  .debug_str:0000000000021fcb .LASF4069
C:\Users\CYMR90~1\AppData\Local\Temp\ccBmAAlS.s:31796  .debug_str:000000000002b6fd .LASF4070
C:\Users\CYMR90~1\AppData\Local\Temp\ccBmAAlS.s:27486  .debug_str:000000000001a682 .LASF4071
C:\Users\CYMR90~1\AppData\Local\Temp\ccBmAAlS.s:30130  .debug_str:0000000000024bc4 .LASF4072
C:\Users\CYMR90~1\AppData\Local\Temp\ccBmAAlS.s:27454  .debug_str:000000000001a4fe .LASF4073
C:\Users\CYMR90~1\AppData\Local\Temp\ccBmAAlS.s:27928  .debug_str:000000000001c27c .LASF4074
C:\Users\CYMR90~1\AppData\Local\Temp\ccBmAAlS.s:21007  .debug_str:00000000000007b8 .LASF4075
C:\Users\CYMR90~1\AppData\Local\Temp\ccBmAAlS.s:24001  .debug_str:000000000000c770 .LASF4076
C:\Users\CYMR90~1\AppData\Local\Temp\ccBmAAlS.s:21965  .debug_str:00000000000043f8 .LASF4077
C:\Users\CYMR90~1\AppData\Local\Temp\ccBmAAlS.s:22331  .debug_str:0000000000005b64 .LASF4078
C:\Users\CYMR90~1\AppData\Local\Temp\ccBmAAlS.s:23471  .debug_str:000000000000a402 .LASF4079
C:\Users\CYMR90~1\AppData\Local\Temp\ccBmAAlS.s:27400  .debug_str:000000000001a035 .LASF4080
C:\Users\CYMR90~1\AppData\Local\Temp\ccBmAAlS.s:31354  .debug_str:0000000000029bff .LASF4081
C:\Users\CYMR90~1\AppData\Local\Temp\ccBmAAlS.s:23935  .debug_str:000000000000c353 .LASF4082
C:\Users\CYMR90~1\AppData\Local\Temp\ccBmAAlS.s:27866  .debug_str:000000000001be66 .LASF4083
C:\Users\CYMR90~1\AppData\Local\Temp\ccBmAAlS.s:28114  .debug_str:000000000001cf2c .LASF4084
C:\Users\CYMR90~1\AppData\Local\Temp\ccBmAAlS.s:27546  .debug_str:000000000001aac8 .LASF4085
C:\Users\CYMR90~1\AppData\Local\Temp\ccBmAAlS.s:28406  .debug_str:000000000001e24a .LASF4086
C:\Users\CYMR90~1\AppData\Local\Temp\ccBmAAlS.s:32044  .debug_str:000000000002c71c .LASF4087
C:\Users\CYMR90~1\AppData\Local\Temp\ccBmAAlS.s:23557  .debug_str:000000000000aa32 .LASF4088
C:\Users\CYMR90~1\AppData\Local\Temp\ccBmAAlS.s:22003  .debug_str:000000000000467f .LASF4089
C:\Users\CYMR90~1\AppData\Local\Temp\ccBmAAlS.s:26045  .debug_str:0000000000014851 .LASF4090
C:\Users\CYMR90~1\AppData\Local\Temp\ccBmAAlS.s:30000  .debug_str:0000000000024313 .LASF4091
C:\Users\CYMR90~1\AppData\Local\Temp\ccBmAAlS.s:22585  .debug_str:0000000000006ab6 .LASF4092
C:\Users\CYMR90~1\AppData\Local\Temp\ccBmAAlS.s:29498  .debug_str:0000000000022430 .LASF4093
C:\Users\CYMR90~1\AppData\Local\Temp\ccBmAAlS.s:30490  .debug_str:0000000000026412 .LASF4094
C:\Users\CYMR90~1\AppData\Local\Temp\ccBmAAlS.s:22565  .debug_str:0000000000006977 .LASF4095
C:\Users\CYMR90~1\AppData\Local\Temp\ccBmAAlS.s:27016  .debug_str:00000000000186ce .LASF4096
C:\Users\CYMR90~1\AppData\Local\Temp\ccBmAAlS.s:31066  .debug_str:0000000000028a1b .LASF4097
C:\Users\CYMR90~1\AppData\Local\Temp\ccBmAAlS.s:30402  .debug_str:0000000000025e9f .LASF4098
C:\Users\CYMR90~1\AppData\Local\Temp\ccBmAAlS.s:25987  .debug_str:0000000000014460 .LASF4099
C:\Users\CYMR90~1\AppData\Local\Temp\ccBmAAlS.s:30084  .debug_str:0000000000024881 .LASF4100
C:\Users\CYMR90~1\AppData\Local\Temp\ccBmAAlS.s:30694  .debug_str:00000000000270ab .LASF4101
C:\Users\CYMR90~1\AppData\Local\Temp\ccBmAAlS.s:28212  .debug_str:000000000001d5dc .LASF4102
C:\Users\CYMR90~1\AppData\Local\Temp\ccBmAAlS.s:28944  .debug_str:0000000000020294 .LASF4103
C:\Users\CYMR90~1\AppData\Local\Temp\ccBmAAlS.s:25035  .debug_str:000000000001076b .LASF4104
C:\Users\CYMR90~1\AppData\Local\Temp\ccBmAAlS.s:28648  .debug_str:000000000001f0b5 .LASF4105
C:\Users\CYMR90~1\AppData\Local\Temp\ccBmAAlS.s:24331  .debug_str:000000000000dc33 .LASF4106
C:\Users\CYMR90~1\AppData\Local\Temp\ccBmAAlS.s:22903  .debug_str:000000000000801b .LASF4107
C:\Users\CYMR90~1\AppData\Local\Temp\ccBmAAlS.s:30286  .debug_str:00000000000256c6 .LASF4108
C:\Users\CYMR90~1\AppData\Local\Temp\ccBmAAlS.s:31898  .debug_str:000000000002bd5c .LASF4109
C:\Users\CYMR90~1\AppData\Local\Temp\ccBmAAlS.s:23261  .debug_str:00000000000096f7 .LASF4110
C:\Users\CYMR90~1\AppData\Local\Temp\ccBmAAlS.s:26399  .debug_str:0000000000015e3b .LASF4111
C:\Users\CYMR90~1\AppData\Local\Temp\ccBmAAlS.s:30344  .debug_str:0000000000025b39 .LASF4112
C:\Users\CYMR90~1\AppData\Local\Temp\ccBmAAlS.s:25455  .debug_str:00000000000122ce .LASF4113
C:\Users\CYMR90~1\AppData\Local\Temp\ccBmAAlS.s:25501  .debug_str:00000000000125af .LASF4114
C:\Users\CYMR90~1\AppData\Local\Temp\ccBmAAlS.s:24105  .debug_str:000000000000ce51 .LASF4115
C:\Users\CYMR90~1\AppData\Local\Temp\ccBmAAlS.s:23527  .debug_str:000000000000a75b .LASF4116
C:\Users\CYMR90~1\AppData\Local\Temp\ccBmAAlS.s:27476  .debug_str:000000000001a5ef .LASF4117
C:\Users\CYMR90~1\AppData\Local\Temp\ccBmAAlS.s:24515  .debug_str:000000000000e7aa .LASF4118
C:\Users\CYMR90~1\AppData\Local\Temp\ccBmAAlS.s:22371  .debug_str:0000000000005d87 .LASF4119
C:\Users\CYMR90~1\AppData\Local\Temp\ccBmAAlS.s:28678  .debug_str:000000000001f289 .LASF4120
C:\Users\CYMR90~1\AppData\Local\Temp\ccBmAAlS.s:30282  .debug_str:0000000000025674 .LASF4121
C:\Users\CYMR90~1\AppData\Local\Temp\ccBmAAlS.s:30064  .debug_str:0000000000024748 .LASF4122
C:\Users\CYMR90~1\AppData\Local\Temp\ccBmAAlS.s:21935  .debug_str:000000000000422a .LASF4123
C:\Users\CYMR90~1\AppData\Local\Temp\ccBmAAlS.s:30868  .debug_str:0000000000027c06 .LASF4124
C:\Users\CYMR90~1\AppData\Local\Temp\ccBmAAlS.s:23643  .debug_str:000000000000af95 .LASF4125
C:\Users\CYMR90~1\AppData\Local\Temp\ccBmAAlS.s:27392  .debug_str:0000000000019fbe .LASF4126
C:\Users\CYMR90~1\AppData\Local\Temp\ccBmAAlS.s:31348  .debug_str:0000000000029b95 .LASF4127
C:\Users\CYMR90~1\AppData\Local\Temp\ccBmAAlS.s:30676  .debug_str:0000000000026f81 .LASF4128
C:\Users\CYMR90~1\AppData\Local\Temp\ccBmAAlS.s:26273  .debug_str:000000000001565c .LASF4129
C:\Users\CYMR90~1\AppData\Local\Temp\ccBmAAlS.s:31982  .debug_str:000000000002c2ea .LASF4130
C:\Users\CYMR90~1\AppData\Local\Temp\ccBmAAlS.s:22803  .debug_str:00000000000078db .LASF4131
C:\Users\CYMR90~1\AppData\Local\Temp\ccBmAAlS.s:30222  .debug_str:0000000000025204 .LASF4132
C:\Users\CYMR90~1\AppData\Local\Temp\ccBmAAlS.s:32224  .debug_str:000000000002d2b6 .LASF4133
C:\Users\CYMR90~1\AppData\Local\Temp\ccBmAAlS.s:22097  .debug_str:0000000000004d0c .LASF4134
C:\Users\CYMR90~1\AppData\Local\Temp\ccBmAAlS.s:27334  .debug_str:0000000000019c65 .LASF4135
C:\Users\CYMR90~1\AppData\Local\Temp\ccBmAAlS.s:22325  .debug_str:0000000000005ad0 .LASF4136
C:\Users\CYMR90~1\AppData\Local\Temp\ccBmAAlS.s:23863  .debug_str:000000000000beb8 .LASF4137
C:\Users\CYMR90~1\AppData\Local\Temp\ccBmAAlS.s:25185  .debug_str:000000000001109d .LASF4138
C:\Users\CYMR90~1\AppData\Local\Temp\ccBmAAlS.s:23367  .debug_str:0000000000009d90 .LASF4139
C:\Users\CYMR90~1\AppData\Local\Temp\ccBmAAlS.s:30444  .debug_str:0000000000026180 .LASF4140
C:\Users\CYMR90~1\AppData\Local\Temp\ccBmAAlS.s:26768  .debug_str:00000000000177de .LASF4141
C:\Users\CYMR90~1\AppData\Local\Temp\ccBmAAlS.s:27270  .debug_str:00000000000197cc .LASF4142
C:\Users\CYMR90~1\AppData\Local\Temp\ccBmAAlS.s:23337  .debug_str:0000000000009bcd .LASF4143
C:\Users\CYMR90~1\AppData\Local\Temp\ccBmAAlS.s:27274  .debug_str:000000000001982b .LASF4144
C:\Users\CYMR90~1\AppData\Local\Temp\ccBmAAlS.s:31220  .debug_str:000000000002935b .LASF4145
C:\Users\CYMR90~1\AppData\Local\Temp\ccBmAAlS.s:21305  .debug_str:0000000000001a9a .LASF4146
C:\Users\CYMR90~1\AppData\Local\Temp\ccBmAAlS.s:23679  .debug_str:000000000000b262 .LASF4147
C:\Users\CYMR90~1\AppData\Local\Temp\ccBmAAlS.s:24811  .debug_str:000000000000f9af .LASF4148
C:\Users\CYMR90~1\AppData\Local\Temp\ccBmAAlS.s:22673  .debug_str:0000000000007059 .LASF4149
C:\Users\CYMR90~1\AppData\Local\Temp\ccBmAAlS.s:26712  .debug_str:0000000000017468 .LASF4150
C:\Users\CYMR90~1\AppData\Local\Temp\ccBmAAlS.s:30668  .debug_str:0000000000026f09 .LASF4151
C:\Users\CYMR90~1\AppData\Local\Temp\ccBmAAlS.s:29158  .debug_str:0000000000020fad .LASF4152
C:\Users\CYMR90~1\AppData\Local\Temp\ccBmAAlS.s:27206  .debug_str:00000000000193b4 .LASF4153
C:\Users\CYMR90~1\AppData\Local\Temp\ccBmAAlS.s:22483  .debug_str:0000000000006471 .LASF4154
C:\Users\CYMR90~1\AppData\Local\Temp\ccBmAAlS.s:23743  .debug_str:000000000000b673 .LASF4155
C:\Users\CYMR90~1\AppData\Local\Temp\ccBmAAlS.s:27196  .debug_str:000000000001931b .LASF4156
C:\Users\CYMR90~1\AppData\Local\Temp\ccBmAAlS.s:21163  .debug_str:00000000000011d8 .LASF4157
C:\Users\CYMR90~1\AppData\Local\Temp\ccBmAAlS.s:22401  .debug_str:0000000000005f4e .LASF4158
C:\Users\CYMR90~1\AppData\Local\Temp\ccBmAAlS.s:26648  .debug_str:00000000000170ad .LASF4159
C:\Users\CYMR90~1\AppData\Local\Temp\ccBmAAlS.s:30596  .debug_str:0000000000026aad .LASF4160
C:\Users\CYMR90~1\AppData\Local\Temp\ccBmAAlS.s:23195  .debug_str:00000000000092d9 .LASF4161
C:\Users\CYMR90~1\AppData\Local\Temp\ccBmAAlS.s:21267  .debug_str:0000000000001856 .LASF4162
C:\Users\CYMR90~1\AppData\Local\Temp\ccBmAAlS.s:27312  .debug_str:0000000000019afd .LASF4163
C:\Users\CYMR90~1\AppData\Local\Temp\ccBmAAlS.s:23677  .debug_str:000000000000b23c .LASF4164
C:\Users\CYMR90~1\AppData\Local\Temp\ccBmAAlS.s:27632  .debug_str:000000000001b049 .LASF4165
C:\Users\CYMR90~1\AppData\Local\Temp\ccBmAAlS.s:31560  .debug_str:000000000002a879 .LASF4166
C:\Users\CYMR90~1\AppData\Local\Temp\ccBmAAlS.s:24245  .debug_str:000000000000d7a2 .LASF4167
C:\Users\CYMR90~1\AppData\Local\Temp\ccBmAAlS.s:21273  .debug_str:00000000000018bc .LASF4168
C:\Users\CYMR90~1\AppData\Local\Temp\ccBmAAlS.s:30538  .debug_str:000000000002671e .LASF4169
C:\Users\CYMR90~1\AppData\Local\Temp\ccBmAAlS.s:24881  .debug_str:000000000000fe2a .LASF4170
C:\Users\CYMR90~1\AppData\Local\Temp\ccBmAAlS.s:27228  .debug_str:000000000001951f .LASF4171
C:\Users\CYMR90~1\AppData\Local\Temp\ccBmAAlS.s:29552  .debug_str:0000000000022758 .LASF4172
C:\Users\CYMR90~1\AppData\Local\Temp\ccBmAAlS.s:31926  .debug_str:000000000002bf29 .LASF4173
C:\Users\CYMR90~1\AppData\Local\Temp\ccBmAAlS.s:27572  .debug_str:000000000001ac41 .LASF4174
C:\Users\CYMR90~1\AppData\Local\Temp\ccBmAAlS.s:31500  .debug_str:000000000002a45c .LASF4175
C:\Users\CYMR90~1\AppData\Local\Temp\ccBmAAlS.s:28422  .debug_str:000000000001e31f .LASF4176
C:\Users\CYMR90~1\AppData\Local\Temp\ccBmAAlS.s:24827  .debug_str:000000000000faa5 .LASF4177
C:\Users\CYMR90~1\AppData\Local\Temp\ccBmAAlS.s:25169  .debug_str:0000000000010fb8 .LASF4178
C:\Users\CYMR90~1\AppData\Local\Temp\ccBmAAlS.s:23059  .debug_str:0000000000008ac6 .LASF4179
C:\Users\CYMR90~1\AppData\Local\Temp\ccBmAAlS.s:23137  .debug_str:0000000000008f9f .LASF4180
C:\Users\CYMR90~1\AppData\Local\Temp\ccBmAAlS.s:28144  .debug_str:000000000001d1b2 .LASF4181
C:\Users\CYMR90~1\AppData\Local\Temp\ccBmAAlS.s:25147  .debug_str:0000000000010e5f .LASF4182
C:\Users\CYMR90~1\AppData\Local\Temp\ccBmAAlS.s:27500  .debug_str:000000000001a784 .LASF4183
C:\Users\CYMR90~1\AppData\Local\Temp\ccBmAAlS.s:25865  .debug_str:0000000000013cff .LASF4184
C:\Users\CYMR90~1\AppData\Local\Temp\ccBmAAlS.s:28464  .debug_str:000000000001e5db .LASF4185
C:\Users\CYMR90~1\AppData\Local\Temp\ccBmAAlS.s:29220  .debug_str:0000000000021335 .LASF4186
C:\Users\CYMR90~1\AppData\Local\Temp\ccBmAAlS.s:25297  .debug_str:0000000000011868 .LASF4187
C:\Users\CYMR90~1\AppData\Local\Temp\ccBmAAlS.s:23595  .debug_str:000000000000ac68 .LASF4188
C:\Users\CYMR90~1\AppData\Local\Temp\ccBmAAlS.s:21709  .debug_str:000000000000332e .LASF4189
C:\Users\CYMR90~1\AppData\Local\Temp\ccBmAAlS.s:25657  .debug_str:0000000000012ff9 .LASF4190
C:\Users\CYMR90~1\AppData\Local\Temp\ccBmAAlS.s:29256  .debug_str:00000000000215d9 .LASF4191
C:\Users\CYMR90~1\AppData\Local\Temp\ccBmAAlS.s:22167  .debug_str:0000000000005157 .LASF4192
C:\Users\CYMR90~1\AppData\Local\Temp\ccBmAAlS.s:26121  .debug_str:0000000000014d22 .LASF4193
C:\Users\CYMR90~1\AppData\Local\Temp\ccBmAAlS.s:30074  .debug_str:00000000000247e5 .LASF4194
C:\Users\CYMR90~1\AppData\Local\Temp\ccBmAAlS.s:22665  .debug_str:0000000000006ff6 .LASF4195
C:\Users\CYMR90~1\AppData\Local\Temp\ccBmAAlS.s:21265  .debug_str:0000000000001830 .LASF4196
C:\Users\CYMR90~1\AppData\Local\Temp\ccBmAAlS.s:30660  .debug_str:0000000000026e6e .LASF4197
C:\Users\CYMR90~1\AppData\Local\Temp\ccBmAAlS.s:28868  .debug_str:000000000001fddf .LASF4198
C:\Users\CYMR90~1\AppData\Local\Temp\ccBmAAlS.s:25605  .debug_str:0000000000012ca9 .LASF4199
C:\Users\CYMR90~1\AppData\Local\Temp\ccBmAAlS.s:29544  .debug_str:00000000000226c3 .LASF4200
C:\Users\CYMR90~1\AppData\Local\Temp\ccBmAAlS.s:25443  .debug_str:00000000000121f9 .LASF4201
C:\Users\CYMR90~1\AppData\Local\Temp\ccBmAAlS.s:26167  .debug_str:000000000001503c .LASF4202
C:\Users\CYMR90~1\AppData\Local\Temp\ccBmAAlS.s:32094  .debug_str:000000000002ca41 .LASF4203
C:\Users\CYMR90~1\AppData\Local\Temp\ccBmAAlS.s:30826  .debug_str:0000000000027937 .LASF4204
C:\Users\CYMR90~1\AppData\Local\Temp\ccBmAAlS.s:26549  .debug_str:0000000000016810 .LASF4205
C:\Users\CYMR90~1\AppData\Local\Temp\ccBmAAlS.s:25027  .debug_str:0000000000010707 .LASF4206
C:\Users\CYMR90~1\AppData\Local\Temp\ccBmAAlS.s:23187  .debug_str:000000000000926a .LASF4207
C:\Users\CYMR90~1\AppData\Local\Temp\ccBmAAlS.s:31610  .debug_str:000000000002ab48 .LASF4208
C:\Users\CYMR90~1\AppData\Local\Temp\ccBmAAlS.s:24975  .debug_str:00000000000103e2 .LASF4209
C:\Users\CYMR90~1\AppData\Local\Temp\ccBmAAlS.s:26437  .debug_str:000000000001610d .LASF4210
C:\Users\CYMR90~1\AppData\Local\Temp\ccBmAAlS.s:26001  .debug_str:0000000000014566 .LASF4211
C:\Users\CYMR90~1\AppData\Local\Temp\ccBmAAlS.s:24735  .debug_str:000000000000f4c1 .LASF4212
C:\Users\CYMR90~1\AppData\Local\Temp\ccBmAAlS.s:22525  .debug_str:00000000000066ca .LASF4213
C:\Users\CYMR90~1\AppData\Local\Temp\ccBmAAlS.s:26483  .debug_str:00000000000163c6 .LASF4214
C:\Users\CYMR90~1\AppData\Local\Temp\ccBmAAlS.s:30530  .debug_str:00000000000266a4 .LASF4215
C:\Users\CYMR90~1\AppData\Local\Temp\ccBmAAlS.s:23127  .debug_str:0000000000008f14 .LASF4216
C:\Users\CYMR90~1\AppData\Local\Temp\ccBmAAlS.s:27058  .debug_str:0000000000018959 .LASF4217
C:\Users\CYMR90~1\AppData\Local\Temp\ccBmAAlS.s:24133  .debug_str:000000000000d008 .LASF4218
C:\Users\CYMR90~1\AppData\Local\Temp\ccBmAAlS.s:21979  .debug_str:00000000000044e4 .LASF4219
C:\Users\CYMR90~1\AppData\Local\Temp\ccBmAAlS.s:25931  .debug_str:0000000000014156 .LASF4220
C:\Users\CYMR90~1\AppData\Local\Temp\ccBmAAlS.s:29794  .debug_str:00000000000235c6 .LASF4221
C:\Users\CYMR90~1\AppData\Local\Temp\ccBmAAlS.s:22455  .debug_str:00000000000062b0 .LASF4222
C:\Users\CYMR90~1\AppData\Local\Temp\ccBmAAlS.s:21587  .debug_str:0000000000002ba5 .LASF4223
C:\Users\CYMR90~1\AppData\Local\Temp\ccBmAAlS.s:32100  .debug_str:000000000002cab1 .LASF4224
C:\Users\CYMR90~1\AppData\Local\Temp\ccBmAAlS.s:23073  .debug_str:0000000000008b9b .LASF4225
C:\Users\CYMR90~1\AppData\Local\Temp\ccBmAAlS.s:26982  .debug_str:00000000000184d8 .LASF4226
C:\Users\CYMR90~1\AppData\Local\Temp\ccBmAAlS.s:21341  .debug_str:0000000000001ce2 .LASF4227
C:\Users\CYMR90~1\AppData\Local\Temp\ccBmAAlS.s:27994  .debug_str:000000000001c61f .LASF4228
C:\Users\CYMR90~1\AppData\Local\Temp\ccBmAAlS.s:25861  .debug_str:0000000000013cbc .LASF4229
C:\Users\CYMR90~1\AppData\Local\Temp\ccBmAAlS.s:29820  .debug_str:00000000000237a0 .LASF4230
C:\Users\CYMR90~1\AppData\Local\Temp\ccBmAAlS.s:26283  .debug_str:000000000001570e .LASF4231
C:\Users\CYMR90~1\AppData\Local\Temp\ccBmAAlS.s:31000  .debug_str:000000000002856e .LASF4232
C:\Users\CYMR90~1\AppData\Local\Temp\ccBmAAlS.s:24257  .debug_str:000000000000d83e .LASF4233
C:\Users\CYMR90~1\AppData\Local\Temp\ccBmAAlS.s:22979  .debug_str:00000000000085b8 .LASF4234
C:\Users\CYMR90~1\AppData\Local\Temp\ccBmAAlS.s:28912  .debug_str:00000000000200dc .LASF4235
C:\Users\CYMR90~1\AppData\Local\Temp\ccBmAAlS.s:30882  .debug_str:0000000000027cd6 .LASF4236
C:\Users\CYMR90~1\AppData\Local\Temp\ccBmAAlS.s:23475  .debug_str:000000000000a440 .LASF4237
C:\Users\CYMR90~1\AppData\Local\Temp\ccBmAAlS.s:31908  .debug_str:000000000002bde3 .LASF4238
C:\Users\CYMR90~1\AppData\Local\Temp\ccBmAAlS.s:22767  .debug_str:000000000000767f .LASF4239
C:\Users\CYMR90~1\AppData\Local\Temp\ccBmAAlS.s:22321  .debug_str:0000000000005a78 .LASF4240
C:\Users\CYMR90~1\AppData\Local\Temp\ccBmAAlS.s:25423  .debug_str:00000000000120e8 .LASF4241
C:\Users\CYMR90~1\AppData\Local\Temp\ccBmAAlS.s:26333  .debug_str:00000000000159f1 .LASF4242
C:\Users\CYMR90~1\AppData\Local\Temp\ccBmAAlS.s:22915  .debug_str:0000000000008160 .LASF4243
C:\Users\CYMR90~1\AppData\Local\Temp\ccBmAAlS.s:20935  .debug_str:00000000000003b1 .LASF4244
C:\Users\CYMR90~1\AppData\Local\Temp\ccBmAAlS.s:23463  .debug_str:000000000000a37b .LASF4245
C:\Users\CYMR90~1\AppData\Local\Temp\ccBmAAlS.s:21569  .debug_str:0000000000002a8b .LASF4246
C:\Users\CYMR90~1\AppData\Local\Temp\ccBmAAlS.s:28888  .debug_str:000000000001ff72 .LASF4247
C:\Users\CYMR90~1\AppData\Local\Temp\ccBmAAlS.s:23663  .debug_str:000000000000b16c .LASF4248
C:\Users\CYMR90~1\AppData\Local\Temp\ccBmAAlS.s:22257  .debug_str:00000000000056a5 .LASF4249
C:\Users\CYMR90~1\AppData\Local\Temp\ccBmAAlS.s:22867  .debug_str:0000000000007d10 .LASF4250
C:\Users\CYMR90~1\AppData\Local\Temp\ccBmAAlS.s:31314  .debug_str:00000000000299e3 .LASF4251
C:\Users\CYMR90~1\AppData\Local\Temp\ccBmAAlS.s:22839  .debug_str:0000000000007b64 .LASF4252
C:\Users\CYMR90~1\AppData\Local\Temp\ccBmAAlS.s:22417  .debug_str:0000000000006041 .LASF4253
C:\Users\CYMR90~1\AppData\Local\Temp\ccBmAAlS.s:23203  .debug_str:000000000000934b .LASF4254
C:\Users\CYMR90~1\AppData\Local\Temp\ccBmAAlS.s:29900  .debug_str:0000000000023c7a .LASF4255
C:\Users\CYMR90~1\AppData\Local\Temp\ccBmAAlS.s:22027  .debug_str:0000000000004826 .LASF4256
C:\Users\CYMR90~1\AppData\Local\Temp\ccBmAAlS.s:22621  .debug_str:0000000000006ce2 .LASF4257
C:\Users\CYMR90~1\AppData\Local\Temp\ccBmAAlS.s:31778  .debug_str:000000000002b5b8 .LASF4258
C:\Users\CYMR90~1\AppData\Local\Temp\ccBmAAlS.s:22197  .debug_str:0000000000005315 .LASF4259
C:\Users\CYMR90~1\AppData\Local\Temp\ccBmAAlS.s:23483  .debug_str:000000000000a4f0 .LASF4260
C:\Users\CYMR90~1\AppData\Local\Temp\ccBmAAlS.s:22779  .debug_str:000000000000774f .LASF4261
C:\Users\CYMR90~1\AppData\Local\Temp\ccBmAAlS.s:28152  .debug_str:000000000001d257 .LASF4262
C:\Users\CYMR90~1\AppData\Local\Temp\ccBmAAlS.s:30494  .debug_str:000000000002647a .LASF4263
C:\Users\CYMR90~1\AppData\Local\Temp\ccBmAAlS.s:27492  .debug_str:000000000001a6f4 .LASF4264
C:\Users\CYMR90~1\AppData\Local\Temp\ccBmAAlS.s:23827  .debug_str:000000000000bbf3 .LASF4265
C:\Users\CYMR90~1\AppData\Local\Temp\ccBmAAlS.s:27046  .debug_str:0000000000018886 .LASF4266
C:\Users\CYMR90~1\AppData\Local\Temp\ccBmAAlS.s:29372  .debug_str:0000000000021ceb .LASF4267
C:\Users\CYMR90~1\AppData\Local\Temp\ccBmAAlS.s:25405  .debug_str:0000000000011f93 .LASF4268
C:\Users\CYMR90~1\AppData\Local\Temp\ccBmAAlS.s:30118  .debug_str:0000000000024ade .LASF4269
C:\Users\CYMR90~1\AppData\Local\Temp\ccBmAAlS.s:29316  .debug_str:0000000000021986 .LASF4270
C:\Users\CYMR90~1\AppData\Local\Temp\ccBmAAlS.s:26664  .debug_str:0000000000017187 .LASF4271
C:\Users\CYMR90~1\AppData\Local\Temp\ccBmAAlS.s:30612  .debug_str:0000000000026bb8 .LASF4272
C:\Users\CYMR90~1\AppData\Local\Temp\ccBmAAlS.s:26792  .debug_str:0000000000017984 .LASF4273
C:\Users\CYMR90~1\AppData\Local\Temp\ccBmAAlS.s:27574  .debug_str:000000000001ac67 .LASF4274
C:\Users\CYMR90~1\AppData\Local\Temp\ccBmAAlS.s:30574  .debug_str:000000000002696f .LASF4275
C:\Users\CYMR90~1\AppData\Local\Temp\ccBmAAlS.s:30708  .debug_str:0000000000027173 .LASF4276
C:\Users\CYMR90~1\AppData\Local\Temp\ccBmAAlS.s:27706  .debug_str:000000000001b4e1 .LASF4277
C:\Users\CYMR90~1\AppData\Local\Temp\ccBmAAlS.s:24787  .debug_str:000000000000f86d .LASF4278
C:\Users\CYMR90~1\AppData\Local\Temp\ccBmAAlS.s:22639  .debug_str:0000000000006e42 .LASF4279
C:\Users\CYMR90~1\AppData\Local\Temp\ccBmAAlS.s:26593  .debug_str:0000000000016b9a .LASF4280
C:\Users\CYMR90~1\AppData\Local\Temp\ccBmAAlS.s:30550  .debug_str:00000000000267ce .LASF4281
C:\Users\CYMR90~1\AppData\Local\Temp\ccBmAAlS.s:21969  .debug_str:0000000000004444 .LASF4282
C:\Users\CYMR90~1\AppData\Local\Temp\ccBmAAlS.s:27100  .debug_str:0000000000018c9a .LASF4283
C:\Users\CYMR90~1\AppData\Local\Temp\ccBmAAlS.s:25721  .debug_str:0000000000013486 .LASF4284
C:\Users\CYMR90~1\AppData\Local\Temp\ccBmAAlS.s:27848  .debug_str:000000000001bd1a .LASF4285
C:\Users\CYMR90~1\AppData\Local\Temp\ccBmAAlS.s:27662  .debug_str:000000000001b242 .LASF4286
C:\Users\CYMR90~1\AppData\Local\Temp\ccBmAAlS.s:26091  .debug_str:0000000000014b04 .LASF4287
C:\Users\CYMR90~1\AppData\Local\Temp\ccBmAAlS.s:21099  .debug_str:0000000000000d8d .LASF4288
C:\Users\CYMR90~1\AppData\Local\Temp\ccBmAAlS.s:30520  .debug_str:00000000000265f5 .LASF4289
C:\Users\CYMR90~1\AppData\Local\Temp\ccBmAAlS.s:25257  .debug_str:0000000000011547 .LASF4290
C:\Users\CYMR90~1\AppData\Local\Temp\ccBmAAlS.s:29198  .debug_str:00000000000211e5 .LASF4291
C:\Users\CYMR90~1\AppData\Local\Temp\ccBmAAlS.s:21787  .debug_str:000000000000383f .LASF4292
C:\Users\CYMR90~1\AppData\Local\Temp\ccBmAAlS.s:25741  .debug_str:00000000000135d4 .LASF4293
C:\Users\CYMR90~1\AppData\Local\Temp\ccBmAAlS.s:29396  .debug_str:0000000000021e66 .LASF4294
C:\Users\CYMR90~1\AppData\Local\Temp\ccBmAAlS.s:27966  .debug_str:000000000001c489 .LASF4295
C:\Users\CYMR90~1\AppData\Local\Temp\ccBmAAlS.s:27122  .debug_str:0000000000018e18 .LASF4296
C:\Users\CYMR90~1\AppData\Local\Temp\ccBmAAlS.s:28690  .debug_str:000000000001f33d .LASF4297
C:\Users\CYMR90~1\AppData\Local\Temp\ccBmAAlS.s:21967  .debug_str:000000000000441e .LASF4298
C:\Users\CYMR90~1\AppData\Local\Temp\ccBmAAlS.s:25207  .debug_str:00000000000111f9 .LASF4299
C:\Users\CYMR90~1\AppData\Local\Temp\ccBmAAlS.s:29130  .debug_str:0000000000020e32 .LASF4300
C:\Users\CYMR90~1\AppData\Local\Temp\ccBmAAlS.s:27084  .debug_str:0000000000018adb .LASF4301
C:\Users\CYMR90~1\AppData\Local\Temp\ccBmAAlS.s:25775  .debug_str:00000000000137c3 .LASF4302
C:\Users\CYMR90~1\AppData\Local\Temp\ccBmAAlS.s:29644  .debug_str:0000000000022d4e .LASF4303
C:\Users\CYMR90~1\AppData\Local\Temp\ccBmAAlS.s:32202  .debug_str:000000000002d145 .LASF4304
C:\Users\CYMR90~1\AppData\Local\Temp\ccBmAAlS.s:23581  .debug_str:000000000000ab80 .LASF4305
C:\Users\CYMR90~1\AppData\Local\Temp\ccBmAAlS.s:24243  .debug_str:000000000000d795 .LASF4306
C:\Users\CYMR90~1\AppData\Local\Temp\ccBmAAlS.s:29772  .debug_str:000000000002345b .LASF4307
C:\Users\CYMR90~1\AppData\Local\Temp\ccBmAAlS.s:28326  .debug_str:000000000001dcf5 .LASF4308
C:\Users\CYMR90~1\AppData\Local\Temp\ccBmAAlS.s:20961  .debug_str:0000000000000511 .LASF4309
C:\Users\CYMR90~1\AppData\Local\Temp\ccBmAAlS.s:22019  .debug_str:0000000000004792 .LASF4310
C:\Users\CYMR90~1\AppData\Local\Temp\ccBmAAlS.s:24411  .debug_str:000000000000e11c .LASF4311
C:\Users\CYMR90~1\AppData\Local\Temp\ccBmAAlS.s:22591  .debug_str:0000000000006b10 .LASF4312
C:\Users\CYMR90~1\AppData\Local\Temp\ccBmAAlS.s:25797  .debug_str:0000000000013904 .LASF4313
C:\Users\CYMR90~1\AppData\Local\Temp\ccBmAAlS.s:25421  .debug_str:00000000000120c1 .LASF4314
C:\Users\CYMR90~1\AppData\Local\Temp\ccBmAAlS.s:21649  .debug_str:0000000000002f50 .LASF4315
C:\Users\CYMR90~1\AppData\Local\Temp\ccBmAAlS.s:22221  .debug_str:0000000000005478 .LASF4316
C:\Users\CYMR90~1\AppData\Local\Temp\ccBmAAlS.s:21739  .debug_str:0000000000003544 .LASF4317
C:\Users\CYMR90~1\AppData\Local\Temp\ccBmAAlS.s:20921  .debug_str:00000000000002a3 .LASF4318
C:\Users\CYMR90~1\AppData\Local\Temp\ccBmAAlS.s:23079  .debug_str:0000000000008bef .LASF4319
C:\Users\CYMR90~1\AppData\Local\Temp\ccBmAAlS.s:26571  .debug_str:00000000000169db .LASF4320
C:\Users\CYMR90~1\AppData\Local\Temp\ccBmAAlS.s:21639  .debug_str:0000000000002ec3 .LASF4321
C:\Users\CYMR90~1\AppData\Local\Temp\ccBmAAlS.s:30634  .debug_str:0000000000026ce8 .LASF4322
C:\Users\CYMR90~1\AppData\Local\Temp\ccBmAAlS.s:26441  .debug_str:000000000001614e .LASF4323
C:\Users\CYMR90~1\AppData\Local\Temp\ccBmAAlS.s:23513  .debug_str:000000000000a692 .LASF4324
C:\Users\CYMR90~1\AppData\Local\Temp\ccBmAAlS.s:29784  .debug_str:000000000002352b .LASF4325
C:\Users\CYMR90~1\AppData\Local\Temp\ccBmAAlS.s:29570  .debug_str:0000000000022893 .LASF4326
C:\Users\CYMR90~1\AppData\Local\Temp\ccBmAAlS.s:25621  .debug_str:0000000000012dab .LASF4327
C:\Users\CYMR90~1\AppData\Local\Temp\ccBmAAlS.s:31308  .debug_str:000000000002996c .LASF4328
C:\Users\CYMR90~1\AppData\Local\Temp\ccBmAAlS.s:31528  .debug_str:000000000002a659 .LASF4329
C:\Users\CYMR90~1\AppData\Local\Temp\ccBmAAlS.s:28220  .debug_str:000000000001d659 .LASF4330
C:\Users\CYMR90~1\AppData\Local\Temp\ccBmAAlS.s:30398  .debug_str:0000000000025e62 .LASF4331
C:\Users\CYMR90~1\AppData\Local\Temp\ccBmAAlS.s:25155  .debug_str:0000000000010ee6 .LASF4332
C:\Users\CYMR90~1\AppData\Local\Temp\ccBmAAlS.s:28370  .debug_str:000000000001e02a .LASF4333
C:\Users\CYMR90~1\AppData\Local\Temp\ccBmAAlS.s:23371  .debug_str:0000000000009dcd .LASF4334
C:\Users\CYMR90~1\AppData\Local\Temp\ccBmAAlS.s:27628  .debug_str:000000000001b012 .LASF4335
C:\Users\CYMR90~1\AppData\Local\Temp\ccBmAAlS.s:28218  .debug_str:000000000001d634 .LASF4336
C:\Users\CYMR90~1\AppData\Local\Temp\ccBmAAlS.s:23755  .debug_str:000000000000b734 .LASF4337
C:\Users\CYMR90~1\AppData\Local\Temp\ccBmAAlS.s:26772  .debug_str:000000000001781c .LASF4338
C:\Users\CYMR90~1\AppData\Local\Temp\ccBmAAlS.s:27916  .debug_str:000000000001c1b6 .LASF4339
C:\Users\CYMR90~1\AppData\Local\Temp\ccBmAAlS.s:25555  .debug_str:000000000001296f .LASF4340
C:\Users\CYMR90~1\AppData\Local\Temp\ccBmAAlS.s:29088  .debug_str:0000000000020ba9 .LASF4341
C:\Users\CYMR90~1\AppData\Local\Temp\ccBmAAlS.s:23689  .debug_str:000000000000b2e6 .LASF4342
C:\Users\CYMR90~1\AppData\Local\Temp\ccBmAAlS.s:21309  .debug_str:0000000000001ad4 .LASF4343
C:\Users\CYMR90~1\AppData\Local\Temp\ccBmAAlS.s:26281  .debug_str:00000000000156e9 .LASF4344
C:\Users\CYMR90~1\AppData\Local\Temp\ccBmAAlS.s:25603  .debug_str:0000000000012c84 .LASF4345
C:\Users\CYMR90~1\AppData\Local\Temp\ccBmAAlS.s:31906  .debug_str:000000000002bdcc .LASF4346
C:\Users\CYMR90~1\AppData\Local\Temp\ccBmAAlS.s:27224  .debug_str:00000000000194e5 .LASF4347
C:\Users\CYMR90~1\AppData\Local\Temp\ccBmAAlS.s:26770  .debug_str:0000000000017804 .LASF4348
C:\Users\CYMR90~1\AppData\Local\Temp\ccBmAAlS.s:28242  .debug_str:000000000001d7f6 .LASF4349
C:\Users\CYMR90~1\AppData\Local\Temp\ccBmAAlS.s:29908  .debug_str:0000000000023cea .LASF4350
C:\Users\CYMR90~1\AppData\Local\Temp\ccBmAAlS.s:22255  .debug_str:000000000000568c .LASF4351
C:\Users\CYMR90~1\AppData\Local\Temp\ccBmAAlS.s:21203  .debug_str:000000000000141f .LASF4352
C:\Users\CYMR90~1\AppData\Local\Temp\ccBmAAlS.s:28552  .debug_str:000000000001eb22 .LASF4353
C:\Users\CYMR90~1\AppData\Local\Temp\ccBmAAlS.s:29274  .debug_str:00000000000216e4 .LASF4354
C:\Users\CYMR90~1\AppData\Local\Temp\ccBmAAlS.s:31474  .debug_str:000000000002a30b .LASF4355
C:\Users\CYMR90~1\AppData\Local\Temp\ccBmAAlS.s:25277  .debug_str:000000000001168d .LASF4356
C:\Users\CYMR90~1\AppData\Local\Temp\ccBmAAlS.s:31126  .debug_str:0000000000028da2 .LASF4357
C:\Users\CYMR90~1\AppData\Local\Temp\ccBmAAlS.s:26053  .debug_str:00000000000148be .LASF4358
C:\Users\CYMR90~1\AppData\Local\Temp\ccBmAAlS.s:23651  .debug_str:000000000000b0cd .LASF4359
C:\Users\CYMR90~1\AppData\Local\Temp\ccBmAAlS.s:29050  .debug_str:0000000000020987 .LASF4360
C:\Users\CYMR90~1\AppData\Local\Temp\ccBmAAlS.s:23089  .debug_str:0000000000008caa .LASF4361
C:\Users\CYMR90~1\AppData\Local\Temp\ccBmAAlS.s:26688  .debug_str:00000000000172ee .LASF4362
C:\Users\CYMR90~1\AppData\Local\Temp\ccBmAAlS.s:29868  .debug_str:0000000000023a94 .LASF4363
C:\Users\CYMR90~1\AppData\Local\Temp\ccBmAAlS.s:30706  .debug_str:0000000000027161 .LASF4364
C:\Users\CYMR90~1\AppData\Local\Temp\ccBmAAlS.s:26089  .debug_str:0000000000014af0 .LASF4365
C:\Users\CYMR90~1\AppData\Local\Temp\ccBmAAlS.s:28458  .debug_str:000000000001e53b .LASF4366
C:\Users\CYMR90~1\AppData\Local\Temp\ccBmAAlS.s:24061  .debug_str:000000000000cbeb .LASF4367
C:\Users\CYMR90~1\AppData\Local\Temp\ccBmAAlS.s:25867  .debug_str:0000000000013d25 .LASF4368
C:\Users\CYMR90~1\AppData\Local\Temp\ccBmAAlS.s:28294  .debug_str:000000000001db21 .LASF4369
C:\Users\CYMR90~1\AppData\Local\Temp\ccBmAAlS.s:25629  .debug_str:0000000000012e32 .LASF4370
C:\Users\CYMR90~1\AppData\Local\Temp\ccBmAAlS.s:29120  .debug_str:0000000000020db2 .LASF4371
C:\Users\CYMR90~1\AppData\Local\Temp\ccBmAAlS.s:24607  .debug_str:000000000000ed4c .LASF4372
C:\Users\CYMR90~1\AppData\Local\Temp\ccBmAAlS.s:28240  .debug_str:000000000001d7e1 .LASF4373
C:\Users\CYMR90~1\AppData\Local\Temp\ccBmAAlS.s:21617  .debug_str:0000000000002d89 .LASF4374
C:\Users\CYMR90~1\AppData\Local\Temp\ccBmAAlS.s:21391  .debug_str:0000000000002009 .LASF4375
C:\Users\CYMR90~1\AppData\Local\Temp\ccBmAAlS.s:27954  .debug_str:000000000001c3f9 .LASF4376
C:\Users\CYMR90~1\AppData\Local\Temp\ccBmAAlS.s:23001  .debug_str:00000000000086f7 .LASF4377
C:\Users\CYMR90~1\AppData\Local\Temp\ccBmAAlS.s:31602  .debug_str:000000000002aaf7 .LASF4378
C:\Users\CYMR90~1\AppData\Local\Temp\ccBmAAlS.s:22363  .debug_str:0000000000005d31 .LASF4379
C:\Users\CYMR90~1\AppData\Local\Temp\ccBmAAlS.s:20973  .debug_str:00000000000005cd .LASF4380
C:\Users\CYMR90~1\AppData\Local\Temp\ccBmAAlS.s:30110  .debug_str:0000000000024a75 .LASF4381
C:\Users\CYMR90~1\AppData\Local\Temp\ccBmAAlS.s:27000  .debug_str:00000000000185d4 .LASF4382
C:\Users\CYMR90~1\AppData\Local\Temp\ccBmAAlS.s:24715  .debug_str:000000000000f3a4 .LASF4383
C:\Users\CYMR90~1\AppData\Local\Temp\ccBmAAlS.s:29714  .debug_str:0000000000023114 .LASF4384
C:\Users\CYMR90~1\AppData\Local\Temp\ccBmAAlS.s:31426  .debug_str:000000000002a049 .LASF4385
C:\Users\CYMR90~1\AppData\Local\Temp\ccBmAAlS.s:23909  .debug_str:000000000000c1cf .LASF4386
C:\Users\CYMR90~1\AppData\Local\Temp\ccBmAAlS.s:22439  .debug_str:00000000000061d8 .LASF4387
C:\Users\CYMR90~1\AppData\Local\Temp\ccBmAAlS.s:22075  .debug_str:0000000000004b9a .LASF4388
C:\Users\CYMR90~1\AppData\Local\Temp\ccBmAAlS.s:30470  .debug_str:000000000002630f .LASF4389
C:\Users\CYMR90~1\AppData\Local\Temp\ccBmAAlS.s:24307  .debug_str:000000000000daee .LASF4390
C:\Users\CYMR90~1\AppData\Local\Temp\ccBmAAlS.s:25713  .debug_str:00000000000133f0 .LASF4391
C:\Users\CYMR90~1\AppData\Local\Temp\ccBmAAlS.s:23065  .debug_str:0000000000008b27 .LASF4392
C:\Users\CYMR90~1\AppData\Local\Temp\ccBmAAlS.s:26289  .debug_str:000000000001575f .LASF4393
C:\Users\CYMR90~1\AppData\Local\Temp\ccBmAAlS.s:30252  .debug_str:0000000000025482 .LASF4394
C:\Users\CYMR90~1\AppData\Local\Temp\ccBmAAlS.s:21495  .debug_str:0000000000002592 .LASF4395
C:\Users\CYMR90~1\AppData\Local\Temp\ccBmAAlS.s:24655  .debug_str:000000000000efe3 .LASF4396
C:\Users\CYMR90~1\AppData\Local\Temp\ccBmAAlS.s:21111  .debug_str:0000000000000e4f .LASF4397
C:\Users\CYMR90~1\AppData\Local\Temp\ccBmAAlS.s:26910  .debug_str:000000000001804a .LASF4398
C:\Users\CYMR90~1\AppData\Local\Temp\ccBmAAlS.s:23797  .debug_str:000000000000b9ee .LASF4399
C:\Users\CYMR90~1\AppData\Local\Temp\ccBmAAlS.s:28820  .debug_str:000000000001fb08 .LASF4400
C:\Users\CYMR90~1\AppData\Local\Temp\ccBmAAlS.s:27778  .debug_str:000000000001b8f2 .LASF4401
C:\Users\CYMR90~1\AppData\Local\Temp\ccBmAAlS.s:25521  .debug_str:000000000001270e .LASF4402
C:\Users\CYMR90~1\AppData\Local\Temp\ccBmAAlS.s:21489  .debug_str:0000000000002545 .LASF4403
C:\Users\CYMR90~1\AppData\Local\Temp\ccBmAAlS.s:28192  .debug_str:000000000001d48d .LASF4404
C:\Users\CYMR90~1\AppData\Local\Temp\ccBmAAlS.s:24035  .debug_str:000000000000ca50 .LASF4405
C:\Users\CYMR90~1\AppData\Local\Temp\ccBmAAlS.s:31586  .debug_str:000000000002aa12 .LASF4406
C:\Users\CYMR90~1\AppData\Local\Temp\ccBmAAlS.s:27456  .debug_str:000000000001a524 .LASF4407
C:\Users\CYMR90~1\AppData\Local\Temp\ccBmAAlS.s:29680  .debug_str:0000000000022f3e .LASF4408
C:\Users\CYMR90~1\AppData\Local\Temp\ccBmAAlS.s:31266  .debug_str:000000000002967d .LASF4409
C:\Users\CYMR90~1\AppData\Local\Temp\ccBmAAlS.s:26535  .debug_str:0000000000016733 .LASF4410
C:\Users\CYMR90~1\AppData\Local\Temp\ccBmAAlS.s:27192  .debug_str:00000000000192e8 .LASF4411
C:\Users\CYMR90~1\AppData\Local\Temp\ccBmAAlS.s:22253  .debug_str:0000000000005673 .LASF4412
C:\Users\CYMR90~1\AppData\Local\Temp\ccBmAAlS.s:25947  .debug_str:0000000000014254 .LASF4413
C:\Users\CYMR90~1\AppData\Local\Temp\ccBmAAlS.s:24889  .debug_str:000000000000fea9 .LASF4414
C:\Users\CYMR90~1\AppData\Local\Temp\ccBmAAlS.s:28096  .debug_str:000000000001cd74 .LASF4415
C:\Users\CYMR90~1\AppData\Local\Temp\ccBmAAlS.s:29398  .debug_str:0000000000021e8c .LASF4416
C:\Users\CYMR90~1\AppData\Local\Temp\ccBmAAlS.s:24683  .debug_str:000000000000f1ac .LASF4417
C:\Users\CYMR90~1\AppData\Local\Temp\ccBmAAlS.s:31750  .debug_str:000000000002b3e3 .LASF4418
C:\Users\CYMR90~1\AppData\Local\Temp\ccBmAAlS.s:23815  .debug_str:000000000000bb46 .LASF4419
C:\Users\CYMR90~1\AppData\Local\Temp\ccBmAAlS.s:29002  .debug_str:00000000000206b0 .LASF4420
C:\Users\CYMR90~1\AppData\Local\Temp\ccBmAAlS.s:26397  .debug_str:0000000000015e25 .LASF4421
C:\Users\CYMR90~1\AppData\Local\Temp\ccBmAAlS.s:29856  .debug_str:00000000000239c7 .LASF4422
C:\Users\CYMR90~1\AppData\Local\Temp\ccBmAAlS.s:31720  .debug_str:000000000002b1e9 .LASF4423
C:\Users\CYMR90~1\AppData\Local\Temp\ccBmAAlS.s:29194  .debug_str:00000000000211a2 .LASF4424
C:\Users\CYMR90~1\AppData\Local\Temp\ccBmAAlS.s:29542  .debug_str:00000000000226ab .LASF4425
C:\Users\CYMR90~1\AppData\Local\Temp\ccBmAAlS.s:26523  .debug_str:0000000000016686 .LASF4426
C:\Users\CYMR90~1\AppData\Local\Temp\ccBmAAlS.s:23049  .debug_str:0000000000008a2e .LASF4427
C:\Users\CYMR90~1\AppData\Local\Temp\ccBmAAlS.s:30292  .debug_str:0000000000025761 .LASF4428
C:\Users\CYMR90~1\AppData\Local\Temp\ccBmAAlS.s:27514  .debug_str:000000000001a8cc .LASF4429
C:\Users\CYMR90~1\AppData\Local\Temp\ccBmAAlS.s:29738  .debug_str:000000000002325b .LASF4430
C:\Users\CYMR90~1\AppData\Local\Temp\ccBmAAlS.s:29516  .debug_str:000000000002250f .LASF4431
C:\Users\CYMR90~1\AppData\Local\Temp\ccBmAAlS.s:31246  .debug_str:0000000000029568 .LASF4432
C:\Users\CYMR90~1\AppData\Local\Temp\ccBmAAlS.s:21577  .debug_str:0000000000002afc .LASF4433
C:\Users\CYMR90~1\AppData\Local\Temp\ccBmAAlS.s:24583  .debug_str:000000000000ec14 .LASF4434
C:\Users\CYMR90~1\AppData\Local\Temp\ccBmAAlS.s:24653  .debug_str:000000000000efcb .LASF4435
C:\Users\CYMR90~1\AppData\Local\Temp\ccBmAAlS.s:21807  .debug_str:0000000000003982 .LASF4436
C:\Users\CYMR90~1\AppData\Local\Temp\ccBmAAlS.s:25843  .debug_str:0000000000013be0 .LASF4437
C:\Users\CYMR90~1\AppData\Local\Temp\ccBmAAlS.s:30200  .debug_str:0000000000025040 .LASF4438
C:\Users\CYMR90~1\AppData\Local\Temp\ccBmAAlS.s:24841  .debug_str:000000000000fb89 .LASF4439
C:\Users\CYMR90~1\AppData\Local\Temp\ccBmAAlS.s:25849  .debug_str:0000000000013c24 .LASF4440
C:\Users\CYMR90~1\AppData\Local\Temp\ccBmAAlS.s:22369  .debug_str:0000000000005d71 .LASF4441
C:\Users\CYMR90~1\AppData\Local\Temp\ccBmAAlS.s:21959  .debug_str:0000000000004387 .LASF4442
C:\Users\CYMR90~1\AppData\Local\Temp\ccBmAAlS.s:29312  .debug_str:0000000000021954 .LASF4443
C:\Users\CYMR90~1\AppData\Local\Temp\ccBmAAlS.s:28836  .debug_str:000000000001fc06 .LASF4444
C:\Users\CYMR90~1\AppData\Local\Temp\ccBmAAlS.s:22049  .debug_str:0000000000004a17 .LASF4445
C:\Users\CYMR90~1\AppData\Local\Temp\ccBmAAlS.s:28550  .debug_str:000000000001eb08 .LASF4446
C:\Users\CYMR90~1\AppData\Local\Temp\ccBmAAlS.s:30528  .debug_str:000000000002668d .LASF4447
C:\Users\CYMR90~1\AppData\Local\Temp\ccBmAAlS.s:31708  .debug_str:000000000002b13f .LASF4448
C:\Users\CYMR90~1\AppData\Local\Temp\ccBmAAlS.s:26223  .debug_str:00000000000153a7 .LASF4449
C:\Users\CYMR90~1\AppData\Local\Temp\ccBmAAlS.s:21255  .debug_str:0000000000001702 .LASF4450
C:\Users\CYMR90~1\AppData\Local\Temp\ccBmAAlS.s:28424  .debug_str:000000000001e345 .LASF4451
C:\Users\CYMR90~1\AppData\Local\Temp\ccBmAAlS.s:30754  .debug_str:000000000002750d .LASF4452
C:\Users\CYMR90~1\AppData\Local\Temp\ccBmAAlS.s:23505  .debug_str:000000000000a639 .LASF4453
C:\Users\CYMR90~1\AppData\Local\Temp\ccBmAAlS.s:32060  .debug_str:000000000002c80a .LASF4454
C:\Users\CYMR90~1\AppData\Local\Temp\ccBmAAlS.s:31414  .debug_str:0000000000029fa5 .LASF4455
C:\Users\CYMR90~1\AppData\Local\Temp\ccBmAAlS.s:22857  .debug_str:0000000000007c81 .LASF4456
C:\Users\CYMR90~1\AppData\Local\Temp\ccBmAAlS.s:21945  .debug_str:00000000000042cd .LASF4457
C:\Users\CYMR90~1\AppData\Local\Temp\ccBmAAlS.s:30608  .debug_str:0000000000026b70 .LASF4458
C:\Users\CYMR90~1\AppData\Local\Temp\ccBmAAlS.s:27970  .debug_str:000000000001c4d2 .LASF4459
C:\Users\CYMR90~1\AppData\Local\Temp\ccBmAAlS.s:30582  .debug_str:00000000000269ed .LASF4460
C:\Users\CYMR90~1\AppData\Local\Temp\ccBmAAlS.s:25879  .debug_str:0000000000013de1 .LASF4461
C:\Users\CYMR90~1\AppData\Local\Temp\ccBmAAlS.s:24785  .debug_str:000000000000f854 .LASF4462
C:\Users\CYMR90~1\AppData\Local\Temp\ccBmAAlS.s:28522  .debug_str:000000000001e978 .LASF4463
C:\Users\CYMR90~1\AppData\Local\Temp\ccBmAAlS.s:22305  .debug_str:00000000000059b7 .LASF4464
C:\Users\CYMR90~1\AppData\Local\Temp\ccBmAAlS.s:29734  .debug_str:0000000000023214 .LASF4465
C:\Users\CYMR90~1\AppData\Local\Temp\ccBmAAlS.s:27126  .debug_str:0000000000018e57 .LASF4466
C:\Users\CYMR90~1\AppData\Local\Temp\ccBmAAlS.s:21457  .debug_str:0000000000002354 .LASF4467
C:\Users\CYMR90~1\AppData\Local\Temp\ccBmAAlS.s:21669  .debug_str:0000000000003083 .LASF4468
C:\Users\CYMR90~1\AppData\Local\Temp\ccBmAAlS.s:30406  .debug_str:0000000000025ef7 .LASF4469
C:\Users\CYMR90~1\AppData\Local\Temp\ccBmAAlS.s:26297  .debug_str:00000000000157cb .LASF4470
C:\Users\CYMR90~1\AppData\Local\Temp\ccBmAAlS.s:32208  .debug_str:000000000002d1c7 .LASF4471
C:\Users\CYMR90~1\AppData\Local\Temp\ccBmAAlS.s:23173  .debug_str:000000000000918c .LASF4472
C:\Users\CYMR90~1\AppData\Local\Temp\ccBmAAlS.s:31006  .debug_str:00000000000285da .LASF4473
C:\Users\CYMR90~1\AppData\Local\Temp\ccBmAAlS.s:32206  .debug_str:000000000002d18e .LASF4474
C:\Users\CYMR90~1\AppData\Local\Temp\ccBmAAlS.s:28356  .debug_str:000000000001df3e .LASF4475
C:\Users\CYMR90~1\AppData\Local\Temp\ccBmAAlS.s:22629  .debug_str:0000000000006d8b .LASF4476
C:\Users\CYMR90~1\AppData\Local\Temp\ccBmAAlS.s:22089  .debug_str:0000000000004c9c .LASF4477
C:\Users\CYMR90~1\AppData\Local\Temp\ccBmAAlS.s:26640  .debug_str:0000000000017024 .LASF4478
C:\Users\CYMR90~1\AppData\Local\Temp\ccBmAAlS.s:31848  .debug_str:000000000002ba6c .LASF4479
C:\Users\CYMR90~1\AppData\Local\Temp\ccBmAAlS.s:25653  .debug_str:0000000000012fbd .LASF4480
C:\Users\CYMR90~1\AppData\Local\Temp\ccBmAAlS.s:31476  .debug_str:000000000002a324 .LASF4481
C:\Users\CYMR90~1\AppData\Local\Temp\ccBmAAlS.s:30556  .debug_str:0000000000026836 .LASF4482
C:\Users\CYMR90~1\AppData\Local\Temp\ccBmAAlS.s:30778  .debug_str:000000000002767f .LASF4483
C:\Users\CYMR90~1\AppData\Local\Temp\ccBmAAlS.s:31312  .debug_str:00000000000299a8 .LASF4484
C:\Users\CYMR90~1\AppData\Local\Temp\ccBmAAlS.s:27874  .debug_str:000000000001bee6 .LASF4485
C:\Users\CYMR90~1\AppData\Local\Temp\ccBmAAlS.s:27342  .debug_str:0000000000019ce2 .LASF4486
C:\Users\CYMR90~1\AppData\Local\Temp\ccBmAAlS.s:22913  .debug_str:0000000000008147 .LASF4487
C:\Users\CYMR90~1\AppData\Local\Temp\ccBmAAlS.s:28062  .debug_str:000000000001cb52 .LASF4488
C:\Users\CYMR90~1\AppData\Local\Temp\ccBmAAlS.s:27646  .debug_str:000000000001b124 .LASF4489
C:\Users\CYMR90~1\AppData\Local\Temp\ccBmAAlS.s:29582  .debug_str:000000000002293b .LASF4490
C:\Users\CYMR90~1\AppData\Local\Temp\ccBmAAlS.s:30514  .debug_str:000000000002659c .LASF4491
C:\Users\CYMR90~1\AppData\Local\Temp\ccBmAAlS.s:21367  .debug_str:0000000000001e82 .LASF4492
C:\Users\CYMR90~1\AppData\Local\Temp\ccBmAAlS.s:26473  .debug_str:0000000000016318 .LASF4493
C:\Users\CYMR90~1\AppData\Local\Temp\ccBmAAlS.s:21685  .debug_str:000000000000319d .LASF4494
C:\Users\CYMR90~1\AppData\Local\Temp\ccBmAAlS.s:23879  .debug_str:000000000000bff1 .LASF4495
C:\Users\CYMR90~1\AppData\Local\Temp\ccBmAAlS.s:28532  .debug_str:000000000001ea06 .LASF4496
C:\Users\CYMR90~1\AppData\Local\Temp\ccBmAAlS.s:21161  .debug_str:00000000000011bf .LASF4497
C:\Users\CYMR90~1\AppData\Local\Temp\ccBmAAlS.s:30230  .debug_str:000000000002527c .LASF4498
C:\Users\CYMR90~1\AppData\Local\Temp\ccBmAAlS.s:23025  .debug_str:000000000000885e .LASF4499
C:\Users\CYMR90~1\AppData\Local\Temp\ccBmAAlS.s:28164  .debug_str:000000000001d2ff .LASF4500
C:\Users\CYMR90~1\AppData\Local\Temp\ccBmAAlS.s:28182  .debug_str:000000000001d3f6 .LASF4501
C:\Users\CYMR90~1\AppData\Local\Temp\ccBmAAlS.s:29140  .debug_str:0000000000020ec0 .LASF4502
C:\Users\CYMR90~1\AppData\Local\Temp\ccBmAAlS.s:27586  .debug_str:000000000001ad20 .LASF4503
C:\Users\CYMR90~1\AppData\Local\Temp\ccBmAAlS.s:22341  .debug_str:0000000000005bf7 .LASF4504
C:\Users\CYMR90~1\AppData\Local\Temp\ccBmAAlS.s:30968  .debug_str:00000000000282e8 .LASF4505
C:\Users\CYMR90~1\AppData\Local\Temp\ccBmAAlS.s:29862  .debug_str:0000000000023a43 .LASF4506
C:\Users\CYMR90~1\AppData\Local\Temp\ccBmAAlS.s:26175  .debug_str:00000000000150ba .LASF4507
C:\Users\CYMR90~1\AppData\Local\Temp\ccBmAAlS.s:28296  .debug_str:000000000001db36 .LASF4508
C:\Users\CYMR90~1\AppData\Local\Temp\ccBmAAlS.s:21645  .debug_str:0000000000002f12 .LASF4509
C:\Users\CYMR90~1\AppData\Local\Temp\ccBmAAlS.s:20907  .debug_str:00000000000001f6 .LASF4510
C:\Users\CYMR90~1\AppData\Local\Temp\ccBmAAlS.s:27294  .debug_str:00000000000199bd .LASF4511
C:\Users\CYMR90~1\AppData\Local\Temp\ccBmAAlS.s:25055  .debug_str:000000000001089b .LASF4512
C:\Users\CYMR90~1\AppData\Local\Temp\ccBmAAlS.s:21957  .debug_str:000000000000436f .LASF4513
C:\Users\CYMR90~1\AppData\Local\Temp\ccBmAAlS.s:27230  .debug_str:0000000000019545 .LASF4514
C:\Users\CYMR90~1\AppData\Local\Temp\ccBmAAlS.s:25857  .debug_str:0000000000013c8f .LASF4515
C:\Users\CYMR90~1\AppData\Local\Temp\ccBmAAlS.s:20933  .debug_str:000000000000038e .LASF4516
C:\Users\CYMR90~1\AppData\Local\Temp\ccBmAAlS.s:31682  .debug_str:000000000002afbe .LASF4517
C:\Users\CYMR90~1\AppData\Local\Temp\ccBmAAlS.s:31226  .debug_str:00000000000293c2 .LASF4518
C:\Users\CYMR90~1\AppData\Local\Temp\ccBmAAlS.s:21989  .debug_str:000000000000458c .LASF4519
C:\Users\CYMR90~1\AppData\Local\Temp\ccBmAAlS.s:32050  .debug_str:000000000002c772 .LASF4520
C:\Users\CYMR90~1\AppData\Local\Temp\ccBmAAlS.s:20953  .debug_str:00000000000004b0 .LASF4521
C:\Users\CYMR90~1\AppData\Local\Temp\ccBmAAlS.s:28510  .debug_str:000000000001e8b6 .LASF4522
C:\Users\CYMR90~1\AppData\Local\Temp\ccBmAAlS.s:26650  .debug_str:00000000000170d3 .LASF4523
C:\Users\CYMR90~1\AppData\Local\Temp\ccBmAAlS.s:21507  .debug_str:000000000000266e .LASF4524
C:\Users\CYMR90~1\AppData\Local\Temp\ccBmAAlS.s:30674  .debug_str:0000000000026f6b .LASF4525
C:\Users\CYMR90~1\AppData\Local\Temp\ccBmAAlS.s:32014  .debug_str:000000000002c4fd .LASF4526
C:\Users\CYMR90~1\AppData\Local\Temp\ccBmAAlS.s:28966  .debug_str:00000000000203c0 .LASF4527
C:\Users\CYMR90~1\AppData\Local\Temp\ccBmAAlS.s:23975  .debug_str:000000000000c5d4 .LASF4528
C:\Users\CYMR90~1\AppData\Local\Temp\ccBmAAlS.s:29590  .debug_str:00000000000229aa .LASF4529
C:\Users\CYMR90~1\AppData\Local\Temp\ccBmAAlS.s:23875  .debug_str:000000000000bf8d .LASF4530
C:\Users\CYMR90~1\AppData\Local\Temp\ccBmAAlS.s:29580  .debug_str:000000000002291d .LASF4531
C:\Users\CYMR90~1\AppData\Local\Temp\ccBmAAlS.s:31116  .debug_str:0000000000028d0b .LASF4532
C:\Users\CYMR90~1\AppData\Local\Temp\ccBmAAlS.s:22383  .debug_str:0000000000005e4d .LASF4533
C:\Users\CYMR90~1\AppData\Local\Temp\ccBmAAlS.s:25173  .debug_str:0000000000010ff9 .LASF4534
C:\Users\CYMR90~1\AppData\Local\Temp\ccBmAAlS.s:24349  .debug_str:000000000000dd5a .LASF4535
C:\Users\CYMR90~1\AppData\Local\Temp\ccBmAAlS.s:22039  .debug_str:000000000000497d .LASF4536
C:\Users\CYMR90~1\AppData\Local\Temp\ccBmAAlS.s:23319  .debug_str:0000000000009a9f .LASF4537
C:\Users\CYMR90~1\AppData\Local\Temp\ccBmAAlS.s:25839  .debug_str:0000000000013b80 .LASF4538
C:\Users\CYMR90~1\AppData\Local\Temp\ccBmAAlS.s:21861  .debug_str:0000000000003cd8 .LASF4539
C:\Users\CYMR90~1\AppData\Local\Temp\ccBmAAlS.s:22623  .debug_str:0000000000006d08 .LASF4540
C:\Users\CYMR90~1\AppData\Local\Temp\ccBmAAlS.s:20881  .debug_str:000000000000002e .LASF4541
C:\Users\CYMR90~1\AppData\Local\Temp\ccBmAAlS.s:25157  .debug_str:0000000000010f0a .LASF4542
C:\Users\CYMR90~1\AppData\Local\Temp\ccBmAAlS.s:27544  .debug_str:000000000001aa8a .LASF4543
C:\Users\CYMR90~1\AppData\Local\Temp\ccBmAAlS.s:26595  .debug_str:0000000000016bc0 .LASF4544
C:\Users\CYMR90~1\AppData\Local\Temp\ccBmAAlS.s:29740  .debug_str:0000000000023273 .LASF4545
C:\Users\CYMR90~1\AppData\Local\Temp\ccBmAAlS.s:30002  .debug_str:0000000000024339 .LASF4546
C:\Users\CYMR90~1\AppData\Local\Temp\ccBmAAlS.s:22609  .debug_str:0000000000006c36 .LASF4547
C:\Users\CYMR90~1\AppData\Local\Temp\ccBmAAlS.s:28636  .debug_str:000000000001efe2 .LASF4548
C:\Users\CYMR90~1\AppData\Local\Temp\ccBmAAlS.s:26103  .debug_str:0000000000014bd2 .LASF4549
C:\Users\CYMR90~1\AppData\Local\Temp\ccBmAAlS.s:31300  .debug_str:00000000000298bf .LASF4550
C:\Users\CYMR90~1\AppData\Local\Temp\ccBmAAlS.s:29880  .debug_str:0000000000023b36 .LASF4551
C:\Users\CYMR90~1\AppData\Local\Temp\ccBmAAlS.s:28460  .debug_str:000000000001e552 .LASF4552
C:\Users\CYMR90~1\AppData\Local\Temp\ccBmAAlS.s:21501  .debug_str:00000000000025d8 .LASF4553
C:\Users\CYMR90~1\AppData\Local\Temp\ccBmAAlS.s:28618  .debug_str:000000000001eebf .LASF4554
C:\Users\CYMR90~1\AppData\Local\Temp\ccBmAAlS.s:23497  .debug_str:000000000000a5b2 .LASF4555
C:\Users\CYMR90~1\AppData\Local\Temp\ccBmAAlS.s:21013  .debug_str:0000000000000813 .LASF4556
C:\Users\CYMR90~1\AppData\Local\Temp\ccBmAAlS.s:27560  .debug_str:000000000001ab89 .LASF4557
C:\Users\CYMR90~1\AppData\Local\Temp\ccBmAAlS.s:30886  .debug_str:0000000000027d1e .LASF4558
C:\Users\CYMR90~1\AppData\Local\Temp\ccBmAAlS.s:26265  .debug_str:00000000000155eb .LASF4559
C:\Users\CYMR90~1\AppData\Local\Temp\ccBmAAlS.s:27214  .debug_str:0000000000019418 .LASF4560
C:\Users\CYMR90~1\AppData\Local\Temp\ccBmAAlS.s:23867  .debug_str:000000000000bf05 .LASF4561
C:\Users\CYMR90~1\AppData\Local\Temp\ccBmAAlS.s:27272  .debug_str:00000000000197f2 .LASF4562
C:\Users\CYMR90~1\AppData\Local\Temp\ccBmAAlS.s:29196  .debug_str:00000000000211ba .LASF4563
C:\Users\CYMR90~1\AppData\Local\Temp\ccBmAAlS.s:27296  .debug_str:00000000000199f8 .LASF4564
C:\Users\CYMR90~1\AppData\Local\Temp\ccBmAAlS.s:21941  .debug_str:0000000000004284 .LASF4565
C:\Users\CYMR90~1\AppData\Local\Temp\ccBmAAlS.s:23545  .debug_str:000000000000a860 .LASF4566
C:\Users\CYMR90~1\AppData\Local\Temp\ccBmAAlS.s:22081  .debug_str:0000000000004c02 .LASF4567
C:\Users\CYMR90~1\AppData\Local\Temp\ccBmAAlS.s:29038  .debug_str:00000000000208c4 .LASF4568
C:\Users\CYMR90~1\AppData\Local\Temp\ccBmAAlS.s:28630  .debug_str:000000000001ef79 .LASF4569
C:\Users\CYMR90~1\AppData\Local\Temp\ccBmAAlS.s:28908  .debug_str:0000000000020087 .LASF4570
C:\Users\CYMR90~1\AppData\Local\Temp\ccBmAAlS.s:28016  .debug_str:000000000001c7be .LASF4571
C:\Users\CYMR90~1\AppData\Local\Temp\ccBmAAlS.s:31524  .debug_str:000000000002a606 .LASF4572
C:\Users\CYMR90~1\AppData\Local\Temp\ccBmAAlS.s:25075  .debug_str:0000000000010a0e .LASF4573
C:\Users\CYMR90~1\AppData\Local\Temp\ccBmAAlS.s:25805  .debug_str:000000000001396d .LASF4574
C:\Users\CYMR90~1\AppData\Local\Temp\ccBmAAlS.s:29482  .debug_str:0000000000022351 .LASF4575
C:\Users\CYMR90~1\AppData\Local\Temp\ccBmAAlS.s:31628  .debug_str:000000000002ac61 .LASF4576
C:\Users\CYMR90~1\AppData\Local\Temp\ccBmAAlS.s:24857  .debug_str:000000000000fc88 .LASF4577
C:\Users\CYMR90~1\AppData\Local\Temp\ccBmAAlS.s:29546  .debug_str:00000000000226e9 .LASF4578
C:\Users\CYMR90~1\AppData\Local\Temp\ccBmAAlS.s:31866  .debug_str:000000000002bb6a .LASF4579
C:\Users\CYMR90~1\AppData\Local\Temp\ccBmAAlS.s:30046  .debug_str:0000000000024624 .LASF4580
C:\Users\CYMR90~1\AppData\Local\Temp\ccBmAAlS.s:29646  .debug_str:0000000000022d70 .LASF4581
C:\Users\CYMR90~1\AppData\Local\Temp\ccBmAAlS.s:28020  .debug_str:000000000001c8a3 .LASF4582
C:\Users\CYMR90~1\AppData\Local\Temp\ccBmAAlS.s:27322  .debug_str:0000000000019b98 .LASF4583
C:\Users\CYMR90~1\AppData\Local\Temp\ccBmAAlS.s:24997  .debug_str:000000000001052f .LASF4584
C:\Users\CYMR90~1\AppData\Local\Temp\ccBmAAlS.s:25431  .debug_str:0000000000012153 .LASF4585
C:\Users\CYMR90~1\AppData\Local\Temp\ccBmAAlS.s:21741  .debug_str:0000000000003566 .LASF4586
C:\Users\CYMR90~1\AppData\Local\Temp\ccBmAAlS.s:22615  .debug_str:0000000000006c9c .LASF4587
C:\Users\CYMR90~1\AppData\Local\Temp\ccBmAAlS.s:25485  .debug_str:00000000000124c2 .LASF4588
C:\Users\CYMR90~1\AppData\Local\Temp\ccBmAAlS.s:31670  .debug_str:000000000002aecd .LASF4589
C:\Users\CYMR90~1\AppData\Local\Temp\ccBmAAlS.s:24469  .debug_str:000000000000e498 .LASF4590
C:\Users\CYMR90~1\AppData\Local\Temp\ccBmAAlS.s:27420  .debug_str:000000000001a156 .LASF4591
C:\Users\CYMR90~1\AppData\Local\Temp\ccBmAAlS.s:21097  .debug_str:0000000000000d76 .LASF4592
C:\Users\CYMR90~1\AppData\Local\Temp\ccBmAAlS.s:30890  .debug_str:0000000000027d6b .LASF4593
C:\Users\CYMR90~1\AppData\Local\Temp\ccBmAAlS.s:32122  .debug_str:000000000002cc29 .LASF4594
C:\Users\CYMR90~1\AppData\Local\Temp\ccBmAAlS.s:31876  .debug_str:000000000002bc1a .LASF4595
C:\Users\CYMR90~1\AppData\Local\Temp\ccBmAAlS.s:26934  .debug_str:00000000000181ee .LASF4596
C:\Users\CYMR90~1\AppData\Local\Temp\ccBmAAlS.s:21245  .debug_str:000000000000166c .LASF4597
C:\Users\CYMR90~1\AppData\Local\Temp\ccBmAAlS.s:21971  .debug_str:000000000000446a .LASF4598
C:\Users\CYMR90~1\AppData\Local\Temp\ccBmAAlS.s:26411  .debug_str:0000000000015f1b .LASF4599
C:\Users\CYMR90~1\AppData\Local\Temp\ccBmAAlS.s:31592  .debug_str:000000000002aa6a .LASF4600
C:\Users\CYMR90~1\AppData\Local\Temp\ccBmAAlS.s:29106  .debug_str:0000000000020cc6 .LASF4601
C:\Users\CYMR90~1\AppData\Local\Temp\ccBmAAlS.s:31594  .debug_str:000000000002aa88 .LASF4602
C:\Users\CYMR90~1\AppData\Local\Temp\ccBmAAlS.s:27958  .debug_str:000000000001c427 .LASF4603
C:\Users\CYMR90~1\AppData\Local\Temp\ccBmAAlS.s:21191  .debug_str:000000000000134c .LASF4604
C:\Users\CYMR90~1\AppData\Local\Temp\ccBmAAlS.s:30310  .debug_str:0000000000025896 .LASF4605
C:\Users\CYMR90~1\AppData\Local\Temp\ccBmAAlS.s:27858  .debug_str:000000000001bdd9 .LASF4606
C:\Users\CYMR90~1\AppData\Local\Temp\ccBmAAlS.s:22377  .debug_str:0000000000005de5 .LASF4607
C:\Users\CYMR90~1\AppData\Local\Temp\ccBmAAlS.s:24475  .debug_str:000000000000e4e6 .LASF4608
C:\Users\CYMR90~1\AppData\Local\Temp\ccBmAAlS.s:28976  .debug_str:0000000000020497 .LASF4609
C:\Users\CYMR90~1\AppData\Local\Temp\ccBmAAlS.s:25617  .debug_str:0000000000012d68 .LASF4610
C:\Users\CYMR90~1\AppData\Local\Temp\ccBmAAlS.s:30686  .debug_str:000000000002704f .LASF4611
C:\Users\CYMR90~1\AppData\Local\Temp\ccBmAAlS.s:26161  .debug_str:0000000000014fd3 .LASF4612
C:\Users\CYMR90~1\AppData\Local\Temp\ccBmAAlS.s:25911  .debug_str:0000000000013fc9 .LASF4613
C:\Users\CYMR90~1\AppData\Local\Temp\ccBmAAlS.s:23965  .debug_str:000000000000c535 .LASF4614
C:\Users\CYMR90~1\AppData\Local\Temp\ccBmAAlS.s:28846  .debug_str:000000000001fcad .LASF4615
C:\Users\CYMR90~1\AppData\Local\Temp\ccBmAAlS.s:24573  .debug_str:000000000000eb6e .LASF4616
C:\Users\CYMR90~1\AppData\Local\Temp\ccBmAAlS.s:22293  .debug_str:00000000000058d3 .LASF4617
C:\Users\CYMR90~1\AppData\Local\Temp\ccBmAAlS.s:31434  .debug_str:000000000002a0af .LASF4618
C:\Users\CYMR90~1\AppData\Local\Temp\ccBmAAlS.s:29152  .debug_str:0000000000020f62 .LASF4619
C:\Users\CYMR90~1\AppData\Local\Temp\ccBmAAlS.s:31946  .debug_str:000000000002c0f0 .LASF4620
C:\Users\CYMR90~1\AppData\Local\Temp\ccBmAAlS.s:24777  .debug_str:000000000000f7df .LASF4621
C:\Users\CYMR90~1\AppData\Local\Temp\ccBmAAlS.s:23207  .debug_str:0000000000009388 .LASF4622
C:\Users\CYMR90~1\AppData\Local\Temp\ccBmAAlS.s:31626  .debug_str:000000000002ac3f .LASF4623
C:\Users\CYMR90~1\AppData\Local\Temp\ccBmAAlS.s:29244  .debug_str:0000000000021520 .LASF4624
C:\Users\CYMR90~1\AppData\Local\Temp\ccBmAAlS.s:31092  .debug_str:0000000000028bba .LASF4625
C:\Users\CYMR90~1\AppData\Local\Temp\ccBmAAlS.s:22603  .debug_str:0000000000006bd2 .LASF4626
C:\Users\CYMR90~1\AppData\Local\Temp\ccBmAAlS.s:29402  .debug_str:0000000000021eb0 .LASF4627
C:\Users\CYMR90~1\AppData\Local\Temp\ccBmAAlS.s:31262  .debug_str:0000000000029633 .LASF4628
C:\Users\CYMR90~1\AppData\Local\Temp\ccBmAAlS.s:30992  .debug_str:00000000000284fa .LASF4629
C:\Users\CYMR90~1\AppData\Local\Temp\ccBmAAlS.s:30274  .debug_str:00000000000255f1 .LASF4630
C:\Users\CYMR90~1\AppData\Local\Temp\ccBmAAlS.s:27394  .debug_str:0000000000019fe4 .LASF4631
C:\Users\CYMR90~1\AppData\Local\Temp\ccBmAAlS.s:23381  .debug_str:0000000000009e6d .LASF4632
C:\Users\CYMR90~1\AppData\Local\Temp\ccBmAAlS.s:24779  .debug_str:000000000000f801 .LASF4633
C:\Users\CYMR90~1\AppData\Local\Temp\ccBmAAlS.s:21461  .debug_str:0000000000002387 .LASF4634
C:\Users\CYMR90~1\AppData\Local\Temp\ccBmAAlS.s:23529  .debug_str:000000000000a781 .LASF4635
C:\Users\CYMR90~1\AppData\Local\Temp\ccBmAAlS.s:28480  .debug_str:000000000001e6c4 .LASF4636
C:\Users\CYMR90~1\AppData\Local\Temp\ccBmAAlS.s:26718  .debug_str:00000000000174c2 .LASF4637
C:\Users\CYMR90~1\AppData\Local\Temp\ccBmAAlS.s:24179  .debug_str:000000000000d327 .LASF4638
C:\Users\CYMR90~1\AppData\Local\Temp\ccBmAAlS.s:32000  .debug_str:000000000002c3ca .LASF4639
C:\Users\CYMR90~1\AppData\Local\Temp\ccBmAAlS.s:26557  .debug_str:000000000001687d .LASF4640
C:\Users\CYMR90~1\AppData\Local\Temp\ccBmAAlS.s:24973  .debug_str:00000000000103bc .LASF4641
C:\Users\CYMR90~1\AppData\Local\Temp\ccBmAAlS.s:21675  .debug_str:000000000000310b .LASF4642
C:\Users\CYMR90~1\AppData\Local\Temp\ccBmAAlS.s:30020  .debug_str:0000000000024498 .LASF4643
C:\Users\CYMR90~1\AppData\Local\Temp\ccBmAAlS.s:26567  .debug_str:0000000000016983 .LASF4644
C:\Users\CYMR90~1\AppData\Local\Temp\ccBmAAlS.s:23095  .debug_str:0000000000008cf8 .LASF4645
C:\Users\CYMR90~1\AppData\Local\Temp\ccBmAAlS.s:30772  .debug_str:0000000000027634 .LASF4646
C:\Users\CYMR90~1\AppData\Local\Temp\ccBmAAlS.s:29686  .debug_str:0000000000022fa5 .LASF4647
C:\Users\CYMR90~1\AppData\Local\Temp\ccBmAAlS.s:21431  .debug_str:00000000000021fd .LASF4648
C:\Users\CYMR90~1\AppData\Local\Temp\ccBmAAlS.s:22559  .debug_str:000000000000692a .LASF4649
C:\Users\CYMR90~1\AppData\Local\Temp\ccBmAAlS.s:30910  .debug_str:0000000000027edf .LASF4650
C:\Users\CYMR90~1\AppData\Local\Temp\ccBmAAlS.s:28414  .debug_str:000000000001e2be .LASF4651
C:\Users\CYMR90~1\AppData\Local\Temp\ccBmAAlS.s:22919  .debug_str:000000000000819e .LASF4652
C:\Users\CYMR90~1\AppData\Local\Temp\ccBmAAlS.s:24241  .debug_str:000000000000d778 .LASF4653
C:\Users\CYMR90~1\AppData\Local\Temp\ccBmAAlS.s:24639  .debug_str:000000000000ef04 .LASF4654
C:\Users\CYMR90~1\AppData\Local\Temp\ccBmAAlS.s:28102  .debug_str:000000000001cdce .LASF4655
C:\Users\CYMR90~1\AppData\Local\Temp\ccBmAAlS.s:28232  .debug_str:000000000001d6f8 .LASF4656
C:\Users\CYMR90~1\AppData\Local\Temp\ccBmAAlS.s:21415  .debug_str:0000000000002128 .LASF4657
C:\Users\CYMR90~1\AppData\Local\Temp\ccBmAAlS.s:24803  .debug_str:000000000000f937 .LASF4658
C:\Users\CYMR90~1\AppData\Local\Temp\ccBmAAlS.s:31412  .debug_str:0000000000029f86 .LASF4659
C:\Users\CYMR90~1\AppData\Local\Temp\ccBmAAlS.s:24617  .debug_str:000000000000edbd .LASF4660
C:\Users\CYMR90~1\AppData\Local\Temp\ccBmAAlS.s:26235  .debug_str:0000000000015446 .LASF4661
C:\Users\CYMR90~1\AppData\Local\Temp\ccBmAAlS.s:23705  .debug_str:000000000000b3dc .LASF4662
C:\Users\CYMR90~1\AppData\Local\Temp\ccBmAAlS.s:26864  .debug_str:0000000000017dd0 .LASF4663
C:\Users\CYMR90~1\AppData\Local\Temp\ccBmAAlS.s:25025  .debug_str:00000000000106e5 .LASF4664
C:\Users\CYMR90~1\AppData\Local\Temp\ccBmAAlS.s:21505  .debug_str:000000000000264c .LASF4665
C:\Users\CYMR90~1\AppData\Local\Temp\ccBmAAlS.s:29670  .debug_str:0000000000022eb8 .LASF4666
C:\Users\CYMR90~1\AppData\Local\Temp\ccBmAAlS.s:21233  .debug_str:000000000000158f .LASF4667
C:\Users\CYMR90~1\AppData\Local\Temp\ccBmAAlS.s:21067  .debug_str:0000000000000bd0 .LASF4668
C:\Users\CYMR90~1\AppData\Local\Temp\ccBmAAlS.s:22141  .debug_str:0000000000004fd0 .LASF4669
C:\Users\CYMR90~1\AppData\Local\Temp\ccBmAAlS.s:22785  .debug_str:000000000000779f .LASF4670
C:\Users\CYMR90~1\AppData\Local\Temp\ccBmAAlS.s:30496  .debug_str:00000000000264a0 .LASF4671
C:\Users\CYMR90~1\AppData\Local\Temp\ccBmAAlS.s:21419  .debug_str:000000000000215d .LASF4672
C:\Users\CYMR90~1\AppData\Local\Temp\ccBmAAlS.s:25069  .debug_str:0000000000010994 .LASF4673
C:\Users\CYMR90~1\AppData\Local\Temp\ccBmAAlS.s:23779  .debug_str:000000000000b8fd .LASF4674
C:\Users\CYMR90~1\AppData\Local\Temp\ccBmAAlS.s:29926  .debug_str:0000000000023e04 .LASF4675
C:\Users\CYMR90~1\AppData\Local\Temp\ccBmAAlS.s:23133  .debug_str:0000000000008f6f .LASF4676
C:\Users\CYMR90~1\AppData\Local\Temp\ccBmAAlS.s:28834  .debug_str:000000000001fbf0 .LASF4677
C:\Users\CYMR90~1\AppData\Local\Temp\ccBmAAlS.s:29460  .debug_str:0000000000022227 .LASF4678
C:\Users\CYMR90~1\AppData\Local\Temp\ccBmAAlS.s:27004  .debug_str:0000000000018610 .LASF4679
C:\Users\CYMR90~1\AppData\Local\Temp\ccBmAAlS.s:29550  .debug_str:0000000000022742 .LASF4680
C:\Users\CYMR90~1\AppData\Local\Temp\ccBmAAlS.s:26491  .debug_str:0000000000016440 .LASF4681
C:\Users\CYMR90~1\AppData\Local\Temp\ccBmAAlS.s:26393  .debug_str:0000000000015dec .LASF4682
C:\Users\CYMR90~1\AppData\Local\Temp\ccBmAAlS.s:25965  .debug_str:000000000001435d .LASF4683
C:\Users\CYMR90~1\AppData\Local\Temp\ccBmAAlS.s:28546  .debug_str:000000000001ead9 .LASF4684
C:\Users\CYMR90~1\AppData\Local\Temp\ccBmAAlS.s:25195  .debug_str:0000000000011145 .LASF4685
C:\Users\CYMR90~1\AppData\Local\Temp\ccBmAAlS.s:28274  .debug_str:000000000001d9f9 .LASF4686
C:\Users\CYMR90~1\AppData\Local\Temp\ccBmAAlS.s:32182  .debug_str:000000000002d04d .LASF4687
C:\Users\CYMR90~1\AppData\Local\Temp\ccBmAAlS.s:24461  .debug_str:000000000000e416 .LASF4688
C:\Users\CYMR90~1\AppData\Local\Temp\ccBmAAlS.s:26962  .debug_str:0000000000018397 .LASF4689
C:\Users\CYMR90~1\AppData\Local\Temp\ccBmAAlS.s:21283  .debug_str:000000000000196c .LASF4690
C:\Users\CYMR90~1\AppData\Local\Temp\ccBmAAlS.s:21927  .debug_str:0000000000004125 .LASF4691
C:\Users\CYMR90~1\AppData\Local\Temp\ccBmAAlS.s:21931  .debug_str:00000000000041f5 .LASF4692
C:\Users\CYMR90~1\AppData\Local\Temp\ccBmAAlS.s:25105  .debug_str:0000000000010c66 .LASF4693
C:\Users\CYMR90~1\AppData\Local\Temp\ccBmAAlS.s:29946  .debug_str:0000000000023f25 .LASF4694
C:\Users\CYMR90~1\AppData\Local\Temp\ccBmAAlS.s:26487  .debug_str:0000000000016405 .LASF4695
C:\Users\CYMR90~1\AppData\Local\Temp\ccBmAAlS.s:20949  .debug_str:0000000000000482 .LASF4696
C:\Users\CYMR90~1\AppData\Local\Temp\ccBmAAlS.s:29092  .debug_str:0000000000020c08 .LASF4697
C:\Users\CYMR90~1\AppData\Local\Temp\ccBmAAlS.s:29822  .debug_str:00000000000237c6 .LASF4698
C:\Users\CYMR90~1\AppData\Local\Temp\ccBmAAlS.s:30368  .debug_str:0000000000025ca9 .LASF4699
C:\Users\CYMR90~1\AppData\Local\Temp\ccBmAAlS.s:30004  .debug_str:0000000000024369 .LASF4700
C:\Users\CYMR90~1\AppData\Local\Temp\ccBmAAlS.s:24937  .debug_str:00000000000101aa .LASF4701
C:\Users\CYMR90~1\AppData\Local\Temp\ccBmAAlS.s:26271  .debug_str:0000000000015643 .LASF4702
C:\Users\CYMR90~1\AppData\Local\Temp\ccBmAAlS.s:31798  .debug_str:000000000002b723 .LASF4703
C:\Users\CYMR90~1\AppData\Local\Temp\ccBmAAlS.s:30052  .debug_str:000000000002469c .LASF4704
C:\Users\CYMR90~1\AppData\Local\Temp\ccBmAAlS.s:27260  .debug_str:00000000000196e8 .LASF4705
C:\Users\CYMR90~1\AppData\Local\Temp\ccBmAAlS.s:28302  .debug_str:000000000001db9d .LASF4706
C:\Users\CYMR90~1\AppData\Local\Temp\ccBmAAlS.s:26477  .debug_str:0000000000016364 .LASF4707
C:\Users\CYMR90~1\AppData\Local\Temp\ccBmAAlS.s:23147  .debug_str:000000000000903f .LASF4708
C:\Users\CYMR90~1\AppData\Local\Temp\ccBmAAlS.s:29656  .debug_str:0000000000022dea .LASF4709
C:\Users\CYMR90~1\AppData\Local\Temp\ccBmAAlS.s:25333  .debug_str:0000000000011b17 .LASF4710
C:\Users\CYMR90~1\AppData\Local\Temp\ccBmAAlS.s:26726  .debug_str:000000000001751e .LASF4711
C:\Users\CYMR90~1\AppData\Local\Temp\ccBmAAlS.s:26505  .debug_str:00000000000164fc .LASF4712
C:\Users\CYMR90~1\AppData\Local\Temp\ccBmAAlS.s:21875  .debug_str:0000000000003de7 .LASF4713
C:\Users\CYMR90~1\AppData\Local\Temp\ccBmAAlS.s:30794  .debug_str:000000000002776e .LASF4714
C:\Users\CYMR90~1\AppData\Local\Temp\ccBmAAlS.s:24431  .debug_str:000000000000e25d .LASF4715
C:\Users\CYMR90~1\AppData\Local\Temp\ccBmAAlS.s:21919  .debug_str:00000000000040a2 .LASF4716
C:\Users\CYMR90~1\AppData\Local\Temp\ccBmAAlS.s:26093  .debug_str:0000000000014b2a .LASF4717
C:\Users\CYMR90~1\AppData\Local\Temp\ccBmAAlS.s:24425  .debug_str:000000000000e1fa .LASF4718
C:\Users\CYMR90~1\AppData\Local\Temp\ccBmAAlS.s:26327  .debug_str:00000000000159a0 .LASF4719
C:\Users\CYMR90~1\AppData\Local\Temp\ccBmAAlS.s:31634  .debug_str:000000000002acc5 .LASF4720
C:\Users\CYMR90~1\AppData\Local\Temp\ccBmAAlS.s:23043  .debug_str:0000000000008998 .LASF4721
C:\Users\CYMR90~1\AppData\Local\Temp\ccBmAAlS.s:21631  .debug_str:0000000000002e55 .LASF4722
C:\Users\CYMR90~1\AppData\Local\Temp\ccBmAAlS.s:30878  .debug_str:0000000000027c9b .LASF4723
C:\Users\CYMR90~1\AppData\Local\Temp\ccBmAAlS.s:31370  .debug_str:0000000000029ce1 .LASF4724
C:\Users\CYMR90~1\AppData\Local\Temp\ccBmAAlS.s:27384  .debug_str:0000000000019f41 .LASF4725
C:\Users\CYMR90~1\AppData\Local\Temp\ccBmAAlS.s:27422  .debug_str:000000000001a16d .LASF4726
C:\Users\CYMR90~1\AppData\Local\Temp\ccBmAAlS.s:30316  .debug_str:0000000000025911 .LASF4727
C:\Users\CYMR90~1\AppData\Local\Temp\ccBmAAlS.s:26197  .debug_str:000000000001522f .LASF4728
C:\Users\CYMR90~1\AppData\Local\Temp\ccBmAAlS.s:32154  .debug_str:000000000002cdf3 .LASF4729
C:\Users\CYMR90~1\AppData\Local\Temp\ccBmAAlS.s:23603  .debug_str:000000000000ad06 .LASF4730
C:\Users\CYMR90~1\AppData\Local\Temp\ccBmAAlS.s:29766  .debug_str:00000000000233f9 .LASF4731
C:\Users\CYMR90~1\AppData\Local\Temp\ccBmAAlS.s:28578  .debug_str:000000000001ec7a .LASF4732
C:\Users\CYMR90~1\AppData\Local\Temp\ccBmAAlS.s:24999  .debug_str:000000000001056d .LASF4733
C:\Users\CYMR90~1\AppData\Local\Temp\ccBmAAlS.s:32046  .debug_str:000000000002c742 .LASF4734
C:\Users\CYMR90~1\AppData\Local\Temp\ccBmAAlS.s:30180  .debug_str:0000000000024f03 .LASF4735
C:\Users\CYMR90~1\AppData\Local\Temp\ccBmAAlS.s:30090  .debug_str:00000000000248de .LASF4736
C:\Users\CYMR90~1\AppData\Local\Temp\ccBmAAlS.s:22659  .debug_str:0000000000006f88 .LASF4737
C:\Users\CYMR90~1\AppData\Local\Temp\ccBmAAlS.s:26527  .debug_str:00000000000166b5 .LASF4738
C:\Users\CYMR90~1\AppData\Local\Temp\ccBmAAlS.s:30856  .debug_str:0000000000027afb .LASF4739
C:\Users\CYMR90~1\AppData\Local\Temp\ccBmAAlS.s:28082  .debug_str:000000000001cc88 .LASF4740
C:\Users\CYMR90~1\AppData\Local\Temp\ccBmAAlS.s:30650  .debug_str:0000000000026db7 .LASF4741
C:\Users\CYMR90~1\AppData\Local\Temp\ccBmAAlS.s:26828  .debug_str:0000000000017bc3 .LASF4742
C:\Users\CYMR90~1\AppData\Local\Temp\ccBmAAlS.s:29786  .debug_str:0000000000023552 .LASF4743
C:\Users\CYMR90~1\AppData\Local\Temp\ccBmAAlS.s:22939  .debug_str:0000000000008305 .LASF4744
C:\Users\CYMR90~1\AppData\Local\Temp\ccBmAAlS.s:28068  .debug_str:000000000001cba5 .LASF4745
C:\Users\CYMR90~1\AppData\Local\Temp\ccBmAAlS.s:23571  .debug_str:000000000000aaf5 .LASF4746
C:\Users\CYMR90~1\AppData\Local\Temp\ccBmAAlS.s:22527  .debug_str:00000000000066f0 .LASF4747
C:\Users\CYMR90~1\AppData\Local\Temp\ccBmAAlS.s:26519  .debug_str:0000000000016642 .LASF4748
C:\Users\CYMR90~1\AppData\Local\Temp\ccBmAAlS.s:31816  .debug_str:000000000002b80c .LASF4749
C:\Users\CYMR90~1\AppData\Local\Temp\ccBmAAlS.s:21909  .debug_str:000000000000402e .LASF4750
C:\Users\CYMR90~1\AppData\Local\Temp\ccBmAAlS.s:30392  .debug_str:0000000000025e1d .LASF4751
C:\Users\CYMR90~1\AppData\Local\Temp\ccBmAAlS.s:24509  .debug_str:000000000000e747 .LASF4752
C:\Users\CYMR90~1\AppData\Local\Temp\ccBmAAlS.s:29294  .debug_str:0000000000021842 .LASF4753
C:\Users\CYMR90~1\AppData\Local\Temp\ccBmAAlS.s:25999  .debug_str:000000000001453b .LASF4754
C:\Users\CYMR90~1\AppData\Local\Temp\ccBmAAlS.s:23667  .debug_str:000000000000b1b8 .LASF4755
C:\Users\CYMR90~1\AppData\Local\Temp\ccBmAAlS.s:29108  .debug_str:0000000000020ce3 .LASF4756
C:\Users\CYMR90~1\AppData\Local\Temp\ccBmAAlS.s:30510  .debug_str:000000000002654c .LASF4757
C:\Users\CYMR90~1\AppData\Local\Temp\ccBmAAlS.s:28796  .debug_str:000000000001f990 .LASF4758
C:\Users\CYMR90~1\AppData\Local\Temp\ccBmAAlS.s:29404  .debug_str:0000000000021ed4 .LASF4759
C:\Users\CYMR90~1\AppData\Local\Temp\ccBmAAlS.s:27648  .debug_str:000000000001b13d .LASF4760
C:\Users\CYMR90~1\AppData\Local\Temp\ccBmAAlS.s:28948  .debug_str:00000000000202cb .LASF4761
C:\Users\CYMR90~1\AppData\Local\Temp\ccBmAAlS.s:30454  .debug_str:0000000000026210 .LASF4762
C:\Users\CYMR90~1\AppData\Local\Temp\ccBmAAlS.s:29930  .debug_str:0000000000023e3c .LASF4763
C:\Users\CYMR90~1\AppData\Local\Temp\ccBmAAlS.s:31878  .debug_str:000000000002bc39 .LASF4764
C:\Users\CYMR90~1\AppData\Local\Temp\ccBmAAlS.s:32212  .debug_str:000000000002d1f4 .LASF4765
C:\Users\CYMR90~1\AppData\Local\Temp\ccBmAAlS.s:22521  .debug_str:0000000000006691 .LASF4766
C:\Users\CYMR90~1\AppData\Local\Temp\ccBmAAlS.s:22161  .debug_str:00000000000050f4 .LASF4767
C:\Users\CYMR90~1\AppData\Local\Temp\ccBmAAlS.s:24175  .debug_str:000000000000d2df .LASF4768
C:\Users\CYMR90~1\AppData\Local\Temp\ccBmAAlS.s:29598  .debug_str:0000000000022a42 .LASF4769
C:\Users\CYMR90~1\AppData\Local\Temp\ccBmAAlS.s:28892  .debug_str:000000000001ffaa .LASF4770
C:\Users\CYMR90~1\AppData\Local\Temp\ccBmAAlS.s:21051  .debug_str:0000000000000a76 .LASF4771
C:\Users\CYMR90~1\AppData\Local\Temp\ccBmAAlS.s:25779  .debug_str:00000000000137ff .LASF4772
C:\Users\CYMR90~1\AppData\Local\Temp\ccBmAAlS.s:26912  .debug_str:0000000000018066 .LASF4773
C:\Users\CYMR90~1\AppData\Local\Temp\ccBmAAlS.s:25683  .debug_str:00000000000131a1 .LASF4774
C:\Users\CYMR90~1\AppData\Local\Temp\ccBmAAlS.s:28128  .debug_str:000000000001d02e .LASF4775
C:\Users\CYMR90~1\AppData\Local\Temp\ccBmAAlS.s:26133  .debug_str:0000000000014e06 .LASF4776
C:\Users\CYMR90~1\AppData\Local\Temp\ccBmAAlS.s:21427  .debug_str:00000000000021b6 .LASF4777
C:\Users\CYMR90~1\AppData\Local\Temp\ccBmAAlS.s:22893  .debug_str:0000000000007f69 .LASF4778
C:\Users\CYMR90~1\AppData\Local\Temp\ccBmAAlS.s:23933  .debug_str:000000000000c32e .LASF4779
C:\Users\CYMR90~1\AppData\Local\Temp\ccBmAAlS.s:26293  .debug_str:0000000000015794 .LASF4780
C:\Users\CYMR90~1\AppData\Local\Temp\ccBmAAlS.s:27802  .debug_str:000000000001ba25 .LASF4781
C:\Users\CYMR90~1\AppData\Local\Temp\ccBmAAlS.s:21995  .debug_str:00000000000045e1 .LASF4782
C:\Users\CYMR90~1\AppData\Local\Temp\ccBmAAlS.s:23017  .debug_str:00000000000087d8 .LASF4783
C:\Users\CYMR90~1\AppData\Local\Temp\ccBmAAlS.s:22045  .debug_str:00000000000049de .LASF4784
C:\Users\CYMR90~1\AppData\Local\Temp\ccBmAAlS.s:28390  .debug_str:000000000001e14e .LASF4785
C:\Users\CYMR90~1\AppData\Local\Temp\ccBmAAlS.s:30022  .debug_str:00000000000244b4 .LASF4786
C:\Users\CYMR90~1\AppData\Local\Temp\ccBmAAlS.s:31540  .debug_str:000000000002a73e .LASF4787
C:\Users\CYMR90~1\AppData\Local\Temp\ccBmAAlS.s:24845  .debug_str:000000000000fbb9 .LASF4788
C:\Users\CYMR90~1\AppData\Local\Temp\ccBmAAlS.s:29428  .debug_str:0000000000022038 .LASF4789
C:\Users\CYMR90~1\AppData\Local\Temp\ccBmAAlS.s:30984  .debug_str:0000000000028476 .LASF4790
C:\Users\CYMR90~1\AppData\Local\Temp\ccBmAAlS.s:29808  .debug_str:00000000000236be .LASF4791
C:\Users\CYMR90~1\AppData\Local\Temp\ccBmAAlS.s:26153  .debug_str:0000000000014f56 .LASF4792
C:\Users\CYMR90~1\AppData\Local\Temp\ccBmAAlS.s:31742  .debug_str:000000000002b321 .LASF4793
C:\Users\CYMR90~1\AppData\Local\Temp\ccBmAAlS.s:23703  .debug_str:000000000000b3b3 .LASF4794
C:\Users\CYMR90~1\AppData\Local\Temp\ccBmAAlS.s:31244  .debug_str:000000000002953f .LASF4795
C:\Users\CYMR90~1\AppData\Local\Temp\ccBmAAlS.s:26245  .debug_str:00000000000154e8 .LASF4796
C:\Users\CYMR90~1\AppData\Local\Temp\ccBmAAlS.s:29304  .debug_str:00000000000218cc .LASF4797
C:\Users\CYMR90~1\AppData\Local\Temp\ccBmAAlS.s:32172  .debug_str:000000000002cf8e .LASF4798
C:\Users\CYMR90~1\AppData\Local\Temp\ccBmAAlS.s:21023  .debug_str:00000000000008b2 .LASF4799
C:\Users\CYMR90~1\AppData\Local\Temp\ccBmAAlS.s:20967  .debug_str:0000000000000565 .LASF4800
C:\Users\CYMR90~1\AppData\Local\Temp\ccBmAAlS.s:28594  .debug_str:000000000001ed65 .LASF4801
C:\Users\CYMR90~1\AppData\Local\Temp\ccBmAAlS.s:23449  .debug_str:000000000000a299 .LASF4802
C:\Users\CYMR90~1\AppData\Local\Temp\ccBmAAlS.s:22269  .debug_str:000000000000577d .LASF4803
C:\Users\CYMR90~1\AppData\Local\Temp\ccBmAAlS.s:24775  .debug_str:000000000000f7b5 .LASF4804
C:\Users\CYMR90~1\AppData\Local\Temp\ccBmAAlS.s:27054  .debug_str:000000000001890d .LASF4805
C:\Users\CYMR90~1\AppData\Local\Temp\ccBmAAlS.s:21529  .debug_str:0000000000002800 .LASF4806
C:\Users\CYMR90~1\AppData\Local\Temp\ccBmAAlS.s:27300  .debug_str:0000000000019a4b .LASF4807
C:\Users\CYMR90~1\AppData\Local\Temp\ccBmAAlS.s:28652  .debug_str:000000000001f0f8 .LASF4808
C:\Users\CYMR90~1\AppData\Local\Temp\ccBmAAlS.s:21059  .debug_str:0000000000000b3c .LASF4809
C:\Users\CYMR90~1\AppData\Local\Temp\ccBmAAlS.s:22499  .debug_str:0000000000006551 .LASF4810
C:\Users\CYMR90~1\AppData\Local\Temp\ccBmAAlS.s:25529  .debug_str:0000000000012791 .LASF4811
C:\Users\CYMR90~1\AppData\Local\Temp\ccBmAAlS.s:27924  .debug_str:000000000001c24e .LASF4812
C:\Users\CYMR90~1\AppData\Local\Temp\ccBmAAlS.s:27302  .debug_str:0000000000019a77 .LASF4813
C:\Users\CYMR90~1\AppData\Local\Temp\ccBmAAlS.s:31694  .debug_str:000000000002b074 .LASF4814
C:\Users\CYMR90~1\AppData\Local\Temp\ccBmAAlS.s:23853  .debug_str:000000000000be07 .LASF4815
C:\Users\CYMR90~1\AppData\Local\Temp\ccBmAAlS.s:26882  .debug_str:0000000000017eec .LASF4816
C:\Users\CYMR90~1\AppData\Local\Temp\ccBmAAlS.s:22343  .debug_str:0000000000005c12 .LASF4817
C:\Users\CYMR90~1\AppData\Local\Temp\ccBmAAlS.s:28536  .debug_str:000000000001ea57 .LASF4818
C:\Users\CYMR90~1\AppData\Local\Temp\ccBmAAlS.s:29094  .debug_str:0000000000020c1e .LASF4819
C:\Users\CYMR90~1\AppData\Local\Temp\ccBmAAlS.s:29098  .debug_str:0000000000020c57 .LASF4820
C:\Users\CYMR90~1\AppData\Local\Temp\ccBmAAlS.s:21653  .debug_str:0000000000002f90 .LASF4821
C:\Users\CYMR90~1\AppData\Local\Temp\ccBmAAlS.s:24945  .debug_str:000000000001021f .LASF4822
C:\Users\CYMR90~1\AppData\Local\Temp\ccBmAAlS.s:31438  .debug_str:000000000002a0ec .LASF4823
C:\Users\CYMR90~1\AppData\Local\Temp\ccBmAAlS.s:23053  .debug_str:0000000000008a59 .LASF4824
C:\Users\CYMR90~1\AppData\Local\Temp\ccBmAAlS.s:24809  .debug_str:000000000000f98d .LASF4825
C:\Users\CYMR90~1\AppData\Local\Temp\ccBmAAlS.s:21591  .debug_str:0000000000002bea .LASF4826
C:\Users\CYMR90~1\AppData\Local\Temp\ccBmAAlS.s:25579  .debug_str:0000000000012ad4 .LASF4827
C:\Users\CYMR90~1\AppData\Local\Temp\ccBmAAlS.s:26680  .debug_str:0000000000017270 .LASF4828
C:\Users\CYMR90~1\AppData\Local\Temp\ccBmAAlS.s:30038  .debug_str:00000000000245c4 .LASF4829
C:\Users\CYMR90~1\AppData\Local\Temp\ccBmAAlS.s:23937  .debug_str:000000000000c379 .LASF4830
C:\Users\CYMR90~1\AppData\Local\Temp\ccBmAAlS.s:23331  .debug_str:0000000000009b7e .LASF4831
C:\Users\CYMR90~1\AppData\Local\Temp\ccBmAAlS.s:26147  .debug_str:0000000000014ef8 .LASF4832
C:\Users\CYMR90~1\AppData\Local\Temp\ccBmAAlS.s:23075  .debug_str:0000000000008bc1 .LASF4833
C:\Users\CYMR90~1\AppData\Local\Temp\ccBmAAlS.s:23007  .debug_str:000000000000873e .LASF4834
C:\Users\CYMR90~1\AppData\Local\Temp\ccBmAAlS.s:27438  .debug_str:000000000001a257 .LASF4835
C:\Users\CYMR90~1\AppData\Local\Temp\ccBmAAlS.s:29978  .debug_str:000000000002419b .LASF4836
C:\Users\CYMR90~1\AppData\Local\Temp\ccBmAAlS.s:31680  .debug_str:000000000002afa2 .LASF4837
C:\Users\CYMR90~1\AppData\Local\Temp\ccBmAAlS.s:26425  .debug_str:000000000001602f .LASF4838
C:\Users\CYMR90~1\AppData\Local\Temp\ccBmAAlS.s:21903  .debug_str:0000000000003fe6 .LASF4839
C:\Users\CYMR90~1\AppData\Local\Temp\ccBmAAlS.s:30854  .debug_str:0000000000027ad9 .LASF4840
C:\Users\CYMR90~1\AppData\Local\Temp\ccBmAAlS.s:23307  .debug_str:00000000000099e4 .LASF4841
C:\Users\CYMR90~1\AppData\Local\Temp\ccBmAAlS.s:30594  .debug_str:0000000000026a8b .LASF4842
C:\Users\CYMR90~1\AppData\Local\Temp\ccBmAAlS.s:26928  .debug_str:0000000000018185 .LASF4843
C:\Users\CYMR90~1\AppData\Local\Temp\ccBmAAlS.s:26836  .debug_str:0000000000017c24 .LASF4844
C:\Users\CYMR90~1\AppData\Local\Temp\ccBmAAlS.s:30728  .debug_str:0000000000027282 .LASF4845
C:\Users\CYMR90~1\AppData\Local\Temp\ccBmAAlS.s:24699  .debug_str:000000000000f28a .LASF4846
C:\Users\CYMR90~1\AppData\Local\Temp\ccBmAAlS.s:28106  .debug_str:000000000001ce12 .LASF4847
C:\Users\CYMR90~1\AppData\Local\Temp\ccBmAAlS.s:27128  .debug_str:0000000000018e71 .LASF4848
C:\Users\CYMR90~1\AppData\Local\Temp\ccBmAAlS.s:24015  .debug_str:000000000000c8ac .LASF4849
C:\Users\CYMR90~1\AppData\Local\Temp\ccBmAAlS.s:30240  .debug_str:00000000000253bf .LASF4850
C:\Users\CYMR90~1\AppData\Local\Temp\ccBmAAlS.s:23441  .debug_str:000000000000a221 .LASF4851
C:\Users\CYMR90~1\AppData\Local\Temp\ccBmAAlS.s:30060  .debug_str:0000000000024701 .LASF4852
C:\Users\CYMR90~1\AppData\Local\Temp\ccBmAAlS.s:27862  .debug_str:000000000001be23 .LASF4853
C:\Users\CYMR90~1\AppData\Local\Temp\ccBmAAlS.s:24153  .debug_str:000000000000d144 .LASF4854
C:\Users\CYMR90~1\AppData\Local\Temp\ccBmAAlS.s:25015  .debug_str:0000000000010668 .LASF4855
C:\Users\CYMR90~1\AppData\Local\Temp\ccBmAAlS.s:21369  .debug_str:0000000000001e9b .LASF4856
C:\Users\CYMR90~1\AppData\Local\Temp\ccBmAAlS.s:26632  .debug_str:0000000000016fb8 .LASF4857
C:\Users\CYMR90~1\AppData\Local\Temp\ccBmAAlS.s:27942  .debug_str:000000000001c342 .LASF4858
C:\Users\CYMR90~1\AppData\Local\Temp\ccBmAAlS.s:26041  .debug_str:000000000001480f .LASF4859
C:\Users\CYMR90~1\AppData\Local\Temp\ccBmAAlS.s:21987  .debug_str:0000000000004560 .LASF4860
C:\Users\CYMR90~1\AppData\Local\Temp\ccBmAAlS.s:27580  .debug_str:000000000001acb3 .LASF4861
C:\Users\CYMR90~1\AppData\Local\Temp\ccBmAAlS.s:24897  .debug_str:000000000000ff2d .LASF4862
C:\Users\CYMR90~1\AppData\Local\Temp\ccBmAAlS.s:24753  .debug_str:000000000000f5d0 .LASF4863
C:\Users\CYMR90~1\AppData\Local\Temp\ccBmAAlS.s:23847  .debug_str:000000000000bd75 .LASF4864
C:\Users\CYMR90~1\AppData\Local\Temp\ccBmAAlS.s:20883  .debug_str:000000000000006a .LASF4865
C:\Users\CYMR90~1\AppData\Local\Temp\ccBmAAlS.s:23923  .debug_str:000000000000c2ab .LASF4866
C:\Users\CYMR90~1\AppData\Local\Temp\ccBmAAlS.s:22523  .debug_str:00000000000066b4 .LASF4867
C:\Users\CYMR90~1\AppData\Local\Temp\ccBmAAlS.s:31890  .debug_str:000000000002bce2 .LASF4868
C:\Users\CYMR90~1\AppData\Local\Temp\ccBmAAlS.s:26299  .debug_str:00000000000157e5 .LASF4869
C:\Users\CYMR90~1\AppData\Local\Temp\ccBmAAlS.s:23809  .debug_str:000000000000bafb .LASF4870
C:\Users\CYMR90~1\AppData\Local\Temp\ccBmAAlS.s:26137  .debug_str:0000000000014e4d .LASF4871
C:\Users\CYMR90~1\AppData\Local\Temp\ccBmAAlS.s:23767  .debug_str:000000000000b82c .LASF4872
C:\Users\CYMR90~1\AppData\Local\Temp\ccBmAAlS.s:26347  .debug_str:0000000000015ac7 .LASF4873
C:\Users\CYMR90~1\AppData\Local\Temp\ccBmAAlS.s:25211  .debug_str:0000000000011233 .LASF4874
C:\Users\CYMR90~1\AppData\Local\Temp\ccBmAAlS.s:25137  .debug_str:0000000000010ded .LASF4875
C:\Users\CYMR90~1\AppData\Local\Temp\ccBmAAlS.s:25451  .debug_str:000000000001229d .LASF4876
C:\Users\CYMR90~1\AppData\Local\Temp\ccBmAAlS.s:26207  .debug_str:00000000000152da .LASF4877
C:\Users\CYMR90~1\AppData\Local\Temp\ccBmAAlS.s:25119  .debug_str:0000000000010d10 .LASF4878
C:\Users\CYMR90~1\AppData\Local\Temp\ccBmAAlS.s:31042  .debug_str:0000000000028887 .LASF4879
C:\Users\CYMR90~1\AppData\Local\Temp\ccBmAAlS.s:22787  .debug_str:00000000000077c1 .LASF4880
C:\Users\CYMR90~1\AppData\Local\Temp\ccBmAAlS.s:31938  .debug_str:000000000002bfed .LASF4881
C:\Users\CYMR90~1\AppData\Local\Temp\ccBmAAlS.s:31954  .debug_str:000000000002c154 .LASF4882
C:\Users\CYMR90~1\AppData\Local\Temp\ccBmAAlS.s:25685  .debug_str:00000000000131c5 .LASF4883
C:\Users\CYMR90~1\AppData\Local\Temp\ccBmAAlS.s:21085  .debug_str:0000000000000cc5 .LASF4884
C:\Users\CYMR90~1\AppData\Local\Temp\ccBmAAlS.s:30568  .debug_str:000000000002691b .LASF4885
C:\Users\CYMR90~1\AppData\Local\Temp\ccBmAAlS.s:28574  .debug_str:000000000001ec3e .LASF4886
C:\Users\CYMR90~1\AppData\Local\Temp\ccBmAAlS.s:22511  .debug_str:0000000000006609 .LASF4887
C:\Users\CYMR90~1\AppData\Local\Temp\ccBmAAlS.s:31880  .debug_str:000000000002bc5b .LASF4888
C:\Users\CYMR90~1\AppData\Local\Temp\ccBmAAlS.s:21125  .debug_str:0000000000000f97 .LASF4889
C:\Users\CYMR90~1\AppData\Local\Temp\ccBmAAlS.s:25057  .debug_str:00000000000108b4 .LASF4890
C:\Users\CYMR90~1\AppData\Local\Temp\ccBmAAlS.s:30172  .debug_str:0000000000024e9c .LASF4891
C:\Users\CYMR90~1\AppData\Local\Temp\ccBmAAlS.s:28454  .debug_str:000000000001e508 .LASF4892
C:\Users\CYMR90~1\AppData\Local\Temp\ccBmAAlS.s:22187  .debug_str:000000000000527f .LASF4893
C:\Users\CYMR90~1\AppData\Local\Temp\ccBmAAlS.s:29246  .debug_str:0000000000021544 .LASF4894
C:\Users\CYMR90~1\AppData\Local\Temp\ccBmAAlS.s:26401  .debug_str:0000000000015e61 .LASF4895
C:\Users\CYMR90~1\AppData\Local\Temp\ccBmAAlS.s:22419  .debug_str:0000000000006067 .LASF4896
C:\Users\CYMR90~1\AppData\Local\Temp\ccBmAAlS.s:27382  .debug_str:0000000000019f25 .LASF4897
C:\Users\CYMR90~1\AppData\Local\Temp\ccBmAAlS.s:26225  .debug_str:00000000000153c0 .LASF4898
C:\Users\CYMR90~1\AppData\Local\Temp\ccBmAAlS.s:27642  .debug_str:000000000001b0e2 .LASF4899
C:\Users\CYMR90~1\AppData\Local\Temp\ccBmAAlS.s:31074  .debug_str:0000000000028a7d .LASF4900
C:\Users\CYMR90~1\AppData\Local\Temp\ccBmAAlS.s:25863  .debug_str:0000000000013ce2 .LASF4901
C:\Users\CYMR90~1\AppData\Local\Temp\ccBmAAlS.s:25793  .debug_str:00000000000138cf .LASF4902
C:\Users\CYMR90~1\AppData\Local\Temp\ccBmAAlS.s:21479  .debug_str:00000000000024be .LASF4903
C:\Users\CYMR90~1\AppData\Local\Temp\ccBmAAlS.s:28506  .debug_str:000000000001e862 .LASF4904
C:\Users\CYMR90~1\AppData\Local\Temp\ccBmAAlS.s:27962  .debug_str:000000000001c45b .LASF4905
C:\Users\CYMR90~1\AppData\Local\Temp\ccBmAAlS.s:30294  .debug_str:0000000000025778 .LASF4906
C:\Users\CYMR90~1\AppData\Local\Temp\ccBmAAlS.s:22567  .debug_str:000000000000699d .LASF4907
C:\Users\CYMR90~1\AppData\Local\Temp\ccBmAAlS.s:26944  .debug_str:0000000000018270 .LASF4908
C:\Users\CYMR90~1\AppData\Local\Temp\ccBmAAlS.s:23167  .debug_str:000000000000914d .LASF4909
C:\Users\CYMR90~1\AppData\Local\Temp\ccBmAAlS.s:23333  .debug_str:0000000000009ba1 .LASF4910
C:\Users\CYMR90~1\AppData\Local\Temp\ccBmAAlS.s:21347  .debug_str:0000000000001d32 .LASF4911
C:\Users\CYMR90~1\AppData\Local\Temp\ccBmAAlS.s:31978  .debug_str:000000000002c2b6 .LASF4912
C:\Users\CYMR90~1\AppData\Local\Temp\ccBmAAlS.s:26085  .debug_str:0000000000014ab2 .LASF4913
C:\Users\CYMR90~1\AppData\Local\Temp\ccBmAAlS.s:23805  .debug_str:000000000000bacd .LASF4914
C:\Users\CYMR90~1\AppData\Local\Temp\ccBmAAlS.s:25575  .debug_str:0000000000012aac .LASF4915
C:\Users\CYMR90~1\AppData\Local\Temp\ccBmAAlS.s:26485  .debug_str:00000000000163ec .LASF4916
C:\Users\CYMR90~1\AppData\Local\Temp\ccBmAAlS.s:26151  .debug_str:0000000000014f3d .LASF4917
C:\Users\CYMR90~1\AppData\Local\Temp\ccBmAAlS.s:22711  .debug_str:000000000000731d .LASF4918
C:\Users\CYMR90~1\AppData\Local\Temp\ccBmAAlS.s:26924  .debug_str:0000000000018148 .LASF4919
C:\Users\CYMR90~1\AppData\Local\Temp\ccBmAAlS.s:24797  .debug_str:000000000000f8f8 .LASF4920
C:\Users\CYMR90~1\AppData\Local\Temp\ccBmAAlS.s:26331  .debug_str:00000000000159d9 .LASF4921
C:\Users\CYMR90~1\AppData\Local\Temp\ccBmAAlS.s:22847  .debug_str:0000000000007bcd .LASF4922
C:\Users\CYMR90~1\AppData\Local\Temp\ccBmAAlS.s:27600  .debug_str:000000000001ade5 .LASF4923
C:\Users\CYMR90~1\AppData\Local\Temp\ccBmAAlS.s:32228  .debug_str:000000000002d302 .LASF4924
C:\Users\CYMR90~1\AppData\Local\Temp\ccBmAAlS.s:21779  .debug_str:00000000000037b3 .LASF4925
C:\Users\CYMR90~1\AppData\Local\Temp\ccBmAAlS.s:25435  .debug_str:0000000000012183 .LASF4926
C:\Users\CYMR90~1\AppData\Local\Temp\ccBmAAlS.s:22689  .debug_str:0000000000007179 .LASF4927
C:\Users\CYMR90~1\AppData\Local\Temp\ccBmAAlS.s:22145  .debug_str:000000000000500e .LASF4928
C:\Users\CYMR90~1\AppData\Local\Temp\ccBmAAlS.s:21351  .debug_str:0000000000001d8b .LASF4929
C:\Users\CYMR90~1\AppData\Local\Temp\ccBmAAlS.s:23329  .debug_str:0000000000009b5d .LASF4930
C:\Users\CYMR90~1\AppData\Local\Temp\ccBmAAlS.s:24219  .debug_str:000000000000d5fb .LASF4931
C:\Users\CYMR90~1\AppData\Local\Temp\ccBmAAlS.s:21425  .debug_str:0000000000002199 .LASF4932
C:\Users\CYMR90~1\AppData\Local\Temp\ccBmAAlS.s:29382  .debug_str:0000000000021d93 .LASF4933
C:\Users\CYMR90~1\AppData\Local\Temp\ccBmAAlS.s:29014  .debug_str:0000000000020757 .LASF4934
C:\Users\CYMR90~1\AppData\Local\Temp\ccBmAAlS.s:30738  .debug_str:0000000000027360 .LASF4935
C:\Users\CYMR90~1\AppData\Local\Temp\ccBmAAlS.s:21291  .debug_str:00000000000019ce .LASF4936
C:\Users\CYMR90~1\AppData\Local\Temp\ccBmAAlS.s:24817  .debug_str:000000000000fa14 .LASF4937
C:\Users\CYMR90~1\AppData\Local\Temp\ccBmAAlS.s:23213  .debug_str:00000000000093e0 .LASF4938
C:\Users\CYMR90~1\AppData\Local\Temp\ccBmAAlS.s:30174  .debug_str:0000000000024eb4 .LASF4939
C:\Users\CYMR90~1\AppData\Local\Temp\ccBmAAlS.s:31660  .debug_str:000000000002ae35 .LASF4940
C:\Users\CYMR90~1\AppData\Local\Temp\ccBmAAlS.s:26652  .debug_str:0000000000017101 .LASF4941
C:\Users\CYMR90~1\AppData\Local\Temp\ccBmAAlS.s:26762  .debug_str:0000000000017781 .LASF4942
C:\Users\CYMR90~1\AppData\Local\Temp\ccBmAAlS.s:28328  .debug_str:000000000001dd19 .LASF4943
C:\Users\CYMR90~1\AppData\Local\Temp\ccBmAAlS.s:23459  .debug_str:000000000000a34a .LASF4944
C:\Users\CYMR90~1\AppData\Local\Temp\ccBmAAlS.s:28762  .debug_str:000000000001f786 .LASF4945
C:\Users\CYMR90~1\AppData\Local\Temp\ccBmAAlS.s:29944  .debug_str:0000000000023f08 .LASF4946
C:\Users\CYMR90~1\AppData\Local\Temp\ccBmAAlS.s:25567  .debug_str:0000000000012a3f .LASF4947
C:\Users\CYMR90~1\AppData\Local\Temp\ccBmAAlS.s:29612  .debug_str:0000000000022b00 .LASF4948
C:\Users\CYMR90~1\AppData\Local\Temp\ccBmAAlS.s:25731  .debug_str:000000000001350b .LASF4949
C:\Users\CYMR90~1\AppData\Local\Temp\ccBmAAlS.s:30888  .debug_str:0000000000027d4c .LASF4950
C:\Users\CYMR90~1\AppData\Local\Temp\ccBmAAlS.s:25227  .debug_str:0000000000011326 .LASF4951
C:\Users\CYMR90~1\AppData\Local\Temp\ccBmAAlS.s:23817  .debug_str:000000000000bb62 .LASF4952
C:\Users\CYMR90~1\AppData\Local\Temp\ccBmAAlS.s:29936  .debug_str:0000000000023e8b .LASF4953
C:\Users\CYMR90~1\AppData\Local\Temp\ccBmAAlS.s:28922  .debug_str:0000000000020176 .LASF4954
C:\Users\CYMR90~1\AppData\Local\Temp\ccBmAAlS.s:26301  .debug_str:00000000000157fb .LASF4955
C:\Users\CYMR90~1\AppData\Local\Temp\ccBmAAlS.s:21809  .debug_str:0000000000003999 .LASF4956
C:\Users\CYMR90~1\AppData\Local\Temp\ccBmAAlS.s:26634  .debug_str:0000000000016fe2 .LASF4957
C:\Users\CYMR90~1\AppData\Local\Temp\ccBmAAlS.s:21749  .debug_str:00000000000035f7 .LASF4958
C:\Users\CYMR90~1\AppData\Local\Temp\ccBmAAlS.s:22079  .debug_str:0000000000004be8 .LASF4959
C:\Users\CYMR90~1\AppData\Local\Temp\ccBmAAlS.s:22471  .debug_str:000000000000639a .LASF4960
C:\Users\CYMR90~1\AppData\Local\Temp\ccBmAAlS.s:30532  .debug_str:00000000000266ca .LASF4961
C:\Users\CYMR90~1\AppData\Local\Temp\ccBmAAlS.s:31442  .debug_str:000000000002a125 .LASF4962
C:\Users\CYMR90~1\AppData\Local\Temp\ccBmAAlS.s:20993  .debug_str:00000000000006e1 .LASF4963
C:\Users\CYMR90~1\AppData\Local\Temp\ccBmAAlS.s:27518  .debug_str:000000000001a8fa .LASF4964
C:\Users\CYMR90~1\AppData\Local\Temp\ccBmAAlS.s:31918  .debug_str:000000000002beb3 .LASF4965
C:\Users\CYMR90~1\AppData\Local\Temp\ccBmAAlS.s:23639  .debug_str:000000000000af5c .LASF4966
C:\Users\CYMR90~1\AppData\Local\Temp\ccBmAAlS.s:22561  .debug_str:0000000000006945 .LASF4967
C:\Users\CYMR90~1\AppData\Local\Temp\ccBmAAlS.s:30842  .debug_str:0000000000027a12 .LASF4968
C:\Users\CYMR90~1\AppData\Local\Temp\ccBmAAlS.s:27540  .debug_str:000000000001aa48 .LASF4969
C:\Users\CYMR90~1\AppData\Local\Temp\ccBmAAlS.s:28668  .debug_str:000000000001f201 .LASF4970
C:\Users\CYMR90~1\AppData\Local\Temp\ccBmAAlS.s:27794  .debug_str:000000000001b9c0 .LASF4971
C:\Users\CYMR90~1\AppData\Local\Temp\ccBmAAlS.s:22267  .debug_str:0000000000005764 .LASF4972
C:\Users\CYMR90~1\AppData\Local\Temp\ccBmAAlS.s:29700  .debug_str:000000000002306d .LASF4973
C:\Users\CYMR90~1\AppData\Local\Temp\ccBmAAlS.s:29720  .debug_str:0000000000023152 .LASF4974
C:\Users\CYMR90~1\AppData\Local\Temp\ccBmAAlS.s:30208  .debug_str:00000000000250b2 .LASF4975
C:\Users\CYMR90~1\AppData\Local\Temp\ccBmAAlS.s:31144  .debug_str:0000000000028e85 .LASF4976
C:\Users\CYMR90~1\AppData\Local\Temp\ccBmAAlS.s:29758  .debug_str:000000000002338c .LASF4977
C:\Users\CYMR90~1\AppData\Local\Temp\ccBmAAlS.s:31274  .debug_str:0000000000029715 .LASF4978
C:\Users\CYMR90~1\AppData\Local\Temp\ccBmAAlS.s:25643  .debug_str:0000000000012f11 .LASF4979
C:\Users\CYMR90~1\AppData\Local\Temp\ccBmAAlS.s:25473  .debug_str:00000000000123f2 .LASF4980
C:\Users\CYMR90~1\AppData\Local\Temp\ccBmAAlS.s:29288  .debug_str:00000000000217c4 .LASF4981
C:\Users\CYMR90~1\AppData\Local\Temp\ccBmAAlS.s:32200  .debug_str:000000000002d125 .LASF4982
C:\Users\CYMR90~1\AppData\Local\Temp\ccBmAAlS.s:25647  .debug_str:0000000000012f55 .LASF4983
C:\Users\CYMR90~1\AppData\Local\Temp\ccBmAAlS.s:26840  .debug_str:0000000000017c61 .LASF4984
C:\Users\CYMR90~1\AppData\Local\Temp\ccBmAAlS.s:22137  .debug_str:0000000000004f9a .LASF4985
C:\Users\CYMR90~1\AppData\Local\Temp\ccBmAAlS.s:29272  .debug_str:00000000000216cd .LASF4986
C:\Users\CYMR90~1\AppData\Local\Temp\ccBmAAlS.s:26575  .debug_str:0000000000016a0e .LASF4987
C:\Users\CYMR90~1\AppData\Local\Temp\ccBmAAlS.s:21651  .debug_str:0000000000002f77 .LASF4988
C:\Users\CYMR90~1\AppData\Local\Temp\ccBmAAlS.s:28568  .debug_str:000000000001ebf0 .LASF4989
C:\Users\CYMR90~1\AppData\Local\Temp\ccBmAAlS.s:29514  .debug_str:00000000000224f7 .LASF4990
C:\Users\CYMR90~1\AppData\Local\Temp\ccBmAAlS.s:22425  .debug_str:00000000000060d9 .LASF4991
C:\Users\CYMR90~1\AppData\Local\Temp\ccBmAAlS.s:29972  .debug_str:0000000000024074 .LASF4992
C:\Users\CYMR90~1\AppData\Local\Temp\ccBmAAlS.s:28208  .debug_str:000000000001d580 .LASF4993
C:\Users\CYMR90~1\AppData\Local\Temp\ccBmAAlS.s:28188  .debug_str:000000000001d44d .LASF4994
C:\Users\CYMR90~1\AppData\Local\Temp\ccBmAAlS.s:29296  .debug_str:000000000002186d .LASF4995
C:\Users\CYMR90~1\AppData\Local\Temp\ccBmAAlS.s:25523  .debug_str:0000000000012723 .LASF4996
C:\Users\CYMR90~1\AppData\Local\Temp\ccBmAAlS.s:26940  .debug_str:0000000000018234 .LASF4997
C:\Users\CYMR90~1\AppData\Local\Temp\ccBmAAlS.s:26215  .debug_str:0000000000015341 .LASF4998
C:\Users\CYMR90~1\AppData\Local\Temp\ccBmAAlS.s:27524  .debug_str:000000000001a944 .LASF4999
C:\Users\CYMR90~1\AppData\Local\Temp\ccBmAAlS.s:31390  .debug_str:0000000000029e30 .LASF5000
C:\Users\CYMR90~1\AppData\Local\Temp\ccBmAAlS.s:23995  .debug_str:000000000000c71b .LASF5001
C:\Users\CYMR90~1\AppData\Local\Temp\ccBmAAlS.s:23623  .debug_str:000000000000ae1f .LASF5002
C:\Users\CYMR90~1\AppData\Local\Temp\ccBmAAlS.s:24627  .debug_str:000000000000ee3e .LASF5003
C:\Users\CYMR90~1\AppData\Local\Temp\ccBmAAlS.s:22605  .debug_str:0000000000006bf6 .LASF5004
C:\Users\CYMR90~1\AppData\Local\Temp\ccBmAAlS.s:28936  .debug_str:0000000000020217 .LASF5005
C:\Users\CYMR90~1\AppData\Local\Temp\ccBmAAlS.s:21483  .debug_str:00000000000024f4 .LASF5006
C:\Users\CYMR90~1\AppData\Local\Temp\ccBmAAlS.s:29748  .debug_str:00000000000232ea .LASF5007
C:\Users\CYMR90~1\AppData\Local\Temp\ccBmAAlS.s:26561  .debug_str:00000000000168e4 .LASF5008
C:\Users\CYMR90~1\AppData\Local\Temp\ccBmAAlS.s:31614  .debug_str:000000000002ab94 .LASF5009
C:\Users\CYMR90~1\AppData\Local\Temp\ccBmAAlS.s:24815  .debug_str:000000000000f9f4 .LASF5010
C:\Users\CYMR90~1\AppData\Local\Temp\ccBmAAlS.s:30932  .debug_str:0000000000028042 .LASF5011
C:\Users\CYMR90~1\AppData\Local\Temp\ccBmAAlS.s:22809  .debug_str:000000000000793f .LASF5012
C:\Users\CYMR90~1\AppData\Local\Temp\ccBmAAlS.s:24235  .debug_str:000000000000d725 .LASF5013
C:\Users\CYMR90~1\AppData\Local\Temp\ccBmAAlS.s:32110  .debug_str:000000000002cb49 .LASF5014
C:\Users\CYMR90~1\AppData\Local\Temp\ccBmAAlS.s:23859  .debug_str:000000000000be80 .LASF5015
C:\Users\CYMR90~1\AppData\Local\Temp\ccBmAAlS.s:23433  .debug_str:000000000000a1b4 .LASF5016
C:\Users\CYMR90~1\AppData\Local\Temp\ccBmAAlS.s:30846  .debug_str:0000000000027a6a .LASF5017
C:\Users\CYMR90~1\AppData\Local\Temp\ccBmAAlS.s:25265  .debug_str:00000000000115b0 .LASF5018
C:\Users\CYMR90~1\AppData\Local\Temp\ccBmAAlS.s:22055  .debug_str:0000000000004a77 .LASF5019
C:\Users\CYMR90~1\AppData\Local\Temp\ccBmAAlS.s:23375  .debug_str:0000000000009e06 .LASF5020
C:\Users\CYMR90~1\AppData\Local\Temp\ccBmAAlS.s:27170  .debug_str:00000000000191b5 .LASF5021
C:\Users\CYMR90~1\AppData\Local\Temp\ccBmAAlS.s:28150  .debug_str:000000000001d233 .LASF5022
C:\Users\CYMR90~1\AppData\Local\Temp\ccBmAAlS.s:26057  .debug_str:00000000000148ea .LASF5023
C:\Users\CYMR90~1\AppData\Local\Temp\ccBmAAlS.s:24073  .debug_str:000000000000cca3 .LASF5024
C:\Users\CYMR90~1\AppData\Local\Temp\ccBmAAlS.s:26361  .debug_str:0000000000015b84 .LASF5025
C:\Users\CYMR90~1\AppData\Local\Temp\ccBmAAlS.s:24463  .debug_str:000000000000e42b .LASF5026
C:\Users\CYMR90~1\AppData\Local\Temp\ccBmAAlS.s:27344  .debug_str:0000000000019cfb .LASF5027
C:\Users\CYMR90~1\AppData\Local\Temp\ccBmAAlS.s:27086  .debug_str:0000000000018b17 .LASF5028
C:\Users\CYMR90~1\AppData\Local\Temp\ccBmAAlS.s:29824  .debug_str:00000000000237db .LASF5029
C:\Users\CYMR90~1\AppData\Local\Temp\ccBmAAlS.s:22015  .debug_str:000000000000474b .LASF5030
C:\Users\CYMR90~1\AppData\Local\Temp\ccBmAAlS.s:21065  .debug_str:0000000000000b9f .LASF5031
C:\Users\CYMR90~1\AppData\Local\Temp\ccBmAAlS.s:25357  .debug_str:0000000000011c61 .LASF5032
C:\Users\CYMR90~1\AppData\Local\Temp\ccBmAAlS.s:26107  .debug_str:0000000000014c0e .LASF5033
C:\Users\CYMR90~1\AppData\Local\Temp\ccBmAAlS.s:23019  .debug_str:00000000000087f3 .LASF5034
C:\Users\CYMR90~1\AppData\Local\Temp\ccBmAAlS.s:22955  .debug_str:00000000000083fc .LASF5035
C:\Users\CYMR90~1\AppData\Local\Temp\ccBmAAlS.s:23521  .debug_str:000000000000a700 .LASF5036
C:\Users\CYMR90~1\AppData\Local\Temp\ccBmAAlS.s:27176  .debug_str:0000000000019217 .LASF5037
C:\Users\CYMR90~1\AppData\Local\Temp\ccBmAAlS.s:24399  .debug_str:000000000000e069 .LASF5038
C:\Users\CYMR90~1\AppData\Local\Temp\ccBmAAlS.s:32032  .debug_str:000000000002c657 .LASF5039
C:\Users\CYMR90~1\AppData\Local\Temp\ccBmAAlS.s:21295  .debug_str:0000000000001a0c .LASF5040
C:\Users\CYMR90~1\AppData\Local\Temp\ccBmAAlS.s:30922  .debug_str:0000000000027f91 .LASF5041
C:\Users\CYMR90~1\AppData\Local\Temp\ccBmAAlS.s:28268  .debug_str:000000000001d99e .LASF5042
C:\Users\CYMR90~1\AppData\Local\Temp\ccBmAAlS.s:26614  .debug_str:0000000000016e83 .LASF5043
C:\Users\CYMR90~1\AppData\Local\Temp\ccBmAAlS.s:23481  .debug_str:000000000000a4c9 .LASF5044
C:\Users\CYMR90~1\AppData\Local\Temp\ccBmAAlS.s:29336  .debug_str:0000000000021a8e .LASF5045
C:\Users\CYMR90~1\AppData\Local\Temp\ccBmAAlS.s:25649  .debug_str:0000000000012f75 .LASF5046
C:\Users\CYMR90~1\AppData\Local\Temp\ccBmAAlS.s:27072  .debug_str:0000000000018a35 .LASF5047
C:\Users\CYMR90~1\AppData\Local\Temp\ccBmAAlS.s:25851  .debug_str:0000000000013c39 .LASF5048
C:\Users\CYMR90~1\AppData\Local\Temp\ccBmAAlS.s:30008  .debug_str:00000000000243b6 .LASF5049
C:\Users\CYMR90~1\AppData\Local\Temp\ccBmAAlS.s:22993  .debug_str:0000000000008686 .LASF5050
C:\Users\CYMR90~1\AppData\Local\Temp\ccBmAAlS.s:21547  .debug_str:0000000000002932 .LASF5051
C:\Users\CYMR90~1\AppData\Local\Temp\ccBmAAlS.s:25327  .debug_str:0000000000011ac6 .LASF5052
C:\Users\CYMR90~1\AppData\Local\Temp\ccBmAAlS.s:28894  .debug_str:000000000001ffcd .LASF5053
C:\Users\CYMR90~1\AppData\Local\Temp\ccBmAAlS.s:21699  .debug_str:000000000000328c .LASF5054
C:\Users\CYMR90~1\AppData\Local\Temp\ccBmAAlS.s:28828  .debug_str:000000000001fb79 .LASF5055
C:\Users\CYMR90~1\AppData\Local\Temp\ccBmAAlS.s:25739  .debug_str:00000000000135a7 .LASF5056
C:\Users\CYMR90~1\AppData\Local\Temp\ccBmAAlS.s:31268  .debug_str:0000000000029699 .LASF5057
C:\Users\CYMR90~1\AppData\Local\Temp\ccBmAAlS.s:23465  .debug_str:000000000000a3a1 .LASF5058
C:\Users\CYMR90~1\AppData\Local\Temp\ccBmAAlS.s:27166  .debug_str:0000000000019162 .LASF5059
C:\Users\CYMR90~1\AppData\Local\Temp\ccBmAAlS.s:31514  .debug_str:000000000002a55e .LASF5060
C:\Users\CYMR90~1\AppData\Local\Temp\ccBmAAlS.s:22513  .debug_str:0000000000006620 .LASF5061
C:\Users\CYMR90~1\AppData\Local\Temp\ccBmAAlS.s:31508  .debug_str:000000000002a4d9 .LASF5062
C:\Users\CYMR90~1\AppData\Local\Temp\ccBmAAlS.s:21629  .debug_str:0000000000002e28 .LASF5063
C:\Users\CYMR90~1\AppData\Local\Temp\ccBmAAlS.s:27604  .debug_str:000000000001ae22 .LASF5064
C:\Users\CYMR90~1\AppData\Local\Temp\ccBmAAlS.s:24729  .debug_str:000000000000f45e .LASF5065
C:\Users\CYMR90~1\AppData\Local\Temp\ccBmAAlS.s:25925  .debug_str:00000000000140f8 .LASF5066
C:\Users\CYMR90~1\AppData\Local\Temp\ccBmAAlS.s:31150  .debug_str:0000000000028eeb .LASF5067
C:\Users\CYMR90~1\AppData\Local\Temp\ccBmAAlS.s:23185  .debug_str:000000000000923b .LASF5068
C:\Users\CYMR90~1\AppData\Local\Temp\ccBmAAlS.s:28124  .debug_str:000000000001cfd2 .LASF5069
C:\Users\CYMR90~1\AppData\Local\Temp\ccBmAAlS.s:31556  .debug_str:000000000002a833 .LASF5070
C:\Users\CYMR90~1\AppData\Local\Temp\ccBmAAlS.s:22009  .debug_str:00000000000046d3 .LASF5071
C:\Users\CYMR90~1\AppData\Local\Temp\ccBmAAlS.s:30298  .debug_str:00000000000257bf .LASF5072
C:\Users\CYMR90~1\AppData\Local\Temp\ccBmAAlS.s:32040  .debug_str:000000000002c6c7 .LASF5073
C:\Users\CYMR90~1\AppData\Local\Temp\ccBmAAlS.s:27940  .debug_str:000000000001c31a .LASF5074
C:\Users\CYMR90~1\AppData\Local\Temp\ccBmAAlS.s:28916  .debug_str:0000000000020115 .LASF5075
C:\Users\CYMR90~1\AppData\Local\Temp\ccBmAAlS.s:32178  .debug_str:000000000002cfee .LASF5076
C:\Users\CYMR90~1\AppData\Local\Temp\ccBmAAlS.s:21753  .debug_str:0000000000003626 .LASF5077
C:\Users\CYMR90~1\AppData\Local\Temp\ccBmAAlS.s:28526  .debug_str:000000000001e9aa .LASF5078
C:\Users\CYMR90~1\AppData\Local\Temp\ccBmAAlS.s:29306  .debug_str:00000000000218f8 .LASF5079
C:\Users\CYMR90~1\AppData\Local\Temp\ccBmAAlS.s:21319  .debug_str:0000000000001b82 .LASF5080
C:\Users\CYMR90~1\AppData\Local\Temp\ccBmAAlS.s:25563  .debug_str:00000000000129f2 .LASF5081
C:\Users\CYMR90~1\AppData\Local\Temp\ccBmAAlS.s:26872  .debug_str:0000000000017e29 .LASF5082
C:\Users\CYMR90~1\AppData\Local\Temp\ccBmAAlS.s:25065  .debug_str:0000000000010962 .LASF5083
C:\Users\CYMR90~1\AppData\Local\Temp\ccBmAAlS.s:26976  .debug_str:0000000000018453 .LASF5084
C:\Users\CYMR90~1\AppData\Local\Temp\ccBmAAlS.s:27562  .debug_str:000000000001abc8 .LASF5085
C:\Users\CYMR90~1\AppData\Local\Temp\ccBmAAlS.s:22663  .debug_str:0000000000006fd0 .LASF5086
C:\Users\CYMR90~1\AppData\Local\Temp\ccBmAAlS.s:32214  .debug_str:000000000002d216 .LASF5087
C:\Users\CYMR90~1\AppData\Local\Temp\ccBmAAlS.s:26035  .debug_str:000000000001478d .LASF5088
C:\Users\CYMR90~1\AppData\Local\Temp\ccBmAAlS.s:27414  .debug_str:000000000001a0fb .LASF5089
C:\Users\CYMR90~1\AppData\Local\Temp\ccBmAAlS.s:22229  .debug_str:000000000000550d .LASF5090
C:\Users\CYMR90~1\AppData\Local\Temp\ccBmAAlS.s:30030  .debug_str:000000000002451c .LASF5091
C:\Users\CYMR90~1\AppData\Local\Temp\ccBmAAlS.s:30926  .debug_str:0000000000027fd4 .LASF5092
C:\Users\CYMR90~1\AppData\Local\Temp\ccBmAAlS.s:28988  .debug_str:000000000002054c .LASF5093
C:\Users\CYMR90~1\AppData\Local\Temp\ccBmAAlS.s:31988  .debug_str:000000000002c353 .LASF5094
C:\Users\CYMR90~1\AppData\Local\Temp\ccBmAAlS.s:24579  .debug_str:000000000000ebce .LASF5095
C:\Users\CYMR90~1\AppData\Local\Temp\ccBmAAlS.s:26794  .debug_str:00000000000179aa .LASF5096
C:\Users\CYMR90~1\AppData\Local\Temp\ccBmAAlS.s:22933  .debug_str:00000000000082a6 .LASF5097
C:\Users\CYMR90~1\AppData\Local\Temp\ccBmAAlS.s:22531  .debug_str:000000000000672e .LASF5098
C:\Users\CYMR90~1\AppData\Local\Temp\ccBmAAlS.s:22127  .debug_str:0000000000004ee8 .LASF5099
C:\Users\CYMR90~1\AppData\Local\Temp\ccBmAAlS.s:30750  .debug_str:00000000000274c3 .LASF5100
C:\Users\CYMR90~1\AppData\Local\Temp\ccBmAAlS.s:26916  .debug_str:00000000000180b0 .LASF5101
C:\Users\CYMR90~1\AppData\Local\Temp\ccBmAAlS.s:25503  .debug_str:00000000000125d5 .LASF5102
C:\Users\CYMR90~1\AppData\Local\Temp\ccBmAAlS.s:24023  .debug_str:000000000000c93e .LASF5103
C:\Users\CYMR90~1\AppData\Local\Temp\ccBmAAlS.s:28508  .debug_str:000000000001e880 .LASF5104
C:\Users\CYMR90~1\AppData\Local\Temp\ccBmAAlS.s:23183  .debug_str:000000000000920a .LASF5105
C:\Users\CYMR90~1\AppData\Local\Temp\ccBmAAlS.s:31718  .debug_str:000000000002b1bf .LASF5106
C:\Users\CYMR90~1\AppData\Local\Temp\ccBmAAlS.s:28500  .debug_str:000000000001e7ce .LASF5107
C:\Users\CYMR90~1\AppData\Local\Temp\ccBmAAlS.s:23029  .debug_str:00000000000088b1 .LASF5108
C:\Users\CYMR90~1\AppData\Local\Temp\ccBmAAlS.s:30838  .debug_str:00000000000279e0 .LASF5109
C:\Users\CYMR90~1\AppData\Local\Temp\ccBmAAlS.s:32220  .debug_str:000000000002d280 .LASF5110
C:\Users\CYMR90~1\AppData\Local\Temp\ccBmAAlS.s:22281  .debug_str:000000000000583a .LASF5111
C:\Users\CYMR90~1\AppData\Local\Temp\ccBmAAlS.s:31118  .debug_str:0000000000028d29 .LASF5112
C:\Users\CYMR90~1\AppData\Local\Temp\ccBmAAlS.s:22109  .debug_str:0000000000004dc5 .LASF5113
C:\Users\CYMR90~1\AppData\Local\Temp\ccBmAAlS.s:22445  .debug_str:0000000000006222 .LASF5114
C:\Users\CYMR90~1\AppData\Local\Temp\ccBmAAlS.s:27434  .debug_str:000000000001a212 .LASF5115
C:\Users\CYMR90~1\AppData\Local\Temp\ccBmAAlS.s:26117  .debug_str:0000000000014cef .LASF5116
C:\Users\CYMR90~1\AppData\Local\Temp\ccBmAAlS.s:24865  .debug_str:000000000000fd0b .LASF5117
C:\Users\CYMR90~1\AppData\Local\Temp\ccBmAAlS.s:31574  .debug_str:000000000002a94c .LASF5118
C:\Users\CYMR90~1\AppData\Local\Temp\ccBmAAlS.s:27878  .debug_str:000000000001bf23 .LASF5119
C:\Users\CYMR90~1\AppData\Local\Temp\ccBmAAlS.s:29374  .debug_str:0000000000021d11 .LASF5120
C:\Users\CYMR90~1\AppData\Local\Temp\ccBmAAlS.s:27638  .debug_str:000000000001b0a2 .LASF5121
C:\Users\CYMR90~1\AppData\Local\Temp\ccBmAAlS.s:23231  .debug_str:00000000000094d9 .LASF5122
C:\Users\CYMR90~1\AppData\Local\Temp\ccBmAAlS.s:20937  .debug_str:00000000000003d7 .LASF5123
C:\Users\CYMR90~1\AppData\Local\Temp\ccBmAAlS.s:25287  .debug_str:00000000000117e2 .LASF5124
C:\Users\CYMR90~1\AppData\Local\Temp\ccBmAAlS.s:21531  .debug_str:0000000000002828 .LASF5125
C:\Users\CYMR90~1\AppData\Local\Temp\ccBmAAlS.s:28556  .debug_str:000000000001eb55 .LASF5126
C:\Users\CYMR90~1\AppData\Local\Temp\ccBmAAlS.s:26141  .debug_str:0000000000014ea2 .LASF5127
C:\Users\CYMR90~1\AppData\Local\Temp\ccBmAAlS.s:20879  .debug_str:0000000000000000 .LASF5128
C:\Users\CYMR90~1\AppData\Local\Temp\ccBmAAlS.s:21329  .debug_str:0000000000001c27 .LASF5129
C:\Users\CYMR90~1\AppData\Local\Temp\ccBmAAlS.s:31270  .debug_str:00000000000296c6 .LASF5130
C:\Users\CYMR90~1\AppData\Local\Temp\ccBmAAlS.s:28764  .debug_str:000000000001f7a4 .LASF5131
C:\Users\CYMR90~1\AppData\Local\Temp\ccBmAAlS.s:30896  .debug_str:0000000000027dc3 .LASF5132
C:\Users\CYMR90~1\AppData\Local\Temp\ccBmAAlS.s:22233  .debug_str:0000000000005557 .LASF5133
C:\Users\CYMR90~1\AppData\Local\Temp\ccBmAAlS.s:30164  .debug_str:0000000000024e0a .LASF5134
C:\Users\CYMR90~1\AppData\Local\Temp\ccBmAAlS.s:28872  .debug_str:000000000001fe47 .LASF5135
C:\Users\CYMR90~1\AppData\Local\Temp\ccBmAAlS.s:27530  .debug_str:000000000001a9ad .LASF5136
C:\Users\CYMR90~1\AppData\Local\Temp\ccBmAAlS.s:32204  .debug_str:000000000002d167 .LASF5137
C:\Users\CYMR90~1\AppData\Local\Temp\ccBmAAlS.s:26710  .debug_str:000000000001743d .LASF5138
C:\Users\CYMR90~1\AppData\Local\Temp\ccBmAAlS.s:22413  .debug_str:0000000000006000 .LASF5139
C:\Users\CYMR90~1\AppData\Local\Temp\ccBmAAlS.s:24689  .debug_str:000000000000f1ee .LASF5140
C:\Users\CYMR90~1\AppData\Local\Temp\ccBmAAlS.s:25395  .debug_str:0000000000011eed .LASF5141
C:\Users\CYMR90~1\AppData\Local\Temp\ccBmAAlS.s:27034  .debug_str:00000000000187e7 .LASF5142
C:\Users\CYMR90~1\AppData\Local\Temp\ccBmAAlS.s:22203  .debug_str:000000000000536c .LASF5143
C:\Users\CYMR90~1\AppData\Local\Temp\ccBmAAlS.s:30284  .debug_str:000000000002569a .LASF5144
C:\Users\CYMR90~1\AppData\Local\Temp\ccBmAAlS.s:31078  .debug_str:0000000000028ab2 .LASF5145
C:\Users\CYMR90~1\AppData\Local\Temp\ccBmAAlS.s:30536  .debug_str:00000000000266f1 .LASF5146
C:\Users\CYMR90~1\AppData\Local\Temp\ccBmAAlS.s:25199  .debug_str:0000000000011180 .LASF5147
C:\Users\CYMR90~1\AppData\Local\Temp\ccBmAAlS.s:21985  .debug_str:0000000000004530 .LASF5148
C:\Users\CYMR90~1\AppData\Local\Temp\ccBmAAlS.s:29034  .debug_str:0000000000020868 .LASF5149
C:\Users\CYMR90~1\AppData\Local\Temp\ccBmAAlS.s:26379  .debug_str:0000000000015cdb .LASF5150
C:\Users\CYMR90~1\AppData\Local\Temp\ccBmAAlS.s:24079  .debug_str:000000000000cd04 .LASF5151
C:\Users\CYMR90~1\AppData\Local\Temp\ccBmAAlS.s:30512  .debug_str:0000000000026576 .LASF5152
C:\Users\CYMR90~1\AppData\Local\Temp\ccBmAAlS.s:25663  .debug_str:000000000001306f .LASF5153
C:\Users\CYMR90~1\AppData\Local\Temp\ccBmAAlS.s:23889  .debug_str:000000000000c070 .LASF5154
C:\Users\CYMR90~1\AppData\Local\Temp\ccBmAAlS.s:21795  .debug_str:00000000000038ca .LASF5155
C:\Users\CYMR90~1\AppData\Local\Temp\ccBmAAlS.s:22725  .debug_str:000000000000740d .LASF5156
C:\Users\CYMR90~1\AppData\Local\Temp\ccBmAAlS.s:24769  .debug_str:000000000000f747 .LASF5157
C:\Users\CYMR90~1\AppData\Local\Temp\ccBmAAlS.s:22295  .debug_str:00000000000058f5 .LASF5158
C:\Users\CYMR90~1\AppData\Local\Temp\ccBmAAlS.s:30960  .debug_str:000000000002825a .LASF5159
C:\Users\CYMR90~1\AppData\Local\Temp\ccBmAAlS.s:24895  .debug_str:000000000000ff0b .LASF5160
C:\Users\CYMR90~1\AppData\Local\Temp\ccBmAAlS.s:21621  .debug_str:0000000000002db5 .LASF5161
C:\Users\CYMR90~1\AppData\Local\Temp\ccBmAAlS.s:30360  .debug_str:0000000000025c35 .LASF5162
C:\Users\CYMR90~1\AppData\Local\Temp\ccBmAAlS.s:30762  .debug_str:0000000000027598 .LASF5163
C:\Users\CYMR90~1\AppData\Local\Temp\ccBmAAlS.s:25215  .debug_str:0000000000011273 .LASF5164
C:\Users\CYMR90~1\AppData\Local\Temp\ccBmAAlS.s:26423  .debug_str:0000000000015ff8 .LASF5165
C:\Users\CYMR90~1\AppData\Local\Temp\ccBmAAlS.s:29752  .debug_str:0000000000023323 .LASF5166
C:\Users\CYMR90~1\AppData\Local\Temp\ccBmAAlS.s:28492  .debug_str:000000000001e74e .LASF5167
C:\Users\CYMR90~1\AppData\Local\Temp\ccBmAAlS.s:29406  .debug_str:0000000000021efc .LASF5168
C:\Users\CYMR90~1\AppData\Local\Temp\ccBmAAlS.s:32226  .debug_str:000000000002d2dc .LASF5169
C:\Users\CYMR90~1\AppData\Local\Temp\ccBmAAlS.s:29584  .debug_str:0000000000022954 .LASF5170
C:\Users\CYMR90~1\AppData\Local\Temp\ccBmAAlS.s:30184  .debug_str:0000000000024f44 .LASF5171
C:\Users\CYMR90~1\AppData\Local\Temp\ccBmAAlS.s:22813  .debug_str:0000000000007975 .LASF5172
C:\Users\CYMR90~1\AppData\Local\Temp\ccBmAAlS.s:26964  .debug_str:00000000000183ad .LASF5173
C:\Users\CYMR90~1\AppData\Local\Temp\ccBmAAlS.s:29614  .debug_str:0000000000022b1f .LASF5174
C:\Users\CYMR90~1\AppData\Local\Temp\ccBmAAlS.s:25513  .debug_str:0000000000012678 .LASF5175
C:\Users\CYMR90~1\AppData\Local\Temp\ccBmAAlS.s:30082  .debug_str:0000000000024859 .LASF5176
C:\Users\CYMR90~1\AppData\Local\Temp\ccBmAAlS.s:31406  .debug_str:0000000000029f1e .LASF5177
C:\Users\CYMR90~1\AppData\Local\Temp\ccBmAAlS.s:29666  .debug_str:0000000000022e7a .LASF5178
C:\Users\CYMR90~1\AppData\Local\Temp\ccBmAAlS.s:30328  .debug_str:0000000000025a4f .LASF5179
C:\Users\CYMR90~1\AppData\Local\Temp\ccBmAAlS.s:30376  .debug_str:0000000000025d40 .LASF5180
C:\Users\CYMR90~1\AppData\Local\Temp\ccBmAAlS.s:29146  .debug_str:0000000000020f20 .LASF5181
C:\Users\CYMR90~1\AppData\Local\Temp\ccBmAAlS.s:24861  .debug_str:000000000000fcc5 .LASF5182
C:\Users\CYMR90~1\AppData\Local\Temp\ccBmAAlS.s:25267  .debug_str:00000000000115d4 .LASF5183
C:\Users\CYMR90~1\AppData\Local\Temp\ccBmAAlS.s:30204  .debug_str:0000000000025073 .LASF5184
C:\Users\CYMR90~1\AppData\Local\Temp\ccBmAAlS.s:23579  .debug_str:000000000000ab69 .LASF5185
C:\Users\CYMR90~1\AppData\Local\Temp\ccBmAAlS.s:25067  .debug_str:0000000000010981 .LASF5186
C:\Users\CYMR90~1\AppData\Local\Temp\ccBmAAlS.s:31666  .debug_str:000000000002ae95 .LASF5187
C:\Users\CYMR90~1\AppData\Local\Temp\ccBmAAlS.s:23103  .debug_str:0000000000008d70 .LASF5188
C:\Users\CYMR90~1\AppData\Local\Temp\ccBmAAlS.s:23683  .debug_str:000000000000b29f .LASF5189
C:\Users\CYMR90~1\AppData\Local\Temp\ccBmAAlS.s:30388  .debug_str:0000000000025dee .LASF5190
C:\Users\CYMR90~1\AppData\Local\Temp\ccBmAAlS.s:21153  .debug_str:0000000000001143 .LASF5191
C:\Users\CYMR90~1\AppData\Local\Temp\ccBmAAlS.s:26501  .debug_str:00000000000164b3 .LASF5192
C:\Users\CYMR90~1\AppData\Local\Temp\ccBmAAlS.s:28570  .debug_str:000000000001ec08 .LASF5193
C:\Users\CYMR90~1\AppData\Local\Temp\ccBmAAlS.s:30884  .debug_str:0000000000027cfc .LASF5194
C:\Users\CYMR90~1\AppData\Local\Temp\ccBmAAlS.s:24525  .debug_str:000000000000e842 .LASF5195
C:\Users\CYMR90~1\AppData\Local\Temp\ccBmAAlS.s:30912  .debug_str:0000000000027efa .LASF5196
C:\Users\CYMR90~1\AppData\Local\Temp\ccBmAAlS.s:28512  .debug_str:000000000001e8d4 .LASF5197
C:\Users\CYMR90~1\AppData\Local\Temp\ccBmAAlS.s:25271  .debug_str:000000000001161f .LASF5198
C:\Users\CYMR90~1\AppData\Local\Temp\ccBmAAlS.s:28826  .debug_str:000000000001fb48 .LASF5199
C:\Users\CYMR90~1\AppData\Local\Temp\ccBmAAlS.s:22147  .debug_str:000000000000502c .LASF5200
C:\Users\CYMR90~1\AppData\Local\Temp\ccBmAAlS.s:25811  .debug_str:00000000000139cc .LASF5201
C:\Users\CYMR90~1\AppData\Local\Temp\ccBmAAlS.s:28866  .debug_str:000000000001fdb0 .LASF5202
C:\Users\CYMR90~1\AppData\Local\Temp\ccBmAAlS.s:24383  .debug_str:000000000000df82 .LASF5203
C:\Users\CYMR90~1\AppData\Local\Temp\ccBmAAlS.s:28084  .debug_str:000000000001ccae .LASF5204
C:\Users\CYMR90~1\AppData\Local\Temp\ccBmAAlS.s:24503  .debug_str:000000000000e6e3 .LASF5205
C:\Users\CYMR90~1\AppData\Local\Temp\ccBmAAlS.s:31306  .debug_str:000000000002993a .LASF5206
C:\Users\CYMR90~1\AppData\Local\Temp\ccBmAAlS.s:32072  .debug_str:000000000002c8a4 .LASF5207
C:\Users\CYMR90~1\AppData\Local\Temp\ccBmAAlS.s:24535  .debug_str:000000000000e8b6 .LASF5208
C:\Users\CYMR90~1\AppData\Local\Temp\ccBmAAlS.s:21237  .debug_str:00000000000015d5 .LASF5209
C:\Users\CYMR90~1\AppData\Local\Temp\ccBmAAlS.s:27678  .debug_str:000000000001b341 .LASF5210
C:\Users\CYMR90~1\AppData\Local\Temp\ccBmAAlS.s:30714  .debug_str:00000000000271c9 .LASF5211
C:\Users\CYMR90~1\AppData\Local\Temp\ccBmAAlS.s:27570  .debug_str:000000000001ac2b .LASF5212
C:\Users\CYMR90~1\AppData\Local\Temp\ccBmAAlS.s:28566  .debug_str:000000000001ebda .LASF5213
C:\Users\CYMR90~1\AppData\Local\Temp\ccBmAAlS.s:28910  .debug_str:00000000000200c3 .LASF5214
C:\Users\CYMR90~1\AppData\Local\Temp\ccBmAAlS.s:29164  .debug_str:0000000000021007 .LASF5215
C:\Users\CYMR90~1\AppData\Local\Temp\ccBmAAlS.s:24027  .debug_str:000000000000c9b2 .LASF5216
C:\Users\CYMR90~1\AppData\Local\Temp\ccBmAAlS.s:26369  .debug_str:0000000000015c1c .LASF5217
C:\Users\CYMR90~1\AppData\Local\Temp\ccBmAAlS.s:24791  .debug_str:000000000000f8a7 .LASF5218
C:\Users\CYMR90~1\AppData\Local\Temp\ccBmAAlS.s:26970  .debug_str:0000000000018418 .LASF5219
C:\Users\CYMR90~1\AppData\Local\Temp\ccBmAAlS.s:31564  .debug_str:000000000002a8b6 .LASF5220
C:\Users\CYMR90~1\AppData\Local\Temp\ccBmAAlS.s:25735  .debug_str:000000000001356a .LASF5221
C:\Users\CYMR90~1\AppData\Local\Temp\ccBmAAlS.s:28752  .debug_str:000000000001f6ec .LASF5222
C:\Users\CYMR90~1\AppData\Local\Temp\ccBmAAlS.s:22791  .debug_str:000000000000781a .LASF5223
C:\Users\CYMR90~1\AppData\Local\Temp\ccBmAAlS.s:30242  .debug_str:00000000000253ea .LASF5224
C:\Users\CYMR90~1\AppData\Local\Temp\ccBmAAlS.s:22669  .debug_str:0000000000007026 .LASF5225
C:\Users\CYMR90~1\AppData\Local\Temp\ccBmAAlS.s:30796  .debug_str:0000000000027793 .LASF5226
C:\Users\CYMR90~1\AppData\Local\Temp\ccBmAAlS.s:31282  .debug_str:0000000000029781 .LASF5227
C:\Users\CYMR90~1\AppData\Local\Temp\ccBmAAlS.s:29500  .debug_str:0000000000022456 .LASF5228
C:\Users\CYMR90~1\AppData\Local\Temp\ccBmAAlS.s:26275  .debug_str:0000000000015682 .LASF5229
C:\Users\CYMR90~1\AppData\Local\Temp\ccBmAAlS.s:23109  .debug_str:0000000000008da7 .LASF5230
C:\Users\CYMR90~1\AppData\Local\Temp\ccBmAAlS.s:21707  .debug_str:0000000000003316 .LASF5231
C:\Users\CYMR90~1\AppData\Local\Temp\ccBmAAlS.s:31976  .debug_str:000000000002c29e .LASF5232
C:\Users\CYMR90~1\AppData\Local\Temp\ccBmAAlS.s:23293  .debug_str:00000000000098d1 .LASF5233
C:\Users\CYMR90~1\AppData\Local\Temp\ccBmAAlS.s:23113  .debug_str:0000000000008dce .LASF5234
C:\Users\CYMR90~1\AppData\Local\Temp\ccBmAAlS.s:23653  .debug_str:000000000000b0e6 .LASF5235
C:\Users\CYMR90~1\AppData\Local\Temp\ccBmAAlS.s:24629  .debug_str:000000000000ee61 .LASF5236
C:\Users\CYMR90~1\AppData\Local\Temp\ccBmAAlS.s:31162  .debug_str:0000000000028fda .LASF5237
C:\Users\CYMR90~1\AppData\Local\Temp\ccBmAAlS.s:23229  .debug_str:00000000000094c1 .LASF5238
C:\Users\CYMR90~1\AppData\Local\Temp\ccBmAAlS.s:31870  .debug_str:000000000002bbcf .LASF5239
C:\Users\CYMR90~1\AppData\Local\Temp\ccBmAAlS.s:30452  .debug_str:00000000000261f8 .LASF5240
C:\Users\CYMR90~1\AppData\Local\Temp\ccBmAAlS.s:24773  .debug_str:000000000000f79d .LASF5241
C:\Users\CYMR90~1\AppData\Local\Temp\ccBmAAlS.s:21993  .debug_str:00000000000045c9 .LASF5242
C:\Users\CYMR90~1\AppData\Local\Temp\ccBmAAlS.s:27532  .debug_str:000000000001a9d4 .LASF5243
C:\Users\CYMR90~1\AppData\Local\Temp\ccBmAAlS.s:30198  .debug_str:0000000000025028 .LASF5244
C:\Users\CYMR90~1\AppData\Local\Temp\ccBmAAlS.s:24713  .debug_str:000000000000f388 .LASF5245
C:\Users\CYMR90~1\AppData\Local\Temp\ccBmAAlS.s:20991  .debug_str:00000000000006c9 .LASF5246
C:\Users\CYMR90~1\AppData\Local\Temp\ccBmAAlS.s:20939  .debug_str:0000000000000401 .LASF5247
C:\Users\CYMR90~1\AppData\Local\Temp\ccBmAAlS.s:21287  .debug_str:0000000000001995 .LASF5248
C:\Users\CYMR90~1\AppData\Local\Temp\ccBmAAlS.s:29838  .debug_str:00000000000238e1 .LASF5249
C:\Users\CYMR90~1\AppData\Local\Temp\ccBmAAlS.s:30508  .debug_str:0000000000026535 .LASF5250
C:\Users\CYMR90~1\AppData\Local\Temp\ccBmAAlS.s:25613  .debug_str:0000000000012d1a .LASF5251
C:\Users\CYMR90~1\AppData\Local\Temp\ccBmAAlS.s:27564  .debug_str:000000000001abec .LASF5252
C:\Users\CYMR90~1\AppData\Local\Temp\ccBmAAlS.s:21575  .debug_str:0000000000002ae5 .LASF5253
C:\Users\CYMR90~1\AppData\Local\Temp\ccBmAAlS.s:26375  .debug_str:0000000000015cb5 .LASF5254
C:\Users\CYMR90~1\AppData\Local\Temp\ccBmAAlS.s:28950  .debug_str:00000000000202f8 .LASF5255
C:\Users\CYMR90~1\AppData\Local\Temp\ccBmAAlS.s:28270  .debug_str:000000000001d9c8 .LASF5256
C:\Users\CYMR90~1\AppData\Local\Temp\ccBmAAlS.s:23015  .debug_str:00000000000087c1 .LASF5257
C:\Users\CYMR90~1\AppData\Local\Temp\ccBmAAlS.s:29640  .debug_str:0000000000022d10 .LASF5258
C:\Users\CYMR90~1\AppData\Local\Temp\ccBmAAlS.s:28928  .debug_str:00000000000201bf .LASF5259
C:\Users\CYMR90~1\AppData\Local\Temp\ccBmAAlS.s:22047  .debug_str:0000000000004a00 .LASF5260
C:\Users\CYMR90~1\AppData\Local\Temp\ccBmAAlS.s:22469  .debug_str:0000000000006383 .LASF5261
C:\Users\CYMR90~1\AppData\Local\Temp\ccBmAAlS.s:29596  .debug_str:0000000000022a23 .LASF5262
C:\Users\CYMR90~1\AppData\Local\Temp\ccBmAAlS.s:31356  .debug_str:0000000000029c25 .LASF5263
C:\Users\CYMR90~1\AppData\Local\Temp\ccBmAAlS.s:27154  .debug_str:0000000000018fec .LASF5264
C:\Users\CYMR90~1\AppData\Local\Temp\ccBmAAlS.s:23925  .debug_str:000000000000c2d5 .LASF5265
C:\Users\CYMR90~1\AppData\Local\Temp\ccBmAAlS.s:28650  .debug_str:000000000001f0db .LASF5266
C:\Users\CYMR90~1\AppData\Local\Temp\ccBmAAlS.s:25483  .debug_str:00000000000124ab .LASF5267
C:\Users\CYMR90~1\AppData\Local\Temp\ccBmAAlS.s:29040  .debug_str:00000000000208fe .LASF5268
C:\Users\CYMR90~1\AppData\Local\Temp\ccBmAAlS.s:25817  .debug_str:0000000000013a2f .LASF5269
C:\Users\CYMR90~1\AppData\Local\Temp\ccBmAAlS.s:31310  .debug_str:0000000000029990 .LASF5270
C:\Users\CYMR90~1\AppData\Local\Temp\ccBmAAlS.s:24953  .debug_str:000000000001029a .LASF5271
C:\Users\CYMR90~1\AppData\Local\Temp\ccBmAAlS.s:24185  .debug_str:000000000000d384 .LASF5272
C:\Users\CYMR90~1\AppData\Local\Temp\ccBmAAlS.s:28660  .debug_str:000000000001f194 .LASF5273
C:\Users\CYMR90~1\AppData\Local\Temp\ccBmAAlS.s:31894  .debug_str:000000000002bd1e .LASF5274
C:\Users\CYMR90~1\AppData\Local\Temp\ccBmAAlS.s:30710  .debug_str:0000000000027199 .LASF5275
C:\Users\CYMR90~1\AppData\Local\Temp\ccBmAAlS.s:29762  .debug_str:00000000000233cb .LASF5276
C:\Users\CYMR90~1\AppData\Local\Temp\ccBmAAlS.s:23727  .debug_str:000000000000b4f6 .LASF5277
C:\Users\CYMR90~1\AppData\Local\Temp\ccBmAAlS.s:29892  .debug_str:0000000000023bf5 .LASF5278
C:\Users\CYMR90~1\AppData\Local\Temp\ccBmAAlS.s:29504  .debug_str:0000000000022487 .LASF5279
C:\Users\CYMR90~1\AppData\Local\Temp\ccBmAAlS.s:27402  .debug_str:000000000001a05b .LASF5280
C:\Users\CYMR90~1\AppData\Local\Temp\ccBmAAlS.s:26930  .debug_str:00000000000181a7 .LASF5281
C:\Users\CYMR90~1\AppData\Local\Temp\ccBmAAlS.s:29376  .debug_str:0000000000021d37 .LASF5282
C:\Users\CYMR90~1\AppData\Local\Temp\ccBmAAlS.s:31864  .debug_str:000000000002bb53 .LASF5283
C:\Users\CYMR90~1\AppData\Local\Temp\ccBmAAlS.s:22859  .debug_str:0000000000007c9a .LASF5284
C:\Users\CYMR90~1\AppData\Local\Temp\ccBmAAlS.s:22303  .debug_str:00000000000059a0 .LASF5285
C:\Users\CYMR90~1\AppData\Local\Temp\ccBmAAlS.s:22617  .debug_str:0000000000006cb5 .LASF5286
C:\Users\CYMR90~1\AppData\Local\Temp\ccBmAAlS.s:24067  .debug_str:000000000000cc4d .LASF5287
C:\Users\CYMR90~1\AppData\Local\Temp\ccBmAAlS.s:25417  .debug_str:0000000000012087 .LASF5288
C:\Users\CYMR90~1\AppData\Local\Temp\ccBmAAlS.s:23819  .debug_str:000000000000bb83 .LASF5289
C:\Users\CYMR90~1\AppData\Local\Temp\ccBmAAlS.s:30902  .debug_str:0000000000027e74 .LASF5290
C:\Users\CYMR90~1\AppData\Local\Temp\ccBmAAlS.s:30488  .debug_str:00000000000263fb .LASF5291
C:\Users\CYMR90~1\AppData\Local\Temp\ccBmAAlS.s:26171  .debug_str:000000000001508a .LASF5292
C:\Users\CYMR90~1\AppData\Local\Temp\ccBmAAlS.s:28822  .debug_str:000000000001fb20 .LASF5293
C:\Users\CYMR90~1\AppData\Local\Temp\ccBmAAlS.s:25723  .debug_str:00000000000134ac .LASF5294
C:\Users\CYMR90~1\AppData\Local\Temp\ccBmAAlS.s:25759  .debug_str:00000000000136eb .LASF5295
C:\Users\CYMR90~1\AppData\Local\Temp\ccBmAAlS.s:28316  .debug_str:000000000001dc63 .LASF5296
C:\Users\CYMR90~1\AppData\Local\Temp\ccBmAAlS.s:29056  .debug_str:00000000000209c3 .LASF5297
C:\Users\CYMR90~1\AppData\Local\Temp\ccBmAAlS.s:29212  .debug_str:00000000000212c1 .LASF5298
C:\Users\CYMR90~1\AppData\Local\Temp\ccBmAAlS.s:24143  .debug_str:000000000000d093 .LASF5299
C:\Users\CYMR90~1\AppData\Local\Temp\ccBmAAlS.s:28260  .debug_str:000000000001d901 .LASF5300
C:\Users\CYMR90~1\AppData\Local\Temp\ccBmAAlS.s:26816  .debug_str:0000000000017b09 .LASF5301
C:\Users\CYMR90~1\AppData\Local\Temp\ccBmAAlS.s:25979  .debug_str:000000000001440b .LASF5302
C:\Users\CYMR90~1\AppData\Local\Temp\ccBmAAlS.s:26007  .debug_str:00000000000145f0 .LASF5303
C:\Users\CYMR90~1\AppData\Local\Temp\ccBmAAlS.s:26179  .debug_str:0000000000015108 .LASF5304
C:\Users\CYMR90~1\AppData\Local\Temp\ccBmAAlS.s:24215  .debug_str:000000000000d5d4 .LASF5305
C:\Users\CYMR90~1\AppData\Local\Temp\ccBmAAlS.s:25845  .debug_str:0000000000013bf7 .LASF5306
C:\Users\CYMR90~1\AppData\Local\Temp\ccBmAAlS.s:21573  .debug_str:0000000000002ac9 .LASF5307
C:\Users\CYMR90~1\AppData\Local\Temp\ccBmAAlS.s:23415  .debug_str:000000000000a089 .LASF5308
C:\Users\CYMR90~1\AppData\Local\Temp\ccBmAAlS.s:30220  .debug_str:00000000000251ef .LASF5309
C:\Users\CYMR90~1\AppData\Local\Temp\ccBmAAlS.s:28174  .debug_str:000000000001d398 .LASF5310
C:\Users\CYMR90~1\AppData\Local\Temp\ccBmAAlS.s:32130  .debug_str:000000000002ccc1 .LASF5311
C:\Users\CYMR90~1\AppData\Local\Temp\ccBmAAlS.s:31472  .debug_str:000000000002a2f4 .LASF5312
C:\Users\CYMR90~1\AppData\Local\Temp\ccBmAAlS.s:23447  .debug_str:000000000000a281 .LASF5313
C:\Users\CYMR90~1\AppData\Local\Temp\ccBmAAlS.s:24249  .debug_str:000000000000d7d1 .LASF5314
C:\Users\CYMR90~1\AppData\Local\Temp\ccBmAAlS.s:28938  .debug_str:0000000000020235 .LASF5315
C:\Users\CYMR90~1\AppData\Local\Temp\ccBmAAlS.s:30322  .debug_str:00000000000259de .LASF5316
C:\Users\CYMR90~1\AppData\Local\Temp\ccBmAAlS.s:20981  .debug_str:000000000000061b .LASF5317
C:\Users\CYMR90~1\AppData\Local\Temp\ccBmAAlS.s:23477  .debug_str:000000000000a466 .LASF5318
C:\Users\CYMR90~1\AppData\Local\Temp\ccBmAAlS.s:27618  .debug_str:000000000001af4a .LASF5319
C:\Users\CYMR90~1\AppData\Local\Temp\ccBmAAlS.s:24847  .debug_str:000000000000fbdd .LASF5320
C:\Users\CYMR90~1\AppData\Local\Temp\ccBmAAlS.s:27094  .debug_str:0000000000018b94 .LASF5321
C:\Users\CYMR90~1\AppData\Local\Temp\ccBmAAlS.s:24013  .debug_str:000000000000c85f .LASF5322
C:\Users\CYMR90~1\AppData\Local\Temp\ccBmAAlS.s:24145  .debug_str:000000000000d0ab .LASF5323
C:\Users\CYMR90~1\AppData\Local\Temp\ccBmAAlS.s:25219  .debug_str:00000000000112b7 .LASF5324
C:\Users\CYMR90~1\AppData\Local\Temp\ccBmAAlS.s:28310  .debug_str:000000000001dc02 .LASF5325
C:\Users\CYMR90~1\AppData\Local\Temp\ccBmAAlS.s:23199  .debug_str:000000000000930e .LASF5326
C:\Users\CYMR90~1\AppData\Local\Temp\ccBmAAlS.s:23263  .debug_str:000000000000971d .LASF5327
C:\Users\CYMR90~1\AppData\Local\Temp\ccBmAAlS.s:28198  .debug_str:000000000001d505 .LASF5328
C:\Users\CYMR90~1\AppData\Local\Temp\ccBmAAlS.s:26754  .debug_str:00000000000176e3 .LASF5329
C:\Users\CYMR90~1\AppData\Local\Temp\ccBmAAlS.s:29522  .debug_str:0000000000022555 .LASF5330
C:\Users\CYMR90~1\AppData\Local\Temp\ccBmAAlS.s:20887  .debug_str:00000000000000a6 .LASF5331
C:\Users\CYMR90~1\AppData\Local\Temp\ccBmAAlS.s:28902  .debug_str:000000000002003f .LASF5332
C:\Users\CYMR90~1\AppData\Local\Temp\ccBmAAlS.s:32180  .debug_str:000000000002d017 .LASF5333
C:\Users\CYMR90~1\AppData\Local\Temp\ccBmAAlS.s:28340  .debug_str:000000000001de4e .LASF5334
C:\Users\CYMR90~1\AppData\Local\Temp\ccBmAAlS.s:22353  .debug_str:0000000000005ca2 .LASF5335
C:\Users\CYMR90~1\AppData\Local\Temp\ccBmAAlS.s:21509  .debug_str:0000000000002691 .LASF5336
C:\Users\CYMR90~1\AppData\Local\Temp\ccBmAAlS.s:29136  .debug_str:0000000000020e83 .LASF5337
C:\Users\CYMR90~1\AppData\Local\Temp\ccBmAAlS.s:27404  .debug_str:000000000001a072 .LASF5338
C:\Users\CYMR90~1\AppData\Local\Temp\ccBmAAlS.s:20983  .debug_str:0000000000000635 .LASF5339
C:\Users\CYMR90~1\AppData\Local\Temp\ccBmAAlS.s:25445  .debug_str:000000000001221f .LASF5340
C:\Users\CYMR90~1\AppData\Local\Temp\ccBmAAlS.s:25873  .debug_str:0000000000013d87 .LASF5341
C:\Users\CYMR90~1\AppData\Local\Temp\ccBmAAlS.s:25415  .debug_str:000000000001206e .LASF5342
C:\Users\CYMR90~1\AppData\Local\Temp\ccBmAAlS.s:22475  .debug_str:00000000000063e5 .LASF5343
C:\Users\CYMR90~1\AppData\Local\Temp\ccBmAAlS.s:28638  .debug_str:000000000001f007 .LASF5344
C:\Users\CYMR90~1\AppData\Local\Temp\ccBmAAlS.s:26766  .debug_str:00000000000177c5 .LASF5345
C:\Users\CYMR90~1\AppData\Local\Temp\ccBmAAlS.s:21241  .debug_str:000000000000161b .LASF5346
C:\Users\CYMR90~1\AppData\Local\Temp\ccBmAAlS.s:28858  .debug_str:000000000001fd4f .LASF5347
C:\Users\CYMR90~1\AppData\Local\Temp\ccBmAAlS.s:21589  .debug_str:0000000000002bcb .LASF5348
C:\Users\CYMR90~1\AppData\Local\Temp\ccBmAAlS.s:29782  .debug_str:00000000000234f4 .LASF5349
C:\Users\CYMR90~1\AppData\Local\Temp\ccBmAAlS.s:21195  .debug_str:0000000000001381 .LASF5350
C:\Users\CYMR90~1\AppData\Local\Temp\ccBmAAlS.s:30652  .debug_str:0000000000026ddc .LASF5351
C:\Users\CYMR90~1\AppData\Local\Temp\ccBmAAlS.s:26433  .debug_str:00000000000160ae .LASF5352
C:\Users\CYMR90~1\AppData\Local\Temp\ccBmAAlS.s:21817  .debug_str:0000000000003a2a .LASF5353
C:\Users\CYMR90~1\AppData\Local\Temp\ccBmAAlS.s:23691  .debug_str:000000000000b30b .LASF5354
C:\Users\CYMR90~1\AppData\Local\Temp\ccBmAAlS.s:29942  .debug_str:0000000000023ed1 .LASF5355
C:\Users\CYMR90~1\AppData\Local\Temp\ccBmAAlS.s:22379  .debug_str:0000000000005e1a .LASF5356
C:\Users\CYMR90~1\AppData\Local\Temp\ccBmAAlS.s:30806  .debug_str:0000000000027824 .LASF5357
C:\Users\CYMR90~1\AppData\Local\Temp\ccBmAAlS.s:22957  .debug_str:0000000000008424 .LASF5358
C:\Users\CYMR90~1\AppData\Local\Temp\ccBmAAlS.s:31766  .debug_str:000000000002b4ea .LASF5359
C:\Users\CYMR90~1\AppData\Local\Temp\ccBmAAlS.s:28932  .debug_str:00000000000201ea .LASF5360
C:\Users\CYMR90~1\AppData\Local\Temp\ccBmAAlS.s:27250  .debug_str:0000000000019647 .LASF5361
C:\Users\CYMR90~1\AppData\Local\Temp\ccBmAAlS.s:21119  .debug_str:0000000000000f4b .LASF5362
C:\Users\CYMR90~1\AppData\Local\Temp\ccBmAAlS.s:28766  .debug_str:000000000001f7cd .LASF5363
C:\Users\CYMR90~1\AppData\Local\Temp\ccBmAAlS.s:22329  .debug_str:0000000000005b28 .LASF5364
C:\Users\CYMR90~1\AppData\Local\Temp\ccBmAAlS.s:31734  .debug_str:000000000002b2b5 .LASF5365
C:\Users\CYMR90~1\AppData\Local\Temp\ccBmAAlS.s:26499  .debug_str:0000000000016496 .LASF5366
C:\Users\CYMR90~1\AppData\Local\Temp\ccBmAAlS.s:26295  .debug_str:00000000000157b0 .LASF5367
C:\Users\CYMR90~1\AppData\Local\Temp\ccBmAAlS.s:27320  .debug_str:0000000000019b7b .LASF5368
C:\Users\CYMR90~1\AppData\Local\Temp\ccBmAAlS.s:23751  .debug_str:000000000000b6ee .LASF5369
C:\Users\CYMR90~1\AppData\Local\Temp\ccBmAAlS.s:30102  .debug_str:0000000000024a14 .LASF5370
C:\Users\CYMR90~1\AppData\Local\Temp\ccBmAAlS.s:31712  .debug_str:000000000002b175 .LASF5371
C:\Users\CYMR90~1\AppData\Local\Temp\ccBmAAlS.s:21865  .debug_str:0000000000003d29 .LASF5372
C:\Users\CYMR90~1\AppData\Local\Temp\ccBmAAlS.s:28558  .debug_str:000000000001eb81 .LASF5373
C:\Users\CYMR90~1\AppData\Local\Temp\ccBmAAlS.s:27830  .debug_str:000000000001bc0b .LASF5374
C:\Users\CYMR90~1\AppData\Local\Temp\ccBmAAlS.s:25635  .debug_str:0000000000012e94 .LASF5375
C:\Users\CYMR90~1\AppData\Local\Temp\ccBmAAlS.s:24679  .debug_str:000000000000f15b .LASF5376
C:\Users\CYMR90~1\AppData\Local\Temp\ccBmAAlS.s:29346  .debug_str:0000000000021b53 .LASF5377
C:\Users\CYMR90~1\AppData\Local\Temp\ccBmAAlS.s:23287  .debug_str:0000000000009866 .LASF5378
C:\Users\CYMR90~1\AppData\Local\Temp\ccBmAAlS.s:23951  .debug_str:000000000000c461 .LASF5379
C:\Users\CYMR90~1\AppData\Local\Temp\ccBmAAlS.s:31170  .debug_str:0000000000029033 .LASF5380
C:\Users\CYMR90~1\AppData\Local\Temp\ccBmAAlS.s:21695  .debug_str:000000000000323c .LASF5381
C:\Users\CYMR90~1\AppData\Local\Temp\ccBmAAlS.s:29298  .debug_str:0000000000021885 .LASF5382
C:\Users\CYMR90~1\AppData\Local\Temp\ccBmAAlS.s:32080  .debug_str:000000000002c93a .LASF5383
C:\Users\CYMR90~1\AppData\Local\Temp\ccBmAAlS.s:28534  .debug_str:000000000001ea1f .LASF5384
C:\Users\CYMR90~1\AppData\Local\Temp\ccBmAAlS.s:31424  .debug_str:000000000002a02a .LASF5385
C:\Users\CYMR90~1\AppData\Local\Temp\ccBmAAlS.s:26373  .debug_str:0000000000015c95 .LASF5386
C:\Users\CYMR90~1\AppData\Local\Temp\ccBmAAlS.s:28470  .debug_str:000000000001e629 .LASF5387
C:\Users\CYMR90~1\AppData\Local\Temp\ccBmAAlS.s:24745  .debug_str:000000000000f553 .LASF5388
C:\Users\CYMR90~1\AppData\Local\Temp\ccBmAAlS.s:24733  .debug_str:000000000000f4a6 .LASF5389
C:\Users\CYMR90~1\AppData\Local\Temp\ccBmAAlS.s:28838  .debug_str:000000000001fc1f .LASF5390
C:\Users\CYMR90~1\AppData\Local\Temp\ccBmAAlS.s:30544  .debug_str:000000000002677a .LASF5391
C:\Users\CYMR90~1\AppData\Local\Temp\ccBmAAlS.s:21271  .debug_str:00000000000018a2 .LASF5392
C:\Users\CYMR90~1\AppData\Local\Temp\ccBmAAlS.s:27264  .debug_str:0000000000019730 .LASF5393
C:\Users\CYMR90~1\AppData\Local\Temp\ccBmAAlS.s:21077  .debug_str:0000000000000c5e .LASF5394
C:\Users\CYMR90~1\AppData\Local\Temp\ccBmAAlS.s:25885  .debug_str:0000000000013e41 .LASF5395
C:\Users\CYMR90~1\AppData\Local\Temp\ccBmAAlS.s:21385  .debug_str:0000000000001f7e .LASF5396
C:\Users\CYMR90~1\AppData\Local\Temp\ccBmAAlS.s:21717  .debug_str:00000000000033c5 .LASF5397
C:\Users\CYMR90~1\AppData\Local\Temp\ccBmAAlS.s:24483  .debug_str:000000000000e56d .LASF5398
C:\Users\CYMR90~1\AppData\Local\Temp\ccBmAAlS.s:25221  .debug_str:00000000000112d9 .LASF5399
C:\Users\CYMR90~1\AppData\Local\Temp\ccBmAAlS.s:23625  .debug_str:000000000000ae42 .LASF5400
C:\Users\CYMR90~1\AppData\Local\Temp\ccBmAAlS.s:21913  .debug_str:0000000000004065 .LASF5401
C:\Users\CYMR90~1\AppData\Local\Temp\ccBmAAlS.s:31822  .debug_str:000000000002b869 .LASF5402
C:\Users\CYMR90~1\AppData\Local\Temp\ccBmAAlS.s:23455  .debug_str:000000000000a30d .LASF5403
C:\Users\CYMR90~1\AppData\Local\Temp\ccBmAAlS.s:29082  .debug_str:0000000000020b34 .LASF5404
C:\Users\CYMR90~1\AppData\Local\Temp\ccBmAAlS.s:29776  .debug_str:000000000002349e .LASF5405
C:\Users\CYMR90~1\AppData\Local\Temp\ccBmAAlS.s:31858  .debug_str:000000000002bb02 .LASF5406
C:\Users\CYMR90~1\AppData\Local\Temp\ccBmAAlS.s:21177  .debug_str:000000000000128d .LASF5407
C:\Users\CYMR90~1\AppData\Local\Temp\ccBmAAlS.s:26646  .debug_str:0000000000017095 .LASF5408
C:\Users\CYMR90~1\AppData\Local\Temp\ccBmAAlS.s:29418  .debug_str:0000000000021fb5 .LASF5409
C:\Users\CYMR90~1\AppData\Local\Temp\ccBmAAlS.s:28342  .debug_str:000000000001de70 .LASF5410
C:\Users\CYMR90~1\AppData\Local\Temp\ccBmAAlS.s:31658  .debug_str:000000000002adfc .LASF5411
C:\Users\CYMR90~1\AppData\Local\Temp\ccBmAAlS.s:21357  .debug_str:0000000000001dd1 .LASF5412
C:\Users\CYMR90~1\AppData\Local\Temp\ccBmAAlS.s:27988  .debug_str:000000000001c5c4 .LASF5413
C:\Users\CYMR90~1\AppData\Local\Temp\ccBmAAlS.s:24359  .debug_str:000000000000de2e .LASF5414
C:\Users\CYMR90~1\AppData\Local\Temp\ccBmAAlS.s:25921  .debug_str:00000000000140a2 .LASF5415
C:\Users\CYMR90~1\AppData\Local\Temp\ccBmAAlS.s:31038  .debug_str:000000000002881f .LASF5416
C:\Users\CYMR90~1\AppData\Local\Temp\ccBmAAlS.s:31974  .debug_str:000000000002c265 .LASF5417
C:\Users\CYMR90~1\AppData\Local\Temp\ccBmAAlS.s:23929  .debug_str:000000000000c303 .LASF5418
C:\Users\CYMR90~1\AppData\Local\Temp\ccBmAAlS.s:24919  .debug_str:0000000000010096 .LASF5419
C:\Users\CYMR90~1\AppData\Local\Temp\ccBmAAlS.s:22851  .debug_str:0000000000007c1a .LASF5420
C:\Users\CYMR90~1\AppData\Local\Temp\ccBmAAlS.s:29442  .debug_str:0000000000022111 .LASF5421
C:\Users\CYMR90~1\AppData\Local\Temp\ccBmAAlS.s:28736  .debug_str:000000000001f60e .LASF5422
C:\Users\CYMR90~1\AppData\Local\Temp\ccBmAAlS.s:27810  .debug_str:000000000001ba99 .LASF5423
C:\Users\CYMR90~1\AppData\Local\Temp\ccBmAAlS.s:32098  .debug_str:000000000002ca8d .LASF5424
C:\Users\CYMR90~1\AppData\Local\Temp\ccBmAAlS.s:26800  .debug_str:0000000000017a18 .LASF5425
C:\Users\CYMR90~1\AppData\Local\Temp\ccBmAAlS.s:29462  .debug_str:000000000002223f .LASF5426
C:\Users\CYMR90~1\AppData\Local\Temp\ccBmAAlS.s:23811  .debug_str:000000000000bb11 .LASF5427
C:\Users\CYMR90~1\AppData\Local\Temp\ccBmAAlS.s:27022  .debug_str:000000000001871a .LASF5428
C:\Users\CYMR90~1\AppData\Local\Temp\ccBmAAlS.s:25877  .debug_str:0000000000013db8 .LASF5429
C:\Users\CYMR90~1\AppData\Local\Temp\ccBmAAlS.s:28628  .debug_str:000000000001ef51 .LASF5430
C:\Users\CYMR90~1\AppData\Local\Temp\ccBmAAlS.s:24147  .debug_str:000000000000d0e7 .LASF5431
C:\Users\CYMR90~1\AppData\Local\Temp\ccBmAAlS.s:31482  .debug_str:000000000002a374 .LASF5432
C:\Users\CYMR90~1\AppData\Local\Temp\ccBmAAlS.s:23341  .debug_str:0000000000009c04 .LASF5433
C:\Users\CYMR90~1\AppData\Local\Temp\ccBmAAlS.s:28942  .debug_str:000000000002027e .LASF5434
C:\Users\CYMR90~1\AppData\Local\Temp\ccBmAAlS.s:29704  .debug_str:00000000000230a1 .LASF5435
C:\Users\CYMR90~1\AppData\Local\Temp\ccBmAAlS.s:25295  .debug_str:0000000000011850 .LASF5436
C:\Users\CYMR90~1\AppData\Local\Temp\ccBmAAlS.s:23201  .debug_str:0000000000009330 .LASF5437
C:\Users\CYMR90~1\AppData\Local\Temp\ccBmAAlS.s:22783  .debug_str:0000000000007788 .LASF5438
C:\Users\CYMR90~1\AppData\Local\Temp\ccBmAAlS.s:28280  .debug_str:000000000001da3c .LASF5439
C:\Users\CYMR90~1\AppData\Local\Temp\ccBmAAlS.s:32012  .debug_str:000000000002c4de .LASF5440
C:\Users\CYMR90~1\AppData\Local\Temp\ccBmAAlS.s:31744  .debug_str:000000000002b34a .LASF5441
C:\Users\CYMR90~1\AppData\Local\Temp\ccBmAAlS.s:28978  .debug_str:00000000000204c6 .LASF5442
C:\Users\CYMR90~1\AppData\Local\Temp\ccBmAAlS.s:31950  .debug_str:000000000002c125 .LASF5443
C:\Users\CYMR90~1\AppData\Local\Temp\ccBmAAlS.s:28612  .debug_str:000000000001ee7b .LASF5444
C:\Users\CYMR90~1\AppData\Local\Temp\ccBmAAlS.s:29750  .debug_str:000000000002330a .LASF5445
C:\Users\CYMR90~1\AppData\Local\Temp\ccBmAAlS.s:21169  .debug_str:0000000000001225 .LASF5446
C:\Users\CYMR90~1\AppData\Local\Temp\ccBmAAlS.s:28054  .debug_str:000000000001cae9 .LASF5447
C:\Users\CYMR90~1\AppData\Local\Temp\ccBmAAlS.s:21783  .debug_str:00000000000037ec .LASF5448
C:\Users\CYMR90~1\AppData\Local\Temp\ccBmAAlS.s:29350  .debug_str:0000000000021ba6 .LASF5449
C:\Users\CYMR90~1\AppData\Local\Temp\ccBmAAlS.s:29934  .debug_str:0000000000023e71 .LASF5450
C:\Users\CYMR90~1\AppData\Local\Temp\ccBmAAlS.s:30236  .debug_str:0000000000025380 .LASF5451
C:\Users\CYMR90~1\AppData\Local\Temp\ccBmAAlS.s:29068  .debug_str:0000000000020a8e .LASF5452
C:\Users\CYMR90~1\AppData\Local\Temp\ccBmAAlS.s:26329  .debug_str:00000000000159c5 .LASF5453
C:\Users\CYMR90~1\AppData\Local\Temp\ccBmAAlS.s:27812  .debug_str:000000000001babe .LASF5454
C:\Users\CYMR90~1\AppData\Local\Temp\ccBmAAlS.s:26790  .debug_str:000000000001796e .LASF5455
C:\Users\CYMR90~1\AppData\Local\Temp\ccBmAAlS.s:28962  .debug_str:0000000000020389 .LASF5456
C:\Users\CYMR90~1\AppData\Local\Temp\ccBmAAlS.s:22747  .debug_str:0000000000007565 .LASF5457
C:\Users\CYMR90~1\AppData\Local\Temp\ccBmAAlS.s:26357  .debug_str:0000000000015b4a .LASF5458
C:\Users\CYMR90~1\AppData\Local\Temp\ccBmAAlS.s:31108  .debug_str:0000000000028cb8 .LASF5459
C:\Users\CYMR90~1\AppData\Local\Temp\ccBmAAlS.s:21069  .debug_str:0000000000000bf5 .LASF5460
C:\Users\CYMR90~1\AppData\Local\Temp\ccBmAAlS.s:25915  .debug_str:0000000000014026 .LASF5461
C:\Users\CYMR90~1\AppData\Local\Temp\ccBmAAlS.s:26211  .debug_str:00000000000152f6 .LASF5462
C:\Users\CYMR90~1\AppData\Local\Temp\ccBmAAlS.s:23297  .debug_str:0000000000009902 .LASF5463
C:\Users\CYMR90~1\AppData\Local\Temp\ccBmAAlS.s:27680  .debug_str:000000000001b357 .LASF5464
C:\Users\CYMR90~1\AppData\Local\Temp\ccBmAAlS.s:30504  .debug_str:00000000000264ff .LASF5465
C:\Users\CYMR90~1\AppData\Local\Temp\ccBmAAlS.s:27700  .debug_str:000000000001b491 .LASF5466
C:\Users\CYMR90~1\AppData\Local\Temp\ccBmAAlS.s:25655  .debug_str:0000000000012fdc .LASF5467
C:\Users\CYMR90~1\AppData\Local\Temp\ccBmAAlS.s:30188  .debug_str:0000000000024f81 .LASF5468
C:\Users\CYMR90~1\AppData\Local\Temp\ccBmAAlS.s:30942  .debug_str:00000000000280d6 .LASF5469
C:\Users\CYMR90~1\AppData\Local\Temp\ccBmAAlS.s:25799  .debug_str:0000000000013928 .LASF5470
C:\Users\CYMR90~1\AppData\Local\Temp\ccBmAAlS.s:25687  .debug_str:00000000000131de .LASF5471
C:\Users\CYMR90~1\AppData\Local\Temp\ccBmAAlS.s:28204  .debug_str:000000000001d555 .LASF5472
C:\Users\CYMR90~1\AppData\Local\Temp\ccBmAAlS.s:26233  .debug_str:000000000001542f .LASF5473
C:\Users\CYMR90~1\AppData\Local\Temp\ccBmAAlS.s:32136  .debug_str:000000000002cd08 .LASF5474
C:\Users\CYMR90~1\AppData\Local\Temp\ccBmAAlS.s:22769  .debug_str:00000000000076a5 .LASF5475
C:\Users\CYMR90~1\AppData\Local\Temp\ccBmAAlS.s:21879  .debug_str:0000000000003e1f .LASF5476
C:\Users\CYMR90~1\AppData\Local\Temp\ccBmAAlS.s:31656  .debug_str:000000000002ade0 .LASF5477
C:\Users\CYMR90~1\AppData\Local\Temp\ccBmAAlS.s:23661  .debug_str:000000000000b14c .LASF5478
C:\Users\CYMR90~1\AppData\Local\Temp\ccBmAAlS.s:31212  .debug_str:00000000000292de .LASF5479
C:\Users\CYMR90~1\AppData\Local\Temp\ccBmAAlS.s:22151  .debug_str:000000000000506d .LASF5480
C:\Users\CYMR90~1\AppData\Local\Temp\ccBmAAlS.s:30700  .debug_str:0000000000027112 .LASF5481
C:\Users\CYMR90~1\AppData\Local\Temp\ccBmAAlS.s:30746  .debug_str:0000000000027473 .LASF5482
C:\Users\CYMR90~1\AppData\Local\Temp\ccBmAAlS.s:23757  .debug_str:000000000000b759 .LASF5483
C:\Users\CYMR90~1\AppData\Local\Temp\ccBmAAlS.s:24187  .debug_str:000000000000d39b .LASF5484
C:\Users\CYMR90~1\AppData\Local\Temp\ccBmAAlS.s:25401  .debug_str:0000000000011f49 .LASF5485
C:\Users\CYMR90~1\AppData\Local\Temp\ccBmAAlS.s:31304  .debug_str:000000000002990c .LASF5486
C:\Users\CYMR90~1\AppData\Local\Temp\ccBmAAlS.s:29816  .debug_str:0000000000023754 .LASF5487
C:\Users\CYMR90~1\AppData\Local\Temp\ccBmAAlS.s:24439  .debug_str:000000000000e2e7 .LASF5488
C:\Users\CYMR90~1\AppData\Local\Temp\ccBmAAlS.s:32166  .debug_str:000000000002cf27 .LASF5489
C:\Users\CYMR90~1\AppData\Local\Temp\ccBmAAlS.s:22131  .debug_str:0000000000004f37 .LASF5490
C:\Users\CYMR90~1\AppData\Local\Temp\ccBmAAlS.s:29912  .debug_str:0000000000023d28 .LASF5491
C:\Users\CYMR90~1\AppData\Local\Temp\ccBmAAlS.s:22755  .debug_str:00000000000075c8 .LASF5492
C:\Users\CYMR90~1\AppData\Local\Temp\ccBmAAlS.s:31258  .debug_str:00000000000295f5 .LASF5493
C:\Users\CYMR90~1\AppData\Local\Temp\ccBmAAlS.s:21889  .debug_str:0000000000003ea4 .LASF5494
C:\Users\CYMR90~1\AppData\Local\Temp\ccBmAAlS.s:22983  .debug_str:00000000000085ef .LASF5495
C:\Users\CYMR90~1\AppData\Local\Temp\ccBmAAlS.s:26243  .debug_str:00000000000154c1 .LASF5496
C:\Users\CYMR90~1\AppData\Local\Temp\ccBmAAlS.s:31676  .debug_str:000000000002af54 .LASF5497
C:\Users\CYMR90~1\AppData\Local\Temp\ccBmAAlS.s:30430  .debug_str:000000000002604e .LASF5498
C:\Users\CYMR90~1\AppData\Local\Temp\ccBmAAlS.s:21269  .debug_str:000000000000187c .LASF5499
C:\Users\CYMR90~1\AppData\Local\Temp\ccBmAAlS.s:25753  .debug_str:0000000000013677 .LASF5500
C:\Users\CYMR90~1\AppData\Local\Temp\ccBmAAlS.s:26113  .debug_str:0000000000014c98 .LASF5501
C:\Users\CYMR90~1\AppData\Local\Temp\ccBmAAlS.s:28714  .debug_str:000000000001f4c5 .LASF5502
C:\Users\CYMR90~1\AppData\Local\Temp\ccBmAAlS.s:29842  .debug_str:000000000002390f .LASF5503
C:\Users\CYMR90~1\AppData\Local\Temp\ccBmAAlS.s:30216  .debug_str:00000000000251b4 .LASF5504
C:\Users\CYMR90~1\AppData\Local\Temp\ccBmAAlS.s:27026  .debug_str:0000000000018766 .LASF5505
C:\Users\CYMR90~1\AppData\Local\Temp\ccBmAAlS.s:25139  .debug_str:0000000000010e04 .LASF5506
C:\Users\CYMR90~1\AppData\Local\Temp\ccBmAAlS.s:23731  .debug_str:000000000000b51c .LASF5507
C:\Users\CYMR90~1\AppData\Local\Temp\ccBmAAlS.s:26892  .debug_str:0000000000017f6b .LASF5508
C:\Users\CYMR90~1\AppData\Local\Temp\ccBmAAlS.s:21201  .debug_str:00000000000013fe .LASF5509
C:\Users\CYMR90~1\AppData\Local\Temp\ccBmAAlS.s:27974  .debug_str:000000000001c4fe .LASF5510
C:\Users\CYMR90~1\AppData\Local\Temp\ccBmAAlS.s:28028  .debug_str:000000000001c935 .LASF5511
C:\Users\CYMR90~1\AppData\Local\Temp\ccBmAAlS.s:25917  .debug_str:000000000001403e .LASF5512
C:\Users\CYMR90~1\AppData\Local\Temp\ccBmAAlS.s:22225  .debug_str:00000000000054bd .LASF5513
C:\Users\CYMR90~1\AppData\Local\Temp\ccBmAAlS.s:27598  .debug_str:000000000001adbe .LASF5514
C:\Users\CYMR90~1\AppData\Local\Temp\ccBmAAlS.s:21801  .debug_str:000000000000392d .LASF5515
C:\Users\CYMR90~1\AppData\Local\Temp\ccBmAAlS.s:30350  .debug_str:0000000000025b9f .LASF5516
C:\Users\CYMR90~1\AppData\Local\Temp\ccBmAAlS.s:29290  .debug_str:00000000000217e4 .LASF5517
C:\Users\CYMR90~1\AppData\Local\Temp\ccBmAAlS.s:24939  .debug_str:00000000000101c3 .LASF5518
C:\Users\CYMR90~1\AppData\Local\Temp\ccBmAAlS.s:22501  .debug_str:000000000000656a .LASF5519
C:\Users\CYMR90~1\AppData\Local\Temp\ccBmAAlS.s:26011  .debug_str:000000000001462f .LASF5520
C:\Users\CYMR90~1\AppData\Local\Temp\ccBmAAlS.s:27904  .debug_str:000000000001c0e0 .LASF5521
C:\Users\CYMR90~1\AppData\Local\Temp\ccBmAAlS.s:28148  .debug_str:000000000001d1f3 .LASF5522
C:\Users\CYMR90~1\AppData\Local\Temp\ccBmAAlS.s:25689  .debug_str:00000000000131fc .LASF5523
C:\Users\CYMR90~1\AppData\Local\Temp\ccBmAAlS.s:30036  .debug_str:00000000000245a3 .LASF5524
C:\Users\CYMR90~1\AppData\Local\Temp\ccBmAAlS.s:28036  .debug_str:000000000001c9c1 .LASF5525
C:\Users\CYMR90~1\AppData\Local\Temp\ccBmAAlS.s:23379  .debug_str:0000000000009e4b .LASF5526
C:\Users\CYMR90~1\AppData\Local\Temp\ccBmAAlS.s:27268  .debug_str:000000000001978f .LASF5527
C:\Users\CYMR90~1\AppData\Local\Temp\ccBmAAlS.s:23397  .debug_str:0000000000009f49 .LASF5528
C:\Users\CYMR90~1\AppData\Local\Temp\ccBmAAlS.s:28626  .debug_str:000000000001ef33 .LASF5529
C:\Users\CYMR90~1\AppData\Local\Temp\ccBmAAlS.s:27080  .debug_str:0000000000018ab0 .LASF5530
C:\Users\CYMR90~1\AppData\Local\Temp\ccBmAAlS.s:22647  .debug_str:0000000000006ee7 .LASF5531
C:\Users\CYMR90~1\AppData\Local\Temp\ccBmAAlS.s:27854  .debug_str:000000000001bd90 .LASF5532
C:\Users\CYMR90~1\AppData\Local\Temp\ccBmAAlS.s:21867  .debug_str:0000000000003d60 .LASF5533
C:\Users\CYMR90~1\AppData\Local\Temp\ccBmAAlS.s:23645  .debug_str:000000000000afbb .LASF5534
C:\Users\CYMR90~1\AppData\Local\Temp\ccBmAAlS.s:27198  .debug_str:0000000000019341 .LASF5535
C:\Users\CYMR90~1\AppData\Local\Temp\ccBmAAlS.s:30378  .debug_str:0000000000025d52 .LASF5536
C:\Users\CYMR90~1\AppData\Local\Temp\ccBmAAlS.s:26587  .debug_str:0000000000016b55 .LASF5537
C:\Users\CYMR90~1\AppData\Local\Temp\ccBmAAlS.s:28388  .debug_str:000000000001e11c .LASF5538
C:\Users\CYMR90~1\AppData\Local\Temp\ccBmAAlS.s:28290  .debug_str:000000000001dad1 .LASF5539
C:\Users\CYMR90~1\AppData\Local\Temp\ccBmAAlS.s:22947  .debug_str:0000000000008376 .LASF5540
C:\Users\CYMR90~1\AppData\Local\Temp\ccBmAAlS.s:24601  .debug_str:000000000000ecf4 .LASF5541
C:\Users\CYMR90~1\AppData\Local\Temp\ccBmAAlS.s:25977  .debug_str:00000000000143ed .LASF5542
C:\Users\CYMR90~1\AppData\Local\Temp\ccBmAAlS.s:22409  .debug_str:0000000000005fd0 .LASF5543
C:\Users\CYMR90~1\AppData\Local\Temp\ccBmAAlS.s:29122  .debug_str:0000000000020dca .LASF5544
C:\Users\CYMR90~1\AppData\Local\Temp\ccBmAAlS.s:21365  .debug_str:0000000000001e64 .LASF5545
C:\Users\CYMR90~1\AppData\Local\Temp\ccBmAAlS.s:31210  .debug_str:00000000000292c0 .LASF5546
C:\Users\CYMR90~1\AppData\Local\Temp\ccBmAAlS.s:27552  .debug_str:000000000001ab24 .LASF5547
C:\Users\CYMR90~1\AppData\Local\Temp\ccBmAAlS.s:22169  .debug_str:000000000000517d .LASF5548
C:\Users\CYMR90~1\AppData\Local\Temp\ccBmAAlS.s:23531  .debug_str:000000000000a7a2 .LASF5549
C:\Users\CYMR90~1\AppData\Local\Temp\ccBmAAlS.s:25651  .debug_str:0000000000012f9d .LASF5550
C:\Users\CYMR90~1\AppData\Local\Temp\ccBmAAlS.s:24209  .debug_str:000000000000d56a .LASF5551
C:\Users\CYMR90~1\AppData\Local\Temp\ccBmAAlS.s:26127  .debug_str:0000000000014d90 .LASF5552
C:\Users\CYMR90~1\AppData\Local\Temp\ccBmAAlS.s:23269  .debug_str:0000000000009770 .LASF5553
C:\Users\CYMR90~1\AppData\Local\Temp\ccBmAAlS.s:30678  .debug_str:0000000000026fa7 .LASF5554
C:\Users\CYMR90~1\AppData\Local\Temp\ccBmAAlS.s:24429  .debug_str:000000000000e239 .LASF5555
                           .group:0000000000000000 wm4.0.10abbef32179bc1260444192115bdf5e
                           .group:0000000000000000 wm4.stddef.h.39.144cf5ddcd53cbfdac30259dc1a6c87f
                           .group:0000000000000000 wm4._newlib_version.h.4.bfdf54b0af045d4a71376ae00f63a22c
                           .group:0000000000000000 wm4.newlib.h.18.08a2ecba46890ca2aa56bbe21686e6c3
                           .group:0000000000000000 wm4.ieeefp.h.202.4f2759f5758fd82153cfbf98692f2ced
                           .group:0000000000000000 wm4.features.h.22.fad1cec3bc7ff06488171438dbdcfd02
                           .group:0000000000000000 wm4.config.h.83.13bbc8852bfac55b724c9822481355b5
                           .group:0000000000000000 wm4._ansi.h.31.de524f58584151836e90d8620a16f8e8
                           .group:0000000000000000 wm4.stdio.h.31.7c0e28c411445f3f9c5b11accf882760
                           .group:0000000000000000 wm4._default_types.h.6.959254cf5f09734ea7516c89e8bb21bd
                           .group:0000000000000000 wm4.stddef.h.155.ba788add86a0e365f264484f110c3c29
                           .group:0000000000000000 wm4.cdefs.h.49.39045112216f6a021dbdffe3bf5accce
                           .group:0000000000000000 wm4.stdarg.h.34.3a23a216c0c293b3d2ea2e89281481e6
                           .group:0000000000000000 wm4._types.h.20.dd0d04dca3800a0d2a6129b87f3adbb2
                           .group:0000000000000000 wm4.stddef.h.155.3588ebfdd1e8c7ede80509bb9c3b8009
                           .group:0000000000000000 wm4._types.h.127.34941de1b2539d59d5cac00e0dd27a45
                           .group:0000000000000000 wm4.reent.h.17.e292bf8b0bec6c96e131a54347145a30
                           .group:0000000000000000 wm4.lock.h.2.c0958401bd0ce484d507ee19aacab817
                           .group:0000000000000000 wm4.reent.h.77.dcd6129ff07fe81bd5636db29abe53b2
                           .group:0000000000000000 wm4.types.h.40.8b6acba56cefbb11746718204edc8f5e
                           .group:0000000000000000 wm4._stdint.h.10.c24fa3af3bc1706662bb5593a907e841
                           .group:0000000000000000 wm4._endian.h.18.1bf9649e8e5bbc91042012680270b9ed
                           .group:0000000000000000 wm4.endian.h.9.49f3a4695c1b61e8a0808de3c4a106cb
                           .group:0000000000000000 wm4._timeval.h.32.bec3221fa7a9bb0bdde696c9c57e47d2
                           .group:0000000000000000 wm4.timespec.h.41.d855182eb0e690443ab8651bcedca6e1
                           .group:0000000000000000 wm4.select.h.19.40cd3f2bfc456b193b790c2754690ebf
                           .group:0000000000000000 wm4.types.h.51.5571ec98f267d17d3c670b7a3ba33afa
                           .group:0000000000000000 wm4.sched.h.22.c60982713a5c428609783c78f9c78d95
                           .group:0000000000000000 wm4._pthreadtypes.h.36.fcee9961c35163dde6267ef772ad1972
                           .group:0000000000000000 wm4.stdio.h.2.4aa87247282eca6c8f36f9de33d8df1a
                           .group:0000000000000000 wm4.stdio.h.81.932d0c162786b883f622b8d05c120c78
                           .group:0000000000000000 wm4.gd32vw55x.h.47.379378190858578060a317909b2c8d8a
                           .group:0000000000000000 wm4._intsup.h.10.48bafbb683905c4daa4565a85aeeb264
                           .group:0000000000000000 wm4.stdint.h.23.d53047a68f4a85177f80b422d52785ed
                           .group:0000000000000000 wm4.nmsis_version.h.19.ffa173da8efb17b1050904994d6f500e
                           .group:0000000000000000 wm4.riscv_bits.h.19.ee94eb3d39937793d4cd0a62363e5d00
                           .group:0000000000000000 wm4.riscv_encoding.h.35.f5d37fad7abbab8278b4bb6f1e32fa65
                           .group:0000000000000000 wm4.nmsis_gcc.h.61.5d70d7598ffc79c3c991d847a574cf23
                           .group:0000000000000000 wm4.core_feature_base.h.20.e99d3e75c26a8f3341d35bf20d0e1d20
                           .group:0000000000000000 wm4.core_feature_fpu.h.19.695f2200274659b530cb97cda749ff4f
                           .group:0000000000000000 wm4.core_feature_dsp.h.19.e8f8d7aa42f197807aefedb6584486cd
                           .group:0000000000000000 wm4.core_compatiable.h.19.5b8282d61b1f6889a82895616b730084
                           .group:0000000000000000 wm4.core_feature_eclic.h.19.e0c091d0cbda79e8b3b031b979ebd5a1
                           .group:0000000000000000 wm4.core_feature_timer.h.19.21a5151282de34c37dfa6d84e262aa54
                           .group:0000000000000000 wm4.system_gd32vw55x.h.32.f1fcb1212d387c35ac955b0e96ada468
                           .group:0000000000000000 wm4.gd32vw55x.h.231.3529c650aff38c9372f7e03177fd2c8a
                           .group:0000000000000000 wm4.gd32vw55x_adc.h.42.ae73acec1704ef509ccecb41a875b50e
                           .group:0000000000000000 wm4.gd32vw55x_cau.h.36.c98428fe1eae7edb4721da5c8078c974
                           .group:0000000000000000 wm4.gd32vw55x_crc.h.37.c58f296814c2300a4b067c08bd88d54e
                           .group:0000000000000000 wm4.gd32vw55x_dbg.h.36.311650c8545549d482ceca8befc5a232
                           .group:0000000000000000 wm4.gd32vw55x_dma.h.36.f4adc751172b2a7b1533dda72e948737
                           .group:0000000000000000 wm4.gd32vw55x_eclic.h.36.0411499f2b2493c67246e32ccae096c1
                           .group:0000000000000000 wm4.gd32vw55x_efuse.h.36.091404cecbab70359dfd93faec5fdb62
                           .group:0000000000000000 wm4.gd32vw55x_exti.h.36.de7508334dd12f1a6a673521a1a835f5
                           .group:0000000000000000 wm4.gd32vw55x_fmc.h.36.a4b0b94c47ffe23a2fa09260c5ed4850
                           .group:0000000000000000 wm4.gd32vw55x_fwdgt.h.36.4846b6900fd24b5bfce4986c9a8ce677
                           .group:0000000000000000 wm4.gd32vw55x_gpio.h.36.adfee1371bb58d3d9043c47bdb25a90f
                           .group:0000000000000000 wm4.gd32vw55x_hau.h.36.f3cbcbd7b67c9e5bdc7a1100b1bf3458
                           .group:0000000000000000 wm4.gd32vw55x_i2c.h.36.3848990933925e084eb427083790c53f
                           .group:0000000000000000 wm4.gd32vw55x_pkcau.h.36.bb2235f4cf4967063a51bfa9aca5ef27
                           .group:0000000000000000 wm4.gd32vw55x_pmu.h.36.4c76091f1415551526d489ccf2c42052
                           .group:0000000000000000 wm4.gd32vw55x_rcu.h.36.780a8a45c00d563711cceb445027ef47
                           .group:0000000000000000 wm4.gd32vw55x_rtc.h.36.3172855e8715659e080e0eab46fdf175
                           .group:0000000000000000 wm4.gd32vw55x_spi.h.36.9fa1be2b09fb73e4b5886e97f0e96d58
                           .group:0000000000000000 wm4.gd32vw55x_syscfg.h.36.010551f05591f5e34051d2e15df0352b
                           .group:0000000000000000 wm4.gd32vw55x_timer.h.38.2cbee78ea60d47145be361b2d2c55070
                           .group:0000000000000000 wm4.gd32vw55x_trng.h.36.c9e7807af1b1ab68d3bbb54f4ed5cd73
                           .group:0000000000000000 wm4.gd32vw55x_usart.h.36.f5c497cca17945a34f154b0e17017d02
                           .group:0000000000000000 wm4.gd32vw55x_wwdgt.h.36.f7a443b7302efc0e5c335888582ee197
                           .group:0000000000000000 wm4.gd32vw55x_qspi.h.41.5a90d3ddf4beb0aa4167e61f121327e8

UNDEFINED SYMBOLS
rcu_periph_reset_enable
rcu_periph_reset_disable
