   1              		.file	"gd32vw55x_exti.c"
   2              		.option nopic
   3              		.attribute arch, "rv32i2p0_m2p0_a2p0_c2p0"
   4              		.attribute unaligned_access, 0
   5              		.attribute stack_align, 16
   6              		.text
   7              	.Ltext0:
   8              		.cfi_sections	.debug_frame
   9              		.section	.text.exti_deinit,"ax",@progbits
  10              		.align	1
  11              		.globl	exti_deinit
  13              	exti_deinit:
  14              	.LFB347:
  15              		.file 1 "../Firmware/GD32VW55x_standard_peripheral/Source/gd32vw55x_exti.c"
   1:../Firmware/GD32VW55x_standard_peripheral/Source/gd32vw55x_exti.c **** /*!
   2:../Firmware/GD32VW55x_standard_peripheral/Source/gd32vw55x_exti.c ****     \file    gd32vw55x_exti.c
   3:../Firmware/GD32VW55x_standard_peripheral/Source/gd32vw55x_exti.c ****     \brief   EXTI driver
   4:../Firmware/GD32VW55x_standard_peripheral/Source/gd32vw55x_exti.c **** 
   5:../Firmware/GD32VW55x_standard_peripheral/Source/gd32vw55x_exti.c ****     \version 2025-01-16, V1.4.0, firmware for GD32VW55x
   6:../Firmware/GD32VW55x_standard_peripheral/Source/gd32vw55x_exti.c **** */
   7:../Firmware/GD32VW55x_standard_peripheral/Source/gd32vw55x_exti.c **** 
   8:../Firmware/GD32VW55x_standard_peripheral/Source/gd32vw55x_exti.c **** /*
   9:../Firmware/GD32VW55x_standard_peripheral/Source/gd32vw55x_exti.c ****     Copyright (c) 2025, GigaDevice Semiconductor Inc.
  10:../Firmware/GD32VW55x_standard_peripheral/Source/gd32vw55x_exti.c **** 
  11:../Firmware/GD32VW55x_standard_peripheral/Source/gd32vw55x_exti.c ****     Redistribution and use in source and binary forms, with or without modification,
  12:../Firmware/GD32VW55x_standard_peripheral/Source/gd32vw55x_exti.c **** are permitted provided that the following conditions are met:
  13:../Firmware/GD32VW55x_standard_peripheral/Source/gd32vw55x_exti.c **** 
  14:../Firmware/GD32VW55x_standard_peripheral/Source/gd32vw55x_exti.c ****     1. Redistributions of source code must retain the above copyright notice, this
  15:../Firmware/GD32VW55x_standard_peripheral/Source/gd32vw55x_exti.c ****        list of conditions and the following disclaimer.
  16:../Firmware/GD32VW55x_standard_peripheral/Source/gd32vw55x_exti.c ****     2. Redistributions in binary form must reproduce the above copyright notice,
  17:../Firmware/GD32VW55x_standard_peripheral/Source/gd32vw55x_exti.c ****        this list of conditions and the following disclaimer in the documentation
  18:../Firmware/GD32VW55x_standard_peripheral/Source/gd32vw55x_exti.c ****        and/or other materials provided with the distribution.
  19:../Firmware/GD32VW55x_standard_peripheral/Source/gd32vw55x_exti.c ****     3. Neither the name of the copyright holder nor the names of its contributors
  20:../Firmware/GD32VW55x_standard_peripheral/Source/gd32vw55x_exti.c ****        may be used to endorse or promote products derived from this software without
  21:../Firmware/GD32VW55x_standard_peripheral/Source/gd32vw55x_exti.c ****        specific prior written permission.
  22:../Firmware/GD32VW55x_standard_peripheral/Source/gd32vw55x_exti.c **** 
  23:../Firmware/GD32VW55x_standard_peripheral/Source/gd32vw55x_exti.c ****     THIS SOFTWARE IS PROVIDED BY THE COPYRIGHT HOLDERS AND CONTRIBUTORS "AS IS"
  24:../Firmware/GD32VW55x_standard_peripheral/Source/gd32vw55x_exti.c **** AND ANY EXPRESS OR IMPLIED WARRANTIES, INCLUDING, BUT NOT LIMITED TO, THE IMPLIED
  25:../Firmware/GD32VW55x_standard_peripheral/Source/gd32vw55x_exti.c **** WARRANTIES OF MERCHANTABILITY AND FITNESS FOR A PARTICULAR PURPOSE ARE DISCLAIMED.
  26:../Firmware/GD32VW55x_standard_peripheral/Source/gd32vw55x_exti.c **** IN NO EVENT SHALL THE COPYRIGHT HOLDER OR CONTRIBUTORS BE LIABLE FOR ANY DIRECT,
  27:../Firmware/GD32VW55x_standard_peripheral/Source/gd32vw55x_exti.c **** INDIRECT, INCIDENTAL, SPECIAL, EXEMPLARY, OR CONSEQUENTIAL DAMAGES (INCLUDING, BUT
  28:../Firmware/GD32VW55x_standard_peripheral/Source/gd32vw55x_exti.c **** NOT LIMITED TO, PROCUREMENT OF SUBSTITUTE GOODS OR SERVICES; LOSS OF USE, DATA, OR
  29:../Firmware/GD32VW55x_standard_peripheral/Source/gd32vw55x_exti.c **** PROFITS; OR BUSINESS INTERRUPTION) HOWEVER CAUSED AND ON ANY THEORY OF LIABILITY,
  30:../Firmware/GD32VW55x_standard_peripheral/Source/gd32vw55x_exti.c **** WHETHER IN CONTRACT, STRICT LIABILITY, OR TORT (INCLUDING NEGLIGENCE OR OTHERWISE)
  31:../Firmware/GD32VW55x_standard_peripheral/Source/gd32vw55x_exti.c **** ARISING IN ANY WAY OUT OF THE USE OF THIS SOFTWARE, EVEN IF ADVISED OF THE POSSIBILITY
  32:../Firmware/GD32VW55x_standard_peripheral/Source/gd32vw55x_exti.c **** OF SUCH DAMAGE.
  33:../Firmware/GD32VW55x_standard_peripheral/Source/gd32vw55x_exti.c **** */
  34:../Firmware/GD32VW55x_standard_peripheral/Source/gd32vw55x_exti.c **** 
  35:../Firmware/GD32VW55x_standard_peripheral/Source/gd32vw55x_exti.c **** #include "gd32vw55x_exti.h"
  36:../Firmware/GD32VW55x_standard_peripheral/Source/gd32vw55x_exti.c **** 
  37:../Firmware/GD32VW55x_standard_peripheral/Source/gd32vw55x_exti.c **** #define EXTI_REG_RESET_VALUE            ((uint32_t)0x00000000U)
  38:../Firmware/GD32VW55x_standard_peripheral/Source/gd32vw55x_exti.c **** 
  39:../Firmware/GD32VW55x_standard_peripheral/Source/gd32vw55x_exti.c **** /*!
  40:../Firmware/GD32VW55x_standard_peripheral/Source/gd32vw55x_exti.c ****     \brief      deinitialize the EXTI
  41:../Firmware/GD32VW55x_standard_peripheral/Source/gd32vw55x_exti.c ****     \param[in]  none
  42:../Firmware/GD32VW55x_standard_peripheral/Source/gd32vw55x_exti.c ****     \param[out] none
  43:../Firmware/GD32VW55x_standard_peripheral/Source/gd32vw55x_exti.c ****     \retval     none
  44:../Firmware/GD32VW55x_standard_peripheral/Source/gd32vw55x_exti.c **** */
  45:../Firmware/GD32VW55x_standard_peripheral/Source/gd32vw55x_exti.c **** void exti_deinit(void)
  46:../Firmware/GD32VW55x_standard_peripheral/Source/gd32vw55x_exti.c **** {
  16              		.loc 1 46 1
  17              		.cfi_startproc
  18 0000 4111     		addi	sp,sp,-16
  19              		.cfi_def_cfa_offset 16
  20 0002 22C6     		sw	s0,12(sp)
  21              		.cfi_offset 8, -4
  22 0004 0008     		addi	s0,sp,16
  23              		.cfi_def_cfa 8, 0
  47:../Firmware/GD32VW55x_standard_peripheral/Source/gd32vw55x_exti.c ****     /* reset the value of all the EXTI registers */
  48:../Firmware/GD32VW55x_standard_peripheral/Source/gd32vw55x_exti.c ****     EXTI_INTEN   = EXTI_REG_RESET_VALUE;
  24              		.loc 1 48 5
  25 0006 B7470140 		li	a5,1073823744
  26 000a 938707C0 		addi	a5,a5,-1024
  27              		.loc 1 48 18
  28 000e 23A00700 		sw	zero,0(a5)
  49:../Firmware/GD32VW55x_standard_peripheral/Source/gd32vw55x_exti.c ****     EXTI_EVEN    = EXTI_REG_RESET_VALUE;
  29              		.loc 1 49 5
  30 0012 B7470140 		li	a5,1073823744
  31 0016 938747C0 		addi	a5,a5,-1020
  32              		.loc 1 49 18
  33 001a 23A00700 		sw	zero,0(a5)
  50:../Firmware/GD32VW55x_standard_peripheral/Source/gd32vw55x_exti.c ****     EXTI_RTEN    = EXTI_REG_RESET_VALUE;
  34              		.loc 1 50 5
  35 001e B7470140 		li	a5,1073823744
  36 0022 938787C0 		addi	a5,a5,-1016
  37              		.loc 1 50 18
  38 0026 23A00700 		sw	zero,0(a5)
  51:../Firmware/GD32VW55x_standard_peripheral/Source/gd32vw55x_exti.c ****     EXTI_FTEN    = EXTI_REG_RESET_VALUE;
  39              		.loc 1 51 5
  40 002a B7470140 		li	a5,1073823744
  41 002e 9387C7C0 		addi	a5,a5,-1012
  42              		.loc 1 51 18
  43 0032 23A00700 		sw	zero,0(a5)
  52:../Firmware/GD32VW55x_standard_peripheral/Source/gd32vw55x_exti.c ****     EXTI_SWIEV   = EXTI_REG_RESET_VALUE;
  44              		.loc 1 52 5
  45 0036 B7470140 		li	a5,1073823744
  46 003a 938707C1 		addi	a5,a5,-1008
  47              		.loc 1 52 18
  48 003e 23A00700 		sw	zero,0(a5)
  53:../Firmware/GD32VW55x_standard_peripheral/Source/gd32vw55x_exti.c **** }
  49              		.loc 1 53 1
  50 0042 0100     		nop
  51 0044 3244     		lw	s0,12(sp)
  52              		.cfi_restore 8
  53              		.cfi_def_cfa 2, 16
  54 0046 4101     		addi	sp,sp,16
  55              		.cfi_def_cfa_offset 0
  56 0048 8280     		jr	ra
  57              		.cfi_endproc
  58              	.LFE347:
  60              		.section	.text.exti_init,"ax",@progbits
  61              		.align	1
  62              		.globl	exti_init
  64              	exti_init:
  65              	.LFB348:
  54:../Firmware/GD32VW55x_standard_peripheral/Source/gd32vw55x_exti.c **** 
  55:../Firmware/GD32VW55x_standard_peripheral/Source/gd32vw55x_exti.c **** /*!
  56:../Firmware/GD32VW55x_standard_peripheral/Source/gd32vw55x_exti.c ****     \brief      initialize the EXTI line x
  57:../Firmware/GD32VW55x_standard_peripheral/Source/gd32vw55x_exti.c ****     \param[in]  linex: EXTI line number, refer to exti_line_enum
  58:../Firmware/GD32VW55x_standard_peripheral/Source/gd32vw55x_exti.c ****                 only one parameter can be selected which is shown as below:
  59:../Firmware/GD32VW55x_standard_peripheral/Source/gd32vw55x_exti.c ****       \arg        EXTI_x (x=0..17,19..25): EXTI line x
  60:../Firmware/GD32VW55x_standard_peripheral/Source/gd32vw55x_exti.c ****     \param[in]  mode: interrupt or event mode, refer to exti_mode_enum
  61:../Firmware/GD32VW55x_standard_peripheral/Source/gd32vw55x_exti.c ****                 only one parameter can be selected which is shown as below:
  62:../Firmware/GD32VW55x_standard_peripheral/Source/gd32vw55x_exti.c ****       \arg        EXTI_INTERRUPT: interrupt mode
  63:../Firmware/GD32VW55x_standard_peripheral/Source/gd32vw55x_exti.c ****       \arg        EXTI_EVENT: event mode
  64:../Firmware/GD32VW55x_standard_peripheral/Source/gd32vw55x_exti.c ****     \param[in]  trig_type: interrupt trigger type, refer to exti_trig_type_enum
  65:../Firmware/GD32VW55x_standard_peripheral/Source/gd32vw55x_exti.c ****                 only one parameter can be selected which is shown as below:
  66:../Firmware/GD32VW55x_standard_peripheral/Source/gd32vw55x_exti.c ****       \arg        EXTI_TRIG_RISING: rising edge trigger
  67:../Firmware/GD32VW55x_standard_peripheral/Source/gd32vw55x_exti.c ****       \arg        EXTI_TRIG_FALLING: falling edge trigger
  68:../Firmware/GD32VW55x_standard_peripheral/Source/gd32vw55x_exti.c ****       \arg        EXTI_TRIG_BOTH: rising and falling edge trigger
  69:../Firmware/GD32VW55x_standard_peripheral/Source/gd32vw55x_exti.c ****       \arg        EXTI_TRIG_NONE: without rising edge or falling edge trigger
  70:../Firmware/GD32VW55x_standard_peripheral/Source/gd32vw55x_exti.c ****     \param[out] none
  71:../Firmware/GD32VW55x_standard_peripheral/Source/gd32vw55x_exti.c ****     \retval     none
  72:../Firmware/GD32VW55x_standard_peripheral/Source/gd32vw55x_exti.c **** */
  73:../Firmware/GD32VW55x_standard_peripheral/Source/gd32vw55x_exti.c **** void exti_init(exti_line_enum linex, exti_mode_enum mode, exti_trig_type_enum trig_type)
  74:../Firmware/GD32VW55x_standard_peripheral/Source/gd32vw55x_exti.c **** {
  66              		.loc 1 74 1
  67              		.cfi_startproc
  68 0000 0111     		addi	sp,sp,-32
  69              		.cfi_def_cfa_offset 32
  70 0002 22CE     		sw	s0,28(sp)
  71              		.cfi_offset 8, -4
  72 0004 0010     		addi	s0,sp,32
  73              		.cfi_def_cfa 8, 0
  74 0006 2326A4FE 		sw	a0,-20(s0)
  75 000a 2324B4FE 		sw	a1,-24(s0)
  76 000e 2322C4FE 		sw	a2,-28(s0)
  75:../Firmware/GD32VW55x_standard_peripheral/Source/gd32vw55x_exti.c ****     /* reset the EXTI line x */
  76:../Firmware/GD32VW55x_standard_peripheral/Source/gd32vw55x_exti.c ****     EXTI_INTEN &= ~(uint32_t)linex;
  77              		.loc 1 76 16
  78 0012 B7470140 		li	a5,1073823744
  79 0016 938707C0 		addi	a5,a5,-1024
  80 001a 9443     		lw	a3,0(a5)
  81              		.loc 1 76 19
  82 001c 8327C4FE 		lw	a5,-20(s0)
  83 0020 13C7F7FF 		not	a4,a5
  84              		.loc 1 76 16
  85 0024 B7470140 		li	a5,1073823744
  86 0028 938707C0 		addi	a5,a5,-1024
  87 002c 758F     		and	a4,a3,a4
  88 002e 98C3     		sw	a4,0(a5)
  77:../Firmware/GD32VW55x_standard_peripheral/Source/gd32vw55x_exti.c ****     EXTI_EVEN &= ~(uint32_t)linex;
  89              		.loc 1 77 15
  90 0030 B7470140 		li	a5,1073823744
  91 0034 938747C0 		addi	a5,a5,-1020
  92 0038 9443     		lw	a3,0(a5)
  93              		.loc 1 77 18
  94 003a 8327C4FE 		lw	a5,-20(s0)
  95 003e 13C7F7FF 		not	a4,a5
  96              		.loc 1 77 15
  97 0042 B7470140 		li	a5,1073823744
  98 0046 938747C0 		addi	a5,a5,-1020
  99 004a 758F     		and	a4,a3,a4
 100 004c 98C3     		sw	a4,0(a5)
  78:../Firmware/GD32VW55x_standard_peripheral/Source/gd32vw55x_exti.c ****     EXTI_RTEN &= ~(uint32_t)linex;
 101              		.loc 1 78 15
 102 004e B7470140 		li	a5,1073823744
 103 0052 938787C0 		addi	a5,a5,-1016
 104 0056 9443     		lw	a3,0(a5)
 105              		.loc 1 78 18
 106 0058 8327C4FE 		lw	a5,-20(s0)
 107 005c 13C7F7FF 		not	a4,a5
 108              		.loc 1 78 15
 109 0060 B7470140 		li	a5,1073823744
 110 0064 938787C0 		addi	a5,a5,-1016
 111 0068 758F     		and	a4,a3,a4
 112 006a 98C3     		sw	a4,0(a5)
  79:../Firmware/GD32VW55x_standard_peripheral/Source/gd32vw55x_exti.c ****     EXTI_FTEN &= ~(uint32_t)linex;
 113              		.loc 1 79 15
 114 006c B7470140 		li	a5,1073823744
 115 0070 9387C7C0 		addi	a5,a5,-1012
 116 0074 9443     		lw	a3,0(a5)
 117              		.loc 1 79 18
 118 0076 8327C4FE 		lw	a5,-20(s0)
 119 007a 13C7F7FF 		not	a4,a5
 120              		.loc 1 79 15
 121 007e B7470140 		li	a5,1073823744
 122 0082 9387C7C0 		addi	a5,a5,-1012
 123 0086 758F     		and	a4,a3,a4
 124 0088 98C3     		sw	a4,0(a5)
  80:../Firmware/GD32VW55x_standard_peripheral/Source/gd32vw55x_exti.c **** 
  81:../Firmware/GD32VW55x_standard_peripheral/Source/gd32vw55x_exti.c ****     /* set the EXTI mode and enable the interrupts or events from EXTI line x */
  82:../Firmware/GD32VW55x_standard_peripheral/Source/gd32vw55x_exti.c ****     switch(mode) {
 125              		.loc 1 82 5
 126 008a 832784FE 		lw	a5,-24(s0)
 127 008e 99C7     		beq	a5,zero,.L3
 128 0090 032784FE 		lw	a4,-24(s0)
 129 0094 8547     		li	a5,1
 130 0096 6301F702 		beq	a4,a5,.L4
  83:../Firmware/GD32VW55x_standard_peripheral/Source/gd32vw55x_exti.c ****     case EXTI_INTERRUPT:
  84:../Firmware/GD32VW55x_standard_peripheral/Source/gd32vw55x_exti.c ****         EXTI_INTEN |= (uint32_t)linex;
  85:../Firmware/GD32VW55x_standard_peripheral/Source/gd32vw55x_exti.c ****         break;
  86:../Firmware/GD32VW55x_standard_peripheral/Source/gd32vw55x_exti.c ****     case EXTI_EVENT:
  87:../Firmware/GD32VW55x_standard_peripheral/Source/gd32vw55x_exti.c ****         EXTI_EVEN |= (uint32_t)linex;
  88:../Firmware/GD32VW55x_standard_peripheral/Source/gd32vw55x_exti.c ****         break;
  89:../Firmware/GD32VW55x_standard_peripheral/Source/gd32vw55x_exti.c ****     default:
  90:../Firmware/GD32VW55x_standard_peripheral/Source/gd32vw55x_exti.c ****         break;
 131              		.loc 1 90 9
 132 009a 2DA8     		j	.L6
 133              	.L3:
  84:../Firmware/GD32VW55x_standard_peripheral/Source/gd32vw55x_exti.c ****         break;
 134              		.loc 1 84 20
 135 009c B7470140 		li	a5,1073823744
 136 00a0 938707C0 		addi	a5,a5,-1024
 137 00a4 9443     		lw	a3,0(a5)
 138 00a6 B7470140 		li	a5,1073823744
 139 00aa 938707C0 		addi	a5,a5,-1024
 140 00ae 0327C4FE 		lw	a4,-20(s0)
 141 00b2 558F     		or	a4,a3,a4
 142 00b4 98C3     		sw	a4,0(a5)
  85:../Firmware/GD32VW55x_standard_peripheral/Source/gd32vw55x_exti.c ****     case EXTI_EVENT:
 143              		.loc 1 85 9
 144 00b6 39A8     		j	.L6
 145              	.L4:
  87:../Firmware/GD32VW55x_standard_peripheral/Source/gd32vw55x_exti.c ****         break;
 146              		.loc 1 87 19
 147 00b8 B7470140 		li	a5,1073823744
 148 00bc 938747C0 		addi	a5,a5,-1020
 149 00c0 9443     		lw	a3,0(a5)
 150 00c2 B7470140 		li	a5,1073823744
 151 00c6 938747C0 		addi	a5,a5,-1020
 152 00ca 0327C4FE 		lw	a4,-20(s0)
 153 00ce 558F     		or	a4,a3,a4
 154 00d0 98C3     		sw	a4,0(a5)
  88:../Firmware/GD32VW55x_standard_peripheral/Source/gd32vw55x_exti.c ****     default:
 155              		.loc 1 88 9
 156 00d2 0100     		nop
 157              	.L6:
  91:../Firmware/GD32VW55x_standard_peripheral/Source/gd32vw55x_exti.c ****     }
  92:../Firmware/GD32VW55x_standard_peripheral/Source/gd32vw55x_exti.c **** 
  93:../Firmware/GD32VW55x_standard_peripheral/Source/gd32vw55x_exti.c ****     /* set the EXTI trigger type */
  94:../Firmware/GD32VW55x_standard_peripheral/Source/gd32vw55x_exti.c ****     switch(trig_type) {
 158              		.loc 1 94 5
 159 00d4 032744FE 		lw	a4,-28(s0)
 160 00d8 8947     		li	a5,2
 161 00da 630AF708 		beq	a4,a5,.L7
 162 00de 032744FE 		lw	a4,-28(s0)
 163 00e2 8947     		li	a5,2
 164 00e4 63E0E70C 		bgtu	a4,a5,.L12
 165 00e8 832744FE 		lw	a5,-28(s0)
 166 00ec 99C7     		beq	a5,zero,.L9
 167 00ee 032744FE 		lw	a4,-28(s0)
 168 00f2 8547     		li	a5,1
 169 00f4 6300F704 		beq	a4,a5,.L10
  95:../Firmware/GD32VW55x_standard_peripheral/Source/gd32vw55x_exti.c ****     case EXTI_TRIG_RISING:
  96:../Firmware/GD32VW55x_standard_peripheral/Source/gd32vw55x_exti.c ****         EXTI_RTEN |= (uint32_t)linex;
  97:../Firmware/GD32VW55x_standard_peripheral/Source/gd32vw55x_exti.c ****         EXTI_FTEN &= ~(uint32_t)linex;
  98:../Firmware/GD32VW55x_standard_peripheral/Source/gd32vw55x_exti.c ****         break;
  99:../Firmware/GD32VW55x_standard_peripheral/Source/gd32vw55x_exti.c ****     case EXTI_TRIG_FALLING:
 100:../Firmware/GD32VW55x_standard_peripheral/Source/gd32vw55x_exti.c ****         EXTI_RTEN &= ~(uint32_t)linex;
 101:../Firmware/GD32VW55x_standard_peripheral/Source/gd32vw55x_exti.c ****         EXTI_FTEN |= (uint32_t)linex;
 102:../Firmware/GD32VW55x_standard_peripheral/Source/gd32vw55x_exti.c ****         break;
 103:../Firmware/GD32VW55x_standard_peripheral/Source/gd32vw55x_exti.c ****     case EXTI_TRIG_BOTH:
 104:../Firmware/GD32VW55x_standard_peripheral/Source/gd32vw55x_exti.c ****         EXTI_RTEN |= (uint32_t)linex;
 105:../Firmware/GD32VW55x_standard_peripheral/Source/gd32vw55x_exti.c ****         EXTI_FTEN |= (uint32_t)linex;
 106:../Firmware/GD32VW55x_standard_peripheral/Source/gd32vw55x_exti.c ****         break;
 107:../Firmware/GD32VW55x_standard_peripheral/Source/gd32vw55x_exti.c ****     case EXTI_TRIG_NONE:
 108:../Firmware/GD32VW55x_standard_peripheral/Source/gd32vw55x_exti.c ****     default:
 109:../Firmware/GD32VW55x_standard_peripheral/Source/gd32vw55x_exti.c ****         break;
 170              		.loc 1 109 9
 171 00f8 75A0     		j	.L12
 172              	.L9:
  96:../Firmware/GD32VW55x_standard_peripheral/Source/gd32vw55x_exti.c ****         EXTI_FTEN &= ~(uint32_t)linex;
 173              		.loc 1 96 19
 174 00fa B7470140 		li	a5,1073823744
 175 00fe 938787C0 		addi	a5,a5,-1016
 176 0102 9443     		lw	a3,0(a5)
 177 0104 B7470140 		li	a5,1073823744
 178 0108 938787C0 		addi	a5,a5,-1016
 179 010c 0327C4FE 		lw	a4,-20(s0)
 180 0110 558F     		or	a4,a3,a4
 181 0112 98C3     		sw	a4,0(a5)
  97:../Firmware/GD32VW55x_standard_peripheral/Source/gd32vw55x_exti.c ****         break;
 182              		.loc 1 97 19
 183 0114 B7470140 		li	a5,1073823744
 184 0118 9387C7C0 		addi	a5,a5,-1012
 185 011c 9443     		lw	a3,0(a5)
  97:../Firmware/GD32VW55x_standard_peripheral/Source/gd32vw55x_exti.c ****         break;
 186              		.loc 1 97 22
 187 011e 8327C4FE 		lw	a5,-20(s0)
 188 0122 13C7F7FF 		not	a4,a5
  97:../Firmware/GD32VW55x_standard_peripheral/Source/gd32vw55x_exti.c ****         break;
 189              		.loc 1 97 19
 190 0126 B7470140 		li	a5,1073823744
 191 012a 9387C7C0 		addi	a5,a5,-1012
 192 012e 758F     		and	a4,a3,a4
 193 0130 98C3     		sw	a4,0(a5)
  98:../Firmware/GD32VW55x_standard_peripheral/Source/gd32vw55x_exti.c ****     case EXTI_TRIG_FALLING:
 194              		.loc 1 98 9
 195 0132 95A8     		j	.L11
 196              	.L10:
 100:../Firmware/GD32VW55x_standard_peripheral/Source/gd32vw55x_exti.c ****         EXTI_FTEN |= (uint32_t)linex;
 197              		.loc 1 100 19
 198 0134 B7470140 		li	a5,1073823744
 199 0138 938787C0 		addi	a5,a5,-1016
 200 013c 9443     		lw	a3,0(a5)
 100:../Firmware/GD32VW55x_standard_peripheral/Source/gd32vw55x_exti.c ****         EXTI_FTEN |= (uint32_t)linex;
 201              		.loc 1 100 22
 202 013e 8327C4FE 		lw	a5,-20(s0)
 203 0142 13C7F7FF 		not	a4,a5
 100:../Firmware/GD32VW55x_standard_peripheral/Source/gd32vw55x_exti.c ****         EXTI_FTEN |= (uint32_t)linex;
 204              		.loc 1 100 19
 205 0146 B7470140 		li	a5,1073823744
 206 014a 938787C0 		addi	a5,a5,-1016
 207 014e 758F     		and	a4,a3,a4
 208 0150 98C3     		sw	a4,0(a5)
 101:../Firmware/GD32VW55x_standard_peripheral/Source/gd32vw55x_exti.c ****         break;
 209              		.loc 1 101 19
 210 0152 B7470140 		li	a5,1073823744
 211 0156 9387C7C0 		addi	a5,a5,-1012
 212 015a 9443     		lw	a3,0(a5)
 213 015c B7470140 		li	a5,1073823744
 214 0160 9387C7C0 		addi	a5,a5,-1012
 215 0164 0327C4FE 		lw	a4,-20(s0)
 216 0168 558F     		or	a4,a3,a4
 217 016a 98C3     		sw	a4,0(a5)
 102:../Firmware/GD32VW55x_standard_peripheral/Source/gd32vw55x_exti.c ****     case EXTI_TRIG_BOTH:
 218              		.loc 1 102 9
 219 016c 2DA8     		j	.L11
 220              	.L7:
 104:../Firmware/GD32VW55x_standard_peripheral/Source/gd32vw55x_exti.c ****         EXTI_FTEN |= (uint32_t)linex;
 221              		.loc 1 104 19
 222 016e B7470140 		li	a5,1073823744
 223 0172 938787C0 		addi	a5,a5,-1016
 224 0176 9443     		lw	a3,0(a5)
 225 0178 B7470140 		li	a5,1073823744
 226 017c 938787C0 		addi	a5,a5,-1016
 227 0180 0327C4FE 		lw	a4,-20(s0)
 228 0184 558F     		or	a4,a3,a4
 229 0186 98C3     		sw	a4,0(a5)
 105:../Firmware/GD32VW55x_standard_peripheral/Source/gd32vw55x_exti.c ****         break;
 230              		.loc 1 105 19
 231 0188 B7470140 		li	a5,1073823744
 232 018c 9387C7C0 		addi	a5,a5,-1012
 233 0190 9443     		lw	a3,0(a5)
 234 0192 B7470140 		li	a5,1073823744
 235 0196 9387C7C0 		addi	a5,a5,-1012
 236 019a 0327C4FE 		lw	a4,-20(s0)
 237 019e 558F     		or	a4,a3,a4
 238 01a0 98C3     		sw	a4,0(a5)
 106:../Firmware/GD32VW55x_standard_peripheral/Source/gd32vw55x_exti.c ****     case EXTI_TRIG_NONE:
 239              		.loc 1 106 9
 240 01a2 11A0     		j	.L11
 241              	.L12:
 242              		.loc 1 109 9
 243 01a4 0100     		nop
 244              	.L11:
 110:../Firmware/GD32VW55x_standard_peripheral/Source/gd32vw55x_exti.c ****     }
 111:../Firmware/GD32VW55x_standard_peripheral/Source/gd32vw55x_exti.c **** }
 245              		.loc 1 111 1
 246 01a6 0100     		nop
 247 01a8 7244     		lw	s0,28(sp)
 248              		.cfi_restore 8
 249              		.cfi_def_cfa 2, 32
 250 01aa 0561     		addi	sp,sp,32
 251              		.cfi_def_cfa_offset 0
 252 01ac 8280     		jr	ra
 253              		.cfi_endproc
 254              	.LFE348:
 256              		.section	.text.exti_interrupt_enable,"ax",@progbits
 257              		.align	1
 258              		.globl	exti_interrupt_enable
 260              	exti_interrupt_enable:
 261              	.LFB349:
 112:../Firmware/GD32VW55x_standard_peripheral/Source/gd32vw55x_exti.c **** 
 113:../Firmware/GD32VW55x_standard_peripheral/Source/gd32vw55x_exti.c **** /*!
 114:../Firmware/GD32VW55x_standard_peripheral/Source/gd32vw55x_exti.c ****     \brief      enable the interrupts from EXTI line x
 115:../Firmware/GD32VW55x_standard_peripheral/Source/gd32vw55x_exti.c ****     \param[in]  linex: EXTI line number, refer to exti_line_enum
 116:../Firmware/GD32VW55x_standard_peripheral/Source/gd32vw55x_exti.c ****                 only one parameter can be selected which is shown as below:
 117:../Firmware/GD32VW55x_standard_peripheral/Source/gd32vw55x_exti.c ****       \arg        EXTI_x (x=0..17,19..25): EXTI line x
 118:../Firmware/GD32VW55x_standard_peripheral/Source/gd32vw55x_exti.c ****     \param[out] none
 119:../Firmware/GD32VW55x_standard_peripheral/Source/gd32vw55x_exti.c ****     \retval     none
 120:../Firmware/GD32VW55x_standard_peripheral/Source/gd32vw55x_exti.c **** */
 121:../Firmware/GD32VW55x_standard_peripheral/Source/gd32vw55x_exti.c **** void exti_interrupt_enable(exti_line_enum linex)
 122:../Firmware/GD32VW55x_standard_peripheral/Source/gd32vw55x_exti.c **** {
 262              		.loc 1 122 1
 263              		.cfi_startproc
 264 0000 0111     		addi	sp,sp,-32
 265              		.cfi_def_cfa_offset 32
 266 0002 22CE     		sw	s0,28(sp)
 267              		.cfi_offset 8, -4
 268 0004 0010     		addi	s0,sp,32
 269              		.cfi_def_cfa 8, 0
 270 0006 2326A4FE 		sw	a0,-20(s0)
 123:../Firmware/GD32VW55x_standard_peripheral/Source/gd32vw55x_exti.c ****     EXTI_INTEN |= (uint32_t)linex;
 271              		.loc 1 123 16
 272 000a B7470140 		li	a5,1073823744
 273 000e 938707C0 		addi	a5,a5,-1024
 274 0012 9443     		lw	a3,0(a5)
 275 0014 B7470140 		li	a5,1073823744
 276 0018 938707C0 		addi	a5,a5,-1024
 277 001c 0327C4FE 		lw	a4,-20(s0)
 278 0020 558F     		or	a4,a3,a4
 279 0022 98C3     		sw	a4,0(a5)
 124:../Firmware/GD32VW55x_standard_peripheral/Source/gd32vw55x_exti.c **** }
 280              		.loc 1 124 1
 281 0024 0100     		nop
 282 0026 7244     		lw	s0,28(sp)
 283              		.cfi_restore 8
 284              		.cfi_def_cfa 2, 32
 285 0028 0561     		addi	sp,sp,32
 286              		.cfi_def_cfa_offset 0
 287 002a 8280     		jr	ra
 288              		.cfi_endproc
 289              	.LFE349:
 291              		.section	.text.exti_interrupt_disable,"ax",@progbits
 292              		.align	1
 293              		.globl	exti_interrupt_disable
 295              	exti_interrupt_disable:
 296              	.LFB350:
 125:../Firmware/GD32VW55x_standard_peripheral/Source/gd32vw55x_exti.c **** 
 126:../Firmware/GD32VW55x_standard_peripheral/Source/gd32vw55x_exti.c **** /*!
 127:../Firmware/GD32VW55x_standard_peripheral/Source/gd32vw55x_exti.c ****     \brief      disable the interrupt from EXTI line x
 128:../Firmware/GD32VW55x_standard_peripheral/Source/gd32vw55x_exti.c ****     \param[in]  linex: EXTI line number, refer to exti_line_enum
 129:../Firmware/GD32VW55x_standard_peripheral/Source/gd32vw55x_exti.c ****                 only one parameter can be selected which is shown as below:
 130:../Firmware/GD32VW55x_standard_peripheral/Source/gd32vw55x_exti.c ****       \arg        EXTI_x (x=0..17,19..25): EXTI line x
 131:../Firmware/GD32VW55x_standard_peripheral/Source/gd32vw55x_exti.c ****     \param[out] none
 132:../Firmware/GD32VW55x_standard_peripheral/Source/gd32vw55x_exti.c ****     \retval     none
 133:../Firmware/GD32VW55x_standard_peripheral/Source/gd32vw55x_exti.c **** */
 134:../Firmware/GD32VW55x_standard_peripheral/Source/gd32vw55x_exti.c **** void exti_interrupt_disable(exti_line_enum linex)
 135:../Firmware/GD32VW55x_standard_peripheral/Source/gd32vw55x_exti.c **** {
 297              		.loc 1 135 1
 298              		.cfi_startproc
 299 0000 0111     		addi	sp,sp,-32
 300              		.cfi_def_cfa_offset 32
 301 0002 22CE     		sw	s0,28(sp)
 302              		.cfi_offset 8, -4
 303 0004 0010     		addi	s0,sp,32
 304              		.cfi_def_cfa 8, 0
 305 0006 2326A4FE 		sw	a0,-20(s0)
 136:../Firmware/GD32VW55x_standard_peripheral/Source/gd32vw55x_exti.c ****     EXTI_INTEN &= ~(uint32_t)linex;
 306              		.loc 1 136 16
 307 000a B7470140 		li	a5,1073823744
 308 000e 938707C0 		addi	a5,a5,-1024
 309 0012 9443     		lw	a3,0(a5)
 310              		.loc 1 136 19
 311 0014 8327C4FE 		lw	a5,-20(s0)
 312 0018 13C7F7FF 		not	a4,a5
 313              		.loc 1 136 16
 314 001c B7470140 		li	a5,1073823744
 315 0020 938707C0 		addi	a5,a5,-1024
 316 0024 758F     		and	a4,a3,a4
 317 0026 98C3     		sw	a4,0(a5)
 137:../Firmware/GD32VW55x_standard_peripheral/Source/gd32vw55x_exti.c **** }
 318              		.loc 1 137 1
 319 0028 0100     		nop
 320 002a 7244     		lw	s0,28(sp)
 321              		.cfi_restore 8
 322              		.cfi_def_cfa 2, 32
 323 002c 0561     		addi	sp,sp,32
 324              		.cfi_def_cfa_offset 0
 325 002e 8280     		jr	ra
 326              		.cfi_endproc
 327              	.LFE350:
 329              		.section	.text.exti_event_enable,"ax",@progbits
 330              		.align	1
 331              		.globl	exti_event_enable
 333              	exti_event_enable:
 334              	.LFB351:
 138:../Firmware/GD32VW55x_standard_peripheral/Source/gd32vw55x_exti.c **** 
 139:../Firmware/GD32VW55x_standard_peripheral/Source/gd32vw55x_exti.c **** /*!
 140:../Firmware/GD32VW55x_standard_peripheral/Source/gd32vw55x_exti.c ****     \brief      enable the events from EXTI line x
 141:../Firmware/GD32VW55x_standard_peripheral/Source/gd32vw55x_exti.c ****     \param[in]  linex: EXTI line number, refer to exti_line_enum
 142:../Firmware/GD32VW55x_standard_peripheral/Source/gd32vw55x_exti.c ****                 only one parameter can be selected which is shown as below:
 143:../Firmware/GD32VW55x_standard_peripheral/Source/gd32vw55x_exti.c ****       \arg        EXTI_x (x=0..17,19..25): EXTI line x
 144:../Firmware/GD32VW55x_standard_peripheral/Source/gd32vw55x_exti.c ****     \param[out] none
 145:../Firmware/GD32VW55x_standard_peripheral/Source/gd32vw55x_exti.c ****     \retval     none
 146:../Firmware/GD32VW55x_standard_peripheral/Source/gd32vw55x_exti.c **** */
 147:../Firmware/GD32VW55x_standard_peripheral/Source/gd32vw55x_exti.c **** void exti_event_enable(exti_line_enum linex)
 148:../Firmware/GD32VW55x_standard_peripheral/Source/gd32vw55x_exti.c **** {
 335              		.loc 1 148 1
 336              		.cfi_startproc
 337 0000 0111     		addi	sp,sp,-32
 338              		.cfi_def_cfa_offset 32
 339 0002 22CE     		sw	s0,28(sp)
 340              		.cfi_offset 8, -4
 341 0004 0010     		addi	s0,sp,32
 342              		.cfi_def_cfa 8, 0
 343 0006 2326A4FE 		sw	a0,-20(s0)
 149:../Firmware/GD32VW55x_standard_peripheral/Source/gd32vw55x_exti.c ****     EXTI_EVEN |= (uint32_t)linex;
 344              		.loc 1 149 15
 345 000a B7470140 		li	a5,1073823744
 346 000e 938747C0 		addi	a5,a5,-1020
 347 0012 9443     		lw	a3,0(a5)
 348 0014 B7470140 		li	a5,1073823744
 349 0018 938747C0 		addi	a5,a5,-1020
 350 001c 0327C4FE 		lw	a4,-20(s0)
 351 0020 558F     		or	a4,a3,a4
 352 0022 98C3     		sw	a4,0(a5)
 150:../Firmware/GD32VW55x_standard_peripheral/Source/gd32vw55x_exti.c **** }
 353              		.loc 1 150 1
 354 0024 0100     		nop
 355 0026 7244     		lw	s0,28(sp)
 356              		.cfi_restore 8
 357              		.cfi_def_cfa 2, 32
 358 0028 0561     		addi	sp,sp,32
 359              		.cfi_def_cfa_offset 0
 360 002a 8280     		jr	ra
 361              		.cfi_endproc
 362              	.LFE351:
 364              		.section	.text.exti_event_disable,"ax",@progbits
 365              		.align	1
 366              		.globl	exti_event_disable
 368              	exti_event_disable:
 369              	.LFB352:
 151:../Firmware/GD32VW55x_standard_peripheral/Source/gd32vw55x_exti.c **** 
 152:../Firmware/GD32VW55x_standard_peripheral/Source/gd32vw55x_exti.c **** /*!
 153:../Firmware/GD32VW55x_standard_peripheral/Source/gd32vw55x_exti.c ****     \brief      disable the events from EXTI line x
 154:../Firmware/GD32VW55x_standard_peripheral/Source/gd32vw55x_exti.c ****     \param[in]  linex: EXTI line number, refer to exti_line_enum
 155:../Firmware/GD32VW55x_standard_peripheral/Source/gd32vw55x_exti.c ****                 only one parameter can be selected which is shown as below:
 156:../Firmware/GD32VW55x_standard_peripheral/Source/gd32vw55x_exti.c ****       \arg        EXTI_x (x=0..17,19..25): EXTI line x
 157:../Firmware/GD32VW55x_standard_peripheral/Source/gd32vw55x_exti.c ****     \param[out] none
 158:../Firmware/GD32VW55x_standard_peripheral/Source/gd32vw55x_exti.c ****     \retval     none
 159:../Firmware/GD32VW55x_standard_peripheral/Source/gd32vw55x_exti.c **** */
 160:../Firmware/GD32VW55x_standard_peripheral/Source/gd32vw55x_exti.c **** void exti_event_disable(exti_line_enum linex)
 161:../Firmware/GD32VW55x_standard_peripheral/Source/gd32vw55x_exti.c **** {
 370              		.loc 1 161 1
 371              		.cfi_startproc
 372 0000 0111     		addi	sp,sp,-32
 373              		.cfi_def_cfa_offset 32
 374 0002 22CE     		sw	s0,28(sp)
 375              		.cfi_offset 8, -4
 376 0004 0010     		addi	s0,sp,32
 377              		.cfi_def_cfa 8, 0
 378 0006 2326A4FE 		sw	a0,-20(s0)
 162:../Firmware/GD32VW55x_standard_peripheral/Source/gd32vw55x_exti.c ****     EXTI_EVEN &= ~(uint32_t)linex;
 379              		.loc 1 162 15
 380 000a B7470140 		li	a5,1073823744
 381 000e 938747C0 		addi	a5,a5,-1020
 382 0012 9443     		lw	a3,0(a5)
 383              		.loc 1 162 18
 384 0014 8327C4FE 		lw	a5,-20(s0)
 385 0018 13C7F7FF 		not	a4,a5
 386              		.loc 1 162 15
 387 001c B7470140 		li	a5,1073823744
 388 0020 938747C0 		addi	a5,a5,-1020
 389 0024 758F     		and	a4,a3,a4
 390 0026 98C3     		sw	a4,0(a5)
 163:../Firmware/GD32VW55x_standard_peripheral/Source/gd32vw55x_exti.c **** }
 391              		.loc 1 163 1
 392 0028 0100     		nop
 393 002a 7244     		lw	s0,28(sp)
 394              		.cfi_restore 8
 395              		.cfi_def_cfa 2, 32
 396 002c 0561     		addi	sp,sp,32
 397              		.cfi_def_cfa_offset 0
 398 002e 8280     		jr	ra
 399              		.cfi_endproc
 400              	.LFE352:
 402              		.section	.text.exti_software_interrupt_enable,"ax",@progbits
 403              		.align	1
 404              		.globl	exti_software_interrupt_enable
 406              	exti_software_interrupt_enable:
 407              	.LFB353:
 164:../Firmware/GD32VW55x_standard_peripheral/Source/gd32vw55x_exti.c **** 
 165:../Firmware/GD32VW55x_standard_peripheral/Source/gd32vw55x_exti.c **** /*!
 166:../Firmware/GD32VW55x_standard_peripheral/Source/gd32vw55x_exti.c ****     \brief      enable the software interrupt event from EXTI line x
 167:../Firmware/GD32VW55x_standard_peripheral/Source/gd32vw55x_exti.c ****     \param[in]  linex: EXTI line number, refer to exti_line_enum
 168:../Firmware/GD32VW55x_standard_peripheral/Source/gd32vw55x_exti.c ****                 only one parameter can be selected which is shown as below:
 169:../Firmware/GD32VW55x_standard_peripheral/Source/gd32vw55x_exti.c ****       \arg        EXTI_x (x=0..17,19..25): EXTI line x
 170:../Firmware/GD32VW55x_standard_peripheral/Source/gd32vw55x_exti.c ****     \param[out] none
 171:../Firmware/GD32VW55x_standard_peripheral/Source/gd32vw55x_exti.c ****     \retval     none
 172:../Firmware/GD32VW55x_standard_peripheral/Source/gd32vw55x_exti.c **** */
 173:../Firmware/GD32VW55x_standard_peripheral/Source/gd32vw55x_exti.c **** void exti_software_interrupt_enable(exti_line_enum linex)
 174:../Firmware/GD32VW55x_standard_peripheral/Source/gd32vw55x_exti.c **** {
 408              		.loc 1 174 1
 409              		.cfi_startproc
 410 0000 0111     		addi	sp,sp,-32
 411              		.cfi_def_cfa_offset 32
 412 0002 22CE     		sw	s0,28(sp)
 413              		.cfi_offset 8, -4
 414 0004 0010     		addi	s0,sp,32
 415              		.cfi_def_cfa 8, 0
 416 0006 2326A4FE 		sw	a0,-20(s0)
 175:../Firmware/GD32VW55x_standard_peripheral/Source/gd32vw55x_exti.c ****     EXTI_SWIEV |= (uint32_t)linex;
 417              		.loc 1 175 16
 418 000a B7470140 		li	a5,1073823744
 419 000e 938707C1 		addi	a5,a5,-1008
 420 0012 9443     		lw	a3,0(a5)
 421 0014 B7470140 		li	a5,1073823744
 422 0018 938707C1 		addi	a5,a5,-1008
 423 001c 0327C4FE 		lw	a4,-20(s0)
 424 0020 558F     		or	a4,a3,a4
 425 0022 98C3     		sw	a4,0(a5)
 176:../Firmware/GD32VW55x_standard_peripheral/Source/gd32vw55x_exti.c **** }
 426              		.loc 1 176 1
 427 0024 0100     		nop
 428 0026 7244     		lw	s0,28(sp)
 429              		.cfi_restore 8
 430              		.cfi_def_cfa 2, 32
 431 0028 0561     		addi	sp,sp,32
 432              		.cfi_def_cfa_offset 0
 433 002a 8280     		jr	ra
 434              		.cfi_endproc
 435              	.LFE353:
 437              		.section	.text.exti_software_interrupt_disable,"ax",@progbits
 438              		.align	1
 439              		.globl	exti_software_interrupt_disable
 441              	exti_software_interrupt_disable:
 442              	.LFB354:
 177:../Firmware/GD32VW55x_standard_peripheral/Source/gd32vw55x_exti.c **** 
 178:../Firmware/GD32VW55x_standard_peripheral/Source/gd32vw55x_exti.c **** /*!
 179:../Firmware/GD32VW55x_standard_peripheral/Source/gd32vw55x_exti.c ****     \brief      disable the software interrupt event from EXTI line x
 180:../Firmware/GD32VW55x_standard_peripheral/Source/gd32vw55x_exti.c ****     \param[in]  linex: EXTI line number, refer to exti_line_enum
 181:../Firmware/GD32VW55x_standard_peripheral/Source/gd32vw55x_exti.c ****                 only one parameter can be selected which is shown as below:
 182:../Firmware/GD32VW55x_standard_peripheral/Source/gd32vw55x_exti.c ****       \arg        EXTI_x (x=0..17,19..25): EXTI line x
 183:../Firmware/GD32VW55x_standard_peripheral/Source/gd32vw55x_exti.c ****     \param[out] none
 184:../Firmware/GD32VW55x_standard_peripheral/Source/gd32vw55x_exti.c ****     \retval     none
 185:../Firmware/GD32VW55x_standard_peripheral/Source/gd32vw55x_exti.c **** */
 186:../Firmware/GD32VW55x_standard_peripheral/Source/gd32vw55x_exti.c **** void exti_software_interrupt_disable(exti_line_enum linex)
 187:../Firmware/GD32VW55x_standard_peripheral/Source/gd32vw55x_exti.c **** {
 443              		.loc 1 187 1
 444              		.cfi_startproc
 445 0000 0111     		addi	sp,sp,-32
 446              		.cfi_def_cfa_offset 32
 447 0002 22CE     		sw	s0,28(sp)
 448              		.cfi_offset 8, -4
 449 0004 0010     		addi	s0,sp,32
 450              		.cfi_def_cfa 8, 0
 451 0006 2326A4FE 		sw	a0,-20(s0)
 188:../Firmware/GD32VW55x_standard_peripheral/Source/gd32vw55x_exti.c ****     EXTI_SWIEV &= ~(uint32_t)linex;
 452              		.loc 1 188 16
 453 000a B7470140 		li	a5,1073823744
 454 000e 938707C1 		addi	a5,a5,-1008
 455 0012 9443     		lw	a3,0(a5)
 456              		.loc 1 188 19
 457 0014 8327C4FE 		lw	a5,-20(s0)
 458 0018 13C7F7FF 		not	a4,a5
 459              		.loc 1 188 16
 460 001c B7470140 		li	a5,1073823744
 461 0020 938707C1 		addi	a5,a5,-1008
 462 0024 758F     		and	a4,a3,a4
 463 0026 98C3     		sw	a4,0(a5)
 189:../Firmware/GD32VW55x_standard_peripheral/Source/gd32vw55x_exti.c **** }
 464              		.loc 1 189 1
 465 0028 0100     		nop
 466 002a 7244     		lw	s0,28(sp)
 467              		.cfi_restore 8
 468              		.cfi_def_cfa 2, 32
 469 002c 0561     		addi	sp,sp,32
 470              		.cfi_def_cfa_offset 0
 471 002e 8280     		jr	ra
 472              		.cfi_endproc
 473              	.LFE354:
 475              		.section	.text.exti_flag_get,"ax",@progbits
 476              		.align	1
 477              		.globl	exti_flag_get
 479              	exti_flag_get:
 480              	.LFB355:
 190:../Firmware/GD32VW55x_standard_peripheral/Source/gd32vw55x_exti.c **** 
 191:../Firmware/GD32VW55x_standard_peripheral/Source/gd32vw55x_exti.c **** /*!
 192:../Firmware/GD32VW55x_standard_peripheral/Source/gd32vw55x_exti.c ****     \brief      get EXTI line x interrupt pending flag
 193:../Firmware/GD32VW55x_standard_peripheral/Source/gd32vw55x_exti.c ****     \param[in]  linex: EXTI line number, refer to exti_line_enum
 194:../Firmware/GD32VW55x_standard_peripheral/Source/gd32vw55x_exti.c ****                 only one parameter can be selected which is shown as below:
 195:../Firmware/GD32VW55x_standard_peripheral/Source/gd32vw55x_exti.c ****       \arg        EXTI_x (x=0..17,19..25): EXTI line x
 196:../Firmware/GD32VW55x_standard_peripheral/Source/gd32vw55x_exti.c ****     \param[out] none
 197:../Firmware/GD32VW55x_standard_peripheral/Source/gd32vw55x_exti.c ****     \retval     FlagStatus: status of flag (RESET or SET)
 198:../Firmware/GD32VW55x_standard_peripheral/Source/gd32vw55x_exti.c **** */
 199:../Firmware/GD32VW55x_standard_peripheral/Source/gd32vw55x_exti.c **** FlagStatus exti_flag_get(exti_line_enum linex)
 200:../Firmware/GD32VW55x_standard_peripheral/Source/gd32vw55x_exti.c **** {
 481              		.loc 1 200 1
 482              		.cfi_startproc
 483 0000 0111     		addi	sp,sp,-32
 484              		.cfi_def_cfa_offset 32
 485 0002 22CE     		sw	s0,28(sp)
 486              		.cfi_offset 8, -4
 487 0004 0010     		addi	s0,sp,32
 488              		.cfi_def_cfa 8, 0
 489 0006 2326A4FE 		sw	a0,-20(s0)
 201:../Firmware/GD32VW55x_standard_peripheral/Source/gd32vw55x_exti.c ****     if(RESET != (EXTI_PD & (uint32_t)linex)) {
 490              		.loc 1 201 18
 491 000a B7470140 		li	a5,1073823744
 492 000e 938747C1 		addi	a5,a5,-1004
 493 0012 9843     		lw	a4,0(a5)
 494              		.loc 1 201 26
 495 0014 8327C4FE 		lw	a5,-20(s0)
 496 0018 F98F     		and	a5,a4,a5
 497              		.loc 1 201 7
 498 001a 99C3     		beq	a5,zero,.L20
 202:../Firmware/GD32VW55x_standard_peripheral/Source/gd32vw55x_exti.c ****         return SET;
 499              		.loc 1 202 16
 500 001c 8547     		li	a5,1
 501 001e 11A0     		j	.L21
 502              	.L20:
 203:../Firmware/GD32VW55x_standard_peripheral/Source/gd32vw55x_exti.c ****     } else {
 204:../Firmware/GD32VW55x_standard_peripheral/Source/gd32vw55x_exti.c ****         return RESET;
 503              		.loc 1 204 16
 504 0020 8147     		li	a5,0
 505              	.L21:
 205:../Firmware/GD32VW55x_standard_peripheral/Source/gd32vw55x_exti.c ****     }
 206:../Firmware/GD32VW55x_standard_peripheral/Source/gd32vw55x_exti.c **** }
 506              		.loc 1 206 1
 507 0022 3E85     		mv	a0,a5
 508 0024 7244     		lw	s0,28(sp)
 509              		.cfi_restore 8
 510              		.cfi_def_cfa 2, 32
 511 0026 0561     		addi	sp,sp,32
 512              		.cfi_def_cfa_offset 0
 513 0028 8280     		jr	ra
 514              		.cfi_endproc
 515              	.LFE355:
 517              		.section	.text.exti_flag_clear,"ax",@progbits
 518              		.align	1
 519              		.globl	exti_flag_clear
 521              	exti_flag_clear:
 522              	.LFB356:
 207:../Firmware/GD32VW55x_standard_peripheral/Source/gd32vw55x_exti.c **** 
 208:../Firmware/GD32VW55x_standard_peripheral/Source/gd32vw55x_exti.c **** /*!
 209:../Firmware/GD32VW55x_standard_peripheral/Source/gd32vw55x_exti.c ****     \brief      clear EXTI line x interrupt pending flag
 210:../Firmware/GD32VW55x_standard_peripheral/Source/gd32vw55x_exti.c ****     \param[in]  linex: EXTI line number, refer to exti_line_enum
 211:../Firmware/GD32VW55x_standard_peripheral/Source/gd32vw55x_exti.c ****                 only one parameter can be selected which is shown as below:
 212:../Firmware/GD32VW55x_standard_peripheral/Source/gd32vw55x_exti.c ****       \arg        EXTI_x (x=0..17,19..25): EXTI line x
 213:../Firmware/GD32VW55x_standard_peripheral/Source/gd32vw55x_exti.c ****     \param[out] none
 214:../Firmware/GD32VW55x_standard_peripheral/Source/gd32vw55x_exti.c ****     \retval     none
 215:../Firmware/GD32VW55x_standard_peripheral/Source/gd32vw55x_exti.c **** */
 216:../Firmware/GD32VW55x_standard_peripheral/Source/gd32vw55x_exti.c **** void exti_flag_clear(exti_line_enum linex)
 217:../Firmware/GD32VW55x_standard_peripheral/Source/gd32vw55x_exti.c **** {
 523              		.loc 1 217 1
 524              		.cfi_startproc
 525 0000 0111     		addi	sp,sp,-32
 526              		.cfi_def_cfa_offset 32
 527 0002 22CE     		sw	s0,28(sp)
 528              		.cfi_offset 8, -4
 529 0004 0010     		addi	s0,sp,32
 530              		.cfi_def_cfa 8, 0
 531 0006 2326A4FE 		sw	a0,-20(s0)
 218:../Firmware/GD32VW55x_standard_peripheral/Source/gd32vw55x_exti.c ****     EXTI_PD = (uint32_t)linex;
 532              		.loc 1 218 5
 533 000a B7470140 		li	a5,1073823744
 534 000e 938747C1 		addi	a5,a5,-1004
 535              		.loc 1 218 13
 536 0012 0327C4FE 		lw	a4,-20(s0)
 537 0016 98C3     		sw	a4,0(a5)
 219:../Firmware/GD32VW55x_standard_peripheral/Source/gd32vw55x_exti.c **** }
 538              		.loc 1 219 1
 539 0018 0100     		nop
 540 001a 7244     		lw	s0,28(sp)
 541              		.cfi_restore 8
 542              		.cfi_def_cfa 2, 32
 543 001c 0561     		addi	sp,sp,32
 544              		.cfi_def_cfa_offset 0
 545 001e 8280     		jr	ra
 546              		.cfi_endproc
 547              	.LFE356:
 549              		.section	.text.exti_interrupt_flag_get,"ax",@progbits
 550              		.align	1
 551              		.globl	exti_interrupt_flag_get
 553              	exti_interrupt_flag_get:
 554              	.LFB357:
 220:../Firmware/GD32VW55x_standard_peripheral/Source/gd32vw55x_exti.c **** 
 221:../Firmware/GD32VW55x_standard_peripheral/Source/gd32vw55x_exti.c **** /*!
 222:../Firmware/GD32VW55x_standard_peripheral/Source/gd32vw55x_exti.c ****     \brief      get EXTI line x interrupt pending flag
 223:../Firmware/GD32VW55x_standard_peripheral/Source/gd32vw55x_exti.c ****     \param[in]  linex: EXTI line number, refer to exti_line_enum
 224:../Firmware/GD32VW55x_standard_peripheral/Source/gd32vw55x_exti.c ****                 only one parameter can be selected which is shown as below:
 225:../Firmware/GD32VW55x_standard_peripheral/Source/gd32vw55x_exti.c ****       \arg        EXTI_x (x=0..17,19..25): EXTI line x
 226:../Firmware/GD32VW55x_standard_peripheral/Source/gd32vw55x_exti.c ****     \param[out] none
 227:../Firmware/GD32VW55x_standard_peripheral/Source/gd32vw55x_exti.c ****     \retval     FlagStatus: status of flag (RESET or SET)
 228:../Firmware/GD32VW55x_standard_peripheral/Source/gd32vw55x_exti.c **** */
 229:../Firmware/GD32VW55x_standard_peripheral/Source/gd32vw55x_exti.c **** FlagStatus exti_interrupt_flag_get(exti_line_enum linex)
 230:../Firmware/GD32VW55x_standard_peripheral/Source/gd32vw55x_exti.c **** {
 555              		.loc 1 230 1
 556              		.cfi_startproc
 557 0000 0111     		addi	sp,sp,-32
 558              		.cfi_def_cfa_offset 32
 559 0002 22CE     		sw	s0,28(sp)
 560              		.cfi_offset 8, -4
 561 0004 0010     		addi	s0,sp,32
 562              		.cfi_def_cfa 8, 0
 563 0006 2326A4FE 		sw	a0,-20(s0)
 231:../Firmware/GD32VW55x_standard_peripheral/Source/gd32vw55x_exti.c ****     if(RESET != (EXTI_PD & (uint32_t)linex)) {
 564              		.loc 1 231 18
 565 000a B7470140 		li	a5,1073823744
 566 000e 938747C1 		addi	a5,a5,-1004
 567 0012 9843     		lw	a4,0(a5)
 568              		.loc 1 231 26
 569 0014 8327C4FE 		lw	a5,-20(s0)
 570 0018 F98F     		and	a5,a4,a5
 571              		.loc 1 231 7
 572 001a 99C3     		beq	a5,zero,.L24
 232:../Firmware/GD32VW55x_standard_peripheral/Source/gd32vw55x_exti.c ****         return SET;
 573              		.loc 1 232 16
 574 001c 8547     		li	a5,1
 575 001e 11A0     		j	.L25
 576              	.L24:
 233:../Firmware/GD32VW55x_standard_peripheral/Source/gd32vw55x_exti.c ****     } else {
 234:../Firmware/GD32VW55x_standard_peripheral/Source/gd32vw55x_exti.c ****         return RESET;
 577              		.loc 1 234 16
 578 0020 8147     		li	a5,0
 579              	.L25:
 235:../Firmware/GD32VW55x_standard_peripheral/Source/gd32vw55x_exti.c ****     }
 236:../Firmware/GD32VW55x_standard_peripheral/Source/gd32vw55x_exti.c **** }
 580              		.loc 1 236 1
 581 0022 3E85     		mv	a0,a5
 582 0024 7244     		lw	s0,28(sp)
 583              		.cfi_restore 8
 584              		.cfi_def_cfa 2, 32
 585 0026 0561     		addi	sp,sp,32
 586              		.cfi_def_cfa_offset 0
 587 0028 8280     		jr	ra
 588              		.cfi_endproc
 589              	.LFE357:
 591              		.section	.text.exti_interrupt_flag_clear,"ax",@progbits
 592              		.align	1
 593              		.globl	exti_interrupt_flag_clear
 595              	exti_interrupt_flag_clear:
 596              	.LFB358:
 237:../Firmware/GD32VW55x_standard_peripheral/Source/gd32vw55x_exti.c **** 
 238:../Firmware/GD32VW55x_standard_peripheral/Source/gd32vw55x_exti.c **** /*!
 239:../Firmware/GD32VW55x_standard_peripheral/Source/gd32vw55x_exti.c ****     \brief      clear EXTI line x interrupt pending flag
 240:../Firmware/GD32VW55x_standard_peripheral/Source/gd32vw55x_exti.c ****     \param[in]  linex: EXTI line number, refer to exti_line_enum
 241:../Firmware/GD32VW55x_standard_peripheral/Source/gd32vw55x_exti.c ****                 only one parameter can be selected which is shown as below:
 242:../Firmware/GD32VW55x_standard_peripheral/Source/gd32vw55x_exti.c ****       \arg        EXTI_x (x=0..17,19..25): EXTI line x
 243:../Firmware/GD32VW55x_standard_peripheral/Source/gd32vw55x_exti.c ****     \param[out] none
 244:../Firmware/GD32VW55x_standard_peripheral/Source/gd32vw55x_exti.c ****     \retval     none
 245:../Firmware/GD32VW55x_standard_peripheral/Source/gd32vw55x_exti.c **** */
 246:../Firmware/GD32VW55x_standard_peripheral/Source/gd32vw55x_exti.c **** void exti_interrupt_flag_clear(exti_line_enum linex)
 247:../Firmware/GD32VW55x_standard_peripheral/Source/gd32vw55x_exti.c **** {
 597              		.loc 1 247 1
 598              		.cfi_startproc
 599 0000 0111     		addi	sp,sp,-32
 600              		.cfi_def_cfa_offset 32
 601 0002 22CE     		sw	s0,28(sp)
 602              		.cfi_offset 8, -4
 603 0004 0010     		addi	s0,sp,32
 604              		.cfi_def_cfa 8, 0
 605 0006 2326A4FE 		sw	a0,-20(s0)
 248:../Firmware/GD32VW55x_standard_peripheral/Source/gd32vw55x_exti.c ****     EXTI_PD = (uint32_t)linex;
 606              		.loc 1 248 5
 607 000a B7470140 		li	a5,1073823744
 608 000e 938747C1 		addi	a5,a5,-1004
 609              		.loc 1 248 13
 610 0012 0327C4FE 		lw	a4,-20(s0)
 611 0016 98C3     		sw	a4,0(a5)
 249:../Firmware/GD32VW55x_standard_peripheral/Source/gd32vw55x_exti.c **** }
 612              		.loc 1 249 1
 613 0018 0100     		nop
 614 001a 7244     		lw	s0,28(sp)
 615              		.cfi_restore 8
 616              		.cfi_def_cfa 2, 32
 617 001c 0561     		addi	sp,sp,32
 618              		.cfi_def_cfa_offset 0
 619 001e 8280     		jr	ra
 620              		.cfi_endproc
 621              	.LFE358:
 623              		.text
 624              	.Letext0:
 625              		.file 2 "e:\\gd32\\gd32embeddedbuilder_v1.5.2.30854\\tools\\nuclei_riscv_newlibc_prebuilt_win32_20
 626              		.file 3 "e:\\gd32\\gd32embeddedbuilder_v1.5.2.30854\\tools\\nuclei_riscv_newlibc_prebuilt_win32_20
 627              		.file 4 "../Firmware/GD32VW55x_standard_peripheral/gd32vw55x.h"
 628              		.file 5 "../Firmware/GD32VW55x_standard_peripheral/Include/gd32vw55x_exti.h"