   1              		.file	"gd32vw55x_cau.c"
   2              		.option nopic
   3              		.attribute arch, "rv32i2p0_m2p0_a2p0_c2p0"
   4              		.attribute unaligned_access, 0
   5              		.attribute stack_align, 16
   6              		.text
   7              	.Ltext0:
   8              		.cfi_sections	.debug_frame
   9              		.section	.text.cau_deinit,"ax",@progbits
  10              		.align	1
  11              		.globl	cau_deinit
  13              	cau_deinit:
  14              	.LFB347:
  15              		.file 1 "../Firmware/GD32VW55x_standard_peripheral/Source/gd32vw55x_cau.c"
   1:../Firmware/GD32VW55x_standard_peripheral/Source/gd32vw55x_cau.c **** /*!
   2:../Firmware/GD32VW55x_standard_peripheral/Source/gd32vw55x_cau.c ****     \file    gd32vw55x_cau.c
   3:../Firmware/GD32VW55x_standard_peripheral/Source/gd32vw55x_cau.c ****     \brief   CAU driver
   4:../Firmware/GD32VW55x_standard_peripheral/Source/gd32vw55x_cau.c **** 
   5:../Firmware/GD32VW55x_standard_peripheral/Source/gd32vw55x_cau.c ****     \version 2025-01-16, V1.4.0, firmware for GD32VW55x
   6:../Firmware/GD32VW55x_standard_peripheral/Source/gd32vw55x_cau.c **** */
   7:../Firmware/GD32VW55x_standard_peripheral/Source/gd32vw55x_cau.c **** 
   8:../Firmware/GD32VW55x_standard_peripheral/Source/gd32vw55x_cau.c **** /*
   9:../Firmware/GD32VW55x_standard_peripheral/Source/gd32vw55x_cau.c ****     Copyright (c) 2025, GigaDevice Semiconductor Inc.
  10:../Firmware/GD32VW55x_standard_peripheral/Source/gd32vw55x_cau.c **** 
  11:../Firmware/GD32VW55x_standard_peripheral/Source/gd32vw55x_cau.c ****     Redistribution and use in source and binary forms, with or without modification,
  12:../Firmware/GD32VW55x_standard_peripheral/Source/gd32vw55x_cau.c **** are permitted provided that the following conditions are met:
  13:../Firmware/GD32VW55x_standard_peripheral/Source/gd32vw55x_cau.c **** 
  14:../Firmware/GD32VW55x_standard_peripheral/Source/gd32vw55x_cau.c ****     1. Redistributions of source code must retain the above copyright notice, this
  15:../Firmware/GD32VW55x_standard_peripheral/Source/gd32vw55x_cau.c ****        list of conditions and the following disclaimer.
  16:../Firmware/GD32VW55x_standard_peripheral/Source/gd32vw55x_cau.c ****     2. Redistributions in binary form must reproduce the above copyright notice,
  17:../Firmware/GD32VW55x_standard_peripheral/Source/gd32vw55x_cau.c ****        this list of conditions and the following disclaimer in the documentation
  18:../Firmware/GD32VW55x_standard_peripheral/Source/gd32vw55x_cau.c ****        and/or other materials provided with the distribution.
  19:../Firmware/GD32VW55x_standard_peripheral/Source/gd32vw55x_cau.c ****     3. Neither the name of the copyright holder nor the names of its contributors
  20:../Firmware/GD32VW55x_standard_peripheral/Source/gd32vw55x_cau.c ****        may be used to endorse or promote products derived from this software without
  21:../Firmware/GD32VW55x_standard_peripheral/Source/gd32vw55x_cau.c ****        specific prior written permission.
  22:../Firmware/GD32VW55x_standard_peripheral/Source/gd32vw55x_cau.c **** 
  23:../Firmware/GD32VW55x_standard_peripheral/Source/gd32vw55x_cau.c ****     THIS SOFTWARE IS PROVIDED BY THE COPYRIGHT HOLDERS AND CONTRIBUTORS "AS IS"
  24:../Firmware/GD32VW55x_standard_peripheral/Source/gd32vw55x_cau.c **** AND ANY EXPRESS OR IMPLIED WARRANTIES, INCLUDING, BUT NOT LIMITED TO, THE IMPLIED
  25:../Firmware/GD32VW55x_standard_peripheral/Source/gd32vw55x_cau.c **** WARRANTIES OF MERCHANTABILITY AND FITNESS FOR A PARTICULAR PURPOSE ARE DISCLAIMED.
  26:../Firmware/GD32VW55x_standard_peripheral/Source/gd32vw55x_cau.c **** IN NO EVENT SHALL THE COPYRIGHT HOLDER OR CONTRIBUTORS BE LIABLE FOR ANY DIRECT,
  27:../Firmware/GD32VW55x_standard_peripheral/Source/gd32vw55x_cau.c **** INDIRECT, INCIDENTAL, SPECIAL, EXEMPLARY, OR CONSEQUENTIAL DAMAGES (INCLUDING, BUT
  28:../Firmware/GD32VW55x_standard_peripheral/Source/gd32vw55x_cau.c **** NOT LIMITED TO, PROCUREMENT OF SUBSTITUTE GOODS OR SERVICES; LOSS OF USE, DATA, OR
  29:../Firmware/GD32VW55x_standard_peripheral/Source/gd32vw55x_cau.c **** PROFITS; OR BUSINESS INTERRUPTION) HOWEVER CAUSED AND ON ANY THEORY OF LIABILITY,
  30:../Firmware/GD32VW55x_standard_peripheral/Source/gd32vw55x_cau.c **** WHETHER IN CONTRACT, STRICT LIABILITY, OR TORT (INCLUDING NEGLIGENCE OR OTHERWISE)
  31:../Firmware/GD32VW55x_standard_peripheral/Source/gd32vw55x_cau.c **** ARISING IN ANY WAY OUT OF THE USE OF THIS SOFTWARE, EVEN IF ADVISED OF THE POSSIBILITY
  32:../Firmware/GD32VW55x_standard_peripheral/Source/gd32vw55x_cau.c **** OF SUCH DAMAGE.
  33:../Firmware/GD32VW55x_standard_peripheral/Source/gd32vw55x_cau.c **** */
  34:../Firmware/GD32VW55x_standard_peripheral/Source/gd32vw55x_cau.c **** 
  35:../Firmware/GD32VW55x_standard_peripheral/Source/gd32vw55x_cau.c **** #include "gd32vw55x_cau.h"
  36:../Firmware/GD32VW55x_standard_peripheral/Source/gd32vw55x_cau.c **** #include "gd32vw55x_rcu.h"
  37:../Firmware/GD32VW55x_standard_peripheral/Source/gd32vw55x_cau.c **** 
  38:../Firmware/GD32VW55x_standard_peripheral/Source/gd32vw55x_cau.c **** #define STAT0_AESDES_MASK    ((uint32_t)0x00000015U)
  39:../Firmware/GD32VW55x_standard_peripheral/Source/gd32vw55x_cau.c **** #define STAT0_TDES_MASK      ((uint32_t)0x00000014U)
  40:../Firmware/GD32VW55x_standard_peripheral/Source/gd32vw55x_cau.c **** 
  41:../Firmware/GD32VW55x_standard_peripheral/Source/gd32vw55x_cau.c **** /*!
  42:../Firmware/GD32VW55x_standard_peripheral/Source/gd32vw55x_cau.c ****     \brief      reset the CAU peripheral
  43:../Firmware/GD32VW55x_standard_peripheral/Source/gd32vw55x_cau.c ****     \param[in]  none
  44:../Firmware/GD32VW55x_standard_peripheral/Source/gd32vw55x_cau.c ****     \param[out] none
  45:../Firmware/GD32VW55x_standard_peripheral/Source/gd32vw55x_cau.c ****     \retval     none
  46:../Firmware/GD32VW55x_standard_peripheral/Source/gd32vw55x_cau.c **** */
  47:../Firmware/GD32VW55x_standard_peripheral/Source/gd32vw55x_cau.c **** void cau_deinit(void)
  48:../Firmware/GD32VW55x_standard_peripheral/Source/gd32vw55x_cau.c **** {
  16              		.loc 1 48 1
  17              		.cfi_startproc
  18 0000 4111     		addi	sp,sp,-16
  19              		.cfi_def_cfa_offset 16
  20 0002 06C6     		sw	ra,12(sp)
  21 0004 22C4     		sw	s0,8(sp)
  22              		.cfi_offset 1, -4
  23              		.cfi_offset 8, -8
  24 0006 0008     		addi	s0,sp,16
  25              		.cfi_def_cfa 8, 0
  49:../Firmware/GD32VW55x_standard_peripheral/Source/gd32vw55x_cau.c ****     /* enable CAU reset state */
  50:../Firmware/GD32VW55x_standard_peripheral/Source/gd32vw55x_cau.c ****     rcu_periph_reset_enable(RCU_CAURST);
  26              		.loc 1 50 5
  27 0008 13054050 		li	a0,1284
  28 000c 97000000 		call	rcu_periph_reset_enable
  28      E7800000 
  51:../Firmware/GD32VW55x_standard_peripheral/Source/gd32vw55x_cau.c ****     /* release CAU from reset state */
  52:../Firmware/GD32VW55x_standard_peripheral/Source/gd32vw55x_cau.c ****     rcu_periph_reset_disable(RCU_CAURST);
  29              		.loc 1 52 5
  30 0014 13054050 		li	a0,1284
  31 0018 97000000 		call	rcu_periph_reset_disable
  31      E7800000 
  53:../Firmware/GD32VW55x_standard_peripheral/Source/gd32vw55x_cau.c **** }
  32              		.loc 1 53 1
  33 0020 0100     		nop
  34 0022 B240     		lw	ra,12(sp)
  35              		.cfi_restore 1
  36 0024 2244     		lw	s0,8(sp)
  37              		.cfi_restore 8
  38              		.cfi_def_cfa 2, 16
  39 0026 4101     		addi	sp,sp,16
  40              		.cfi_def_cfa_offset 0
  41 0028 8280     		jr	ra
  42              		.cfi_endproc
  43              	.LFE347:
  45              		.section	.text.cau_struct_para_init,"ax",@progbits
  46              		.align	1
  47              		.globl	cau_struct_para_init
  49              	cau_struct_para_init:
  50              	.LFB348:
  54:../Firmware/GD32VW55x_standard_peripheral/Source/gd32vw55x_cau.c **** 
  55:../Firmware/GD32VW55x_standard_peripheral/Source/gd32vw55x_cau.c **** /*!
  56:../Firmware/GD32VW55x_standard_peripheral/Source/gd32vw55x_cau.c ****     \brief      initialize the CAU encrypt and decrypt parameter struct with the default values
  57:../Firmware/GD32VW55x_standard_peripheral/Source/gd32vw55x_cau.c ****     \param[in]  none
  58:../Firmware/GD32VW55x_standard_peripheral/Source/gd32vw55x_cau.c ****     \param[out] cau_parameter:
  59:../Firmware/GD32VW55x_standard_peripheral/Source/gd32vw55x_cau.c ****                   alg_dir: algorithm direction
  60:../Firmware/GD32VW55x_standard_peripheral/Source/gd32vw55x_cau.c ****                     CAU_ENCRYPT, CAU_DECRYPT
  61:../Firmware/GD32VW55x_standard_peripheral/Source/gd32vw55x_cau.c ****                   key: key
  62:../Firmware/GD32VW55x_standard_peripheral/Source/gd32vw55x_cau.c ****                   key_size: key size in bytes
  63:../Firmware/GD32VW55x_standard_peripheral/Source/gd32vw55x_cau.c ****                   iv: initialization vector
  64:../Firmware/GD32VW55x_standard_peripheral/Source/gd32vw55x_cau.c ****                   iv_size: iv size in bytes
  65:../Firmware/GD32VW55x_standard_peripheral/Source/gd32vw55x_cau.c ****                   input: input data
  66:../Firmware/GD32VW55x_standard_peripheral/Source/gd32vw55x_cau.c ****                   in_length: input data length in bytes
  67:../Firmware/GD32VW55x_standard_peripheral/Source/gd32vw55x_cau.c ****                   aad: additional authentication data
  68:../Firmware/GD32VW55x_standard_peripheral/Source/gd32vw55x_cau.c ****                   aad_size: header size
  69:../Firmware/GD32VW55x_standard_peripheral/Source/gd32vw55x_cau.c ****     \retval     none
  70:../Firmware/GD32VW55x_standard_peripheral/Source/gd32vw55x_cau.c **** */
  71:../Firmware/GD32VW55x_standard_peripheral/Source/gd32vw55x_cau.c **** void cau_struct_para_init(cau_parameter_struct *cau_parameter)
  72:../Firmware/GD32VW55x_standard_peripheral/Source/gd32vw55x_cau.c **** {
  51              		.loc 1 72 1
  52              		.cfi_startproc
  53 0000 0111     		addi	sp,sp,-32
  54              		.cfi_def_cfa_offset 32
  55 0002 22CE     		sw	s0,28(sp)
  56              		.cfi_offset 8, -4
  57 0004 0010     		addi	s0,sp,32
  58              		.cfi_def_cfa 8, 0
  59 0006 2326A4FE 		sw	a0,-20(s0)
  73:../Firmware/GD32VW55x_standard_peripheral/Source/gd32vw55x_cau.c ****     /* set the CAU encrypt and decrypt parameters struct with the default values */
  74:../Firmware/GD32VW55x_standard_peripheral/Source/gd32vw55x_cau.c ****     cau_parameter->alg_dir     = CAU_ENCRYPT;
  60              		.loc 1 74 32
  61 000a 8327C4FE 		lw	a5,-20(s0)
  62 000e 23A00700 		sw	zero,0(a5)
  75:../Firmware/GD32VW55x_standard_peripheral/Source/gd32vw55x_cau.c ****     cau_parameter->key         = 0U;
  63              		.loc 1 75 32
  64 0012 8327C4FE 		lw	a5,-20(s0)
  65 0016 23A20700 		sw	zero,4(a5)
  76:../Firmware/GD32VW55x_standard_peripheral/Source/gd32vw55x_cau.c ****     cau_parameter->key_size    = 0U;
  66              		.loc 1 76 32
  67 001a 8327C4FE 		lw	a5,-20(s0)
  68 001e 23A40700 		sw	zero,8(a5)
  77:../Firmware/GD32VW55x_standard_peripheral/Source/gd32vw55x_cau.c ****     cau_parameter->iv          = 0U;
  69              		.loc 1 77 32
  70 0022 8327C4FE 		lw	a5,-20(s0)
  71 0026 23A60700 		sw	zero,12(a5)
  78:../Firmware/GD32VW55x_standard_peripheral/Source/gd32vw55x_cau.c ****     cau_parameter->iv_size     = 0U;
  72              		.loc 1 78 32
  73 002a 8327C4FE 		lw	a5,-20(s0)
  74 002e 23A80700 		sw	zero,16(a5)
  79:../Firmware/GD32VW55x_standard_peripheral/Source/gd32vw55x_cau.c ****     cau_parameter->input       = 0U;
  75              		.loc 1 79 32
  76 0032 8327C4FE 		lw	a5,-20(s0)
  77 0036 23AA0700 		sw	zero,20(a5)
  80:../Firmware/GD32VW55x_standard_peripheral/Source/gd32vw55x_cau.c ****     cau_parameter->in_length   = 0U;
  78              		.loc 1 80 32
  79 003a 8327C4FE 		lw	a5,-20(s0)
  80 003e 23AC0700 		sw	zero,24(a5)
  81:../Firmware/GD32VW55x_standard_peripheral/Source/gd32vw55x_cau.c ****     cau_parameter->aad         = 0U;
  81              		.loc 1 81 32
  82 0042 8327C4FE 		lw	a5,-20(s0)
  83 0046 23AE0700 		sw	zero,28(a5)
  82:../Firmware/GD32VW55x_standard_peripheral/Source/gd32vw55x_cau.c ****     cau_parameter->aad_size    = 0U;
  84              		.loc 1 82 32
  85 004a 8327C4FE 		lw	a5,-20(s0)
  86 004e 23A00702 		sw	zero,32(a5)
  83:../Firmware/GD32VW55x_standard_peripheral/Source/gd32vw55x_cau.c **** }
  87              		.loc 1 83 1
  88 0052 0100     		nop
  89 0054 7244     		lw	s0,28(sp)
  90              		.cfi_restore 8
  91              		.cfi_def_cfa 2, 32
  92 0056 0561     		addi	sp,sp,32
  93              		.cfi_def_cfa_offset 0
  94 0058 8280     		jr	ra
  95              		.cfi_endproc
  96              	.LFE348:
  98              		.section	.text.cau_key_struct_para_init,"ax",@progbits
  99              		.align	1
 100              		.globl	cau_key_struct_para_init
 102              	cau_key_struct_para_init:
 103              	.LFB349:
  84:../Firmware/GD32VW55x_standard_peripheral/Source/gd32vw55x_cau.c **** 
  85:../Firmware/GD32VW55x_standard_peripheral/Source/gd32vw55x_cau.c **** /*!
  86:../Firmware/GD32VW55x_standard_peripheral/Source/gd32vw55x_cau.c ****     \brief      initialize the key parameter struct with the default values
  87:../Firmware/GD32VW55x_standard_peripheral/Source/gd32vw55x_cau.c ****     \param[in]  none
  88:../Firmware/GD32VW55x_standard_peripheral/Source/gd32vw55x_cau.c ****     \param[out] key_initpara:
  89:../Firmware/GD32VW55x_standard_peripheral/Source/gd32vw55x_cau.c ****                   key_0_high: key 0 high
  90:../Firmware/GD32VW55x_standard_peripheral/Source/gd32vw55x_cau.c ****                   key_0_low:  key 0 low
  91:../Firmware/GD32VW55x_standard_peripheral/Source/gd32vw55x_cau.c ****                   key_1_high: key 1 high
  92:../Firmware/GD32VW55x_standard_peripheral/Source/gd32vw55x_cau.c ****                   key_1_low:  key 1 low
  93:../Firmware/GD32VW55x_standard_peripheral/Source/gd32vw55x_cau.c ****                   key_2_high: key 2 high
  94:../Firmware/GD32VW55x_standard_peripheral/Source/gd32vw55x_cau.c ****                   key_2_low:  key 2 low
  95:../Firmware/GD32VW55x_standard_peripheral/Source/gd32vw55x_cau.c ****                   key_3_high: key 3 high
  96:../Firmware/GD32VW55x_standard_peripheral/Source/gd32vw55x_cau.c ****                   key_3_low:  key 3 low
  97:../Firmware/GD32VW55x_standard_peripheral/Source/gd32vw55x_cau.c ****     \retval     none
  98:../Firmware/GD32VW55x_standard_peripheral/Source/gd32vw55x_cau.c **** */
  99:../Firmware/GD32VW55x_standard_peripheral/Source/gd32vw55x_cau.c **** void cau_key_struct_para_init(cau_key_parameter_struct *key_initpara)
 100:../Firmware/GD32VW55x_standard_peripheral/Source/gd32vw55x_cau.c **** {
 104              		.loc 1 100 1
 105              		.cfi_startproc
 106 0000 0111     		addi	sp,sp,-32
 107              		.cfi_def_cfa_offset 32
 108 0002 22CE     		sw	s0,28(sp)
 109              		.cfi_offset 8, -4
 110 0004 0010     		addi	s0,sp,32
 111              		.cfi_def_cfa 8, 0
 112 0006 2326A4FE 		sw	a0,-20(s0)
 101:../Firmware/GD32VW55x_standard_peripheral/Source/gd32vw55x_cau.c ****     /* set the key parameters struct with the default values */
 102:../Firmware/GD32VW55x_standard_peripheral/Source/gd32vw55x_cau.c ****     key_initpara->key_0_high   = 0U;
 113              		.loc 1 102 32
 114 000a 8327C4FE 		lw	a5,-20(s0)
 115 000e 23A00700 		sw	zero,0(a5)
 103:../Firmware/GD32VW55x_standard_peripheral/Source/gd32vw55x_cau.c ****     key_initpara->key_0_low    = 0U;
 116              		.loc 1 103 32
 117 0012 8327C4FE 		lw	a5,-20(s0)
 118 0016 23A20700 		sw	zero,4(a5)
 104:../Firmware/GD32VW55x_standard_peripheral/Source/gd32vw55x_cau.c ****     key_initpara->key_1_high   = 0U;
 119              		.loc 1 104 32
 120 001a 8327C4FE 		lw	a5,-20(s0)
 121 001e 23A40700 		sw	zero,8(a5)
 105:../Firmware/GD32VW55x_standard_peripheral/Source/gd32vw55x_cau.c ****     key_initpara->key_1_low    = 0U;
 122              		.loc 1 105 32
 123 0022 8327C4FE 		lw	a5,-20(s0)
 124 0026 23A60700 		sw	zero,12(a5)
 106:../Firmware/GD32VW55x_standard_peripheral/Source/gd32vw55x_cau.c ****     key_initpara->key_2_high   = 0U;
 125              		.loc 1 106 32
 126 002a 8327C4FE 		lw	a5,-20(s0)
 127 002e 23A80700 		sw	zero,16(a5)
 107:../Firmware/GD32VW55x_standard_peripheral/Source/gd32vw55x_cau.c ****     key_initpara->key_2_low    = 0U;
 128              		.loc 1 107 32
 129 0032 8327C4FE 		lw	a5,-20(s0)
 130 0036 23AA0700 		sw	zero,20(a5)
 108:../Firmware/GD32VW55x_standard_peripheral/Source/gd32vw55x_cau.c ****     key_initpara->key_3_high   = 0U;
 131              		.loc 1 108 32
 132 003a 8327C4FE 		lw	a5,-20(s0)
 133 003e 23AC0700 		sw	zero,24(a5)
 109:../Firmware/GD32VW55x_standard_peripheral/Source/gd32vw55x_cau.c ****     key_initpara->key_3_low    = 0U;
 134              		.loc 1 109 32
 135 0042 8327C4FE 		lw	a5,-20(s0)
 136 0046 23AE0700 		sw	zero,28(a5)
 110:../Firmware/GD32VW55x_standard_peripheral/Source/gd32vw55x_cau.c **** }
 137              		.loc 1 110 1
 138 004a 0100     		nop
 139 004c 7244     		lw	s0,28(sp)
 140              		.cfi_restore 8
 141              		.cfi_def_cfa 2, 32
 142 004e 0561     		addi	sp,sp,32
 143              		.cfi_def_cfa_offset 0
 144 0050 8280     		jr	ra
 145              		.cfi_endproc
 146              	.LFE349:
 148              		.section	.text.cau_iv_struct_para_init,"ax",@progbits
 149              		.align	1
 150              		.globl	cau_iv_struct_para_init
 152              	cau_iv_struct_para_init:
 153              	.LFB350:
 111:../Firmware/GD32VW55x_standard_peripheral/Source/gd32vw55x_cau.c **** 
 112:../Firmware/GD32VW55x_standard_peripheral/Source/gd32vw55x_cau.c **** /*!
 113:../Firmware/GD32VW55x_standard_peripheral/Source/gd32vw55x_cau.c ****     \brief      initialize the vectors parameter struct with the default values
 114:../Firmware/GD32VW55x_standard_peripheral/Source/gd32vw55x_cau.c ****     \param[in]  none
 115:../Firmware/GD32VW55x_standard_peripheral/Source/gd32vw55x_cau.c ****     \param[out] iv_initpara:
 116:../Firmware/GD32VW55x_standard_peripheral/Source/gd32vw55x_cau.c ****                   iv_0_high: init vector 0 high
 117:../Firmware/GD32VW55x_standard_peripheral/Source/gd32vw55x_cau.c ****                   iv_0_low:  init vector 0 low
 118:../Firmware/GD32VW55x_standard_peripheral/Source/gd32vw55x_cau.c ****                   iv_1_high: init vector 1 high
 119:../Firmware/GD32VW55x_standard_peripheral/Source/gd32vw55x_cau.c ****                   iv_1_low:  init vector 1 low
 120:../Firmware/GD32VW55x_standard_peripheral/Source/gd32vw55x_cau.c ****     \retval     none
 121:../Firmware/GD32VW55x_standard_peripheral/Source/gd32vw55x_cau.c **** */
 122:../Firmware/GD32VW55x_standard_peripheral/Source/gd32vw55x_cau.c **** void cau_iv_struct_para_init(cau_iv_parameter_struct *iv_initpara)
 123:../Firmware/GD32VW55x_standard_peripheral/Source/gd32vw55x_cau.c **** {
 154              		.loc 1 123 1
 155              		.cfi_startproc
 156 0000 0111     		addi	sp,sp,-32
 157              		.cfi_def_cfa_offset 32
 158 0002 22CE     		sw	s0,28(sp)
 159              		.cfi_offset 8, -4
 160 0004 0010     		addi	s0,sp,32
 161              		.cfi_def_cfa 8, 0
 162 0006 2326A4FE 		sw	a0,-20(s0)
 124:../Firmware/GD32VW55x_standard_peripheral/Source/gd32vw55x_cau.c ****     /* set the vectors parameters struct with the default values */
 125:../Firmware/GD32VW55x_standard_peripheral/Source/gd32vw55x_cau.c ****     iv_initpara->iv_0_high   = 0U;
 163              		.loc 1 125 30
 164 000a 8327C4FE 		lw	a5,-20(s0)
 165 000e 23A00700 		sw	zero,0(a5)
 126:../Firmware/GD32VW55x_standard_peripheral/Source/gd32vw55x_cau.c ****     iv_initpara->iv_0_low    = 0U;
 166              		.loc 1 126 30
 167 0012 8327C4FE 		lw	a5,-20(s0)
 168 0016 23A20700 		sw	zero,4(a5)
 127:../Firmware/GD32VW55x_standard_peripheral/Source/gd32vw55x_cau.c ****     iv_initpara->iv_1_high   = 0U;
 169              		.loc 1 127 30
 170 001a 8327C4FE 		lw	a5,-20(s0)
 171 001e 23A40700 		sw	zero,8(a5)
 128:../Firmware/GD32VW55x_standard_peripheral/Source/gd32vw55x_cau.c ****     iv_initpara->iv_1_low    = 0U;
 172              		.loc 1 128 30
 173 0022 8327C4FE 		lw	a5,-20(s0)
 174 0026 23A60700 		sw	zero,12(a5)
 129:../Firmware/GD32VW55x_standard_peripheral/Source/gd32vw55x_cau.c **** }
 175              		.loc 1 129 1
 176 002a 0100     		nop
 177 002c 7244     		lw	s0,28(sp)
 178              		.cfi_restore 8
 179              		.cfi_def_cfa 2, 32
 180 002e 0561     		addi	sp,sp,32
 181              		.cfi_def_cfa_offset 0
 182 0030 8280     		jr	ra
 183              		.cfi_endproc
 184              	.LFE350:
 186              		.section	.text.cau_context_struct_para_init,"ax",@progbits
 187              		.align	1
 188              		.globl	cau_context_struct_para_init
 190              	cau_context_struct_para_init:
 191              	.LFB351:
 130:../Firmware/GD32VW55x_standard_peripheral/Source/gd32vw55x_cau.c **** 
 131:../Firmware/GD32VW55x_standard_peripheral/Source/gd32vw55x_cau.c **** /*!
 132:../Firmware/GD32VW55x_standard_peripheral/Source/gd32vw55x_cau.c ****     \brief      initialize the context parameter struct with the default values
 133:../Firmware/GD32VW55x_standard_peripheral/Source/gd32vw55x_cau.c ****     \param[in]  none
 134:../Firmware/GD32VW55x_standard_peripheral/Source/gd32vw55x_cau.c ****     \param[out] cau_context:
 135:../Firmware/GD32VW55x_standard_peripheral/Source/gd32vw55x_cau.c ****                   ctl_config: current configuration
 136:../Firmware/GD32VW55x_standard_peripheral/Source/gd32vw55x_cau.c ****                   iv_0_high: init vector 0 high
 137:../Firmware/GD32VW55x_standard_peripheral/Source/gd32vw55x_cau.c ****                   iv_0_low:  init vector 0 low
 138:../Firmware/GD32VW55x_standard_peripheral/Source/gd32vw55x_cau.c ****                   iv_1_high: init vector 1 high
 139:../Firmware/GD32VW55x_standard_peripheral/Source/gd32vw55x_cau.c ****                   iv_1_low:  init vector 1 low
 140:../Firmware/GD32VW55x_standard_peripheral/Source/gd32vw55x_cau.c ****                   key_0_high: key 0 high
 141:../Firmware/GD32VW55x_standard_peripheral/Source/gd32vw55x_cau.c ****                   key_0_low:  key 0 low
 142:../Firmware/GD32VW55x_standard_peripheral/Source/gd32vw55x_cau.c ****                   key_1_high: key 1 high
 143:../Firmware/GD32VW55x_standard_peripheral/Source/gd32vw55x_cau.c ****                   key_1_low:  key 1 low
 144:../Firmware/GD32VW55x_standard_peripheral/Source/gd32vw55x_cau.c ****                   key_2_high: key 2 high
 145:../Firmware/GD32VW55x_standard_peripheral/Source/gd32vw55x_cau.c ****                   key_2_low:  key 2 low
 146:../Firmware/GD32VW55x_standard_peripheral/Source/gd32vw55x_cau.c ****                   key_3_high: key 3 high
 147:../Firmware/GD32VW55x_standard_peripheral/Source/gd32vw55x_cau.c ****                   key_3_low:  key 3 low
 148:../Firmware/GD32VW55x_standard_peripheral/Source/gd32vw55x_cau.c ****                   gcmccmctxs[8]: GCM or CCM mode context switch
 149:../Firmware/GD32VW55x_standard_peripheral/Source/gd32vw55x_cau.c ****                   gcmctxs[8]: GCM mode context switch
 150:../Firmware/GD32VW55x_standard_peripheral/Source/gd32vw55x_cau.c ****     \retval     none
 151:../Firmware/GD32VW55x_standard_peripheral/Source/gd32vw55x_cau.c **** */
 152:../Firmware/GD32VW55x_standard_peripheral/Source/gd32vw55x_cau.c **** void cau_context_struct_para_init(cau_context_parameter_struct *cau_context)
 153:../Firmware/GD32VW55x_standard_peripheral/Source/gd32vw55x_cau.c **** {
 192              		.loc 1 153 1
 193              		.cfi_startproc
 194 0000 0111     		addi	sp,sp,-32
 195              		.cfi_def_cfa_offset 32
 196 0002 22CE     		sw	s0,28(sp)
 197              		.cfi_offset 8, -4
 198 0004 0010     		addi	s0,sp,32
 199              		.cfi_def_cfa 8, 0
 200 0006 2326A4FE 		sw	a0,-20(s0)
 154:../Firmware/GD32VW55x_standard_peripheral/Source/gd32vw55x_cau.c ****     cau_context->ctl_config = 0U;
 201              		.loc 1 154 29
 202 000a 8327C4FE 		lw	a5,-20(s0)
 203 000e 23A00700 		sw	zero,0(a5)
 155:../Firmware/GD32VW55x_standard_peripheral/Source/gd32vw55x_cau.c **** 
 156:../Firmware/GD32VW55x_standard_peripheral/Source/gd32vw55x_cau.c ****     /* set the vectors parameters with the default values */
 157:../Firmware/GD32VW55x_standard_peripheral/Source/gd32vw55x_cau.c ****     cau_context->iv_0_high  = 0U;
 204              		.loc 1 157 29
 205 0012 8327C4FE 		lw	a5,-20(s0)
 206 0016 23A20700 		sw	zero,4(a5)
 158:../Firmware/GD32VW55x_standard_peripheral/Source/gd32vw55x_cau.c ****     cau_context->iv_0_low   = 0U;
 207              		.loc 1 158 29
 208 001a 8327C4FE 		lw	a5,-20(s0)
 209 001e 23A40700 		sw	zero,8(a5)
 159:../Firmware/GD32VW55x_standard_peripheral/Source/gd32vw55x_cau.c ****     cau_context->iv_1_high  = 0U;
 210              		.loc 1 159 29
 211 0022 8327C4FE 		lw	a5,-20(s0)
 212 0026 23A60700 		sw	zero,12(a5)
 160:../Firmware/GD32VW55x_standard_peripheral/Source/gd32vw55x_cau.c ****     cau_context->iv_1_low   = 0U;
 213              		.loc 1 160 29
 214 002a 8327C4FE 		lw	a5,-20(s0)
 215 002e 23A80700 		sw	zero,16(a5)
 161:../Firmware/GD32VW55x_standard_peripheral/Source/gd32vw55x_cau.c **** 
 162:../Firmware/GD32VW55x_standard_peripheral/Source/gd32vw55x_cau.c ****     /* set the key parameters with the default values */
 163:../Firmware/GD32VW55x_standard_peripheral/Source/gd32vw55x_cau.c ****     cau_context->key_0_high = 0U;
 216              		.loc 1 163 29
 217 0032 8327C4FE 		lw	a5,-20(s0)
 218 0036 23AA0700 		sw	zero,20(a5)
 164:../Firmware/GD32VW55x_standard_peripheral/Source/gd32vw55x_cau.c ****     cau_context->key_0_low  = 0U;
 219              		.loc 1 164 29
 220 003a 8327C4FE 		lw	a5,-20(s0)
 221 003e 23AC0700 		sw	zero,24(a5)
 165:../Firmware/GD32VW55x_standard_peripheral/Source/gd32vw55x_cau.c ****     cau_context->key_1_high = 0U;
 222              		.loc 1 165 29
 223 0042 8327C4FE 		lw	a5,-20(s0)
 224 0046 23AE0700 		sw	zero,28(a5)
 166:../Firmware/GD32VW55x_standard_peripheral/Source/gd32vw55x_cau.c ****     cau_context->key_1_low  = 0U;
 225              		.loc 1 166 29
 226 004a 8327C4FE 		lw	a5,-20(s0)
 227 004e 23A00702 		sw	zero,32(a5)
 167:../Firmware/GD32VW55x_standard_peripheral/Source/gd32vw55x_cau.c ****     cau_context->key_2_high = 0U;
 228              		.loc 1 167 29
 229 0052 8327C4FE 		lw	a5,-20(s0)
 230 0056 23A20702 		sw	zero,36(a5)
 168:../Firmware/GD32VW55x_standard_peripheral/Source/gd32vw55x_cau.c ****     cau_context->key_2_low  = 0U;
 231              		.loc 1 168 29
 232 005a 8327C4FE 		lw	a5,-20(s0)
 233 005e 23A40702 		sw	zero,40(a5)
 169:../Firmware/GD32VW55x_standard_peripheral/Source/gd32vw55x_cau.c ****     cau_context->key_3_high = 0U;
 234              		.loc 1 169 29
 235 0062 8327C4FE 		lw	a5,-20(s0)
 236 0066 23A60702 		sw	zero,44(a5)
 170:../Firmware/GD32VW55x_standard_peripheral/Source/gd32vw55x_cau.c ****     cau_context->key_3_low  = 0U;
 237              		.loc 1 170 29
 238 006a 8327C4FE 		lw	a5,-20(s0)
 239 006e 23A80702 		sw	zero,48(a5)
 171:../Firmware/GD32VW55x_standard_peripheral/Source/gd32vw55x_cau.c **** 
 172:../Firmware/GD32VW55x_standard_peripheral/Source/gd32vw55x_cau.c ****     /* set the context switch with the default values */
 173:../Firmware/GD32VW55x_standard_peripheral/Source/gd32vw55x_cau.c ****     cau_context->gcmccmctxs[0] = 0U;
 240              		.loc 1 173 32
 241 0072 8327C4FE 		lw	a5,-20(s0)
 242 0076 23AA0702 		sw	zero,52(a5)
 174:../Firmware/GD32VW55x_standard_peripheral/Source/gd32vw55x_cau.c ****     cau_context->gcmccmctxs[1] = 0U;
 243              		.loc 1 174 32
 244 007a 8327C4FE 		lw	a5,-20(s0)
 245 007e 23AC0702 		sw	zero,56(a5)
 175:../Firmware/GD32VW55x_standard_peripheral/Source/gd32vw55x_cau.c ****     cau_context->gcmccmctxs[2] = 0U;
 246              		.loc 1 175 32
 247 0082 8327C4FE 		lw	a5,-20(s0)
 248 0086 23AE0702 		sw	zero,60(a5)
 176:../Firmware/GD32VW55x_standard_peripheral/Source/gd32vw55x_cau.c ****     cau_context->gcmccmctxs[3] = 0U;
 249              		.loc 1 176 32
 250 008a 8327C4FE 		lw	a5,-20(s0)
 251 008e 23A00704 		sw	zero,64(a5)
 177:../Firmware/GD32VW55x_standard_peripheral/Source/gd32vw55x_cau.c ****     cau_context->gcmccmctxs[4] = 0U;
 252              		.loc 1 177 32
 253 0092 8327C4FE 		lw	a5,-20(s0)
 254 0096 23A20704 		sw	zero,68(a5)
 178:../Firmware/GD32VW55x_standard_peripheral/Source/gd32vw55x_cau.c ****     cau_context->gcmccmctxs[5] = 0U;
 255              		.loc 1 178 32
 256 009a 8327C4FE 		lw	a5,-20(s0)
 257 009e 23A40704 		sw	zero,72(a5)
 179:../Firmware/GD32VW55x_standard_peripheral/Source/gd32vw55x_cau.c ****     cau_context->gcmccmctxs[6] = 0U;
 258              		.loc 1 179 32
 259 00a2 8327C4FE 		lw	a5,-20(s0)
 260 00a6 23A60704 		sw	zero,76(a5)
 180:../Firmware/GD32VW55x_standard_peripheral/Source/gd32vw55x_cau.c ****     cau_context->gcmccmctxs[7] = 0U;
 261              		.loc 1 180 32
 262 00aa 8327C4FE 		lw	a5,-20(s0)
 263 00ae 23A80704 		sw	zero,80(a5)
 181:../Firmware/GD32VW55x_standard_peripheral/Source/gd32vw55x_cau.c **** 
 182:../Firmware/GD32VW55x_standard_peripheral/Source/gd32vw55x_cau.c ****     cau_context->gcmctxs[0] = 0U;
 264              		.loc 1 182 29
 265 00b2 8327C4FE 		lw	a5,-20(s0)
 266 00b6 23AA0704 		sw	zero,84(a5)
 183:../Firmware/GD32VW55x_standard_peripheral/Source/gd32vw55x_cau.c ****     cau_context->gcmctxs[1] = 0U;
 267              		.loc 1 183 29
 268 00ba 8327C4FE 		lw	a5,-20(s0)
 269 00be 23AC0704 		sw	zero,88(a5)
 184:../Firmware/GD32VW55x_standard_peripheral/Source/gd32vw55x_cau.c ****     cau_context->gcmctxs[2] = 0U;
 270              		.loc 1 184 29
 271 00c2 8327C4FE 		lw	a5,-20(s0)
 272 00c6 23AE0704 		sw	zero,92(a5)
 185:../Firmware/GD32VW55x_standard_peripheral/Source/gd32vw55x_cau.c ****     cau_context->gcmctxs[3] = 0U;
 273              		.loc 1 185 29
 274 00ca 8327C4FE 		lw	a5,-20(s0)
 275 00ce 23A00706 		sw	zero,96(a5)
 186:../Firmware/GD32VW55x_standard_peripheral/Source/gd32vw55x_cau.c ****     cau_context->gcmctxs[4] = 0U;
 276              		.loc 1 186 29
 277 00d2 8327C4FE 		lw	a5,-20(s0)
 278 00d6 23A20706 		sw	zero,100(a5)
 187:../Firmware/GD32VW55x_standard_peripheral/Source/gd32vw55x_cau.c ****     cau_context->gcmctxs[5] = 0U;
 279              		.loc 1 187 29
 280 00da 8327C4FE 		lw	a5,-20(s0)
 281 00de 23A40706 		sw	zero,104(a5)
 188:../Firmware/GD32VW55x_standard_peripheral/Source/gd32vw55x_cau.c ****     cau_context->gcmctxs[6] = 0U;
 282              		.loc 1 188 29
 283 00e2 8327C4FE 		lw	a5,-20(s0)
 284 00e6 23A60706 		sw	zero,108(a5)
 189:../Firmware/GD32VW55x_standard_peripheral/Source/gd32vw55x_cau.c ****     cau_context->gcmctxs[7] = 0U;
 285              		.loc 1 189 29
 286 00ea 8327C4FE 		lw	a5,-20(s0)
 287 00ee 23A80706 		sw	zero,112(a5)
 190:../Firmware/GD32VW55x_standard_peripheral/Source/gd32vw55x_cau.c **** }
 288              		.loc 1 190 1
 289 00f2 0100     		nop
 290 00f4 7244     		lw	s0,28(sp)
 291              		.cfi_restore 8
 292              		.cfi_def_cfa 2, 32
 293 00f6 0561     		addi	sp,sp,32
 294              		.cfi_def_cfa_offset 0
 295 00f8 8280     		jr	ra
 296              		.cfi_endproc
 297              	.LFE351:
 299              		.section	.text.cau_enable,"ax",@progbits
 300              		.align	1
 301              		.globl	cau_enable
 303              	cau_enable:
 304              	.LFB352:
 191:../Firmware/GD32VW55x_standard_peripheral/Source/gd32vw55x_cau.c **** 
 192:../Firmware/GD32VW55x_standard_peripheral/Source/gd32vw55x_cau.c **** /*!
 193:../Firmware/GD32VW55x_standard_peripheral/Source/gd32vw55x_cau.c ****     \brief      enable the CAU peripheral
 194:../Firmware/GD32VW55x_standard_peripheral/Source/gd32vw55x_cau.c ****     \param[in]  none
 195:../Firmware/GD32VW55x_standard_peripheral/Source/gd32vw55x_cau.c ****     \param[out] none
 196:../Firmware/GD32VW55x_standard_peripheral/Source/gd32vw55x_cau.c ****     \retval     none
 197:../Firmware/GD32VW55x_standard_peripheral/Source/gd32vw55x_cau.c **** */
 198:../Firmware/GD32VW55x_standard_peripheral/Source/gd32vw55x_cau.c **** void cau_enable(void)
 199:../Firmware/GD32VW55x_standard_peripheral/Source/gd32vw55x_cau.c **** {
 305              		.loc 1 199 1
 306              		.cfi_startproc
 307 0000 4111     		addi	sp,sp,-16
 308              		.cfi_def_cfa_offset 16
 309 0002 22C6     		sw	s0,12(sp)
 310              		.cfi_offset 8, -4
 311 0004 0008     		addi	s0,sp,16
 312              		.cfi_def_cfa 8, 0
 200:../Firmware/GD32VW55x_standard_peripheral/Source/gd32vw55x_cau.c ****     /* enable the CAU processor */
 201:../Firmware/GD32VW55x_standard_peripheral/Source/gd32vw55x_cau.c ****     CAU_CTL |= CAU_CTL_CAUEN;
 313              		.loc 1 201 13
 314 0006 B707064C 		li	a5,1275461632
 315 000a 9443     		lw	a3,0(a5)
 316 000c B707064C 		li	a5,1275461632
 317 0010 2167     		li	a4,32768
 318 0012 558F     		or	a4,a3,a4
 319 0014 98C3     		sw	a4,0(a5)
 202:../Firmware/GD32VW55x_standard_peripheral/Source/gd32vw55x_cau.c **** }
 320              		.loc 1 202 1
 321 0016 0100     		nop
 322 0018 3244     		lw	s0,12(sp)
 323              		.cfi_restore 8
 324              		.cfi_def_cfa 2, 16
 325 001a 4101     		addi	sp,sp,16
 326              		.cfi_def_cfa_offset 0
 327 001c 8280     		jr	ra
 328              		.cfi_endproc
 329              	.LFE352:
 331              		.section	.text.cau_disable,"ax",@progbits
 332              		.align	1
 333              		.globl	cau_disable
 335              	cau_disable:
 336              	.LFB353:
 203:../Firmware/GD32VW55x_standard_peripheral/Source/gd32vw55x_cau.c **** 
 204:../Firmware/GD32VW55x_standard_peripheral/Source/gd32vw55x_cau.c **** /*!
 205:../Firmware/GD32VW55x_standard_peripheral/Source/gd32vw55x_cau.c ****     \brief      disable the CAU peripheral
 206:../Firmware/GD32VW55x_standard_peripheral/Source/gd32vw55x_cau.c ****     \param[in]  none
 207:../Firmware/GD32VW55x_standard_peripheral/Source/gd32vw55x_cau.c ****     \param[out] none
 208:../Firmware/GD32VW55x_standard_peripheral/Source/gd32vw55x_cau.c ****     \retval     none
 209:../Firmware/GD32VW55x_standard_peripheral/Source/gd32vw55x_cau.c **** */
 210:../Firmware/GD32VW55x_standard_peripheral/Source/gd32vw55x_cau.c **** void cau_disable(void)
 211:../Firmware/GD32VW55x_standard_peripheral/Source/gd32vw55x_cau.c **** {
 337              		.loc 1 211 1
 338              		.cfi_startproc
 339 0000 4111     		addi	sp,sp,-16
 340              		.cfi_def_cfa_offset 16
 341 0002 22C6     		sw	s0,12(sp)
 342              		.cfi_offset 8, -4
 343 0004 0008     		addi	s0,sp,16
 344              		.cfi_def_cfa 8, 0
 212:../Firmware/GD32VW55x_standard_peripheral/Source/gd32vw55x_cau.c ****     /* disable the CAU processor */
 213:../Firmware/GD32VW55x_standard_peripheral/Source/gd32vw55x_cau.c ****     CAU_CTL &= ~CAU_CTL_CAUEN;
 345              		.loc 1 213 13
 346 0006 B707064C 		li	a5,1275461632
 347 000a 9443     		lw	a3,0(a5)
 348 000c B707064C 		li	a5,1275461632
 349 0010 6177     		li	a4,-32768
 350 0012 7D17     		addi	a4,a4,-1
 351 0014 758F     		and	a4,a3,a4
 352 0016 98C3     		sw	a4,0(a5)
 214:../Firmware/GD32VW55x_standard_peripheral/Source/gd32vw55x_cau.c **** }
 353              		.loc 1 214 1
 354 0018 0100     		nop
 355 001a 3244     		lw	s0,12(sp)
 356              		.cfi_restore 8
 357              		.cfi_def_cfa 2, 16
 358 001c 4101     		addi	sp,sp,16
 359              		.cfi_def_cfa_offset 0
 360 001e 8280     		jr	ra
 361              		.cfi_endproc
 362              	.LFE353:
 364              		.section	.text.cau_dma_enable,"ax",@progbits
 365              		.align	1
 366              		.globl	cau_dma_enable
 368              	cau_dma_enable:
 369              	.LFB354:
 215:../Firmware/GD32VW55x_standard_peripheral/Source/gd32vw55x_cau.c **** 
 216:../Firmware/GD32VW55x_standard_peripheral/Source/gd32vw55x_cau.c **** /*!
 217:../Firmware/GD32VW55x_standard_peripheral/Source/gd32vw55x_cau.c ****     \brief      enable the CAU DMA interface
 218:../Firmware/GD32VW55x_standard_peripheral/Source/gd32vw55x_cau.c ****     \param[in]  dma_req: specify the CAU DMA transfer request to be enabled
 219:../Firmware/GD32VW55x_standard_peripheral/Source/gd32vw55x_cau.c ****                 one or more parameters can be selected which are shown as below:
 220:../Firmware/GD32VW55x_standard_peripheral/Source/gd32vw55x_cau.c ****       \arg        CAU_DMA_INFIFO: DMA for incoming(Rx) data transfer
 221:../Firmware/GD32VW55x_standard_peripheral/Source/gd32vw55x_cau.c ****       \arg        CAU_DMA_OUTFIFO: DMA for outgoing(Tx) data transfer
 222:../Firmware/GD32VW55x_standard_peripheral/Source/gd32vw55x_cau.c ****     \param[out] none
 223:../Firmware/GD32VW55x_standard_peripheral/Source/gd32vw55x_cau.c ****     \retval     none
 224:../Firmware/GD32VW55x_standard_peripheral/Source/gd32vw55x_cau.c **** */
 225:../Firmware/GD32VW55x_standard_peripheral/Source/gd32vw55x_cau.c **** void cau_dma_enable(uint32_t dma_req)
 226:../Firmware/GD32VW55x_standard_peripheral/Source/gd32vw55x_cau.c **** {
 370              		.loc 1 226 1
 371              		.cfi_startproc
 372 0000 0111     		addi	sp,sp,-32
 373              		.cfi_def_cfa_offset 32
 374 0002 22CE     		sw	s0,28(sp)
 375              		.cfi_offset 8, -4
 376 0004 0010     		addi	s0,sp,32
 377              		.cfi_def_cfa 8, 0
 378 0006 2326A4FE 		sw	a0,-20(s0)
 227:../Firmware/GD32VW55x_standard_peripheral/Source/gd32vw55x_cau.c ****     /* enable the selected CAU DMA request */
 228:../Firmware/GD32VW55x_standard_peripheral/Source/gd32vw55x_cau.c ****     CAU_DMAEN |= dma_req;
 379              		.loc 1 228 15
 380 000a B707064C 		li	a5,1275461632
 381 000e C107     		addi	a5,a5,16
 382 0010 9443     		lw	a3,0(a5)
 383 0012 B707064C 		li	a5,1275461632
 384 0016 C107     		addi	a5,a5,16
 385 0018 0327C4FE 		lw	a4,-20(s0)
 386 001c 558F     		or	a4,a3,a4
 387 001e 98C3     		sw	a4,0(a5)
 229:../Firmware/GD32VW55x_standard_peripheral/Source/gd32vw55x_cau.c **** }
 388              		.loc 1 229 1
 389 0020 0100     		nop
 390 0022 7244     		lw	s0,28(sp)
 391              		.cfi_restore 8
 392              		.cfi_def_cfa 2, 32
 393 0024 0561     		addi	sp,sp,32
 394              		.cfi_def_cfa_offset 0
 395 0026 8280     		jr	ra
 396              		.cfi_endproc
 397              	.LFE354:
 399              		.section	.text.cau_dma_disable,"ax",@progbits
 400              		.align	1
 401              		.globl	cau_dma_disable
 403              	cau_dma_disable:
 404              	.LFB355:
 230:../Firmware/GD32VW55x_standard_peripheral/Source/gd32vw55x_cau.c **** 
 231:../Firmware/GD32VW55x_standard_peripheral/Source/gd32vw55x_cau.c **** /*!
 232:../Firmware/GD32VW55x_standard_peripheral/Source/gd32vw55x_cau.c ****     \brief      disable the CAU DMA interface
 233:../Firmware/GD32VW55x_standard_peripheral/Source/gd32vw55x_cau.c ****     \param[in]  dma_req: specify the CAU DMA transfer request to be disabled
 234:../Firmware/GD32VW55x_standard_peripheral/Source/gd32vw55x_cau.c ****                 one or more parameters can be selected which are shown as below:
 235:../Firmware/GD32VW55x_standard_peripheral/Source/gd32vw55x_cau.c ****       \arg        CAU_DMA_INFIFO: DMA for incoming(Rx) data transfer
 236:../Firmware/GD32VW55x_standard_peripheral/Source/gd32vw55x_cau.c ****       \arg        CAU_DMA_OUTFIFO: DMA for outgoing(Tx) data transfer
 237:../Firmware/GD32VW55x_standard_peripheral/Source/gd32vw55x_cau.c ****     \param[out] none
 238:../Firmware/GD32VW55x_standard_peripheral/Source/gd32vw55x_cau.c ****     \retval     none
 239:../Firmware/GD32VW55x_standard_peripheral/Source/gd32vw55x_cau.c **** */
 240:../Firmware/GD32VW55x_standard_peripheral/Source/gd32vw55x_cau.c **** void cau_dma_disable(uint32_t dma_req)
 241:../Firmware/GD32VW55x_standard_peripheral/Source/gd32vw55x_cau.c **** {
 405              		.loc 1 241 1
 406              		.cfi_startproc
 407 0000 0111     		addi	sp,sp,-32
 408              		.cfi_def_cfa_offset 32
 409 0002 22CE     		sw	s0,28(sp)
 410              		.cfi_offset 8, -4
 411 0004 0010     		addi	s0,sp,32
 412              		.cfi_def_cfa 8, 0
 413 0006 2326A4FE 		sw	a0,-20(s0)
 242:../Firmware/GD32VW55x_standard_peripheral/Source/gd32vw55x_cau.c ****     /* disable the selected CAU DMA request */
 243:../Firmware/GD32VW55x_standard_peripheral/Source/gd32vw55x_cau.c ****     CAU_DMAEN &= ~(dma_req);
 414              		.loc 1 243 15
 415 000a B707064C 		li	a5,1275461632
 416 000e C107     		addi	a5,a5,16
 417 0010 9443     		lw	a3,0(a5)
 418              		.loc 1 243 18
 419 0012 8327C4FE 		lw	a5,-20(s0)
 420 0016 13C7F7FF 		not	a4,a5
 421              		.loc 1 243 15
 422 001a B707064C 		li	a5,1275461632
 423 001e C107     		addi	a5,a5,16
 424 0020 758F     		and	a4,a3,a4
 425 0022 98C3     		sw	a4,0(a5)
 244:../Firmware/GD32VW55x_standard_peripheral/Source/gd32vw55x_cau.c **** }
 426              		.loc 1 244 1
 427 0024 0100     		nop
 428 0026 7244     		lw	s0,28(sp)
 429              		.cfi_restore 8
 430              		.cfi_def_cfa 2, 32
 431 0028 0561     		addi	sp,sp,32
 432              		.cfi_def_cfa_offset 0
 433 002a 8280     		jr	ra
 434              		.cfi_endproc
 435              	.LFE355:
 437              		.section	.text.cau_init,"ax",@progbits
 438              		.align	1
 439              		.globl	cau_init
 441              	cau_init:
 442              	.LFB356:
 245:../Firmware/GD32VW55x_standard_peripheral/Source/gd32vw55x_cau.c **** 
 246:../Firmware/GD32VW55x_standard_peripheral/Source/gd32vw55x_cau.c **** /*!
 247:../Firmware/GD32VW55x_standard_peripheral/Source/gd32vw55x_cau.c ****     \brief      initialize the CAU peripheral
 248:../Firmware/GD32VW55x_standard_peripheral/Source/gd32vw55x_cau.c ****     \param[in]  alg_dir: algorithm direction
 249:../Firmware/GD32VW55x_standard_peripheral/Source/gd32vw55x_cau.c ****                 only one parameter can be selected which is shown as below:
 250:../Firmware/GD32VW55x_standard_peripheral/Source/gd32vw55x_cau.c ****       \arg        CAU_ENCRYPT: encrypt
 251:../Firmware/GD32VW55x_standard_peripheral/Source/gd32vw55x_cau.c ****       \arg        CAU_DECRYPT: decrypt
 252:../Firmware/GD32VW55x_standard_peripheral/Source/gd32vw55x_cau.c ****     \param[in]  algo_mode: algorithm mode selection
 253:../Firmware/GD32VW55x_standard_peripheral/Source/gd32vw55x_cau.c ****                 only one parameter can be selected which is shown as below:
 254:../Firmware/GD32VW55x_standard_peripheral/Source/gd32vw55x_cau.c ****       \arg        CAU_MODE_TDES_ECB: TDES-ECB (3DES Electronic codebook)
 255:../Firmware/GD32VW55x_standard_peripheral/Source/gd32vw55x_cau.c ****       \arg        CAU_MODE_TDES_CBC: TDES-CBC (3DES Cipher block chaining)
 256:../Firmware/GD32VW55x_standard_peripheral/Source/gd32vw55x_cau.c ****       \arg        CAU_MODE_DES_ECB: DES-ECB (simple DES Electronic codebook)
 257:../Firmware/GD32VW55x_standard_peripheral/Source/gd32vw55x_cau.c ****       \arg        CAU_MODE_DES_CBC: DES-CBC (simple DES Cipher block chaining)
 258:../Firmware/GD32VW55x_standard_peripheral/Source/gd32vw55x_cau.c ****       \arg        CAU_MODE_AES_ECB: AES-ECB (AES Electronic codebook)
 259:../Firmware/GD32VW55x_standard_peripheral/Source/gd32vw55x_cau.c ****       \arg        CAU_MODE_AES_CBC: AES-CBC (AES Cipher block chaining)
 260:../Firmware/GD32VW55x_standard_peripheral/Source/gd32vw55x_cau.c ****       \arg        CAU_MODE_AES_CTR: AES-CTR (AES counter mode)
 261:../Firmware/GD32VW55x_standard_peripheral/Source/gd32vw55x_cau.c ****       \arg        CAU_MODE_AES_KEY: AES decryption key preparation mode
 262:../Firmware/GD32VW55x_standard_peripheral/Source/gd32vw55x_cau.c ****       \arg        CAU_MODE_AES_GCM: AES-GCM (AES Galois/counter mode)
 263:../Firmware/GD32VW55x_standard_peripheral/Source/gd32vw55x_cau.c ****       \arg        CAU_MODE_AES_CCM: AES-CCM (AES combined cipher machine mode)
 264:../Firmware/GD32VW55x_standard_peripheral/Source/gd32vw55x_cau.c ****       \arg        CAU_MODE_AES_CFB: AES-CFB (cipher feedback mode)
 265:../Firmware/GD32VW55x_standard_peripheral/Source/gd32vw55x_cau.c ****       \arg        CAU_MODE_AES_OFB: AES-OFB (output feedback mode)
 266:../Firmware/GD32VW55x_standard_peripheral/Source/gd32vw55x_cau.c ****     \param[in]  swapping: data swapping selection
 267:../Firmware/GD32VW55x_standard_peripheral/Source/gd32vw55x_cau.c ****                 only one parameter can be selected which is shown as below:
 268:../Firmware/GD32VW55x_standard_peripheral/Source/gd32vw55x_cau.c ****       \arg        CAU_SWAPPING_32BIT: no swapping
 269:../Firmware/GD32VW55x_standard_peripheral/Source/gd32vw55x_cau.c ****       \arg        CAU_SWAPPING_16BIT: half-word swapping
 270:../Firmware/GD32VW55x_standard_peripheral/Source/gd32vw55x_cau.c ****       \arg        CAU_SWAPPING_8BIT: bytes swapping
 271:../Firmware/GD32VW55x_standard_peripheral/Source/gd32vw55x_cau.c ****       \arg        CAU_SWAPPING_1BIT: bit swapping
 272:../Firmware/GD32VW55x_standard_peripheral/Source/gd32vw55x_cau.c ****     \param[out] none
 273:../Firmware/GD32VW55x_standard_peripheral/Source/gd32vw55x_cau.c ****     \retval     none
 274:../Firmware/GD32VW55x_standard_peripheral/Source/gd32vw55x_cau.c **** */
 275:../Firmware/GD32VW55x_standard_peripheral/Source/gd32vw55x_cau.c **** void cau_init(uint32_t alg_dir, uint32_t algo_mode, uint32_t swapping)
 276:../Firmware/GD32VW55x_standard_peripheral/Source/gd32vw55x_cau.c **** {
 443              		.loc 1 276 1
 444              		.cfi_startproc
 445 0000 0111     		addi	sp,sp,-32
 446              		.cfi_def_cfa_offset 32
 447 0002 22CE     		sw	s0,28(sp)
 448              		.cfi_offset 8, -4
 449 0004 0010     		addi	s0,sp,32
 450              		.cfi_def_cfa 8, 0
 451 0006 2326A4FE 		sw	a0,-20(s0)
 452 000a 2324B4FE 		sw	a1,-24(s0)
 453 000e 2322C4FE 		sw	a2,-28(s0)
 277:../Firmware/GD32VW55x_standard_peripheral/Source/gd32vw55x_cau.c ****     /* select algorithm mode */
 278:../Firmware/GD32VW55x_standard_peripheral/Source/gd32vw55x_cau.c ****     CAU_CTL &= ~CAU_CTL_ALGM;
 454              		.loc 1 278 13
 455 0012 B707064C 		li	a5,1275461632
 456 0016 9443     		lw	a3,0(a5)
 457 0018 B707064C 		li	a5,1275461632
 458 001c 3707F8FF 		li	a4,-524288
 459 0020 130777FC 		addi	a4,a4,-57
 460 0024 758F     		and	a4,a3,a4
 461 0026 98C3     		sw	a4,0(a5)
 279:../Firmware/GD32VW55x_standard_peripheral/Source/gd32vw55x_cau.c ****     CAU_CTL |= algo_mode;
 462              		.loc 1 279 13
 463 0028 B707064C 		li	a5,1275461632
 464 002c 9443     		lw	a3,0(a5)
 465 002e B707064C 		li	a5,1275461632
 466 0032 032784FE 		lw	a4,-24(s0)
 467 0036 558F     		or	a4,a3,a4
 468 0038 98C3     		sw	a4,0(a5)
 280:../Firmware/GD32VW55x_standard_peripheral/Source/gd32vw55x_cau.c **** 
 281:../Firmware/GD32VW55x_standard_peripheral/Source/gd32vw55x_cau.c ****     /* select data swapping */
 282:../Firmware/GD32VW55x_standard_peripheral/Source/gd32vw55x_cau.c ****     CAU_CTL &= ~CAU_CTL_DATAM;
 469              		.loc 1 282 13
 470 003a B707064C 		li	a5,1275461632
 471 003e 9843     		lw	a4,0(a5)
 472 0040 B707064C 		li	a5,1275461632
 473 0044 1377F7F3 		andi	a4,a4,-193
 474 0048 98C3     		sw	a4,0(a5)
 283:../Firmware/GD32VW55x_standard_peripheral/Source/gd32vw55x_cau.c ****     CAU_CTL |= swapping;
 475              		.loc 1 283 13
 476 004a B707064C 		li	a5,1275461632
 477 004e 9443     		lw	a3,0(a5)
 478 0050 B707064C 		li	a5,1275461632
 479 0054 032744FE 		lw	a4,-28(s0)
 480 0058 558F     		or	a4,a3,a4
 481 005a 98C3     		sw	a4,0(a5)
 284:../Firmware/GD32VW55x_standard_peripheral/Source/gd32vw55x_cau.c **** 
 285:../Firmware/GD32VW55x_standard_peripheral/Source/gd32vw55x_cau.c ****     /* select algorithm direction */
 286:../Firmware/GD32VW55x_standard_peripheral/Source/gd32vw55x_cau.c ****     CAU_CTL &= ~CAU_CTL_CAUDIR;
 482              		.loc 1 286 13
 483 005c B707064C 		li	a5,1275461632
 484 0060 9843     		lw	a4,0(a5)
 485 0062 B707064C 		li	a5,1275461632
 486 0066 6D9B     		andi	a4,a4,-5
 487 0068 98C3     		sw	a4,0(a5)
 287:../Firmware/GD32VW55x_standard_peripheral/Source/gd32vw55x_cau.c ****     CAU_CTL |= alg_dir;
 488              		.loc 1 287 13
 489 006a B707064C 		li	a5,1275461632
 490 006e 9443     		lw	a3,0(a5)
 491 0070 B707064C 		li	a5,1275461632
 492 0074 0327C4FE 		lw	a4,-20(s0)
 493 0078 558F     		or	a4,a3,a4
 494 007a 98C3     		sw	a4,0(a5)
 288:../Firmware/GD32VW55x_standard_peripheral/Source/gd32vw55x_cau.c **** }
 495              		.loc 1 288 1
 496 007c 0100     		nop
 497 007e 7244     		lw	s0,28(sp)
 498              		.cfi_restore 8
 499              		.cfi_def_cfa 2, 32
 500 0080 0561     		addi	sp,sp,32
 501              		.cfi_def_cfa_offset 0
 502 0082 8280     		jr	ra
 503              		.cfi_endproc
 504              	.LFE356:
 506              		.section	.text.cau_aes_keysize_config,"ax",@progbits
 507              		.align	1
 508              		.globl	cau_aes_keysize_config
 510              	cau_aes_keysize_config:
 511              	.LFB357:
 289:../Firmware/GD32VW55x_standard_peripheral/Source/gd32vw55x_cau.c **** 
 290:../Firmware/GD32VW55x_standard_peripheral/Source/gd32vw55x_cau.c **** /*!
 291:../Firmware/GD32VW55x_standard_peripheral/Source/gd32vw55x_cau.c ****     \brief      configure key size if use AES algorithm
 292:../Firmware/GD32VW55x_standard_peripheral/Source/gd32vw55x_cau.c ****     \param[in]  key_size: key length selection when aes mode
 293:../Firmware/GD32VW55x_standard_peripheral/Source/gd32vw55x_cau.c ****                 only one parameter can be selected which is shown as below:
 294:../Firmware/GD32VW55x_standard_peripheral/Source/gd32vw55x_cau.c ****       \arg        CAU_KEYSIZE_128BIT: 128 bit key length
 295:../Firmware/GD32VW55x_standard_peripheral/Source/gd32vw55x_cau.c ****       \arg        CAU_KEYSIZE_192BIT: 192 bit key length
 296:../Firmware/GD32VW55x_standard_peripheral/Source/gd32vw55x_cau.c ****       \arg        CAU_KEYSIZE_256BIT: 256 bit key length
 297:../Firmware/GD32VW55x_standard_peripheral/Source/gd32vw55x_cau.c ****     \param[out] none
 298:../Firmware/GD32VW55x_standard_peripheral/Source/gd32vw55x_cau.c ****     \retval     none
 299:../Firmware/GD32VW55x_standard_peripheral/Source/gd32vw55x_cau.c **** */
 300:../Firmware/GD32VW55x_standard_peripheral/Source/gd32vw55x_cau.c **** void cau_aes_keysize_config(uint32_t key_size)
 301:../Firmware/GD32VW55x_standard_peripheral/Source/gd32vw55x_cau.c **** {
 512              		.loc 1 301 1
 513              		.cfi_startproc
 514 0000 0111     		addi	sp,sp,-32
 515              		.cfi_def_cfa_offset 32
 516 0002 22CE     		sw	s0,28(sp)
 517              		.cfi_offset 8, -4
 518 0004 0010     		addi	s0,sp,32
 519              		.cfi_def_cfa 8, 0
 520 0006 2326A4FE 		sw	a0,-20(s0)
 302:../Firmware/GD32VW55x_standard_peripheral/Source/gd32vw55x_cau.c ****     CAU_CTL &= ~CAU_CTL_KEYM;
 521              		.loc 1 302 13
 522 000a B707064C 		li	a5,1275461632
 523 000e 9843     		lw	a4,0(a5)
 524 0010 B707064C 		li	a5,1275461632
 525 0014 1377F7CF 		andi	a4,a4,-769
 526 0018 98C3     		sw	a4,0(a5)
 303:../Firmware/GD32VW55x_standard_peripheral/Source/gd32vw55x_cau.c ****     CAU_CTL |= key_size;
 527              		.loc 1 303 13
 528 001a B707064C 		li	a5,1275461632
 529 001e 9443     		lw	a3,0(a5)
 530 0020 B707064C 		li	a5,1275461632
 531 0024 0327C4FE 		lw	a4,-20(s0)
 532 0028 558F     		or	a4,a3,a4
 533 002a 98C3     		sw	a4,0(a5)
 304:../Firmware/GD32VW55x_standard_peripheral/Source/gd32vw55x_cau.c **** }
 534              		.loc 1 304 1
 535 002c 0100     		nop
 536 002e 7244     		lw	s0,28(sp)
 537              		.cfi_restore 8
 538              		.cfi_def_cfa 2, 32
 539 0030 0561     		addi	sp,sp,32
 540              		.cfi_def_cfa_offset 0
 541 0032 8280     		jr	ra
 542              		.cfi_endproc
 543              	.LFE357:
 545              		.section	.text.cau_key_init,"ax",@progbits
 546              		.align	1
 547              		.globl	cau_key_init
 549              	cau_key_init:
 550              	.LFB358:
 305:../Firmware/GD32VW55x_standard_peripheral/Source/gd32vw55x_cau.c **** 
 306:../Firmware/GD32VW55x_standard_peripheral/Source/gd32vw55x_cau.c **** /*!
 307:../Firmware/GD32VW55x_standard_peripheral/Source/gd32vw55x_cau.c ****     \brief      initialize the key parameters
 308:../Firmware/GD32VW55x_standard_peripheral/Source/gd32vw55x_cau.c ****     \param[in]  key_initpara: key init parameter struct
 309:../Firmware/GD32VW55x_standard_peripheral/Source/gd32vw55x_cau.c ****                   key_0_high: key 0 high
 310:../Firmware/GD32VW55x_standard_peripheral/Source/gd32vw55x_cau.c ****                   key_0_low:  key 0 low
 311:../Firmware/GD32VW55x_standard_peripheral/Source/gd32vw55x_cau.c ****                   key_1_high: key 1 high
 312:../Firmware/GD32VW55x_standard_peripheral/Source/gd32vw55x_cau.c ****                   key_1_low:  key 1 low
 313:../Firmware/GD32VW55x_standard_peripheral/Source/gd32vw55x_cau.c ****                   key_2_high: key 2 high
 314:../Firmware/GD32VW55x_standard_peripheral/Source/gd32vw55x_cau.c ****                   key_2_low:  key 2 low
 315:../Firmware/GD32VW55x_standard_peripheral/Source/gd32vw55x_cau.c ****                   key_3_high: key 3 high
 316:../Firmware/GD32VW55x_standard_peripheral/Source/gd32vw55x_cau.c ****                   key_3_low:  key 3 low
 317:../Firmware/GD32VW55x_standard_peripheral/Source/gd32vw55x_cau.c ****     \param[out] none
 318:../Firmware/GD32VW55x_standard_peripheral/Source/gd32vw55x_cau.c ****     \retval     none
 319:../Firmware/GD32VW55x_standard_peripheral/Source/gd32vw55x_cau.c **** */
 320:../Firmware/GD32VW55x_standard_peripheral/Source/gd32vw55x_cau.c **** void cau_key_init(cau_key_parameter_struct *key_initpara)
 321:../Firmware/GD32VW55x_standard_peripheral/Source/gd32vw55x_cau.c **** {
 551              		.loc 1 321 1
 552              		.cfi_startproc
 553 0000 0111     		addi	sp,sp,-32
 554              		.cfi_def_cfa_offset 32
 555 0002 22CE     		sw	s0,28(sp)
 556              		.cfi_offset 8, -4
 557 0004 0010     		addi	s0,sp,32
 558              		.cfi_def_cfa 8, 0
 559 0006 2326A4FE 		sw	a0,-20(s0)
 322:../Firmware/GD32VW55x_standard_peripheral/Source/gd32vw55x_cau.c ****     CAU_KEY0H = key_initpara->key_0_high;
 560              		.loc 1 322 5
 561 000a B707064C 		li	a5,1275461632
 562 000e 93870702 		addi	a5,a5,32
 563              		.loc 1 322 29
 564 0012 0327C4FE 		lw	a4,-20(s0)
 565 0016 1843     		lw	a4,0(a4)
 566              		.loc 1 322 15
 567 0018 98C3     		sw	a4,0(a5)
 323:../Firmware/GD32VW55x_standard_peripheral/Source/gd32vw55x_cau.c ****     CAU_KEY0L = key_initpara->key_0_low;
 568              		.loc 1 323 5
 569 001a B707064C 		li	a5,1275461632
 570 001e 93874702 		addi	a5,a5,36
 571              		.loc 1 323 29
 572 0022 0327C4FE 		lw	a4,-20(s0)
 573 0026 5843     		lw	a4,4(a4)
 574              		.loc 1 323 15
 575 0028 98C3     		sw	a4,0(a5)
 324:../Firmware/GD32VW55x_standard_peripheral/Source/gd32vw55x_cau.c ****     CAU_KEY1H = key_initpara->key_1_high;
 576              		.loc 1 324 5
 577 002a B707064C 		li	a5,1275461632
 578 002e 93878702 		addi	a5,a5,40
 579              		.loc 1 324 29
 580 0032 0327C4FE 		lw	a4,-20(s0)
 581 0036 1847     		lw	a4,8(a4)
 582              		.loc 1 324 15
 583 0038 98C3     		sw	a4,0(a5)
 325:../Firmware/GD32VW55x_standard_peripheral/Source/gd32vw55x_cau.c ****     CAU_KEY1L = key_initpara->key_1_low;
 584              		.loc 1 325 5
 585 003a B707064C 		li	a5,1275461632
 586 003e 9387C702 		addi	a5,a5,44
 587              		.loc 1 325 29
 588 0042 0327C4FE 		lw	a4,-20(s0)
 589 0046 5847     		lw	a4,12(a4)
 590              		.loc 1 325 15
 591 0048 98C3     		sw	a4,0(a5)
 326:../Firmware/GD32VW55x_standard_peripheral/Source/gd32vw55x_cau.c ****     CAU_KEY2H = key_initpara->key_2_high;
 592              		.loc 1 326 5
 593 004a B707064C 		li	a5,1275461632
 594 004e 93870703 		addi	a5,a5,48
 595              		.loc 1 326 29
 596 0052 0327C4FE 		lw	a4,-20(s0)
 597 0056 184B     		lw	a4,16(a4)
 598              		.loc 1 326 15
 599 0058 98C3     		sw	a4,0(a5)
 327:../Firmware/GD32VW55x_standard_peripheral/Source/gd32vw55x_cau.c ****     CAU_KEY2L = key_initpara->key_2_low;
 600              		.loc 1 327 5
 601 005a B707064C 		li	a5,1275461632
 602 005e 93874703 		addi	a5,a5,52
 603              		.loc 1 327 29
 604 0062 0327C4FE 		lw	a4,-20(s0)
 605 0066 584B     		lw	a4,20(a4)
 606              		.loc 1 327 15
 607 0068 98C3     		sw	a4,0(a5)
 328:../Firmware/GD32VW55x_standard_peripheral/Source/gd32vw55x_cau.c ****     CAU_KEY3H = key_initpara->key_3_high;
 608              		.loc 1 328 5
 609 006a B707064C 		li	a5,1275461632
 610 006e 93878703 		addi	a5,a5,56
 611              		.loc 1 328 29
 612 0072 0327C4FE 		lw	a4,-20(s0)
 613 0076 184F     		lw	a4,24(a4)
 614              		.loc 1 328 15
 615 0078 98C3     		sw	a4,0(a5)
 329:../Firmware/GD32VW55x_standard_peripheral/Source/gd32vw55x_cau.c ****     CAU_KEY3L = key_initpara->key_3_low;
 616              		.loc 1 329 5
 617 007a B707064C 		li	a5,1275461632
 618 007e 9387C703 		addi	a5,a5,60
 619              		.loc 1 329 29
 620 0082 0327C4FE 		lw	a4,-20(s0)
 621 0086 584F     		lw	a4,28(a4)
 622              		.loc 1 329 15
 623 0088 98C3     		sw	a4,0(a5)
 330:../Firmware/GD32VW55x_standard_peripheral/Source/gd32vw55x_cau.c **** }
 624              		.loc 1 330 1
 625 008a 0100     		nop
 626 008c 7244     		lw	s0,28(sp)
 627              		.cfi_restore 8
 628              		.cfi_def_cfa 2, 32
 629 008e 0561     		addi	sp,sp,32
 630              		.cfi_def_cfa_offset 0
 631 0090 8280     		jr	ra
 632              		.cfi_endproc
 633              	.LFE358:
 635              		.section	.text.cau_iv_init,"ax",@progbits
 636              		.align	1
 637              		.globl	cau_iv_init
 639              	cau_iv_init:
 640              	.LFB359:
 331:../Firmware/GD32VW55x_standard_peripheral/Source/gd32vw55x_cau.c **** 
 332:../Firmware/GD32VW55x_standard_peripheral/Source/gd32vw55x_cau.c **** /*!
 333:../Firmware/GD32VW55x_standard_peripheral/Source/gd32vw55x_cau.c ****     \brief      initialize the vectors parameters
 334:../Firmware/GD32VW55x_standard_peripheral/Source/gd32vw55x_cau.c ****     \param[in]  iv_initpara: vectors init parameter struct
 335:../Firmware/GD32VW55x_standard_peripheral/Source/gd32vw55x_cau.c ****                   iv_0_high: init vector 0 high
 336:../Firmware/GD32VW55x_standard_peripheral/Source/gd32vw55x_cau.c ****                   iv_0_low:  init vector 0 low
 337:../Firmware/GD32VW55x_standard_peripheral/Source/gd32vw55x_cau.c ****                   iv_1_high: init vector 1 high
 338:../Firmware/GD32VW55x_standard_peripheral/Source/gd32vw55x_cau.c ****                   iv_1_low:  init vector 1 low
 339:../Firmware/GD32VW55x_standard_peripheral/Source/gd32vw55x_cau.c ****     \param[out] none
 340:../Firmware/GD32VW55x_standard_peripheral/Source/gd32vw55x_cau.c ****     \retval     none
 341:../Firmware/GD32VW55x_standard_peripheral/Source/gd32vw55x_cau.c **** */
 342:../Firmware/GD32VW55x_standard_peripheral/Source/gd32vw55x_cau.c **** void cau_iv_init(cau_iv_parameter_struct *iv_initpara)
 343:../Firmware/GD32VW55x_standard_peripheral/Source/gd32vw55x_cau.c **** {
 641              		.loc 1 343 1
 642              		.cfi_startproc
 643 0000 0111     		addi	sp,sp,-32
 644              		.cfi_def_cfa_offset 32
 645 0002 22CE     		sw	s0,28(sp)
 646              		.cfi_offset 8, -4
 647 0004 0010     		addi	s0,sp,32
 648              		.cfi_def_cfa 8, 0
 649 0006 2326A4FE 		sw	a0,-20(s0)
 344:../Firmware/GD32VW55x_standard_peripheral/Source/gd32vw55x_cau.c ****     CAU_IV0H = iv_initpara->iv_0_high;
 650              		.loc 1 344 5
 651 000a B707064C 		li	a5,1275461632
 652 000e 93870704 		addi	a5,a5,64
 653              		.loc 1 344 27
 654 0012 0327C4FE 		lw	a4,-20(s0)
 655 0016 1843     		lw	a4,0(a4)
 656              		.loc 1 344 14
 657 0018 98C3     		sw	a4,0(a5)
 345:../Firmware/GD32VW55x_standard_peripheral/Source/gd32vw55x_cau.c ****     CAU_IV0L = iv_initpara->iv_0_low;
 658              		.loc 1 345 5
 659 001a B707064C 		li	a5,1275461632
 660 001e 93874704 		addi	a5,a5,68
 661              		.loc 1 345 27
 662 0022 0327C4FE 		lw	a4,-20(s0)
 663 0026 5843     		lw	a4,4(a4)
 664              		.loc 1 345 14
 665 0028 98C3     		sw	a4,0(a5)
 346:../Firmware/GD32VW55x_standard_peripheral/Source/gd32vw55x_cau.c ****     CAU_IV1H = iv_initpara->iv_1_high;
 666              		.loc 1 346 5
 667 002a B707064C 		li	a5,1275461632
 668 002e 93878704 		addi	a5,a5,72
 669              		.loc 1 346 27
 670 0032 0327C4FE 		lw	a4,-20(s0)
 671 0036 1847     		lw	a4,8(a4)
 672              		.loc 1 346 14
 673 0038 98C3     		sw	a4,0(a5)
 347:../Firmware/GD32VW55x_standard_peripheral/Source/gd32vw55x_cau.c ****     CAU_IV1L = iv_initpara->iv_1_low;
 674              		.loc 1 347 5
 675 003a B707064C 		li	a5,1275461632
 676 003e 9387C704 		addi	a5,a5,76
 677              		.loc 1 347 27
 678 0042 0327C4FE 		lw	a4,-20(s0)
 679 0046 5847     		lw	a4,12(a4)
 680              		.loc 1 347 14
 681 0048 98C3     		sw	a4,0(a5)
 348:../Firmware/GD32VW55x_standard_peripheral/Source/gd32vw55x_cau.c **** }
 682              		.loc 1 348 1
 683 004a 0100     		nop
 684 004c 7244     		lw	s0,28(sp)
 685              		.cfi_restore 8
 686              		.cfi_def_cfa 2, 32
 687 004e 0561     		addi	sp,sp,32
 688              		.cfi_def_cfa_offset 0
 689 0050 8280     		jr	ra
 690              		.cfi_endproc
 691              	.LFE359:
 693              		.section	.text.cau_phase_config,"ax",@progbits
 694              		.align	1
 695              		.globl	cau_phase_config
 697              	cau_phase_config:
 698              	.LFB360:
 349:../Firmware/GD32VW55x_standard_peripheral/Source/gd32vw55x_cau.c **** 
 350:../Firmware/GD32VW55x_standard_peripheral/Source/gd32vw55x_cau.c **** /*!
 351:../Firmware/GD32VW55x_standard_peripheral/Source/gd32vw55x_cau.c ****     \brief      configure phase
 352:../Firmware/GD32VW55x_standard_peripheral/Source/gd32vw55x_cau.c ****     \param[in]  phase: gcm or ccm phase
 353:../Firmware/GD32VW55x_standard_peripheral/Source/gd32vw55x_cau.c ****                 only one parameter can be selected which is shown as below:
 354:../Firmware/GD32VW55x_standard_peripheral/Source/gd32vw55x_cau.c ****       \arg        CAU_PREPARE_PHASE: prepare phase
 355:../Firmware/GD32VW55x_standard_peripheral/Source/gd32vw55x_cau.c ****       \arg        CAU_AAD_PHASE: AAD phase
 356:../Firmware/GD32VW55x_standard_peripheral/Source/gd32vw55x_cau.c ****       \arg        CAU_ENCRYPT_DECRYPT_PHASE: encryption/decryption phase
 357:../Firmware/GD32VW55x_standard_peripheral/Source/gd32vw55x_cau.c ****       \arg        CAU_TAG_PHASE: tag phase
 358:../Firmware/GD32VW55x_standard_peripheral/Source/gd32vw55x_cau.c ****     \param[out] none
 359:../Firmware/GD32VW55x_standard_peripheral/Source/gd32vw55x_cau.c ****     \retval     none
 360:../Firmware/GD32VW55x_standard_peripheral/Source/gd32vw55x_cau.c **** */
 361:../Firmware/GD32VW55x_standard_peripheral/Source/gd32vw55x_cau.c **** void cau_phase_config(uint32_t phase)
 362:../Firmware/GD32VW55x_standard_peripheral/Source/gd32vw55x_cau.c **** {
 699              		.loc 1 362 1
 700              		.cfi_startproc
 701 0000 7971     		addi	sp,sp,-48
 702              		.cfi_def_cfa_offset 48
 703 0002 22D6     		sw	s0,44(sp)
 704              		.cfi_offset 8, -4
 705 0004 0018     		addi	s0,sp,48
 706              		.cfi_def_cfa 8, 0
 707 0006 232EA4FC 		sw	a0,-36(s0)
 363:../Firmware/GD32VW55x_standard_peripheral/Source/gd32vw55x_cau.c ****     uint32_t temp;
 364:../Firmware/GD32VW55x_standard_peripheral/Source/gd32vw55x_cau.c ****     /* Get the CTL register */
 365:../Firmware/GD32VW55x_standard_peripheral/Source/gd32vw55x_cau.c ****     temp = CAU_CTL;
 708              		.loc 1 365 12
 709 000a B707064C 		li	a5,1275461632
 710              		.loc 1 365 10
 711 000e 9C43     		lw	a5,0(a5)
 712 0010 2326F4FE 		sw	a5,-20(s0)
 366:../Firmware/GD32VW55x_standard_peripheral/Source/gd32vw55x_cau.c ****     /* Reset the phase configuration bits */
 367:../Firmware/GD32VW55x_standard_peripheral/Source/gd32vw55x_cau.c ****     temp &= ~CAU_CTL_GCM_CCMPH;
 713              		.loc 1 367 10
 714 0014 0327C4FE 		lw	a4,-20(s0)
 715 0018 B707FDFF 		li	a5,-196608
 716 001c FD17     		addi	a5,a5,-1
 717 001e F98F     		and	a5,a4,a5
 718 0020 2326F4FE 		sw	a5,-20(s0)
 368:../Firmware/GD32VW55x_standard_peripheral/Source/gd32vw55x_cau.c ****     /* Set the selected phase */
 369:../Firmware/GD32VW55x_standard_peripheral/Source/gd32vw55x_cau.c ****     temp |= phase;
 719              		.loc 1 369 10
 720 0024 0327C4FE 		lw	a4,-20(s0)
 721 0028 8327C4FD 		lw	a5,-36(s0)
 722 002c D98F     		or	a5,a4,a5
 723 002e 2326F4FE 		sw	a5,-20(s0)
 370:../Firmware/GD32VW55x_standard_peripheral/Source/gd32vw55x_cau.c ****     /* Set the CTL register */
 371:../Firmware/GD32VW55x_standard_peripheral/Source/gd32vw55x_cau.c ****     CAU_CTL = temp;
 724              		.loc 1 371 5
 725 0032 B707064C 		li	a5,1275461632
 726              		.loc 1 371 13
 727 0036 0327C4FE 		lw	a4,-20(s0)
 728 003a 98C3     		sw	a4,0(a5)
 372:../Firmware/GD32VW55x_standard_peripheral/Source/gd32vw55x_cau.c **** }
 729              		.loc 1 372 1
 730 003c 0100     		nop
 731 003e 3254     		lw	s0,44(sp)
 732              		.cfi_restore 8
 733              		.cfi_def_cfa 2, 48
 734 0040 4561     		addi	sp,sp,48
 735              		.cfi_def_cfa_offset 0
 736 0042 8280     		jr	ra
 737              		.cfi_endproc
 738              	.LFE360:
 740              		.section	.text.cau_fifo_flush,"ax",@progbits
 741              		.align	1
 742              		.globl	cau_fifo_flush
 744              	cau_fifo_flush:
 745              	.LFB361:
 373:../Firmware/GD32VW55x_standard_peripheral/Source/gd32vw55x_cau.c **** 
 374:../Firmware/GD32VW55x_standard_peripheral/Source/gd32vw55x_cau.c **** /*!
 375:../Firmware/GD32VW55x_standard_peripheral/Source/gd32vw55x_cau.c ****     \brief      flush the IN and OUT FIFOs
 376:../Firmware/GD32VW55x_standard_peripheral/Source/gd32vw55x_cau.c ****     \param[in]  none
 377:../Firmware/GD32VW55x_standard_peripheral/Source/gd32vw55x_cau.c ****     \param[out] none
 378:../Firmware/GD32VW55x_standard_peripheral/Source/gd32vw55x_cau.c ****     \retval     none
 379:../Firmware/GD32VW55x_standard_peripheral/Source/gd32vw55x_cau.c **** */
 380:../Firmware/GD32VW55x_standard_peripheral/Source/gd32vw55x_cau.c **** void cau_fifo_flush(void)
 381:../Firmware/GD32VW55x_standard_peripheral/Source/gd32vw55x_cau.c **** {
 746              		.loc 1 381 1
 747              		.cfi_startproc
 748 0000 4111     		addi	sp,sp,-16
 749              		.cfi_def_cfa_offset 16
 750 0002 22C6     		sw	s0,12(sp)
 751              		.cfi_offset 8, -4
 752 0004 0008     		addi	s0,sp,16
 753              		.cfi_def_cfa 8, 0
 382:../Firmware/GD32VW55x_standard_peripheral/Source/gd32vw55x_cau.c ****     /* reset the read and write pointers of the FIFOs */
 383:../Firmware/GD32VW55x_standard_peripheral/Source/gd32vw55x_cau.c ****     CAU_CTL |= CAU_CTL_FFLUSH;
 754              		.loc 1 383 13
 755 0006 B707064C 		li	a5,1275461632
 756 000a 9443     		lw	a3,0(a5)
 757 000c B707064C 		li	a5,1275461632
 758 0010 1167     		li	a4,16384
 759 0012 558F     		or	a4,a3,a4
 760 0014 98C3     		sw	a4,0(a5)
 384:../Firmware/GD32VW55x_standard_peripheral/Source/gd32vw55x_cau.c **** }
 761              		.loc 1 384 1
 762 0016 0100     		nop
 763 0018 3244     		lw	s0,12(sp)
 764              		.cfi_restore 8
 765              		.cfi_def_cfa 2, 16
 766 001a 4101     		addi	sp,sp,16
 767              		.cfi_def_cfa_offset 0
 768 001c 8280     		jr	ra
 769              		.cfi_endproc
 770              	.LFE361:
 772              		.section	.text.cau_enable_state_get,"ax",@progbits
 773              		.align	1
 774              		.globl	cau_enable_state_get
 776              	cau_enable_state_get:
 777              	.LFB362:
 385:../Firmware/GD32VW55x_standard_peripheral/Source/gd32vw55x_cau.c **** 
 386:../Firmware/GD32VW55x_standard_peripheral/Source/gd32vw55x_cau.c **** /*!
 387:../Firmware/GD32VW55x_standard_peripheral/Source/gd32vw55x_cau.c ****     \brief      return whether CAU peripheral is enabled or disabled
 388:../Firmware/GD32VW55x_standard_peripheral/Source/gd32vw55x_cau.c ****     \param[in]  none
 389:../Firmware/GD32VW55x_standard_peripheral/Source/gd32vw55x_cau.c ****     \param[out] none
 390:../Firmware/GD32VW55x_standard_peripheral/Source/gd32vw55x_cau.c ****     \retval     ControlStatus: ENABLE or DISABLE
 391:../Firmware/GD32VW55x_standard_peripheral/Source/gd32vw55x_cau.c **** */
 392:../Firmware/GD32VW55x_standard_peripheral/Source/gd32vw55x_cau.c **** ControlStatus cau_enable_state_get(void)
 393:../Firmware/GD32VW55x_standard_peripheral/Source/gd32vw55x_cau.c **** {
 778              		.loc 1 393 1
 779              		.cfi_startproc
 780 0000 0111     		addi	sp,sp,-32
 781              		.cfi_def_cfa_offset 32
 782 0002 22CE     		sw	s0,28(sp)
 783              		.cfi_offset 8, -4
 784 0004 0010     		addi	s0,sp,32
 785              		.cfi_def_cfa 8, 0
 394:../Firmware/GD32VW55x_standard_peripheral/Source/gd32vw55x_cau.c ****     ControlStatus ret = DISABLE;
 786              		.loc 1 394 19
 787 0006 232604FE 		sw	zero,-20(s0)
 395:../Firmware/GD32VW55x_standard_peripheral/Source/gd32vw55x_cau.c ****     if(RESET != (CAU_CTL & CAU_CTL_CAUEN)) {
 788              		.loc 1 395 18
 789 000a B707064C 		li	a5,1275461632
 790 000e 9843     		lw	a4,0(a5)
 791              		.loc 1 395 26
 792 0010 A167     		li	a5,32768
 793 0012 F98F     		and	a5,a4,a5
 794              		.loc 1 395 7
 795 0014 81C7     		beq	a5,zero,.L17
 396:../Firmware/GD32VW55x_standard_peripheral/Source/gd32vw55x_cau.c ****         ret = ENABLE;
 796              		.loc 1 396 13
 797 0016 8547     		li	a5,1
 798 0018 2326F4FE 		sw	a5,-20(s0)
 799              	.L17:
 397:../Firmware/GD32VW55x_standard_peripheral/Source/gd32vw55x_cau.c ****     }
 398:../Firmware/GD32VW55x_standard_peripheral/Source/gd32vw55x_cau.c ****     return ret;
 800              		.loc 1 398 12
 801 001c 8327C4FE 		lw	a5,-20(s0)
 399:../Firmware/GD32VW55x_standard_peripheral/Source/gd32vw55x_cau.c **** }
 802              		.loc 1 399 1
 803 0020 3E85     		mv	a0,a5
 804 0022 7244     		lw	s0,28(sp)
 805              		.cfi_restore 8
 806              		.cfi_def_cfa 2, 32
 807 0024 0561     		addi	sp,sp,32
 808              		.cfi_def_cfa_offset 0
 809 0026 8280     		jr	ra
 810              		.cfi_endproc
 811              	.LFE362:
 813              		.section	.text.cau_data_write,"ax",@progbits
 814              		.align	1
 815              		.globl	cau_data_write
 817              	cau_data_write:
 818              	.LFB363:
 400:../Firmware/GD32VW55x_standard_peripheral/Source/gd32vw55x_cau.c **** 
 401:../Firmware/GD32VW55x_standard_peripheral/Source/gd32vw55x_cau.c **** /*!
 402:../Firmware/GD32VW55x_standard_peripheral/Source/gd32vw55x_cau.c ****     \brief      write data to the IN FIFO
 403:../Firmware/GD32VW55x_standard_peripheral/Source/gd32vw55x_cau.c ****     \param[in]  data: data to write (0 - 0xFFFFFFFF)
 404:../Firmware/GD32VW55x_standard_peripheral/Source/gd32vw55x_cau.c ****     \param[out] none
 405:../Firmware/GD32VW55x_standard_peripheral/Source/gd32vw55x_cau.c ****     \retval     none
 406:../Firmware/GD32VW55x_standard_peripheral/Source/gd32vw55x_cau.c **** */
 407:../Firmware/GD32VW55x_standard_peripheral/Source/gd32vw55x_cau.c **** void cau_data_write(uint32_t data)
 408:../Firmware/GD32VW55x_standard_peripheral/Source/gd32vw55x_cau.c **** {
 819              		.loc 1 408 1
 820              		.cfi_startproc
 821 0000 0111     		addi	sp,sp,-32
 822              		.cfi_def_cfa_offset 32
 823 0002 22CE     		sw	s0,28(sp)
 824              		.cfi_offset 8, -4
 825 0004 0010     		addi	s0,sp,32
 826              		.cfi_def_cfa 8, 0
 827 0006 2326A4FE 		sw	a0,-20(s0)
 409:../Firmware/GD32VW55x_standard_peripheral/Source/gd32vw55x_cau.c ****     CAU_DI = data;
 828              		.loc 1 409 5
 829 000a B707064C 		li	a5,1275461632
 830 000e A107     		addi	a5,a5,8
 831              		.loc 1 409 12
 832 0010 0327C4FE 		lw	a4,-20(s0)
 833 0014 98C3     		sw	a4,0(a5)
 410:../Firmware/GD32VW55x_standard_peripheral/Source/gd32vw55x_cau.c **** }
 834              		.loc 1 410 1
 835 0016 0100     		nop
 836 0018 7244     		lw	s0,28(sp)
 837              		.cfi_restore 8
 838              		.cfi_def_cfa 2, 32
 839 001a 0561     		addi	sp,sp,32
 840              		.cfi_def_cfa_offset 0
 841 001c 8280     		jr	ra
 842              		.cfi_endproc
 843              	.LFE363:
 845              		.section	.text.cau_data_read,"ax",@progbits
 846              		.align	1
 847              		.globl	cau_data_read
 849              	cau_data_read:
 850              	.LFB364:
 411:../Firmware/GD32VW55x_standard_peripheral/Source/gd32vw55x_cau.c **** 
 412:../Firmware/GD32VW55x_standard_peripheral/Source/gd32vw55x_cau.c **** /*!
 413:../Firmware/GD32VW55x_standard_peripheral/Source/gd32vw55x_cau.c ****     \brief      return the last data entered into the output FIFO
 414:../Firmware/GD32VW55x_standard_peripheral/Source/gd32vw55x_cau.c ****     \param[in]  none
 415:../Firmware/GD32VW55x_standard_peripheral/Source/gd32vw55x_cau.c ****     \param[out] none
 416:../Firmware/GD32VW55x_standard_peripheral/Source/gd32vw55x_cau.c ****     \retval     last data entered into the output FIFO
 417:../Firmware/GD32VW55x_standard_peripheral/Source/gd32vw55x_cau.c **** */
 418:../Firmware/GD32VW55x_standard_peripheral/Source/gd32vw55x_cau.c **** uint32_t cau_data_read(void)
 419:../Firmware/GD32VW55x_standard_peripheral/Source/gd32vw55x_cau.c **** {
 851              		.loc 1 419 1
 852              		.cfi_startproc
 853 0000 4111     		addi	sp,sp,-16
 854              		.cfi_def_cfa_offset 16
 855 0002 22C6     		sw	s0,12(sp)
 856              		.cfi_offset 8, -4
 857 0004 0008     		addi	s0,sp,16
 858              		.cfi_def_cfa 8, 0
 420:../Firmware/GD32VW55x_standard_peripheral/Source/gd32vw55x_cau.c ****     return CAU_DO;
 859              		.loc 1 420 12
 860 0006 B707064C 		li	a5,1275461632
 861 000a B107     		addi	a5,a5,12
 862 000c 9C43     		lw	a5,0(a5)
 421:../Firmware/GD32VW55x_standard_peripheral/Source/gd32vw55x_cau.c **** }
 863              		.loc 1 421 1
 864 000e 3E85     		mv	a0,a5
 865 0010 3244     		lw	s0,12(sp)
 866              		.cfi_restore 8
 867              		.cfi_def_cfa 2, 16
 868 0012 4101     		addi	sp,sp,16
 869              		.cfi_def_cfa_offset 0
 870 0014 8280     		jr	ra
 871              		.cfi_endproc
 872              	.LFE364:
 874              		.section	.text.cau_context_save,"ax",@progbits
 875              		.align	1
 876              		.globl	cau_context_save
 878              	cau_context_save:
 879              	.LFB365:
 422:../Firmware/GD32VW55x_standard_peripheral/Source/gd32vw55x_cau.c **** 
 423:../Firmware/GD32VW55x_standard_peripheral/Source/gd32vw55x_cau.c **** /*!
 424:../Firmware/GD32VW55x_standard_peripheral/Source/gd32vw55x_cau.c ****     \brief      save context before context switching
 425:../Firmware/GD32VW55x_standard_peripheral/Source/gd32vw55x_cau.c ****     \param[in]  key_initpara: key init parameter struct
 426:../Firmware/GD32VW55x_standard_peripheral/Source/gd32vw55x_cau.c ****                   key_0_high: key 0 high
 427:../Firmware/GD32VW55x_standard_peripheral/Source/gd32vw55x_cau.c ****                   key_0_low:  key 0 low
 428:../Firmware/GD32VW55x_standard_peripheral/Source/gd32vw55x_cau.c ****                   key_1_high: key 1 high
 429:../Firmware/GD32VW55x_standard_peripheral/Source/gd32vw55x_cau.c ****                   key_1_low:  key 1 low
 430:../Firmware/GD32VW55x_standard_peripheral/Source/gd32vw55x_cau.c ****                   key_2_high: key 2 high
 431:../Firmware/GD32VW55x_standard_peripheral/Source/gd32vw55x_cau.c ****                   key_2_low:  key 2 low
 432:../Firmware/GD32VW55x_standard_peripheral/Source/gd32vw55x_cau.c ****                   key_3_high: key 3 high
 433:../Firmware/GD32VW55x_standard_peripheral/Source/gd32vw55x_cau.c ****                   key_3_low:  key 3 low
 434:../Firmware/GD32VW55x_standard_peripheral/Source/gd32vw55x_cau.c ****     \param[out] cau_context:
 435:../Firmware/GD32VW55x_standard_peripheral/Source/gd32vw55x_cau.c ****                   ctl_config: current configuration
 436:../Firmware/GD32VW55x_standard_peripheral/Source/gd32vw55x_cau.c ****                   iv_0_high: init vector 0 high
 437:../Firmware/GD32VW55x_standard_peripheral/Source/gd32vw55x_cau.c ****                   iv_0_low:  init vector 0 low
 438:../Firmware/GD32VW55x_standard_peripheral/Source/gd32vw55x_cau.c ****                   iv_1_high: init vector 1 high
 439:../Firmware/GD32VW55x_standard_peripheral/Source/gd32vw55x_cau.c ****                   iv_1_low:  init vector 1 low
 440:../Firmware/GD32VW55x_standard_peripheral/Source/gd32vw55x_cau.c ****                   key_0_high: key 0 high
 441:../Firmware/GD32VW55x_standard_peripheral/Source/gd32vw55x_cau.c ****                   key_0_low:  key 0 low
 442:../Firmware/GD32VW55x_standard_peripheral/Source/gd32vw55x_cau.c ****                   key_1_high: key 1 high
 443:../Firmware/GD32VW55x_standard_peripheral/Source/gd32vw55x_cau.c ****                   key_1_low:  key 1 low
 444:../Firmware/GD32VW55x_standard_peripheral/Source/gd32vw55x_cau.c ****                   key_2_high: key 2 high
 445:../Firmware/GD32VW55x_standard_peripheral/Source/gd32vw55x_cau.c ****                   key_2_low:  key 2 low
 446:../Firmware/GD32VW55x_standard_peripheral/Source/gd32vw55x_cau.c ****                   key_3_high: key 3 high
 447:../Firmware/GD32VW55x_standard_peripheral/Source/gd32vw55x_cau.c ****                   key_3_low:  key 3 low
 448:../Firmware/GD32VW55x_standard_peripheral/Source/gd32vw55x_cau.c ****                   gcmccmctxs[8]: GCM or CCM mode context switch
 449:../Firmware/GD32VW55x_standard_peripheral/Source/gd32vw55x_cau.c ****                   gcmctxs[8]: GCM mode context switch
 450:../Firmware/GD32VW55x_standard_peripheral/Source/gd32vw55x_cau.c ****     \retval     none
 451:../Firmware/GD32VW55x_standard_peripheral/Source/gd32vw55x_cau.c **** */
 452:../Firmware/GD32VW55x_standard_peripheral/Source/gd32vw55x_cau.c **** void cau_context_save(cau_context_parameter_struct *cau_context, cau_key_parameter_struct *key_init
 453:../Firmware/GD32VW55x_standard_peripheral/Source/gd32vw55x_cau.c **** {
 880              		.loc 1 453 1
 881              		.cfi_startproc
 882 0000 7971     		addi	sp,sp,-48
 883              		.cfi_def_cfa_offset 48
 884 0002 22D6     		sw	s0,44(sp)
 885              		.cfi_offset 8, -4
 886 0004 0018     		addi	s0,sp,48
 887              		.cfi_def_cfa 8, 0
 888 0006 232EA4FC 		sw	a0,-36(s0)
 889 000a 232CB4FC 		sw	a1,-40(s0)
 454:../Firmware/GD32VW55x_standard_peripheral/Source/gd32vw55x_cau.c ****     uint32_t checkmask = 0U;
 890              		.loc 1 454 14
 891 000e 232604FE 		sw	zero,-20(s0)
 455:../Firmware/GD32VW55x_standard_peripheral/Source/gd32vw55x_cau.c ****     uint32_t checkbits = 0U;
 892              		.loc 1 455 14
 893 0012 232404FE 		sw	zero,-24(s0)
 456:../Firmware/GD32VW55x_standard_peripheral/Source/gd32vw55x_cau.c ****     uint32_t algm_reg = 0U;
 894              		.loc 1 456 14
 895 0016 232204FE 		sw	zero,-28(s0)
 457:../Firmware/GD32VW55x_standard_peripheral/Source/gd32vw55x_cau.c **** 
 458:../Firmware/GD32VW55x_standard_peripheral/Source/gd32vw55x_cau.c ****     /* stop DMA transfers on the IN FIFO by clearing the DMAIEN bit in the CAU_DMAEN */
 459:../Firmware/GD32VW55x_standard_peripheral/Source/gd32vw55x_cau.c ****     CAU_DMAEN &= ~CAU_DMA_INFIFO;
 896              		.loc 1 459 15
 897 001a B707064C 		li	a5,1275461632
 898 001e C107     		addi	a5,a5,16
 899 0020 9843     		lw	a4,0(a5)
 900 0022 B707064C 		li	a5,1275461632
 901 0026 C107     		addi	a5,a5,16
 902 0028 799B     		andi	a4,a4,-2
 903 002a 98C3     		sw	a4,0(a5)
 460:../Firmware/GD32VW55x_standard_peripheral/Source/gd32vw55x_cau.c **** 
 461:../Firmware/GD32VW55x_standard_peripheral/Source/gd32vw55x_cau.c ****     algm_reg = CAU_CTL & CAU_CTL_ALGM;
 904              		.loc 1 461 16
 905 002c B707064C 		li	a5,1275461632
 906 0030 9843     		lw	a4,0(a5)
 907              		.loc 1 461 14
 908 0032 B7070800 		li	a5,524288
 909 0036 93878703 		addi	a5,a5,56
 910 003a F98F     		and	a5,a4,a5
 911 003c 2322F4FE 		sw	a5,-28(s0)
 462:../Firmware/GD32VW55x_standard_peripheral/Source/gd32vw55x_cau.c ****     /* AES or DES */
 463:../Firmware/GD32VW55x_standard_peripheral/Source/gd32vw55x_cau.c ****     if((uint32_t)0 != (algm_reg & (~CAU_MODE_TDES_CBC))) {
 912              		.loc 1 463 33
 913 0040 832744FE 		lw	a5,-28(s0)
 914 0044 DD9B     		andi	a5,a5,-9
 915              		.loc 1 463 7
 916 0046 81CB     		beq	a5,zero,.L23
 464:../Firmware/GD32VW55x_standard_peripheral/Source/gd32vw55x_cau.c ****         /* wait until both the IN and OUT FIFOs are empty (IEM=1 and ONE=0 in the CAU_STAT0 registe
 465:../Firmware/GD32VW55x_standard_peripheral/Source/gd32vw55x_cau.c ****         checkbits = CAU_STAT0_IEM;
 917              		.loc 1 465 19
 918 0048 8547     		li	a5,1
 919 004a 2324F4FE 		sw	a5,-24(s0)
 466:../Firmware/GD32VW55x_standard_peripheral/Source/gd32vw55x_cau.c ****         checkmask = STAT0_AESDES_MASK;
 920              		.loc 1 466 19
 921 004e D547     		li	a5,21
 922 0050 2326F4FE 		sw	a5,-20(s0)
 923 0054 31A0     		j	.L31
 924              	.L23:
 467:../Firmware/GD32VW55x_standard_peripheral/Source/gd32vw55x_cau.c ****         /* TDES */
 468:../Firmware/GD32VW55x_standard_peripheral/Source/gd32vw55x_cau.c ****     } else {
 469:../Firmware/GD32VW55x_standard_peripheral/Source/gd32vw55x_cau.c ****         /* wait until OUT FIFO is empty (ONE=0 in the CAU_STAT0 register) and BUSY=0 */
 470:../Firmware/GD32VW55x_standard_peripheral/Source/gd32vw55x_cau.c ****         checkbits = 0U;
 925              		.loc 1 470 19
 926 0056 232404FE 		sw	zero,-24(s0)
 471:../Firmware/GD32VW55x_standard_peripheral/Source/gd32vw55x_cau.c ****         checkmask = STAT0_TDES_MASK;
 927              		.loc 1 471 19
 928 005a D147     		li	a5,20
 929 005c 2326F4FE 		sw	a5,-20(s0)
 930              	.L31:
 472:../Firmware/GD32VW55x_standard_peripheral/Source/gd32vw55x_cau.c ****     }
 473:../Firmware/GD32VW55x_standard_peripheral/Source/gd32vw55x_cau.c **** 
 474:../Firmware/GD32VW55x_standard_peripheral/Source/gd32vw55x_cau.c ****     while((CAU_STAT0 & checkmask) != checkbits) {
 931              		.loc 1 474 10
 932 0060 0100     		nop
 933              	.L25:
 934              		.loc 1 474 12 discriminator 1
 935 0062 B707064C 		li	a5,1275461632
 936 0066 9107     		addi	a5,a5,4
 937 0068 9843     		lw	a4,0(a5)
 938              		.loc 1 474 22 discriminator 1
 939 006a 8327C4FE 		lw	a5,-20(s0)
 940 006e F98F     		and	a5,a4,a5
 941              		.loc 1 474 10 discriminator 1
 942 0070 032784FE 		lw	a4,-24(s0)
 943 0074 E317F7FE 		bne	a4,a5,.L25
 475:../Firmware/GD32VW55x_standard_peripheral/Source/gd32vw55x_cau.c ****     }
 476:../Firmware/GD32VW55x_standard_peripheral/Source/gd32vw55x_cau.c **** 
 477:../Firmware/GD32VW55x_standard_peripheral/Source/gd32vw55x_cau.c ****     /* stop DMA transfers on the OUT FIFO by clear CAU_DMAEN_DMAOEN=0 */
 478:../Firmware/GD32VW55x_standard_peripheral/Source/gd32vw55x_cau.c ****     CAU_DMAEN &= ~CAU_DMAEN_DMAOEN;
 944              		.loc 1 478 15
 945 0078 B707064C 		li	a5,1275461632
 946 007c C107     		addi	a5,a5,16
 947 007e 9843     		lw	a4,0(a5)
 948 0080 B707064C 		li	a5,1275461632
 949 0084 C107     		addi	a5,a5,16
 950 0086 759B     		andi	a4,a4,-3
 951 0088 98C3     		sw	a4,0(a5)
 479:../Firmware/GD32VW55x_standard_peripheral/Source/gd32vw55x_cau.c ****     /* disable CAU */
 480:../Firmware/GD32VW55x_standard_peripheral/Source/gd32vw55x_cau.c ****     CAU_CTL &= ~CAU_CTL_CAUEN;
 952              		.loc 1 480 13
 953 008a B707064C 		li	a5,1275461632
 954 008e 9443     		lw	a3,0(a5)
 955 0090 B707064C 		li	a5,1275461632
 956 0094 6177     		li	a4,-32768
 957 0096 7D17     		addi	a4,a4,-1
 958 0098 758F     		and	a4,a3,a4
 959 009a 98C3     		sw	a4,0(a5)
 481:../Firmware/GD32VW55x_standard_peripheral/Source/gd32vw55x_cau.c **** 
 482:../Firmware/GD32VW55x_standard_peripheral/Source/gd32vw55x_cau.c ****     /* save the current configuration (bit 19, bit[17:16] and bit[9:2] in the CAU_CTL register) */
 483:../Firmware/GD32VW55x_standard_peripheral/Source/gd32vw55x_cau.c ****     cau_context->ctl_config  = CAU_CTL & (CAU_CTL_GCM_CCMPH |
 960              		.loc 1 483 32
 961 009c B707064C 		li	a5,1275461632
 962 00a0 9843     		lw	a4,0(a5)
 963              		.loc 1 483 40
 964 00a2 B707FB00 		li	a5,16449536
 965 00a6 9387C73F 		addi	a5,a5,1020
 966 00aa 7D8F     		and	a4,a4,a5
 967              		.loc 1 483 30
 968 00ac 8327C4FD 		lw	a5,-36(s0)
 969 00b0 98C3     		sw	a4,0(a5)
 484:../Firmware/GD32VW55x_standard_peripheral/Source/gd32vw55x_cau.c ****                                           CAU_CTL_KEYM  |
 485:../Firmware/GD32VW55x_standard_peripheral/Source/gd32vw55x_cau.c ****                                           CAU_CTL_DATAM |
 486:../Firmware/GD32VW55x_standard_peripheral/Source/gd32vw55x_cau.c ****                                           CAU_CTL_ALGM  |
 487:../Firmware/GD32VW55x_standard_peripheral/Source/gd32vw55x_cau.c ****                                           CAU_CTL_CAUDIR |
 488:../Firmware/GD32VW55x_standard_peripheral/Source/gd32vw55x_cau.c ****                                           CAU_CTL_NBPILB);
 489:../Firmware/GD32VW55x_standard_peripheral/Source/gd32vw55x_cau.c **** 
 490:../Firmware/GD32VW55x_standard_peripheral/Source/gd32vw55x_cau.c ****     /* save the key value */
 491:../Firmware/GD32VW55x_standard_peripheral/Source/gd32vw55x_cau.c ****     cau_context->key_0_high = key_initpara->key_0_high;
 970              		.loc 1 491 43
 971 00b2 832784FD 		lw	a5,-40(s0)
 972 00b6 9843     		lw	a4,0(a5)
 973              		.loc 1 491 29
 974 00b8 8327C4FD 		lw	a5,-36(s0)
 975 00bc D8CB     		sw	a4,20(a5)
 492:../Firmware/GD32VW55x_standard_peripheral/Source/gd32vw55x_cau.c ****     cau_context->key_0_low  = key_initpara->key_0_low;
 976              		.loc 1 492 43
 977 00be 832784FD 		lw	a5,-40(s0)
 978 00c2 D843     		lw	a4,4(a5)
 979              		.loc 1 492 29
 980 00c4 8327C4FD 		lw	a5,-36(s0)
 981 00c8 98CF     		sw	a4,24(a5)
 493:../Firmware/GD32VW55x_standard_peripheral/Source/gd32vw55x_cau.c ****     cau_context->key_1_high = key_initpara->key_1_high;
 982              		.loc 1 493 43
 983 00ca 832784FD 		lw	a5,-40(s0)
 984 00ce 9847     		lw	a4,8(a5)
 985              		.loc 1 493 29
 986 00d0 8327C4FD 		lw	a5,-36(s0)
 987 00d4 D8CF     		sw	a4,28(a5)
 494:../Firmware/GD32VW55x_standard_peripheral/Source/gd32vw55x_cau.c ****     cau_context->key_1_low  = key_initpara->key_1_low;
 988              		.loc 1 494 43
 989 00d6 832784FD 		lw	a5,-40(s0)
 990 00da D847     		lw	a4,12(a5)
 991              		.loc 1 494 29
 992 00dc 8327C4FD 		lw	a5,-36(s0)
 993 00e0 98D3     		sw	a4,32(a5)
 495:../Firmware/GD32VW55x_standard_peripheral/Source/gd32vw55x_cau.c ****     cau_context->key_2_high = key_initpara->key_2_high;
 994              		.loc 1 495 43
 995 00e2 832784FD 		lw	a5,-40(s0)
 996 00e6 984B     		lw	a4,16(a5)
 997              		.loc 1 495 29
 998 00e8 8327C4FD 		lw	a5,-36(s0)
 999 00ec D8D3     		sw	a4,36(a5)
 496:../Firmware/GD32VW55x_standard_peripheral/Source/gd32vw55x_cau.c ****     cau_context->key_2_low  = key_initpara->key_2_low;
 1000              		.loc 1 496 43
 1001 00ee 832784FD 		lw	a5,-40(s0)
 1002 00f2 D84B     		lw	a4,20(a5)
 1003              		.loc 1 496 29
 1004 00f4 8327C4FD 		lw	a5,-36(s0)
 1005 00f8 98D7     		sw	a4,40(a5)
 497:../Firmware/GD32VW55x_standard_peripheral/Source/gd32vw55x_cau.c ****     cau_context->key_3_high = key_initpara->key_3_high;
 1006              		.loc 1 497 43
 1007 00fa 832784FD 		lw	a5,-40(s0)
 1008 00fe 984F     		lw	a4,24(a5)
 1009              		.loc 1 497 29
 1010 0100 8327C4FD 		lw	a5,-36(s0)
 1011 0104 D8D7     		sw	a4,44(a5)
 498:../Firmware/GD32VW55x_standard_peripheral/Source/gd32vw55x_cau.c ****     cau_context->key_3_low  = key_initpara->key_3_low;
 1012              		.loc 1 498 43
 1013 0106 832784FD 		lw	a5,-40(s0)
 1014 010a D84F     		lw	a4,28(a5)
 1015              		.loc 1 498 29
 1016 010c 8327C4FD 		lw	a5,-36(s0)
 1017 0110 98DB     		sw	a4,48(a5)
 499:../Firmware/GD32VW55x_standard_peripheral/Source/gd32vw55x_cau.c **** 
 500:../Firmware/GD32VW55x_standard_peripheral/Source/gd32vw55x_cau.c ****     if((CAU_MODE_TDES_ECB != algm_reg) && (CAU_MODE_DES_ECB != algm_reg) && (CAU_MODE_AES_ECB != al
 1018              		.loc 1 500 7
 1019 0112 832744FE 		lw	a5,-28(s0)
 1020 0116 A1CF     		beq	a5,zero,.L26
 1021              		.loc 1 500 40 discriminator 1
 1022 0118 032744FE 		lw	a4,-28(s0)
 1023 011c C147     		li	a5,16
 1024 011e 6308F704 		beq	a4,a5,.L26
 1025              		.loc 1 500 74 discriminator 2
 1026 0122 032744FE 		lw	a4,-28(s0)
 1027 0126 93070002 		li	a5,32
 1028 012a 6302F704 		beq	a4,a5,.L26
 501:../Firmware/GD32VW55x_standard_peripheral/Source/gd32vw55x_cau.c ****         /* if not in ECB mode, save the initialization vectors */
 502:../Firmware/GD32VW55x_standard_peripheral/Source/gd32vw55x_cau.c ****         cau_context->iv_0_high = CAU_IV0H;
 1029              		.loc 1 502 34
 1030 012e B707064C 		li	a5,1275461632
 1031 0132 93870704 		addi	a5,a5,64
 1032 0136 9843     		lw	a4,0(a5)
 1033              		.loc 1 502 32
 1034 0138 8327C4FD 		lw	a5,-36(s0)
 1035 013c D8C3     		sw	a4,4(a5)
 503:../Firmware/GD32VW55x_standard_peripheral/Source/gd32vw55x_cau.c ****         cau_context->iv_0_low = CAU_IV0L;
 1036              		.loc 1 503 33
 1037 013e B707064C 		li	a5,1275461632
 1038 0142 93874704 		addi	a5,a5,68
 1039 0146 9843     		lw	a4,0(a5)
 1040              		.loc 1 503 31
 1041 0148 8327C4FD 		lw	a5,-36(s0)
 1042 014c 98C7     		sw	a4,8(a5)
 504:../Firmware/GD32VW55x_standard_peripheral/Source/gd32vw55x_cau.c ****         cau_context->iv_1_high = CAU_IV1H;
 1043              		.loc 1 504 34
 1044 014e B707064C 		li	a5,1275461632
 1045 0152 93878704 		addi	a5,a5,72
 1046 0156 9843     		lw	a4,0(a5)
 1047              		.loc 1 504 32
 1048 0158 8327C4FD 		lw	a5,-36(s0)
 1049 015c D8C7     		sw	a4,12(a5)
 505:../Firmware/GD32VW55x_standard_peripheral/Source/gd32vw55x_cau.c ****         cau_context->iv_1_low = CAU_IV1L;
 1050              		.loc 1 505 33
 1051 015e B707064C 		li	a5,1275461632
 1052 0162 9387C704 		addi	a5,a5,76
 1053 0166 9843     		lw	a4,0(a5)
 1054              		.loc 1 505 31
 1055 0168 8327C4FD 		lw	a5,-36(s0)
 1056 016c 98CB     		sw	a4,16(a5)
 1057              	.L26:
 506:../Firmware/GD32VW55x_standard_peripheral/Source/gd32vw55x_cau.c ****     }
 507:../Firmware/GD32VW55x_standard_peripheral/Source/gd32vw55x_cau.c **** 
 508:../Firmware/GD32VW55x_standard_peripheral/Source/gd32vw55x_cau.c ****     /* if in GCM/CCM mode, save the context switch registers */
 509:../Firmware/GD32VW55x_standard_peripheral/Source/gd32vw55x_cau.c ****     if((CAU_MODE_AES_GCM == algm_reg) || (CAU_MODE_AES_CCM == algm_reg)) {
 1058              		.loc 1 509 7
 1059 016e 032744FE 		lw	a4,-28(s0)
 1060 0172 B7070800 		li	a5,524288
 1061 0176 6309F700 		beq	a4,a5,.L27
 1062              		.loc 1 509 39 discriminator 1
 1063 017a 032744FE 		lw	a4,-28(s0)
 1064 017e B7070800 		li	a5,524288
 1065 0182 A107     		addi	a5,a5,8
 1066 0184 6312F708 		bne	a4,a5,.L28
 1067              	.L27:
 510:../Firmware/GD32VW55x_standard_peripheral/Source/gd32vw55x_cau.c ****         cau_context->gcmccmctxs[0U] = CAU_GCMCCMCTXSx(0U);
 1068              		.loc 1 510 39
 1069 0188 B707064C 		li	a5,1275461632
 1070 018c 93870705 		addi	a5,a5,80
 1071 0190 9843     		lw	a4,0(a5)
 1072              		.loc 1 510 37
 1073 0192 8327C4FD 		lw	a5,-36(s0)
 1074 0196 D8DB     		sw	a4,52(a5)
 511:../Firmware/GD32VW55x_standard_peripheral/Source/gd32vw55x_cau.c ****         cau_context->gcmccmctxs[1U] = CAU_GCMCCMCTXSx(1U);
 1075              		.loc 1 511 39
 1076 0198 B707064C 		li	a5,1275461632
 1077 019c 93874705 		addi	a5,a5,84
 1078 01a0 9843     		lw	a4,0(a5)
 1079              		.loc 1 511 37
 1080 01a2 8327C4FD 		lw	a5,-36(s0)
 1081 01a6 98DF     		sw	a4,56(a5)
 512:../Firmware/GD32VW55x_standard_peripheral/Source/gd32vw55x_cau.c ****         cau_context->gcmccmctxs[2U] = CAU_GCMCCMCTXSx(2U);
 1082              		.loc 1 512 39
 1083 01a8 B707064C 		li	a5,1275461632
 1084 01ac 93878705 		addi	a5,a5,88
 1085 01b0 9843     		lw	a4,0(a5)
 1086              		.loc 1 512 37
 1087 01b2 8327C4FD 		lw	a5,-36(s0)
 1088 01b6 D8DF     		sw	a4,60(a5)
 513:../Firmware/GD32VW55x_standard_peripheral/Source/gd32vw55x_cau.c ****         cau_context->gcmccmctxs[3U] = CAU_GCMCCMCTXSx(3U);
 1089              		.loc 1 513 39
 1090 01b8 B707064C 		li	a5,1275461632
 1091 01bc 9387C705 		addi	a5,a5,92
 1092 01c0 9843     		lw	a4,0(a5)
 1093              		.loc 1 513 37
 1094 01c2 8327C4FD 		lw	a5,-36(s0)
 1095 01c6 B8C3     		sw	a4,64(a5)
 514:../Firmware/GD32VW55x_standard_peripheral/Source/gd32vw55x_cau.c ****         cau_context->gcmccmctxs[4U] = CAU_GCMCCMCTXSx(4U);
 1096              		.loc 1 514 39
 1097 01c8 B707064C 		li	a5,1275461632
 1098 01cc 93870706 		addi	a5,a5,96
 1099 01d0 9843     		lw	a4,0(a5)
 1100              		.loc 1 514 37
 1101 01d2 8327C4FD 		lw	a5,-36(s0)
 1102 01d6 F8C3     		sw	a4,68(a5)
 515:../Firmware/GD32VW55x_standard_peripheral/Source/gd32vw55x_cau.c ****         cau_context->gcmccmctxs[5U] = CAU_GCMCCMCTXSx(5U);
 1103              		.loc 1 515 39
 1104 01d8 B707064C 		li	a5,1275461632
 1105 01dc 93874706 		addi	a5,a5,100
 1106 01e0 9843     		lw	a4,0(a5)
 1107              		.loc 1 515 37
 1108 01e2 8327C4FD 		lw	a5,-36(s0)
 1109 01e6 B8C7     		sw	a4,72(a5)
 516:../Firmware/GD32VW55x_standard_peripheral/Source/gd32vw55x_cau.c ****         cau_context->gcmccmctxs[6U] = CAU_GCMCCMCTXSx(6U);
 1110              		.loc 1 516 39
 1111 01e8 B707064C 		li	a5,1275461632
 1112 01ec 93878706 		addi	a5,a5,104
 1113 01f0 9843     		lw	a4,0(a5)
 1114              		.loc 1 516 37
 1115 01f2 8327C4FD 		lw	a5,-36(s0)
 1116 01f6 F8C7     		sw	a4,76(a5)
 517:../Firmware/GD32VW55x_standard_peripheral/Source/gd32vw55x_cau.c ****         cau_context->gcmccmctxs[7U] = CAU_GCMCCMCTXSx(7U);
 1117              		.loc 1 517 39
 1118 01f8 B707064C 		li	a5,1275461632
 1119 01fc 9387C706 		addi	a5,a5,108
 1120 0200 9843     		lw	a4,0(a5)
 1121              		.loc 1 517 37
 1122 0202 8327C4FD 		lw	a5,-36(s0)
 1123 0206 B8CB     		sw	a4,80(a5)
 1124              	.L28:
 518:../Firmware/GD32VW55x_standard_peripheral/Source/gd32vw55x_cau.c ****     }
 519:../Firmware/GD32VW55x_standard_peripheral/Source/gd32vw55x_cau.c **** 
 520:../Firmware/GD32VW55x_standard_peripheral/Source/gd32vw55x_cau.c ****     /* if in GCM mode, save the context switch registers */
 521:../Firmware/GD32VW55x_standard_peripheral/Source/gd32vw55x_cau.c ****     if(CAU_MODE_AES_GCM == algm_reg) {
 1125              		.loc 1 521 7
 1126 0208 032744FE 		lw	a4,-28(s0)
 1127 020c B7070800 		li	a5,524288
 1128 0210 6312F708 		bne	a4,a5,.L30
 522:../Firmware/GD32VW55x_standard_peripheral/Source/gd32vw55x_cau.c ****         cau_context->gcmctxs[0U] = CAU_GCMCTXSx(0U);
 1129              		.loc 1 522 36
 1130 0214 B707064C 		li	a5,1275461632
 1131 0218 93870707 		addi	a5,a5,112
 1132 021c 9843     		lw	a4,0(a5)
 1133              		.loc 1 522 34
 1134 021e 8327C4FD 		lw	a5,-36(s0)
 1135 0222 F8CB     		sw	a4,84(a5)
 523:../Firmware/GD32VW55x_standard_peripheral/Source/gd32vw55x_cau.c ****         cau_context->gcmctxs[1U] = CAU_GCMCTXSx(1U);
 1136              		.loc 1 523 36
 1137 0224 B707064C 		li	a5,1275461632
 1138 0228 93874707 		addi	a5,a5,116
 1139 022c 9843     		lw	a4,0(a5)
 1140              		.loc 1 523 34
 1141 022e 8327C4FD 		lw	a5,-36(s0)
 1142 0232 B8CF     		sw	a4,88(a5)
 524:../Firmware/GD32VW55x_standard_peripheral/Source/gd32vw55x_cau.c ****         cau_context->gcmctxs[2U] = CAU_GCMCTXSx(2U);
 1143              		.loc 1 524 36
 1144 0234 B707064C 		li	a5,1275461632
 1145 0238 93878707 		addi	a5,a5,120
 1146 023c 9843     		lw	a4,0(a5)
 1147              		.loc 1 524 34
 1148 023e 8327C4FD 		lw	a5,-36(s0)
 1149 0242 F8CF     		sw	a4,92(a5)
 525:../Firmware/GD32VW55x_standard_peripheral/Source/gd32vw55x_cau.c ****         cau_context->gcmctxs[3U] = CAU_GCMCTXSx(3U);
 1150              		.loc 1 525 36
 1151 0244 B707064C 		li	a5,1275461632
 1152 0248 9387C707 		addi	a5,a5,124
 1153 024c 9843     		lw	a4,0(a5)
 1154              		.loc 1 525 34
 1155 024e 8327C4FD 		lw	a5,-36(s0)
 1156 0252 B8D3     		sw	a4,96(a5)
 526:../Firmware/GD32VW55x_standard_peripheral/Source/gd32vw55x_cau.c ****         cau_context->gcmctxs[4U] = CAU_GCMCTXSx(4U);
 1157              		.loc 1 526 36
 1158 0254 B707064C 		li	a5,1275461632
 1159 0258 93870708 		addi	a5,a5,128
 1160 025c 9843     		lw	a4,0(a5)
 1161              		.loc 1 526 34
 1162 025e 8327C4FD 		lw	a5,-36(s0)
 1163 0262 F8D3     		sw	a4,100(a5)
 527:../Firmware/GD32VW55x_standard_peripheral/Source/gd32vw55x_cau.c ****         cau_context->gcmctxs[5U] = CAU_GCMCTXSx(5U);
 1164              		.loc 1 527 36
 1165 0264 B707064C 		li	a5,1275461632
 1166 0268 93874708 		addi	a5,a5,132
 1167 026c 9843     		lw	a4,0(a5)
 1168              		.loc 1 527 34
 1169 026e 8327C4FD 		lw	a5,-36(s0)
 1170 0272 B8D7     		sw	a4,104(a5)
 528:../Firmware/GD32VW55x_standard_peripheral/Source/gd32vw55x_cau.c ****         cau_context->gcmctxs[6U] = CAU_GCMCTXSx(6U);
 1171              		.loc 1 528 36
 1172 0274 B707064C 		li	a5,1275461632
 1173 0278 93878708 		addi	a5,a5,136
 1174 027c 9843     		lw	a4,0(a5)
 1175              		.loc 1 528 34
 1176 027e 8327C4FD 		lw	a5,-36(s0)
 1177 0282 F8D7     		sw	a4,108(a5)
 529:../Firmware/GD32VW55x_standard_peripheral/Source/gd32vw55x_cau.c ****         cau_context->gcmctxs[7U] = CAU_GCMCTXSx(7U);
 1178              		.loc 1 529 36
 1179 0284 B707064C 		li	a5,1275461632
 1180 0288 9387C708 		addi	a5,a5,140
 1181 028c 9843     		lw	a4,0(a5)
 1182              		.loc 1 529 34
 1183 028e 8327C4FD 		lw	a5,-36(s0)
 1184 0292 B8DB     		sw	a4,112(a5)
 1185              	.L30:
 530:../Firmware/GD32VW55x_standard_peripheral/Source/gd32vw55x_cau.c ****     }
 531:../Firmware/GD32VW55x_standard_peripheral/Source/gd32vw55x_cau.c **** }
 1186              		.loc 1 531 1
 1187 0294 0100     		nop
 1188 0296 3254     		lw	s0,44(sp)
 1189              		.cfi_restore 8
 1190              		.cfi_def_cfa 2, 48
 1191 0298 4561     		addi	sp,sp,48
 1192              		.cfi_def_cfa_offset 0
 1193 029a 8280     		jr	ra
 1194              		.cfi_endproc
 1195              	.LFE365:
 1197              		.section	.text.cau_context_restore,"ax",@progbits
 1198              		.align	1
 1199              		.globl	cau_context_restore
 1201              	cau_context_restore:
 1202              	.LFB366:
 532:../Firmware/GD32VW55x_standard_peripheral/Source/gd32vw55x_cau.c **** 
 533:../Firmware/GD32VW55x_standard_peripheral/Source/gd32vw55x_cau.c **** /*!
 534:../Firmware/GD32VW55x_standard_peripheral/Source/gd32vw55x_cau.c ****     \brief      restore context after context switching
 535:../Firmware/GD32VW55x_standard_peripheral/Source/gd32vw55x_cau.c ****     \param[in]  cau_context:
 536:../Firmware/GD32VW55x_standard_peripheral/Source/gd32vw55x_cau.c ****                   ctl_config: current configuration
 537:../Firmware/GD32VW55x_standard_peripheral/Source/gd32vw55x_cau.c ****                   iv_0_high: init vector 0 high
 538:../Firmware/GD32VW55x_standard_peripheral/Source/gd32vw55x_cau.c ****                   iv_0_low:  init vector 0 low
 539:../Firmware/GD32VW55x_standard_peripheral/Source/gd32vw55x_cau.c ****                   iv_1_high: init vector 1 high
 540:../Firmware/GD32VW55x_standard_peripheral/Source/gd32vw55x_cau.c ****                   iv_1_low:  init vector 1 low
 541:../Firmware/GD32VW55x_standard_peripheral/Source/gd32vw55x_cau.c ****                   key_0_high: key 0 high
 542:../Firmware/GD32VW55x_standard_peripheral/Source/gd32vw55x_cau.c ****                   key_0_low:  key 0 low
 543:../Firmware/GD32VW55x_standard_peripheral/Source/gd32vw55x_cau.c ****                   key_1_high: key 1 high
 544:../Firmware/GD32VW55x_standard_peripheral/Source/gd32vw55x_cau.c ****                   key_1_low:  key 1 low
 545:../Firmware/GD32VW55x_standard_peripheral/Source/gd32vw55x_cau.c ****                   key_2_high: key 2 high
 546:../Firmware/GD32VW55x_standard_peripheral/Source/gd32vw55x_cau.c ****                   key_2_low:  key 2 low
 547:../Firmware/GD32VW55x_standard_peripheral/Source/gd32vw55x_cau.c ****                   key_3_high: key 3 high
 548:../Firmware/GD32VW55x_standard_peripheral/Source/gd32vw55x_cau.c ****                   key_3_low:  key 3 low
 549:../Firmware/GD32VW55x_standard_peripheral/Source/gd32vw55x_cau.c ****                   gcmccmctxs[8]: GCM or CCM mode context switch
 550:../Firmware/GD32VW55x_standard_peripheral/Source/gd32vw55x_cau.c ****                   gcmctxs[8]: GCM mode context switch
 551:../Firmware/GD32VW55x_standard_peripheral/Source/gd32vw55x_cau.c ****     \param[out] none
 552:../Firmware/GD32VW55x_standard_peripheral/Source/gd32vw55x_cau.c ****     \retval     none
 553:../Firmware/GD32VW55x_standard_peripheral/Source/gd32vw55x_cau.c **** */
 554:../Firmware/GD32VW55x_standard_peripheral/Source/gd32vw55x_cau.c **** void cau_context_restore(cau_context_parameter_struct *cau_context)
 555:../Firmware/GD32VW55x_standard_peripheral/Source/gd32vw55x_cau.c **** {
 1203              		.loc 1 555 1
 1204              		.cfi_startproc
 1205 0000 3971     		addi	sp,sp,-64
 1206              		.cfi_def_cfa_offset 64
 1207 0002 06DE     		sw	ra,60(sp)
 1208 0004 22DC     		sw	s0,56(sp)
 1209              		.cfi_offset 1, -4
 1210              		.cfi_offset 8, -8
 1211 0006 8000     		addi	s0,sp,64
 1212              		.cfi_def_cfa 8, 0
 1213 0008 2326A4FC 		sw	a0,-52(s0)
 556:../Firmware/GD32VW55x_standard_peripheral/Source/gd32vw55x_cau.c ****     uint32_t algm_reg, aes_decrypt;
 557:../Firmware/GD32VW55x_standard_peripheral/Source/gd32vw55x_cau.c **** 
 558:../Firmware/GD32VW55x_standard_peripheral/Source/gd32vw55x_cau.c ****     /* configure the processor with the saved configuration */
 559:../Firmware/GD32VW55x_standard_peripheral/Source/gd32vw55x_cau.c ****     CAU_CTL = cau_context->ctl_config;
 1214              		.loc 1 559 5
 1215 000c B707064C 		li	a5,1275461632
 1216              		.loc 1 559 26
 1217 0010 0327C4FC 		lw	a4,-52(s0)
 1218 0014 1843     		lw	a4,0(a4)
 1219              		.loc 1 559 13
 1220 0016 98C3     		sw	a4,0(a5)
 560:../Firmware/GD32VW55x_standard_peripheral/Source/gd32vw55x_cau.c **** 
 561:../Firmware/GD32VW55x_standard_peripheral/Source/gd32vw55x_cau.c ****     algm_reg = CAU_CTL & CAU_CTL_ALGM;
 1221              		.loc 1 561 16
 1222 0018 B707064C 		li	a5,1275461632
 1223 001c 9843     		lw	a4,0(a5)
 1224              		.loc 1 561 14
 1225 001e B7070800 		li	a5,524288
 1226 0022 93878703 		addi	a5,a5,56
 1227 0026 F98F     		and	a5,a4,a5
 1228 0028 2326F4FE 		sw	a5,-20(s0)
 562:../Firmware/GD32VW55x_standard_peripheral/Source/gd32vw55x_cau.c **** 
 563:../Firmware/GD32VW55x_standard_peripheral/Source/gd32vw55x_cau.c ****     /* restore the key value */
 564:../Firmware/GD32VW55x_standard_peripheral/Source/gd32vw55x_cau.c ****     CAU_KEY0H = cau_context->key_0_high;
 1229              		.loc 1 564 5
 1230 002c B707064C 		li	a5,1275461632
 1231 0030 93870702 		addi	a5,a5,32
 1232              		.loc 1 564 28
 1233 0034 0327C4FC 		lw	a4,-52(s0)
 1234 0038 584B     		lw	a4,20(a4)
 1235              		.loc 1 564 15
 1236 003a 98C3     		sw	a4,0(a5)
 565:../Firmware/GD32VW55x_standard_peripheral/Source/gd32vw55x_cau.c ****     CAU_KEY0L = cau_context->key_0_low;
 1237              		.loc 1 565 5
 1238 003c B707064C 		li	a5,1275461632
 1239 0040 93874702 		addi	a5,a5,36
 1240              		.loc 1 565 28
 1241 0044 0327C4FC 		lw	a4,-52(s0)
 1242 0048 184F     		lw	a4,24(a4)
 1243              		.loc 1 565 15
 1244 004a 98C3     		sw	a4,0(a5)
 566:../Firmware/GD32VW55x_standard_peripheral/Source/gd32vw55x_cau.c ****     CAU_KEY1H = cau_context->key_1_high;
 1245              		.loc 1 566 5
 1246 004c B707064C 		li	a5,1275461632
 1247 0050 93878702 		addi	a5,a5,40
 1248              		.loc 1 566 28
 1249 0054 0327C4FC 		lw	a4,-52(s0)
 1250 0058 584F     		lw	a4,28(a4)
 1251              		.loc 1 566 15
 1252 005a 98C3     		sw	a4,0(a5)
 567:../Firmware/GD32VW55x_standard_peripheral/Source/gd32vw55x_cau.c ****     CAU_KEY1L = cau_context->key_1_low;
 1253              		.loc 1 567 5
 1254 005c B707064C 		li	a5,1275461632
 1255 0060 9387C702 		addi	a5,a5,44
 1256              		.loc 1 567 28
 1257 0064 0327C4FC 		lw	a4,-52(s0)
 1258 0068 1853     		lw	a4,32(a4)
 1259              		.loc 1 567 15
 1260 006a 98C3     		sw	a4,0(a5)
 568:../Firmware/GD32VW55x_standard_peripheral/Source/gd32vw55x_cau.c ****     CAU_KEY2H = cau_context->key_2_high;
 1261              		.loc 1 568 5
 1262 006c B707064C 		li	a5,1275461632
 1263 0070 93870703 		addi	a5,a5,48
 1264              		.loc 1 568 28
 1265 0074 0327C4FC 		lw	a4,-52(s0)
 1266 0078 5853     		lw	a4,36(a4)
 1267              		.loc 1 568 15
 1268 007a 98C3     		sw	a4,0(a5)
 569:../Firmware/GD32VW55x_standard_peripheral/Source/gd32vw55x_cau.c ****     CAU_KEY2L = cau_context->key_2_low;
 1269              		.loc 1 569 5
 1270 007c B707064C 		li	a5,1275461632
 1271 0080 93874703 		addi	a5,a5,52
 1272              		.loc 1 569 28
 1273 0084 0327C4FC 		lw	a4,-52(s0)
 1274 0088 1857     		lw	a4,40(a4)
 1275              		.loc 1 569 15
 1276 008a 98C3     		sw	a4,0(a5)
 570:../Firmware/GD32VW55x_standard_peripheral/Source/gd32vw55x_cau.c ****     CAU_KEY3H = cau_context->key_3_high;
 1277              		.loc 1 570 5
 1278 008c B707064C 		li	a5,1275461632
 1279 0090 93878703 		addi	a5,a5,56
 1280              		.loc 1 570 28
 1281 0094 0327C4FC 		lw	a4,-52(s0)
 1282 0098 5857     		lw	a4,44(a4)
 1283              		.loc 1 570 15
 1284 009a 98C3     		sw	a4,0(a5)
 571:../Firmware/GD32VW55x_standard_peripheral/Source/gd32vw55x_cau.c ****     CAU_KEY3L = cau_context->key_3_low;
 1285              		.loc 1 571 5
 1286 009c B707064C 		li	a5,1275461632
 1287 00a0 9387C703 		addi	a5,a5,60
 1288              		.loc 1 571 28
 1289 00a4 0327C4FC 		lw	a4,-52(s0)
 1290 00a8 185B     		lw	a4,48(a4)
 1291              		.loc 1 571 15
 1292 00aa 98C3     		sw	a4,0(a5)
 572:../Firmware/GD32VW55x_standard_peripheral/Source/gd32vw55x_cau.c **** 
 573:../Firmware/GD32VW55x_standard_peripheral/Source/gd32vw55x_cau.c ****     if((CAU_MODE_TDES_ECB != algm_reg) && (CAU_MODE_DES_ECB != algm_reg) && (CAU_MODE_AES_ECB != al
 1293              		.loc 1 573 7
 1294 00ac 8327C4FE 		lw	a5,-20(s0)
 1295 00b0 A1CF     		beq	a5,zero,.L33
 1296              		.loc 1 573 40 discriminator 1
 1297 00b2 0327C4FE 		lw	a4,-20(s0)
 1298 00b6 C147     		li	a5,16
 1299 00b8 6308F704 		beq	a4,a5,.L33
 1300              		.loc 1 573 74 discriminator 2
 1301 00bc 0327C4FE 		lw	a4,-20(s0)
 1302 00c0 93070002 		li	a5,32
 1303 00c4 6302F704 		beq	a4,a5,.L33
 574:../Firmware/GD32VW55x_standard_peripheral/Source/gd32vw55x_cau.c ****         /* restore the initialization vectors */
 575:../Firmware/GD32VW55x_standard_peripheral/Source/gd32vw55x_cau.c ****         CAU_IV0H = cau_context->iv_0_high;
 1304              		.loc 1 575 9
 1305 00c8 B707064C 		li	a5,1275461632
 1306 00cc 93870704 		addi	a5,a5,64
 1307              		.loc 1 575 31
 1308 00d0 0327C4FC 		lw	a4,-52(s0)
 1309 00d4 5843     		lw	a4,4(a4)
 1310              		.loc 1 575 18
 1311 00d6 98C3     		sw	a4,0(a5)
 576:../Firmware/GD32VW55x_standard_peripheral/Source/gd32vw55x_cau.c ****         CAU_IV0L = cau_context->iv_0_low;
 1312              		.loc 1 576 9
 1313 00d8 B707064C 		li	a5,1275461632
 1314 00dc 93874704 		addi	a5,a5,68
 1315              		.loc 1 576 31
 1316 00e0 0327C4FC 		lw	a4,-52(s0)
 1317 00e4 1847     		lw	a4,8(a4)
 1318              		.loc 1 576 18
 1319 00e6 98C3     		sw	a4,0(a5)
 577:../Firmware/GD32VW55x_standard_peripheral/Source/gd32vw55x_cau.c ****         CAU_IV1H = cau_context->iv_1_high;
 1320              		.loc 1 577 9
 1321 00e8 B707064C 		li	a5,1275461632
 1322 00ec 93878704 		addi	a5,a5,72
 1323              		.loc 1 577 31
 1324 00f0 0327C4FC 		lw	a4,-52(s0)
 1325 00f4 5847     		lw	a4,12(a4)
 1326              		.loc 1 577 18
 1327 00f6 98C3     		sw	a4,0(a5)
 578:../Firmware/GD32VW55x_standard_peripheral/Source/gd32vw55x_cau.c ****         CAU_IV1L = cau_context->iv_1_low;
 1328              		.loc 1 578 9
 1329 00f8 B707064C 		li	a5,1275461632
 1330 00fc 9387C704 		addi	a5,a5,76
 1331              		.loc 1 578 31
 1332 0100 0327C4FC 		lw	a4,-52(s0)
 1333 0104 184B     		lw	a4,16(a4)
 1334              		.loc 1 578 18
 1335 0106 98C3     		sw	a4,0(a5)
 1336              	.L33:
 579:../Firmware/GD32VW55x_standard_peripheral/Source/gd32vw55x_cau.c ****     }
 580:../Firmware/GD32VW55x_standard_peripheral/Source/gd32vw55x_cau.c **** 
 581:../Firmware/GD32VW55x_standard_peripheral/Source/gd32vw55x_cau.c ****     /* if in GCM/CCM mode, restore the context switch registers */
 582:../Firmware/GD32VW55x_standard_peripheral/Source/gd32vw55x_cau.c ****     if((CAU_MODE_AES_GCM == algm_reg) || (CAU_MODE_AES_CCM == algm_reg)) {
 1337              		.loc 1 582 7
 1338 0108 0327C4FE 		lw	a4,-20(s0)
 1339 010c B7070800 		li	a5,524288
 1340 0110 6309F700 		beq	a4,a5,.L34
 1341              		.loc 1 582 39 discriminator 1
 1342 0114 0327C4FE 		lw	a4,-20(s0)
 1343 0118 B7070800 		li	a5,524288
 1344 011c A107     		addi	a5,a5,8
 1345 011e 6312F708 		bne	a4,a5,.L35
 1346              	.L34:
 583:../Firmware/GD32VW55x_standard_peripheral/Source/gd32vw55x_cau.c ****         CAU_GCMCCMCTXSx(0U) = cau_context->gcmccmctxs[0U];
 1347              		.loc 1 583 9
 1348 0122 B707064C 		li	a5,1275461632
 1349 0126 93870705 		addi	a5,a5,80
 1350              		.loc 1 583 54
 1351 012a 0327C4FC 		lw	a4,-52(s0)
 1352 012e 585B     		lw	a4,52(a4)
 1353              		.loc 1 583 29
 1354 0130 98C3     		sw	a4,0(a5)
 584:../Firmware/GD32VW55x_standard_peripheral/Source/gd32vw55x_cau.c ****         CAU_GCMCCMCTXSx(1U) = cau_context->gcmccmctxs[1U];
 1355              		.loc 1 584 9
 1356 0132 B707064C 		li	a5,1275461632
 1357 0136 93874705 		addi	a5,a5,84
 1358              		.loc 1 584 54
 1359 013a 0327C4FC 		lw	a4,-52(s0)
 1360 013e 185F     		lw	a4,56(a4)
 1361              		.loc 1 584 29
 1362 0140 98C3     		sw	a4,0(a5)
 585:../Firmware/GD32VW55x_standard_peripheral/Source/gd32vw55x_cau.c ****         CAU_GCMCCMCTXSx(2U) = cau_context->gcmccmctxs[2U];
 1363              		.loc 1 585 9
 1364 0142 B707064C 		li	a5,1275461632
 1365 0146 93878705 		addi	a5,a5,88
 1366              		.loc 1 585 54
 1367 014a 0327C4FC 		lw	a4,-52(s0)
 1368 014e 585F     		lw	a4,60(a4)
 1369              		.loc 1 585 29
 1370 0150 98C3     		sw	a4,0(a5)
 586:../Firmware/GD32VW55x_standard_peripheral/Source/gd32vw55x_cau.c ****         CAU_GCMCCMCTXSx(3U) = cau_context->gcmccmctxs[3U];
 1371              		.loc 1 586 9
 1372 0152 B707064C 		li	a5,1275461632
 1373 0156 9387C705 		addi	a5,a5,92
 1374              		.loc 1 586 54
 1375 015a 0327C4FC 		lw	a4,-52(s0)
 1376 015e 3843     		lw	a4,64(a4)
 1377              		.loc 1 586 29
 1378 0160 98C3     		sw	a4,0(a5)
 587:../Firmware/GD32VW55x_standard_peripheral/Source/gd32vw55x_cau.c ****         CAU_GCMCCMCTXSx(4U) = cau_context->gcmccmctxs[4U];
 1379              		.loc 1 587 9
 1380 0162 B707064C 		li	a5,1275461632
 1381 0166 93870706 		addi	a5,a5,96
 1382              		.loc 1 587 54
 1383 016a 0327C4FC 		lw	a4,-52(s0)
 1384 016e 7843     		lw	a4,68(a4)
 1385              		.loc 1 587 29
 1386 0170 98C3     		sw	a4,0(a5)
 588:../Firmware/GD32VW55x_standard_peripheral/Source/gd32vw55x_cau.c ****         CAU_GCMCCMCTXSx(5U) = cau_context->gcmccmctxs[5U];
 1387              		.loc 1 588 9
 1388 0172 B707064C 		li	a5,1275461632
 1389 0176 93874706 		addi	a5,a5,100
 1390              		.loc 1 588 54
 1391 017a 0327C4FC 		lw	a4,-52(s0)
 1392 017e 3847     		lw	a4,72(a4)
 1393              		.loc 1 588 29
 1394 0180 98C3     		sw	a4,0(a5)
 589:../Firmware/GD32VW55x_standard_peripheral/Source/gd32vw55x_cau.c ****         CAU_GCMCCMCTXSx(6U) = cau_context->gcmccmctxs[6U];
 1395              		.loc 1 589 9
 1396 0182 B707064C 		li	a5,1275461632
 1397 0186 93878706 		addi	a5,a5,104
 1398              		.loc 1 589 54
 1399 018a 0327C4FC 		lw	a4,-52(s0)
 1400 018e 7847     		lw	a4,76(a4)
 1401              		.loc 1 589 29
 1402 0190 98C3     		sw	a4,0(a5)
 590:../Firmware/GD32VW55x_standard_peripheral/Source/gd32vw55x_cau.c ****         CAU_GCMCCMCTXSx(7U) = cau_context->gcmccmctxs[7U];
 1403              		.loc 1 590 9
 1404 0192 B707064C 		li	a5,1275461632
 1405 0196 9387C706 		addi	a5,a5,108
 1406              		.loc 1 590 54
 1407 019a 0327C4FC 		lw	a4,-52(s0)
 1408 019e 384B     		lw	a4,80(a4)
 1409              		.loc 1 590 29
 1410 01a0 98C3     		sw	a4,0(a5)
 1411              	.L35:
 591:../Firmware/GD32VW55x_standard_peripheral/Source/gd32vw55x_cau.c ****     }
 592:../Firmware/GD32VW55x_standard_peripheral/Source/gd32vw55x_cau.c **** 
 593:../Firmware/GD32VW55x_standard_peripheral/Source/gd32vw55x_cau.c ****     /* if in GCM mode, restore the context switch registers */
 594:../Firmware/GD32VW55x_standard_peripheral/Source/gd32vw55x_cau.c ****     if(CAU_MODE_AES_GCM == algm_reg) {
 1412              		.loc 1 594 7
 1413 01a2 0327C4FE 		lw	a4,-20(s0)
 1414 01a6 B7070800 		li	a5,524288
 1415 01aa 6312F708 		bne	a4,a5,.L36
 595:../Firmware/GD32VW55x_standard_peripheral/Source/gd32vw55x_cau.c ****         CAU_GCMCTXSx(0U) = cau_context->gcmctxs[0U];
 1416              		.loc 1 595 9
 1417 01ae B707064C 		li	a5,1275461632
 1418 01b2 93870707 		addi	a5,a5,112
 1419              		.loc 1 595 48
 1420 01b6 0327C4FC 		lw	a4,-52(s0)
 1421 01ba 784B     		lw	a4,84(a4)
 1422              		.loc 1 595 26
 1423 01bc 98C3     		sw	a4,0(a5)
 596:../Firmware/GD32VW55x_standard_peripheral/Source/gd32vw55x_cau.c ****         CAU_GCMCTXSx(1U) = cau_context->gcmctxs[1U];
 1424              		.loc 1 596 9
 1425 01be B707064C 		li	a5,1275461632
 1426 01c2 93874707 		addi	a5,a5,116
 1427              		.loc 1 596 48
 1428 01c6 0327C4FC 		lw	a4,-52(s0)
 1429 01ca 384F     		lw	a4,88(a4)
 1430              		.loc 1 596 26
 1431 01cc 98C3     		sw	a4,0(a5)
 597:../Firmware/GD32VW55x_standard_peripheral/Source/gd32vw55x_cau.c ****         CAU_GCMCTXSx(2U) = cau_context->gcmctxs[2U];
 1432              		.loc 1 597 9
 1433 01ce B707064C 		li	a5,1275461632
 1434 01d2 93878707 		addi	a5,a5,120
 1435              		.loc 1 597 48
 1436 01d6 0327C4FC 		lw	a4,-52(s0)
 1437 01da 784F     		lw	a4,92(a4)
 1438              		.loc 1 597 26
 1439 01dc 98C3     		sw	a4,0(a5)
 598:../Firmware/GD32VW55x_standard_peripheral/Source/gd32vw55x_cau.c ****         CAU_GCMCTXSx(3U) = cau_context->gcmctxs[3U];
 1440              		.loc 1 598 9
 1441 01de B707064C 		li	a5,1275461632
 1442 01e2 9387C707 		addi	a5,a5,124
 1443              		.loc 1 598 48
 1444 01e6 0327C4FC 		lw	a4,-52(s0)
 1445 01ea 3853     		lw	a4,96(a4)
 1446              		.loc 1 598 26
 1447 01ec 98C3     		sw	a4,0(a5)
 599:../Firmware/GD32VW55x_standard_peripheral/Source/gd32vw55x_cau.c ****         CAU_GCMCTXSx(4U) = cau_context->gcmctxs[4U];
 1448              		.loc 1 599 9
 1449 01ee B707064C 		li	a5,1275461632
 1450 01f2 93870708 		addi	a5,a5,128
 1451              		.loc 1 599 48
 1452 01f6 0327C4FC 		lw	a4,-52(s0)
 1453 01fa 7853     		lw	a4,100(a4)
 1454              		.loc 1 599 26
 1455 01fc 98C3     		sw	a4,0(a5)
 600:../Firmware/GD32VW55x_standard_peripheral/Source/gd32vw55x_cau.c ****         CAU_GCMCTXSx(5U) = cau_context->gcmctxs[5U];
 1456              		.loc 1 600 9
 1457 01fe B707064C 		li	a5,1275461632
 1458 0202 93874708 		addi	a5,a5,132
 1459              		.loc 1 600 48
 1460 0206 0327C4FC 		lw	a4,-52(s0)
 1461 020a 3857     		lw	a4,104(a4)
 1462              		.loc 1 600 26
 1463 020c 98C3     		sw	a4,0(a5)
 601:../Firmware/GD32VW55x_standard_peripheral/Source/gd32vw55x_cau.c ****         CAU_GCMCTXSx(6U) = cau_context->gcmctxs[6U];
 1464              		.loc 1 601 9
 1465 020e B707064C 		li	a5,1275461632
 1466 0212 93878708 		addi	a5,a5,136
 1467              		.loc 1 601 48
 1468 0216 0327C4FC 		lw	a4,-52(s0)
 1469 021a 7857     		lw	a4,108(a4)
 1470              		.loc 1 601 26
 1471 021c 98C3     		sw	a4,0(a5)
 602:../Firmware/GD32VW55x_standard_peripheral/Source/gd32vw55x_cau.c ****         CAU_GCMCTXSx(7U) = cau_context->gcmctxs[7U];
 1472              		.loc 1 602 9
 1473 021e B707064C 		li	a5,1275461632
 1474 0222 9387C708 		addi	a5,a5,140
 1475              		.loc 1 602 48
 1476 0226 0327C4FC 		lw	a4,-52(s0)
 1477 022a 385B     		lw	a4,112(a4)
 1478              		.loc 1 602 26
 1479 022c 98C3     		sw	a4,0(a5)
 1480              	.L36:
 603:../Firmware/GD32VW55x_standard_peripheral/Source/gd32vw55x_cau.c ****     }
 604:../Firmware/GD32VW55x_standard_peripheral/Source/gd32vw55x_cau.c **** 
 605:../Firmware/GD32VW55x_standard_peripheral/Source/gd32vw55x_cau.c ****     /* if it is AES ECB/CBC decryption, then first prepare key */
 606:../Firmware/GD32VW55x_standard_peripheral/Source/gd32vw55x_cau.c ****     aes_decrypt = CAU_CTL & (CAU_CTL_ALGM | CAU_CTL_CAUDIR);
 1481              		.loc 1 606 19
 1482 022e B707064C 		li	a5,1275461632
 1483 0232 9843     		lw	a4,0(a5)
 1484              		.loc 1 606 17
 1485 0234 B7070800 		li	a5,524288
 1486 0238 9387C703 		addi	a5,a5,60
 1487 023c F98F     		and	a5,a4,a5
 1488 023e 2324F4FE 		sw	a5,-24(s0)
 607:../Firmware/GD32VW55x_standard_peripheral/Source/gd32vw55x_cau.c ****     if(((CAU_MODE_AES_ECB | CAU_DECRYPT) == aes_decrypt) || ((CAU_MODE_AES_CBC | CAU_DECRYPT) == ae
 1489              		.loc 1 607 7
 1490 0242 032784FE 		lw	a4,-24(s0)
 1491 0246 93074002 		li	a5,36
 1492 024a 6308F700 		beq	a4,a5,.L37
 1493              		.loc 1 607 58 discriminator 1
 1494 024e 032784FE 		lw	a4,-24(s0)
 1495 0252 9307C002 		li	a5,44
 1496 0256 631BF704 		bne	a4,a5,.L38
 1497              	.L37:
 1498              	.LBB2:
 608:../Firmware/GD32VW55x_standard_peripheral/Source/gd32vw55x_cau.c ****         uint32_t alg_dir, algo_mode, swapping;
 609:../Firmware/GD32VW55x_standard_peripheral/Source/gd32vw55x_cau.c **** 
 610:../Firmware/GD32VW55x_standard_peripheral/Source/gd32vw55x_cau.c ****         /* flush IN/OUT FIFOs */
 611:../Firmware/GD32VW55x_standard_peripheral/Source/gd32vw55x_cau.c ****         cau_fifo_flush();
 1499              		.loc 1 611 9
 1500 025a 97000000 		call	cau_fifo_flush
 1500      E7800000 
 612:../Firmware/GD32VW55x_standard_peripheral/Source/gd32vw55x_cau.c ****         /* parameters for key preparation for AES decryption */
 613:../Firmware/GD32VW55x_standard_peripheral/Source/gd32vw55x_cau.c ****         alg_dir = CAU_DECRYPT;
 1501              		.loc 1 613 17
 1502 0262 9147     		li	a5,4
 1503 0264 2322F4FE 		sw	a5,-28(s0)
 614:../Firmware/GD32VW55x_standard_peripheral/Source/gd32vw55x_cau.c ****         algo_mode = CAU_MODE_AES_KEY;
 1504              		.loc 1 614 19
 1505 0268 93078003 		li	a5,56
 1506 026c 2320F4FE 		sw	a5,-32(s0)
 615:../Firmware/GD32VW55x_standard_peripheral/Source/gd32vw55x_cau.c ****         swapping = CAU_SWAPPING_32BIT;
 1507              		.loc 1 615 18
 1508 0270 232E04FC 		sw	zero,-36(s0)
 616:../Firmware/GD32VW55x_standard_peripheral/Source/gd32vw55x_cau.c ****         cau_init(alg_dir, algo_mode, swapping);
 1509              		.loc 1 616 9
 1510 0274 0326C4FD 		lw	a2,-36(s0)
 1511 0278 832504FE 		lw	a1,-32(s0)
 1512 027c 032544FE 		lw	a0,-28(s0)
 1513 0280 97000000 		call	cau_init
 1513      E7800000 
 617:../Firmware/GD32VW55x_standard_peripheral/Source/gd32vw55x_cau.c **** 
 618:../Firmware/GD32VW55x_standard_peripheral/Source/gd32vw55x_cau.c ****         /* enable CAU */
 619:../Firmware/GD32VW55x_standard_peripheral/Source/gd32vw55x_cau.c ****         cau_enable();
 1514              		.loc 1 619 9
 1515 0288 97000000 		call	cau_enable
 1515      E7800000 
 620:../Firmware/GD32VW55x_standard_peripheral/Source/gd32vw55x_cau.c **** 
 621:../Firmware/GD32VW55x_standard_peripheral/Source/gd32vw55x_cau.c ****         /* wait until BUSY=0 */
 622:../Firmware/GD32VW55x_standard_peripheral/Source/gd32vw55x_cau.c ****         while((uint32_t)0U != cau_flag_get(CAU_FLAG_BUSY)) {
 1516              		.loc 1 622 14
 1517 0290 0100     		nop
 1518              	.L39:
 1519              		.loc 1 622 31 discriminator 1
 1520 0292 4145     		li	a0,16
 1521 0294 97000000 		call	cau_flag_get
 1521      E7800000 
 1522 029c AA87     		mv	a5,a0
 1523              		.loc 1 622 14 discriminator 1
 1524 029e F5FB     		bne	a5,zero,.L39
 623:../Firmware/GD32VW55x_standard_peripheral/Source/gd32vw55x_cau.c ****         }
 624:../Firmware/GD32VW55x_standard_peripheral/Source/gd32vw55x_cau.c **** 
 625:../Firmware/GD32VW55x_standard_peripheral/Source/gd32vw55x_cau.c ****         /* parameters for decryption */
 626:../Firmware/GD32VW55x_standard_peripheral/Source/gd32vw55x_cau.c ****         CAU_CTL = cau_context->ctl_config;
 1525              		.loc 1 626 9
 1526 02a0 B707064C 		li	a5,1275461632
 1527              		.loc 1 626 30
 1528 02a4 0327C4FC 		lw	a4,-52(s0)
 1529 02a8 1843     		lw	a4,0(a4)
 1530              		.loc 1 626 17
 1531 02aa 98C3     		sw	a4,0(a5)
 1532              	.L38:
 1533              	.LBE2:
 627:../Firmware/GD32VW55x_standard_peripheral/Source/gd32vw55x_cau.c ****     }
 628:../Firmware/GD32VW55x_standard_peripheral/Source/gd32vw55x_cau.c **** 
 629:../Firmware/GD32VW55x_standard_peripheral/Source/gd32vw55x_cau.c ****     /* enable CAU */
 630:../Firmware/GD32VW55x_standard_peripheral/Source/gd32vw55x_cau.c ****     cau_enable();
 1534              		.loc 1 630 5
 1535 02ac 97000000 		call	cau_enable
 1535      E7800000 
 631:../Firmware/GD32VW55x_standard_peripheral/Source/gd32vw55x_cau.c **** }
 1536              		.loc 1 631 1
 1537 02b4 0100     		nop
 1538 02b6 F250     		lw	ra,60(sp)
 1539              		.cfi_restore 1
 1540 02b8 6254     		lw	s0,56(sp)
 1541              		.cfi_restore 8
 1542              		.cfi_def_cfa 2, 64
 1543 02ba 2161     		addi	sp,sp,64
 1544              		.cfi_def_cfa_offset 0
 1545 02bc 8280     		jr	ra
 1546              		.cfi_endproc
 1547              	.LFE366:
 1549              		.section	.text.cau_flag_get,"ax",@progbits
 1550              		.align	1
 1551              		.globl	cau_flag_get
 1553              	cau_flag_get:
 1554              	.LFB367:
 632:../Firmware/GD32VW55x_standard_peripheral/Source/gd32vw55x_cau.c **** 
 633:../Firmware/GD32VW55x_standard_peripheral/Source/gd32vw55x_cau.c **** /*!
 634:../Firmware/GD32VW55x_standard_peripheral/Source/gd32vw55x_cau.c ****     \brief      get the CAU flag status
 635:../Firmware/GD32VW55x_standard_peripheral/Source/gd32vw55x_cau.c ****     \param[in]  flag: CAU flag status
 636:../Firmware/GD32VW55x_standard_peripheral/Source/gd32vw55x_cau.c ****                 only one parameter can be selected which is shown as below:
 637:../Firmware/GD32VW55x_standard_peripheral/Source/gd32vw55x_cau.c ****       \arg        CAU_FLAG_INFIFO_EMPTY: input FIFO empty
 638:../Firmware/GD32VW55x_standard_peripheral/Source/gd32vw55x_cau.c ****       \arg        CAU_FLAG_INFIFO_NO_FULL: input FIFO is not full
 639:../Firmware/GD32VW55x_standard_peripheral/Source/gd32vw55x_cau.c ****       \arg        CAU_FLAG_OUTFIFO_NO_EMPTY: output FIFO not empty
 640:../Firmware/GD32VW55x_standard_peripheral/Source/gd32vw55x_cau.c ****       \arg        CAU_FLAG_OUTFIFO_FULL: output FIFO is full
 641:../Firmware/GD32VW55x_standard_peripheral/Source/gd32vw55x_cau.c ****       \arg        CAU_FLAG_BUSY: the CAU core is busy
 642:../Firmware/GD32VW55x_standard_peripheral/Source/gd32vw55x_cau.c ****       \arg        CAU_FLAG_INFIFO: input FIFO flag status
 643:../Firmware/GD32VW55x_standard_peripheral/Source/gd32vw55x_cau.c ****       \arg        CAU_FLAG_OUTFIFO: output FIFO flag status
 644:../Firmware/GD32VW55x_standard_peripheral/Source/gd32vw55x_cau.c ****     \param[out] none
 645:../Firmware/GD32VW55x_standard_peripheral/Source/gd32vw55x_cau.c ****     \retval     FlagStatus: SET or RESET
 646:../Firmware/GD32VW55x_standard_peripheral/Source/gd32vw55x_cau.c **** */
 647:../Firmware/GD32VW55x_standard_peripheral/Source/gd32vw55x_cau.c **** FlagStatus cau_flag_get(uint32_t flag)
 648:../Firmware/GD32VW55x_standard_peripheral/Source/gd32vw55x_cau.c **** {
 1555              		.loc 1 648 1
 1556              		.cfi_startproc
 1557 0000 7971     		addi	sp,sp,-48
 1558              		.cfi_def_cfa_offset 48
 1559 0002 22D6     		sw	s0,44(sp)
 1560              		.cfi_offset 8, -4
 1561 0004 0018     		addi	s0,sp,48
 1562              		.cfi_def_cfa 8, 0
 1563 0006 232EA4FC 		sw	a0,-36(s0)
 649:../Firmware/GD32VW55x_standard_peripheral/Source/gd32vw55x_cau.c ****     uint32_t reg = 0U;
 1564              		.loc 1 649 14
 1565 000a 232604FE 		sw	zero,-20(s0)
 650:../Firmware/GD32VW55x_standard_peripheral/Source/gd32vw55x_cau.c ****     FlagStatus ret_flag = RESET;
 1566              		.loc 1 650 16
 1567 000e 232404FE 		sw	zero,-24(s0)
 651:../Firmware/GD32VW55x_standard_peripheral/Source/gd32vw55x_cau.c **** 
 652:../Firmware/GD32VW55x_standard_peripheral/Source/gd32vw55x_cau.c ****     /* check if the flag is in CAU_STAT1 register */
 653:../Firmware/GD32VW55x_standard_peripheral/Source/gd32vw55x_cau.c ****     if(SET == (flag >> 31U)){
 1568              		.loc 1 653 21
 1569 0012 8327C4FD 		lw	a5,-36(s0)
 1570 0016 13D7F701 		srli	a4,a5,31
 1571              		.loc 1 653 7
 1572 001a 8547     		li	a5,1
 1573 001c 6319F700 		bne	a4,a5,.L41
 654:../Firmware/GD32VW55x_standard_peripheral/Source/gd32vw55x_cau.c ****         reg = CAU_STAT1;
 1574              		.loc 1 654 15
 1575 0020 B707064C 		li	a5,1275461632
 1576 0024 E107     		addi	a5,a5,24
 1577              		.loc 1 654 13
 1578 0026 9C43     		lw	a5,0(a5)
 1579 0028 2326F4FE 		sw	a5,-20(s0)
 1580 002c 39A0     		j	.L42
 1581              	.L41:
 655:../Firmware/GD32VW55x_standard_peripheral/Source/gd32vw55x_cau.c ****     } else {
 656:../Firmware/GD32VW55x_standard_peripheral/Source/gd32vw55x_cau.c ****         /* the flag is in CAU_STAT0 register */
 657:../Firmware/GD32VW55x_standard_peripheral/Source/gd32vw55x_cau.c ****         reg = CAU_STAT0;
 1582              		.loc 1 657 15
 1583 002e B707064C 		li	a5,1275461632
 1584 0032 9107     		addi	a5,a5,4
 1585              		.loc 1 657 13
 1586 0034 9C43     		lw	a5,0(a5)
 1587 0036 2326F4FE 		sw	a5,-20(s0)
 1588              	.L42:
 658:../Firmware/GD32VW55x_standard_peripheral/Source/gd32vw55x_cau.c ****     }
 659:../Firmware/GD32VW55x_standard_peripheral/Source/gd32vw55x_cau.c **** 
 660:../Firmware/GD32VW55x_standard_peripheral/Source/gd32vw55x_cau.c ****     /* check the status of the specified CAU flag */
 661:../Firmware/GD32VW55x_standard_peripheral/Source/gd32vw55x_cau.c ****     if(RESET != (reg & flag)){
 1589              		.loc 1 661 22
 1590 003a 0327C4FE 		lw	a4,-20(s0)
 1591 003e 8327C4FD 		lw	a5,-36(s0)
 1592 0042 F98F     		and	a5,a4,a5
 1593              		.loc 1 661 7
 1594 0044 81C7     		beq	a5,zero,.L43
 662:../Firmware/GD32VW55x_standard_peripheral/Source/gd32vw55x_cau.c ****         ret_flag = SET;
 1595              		.loc 1 662 18
 1596 0046 8547     		li	a5,1
 1597 0048 2324F4FE 		sw	a5,-24(s0)
 1598              	.L43:
 663:../Firmware/GD32VW55x_standard_peripheral/Source/gd32vw55x_cau.c ****     }
 664:../Firmware/GD32VW55x_standard_peripheral/Source/gd32vw55x_cau.c **** 
 665:../Firmware/GD32VW55x_standard_peripheral/Source/gd32vw55x_cau.c ****     return ret_flag;
 1599              		.loc 1 665 12
 1600 004c 832784FE 		lw	a5,-24(s0)
 666:../Firmware/GD32VW55x_standard_peripheral/Source/gd32vw55x_cau.c **** }
 1601              		.loc 1 666 1
 1602 0050 3E85     		mv	a0,a5
 1603 0052 3254     		lw	s0,44(sp)
 1604              		.cfi_restore 8
 1605              		.cfi_def_cfa 2, 48
 1606 0054 4561     		addi	sp,sp,48
 1607              		.cfi_def_cfa_offset 0
 1608 0056 8280     		jr	ra
 1609              		.cfi_endproc
 1610              	.LFE367:
 1612              		.section	.text.cau_interrupt_enable,"ax",@progbits
 1613              		.align	1
 1614              		.globl	cau_interrupt_enable
 1616              	cau_interrupt_enable:
 1617              	.LFB368:
 667:../Firmware/GD32VW55x_standard_peripheral/Source/gd32vw55x_cau.c **** 
 668:../Firmware/GD32VW55x_standard_peripheral/Source/gd32vw55x_cau.c **** /*!
 669:../Firmware/GD32VW55x_standard_peripheral/Source/gd32vw55x_cau.c ****     \brief      enable the CAU interrupts
 670:../Firmware/GD32VW55x_standard_peripheral/Source/gd32vw55x_cau.c ****     \param[in]  interrupt: specify the CAU interrupt source to be enabled
 671:../Firmware/GD32VW55x_standard_peripheral/Source/gd32vw55x_cau.c ****                 one or more parameters can be selected which are shown as below:
 672:../Firmware/GD32VW55x_standard_peripheral/Source/gd32vw55x_cau.c ****       \arg        CAU_INT_INFIFO: input FIFO interrupt
 673:../Firmware/GD32VW55x_standard_peripheral/Source/gd32vw55x_cau.c ****       \arg        CAU_INT_OUTFIFO: output FIFO interrupt
 674:../Firmware/GD32VW55x_standard_peripheral/Source/gd32vw55x_cau.c ****     \param[out] none
 675:../Firmware/GD32VW55x_standard_peripheral/Source/gd32vw55x_cau.c ****     \retval     none
 676:../Firmware/GD32VW55x_standard_peripheral/Source/gd32vw55x_cau.c **** */
 677:../Firmware/GD32VW55x_standard_peripheral/Source/gd32vw55x_cau.c **** void cau_interrupt_enable(uint32_t interrupt)
 678:../Firmware/GD32VW55x_standard_peripheral/Source/gd32vw55x_cau.c **** {
 1618              		.loc 1 678 1
 1619              		.cfi_startproc
 1620 0000 0111     		addi	sp,sp,-32
 1621              		.cfi_def_cfa_offset 32
 1622 0002 22CE     		sw	s0,28(sp)
 1623              		.cfi_offset 8, -4
 1624 0004 0010     		addi	s0,sp,32
 1625              		.cfi_def_cfa 8, 0
 1626 0006 2326A4FE 		sw	a0,-20(s0)
 679:../Firmware/GD32VW55x_standard_peripheral/Source/gd32vw55x_cau.c ****     /* enable the selected CAU interrupt */
 680:../Firmware/GD32VW55x_standard_peripheral/Source/gd32vw55x_cau.c ****     CAU_INTEN |= interrupt;
 1627              		.loc 1 680 15
 1628 000a B707064C 		li	a5,1275461632
 1629 000e D107     		addi	a5,a5,20
 1630 0010 9443     		lw	a3,0(a5)
 1631 0012 B707064C 		li	a5,1275461632
 1632 0016 D107     		addi	a5,a5,20
 1633 0018 0327C4FE 		lw	a4,-20(s0)
 1634 001c 558F     		or	a4,a3,a4
 1635 001e 98C3     		sw	a4,0(a5)
 681:../Firmware/GD32VW55x_standard_peripheral/Source/gd32vw55x_cau.c **** }
 1636              		.loc 1 681 1
 1637 0020 0100     		nop
 1638 0022 7244     		lw	s0,28(sp)
 1639              		.cfi_restore 8
 1640              		.cfi_def_cfa 2, 32
 1641 0024 0561     		addi	sp,sp,32
 1642              		.cfi_def_cfa_offset 0
 1643 0026 8280     		jr	ra
 1644              		.cfi_endproc
 1645              	.LFE368:
 1647              		.section	.text.cau_interrupt_disable,"ax",@progbits
 1648              		.align	1
 1649              		.globl	cau_interrupt_disable
 1651              	cau_interrupt_disable:
 1652              	.LFB369:
 682:../Firmware/GD32VW55x_standard_peripheral/Source/gd32vw55x_cau.c **** 
 683:../Firmware/GD32VW55x_standard_peripheral/Source/gd32vw55x_cau.c **** /*!
 684:../Firmware/GD32VW55x_standard_peripheral/Source/gd32vw55x_cau.c ****     \brief      disable the CAU interrupts
 685:../Firmware/GD32VW55x_standard_peripheral/Source/gd32vw55x_cau.c ****     \param[in]  interrupt: specify the CAU interrupt source to be disabled
 686:../Firmware/GD32VW55x_standard_peripheral/Source/gd32vw55x_cau.c ****                 one or more parameters can be selected which are shown as below:
 687:../Firmware/GD32VW55x_standard_peripheral/Source/gd32vw55x_cau.c ****       \arg        CAU_INT_INFIFO: input FIFO interrupt
 688:../Firmware/GD32VW55x_standard_peripheral/Source/gd32vw55x_cau.c ****       \arg        CAU_INT_OUTFIFO: output FIFO interrupt
 689:../Firmware/GD32VW55x_standard_peripheral/Source/gd32vw55x_cau.c ****     \param[out] none
 690:../Firmware/GD32VW55x_standard_peripheral/Source/gd32vw55x_cau.c ****     \retval     none
 691:../Firmware/GD32VW55x_standard_peripheral/Source/gd32vw55x_cau.c **** */
 692:../Firmware/GD32VW55x_standard_peripheral/Source/gd32vw55x_cau.c **** void cau_interrupt_disable(uint32_t interrupt)
 693:../Firmware/GD32VW55x_standard_peripheral/Source/gd32vw55x_cau.c **** {
 1653              		.loc 1 693 1
 1654              		.cfi_startproc
 1655 0000 0111     		addi	sp,sp,-32
 1656              		.cfi_def_cfa_offset 32
 1657 0002 22CE     		sw	s0,28(sp)
 1658              		.cfi_offset 8, -4
 1659 0004 0010     		addi	s0,sp,32
 1660              		.cfi_def_cfa 8, 0
 1661 0006 2326A4FE 		sw	a0,-20(s0)
 694:../Firmware/GD32VW55x_standard_peripheral/Source/gd32vw55x_cau.c ****     /* disable the selected CAU interrupt */
 695:../Firmware/GD32VW55x_standard_peripheral/Source/gd32vw55x_cau.c ****     CAU_INTEN &= ~(interrupt);
 1662              		.loc 1 695 15
 1663 000a B707064C 		li	a5,1275461632
 1664 000e D107     		addi	a5,a5,20
 1665 0010 9443     		lw	a3,0(a5)
 1666              		.loc 1 695 18
 1667 0012 8327C4FE 		lw	a5,-20(s0)
 1668 0016 13C7F7FF 		not	a4,a5
 1669              		.loc 1 695 15
 1670 001a B707064C 		li	a5,1275461632
 1671 001e D107     		addi	a5,a5,20
 1672 0020 758F     		and	a4,a3,a4
 1673 0022 98C3     		sw	a4,0(a5)
 696:../Firmware/GD32VW55x_standard_peripheral/Source/gd32vw55x_cau.c **** }
 1674              		.loc 1 696 1
 1675 0024 0100     		nop
 1676 0026 7244     		lw	s0,28(sp)
 1677              		.cfi_restore 8
 1678              		.cfi_def_cfa 2, 32
 1679 0028 0561     		addi	sp,sp,32
 1680              		.cfi_def_cfa_offset 0
 1681 002a 8280     		jr	ra
 1682              		.cfi_endproc
 1683              	.LFE369:
 1685              		.section	.text.cau_interrupt_flag_get,"ax",@progbits
 1686              		.align	1
 1687              		.globl	cau_interrupt_flag_get
 1689              	cau_interrupt_flag_get:
 1690              	.LFB370:
 697:../Firmware/GD32VW55x_standard_peripheral/Source/gd32vw55x_cau.c **** 
 698:../Firmware/GD32VW55x_standard_peripheral/Source/gd32vw55x_cau.c **** /*!
 699:../Firmware/GD32VW55x_standard_peripheral/Source/gd32vw55x_cau.c ****     \brief      get the interrupt flag
 700:../Firmware/GD32VW55x_standard_peripheral/Source/gd32vw55x_cau.c ****     \param[in]  int_flag: CAU interrupt flag
 701:../Firmware/GD32VW55x_standard_peripheral/Source/gd32vw55x_cau.c ****                 only one parameter can be selected which is shown as below:
 702:../Firmware/GD32VW55x_standard_peripheral/Source/gd32vw55x_cau.c ****       \arg        CAU_INT_FLAG_INFIFO: input FIFO interrupt
 703:../Firmware/GD32VW55x_standard_peripheral/Source/gd32vw55x_cau.c ****       \arg        CAU_INT_FLAG_OUTFIFO: output FIFO interrupt
 704:../Firmware/GD32VW55x_standard_peripheral/Source/gd32vw55x_cau.c ****     \param[out] none
 705:../Firmware/GD32VW55x_standard_peripheral/Source/gd32vw55x_cau.c ****     \retval     FlagStatus: SET or RESET
 706:../Firmware/GD32VW55x_standard_peripheral/Source/gd32vw55x_cau.c **** */
 707:../Firmware/GD32VW55x_standard_peripheral/Source/gd32vw55x_cau.c **** FlagStatus cau_interrupt_flag_get(uint32_t int_flag)
 708:../Firmware/GD32VW55x_standard_peripheral/Source/gd32vw55x_cau.c **** {
 1691              		.loc 1 708 1
 1692              		.cfi_startproc
 1693 0000 7971     		addi	sp,sp,-48
 1694              		.cfi_def_cfa_offset 48
 1695 0002 22D6     		sw	s0,44(sp)
 1696              		.cfi_offset 8, -4
 1697 0004 0018     		addi	s0,sp,48
 1698              		.cfi_def_cfa 8, 0
 1699 0006 232EA4FC 		sw	a0,-36(s0)
 709:../Firmware/GD32VW55x_standard_peripheral/Source/gd32vw55x_cau.c ****     FlagStatus flag = RESET;
 1700              		.loc 1 709 16
 1701 000a 232604FE 		sw	zero,-20(s0)
 710:../Firmware/GD32VW55x_standard_peripheral/Source/gd32vw55x_cau.c **** 
 711:../Firmware/GD32VW55x_standard_peripheral/Source/gd32vw55x_cau.c ****     /* check the status of the specified CAU interrupt */
 712:../Firmware/GD32VW55x_standard_peripheral/Source/gd32vw55x_cau.c ****     if(RESET != (CAU_INTF & int_flag)){
 1702              		.loc 1 712 18
 1703 000e B707064C 		li	a5,1275461632
 1704 0012 F107     		addi	a5,a5,28
 1705 0014 9843     		lw	a4,0(a5)
 1706              		.loc 1 712 27
 1707 0016 8327C4FD 		lw	a5,-36(s0)
 1708 001a F98F     		and	a5,a4,a5
 1709              		.loc 1 712 7
 1710 001c 81C7     		beq	a5,zero,.L48
 713:../Firmware/GD32VW55x_standard_peripheral/Source/gd32vw55x_cau.c ****         flag = SET;
 1711              		.loc 1 713 14
 1712 001e 8547     		li	a5,1
 1713 0020 2326F4FE 		sw	a5,-20(s0)
 1714              	.L48:
 714:../Firmware/GD32VW55x_standard_peripheral/Source/gd32vw55x_cau.c ****     }
 715:../Firmware/GD32VW55x_standard_peripheral/Source/gd32vw55x_cau.c **** 
 716:../Firmware/GD32VW55x_standard_peripheral/Source/gd32vw55x_cau.c ****     return flag;
 1715              		.loc 1 716 12
 1716 0024 8327C4FE 		lw	a5,-20(s0)
 717:../Firmware/GD32VW55x_standard_peripheral/Source/gd32vw55x_cau.c **** }
 1717              		.loc 1 717 1
 1718 0028 3E85     		mv	a0,a5
 1719 002a 3254     		lw	s0,44(sp)
 1720              		.cfi_restore 8
 1721              		.cfi_def_cfa 2, 48
 1722 002c 4561     		addi	sp,sp,48
 1723              		.cfi_def_cfa_offset 0
 1724 002e 8280     		jr	ra
 1725              		.cfi_endproc
 1726              	.LFE370:
 1728              		.text
 1729              	.Letext0:
 1730              		.file 2 "e:\\gd32\\gd32embeddedbuilder_v1.5.2.30854\\tools\\nuclei_riscv_newlibc_prebuilt_win32_20
 1731              		.file 3 "e:\\gd32\\gd32embeddedbuilder_v1.5.2.30854\\tools\\nuclei_riscv_newlibc_prebuilt_win32_20
 1732              		.file 4 "../Firmware/GD32VW55x_standard_peripheral/gd32vw55x.h"
 1733              		.file 5 "../Firmware/GD32VW55x_standard_peripheral/Include/gd32vw55x_rcu.h"
 1734              		.file 6 "../Firmware/GD32VW55x_standard_peripheral/Include/gd32vw55x_cau.h"