   1              		.file	"gd32vw55x_exti.c"
   2              		.option nopic
   3              		.attribute arch, "rv32i2p0_m2p0_a2p0_c2p0"
   4              		.attribute unaligned_access, 0
   5              		.attribute stack_align, 16
   6              		.text
   7              	.Ltext0:
   8              		.cfi_sections	.debug_frame
   9              		.section	.text.exti_deinit,"ax",@progbits
  10              		.align	1
  11              		.globl	exti_deinit
  13              	exti_deinit:
  14              	.LFB347:
  15              		.file 1 "../Firmware/GD32VW55x_standard_peripheral/Source/gd32vw55x_exti.c"
   1:../Firmware/GD32VW55x_standard_peripheral/Source/gd32vw55x_exti.c **** /*!
   2:../Firmware/GD32VW55x_standard_peripheral/Source/gd32vw55x_exti.c ****     \file    gd32vw55x_exti.c
   3:../Firmware/GD32VW55x_standard_peripheral/Source/gd32vw55x_exti.c ****     \brief   EXTI driver
   4:../Firmware/GD32VW55x_standard_peripheral/Source/gd32vw55x_exti.c **** 
   5:../Firmware/GD32VW55x_standard_peripheral/Source/gd32vw55x_exti.c ****     \version 2025-01-16, V1.4.0, firmware for GD32VW55x
   6:../Firmware/GD32VW55x_standard_peripheral/Source/gd32vw55x_exti.c **** */
   7:../Firmware/GD32VW55x_standard_peripheral/Source/gd32vw55x_exti.c **** 
   8:../Firmware/GD32VW55x_standard_peripheral/Source/gd32vw55x_exti.c **** /*
   9:../Firmware/GD32VW55x_standard_peripheral/Source/gd32vw55x_exti.c ****     Copyright (c) 2025, GigaDevice Semiconductor Inc.
  10:../Firmware/GD32VW55x_standard_peripheral/Source/gd32vw55x_exti.c **** 
  11:../Firmware/GD32VW55x_standard_peripheral/Source/gd32vw55x_exti.c ****     Redistribution and use in source and binary forms, with or without modification,
  12:../Firmware/GD32VW55x_standard_peripheral/Source/gd32vw55x_exti.c **** are permitted provided that the following conditions are met:
  13:../Firmware/GD32VW55x_standard_peripheral/Source/gd32vw55x_exti.c **** 
  14:../Firmware/GD32VW55x_standard_peripheral/Source/gd32vw55x_exti.c ****     1. Redistributions of source code must retain the above copyright notice, this
  15:../Firmware/GD32VW55x_standard_peripheral/Source/gd32vw55x_exti.c ****        list of conditions and the following disclaimer.
  16:../Firmware/GD32VW55x_standard_peripheral/Source/gd32vw55x_exti.c ****     2. Redistributions in binary form must reproduce the above copyright notice,
  17:../Firmware/GD32VW55x_standard_peripheral/Source/gd32vw55x_exti.c ****        this list of conditions and the following disclaimer in the documentation
  18:../Firmware/GD32VW55x_standard_peripheral/Source/gd32vw55x_exti.c ****        and/or other materials provided with the distribution.
  19:../Firmware/GD32VW55x_standard_peripheral/Source/gd32vw55x_exti.c ****     3. Neither the name of the copyright holder nor the names of its contributors
  20:../Firmware/GD32VW55x_standard_peripheral/Source/gd32vw55x_exti.c ****        may be used to endorse or promote products derived from this software without
  21:../Firmware/GD32VW55x_standard_peripheral/Source/gd32vw55x_exti.c ****        specific prior written permission.
  22:../Firmware/GD32VW55x_standard_peripheral/Source/gd32vw55x_exti.c **** 
  23:../Firmware/GD32VW55x_standard_peripheral/Source/gd32vw55x_exti.c ****     THIS SOFTWARE IS PROVIDED BY THE COPYRIGHT HOLDERS AND CONTRIBUTORS "AS IS"
  24:../Firmware/GD32VW55x_standard_peripheral/Source/gd32vw55x_exti.c **** AND ANY EXPRESS OR IMPLIED WARRANTIES, INCLUDING, BUT NOT LIMITED TO, THE IMPLIED
  25:../Firmware/GD32VW55x_standard_peripheral/Source/gd32vw55x_exti.c **** WARRANTIES OF MERCHANTABILITY AND FITNESS FOR A PARTICULAR PURPOSE ARE DISCLAIMED.
  26:../Firmware/GD32VW55x_standard_peripheral/Source/gd32vw55x_exti.c **** IN NO EVENT SHALL THE COPYRIGHT HOLDER OR CONTRIBUTORS BE LIABLE FOR ANY DIRECT,
  27:../Firmware/GD32VW55x_standard_peripheral/Source/gd32vw55x_exti.c **** INDIRECT, INCIDENTAL, SPECIAL, EXEMPLARY, OR CONSEQUENTIAL DAMAGES (INCLUDING, BUT
  28:../Firmware/GD32VW55x_standard_peripheral/Source/gd32vw55x_exti.c **** NOT LIMITED TO, PROCUREMENT OF SUBSTITUTE GOODS OR SERVICES; LOSS OF USE, DATA, OR
  29:../Firmware/GD32VW55x_standard_peripheral/Source/gd32vw55x_exti.c **** PROFITS; OR BUSINESS INTERRUPTION) HOWEVER CAUSED AND ON ANY THEORY OF LIABILITY,
  30:../Firmware/GD32VW55x_standard_peripheral/Source/gd32vw55x_exti.c **** WHETHER IN CONTRACT, STRICT LIABILITY, OR TORT (INCLUDING NEGLIGENCE OR OTHERWISE)
  31:../Firmware/GD32VW55x_standard_peripheral/Source/gd32vw55x_exti.c **** ARISING IN ANY WAY OUT OF THE USE OF THIS SOFTWARE, EVEN IF ADVISED OF THE POSSIBILITY
  32:../Firmware/GD32VW55x_standard_peripheral/Source/gd32vw55x_exti.c **** OF SUCH DAMAGE.
  33:../Firmware/GD32VW55x_standard_peripheral/Source/gd32vw55x_exti.c **** */
  34:../Firmware/GD32VW55x_standard_peripheral/Source/gd32vw55x_exti.c **** 
  35:../Firmware/GD32VW55x_standard_peripheral/Source/gd32vw55x_exti.c **** #include "gd32vw55x_exti.h"
  36:../Firmware/GD32VW55x_standard_peripheral/Source/gd32vw55x_exti.c **** 
  37:../Firmware/GD32VW55x_standard_peripheral/Source/gd32vw55x_exti.c **** #define EXTI_REG_RESET_VALUE            ((uint32_t)0x00000000U)
  38:../Firmware/GD32VW55x_standard_peripheral/Source/gd32vw55x_exti.c **** 
  39:../Firmware/GD32VW55x_standard_peripheral/Source/gd32vw55x_exti.c **** /*!
  40:../Firmware/GD32VW55x_standard_peripheral/Source/gd32vw55x_exti.c ****     \brief      deinitialize the EXTI
  41:../Firmware/GD32VW55x_standard_peripheral/Source/gd32vw55x_exti.c ****     \param[in]  none
  42:../Firmware/GD32VW55x_standard_peripheral/Source/gd32vw55x_exti.c ****     \param[out] none
  43:../Firmware/GD32VW55x_standard_peripheral/Source/gd32vw55x_exti.c ****     \retval     none
  44:../Firmware/GD32VW55x_standard_peripheral/Source/gd32vw55x_exti.c **** */
  45:../Firmware/GD32VW55x_standard_peripheral/Source/gd32vw55x_exti.c **** void exti_deinit(void)
  46:../Firmware/GD32VW55x_standard_peripheral/Source/gd32vw55x_exti.c **** {
  16              		.loc 1 46 1
  17              		.cfi_startproc
  18 0000 4111     		addi	sp,sp,-16
  19              		.cfi_def_cfa_offset 16
  20 0002 22C6     		sw	s0,12(sp)
  21              		.cfi_offset 8, -4
  22 0004 0008     		addi	s0,sp,16
  23              		.cfi_def_cfa 8, 0
  47:../Firmware/GD32VW55x_standard_peripheral/Source/gd32vw55x_exti.c ****     /* reset the value of all the EXTI registers */
  48:../Firmware/GD32VW55x_standard_peripheral/Source/gd32vw55x_exti.c ****     EXTI_INTEN   = EXTI_REG_RESET_VALUE;
  24              		.loc 1 48 5
  25 0006 B7470140 		li	a5,1073823744
  26 000a 938707C0 		addi	a5,a5,-1024
  27              		.loc 1 48 18
  28 000e 23A00700 		sw	zero,0(a5)
  49:../Firmware/GD32VW55x_standard_peripheral/Source/gd32vw55x_exti.c ****     EXTI_EVEN    = EXTI_REG_RESET_VALUE;
  29              		.loc 1 49 5
  30 0012 B7470140 		li	a5,1073823744
  31 0016 938747C0 		addi	a5,a5,-1020
  32              		.loc 1 49 18
  33 001a 23A00700 		sw	zero,0(a5)
  50:../Firmware/GD32VW55x_standard_peripheral/Source/gd32vw55x_exti.c ****     EXTI_RTEN    = EXTI_REG_RESET_VALUE;
  34              		.loc 1 50 5
  35 001e B7470140 		li	a5,1073823744
  36 0022 938787C0 		addi	a5,a5,-1016
  37              		.loc 1 50 18
  38 0026 23A00700 		sw	zero,0(a5)
  51:../Firmware/GD32VW55x_standard_peripheral/Source/gd32vw55x_exti.c ****     EXTI_FTEN    = EXTI_REG_RESET_VALUE;
  39              		.loc 1 51 5
  40 002a B7470140 		li	a5,1073823744
  41 002e 9387C7C0 		addi	a5,a5,-1012
  42              		.loc 1 51 18
  43 0032 23A00700 		sw	zero,0(a5)
  52:../Firmware/GD32VW55x_standard_peripheral/Source/gd32vw55x_exti.c ****     EXTI_SWIEV   = EXTI_REG_RESET_VALUE;
  44              		.loc 1 52 5
  45 0036 B7470140 		li	a5,1073823744
  46 003a 938707C1 		addi	a5,a5,-1008
  47              		.loc 1 52 18
  48 003e 23A00700 		sw	zero,0(a5)
  53:../Firmware/GD32VW55x_standard_peripheral/Source/gd32vw55x_exti.c **** }
  49              		.loc 1 53 1
  50 0042 0100     		nop
  51 0044 3244     		lw	s0,12(sp)
  52              		.cfi_restore 8
  53              		.cfi_def_cfa 2, 16
  54 0046 4101     		addi	sp,sp,16
  55              		.cfi_def_cfa_offset 0
  56 0048 8280     		jr	ra
  57              		.cfi_endproc
  58              	.LFE347:
  60              		.section	.text.exti_init,"ax",@progbits
  61              		.align	1
  62              		.globl	exti_init
  64              	exti_init:
  65              	.LFB348:
  54:../Firmware/GD32VW55x_standard_peripheral/Source/gd32vw55x_exti.c **** 
  55:../Firmware/GD32VW55x_standard_peripheral/Source/gd32vw55x_exti.c **** /*!
  56:../Firmware/GD32VW55x_standard_peripheral/Source/gd32vw55x_exti.c ****     \brief      initialize the EXTI line x
  57:../Firmware/GD32VW55x_standard_peripheral/Source/gd32vw55x_exti.c ****     \param[in]  linex: EXTI line number, refer to exti_line_enum
  58:../Firmware/GD32VW55x_standard_peripheral/Source/gd32vw55x_exti.c ****                 only one parameter can be selected which is shown as below:
  59:../Firmware/GD32VW55x_standard_peripheral/Source/gd32vw55x_exti.c ****       \arg        EXTI_x (x=0..17,19..25): EXTI line x
  60:../Firmware/GD32VW55x_standard_peripheral/Source/gd32vw55x_exti.c ****     \param[in]  mode: interrupt or event mode, refer to exti_mode_enum
  61:../Firmware/GD32VW55x_standard_peripheral/Source/gd32vw55x_exti.c ****                 only one parameter can be selected which is shown as below:
  62:../Firmware/GD32VW55x_standard_peripheral/Source/gd32vw55x_exti.c ****       \arg        EXTI_INTERRUPT: interrupt mode
  63:../Firmware/GD32VW55x_standard_peripheral/Source/gd32vw55x_exti.c ****       \arg        EXTI_EVENT: event mode
  64:../Firmware/GD32VW55x_standard_peripheral/Source/gd32vw55x_exti.c ****     \param[in]  trig_type: interrupt trigger type, refer to exti_trig_type_enum
  65:../Firmware/GD32VW55x_standard_peripheral/Source/gd32vw55x_exti.c ****                 only one parameter can be selected which is shown as below:
  66:../Firmware/GD32VW55x_standard_peripheral/Source/gd32vw55x_exti.c ****       \arg        EXTI_TRIG_RISING: rising edge trigger
  67:../Firmware/GD32VW55x_standard_peripheral/Source/gd32vw55x_exti.c ****       \arg        EXTI_TRIG_FALLING: falling edge trigger
  68:../Firmware/GD32VW55x_standard_peripheral/Source/gd32vw55x_exti.c ****       \arg        EXTI_TRIG_BOTH: rising and falling edge trigger
  69:../Firmware/GD32VW55x_standard_peripheral/Source/gd32vw55x_exti.c ****       \arg        EXTI_TRIG_NONE: without rising edge or falling edge trigger
  70:../Firmware/GD32VW55x_standard_peripheral/Source/gd32vw55x_exti.c ****     \param[out] none
  71:../Firmware/GD32VW55x_standard_peripheral/Source/gd32vw55x_exti.c ****     \retval     none
  72:../Firmware/GD32VW55x_standard_peripheral/Source/gd32vw55x_exti.c **** */
  73:../Firmware/GD32VW55x_standard_peripheral/Source/gd32vw55x_exti.c **** void exti_init(exti_line_enum linex, exti_mode_enum mode, exti_trig_type_enum trig_type)
  74:../Firmware/GD32VW55x_standard_peripheral/Source/gd32vw55x_exti.c **** {
  66              		.loc 1 74 1
  67              		.cfi_startproc
  68 0000 0111     		addi	sp,sp,-32
  69              		.cfi_def_cfa_offset 32
  70 0002 22CE     		sw	s0,28(sp)
  71              		.cfi_offset 8, -4
  72 0004 0010     		addi	s0,sp,32
  73              		.cfi_def_cfa 8, 0
  74 0006 2326A4FE 		sw	a0,-20(s0)
  75 000a 2324B4FE 		sw	a1,-24(s0)
  76 000e 2322C4FE 		sw	a2,-28(s0)
  75:../Firmware/GD32VW55x_standard_peripheral/Source/gd32vw55x_exti.c ****     /* reset the EXTI line x */
  76:../Firmware/GD32VW55x_standard_peripheral/Source/gd32vw55x_exti.c ****     EXTI_INTEN &= ~(uint32_t)linex;
  77              		.loc 1 76 16
  78 0012 B7470140 		li	a5,1073823744
  79 0016 938707C0 		addi	a5,a5,-1024
  80 001a 9443     		lw	a3,0(a5)
  81              		.loc 1 76 19
  82 001c 8327C4FE 		lw	a5,-20(s0)
  83 0020 13C7F7FF 		not	a4,a5
  84              		.loc 1 76 16
  85 0024 B7470140 		li	a5,1073823744
  86 0028 938707C0 		addi	a5,a5,-1024
  87 002c 758F     		and	a4,a3,a4
  88 002e 98C3     		sw	a4,0(a5)
  77:../Firmware/GD32VW55x_standard_peripheral/Source/gd32vw55x_exti.c ****     EXTI_EVEN &= ~(uint32_t)linex;
  89              		.loc 1 77 15
  90 0030 B7470140 		li	a5,1073823744
  91 0034 938747C0 		addi	a5,a5,-1020
  92 0038 9443     		lw	a3,0(a5)
  93              		.loc 1 77 18
  94 003a 8327C4FE 		lw	a5,-20(s0)
  95 003e 13C7F7FF 		not	a4,a5
  96              		.loc 1 77 15
  97 0042 B7470140 		li	a5,1073823744
  98 0046 938747C0 		addi	a5,a5,-1020
  99 004a 758F     		and	a4,a3,a4
 100 004c 98C3     		sw	a4,0(a5)
  78:../Firmware/GD32VW55x_standard_peripheral/Source/gd32vw55x_exti.c ****     EXTI_RTEN &= ~(uint32_t)linex;
 101              		.loc 1 78 15
 102 004e B7470140 		li	a5,1073823744
 103 0052 938787C0 		addi	a5,a5,-1016
 104 0056 9443     		lw	a3,0(a5)
 105              		.loc 1 78 18
 106 0058 8327C4FE 		lw	a5,-20(s0)
 107 005c 13C7F7FF 		not	a4,a5
 108              		.loc 1 78 15
 109 0060 B7470140 		li	a5,1073823744
 110 0064 938787C0 		addi	a5,a5,-1016
 111 0068 758F     		and	a4,a3,a4
 112 006a 98C3     		sw	a4,0(a5)
  79:../Firmware/GD32VW55x_standard_peripheral/Source/gd32vw55x_exti.c ****     EXTI_FTEN &= ~(uint32_t)linex;
 113              		.loc 1 79 15
 114 006c B7470140 		li	a5,1073823744
 115 0070 9387C7C0 		addi	a5,a5,-1012
 116 0074 9443     		lw	a3,0(a5)
 117              		.loc 1 79 18
 118 0076 8327C4FE 		lw	a5,-20(s0)
 119 007a 13C7F7FF 		not	a4,a5
 120              		.loc 1 79 15
 121 007e B7470140 		li	a5,1073823744
 122 0082 9387C7C0 		addi	a5,a5,-1012
 123 0086 758F     		and	a4,a3,a4
 124 0088 98C3     		sw	a4,0(a5)
  80:../Firmware/GD32VW55x_standard_peripheral/Source/gd32vw55x_exti.c **** 
  81:../Firmware/GD32VW55x_standard_peripheral/Source/gd32vw55x_exti.c ****     /* set the EXTI mode and enable the interrupts or events from EXTI line x */
  82:../Firmware/GD32VW55x_standard_peripheral/Source/gd32vw55x_exti.c ****     switch(mode) {
 125              		.loc 1 82 5
 126 008a 832784FE 		lw	a5,-24(s0)
 127 008e 99C7     		beq	a5,zero,.L3
 128 0090 032784FE 		lw	a4,-24(s0)
 129 0094 8547     		li	a5,1
 130 0096 6301F702 		beq	a4,a5,.L4
  83:../Firmware/GD32VW55x_standard_peripheral/Source/gd32vw55x_exti.c ****     case EXTI_INTERRUPT:
  84:../Firmware/GD32VW55x_standard_peripheral/Source/gd32vw55x_exti.c ****         EXTI_INTEN |= (uint32_t)linex;
  85:../Firmware/GD32VW55x_standard_peripheral/Source/gd32vw55x_exti.c ****         break;
  86:../Firmware/GD32VW55x_standard_peripheral/Source/gd32vw55x_exti.c ****     case EXTI_EVENT:
  87:../Firmware/GD32VW55x_standard_peripheral/Source/gd32vw55x_exti.c ****         EXTI_EVEN |= (uint32_t)linex;
  88:../Firmware/GD32VW55x_standard_peripheral/Source/gd32vw55x_exti.c ****         break;
  89:../Firmware/GD32VW55x_standard_peripheral/Source/gd32vw55x_exti.c ****     default:
  90:../Firmware/GD32VW55x_standard_peripheral/Source/gd32vw55x_exti.c ****         break;
 131              		.loc 1 90 9
 132 009a 2DA8     		j	.L6
 133              	.L3:
  84:../Firmware/GD32VW55x_standard_peripheral/Source/gd32vw55x_exti.c ****         break;
 134              		.loc 1 84 20
 135 009c B7470140 		li	a5,1073823744
 136 00a0 938707C0 		addi	a5,a5,-1024
 137 00a4 9443     		lw	a3,0(a5)
 138 00a6 B7470140 		li	a5,1073823744
 139 00aa 938707C0 		addi	a5,a5,-1024
 140 00ae 0327C4FE 		lw	a4,-20(s0)
 141 00b2 558F     		or	a4,a3,a4
 142 00b4 98C3     		sw	a4,0(a5)
  85:../Firmware/GD32VW55x_standard_peripheral/Source/gd32vw55x_exti.c ****     case EXTI_EVENT:
 143              		.loc 1 85 9
 144 00b6 39A8     		j	.L6
 145              	.L4:
  87:../Firmware/GD32VW55x_standard_peripheral/Source/gd32vw55x_exti.c ****         break;
 146              		.loc 1 87 19
 147 00b8 B7470140 		li	a5,1073823744
 148 00bc 938747C0 		addi	a5,a5,-1020
 149 00c0 9443     		lw	a3,0(a5)
 150 00c2 B7470140 		li	a5,1073823744
 151 00c6 938747C0 		addi	a5,a5,-1020
 152 00ca 0327C4FE 		lw	a4,-20(s0)
 153 00ce 558F     		or	a4,a3,a4
 154 00d0 98C3     		sw	a4,0(a5)
  88:../Firmware/GD32VW55x_standard_peripheral/Source/gd32vw55x_exti.c ****     default:
 155              		.loc 1 88 9
 156 00d2 0100     		nop
 157              	.L6:
  91:../Firmware/GD32VW55x_standard_peripheral/Source/gd32vw55x_exti.c ****     }
  92:../Firmware/GD32VW55x_standard_peripheral/Source/gd32vw55x_exti.c **** 
  93:../Firmware/GD32VW55x_standard_peripheral/Source/gd32vw55x_exti.c ****     /* set the EXTI trigger type */
  94:../Firmware/GD32VW55x_standard_peripheral/Source/gd32vw55x_exti.c ****     switch(trig_type) {
 158              		.loc 1 94 5
 159 00d4 032744FE 		lw	a4,-28(s0)
 160 00d8 8947     		li	a5,2
 161 00da 630AF708 		beq	a4,a5,.L7
 162 00de 032744FE 		lw	a4,-28(s0)
 163 00e2 8947     		li	a5,2
 164 00e4 63E0E70C 		bgtu	a4,a5,.L12
 165 00e8 832744FE 		lw	a5,-28(s0)
 166 00ec 99C7     		beq	a5,zero,.L9
 167 00ee 032744FE 		lw	a4,-28(s0)
 168 00f2 8547     		li	a5,1
 169 00f4 6300F704 		beq	a4,a5,.L10
  95:../Firmware/GD32VW55x_standard_peripheral/Source/gd32vw55x_exti.c ****     case EXTI_TRIG_RISING:
  96:../Firmware/GD32VW55x_standard_peripheral/Source/gd32vw55x_exti.c ****         EXTI_RTEN |= (uint32_t)linex;
  97:../Firmware/GD32VW55x_standard_peripheral/Source/gd32vw55x_exti.c ****         EXTI_FTEN &= ~(uint32_t)linex;
  98:../Firmware/GD32VW55x_standard_peripheral/Source/gd32vw55x_exti.c ****         break;
  99:../Firmware/GD32VW55x_standard_peripheral/Source/gd32vw55x_exti.c ****     case EXTI_TRIG_FALLING:
 100:../Firmware/GD32VW55x_standard_peripheral/Source/gd32vw55x_exti.c ****         EXTI_RTEN &= ~(uint32_t)linex;
 101:../Firmware/GD32VW55x_standard_peripheral/Source/gd32vw55x_exti.c ****         EXTI_FTEN |= (uint32_t)linex;
 102:../Firmware/GD32VW55x_standard_peripheral/Source/gd32vw55x_exti.c ****         break;
 103:../Firmware/GD32VW55x_standard_peripheral/Source/gd32vw55x_exti.c ****     case EXTI_TRIG_BOTH:
 104:../Firmware/GD32VW55x_standard_peripheral/Source/gd32vw55x_exti.c ****         EXTI_RTEN |= (uint32_t)linex;
 105:../Firmware/GD32VW55x_standard_peripheral/Source/gd32vw55x_exti.c ****         EXTI_FTEN |= (uint32_t)linex;
 106:../Firmware/GD32VW55x_standard_peripheral/Source/gd32vw55x_exti.c ****         break;
 107:../Firmware/GD32VW55x_standard_peripheral/Source/gd32vw55x_exti.c ****     case EXTI_TRIG_NONE:
 108:../Firmware/GD32VW55x_standard_peripheral/Source/gd32vw55x_exti.c ****     default:
 109:../Firmware/GD32VW55x_standard_peripheral/Source/gd32vw55x_exti.c ****         break;
 170              		.loc 1 109 9
 171 00f8 75A0     		j	.L12
 172              	.L9:
  96:../Firmware/GD32VW55x_standard_peripheral/Source/gd32vw55x_exti.c ****         EXTI_FTEN &= ~(uint32_t)linex;
 173              		.loc 1 96 19
 174 00fa B7470140 		li	a5,1073823744
 175 00fe 938787C0 		addi	a5,a5,-1016
 176 0102 9443     		lw	a3,0(a5)
 177 0104 B7470140 		li	a5,1073823744
 178 0108 938787C0 		addi	a5,a5,-1016
 179 010c 0327C4FE 		lw	a4,-20(s0)
 180 0110 558F     		or	a4,a3,a4
 181 0112 98C3     		sw	a4,0(a5)
  97:../Firmware/GD32VW55x_standard_peripheral/Source/gd32vw55x_exti.c ****         break;
 182              		.loc 1 97 19
 183 0114 B7470140 		li	a5,1073823744
 184 0118 9387C7C0 		addi	a5,a5,-1012
 185 011c 9443     		lw	a3,0(a5)
  97:../Firmware/GD32VW55x_standard_peripheral/Source/gd32vw55x_exti.c ****         break;
 186              		.loc 1 97 22
 187 011e 8327C4FE 		lw	a5,-20(s0)
 188 0122 13C7F7FF 		not	a4,a5
  97:../Firmware/GD32VW55x_standard_peripheral/Source/gd32vw55x_exti.c ****         break;
 189              		.loc 1 97 19
 190 0126 B7470140 		li	a5,1073823744
 191 012a 9387C7C0 		addi	a5,a5,-1012
 192 012e 758F     		and	a4,a3,a4
 193 0130 98C3     		sw	a4,0(a5)
  98:../Firmware/GD32VW55x_standard_peripheral/Source/gd32vw55x_exti.c ****     case EXTI_TRIG_FALLING:
 194              		.loc 1 98 9
 195 0132 95A8     		j	.L11
 196              	.L10:
 100:../Firmware/GD32VW55x_standard_peripheral/Source/gd32vw55x_exti.c ****         EXTI_FTEN |= (uint32_t)linex;
 197              		.loc 1 100 19
 198 0134 B7470140 		li	a5,1073823744
 199 0138 938787C0 		addi	a5,a5,-1016
 200 013c 9443     		lw	a3,0(a5)
 100:../Firmware/GD32VW55x_standard_peripheral/Source/gd32vw55x_exti.c ****         EXTI_FTEN |= (uint32_t)linex;
 201              		.loc 1 100 22
 202 013e 8327C4FE 		lw	a5,-20(s0)
 203 0142 13C7F7FF 		not	a4,a5
 100:../Firmware/GD32VW55x_standard_peripheral/Source/gd32vw55x_exti.c ****         EXTI_FTEN |= (uint32_t)linex;
 204              		.loc 1 100 19
 205 0146 B7470140 		li	a5,1073823744
 206 014a 938787C0 		addi	a5,a5,-1016
 207 014e 758F     		and	a4,a3,a4
 208 0150 98C3     		sw	a4,0(a5)
 101:../Firmware/GD32VW55x_standard_peripheral/Source/gd32vw55x_exti.c ****         break;
 209              		.loc 1 101 19
 210 0152 B7470140 		li	a5,1073823744
 211 0156 9387C7C0 		addi	a5,a5,-1012
 212 015a 9443     		lw	a3,0(a5)
 213 015c B7470140 		li	a5,1073823744
 214 0160 9387C7C0 		addi	a5,a5,-1012
 215 0164 0327C4FE 		lw	a4,-20(s0)
 216 0168 558F     		or	a4,a3,a4
 217 016a 98C3     		sw	a4,0(a5)
 102:../Firmware/GD32VW55x_standard_peripheral/Source/gd32vw55x_exti.c ****     case EXTI_TRIG_BOTH:
 218              		.loc 1 102 9
 219 016c 2DA8     		j	.L11
 220              	.L7:
 104:../Firmware/GD32VW55x_standard_peripheral/Source/gd32vw55x_exti.c ****         EXTI_FTEN |= (uint32_t)linex;
 221              		.loc 1 104 19
 222 016e B7470140 		li	a5,1073823744
 223 0172 938787C0 		addi	a5,a5,-1016
 224 0176 9443     		lw	a3,0(a5)
 225 0178 B7470140 		li	a5,1073823744
 226 017c 938787C0 		addi	a5,a5,-1016
 227 0180 0327C4FE 		lw	a4,-20(s0)
 228 0184 558F     		or	a4,a3,a4
 229 0186 98C3     		sw	a4,0(a5)
 105:../Firmware/GD32VW55x_standard_peripheral/Source/gd32vw55x_exti.c ****         break;
 230              		.loc 1 105 19
 231 0188 B7470140 		li	a5,1073823744
 232 018c 9387C7C0 		addi	a5,a5,-1012
 233 0190 9443     		lw	a3,0(a5)
 234 0192 B7470140 		li	a5,1073823744
 235 0196 9387C7C0 		addi	a5,a5,-1012
 236 019a 0327C4FE 		lw	a4,-20(s0)
 237 019e 558F     		or	a4,a3,a4
 238 01a0 98C3     		sw	a4,0(a5)
 106:../Firmware/GD32VW55x_standard_peripheral/Source/gd32vw55x_exti.c ****     case EXTI_TRIG_NONE:
 239              		.loc 1 106 9
 240 01a2 11A0     		j	.L11
 241              	.L12:
 242              		.loc 1 109 9
 243 01a4 0100     		nop
 244              	.L11:
 110:../Firmware/GD32VW55x_standard_peripheral/Source/gd32vw55x_exti.c ****     }
 111:../Firmware/GD32VW55x_standard_peripheral/Source/gd32vw55x_exti.c **** }
 245              		.loc 1 111 1
 246 01a6 0100     		nop
 247 01a8 7244     		lw	s0,28(sp)
 248              		.cfi_restore 8
 249              		.cfi_def_cfa 2, 32
 250 01aa 0561     		addi	sp,sp,32
 251              		.cfi_def_cfa_offset 0
 252 01ac 8280     		jr	ra
 253              		.cfi_endproc
 254              	.LFE348:
 256              		.section	.text.exti_interrupt_enable,"ax",@progbits
 257              		.align	1
 258              		.globl	exti_interrupt_enable
 260              	exti_interrupt_enable:
 261              	.LFB349:
 112:../Firmware/GD32VW55x_standard_peripheral/Source/gd32vw55x_exti.c **** 
 113:../Firmware/GD32VW55x_standard_peripheral/Source/gd32vw55x_exti.c **** /*!
 114:../Firmware/GD32VW55x_standard_peripheral/Source/gd32vw55x_exti.c ****     \brief      enable the interrupts from EXTI line x
 115:../Firmware/GD32VW55x_standard_peripheral/Source/gd32vw55x_exti.c ****     \param[in]  linex: EXTI line number, refer to exti_line_enum
 116:../Firmware/GD32VW55x_standard_peripheral/Source/gd32vw55x_exti.c ****                 only one parameter can be selected which is shown as below:
 117:../Firmware/GD32VW55x_standard_peripheral/Source/gd32vw55x_exti.c ****       \arg        EXTI_x (x=0..17,19..25): EXTI line x
 118:../Firmware/GD32VW55x_standard_peripheral/Source/gd32vw55x_exti.c ****     \param[out] none
 119:../Firmware/GD32VW55x_standard_peripheral/Source/gd32vw55x_exti.c ****     \retval     none
 120:../Firmware/GD32VW55x_standard_peripheral/Source/gd32vw55x_exti.c **** */
 121:../Firmware/GD32VW55x_standard_peripheral/Source/gd32vw55x_exti.c **** void exti_interrupt_enable(exti_line_enum linex)
 122:../Firmware/GD32VW55x_standard_peripheral/Source/gd32vw55x_exti.c **** {
 262              		.loc 1 122 1
 263              		.cfi_startproc
 264 0000 0111     		addi	sp,sp,-32
 265              		.cfi_def_cfa_offset 32
 266 0002 22CE     		sw	s0,28(sp)
 267              		.cfi_offset 8, -4
 268 0004 0010     		addi	s0,sp,32
 269              		.cfi_def_cfa 8, 0
 270 0006 2326A4FE 		sw	a0,-20(s0)
 123:../Firmware/GD32VW55x_standard_peripheral/Source/gd32vw55x_exti.c ****     EXTI_INTEN |= (uint32_t)linex;
 271              		.loc 1 123 16
 272 000a B7470140 		li	a5,1073823744
 273 000e 938707C0 		addi	a5,a5,-1024
 274 0012 9443     		lw	a3,0(a5)
 275 0014 B7470140 		li	a5,1073823744
 276 0018 938707C0 		addi	a5,a5,-1024
 277 001c 0327C4FE 		lw	a4,-20(s0)
 278 0020 558F     		or	a4,a3,a4
 279 0022 98C3     		sw	a4,0(a5)
 124:../Firmware/GD32VW55x_standard_peripheral/Source/gd32vw55x_exti.c **** }
 280              		.loc 1 124 1
 281 0024 0100     		nop
 282 0026 7244     		lw	s0,28(sp)
 283              		.cfi_restore 8
 284              		.cfi_def_cfa 2, 32
 285 0028 0561     		addi	sp,sp,32
 286              		.cfi_def_cfa_offset 0
 287 002a 8280     		jr	ra
 288              		.cfi_endproc
 289              	.LFE349:
 291              		.section	.text.exti_interrupt_disable,"ax",@progbits
 292              		.align	1
 293              		.globl	exti_interrupt_disable
 295              	exti_interrupt_disable:
 296              	.LFB350:
 125:../Firmware/GD32VW55x_standard_peripheral/Source/gd32vw55x_exti.c **** 
 126:../Firmware/GD32VW55x_standard_peripheral/Source/gd32vw55x_exti.c **** /*!
 127:../Firmware/GD32VW55x_standard_peripheral/Source/gd32vw55x_exti.c ****     \brief      disable the interrupt from EXTI line x
 128:../Firmware/GD32VW55x_standard_peripheral/Source/gd32vw55x_exti.c ****     \param[in]  linex: EXTI line number, refer to exti_line_enum
 129:../Firmware/GD32VW55x_standard_peripheral/Source/gd32vw55x_exti.c ****                 only one parameter can be selected which is shown as below:
 130:../Firmware/GD32VW55x_standard_peripheral/Source/gd32vw55x_exti.c ****       \arg        EXTI_x (x=0..17,19..25): EXTI line x
 131:../Firmware/GD32VW55x_standard_peripheral/Source/gd32vw55x_exti.c ****     \param[out] none
 132:../Firmware/GD32VW55x_standard_peripheral/Source/gd32vw55x_exti.c ****     \retval     none
 133:../Firmware/GD32VW55x_standard_peripheral/Source/gd32vw55x_exti.c **** */
 134:../Firmware/GD32VW55x_standard_peripheral/Source/gd32vw55x_exti.c **** void exti_interrupt_disable(exti_line_enum linex)
 135:../Firmware/GD32VW55x_standard_peripheral/Source/gd32vw55x_exti.c **** {
 297              		.loc 1 135 1
 298              		.cfi_startproc
 299 0000 0111     		addi	sp,sp,-32
 300              		.cfi_def_cfa_offset 32
 301 0002 22CE     		sw	s0,28(sp)
 302              		.cfi_offset 8, -4
 303 0004 0010     		addi	s0,sp,32
 304              		.cfi_def_cfa 8, 0
 305 0006 2326A4FE 		sw	a0,-20(s0)
 136:../Firmware/GD32VW55x_standard_peripheral/Source/gd32vw55x_exti.c ****     EXTI_INTEN &= ~(uint32_t)linex;
 306              		.loc 1 136 16
 307 000a B7470140 		li	a5,1073823744
 308 000e 938707C0 		addi	a5,a5,-1024
 309 0012 9443     		lw	a3,0(a5)
 310              		.loc 1 136 19
 311 0014 8327C4FE 		lw	a5,-20(s0)
 312 0018 13C7F7FF 		not	a4,a5
 313              		.loc 1 136 16
 314 001c B7470140 		li	a5,1073823744
 315 0020 938707C0 		addi	a5,a5,-1024
 316 0024 758F     		and	a4,a3,a4
 317 0026 98C3     		sw	a4,0(a5)
 137:../Firmware/GD32VW55x_standard_peripheral/Source/gd32vw55x_exti.c **** }
 318              		.loc 1 137 1
 319 0028 0100     		nop
 320 002a 7244     		lw	s0,28(sp)
 321              		.cfi_restore 8
 322              		.cfi_def_cfa 2, 32
 323 002c 0561     		addi	sp,sp,32
 324              		.cfi_def_cfa_offset 0
 325 002e 8280     		jr	ra
 326              		.cfi_endproc
 327              	.LFE350:
 329              		.section	.text.exti_event_enable,"ax",@progbits
 330              		.align	1
 331              		.globl	exti_event_enable
 333              	exti_event_enable:
 334              	.LFB351:
 138:../Firmware/GD32VW55x_standard_peripheral/Source/gd32vw55x_exti.c **** 
 139:../Firmware/GD32VW55x_standard_peripheral/Source/gd32vw55x_exti.c **** /*!
 140:../Firmware/GD32VW55x_standard_peripheral/Source/gd32vw55x_exti.c ****     \brief      enable the events from EXTI line x
 141:../Firmware/GD32VW55x_standard_peripheral/Source/gd32vw55x_exti.c ****     \param[in]  linex: EXTI line number, refer to exti_line_enum
 142:../Firmware/GD32VW55x_standard_peripheral/Source/gd32vw55x_exti.c ****                 only one parameter can be selected which is shown as below:
 143:../Firmware/GD32VW55x_standard_peripheral/Source/gd32vw55x_exti.c ****       \arg        EXTI_x (x=0..17,19..25): EXTI line x
 144:../Firmware/GD32VW55x_standard_peripheral/Source/gd32vw55x_exti.c ****     \param[out] none
 145:../Firmware/GD32VW55x_standard_peripheral/Source/gd32vw55x_exti.c ****     \retval     none
 146:../Firmware/GD32VW55x_standard_peripheral/Source/gd32vw55x_exti.c **** */
 147:../Firmware/GD32VW55x_standard_peripheral/Source/gd32vw55x_exti.c **** void exti_event_enable(exti_line_enum linex)
 148:../Firmware/GD32VW55x_standard_peripheral/Source/gd32vw55x_exti.c **** {
 335              		.loc 1 148 1
 336              		.cfi_startproc
 337 0000 0111     		addi	sp,sp,-32
 338              		.cfi_def_cfa_offset 32
 339 0002 22CE     		sw	s0,28(sp)
 340              		.cfi_offset 8, -4
 341 0004 0010     		addi	s0,sp,32
 342              		.cfi_def_cfa 8, 0
 343 0006 2326A4FE 		sw	a0,-20(s0)
 149:../Firmware/GD32VW55x_standard_peripheral/Source/gd32vw55x_exti.c ****     EXTI_EVEN |= (uint32_t)linex;
 344              		.loc 1 149 15
 345 000a B7470140 		li	a5,1073823744
 346 000e 938747C0 		addi	a5,a5,-1020
 347 0012 9443     		lw	a3,0(a5)
 348 0014 B7470140 		li	a5,1073823744
 349 0018 938747C0 		addi	a5,a5,-1020
 350 001c 0327C4FE 		lw	a4,-20(s0)
 351 0020 558F     		or	a4,a3,a4
 352 0022 98C3     		sw	a4,0(a5)
 150:../Firmware/GD32VW55x_standard_peripheral/Source/gd32vw55x_exti.c **** }
 353              		.loc 1 150 1
 354 0024 0100     		nop
 355 0026 7244     		lw	s0,28(sp)
 356              		.cfi_restore 8
 357              		.cfi_def_cfa 2, 32
 358 0028 0561     		addi	sp,sp,32
 359              		.cfi_def_cfa_offset 0
 360 002a 8280     		jr	ra
 361              		.cfi_endproc
 362              	.LFE351:
 364              		.section	.text.exti_event_disable,"ax",@progbits
 365              		.align	1
 366              		.globl	exti_event_disable
 368              	exti_event_disable:
 369              	.LFB352:
 151:../Firmware/GD32VW55x_standard_peripheral/Source/gd32vw55x_exti.c **** 
 152:../Firmware/GD32VW55x_standard_peripheral/Source/gd32vw55x_exti.c **** /*!
 153:../Firmware/GD32VW55x_standard_peripheral/Source/gd32vw55x_exti.c ****     \brief      disable the events from EXTI line x
 154:../Firmware/GD32VW55x_standard_peripheral/Source/gd32vw55x_exti.c ****     \param[in]  linex: EXTI line number, refer to exti_line_enum
 155:../Firmware/GD32VW55x_standard_peripheral/Source/gd32vw55x_exti.c ****                 only one parameter can be selected which is shown as below:
 156:../Firmware/GD32VW55x_standard_peripheral/Source/gd32vw55x_exti.c ****       \arg        EXTI_x (x=0..17,19..25): EXTI line x
 157:../Firmware/GD32VW55x_standard_peripheral/Source/gd32vw55x_exti.c ****     \param[out] none
 158:../Firmware/GD32VW55x_standard_peripheral/Source/gd32vw55x_exti.c ****     \retval     none
 159:../Firmware/GD32VW55x_standard_peripheral/Source/gd32vw55x_exti.c **** */
 160:../Firmware/GD32VW55x_standard_peripheral/Source/gd32vw55x_exti.c **** void exti_event_disable(exti_line_enum linex)
 161:../Firmware/GD32VW55x_standard_peripheral/Source/gd32vw55x_exti.c **** {
 370              		.loc 1 161 1
 371              		.cfi_startproc
 372 0000 0111     		addi	sp,sp,-32
 373              		.cfi_def_cfa_offset 32
 374 0002 22CE     		sw	s0,28(sp)
 375              		.cfi_offset 8, -4
 376 0004 0010     		addi	s0,sp,32
 377              		.cfi_def_cfa 8, 0
 378 0006 2326A4FE 		sw	a0,-20(s0)
 162:../Firmware/GD32VW55x_standard_peripheral/Source/gd32vw55x_exti.c ****     EXTI_EVEN &= ~(uint32_t)linex;
 379              		.loc 1 162 15
 380 000a B7470140 		li	a5,1073823744
 381 000e 938747C0 		addi	a5,a5,-1020
 382 0012 9443     		lw	a3,0(a5)
 383              		.loc 1 162 18
 384 0014 8327C4FE 		lw	a5,-20(s0)
 385 0018 13C7F7FF 		not	a4,a5
 386              		.loc 1 162 15
 387 001c B7470140 		li	a5,1073823744
 388 0020 938747C0 		addi	a5,a5,-1020
 389 0024 758F     		and	a4,a3,a4
 390 0026 98C3     		sw	a4,0(a5)
 163:../Firmware/GD32VW55x_standard_peripheral/Source/gd32vw55x_exti.c **** }
 391              		.loc 1 163 1
 392 0028 0100     		nop
 393 002a 7244     		lw	s0,28(sp)
 394              		.cfi_restore 8
 395              		.cfi_def_cfa 2, 32
 396 002c 0561     		addi	sp,sp,32
 397              		.cfi_def_cfa_offset 0
 398 002e 8280     		jr	ra
 399              		.cfi_endproc
 400              	.LFE352:
 402              		.section	.text.exti_software_interrupt_enable,"ax",@progbits
 403              		.align	1
 404              		.globl	exti_software_interrupt_enable
 406              	exti_software_interrupt_enable:
 407              	.LFB353:
 164:../Firmware/GD32VW55x_standard_peripheral/Source/gd32vw55x_exti.c **** 
 165:../Firmware/GD32VW55x_standard_peripheral/Source/gd32vw55x_exti.c **** /*!
 166:../Firmware/GD32VW55x_standard_peripheral/Source/gd32vw55x_exti.c ****     \brief      enable the software interrupt event from EXTI line x
 167:../Firmware/GD32VW55x_standard_peripheral/Source/gd32vw55x_exti.c ****     \param[in]  linex: EXTI line number, refer to exti_line_enum
 168:../Firmware/GD32VW55x_standard_peripheral/Source/gd32vw55x_exti.c ****                 only one parameter can be selected which is shown as below:
 169:../Firmware/GD32VW55x_standard_peripheral/Source/gd32vw55x_exti.c ****       \arg        EXTI_x (x=0..17,19..25): EXTI line x
 170:../Firmware/GD32VW55x_standard_peripheral/Source/gd32vw55x_exti.c ****     \param[out] none
 171:../Firmware/GD32VW55x_standard_peripheral/Source/gd32vw55x_exti.c ****     \retval     none
 172:../Firmware/GD32VW55x_standard_peripheral/Source/gd32vw55x_exti.c **** */
 173:../Firmware/GD32VW55x_standard_peripheral/Source/gd32vw55x_exti.c **** void exti_software_interrupt_enable(exti_line_enum linex)
 174:../Firmware/GD32VW55x_standard_peripheral/Source/gd32vw55x_exti.c **** {
 408              		.loc 1 174 1
 409              		.cfi_startproc
 410 0000 0111     		addi	sp,sp,-32
 411              		.cfi_def_cfa_offset 32
 412 0002 22CE     		sw	s0,28(sp)
 413              		.cfi_offset 8, -4
 414 0004 0010     		addi	s0,sp,32
 415              		.cfi_def_cfa 8, 0
 416 0006 2326A4FE 		sw	a0,-20(s0)
 175:../Firmware/GD32VW55x_standard_peripheral/Source/gd32vw55x_exti.c ****     EXTI_SWIEV |= (uint32_t)linex;
 417              		.loc 1 175 16
 418 000a B7470140 		li	a5,1073823744
 419 000e 938707C1 		addi	a5,a5,-1008
 420 0012 9443     		lw	a3,0(a5)
 421 0014 B7470140 		li	a5,1073823744
 422 0018 938707C1 		addi	a5,a5,-1008
 423 001c 0327C4FE 		lw	a4,-20(s0)
 424 0020 558F     		or	a4,a3,a4
 425 0022 98C3     		sw	a4,0(a5)
 176:../Firmware/GD32VW55x_standard_peripheral/Source/gd32vw55x_exti.c **** }
 426              		.loc 1 176 1
 427 0024 0100     		nop
 428 0026 7244     		lw	s0,28(sp)
 429              		.cfi_restore 8
 430              		.cfi_def_cfa 2, 32
 431 0028 0561     		addi	sp,sp,32
 432              		.cfi_def_cfa_offset 0
 433 002a 8280     		jr	ra
 434              		.cfi_endproc
 435              	.LFE353:
 437              		.section	.text.exti_software_interrupt_disable,"ax",@progbits
 438              		.align	1
 439              		.globl	exti_software_interrupt_disable
 441              	exti_software_interrupt_disable:
 442              	.LFB354:
 177:../Firmware/GD32VW55x_standard_peripheral/Source/gd32vw55x_exti.c **** 
 178:../Firmware/GD32VW55x_standard_peripheral/Source/gd32vw55x_exti.c **** /*!
 179:../Firmware/GD32VW55x_standard_peripheral/Source/gd32vw55x_exti.c ****     \brief      disable the software interrupt event from EXTI line x
 180:../Firmware/GD32VW55x_standard_peripheral/Source/gd32vw55x_exti.c ****     \param[in]  linex: EXTI line number, refer to exti_line_enum
 181:../Firmware/GD32VW55x_standard_peripheral/Source/gd32vw55x_exti.c ****                 only one parameter can be selected which is shown as below:
 182:../Firmware/GD32VW55x_standard_peripheral/Source/gd32vw55x_exti.c ****       \arg        EXTI_x (x=0..17,19..25): EXTI line x
 183:../Firmware/GD32VW55x_standard_peripheral/Source/gd32vw55x_exti.c ****     \param[out] none
 184:../Firmware/GD32VW55x_standard_peripheral/Source/gd32vw55x_exti.c ****     \retval     none
 185:../Firmware/GD32VW55x_standard_peripheral/Source/gd32vw55x_exti.c **** */
 186:../Firmware/GD32VW55x_standard_peripheral/Source/gd32vw55x_exti.c **** void exti_software_interrupt_disable(exti_line_enum linex)
 187:../Firmware/GD32VW55x_standard_peripheral/Source/gd32vw55x_exti.c **** {
 443              		.loc 1 187 1
 444              		.cfi_startproc
 445 0000 0111     		addi	sp,sp,-32
 446              		.cfi_def_cfa_offset 32
 447 0002 22CE     		sw	s0,28(sp)
 448              		.cfi_offset 8, -4
 449 0004 0010     		addi	s0,sp,32
 450              		.cfi_def_cfa 8, 0
 451 0006 2326A4FE 		sw	a0,-20(s0)
 188:../Firmware/GD32VW55x_standard_peripheral/Source/gd32vw55x_exti.c ****     EXTI_SWIEV &= ~(uint32_t)linex;
 452              		.loc 1 188 16
 453 000a B7470140 		li	a5,1073823744
 454 000e 938707C1 		addi	a5,a5,-1008
 455 0012 9443     		lw	a3,0(a5)
 456              		.loc 1 188 19
 457 0014 8327C4FE 		lw	a5,-20(s0)
 458 0018 13C7F7FF 		not	a4,a5
 459              		.loc 1 188 16
 460 001c B7470140 		li	a5,1073823744
 461 0020 938707C1 		addi	a5,a5,-1008
 462 0024 758F     		and	a4,a3,a4
 463 0026 98C3     		sw	a4,0(a5)
 189:../Firmware/GD32VW55x_standard_peripheral/Source/gd32vw55x_exti.c **** }
 464              		.loc 1 189 1
 465 0028 0100     		nop
 466 002a 7244     		lw	s0,28(sp)
 467              		.cfi_restore 8
 468              		.cfi_def_cfa 2, 32
 469 002c 0561     		addi	sp,sp,32
 470              		.cfi_def_cfa_offset 0
 471 002e 8280     		jr	ra
 472              		.cfi_endproc
 473              	.LFE354:
 475              		.section	.text.exti_flag_get,"ax",@progbits
 476              		.align	1
 477              		.globl	exti_flag_get
 479              	exti_flag_get:
 480              	.LFB355:
 190:../Firmware/GD32VW55x_standard_peripheral/Source/gd32vw55x_exti.c **** 
 191:../Firmware/GD32VW55x_standard_peripheral/Source/gd32vw55x_exti.c **** /*!
 192:../Firmware/GD32VW55x_standard_peripheral/Source/gd32vw55x_exti.c ****     \brief      get EXTI line x interrupt pending flag
 193:../Firmware/GD32VW55x_standard_peripheral/Source/gd32vw55x_exti.c ****     \param[in]  linex: EXTI line number, refer to exti_line_enum
 194:../Firmware/GD32VW55x_standard_peripheral/Source/gd32vw55x_exti.c ****                 only one parameter can be selected which is shown as below:
 195:../Firmware/GD32VW55x_standard_peripheral/Source/gd32vw55x_exti.c ****       \arg        EXTI_x (x=0..17,19..25): EXTI line x
 196:../Firmware/GD32VW55x_standard_peripheral/Source/gd32vw55x_exti.c ****     \param[out] none
 197:../Firmware/GD32VW55x_standard_peripheral/Source/gd32vw55x_exti.c ****     \retval     FlagStatus: status of flag (RESET or SET)
 198:../Firmware/GD32VW55x_standard_peripheral/Source/gd32vw55x_exti.c **** */
 199:../Firmware/GD32VW55x_standard_peripheral/Source/gd32vw55x_exti.c **** FlagStatus exti_flag_get(exti_line_enum linex)
 200:../Firmware/GD32VW55x_standard_peripheral/Source/gd32vw55x_exti.c **** {
 481              		.loc 1 200 1
 482              		.cfi_startproc
 483 0000 0111     		addi	sp,sp,-32
 484              		.cfi_def_cfa_offset 32
 485 0002 22CE     		sw	s0,28(sp)
 486              		.cfi_offset 8, -4
 487 0004 0010     		addi	s0,sp,32
 488              		.cfi_def_cfa 8, 0
 489 0006 2326A4FE 		sw	a0,-20(s0)
 201:../Firmware/GD32VW55x_standard_peripheral/Source/gd32vw55x_exti.c ****     if(RESET != (EXTI_PD & (uint32_t)linex)) {
 490              		.loc 1 201 18
 491 000a B7470140 		li	a5,1073823744
 492 000e 938747C1 		addi	a5,a5,-1004
 493 0012 9843     		lw	a4,0(a5)
 494              		.loc 1 201 26
 495 0014 8327C4FE 		lw	a5,-20(s0)
 496 0018 F98F     		and	a5,a4,a5
 497              		.loc 1 201 7
 498 001a 99C3     		beq	a5,zero,.L20
 202:../Firmware/GD32VW55x_standard_peripheral/Source/gd32vw55x_exti.c ****         return SET;
 499              		.loc 1 202 16
 500 001c 8547     		li	a5,1
 501 001e 11A0     		j	.L21
 502              	.L20:
 203:../Firmware/GD32VW55x_standard_peripheral/Source/gd32vw55x_exti.c ****     } else {
 204:../Firmware/GD32VW55x_standard_peripheral/Source/gd32vw55x_exti.c ****         return RESET;
 503              		.loc 1 204 16
 504 0020 8147     		li	a5,0
 505              	.L21:
 205:../Firmware/GD32VW55x_standard_peripheral/Source/gd32vw55x_exti.c ****     }
 206:../Firmware/GD32VW55x_standard_peripheral/Source/gd32vw55x_exti.c **** }
 506              		.loc 1 206 1
 507 0022 3E85     		mv	a0,a5
 508 0024 7244     		lw	s0,28(sp)
 509              		.cfi_restore 8
 510              		.cfi_def_cfa 2, 32
 511 0026 0561     		addi	sp,sp,32
 512              		.cfi_def_cfa_offset 0
 513 0028 8280     		jr	ra
 514              		.cfi_endproc
 515              	.LFE355:
 517              		.section	.text.exti_flag_clear,"ax",@progbits
 518              		.align	1
 519              		.globl	exti_flag_clear
 521              	exti_flag_clear:
 522              	.LFB356:
 207:../Firmware/GD32VW55x_standard_peripheral/Source/gd32vw55x_exti.c **** 
 208:../Firmware/GD32VW55x_standard_peripheral/Source/gd32vw55x_exti.c **** /*!
 209:../Firmware/GD32VW55x_standard_peripheral/Source/gd32vw55x_exti.c ****     \brief      clear EXTI line x interrupt pending flag
 210:../Firmware/GD32VW55x_standard_peripheral/Source/gd32vw55x_exti.c ****     \param[in]  linex: EXTI line number, refer to exti_line_enum
 211:../Firmware/GD32VW55x_standard_peripheral/Source/gd32vw55x_exti.c ****                 only one parameter can be selected which is shown as below:
 212:../Firmware/GD32VW55x_standard_peripheral/Source/gd32vw55x_exti.c ****       \arg        EXTI_x (x=0..17,19..25): EXTI line x
 213:../Firmware/GD32VW55x_standard_peripheral/Source/gd32vw55x_exti.c ****     \param[out] none
 214:../Firmware/GD32VW55x_standard_peripheral/Source/gd32vw55x_exti.c ****     \retval     none
 215:../Firmware/GD32VW55x_standard_peripheral/Source/gd32vw55x_exti.c **** */
 216:../Firmware/GD32VW55x_standard_peripheral/Source/gd32vw55x_exti.c **** void exti_flag_clear(exti_line_enum linex)
 217:../Firmware/GD32VW55x_standard_peripheral/Source/gd32vw55x_exti.c **** {
 523              		.loc 1 217 1
 524              		.cfi_startproc
 525 0000 0111     		addi	sp,sp,-32
 526              		.cfi_def_cfa_offset 32
 527 0002 22CE     		sw	s0,28(sp)
 528              		.cfi_offset 8, -4
 529 0004 0010     		addi	s0,sp,32
 530              		.cfi_def_cfa 8, 0
 531 0006 2326A4FE 		sw	a0,-20(s0)
 218:../Firmware/GD32VW55x_standard_peripheral/Source/gd32vw55x_exti.c ****     EXTI_PD = (uint32_t)linex;
 532              		.loc 1 218 5
 533 000a B7470140 		li	a5,1073823744
 534 000e 938747C1 		addi	a5,a5,-1004
 535              		.loc 1 218 13
 536 0012 0327C4FE 		lw	a4,-20(s0)
 537 0016 98C3     		sw	a4,0(a5)
 219:../Firmware/GD32VW55x_standard_peripheral/Source/gd32vw55x_exti.c **** }
 538              		.loc 1 219 1
 539 0018 0100     		nop
 540 001a 7244     		lw	s0,28(sp)
 541              		.cfi_restore 8
 542              		.cfi_def_cfa 2, 32
 543 001c 0561     		addi	sp,sp,32
 544              		.cfi_def_cfa_offset 0
 545 001e 8280     		jr	ra
 546              		.cfi_endproc
 547              	.LFE356:
 549              		.section	.text.exti_interrupt_flag_get,"ax",@progbits
 550              		.align	1
 551              		.globl	exti_interrupt_flag_get
 553              	exti_interrupt_flag_get:
 554              	.LFB357:
 220:../Firmware/GD32VW55x_standard_peripheral/Source/gd32vw55x_exti.c **** 
 221:../Firmware/GD32VW55x_standard_peripheral/Source/gd32vw55x_exti.c **** /*!
 222:../Firmware/GD32VW55x_standard_peripheral/Source/gd32vw55x_exti.c ****     \brief      get EXTI line x interrupt pending flag
 223:../Firmware/GD32VW55x_standard_peripheral/Source/gd32vw55x_exti.c ****     \param[in]  linex: EXTI line number, refer to exti_line_enum
 224:../Firmware/GD32VW55x_standard_peripheral/Source/gd32vw55x_exti.c ****                 only one parameter can be selected which is shown as below:
 225:../Firmware/GD32VW55x_standard_peripheral/Source/gd32vw55x_exti.c ****       \arg        EXTI_x (x=0..17,19..25): EXTI line x
 226:../Firmware/GD32VW55x_standard_peripheral/Source/gd32vw55x_exti.c ****     \param[out] none
 227:../Firmware/GD32VW55x_standard_peripheral/Source/gd32vw55x_exti.c ****     \retval     FlagStatus: status of flag (RESET or SET)
 228:../Firmware/GD32VW55x_standard_peripheral/Source/gd32vw55x_exti.c **** */
 229:../Firmware/GD32VW55x_standard_peripheral/Source/gd32vw55x_exti.c **** FlagStatus exti_interrupt_flag_get(exti_line_enum linex)
 230:../Firmware/GD32VW55x_standard_peripheral/Source/gd32vw55x_exti.c **** {
 555              		.loc 1 230 1
 556              		.cfi_startproc
 557 0000 0111     		addi	sp,sp,-32
 558              		.cfi_def_cfa_offset 32
 559 0002 22CE     		sw	s0,28(sp)
 560              		.cfi_offset 8, -4
 561 0004 0010     		addi	s0,sp,32
 562              		.cfi_def_cfa 8, 0
 563 0006 2326A4FE 		sw	a0,-20(s0)
 231:../Firmware/GD32VW55x_standard_peripheral/Source/gd32vw55x_exti.c ****     if(RESET != (EXTI_PD & (uint32_t)linex)) {
 564              		.loc 1 231 18
 565 000a B7470140 		li	a5,1073823744
 566 000e 938747C1 		addi	a5,a5,-1004
 567 0012 9843     		lw	a4,0(a5)
 568              		.loc 1 231 26
 569 0014 8327C4FE 		lw	a5,-20(s0)
 570 0018 F98F     		and	a5,a4,a5
 571              		.loc 1 231 7
 572 001a 99C3     		beq	a5,zero,.L24
 232:../Firmware/GD32VW55x_standard_peripheral/Source/gd32vw55x_exti.c ****         return SET;
 573              		.loc 1 232 16
 574 001c 8547     		li	a5,1
 575 001e 11A0     		j	.L25
 576              	.L24:
 233:../Firmware/GD32VW55x_standard_peripheral/Source/gd32vw55x_exti.c ****     } else {
 234:../Firmware/GD32VW55x_standard_peripheral/Source/gd32vw55x_exti.c ****         return RESET;
 577              		.loc 1 234 16
 578 0020 8147     		li	a5,0
 579              	.L25:
 235:../Firmware/GD32VW55x_standard_peripheral/Source/gd32vw55x_exti.c ****     }
 236:../Firmware/GD32VW55x_standard_peripheral/Source/gd32vw55x_exti.c **** }
 580              		.loc 1 236 1
 581 0022 3E85     		mv	a0,a5
 582 0024 7244     		lw	s0,28(sp)
 583              		.cfi_restore 8
 584              		.cfi_def_cfa 2, 32
 585 0026 0561     		addi	sp,sp,32
 586              		.cfi_def_cfa_offset 0
 587 0028 8280     		jr	ra
 588              		.cfi_endproc
 589              	.LFE357:
 591              		.section	.text.exti_interrupt_flag_clear,"ax",@progbits
 592              		.align	1
 593              		.globl	exti_interrupt_flag_clear
 595              	exti_interrupt_flag_clear:
 596              	.LFB358:
 237:../Firmware/GD32VW55x_standard_peripheral/Source/gd32vw55x_exti.c **** 
 238:../Firmware/GD32VW55x_standard_peripheral/Source/gd32vw55x_exti.c **** /*!
 239:../Firmware/GD32VW55x_standard_peripheral/Source/gd32vw55x_exti.c ****     \brief      clear EXTI line x interrupt pending flag
 240:../Firmware/GD32VW55x_standard_peripheral/Source/gd32vw55x_exti.c ****     \param[in]  linex: EXTI line number, refer to exti_line_enum
 241:../Firmware/GD32VW55x_standard_peripheral/Source/gd32vw55x_exti.c ****                 only one parameter can be selected which is shown as below:
 242:../Firmware/GD32VW55x_standard_peripheral/Source/gd32vw55x_exti.c ****       \arg        EXTI_x (x=0..17,19..25): EXTI line x
 243:../Firmware/GD32VW55x_standard_peripheral/Source/gd32vw55x_exti.c ****     \param[out] none
 244:../Firmware/GD32VW55x_standard_peripheral/Source/gd32vw55x_exti.c ****     \retval     none
 245:../Firmware/GD32VW55x_standard_peripheral/Source/gd32vw55x_exti.c **** */
 246:../Firmware/GD32VW55x_standard_peripheral/Source/gd32vw55x_exti.c **** void exti_interrupt_flag_clear(exti_line_enum linex)
 247:../Firmware/GD32VW55x_standard_peripheral/Source/gd32vw55x_exti.c **** {
 597              		.loc 1 247 1
 598              		.cfi_startproc
 599 0000 0111     		addi	sp,sp,-32
 600              		.cfi_def_cfa_offset 32
 601 0002 22CE     		sw	s0,28(sp)
 602              		.cfi_offset 8, -4
 603 0004 0010     		addi	s0,sp,32
 604              		.cfi_def_cfa 8, 0
 605 0006 2326A4FE 		sw	a0,-20(s0)
 248:../Firmware/GD32VW55x_standard_peripheral/Source/gd32vw55x_exti.c ****     EXTI_PD = (uint32_t)linex;
 606              		.loc 1 248 5
 607 000a B7470140 		li	a5,1073823744
 608 000e 938747C1 		addi	a5,a5,-1004
 609              		.loc 1 248 13
 610 0012 0327C4FE 		lw	a4,-20(s0)
 611 0016 98C3     		sw	a4,0(a5)
 249:../Firmware/GD32VW55x_standard_peripheral/Source/gd32vw55x_exti.c **** }
 612              		.loc 1 249 1
 613 0018 0100     		nop
 614 001a 7244     		lw	s0,28(sp)
 615              		.cfi_restore 8
 616              		.cfi_def_cfa 2, 32
 617 001c 0561     		addi	sp,sp,32
 618              		.cfi_def_cfa_offset 0
 619 001e 8280     		jr	ra
 620              		.cfi_endproc
 621              	.LFE358:
 623              		.text
 624              	.Letext0:
 625              		.file 2 "e:\\gd32\\gd32embeddedbuilder_v1.5.2.30854\\tools\\nuclei_riscv_newlibc_prebuilt_win32_20
 626              		.file 3 "e:\\gd32\\gd32embeddedbuilder_v1.5.2.30854\\tools\\nuclei_riscv_newlibc_prebuilt_win32_20
 627              		.file 4 "../Firmware/GD32VW55x_standard_peripheral/gd32vw55x.h"
 628              		.file 5 "../Firmware/GD32VW55x_standard_peripheral/Include/gd32vw55x_exti.h"
DEFINED SYMBOLS
                            *ABS*:0000000000000000 gd32vw55x_exti.c
C:\Users\CYMR90~1\AppData\Local\Temp\cca5ocgO.s:13     .text.exti_deinit:0000000000000000 exti_deinit
C:\Users\CYMR90~1\AppData\Local\Temp\cca5ocgO.s:17     .text.exti_deinit:0000000000000000 .L0 
C:\Users\CYMR90~1\AppData\Local\Temp\cca5ocgO.s:18     .text.exti_deinit:0000000000000000 .L0 
C:\Users\CYMR90~1\AppData\Local\Temp\cca5ocgO.s:19     .text.exti_deinit:0000000000000002 .L0 
C:\Users\CYMR90~1\AppData\Local\Temp\cca5ocgO.s:21     .text.exti_deinit:0000000000000004 .L0 
C:\Users\CYMR90~1\AppData\Local\Temp\cca5ocgO.s:23     .text.exti_deinit:0000000000000006 .L0 
C:\Users\CYMR90~1\AppData\Local\Temp\cca5ocgO.s:25     .text.exti_deinit:0000000000000006 .L0 
C:\Users\CYMR90~1\AppData\Local\Temp\cca5ocgO.s:28     .text.exti_deinit:000000000000000e .L0 
C:\Users\CYMR90~1\AppData\Local\Temp\cca5ocgO.s:30     .text.exti_deinit:0000000000000012 .L0 
C:\Users\CYMR90~1\AppData\Local\Temp\cca5ocgO.s:33     .text.exti_deinit:000000000000001a .L0 
C:\Users\CYMR90~1\AppData\Local\Temp\cca5ocgO.s:35     .text.exti_deinit:000000000000001e .L0 
C:\Users\CYMR90~1\AppData\Local\Temp\cca5ocgO.s:38     .text.exti_deinit:0000000000000026 .L0 
C:\Users\CYMR90~1\AppData\Local\Temp\cca5ocgO.s:40     .text.exti_deinit:000000000000002a .L0 
C:\Users\CYMR90~1\AppData\Local\Temp\cca5ocgO.s:43     .text.exti_deinit:0000000000000032 .L0 
C:\Users\CYMR90~1\AppData\Local\Temp\cca5ocgO.s:45     .text.exti_deinit:0000000000000036 .L0 
C:\Users\CYMR90~1\AppData\Local\Temp\cca5ocgO.s:48     .text.exti_deinit:000000000000003e .L0 
C:\Users\CYMR90~1\AppData\Local\Temp\cca5ocgO.s:50     .text.exti_deinit:0000000000000042 .L0 
C:\Users\CYMR90~1\AppData\Local\Temp\cca5ocgO.s:52     .text.exti_deinit:0000000000000046 .L0 
C:\Users\CYMR90~1\AppData\Local\Temp\cca5ocgO.s:53     .text.exti_deinit:0000000000000046 .L0 
C:\Users\CYMR90~1\AppData\Local\Temp\cca5ocgO.s:55     .text.exti_deinit:0000000000000048 .L0 
C:\Users\CYMR90~1\AppData\Local\Temp\cca5ocgO.s:57     .text.exti_deinit:000000000000004a .L0 
C:\Users\CYMR90~1\AppData\Local\Temp\cca5ocgO.s:64     .text.exti_init:0000000000000000 exti_init
C:\Users\CYMR90~1\AppData\Local\Temp\cca5ocgO.s:67     .text.exti_init:0000000000000000 .L0 
C:\Users\CYMR90~1\AppData\Local\Temp\cca5ocgO.s:68     .text.exti_init:0000000000000000 .L0 
C:\Users\CYMR90~1\AppData\Local\Temp\cca5ocgO.s:69     .text.exti_init:0000000000000002 .L0 
C:\Users\CYMR90~1\AppData\Local\Temp\cca5ocgO.s:71     .text.exti_init:0000000000000004 .L0 
C:\Users\CYMR90~1\AppData\Local\Temp\cca5ocgO.s:73     .text.exti_init:0000000000000006 .L0 
C:\Users\CYMR90~1\AppData\Local\Temp\cca5ocgO.s:78     .text.exti_init:0000000000000012 .L0 
C:\Users\CYMR90~1\AppData\Local\Temp\cca5ocgO.s:82     .text.exti_init:000000000000001c .L0 
C:\Users\CYMR90~1\AppData\Local\Temp\cca5ocgO.s:85     .text.exti_init:0000000000000024 .L0 
C:\Users\CYMR90~1\AppData\Local\Temp\cca5ocgO.s:90     .text.exti_init:0000000000000030 .L0 
C:\Users\CYMR90~1\AppData\Local\Temp\cca5ocgO.s:94     .text.exti_init:000000000000003a .L0 
C:\Users\CYMR90~1\AppData\Local\Temp\cca5ocgO.s:97     .text.exti_init:0000000000000042 .L0 
C:\Users\CYMR90~1\AppData\Local\Temp\cca5ocgO.s:102    .text.exti_init:000000000000004e .L0 
C:\Users\CYMR90~1\AppData\Local\Temp\cca5ocgO.s:106    .text.exti_init:0000000000000058 .L0 
C:\Users\CYMR90~1\AppData\Local\Temp\cca5ocgO.s:109    .text.exti_init:0000000000000060 .L0 
C:\Users\CYMR90~1\AppData\Local\Temp\cca5ocgO.s:114    .text.exti_init:000000000000006c .L0 
C:\Users\CYMR90~1\AppData\Local\Temp\cca5ocgO.s:118    .text.exti_init:0000000000000076 .L0 
C:\Users\CYMR90~1\AppData\Local\Temp\cca5ocgO.s:121    .text.exti_init:000000000000007e .L0 
C:\Users\CYMR90~1\AppData\Local\Temp\cca5ocgO.s:126    .text.exti_init:000000000000008a .L0 
C:\Users\CYMR90~1\AppData\Local\Temp\cca5ocgO.s:132    .text.exti_init:000000000000009a .L0 
C:\Users\CYMR90~1\AppData\Local\Temp\cca5ocgO.s:135    .text.exti_init:000000000000009c .L0 
C:\Users\CYMR90~1\AppData\Local\Temp\cca5ocgO.s:144    .text.exti_init:00000000000000b6 .L0 
C:\Users\CYMR90~1\AppData\Local\Temp\cca5ocgO.s:147    .text.exti_init:00000000000000b8 .L0 
C:\Users\CYMR90~1\AppData\Local\Temp\cca5ocgO.s:156    .text.exti_init:00000000000000d2 .L0 
C:\Users\CYMR90~1\AppData\Local\Temp\cca5ocgO.s:159    .text.exti_init:00000000000000d4 .L0 
C:\Users\CYMR90~1\AppData\Local\Temp\cca5ocgO.s:171    .text.exti_init:00000000000000f8 .L0 
C:\Users\CYMR90~1\AppData\Local\Temp\cca5ocgO.s:174    .text.exti_init:00000000000000fa .L0 
C:\Users\CYMR90~1\AppData\Local\Temp\cca5ocgO.s:183    .text.exti_init:0000000000000114 .L0 
C:\Users\CYMR90~1\AppData\Local\Temp\cca5ocgO.s:187    .text.exti_init:000000000000011e .L0 
C:\Users\CYMR90~1\AppData\Local\Temp\cca5ocgO.s:190    .text.exti_init:0000000000000126 .L0 
C:\Users\CYMR90~1\AppData\Local\Temp\cca5ocgO.s:195    .text.exti_init:0000000000000132 .L0 
C:\Users\CYMR90~1\AppData\Local\Temp\cca5ocgO.s:198    .text.exti_init:0000000000000134 .L0 
C:\Users\CYMR90~1\AppData\Local\Temp\cca5ocgO.s:202    .text.exti_init:000000000000013e .L0 
C:\Users\CYMR90~1\AppData\Local\Temp\cca5ocgO.s:205    .text.exti_init:0000000000000146 .L0 
C:\Users\CYMR90~1\AppData\Local\Temp\cca5ocgO.s:210    .text.exti_init:0000000000000152 .L0 
C:\Users\CYMR90~1\AppData\Local\Temp\cca5ocgO.s:219    .text.exti_init:000000000000016c .L0 
C:\Users\CYMR90~1\AppData\Local\Temp\cca5ocgO.s:222    .text.exti_init:000000000000016e .L0 
C:\Users\CYMR90~1\AppData\Local\Temp\cca5ocgO.s:231    .text.exti_init:0000000000000188 .L0 
C:\Users\CYMR90~1\AppData\Local\Temp\cca5ocgO.s:240    .text.exti_init:00000000000001a2 .L0 
C:\Users\CYMR90~1\AppData\Local\Temp\cca5ocgO.s:243    .text.exti_init:00000000000001a4 .L0 
C:\Users\CYMR90~1\AppData\Local\Temp\cca5ocgO.s:246    .text.exti_init:00000000000001a6 .L0 
C:\Users\CYMR90~1\AppData\Local\Temp\cca5ocgO.s:248    .text.exti_init:00000000000001aa .L0 
C:\Users\CYMR90~1\AppData\Local\Temp\cca5ocgO.s:249    .text.exti_init:00000000000001aa .L0 
C:\Users\CYMR90~1\AppData\Local\Temp\cca5ocgO.s:251    .text.exti_init:00000000000001ac .L0 
C:\Users\CYMR90~1\AppData\Local\Temp\cca5ocgO.s:253    .text.exti_init:00000000000001ae .L0 
C:\Users\CYMR90~1\AppData\Local\Temp\cca5ocgO.s:260    .text.exti_interrupt_enable:0000000000000000 exti_interrupt_enable
C:\Users\CYMR90~1\AppData\Local\Temp\cca5ocgO.s:263    .text.exti_interrupt_enable:0000000000000000 .L0 
C:\Users\CYMR90~1\AppData\Local\Temp\cca5ocgO.s:264    .text.exti_interrupt_enable:0000000000000000 .L0 
C:\Users\CYMR90~1\AppData\Local\Temp\cca5ocgO.s:265    .text.exti_interrupt_enable:0000000000000002 .L0 
C:\Users\CYMR90~1\AppData\Local\Temp\cca5ocgO.s:267    .text.exti_interrupt_enable:0000000000000004 .L0 
C:\Users\CYMR90~1\AppData\Local\Temp\cca5ocgO.s:269    .text.exti_interrupt_enable:0000000000000006 .L0 
C:\Users\CYMR90~1\AppData\Local\Temp\cca5ocgO.s:272    .text.exti_interrupt_enable:000000000000000a .L0 
C:\Users\CYMR90~1\AppData\Local\Temp\cca5ocgO.s:281    .text.exti_interrupt_enable:0000000000000024 .L0 
C:\Users\CYMR90~1\AppData\Local\Temp\cca5ocgO.s:283    .text.exti_interrupt_enable:0000000000000028 .L0 
C:\Users\CYMR90~1\AppData\Local\Temp\cca5ocgO.s:284    .text.exti_interrupt_enable:0000000000000028 .L0 
C:\Users\CYMR90~1\AppData\Local\Temp\cca5ocgO.s:286    .text.exti_interrupt_enable:000000000000002a .L0 
C:\Users\CYMR90~1\AppData\Local\Temp\cca5ocgO.s:288    .text.exti_interrupt_enable:000000000000002c .L0 
C:\Users\CYMR90~1\AppData\Local\Temp\cca5ocgO.s:295    .text.exti_interrupt_disable:0000000000000000 exti_interrupt_disable
C:\Users\CYMR90~1\AppData\Local\Temp\cca5ocgO.s:298    .text.exti_interrupt_disable:0000000000000000 .L0 
C:\Users\CYMR90~1\AppData\Local\Temp\cca5ocgO.s:299    .text.exti_interrupt_disable:0000000000000000 .L0 
C:\Users\CYMR90~1\AppData\Local\Temp\cca5ocgO.s:300    .text.exti_interrupt_disable:0000000000000002 .L0 
C:\Users\CYMR90~1\AppData\Local\Temp\cca5ocgO.s:302    .text.exti_interrupt_disable:0000000000000004 .L0 
C:\Users\CYMR90~1\AppData\Local\Temp\cca5ocgO.s:304    .text.exti_interrupt_disable:0000000000000006 .L0 
C:\Users\CYMR90~1\AppData\Local\Temp\cca5ocgO.s:307    .text.exti_interrupt_disable:000000000000000a .L0 
C:\Users\CYMR90~1\AppData\Local\Temp\cca5ocgO.s:311    .text.exti_interrupt_disable:0000000000000014 .L0 
C:\Users\CYMR90~1\AppData\Local\Temp\cca5ocgO.s:314    .text.exti_interrupt_disable:000000000000001c .L0 
C:\Users\CYMR90~1\AppData\Local\Temp\cca5ocgO.s:319    .text.exti_interrupt_disable:0000000000000028 .L0 
C:\Users\CYMR90~1\AppData\Local\Temp\cca5ocgO.s:321    .text.exti_interrupt_disable:000000000000002c .L0 
C:\Users\CYMR90~1\AppData\Local\Temp\cca5ocgO.s:322    .text.exti_interrupt_disable:000000000000002c .L0 
C:\Users\CYMR90~1\AppData\Local\Temp\cca5ocgO.s:324    .text.exti_interrupt_disable:000000000000002e .L0 
C:\Users\CYMR90~1\AppData\Local\Temp\cca5ocgO.s:326    .text.exti_interrupt_disable:0000000000000030 .L0 
C:\Users\CYMR90~1\AppData\Local\Temp\cca5ocgO.s:333    .text.exti_event_enable:0000000000000000 exti_event_enable
C:\Users\CYMR90~1\AppData\Local\Temp\cca5ocgO.s:336    .text.exti_event_enable:0000000000000000 .L0 
C:\Users\CYMR90~1\AppData\Local\Temp\cca5ocgO.s:337    .text.exti_event_enable:0000000000000000 .L0 
C:\Users\CYMR90~1\AppData\Local\Temp\cca5ocgO.s:338    .text.exti_event_enable:0000000000000002 .L0 
C:\Users\CYMR90~1\AppData\Local\Temp\cca5ocgO.s:340    .text.exti_event_enable:0000000000000004 .L0 
C:\Users\CYMR90~1\AppData\Local\Temp\cca5ocgO.s:342    .text.exti_event_enable:0000000000000006 .L0 
C:\Users\CYMR90~1\AppData\Local\Temp\cca5ocgO.s:345    .text.exti_event_enable:000000000000000a .L0 
C:\Users\CYMR90~1\AppData\Local\Temp\cca5ocgO.s:354    .text.exti_event_enable:0000000000000024 .L0 
C:\Users\CYMR90~1\AppData\Local\Temp\cca5ocgO.s:356    .text.exti_event_enable:0000000000000028 .L0 
C:\Users\CYMR90~1\AppData\Local\Temp\cca5ocgO.s:357    .text.exti_event_enable:0000000000000028 .L0 
C:\Users\CYMR90~1\AppData\Local\Temp\cca5ocgO.s:359    .text.exti_event_enable:000000000000002a .L0 
C:\Users\CYMR90~1\AppData\Local\Temp\cca5ocgO.s:361    .text.exti_event_enable:000000000000002c .L0 
C:\Users\CYMR90~1\AppData\Local\Temp\cca5ocgO.s:368    .text.exti_event_disable:0000000000000000 exti_event_disable
C:\Users\CYMR90~1\AppData\Local\Temp\cca5ocgO.s:371    .text.exti_event_disable:0000000000000000 .L0 
C:\Users\CYMR90~1\AppData\Local\Temp\cca5ocgO.s:372    .text.exti_event_disable:0000000000000000 .L0 
C:\Users\CYMR90~1\AppData\Local\Temp\cca5ocgO.s:373    .text.exti_event_disable:0000000000000002 .L0 
C:\Users\CYMR90~1\AppData\Local\Temp\cca5ocgO.s:375    .text.exti_event_disable:0000000000000004 .L0 
C:\Users\CYMR90~1\AppData\Local\Temp\cca5ocgO.s:377    .text.exti_event_disable:0000000000000006 .L0 
C:\Users\CYMR90~1\AppData\Local\Temp\cca5ocgO.s:380    .text.exti_event_disable:000000000000000a .L0 
C:\Users\CYMR90~1\AppData\Local\Temp\cca5ocgO.s:384    .text.exti_event_disable:0000000000000014 .L0 
C:\Users\CYMR90~1\AppData\Local\Temp\cca5ocgO.s:387    .text.exti_event_disable:000000000000001c .L0 
C:\Users\CYMR90~1\AppData\Local\Temp\cca5ocgO.s:392    .text.exti_event_disable:0000000000000028 .L0 
C:\Users\CYMR90~1\AppData\Local\Temp\cca5ocgO.s:394    .text.exti_event_disable:000000000000002c .L0 
C:\Users\CYMR90~1\AppData\Local\Temp\cca5ocgO.s:395    .text.exti_event_disable:000000000000002c .L0 
C:\Users\CYMR90~1\AppData\Local\Temp\cca5ocgO.s:397    .text.exti_event_disable:000000000000002e .L0 
C:\Users\CYMR90~1\AppData\Local\Temp\cca5ocgO.s:399    .text.exti_event_disable:0000000000000030 .L0 
C:\Users\CYMR90~1\AppData\Local\Temp\cca5ocgO.s:406    .text.exti_software_interrupt_enable:0000000000000000 exti_software_interrupt_enable
C:\Users\CYMR90~1\AppData\Local\Temp\cca5ocgO.s:409    .text.exti_software_interrupt_enable:0000000000000000 .L0 
C:\Users\CYMR90~1\AppData\Local\Temp\cca5ocgO.s:410    .text.exti_software_interrupt_enable:0000000000000000 .L0 
C:\Users\CYMR90~1\AppData\Local\Temp\cca5ocgO.s:411    .text.exti_software_interrupt_enable:0000000000000002 .L0 
C:\Users\CYMR90~1\AppData\Local\Temp\cca5ocgO.s:413    .text.exti_software_interrupt_enable:0000000000000004 .L0 
C:\Users\CYMR90~1\AppData\Local\Temp\cca5ocgO.s:415    .text.exti_software_interrupt_enable:0000000000000006 .L0 
C:\Users\CYMR90~1\AppData\Local\Temp\cca5ocgO.s:418    .text.exti_software_interrupt_enable:000000000000000a .L0 
C:\Users\CYMR90~1\AppData\Local\Temp\cca5ocgO.s:427    .text.exti_software_interrupt_enable:0000000000000024 .L0 
C:\Users\CYMR90~1\AppData\Local\Temp\cca5ocgO.s:429    .text.exti_software_interrupt_enable:0000000000000028 .L0 
C:\Users\CYMR90~1\AppData\Local\Temp\cca5ocgO.s:430    .text.exti_software_interrupt_enable:0000000000000028 .L0 
C:\Users\CYMR90~1\AppData\Local\Temp\cca5ocgO.s:432    .text.exti_software_interrupt_enable:000000000000002a .L0 
C:\Users\CYMR90~1\AppData\Local\Temp\cca5ocgO.s:434    .text.exti_software_interrupt_enable:000000000000002c .L0 
C:\Users\CYMR90~1\AppData\Local\Temp\cca5ocgO.s:441    .text.exti_software_interrupt_disable:0000000000000000 exti_software_interrupt_disable
C:\Users\CYMR90~1\AppData\Local\Temp\cca5ocgO.s:444    .text.exti_software_interrupt_disable:0000000000000000 .L0 
C:\Users\CYMR90~1\AppData\Local\Temp\cca5ocgO.s:445    .text.exti_software_interrupt_disable:0000000000000000 .L0 
C:\Users\CYMR90~1\AppData\Local\Temp\cca5ocgO.s:446    .text.exti_software_interrupt_disable:0000000000000002 .L0 
C:\Users\CYMR90~1\AppData\Local\Temp\cca5ocgO.s:448    .text.exti_software_interrupt_disable:0000000000000004 .L0 
C:\Users\CYMR90~1\AppData\Local\Temp\cca5ocgO.s:450    .text.exti_software_interrupt_disable:0000000000000006 .L0 
C:\Users\CYMR90~1\AppData\Local\Temp\cca5ocgO.s:453    .text.exti_software_interrupt_disable:000000000000000a .L0 
C:\Users\CYMR90~1\AppData\Local\Temp\cca5ocgO.s:457    .text.exti_software_interrupt_disable:0000000000000014 .L0 
C:\Users\CYMR90~1\AppData\Local\Temp\cca5ocgO.s:460    .text.exti_software_interrupt_disable:000000000000001c .L0 
C:\Users\CYMR90~1\AppData\Local\Temp\cca5ocgO.s:465    .text.exti_software_interrupt_disable:0000000000000028 .L0 
C:\Users\CYMR90~1\AppData\Local\Temp\cca5ocgO.s:467    .text.exti_software_interrupt_disable:000000000000002c .L0 
C:\Users\CYMR90~1\AppData\Local\Temp\cca5ocgO.s:468    .text.exti_software_interrupt_disable:000000000000002c .L0 
C:\Users\CYMR90~1\AppData\Local\Temp\cca5ocgO.s:470    .text.exti_software_interrupt_disable:000000000000002e .L0 
C:\Users\CYMR90~1\AppData\Local\Temp\cca5ocgO.s:472    .text.exti_software_interrupt_disable:0000000000000030 .L0 
C:\Users\CYMR90~1\AppData\Local\Temp\cca5ocgO.s:479    .text.exti_flag_get:0000000000000000 exti_flag_get
C:\Users\CYMR90~1\AppData\Local\Temp\cca5ocgO.s:482    .text.exti_flag_get:0000000000000000 .L0 
C:\Users\CYMR90~1\AppData\Local\Temp\cca5ocgO.s:483    .text.exti_flag_get:0000000000000000 .L0 
C:\Users\CYMR90~1\AppData\Local\Temp\cca5ocgO.s:484    .text.exti_flag_get:0000000000000002 .L0 
C:\Users\CYMR90~1\AppData\Local\Temp\cca5ocgO.s:486    .text.exti_flag_get:0000000000000004 .L0 
C:\Users\CYMR90~1\AppData\Local\Temp\cca5ocgO.s:488    .text.exti_flag_get:0000000000000006 .L0 
C:\Users\CYMR90~1\AppData\Local\Temp\cca5ocgO.s:491    .text.exti_flag_get:000000000000000a .L0 
C:\Users\CYMR90~1\AppData\Local\Temp\cca5ocgO.s:495    .text.exti_flag_get:0000000000000014 .L0 
C:\Users\CYMR90~1\AppData\Local\Temp\cca5ocgO.s:498    .text.exti_flag_get:000000000000001a .L0 
C:\Users\CYMR90~1\AppData\Local\Temp\cca5ocgO.s:500    .text.exti_flag_get:000000000000001c .L0 
C:\Users\CYMR90~1\AppData\Local\Temp\cca5ocgO.s:504    .text.exti_flag_get:0000000000000020 .L0 
C:\Users\CYMR90~1\AppData\Local\Temp\cca5ocgO.s:507    .text.exti_flag_get:0000000000000022 .L0 
C:\Users\CYMR90~1\AppData\Local\Temp\cca5ocgO.s:509    .text.exti_flag_get:0000000000000026 .L0 
C:\Users\CYMR90~1\AppData\Local\Temp\cca5ocgO.s:510    .text.exti_flag_get:0000000000000026 .L0 
C:\Users\CYMR90~1\AppData\Local\Temp\cca5ocgO.s:512    .text.exti_flag_get:0000000000000028 .L0 
C:\Users\CYMR90~1\AppData\Local\Temp\cca5ocgO.s:514    .text.exti_flag_get:000000000000002a .L0 
C:\Users\CYMR90~1\AppData\Local\Temp\cca5ocgO.s:521    .text.exti_flag_clear:0000000000000000 exti_flag_clear
C:\Users\CYMR90~1\AppData\Local\Temp\cca5ocgO.s:524    .text.exti_flag_clear:0000000000000000 .L0 
C:\Users\CYMR90~1\AppData\Local\Temp\cca5ocgO.s:525    .text.exti_flag_clear:0000000000000000 .L0 
C:\Users\CYMR90~1\AppData\Local\Temp\cca5ocgO.s:526    .text.exti_flag_clear:0000000000000002 .L0 
C:\Users\CYMR90~1\AppData\Local\Temp\cca5ocgO.s:528    .text.exti_flag_clear:0000000000000004 .L0 
C:\Users\CYMR90~1\AppData\Local\Temp\cca5ocgO.s:530    .text.exti_flag_clear:0000000000000006 .L0 
C:\Users\CYMR90~1\AppData\Local\Temp\cca5ocgO.s:533    .text.exti_flag_clear:000000000000000a .L0 
C:\Users\CYMR90~1\AppData\Local\Temp\cca5ocgO.s:536    .text.exti_flag_clear:0000000000000012 .L0 
C:\Users\CYMR90~1\AppData\Local\Temp\cca5ocgO.s:539    .text.exti_flag_clear:0000000000000018 .L0 
C:\Users\CYMR90~1\AppData\Local\Temp\cca5ocgO.s:541    .text.exti_flag_clear:000000000000001c .L0 
C:\Users\CYMR90~1\AppData\Local\Temp\cca5ocgO.s:542    .text.exti_flag_clear:000000000000001c .L0 
C:\Users\CYMR90~1\AppData\Local\Temp\cca5ocgO.s:544    .text.exti_flag_clear:000000000000001e .L0 
C:\Users\CYMR90~1\AppData\Local\Temp\cca5ocgO.s:546    .text.exti_flag_clear:0000000000000020 .L0 
C:\Users\CYMR90~1\AppData\Local\Temp\cca5ocgO.s:553    .text.exti_interrupt_flag_get:0000000000000000 exti_interrupt_flag_get
C:\Users\CYMR90~1\AppData\Local\Temp\cca5ocgO.s:556    .text.exti_interrupt_flag_get:0000000000000000 .L0 
C:\Users\CYMR90~1\AppData\Local\Temp\cca5ocgO.s:557    .text.exti_interrupt_flag_get:0000000000000000 .L0 
C:\Users\CYMR90~1\AppData\Local\Temp\cca5ocgO.s:558    .text.exti_interrupt_flag_get:0000000000000002 .L0 
C:\Users\CYMR90~1\AppData\Local\Temp\cca5ocgO.s:560    .text.exti_interrupt_flag_get:0000000000000004 .L0 
C:\Users\CYMR90~1\AppData\Local\Temp\cca5ocgO.s:562    .text.exti_interrupt_flag_get:0000000000000006 .L0 
C:\Users\CYMR90~1\AppData\Local\Temp\cca5ocgO.s:565    .text.exti_interrupt_flag_get:000000000000000a .L0 
C:\Users\CYMR90~1\AppData\Local\Temp\cca5ocgO.s:569    .text.exti_interrupt_flag_get:0000000000000014 .L0 
C:\Users\CYMR90~1\AppData\Local\Temp\cca5ocgO.s:572    .text.exti_interrupt_flag_get:000000000000001a .L0 
C:\Users\CYMR90~1\AppData\Local\Temp\cca5ocgO.s:574    .text.exti_interrupt_flag_get:000000000000001c .L0 
C:\Users\CYMR90~1\AppData\Local\Temp\cca5ocgO.s:578    .text.exti_interrupt_flag_get:0000000000000020 .L0 
C:\Users\CYMR90~1\AppData\Local\Temp\cca5ocgO.s:581    .text.exti_interrupt_flag_get:0000000000000022 .L0 
C:\Users\CYMR90~1\AppData\Local\Temp\cca5ocgO.s:583    .text.exti_interrupt_flag_get:0000000000000026 .L0 
C:\Users\CYMR90~1\AppData\Local\Temp\cca5ocgO.s:584    .text.exti_interrupt_flag_get:0000000000000026 .L0 
C:\Users\CYMR90~1\AppData\Local\Temp\cca5ocgO.s:586    .text.exti_interrupt_flag_get:0000000000000028 .L0 
C:\Users\CYMR90~1\AppData\Local\Temp\cca5ocgO.s:588    .text.exti_interrupt_flag_get:000000000000002a .L0 
C:\Users\CYMR90~1\AppData\Local\Temp\cca5ocgO.s:595    .text.exti_interrupt_flag_clear:0000000000000000 exti_interrupt_flag_clear
C:\Users\CYMR90~1\AppData\Local\Temp\cca5ocgO.s:598    .text.exti_interrupt_flag_clear:0000000000000000 .L0 
C:\Users\CYMR90~1\AppData\Local\Temp\cca5ocgO.s:599    .text.exti_interrupt_flag_clear:0000000000000000 .L0 
C:\Users\CYMR90~1\AppData\Local\Temp\cca5ocgO.s:600    .text.exti_interrupt_flag_clear:0000000000000002 .L0 
C:\Users\CYMR90~1\AppData\Local\Temp\cca5ocgO.s:602    .text.exti_interrupt_flag_clear:0000000000000004 .L0 
C:\Users\CYMR90~1\AppData\Local\Temp\cca5ocgO.s:604    .text.exti_interrupt_flag_clear:0000000000000006 .L0 
C:\Users\CYMR90~1\AppData\Local\Temp\cca5ocgO.s:607    .text.exti_interrupt_flag_clear:000000000000000a .L0 
C:\Users\CYMR90~1\AppData\Local\Temp\cca5ocgO.s:610    .text.exti_interrupt_flag_clear:0000000000000012 .L0 
C:\Users\CYMR90~1\AppData\Local\Temp\cca5ocgO.s:613    .text.exti_interrupt_flag_clear:0000000000000018 .L0 
C:\Users\CYMR90~1\AppData\Local\Temp\cca5ocgO.s:615    .text.exti_interrupt_flag_clear:000000000000001c .L0 
C:\Users\CYMR90~1\AppData\Local\Temp\cca5ocgO.s:616    .text.exti_interrupt_flag_clear:000000000000001c .L0 
C:\Users\CYMR90~1\AppData\Local\Temp\cca5ocgO.s:618    .text.exti_interrupt_flag_clear:000000000000001e .L0 
C:\Users\CYMR90~1\AppData\Local\Temp\cca5ocgO.s:620    .text.exti_interrupt_flag_clear:0000000000000020 .L0 
C:\Users\CYMR90~1\AppData\Local\Temp\cca5ocgO.s:60     .text.exti_deinit:000000000000004a .L0 
C:\Users\CYMR90~1\AppData\Local\Temp\cca5ocgO.s:256    .text.exti_init:00000000000001ae .L0 
C:\Users\CYMR90~1\AppData\Local\Temp\cca5ocgO.s:291    .text.exti_interrupt_enable:000000000000002c .L0 
C:\Users\CYMR90~1\AppData\Local\Temp\cca5ocgO.s:329    .text.exti_interrupt_disable:0000000000000030 .L0 
C:\Users\CYMR90~1\AppData\Local\Temp\cca5ocgO.s:364    .text.exti_event_enable:000000000000002c .L0 
C:\Users\CYMR90~1\AppData\Local\Temp\cca5ocgO.s:402    .text.exti_event_disable:0000000000000030 .L0 
C:\Users\CYMR90~1\AppData\Local\Temp\cca5ocgO.s:437    .text.exti_software_interrupt_enable:000000000000002c .L0 
C:\Users\CYMR90~1\AppData\Local\Temp\cca5ocgO.s:475    .text.exti_software_interrupt_disable:0000000000000030 .L0 
C:\Users\CYMR90~1\AppData\Local\Temp\cca5ocgO.s:517    .text.exti_flag_get:000000000000002a .L0 
C:\Users\CYMR90~1\AppData\Local\Temp\cca5ocgO.s:549    .text.exti_flag_clear:0000000000000020 .L0 
C:\Users\CYMR90~1\AppData\Local\Temp\cca5ocgO.s:591    .text.exti_interrupt_flag_get:000000000000002a .L0 
C:\Users\CYMR90~1\AppData\Local\Temp\cca5ocgO.s:623    .text.exti_interrupt_flag_clear:0000000000000020 .L0 
                     .debug_frame:0000000000000000 .L0 
C:\Users\CYMR90~1\AppData\Local\Temp\cca5ocgO.s:133    .text.exti_init:000000000000009c .L3
C:\Users\CYMR90~1\AppData\Local\Temp\cca5ocgO.s:145    .text.exti_init:00000000000000b8 .L4
C:\Users\CYMR90~1\AppData\Local\Temp\cca5ocgO.s:157    .text.exti_init:00000000000000d4 .L6
C:\Users\CYMR90~1\AppData\Local\Temp\cca5ocgO.s:220    .text.exti_init:000000000000016e .L7
C:\Users\CYMR90~1\AppData\Local\Temp\cca5ocgO.s:241    .text.exti_init:00000000000001a4 .L12
C:\Users\CYMR90~1\AppData\Local\Temp\cca5ocgO.s:172    .text.exti_init:00000000000000fa .L9
C:\Users\CYMR90~1\AppData\Local\Temp\cca5ocgO.s:196    .text.exti_init:0000000000000134 .L10
C:\Users\CYMR90~1\AppData\Local\Temp\cca5ocgO.s:244    .text.exti_init:00000000000001a6 .L11
C:\Users\CYMR90~1\AppData\Local\Temp\cca5ocgO.s:502    .text.exti_flag_get:0000000000000020 .L20
C:\Users\CYMR90~1\AppData\Local\Temp\cca5ocgO.s:505    .text.exti_flag_get:0000000000000022 .L21
C:\Users\CYMR90~1\AppData\Local\Temp\cca5ocgO.s:576    .text.exti_interrupt_flag_get:0000000000000020 .L24
C:\Users\CYMR90~1\AppData\Local\Temp\cca5ocgO.s:579    .text.exti_interrupt_flag_get:0000000000000022 .L25
C:\Users\CYMR90~1\AppData\Local\Temp\cca5ocgO.s:1114   .debug_abbrev:0000000000000000 .Ldebug_abbrev0
C:\Users\CYMR90~1\AppData\Local\Temp\cca5ocgO.s:21794  .debug_str:000000000000ae87 .LASF5619
C:\Users\CYMR90~1\AppData\Local\Temp\cca5ocgO.s:27461  .debug_str:0000000000021ae2 .LASF5620
C:\Users\CYMR90~1\AppData\Local\Temp\cca5ocgO.s:22100  .debug_str:000000000000c350 .LASF5621
C:\Users\CYMR90~1\AppData\Local\Temp\cca5ocgO.s:1377   .debug_ranges:0000000000000000 .Ldebug_ranges0
C:\Users\CYMR90~1\AppData\Local\Temp\cca5ocgO.s:19044  .debug_line:0000000000000000 .Ldebug_line0
C:\Users\CYMR90~1\AppData\Local\Temp\cca5ocgO.s:1405   .debug_macro:0000000000000000 .Ldebug_macro0
C:\Users\CYMR90~1\AppData\Local\Temp\cca5ocgO.s:30253  .debug_str:000000000002cd9d .LASF5557
C:\Users\CYMR90~1\AppData\Local\Temp\cca5ocgO.s:19062  .debug_str:000000000000011c .LASF5558
C:\Users\CYMR90~1\AppData\Local\Temp\cca5ocgO.s:19988  .debug_str:0000000000003acc .LASF5559
C:\Users\CYMR90~1\AppData\Local\Temp\cca5ocgO.s:22358  .debug_str:000000000000d518 .LASF5560
C:\Users\CYMR90~1\AppData\Local\Temp\cca5ocgO.s:24638  .debug_str:000000000001648a .LASF5561
C:\Users\CYMR90~1\AppData\Local\Temp\cca5ocgO.s:26503  .debug_str:000000000001e049 .LASF5562
C:\Users\CYMR90~1\AppData\Local\Temp\cca5ocgO.s:28093  .debug_str:0000000000024145 .LASF5563
C:\Users\CYMR90~1\AppData\Local\Temp\cca5ocgO.s:26903  .debug_str:000000000001f882 .LASF5564
C:\Users\CYMR90~1\AppData\Local\Temp\cca5ocgO.s:25401  .debug_str:0000000000019637 .LASF5567
C:\Users\CYMR90~1\AppData\Local\Temp\cca5ocgO.s:19180  .debug_str:0000000000000827 .LASF5565
C:\Users\CYMR90~1\AppData\Local\Temp\cca5ocgO.s:28435  .debug_str:0000000000025947 .LASF5566
C:\Users\CYMR90~1\AppData\Local\Temp\cca5ocgO.s:26925  .debug_str:000000000001f9ec .LASF855
C:\Users\CYMR90~1\AppData\Local\Temp\cca5ocgO.s:28545  .debug_str:0000000000026024 .LASF5568
C:\Users\CYMR90~1\AppData\Local\Temp\cca5ocgO.s:28133  .debug_str:000000000002442d .LASF5569
C:\Users\CYMR90~1\AppData\Local\Temp\cca5ocgO.s:21644  .debug_str:000000000000a53c .LASF5570
C:\Users\CYMR90~1\AppData\Local\Temp\cca5ocgO.s:22422  .debug_str:000000000000d8cd .LASF5571
C:\Users\CYMR90~1\AppData\Local\Temp\cca5ocgO.s:24662  .debug_str:0000000000016654 .LASF5572
C:\Users\CYMR90~1\AppData\Local\Temp\cca5ocgO.s:24664  .debug_str:000000000001665b .LASF5573
C:\Users\CYMR90~1\AppData\Local\Temp\cca5ocgO.s:24666  .debug_str:0000000000016662 .LASF5574
C:\Users\CYMR90~1\AppData\Local\Temp\cca5ocgO.s:24668  .debug_str:0000000000016669 .LASF5575
C:\Users\CYMR90~1\AppData\Local\Temp\cca5ocgO.s:24670  .debug_str:0000000000016670 .LASF5576
C:\Users\CYMR90~1\AppData\Local\Temp\cca5ocgO.s:24672  .debug_str:0000000000016677 .LASF5577
C:\Users\CYMR90~1\AppData\Local\Temp\cca5ocgO.s:29205  .debug_str:0000000000028aea .LASF5578
C:\Users\CYMR90~1\AppData\Local\Temp\cca5ocgO.s:24676  .debug_str:0000000000016695 .LASF5579
C:\Users\CYMR90~1\AppData\Local\Temp\cca5ocgO.s:22446  .debug_str:000000000000da09 .LASF5580
C:\Users\CYMR90~1\AppData\Local\Temp\cca5ocgO.s:23004  .debug_str:000000000000fca1 .LASF5581
C:\Users\CYMR90~1\AppData\Local\Temp\cca5ocgO.s:23006  .debug_str:000000000000fca9 .LASF5582
C:\Users\CYMR90~1\AppData\Local\Temp\cca5ocgO.s:23008  .debug_str:000000000000fcb1 .LASF5583
C:\Users\CYMR90~1\AppData\Local\Temp\cca5ocgO.s:23010  .debug_str:000000000000fcb9 .LASF5584
C:\Users\CYMR90~1\AppData\Local\Temp\cca5ocgO.s:23012  .debug_str:000000000000fcc1 .LASF5585
C:\Users\CYMR90~1\AppData\Local\Temp\cca5ocgO.s:23014  .debug_str:000000000000fcc9 .LASF5586
C:\Users\CYMR90~1\AppData\Local\Temp\cca5ocgO.s:23016  .debug_str:000000000000fcd1 .LASF5587
C:\Users\CYMR90~1\AppData\Local\Temp\cca5ocgO.s:23018  .debug_str:000000000000fcd9 .LASF5588
C:\Users\CYMR90~1\AppData\Local\Temp\cca5ocgO.s:23020  .debug_str:000000000000fce1 .LASF5589
C:\Users\CYMR90~1\AppData\Local\Temp\cca5ocgO.s:23106  .debug_str:000000000001026c .LASF5590
C:\Users\CYMR90~1\AppData\Local\Temp\cca5ocgO.s:23108  .debug_str:0000000000010274 .LASF5591
C:\Users\CYMR90~1\AppData\Local\Temp\cca5ocgO.s:23110  .debug_str:000000000001027c .LASF5592
C:\Users\CYMR90~1\AppData\Local\Temp\cca5ocgO.s:23112  .debug_str:0000000000010284 .LASF5593
C:\Users\CYMR90~1\AppData\Local\Temp\cca5ocgO.s:23114  .debug_str:000000000001028c .LASF5594
C:\Users\CYMR90~1\AppData\Local\Temp\cca5ocgO.s:23116  .debug_str:0000000000010294 .LASF5595
C:\Users\CYMR90~1\AppData\Local\Temp\cca5ocgO.s:19530  .debug_str:0000000000001e2d .LASF5596
C:\Users\CYMR90~1\AppData\Local\Temp\cca5ocgO.s:23954  .debug_str:00000000000139c2 .LASF5597
C:\Users\CYMR90~1\AppData\Local\Temp\cca5ocgO.s:23532  .debug_str:0000000000011dea .LASF5598
C:\Users\CYMR90~1\AppData\Local\Temp\cca5ocgO.s:23246  .debug_str:0000000000010afd .LASF5599
C:\Users\CYMR90~1\AppData\Local\Temp\cca5ocgO.s:26465  .debug_str:000000000001dd4b .LASF5600
C:\Users\CYMR90~1\AppData\Local\Temp\cca5ocgO.s:27855  .debug_str:00000000000231e5 .LASF5601
C:\Users\CYMR90~1\AppData\Local\Temp\cca5ocgO.s:28329  .debug_str:000000000002512a .LASF5602
C:\Users\CYMR90~1\AppData\Local\Temp\cca5ocgO.s:23572  .debug_str:000000000001208b .LASF5603
C:\Users\CYMR90~1\AppData\Local\Temp\cca5ocgO.s:28785  .debug_str:0000000000026ea6 .LASF5604
C:\Users\CYMR90~1\AppData\Local\Temp\cca5ocgO.s:19482  .debug_str:0000000000001b35 .LASF5606
C:\Users\CYMR90~1\AppData\Local\Temp\cca5ocgO.s:596    .text.exti_interrupt_flag_clear:0000000000000000 .LFB358
C:\Users\CYMR90~1\AppData\Local\Temp\cca5ocgO.s:621    .text.exti_interrupt_flag_clear:0000000000000020 .LFE358
C:\Users\CYMR90~1\AppData\Local\Temp\cca5ocgO.s:27447  .debug_str:00000000000219eb .LASF5605
C:\Users\CYMR90~1\AppData\Local\Temp\cca5ocgO.s:20728  .debug_str:00000000000069bd .LASF5608
C:\Users\CYMR90~1\AppData\Local\Temp\cca5ocgO.s:554    .text.exti_interrupt_flag_get:0000000000000000 .LFB357
C:\Users\CYMR90~1\AppData\Local\Temp\cca5ocgO.s:589    .text.exti_interrupt_flag_get:000000000000002a .LFE357
C:\Users\CYMR90~1\AppData\Local\Temp\cca5ocgO.s:29991  .debug_str:000000000002bb83 .LASF5607
C:\Users\CYMR90~1\AppData\Local\Temp\cca5ocgO.s:522    .text.exti_flag_clear:0000000000000000 .LFB356
C:\Users\CYMR90~1\AppData\Local\Temp\cca5ocgO.s:547    .text.exti_flag_clear:0000000000000020 .LFE356
C:\Users\CYMR90~1\AppData\Local\Temp\cca5ocgO.s:22118  .debug_str:000000000000c45b .LASF5609
C:\Users\CYMR90~1\AppData\Local\Temp\cca5ocgO.s:480    .text.exti_flag_get:0000000000000000 .LFB355
C:\Users\CYMR90~1\AppData\Local\Temp\cca5ocgO.s:515    .text.exti_flag_get:000000000000002a .LFE355
C:\Users\CYMR90~1\AppData\Local\Temp\cca5ocgO.s:22814  .debug_str:000000000000f08d .LASF5610
C:\Users\CYMR90~1\AppData\Local\Temp\cca5ocgO.s:442    .text.exti_software_interrupt_disable:0000000000000000 .LFB354
C:\Users\CYMR90~1\AppData\Local\Temp\cca5ocgO.s:473    .text.exti_software_interrupt_disable:0000000000000030 .LFE354
C:\Users\CYMR90~1\AppData\Local\Temp\cca5ocgO.s:19262  .debug_str:0000000000000d54 .LASF5611
C:\Users\CYMR90~1\AppData\Local\Temp\cca5ocgO.s:407    .text.exti_software_interrupt_enable:0000000000000000 .LFB353
C:\Users\CYMR90~1\AppData\Local\Temp\cca5ocgO.s:435    .text.exti_software_interrupt_enable:000000000000002c .LFE353
C:\Users\CYMR90~1\AppData\Local\Temp\cca5ocgO.s:26993  .debug_str:000000000001fde9 .LASF5612
C:\Users\CYMR90~1\AppData\Local\Temp\cca5ocgO.s:369    .text.exti_event_disable:0000000000000000 .LFB352
C:\Users\CYMR90~1\AppData\Local\Temp\cca5ocgO.s:400    .text.exti_event_disable:0000000000000030 .LFE352
C:\Users\CYMR90~1\AppData\Local\Temp\cca5ocgO.s:29323  .debug_str:00000000000291ef .LASF5613
C:\Users\CYMR90~1\AppData\Local\Temp\cca5ocgO.s:334    .text.exti_event_enable:0000000000000000 .LFB351
C:\Users\CYMR90~1\AppData\Local\Temp\cca5ocgO.s:362    .text.exti_event_enable:000000000000002c .LFE351
C:\Users\CYMR90~1\AppData\Local\Temp\cca5ocgO.s:19976  .debug_str:00000000000039db .LASF5614
C:\Users\CYMR90~1\AppData\Local\Temp\cca5ocgO.s:296    .text.exti_interrupt_disable:0000000000000000 .LFB350
C:\Users\CYMR90~1\AppData\Local\Temp\cca5ocgO.s:327    .text.exti_interrupt_disable:0000000000000030 .LFE350
C:\Users\CYMR90~1\AppData\Local\Temp\cca5ocgO.s:25195  .debug_str:00000000000187f9 .LASF5615
C:\Users\CYMR90~1\AppData\Local\Temp\cca5ocgO.s:261    .text.exti_interrupt_enable:0000000000000000 .LFB349
C:\Users\CYMR90~1\AppData\Local\Temp\cca5ocgO.s:289    .text.exti_interrupt_enable:000000000000002c .LFE349
C:\Users\CYMR90~1\AppData\Local\Temp\cca5ocgO.s:29041  .debug_str:0000000000027fb1 .LASF5616
C:\Users\CYMR90~1\AppData\Local\Temp\cca5ocgO.s:65     .text.exti_init:0000000000000000 .LFB348
C:\Users\CYMR90~1\AppData\Local\Temp\cca5ocgO.s:254    .text.exti_init:00000000000001ae .LFE348
C:\Users\CYMR90~1\AppData\Local\Temp\cca5ocgO.s:29513  .debug_str:0000000000029d80 .LASF5617
C:\Users\CYMR90~1\AppData\Local\Temp\cca5ocgO.s:28293  .debug_str:0000000000024ebd .LASF5618
C:\Users\CYMR90~1\AppData\Local\Temp\cca5ocgO.s:24997  .debug_str:0000000000017c38 .LASF5622
C:\Users\CYMR90~1\AppData\Local\Temp\cca5ocgO.s:14     .text.exti_deinit:0000000000000000 .LFB347
C:\Users\CYMR90~1\AppData\Local\Temp\cca5ocgO.s:58     .text.exti_deinit:000000000000004a .LFE347
C:\Users\CYMR90~1\AppData\Local\Temp\cca5ocgO.s:630    .debug_info:0000000000000000 .Ldebug_info0
C:\Users\CYMR90~1\AppData\Local\Temp\cca5ocgO.s:2029   .debug_macro:0000000000000000 .Ldebug_macro2
C:\Users\CYMR90~1\AppData\Local\Temp\cca5ocgO.s:28883  .debug_str:0000000000027523 .LASF314
C:\Users\CYMR90~1\AppData\Local\Temp\cca5ocgO.s:24811  .debug_str:00000000000170d0 .LASF315
C:\Users\CYMR90~1\AppData\Local\Temp\cca5ocgO.s:2976   .debug_macro:0000000000000000 .Ldebug_macro3
C:\Users\CYMR90~1\AppData\Local\Temp\cca5ocgO.s:21232  .debug_str:0000000000008b20 .LASF369
C:\Users\CYMR90~1\AppData\Local\Temp\cca5ocgO.s:20790  .debug_str:0000000000006d86 .LASF370
C:\Users\CYMR90~1\AppData\Local\Temp\cca5ocgO.s:25067  .debug_str:000000000001805d .LASF371
C:\Users\CYMR90~1\AppData\Local\Temp\cca5ocgO.s:3140   .debug_macro:0000000000000000 .Ldebug_macro4
C:\Users\CYMR90~1\AppData\Local\Temp\cca5ocgO.s:3160   .debug_macro:0000000000000000 .Ldebug_macro5
C:\Users\CYMR90~1\AppData\Local\Temp\cca5ocgO.s:23706  .debug_str:0000000000012939 .LASF390
C:\Users\CYMR90~1\AppData\Local\Temp\cca5ocgO.s:3204   .debug_macro:0000000000000000 .Ldebug_macro6
C:\Users\CYMR90~1\AppData\Local\Temp\cca5ocgO.s:3218   .debug_macro:0000000000000000 .Ldebug_macro7
C:\Users\CYMR90~1\AppData\Local\Temp\cca5ocgO.s:3286   .debug_macro:0000000000000000 .Ldebug_macro8
C:\Users\CYMR90~1\AppData\Local\Temp\cca5ocgO.s:3312   .debug_macro:0000000000000000 .Ldebug_macro9
C:\Users\CYMR90~1\AppData\Local\Temp\cca5ocgO.s:3341   .debug_macro:0000000000000000 .Ldebug_macro10
C:\Users\CYMR90~1\AppData\Local\Temp\cca5ocgO.s:25207  .debug_str:00000000000188f0 .LASF433
C:\Users\CYMR90~1\AppData\Local\Temp\cca5ocgO.s:3355   .debug_macro:0000000000000000 .Ldebug_macro11
C:\Users\CYMR90~1\AppData\Local\Temp\cca5ocgO.s:3399   .debug_macro:0000000000000000 .Ldebug_macro12
C:\Users\CYMR90~1\AppData\Local\Temp\cca5ocgO.s:3425   .debug_macro:0000000000000000 .Ldebug_macro13
C:\Users\CYMR90~1\AppData\Local\Temp\cca5ocgO.s:28703  .debug_str:00000000000269b5 .LASF569
C:\Users\CYMR90~1\AppData\Local\Temp\cca5ocgO.s:3796   .debug_macro:0000000000000000 .Ldebug_macro14
C:\Users\CYMR90~1\AppData\Local\Temp\cca5ocgO.s:23232  .debug_str:00000000000109e6 .LASF572
C:\Users\CYMR90~1\AppData\Local\Temp\cca5ocgO.s:28057  .debug_str:0000000000023e45 .LASF573
C:\Users\CYMR90~1\AppData\Local\Temp\cca5ocgO.s:3807   .debug_macro:0000000000000000 .Ldebug_macro15
C:\Users\CYMR90~1\AppData\Local\Temp\cca5ocgO.s:3821   .debug_macro:0000000000000000 .Ldebug_macro16
C:\Users\CYMR90~1\AppData\Local\Temp\cca5ocgO.s:19752  .debug_str:0000000000002b93 .LASF578
C:\Users\CYMR90~1\AppData\Local\Temp\cca5ocgO.s:3853   .debug_macro:0000000000000000 .Ldebug_macro17
C:\Users\CYMR90~1\AppData\Local\Temp\cca5ocgO.s:3879   .debug_macro:0000000000000000 .Ldebug_macro18
C:\Users\CYMR90~1\AppData\Local\Temp\cca5ocgO.s:3890   .debug_macro:0000000000000000 .Ldebug_macro19
C:\Users\CYMR90~1\AppData\Local\Temp\cca5ocgO.s:3934   .debug_macro:0000000000000000 .Ldebug_macro20
C:\Users\CYMR90~1\AppData\Local\Temp\cca5ocgO.s:4104   .debug_macro:0000000000000000 .Ldebug_macro21
C:\Users\CYMR90~1\AppData\Local\Temp\cca5ocgO.s:4115   .debug_macro:0000000000000000 .Ldebug_macro22
C:\Users\CYMR90~1\AppData\Local\Temp\cca5ocgO.s:23958  .debug_str:00000000000139ea .LASF675
C:\Users\CYMR90~1\AppData\Local\Temp\cca5ocgO.s:4171   .debug_macro:0000000000000000 .Ldebug_macro23
C:\Users\CYMR90~1\AppData\Local\Temp\cca5ocgO.s:4188   .debug_macro:0000000000000000 .Ldebug_macro24
C:\Users\CYMR90~1\AppData\Local\Temp\cca5ocgO.s:26895  .debug_str:000000000001f812 .LASF693
C:\Users\CYMR90~1\AppData\Local\Temp\cca5ocgO.s:25073  .debug_str:000000000001808e .LASF694
C:\Users\CYMR90~1\AppData\Local\Temp\cca5ocgO.s:4232   .debug_macro:0000000000000000 .Ldebug_macro25
C:\Users\CYMR90~1\AppData\Local\Temp\cca5ocgO.s:20246  .debug_str:0000000000004c75 .LASF700
C:\Users\CYMR90~1\AppData\Local\Temp\cca5ocgO.s:21370  .debug_str:00000000000093a4 .LASF701
C:\Users\CYMR90~1\AppData\Local\Temp\cca5ocgO.s:4252   .debug_macro:0000000000000000 .Ldebug_macro26
C:\Users\CYMR90~1\AppData\Local\Temp\cca5ocgO.s:4263   .debug_macro:0000000000000000 .Ldebug_macro27
C:\Users\CYMR90~1\AppData\Local\Temp\cca5ocgO.s:4307   .debug_macro:0000000000000000 .Ldebug_macro28
C:\Users\CYMR90~1\AppData\Local\Temp\cca5ocgO.s:27493  .debug_str:0000000000021cfa .LASF749
C:\Users\CYMR90~1\AppData\Local\Temp\cca5ocgO.s:4408   .debug_macro:0000000000000000 .Ldebug_macro29
C:\Users\CYMR90~1\AppData\Local\Temp\cca5ocgO.s:4425   .debug_macro:0000000000000000 .Ldebug_macro30
C:\Users\CYMR90~1\AppData\Local\Temp\cca5ocgO.s:19110  .debug_str:0000000000000402 .LASF763
C:\Users\CYMR90~1\AppData\Local\Temp\cca5ocgO.s:20426  .debug_str:000000000000575a .LASF764
C:\Users\CYMR90~1\AppData\Local\Temp\cca5ocgO.s:4457   .debug_macro:0000000000000000 .Ldebug_macro31
C:\Users\CYMR90~1\AppData\Local\Temp\cca5ocgO.s:4471   .debug_macro:0000000000000000 .Ldebug_macro32
C:\Users\CYMR90~1\AppData\Local\Temp\cca5ocgO.s:4641   .debug_macro:0000000000000000 .Ldebug_macro33
C:\Users\CYMR90~1\AppData\Local\Temp\cca5ocgO.s:22884  .debug_str:000000000000f4e6 .LASF850
C:\Users\CYMR90~1\AppData\Local\Temp\cca5ocgO.s:25293  .debug_str:0000000000018efc .LASF851
C:\Users\CYMR90~1\AppData\Local\Temp\cca5ocgO.s:4727   .debug_macro:0000000000000000 .Ldebug_macro34
C:\Users\CYMR90~1\AppData\Local\Temp\cca5ocgO.s:4852   .debug_macro:0000000000000000 .Ldebug_macro35
C:\Users\CYMR90~1\AppData\Local\Temp\cca5ocgO.s:19396  .debug_str:0000000000001573 .LASF951
C:\Users\CYMR90~1\AppData\Local\Temp\cca5ocgO.s:5064   .debug_macro:0000000000000000 .Ldebug_macro36
C:\Users\CYMR90~1\AppData\Local\Temp\cca5ocgO.s:21120  .debug_str:0000000000008483 .LASF957
C:\Users\CYMR90~1\AppData\Local\Temp\cca5ocgO.s:20666  .debug_str:00000000000065ac .LASF958
C:\Users\CYMR90~1\AppData\Local\Temp\cca5ocgO.s:19568  .debug_str:000000000000206e .LASF959
C:\Users\CYMR90~1\AppData\Local\Temp\cca5ocgO.s:5084   .debug_macro:0000000000000000 .Ldebug_macro37
C:\Users\CYMR90~1\AppData\Local\Temp\cca5ocgO.s:5176   .debug_macro:0000000000000000 .Ldebug_macro38
C:\Users\CYMR90~1\AppData\Local\Temp\cca5ocgO.s:6822   .debug_macro:0000000000000000 .Ldebug_macro39
C:\Users\CYMR90~1\AppData\Local\Temp\cca5ocgO.s:6914   .debug_macro:0000000000000000 .Ldebug_macro40
C:\Users\CYMR90~1\AppData\Local\Temp\cca5ocgO.s:6970   .debug_macro:0000000000000000 .Ldebug_macro41
C:\Users\CYMR90~1\AppData\Local\Temp\cca5ocgO.s:6984   .debug_macro:0000000000000000 .Ldebug_macro42
C:\Users\CYMR90~1\AppData\Local\Temp\cca5ocgO.s:24600  .debug_str:000000000001625e .LASF1655
C:\Users\CYMR90~1\AppData\Local\Temp\cca5ocgO.s:21492  .debug_str:0000000000009b95 .LASF1656
C:\Users\CYMR90~1\AppData\Local\Temp\cca5ocgO.s:7208   .debug_macro:0000000000000000 .Ldebug_macro43
C:\Users\CYMR90~1\AppData\Local\Temp\cca5ocgO.s:7255   .debug_macro:0000000000000000 .Ldebug_macro44
C:\Users\CYMR90~1\AppData\Local\Temp\cca5ocgO.s:7410   .debug_macro:0000000000000000 .Ldebug_macro45
C:\Users\CYMR90~1\AppData\Local\Temp\cca5ocgO.s:7466   .debug_macro:0000000000000000 .Ldebug_macro46
C:\Users\CYMR90~1\AppData\Local\Temp\cca5ocgO.s:7477   .debug_macro:0000000000000000 .Ldebug_macro47
C:\Users\CYMR90~1\AppData\Local\Temp\cca5ocgO.s:29495  .debug_str:0000000000029ca4 .LASF1782
C:\Users\CYMR90~1\AppData\Local\Temp\cca5ocgO.s:24368  .debug_str:000000000001540b .LASF1783
C:\Users\CYMR90~1\AppData\Local\Temp\cca5ocgO.s:7608   .debug_macro:0000000000000000 .Ldebug_macro48
C:\Users\CYMR90~1\AppData\Local\Temp\cca5ocgO.s:8180   .debug_macro:0000000000000000 .Ldebug_macro49
C:\Users\CYMR90~1\AppData\Local\Temp\cca5ocgO.s:8467   .debug_macro:0000000000000000 .Ldebug_macro50
C:\Users\CYMR90~1\AppData\Local\Temp\cca5ocgO.s:8496   .debug_macro:0000000000000000 .Ldebug_macro51
C:\Users\CYMR90~1\AppData\Local\Temp\cca5ocgO.s:8573   .debug_macro:0000000000000000 .Ldebug_macro52
C:\Users\CYMR90~1\AppData\Local\Temp\cca5ocgO.s:9106   .debug_macro:0000000000000000 .Ldebug_macro53
C:\Users\CYMR90~1\AppData\Local\Temp\cca5ocgO.s:9129   .debug_macro:0000000000000000 .Ldebug_macro54
C:\Users\CYMR90~1\AppData\Local\Temp\cca5ocgO.s:9395   .debug_macro:0000000000000000 .Ldebug_macro55
C:\Users\CYMR90~1\AppData\Local\Temp\cca5ocgO.s:9724   .debug_macro:0000000000000000 .Ldebug_macro56
C:\Users\CYMR90~1\AppData\Local\Temp\cca5ocgO.s:9813   .debug_macro:0000000000000000 .Ldebug_macro57
C:\Users\CYMR90~1\AppData\Local\Temp\cca5ocgO.s:10628  .debug_macro:0000000000000000 .Ldebug_macro58
C:\Users\CYMR90~1\AppData\Local\Temp\cca5ocgO.s:10819  .debug_macro:0000000000000000 .Ldebug_macro59
C:\Users\CYMR90~1\AppData\Local\Temp\cca5ocgO.s:11322  .debug_macro:0000000000000000 .Ldebug_macro60
C:\Users\CYMR90~1\AppData\Local\Temp\cca5ocgO.s:11468  .debug_macro:0000000000000000 .Ldebug_macro61
C:\Users\CYMR90~1\AppData\Local\Temp\cca5ocgO.s:11998  .debug_macro:0000000000000000 .Ldebug_macro62
C:\Users\CYMR90~1\AppData\Local\Temp\cca5ocgO.s:12420  .debug_macro:0000000000000000 .Ldebug_macro63
C:\Users\CYMR90~1\AppData\Local\Temp\cca5ocgO.s:15194  .debug_macro:0000000000000000 .Ldebug_macro64
C:\Users\CYMR90~1\AppData\Local\Temp\cca5ocgO.s:16270  .debug_macro:0000000000000000 .Ldebug_macro65
C:\Users\CYMR90~1\AppData\Local\Temp\cca5ocgO.s:16539  .debug_macro:0000000000000000 .Ldebug_macro66
C:\Users\CYMR90~1\AppData\Local\Temp\cca5ocgO.s:16811  .debug_macro:0000000000000000 .Ldebug_macro67
C:\Users\CYMR90~1\AppData\Local\Temp\cca5ocgO.s:17839  .debug_macro:0000000000000000 .Ldebug_macro68
C:\Users\CYMR90~1\AppData\Local\Temp\cca5ocgO.s:17883  .debug_macro:0000000000000000 .Ldebug_macro69
C:\Users\CYMR90~1\AppData\Local\Temp\cca5ocgO.s:18509  .debug_macro:0000000000000000 .Ldebug_macro70
C:\Users\CYMR90~1\AppData\Local\Temp\cca5ocgO.s:18568  .debug_macro:0000000000000000 .Ldebug_macro71
C:\Users\CYMR90~1\AppData\Local\Temp\cca5ocgO.s:28791  .debug_str:0000000000026ef2 .LASF5556
C:\Users\CYMR90~1\AppData\Local\Temp\cca5ocgO.s:20408  .debug_str:000000000000561f .LASF0
C:\Users\CYMR90~1\AppData\Local\Temp\cca5ocgO.s:29109  .debug_str:00000000000284a8 .LASF1
C:\Users\CYMR90~1\AppData\Local\Temp\cca5ocgO.s:23052  .debug_str:000000000000ff08 .LASF2
C:\Users\CYMR90~1\AppData\Local\Temp\cca5ocgO.s:23118  .debug_str:000000000001029c .LASF3
C:\Users\CYMR90~1\AppData\Local\Temp\cca5ocgO.s:24412  .debug_str:000000000001564b .LASF4
C:\Users\CYMR90~1\AppData\Local\Temp\cca5ocgO.s:29891  .debug_str:000000000002b4ef .LASF5
C:\Users\CYMR90~1\AppData\Local\Temp\cca5ocgO.s:20642  .debug_str:0000000000006461 .LASF6
C:\Users\CYMR90~1\AppData\Local\Temp\cca5ocgO.s:29215  .debug_str:0000000000028b72 .LASF7
C:\Users\CYMR90~1\AppData\Local\Temp\cca5ocgO.s:28173  .debug_str:00000000000246bb .LASF8
C:\Users\CYMR90~1\AppData\Local\Temp\cca5ocgO.s:26125  .debug_str:000000000001c64a .LASF9
C:\Users\CYMR90~1\AppData\Local\Temp\cca5ocgO.s:25481  .debug_str:0000000000019c56 .LASF10
C:\Users\CYMR90~1\AppData\Local\Temp\cca5ocgO.s:25345  .debug_str:00000000000192de .LASF11
C:\Users\CYMR90~1\AppData\Local\Temp\cca5ocgO.s:29729  .debug_str:000000000002aa75 .LASF12
C:\Users\CYMR90~1\AppData\Local\Temp\cca5ocgO.s:25357  .debug_str:0000000000019392 .LASF13
C:\Users\CYMR90~1\AppData\Local\Temp\cca5ocgO.s:21648  .debug_str:000000000000a566 .LASF14
C:\Users\CYMR90~1\AppData\Local\Temp\cca5ocgO.s:26695  .debug_str:000000000001ebd2 .LASF15
C:\Users\CYMR90~1\AppData\Local\Temp\cca5ocgO.s:27429  .debug_str:000000000002190c .LASF16
C:\Users\CYMR90~1\AppData\Local\Temp\cca5ocgO.s:21694  .debug_str:000000000000a82a .LASF17
C:\Users\CYMR90~1\AppData\Local\Temp\cca5ocgO.s:28449  .debug_str:0000000000025a24 .LASF18
C:\Users\CYMR90~1\AppData\Local\Temp\cca5ocgO.s:22660  .debug_str:000000000000e73d .LASF19
C:\Users\CYMR90~1\AppData\Local\Temp\cca5ocgO.s:19738  .debug_str:0000000000002ac0 .LASF20
C:\Users\CYMR90~1\AppData\Local\Temp\cca5ocgO.s:25161  .debug_str:0000000000018620 .LASF21
C:\Users\CYMR90~1\AppData\Local\Temp\cca5ocgO.s:25159  .debug_str:0000000000018606 .LASF22
C:\Users\CYMR90~1\AppData\Local\Temp\cca5ocgO.s:27733  .debug_str:0000000000022b2c .LASF23
C:\Users\CYMR90~1\AppData\Local\Temp\cca5ocgO.s:26077  .debug_str:000000000001c3af .LASF24
C:\Users\CYMR90~1\AppData\Local\Temp\cca5ocgO.s:19964  .debug_str:0000000000003935 .LASF25
C:\Users\CYMR90~1\AppData\Local\Temp\cca5ocgO.s:24534  .debug_str:0000000000015ddb .LASF26
C:\Users\CYMR90~1\AppData\Local\Temp\cca5ocgO.s:27737  .debug_str:0000000000022b62 .LASF27
C:\Users\CYMR90~1\AppData\Local\Temp\cca5ocgO.s:27437  .debug_str:0000000000021969 .LASF28
C:\Users\CYMR90~1\AppData\Local\Temp\cca5ocgO.s:20358  .debug_str:0000000000005336 .LASF29
C:\Users\CYMR90~1\AppData\Local\Temp\cca5ocgO.s:26479  .debug_str:000000000001dea1 .LASF30
C:\Users\CYMR90~1\AppData\Local\Temp\cca5ocgO.s:19344  .debug_str:0000000000001290 .LASF31
C:\Users\CYMR90~1\AppData\Local\Temp\cca5ocgO.s:26929  .debug_str:000000000001fa0b .LASF32
C:\Users\CYMR90~1\AppData\Local\Temp\cca5ocgO.s:21534  .debug_str:0000000000009e00 .LASF33
C:\Users\CYMR90~1\AppData\Local\Temp\cca5ocgO.s:21384  .debug_str:0000000000009464 .LASF34
C:\Users\CYMR90~1\AppData\Local\Temp\cca5ocgO.s:22690  .debug_str:000000000000e908 .LASF35
C:\Users\CYMR90~1\AppData\Local\Temp\cca5ocgO.s:25589  .debug_str:000000000001a2a1 .LASF36
C:\Users\CYMR90~1\AppData\Local\Temp\cca5ocgO.s:20888  .debug_str:0000000000007439 .LASF37
C:\Users\CYMR90~1\AppData\Local\Temp\cca5ocgO.s:23050  .debug_str:000000000000fee5 .LASF38
C:\Users\CYMR90~1\AppData\Local\Temp\cca5ocgO.s:19926  .debug_str:000000000000367f .LASF39
C:\Users\CYMR90~1\AppData\Local\Temp\cca5ocgO.s:19730  .debug_str:0000000000002a2e .LASF40
C:\Users\CYMR90~1\AppData\Local\Temp\cca5ocgO.s:23222  .debug_str:0000000000010959 .LASF41
C:\Users\CYMR90~1\AppData\Local\Temp\cca5ocgO.s:23644  .debug_str:0000000000012503 .LASF42
C:\Users\CYMR90~1\AppData\Local\Temp\cca5ocgO.s:23912  .debug_str:000000000001374c .LASF43
C:\Users\CYMR90~1\AppData\Local\Temp\cca5ocgO.s:25579  .debug_str:000000000001a20f .LASF44
C:\Users\CYMR90~1\AppData\Local\Temp\cca5ocgO.s:23502  .debug_str:0000000000011bf9 .LASF45
C:\Users\CYMR90~1\AppData\Local\Temp\cca5ocgO.s:20190  .debug_str:0000000000004860 .LASF46
C:\Users\CYMR90~1\AppData\Local\Temp\cca5ocgO.s:26483  .debug_str:000000000001dee0 .LASF47
C:\Users\CYMR90~1\AppData\Local\Temp\cca5ocgO.s:28175  .debug_str:00000000000246d0 .LASF48
C:\Users\CYMR90~1\AppData\Local\Temp\cca5ocgO.s:22440  .debug_str:000000000000d9a4 .LASF49
C:\Users\CYMR90~1\AppData\Local\Temp\cca5ocgO.s:19564  .debug_str:000000000000203b .LASF50
C:\Users\CYMR90~1\AppData\Local\Temp\cca5ocgO.s:19064  .debug_str:000000000000012a .LASF51
C:\Users\CYMR90~1\AppData\Local\Temp\cca5ocgO.s:29505  .debug_str:0000000000029d1f .LASF52
C:\Users\CYMR90~1\AppData\Local\Temp\cca5ocgO.s:22252  .debug_str:000000000000cdd4 .LASF53
C:\Users\CYMR90~1\AppData\Local\Temp\cca5ocgO.s:23990  .debug_str:0000000000013bdc .LASF54
C:\Users\CYMR90~1\AppData\Local\Temp\cca5ocgO.s:20252  .debug_str:0000000000004cc6 .LASF55
C:\Users\CYMR90~1\AppData\Local\Temp\cca5ocgO.s:20978  .debug_str:00000000000079e1 .LASF56
C:\Users\CYMR90~1\AppData\Local\Temp\cca5ocgO.s:24390  .debug_str:000000000001551a .LASF57
C:\Users\CYMR90~1\AppData\Local\Temp\cca5ocgO.s:19296  .debug_str:0000000000000fd6 .LASF58
C:\Users\CYMR90~1\AppData\Local\Temp\cca5ocgO.s:28453  .debug_str:0000000000025a64 .LASF59
C:\Users\CYMR90~1\AppData\Local\Temp\cca5ocgO.s:23920  .debug_str:00000000000137a7 .LASF60
C:\Users\CYMR90~1\AppData\Local\Temp\cca5ocgO.s:25859  .debug_str:000000000001b650 .LASF61
C:\Users\CYMR90~1\AppData\Local\Temp\cca5ocgO.s:19792  .debug_str:0000000000002e02 .LASF62
C:\Users\CYMR90~1\AppData\Local\Temp\cca5ocgO.s:22434  .debug_str:000000000000d960 .LASF63
C:\Users\CYMR90~1\AppData\Local\Temp\cca5ocgO.s:22168  .debug_str:000000000000c760 .LASF64
C:\Users\CYMR90~1\AppData\Local\Temp\cca5ocgO.s:25565  .debug_str:000000000001a146 .LASF65
C:\Users\CYMR90~1\AppData\Local\Temp\cca5ocgO.s:24220  .debug_str:0000000000014a45 .LASF66
C:\Users\CYMR90~1\AppData\Local\Temp\cca5ocgO.s:29289  .debug_str:0000000000028ff6 .LASF67
C:\Users\CYMR90~1\AppData\Local\Temp\cca5ocgO.s:29731  .debug_str:000000000002aa88 .LASF68
C:\Users\CYMR90~1\AppData\Local\Temp\cca5ocgO.s:23454  .debug_str:000000000001187a .LASF69
C:\Users\CYMR90~1\AppData\Local\Temp\cca5ocgO.s:22590  .debug_str:000000000000e2b5 .LASF70
C:\Users\CYMR90~1\AppData\Local\Temp\cca5ocgO.s:20202  .debug_str:00000000000049b3 .LASF71
C:\Users\CYMR90~1\AppData\Local\Temp\cca5ocgO.s:23490  .debug_str:0000000000011b36 .LASF72
C:\Users\CYMR90~1\AppData\Local\Temp\cca5ocgO.s:23126  .debug_str:000000000001030d .LASF73
C:\Users\CYMR90~1\AppData\Local\Temp\cca5ocgO.s:23724  .debug_str:0000000000012a8f .LASF74
C:\Users\CYMR90~1\AppData\Local\Temp\cca5ocgO.s:23564  .debug_str:000000000001200e .LASF75
C:\Users\CYMR90~1\AppData\Local\Temp\cca5ocgO.s:23664  .debug_str:000000000001266e .LASF76
C:\Users\CYMR90~1\AppData\Local\Temp\cca5ocgO.s:28091  .debug_str:000000000002412a .LASF77
C:\Users\CYMR90~1\AppData\Local\Temp\cca5ocgO.s:26051  .debug_str:000000000001c22c .LASF78
C:\Users\CYMR90~1\AppData\Local\Temp\cca5ocgO.s:26449  .debug_str:000000000001dc48 .LASF79
C:\Users\CYMR90~1\AppData\Local\Temp\cca5ocgO.s:29269  .debug_str:0000000000028ea7 .LASF80
C:\Users\CYMR90~1\AppData\Local\Temp\cca5ocgO.s:21486  .debug_str:0000000000009b21 .LASF81
C:\Users\CYMR90~1\AppData\Local\Temp\cca5ocgO.s:21680  .debug_str:000000000000a6fe .LASF82
C:\Users\CYMR90~1\AppData\Local\Temp\cca5ocgO.s:29397  .debug_str:00000000000296cb .LASF83
C:\Users\CYMR90~1\AppData\Local\Temp\cca5ocgO.s:21426  .debug_str:0000000000009719 .LASF84
C:\Users\CYMR90~1\AppData\Local\Temp\cca5ocgO.s:20700  .debug_str:00000000000067f1 .LASF85
C:\Users\CYMR90~1\AppData\Local\Temp\cca5ocgO.s:25761  .debug_str:000000000001af4f .LASF86
C:\Users\CYMR90~1\AppData\Local\Temp\cca5ocgO.s:29431  .debug_str:00000000000298ad .LASF87
C:\Users\CYMR90~1\AppData\Local\Temp\cca5ocgO.s:26871  .debug_str:000000000001f6a3 .LASF88
C:\Users\CYMR90~1\AppData\Local\Temp\cca5ocgO.s:25675  .debug_str:000000000001a9d4 .LASF89
C:\Users\CYMR90~1\AppData\Local\Temp\cca5ocgO.s:26899  .debug_str:000000000001f845 .LASF90
C:\Users\CYMR90~1\AppData\Local\Temp\cca5ocgO.s:29635  .debug_str:000000000002a4b0 .LASF91
C:\Users\CYMR90~1\AppData\Local\Temp\cca5ocgO.s:28461  .debug_str:0000000000025adc .LASF92
C:\Users\CYMR90~1\AppData\Local\Temp\cca5ocgO.s:21562  .debug_str:0000000000009fd9 .LASF93
C:\Users\CYMR90~1\AppData\Local\Temp\cca5ocgO.s:26331  .debug_str:000000000001d4eb .LASF94
C:\Users\CYMR90~1\AppData\Local\Temp\cca5ocgO.s:23948  .debug_str:0000000000013960 .LASF95
C:\Users\CYMR90~1\AppData\Local\Temp\cca5ocgO.s:23932  .debug_str:0000000000013870 .LASF96
C:\Users\CYMR90~1\AppData\Local\Temp\cca5ocgO.s:29939  .debug_str:000000000002b816 .LASF97
C:\Users\CYMR90~1\AppData\Local\Temp\cca5ocgO.s:23578  .debug_str:00000000000120fa .LASF98
C:\Users\CYMR90~1\AppData\Local\Temp\cca5ocgO.s:27455  .debug_str:0000000000021a6b .LASF99
C:\Users\CYMR90~1\AppData\Local\Temp\cca5ocgO.s:20924  .debug_str:0000000000007669 .LASF100
C:\Users\CYMR90~1\AppData\Local\Temp\cca5ocgO.s:23066  .debug_str:000000000000ffb9 .LASF101
C:\Users\CYMR90~1\AppData\Local\Temp\cca5ocgO.s:24452  .debug_str:0000000000015884 .LASF102
C:\Users\CYMR90~1\AppData\Local\Temp\cca5ocgO.s:23348  .debug_str:0000000000011129 .LASF103
C:\Users\CYMR90~1\AppData\Local\Temp\cca5ocgO.s:22352  .debug_str:000000000000d422 .LASF104
C:\Users\CYMR90~1\AppData\Local\Temp\cca5ocgO.s:23512  .debug_str:0000000000011c90 .LASF105
C:\Users\CYMR90~1\AppData\Local\Temp\cca5ocgO.s:20238  .debug_str:0000000000004c00 .LASF106
C:\Users\CYMR90~1\AppData\Local\Temp\cca5ocgO.s:23342  .debug_str:00000000000110c4 .LASF107
C:\Users\CYMR90~1\AppData\Local\Temp\cca5ocgO.s:22348  .debug_str:000000000000d3fe .LASF108
C:\Users\CYMR90~1\AppData\Local\Temp\cca5ocgO.s:23780  .debug_str:0000000000012e0f .LASF109
C:\Users\CYMR90~1\AppData\Local\Temp\cca5ocgO.s:22714  .debug_str:000000000000eaa2 .LASF110
C:\Users\CYMR90~1\AppData\Local\Temp\cca5ocgO.s:25213  .debug_str:0000000000018930 .LASF111
C:\Users\CYMR90~1\AppData\Local\Temp\cca5ocgO.s:21822  .debug_str:000000000000b0dd .LASF112
C:\Users\CYMR90~1\AppData\Local\Temp\cca5ocgO.s:21560  .debug_str:0000000000009fb0 .LASF113
C:\Users\CYMR90~1\AppData\Local\Temp\cca5ocgO.s:24484  .debug_str:0000000000015a84 .LASF114
C:\Users\CYMR90~1\AppData\Local\Temp\cca5ocgO.s:29329  .debug_str:0000000000029233 .LASF115
C:\Users\CYMR90~1\AppData\Local\Temp\cca5ocgO.s:27977  .debug_str:000000000002399b .LASF116
C:\Users\CYMR90~1\AppData\Local\Temp\cca5ocgO.s:21318  .debug_str:00000000000090a8 .LASF117
C:\Users\CYMR90~1\AppData\Local\Temp\cca5ocgO.s:25919  .debug_str:000000000001b9fd .LASF118
C:\Users\CYMR90~1\AppData\Local\Temp\cca5ocgO.s:30049  .debug_str:000000000002bfd3 .LASF119
C:\Users\CYMR90~1\AppData\Local\Temp\cca5ocgO.s:22636  .debug_str:000000000000e56f .LASF120
C:\Users\CYMR90~1\AppData\Local\Temp\cca5ocgO.s:28075  .debug_str:0000000000023f4f .LASF121
C:\Users\CYMR90~1\AppData\Local\Temp\cca5ocgO.s:22130  .debug_str:000000000000c4ff .LASF122
C:\Users\CYMR90~1\AppData\Local\Temp\cca5ocgO.s:22240  .debug_str:000000000000cd52 .LASF123
C:\Users\CYMR90~1\AppData\Local\Temp\cca5ocgO.s:19894  .debug_str:000000000000349f .LASF124
C:\Users\CYMR90~1\AppData\Local\Temp\cca5ocgO.s:20166  .debug_str:00000000000046a4 .LASF125
C:\Users\CYMR90~1\AppData\Local\Temp\cca5ocgO.s:29007  .debug_str:0000000000027d2f .LASF126
C:\Users\CYMR90~1\AppData\Local\Temp\cca5ocgO.s:23518  .debug_str:0000000000011cce .LASF127
C:\Users\CYMR90~1\AppData\Local\Temp\cca5ocgO.s:26307  .debug_str:000000000001d38d .LASF128
C:\Users\CYMR90~1\AppData\Local\Temp\cca5ocgO.s:21394  .debug_str:00000000000094ef .LASF129
C:\Users\CYMR90~1\AppData\Local\Temp\cca5ocgO.s:28569  .debug_str:000000000002615c .LASF130
C:\Users\CYMR90~1\AppData\Local\Temp\cca5ocgO.s:28881  .debug_str:000000000002750b .LASF131
C:\Users\CYMR90~1\AppData\Local\Temp\cca5ocgO.s:28683  .debug_str:000000000002686b .LASF132
C:\Users\CYMR90~1\AppData\Local\Temp\cca5ocgO.s:22612  .debug_str:000000000000e3fe .LASF133
C:\Users\CYMR90~1\AppData\Local\Temp\cca5ocgO.s:27995  .debug_str:0000000000023a98 .LASF134
C:\Users\CYMR90~1\AppData\Local\Temp\cca5ocgO.s:20158  .debug_str:0000000000004625 .LASF135
C:\Users\CYMR90~1\AppData\Local\Temp\cca5ocgO.s:21022  .debug_str:0000000000007cb7 .LASF136
C:\Users\CYMR90~1\AppData\Local\Temp\cca5ocgO.s:26061  .debug_str:000000000001c2e0 .LASF137
C:\Users\CYMR90~1\AppData\Local\Temp\cca5ocgO.s:23776  .debug_str:0000000000012ddf .LASF138
C:\Users\CYMR90~1\AppData\Local\Temp\cca5ocgO.s:29213  .debug_str:0000000000028b62 .LASF139
C:\Users\CYMR90~1\AppData\Local\Temp\cca5ocgO.s:28347  .debug_str:00000000000252e8 .LASF140
C:\Users\CYMR90~1\AppData\Local\Temp\cca5ocgO.s:26009  .debug_str:000000000001bf87 .LASF141
C:\Users\CYMR90~1\AppData\Local\Temp\cca5ocgO.s:21522  .debug_str:0000000000009d41 .LASF142
C:\Users\CYMR90~1\AppData\Local\Temp\cca5ocgO.s:29797  .debug_str:000000000002ae73 .LASF143
C:\Users\CYMR90~1\AppData\Local\Temp\cca5ocgO.s:25183  .debug_str:0000000000018738 .LASF144
C:\Users\CYMR90~1\AppData\Local\Temp\cca5ocgO.s:24232  .debug_str:0000000000014b2a .LASF145
C:\Users\CYMR90~1\AppData\Local\Temp\cca5ocgO.s:22202  .debug_str:000000000000ca3c .LASF146
C:\Users\CYMR90~1\AppData\Local\Temp\cca5ocgO.s:20200  .debug_str:000000000000499c .LASF147
C:\Users\CYMR90~1\AppData\Local\Temp\cca5ocgO.s:22754  .debug_str:000000000000ed39 .LASF148
C:\Users\CYMR90~1\AppData\Local\Temp\cca5ocgO.s:25163  .debug_str:0000000000018634 .LASF149
C:\Users\CYMR90~1\AppData\Local\Temp\cca5ocgO.s:19138  .debug_str:0000000000000586 .LASF150
C:\Users\CYMR90~1\AppData\Local\Temp\cca5ocgO.s:30261  .debug_str:000000000002cdf8 .LASF151
C:\Users\CYMR90~1\AppData\Local\Temp\cca5ocgO.s:23770  .debug_str:0000000000012d5d .LASF152
C:\Users\CYMR90~1\AppData\Local\Temp\cca5ocgO.s:28353  .debug_str:000000000002533b .LASF153
C:\Users\CYMR90~1\AppData\Local\Temp\cca5ocgO.s:26211  .debug_str:000000000001cc35 .LASF154
C:\Users\CYMR90~1\AppData\Local\Temp\cca5ocgO.s:23182  .debug_str:00000000000106fe .LASF155
C:\Users\CYMR90~1\AppData\Local\Temp\cca5ocgO.s:26223  .debug_str:000000000001cd1b .LASF156
C:\Users\CYMR90~1\AppData\Local\Temp\cca5ocgO.s:26337  .debug_str:000000000001d553 .LASF157
C:\Users\CYMR90~1\AppData\Local\Temp\cca5ocgO.s:22050  .debug_str:000000000000c02a .LASF158
C:\Users\CYMR90~1\AppData\Local\Temp\cca5ocgO.s:21124  .debug_str:00000000000084a5 .LASF159
C:\Users\CYMR90~1\AppData\Local\Temp\cca5ocgO.s:25865  .debug_str:000000000001b6a4 .LASF160
C:\Users\CYMR90~1\AppData\Local\Temp\cca5ocgO.s:27267  .debug_str:0000000000020ef0 .LASF161
C:\Users\CYMR90~1\AppData\Local\Temp\cca5ocgO.s:25473  .debug_str:0000000000019bc4 .LASF162
C:\Users\CYMR90~1\AppData\Local\Temp\cca5ocgO.s:27987  .debug_str:0000000000023a26 .LASF163
C:\Users\CYMR90~1\AppData\Local\Temp\cca5ocgO.s:29621  .debug_str:000000000002a3e2 .LASF164
C:\Users\CYMR90~1\AppData\Local\Temp\cca5ocgO.s:20878  .debug_str:00000000000073b5 .LASF165
C:\Users\CYMR90~1\AppData\Local\Temp\cca5ocgO.s:29317  .debug_str:00000000000291b7 .LASF166
C:\Users\CYMR90~1\AppData\Local\Temp\cca5ocgO.s:29139  .debug_str:00000000000286cc .LASF167
C:\Users\CYMR90~1\AppData\Local\Temp\cca5ocgO.s:27905  .debug_str:0000000000023504 .LASF168
C:\Users\CYMR90~1\AppData\Local\Temp\cca5ocgO.s:24943  .debug_str:00000000000178c8 .LASF169
C:\Users\CYMR90~1\AppData\Local\Temp\cca5ocgO.s:28743  .debug_str:0000000000026bfb .LASF170
C:\Users\CYMR90~1\AppData\Local\Temp\cca5ocgO.s:24562  .debug_str:0000000000015f9a .LASF171
C:\Users\CYMR90~1\AppData\Local\Temp\cca5ocgO.s:26131  .debug_str:000000000001c6a9 .LASF172
C:\Users\CYMR90~1\AppData\Local\Temp\cca5ocgO.s:21514  .debug_str:0000000000009ccd .LASF173
C:\Users\CYMR90~1\AppData\Local\Temp\cca5ocgO.s:27797  .debug_str:0000000000022edb .LASF174
C:\Users\CYMR90~1\AppData\Local\Temp\cca5ocgO.s:20534  .debug_str:0000000000005dc3 .LASF175
C:\Users\CYMR90~1\AppData\Local\Temp\cca5ocgO.s:21362  .debug_str:000000000000933b .LASF176
C:\Users\CYMR90~1\AppData\Local\Temp\cca5ocgO.s:20036  .debug_str:0000000000003dd0 .LASF177
C:\Users\CYMR90~1\AppData\Local\Temp\cca5ocgO.s:25353  .debug_str:0000000000019350 .LASF178
C:\Users\CYMR90~1\AppData\Local\Temp\cca5ocgO.s:22290  .debug_str:000000000000d045 .LASF179
C:\Users\CYMR90~1\AppData\Local\Temp\cca5ocgO.s:19558  .debug_str:0000000000001fcf .LASF180
C:\Users\CYMR90~1\AppData\Local\Temp\cca5ocgO.s:29935  .debug_str:000000000002b7eb .LASF181
C:\Users\CYMR90~1\AppData\Local\Temp\cca5ocgO.s:19330  .debug_str:00000000000011e5 .LASF182
C:\Users\CYMR90~1\AppData\Local\Temp\cca5ocgO.s:23890  .debug_str:00000000000135ba .LASF183
C:\Users\CYMR90~1\AppData\Local\Temp\cca5ocgO.s:24298  .debug_str:0000000000014f69 .LASF184
C:\Users\CYMR90~1\AppData\Local\Temp\cca5ocgO.s:29149  .debug_str:000000000002877b .LASF185
C:\Users\CYMR90~1\AppData\Local\Temp\cca5ocgO.s:22390  .debug_str:000000000000d6ff .LASF186
C:\Users\CYMR90~1\AppData\Local\Temp\cca5ocgO.s:20862  .debug_str:0000000000007255 .LASF187
C:\Users\CYMR90~1\AppData\Local\Temp\cca5ocgO.s:26849  .debug_str:000000000001f552 .LASF188
C:\Users\CYMR90~1\AppData\Local\Temp\cca5ocgO.s:22656  .debug_str:000000000000e700 .LASF189
C:\Users\CYMR90~1\AppData\Local\Temp\cca5ocgO.s:23996  .debug_str:0000000000013c3b .LASF190
C:\Users\CYMR90~1\AppData\Local\Temp\cca5ocgO.s:27325  .debug_str:0000000000021221 .LASF191
C:\Users\CYMR90~1\AppData\Local\Temp\cca5ocgO.s:24722  .debug_str:00000000000169b5 .LASF192
C:\Users\CYMR90~1\AppData\Local\Temp\cca5ocgO.s:27555  .debug_str:00000000000220a4 .LASF193
C:\Users\CYMR90~1\AppData\Local\Temp\cca5ocgO.s:20486  .debug_str:0000000000005aff .LASF194
C:\Users\CYMR90~1\AppData\Local\Temp\cca5ocgO.s:19864  .debug_str:0000000000003299 .LASF195
C:\Users\CYMR90~1\AppData\Local\Temp\cca5ocgO.s:22486  .debug_str:000000000000dc26 .LASF196
C:\Users\CYMR90~1\AppData\Local\Temp\cca5ocgO.s:23406  .debug_str:00000000000114ba .LASF197
C:\Users\CYMR90~1\AppData\Local\Temp\cca5ocgO.s:20344  .debug_str:0000000000005256 .LASF198
C:\Users\CYMR90~1\AppData\Local\Temp\cca5ocgO.s:29039  .debug_str:0000000000027f72 .LASF199
C:\Users\CYMR90~1\AppData\Local\Temp\cca5ocgO.s:27213  .debug_str:0000000000020b95 .LASF200
C:\Users\CYMR90~1\AppData\Local\Temp\cca5ocgO.s:26345  .debug_str:000000000001d5b1 .LASF201
C:\Users\CYMR90~1\AppData\Local\Temp\cca5ocgO.s:21490  .debug_str:0000000000009b54 .LASF202
C:\Users\CYMR90~1\AppData\Local\Temp\cca5ocgO.s:29487  .debug_str:0000000000029c13 .LASF203
C:\Users\CYMR90~1\AppData\Local\Temp\cca5ocgO.s:21962  .debug_str:000000000000ba2c .LASF204
C:\Users\CYMR90~1\AppData\Local\Temp\cca5ocgO.s:22890  .debug_str:000000000000f54e .LASF205
C:\Users\CYMR90~1\AppData\Local\Temp\cca5ocgO.s:29223  .debug_str:0000000000028bce .LASF206
C:\Users\CYMR90~1\AppData\Local\Temp\cca5ocgO.s:24114  .debug_str:00000000000143c0 .LASF207
C:\Users\CYMR90~1\AppData\Local\Temp\cca5ocgO.s:26887  .debug_str:000000000001f7a3 .LASF208
C:\Users\CYMR90~1\AppData\Local\Temp\cca5ocgO.s:22124  .debug_str:000000000000c4ba .LASF209
C:\Users\CYMR90~1\AppData\Local\Temp\cca5ocgO.s:30143  .debug_str:000000000002c606 .LASF210
C:\Users\CYMR90~1\AppData\Local\Temp\cca5ocgO.s:24084  .debug_str:00000000000141d4 .LASF211
C:\Users\CYMR90~1\AppData\Local\Temp\cca5ocgO.s:26731  .debug_str:000000000001edd3 .LASF212
C:\Users\CYMR90~1\AppData\Local\Temp\cca5ocgO.s:25373  .debug_str:000000000001947e .LASF213
C:\Users\CYMR90~1\AppData\Local\Temp\cca5ocgO.s:20576  .debug_str:000000000000602c .LASF214
C:\Users\CYMR90~1\AppData\Local\Temp\cca5ocgO.s:24092  .debug_str:000000000001425a .LASF215
C:\Users\CYMR90~1\AppData\Local\Temp\cca5ocgO.s:26047  .debug_str:000000000001c1dc .LASF216
C:\Users\CYMR90~1\AppData\Local\Temp\cca5ocgO.s:26995  .debug_str:000000000001fdfc .LASF217
C:\Users\CYMR90~1\AppData\Local\Temp\cca5ocgO.s:22962  .debug_str:000000000000fa0a .LASF218
C:\Users\CYMR90~1\AppData\Local\Temp\cca5ocgO.s:28355  .debug_str:0000000000025377 .LASF219
C:\Users\CYMR90~1\AppData\Local\Temp\cca5ocgO.s:28167  .debug_str:0000000000024662 .LASF220
C:\Users\CYMR90~1\AppData\Local\Temp\cca5ocgO.s:27697  .debug_str:00000000000228a0 .LASF221
C:\Users\CYMR90~1\AppData\Local\Temp\cca5ocgO.s:24376  .debug_str:0000000000015469 .LASF222
C:\Users\CYMR90~1\AppData\Local\Temp\cca5ocgO.s:20546  .debug_str:0000000000005e5e .LASF223
C:\Users\CYMR90~1\AppData\Local\Temp\cca5ocgO.s:21224  .debug_str:0000000000008a97 .LASF224
C:\Users\CYMR90~1\AppData\Local\Temp\cca5ocgO.s:29807  .debug_str:000000000002aef7 .LASF225
C:\Users\CYMR90~1\AppData\Local\Temp\cca5ocgO.s:22552  .debug_str:000000000000e06e .LASF226
C:\Users\CYMR90~1\AppData\Local\Temp\cca5ocgO.s:26207  .debug_str:000000000001cc07 .LASF227
C:\Users\CYMR90~1\AppData\Local\Temp\cca5ocgO.s:26057  .debug_str:000000000001c282 .LASF228
C:\Users\CYMR90~1\AppData\Local\Temp\cca5ocgO.s:22496  .debug_str:000000000000dccc .LASF229
C:\Users\CYMR90~1\AppData\Local\Temp\cca5ocgO.s:26773  .debug_str:000000000001f06a .LASF230
C:\Users\CYMR90~1\AppData\Local\Temp\cca5ocgO.s:21276  .debug_str:0000000000008dff .LASF231
C:\Users\CYMR90~1\AppData\Local\Temp\cca5ocgO.s:20588  .debug_str:00000000000060f3 .LASF232
C:\Users\CYMR90~1\AppData\Local\Temp\cca5ocgO.s:21176  .debug_str:000000000000878e .LASF233
C:\Users\CYMR90~1\AppData\Local\Temp\cca5ocgO.s:23172  .debug_str:00000000000105bf .LASF234
C:\Users\CYMR90~1\AppData\Local\Temp\cca5ocgO.s:25707  .debug_str:000000000001abdf .LASF235
C:\Users\CYMR90~1\AppData\Local\Temp\cca5ocgO.s:27913  .debug_str:00000000000235b0 .LASF236
C:\Users\CYMR90~1\AppData\Local\Temp\cca5ocgO.s:22906  .debug_str:000000000000f637 .LASF237
C:\Users\CYMR90~1\AppData\Local\Temp\cca5ocgO.s:28565  .debug_str:0000000000026120 .LASF238
C:\Users\CYMR90~1\AppData\Local\Temp\cca5ocgO.s:27897  .debug_str:0000000000023485 .LASF239
C:\Users\CYMR90~1\AppData\Local\Temp\cca5ocgO.s:28131  .debug_str:0000000000024414 .LASF240
C:\Users\CYMR90~1\AppData\Local\Temp\cca5ocgO.s:20990  .debug_str:0000000000007aec .LASF241
C:\Users\CYMR90~1\AppData\Local\Temp\cca5ocgO.s:22574  .debug_str:000000000000e1bb .LASF242
C:\Users\CYMR90~1\AppData\Local\Temp\cca5ocgO.s:23560  .debug_str:0000000000011fa6 .LASF243
C:\Users\CYMR90~1\AppData\Local\Temp\cca5ocgO.s:27923  .debug_str:0000000000023628 .LASF244
C:\Users\CYMR90~1\AppData\Local\Temp\cca5ocgO.s:23754  .debug_str:0000000000012c3d .LASF245
C:\Users\CYMR90~1\AppData\Local\Temp\cca5ocgO.s:26783  .debug_str:000000000001f129 .LASF246
C:\Users\CYMR90~1\AppData\Local\Temp\cca5ocgO.s:25147  .debug_str:0000000000018514 .LASF247
C:\Users\CYMR90~1\AppData\Local\Temp\cca5ocgO.s:24650  .debug_str:000000000001652e .LASF248
C:\Users\CYMR90~1\AppData\Local\Temp\cca5ocgO.s:26145  .debug_str:000000000001c7a5 .LASF249
C:\Users\CYMR90~1\AppData\Local\Temp\cca5ocgO.s:25529  .debug_str:0000000000019f1d .LASF250
C:\Users\CYMR90~1\AppData\Local\Temp\cca5ocgO.s:26079  .debug_str:000000000001c3be .LASF251
C:\Users\CYMR90~1\AppData\Local\Temp\cca5ocgO.s:27745  .debug_str:0000000000022bf6 .LASF252
C:\Users\CYMR90~1\AppData\Local\Temp\cca5ocgO.s:22470  .debug_str:000000000000db64 .LASF253
C:\Users\CYMR90~1\AppData\Local\Temp\cca5ocgO.s:28425  .debug_str:00000000000258b4 .LASF254
C:\Users\CYMR90~1\AppData\Local\Temp\cca5ocgO.s:22334  .debug_str:000000000000d2f4 .LASF255
C:\Users\CYMR90~1\AppData\Local\Temp\cca5ocgO.s:25441  .debug_str:0000000000019976 .LASF256
C:\Users\CYMR90~1\AppData\Local\Temp\cca5ocgO.s:22570  .debug_str:000000000000e174 .LASF257
C:\Users\CYMR90~1\AppData\Local\Temp\cca5ocgO.s:26721  .debug_str:000000000001ed29 .LASF258
C:\Users\CYMR90~1\AppData\Local\Temp\cca5ocgO.s:21782  .debug_str:000000000000ad88 .LASF259
C:\Users\CYMR90~1\AppData\Local\Temp\cca5ocgO.s:19216  .debug_str:0000000000000a5f .LASF260
C:\Users\CYMR90~1\AppData\Local\Temp\cca5ocgO.s:27739  .debug_str:0000000000022b7c .LASF261
C:\Users\CYMR90~1\AppData\Local\Temp\cca5ocgO.s:29019  .debug_str:0000000000027dd1 .LASF262
C:\Users\CYMR90~1\AppData\Local\Temp\cca5ocgO.s:24062  .debug_str:0000000000014031 .LASF263
C:\Users\CYMR90~1\AppData\Local\Temp\cca5ocgO.s:26031  .debug_str:000000000001c0ed .LASF264
C:\Users\CYMR90~1\AppData\Local\Temp\cca5ocgO.s:21174  .debug_str:0000000000008773 .LASF265
C:\Users\CYMR90~1\AppData\Local\Temp\cca5ocgO.s:22498  .debug_str:000000000000dd0d .LASF266
C:\Users\CYMR90~1\AppData\Local\Temp\cca5ocgO.s:21834  .debug_str:000000000000b1b1 .LASF267
C:\Users\CYMR90~1\AppData\Local\Temp\cca5ocgO.s:26133  .debug_str:000000000001c6be .LASF268
C:\Users\CYMR90~1\AppData\Local\Temp\cca5ocgO.s:22148  .debug_str:000000000000c63b .LASF269
C:\Users\CYMR90~1\AppData\Local\Temp\cca5ocgO.s:23086  .debug_str:000000000001012a .LASF270
C:\Users\CYMR90~1\AppData\Local\Temp\cca5ocgO.s:23860  .debug_str:0000000000013397 .LASF271
C:\Users\CYMR90~1\AppData\Local\Temp\cca5ocgO.s:28667  .debug_str:0000000000026786 .LASF272
C:\Users\CYMR90~1\AppData\Local\Temp\cca5ocgO.s:20744  .debug_str:0000000000006a85 .LASF273
C:\Users\CYMR90~1\AppData\Local\Temp\cca5ocgO.s:19680  .debug_str:00000000000026a7 .LASF274
C:\Users\CYMR90~1\AppData\Local\Temp\cca5ocgO.s:20846  .debug_str:000000000000712b .LASF275
C:\Users\CYMR90~1\AppData\Local\Temp\cca5ocgO.s:19932  .debug_str:00000000000036d2 .LASF276
C:\Users\CYMR90~1\AppData\Local\Temp\cca5ocgO.s:22030  .debug_str:000000000000bee6 .LASF277
C:\Users\CYMR90~1\AppData\Local\Temp\cca5ocgO.s:19354  .debug_str:0000000000001304 .LASF278
C:\Users\CYMR90~1\AppData\Local\Temp\cca5ocgO.s:20670  .debug_str:00000000000065d6 .LASF279
C:\Users\CYMR90~1\AppData\Local\Temp\cca5ocgO.s:29339  .debug_str:00000000000292d5 .LASF280
C:\Users\CYMR90~1\AppData\Local\Temp\cca5ocgO.s:21538  .debug_str:0000000000009e38 .LASF281
C:\Users\CYMR90~1\AppData\Local\Temp\cca5ocgO.s:20638  .debug_str:0000000000006424 .LASF282
C:\Users\CYMR90~1\AppData\Local\Temp\cca5ocgO.s:20538  .debug_str:0000000000005df3 .LASF283
C:\Users\CYMR90~1\AppData\Local\Temp\cca5ocgO.s:20300  .debug_str:0000000000004fde .LASF284
C:\Users\CYMR90~1\AppData\Local\Temp\cca5ocgO.s:28233  .debug_str:0000000000024ae5 .LASF285
C:\Users\CYMR90~1\AppData\Local\Temp\cca5ocgO.s:29051  .debug_str:0000000000028055 .LASF286
C:\Users\CYMR90~1\AppData\Local\Temp\cca5ocgO.s:29325  .debug_str:0000000000029201 .LASF287
C:\Users\CYMR90~1\AppData\Local\Temp\cca5ocgO.s:29237  .debug_str:0000000000028c9f .LASF288
C:\Users\CYMR90~1\AppData\Local\Temp\cca5ocgO.s:30077  .debug_str:000000000002c190 .LASF289
C:\Users\CYMR90~1\AppData\Local\Temp\cca5ocgO.s:25089  .debug_str:00000000000181a3 .LASF290
C:\Users\CYMR90~1\AppData\Local\Temp\cca5ocgO.s:24118  .debug_str:00000000000143e6 .LASF291
C:\Users\CYMR90~1\AppData\Local\Temp\cca5ocgO.s:28269  .debug_str:0000000000024d50 .LASF292
C:\Users\CYMR90~1\AppData\Local\Temp\cca5ocgO.s:19958  .debug_str:00000000000038cd .LASF293
C:\Users\CYMR90~1\AppData\Local\Temp\cca5ocgO.s:29165  .debug_str:000000000002887b .LASF294
C:\Users\CYMR90~1\AppData\Local\Temp\cca5ocgO.s:20222  .debug_str:0000000000004ae5 .LASF295
C:\Users\CYMR90~1\AppData\Local\Temp\cca5ocgO.s:29665  .debug_str:000000000002a6a1 .LASF296
C:\Users\CYMR90~1\AppData\Local\Temp\cca5ocgO.s:29857  .debug_str:000000000002b272 .LASF297
C:\Users\CYMR90~1\AppData\Local\Temp\cca5ocgO.s:24963  .debug_str:0000000000017a41 .LASF298
C:\Users\CYMR90~1\AppData\Local\Temp\cca5ocgO.s:19200  .debug_str:0000000000000959 .LASF299
C:\Users\CYMR90~1\AppData\Local\Temp\cca5ocgO.s:22982  .debug_str:000000000000fb4b .LASF300
C:\Users\CYMR90~1\AppData\Local\Temp\cca5ocgO.s:25699  .debug_str:000000000001ab4c .LASF301
C:\Users\CYMR90~1\AppData\Local\Temp\cca5ocgO.s:24226  .debug_str:0000000000014a9c .LASF302
C:\Users\CYMR90~1\AppData\Local\Temp\cca5ocgO.s:23700  .debug_str:00000000000128d5 .LASF303
C:\Users\CYMR90~1\AppData\Local\Temp\cca5ocgO.s:19598  .debug_str:00000000000021d3 .LASF304
C:\Users\CYMR90~1\AppData\Local\Temp\cca5ocgO.s:22156  .debug_str:000000000000c6bf .LASF305
C:\Users\CYMR90~1\AppData\Local\Temp\cca5ocgO.s:27423  .debug_str:00000000000218c7 .LASF306
C:\Users\CYMR90~1\AppData\Local\Temp\cca5ocgO.s:22998  .debug_str:000000000000fc52 .LASF307
C:\Users\CYMR90~1\AppData\Local\Temp\cca5ocgO.s:28253  .debug_str:0000000000024c3b .LASF308
C:\Users\CYMR90~1\AppData\Local\Temp\cca5ocgO.s:27865  .debug_str:000000000002328e .LASF309
C:\Users\CYMR90~1\AppData\Local\Temp\cca5ocgO.s:22554  .debug_str:000000000000e087 .LASF310
C:\Users\CYMR90~1\AppData\Local\Temp\cca5ocgO.s:28561  .debug_str:00000000000260f5 .LASF311
C:\Users\CYMR90~1\AppData\Local\Temp\cca5ocgO.s:28085  .debug_str:00000000000240c3 .LASF312
C:\Users\CYMR90~1\AppData\Local\Temp\cca5ocgO.s:22272  .debug_str:000000000000ceec .LASF313
C:\Users\CYMR90~1\AppData\Local\Temp\cca5ocgO.s:25233  .debug_str:0000000000018a8a .LASF316
C:\Users\CYMR90~1\AppData\Local\Temp\cca5ocgO.s:25581  .debug_str:000000000001a22c .LASF317
C:\Users\CYMR90~1\AppData\Local\Temp\cca5ocgO.s:25925  .debug_str:000000000001ba3b .LASF318
C:\Users\CYMR90~1\AppData\Local\Temp\cca5ocgO.s:22988  .debug_str:000000000000fbc2 .LASF319
C:\Users\CYMR90~1\AppData\Local\Temp\cca5ocgO.s:21902  .debug_str:000000000000b622 .LASF320
C:\Users\CYMR90~1\AppData\Local\Temp\cca5ocgO.s:29287  .debug_str:0000000000028fea .LASF321
C:\Users\CYMR90~1\AppData\Local\Temp\cca5ocgO.s:22468  .debug_str:000000000000db57 .LASF322
C:\Users\CYMR90~1\AppData\Local\Temp\cca5ocgO.s:28513  .debug_str:0000000000025dec .LASF323
C:\Users\CYMR90~1\AppData\Local\Temp\cca5ocgO.s:19080  .debug_str:0000000000000229 .LASF324
C:\Users\CYMR90~1\AppData\Local\Temp\cca5ocgO.s:29687  .debug_str:000000000002a7d6 .LASF325
C:\Users\CYMR90~1\AppData\Local\Temp\cca5ocgO.s:20008  .debug_str:0000000000003be1 .LASF326
C:\Users\CYMR90~1\AppData\Local\Temp\cca5ocgO.s:24050  .debug_str:0000000000013f74 .LASF327
C:\Users\CYMR90~1\AppData\Local\Temp\cca5ocgO.s:23702  .debug_str:00000000000128ea .LASF328
C:\Users\CYMR90~1\AppData\Local\Temp\cca5ocgO.s:26575  .debug_str:000000000001e44e .LASF329
C:\Users\CYMR90~1\AppData\Local\Temp\cca5ocgO.s:26567  .debug_str:000000000001e3fd .LASF330
C:\Users\CYMR90~1\AppData\Local\Temp\cca5ocgO.s:28705  .debug_str:00000000000269c7 .LASF331
C:\Users\CYMR90~1\AppData\Local\Temp\cca5ocgO.s:29267  .debug_str:0000000000028e98 .LASF332
C:\Users\CYMR90~1\AppData\Local\Temp\cca5ocgO.s:29453  .debug_str:0000000000029a01 .LASF333
C:\Users\CYMR90~1\AppData\Local\Temp\cca5ocgO.s:25555  .debug_str:000000000001a0b1 .LASF334
C:\Users\CYMR90~1\AppData\Local\Temp\cca5ocgO.s:25011  .debug_str:0000000000017cfd .LASF335
C:\Users\CYMR90~1\AppData\Local\Temp\cca5ocgO.s:29307  .debug_str:0000000000029128 .LASF336
C:\Users\CYMR90~1\AppData\Local\Temp\cca5ocgO.s:23626  .debug_str:00000000000123f7 .LASF337
C:\Users\CYMR90~1\AppData\Local\Temp\cca5ocgO.s:27275  .debug_str:0000000000020f5c .LASF338
C:\Users\CYMR90~1\AppData\Local\Temp\cca5ocgO.s:21652  .debug_str:000000000000a58f .LASF339
C:\Users\CYMR90~1\AppData\Local\Temp\cca5ocgO.s:23842  .debug_str:0000000000013254 .LASF340
C:\Users\CYMR90~1\AppData\Local\Temp\cca5ocgO.s:25753  .debug_str:000000000001ae9d .LASF341
C:\Users\CYMR90~1\AppData\Local\Temp\cca5ocgO.s:21966  .debug_str:000000000000ba69 .LASF342
C:\Users\CYMR90~1\AppData\Local\Temp\cca5ocgO.s:19336  .debug_str:0000000000001230 .LASF343
C:\Users\CYMR90~1\AppData\Local\Temp\cca5ocgO.s:29421  .debug_str:000000000002981c .LASF344
C:\Users\CYMR90~1\AppData\Local\Temp\cca5ocgO.s:30019  .debug_str:000000000002bd7e .LASF345
C:\Users\CYMR90~1\AppData\Local\Temp\cca5ocgO.s:22876  .debug_str:000000000000f470 .LASF346
C:\Users\CYMR90~1\AppData\Local\Temp\cca5ocgO.s:19188  .debug_str:00000000000008a2 .LASF347
C:\Users\CYMR90~1\AppData\Local\Temp\cca5ocgO.s:27077  .debug_str:000000000002030a .LASF348
C:\Users\CYMR90~1\AppData\Local\Temp\cca5ocgO.s:29029  .debug_str:0000000000027ea0 .LASF349
C:\Users\CYMR90~1\AppData\Local\Temp\cca5ocgO.s:26569  .debug_str:000000000001e409 .LASF350
C:\Users\CYMR90~1\AppData\Local\Temp\cca5ocgO.s:19118  .debug_str:0000000000000496 .LASF351
C:\Users\CYMR90~1\AppData\Local\Temp\cca5ocgO.s:28651  .debug_str:00000000000266a9 .LASF352
C:\Users\CYMR90~1\AppData\Local\Temp\cca5ocgO.s:28507  .debug_str:0000000000025da8 .LASF353
C:\Users\CYMR90~1\AppData\Local\Temp\cca5ocgO.s:26193  .debug_str:000000000001cb55 .LASF354
C:\Users\CYMR90~1\AppData\Local\Temp\cca5ocgO.s:26359  .debug_str:000000000001d6a7 .LASF355
C:\Users\CYMR90~1\AppData\Local\Temp\cca5ocgO.s:28393  .debug_str:0000000000025630 .LASF356
C:\Users\CYMR90~1\AppData\Local\Temp\cca5ocgO.s:23310  .debug_str:0000000000010eeb .LASF357
C:\Users\CYMR90~1\AppData\Local\Temp\cca5ocgO.s:28941  .debug_str:00000000000278d2 .LASF358
C:\Users\CYMR90~1\AppData\Local\Temp\cca5ocgO.s:23692  .debug_str:000000000001282a .LASF359
C:\Users\CYMR90~1\AppData\Local\Temp\cca5ocgO.s:21752  .debug_str:000000000000abbd .LASF360
C:\Users\CYMR90~1\AppData\Local\Temp\cca5ocgO.s:26733  .debug_str:000000000001edeb .LASF361
C:\Users\CYMR90~1\AppData\Local\Temp\cca5ocgO.s:23428  .debug_str:000000000001163f .LASF362
C:\Users\CYMR90~1\AppData\Local\Temp\cca5ocgO.s:29203  .debug_str:0000000000028adb .LASF363
C:\Users\CYMR90~1\AppData\Local\Temp\cca5ocgO.s:21302  .debug_str:0000000000008fd4 .LASF364
C:\Users\CYMR90~1\AppData\Local\Temp\cca5ocgO.s:29101  .debug_str:0000000000028407 .LASF365
C:\Users\CYMR90~1\AppData\Local\Temp\cca5ocgO.s:20704  .debug_str:0000000000006856 .LASF366
C:\Users\CYMR90~1\AppData\Local\Temp\cca5ocgO.s:23832  .debug_str:0000000000013190 .LASF367
C:\Users\CYMR90~1\AppData\Local\Temp\cca5ocgO.s:20998  .debug_str:0000000000007b6a .LASF368
C:\Users\CYMR90~1\AppData\Local\Temp\cca5ocgO.s:25055  .debug_str:0000000000017faa .LASF372
C:\Users\CYMR90~1\AppData\Local\Temp\cca5ocgO.s:28745  .debug_str:0000000000026c40 .LASF373
C:\Users\CYMR90~1\AppData\Local\Temp\cca5ocgO.s:21730  .debug_str:000000000000aa5c .LASF374
C:\Users\CYMR90~1\AppData\Local\Temp\cca5ocgO.s:24837  .debug_str:000000000001726a .LASF375
C:\Users\CYMR90~1\AppData\Local\Temp\cca5ocgO.s:25043  .debug_str:0000000000017efa .LASF376
C:\Users\CYMR90~1\AppData\Local\Temp\cca5ocgO.s:27521  .debug_str:0000000000021ec8 .LASF377
C:\Users\CYMR90~1\AppData\Local\Temp\cca5ocgO.s:26209  .debug_str:000000000001cc20 .LASF378
C:\Users\CYMR90~1\AppData\Local\Temp\cca5ocgO.s:29849  .debug_str:000000000002b1ff .LASF379
C:\Users\CYMR90~1\AppData\Local\Temp\cca5ocgO.s:26653  .debug_str:000000000001e959 .LASF380
C:\Users\CYMR90~1\AppData\Local\Temp\cca5ocgO.s:29789  .debug_str:000000000002ae0b .LASF381
C:\Users\CYMR90~1\AppData\Local\Temp\cca5ocgO.s:25933  .debug_str:000000000001ba9f .LASF382
C:\Users\CYMR90~1\AppData\Local\Temp\cca5ocgO.s:20760  .debug_str:0000000000006b92 .LASF383
C:\Users\CYMR90~1\AppData\Local\Temp\cca5ocgO.s:22126  .debug_str:000000000000c4d5 .LASF384
C:\Users\CYMR90~1\AppData\Local\Temp\cca5ocgO.s:25457  .debug_str:0000000000019ac0 .LASF385
C:\Users\CYMR90~1\AppData\Local\Temp\cca5ocgO.s:23122  .debug_str:00000000000102de .LASF386
C:\Users\CYMR90~1\AppData\Local\Temp\cca5ocgO.s:19626  .debug_str:0000000000002396 .LASF387
C:\Users\CYMR90~1\AppData\Local\Temp\cca5ocgO.s:22716  .debug_str:000000000000eac2 .LASF388
C:\Users\CYMR90~1\AppData\Local\Temp\cca5ocgO.s:21274  .debug_str:0000000000008deb .LASF389
C:\Users\CYMR90~1\AppData\Local\Temp\cca5ocgO.s:20096  .debug_str:0000000000004235 .LASF391
C:\Users\CYMR90~1\AppData\Local\Temp\cca5ocgO.s:23130  .debug_str:000000000001034a .LASF392
C:\Users\CYMR90~1\AppData\Local\Temp\cca5ocgO.s:27175  .debug_str:000000000002093e .LASF393
C:\Users\CYMR90~1\AppData\Local\Temp\cca5ocgO.s:28895  .debug_str:00000000000275e2 .LASF394
C:\Users\CYMR90~1\AppData\Local\Temp\cca5ocgO.s:19654  .debug_str:000000000000251a .LASF395
C:\Users\CYMR90~1\AppData\Local\Temp\cca5ocgO.s:21776  .debug_str:000000000000ad24 .LASF396
C:\Users\CYMR90~1\AppData\Local\Temp\cca5ocgO.s:25561  .debug_str:000000000001a111 .LASF397
C:\Users\CYMR90~1\AppData\Local\Temp\cca5ocgO.s:29663  .debug_str:000000000002a68f .LASF398
C:\Users\CYMR90~1\AppData\Local\Temp\cca5ocgO.s:24402  .debug_str:00000000000155e3 .LASF399
C:\Users\CYMR90~1\AppData\Local\Temp\cca5ocgO.s:26813  .debug_str:000000000001f2fb .LASF400
C:\Users\CYMR90~1\AppData\Local\Temp\cca5ocgO.s:21264  .debug_str:0000000000008cf6 .LASF401
C:\Users\CYMR90~1\AppData\Local\Temp\cca5ocgO.s:24893  .debug_str:000000000001759f .LASF402
C:\Users\CYMR90~1\AppData\Local\Temp\cca5ocgO.s:20604  .debug_str:00000000000061f4 .LASF403
C:\Users\CYMR90~1\AppData\Local\Temp\cca5ocgO.s:21708  .debug_str:000000000000a8db .LASF404
C:\Users\CYMR90~1\AppData\Local\Temp\cca5ocgO.s:22770  .debug_str:000000000000ee08 .LASF405
C:\Users\CYMR90~1\AppData\Local\Temp\cca5ocgO.s:26117  .debug_str:000000000001c5de .LASF406
C:\Users\CYMR90~1\AppData\Local\Temp\cca5ocgO.s:24322  .debug_str:0000000000015116 .LASF407
C:\Users\CYMR90~1\AppData\Local\Temp\cca5ocgO.s:25307  .debug_str:0000000000018fa8 .LASF408
C:\Users\CYMR90~1\AppData\Local\Temp\cca5ocgO.s:27465  .debug_str:0000000000021b4b .LASF409
C:\Users\CYMR90~1\AppData\Local\Temp\cca5ocgO.s:20558  .debug_str:0000000000005f19 .LASF410
C:\Users\CYMR90~1\AppData\Local\Temp\cca5ocgO.s:24510  .debug_str:0000000000015c21 .LASF411
C:\Users\CYMR90~1\AppData\Local\Temp\cca5ocgO.s:27587  .debug_str:0000000000022294 .LASF412
C:\Users\CYMR90~1\AppData\Local\Temp\cca5ocgO.s:20736  .debug_str:0000000000006a2c .LASF413
C:\Users\CYMR90~1\AppData\Local\Temp\cca5ocgO.s:29301  .debug_str:00000000000290c1 .LASF414
C:\Users\CYMR90~1\AppData\Local\Temp\cca5ocgO.s:22878  .debug_str:000000000000f47e .LASF415
C:\Users\CYMR90~1\AppData\Local\Temp\cca5ocgO.s:28621  .debug_str:00000000000264a0 .LASF416
C:\Users\CYMR90~1\AppData\Local\Temp\cca5ocgO.s:30141  .debug_str:000000000002c5fb .LASF417
C:\Users\CYMR90~1\AppData\Local\Temp\cca5ocgO.s:21194  .debug_str:00000000000088b0 .LASF418
C:\Users\CYMR90~1\AppData\Local\Temp\cca5ocgO.s:29511  .debug_str:0000000000029d76 .LASF419
C:\Users\CYMR90~1\AppData\Local\Temp\cca5ocgO.s:20812  .debug_str:0000000000006eff .LASF420
C:\Users\CYMR90~1\AppData\Local\Temp\cca5ocgO.s:29707  .debug_str:000000000002a8f1 .LASF421
C:\Users\CYMR90~1\AppData\Local\Temp\cca5ocgO.s:22044  .debug_str:000000000000bfda .LASF422
C:\Users\CYMR90~1\AppData\Local\Temp\cca5ocgO.s:22250  .debug_str:000000000000cdc8 .LASF423
C:\Users\CYMR90~1\AppData\Local\Temp\cca5ocgO.s:26715  .debug_str:000000000001ecea .LASF424
C:\Users\CYMR90~1\AppData\Local\Temp\cca5ocgO.s:25343  .debug_str:00000000000192c5 .LASF425
C:\Users\CYMR90~1\AppData\Local\Temp\cca5ocgO.s:19090  .debug_str:00000000000002d7 .LASF426
C:\Users\CYMR90~1\AppData\Local\Temp\cca5ocgO.s:29211  .debug_str:0000000000028b3f .LASF427
C:\Users\CYMR90~1\AppData\Local\Temp\cca5ocgO.s:24592  .debug_str:00000000000161da .LASF428
C:\Users\CYMR90~1\AppData\Local\Temp\cca5ocgO.s:26495  .debug_str:000000000001dfcd .LASF429
C:\Users\CYMR90~1\AppData\Local\Temp\cca5ocgO.s:23064  .debug_str:000000000000ffb0 .LASF430
C:\Users\CYMR90~1\AppData\Local\Temp\cca5ocgO.s:24789  .debug_str:0000000000016f87 .LASF431
C:\Users\CYMR90~1\AppData\Local\Temp\cca5ocgO.s:27543  .debug_str:0000000000021ff6 .LASF432
C:\Users\CYMR90~1\AppData\Local\Temp\cca5ocgO.s:22236  .debug_str:000000000000cd13 .LASF434
C:\Users\CYMR90~1\AppData\Local\Temp\cca5ocgO.s:20272  .debug_str:0000000000004e1c .LASF435
C:\Users\CYMR90~1\AppData\Local\Temp\cca5ocgO.s:24981  .debug_str:0000000000017b53 .LASF436
C:\Users\CYMR90~1\AppData\Local\Temp\cca5ocgO.s:20832  .debug_str:000000000000703b .LASF437
C:\Users\CYMR90~1\AppData\Local\Temp\cca5ocgO.s:29227  .debug_str:0000000000028c0a .LASF438
C:\Users\CYMR90~1\AppData\Local\Temp\cca5ocgO.s:19056  .debug_str:00000000000000c7 .LASF439
C:\Users\CYMR90~1\AppData\Local\Temp\cca5ocgO.s:26751  .debug_str:000000000001ef18 .LASF440
C:\Users\CYMR90~1\AppData\Local\Temp\cca5ocgO.s:22476  .debug_str:000000000000dbbc .LASF441
C:\Users\CYMR90~1\AppData\Local\Temp\cca5ocgO.s:27773  .debug_str:0000000000022d84 .LASF442
C:\Users\CYMR90~1\AppData\Local\Temp\cca5ocgO.s:23362  .debug_str:0000000000011202 .LASF443
C:\Users\CYMR90~1\AppData\Local\Temp\cca5ocgO.s:23204  .debug_str:0000000000010845 .LASF444
C:\Users\CYMR90~1\AppData\Local\Temp\cca5ocgO.s:30135  .debug_str:000000000002c5af .LASF445
C:\Users\CYMR90~1\AppData\Local\Temp\cca5ocgO.s:30075  .debug_str:000000000002c18a .LASF446
C:\Users\CYMR90~1\AppData\Local\Temp\cca5ocgO.s:23546  .debug_str:0000000000011e93 .LASF447
C:\Users\CYMR90~1\AppData\Local\Temp\cca5ocgO.s:27747  .debug_str:0000000000022c08 .LASF448
C:\Users\CYMR90~1\AppData\Local\Temp\cca5ocgO.s:20108  .debug_str:00000000000042ed .LASF449
C:\Users\CYMR90~1\AppData\Local\Temp\cca5ocgO.s:20854  .debug_str:00000000000071b9 .LASF450
C:\Users\CYMR90~1\AppData\Local\Temp\cca5ocgO.s:19580  .debug_str:00000000000020f7 .LASF451
C:\Users\CYMR90~1\AppData\Local\Temp\cca5ocgO.s:24234  .debug_str:0000000000014b3e .LASF452
C:\Users\CYMR90~1\AppData\Local\Temp\cca5ocgO.s:19570  .debug_str:0000000000002084 .LASF453
C:\Users\CYMR90~1\AppData\Local\Temp\cca5ocgO.s:30081  .debug_str:000000000002c1d0 .LASF454
C:\Users\CYMR90~1\AppData\Local\Temp\cca5ocgO.s:22642  .debug_str:000000000000e5d6 .LASF455
C:\Users\CYMR90~1\AppData\Local\Temp\cca5ocgO.s:27369  .debug_str:0000000000021570 .LASF456
C:\Users\CYMR90~1\AppData\Local\Temp\cca5ocgO.s:22330  .debug_str:000000000000d2d2 .LASF457
C:\Users\CYMR90~1\AppData\Local\Temp\cca5ocgO.s:20616  .debug_str:00000000000062b7 .LASF458
C:\Users\CYMR90~1\AppData\Local\Temp\cca5ocgO.s:23268  .debug_str:0000000000010ccb .LASF459
C:\Users\CYMR90~1\AppData\Local\Temp\cca5ocgO.s:27127  .debug_str:0000000000020669 .LASF460
C:\Users\CYMR90~1\AppData\Local\Temp\cca5ocgO.s:28257  .debug_str:0000000000024c71 .LASF461
C:\Users\CYMR90~1\AppData\Local\Temp\cca5ocgO.s:24752  .debug_str:0000000000016b69 .LASF462
C:\Users\CYMR90~1\AppData\Local\Temp\cca5ocgO.s:25611  .debug_str:000000000001a588 .LASF463
C:\Users\CYMR90~1\AppData\Local\Temp\cca5ocgO.s:24334  .debug_str:00000000000151e1 .LASF464
C:\Users\CYMR90~1\AppData\Local\Temp\cca5ocgO.s:23638  .debug_str:00000000000124a8 .LASF465
C:\Users\CYMR90~1\AppData\Local\Temp\cca5ocgO.s:20754  .debug_str:0000000000006b4c .LASF466
C:\Users\CYMR90~1\AppData\Local\Temp\cca5ocgO.s:21320  .debug_str:00000000000090b7 .LASF467
C:\Users\CYMR90~1\AppData\Local\Temp\cca5ocgO.s:23404  .debug_str:00000000000114a3 .LASF468
C:\Users\CYMR90~1\AppData\Local\Temp\cca5ocgO.s:19908  .debug_str:000000000000358c .LASF469
C:\Users\CYMR90~1\AppData\Local\Temp\cca5ocgO.s:23164  .debug_str:000000000001053a .LASF470
C:\Users\CYMR90~1\AppData\Local\Temp\cca5ocgO.s:23038  .debug_str:000000000000fdff .LASF471
C:\Users\CYMR90~1\AppData\Local\Temp\cca5ocgO.s:22616  .debug_str:000000000000e44a .LASF472
C:\Users\CYMR90~1\AppData\Local\Temp\cca5ocgO.s:19274  .debug_str:0000000000000e1e .LASF473
C:\Users\CYMR90~1\AppData\Local\Temp\cca5ocgO.s:20880  .debug_str:00000000000073cc .LASF474
C:\Users\CYMR90~1\AppData\Local\Temp\cca5ocgO.s:19218  .debug_str:0000000000000a9d .LASF475
C:\Users\CYMR90~1\AppData\Local\Temp\cca5ocgO.s:20074  .debug_str:000000000000404b .LASF476
C:\Users\CYMR90~1\AppData\Local\Temp\cca5ocgO.s:19446  .debug_str:0000000000001938 .LASF477
C:\Users\CYMR90~1\AppData\Local\Temp\cca5ocgO.s:24536  .debug_str:0000000000015df8 .LASF478
C:\Users\CYMR90~1\AppData\Local\Temp\cca5ocgO.s:21920  .debug_str:000000000000b786 .LASF479
C:\Users\CYMR90~1\AppData\Local\Temp\cca5ocgO.s:29703  .debug_str:000000000002a8c0 .LASF480
C:\Users\CYMR90~1\AppData\Local\Temp\cca5ocgO.s:25141  .debug_str:00000000000184ba .LASF481
C:\Users\CYMR90~1\AppData\Local\Temp\cca5ocgO.s:21844  .debug_str:000000000000b246 .LASF482
C:\Users\CYMR90~1\AppData\Local\Temp\cca5ocgO.s:20658  .debug_str:0000000000006543 .LASF483
C:\Users\CYMR90~1\AppData\Local\Temp\cca5ocgO.s:19184  .debug_str:000000000000085b .LASF484
C:\Users\CYMR90~1\AppData\Local\Temp\cca5ocgO.s:25087  .debug_str:0000000000018180 .LASF485
C:\Users\CYMR90~1\AppData\Local\Temp\cca5ocgO.s:20286  .debug_str:0000000000004efb .LASF486
C:\Users\CYMR90~1\AppData\Local\Temp\cca5ocgO.s:23994  .debug_str:0000000000013c25 .LASF487
C:\Users\CYMR90~1\AppData\Local\Temp\cca5ocgO.s:23190  .debug_str:0000000000010788 .LASF488
C:\Users\CYMR90~1\AppData\Local\Temp\cca5ocgO.s:23758  .debug_str:0000000000012c9f .LASF489
C:\Users\CYMR90~1\AppData\Local\Temp\cca5ocgO.s:22212  .debug_str:000000000000cb99 .LASF490
C:\Users\CYMR90~1\AppData\Local\Temp\cca5ocgO.s:21192  .debug_str:00000000000088a2 .LASF491
C:\Users\CYMR90~1\AppData\Local\Temp\cca5ocgO.s:22834  .debug_str:000000000000f1da .LASF492
C:\Users\CYMR90~1\AppData\Local\Temp\cca5ocgO.s:21200  .debug_str:0000000000008927 .LASF493
C:\Users\CYMR90~1\AppData\Local\Temp\cca5ocgO.s:23044  .debug_str:000000000000fe73 .LASF494
C:\Users\CYMR90~1\AppData\Local\Temp\cca5ocgO.s:25335  .debug_str:0000000000019250 .LASF495
C:\Users\CYMR90~1\AppData\Local\Temp\cca5ocgO.s:30157  .debug_str:000000000002c6d6 .LASF496
C:\Users\CYMR90~1\AppData\Local\Temp\cca5ocgO.s:22070  .debug_str:000000000000c17e .LASF497
C:\Users\CYMR90~1\AppData\Local\Temp\cca5ocgO.s:22882  .debug_str:000000000000f4c5 .LASF498
C:\Users\CYMR90~1\AppData\Local\Temp\cca5ocgO.s:29545  .debug_str:0000000000029f63 .LASF499
C:\Users\CYMR90~1\AppData\Local\Temp\cca5ocgO.s:29425  .debug_str:000000000002983f .LASF500
C:\Users\CYMR90~1\AppData\Local\Temp\cca5ocgO.s:24194  .debug_str:00000000000148c3 .LASF501
C:\Users\CYMR90~1\AppData\Local\Temp\cca5ocgO.s:29375  .debug_str:000000000002954c .LASF502
C:\Users\CYMR90~1\AppData\Local\Temp\cca5ocgO.s:24146  .debug_str:0000000000014566 .LASF503
C:\Users\CYMR90~1\AppData\Local\Temp\cca5ocgO.s:19778  .debug_str:0000000000002d1b .LASF504
C:\Users\CYMR90~1\AppData\Local\Temp\cca5ocgO.s:28023  .debug_str:0000000000023c07 .LASF505
C:\Users\CYMR90~1\AppData\Local\Temp\cca5ocgO.s:28891  .debug_str:00000000000275a7 .LASF506
C:\Users\CYMR90~1\AppData\Local\Temp\cca5ocgO.s:23176  .debug_str:00000000000105f3 .LASF507
C:\Users\CYMR90~1\AppData\Local\Temp\cca5ocgO.s:25255  .debug_str:0000000000018bec .LASF508
C:\Users\CYMR90~1\AppData\Local\Temp\cca5ocgO.s:27453  .debug_str:0000000000021a2d .LASF509
C:\Users\CYMR90~1\AppData\Local\Temp\cca5ocgO.s:29121  .debug_str:000000000002856f .LASF510
C:\Users\CYMR90~1\AppData\Local\Temp\cca5ocgO.s:25029  .debug_str:0000000000017def .LASF511
C:\Users\CYMR90~1\AppData\Local\Temp\cca5ocgO.s:28733  .debug_str:0000000000026b4b .LASF512
C:\Users\CYMR90~1\AppData\Local\Temp\cca5ocgO.s:28863  .debug_str:0000000000027415 .LASF513
C:\Users\CYMR90~1\AppData\Local\Temp\cca5ocgO.s:29305  .debug_str:00000000000290ed .LASF514
C:\Users\CYMR90~1\AppData\Local\Temp\cca5ocgO.s:23924  .debug_str:00000000000137f3 .LASF515
C:\Users\CYMR90~1\AppData\Local\Temp\cca5ocgO.s:29179  .debug_str:0000000000028971 .LASF516
C:\Users\CYMR90~1\AppData\Local\Temp\cca5ocgO.s:25399  .debug_str:0000000000019623 .LASF517
C:\Users\CYMR90~1\AppData\Local\Temp\cca5ocgO.s:29129  .debug_str:0000000000028623 .LASF518
C:\Users\CYMR90~1\AppData\Local\Temp\cca5ocgO.s:26039  .debug_str:000000000001c157 .LASF519
C:\Users\CYMR90~1\AppData\Local\Temp\cca5ocgO.s:30069  .debug_str:000000000002c128 .LASF520
C:\Users\CYMR90~1\AppData\Local\Temp\cca5ocgO.s:26303  .debug_str:000000000001d344 .LASF521
C:\Users\CYMR90~1\AppData\Local\Temp\cca5ocgO.s:28375  .debug_str:00000000000254c9 .LASF522
C:\Users\CYMR90~1\AppData\Local\Temp\cca5ocgO.s:23804  .debug_str:0000000000012fa8 .LASF523
C:\Users\CYMR90~1\AppData\Local\Temp\cca5ocgO.s:27935  .debug_str:000000000002371e .LASF524
C:\Users\CYMR90~1\AppData\Local\Temp\cca5ocgO.s:21402  .debug_str:000000000000955b .LASF525
C:\Users\CYMR90~1\AppData\Local\Temp\cca5ocgO.s:30089  .debug_str:000000000002c23e .LASF526
C:\Users\CYMR90~1\AppData\Local\Temp\cca5ocgO.s:22650  .debug_str:000000000000e654 .LASF527
C:\Users\CYMR90~1\AppData\Local\Temp\cca5ocgO.s:23662  .debug_str:0000000000012630 .LASF528
C:\Users\CYMR90~1\AppData\Local\Temp\cca5ocgO.s:24514  .debug_str:0000000000015c50 .LASF529
C:\Users\CYMR90~1\AppData\Local\Temp\cca5ocgO.s:24548  .debug_str:0000000000015ea5 .LASF530
C:\Users\CYMR90~1\AppData\Local\Temp\cca5ocgO.s:23586  .debug_str:000000000001217f .LASF531
C:\Users\CYMR90~1\AppData\Local\Temp\cca5ocgO.s:19838  .debug_str:00000000000030c1 .LASF532
C:\Users\CYMR90~1\AppData\Local\Temp\cca5ocgO.s:22336  .debug_str:000000000000d30c .LASF533
C:\Users\CYMR90~1\AppData\Local\Temp\cca5ocgO.s:29929  .debug_str:000000000002b72e .LASF534
C:\Users\CYMR90~1\AppData\Local\Temp\cca5ocgO.s:22832  .debug_str:000000000000f18e .LASF535
C:\Users\CYMR90~1\AppData\Local\Temp\cca5ocgO.s:28119  .debug_str:0000000000024327 .LASF536
C:\Users\CYMR90~1\AppData\Local\Temp\cca5ocgO.s:29579  .debug_str:000000000002a131 .LASF537
C:\Users\CYMR90~1\AppData\Local\Temp\cca5ocgO.s:23418  .debug_str:0000000000011586 .LASF538
C:\Users\CYMR90~1\AppData\Local\Temp\cca5ocgO.s:23998  .debug_str:0000000000013c54 .LASF539
C:\Users\CYMR90~1\AppData\Local\Temp\cca5ocgO.s:26097  .debug_str:000000000001c4cc .LASF540
C:\Users\CYMR90~1\AppData\Local\Temp\cca5ocgO.s:22428  .debug_str:000000000000d917 .LASF541
C:\Users\CYMR90~1\AppData\Local\Temp\cca5ocgO.s:26391  .debug_str:000000000001d8ba .LASF542
C:\Users\CYMR90~1\AppData\Local\Temp\cca5ocgO.s:20180  .debug_str:000000000000479e .LASF543
C:\Users\CYMR90~1\AppData\Local\Temp\cca5ocgO.s:22582  .debug_str:000000000000e223 .LASF544
C:\Users\CYMR90~1\AppData\Local\Temp\cca5ocgO.s:29363  .debug_str:0000000000029471 .LASF545
C:\Users\CYMR90~1\AppData\Local\Temp\cca5ocgO.s:23934  .debug_str:0000000000013882 .LASF546
C:\Users\CYMR90~1\AppData\Local\Temp\cca5ocgO.s:27639  .debug_str:0000000000022540 .LASF547
C:\Users\CYMR90~1\AppData\Local\Temp\cca5ocgO.s:29845  .debug_str:000000000002b1be .LASF548
C:\Users\CYMR90~1\AppData\Local\Temp\cca5ocgO.s:19882  .debug_str:00000000000033c8 .LASF549
C:\Users\CYMR90~1\AppData\Local\Temp\cca5ocgO.s:21026  .debug_str:0000000000007cf7 .LASF550
C:\Users\CYMR90~1\AppData\Local\Temp\cca5ocgO.s:28629  .debug_str:0000000000026503 .LASF551
C:\Users\CYMR90~1\AppData\Local\Temp\cca5ocgO.s:20584  .debug_str:00000000000060b8 .LASF552
C:\Users\CYMR90~1\AppData\Local\Temp\cca5ocgO.s:29597  .debug_str:000000000002a22d .LASF553
C:\Users\CYMR90~1\AppData\Local\Temp\cca5ocgO.s:21994  .debug_str:000000000000bc31 .LASF554
C:\Users\CYMR90~1\AppData\Local\Temp\cca5ocgO.s:22188  .debug_str:000000000000c91d .LASF555
C:\Users\CYMR90~1\AppData\Local\Temp\cca5ocgO.s:20702  .debug_str:0000000000006803 .LASF556
C:\Users\CYMR90~1\AppData\Local\Temp\cca5ocgO.s:20414  .debug_str:000000000000566b .LASF557
C:\Users\CYMR90~1\AppData\Local\Temp\cca5ocgO.s:23530  .debug_str:0000000000011dad .LASF558
C:\Users\CYMR90~1\AppData\Local\Temp\cca5ocgO.s:25283  .debug_str:0000000000018e42 .LASF559
C:\Users\CYMR90~1\AppData\Local\Temp\cca5ocgO.s:29169  .debug_str:00000000000288c9 .LASF560
C:\Users\CYMR90~1\AppData\Local\Temp\cca5ocgO.s:21990  .debug_str:000000000000bbcd .LASF561
C:\Users\CYMR90~1\AppData\Local\Temp\cca5ocgO.s:22986  .debug_str:000000000000fb77 .LASF562
C:\Users\CYMR90~1\AppData\Local\Temp\cca5ocgO.s:25443  .debug_str:0000000000019990 .LASF563
C:\Users\CYMR90~1\AppData\Local\Temp\cca5ocgO.s:21690  .debug_str:000000000000a7ad .LASF564
C:\Users\CYMR90~1\AppData\Local\Temp\cca5ocgO.s:27395  .debug_str:00000000000216e6 .LASF565
C:\Users\CYMR90~1\AppData\Local\Temp\cca5ocgO.s:26633  .debug_str:000000000001e7cd .LASF566
C:\Users\CYMR90~1\AppData\Local\Temp\cca5ocgO.s:23526  .debug_str:0000000000011d65 .LASF567
C:\Users\CYMR90~1\AppData\Local\Temp\cca5ocgO.s:28465  .debug_str:0000000000025b09 .LASF568
C:\Users\CYMR90~1\AppData\Local\Temp\cca5ocgO.s:19244  .debug_str:0000000000000c63 .LASF570
C:\Users\CYMR90~1\AppData\Local\Temp\cca5ocgO.s:24909  .debug_str:0000000000017690 .LASF571
C:\Users\CYMR90~1\AppData\Local\Temp\cca5ocgO.s:26035  .debug_str:000000000001c131 .LASF574
C:\Users\CYMR90~1\AppData\Local\Temp\cca5ocgO.s:20152  .debug_str:00000000000045d9 .LASF575
C:\Users\CYMR90~1\AppData\Local\Temp\cca5ocgO.s:24152  .debug_str:00000000000145f0 .LASF576
C:\Users\CYMR90~1\AppData\Local\Temp\cca5ocgO.s:21122  .debug_str:0000000000008497 .LASF577
C:\Users\CYMR90~1\AppData\Local\Temp\cca5ocgO.s:27297  .debug_str:000000000002108d .LASF579
C:\Users\CYMR90~1\AppData\Local\Temp\cca5ocgO.s:26511  .debug_str:000000000001e0b4 .LASF580
C:\Users\CYMR90~1\AppData\Local\Temp\cca5ocgO.s:28021  .debug_str:0000000000023bfe .LASF581
C:\Users\CYMR90~1\AppData\Local\Temp\cca5ocgO.s:20542  .debug_str:0000000000005e23 .LASF582
C:\Users\CYMR90~1\AppData\Local\Temp\cca5ocgO.s:23148  .debug_str:0000000000010446 .LASF583
C:\Users\CYMR90~1\AppData\Local\Temp\cca5ocgO.s:19736  .debug_str:0000000000002aa6 .LASF584
C:\Users\CYMR90~1\AppData\Local\Temp\cca5ocgO.s:29459  .debug_str:0000000000029a60 .LASF585
C:\Users\CYMR90~1\AppData\Local\Temp\cca5ocgO.s:27687  .debug_str:0000000000022821 .LASF586
C:\Users\CYMR90~1\AppData\Local\Temp\cca5ocgO.s:25921  .debug_str:000000000001ba19 .LASF587
C:\Users\CYMR90~1\AppData\Local\Temp\cca5ocgO.s:21688  .debug_str:000000000000a79d .LASF588
C:\Users\CYMR90~1\AppData\Local\Temp\cca5ocgO.s:25193  .debug_str:00000000000187cc .LASF589
C:\Users\CYMR90~1\AppData\Local\Temp\cca5ocgO.s:25557  .debug_str:000000000001a0ba .LASF590
C:\Users\CYMR90~1\AppData\Local\Temp\cca5ocgO.s:26383  .debug_str:000000000001d84e .LASF591
C:\Users\CYMR90~1\AppData\Local\Temp\cca5ocgO.s:26173  .debug_str:000000000001ca0f .LASF592
C:\Users\CYMR90~1\AppData\Local\Temp\cca5ocgO.s:28011  .debug_str:0000000000023b76 .LASF593
C:\Users\CYMR90~1\AppData\Local\Temp\cca5ocgO.s:27657  .debug_str:0000000000022665 .LASF594
C:\Users\CYMR90~1\AppData\Local\Temp\cca5ocgO.s:23992  .debug_str:0000000000013c05 .LASF595
C:\Users\CYMR90~1\AppData\Local\Temp\cca5ocgO.s:23716  .debug_str:00000000000129d6 .LASF596
C:\Users\CYMR90~1\AppData\Local\Temp\cca5ocgO.s:20882  .debug_str:00000000000073eb .LASF597
C:\Users\CYMR90~1\AppData\Local\Temp\cca5ocgO.s:28987  .debug_str:0000000000027bfc .LASF598
C:\Users\CYMR90~1\AppData\Local\Temp\cca5ocgO.s:23882  .debug_str:000000000001353e .LASF599
C:\Users\CYMR90~1\AppData\Local\Temp\cca5ocgO.s:26833  .debug_str:000000000001f42c .LASF600
C:\Users\CYMR90~1\AppData\Local\Temp\cca5ocgO.s:26105  .debug_str:000000000001c538 .LASF601
C:\Users\CYMR90~1\AppData\Local\Temp\cca5ocgO.s:28471  .debug_str:0000000000025b67 .LASF602
C:\Users\CYMR90~1\AppData\Local\Temp\cca5ocgO.s:29185  .debug_str:00000000000289d3 .LASF603
C:\Users\CYMR90~1\AppData\Local\Temp\cca5ocgO.s:29077  .debug_str:000000000002828c .LASF604
C:\Users\CYMR90~1\AppData\Local\Temp\cca5ocgO.s:23830  .debug_str:0000000000013178 .LASF605
C:\Users\CYMR90~1\AppData\Local\Temp\cca5ocgO.s:24847  .debug_str:00000000000172fc .LASF606
C:\Users\CYMR90~1\AppData\Local\Temp\cca5ocgO.s:21470  .debug_str:0000000000009a1f .LASF607
C:\Users\CYMR90~1\AppData\Local\Temp\cca5ocgO.s:20982  .debug_str:0000000000007a2a .LASF608
C:\Users\CYMR90~1\AppData\Local\Temp\cca5ocgO.s:21754  .debug_str:000000000000abcb .LASF609
C:\Users\CYMR90~1\AppData\Local\Temp\cca5ocgO.s:25957  .debug_str:000000000001bbf1 .LASF610
C:\Users\CYMR90~1\AppData\Local\Temp\cca5ocgO.s:20506  .debug_str:0000000000005c2a .LASF611
C:\Users\CYMR90~1\AppData\Local\Temp\cca5ocgO.s:27611  .debug_str:00000000000223dd .LASF612
C:\Users\CYMR90~1\AppData\Local\Temp\cca5ocgO.s:24384  .debug_str:00000000000154c2 .LASF613
C:\Users\CYMR90~1\AppData\Local\Temp\cca5ocgO.s:21046  .debug_str:0000000000007ef1 .LASF614
C:\Users\CYMR90~1\AppData\Local\Temp\cca5ocgO.s:19142  .debug_str:00000000000005b3 .LASF615
C:\Users\CYMR90~1\AppData\Local\Temp\cca5ocgO.s:24620  .debug_str:000000000001635f .LASF616
C:\Users\CYMR90~1\AppData\Local\Temp\cca5ocgO.s:25593  .debug_str:000000000001a2e8 .LASF617
C:\Users\CYMR90~1\AppData\Local\Temp\cca5ocgO.s:24754  .debug_str:0000000000016b78 .LASF618
C:\Users\CYMR90~1\AppData\Local\Temp\cca5ocgO.s:27695  .debug_str:0000000000022886 .LASF619
C:\Users\CYMR90~1\AppData\Local\Temp\cca5ocgO.s:22008  .debug_str:000000000000bd74 .LASF620
C:\Users\CYMR90~1\AppData\Local\Temp\cca5ocgO.s:20788  .debug_str:0000000000006d70 .LASF621
C:\Users\CYMR90~1\AppData\Local\Temp\cca5ocgO.s:27885  .debug_str:00000000000233b2 .LASF622
C:\Users\CYMR90~1\AppData\Local\Temp\cca5ocgO.s:27007  .debug_str:000000000001ff0d .LASF623
C:\Users\CYMR90~1\AppData\Local\Temp\cca5ocgO.s:28949  .debug_str:0000000000027947 .LASF624
C:\Users\CYMR90~1\AppData\Local\Temp\cca5ocgO.s:29553  .debug_str:0000000000029fcc .LASF625
C:\Users\CYMR90~1\AppData\Local\Temp\cca5ocgO.s:24058  .debug_str:0000000000013fd0 .LASF626
C:\Users\CYMR90~1\AppData\Local\Temp\cca5ocgO.s:29809  .debug_str:000000000002af0e .LASF627
C:\Users\CYMR90~1\AppData\Local\Temp\cca5ocgO.s:24472  .debug_str:00000000000159c9 .LASF628
C:\Users\CYMR90~1\AppData\Local\Temp\cca5ocgO.s:29293  .debug_str:0000000000029022 .LASF629
C:\Users\CYMR90~1\AppData\Local\Temp\cca5ocgO.s:23098  .debug_str:00000000000101de .LASF630
C:\Users\CYMR90~1\AppData\Local\Temp\cca5ocgO.s:22414  .debug_str:000000000000d848 .LASF631
C:\Users\CYMR90~1\AppData\Local\Temp\cca5ocgO.s:27601  .debug_str:000000000002233d .LASF632
C:\Users\CYMR90~1\AppData\Local\Temp\cca5ocgO.s:22132  .debug_str:000000000000c52a .LASF633
C:\Users\CYMR90~1\AppData\Local\Temp\cca5ocgO.s:19234  .debug_str:0000000000000bd0 .LASF634
C:\Users\CYMR90~1\AppData\Local\Temp\cca5ocgO.s:25503  .debug_str:0000000000019d98 .LASF635
C:\Users\CYMR90~1\AppData\Local\Temp\cca5ocgO.s:24678  .debug_str:000000000001669c .LASF636
C:\Users\CYMR90~1\AppData\Local\Temp\cca5ocgO.s:26273  .debug_str:000000000001d178 .LASF637
C:\Users\CYMR90~1\AppData\Local\Temp\cca5ocgO.s:19950  .debug_str:0000000000003826 .LASF638
C:\Users\CYMR90~1\AppData\Local\Temp\cca5ocgO.s:23478  .debug_str:0000000000011a88 .LASF639
C:\Users\CYMR90~1\AppData\Local\Temp\cca5ocgO.s:21058  .debug_str:0000000000007fa9 .LASF640
C:\Users\CYMR90~1\AppData\Local\Temp\cca5ocgO.s:23698  .debug_str:0000000000012899 .LASF641
C:\Users\CYMR90~1\AppData\Local\Temp\cca5ocgO.s:21910  .debug_str:000000000000b69c .LASF642
C:\Users\CYMR90~1\AppData\Local\Temp\cca5ocgO.s:28929  .debug_str:00000000000277ca .LASF643
C:\Users\CYMR90~1\AppData\Local\Temp\cca5ocgO.s:26853  .debug_str:000000000001f582 .LASF644
C:\Users\CYMR90~1\AppData\Local\Temp\cca5ocgO.s:20122  .debug_str:00000000000043ab .LASF645
C:\Users\CYMR90~1\AppData\Local\Temp\cca5ocgO.s:20942  .debug_str:0000000000007782 .LASF646
C:\Users\CYMR90~1\AppData\Local\Temp\cca5ocgO.s:19874  .debug_str:0000000000003336 .LASF647
C:\Users\CYMR90~1\AppData\Local\Temp\cca5ocgO.s:20230  .debug_str:0000000000004b57 .LASF648
C:\Users\CYMR90~1\AppData\Local\Temp\cca5ocgO.s:29457  .debug_str:0000000000029a21 .LASF649
C:\Users\CYMR90~1\AppData\Local\Temp\cca5ocgO.s:23400  .debug_str:0000000000011430 .LASF650
C:\Users\CYMR90~1\AppData\Local\Temp\cca5ocgO.s:29569  .debug_str:000000000002a0a8 .LASF651
C:\Users\CYMR90~1\AppData\Local\Temp\cca5ocgO.s:22996  .debug_str:000000000000fc38 .LASF652
C:\Users\CYMR90~1\AppData\Local\Temp\cca5ocgO.s:19122  .debug_str:00000000000004b6 .LASF653
C:\Users\CYMR90~1\AppData\Local\Temp\cca5ocgO.s:29793  .debug_str:000000000002ae36 .LASF654
C:\Users\CYMR90~1\AppData\Local\Temp\cca5ocgO.s:21290  .debug_str:0000000000008f25 .LASF655
C:\Users\CYMR90~1\AppData\Local\Temp\cca5ocgO.s:29005  .debug_str:0000000000027d17 .LASF656
C:\Users\CYMR90~1\AppData\Local\Temp\cca5ocgO.s:19178  .debug_str:0000000000000819 .LASF657
C:\Users\CYMR90~1\AppData\Local\Temp\cca5ocgO.s:29617  .debug_str:000000000002a36a .LASF658
C:\Users\CYMR90~1\AppData\Local\Temp\cca5ocgO.s:23796  .debug_str:0000000000012f43 .LASF659
C:\Users\CYMR90~1\AppData\Local\Temp\cca5ocgO.s:26205  .debug_str:000000000001cbf4 .LASF660
C:\Users\CYMR90~1\AppData\Local\Temp\cca5ocgO.s:22682  .debug_str:000000000000e89f .LASF661
C:\Users\CYMR90~1\AppData\Local\Temp\cca5ocgO.s:26859  .debug_str:000000000001f604 .LASF662
C:\Users\CYMR90~1\AppData\Local\Temp\cca5ocgO.s:28775  .debug_str:0000000000026e16 .LASF663
C:\Users\CYMR90~1\AppData\Local\Temp\cca5ocgO.s:23380  .debug_str:0000000000011308 .LASF664
C:\Users\CYMR90~1\AppData\Local\Temp\cca5ocgO.s:23372  .debug_str:00000000000112aa .LASF665
C:\Users\CYMR90~1\AppData\Local\Temp\cca5ocgO.s:25291  .debug_str:0000000000018ee8 .LASF666
C:\Users\CYMR90~1\AppData\Local\Temp\cca5ocgO.s:20518  .debug_str:0000000000005cc2 .LASF667
C:\Users\CYMR90~1\AppData\Local\Temp\cca5ocgO.s:30275  .debug_str:000000000002cee0 .LASF668
C:\Users\CYMR90~1\AppData\Local\Temp\cca5ocgO.s:20908  .debug_str:0000000000007565 .LASF669
C:\Users\CYMR90~1\AppData\Local\Temp\cca5ocgO.s:27489  .debug_str:0000000000021cb4 .LASF670
C:\Users\CYMR90~1\AppData\Local\Temp\cca5ocgO.s:23778  .debug_str:0000000000012dfb .LASF671
C:\Users\CYMR90~1\AppData\Local\Temp\cca5ocgO.s:26909  .debug_str:000000000001f8c4 .LASF672
C:\Users\CYMR90~1\AppData\Local\Temp\cca5ocgO.s:27615  .debug_str:000000000002240e .LASF673
C:\Users\CYMR90~1\AppData\Local\Temp\cca5ocgO.s:19516  .debug_str:0000000000001d65 .LASF674
C:\Users\CYMR90~1\AppData\Local\Temp\cca5ocgO.s:24458  .debug_str:00000000000158ea .LASF676
C:\Users\CYMR90~1\AppData\Local\Temp\cca5ocgO.s:28039  .debug_str:0000000000023d1e .LASF677
C:\Users\CYMR90~1\AppData\Local\Temp\cca5ocgO.s:25515  .debug_str:0000000000019e57 .LASF678
C:\Users\CYMR90~1\AppData\Local\Temp\cca5ocgO.s:28139  .debug_str:000000000002449f .LASF679
C:\Users\CYMR90~1\AppData\Local\Temp\cca5ocgO.s:26629  .debug_str:000000000001e79d .LASF680
C:\Users\CYMR90~1\AppData\Local\Temp\cca5ocgO.s:29471  .debug_str:0000000000029b1e .LASF681
C:\Users\CYMR90~1\AppData\Local\Temp\cca5ocgO.s:20124  .debug_str:00000000000043e9 .LASF682
C:\Users\CYMR90~1\AppData\Local\Temp\cca5ocgO.s:20044  .debug_str:0000000000003e53 .LASF683
C:\Users\CYMR90~1\AppData\Local\Temp\cca5ocgO.s:21428  .debug_str:000000000000972c .LASF684
C:\Users\CYMR90~1\AppData\Local\Temp\cca5ocgO.s:25961  .debug_str:000000000001bc1e .LASF685
C:\Users\CYMR90~1\AppData\Local\Temp\cca5ocgO.s:27353  .debug_str:0000000000021468 .LASF686
C:\Users\CYMR90~1\AppData\Local\Temp\cca5ocgO.s:24732  .debug_str:0000000000016a36 .LASF687
C:\Users\CYMR90~1\AppData\Local\Temp\cca5ocgO.s:23304  .debug_str:0000000000010e9c .LASF688
C:\Users\CYMR90~1\AppData\Local\Temp\cca5ocgO.s:19930  .debug_str:00000000000036b8 .LASF689
C:\Users\CYMR90~1\AppData\Local\Temp\cca5ocgO.s:20796  .debug_str:0000000000006e13 .LASF690
C:\Users\CYMR90~1\AppData\Local\Temp\cca5ocgO.s:23646  .debug_str:000000000001251c .LASF691
C:\Users\CYMR90~1\AppData\Local\Temp\cca5ocgO.s:24498  .debug_str:0000000000015b59 .LASF692
C:\Users\CYMR90~1\AppData\Local\Temp\cca5ocgO.s:20484  .debug_str:0000000000005aed .LASF695
C:\Users\CYMR90~1\AppData\Local\Temp\cca5ocgO.s:24907  .debug_str:0000000000017679 .LASF696
C:\Users\CYMR90~1\AppData\Local\Temp\cca5ocgO.s:22320  .debug_str:000000000000d20a .LASF697
C:\Users\CYMR90~1\AppData\Local\Temp\cca5ocgO.s:25931  .debug_str:000000000001ba8d .LASF698
C:\Users\CYMR90~1\AppData\Local\Temp\cca5ocgO.s:28079  .debug_str:0000000000023f82 .LASF699
C:\Users\CYMR90~1\AppData\Local\Temp\cca5ocgO.s:24230  .debug_str:0000000000014abb .LASF702
C:\Users\CYMR90~1\AppData\Local\Temp\cca5ocgO.s:21448  .debug_str:000000000000984c .LASF703
C:\Users\CYMR90~1\AppData\Local\Temp\cca5ocgO.s:26803  .debug_str:000000000001f26b .LASF704
C:\Users\CYMR90~1\AppData\Local\Temp\cca5ocgO.s:20308  .debug_str:000000000000503b .LASF705
C:\Users\CYMR90~1\AppData\Local\Temp\cca5ocgO.s:24560  .debug_str:0000000000015f8c .LASF706
C:\Users\CYMR90~1\AppData\Local\Temp\cca5ocgO.s:22880  .debug_str:000000000000f49f .LASF707
C:\Users\CYMR90~1\AppData\Local\Temp\cca5ocgO.s:29199  .debug_str:0000000000028aaf .LASF708
C:\Users\CYMR90~1\AppData\Local\Temp\cca5ocgO.s:28443  .debug_str:00000000000259b9 .LASF709
C:\Users\CYMR90~1\AppData\Local\Temp\cca5ocgO.s:22524  .debug_str:000000000000decb .LASF710
C:\Users\CYMR90~1\AppData\Local\Temp\cca5ocgO.s:23042  .debug_str:000000000000fe40 .LASF711
C:\Users\CYMR90~1\AppData\Local\Temp\cca5ocgO.s:24708  .debug_str:000000000001685b .LASF712
C:\Users\CYMR90~1\AppData\Local\Temp\cca5ocgO.s:21684  .debug_str:000000000000a743 .LASF713
C:\Users\CYMR90~1\AppData\Local\Temp\cca5ocgO.s:30013  .debug_str:000000000002bcff .LASF714
C:\Users\CYMR90~1\AppData\Local\Temp\cca5ocgO.s:21042  .debug_str:0000000000007e8c .LASF715
C:\Users\CYMR90~1\AppData\Local\Temp\cca5ocgO.s:21950  .debug_str:000000000000b923 .LASF716
C:\Users\CYMR90~1\AppData\Local\Temp\cca5ocgO.s:27025  .debug_str:0000000000020051 .LASF717
C:\Users\CYMR90~1\AppData\Local\Temp\cca5ocgO.s:28401  .debug_str:00000000000256b5 .LASF718
C:\Users\CYMR90~1\AppData\Local\Temp\cca5ocgO.s:28183  .debug_str:0000000000024754 .LASF719
C:\Users\CYMR90~1\AppData\Local\Temp\cca5ocgO.s:25227  .debug_str:0000000000018a38 .LASF720
C:\Users\CYMR90~1\AppData\Local\Temp\cca5ocgO.s:19574  .debug_str:00000000000020b9 .LASF721
C:\Users\CYMR90~1\AppData\Local\Temp\cca5ocgO.s:27131  .debug_str:000000000002069d .LASF722
C:\Users\CYMR90~1\AppData\Local\Temp\cca5ocgO.s:26119  .debug_str:000000000001c5ee .LASF723
C:\Users\CYMR90~1\AppData\Local\Temp\cca5ocgO.s:26681  .debug_str:000000000001eb12 .LASF724
C:\Users\CYMR90~1\AppData\Local\Temp\cca5ocgO.s:27593  .debug_str:00000000000222eb .LASF725
C:\Users\CYMR90~1\AppData\Local\Temp\cca5ocgO.s:23898  .debug_str:0000000000013651 .LASF726
C:\Users\CYMR90~1\AppData\Local\Temp\cca5ocgO.s:21678  .debug_str:000000000000a6e9 .LASF727
C:\Users\CYMR90~1\AppData\Local\Temp\cca5ocgO.s:28531  .debug_str:0000000000025f3e .LASF728
C:\Users\CYMR90~1\AppData\Local\Temp\cca5ocgO.s:19478  .debug_str:0000000000001b11 .LASF729
C:\Users\CYMR90~1\AppData\Local\Temp\cca5ocgO.s:29067  .debug_str:00000000000281f1 .LASF730
C:\Users\CYMR90~1\AppData\Local\Temp\cca5ocgO.s:23870  .debug_str:000000000001349f .LASF731
C:\Users\CYMR90~1\AppData\Local\Temp\cca5ocgO.s:28473  .debug_str:0000000000025ba2 .LASF732
C:\Users\CYMR90~1\AppData\Local\Temp\cca5ocgO.s:30211  .debug_str:000000000002ca8e .LASF733
C:\Users\CYMR90~1\AppData\Local\Temp\cca5ocgO.s:23356  .debug_str:00000000000111a4 .LASF734
C:\Users\CYMR90~1\AppData\Local\Temp\cca5ocgO.s:23280  .debug_str:0000000000010d59 .LASF735
C:\Users\CYMR90~1\AppData\Local\Temp\cca5ocgO.s:30145  .debug_str:000000000002c61c .LASF736
C:\Users\CYMR90~1\AppData\Local\Temp\cca5ocgO.s:22258  .debug_str:000000000000ce27 .LASF737
C:\Users\CYMR90~1\AppData\Local\Temp\cca5ocgO.s:26271  .debug_str:000000000001d167 .LASF738
C:\Users\CYMR90~1\AppData\Local\Temp\cca5ocgO.s:29899  .debug_str:000000000002b556 .LASF739
C:\Users\CYMR90~1\AppData\Local\Temp\cca5ocgO.s:19480  .debug_str:0000000000001b24 .LASF740
C:\Users\CYMR90~1\AppData\Local\Temp\cca5ocgO.s:22194  .debug_str:000000000000c98d .LASF741
C:\Users\CYMR90~1\AppData\Local\Temp\cca5ocgO.s:19456  .debug_str:00000000000019d9 .LASF742
C:\Users\CYMR90~1\AppData\Local\Temp\cca5ocgO.s:23312  .debug_str:0000000000010ef7 .LASF743
C:\Users\CYMR90~1\AppData\Local\Temp\cca5ocgO.s:19912  .debug_str:00000000000035c9 .LASF744
C:\Users\CYMR90~1\AppData\Local\Temp\cca5ocgO.s:21300  .debug_str:0000000000008fbf .LASF745
C:\Users\CYMR90~1\AppData\Local\Temp\cca5ocgO.s:27605  .debug_str:000000000002238c .LASF746
C:\Users\CYMR90~1\AppData\Local\Temp\cca5ocgO.s:19350  .debug_str:00000000000012d5 .LASF747
C:\Users\CYMR90~1\AppData\Local\Temp\cca5ocgO.s:19340  .debug_str:0000000000001253 .LASF748
C:\Users\CYMR90~1\AppData\Local\Temp\cca5ocgO.s:20464  .debug_str:000000000000597f .LASF750
C:\Users\CYMR90~1\AppData\Local\Temp\cca5ocgO.s:23234  .debug_str:00000000000109f8 .LASF751
C:\Users\CYMR90~1\AppData\Local\Temp\cca5ocgO.s:29359  .debug_str:000000000002942f .LASF752
C:\Users\CYMR90~1\AppData\Local\Temp\cca5ocgO.s:23170  .debug_str:00000000000105b4 .LASF753
C:\Users\CYMR90~1\AppData\Local\Temp\cca5ocgO.s:20350  .debug_str:00000000000052c8 .LASF754
C:\Users\CYMR90~1\AppData\Local\Temp\cca5ocgO.s:21932  .debug_str:000000000000b82a .LASF755
C:\Users\CYMR90~1\AppData\Local\Temp\cca5ocgO.s:25479  .debug_str:0000000000019c3e .LASF756
C:\Users\CYMR90~1\AppData\Local\Temp\cca5ocgO.s:21436  .debug_str:00000000000097a4 .LASF757
C:\Users\CYMR90~1\AppData\Local\Temp\cca5ocgO.s:28427  .debug_str:00000000000258d1 .LASF758
C:\Users\CYMR90~1\AppData\Local\Temp\cca5ocgO.s:30243  .debug_str:000000000002ccfc .LASF759
C:\Users\CYMR90~1\AppData\Local\Temp\cca5ocgO.s:25845  .debug_str:000000000001b564 .LASF760
C:\Users\CYMR90~1\AppData\Local\Temp\cca5ocgO.s:29995  .debug_str:000000000002bbb9 .LASF761
C:\Users\CYMR90~1\AppData\Local\Temp\cca5ocgO.s:21862  .debug_str:000000000000b32e .LASF762
C:\Users\CYMR90~1\AppData\Local\Temp\cca5ocgO.s:25853  .debug_str:000000000001b5f8 .LASF765
C:\Users\CYMR90~1\AppData\Local\Temp\cca5ocgO.s:24530  .debug_str:0000000000015d59 .LASF766
C:\Users\CYMR90~1\AppData\Local\Temp\cca5ocgO.s:27499  .debug_str:0000000000021d4a .LASF767
C:\Users\CYMR90~1\AppData\Local\Temp\cca5ocgO.s:24520  .debug_str:0000000000015ce9 .LASF768
C:\Users\CYMR90~1\AppData\Local\Temp\cca5ocgO.s:19724  .debug_str:00000000000029e5 .LASF769
C:\Users\CYMR90~1\AppData\Local\Temp\cca5ocgO.s:25977  .debug_str:000000000001bd61 .LASF770
C:\Users\CYMR90~1\AppData\Local\Temp\cca5ocgO.s:24616  .debug_str:0000000000016339 .LASF771
C:\Users\CYMR90~1\AppData\Local\Temp\cca5ocgO.s:28147  .debug_str:000000000002450d .LASF772
C:\Users\CYMR90~1\AppData\Local\Temp\cca5ocgO.s:27783  .debug_str:0000000000022dff .LASF773
C:\Users\CYMR90~1\AppData\Local\Temp\cca5ocgO.s:22606  .debug_str:000000000000e3c0 .LASF774
C:\Users\CYMR90~1\AppData\Local\Temp\cca5ocgO.s:28475  .debug_str:0000000000025bb8 .LASF775
C:\Users\CYMR90~1\AppData\Local\Temp\cca5ocgO.s:21580  .debug_str:000000000000a0f9 .LASF776
C:\Users\CYMR90~1\AppData\Local\Temp\cca5ocgO.s:21596  .debug_str:000000000000a1fd .LASF777
C:\Users\CYMR90~1\AppData\Local\Temp\cca5ocgO.s:26619  .debug_str:000000000001e6fc .LASF778
C:\Users\CYMR90~1\AppData\Local\Temp\cca5ocgO.s:27217  .debug_str:0000000000020be5 .LASF779
C:\Users\CYMR90~1\AppData\Local\Temp\cca5ocgO.s:26867  .debug_str:000000000001f679 .LASF780
C:\Users\CYMR90~1\AppData\Local\Temp\cca5ocgO.s:27495  .debug_str:0000000000021d11 .LASF781
C:\Users\CYMR90~1\AppData\Local\Temp\cca5ocgO.s:23596  .debug_str:0000000000012226 .LASF782
C:\Users\CYMR90~1\AppData\Local\Temp\cca5ocgO.s:24740  .debug_str:0000000000016acc .LASF783
C:\Users\CYMR90~1\AppData\Local\Temp\cca5ocgO.s:23494  .debug_str:0000000000011b86 .LASF784
C:\Users\CYMR90~1\AppData\Local\Temp\cca5ocgO.s:22780  .debug_str:000000000000eea1 .LASF785
C:\Users\CYMR90~1\AppData\Local\Temp\cca5ocgO.s:27853  .debug_str:00000000000231dc .LASF786
C:\Users\CYMR90~1\AppData\Local\Temp\cca5ocgO.s:24244  .debug_str:0000000000014be0 .LASF787
C:\Users\CYMR90~1\AppData\Local\Temp\cca5ocgO.s:26555  .debug_str:000000000001e344 .LASF788
C:\Users\CYMR90~1\AppData\Local\Temp\cca5ocgO.s:22956  .debug_str:000000000000f9b8 .LASF789
C:\Users\CYMR90~1\AppData\Local\Temp\cca5ocgO.s:20400  .debug_str:00000000000055ba .LASF790
C:\Users\CYMR90~1\AppData\Local\Temp\cca5ocgO.s:28825  .debug_str:00000000000271d0 .LASF791
C:\Users\CYMR90~1\AppData\Local\Temp\cca5ocgO.s:21164  .debug_str:00000000000086e1 .LASF792
C:\Users\CYMR90~1\AppData\Local\Temp\cca5ocgO.s:30217  .debug_str:000000000002cadc .LASF793
C:\Users\CYMR90~1\AppData\Local\Temp\cca5ocgO.s:20952  .debug_str:0000000000007856 .LASF794
C:\Users\CYMR90~1\AppData\Local\Temp\cca5ocgO.s:29083  .debug_str:00000000000282eb .LASF795
C:\Users\CYMR90~1\AppData\Local\Temp\cca5ocgO.s:27105  .debug_str:00000000000204a9 .LASF796
C:\Users\CYMR90~1\AppData\Local\Temp\cca5ocgO.s:29785  .debug_str:000000000002ade5 .LASF797
C:\Users\CYMR90~1\AppData\Local\Temp\cca5ocgO.s:20774  .debug_str:0000000000006c9a .LASF798
C:\Users\CYMR90~1\AppData\Local\Temp\cca5ocgO.s:29145  .debug_str:000000000002874b .LASF799
C:\Users\CYMR90~1\AppData\Local\Temp\cca5ocgO.s:20364  .debug_str:0000000000005394 .LASF800
C:\Users\CYMR90~1\AppData\Local\Temp\cca5ocgO.s:25613  .debug_str:000000000001a595 .LASF801
C:\Users\CYMR90~1\AppData\Local\Temp\cca5ocgO.s:25639  .debug_str:000000000001a724 .LASF802
C:\Users\CYMR90~1\AppData\Local\Temp\cca5ocgO.s:21500  .debug_str:0000000000009c09 .LASF803
C:\Users\CYMR90~1\AppData\Local\Temp\cca5ocgO.s:24000  .debug_str:0000000000013c74 .LASF804
C:\Users\CYMR90~1\AppData\Local\Temp\cca5ocgO.s:20792  .debug_str:0000000000006d94 .LASF805
C:\Users\CYMR90~1\AppData\Local\Temp\cca5ocgO.s:23446  .debug_str:00000000000117cb .LASF806
C:\Users\CYMR90~1\AppData\Local\Temp\cca5ocgO.s:26577  .debug_str:000000000001e45a .LASF807
C:\Users\CYMR90~1\AppData\Local\Temp\cca5ocgO.s:26169  .debug_str:000000000001c9bf .LASF808
C:\Users\CYMR90~1\AppData\Local\Temp\cca5ocgO.s:28541  .debug_str:0000000000025fd2 .LASF809
C:\Users\CYMR90~1\AppData\Local\Temp\cca5ocgO.s:29999  .debug_str:000000000002bc0e .LASF810
C:\Users\CYMR90~1\AppData\Local\Temp\cca5ocgO.s:21190  .debug_str:0000000000008869 .LASF811
C:\Users\CYMR90~1\AppData\Local\Temp\cca5ocgO.s:20104  .debug_str:00000000000042ad .LASF812
C:\Users\CYMR90~1\AppData\Local\Temp\cca5ocgO.s:30033  .debug_str:000000000002bec2 .LASF813
C:\Users\CYMR90~1\AppData\Local\Temp\cca5ocgO.s:20460  .debug_str:0000000000005958 .LASF814
C:\Users\CYMR90~1\AppData\Local\Temp\cca5ocgO.s:20684  .debug_str:00000000000066c8 .LASF815
C:\Users\CYMR90~1\AppData\Local\Temp\cca5ocgO.s:25945  .debug_str:000000000001bb4b .LASF816
C:\Users\CYMR90~1\AppData\Local\Temp\cca5ocgO.s:21366  .debug_str:000000000000936c .LASF817
C:\Users\CYMR90~1\AppData\Local\Temp\cca5ocgO.s:26085  .debug_str:000000000001c428 .LASF818
C:\Users\CYMR90~1\AppData\Local\Temp\cca5ocgO.s:25981  .debug_str:000000000001bd79 .LASF819
C:\Users\CYMR90~1\AppData\Local\Temp\cca5ocgO.s:19220  .debug_str:0000000000000ad6 .LASF820
C:\Users\CYMR90~1\AppData\Local\Temp\cca5ocgO.s:29619  .debug_str:000000000002a37a .LASF821
C:\Users\CYMR90~1\AppData\Local\Temp\cca5ocgO.s:28143  .debug_str:00000000000244dd .LASF822
C:\Users\CYMR90~1\AppData\Local\Temp\cca5ocgO.s:21332  .debug_str:000000000000914e .LASF823
C:\Users\CYMR90~1\AppData\Local\Temp\cca5ocgO.s:20312  .debug_str:0000000000005075 .LASF824
C:\Users\CYMR90~1\AppData\Local\Temp\cca5ocgO.s:26275  .debug_str:000000000001d1a2 .LASF825
C:\Users\CYMR90~1\AppData\Local\Temp\cca5ocgO.s:24456  .debug_str:00000000000158c9 .LASF826
C:\Users\CYMR90~1\AppData\Local\Temp\cca5ocgO.s:19994  .debug_str:0000000000003b11 .LASF827
C:\Users\CYMR90~1\AppData\Local\Temp\cca5ocgO.s:22758  .debug_str:000000000000ed6c .LASF828
C:\Users\CYMR90~1\AppData\Local\Temp\cca5ocgO.s:28251  .debug_str:0000000000024c10 .LASF829
C:\Users\CYMR90~1\AppData\Local\Temp\cca5ocgO.s:28417  .debug_str:0000000000025811 .LASF830
C:\Users\CYMR90~1\AppData\Local\Temp\cca5ocgO.s:21938  .debug_str:000000000000b885 .LASF831
C:\Users\CYMR90~1\AppData\Local\Temp\cca5ocgO.s:22706  .debug_str:000000000000ea29 .LASF832
C:\Users\CYMR90~1\AppData\Local\Temp\cca5ocgO.s:20550  .debug_str:0000000000005e8f .LASF833
C:\Users\CYMR90~1\AppData\Local\Temp\cca5ocgO.s:23358  .debug_str:00000000000111b5 .LASF834
C:\Users\CYMR90~1\AppData\Local\Temp\cca5ocgO.s:25151  .debug_str:0000000000018580 .LASF835
C:\Users\CYMR90~1\AppData\Local\Temp\cca5ocgO.s:23262  .debug_str:0000000000010be6 .LASF836
C:\Users\CYMR90~1\AppData\Local\Temp\cca5ocgO.s:27017  .debug_str:000000000001ffd5 .LASF837
C:\Users\CYMR90~1\AppData\Local\Temp\cca5ocgO.s:21236  .debug_str:0000000000008b6e .LASF838
C:\Users\CYMR90~1\AppData\Local\Temp\cca5ocgO.s:20388  .debug_str:0000000000005519 .LASF839
C:\Users\CYMR90~1\AppData\Local\Temp\cca5ocgO.s:23160  .debug_str:0000000000010503 .LASF840
C:\Users\CYMR90~1\AppData\Local\Temp\cca5ocgO.s:22074  .debug_str:000000000000c1bb .LASF841
C:\Users\CYMR90~1\AppData\Local\Temp\cca5ocgO.s:26187  .debug_str:000000000001caee .LASF842
C:\Users\CYMR90~1\AppData\Local\Temp\cca5ocgO.s:19292  .debug_str:0000000000000fb1 .LASF843
C:\Users\CYMR90~1\AppData\Local\Temp\cca5ocgO.s:19662  .debug_str:00000000000025c4 .LASF844
C:\Users\CYMR90~1\AppData\Local\Temp\cca5ocgO.s:28003  .debug_str:0000000000023b0c .LASF845
C:\Users\CYMR90~1\AppData\Local\Temp\cca5ocgO.s:19052  .debug_str:0000000000000096 .LASF846
C:\Users\CYMR90~1\AppData\Local\Temp\cca5ocgO.s:21032  .debug_str:0000000000007dff .LASF847
C:\Users\CYMR90~1\AppData\Local\Temp\cca5ocgO.s:26873  .debug_str:000000000001f6c7 .LASF848
C:\Users\CYMR90~1\AppData\Local\Temp\cca5ocgO.s:21000  .debug_str:0000000000007b7c .LASF849
C:\Users\CYMR90~1\AppData\Local\Temp\cca5ocgO.s:22376  .debug_str:000000000000d61f .LASF852
C:\Users\CYMR90~1\AppData\Local\Temp\cca5ocgO.s:29193  .debug_str:0000000000028a57 .LASF853
C:\Users\CYMR90~1\AppData\Local\Temp\cca5ocgO.s:24304  .debug_str:0000000000014ff7 .LASF854
C:\Users\CYMR90~1\AppData\Local\Temp\cca5ocgO.s:27505  .debug_str:0000000000021ddf .LASF856
C:\Users\CYMR90~1\AppData\Local\Temp\cca5ocgO.s:26409  .debug_str:000000000001da0b .LASF857
C:\Users\CYMR90~1\AppData\Local\Temp\cca5ocgO.s:29017  .debug_str:0000000000027dc7 .LASF858
C:\Users\CYMR90~1\AppData\Local\Temp\cca5ocgO.s:22362  .debug_str:000000000000d53b .LASF859
C:\Users\CYMR90~1\AppData\Local\Temp\cca5ocgO.s:24250  .debug_str:0000000000014c27 .LASF860
C:\Users\CYMR90~1\AppData\Local\Temp\cca5ocgO.s:27433  .debug_str:000000000002193a .LASF861
C:\Users\CYMR90~1\AppData\Local\Temp\cca5ocgO.s:26611  .debug_str:000000000001e6ac .LASF862
C:\Users\CYMR90~1\AppData\Local\Temp\cca5ocgO.s:19390  .debug_str:0000000000001532 .LASF863
C:\Users\CYMR90~1\AppData\Local\Temp\cca5ocgO.s:20050  .debug_str:0000000000003e98 .LASF864
C:\Users\CYMR90~1\AppData\Local\Temp\cca5ocgO.s:20434  .debug_str:00000000000057da .LASF865
C:\Users\CYMR90~1\AppData\Local\Temp\cca5ocgO.s:21628  .debug_str:000000000000a414 .LASF866
C:\Users\CYMR90~1\AppData\Local\Temp\cca5ocgO.s:21102  .debug_str:0000000000008338 .LASF867
C:\Users\CYMR90~1\AppData\Local\Temp\cca5ocgO.s:26341  .debug_str:000000000001d583 .LASF868
C:\Users\CYMR90~1\AppData\Local\Temp\cca5ocgO.s:26955  .debug_str:000000000001fbca .LASF869
C:\Users\CYMR90~1\AppData\Local\Temp\cca5ocgO.s:28015  .debug_str:0000000000023bb9 .LASF870
C:\Users\CYMR90~1\AppData\Local\Temp\cca5ocgO.s:21272  .debug_str:0000000000008ddf .LASF871
C:\Users\CYMR90~1\AppData\Local\Temp\cca5ocgO.s:21704  .debug_str:000000000000a8b9 .LASF872
C:\Users\CYMR90~1\AppData\Local\Temp\cca5ocgO.s:26177  .debug_str:000000000001ca63 .LASF873
C:\Users\CYMR90~1\AppData\Local\Temp\cca5ocgO.s:28707  .debug_str:00000000000269d0 .LASF874
C:\Users\CYMR90~1\AppData\Local\Temp\cca5ocgO.s:23514  .debug_str:0000000000011c9e .LASF875
C:\Users\CYMR90~1\AppData\Local\Temp\cca5ocgO.s:24208  .debug_str:00000000000149b6 .LASF876
C:\Users\CYMR90~1\AppData\Local\Temp\cca5ocgO.s:21506  .debug_str:0000000000009c5e .LASF877
C:\Users\CYMR90~1\AppData\Local\Temp\cca5ocgO.s:25883  .debug_str:000000000001b7cb .LASF878
C:\Users\CYMR90~1\AppData\Local\Temp\cca5ocgO.s:24408  .debug_str:0000000000015627 .LASF879
C:\Users\CYMR90~1\AppData\Local\Temp\cca5ocgO.s:24851  .debug_str:0000000000017339 .LASF880
C:\Users\CYMR90~1\AppData\Local\Temp\cca5ocgO.s:20366  .debug_str:00000000000053ad .LASF881
C:\Users\CYMR90~1\AppData\Local\Temp\cca5ocgO.s:23738  .debug_str:0000000000012b72 .LASF882
C:\Users\CYMR90~1\AppData\Local\Temp\cca5ocgO.s:26845  .debug_str:000000000001f514 .LASF883
C:\Users\CYMR90~1\AppData\Local\Temp\cca5ocgO.s:27029  .debug_str:000000000002007e .LASF884
C:\Users\CYMR90~1\AppData\Local\Temp\cca5ocgO.s:30263  .debug_str:000000000002ce0e .LASF885
C:\Users\CYMR90~1\AppData\Local\Temp\cca5ocgO.s:25893  .debug_str:000000000001b855 .LASF886
C:\Users\CYMR90~1\AppData\Local\Temp\cca5ocgO.s:21378  .debug_str:0000000000009413 .LASF887
C:\Users\CYMR90~1\AppData\Local\Temp\cca5ocgO.s:27967  .debug_str:000000000002391b .LASF888
C:\Users\CYMR90~1\AppData\Local\Temp\cca5ocgO.s:23674  .debug_str:0000000000012717 .LASF889
C:\Users\CYMR90~1\AppData\Local\Temp\cca5ocgO.s:27901  .debug_str:00000000000234bc .LASF890
C:\Users\CYMR90~1\AppData\Local\Temp\cca5ocgO.s:20196  .debug_str:000000000000494f .LASF891
C:\Users\CYMR90~1\AppData\Local\Temp\cca5ocgO.s:21020  .debug_str:0000000000007c99 .LASF892
C:\Users\CYMR90~1\AppData\Local\Temp\cca5ocgO.s:28655  .debug_str:00000000000266d2 .LASF893
C:\Users\CYMR90~1\AppData\Local\Temp\cca5ocgO.s:28059  .debug_str:0000000000023e54 .LASF894
C:\Users\CYMR90~1\AppData\Local\Temp\cca5ocgO.s:19362  .debug_str:000000000000137f .LASF895
C:\Users\CYMR90~1\AppData\Local\Temp\cca5ocgO.s:24060  .debug_str:0000000000014008 .LASF896
C:\Users\CYMR90~1\AppData\Local\Temp\cca5ocgO.s:20276  .debug_str:0000000000004e47 .LASF897
C:\Users\CYMR90~1\AppData\Local\Temp\cca5ocgO.s:21496  .debug_str:0000000000009bca .LASF898
C:\Users\CYMR90~1\AppData\Local\Temp\cca5ocgO.s:28961  .debug_str:0000000000027a57 .LASF899
C:\Users\CYMR90~1\AppData\Local\Temp\cca5ocgO.s:21820  .debug_str:000000000000b0c3 .LASF900
C:\Users\CYMR90~1\AppData\Local\Temp\cca5ocgO.s:25937  .debug_str:000000000001bac3 .LASF901
C:\Users\CYMR90~1\AppData\Local\Temp\cca5ocgO.s:29493  .debug_str:0000000000029c79 .LASF902
C:\Users\CYMR90~1\AppData\Local\Temp\cca5ocgO.s:28249  .debug_str:0000000000024bea .LASF903
C:\Users\CYMR90~1\AppData\Local\Temp\cca5ocgO.s:29105  .debug_str:0000000000028454 .LASF904
C:\Users\CYMR90~1\AppData\Local\Temp\cca5ocgO.s:26631  .debug_str:000000000001e7ae .LASF905
C:\Users\CYMR90~1\AppData\Local\Temp\cca5ocgO.s:21152  .debug_str:0000000000008646 .LASF906
C:\Users\CYMR90~1\AppData\Local\Temp\cca5ocgO.s:29661  .debug_str:000000000002a673 .LASF907
C:\Users\CYMR90~1\AppData\Local\Temp\cca5ocgO.s:22654  .debug_str:000000000000e6d5 .LASF908
C:\Users\CYMR90~1\AppData\Local\Temp\cca5ocgO.s:28933  .debug_str:000000000002782a .LASF909
C:\Users\CYMR90~1\AppData\Local\Temp\cca5ocgO.s:23282  .debug_str:0000000000010d6a .LASF910
C:\Users\CYMR90~1\AppData\Local\Temp\cca5ocgO.s:19754  .debug_str:0000000000002ba6 .LASF911
C:\Users\CYMR90~1\AppData\Local\Temp\cca5ocgO.s:19334  .debug_str:0000000000001216 .LASF912
C:\Users\CYMR90~1\AppData\Local\Temp\cca5ocgO.s:27355  .debug_str:000000000002148c .LASF913
C:\Users\CYMR90~1\AppData\Local\Temp\cca5ocgO.s:28231  .debug_str:0000000000024aba .LASF914
C:\Users\CYMR90~1\AppData\Local\Temp\cca5ocgO.s:22206  .debug_str:000000000000ca5f .LASF915
C:\Users\CYMR90~1\AppData\Local\Temp\cca5ocgO.s:24823  .debug_str:0000000000017169 .LASF916
C:\Users\CYMR90~1\AppData\Local\Temp\cca5ocgO.s:23090  .debug_str:0000000000010154 .LASF917
C:\Users\CYMR90~1\AppData\Local\Temp\cca5ocgO.s:29735  .debug_str:000000000002aab1 .LASF918
C:\Users\CYMR90~1\AppData\Local\Temp\cca5ocgO.s:19320  .debug_str:0000000000001122 .LASF919
C:\Users\CYMR90~1\AppData\Local\Temp\cca5ocgO.s:21804  .debug_str:000000000000afbf .LASF920
C:\Users\CYMR90~1\AppData\Local\Temp\cca5ocgO.s:28187  .debug_str:0000000000024784 .LASF921
C:\Users\CYMR90~1\AppData\Local\Temp\cca5ocgO.s:25635  .debug_str:000000000001a6d8 .LASF922
C:\Users\CYMR90~1\AppData\Local\Temp\cca5ocgO.s:28687  .debug_str:00000000000268b2 .LASF923
C:\Users\CYMR90~1\AppData\Local\Temp\cca5ocgO.s:24779  .debug_str:0000000000016eed .LASF924
C:\Users\CYMR90~1\AppData\Local\Temp\cca5ocgO.s:19716  .debug_str:0000000000002952 .LASF925
C:\Users\CYMR90~1\AppData\Local\Temp\cca5ocgO.s:25847  .debug_str:000000000001b59e .LASF926
C:\Users\CYMR90~1\AppData\Local\Temp\cca5ocgO.s:19434  .debug_str:0000000000001867 .LASF927
C:\Users\CYMR90~1\AppData\Local\Temp\cca5ocgO.s:24236  .debug_str:0000000000014b5a .LASF928
C:\Users\CYMR90~1\AppData\Local\Temp\cca5ocgO.s:26905  .debug_str:000000000001f88b .LASF929
C:\Users\CYMR90~1\AppData\Local\Temp\cca5ocgO.s:29997  .debug_str:000000000002bbf1 .LASF930
C:\Users\CYMR90~1\AppData\Local\Temp\cca5ocgO.s:30209  .debug_str:000000000002ca70 .LASF931
C:\Users\CYMR90~1\AppData\Local\Temp\cca5ocgO.s:26805  .debug_str:000000000001f27f .LASF932
C:\Users\CYMR90~1\AppData\Local\Temp\cca5ocgO.s:29473  .debug_str:0000000000029b2e .LASF933
C:\Users\CYMR90~1\AppData\Local\Temp\cca5ocgO.s:24580  .debug_str:0000000000016114 .LASF934
C:\Users\CYMR90~1\AppData\Local\Temp\cca5ocgO.s:25417  .debug_str:000000000001973f .LASF935
C:\Users\CYMR90~1\AppData\Local\Temp\cca5ocgO.s:24460  .debug_str:00000000000158fe .LASF936
C:\Users\CYMR90~1\AppData\Local\Temp\cca5ocgO.s:28317  .debug_str:0000000000025083 .LASF937
C:\Users\CYMR90~1\AppData\Local\Temp\cca5ocgO.s:19238  .debug_str:0000000000000c09 .LASF938
C:\Users\CYMR90~1\AppData\Local\Temp\cca5ocgO.s:27171  .debug_str:000000000002090f .LASF939
C:\Users\CYMR90~1\AppData\Local\Temp\cca5ocgO.s:28403  .debug_str:00000000000256c1 .LASF940
C:\Users\CYMR90~1\AppData\Local\Temp\cca5ocgO.s:21940  .debug_str:000000000000b8a3 .LASF941
C:\Users\CYMR90~1\AppData\Local\Temp\cca5ocgO.s:25623  .debug_str:000000000001a619 .LASF942
C:\Users\CYMR90~1\AppData\Local\Temp\cca5ocgO.s:22694  .debug_str:000000000000e937 .LASF943
C:\Users\CYMR90~1\AppData\Local\Temp\cca5ocgO.s:28345  .debug_str:00000000000252ce .LASF944
C:\Users\CYMR90~1\AppData\Local\Temp\cca5ocgO.s:26029  .debug_str:000000000001c0d5 .LASF945
C:\Users\CYMR90~1\AppData\Local\Temp\cca5ocgO.s:22900  .debug_str:000000000000f5db .LASF946
C:\Users\CYMR90~1\AppData\Local\Temp\cca5ocgO.s:24935  .debug_str:0000000000017846 .LASF947
C:\Users\CYMR90~1\AppData\Local\Temp\cca5ocgO.s:26539  .debug_str:000000000001e25e .LASF948
C:\Users\CYMR90~1\AppData\Local\Temp\cca5ocgO.s:23258  .debug_str:0000000000010ba8 .LASF949
C:\Users\CYMR90~1\AppData\Local\Temp\cca5ocgO.s:22266  .debug_str:000000000000ce92 .LASF950
C:\Users\CYMR90~1\AppData\Local\Temp\cca5ocgO.s:30133  .debug_str:000000000002c59c .LASF952
C:\Users\CYMR90~1\AppData\Local\Temp\cca5ocgO.s:24386  .debug_str:00000000000154d9 .LASF953
C:\Users\CYMR90~1\AppData\Local\Temp\cca5ocgO.s:22298  .debug_str:000000000000d0bb .LASF954
C:\Users\CYMR90~1\AppData\Local\Temp\cca5ocgO.s:30201  .debug_str:000000000002c9fb .LASF955
C:\Users\CYMR90~1\AppData\Local\Temp\cca5ocgO.s:29371  .debug_str:00000000000294cf .LASF956
C:\Users\CYMR90~1\AppData\Local\Temp\cca5ocgO.s:29463  .debug_str:0000000000029a98 .LASF960
C:\Users\CYMR90~1\AppData\Local\Temp\cca5ocgO.s:21404  .debug_str:00000000000095e7 .LASF961
C:\Users\CYMR90~1\AppData\Local\Temp\cca5ocgO.s:28715  .debug_str:0000000000026a5b .LASF962
C:\Users\CYMR90~1\AppData\Local\Temp\cca5ocgO.s:23486  .debug_str:0000000000011b0a .LASF963
C:\Users\CYMR90~1\AppData\Local\Temp\cca5ocgO.s:20884  .debug_str:000000000000740f .LASF964
C:\Users\CYMR90~1\AppData\Local\Temp\cca5ocgO.s:27537  .debug_str:0000000000021fac .LASF965
C:\Users\CYMR90~1\AppData\Local\Temp\cca5ocgO.s:25841  .debug_str:000000000001b532 .LASF966
C:\Users\CYMR90~1\AppData\Local\Temp\cca5ocgO.s:28661  .debug_str:000000000002672e .LASF967
C:\Users\CYMR90~1\AppData\Local\Temp\cca5ocgO.s:29779  .debug_str:000000000002ad77 .LASF968
C:\Users\CYMR90~1\AppData\Local\Temp\cca5ocgO.s:20608  .debug_str:0000000000006223 .LASF969
C:\Users\CYMR90~1\AppData\Local\Temp\cca5ocgO.s:24102  .debug_str:00000000000142f5 .LASF970
C:\Users\CYMR90~1\AppData\Local\Temp\cca5ocgO.s:29869  .debug_str:000000000002b34e .LASF971
C:\Users\CYMR90~1\AppData\Local\Temp\cca5ocgO.s:22704  .debug_str:000000000000ea03 .LASF972
C:\Users\CYMR90~1\AppData\Local\Temp\cca5ocgO.s:24164  .debug_str:00000000000146e5 .LASF973
C:\Users\CYMR90~1\AppData\Local\Temp\cca5ocgO.s:22326  .debug_str:000000000000d263 .LASF974
C:\Users\CYMR90~1\AppData\Local\Temp\cca5ocgO.s:24714  .debug_str:00000000000168d5 .LASF975
C:\Users\CYMR90~1\AppData\Local\Temp\cca5ocgO.s:30231  .debug_str:000000000002cb84 .LASF976
C:\Users\CYMR90~1\AppData\Local\Temp\cca5ocgO.s:22260  .debug_str:000000000000ce38 .LASF977
C:\Users\CYMR90~1\AppData\Local\Temp\cca5ocgO.s:30251  .debug_str:000000000002cd8b .LASF978
C:\Users\CYMR90~1\AppData\Local\Temp\cca5ocgO.s:28503  .debug_str:0000000000025d6c .LASF979
C:\Users\CYMR90~1\AppData\Local\Temp\cca5ocgO.s:28559  .debug_str:00000000000260df .LASF980
C:\Users\CYMR90~1\AppData\Local\Temp\cca5ocgO.s:22756  .debug_str:000000000000ed52 .LASF981
C:\Users\CYMR90~1\AppData\Local\Temp\cca5ocgO.s:20318  .debug_str:00000000000050ce .LASF982
C:\Users\CYMR90~1\AppData\Local\Temp\cca5ocgO.s:23510  .debug_str:0000000000011c81 .LASF983
C:\Users\CYMR90~1\AppData\Local\Temp\cca5ocgO.s:26251  .debug_str:000000000001cf98 .LASF984
C:\Users\CYMR90~1\AppData\Local\Temp\cca5ocgO.s:26265  .debug_str:000000000001d07f .LASF985
C:\Users\CYMR90~1\AppData\Local\Temp\cca5ocgO.s:27815  .debug_str:0000000000022fc8 .LASF986
C:\Users\CYMR90~1\AppData\Local\Temp\cca5ocgO.s:24526  .debug_str:0000000000015d35 .LASF987
C:\Users\CYMR90~1\AppData\Local\Temp\cca5ocgO.s:19772  .debug_str:0000000000002cba .LASF988
C:\Users\CYMR90~1\AppData\Local\Temp\cca5ocgO.s:27731  .debug_str:0000000000022b15 .LASF989
C:\Users\CYMR90~1\AppData\Local\Temp\cca5ocgO.s:25241  .debug_str:0000000000018b02 .LASF990
C:\Users\CYMR90~1\AppData\Local\Temp\cca5ocgO.s:22256  .debug_str:000000000000ce10 .LASF991
C:\Users\CYMR90~1\AppData\Local\Temp\cca5ocgO.s:28663  .debug_str:0000000000026756 .LASF992
C:\Users\CYMR90~1\AppData\Local\Temp\cca5ocgO.s:20904  .debug_str:000000000000752c .LASF993
C:\Users\CYMR90~1\AppData\Local\Temp\cca5ocgO.s:28483  .debug_str:0000000000025c21 .LASF994
C:\Users\CYMR90~1\AppData\Local\Temp\cca5ocgO.s:25323  .debug_str:000000000001918f .LASF995
C:\Users\CYMR90~1\AppData\Local\Temp\cca5ocgO.s:29281  .debug_str:0000000000028f95 .LASF996
C:\Users\CYMR90~1\AppData\Local\Temp\cca5ocgO.s:26451  .debug_str:000000000001dc5a .LASF997
C:\Users\CYMR90~1\AppData\Local\Temp\cca5ocgO.s:26521  .debug_str:000000000001e135 .LASF998
C:\Users\CYMR90~1\AppData\Local\Temp\cca5ocgO.s:19674  .debug_str:0000000000002658 .LASF999
C:\Users\CYMR90~1\AppData\Local\Temp\cca5ocgO.s:20000  .debug_str:0000000000003b6b .LASF1000
C:\Users\CYMR90~1\AppData\Local\Temp\cca5ocgO.s:24254  .debug_str:0000000000014c57 .LASF1001
C:\Users\CYMR90~1\AppData\Local\Temp\cca5ocgO.s:23100  .debug_str:0000000000010214 .LASF1002
C:\Users\CYMR90~1\AppData\Local\Temp\cca5ocgO.s:20268  .debug_str:0000000000004dee .LASF1003
C:\Users\CYMR90~1\AppData\Local\Temp\cca5ocgO.s:26071  .debug_str:000000000001c35d .LASF1004
C:\Users\CYMR90~1\AppData\Local\Temp\cca5ocgO.s:23462  .debug_str:0000000000011903 .LASF1005
C:\Users\CYMR90~1\AppData\Local\Temp\cca5ocgO.s:22222  .debug_str:000000000000cc5d .LASF1006
C:\Users\CYMR90~1\AppData\Local\Temp\cca5ocgO.s:20582  .debug_str:000000000000609a .LASF1007
C:\Users\CYMR90~1\AppData\Local\Temp\cca5ocgO.s:27533  .debug_str:0000000000021f74 .LASF1008
C:\Users\CYMR90~1\AppData\Local\Temp\cca5ocgO.s:25015  .debug_str:0000000000017d1f .LASF1009
C:\Users\CYMR90~1\AppData\Local\Temp\cca5ocgO.s:25175  .debug_str:00000000000186d8 .LASF1010
C:\Users\CYMR90~1\AppData\Local\Temp\cca5ocgO.s:22530  .debug_str:000000000000df19 .LASF1011
C:\Users\CYMR90~1\AppData\Local\Temp\cca5ocgO.s:26311  .debug_str:000000000001d3c2 .LASF1012
C:\Users\CYMR90~1\AppData\Local\Temp\cca5ocgO.s:22720  .debug_str:000000000000eaf6 .LASF1013
C:\Users\CYMR90~1\AppData\Local\Temp\cca5ocgO.s:25433  .debug_str:00000000000198a3 .LASF1014
C:\Users\CYMR90~1\AppData\Local\Temp\cca5ocgO.s:22144  .debug_str:000000000000c5de .LASF1015
C:\Users\CYMR90~1\AppData\Local\Temp\cca5ocgO.s:20468  .debug_str:00000000000059aa .LASF1016
C:\Users\CYMR90~1\AppData\Local\Temp\cca5ocgO.s:20424  .debug_str:0000000000005743 .LASF1017
C:\Users\CYMR90~1\AppData\Local\Temp\cca5ocgO.s:28815  .debug_str:0000000000027090 .LASF1018
C:\Users\CYMR90~1\AppData\Local\Temp\cca5ocgO.s:22766  .debug_str:000000000000edd4 .LASF1019
C:\Users\CYMR90~1\AppData\Local\Temp\cca5ocgO.s:19668  .debug_str:000000000000260f .LASF1020
C:\Users\CYMR90~1\AppData\Local\Temp\cca5ocgO.s:25053  .debug_str:0000000000017f8d .LASF1021
C:\Users\CYMR90~1\AppData\Local\Temp\cca5ocgO.s:22072  .debug_str:000000000000c1a3 .LASF1022
C:\Users\CYMR90~1\AppData\Local\Temp\cca5ocgO.s:28735  .debug_str:0000000000026b76 .LASF1023
C:\Users\CYMR90~1\AppData\Local\Temp\cca5ocgO.s:21312  .debug_str:0000000000009062 .LASF1024
C:\Users\CYMR90~1\AppData\Local\Temp\cca5ocgO.s:23788  .debug_str:0000000000012ea2 .LASF1025
C:\Users\CYMR90~1\AppData\Local\Temp\cca5ocgO.s:23286  .debug_str:0000000000010dab .LASF1026
C:\Users\CYMR90~1\AppData\Local\Temp\cca5ocgO.s:24228  .debug_str:0000000000014aa6 .LASF1027
C:\Users\CYMR90~1\AppData\Local\Temp\cca5ocgO.s:26389  .debug_str:000000000001d8a5 .LASF1028
C:\Users\CYMR90~1\AppData\Local\Temp\cca5ocgO.s:26765  .debug_str:000000000001eff8 .LASF1029
C:\Users\CYMR90~1\AppData\Local\Temp\cca5ocgO.s:28033  .debug_str:0000000000023ccc .LASF1030
C:\Users\CYMR90~1\AppData\Local\Temp\cca5ocgO.s:27125  .debug_str:0000000000020657 .LASF1031
C:\Users\CYMR90~1\AppData\Local\Temp\cca5ocgO.s:29373  .debug_str:0000000000029537 .LASF1032
C:\Users\CYMR90~1\AppData\Local\Temp\cca5ocgO.s:21458  .debug_str:0000000000009947 .LASF1033
C:\Users\CYMR90~1\AppData\Local\Temp\cca5ocgO.s:20326  .debug_str:0000000000005150 .LASF1034
C:\Users\CYMR90~1\AppData\Local\Temp\cca5ocgO.s:25365  .debug_str:0000000000019408 .LASF1035
C:\Users\CYMR90~1\AppData\Local\Temp\cca5ocgO.s:25615  .debug_str:000000000001a5af .LASF1036
C:\Users\CYMR90~1\AppData\Local\Temp\cca5ocgO.s:27829  .debug_str:000000000002307c .LASF1037
C:\Users\CYMR90~1\AppData\Local\Temp\cca5ocgO.s:22942  .debug_str:000000000000f90b .LASF1038
C:\Users\CYMR90~1\AppData\Local\Temp\cca5ocgO.s:26491  .debug_str:000000000001df7d .LASF1039
C:\Users\CYMR90~1\AppData\Local\Temp\cca5ocgO.s:24400  .debug_str:00000000000155d1 .LASF1040
C:\Users\CYMR90~1\AppData\Local\Temp\cca5ocgO.s:22848  .debug_str:000000000000f2b5 .LASF1041
C:\Users\CYMR90~1\AppData\Local\Temp\cca5ocgO.s:28551  .debug_str:000000000002606f .LASF1042
C:\Users\CYMR90~1\AppData\Local\Temp\cca5ocgO.s:23102  .debug_str:000000000001022b .LASF1043
C:\Users\CYMR90~1\AppData\Local\Temp\cca5ocgO.s:19070  .debug_str:0000000000000193 .LASF1044
C:\Users\CYMR90~1\AppData\Local\Temp\cca5ocgO.s:21324  .debug_str:00000000000090e9 .LASF1045
C:\Users\CYMR90~1\AppData\Local\Temp\cca5ocgO.s:25835  .debug_str:000000000001b43c .LASF1046
C:\Users\CYMR90~1\AppData\Local\Temp\cca5ocgO.s:24646  .debug_str:00000000000164e8 .LASF1047
C:\Users\CYMR90~1\AppData\Local\Temp\cca5ocgO.s:27875  .debug_str:0000000000023315 .LASF1048
C:\Users\CYMR90~1\AppData\Local\Temp\cca5ocgO.s:26729  .debug_str:000000000001edbb .LASF1049
C:\Users\CYMR90~1\AppData\Local\Temp\cca5ocgO.s:19844  .debug_str:0000000000003173 .LASF1050
C:\Users\CYMR90~1\AppData\Local\Temp\cca5ocgO.s:26741  .debug_str:000000000001ee72 .LASF1051
C:\Users\CYMR90~1\AppData\Local\Temp\cca5ocgO.s:26937  .debug_str:000000000001faa5 .LASF1052
C:\Users\CYMR90~1\AppData\Local\Temp\cca5ocgO.s:21818  .debug_str:000000000000b0b1 .LASF1053
C:\Users\CYMR90~1\AppData\Local\Temp\cca5ocgO.s:27775  .debug_str:0000000000022d9e .LASF1054
C:\Users\CYMR90~1\AppData\Local\Temp\cca5ocgO.s:23764  .debug_str:0000000000012d08 .LASF1055
C:\Users\CYMR90~1\AppData\Local\Temp\cca5ocgO.s:22700  .debug_str:000000000000e9b1 .LASF1056
C:\Users\CYMR90~1\AppData\Local\Temp\cca5ocgO.s:28995  .debug_str:0000000000027c7e .LASF1057
C:\Users\CYMR90~1\AppData\Local\Temp\cca5ocgO.s:29583  .debug_str:000000000002a156 .LASF1058
C:\Users\CYMR90~1\AppData\Local\Temp\cca5ocgO.s:28315  .debug_str:0000000000025061 .LASF1059
C:\Users\CYMR90~1\AppData\Local\Temp\cca5ocgO.s:19524  .debug_str:0000000000001de8 .LASF1060
C:\Users\CYMR90~1\AppData\Local\Temp\cca5ocgO.s:21134  .debug_str:0000000000008543 .LASF1061
C:\Users\CYMR90~1\AppData\Local\Temp\cca5ocgO.s:19202  .debug_str:000000000000096e .LASF1062
C:\Users\CYMR90~1\AppData\Local\Temp\cca5ocgO.s:24140  .debug_str:0000000000014508 .LASF1063
C:\Users\CYMR90~1\AppData\Local\Temp\cca5ocgO.s:20046  .debug_str:0000000000003e6a .LASF1064
C:\Users\CYMR90~1\AppData\Local\Temp\cca5ocgO.s:19140  .debug_str:000000000000059c .LASF1065
C:\Users\CYMR90~1\AppData\Local\Temp\cca5ocgO.s:30257  .debug_str:000000000002cdd4 .LASF1066
C:\Users\CYMR90~1\AppData\Local\Temp\cca5ocgO.s:21326  .debug_str:0000000000009101 .LASF1067
C:\Users\CYMR90~1\AppData\Local\Temp\cca5ocgO.s:24712  .debug_str:00000000000168bb .LASF1068
C:\Users\CYMR90~1\AppData\Local\Temp\cca5ocgO.s:26283  .debug_str:000000000001d1fc .LASF1069
C:\Users\CYMR90~1\AppData\Local\Temp\cca5ocgO.s:19256  .debug_str:0000000000000cfb .LASF1070
C:\Users\CYMR90~1\AppData\Local\Temp\cca5ocgO.s:21586  .debug_str:000000000000a14d .LASF1071
C:\Users\CYMR90~1\AppData\Local\Temp\cca5ocgO.s:27683  .debug_str:00000000000227f0 .LASF1072
C:\Users\CYMR90~1\AppData\Local\Temp\cca5ocgO.s:26247  .debug_str:000000000001cf56 .LASF1073
C:\Users\CYMR90~1\AppData\Local\Temp\cca5ocgO.s:29243  .debug_str:0000000000028d14 .LASF1074
C:\Users\CYMR90~1\AppData\Local\Temp\cca5ocgO.s:24859  .debug_str:000000000001739a .LASF1075
C:\Users\CYMR90~1\AppData\Local\Temp\cca5ocgO.s:19710  .debug_str:0000000000002902 .LASF1076
C:\Users\CYMR90~1\AppData\Local\Temp\cca5ocgO.s:29667  .debug_str:000000000002a6c2 .LASF1077
C:\Users\CYMR90~1\AppData\Local\Temp\cca5ocgO.s:20646  .debug_str:0000000000006499 .LASF1078
C:\Users\CYMR90~1\AppData\Local\Temp\cca5ocgO.s:27169  .debug_str:00000000000208fd .LASF1079
C:\Users\CYMR90~1\AppData\Local\Temp\cca5ocgO.s:22544  .debug_str:000000000000dfef .LASF1080
C:\Users\CYMR90~1\AppData\Local\Temp\cca5ocgO.s:26049  .debug_str:000000000001c21a .LASF1081
C:\Users\CYMR90~1\AppData\Local\Temp\cca5ocgO.s:28849  .debug_str:000000000002733c .LASF1082
C:\Users\CYMR90~1\AppData\Local\Temp\cca5ocgO.s:24338  .debug_str:000000000001522e .LASF1083
C:\Users\CYMR90~1\AppData\Local\Temp\cca5ocgO.s:27377  .debug_str:00000000000215f2 .LASF1084
C:\Users\CYMR90~1\AppData\Local\Temp\cca5ocgO.s:20346  .debug_str:0000000000005290 .LASF1085
C:\Users\CYMR90~1\AppData\Local\Temp\cca5ocgO.s:19468  .debug_str:0000000000001a8b .LASF1086
C:\Users\CYMR90~1\AppData\Local\Temp\cca5ocgO.s:22578  .debug_str:000000000000e1f8 .LASF1087
C:\Users\CYMR90~1\AppData\Local\Temp\cca5ocgO.s:28557  .debug_str:00000000000260d0 .LASF1088
C:\Users\CYMR90~1\AppData\Local\Temp\cca5ocgO.s:27675  .debug_str:000000000002277b .LASF1089
C:\Users\CYMR90~1\AppData\Local\Temp\cca5ocgO.s:19312  .debug_str:00000000000010ac .LASF1090
C:\Users\CYMR90~1\AppData\Local\Temp\cca5ocgO.s:30197  .debug_str:000000000002c9a3 .LASF1091
C:\Users\CYMR90~1\AppData\Local\Temp\cca5ocgO.s:28959  .debug_str:0000000000027a3f .LASF1092
C:\Users\CYMR90~1\AppData\Local\Temp\cca5ocgO.s:22920  .debug_str:000000000000f6fa .LASF1093
C:\Users\CYMR90~1\AppData\Local\Temp\cca5ocgO.s:28601  .debug_str:0000000000026335 .LASF1094
C:\Users\CYMR90~1\AppData\Local\Temp\cca5ocgO.s:24416  .debug_str:0000000000015682 .LASF1095
C:\Users\CYMR90~1\AppData\Local\Temp\cca5ocgO.s:25863  .debug_str:000000000001b684 .LASF1096
C:\Users\CYMR90~1\AppData\Local\Temp\cca5ocgO.s:26393  .debug_str:000000000001d8f7 .LASF1097
C:\Users\CYMR90~1\AppData\Local\Temp\cca5ocgO.s:20634  .debug_str:00000000000063e6 .LASF1098
C:\Users\CYMR90~1\AppData\Local\Temp\cca5ocgO.s:23784  .debug_str:0000000000012e3f .LASF1099
C:\Users\CYMR90~1\AppData\Local\Temp\cca5ocgO.s:23094  .debug_str:00000000000101ab .LASF1100
C:\Users\CYMR90~1\AppData\Local\Temp\cca5ocgO.s:27949  .debug_str:0000000000023804 .LASF1101
C:\Users\CYMR90~1\AppData\Local\Temp\cca5ocgO.s:26243  .debug_str:000000000001cf25 .LASF1102
C:\Users\CYMR90~1\AppData\Local\Temp\cca5ocgO.s:27621  .debug_str:000000000002244f .LASF1103
C:\Users\CYMR90~1\AppData\Local\Temp\cca5ocgO.s:29189  .debug_str:0000000000028a21 .LASF1104
C:\Users\CYMR90~1\AppData\Local\Temp\cca5ocgO.s:27063  .debug_str:000000000002025b .LASF1105
C:\Users\CYMR90~1\AppData\Local\Temp\cca5ocgO.s:23968  .debug_str:0000000000013a6c .LASF1106
C:\Users\CYMR90~1\AppData\Local\Temp\cca5ocgO.s:27871  .debug_str:00000000000232df .LASF1107
C:\Users\CYMR90~1\AppData\Local\Temp\cca5ocgO.s:25781  .debug_str:000000000001b0b3 .LASF1108
C:\Users\CYMR90~1\AppData\Local\Temp\cca5ocgO.s:20650  .debug_str:00000000000064d5 .LASF1109
C:\Users\CYMR90~1\AppData\Local\Temp\cca5ocgO.s:21616  .debug_str:000000000000a326 .LASF1110
C:\Users\CYMR90~1\AppData\Local\Temp\cca5ocgO.s:19536  .debug_str:0000000000001e98 .LASF1111
C:\Users\CYMR90~1\AppData\Local\Temp\cca5ocgO.s:20730  .debug_str:00000000000069d5 .LASF1112
C:\Users\CYMR90~1\AppData\Local\Temp\cca5ocgO.s:21842  .debug_str:000000000000b225 .LASF1113
C:\Users\CYMR90~1\AppData\Local\Temp\cca5ocgO.s:25075  .debug_str:000000000001809f .LASF1114
C:\Users\CYMR90~1\AppData\Local\Temp\cca5ocgO.s:21408  .debug_str:000000000000960e .LASF1115
C:\Users\CYMR90~1\AppData\Local\Temp\cca5ocgO.s:29037  .debug_str:0000000000027f59 .LASF1116
C:\Users\CYMR90~1\AppData\Local\Temp\cca5ocgO.s:29533  .debug_str:0000000000029e91 .LASF1117
C:\Users\CYMR90~1\AppData\Local\Temp\cca5ocgO.s:20552  .debug_str:0000000000005eb9 .LASF1118
C:\Users\CYMR90~1\AppData\Local\Temp\cca5ocgO.s:25031  .debug_str:0000000000017e1b .LASF1119
C:\Users\CYMR90~1\AppData\Local\Temp\cca5ocgO.s:21100  .debug_str:000000000000831b .LASF1120
C:\Users\CYMR90~1\AppData\Local\Temp\cca5ocgO.s:21306  .debug_str:0000000000009001 .LASF1121
C:\Users\CYMR90~1\AppData\Local\Temp\cca5ocgO.s:23902  .debug_str:0000000000013680 .LASF1122
C:\Users\CYMR90~1\AppData\Local\Temp\cca5ocgO.s:23538  .debug_str:0000000000011e22 .LASF1123
C:\Users\CYMR90~1\AppData\Local\Temp\cca5ocgO.s:27143  .debug_str:000000000002075f .LASF1124
C:\Users\CYMR90~1\AppData\Local\Temp\cca5ocgO.s:24342  .debug_str:0000000000015257 .LASF1125
C:\Users\CYMR90~1\AppData\Local\Temp\cca5ocgO.s:24438  .debug_str:00000000000157d4 .LASF1126
C:\Users\CYMR90~1\AppData\Local\Temp\cca5ocgO.s:27765  .debug_str:0000000000022d00 .LASF1127
C:\Users\CYMR90~1\AppData\Local\Temp\cca5ocgO.s:28845  .debug_str:000000000002730e .LASF1128
C:\Users\CYMR90~1\AppData\Local\Temp\cca5ocgO.s:20436  .debug_str:00000000000057e7 .LASF1129
C:\Users\CYMR90~1\AppData\Local\Temp\cca5ocgO.s:24436  .debug_str:00000000000157bf .LASF1130
C:\Users\CYMR90~1\AppData\Local\Temp\cca5ocgO.s:29221  .debug_str:0000000000028bb9 .LASF1131
C:\Users\CYMR90~1\AppData\Local\Temp\cca5ocgO.s:29769  .debug_str:000000000002acde .LASF1132
C:\Users\CYMR90~1\AppData\Local\Temp\cca5ocgO.s:25145  .debug_str:00000000000184fb .LASF1133
C:\Users\CYMR90~1\AppData\Local\Temp\cca5ocgO.s:27921  .debug_str:0000000000023612 .LASF1134
C:\Users\CYMR90~1\AppData\Local\Temp\cca5ocgO.s:20988  .debug_str:0000000000007ad6 .LASF1135
C:\Users\CYMR90~1\AppData\Local\Temp\cca5ocgO.s:20216  .debug_str:0000000000004a81 .LASF1136
C:\Users\CYMR90~1\AppData\Local\Temp\cca5ocgO.s:20052  .debug_str:0000000000003ea3 .LASF1137
C:\Users\CYMR90~1\AppData\Local\Temp\cca5ocgO.s:29379  .debug_str:0000000000029596 .LASF1138
C:\Users\CYMR90~1\AppData\Local\Temp\cca5ocgO.s:26525  .debug_str:000000000001e16e .LASF1139
C:\Users\CYMR90~1\AppData\Local\Temp\cca5ocgO.s:26427  .debug_str:000000000001db1a .LASF1140
C:\Users\CYMR90~1\AppData\Local\Temp\cca5ocgO.s:19114  .debug_str:0000000000000452 .LASF1141
C:\Users\CYMR90~1\AppData\Local\Temp\cca5ocgO.s:23334  .debug_str:0000000000011059 .LASF1142
C:\Users\CYMR90~1\AppData\Local\Temp\cca5ocgO.s:22586  .debug_str:000000000000e284 .LASF1143
C:\Users\CYMR90~1\AppData\Local\Temp\cca5ocgO.s:28903  .debug_str:0000000000027642 .LASF1144
C:\Users\CYMR90~1\AppData\Local\Temp\cca5ocgO.s:27103  .debug_str:000000000002048f .LASF1145
C:\Users\CYMR90~1\AppData\Local\Temp\cca5ocgO.s:22112  .debug_str:000000000000c416 .LASF1146
C:\Users\CYMR90~1\AppData\Local\Temp\cca5ocgO.s:30193  .debug_str:000000000002c961 .LASF1147
C:\Users\CYMR90~1\AppData\Local\Temp\cca5ocgO.s:24887  .debug_str:0000000000017527 .LASF1148
C:\Users\CYMR90~1\AppData\Local\Temp\cca5ocgO.s:25153  .debug_str:00000000000185a8 .LASF1149
C:\Users\CYMR90~1\AppData\Local\Temp\cca5ocgO.s:25881  .debug_str:000000000001b790 .LASF1150
C:\Users\CYMR90~1\AppData\Local\Temp\cca5ocgO.s:19538  .debug_str:0000000000001eb6 .LASF1151
C:\Users\CYMR90~1\AppData\Local\Temp\cca5ocgO.s:26301  .debug_str:000000000001d32d .LASF1152
C:\Users\CYMR90~1\AppData\Local\Temp\cca5ocgO.s:21432  .debug_str:000000000000974d .LASF1153
C:\Users\CYMR90~1\AppData\Local\Temp\cca5ocgO.s:27391  .debug_str:00000000000216a4 .LASF1154
C:\Users\CYMR90~1\AppData\Local\Temp\cca5ocgO.s:26651  .debug_str:000000000001e942 .LASF1155
C:\Users\CYMR90~1\AppData\Local\Temp\cca5ocgO.s:24258  .debug_str:0000000000014c9e .LASF1156
C:\Users\CYMR90~1\AppData\Local\Temp\cca5ocgO.s:26485  .debug_str:000000000001df02 .LASF1157
C:\Users\CYMR90~1\AppData\Local\Temp\cca5ocgO.s:21860  .debug_str:000000000000b31c .LASF1158
C:\Users\CYMR90~1\AppData\Local\Temp\cca5ocgO.s:29551  .debug_str:0000000000029fba .LASF1159
C:\Users\CYMR90~1\AppData\Local\Temp\cca5ocgO.s:19418  .debug_str:00000000000016d1 .LASF1160
C:\Users\CYMR90~1\AppData\Local\Temp\cca5ocgO.s:29629  .debug_str:000000000002a459 .LASF1161
C:\Users\CYMR90~1\AppData\Local\Temp\cca5ocgO.s:29321  .debug_str:00000000000291e7 .LASF1162
C:\Users\CYMR90~1\AppData\Local\Temp\cca5ocgO.s:26379  .debug_str:000000000001d822 .LASF1163
C:\Users\CYMR90~1\AppData\Local\Temp\cca5ocgO.s:25517  .debug_str:0000000000019e68 .LASF1164
C:\Users\CYMR90~1\AppData\Local\Temp\cca5ocgO.s:22404  .debug_str:000000000000d7cd .LASF1165
C:\Users\CYMR90~1\AppData\Local\Temp\cca5ocgO.s:27033  .debug_str:00000000000200ba .LASF1166
C:\Users\CYMR90~1\AppData\Local\Temp\cca5ocgO.s:23294  .debug_str:0000000000010e14 .LASF1167
C:\Users\CYMR90~1\AppData\Local\Temp\cca5ocgO.s:21430  .debug_str:0000000000009743 .LASF1168
C:\Users\CYMR90~1\AppData\Local\Temp\cca5ocgO.s:24378  .debug_str:000000000001547a .LASF1169
C:\Users\CYMR90~1\AppData\Local\Temp\cca5ocgO.s:25721  .debug_str:000000000001ac9a .LASF1170
C:\Users\CYMR90~1\AppData\Local\Temp\cca5ocgO.s:25435  .debug_str:00000000000198ba .LASF1171
C:\Users\CYMR90~1\AppData\Local\Temp\cca5ocgO.s:29577  .debug_str:000000000002a124 .LASF1172
C:\Users\CYMR90~1\AppData\Local\Temp\cca5ocgO.s:24656  .debug_str:0000000000016571 .LASF1173
C:\Users\CYMR90~1\AppData\Local\Temp\cca5ocgO.s:19236  .debug_str:0000000000000bfb .LASF1174
C:\Users\CYMR90~1\AppData\Local\Temp\cca5ocgO.s:19648  .debug_str:00000000000024d0 .LASF1175
C:\Users\CYMR90~1\AppData\Local\Temp\cca5ocgO.s:23874  .debug_str:00000000000134c9 .LASF1176
C:\Users\CYMR90~1\AppData\Local\Temp\cca5ocgO.s:22218  .debug_str:000000000000cc2d .LASF1177
C:\Users\CYMR90~1\AppData\Local\Temp\cca5ocgO.s:26437  .debug_str:000000000001dbb3 .LASF1178
C:\Users\CYMR90~1\AppData\Local\Temp\cca5ocgO.s:22816  .debug_str:000000000000f0ad .LASF1179
C:\Users\CYMR90~1\AppData\Local\Temp\cca5ocgO.s:22392  .debug_str:000000000000d73b .LASF1180
C:\Users\CYMR90~1\AppData\Local\Temp\cca5ocgO.s:28123  .debug_str:000000000002439b .LASF1181
C:\Users\CYMR90~1\AppData\Local\Temp\cca5ocgO.s:29327  .debug_str:000000000002921f .LASF1182
C:\Users\CYMR90~1\AppData\Local\Temp\cca5ocgO.s:19810  .debug_str:0000000000002f15 .LASF1183
C:\Users\CYMR90~1\AppData\Local\Temp\cca5ocgO.s:26753  .debug_str:000000000001ef2d .LASF1184
C:\Users\CYMR90~1\AppData\Local\Temp\cca5ocgO.s:27199  .debug_str:0000000000020aaf .LASF1185
C:\Users\CYMR90~1\AppData\Local\Temp\cca5ocgO.s:28357  .debug_str:0000000000025390 .LASF1186
C:\Users\CYMR90~1\AppData\Local\Temp\cca5ocgO.s:19540  .debug_str:0000000000001ecf .LASF1187
C:\Users\CYMR90~1\AppData\Local\Temp\cca5ocgO.s:20446  .debug_str:0000000000005877 .LASF1188
C:\Users\CYMR90~1\AppData\Local\Temp\cca5ocgO.s:27665  .debug_str:00000000000226de .LASF1189
C:\Users\CYMR90~1\AppData\Local\Temp\cca5ocgO.s:20992  .debug_str:0000000000007b07 .LASF1190
C:\Users\CYMR90~1\AppData\Local\Temp\cca5ocgO.s:27711  .debug_str:0000000000022987 .LASF1191
C:\Users\CYMR90~1\AppData\Local\Temp\cca5ocgO.s:22192  .debug_str:000000000000c97b .LASF1192
C:\Users\CYMR90~1\AppData\Local\Temp\cca5ocgO.s:27379  .debug_str:0000000000021604 .LASF1193
C:\Users\CYMR90~1\AppData\Local\Temp\cca5ocgO.s:22436  .debug_str:000000000000d982 .LASF1194
C:\Users\CYMR90~1\AppData\Local\Temp\cca5ocgO.s:25979  .debug_str:000000000001bd6e .LASF1195
C:\Users\CYMR90~1\AppData\Local\Temp\cca5ocgO.s:24018  .debug_str:0000000000013d88 .LASF1196
C:\Users\CYMR90~1\AppData\Local\Temp\cca5ocgO.s:27413  .debug_str:000000000002181f .LASF1197
C:\Users\CYMR90~1\AppData\Local\Temp\cca5ocgO.s:29575  .debug_str:000000000002a115 .LASF1198
C:\Users\CYMR90~1\AppData\Local\Temp\cca5ocgO.s:24682  .debug_str:00000000000166e6 .LASF1199
C:\Users\CYMR90~1\AppData\Local\Temp\cca5ocgO.s:29581  .debug_str:000000000002a14b .LASF1200
C:\Users\CYMR90~1\AppData\Local\Temp\cca5ocgO.s:21676  .debug_str:000000000000a6dd .LASF1201
C:\Users\CYMR90~1\AppData\Local\Temp\cca5ocgO.s:21342  .debug_str:000000000000920d .LASF1202
C:\Users\CYMR90~1\AppData\Local\Temp\cca5ocgO.s:24875  .debug_str:0000000000017485 .LASF1203
C:\Users\CYMR90~1\AppData\Local\Temp\cca5ocgO.s:28675  .debug_str:00000000000267ff .LASF1204
C:\Users\CYMR90~1\AppData\Local\Temp\cca5ocgO.s:23928  .debug_str:0000000000013840 .LASF1205
C:\Users\CYMR90~1\AppData\Local\Temp\cca5ocgO.s:22980  .debug_str:000000000000fb3f .LASF1206
C:\Users\CYMR90~1\AppData\Local\Temp\cca5ocgO.s:29547  .debug_str:0000000000029f88 .LASF1207
C:\Users\CYMR90~1\AppData\Local\Temp\cca5ocgO.s:28213  .debug_str:0000000000024998 .LASF1208
C:\Users\CYMR90~1\AppData\Local\Temp\cca5ocgO.s:22912  .debug_str:000000000000f69d .LASF1209
C:\Users\CYMR90~1\AppData\Local\Temp\cca5ocgO.s:20340  .debug_str:0000000000005228 .LASF1210
C:\Users\CYMR90~1\AppData\Local\Temp\cca5ocgO.s:20438  .debug_str:00000000000057fd .LASF1211
C:\Users\CYMR90~1\AppData\Local\Temp\cca5ocgO.s:21138  .debug_str:0000000000008587 .LASF1212
C:\Users\CYMR90~1\AppData\Local\Temp\cca5ocgO.s:20724  .debug_str:0000000000006963 .LASF1213
C:\Users\CYMR90~1\AppData\Local\Temp\cca5ocgO.s:19658  .debug_str:000000000000258c .LASF1214
C:\Users\CYMR90~1\AppData\Local\Temp\cca5ocgO.s:21474  .debug_str:0000000000009a61 .LASF1215
C:\Users\CYMR90~1\AppData\Local\Temp\cca5ocgO.s:19596  .debug_str:00000000000021bd .LASF1216
C:\Users\CYMR90~1\AppData\Local\Temp\cca5ocgO.s:27825  .debug_str:000000000002304f .LASF1217
C:\Users\CYMR90~1\AppData\Local\Temp\cca5ocgO.s:27841  .debug_str:000000000002311e .LASF1218
C:\Users\CYMR90~1\AppData\Local\Temp\cca5ocgO.s:28267  .debug_str:0000000000024d40 .LASF1219
C:\Users\CYMR90~1\AppData\Local\Temp\cca5ocgO.s:25867  .debug_str:000000000001b6b8 .LASF1220
C:\Users\CYMR90~1\AppData\Local\Temp\cca5ocgO.s:22478  .debug_str:000000000000dbd1 .LASF1221
C:\Users\CYMR90~1\AppData\Local\Temp\cca5ocgO.s:24188  .debug_str:0000000000014871 .LASF1222
C:\Users\CYMR90~1\AppData\Local\Temp\cca5ocgO.s:19830  .debug_str:0000000000003056 .LASF1223
C:\Users\CYMR90~1\AppData\Local\Temp\cca5ocgO.s:25609  .debug_str:000000000001a579 .LASF1224
C:\Users\CYMR90~1\AppData\Local\Temp\cca5ocgO.s:28867  .debug_str:0000000000027457 .LASF1225
C:\Users\CYMR90~1\AppData\Local\Temp\cca5ocgO.s:21946  .debug_str:000000000000b8f0 .LASF1226
C:\Users\CYMR90~1\AppData\Local\Temp\cca5ocgO.s:20874  .debug_str:0000000000007365 .LASF1227
C:\Users\CYMR90~1\AppData\Local\Temp\cca5ocgO.s:19922  .debug_str:0000000000003651 .LASF1228
C:\Users\CYMR90~1\AppData\Local\Temp\cca5ocgO.s:30245  .debug_str:000000000002cd16 .LASF1229
C:\Users\CYMR90~1\AppData\Local\Temp\cca5ocgO.s:29303  .debug_str:00000000000290d7 .LASF1230
C:\Users\CYMR90~1\AppData\Local\Temp\cca5ocgO.s:28323  .debug_str:00000000000250d8 .LASF1231
C:\Users\CYMR90~1\AppData\Local\Temp\cca5ocgO.s:27367  .debug_str:000000000002155a .LASF1232
C:\Users\CYMR90~1\AppData\Local\Temp\cca5ocgO.s:27257  .debug_str:0000000000020e55 .LASF1233
C:\Users\CYMR90~1\AppData\Local\Temp\cca5ocgO.s:26319  .debug_str:000000000001d425 .LASF1234
C:\Users\CYMR90~1\AppData\Local\Temp\cca5ocgO.s:25393  .debug_str:00000000000195dd .LASF1235
C:\Users\CYMR90~1\AppData\Local\Temp\cca5ocgO.s:23800  .debug_str:0000000000012f79 .LASF1236
C:\Users\CYMR90~1\AppData\Local\Temp\cca5ocgO.s:23452  .debug_str:0000000000011863 .LASF1237
C:\Users\CYMR90~1\AppData\Local\Temp\cca5ocgO.s:24771  .debug_str:0000000000016e68 .LASF1238
C:\Users\CYMR90~1\AppData\Local\Temp\cca5ocgO.s:21546  .debug_str:0000000000009eac .LASF1239
C:\Users\CYMR90~1\AppData\Local\Temp\cca5ocgO.s:20548  .debug_str:0000000000005e78 .LASF1240
C:\Users\CYMR90~1\AppData\Local\Temp\cca5ocgO.s:19614  .debug_str:00000000000022c2 .LASF1241
C:\Users\CYMR90~1\AppData\Local\Temp\cca5ocgO.s:29967  .debug_str:000000000002b9f9 .LASF1242
C:\Users\CYMR90~1\AppData\Local\Temp\cca5ocgO.s:19128  .debug_str:0000000000000506 .LASF1243
C:\Users\CYMR90~1\AppData\Local\Temp\cca5ocgO.s:29447  .debug_str:00000000000299ad .LASF1244
C:\Users\CYMR90~1\AppData\Local\Temp\cca5ocgO.s:28467  .debug_str:0000000000025b3e .LASF1245
C:\Users\CYMR90~1\AppData\Local\Temp\cca5ocgO.s:27523  .debug_str:0000000000021edf .LASF1246
C:\Users\CYMR90~1\AppData\Local\Temp\cca5ocgO.s:26561  .debug_str:000000000001e38c .LASF1247
C:\Users\CYMR90~1\AppData\Local\Temp\cca5ocgO.s:25661  .debug_str:000000000001a8ee .LASF1248
C:\Users\CYMR90~1\AppData\Local\Temp\cca5ocgO.s:24724  .debug_str:00000000000169c5 .LASF1249
C:\Users\CYMR90~1\AppData\Local\Temp\cca5ocgO.s:24891  .debug_str:0000000000017588 .LASF1250
C:\Users\CYMR90~1\AppData\Local\Temp\cca5ocgO.s:22822  .debug_str:000000000000f0f9 .LASF1251
C:\Users\CYMR90~1\AppData\Local\Temp\cca5ocgO.s:24993  .debug_str:0000000000017c0e .LASF1252
C:\Users\CYMR90~1\AppData\Local\Temp\cca5ocgO.s:22332  .debug_str:000000000000d2dd .LASF1253
C:\Users\CYMR90~1\AppData\Local\Temp\cca5ocgO.s:21356  .debug_str:00000000000092dc .LASF1254
C:\Users\CYMR90~1\AppData\Local\Temp\cca5ocgO.s:19374  .debug_str:000000000000144b .LASF1255
C:\Users\CYMR90~1\AppData\Local\Temp\cca5ocgO.s:22248  .debug_str:000000000000cdba .LASF1256
C:\Users\CYMR90~1\AppData\Local\Temp\cca5ocgO.s:20500  .debug_str:0000000000005bdf .LASF1257
C:\Users\CYMR90~1\AppData\Local\Temp\cca5ocgO.s:25269  .debug_str:0000000000018d81 .LASF1258
C:\Users\CYMR90~1\AppData\Local\Temp\cca5ocgO.s:25271  .debug_str:0000000000018d94 .LASF1259
C:\Users\CYMR90~1\AppData\Local\Temp\cca5ocgO.s:27715  .debug_str:00000000000229b7 .LASF1260
C:\Users\CYMR90~1\AppData\Local\Temp\cca5ocgO.s:25861  .debug_str:000000000001b671 .LASF1261
C:\Users\CYMR90~1\AppData\Local\Temp\cca5ocgO.s:23264  .debug_str:0000000000010cac .LASF1262
C:\Users\CYMR90~1\AppData\Local\Temp\cca5ocgO.s:20396  .debug_str:0000000000005586 .LASF1263
C:\Users\CYMR90~1\AppData\Local\Temp\cca5ocgO.s:22560  .debug_str:000000000000e0d5 .LASF1264
C:\Users\CYMR90~1\AppData\Local\Temp\cca5ocgO.s:24748  .debug_str:0000000000016b45 .LASF1265
C:\Users\CYMR90~1\AppData\Local\Temp\cca5ocgO.s:22610  .debug_str:000000000000e3ec .LASF1266
C:\Users\CYMR90~1\AppData\Local\Temp\cca5ocgO.s:27741  .debug_str:0000000000022bbd .LASF1267
C:\Users\CYMR90~1\AppData\Local\Temp\cca5ocgO.s:27915  .debug_str:00000000000235c8 .LASF1268
C:\Users\CYMR90~1\AppData\Local\Temp\cca5ocgO.s:23396  .debug_str:00000000000113ff .LASF1269
C:\Users\CYMR90~1\AppData\Local\Temp\cca5ocgO.s:30021  .debug_str:000000000002bd88 .LASF1270
C:\Users\CYMR90~1\AppData\Local\Temp\cca5ocgO.s:24995  .debug_str:0000000000017c25 .LASF1271
C:\Users\CYMR90~1\AppData\Local\Temp\cca5ocgO.s:29407  .debug_str:000000000002973e .LASF1272
C:\Users\CYMR90~1\AppData\Local\Temp\cca5ocgO.s:26439  .debug_str:000000000001dbc0 .LASF1273
C:\Users\CYMR90~1\AppData\Local\Temp\cca5ocgO.s:19192  .debug_str:00000000000008e0 .LASF1274
C:\Users\CYMR90~1\AppData\Local\Temp\cca5ocgO.s:25279  .debug_str:0000000000018e17 .LASF1275
C:\Users\CYMR90~1\AppData\Local\Temp\cca5ocgO.s:19302  .debug_str:0000000000001028 .LASF1276
C:\Users\CYMR90~1\AppData\Local\Temp\cca5ocgO.s:21568  .debug_str:000000000000a029 .LASF1277
C:\Users\CYMR90~1\AppData\Local\Temp\cca5ocgO.s:20566  .debug_str:0000000000005f93 .LASF1278
C:\Users\CYMR90~1\AppData\Local\Temp\cca5ocgO.s:19646  .debug_str:00000000000024be .LASF1279
C:\Users\CYMR90~1\AppData\Local\Temp\cca5ocgO.s:29987  .debug_str:000000000002bb5a .LASF1280
C:\Users\CYMR90~1\AppData\Local\Temp\cca5ocgO.s:20456  .debug_str:0000000000005919 .LASF1281
C:\Users\CYMR90~1\AppData\Local\Temp\cca5ocgO.s:19526  .debug_str:0000000000001e05 .LASF1282
C:\Users\CYMR90~1\AppData\Local\Temp\cca5ocgO.s:26601  .debug_str:000000000001e606 .LASF1283
C:\Users\CYMR90~1\AppData\Local\Temp\cca5ocgO.s:19264  .debug_str:0000000000000d73 .LASF1284
C:\Users\CYMR90~1\AppData\Local\Temp\cca5ocgO.s:27939  .debug_str:000000000002377e .LASF1285
C:\Users\CYMR90~1\AppData\Local\Temp\cca5ocgO.s:26979  .debug_str:000000000001fd29 .LASF1286
C:\Users\CYMR90~1\AppData\Local\Temp\cca5ocgO.s:26043  .debug_str:000000000001c19b .LASF1287
C:\Users\CYMR90~1\AppData\Local\Temp\cca5ocgO.s:25105  .debug_str:000000000001829d .LASF1288
C:\Users\CYMR90~1\AppData\Local\Temp\cca5ocgO.s:24128  .debug_str:000000000001447a .LASF1289
C:\Users\CYMR90~1\AppData\Local\Temp\cca5ocgO.s:23194  .debug_str:00000000000107b9 .LASF1290
C:\Users\CYMR90~1\AppData\Local\Temp\cca5ocgO.s:27469  .debug_str:0000000000021b88 .LASF1291
C:\Users\CYMR90~1\AppData\Local\Temp\cca5ocgO.s:26513  .debug_str:000000000001e0c4 .LASF1292
C:\Users\CYMR90~1\AppData\Local\Temp\cca5ocgO.s:25607  .debug_str:000000000001a565 .LASF1293
C:\Users\CYMR90~1\AppData\Local\Temp\cca5ocgO.s:24612  .debug_str:000000000001630d .LASF1294
C:\Users\CYMR90~1\AppData\Local\Temp\cca5ocgO.s:23682  .debug_str:000000000001279b .LASF1295
C:\Users\CYMR90~1\AppData\Local\Temp\cca5ocgO.s:22712  .debug_str:000000000000ea8e .LASF1296
C:\Users\CYMR90~1\AppData\Local\Temp\cca5ocgO.s:22086  .debug_str:000000000000c28b .LASF1297
C:\Users\CYMR90~1\AppData\Local\Temp\cca5ocgO.s:26947  .debug_str:000000000001fb30 .LASF1298
C:\Users\CYMR90~1\AppData\Local\Temp\cca5ocgO.s:26017  .debug_str:000000000001c00c .LASF1299
C:\Users\CYMR90~1\AppData\Local\Temp\cca5ocgO.s:25071  .debug_str:000000000001807d .LASF1300
C:\Users\CYMR90~1\AppData\Local\Temp\cca5ocgO.s:25991  .debug_str:000000000001be42 .LASF1301
C:\Users\CYMR90~1\AppData\Local\Temp\cca5ocgO.s:27195  .debug_str:0000000000020a8c .LASF1302
C:\Users\CYMR90~1\AppData\Local\Temp\cca5ocgO.s:24654  .debug_str:000000000001655e .LASF1303
C:\Users\CYMR90~1\AppData\Local\Temp\cca5ocgO.s:25527  .debug_str:0000000000019f0c .LASF1304
C:\Users\CYMR90~1\AppData\Local\Temp\cca5ocgO.s:25499  .debug_str:0000000000019d69 .LASF1305
C:\Users\CYMR90~1\AppData\Local\Temp\cca5ocgO.s:21250  .debug_str:0000000000008c40 .LASF1306
C:\Users\CYMR90~1\AppData\Local\Temp\cca5ocgO.s:20242  .debug_str:0000000000004c43 .LASF1307
C:\Users\CYMR90~1\AppData\Local\Temp\cca5ocgO.s:19314  .debug_str:00000000000010be .LASF1308
C:\Users\CYMR90~1\AppData\Local\Temp\cca5ocgO.s:29645  .debug_str:000000000002a558 .LASF1309
C:\Users\CYMR90~1\AppData\Local\Temp\cca5ocgO.s:28671  .debug_str:00000000000267c4 .LASF1310
C:\Users\CYMR90~1\AppData\Local\Temp\cca5ocgO.s:27717  .debug_str:00000000000229c8 .LASF1311
C:\Users\CYMR90~1\AppData\Local\Temp\cca5ocgO.s:21204  .debug_str:0000000000008962 .LASF1312
C:\Users\CYMR90~1\AppData\Local\Temp\cca5ocgO.s:27153  .debug_str:00000000000207d7 .LASF1313
C:\Users\CYMR90~1\AppData\Local\Temp\cca5ocgO.s:23846  .debug_str:0000000000013283 .LASF1314
C:\Users\CYMR90~1\AppData\Local\Temp\cca5ocgO.s:29867  .debug_str:000000000002b336 .LASF1315
C:\Users\CYMR90~1\AppData\Local\Temp\cca5ocgO.s:28397  .debug_str:0000000000025666 .LASF1316
C:\Users\CYMR90~1\AppData\Local\Temp\cca5ocgO.s:27931  .debug_str:00000000000236e2 .LASF1317
C:\Users\CYMR90~1\AppData\Local\Temp\cca5ocgO.s:26971  .debug_str:000000000001fcbc .LASF1318
C:\Users\CYMR90~1\AppData\Local\Temp\cca5ocgO.s:26053  .debug_str:000000000001c245 .LASF1319
C:\Users\CYMR90~1\AppData\Local\Temp\cca5ocgO.s:25115  .debug_str:0000000000018356 .LASF1320
C:\Users\CYMR90~1\AppData\Local\Temp\cca5ocgO.s:24138  .debug_str:00000000000144f0 .LASF1321
C:\Users\CYMR90~1\AppData\Local\Temp\cca5ocgO.s:23202  .debug_str:000000000001082d .LASF1322
C:\Users\CYMR90~1\AppData\Local\Temp\cca5ocgO.s:23656  .debug_str:00000000000125d9 .LASF1323
C:\Users\CYMR90~1\AppData\Local\Temp\cca5ocgO.s:22090  .debug_str:000000000000c2b0 .LASF1324
C:\Users\CYMR90~1\AppData\Local\Temp\cca5ocgO.s:21726  .debug_str:000000000000aa0f .LASF1325
C:\Users\CYMR90~1\AppData\Local\Temp\cca5ocgO.s:20732  .debug_str:00000000000069f1 .LASF1326
C:\Users\CYMR90~1\AppData\Local\Temp\cca5ocgO.s:19788  .debug_str:0000000000002dc5 .LASF1327
C:\Users\CYMR90~1\AppData\Local\Temp\cca5ocgO.s:30137  .debug_str:000000000002c5ca .LASF1328
C:\Users\CYMR90~1\AppData\Local\Temp\cca5ocgO.s:29219  .debug_str:0000000000028ba1 .LASF1329
C:\Users\CYMR90~1\AppData\Local\Temp\cca5ocgO.s:28247  .debug_str:0000000000024bd2 .LASF1330
C:\Users\CYMR90~1\AppData\Local\Temp\cca5ocgO.s:27291  .debug_str:0000000000021037 .LASF1331
C:\Users\CYMR90~1\AppData\Local\Temp\cca5ocgO.s:26351  .debug_str:000000000001d62f .LASF1332
C:\Users\CYMR90~1\AppData\Local\Temp\cca5ocgO.s:26775  .debug_str:000000000001f0a6 .LASF1333
C:\Users\CYMR90~1\AppData\Local\Temp\cca5ocgO.s:25875  .debug_str:000000000001b734 .LASF1334
C:\Users\CYMR90~1\AppData\Local\Temp\cca5ocgO.s:24574  .debug_str:00000000000160aa .LASF1335
C:\Users\CYMR90~1\AppData\Local\Temp\cca5ocgO.s:22244  .debug_str:000000000000cd8f .LASF1336
C:\Users\CYMR90~1\AppData\Local\Temp\cca5ocgO.s:26989  .debug_str:000000000001fda5 .LASF1337
C:\Users\CYMR90~1\AppData\Local\Temp\cca5ocgO.s:23536  .debug_str:0000000000011e0d .LASF1338
C:\Users\CYMR90~1\AppData\Local\Temp\cca5ocgO.s:19422  .debug_str:0000000000001709 .LASF1339
C:\Users\CYMR90~1\AppData\Local\Temp\cca5ocgO.s:21518  .debug_str:0000000000009d08 .LASF1340
C:\Users\CYMR90~1\AppData\Local\Temp\cca5ocgO.s:20516  .debug_str:0000000000005cad .LASF1341
C:\Users\CYMR90~1\AppData\Local\Temp\cca5ocgO.s:19582  .debug_str:0000000000002106 .LASF1342
C:\Users\CYMR90~1\AppData\Local\Temp\cca5ocgO.s:29945  .debug_str:000000000002b86c .LASF1343
C:\Users\CYMR90~1\AppData\Local\Temp\cca5ocgO.s:29733  .debug_str:000000000002aa9b .LASF1344
C:\Users\CYMR90~1\AppData\Local\Temp\cca5ocgO.s:28751  .debug_str:0000000000026ca4 .LASF1345
C:\Users\CYMR90~1\AppData\Local\Temp\cca5ocgO.s:27805  .debug_str:0000000000022f3b .LASF1346
C:\Users\CYMR90~1\AppData\Local\Temp\cca5ocgO.s:29173  .debug_str:000000000002892c .LASF1347
C:\Users\CYMR90~1\AppData\Local\Temp\cca5ocgO.s:25923  .debug_str:000000000001ba25 .LASF1348
C:\Users\CYMR90~1\AppData\Local\Temp\cca5ocgO.s:26429  .debug_str:000000000001db32 .LASF1349
C:\Users\CYMR90~1\AppData\Local\Temp\cca5ocgO.s:24010  .debug_str:0000000000013d1a .LASF1350
C:\Users\CYMR90~1\AppData\Local\Temp\cca5ocgO.s:27129  .debug_str:0000000000020687 .LASF1351
C:\Users\CYMR90~1\AppData\Local\Temp\cca5ocgO.s:22108  .debug_str:000000000000c3eb .LASF1352
C:\Users\CYMR90~1\AppData\Local\Temp\cca5ocgO.s:21034  .debug_str:0000000000007e11 .LASF1353
C:\Users\CYMR90~1\AppData\Local\Temp\cca5ocgO.s:21600  .debug_str:000000000000a232 .LASF1354
C:\Users\CYMR90~1\AppData\Local\Temp\cca5ocgO.s:20598  .debug_str:00000000000061a7 .LASF1355
C:\Users\CYMR90~1\AppData\Local\Temp\cca5ocgO.s:19670  .debug_str:000000000000262c .LASF1356
C:\Users\CYMR90~1\AppData\Local\Temp\cca5ocgO.s:30017  .debug_str:000000000002bd68 .LASF1357
C:\Users\CYMR90~1\AppData\Local\Temp\cca5ocgO.s:24098  .debug_str:00000000000142ca .LASF1358
C:\Users\CYMR90~1\AppData\Local\Temp\cca5ocgO.s:20726  .debug_str:00000000000069a7 .LASF1359
C:\Users\CYMR90~1\AppData\Local\Temp\cca5ocgO.s:27177  .debug_str:0000000000020966 .LASF1360
C:\Users\CYMR90~1\AppData\Local\Temp\cca5ocgO.s:26147  .debug_str:000000000001c7bf .LASF1361
C:\Users\CYMR90~1\AppData\Local\Temp\cca5ocgO.s:25211  .debug_str:000000000001891a .LASF1362
C:\Users\CYMR90~1\AppData\Local\Temp\cca5ocgO.s:29183  .debug_str:00000000000289bd .LASF1363
C:\Users\CYMR90~1\AppData\Local\Temp\cca5ocgO.s:24500  .debug_str:0000000000015b73 .LASF1364
C:\Users\CYMR90~1\AppData\Local\Temp\cca5ocgO.s:21154  .debug_str:0000000000008660 .LASF1365
C:\Users\CYMR90~1\AppData\Local\Temp\cca5ocgO.s:28781  .debug_str:0000000000026e6f .LASF1366
C:\Users\CYMR90~1\AppData\Local\Temp\cca5ocgO.s:22230  .debug_str:000000000000ccc6 .LASF1367
C:\Users\CYMR90~1\AppData\Local\Temp\cca5ocgO.s:27071  .debug_str:00000000000202ca .LASF1368
C:\Users\CYMR90~1\AppData\Local\Temp\cca5ocgO.s:25369  .debug_str:0000000000019434 .LASF1369
C:\Users\CYMR90~1\AppData\Local\Temp\cca5ocgO.s:29907  .debug_str:000000000002b5cc .LASF1370
C:\Users\CYMR90~1\AppData\Local\Temp\cca5ocgO.s:26361  .debug_str:000000000001d6ba .LASF1371
C:\Users\CYMR90~1\AppData\Local\Temp\cca5ocgO.s:19714  .debug_str:000000000000293f .LASF1372
C:\Users\CYMR90~1\AppData\Local\Temp\cca5ocgO.s:22286  .debug_str:000000000000d006 .LASF1373
C:\Users\CYMR90~1\AppData\Local\Temp\cca5ocgO.s:25413  .debug_str:00000000000196fe .LASF1374
C:\Users\CYMR90~1\AppData\Local\Temp\cca5ocgO.s:28459  .debug_str:0000000000025ac5 .LASF1375
C:\Users\CYMR90~1\AppData\Local\Temp\cca5ocgO.s:20270  .debug_str:0000000000004e05 .LASF1376
C:\Users\CYMR90~1\AppData\Local\Temp\cca5ocgO.s:23438  .debug_str:00000000000116e0 .LASF1377
C:\Users\CYMR90~1\AppData\Local\Temp\cca5ocgO.s:26519  .debug_str:000000000001e11e .LASF1378
C:\Users\CYMR90~1\AppData\Local\Temp\cca5ocgO.s:29641  .debug_str:000000000002a51b .LASF1379
C:\Users\CYMR90~1\AppData\Local\Temp\cca5ocgO.s:29609  .debug_str:000000000002a2fa .LASF1380
C:\Users\CYMR90~1\AppData\Local\Temp\cca5ocgO.s:21368  .debug_str:000000000000938c .LASF1381
C:\Users\CYMR90~1\AppData\Local\Temp\cca5ocgO.s:24470  .debug_str:00000000000159b1 .LASF1382
C:\Users\CYMR90~1\AppData\Local\Temp\cca5ocgO.s:27567  .debug_str:0000000000022167 .LASF1383
C:\Users\CYMR90~1\AppData\Local\Temp\cca5ocgO.s:19392  .debug_str:000000000000153b .LASF1384
C:\Users\CYMR90~1\AppData\Local\Temp\cca5ocgO.s:23914  .debug_str:0000000000013764 .LASF1385
C:\Users\CYMR90~1\AppData\Local\Temp\cca5ocgO.s:25695  .debug_str:000000000001ab18 .LASF1386
C:\Users\CYMR90~1\AppData\Local\Temp\cca5ocgO.s:28741  .debug_str:0000000000026be3 .LASF1387
C:\Users\CYMR90~1\AppData\Local\Temp\cca5ocgO.s:20554  .debug_str:0000000000005edb .LASF1388
C:\Users\CYMR90~1\AppData\Local\Temp\cca5ocgO.s:23640  .debug_str:00000000000124cb .LASF1389
C:\Users\CYMR90~1\AppData\Local\Temp\cca5ocgO.s:22984  .debug_str:000000000000fb5f .LASF1390
C:\Users\CYMR90~1\AppData\Local\Temp\cca5ocgO.s:26001  .debug_str:000000000001bef8 .LASF1391
C:\Users\CYMR90~1\AppData\Local\Temp\cca5ocgO.s:29091  .debug_str:0000000000028370 .LASF1392
C:\Users\CYMR90~1\AppData\Local\Temp\cca5ocgO.s:20912  .debug_str:00000000000075a5 .LASF1393
C:\Users\CYMR90~1\AppData\Local\Temp\cca5ocgO.s:24034  .debug_str:0000000000013e7a .LASF1394
C:\Users\CYMR90~1\AppData\Local\Temp\cca5ocgO.s:19998  .debug_str:0000000000003b53 .LASF1395
C:\Users\CYMR90~1\AppData\Local\Temp\cca5ocgO.s:30297  .debug_str:000000000002d02b .LASF1396
C:\Users\CYMR90~1\AppData\Local\Temp\cca5ocgO.s:22166  .debug_str:000000000000c748 .LASF1397
C:\Users\CYMR90~1\AppData\Local\Temp\cca5ocgO.s:25295  .debug_str:0000000000018f07 .LASF1398
C:\Users\CYMR90~1\AppData\Local\Temp\cca5ocgO.s:23350  .debug_str:000000000001114e .LASF1399
C:\Users\CYMR90~1\AppData\Local\Temp\cca5ocgO.s:24636  .debug_str:0000000000016472 .LASF1400
C:\Users\CYMR90~1\AppData\Local\Temp\cca5ocgO.s:19348  .debug_str:00000000000012bd .LASF1401
C:\Users\CYMR90~1\AppData\Local\Temp\cca5ocgO.s:27055  .debug_str:0000000000020204 .LASF1402
C:\Users\CYMR90~1\AppData\Local\Temp\cca5ocgO.s:21984  .debug_str:000000000000bb7f .LASF1403
C:\Users\CYMR90~1\AppData\Local\Temp\cca5ocgO.s:26823  .debug_str:000000000001f3a4 .LASF1404
C:\Users\CYMR90~1\AppData\Local\Temp\cca5ocgO.s:20066  .debug_str:0000000000003ff6 .LASF1405
C:\Users\CYMR90~1\AppData\Local\Temp\cca5ocgO.s:29571  .debug_str:000000000002a0c5 .LASF1406
C:\Users\CYMR90~1\AppData\Local\Temp\cca5ocgO.s:27763  .debug_str:0000000000022ce8 .LASF1407
C:\Users\CYMR90~1\AppData\Local\Temp\cca5ocgO.s:27919  .debug_str:00000000000235fa .LASF1408
C:\Users\CYMR90~1\AppData\Local\Temp\cca5ocgO.s:19744  .debug_str:0000000000002b0e .LASF1409
C:\Users\CYMR90~1\AppData\Local\Temp\cca5ocgO.s:22896  .debug_str:000000000000f5a9 .LASF1410
C:\Users\CYMR90~1\AppData\Local\Temp\cca5ocgO.s:29319  .debug_str:00000000000291ce .LASF1411
C:\Users\CYMR90~1\AppData\Local\Temp\cca5ocgO.s:21144  .debug_str:00000000000085dc .LASF1412
C:\Users\CYMR90~1\AppData\Local\Temp\cca5ocgO.s:26701  .debug_str:000000000001ec18 .LASF1413
C:\Users\CYMR90~1\AppData\Local\Temp\cca5ocgO.s:27349  .debug_str:0000000000021431 .LASF1414
C:\Users\CYMR90~1\AppData\Local\Temp\cca5ocgO.s:19194  .debug_str:00000000000008f3 .LASF1415
C:\Users\CYMR90~1\AppData\Local\Temp\cca5ocgO.s:22254  .debug_str:000000000000cdf7 .LASF1416
C:\Users\CYMR90~1\AppData\Local\Temp\cca5ocgO.s:28693  .debug_str:000000000002691f .LASF1417
C:\Users\CYMR90~1\AppData\Local\Temp\cca5ocgO.s:26883  .debug_str:000000000001f764 .LASF1418
C:\Users\CYMR90~1\AppData\Local\Temp\cca5ocgO.s:20250  .debug_str:0000000000004cad .LASF1419
C:\Users\CYMR90~1\AppData\Local\Temp\cca5ocgO.s:23336  .debug_str:000000000001106f .LASF1420
C:\Users\CYMR90~1\AppData\Local\Temp\cca5ocgO.s:22670  .debug_str:000000000000e7e0 .LASF1421
C:\Users\CYMR90~1\AppData\Local\Temp\cca5ocgO.s:25813  .debug_str:000000000001b2fe .LASF1422
C:\Users\CYMR90~1\AppData\Local\Temp\cca5ocgO.s:28865  .debug_str:000000000002743e .LASF1423
C:\Users\CYMR90~1\AppData\Local\Temp\cca5ocgO.s:20680  .debug_str:000000000000668b .LASF1424
C:\Users\CYMR90~1\AppData\Local\Temp\cca5ocgO.s:23850  .debug_str:00000000000132b1 .LASF1425
C:\Users\CYMR90~1\AppData\Local\Temp\cca5ocgO.s:26815  .debug_str:000000000001f30b .LASF1426
C:\Users\CYMR90~1\AppData\Local\Temp\cca5ocgO.s:30027  .debug_str:000000000002be5b .LASF1427
C:\Users\CYMR90~1\AppData\Local\Temp\cca5ocgO.s:21858  .debug_str:000000000000b303 .LASF1428
C:\Users\CYMR90~1\AppData\Local\Temp\cca5ocgO.s:24969  .debug_str:0000000000017ab0 .LASF1429
C:\Users\CYMR90~1\AppData\Local\Temp\cca5ocgO.s:28051  .debug_str:0000000000023de3 .LASF1430
C:\Users\CYMR90~1\AppData\Local\Temp\cca5ocgO.s:26825  .debug_str:000000000001f3bc .LASF1431
C:\Users\CYMR90~1\AppData\Local\Temp\cca5ocgO.s:19154  .debug_str:0000000000000691 .LASF1432
C:\Users\CYMR90~1\AppData\Local\Temp\cca5ocgO.s:23378  .debug_str:00000000000112f5 .LASF1433
C:\Users\CYMR90~1\AppData\Local\Temp\cca5ocgO.s:27059  .debug_str:000000000002022e .LASF1434
C:\Users\CYMR90~1\AppData\Local\Temp\cca5ocgO.s:26113  .debug_str:000000000001c5aa .LASF1435
C:\Users\CYMR90~1\AppData\Local\Temp\cca5ocgO.s:25179  .debug_str:00000000000186ff .LASF1436
C:\Users\CYMR90~1\AppData\Local\Temp\cca5ocgO.s:24596  .debug_str:000000000001622c .LASF1437
C:\Users\CYMR90~1\AppData\Local\Temp\cca5ocgO.s:28897  .debug_str:00000000000275f3 .LASF1438
C:\Users\CYMR90~1\AppData\Local\Temp\cca5ocgO.s:27937  .debug_str:000000000002376a .LASF1439
C:\Users\CYMR90~1\AppData\Local\Temp\cca5ocgO.s:26977  .debug_str:000000000001fd15 .LASF1440
C:\Users\CYMR90~1\AppData\Local\Temp\cca5ocgO.s:26041  .debug_str:000000000001c187 .LASF1441
C:\Users\CYMR90~1\AppData\Local\Temp\cca5ocgO.s:25103  .debug_str:0000000000018289 .LASF1442
C:\Users\CYMR90~1\AppData\Local\Temp\cca5ocgO.s:24126  .debug_str:0000000000014466 .LASF1443
C:\Users\CYMR90~1\AppData\Local\Temp\cca5ocgO.s:23192  .debug_str:00000000000107a5 .LASF1444
C:\Users\CYMR90~1\AppData\Local\Temp\cca5ocgO.s:29983  .debug_str:000000000002baee .LASF1445
C:\Users\CYMR90~1\AppData\Local\Temp\cca5ocgO.s:21258  .debug_str:0000000000008cae .LASF1446
C:\Users\CYMR90~1\AppData\Local\Temp\cca5ocgO.s:22804  .debug_str:000000000000eff4 .LASF1447
C:\Users\CYMR90~1\AppData\Local\Temp\cca5ocgO.s:28283  .debug_str:0000000000024e39 .LASF1448
C:\Users\CYMR90~1\AppData\Local\Temp\cca5ocgO.s:27327  .debug_str:0000000000021237 .LASF1449
C:\Users\CYMR90~1\AppData\Local\Temp\cca5ocgO.s:26371  .debug_str:000000000001d7b9 .LASF1450
C:\Users\CYMR90~1\AppData\Local\Temp\cca5ocgO.s:25455  .debug_str:0000000000019aab .LASF1451
C:\Users\CYMR90~1\AppData\Local\Temp\cca5ocgO.s:24468  .debug_str:000000000001599c .LASF1452
C:\Users\CYMR90~1\AppData\Local\Temp\cca5ocgO.s:21856  .debug_str:000000000000b2f0 .LASF1453
C:\Users\CYMR90~1\AppData\Local\Temp\cca5ocgO.s:20462  .debug_str:000000000000596f .LASF1454
C:\Users\CYMR90~1\AppData\Local\Temp\cca5ocgO.s:21658  .debug_str:000000000000a5df .LASF1455
C:\Users\CYMR90~1\AppData\Local\Temp\cca5ocgO.s:26727  .debug_str:000000000001eda8 .LASF1456
C:\Users\CYMR90~1\AppData\Local\Temp\cca5ocgO.s:28333  .debug_str:0000000000025176 .LASF1457
C:\Users\CYMR90~1\AppData\Local\Temp\cca5ocgO.s:20432  .debug_str:00000000000057ca .LASF1458
C:\Users\CYMR90~1\AppData\Local\Temp\cca5ocgO.s:26809  .debug_str:000000000001f2bd .LASF1459
C:\Users\CYMR90~1\AppData\Local\Temp\cca5ocgO.s:23660  .debug_str:000000000001261a .LASF1460
C:\Users\CYMR90~1\AppData\Local\Temp\cca5ocgO.s:21766  .debug_str:000000000000ac8f .LASF1461
C:\Users\CYMR90~1\AppData\Local\Temp\cca5ocgO.s:22948  .debug_str:000000000000f953 .LASF1462
C:\Users\CYMR90~1\AppData\Local\Temp\cca5ocgO.s:23444  .debug_str:00000000000117bb .LASF1463
C:\Users\CYMR90~1\AppData\Local\Temp\cca5ocgO.s:24528  .debug_str:0000000000015d41 .LASF1464
C:\Users\CYMR90~1\AppData\Local\Temp\cca5ocgO.s:29759  .debug_str:000000000002ac48 .LASF1465
C:\Users\CYMR90~1\AppData\Local\Temp\cca5ocgO.s:25711  .debug_str:000000000001ac10 .LASF1466
C:\Users\CYMR90~1\AppData\Local\Temp\cca5ocgO.s:24130  .debug_str:000000000001448d .LASF1467
C:\Users\CYMR90~1\AppData\Local\Temp\cca5ocgO.s:28771  .debug_str:0000000000026de0 .LASF1468
C:\Users\CYMR90~1\AppData\Local\Temp\cca5ocgO.s:23134  .debug_str:000000000001037e .LASF1469
C:\Users\CYMR90~1\AppData\Local\Temp\cca5ocgO.s:21218  .debug_str:0000000000008a3d .LASF1470
C:\Users\CYMR90~1\AppData\Local\Temp\cca5ocgO.s:23422  .debug_str:00000000000115de .LASF1471
C:\Users\CYMR90~1\AppData\Local\Temp\cca5ocgO.s:24999  .debug_str:0000000000017c44 .LASF1472
C:\Users\CYMR90~1\AppData\Local\Temp\cca5ocgO.s:28237  .debug_str:0000000000024b30 .LASF1473
C:\Users\CYMR90~1\AppData\Local\Temp\cca5ocgO.s:28869  .debug_str:0000000000027469 .LASF1474
C:\Users\CYMR90~1\AppData\Local\Temp\cca5ocgO.s:19246  .debug_str:0000000000000c74 .LASF1475
C:\Users\CYMR90~1\AppData\Local\Temp\cca5ocgO.s:21146  .debug_str:00000000000085f5 .LASF1476
C:\Users\CYMR90~1\AppData\Local\Temp\cca5ocgO.s:24640  .debug_str:0000000000016498 .LASF1477
C:\Users\CYMR90~1\AppData\Local\Temp\cca5ocgO.s:29057  .debug_str:00000000000280bb .LASF1478
C:\Users\CYMR90~1\AppData\Local\Temp\cca5ocgO.s:28087  .debug_str:00000000000240d4 .LASF1479
C:\Users\CYMR90~1\AppData\Local\Temp\cca5ocgO.s:19886  .debug_str:000000000000340d .LASF1480
C:\Users\CYMR90~1\AppData\Local\Temp\cca5ocgO.s:22116  .debug_str:000000000000c447 .LASF1481
C:\Users\CYMR90~1\AppData\Local\Temp\cca5ocgO.s:28205  .debug_str:000000000002492f .LASF1482
C:\Users\CYMR90~1\AppData\Local\Temp\cca5ocgO.s:21450  .debug_str:00000000000098bb .LASF1483
C:\Users\CYMR90~1\AppData\Local\Temp\cca5ocgO.s:20256  .debug_str:0000000000004d12 .LASF1484
C:\Users\CYMR90~1\AppData\Local\Temp\cca5ocgO.s:22678  .debug_str:000000000000e869 .LASF1485
C:\Users\CYMR90~1\AppData\Local\Temp\cca5ocgO.s:24096  .debug_str:00000000000142b7 .LASF1486
C:\Users\CYMR90~1\AppData\Local\Temp\cca5ocgO.s:25691  .debug_str:000000000001aae9 .LASF1487
C:\Users\CYMR90~1\AppData\Local\Temp\cca5ocgO.s:19078  .debug_str:0000000000000216 .LASF1488
C:\Users\CYMR90~1\AppData\Local\Temp\cca5ocgO.s:24486  .debug_str:0000000000015a99 .LASF1489
C:\Users\CYMR90~1\AppData\Local\Temp\cca5ocgO.s:22484  .debug_str:000000000000dc0f .LASF1490
C:\Users\CYMR90~1\AppData\Local\Temp\cca5ocgO.s:29285  .debug_str:0000000000028fd3 .LASF1491
C:\Users\CYMR90~1\AppData\Local\Temp\cca5ocgO.s:19740  .debug_str:0000000000002ad3 .LASF1492
C:\Users\CYMR90~1\AppData\Local\Temp\cca5ocgO.s:27281  .debug_str:0000000000020fb8 .LASF1493
C:\Users\CYMR90~1\AppData\Local\Temp\cca5ocgO.s:29499  .debug_str:0000000000029cd7 .LASF1494
C:\Users\CYMR90~1\AppData\Local\Temp\cca5ocgO.s:20898  .debug_str:00000000000074ed .LASF1495
C:\Users\CYMR90~1\AppData\Local\Temp\cca5ocgO.s:28547  .debug_str:000000000002602d .LASF1496
C:\Users\CYMR90~1\AppData\Local\Temp\cca5ocgO.s:29255  .debug_str:0000000000028def .LASF1497
C:\Users\CYMR90~1\AppData\Local\Temp\cca5ocgO.s:20686  .debug_str:00000000000066e3 .LASF1498
C:\Users\CYMR90~1\AppData\Local\Temp\cca5ocgO.s:21542  .debug_str:0000000000009e73 .LASF1499
C:\Users\CYMR90~1\AppData\Local\Temp\cca5ocgO.s:30181  .debug_str:000000000002c898 .LASF1500
C:\Users\CYMR90~1\AppData\Local\Temp\cca5ocgO.s:29419  .debug_str:0000000000029808 .LASF1501
C:\Users\CYMR90~1\AppData\Local\Temp\cca5ocgO.s:27187  .debug_str:0000000000020a1c .LASF1502
C:\Users\CYMR90~1\AppData\Local\Temp\cca5ocgO.s:20668  .debug_str:00000000000065bd .LASF1503
C:\Users\CYMR90~1\AppData\Local\Temp\cca5ocgO.s:22228  .debug_str:000000000000ccaf .LASF1504
C:\Users\CYMR90~1\AppData\Local\Temp\cca5ocgO.s:26573  .debug_str:000000000001e43a .LASF1505
C:\Users\CYMR90~1\AppData\Local\Temp\cca5ocgO.s:25901  .debug_str:000000000001b8cb .LASF1506
C:\Users\CYMR90~1\AppData\Local\Temp\cca5ocgO.s:22798  .debug_str:000000000000efa5 .LASF1507
C:\Users\CYMR90~1\AppData\Local\Temp\cca5ocgO.s:27381  .debug_str:000000000002160f .LASF1508
C:\Users\CYMR90~1\AppData\Local\Temp\cca5ocgO.s:23604  .debug_str:000000000001227c .LASF1509
C:\Users\CYMR90~1\AppData\Local\Temp\cca5ocgO.s:29159  .debug_str:000000000002882e .LASF1510
C:\Users\CYMR90~1\AppData\Local\Temp\cca5ocgO.s:27951  .debug_str:0000000000023824 .LASF1511
C:\Users\CYMR90~1\AppData\Local\Temp\cca5ocgO.s:19934  .debug_str:0000000000003713 .LASF1512
C:\Users\CYMR90~1\AppData\Local\Temp\cca5ocgO.s:24550  .debug_str:0000000000015f08 .LASF1513
C:\Users\CYMR90~1\AppData\Local\Temp\cca5ocgO.s:28359  .debug_str:00000000000253a4 .LASF1514
C:\Users\CYMR90~1\AppData\Local\Temp\cca5ocgO.s:26785  .debug_str:000000000001f16a .LASF1515
C:\Users\CYMR90~1\AppData\Local\Temp\cca5ocgO.s:29925  .debug_str:000000000002b6f4 .LASF1516
C:\Users\CYMR90~1\AppData\Local\Temp\cca5ocgO.s:26621  .debug_str:000000000001e70a .LASF1517
C:\Users\CYMR90~1\AppData\Local\Temp\cca5ocgO.s:28581  .debug_str:000000000002620f .LASF1518
C:\Users\CYMR90~1\AppData\Local\Temp\cca5ocgO.s:23594  .debug_str:000000000001220b .LASF1519
C:\Users\CYMR90~1\AppData\Local\Temp\cca5ocgO.s:27005  .debug_str:000000000001fef2 .LASF1520
C:\Users\CYMR90~1\AppData\Local\Temp\cca5ocgO.s:26073  .debug_str:000000000001c373 .LASF1521
C:\Users\CYMR90~1\AppData\Local\Temp\cca5ocgO.s:27319  .debug_str:00000000000211c8 .LASF1522
C:\Users\CYMR90~1\AppData\Local\Temp\cca5ocgO.s:25367  .debug_str:0000000000019418 .LASF1523
C:\Users\CYMR90~1\AppData\Local\Temp\cca5ocgO.s:27953  .debug_str:000000000002383a .LASF1524
C:\Users\CYMR90~1\AppData\Local\Temp\cca5ocgO.s:20330  .debug_str:000000000000517c .LASF1525
C:\Users\CYMR90~1\AppData\Local\Temp\cca5ocgO.s:26015  .debug_str:000000000001bff1 .LASF1526
C:\Users\CYMR90~1\AppData\Local\Temp\cca5ocgO.s:22140  .debug_str:000000000000c5ab .LASF1527
C:\Users\CYMR90~1\AppData\Local\Temp\cca5ocgO.s:27713  .debug_str:000000000002299b .LASF1528
C:\Users\CYMR90~1\AppData\Local\Temp\cca5ocgO.s:28955  .debug_str:00000000000279af .LASF1529
C:\Users\CYMR90~1\AppData\Local\Temp\cca5ocgO.s:28197  .debug_str:000000000002482a .LASF1530
C:\Users\CYMR90~1\AppData\Local\Temp\cca5ocgO.s:28261  .debug_str:0000000000024cb4 .LASF1531
C:\Users\CYMR90~1\AppData\Local\Temp\cca5ocgO.s:20086  .debug_str:0000000000004102 .LASF1532
C:\Users\CYMR90~1\AppData\Local\Temp\cca5ocgO.s:25319  .debug_str:000000000001907b .LASF1533
C:\Users\CYMR90~1\AppData\Local\Temp\cca5ocgO.s:28081  .debug_str:0000000000023f94 .LASF1534
C:\Users\CYMR90~1\AppData\Local\Temp\cca5ocgO.s:22210  .debug_str:000000000000ca9f .LASF1535
C:\Users\CYMR90~1\AppData\Local\Temp\cca5ocgO.s:28265  .debug_str:0000000000024d34 .LASF1536
C:\Users\CYMR90~1\AppData\Local\Temp\cca5ocgO.s:27619  .debug_str:000000000002243f .LASF1537
C:\Users\CYMR90~1\AppData\Local\Temp\cca5ocgO.s:28821  .debug_str:00000000000270f2 .LASF1538
C:\Users\CYMR90~1\AppData\Local\Temp\cca5ocgO.s:28709  .debug_str:00000000000269d9 .LASF1539
C:\Users\CYMR90~1\AppData\Local\Temp\cca5ocgO.s:23472  .debug_str:0000000000011a21 .LASF1540
C:\Users\CYMR90~1\AppData\Local\Temp\cca5ocgO.s:29445  .debug_str:0000000000029990 .LASF1541
C:\Users\CYMR90~1\AppData\Local\Temp\cca5ocgO.s:22462  .debug_str:000000000000dafb .LASF1542
C:\Users\CYMR90~1\AppData\Local\Temp\cca5ocgO.s:19854  .debug_str:00000000000031e5 .LASF1543
C:\Users\CYMR90~1\AppData\Local\Temp\cca5ocgO.s:23036  .debug_str:000000000000fdd2 .LASF1544
C:\Users\CYMR90~1\AppData\Local\Temp\cca5ocgO.s:21078  .debug_str:0000000000008185 .LASF1545
C:\Users\CYMR90~1\AppData\Local\Temp\cca5ocgO.s:21550  .debug_str:0000000000009ee6 .LASF1546
C:\Users\CYMR90~1\AppData\Local\Temp\cca5ocgO.s:22196  .debug_str:000000000000c9a0 .LASF1547
C:\Users\CYMR90~1\AppData\Local\Temp\cca5ocgO.s:29033  .debug_str:0000000000027edb .LASF1548
C:\Users\CYMR90~1\AppData\Local\Temp\cca5ocgO.s:28517  .debug_str:0000000000025e1d .LASF1549
C:\Users\CYMR90~1\AppData\Local\Temp\cca5ocgO.s:25965  .debug_str:000000000001bc5b .LASF1550
C:\Users\CYMR90~1\AppData\Local\Temp\cca5ocgO.s:23346  .debug_str:0000000000011100 .LASF1551
C:\Users\CYMR90~1\AppData\Local\Temp\cca5ocgO.s:25935  .debug_str:000000000001baad .LASF1552
C:\Users\CYMR90~1\AppData\Local\Temp\cca5ocgO.s:19316  .debug_str:00000000000010d5 .LASF1553
C:\Users\CYMR90~1\AppData\Local\Temp\cca5ocgO.s:19640  .debug_str:0000000000002453 .LASF1554
C:\Users\CYMR90~1\AppData\Local\Temp\cca5ocgO.s:26657  .debug_str:000000000001e98c .LASF1555
C:\Users\CYMR90~1\AppData\Local\Temp\cca5ocgO.s:25273  .debug_str:0000000000018da3 .LASF1556
C:\Users\CYMR90~1\AppData\Local\Temp\cca5ocgO.s:22864  .debug_str:000000000000f3c5 .LASF1557
C:\Users\CYMR90~1\AppData\Local\Temp\cca5ocgO.s:29527  .debug_str:0000000000029e42 .LASF1558
C:\Users\CYMR90~1\AppData\Local\Temp\cca5ocgO.s:23188  .debug_str:0000000000010779 .LASF1559
C:\Users\CYMR90~1\AppData\Local\Temp\cca5ocgO.s:27963  .debug_str:00000000000238b3 .LASF1560
C:\Users\CYMR90~1\AppData\Local\Temp\cca5ocgO.s:28385  .debug_str:0000000000025585 .LASF1561
C:\Users\CYMR90~1\AppData\Local\Temp\cca5ocgO.s:23298  .debug_str:0000000000010e42 .LASF1562
C:\Users\CYMR90~1\AppData\Local\Temp\cca5ocgO.s:20510  .debug_str:0000000000005c5d .LASF1563
C:\Users\CYMR90~1\AppData\Local\Temp\cca5ocgO.s:30025  .debug_str:000000000002bdb5 .LASF1564
C:\Users\CYMR90~1\AppData\Local\Temp\cca5ocgO.s:20694  .debug_str:000000000000674c .LASF1565
C:\Users\CYMR90~1\AppData\Local\Temp\cca5ocgO.s:26369  .debug_str:000000000001d72b .LASF1566
C:\Users\CYMR90~1\AppData\Local\Temp\cca5ocgO.s:25647  .debug_str:000000000001a7b0 .LASF1567
C:\Users\CYMR90~1\AppData\Local\Temp\cca5ocgO.s:27121  .debug_str:00000000000205b2 .LASF1568
C:\Users\CYMR90~1\AppData\Local\Temp\cca5ocgO.s:23470  .debug_str:000000000001197a .LASF1569
C:\Users\CYMR90~1\AppData\Local\Temp\cca5ocgO.s:28411  .debug_str:000000000002573e .LASF1570
C:\Users\CYMR90~1\AppData\Local\Temp\cca5ocgO.s:19144  .debug_str:00000000000005bf .LASF1571
C:\Users\CYMR90~1\AppData\Local\Temp\cca5ocgO.s:20380  .debug_str:000000000000548d .LASF1572
C:\Users\CYMR90~1\AppData\Local\Temp\cca5ocgO.s:24290  .debug_str:0000000000014ef5 .LASF1573
C:\Users\CYMR90~1\AppData\Local\Temp\cca5ocgO.s:29147  .debug_str:0000000000028764 .LASF1574
C:\Users\CYMR90~1\AppData\Local\Temp\cca5ocgO.s:24761  .debug_str:0000000000016da2 .LASF1575
C:\Users\CYMR90~1\AppData\Local\Temp\cca5ocgO.s:22836  .debug_str:000000000000f1ea .LASF1576
C:\Users\CYMR90~1\AppData\Local\Temp\cca5ocgO.s:26661  .debug_str:000000000001e9ce .LASF1577
C:\Users\CYMR90~1\AppData\Local\Temp\cca5ocgO.s:29633  .debug_str:000000000002a47f .LASF1578
C:\Users\CYMR90~1\AppData\Local\Temp\cca5ocgO.s:19650  .debug_str:00000000000024de .LASF1579
C:\Users\CYMR90~1\AppData\Local\Temp\cca5ocgO.s:26215  .debug_str:000000000001cca3 .LASF1580
C:\Users\CYMR90~1\AppData\Local\Temp\cca5ocgO.s:23600  .debug_str:000000000001224d .LASF1581
C:\Users\CYMR90~1\AppData\Local\Temp\cca5ocgO.s:22380  .debug_str:000000000000d64d .LASF1582
C:\Users\CYMR90~1\AppData\Local\Temp\cca5ocgO.s:21068  .debug_str:0000000000008059 .LASF1583
C:\Users\CYMR90~1\AppData\Local\Temp\cca5ocgO.s:28823  .debug_str:0000000000027110 .LASF1584
C:\Users\CYMR90~1\AppData\Local\Temp\cca5ocgO.s:26469  .debug_str:000000000001dd81 .LASF1585
C:\Users\CYMR90~1\AppData\Local\Temp\cca5ocgO.s:30233  .debug_str:000000000002cb96 .LASF1586
C:\Users\CYMR90~1\AppData\Local\Temp\cca5ocgO.s:22354  .debug_str:000000000000d43a .LASF1587
C:\Users\CYMR90~1\AppData\Local\Temp\cca5ocgO.s:21028  .debug_str:0000000000007d26 .LASF1588
C:\Users\CYMR90~1\AppData\Local\Temp\cca5ocgO.s:25839  .debug_str:000000000001b47a .LASF1589
C:\Users\CYMR90~1\AppData\Local\Temp\cca5ocgO.s:21884  .debug_str:000000000000b491 .LASF1590
C:\Users\CYMR90~1\AppData\Local\Temp\cca5ocgO.s:24660  .debug_str:00000000000165a0 .LASF1591
C:\Users\CYMR90~1\AppData\Local\Temp\cca5ocgO.s:21268  .debug_str:0000000000008d1c .LASF1592
C:\Users\CYMR90~1\AppData\Local\Temp\cca5ocgO.s:23864  .debug_str:00000000000133cd .LASF1593
C:\Users\CYMR90~1\AppData\Local\Temp\cca5ocgO.s:23180  .debug_str:000000000001064a .LASF1594
C:\Users\CYMR90~1\AppData\Local\Temp\cca5ocgO.s:29065  .debug_str:0000000000028139 .LASF1595
C:\Users\CYMR90~1\AppData\Local\Temp\cca5ocgO.s:19282  .debug_str:0000000000000e8f .LASF1596
C:\Users\CYMR90~1\AppData\Local\Temp\cca5ocgO.s:26241  .debug_str:000000000001ce6b .LASF1597
C:\Users\CYMR90~1\AppData\Local\Temp\cca5ocgO.s:20194  .debug_str:000000000000489b .LASF1598
C:\Users\CYMR90~1\AppData\Local\Temp\cca5ocgO.s:28335  .debug_str:0000000000025185 .LASF1599
C:\Users\CYMR90~1\AppData\Local\Temp\cca5ocgO.s:19428  .debug_str:0000000000001763 .LASF1600
C:\Users\CYMR90~1\AppData\Local\Temp\cca5ocgO.s:22922  .debug_str:000000000000f712 .LASF1601
C:\Users\CYMR90~1\AppData\Local\Temp\cca5ocgO.s:27343  .debug_str:0000000000021334 .LASF1602
C:\Users\CYMR90~1\AppData\Local\Temp\cca5ocgO.s:26267  .debug_str:000000000001d08e .LASF1603
C:\Users\CYMR90~1\AppData\Local\Temp\cca5ocgO.s:26159  .debug_str:000000000001c87a .LASF1604
C:\Users\CYMR90~1\AppData\Local\Temp\cca5ocgO.s:28313  .debug_str:0000000000024fb5 .LASF1605
C:\Users\CYMR90~1\AppData\Local\Temp\cca5ocgO.s:28239  .debug_str:0000000000024b46 .LASF1606
C:\Users\CYMR90~1\AppData\Local\Temp\cca5ocgO.s:28191  .debug_str:00000000000247d0 .LASF1607
C:\Users\CYMR90~1\AppData\Local\Temp\cca5ocgO.s:25217  .debug_str:000000000001896c .LASF1608
C:\Users\CYMR90~1\AppData\Local\Temp\cca5ocgO.s:20172  .debug_str:000000000000470e .LASF1609
C:\Users\CYMR90~1\AppData\Local\Temp\cca5ocgO.s:27551  .debug_str:0000000000022068 .LASF1610
C:\Users\CYMR90~1\AppData\Local\Temp\cca5ocgO.s:30147  .debug_str:000000000002c62d .LASF1611
C:\Users\CYMR90~1\AppData\Local\Temp\cca5ocgO.s:26109  .debug_str:000000000001c56e .LASF1612
C:\Users\CYMR90~1\AppData\Local\Temp\cca5ocgO.s:24174  .debug_str:00000000000147a1 .LASF1613
C:\Users\CYMR90~1\AppData\Local\Temp\cca5ocgO.s:21536  .debug_str:0000000000009e15 .LASF1614
C:\Users\CYMR90~1\AppData\Local\Temp\cca5ocgO.s:25797  .debug_str:000000000001b1b8 .LASF1615
C:\Users\CYMR90~1\AppData\Local\Temp\cca5ocgO.s:27435  .debug_str:0000000000021946 .LASF1616
C:\Users\CYMR90~1\AppData\Local\Temp\cca5ocgO.s:24264  .debug_str:0000000000014cfc .LASF1617
C:\Users\CYMR90~1\AppData\Local\Temp\cca5ocgO.s:26171  .debug_str:000000000001c9ee .LASF1618
C:\Users\CYMR90~1\AppData\Local\Temp\cca5ocgO.s:20214  .debug_str:0000000000004a63 .LASF1619
C:\Users\CYMR90~1\AppData\Local\Temp\cca5ocgO.s:21918  .debug_str:000000000000b740 .LASF1620
C:\Users\CYMR90~1\AppData\Local\Temp\cca5ocgO.s:22750  .debug_str:000000000000ed04 .LASF1621
C:\Users\CYMR90~1\AppData\Local\Temp\cca5ocgO.s:19794  .debug_str:0000000000002e24 .LASF1622
C:\Users\CYMR90~1\AppData\Local\Temp\cca5ocgO.s:27151  .debug_str:00000000000207c0 .LASF1623
C:\Users\CYMR90~1\AppData\Local\Temp\cca5ocgO.s:23866  .debug_str:0000000000013468 .LASF1624
C:\Users\CYMR90~1\AppData\Local\Temp\cca5ocgO.s:22014  .debug_str:000000000000bdd1 .LASF1625
C:\Users\CYMR90~1\AppData\Local\Temp\cca5ocgO.s:27835  .debug_str:00000000000230c6 .LASF1626
C:\Users\CYMR90~1\AppData\Local\Temp\cca5ocgO.s:20690  .debug_str:000000000000671e .LASF1627
C:\Users\CYMR90~1\AppData\Local\Temp\cca5ocgO.s:26901  .debug_str:000000000001f86b .LASF1628
C:\Users\CYMR90~1\AppData\Local\Temp\cca5ocgO.s:21778  .debug_str:000000000000ad51 .LASF1629
C:\Users\CYMR90~1\AppData\Local\Temp\cca5ocgO.s:27629  .debug_str:00000000000224ab .LASF1630
C:\Users\CYMR90~1\AppData\Local\Temp\cca5ocgO.s:21252  .debug_str:0000000000008c57 .LASF1631
C:\Users\CYMR90~1\AppData\Local\Temp\cca5ocgO.s:19380  .debug_str:00000000000014a7 .LASF1632
C:\Users\CYMR90~1\AppData\Local\Temp\cca5ocgO.s:25913  .debug_str:000000000001b9b2 .LASF1633
C:\Users\CYMR90~1\AppData\Local\Temp\cca5ocgO.s:24903  .debug_str:000000000001763e .LASF1634
C:\Users\CYMR90~1\AppData\Local\Temp\cca5ocgO.s:21998  .debug_str:000000000000bc97 .LASF1635
C:\Users\CYMR90~1\AppData\Local\Temp\cca5ocgO.s:22110  .debug_str:000000000000c401 .LASF1636
C:\Users\CYMR90~1\AppData\Local\Temp\cca5ocgO.s:25767  .debug_str:000000000001afeb .LASF1637
C:\Users\CYMR90~1\AppData\Local\Temp\cca5ocgO.s:22180  .debug_str:000000000000c88d .LASF1638
C:\Users\CYMR90~1\AppData\Local\Temp\cca5ocgO.s:21894  .debug_str:000000000000b5b6 .LASF1639
C:\Users\CYMR90~1\AppData\Local\Temp\cca5ocgO.s:25121  .debug_str:00000000000183a0 .LASF1640
C:\Users\CYMR90~1\AppData\Local\Temp\cca5ocgO.s:23140  .debug_str:00000000000103d1 .LASF1641
C:\Users\CYMR90~1\AppData\Local\Temp\cca5ocgO.s:28181  .debug_str:000000000002473f .LASF1642
C:\Users\CYMR90~1\AppData\Local\Temp\cca5ocgO.s:23480  .debug_str:0000000000011ac2 .LASF1643
C:\Users\CYMR90~1\AppData\Local\Temp\cca5ocgO.s:27043  .debug_str:0000000000020156 .LASF1644
C:\Users\CYMR90~1\AppData\Local\Temp\cca5ocgO.s:30115  .debug_str:000000000002c490 .LASF1645
C:\Users\CYMR90~1\AppData\Local\Temp\cca5ocgO.s:19784  .debug_str:0000000000002d94 .LASF1646
C:\Users\CYMR90~1\AppData\Local\Temp\cca5ocgO.s:24700  .debug_str:00000000000167ec .LASF1647
C:\Users\CYMR90~1\AppData\Local\Temp\cca5ocgO.s:24805  .debug_str:000000000001708f .LASF1648
C:\Users\CYMR90~1\AppData\Local\Temp\cca5ocgO.s:19586  .debug_str:000000000000213a .LASF1649
C:\Users\CYMR90~1\AppData\Local\Temp\cca5ocgO.s:21094  .debug_str:00000000000082bc .LASF1650
C:\Users\CYMR90~1\AppData\Local\Temp\cca5ocgO.s:27851  .debug_str:00000000000231c6 .LASF1651
C:\Users\CYMR90~1\AppData\Local\Temp\cca5ocgO.s:23236  .debug_str:0000000000010a06 .LASF1652
C:\Users\CYMR90~1\AppData\Local\Temp\cca5ocgO.s:20986  .debug_str:0000000000007a61 .LASF1653
C:\Users\CYMR90~1\AppData\Local\Temp\cca5ocgO.s:19322  .debug_str:0000000000001146 .LASF1654
C:\Users\CYMR90~1\AppData\Local\Temp\cca5ocgO.s:25013  .debug_str:0000000000017d07 .LASF1657
C:\Users\CYMR90~1\AppData\Local\Temp\cca5ocgO.s:29683  .debug_str:000000000002a7b0 .LASF1658
C:\Users\CYMR90~1\AppData\Local\Temp\cca5ocgO.s:23266  .debug_str:0000000000010cba .LASF1659
C:\Users\CYMR90~1\AppData\Local\Temp\cca5ocgO.s:25341  .debug_str:00000000000192b4 .LASF1660
C:\Users\CYMR90~1\AppData\Local\Temp\cca5ocgO.s:29921  .debug_str:000000000002b6b5 .LASF1661
C:\Users\CYMR90~1\AppData\Local\Temp\cca5ocgO.s:29955  .debug_str:000000000002b91e .LASF1662
C:\Users\CYMR90~1\AppData\Local\Temp\cca5ocgO.s:27237  .debug_str:0000000000020d1f .LASF1663
C:\Users\CYMR90~1\AppData\Local\Temp\cca5ocgO.s:24224  .debug_str:0000000000014a78 .LASF1664
C:\Users\CYMR90~1\AppData\Local\Temp\cca5ocgO.s:26415  .debug_str:000000000001da5b .LASF1665
C:\Users\CYMR90~1\AppData\Local\Temp\cca5ocgO.s:27321  .debug_str:00000000000211e3 .LASF1666
C:\Users\CYMR90~1\AppData\Local\Temp\cca5ocgO.s:22958  .debug_str:000000000000f9c4 .LASF1667
C:\Users\CYMR90~1\AppData\Local\Temp\cca5ocgO.s:22664  .debug_str:000000000000e76a .LASF1668
C:\Users\CYMR90~1\AppData\Local\Temp\cca5ocgO.s:20014  .debug_str:0000000000003c42 .LASF1669
C:\Users\CYMR90~1\AppData\Local\Temp\cca5ocgO.s:21288  .debug_str:0000000000008f08 .LASF1670
C:\Users\CYMR90~1\AppData\Local\Temp\cca5ocgO.s:20164  .debug_str:000000000000468c .LASF1671
C:\Users\CYMR90~1\AppData\Local\Temp\cca5ocgO.s:19126  .debug_str:00000000000004ec .LASF1672
C:\Users\CYMR90~1\AppData\Local\Temp\cca5ocgO.s:24150  .debug_str:00000000000145b7 .LASF1673
C:\Users\CYMR90~1\AppData\Local\Temp\cca5ocgO.s:23554  .debug_str:0000000000011f30 .LASF1674
C:\Users\CYMR90~1\AppData\Local\Temp\cca5ocgO.s:22702  .debug_str:000000000000e9c6 .LASF1675
C:\Users\CYMR90~1\AppData\Local\Temp\cca5ocgO.s:28203  .debug_str:0000000000024915 .LASF1676
C:\Users\CYMR90~1\AppData\Local\Temp\cca5ocgO.s:23686  .debug_str:00000000000127c4 .LASF1677
C:\Users\CYMR90~1\AppData\Local\Temp\cca5ocgO.s:30117  .debug_str:000000000002c4a5 .LASF1678
C:\Users\CYMR90~1\AppData\Local\Temp\cca5ocgO.s:19696  .debug_str:00000000000027de .LASF1679
C:\Users\CYMR90~1\AppData\Local\Temp\cca5ocgO.s:23218  .debug_str:000000000001092d .LASF1680
C:\Users\CYMR90~1\AppData\Local\Temp\cca5ocgO.s:24398  .debug_str:00000000000155a2 .LASF1681
C:\Users\CYMR90~1\AppData\Local\Temp\cca5ocgO.s:23056  .debug_str:000000000000ff37 .LASF1682
C:\Users\CYMR90~1\AppData\Local\Temp\cca5ocgO.s:25751  .debug_str:000000000001ae6e .LASF1683
C:\Users\CYMR90~1\AppData\Local\Temp\cca5ocgO.s:27799  .debug_str:0000000000022ef3 .LASF1684
C:\Users\CYMR90~1\AppData\Local\Temp\cca5ocgO.s:28701  .debug_str:000000000002697e .LASF1685
C:\Users\CYMR90~1\AppData\Local\Temp\cca5ocgO.s:23216  .debug_str:0000000000010915 .LASF1686
C:\Users\CYMR90~1\AppData\Local\Temp\cca5ocgO.s:24324  .debug_str:0000000000015126 .LASF1687
C:\Users\CYMR90~1\AppData\Local\Temp\cca5ocgO.s:29435  .debug_str:00000000000298e5 .LASF1688
C:\Users\CYMR90~1\AppData\Local\Temp\cca5ocgO.s:27981  .debug_str:00000000000239d8 .LASF1689
C:\Users\CYMR90~1\AppData\Local\Temp\cca5ocgO.s:25871  .debug_str:000000000001b6e6 .LASF1690
C:\Users\CYMR90~1\AppData\Local\Temp\cca5ocgO.s:23952  .debug_str:00000000000139a7 .LASF1691
C:\Users\CYMR90~1\AppData\Local\Temp\cca5ocgO.s:27535  .debug_str:0000000000021f90 .LASF1692
C:\Users\CYMR90~1\AppData\Local\Temp\cca5ocgO.s:25205  .debug_str:00000000000188cf .LASF1693
C:\Users\CYMR90~1\AppData\Local\Temp\cca5ocgO.s:21088  .debug_str:0000000000008248 .LASF1694
C:\Users\CYMR90~1\AppData\Local\Temp\cca5ocgO.s:23136  .debug_str:000000000001038e .LASF1695
C:\Users\CYMR90~1\AppData\Local\Temp\cca5ocgO.s:24979  .debug_str:0000000000017b2f .LASF1696
C:\Users\CYMR90~1\AppData\Local\Temp\cca5ocgO.s:24272  .debug_str:0000000000014d8f .LASF1697
C:\Users\CYMR90~1\AppData\Local\Temp\cca5ocgO.s:26799  .debug_str:000000000001f22a .LASF1698
C:\Users\CYMR90~1\AppData\Local\Temp\cca5ocgO.s:25377  .debug_str:00000000000194df .LASF1699
C:\Users\CYMR90~1\AppData\Local\Temp\cca5ocgO.s:27249  .debug_str:0000000000020dd3 .LASF1700
C:\Users\CYMR90~1\AppData\Local\Temp\cca5ocgO.s:26795  .debug_str:000000000001f1ed .LASF1701
C:\Users\CYMR90~1\AppData\Local\Temp\cca5ocgO.s:28025  .debug_str:0000000000023c44 .LASF1702
C:\Users\CYMR90~1\AppData\Local\Temp\cca5ocgO.s:27989  .debug_str:0000000000023a40 .LASF1703
C:\Users\CYMR90~1\AppData\Local\Temp\cca5ocgO.s:27525  .debug_str:0000000000021ef6 .LASF1704
C:\Users\CYMR90~1\AppData\Local\Temp\cca5ocgO.s:25997  .debug_str:000000000001be9d .LASF1705
C:\Users\CYMR90~1\AppData\Local\Temp\cca5ocgO.s:27383  .debug_str:0000000000021623 .LASF1706
C:\Users\CYMR90~1\AppData\Local\Temp\cca5ocgO.s:24885  .debug_str:0000000000017503 .LASF1707
C:\Users\CYMR90~1\AppData\Local\Temp\cca5ocgO.s:23868  .debug_str:000000000001347b .LASF1708
C:\Users\CYMR90~1\AppData\Local\Temp\cca5ocgO.s:26553  .debug_str:000000000001e322 .LASF1709
C:\Users\CYMR90~1\AppData\Local\Temp\cca5ocgO.s:25123  .debug_str:00000000000183b5 .LASF1710
C:\Users\CYMR90~1\AppData\Local\Temp\cca5ocgO.s:22000  .debug_str:000000000000bcac .LASF1711
C:\Users\CYMR90~1\AppData\Local\Temp\cca5ocgO.s:23500  .debug_str:0000000000011bd5 .LASF1712
C:\Users\CYMR90~1\AppData\Local\Temp\cca5ocgO.s:20620  .debug_str:00000000000062eb .LASF1713
C:\Users\CYMR90~1\AppData\Local\Temp\cca5ocgO.s:22964  .debug_str:000000000000fa21 .LASF1714
C:\Users\CYMR90~1\AppData\Local\Temp\cca5ocgO.s:19906  .debug_str:0000000000003560 .LASF1715
C:\Users\CYMR90~1\AppData\Local\Temp\cca5ocgO.s:23214  .debug_str:00000000000108e9 .LASF1716
C:\Users\CYMR90~1\AppData\Local\Temp\cca5ocgO.s:26523  .debug_str:000000000001e14c .LASF1717
C:\Users\CYMR90~1\AppData\Local\Temp\cca5ocgO.s:25085  .debug_str:000000000001815e .LASF1718
C:\Users\CYMR90~1\AppData\Local\Temp\cca5ocgO.s:23442  .debug_str:000000000001170d .LASF1719
C:\Users\CYMR90~1\AppData\Local\Temp\cca5ocgO.s:25437  .debug_str:00000000000198c7 .LASF1720
C:\Users\CYMR90~1\AppData\Local\Temp\cca5ocgO.s:23944  .debug_str:0000000000013924 .LASF1721
C:\Users\CYMR90~1\AppData\Local\Temp\cca5ocgO.s:19624  .debug_str:0000000000002374 .LASF1722
C:\Users\CYMR90~1\AppData\Local\Temp\cca5ocgO.s:25759  .debug_str:000000000001af08 .LASF1723
C:\Users\CYMR90~1\AppData\Local\Temp\cca5ocgO.s:19690  .debug_str:000000000000277f .LASF1724
C:\Users\CYMR90~1\AppData\Local\Temp\cca5ocgO.s:24464  .debug_str:000000000001593f .LASF1725
C:\Users\CYMR90~1\AppData\Local\Temp\cca5ocgO.s:29231  .debug_str:0000000000028c44 .LASF1726
C:\Users\CYMR90~1\AppData\Local\Temp\cca5ocgO.s:23548  .debug_str:0000000000011ea4 .LASF1727
C:\Users\CYMR90~1\AppData\Local\Temp\cca5ocgO.s:28871  .debug_str:000000000002747d .LASF1728
C:\Users\CYMR90~1\AppData\Local\Temp\cca5ocgO.s:26213  .debug_str:000000000001cc6c .LASF1729
C:\Users\CYMR90~1\AppData\Local\Temp\cca5ocgO.s:30029  .debug_str:000000000002be74 .LASF1730
C:\Users\CYMR90~1\AppData\Local\Temp\cca5ocgO.s:28161  .debug_str:00000000000245e8 .LASF1731
C:\Users\CYMR90~1\AppData\Local\Temp\cca5ocgO.s:23384  .debug_str:0000000000011337 .LASF1732
C:\Users\CYMR90~1\AppData\Local\Temp\cca5ocgO.s:21398  .debug_str:0000000000009516 .LASF1733
C:\Users\CYMR90~1\AppData\Local\Temp\cca5ocgO.s:19386  .debug_str:00000000000014f9 .LASF1734
C:\Users\CYMR90~1\AppData\Local\Temp\cca5ocgO.s:24839  .debug_str:000000000001727d .LASF1735
C:\Users\CYMR90~1\AppData\Local\Temp\cca5ocgO.s:26965  .debug_str:000000000001fc60 .LASF1736
C:\Users\CYMR90~1\AppData\Local\Temp\cca5ocgO.s:21388  .debug_str:000000000000948d .LASF1737
C:\Users\CYMR90~1\AppData\Local\Temp\cca5ocgO.s:21108  .debug_str:0000000000008398 .LASF1738
C:\Users\CYMR90~1\AppData\Local\Temp\cca5ocgO.s:28697  .debug_str:000000000002694f .LASF1739
C:\Users\CYMR90~1\AppData\Local\Temp\cca5ocgO.s:22726  .debug_str:000000000000eb8f .LASF1740
C:\Users\CYMR90~1\AppData\Local\Temp\cca5ocgO.s:21728  .debug_str:000000000000aa27 .LASF1741
C:\Users\CYMR90~1\AppData\Local\Temp\cca5ocgO.s:26821  .debug_str:000000000001f371 .LASF1742
C:\Users\CYMR90~1\AppData\Local\Temp\cca5ocgO.s:26477  .debug_str:000000000001de71 .LASF1743
C:\Users\CYMR90~1\AppData\Local\Temp\cca5ocgO.s:29985  .debug_str:000000000002bb02 .LASF1744
C:\Users\CYMR90~1\AppData\Local\Temp\cca5ocgO.s:21116  .debug_str:000000000000841f .LASF1745
C:\Users\CYMR90~1\AppData\Local\Temp\cca5ocgO.s:23028  .debug_str:000000000000fd49 .LASF1746
C:\Users\CYMR90~1\AppData\Local\Temp\cca5ocgO.s:28029  .debug_str:0000000000023c8a .LASF1747
C:\Users\CYMR90~1\AppData\Local\Temp\cca5ocgO.s:27635  .debug_str:00000000000224fb .LASF1748
C:\Users\CYMR90~1\AppData\Local\Temp\cca5ocgO.s:23212  .debug_str:00000000000108c6 .LASF1749
C:\Users\CYMR90~1\AppData\Local\Temp\cca5ocgO.s:21890  .debug_str:000000000000b56d .LASF1750
C:\Users\CYMR90~1\AppData\Local\Temp\cca5ocgO.s:25017  .debug_str:0000000000017d3b .LASF1751
C:\Users\CYMR90~1\AppData\Local\Temp\cca5ocgO.s:20258  .debug_str:0000000000004d26 .LASF1752
C:\Users\CYMR90~1\AppData\Local\Temp\cca5ocgO.s:25735  .debug_str:000000000001ad70 .LASF1753
C:\Users\CYMR90~1\AppData\Local\Temp\cca5ocgO.s:25633  .debug_str:000000000001a6b2 .LASF1754
C:\Users\CYMR90~1\AppData\Local\Temp\cca5ocgO.s:22170  .debug_str:000000000000c78c .LASF1755
C:\Users\CYMR90~1\AppData\Local\Temp\cca5ocgO.s:23756  .debug_str:0000000000012c7c .LASF1756
C:\Users\CYMR90~1\AppData\Local\Temp\cca5ocgO.s:25827  .debug_str:000000000001b3ca .LASF1757
C:\Users\CYMR90~1\AppData\Local\Temp\cca5ocgO.s:22824  .debug_str:000000000000f110 .LASF1758
C:\Users\CYMR90~1\AppData\Local\Temp\cca5ocgO.s:20930  .debug_str:00000000000076d0 .LASF1759
C:\Users\CYMR90~1\AppData\Local\Temp\cca5ocgO.s:25577  .debug_str:000000000001a1e6 .LASF1760
C:\Users\CYMR90~1\AppData\Local\Temp\cca5ocgO.s:21220  .debug_str:0000000000008a4f .LASF1761
C:\Users\CYMR90~1\AppData\Local\Temp\cca5ocgO.s:19450  .debug_str:0000000000001980 .LASF1762
C:\Users\CYMR90~1\AppData\Local\Temp\cca5ocgO.s:28219  .debug_str:00000000000249e4 .LASF1763
C:\Users\CYMR90~1\AppData\Local\Temp\cca5ocgO.s:20958  .debug_str:00000000000078ab .LASF1764
C:\Users\CYMR90~1\AppData\Local\Temp\cca5ocgO.s:20636  .debug_str:00000000000063fd .LASF1765
C:\Users\CYMR90~1\AppData\Local\Temp\cca5ocgO.s:19430  .debug_str:0000000000001819 .LASF1766
C:\Users\CYMR90~1\AppData\Local\Temp\cca5ocgO.s:25941  .debug_str:000000000001bb06 .LASF1767
C:\Users\CYMR90~1\AppData\Local\Temp\cca5ocgO.s:19492  .debug_str:0000000000001bf0 .LASF1768
C:\Users\CYMR90~1\AppData\Local\Temp\cca5ocgO.s:28413  .debug_str:00000000000257cc .LASF1769
C:\Users\CYMR90~1\AppData\Local\Temp\cca5ocgO.s:30101  .debug_str:000000000002c391 .LASF1770
C:\Users\CYMR90~1\AppData\Local\Temp\cca5ocgO.s:22052  .debug_str:000000000000c041 .LASF1771
C:\Users\CYMR90~1\AppData\Local\Temp\cca5ocgO.s:20644  .debug_str:0000000000006472 .LASF1772
C:\Users\CYMR90~1\AppData\Local\Temp\cca5ocgO.s:19160  .debug_str:00000000000006dc .LASF1773
C:\Users\CYMR90~1\AppData\Local\Temp\cca5ocgO.s:19210  .debug_str:00000000000009dd .LASF1774
C:\Users\CYMR90~1\AppData\Local\Temp\cca5ocgO.s:29137  .debug_str:00000000000286a5 .LASF1775
C:\Users\CYMR90~1\AppData\Local\Temp\cca5ocgO.s:24166  .debug_str:000000000001470d .LASF1776
C:\Users\CYMR90~1\AppData\Local\Temp\cca5ocgO.s:22904  .debug_str:000000000000f610 .LASF1777
C:\Users\CYMR90~1\AppData\Local\Temp\cca5ocgO.s:25009  .debug_str:0000000000017cd6 .LASF1778
C:\Users\CYMR90~1\AppData\Local\Temp\cca5ocgO.s:20354  .debug_str:00000000000052f9 .LASF1779
C:\Users\CYMR90~1\AppData\Local\Temp\cca5ocgO.s:28451  .debug_str:0000000000025a3b .LASF1780
C:\Users\CYMR90~1\AppData\Local\Temp\cca5ocgO.s:27669  .debug_str:0000000000022718 .LASF1781
C:\Users\CYMR90~1\AppData\Local\Temp\cca5ocgO.s:26221  .debug_str:000000000001cd0e .LASF1784
C:\Users\CYMR90~1\AppData\Local\Temp\cca5ocgO.s:25387  .debug_str:000000000001957a .LASF1785
C:\Users\CYMR90~1\AppData\Local\Temp\cca5ocgO.s:25239  .debug_str:0000000000018ae0 .LASF1786
C:\Users\CYMR90~1\AppData\Local\Temp\cca5ocgO.s:24210  .debug_str:00000000000149c0 .LASF1787
C:\Users\CYMR90~1\AppData\Local\Temp\cca5ocgO.s:29563  .debug_str:000000000002a046 .LASF1788
C:\Users\CYMR90~1\AppData\Local\Temp\cca5ocgO.s:29871  .debug_str:000000000002b374 .LASF1789
C:\Users\CYMR90~1\AppData\Local\Temp\cca5ocgO.s:19956  .debug_str:00000000000038aa .LASF1790
C:\Users\CYMR90~1\AppData\Local\Temp\cca5ocgO.s:19074  .debug_str:00000000000001e0 .LASF1791
C:\Users\CYMR90~1\AppData\Local\Temp\cca5ocgO.s:28783  .debug_str:0000000000026e83 .LASF1792
C:\Users\CYMR90~1\AppData\Local\Temp\cca5ocgO.s:27881  .debug_str:000000000002336b .LASF1793
C:\Users\CYMR90~1\AppData\Local\Temp\cca5ocgO.s:29749  .debug_str:000000000002ab8f .LASF1794
C:\Users\CYMR90~1\AppData\Local\Temp\cca5ocgO.s:29069  .debug_str:0000000000028204 .LASF1795
C:\Users\CYMR90~1\AppData\Local\Temp\cca5ocgO.s:23880  .debug_str:000000000001351c .LASF1796
C:\Users\CYMR90~1\AppData\Local\Temp\cca5ocgO.s:24154  .debug_str:00000000000145f9 .LASF1797
C:\Users\CYMR90~1\AppData\Local\Temp\cca5ocgO.s:23270  .debug_str:0000000000010cd7 .LASF1798
C:\Users\CYMR90~1\AppData\Local\Temp\cca5ocgO.s:22080  .debug_str:000000000000c224 .LASF1799
C:\Users\CYMR90~1\AppData\Local\Temp\cca5ocgO.s:20794  .debug_str:0000000000006def .LASF1800
C:\Users\CYMR90~1\AppData\Local\Temp\cca5ocgO.s:25231  .debug_str:0000000000018a66 .LASF1801
C:\Users\CYMR90~1\AppData\Local\Temp\cca5ocgO.s:24294  .debug_str:0000000000014f2f .LASF1802
C:\Users\CYMR90~1\AppData\Local\Temp\cca5ocgO.s:23330  .debug_str:000000000001101e .LASF1803
C:\Users\CYMR90~1\AppData\Local\Temp\cca5ocgO.s:22800  .debug_str:000000000000efbc .LASF1804
C:\Users\CYMR90~1\AppData\Local\Temp\cca5ocgO.s:27467  .debug_str:0000000000021b61 .LASF1805
C:\Users\CYMR90~1\AppData\Local\Temp\cca5ocgO.s:24176  .debug_str:00000000000147c5 .LASF1806
C:\Users\CYMR90~1\AppData\Local\Temp\cca5ocgO.s:27081  .debug_str:0000000000020331 .LASF1807
C:\Users\CYMR90~1\AppData\Local\Temp\cca5ocgO.s:24318  .debug_str:00000000000150c5 .LASF1808
C:\Users\CYMR90~1\AppData\Local\Temp\cca5ocgO.s:29061  .debug_str:00000000000280f8 .LASF1809
C:\Users\CYMR90~1\AppData\Local\Temp\cca5ocgO.s:26315  .debug_str:000000000001d3f4 .LASF1810
C:\Users\CYMR90~1\AppData\Local\Temp\cca5ocgO.s:25023  .debug_str:0000000000017db0 .LASF1811
C:\Users\CYMR90~1\AppData\Local\Temp\cca5ocgO.s:19408  .debug_str:0000000000001631 .LASF1812
C:\Users\CYMR90~1\AppData\Local\Temp\cca5ocgO.s:23224  .debug_str:0000000000010973 .LASF1813
C:\Users\CYMR90~1\AppData\Local\Temp\cca5ocgO.s:23484  .debug_str:0000000000011af4 .LASF1814
C:\Users\CYMR90~1\AppData\Local\Temp\cca5ocgO.s:26297  .debug_str:000000000001d2fc .LASF1815
C:\Users\CYMR90~1\AppData\Local\Temp\cca5ocgO.s:24985  .debug_str:0000000000017ba1 .LASF1816
C:\Users\CYMR90~1\AppData\Local\Temp\cca5ocgO.s:26305  .debug_str:000000000001d37a .LASF1817
C:\Users\CYMR90~1\AppData\Local\Temp\cca5ocgO.s:26745  .debug_str:000000000001eec0 .LASF1818
C:\Users\CYMR90~1\AppData\Local\Temp\cca5ocgO.s:23024  .debug_str:000000000000fd11 .LASF1819
C:\Users\CYMR90~1\AppData\Local\Temp\cca5ocgO.s:27219  .debug_str:0000000000020bf3 .LASF1820
C:\Users\CYMR90~1\AppData\Local\Temp\cca5ocgO.s:20662  .debug_str:000000000000657e .LASF1821
C:\Users\CYMR90~1\AppData\Local\Temp\cca5ocgO.s:21048  .debug_str:0000000000007f07 .LASF1822
C:\Users\CYMR90~1\AppData\Local\Temp\cca5ocgO.s:26679  .debug_str:000000000001eafb .LASF1823
C:\Users\CYMR90~1\AppData\Local\Temp\cca5ocgO.s:29343  .debug_str:0000000000029316 .LASF1824
C:\Users\CYMR90~1\AppData\Local\Temp\cca5ocgO.s:21954  .debug_str:000000000000b9cb .LASF1825
C:\Users\CYMR90~1\AppData\Local\Temp\cca5ocgO.s:27309  .debug_str:0000000000021131 .LASF1826
C:\Users\CYMR90~1\AppData\Local\Temp\cca5ocgO.s:29689  .debug_str:000000000002a7ea .LASF1827
C:\Users\CYMR90~1\AppData\Local\Temp\cca5ocgO.s:22768  .debug_str:000000000000edf4 .LASF1828
C:\Users\CYMR90~1\AppData\Local\Temp\cca5ocgO.s:22844  .debug_str:000000000000f279 .LASF1829
C:\Users\CYMR90~1\AppData\Local\Temp\cca5ocgO.s:23632  .debug_str:0000000000012440 .LASF1830
C:\Users\CYMR90~1\AppData\Local\Temp\cca5ocgO.s:21418  .debug_str:00000000000096ad .LASF1831
C:\Users\CYMR90~1\AppData\Local\Temp\cca5ocgO.s:28725  .debug_str:0000000000026acd .LASF1832
C:\Users\CYMR90~1\AppData\Local\Temp\cca5ocgO.s:22226  .debug_str:000000000000cc94 .LASF1833
C:\Users\CYMR90~1\AppData\Local\Temp\cca5ocgO.s:20870  .debug_str:0000000000007326 .LASF1834
C:\Users\CYMR90~1\AppData\Local\Temp\cca5ocgO.s:24614  .debug_str:0000000000016321 .LASF1835
C:\Users\CYMR90~1\AppData\Local\Temp\cca5ocgO.s:28595  .debug_str:00000000000262de .LASF1836
C:\Users\CYMR90~1\AppData\Local\Temp\cca5ocgO.s:24584  .debug_str:0000000000016161 .LASF1837
C:\Users\CYMR90~1\AppData\Local\Temp\cca5ocgO.s:25317  .debug_str:0000000000019063 .LASF1838
C:\Users\CYMR90~1\AppData\Local\Temp\cca5ocgO.s:23274  .debug_str:0000000000010d0f .LASF1839
C:\Users\CYMR90~1\AppData\Local\Temp\cca5ocgO.s:26253  .debug_str:000000000001cfa9 .LASF1840
C:\Users\CYMR90~1\AppData\Local\Temp\cca5ocgO.s:25539  .debug_str:0000000000019fc8 .LASF1841
C:\Users\CYMR90~1\AppData\Local\Temp\cca5ocgO.s:28295  .debug_str:0000000000024ec7 .LASF1842
C:\Users\CYMR90~1\AppData\Local\Temp\cca5ocgO.s:28681  .debug_str:0000000000026853 .LASF1843
C:\Users\CYMR90~1\AppData\Local\Temp\cca5ocgO.s:29889  .debug_str:000000000002b4d7 .LASF1844
C:\Users\CYMR90~1\AppData\Local\Temp\cca5ocgO.s:29743  .debug_str:000000000002ab3c .LASF1845
C:\Users\CYMR90~1\AppData\Local\Temp\cca5ocgO.s:21150  .debug_str:000000000000862f .LASF1846
C:\Users\CYMR90~1\AppData\Local\Temp\cca5ocgO.s:26453  .debug_str:000000000001dc71 .LASF1847
C:\Users\CYMR90~1\AppData\Local\Temp\cca5ocgO.s:27577  .debug_str:00000000000221f5 .LASF1848
C:\Users\CYMR90~1\AppData\Local\Temp\cca5ocgO.s:27589  .debug_str:00000000000222a5 .LASF1849
C:\Users\CYMR90~1\AppData\Local\Temp\cca5ocgO.s:26831  .debug_str:000000000001f40f .LASF1850
C:\Users\CYMR90~1\AppData\Local\Temp\cca5ocgO.s:21212  .debug_str:00000000000089cc .LASF1851
C:\Users\CYMR90~1\AppData\Local\Temp\cca5ocgO.s:28637  .debug_str:00000000000265aa .LASF1852
C:\Users\CYMR90~1\AppData\Local\Temp\cca5ocgO.s:22464  .debug_str:000000000000db18 .LASF1853
C:\Users\CYMR90~1\AppData\Local\Temp\cca5ocgO.s:19858  .debug_str:0000000000003232 .LASF1854
C:\Users\CYMR90~1\AppData\Local\Temp\cca5ocgO.s:26335  .debug_str:000000000001d539 .LASF1855
C:\Users\CYMR90~1\AppData\Local\Temp\cca5ocgO.s:28911  .debug_str:00000000000276c9 .LASF1856
C:\Users\CYMR90~1\AppData\Local\Temp\cca5ocgO.s:21292  .debug_str:0000000000008f4d .LASF1857
C:\Users\CYMR90~1\AppData\Local\Temp\cca5ocgO.s:22152  .debug_str:000000000000c67f .LASF1858
C:\Users\CYMR90~1\AppData\Local\Temp\cca5ocgO.s:29009  .debug_str:0000000000027d4d .LASF1859
C:\Users\CYMR90~1\AppData\Local\Temp\cca5ocgO.s:24326  .debug_str:000000000001515b .LASF1860
C:\Users\CYMR90~1\AppData\Local\Temp\cca5ocgO.s:25261  .debug_str:0000000000018cd4 .LASF1861
C:\Users\CYMR90~1\AppData\Local\Temp\cca5ocgO.s:23076  .debug_str:0000000000010059 .LASF1862
C:\Users\CYMR90~1\AppData\Local\Temp\cca5ocgO.s:20820  .debug_str:0000000000006f62 .LASF1863
C:\Users\CYMR90~1\AppData\Local\Temp\cca5ocgO.s:25173  .debug_str:00000000000186b7 .LASF1864
C:\Users\CYMR90~1\AppData\Local\Temp\cca5ocgO.s:20458  .debug_str:000000000000592c .LASF1865
C:\Users\CYMR90~1\AppData\Local\Temp\cca5ocgO.s:27771  .debug_str:0000000000022d64 .LASF1866
C:\Users\CYMR90~1\AppData\Local\Temp\cca5ocgO.s:27013  .debug_str:000000000001ff7e .LASF1867
C:\Users\CYMR90~1\AppData\Local\Temp\cca5ocgO.s:22078  .debug_str:000000000000c1f4 .LASF1868
C:\Users\CYMR90~1\AppData\Local\Temp\cca5ocgO.s:19190  .debug_str:00000000000008af .LASF1869
C:\Users\CYMR90~1\AppData\Local\Temp\cca5ocgO.s:19562  .debug_str:0000000000002003 .LASF1870
C:\Users\CYMR90~1\AppData\Local\Temp\cca5ocgO.s:19270  .debug_str:0000000000000dcc .LASF1871
C:\Users\CYMR90~1\AppData\Local\Temp\cca5ocgO.s:28391  .debug_str:0000000000025607 .LASF1872
C:\Users\CYMR90~1\AppData\Local\Temp\cca5ocgO.s:24454  .debug_str:00000000000158a0 .LASF1873
C:\Users\CYMR90~1\AppData\Local\Temp\cca5ocgO.s:20994  .debug_str:0000000000007b1b .LASF1874
C:\Users\CYMR90~1\AppData\Local\Temp\cca5ocgO.s:21868  .debug_str:000000000000b386 .LASF1875
C:\Users\CYMR90~1\AppData\Local\Temp\cca5ocgO.s:29469  .debug_str:0000000000029af5 .LASF1876
C:\Users\CYMR90~1\AppData\Local\Temp\cca5ocgO.s:25769  .debug_str:000000000001b000 .LASF1877
C:\Users\CYMR90~1\AppData\Local\Temp\cca5ocgO.s:26515  .debug_str:000000000001e0d8 .LASF1878
C:\Users\CYMR90~1\AppData\Local\Temp\cca5ocgO.s:22908  .debug_str:000000000000f649 .LASF1879
C:\Users\CYMR90~1\AppData\Local\Temp\cca5ocgO.s:21254  .debug_str:0000000000008c6e .LASF1880
C:\Users\CYMR90~1\AppData\Local\Temp\cca5ocgO.s:26811  .debug_str:000000000001f2d2 .LASF1881
C:\Users\CYMR90~1\AppData\Local\Temp\cca5ocgO.s:19304  .debug_str:0000000000001036 .LASF1882
C:\Users\CYMR90~1\AppData\Local\Temp\cca5ocgO.s:27209  .debug_str:0000000000020b45 .LASF1883
C:\Users\CYMR90~1\AppData\Local\Temp\cca5ocgO.s:29885  .debug_str:000000000002b48f .LASF1884
C:\Users\CYMR90~1\AppData\Local\Temp\cca5ocgO.s:26919  .debug_str:000000000001f97c .LASF1885
C:\Users\CYMR90~1\AppData\Local\Temp\cca5ocgO.s:29025  .debug_str:0000000000027e49 .LASF1886
C:\Users\CYMR90~1\AppData\Local\Temp\cca5ocgO.s:21472  .debug_str:0000000000009a37 .LASF1887
C:\Users\CYMR90~1\AppData\Local\Temp\cca5ocgO.s:21284  .debug_str:0000000000008eca .LASF1888
C:\Users\CYMR90~1\AppData\Local\Temp\cca5ocgO.s:29917  .debug_str:000000000002b673 .LASF1889
C:\Users\CYMR90~1\AppData\Local\Temp\cca5ocgO.s:25403  .debug_str:0000000000019642 .LASF1890
C:\Users\CYMR90~1\AppData\Local\Temp\cca5ocgO.s:21464  .debug_str:0000000000009991 .LASF1891
C:\Users\CYMR90~1\AppData\Local\Temp\cca5ocgO.s:21556  .debug_str:0000000000009f6a .LASF1892
C:\Users\CYMR90~1\AppData\Local\Temp\cca5ocgO.s:20766  .debug_str:0000000000006bfb .LASF1893
C:\Users\CYMR90~1\AppData\Local\Temp\cca5ocgO.s:21278  .debug_str:0000000000008e3e .LASF1894
C:\Users\CYMR90~1\AppData\Local\Temp\cca5ocgO.s:22526  .debug_str:000000000000dedf .LASF1895
C:\Users\CYMR90~1\AppData\Local\Temp\cca5ocgO.s:24849  .debug_str:0000000000017314 .LASF1896
C:\Users\CYMR90~1\AppData\Local\Temp\cca5ocgO.s:19512  .debug_str:0000000000001d19 .LASF1897
C:\Users\CYMR90~1\AppData\Local\Temp\cca5ocgO.s:28749  .debug_str:0000000000026c7e .LASF1898
C:\Users\CYMR90~1\AppData\Local\Temp\cca5ocgO.s:25637  .debug_str:000000000001a6fe .LASF1899
C:\Users\CYMR90~1\AppData\Local\Temp\cca5ocgO.s:22356  .debug_str:000000000000d4f2 .LASF1900
C:\Users\CYMR90~1\AppData\Local\Temp\cca5ocgO.s:19108  .debug_str:00000000000003db .LASF1901
C:\Users\CYMR90~1\AppData\Local\Temp\cca5ocgO.s:19940  .debug_str:0000000000003782 .LASF1902
C:\Users\CYMR90~1\AppData\Local\Temp\cca5ocgO.s:21978  .debug_str:000000000000bb00 .LASF1903
C:\Users\CYMR90~1\AppData\Local\Temp\cca5ocgO.s:30161  .debug_str:000000000002c719 .LASF1904
C:\Users\CYMR90~1\AppData\Local\Temp\cca5ocgO.s:24718  .debug_str:0000000000016956 .LASF1905
C:\Users\CYMR90~1\AppData\Local\Temp\cca5ocgO.s:21434  .debug_str:0000000000009768 .LASF1906
C:\Users\CYMR90~1\AppData\Local\Temp\cca5ocgO.s:29103  .debug_str:0000000000028418 .LASF1907
C:\Users\CYMR90~1\AppData\Local\Temp\cca5ocgO.s:26179  .debug_str:000000000001ca70 .LASF1908
C:\Users\CYMR90~1\AppData\Local\Temp\cca5ocgO.s:20448  .debug_str:000000000000588b .LASF1909
C:\Users\CYMR90~1\AppData\Local\Temp\cca5ocgO.s:29461  .debug_str:0000000000029a78 .LASF1910
C:\Users\CYMR90~1\AppData\Local\Temp\cca5ocgO.s:25815  .debug_str:000000000001b317 .LASF1911
C:\Users\CYMR90~1\AppData\Local\Temp\cca5ocgO.s:25497  .debug_str:0000000000019d4a .LASF1912
C:\Users\CYMR90~1\AppData\Local\Temp\cca5ocgO.s:21888  .debug_str:000000000000b54e .LASF1913
C:\Users\CYMR90~1\AppData\Local\Temp\cca5ocgO.s:21724  .debug_str:000000000000a9cf .LASF1914
C:\Users\CYMR90~1\AppData\Local\Temp\cca5ocgO.s:27111  .debug_str:00000000000204f9 .LASF1915
C:\Users\CYMR90~1\AppData\Local\Temp\cca5ocgO.s:28367  .debug_str:000000000002544d .LASF1916
C:\Users\CYMR90~1\AppData\Local\Temp\cca5ocgO.s:25021  .debug_str:0000000000017d84 .LASF1917
C:\Users\CYMR90~1\AppData\Local\Temp\cca5ocgO.s:21630  .debug_str:000000000000a41b .LASF1918
C:\Users\CYMR90~1\AppData\Local\Temp\cca5ocgO.s:29515  .debug_str:0000000000029d85 .LASF1919
C:\Users\CYMR90~1\AppData\Local\Temp\cca5ocgO.s:26151  .debug_str:000000000001c7f0 .LASF1920
C:\Users\CYMR90~1\AppData\Local\Temp\cca5ocgO.s:21926  .debug_str:000000000000b7ca .LASF1921
C:\Users\CYMR90~1\AppData\Local\Temp\cca5ocgO.s:20844  .debug_str:00000000000070ff .LASF1922
C:\Users\CYMR90~1\AppData\Local\Temp\cca5ocgO.s:27181  .debug_str:00000000000209a0 .LASF1923
C:\Users\CYMR90~1\AppData\Local\Temp\cca5ocgO.s:29245  .debug_str:0000000000028d30 .LASF1924
C:\Users\CYMR90~1\AppData\Local\Temp\cca5ocgO.s:21748  .debug_str:000000000000ab69 .LASF1925
C:\Users\CYMR90~1\AppData\Local\Temp\cca5ocgO.s:27009  .debug_str:000000000001ff2a .LASF1926
C:\Users\CYMR90~1\AppData\Local\Temp\cca5ocgO.s:26045  .debug_str:000000000001c1ae .LASF1927
C:\Users\CYMR90~1\AppData\Local\Temp\cca5ocgO.s:23410  .debug_str:00000000000114f4 .LASF1928
C:\Users\CYMR90~1\AppData\Local\Temp\cca5ocgO.s:20894  .debug_str:0000000000007491 .LASF1929
C:\Users\CYMR90~1\AppData\Local\Temp\cca5ocgO.s:26935  .debug_str:000000000001fa76 .LASF1930
C:\Users\CYMR90~1\AppData\Local\Temp\cca5ocgO.s:30189  .debug_str:000000000002c90a .LASF1931
C:\Users\CYMR90~1\AppData\Local\Temp\cca5ocgO.s:29877  .debug_str:000000000002b3e2 .LASF1932
C:\Users\CYMR90~1\AppData\Local\Temp\cca5ocgO.s:21006  .debug_str:0000000000007bc5 .LASF1933
C:\Users\CYMR90~1\AppData\Local\Temp\cca5ocgO.s:22058  .debug_str:000000000000c0b4 .LASF1934
C:\Users\CYMR90~1\AppData\Local\Temp\cca5ocgO.s:26123  .debug_str:000000000001c625 .LASF1935
C:\Users\CYMR90~1\AppData\Local\Temp\cca5ocgO.s:20488  .debug_str:0000000000005b19 .LASF1936
C:\Users\CYMR90~1\AppData\Local\Temp\cca5ocgO.s:25983  .debug_str:000000000001bda0 .LASF1937
C:\Users\CYMR90~1\AppData\Local\Temp\cca5ocgO.s:24967  .debug_str:0000000000017a84 .LASF1938
C:\Users\CYMR90~1\AppData\Local\Temp\cca5ocgO.s:24274  .debug_str:0000000000014dbb .LASF1939
C:\Users\CYMR90~1\AppData\Local\Temp\cca5ocgO.s:21196  .debug_str:00000000000088c6 .LASF1940
C:\Users\CYMR90~1\AppData\Local\Temp\cca5ocgO.s:29311  .debug_str:0000000000029158 .LASF1941
C:\Users\CYMR90~1\AppData\Local\Temp\cca5ocgO.s:26233  .debug_str:000000000001cdd4 .LASF1942
C:\Users\CYMR90~1\AppData\Local\Temp\cca5ocgO.s:22122  .debug_str:000000000000c49b .LASF1943
C:\Users\CYMR90~1\AppData\Local\Temp\cca5ocgO.s:23256  .debug_str:0000000000010b89 .LASF1944
C:\Users\CYMR90~1\AppData\Local\Temp\cca5ocgO.s:27047  .debug_str:0000000000020192 .LASF1945
C:\Users\CYMR90~1\AppData\Local\Temp\cca5ocgO.s:23988  .debug_str:0000000000013bbd .LASF1946
C:\Users\CYMR90~1\AppData\Local\Temp\cca5ocgO.s:20782  .debug_str:0000000000006d10 .LASF1947
C:\Users\CYMR90~1\AppData\Local\Temp\cca5ocgO.s:19720  .debug_str:000000000000299c .LASF1948
C:\Users\CYMR90~1\AppData\Local\Temp\cca5ocgO.s:25869  .debug_str:000000000001b6c7 .LASF1949
C:\Users\CYMR90~1\AppData\Local\Temp\cca5ocgO.s:22788  .debug_str:000000000000eeff .LASF1950
C:\Users\CYMR90~1\AppData\Local\Temp\cca5ocgO.s:19584  .debug_str:000000000000211b .LASF1951
C:\Users\CYMR90~1\AppData\Local\Temp\cca5ocgO.s:27785  .debug_str:0000000000022e0d .LASF1952
C:\Users\CYMR90~1\AppData\Local\Temp\cca5ocgO.s:28495  .debug_str:0000000000025ce8 .LASF1953
C:\Users\CYMR90~1\AppData\Local\Temp\cca5ocgO.s:24112  .debug_str:00000000000143a5 .LASF1954
C:\Users\CYMR90~1\AppData\Local\Temp\cca5ocgO.s:27323  .debug_str:0000000000021206 .LASF1955
C:\Users\CYMR90~1\AppData\Local\Temp\cca5ocgO.s:27985  .debug_str:0000000000023a09 .LASF1956
C:\Users\CYMR90~1\AppData\Local\Temp\cca5ocgO.s:19642  .debug_str:000000000000247d .LASF1957
C:\Users\CYMR90~1\AppData\Local\Temp\cca5ocgO.s:29715  .debug_str:000000000002a976 .LASF1958
C:\Users\CYMR90~1\AppData\Local\Temp\cca5ocgO.s:21012  .debug_str:0000000000007c36 .LASF1959
C:\Users\CYMR90~1\AppData\Local\Temp\cca5ocgO.s:29295  .debug_str:000000000002905a .LASF1960
C:\Users\CYMR90~1\AppData\Local\Temp\cca5ocgO.s:26189  .debug_str:000000000001cb0f .LASF1961
C:\Users\CYMR90~1\AppData\Local\Temp\cca5ocgO.s:19150  .debug_str:000000000000063b .LASF1962
C:\Users\CYMR90~1\AppData\Local\Temp\cca5ocgO.s:24502  .debug_str:0000000000015b89 .LASF1963
C:\Users\CYMR90~1\AppData\Local\Temp\cca5ocgO.s:28349  .debug_str:0000000000025300 .LASF1964
C:\Users\CYMR90~1\AppData\Local\Temp\cca5ocgO.s:20848  .debug_str:000000000000716a .LASF1965
C:\Users\CYMR90~1\AppData\Local\Temp\cca5ocgO.s:26325  .debug_str:000000000001d47d .LASF1966
C:\Users\CYMR90~1\AppData\Local\Temp\cca5ocgO.s:29815  .debug_str:000000000002af75 .LASF1967
C:\Users\CYMR90~1\AppData\Local\Temp\cca5ocgO.s:26165  .debug_str:000000000001c97f .LASF1968
C:\Users\CYMR90~1\AppData\Local\Temp\cca5ocgO.s:27673  .debug_str:0000000000022758 .LASF1969
C:\Users\CYMR90~1\AppData\Local\Temp\cca5ocgO.s:20830  .debug_str:0000000000007018 .LASF1970
C:\Users\CYMR90~1\AppData\Local\Temp\cca5ocgO.s:27679  .debug_str:00000000000227a6 .LASF1971
C:\Users\CYMR90~1\AppData\Local\Temp\cca5ocgO.s:28383  .debug_str:000000000002555d .LASF1972
C:\Users\CYMR90~1\AppData\Local\Temp\cca5ocgO.s:25485  .debug_str:0000000000019c8f .LASF1973
C:\Users\CYMR90~1\AppData\Local\Temp\cca5ocgO.s:25301  .debug_str:0000000000018f6d .LASF1974
C:\Users\CYMR90~1\AppData\Local\Temp\cca5ocgO.s:29765  .debug_str:000000000002ac97 .LASF1975
C:\Users\CYMR90~1\AppData\Local\Temp\cca5ocgO.s:21030  .debug_str:0000000000007ddc .LASF1976
C:\Users\CYMR90~1\AppData\Local\Temp\cca5ocgO.s:21382  .debug_str:0000000000009444 .LASF1977
C:\Users\CYMR90~1\AppData\Local\Temp\cca5ocgO.s:29535  .debug_str:0000000000029eae .LASF1978
C:\Users\CYMR90~1\AppData\Local\Temp\cca5ocgO.s:20314  .debug_str:0000000000005082 .LASF1979
C:\Users\CYMR90~1\AppData\Local\Temp\cca5ocgO.s:28285  .debug_str:0000000000024e4e .LASF1980
C:\Users\CYMR90~1\AppData\Local\Temp\cca5ocgO.s:28145  .debug_str:00000000000244ea .LASF1981
C:\Users\CYMR90~1\AppData\Local\Temp\cca5ocgO.s:27991  .debug_str:0000000000023a64 .LASF1982
C:\Users\CYMR90~1\AppData\Local\Temp\cca5ocgO.s:28803  .debug_str:0000000000026f9d .LASF1983
C:\Users\CYMR90~1\AppData\Local\Temp\cca5ocgO.s:29719  .debug_str:000000000002a9cc .LASF1984
C:\Users\CYMR90~1\AppData\Local\Temp\cca5ocgO.s:26707  .debug_str:000000000001ec5c .LASF1985
C:\Users\CYMR90~1\AppData\Local\Temp\cca5ocgO.s:25903  .debug_str:000000000001b8e4 .LASF1986
C:\Users\CYMR90~1\AppData\Local\Temp\cca5ocgO.s:24186  .debug_str:000000000001484e .LASF1987
C:\Users\CYMR90~1\AppData\Local\Temp\cca5ocgO.s:25201  .debug_str:000000000001885d .LASF1988
C:\Users\CYMR90~1\AppData\Local\Temp\cca5ocgO.s:22220  .debug_str:000000000000cc3a .LASF1989
C:\Users\CYMR90~1\AppData\Local\Temp\cca5ocgO.s:21246  .debug_str:0000000000008bfd .LASF1990
C:\Users\CYMR90~1\AppData\Local\Temp\cca5ocgO.s:22278  .debug_str:000000000000cf53 .LASF1991
C:\Users\CYMR90~1\AppData\Local\Temp\cca5ocgO.s:25533  .debug_str:0000000000019f59 .LASF1992
C:\Users\CYMR90~1\AppData\Local\Temp\cca5ocgO.s:20220  .debug_str:0000000000004ac3 .LASF1993
C:\Users\CYMR90~1\AppData\Local\Temp\cca5ocgO.s:19300  .debug_str:0000000000001006 .LASF1994
C:\Users\CYMR90~1\AppData\Local\Temp\cca5ocgO.s:28399  .debug_str:000000000002567e .LASF1995
C:\Users\CYMR90~1\AppData\Local\Temp\cca5ocgO.s:19938  .debug_str:000000000000374e .LASF1996
C:\Users\CYMR90~1\AppData\Local\Temp\cca5ocgO.s:28859  .debug_str:00000000000273d3 .LASF1997
C:\Users\CYMR90~1\AppData\Local\Temp\cca5ocgO.s:21166  .debug_str:00000000000086f7 .LASF1998
C:\Users\CYMR90~1\AppData\Local\Temp\cca5ocgO.s:25129  .debug_str:000000000001841f .LASF1999
C:\Users\CYMR90~1\AppData\Local\Temp\cca5ocgO.s:24602  .debug_str:0000000000016276 .LASF2000
C:\Users\CYMR90~1\AppData\Local\Temp\cca5ocgO.s:23416  .debug_str:000000000001156f .LASF2001
C:\Users\CYMR90~1\AppData\Local\Temp\cca5ocgO.s:27685  .debug_str:000000000002280b .LASF2002
C:\Users\CYMR90~1\AppData\Local\Temp\cca5ocgO.s:29081  .debug_str:00000000000282cd .LASF2003
C:\Users\CYMR90~1\AppData\Local\Temp\cca5ocgO.s:24142  .debug_str:0000000000014525 .LASF2004
C:\Users\CYMR90~1\AppData\Local\Temp\cca5ocgO.s:27579  .debug_str:0000000000022210 .LASF2005
C:\Users\CYMR90~1\AppData\Local\Temp\cca5ocgO.s:24807  .debug_str:00000000000170a3 .LASF2006
C:\Users\CYMR90~1\AppData\Local\Temp\cca5ocgO.s:29969  .debug_str:000000000002ba10 .LASF2007
C:\Users\CYMR90~1\AppData\Local\Temp\cca5ocgO.s:20356  .debug_str:0000000000005321 .LASF2008
C:\Users\CYMR90~1\AppData\Local\Temp\cca5ocgO.s:23916  .debug_str:000000000001377c .LASF2009
C:\Users\CYMR90~1\AppData\Local\Temp\cca5ocgO.s:26603  .debug_str:000000000001e619 .LASF2010
C:\Users\CYMR90~1\AppData\Local\Temp\cca5ocgO.s:22246  .debug_str:000000000000cda5 .LASF2011
C:\Users\CYMR90~1\AppData\Local\Temp\cca5ocgO.s:19494  .debug_str:0000000000001c1b .LASF2012
C:\Users\CYMR90~1\AppData\Local\Temp\cca5ocgO.s:27867  .debug_str:00000000000232a7 .LASF2013
C:\Users\CYMR90~1\AppData\Local\Temp\cca5ocgO.s:27627  .debug_str:0000000000022493 .LASF2014
C:\Users\CYMR90~1\AppData\Local\Temp\cca5ocgO.s:25617  .debug_str:000000000001a5c1 .LASF2015
C:\Users\CYMR90~1\AppData\Local\Temp\cca5ocgO.s:29449  .debug_str:00000000000299c4 .LASF2016
C:\Users\CYMR90~1\AppData\Local\Temp\cca5ocgO.s:27777  .debug_str:0000000000022db6 .LASF2017
C:\Users\CYMR90~1\AppData\Local\Temp\cca5ocgO.s:27409  .debug_str:00000000000217ea .LASF2018
C:\Users\CYMR90~1\AppData\Local\Temp\cca5ocgO.s:26365  .debug_str:000000000001d6f5 .LASF2019
C:\Users\CYMR90~1\AppData\Local\Temp\cca5ocgO.s:26149  .debug_str:000000000001c7d5 .LASF2020
C:\Users\CYMR90~1\AppData\Local\Temp\cca5ocgO.s:27819  .debug_str:0000000000022ff9 .LASF2021
C:\Users\CYMR90~1\AppData\Local\Temp\cca5ocgO.s:28793  .debug_str:0000000000026f1f .LASF2022
C:\Users\CYMR90~1\AppData\Local\Temp\cca5ocgO.s:25039  .debug_str:0000000000017ec3 .LASF2023
C:\Users\CYMR90~1\AppData\Local\Temp\cca5ocgO.s:28727  .debug_str:0000000000026ae2 .LASF2024
C:\Users\CYMR90~1\AppData\Local\Temp\cca5ocgO.s:21952  .debug_str:000000000000b9b0 .LASF2025
C:\Users\CYMR90~1\AppData\Local\Temp\cca5ocgO.s:29829  .debug_str:000000000002b053 .LASF2026
C:\Users\CYMR90~1\AppData\Local\Temp\cca5ocgO.s:19898  .debug_str:00000000000034de .LASF2027
C:\Users\CYMR90~1\AppData\Local\Temp\cca5ocgO.s:27879  .debug_str:000000000002334d .LASF2028
C:\Users\CYMR90~1\AppData\Local\Temp\cca5ocgO.s:26907  .debug_str:000000000001f8a7 .LASF2029
C:\Users\CYMR90~1\AppData\Local\Temp\cca5ocgO.s:19060  .debug_str:00000000000000ff .LASF2030
C:\Users\CYMR90~1\AppData\Local\Temp\cca5ocgO.s:25025  .debug_str:0000000000017dc5 .LASF2031
C:\Users\CYMR90~1\AppData\Local\Temp\cca5ocgO.s:21718  .debug_str:000000000000a98a .LASF2032
C:\Users\CYMR90~1\AppData\Local\Temp\cca5ocgO.s:22926  .debug_str:000000000000f7fe .LASF2033
C:\Users\CYMR90~1\AppData\Local\Temp\cca5ocgO.s:21930  .debug_str:000000000000b80d .LASF2034
C:\Users\CYMR90~1\AppData\Local\Temp\cca5ocgO.s:23482  .debug_str:0000000000011ad7 .LASF2035
C:\Users\CYMR90~1\AppData\Local\Temp\cca5ocgO.s:27357  .debug_str:00000000000214a8 .LASF2036
C:\Users\CYMR90~1\AppData\Local\Temp\cca5ocgO.s:27757  .debug_str:0000000000022c97 .LASF2037
C:\Users\CYMR90~1\AppData\Local\Temp\cca5ocgO.s:28327  .debug_str:000000000002510c .LASF2038
C:\Users\CYMR90~1\AppData\Local\Temp\cca5ocgO.s:23580  .debug_str:0000000000012114 .LASF2039
C:\Users\CYMR90~1\AppData\Local\Temp\cca5ocgO.s:25559  .debug_str:000000000001a0f1 .LASF2040
C:\Users\CYMR90~1\AppData\Local\Temp\cca5ocgO.s:22274  .debug_str:000000000000cf03 .LASF2041
C:\Users\CYMR90~1\AppData\Local\Temp\cca5ocgO.s:19728  .debug_str:0000000000002a0f .LASF2042
C:\Users\CYMR90~1\AppData\Local\Temp\cca5ocgO.s:20450  .debug_str:00000000000058c9 .LASF2043
C:\Users\CYMR90~1\AppData\Local\Temp\cca5ocgO.s:30235  .debug_str:000000000002cc4c .LASF2044
C:\Users\CYMR90~1\AppData\Local\Temp\cca5ocgO.s:23886  .debug_str:0000000000013575 .LASF2045
C:\Users\CYMR90~1\AppData\Local\Temp\cca5ocgO.s:27641  .debug_str:0000000000022553 .LASF2046
C:\Users\CYMR90~1\AppData\Local\Temp\cca5ocgO.s:29257  .debug_str:0000000000028e03 .LASF2047
C:\Users\CYMR90~1\AppData\Local\Temp\cca5ocgO.s:26027  .debug_str:000000000001c093 .LASF2048
C:\Users\CYMR90~1\AppData\Local\Temp\cca5ocgO.s:26563  .debug_str:000000000001e3a3 .LASF2049
C:\Users\CYMR90~1\AppData\Local\Temp\cca5ocgO.s:20512  .debug_str:0000000000005c77 .LASF2050
C:\Users\CYMR90~1\AppData\Local\Temp\cca5ocgO.s:19884  .debug_str:00000000000033e2 .LASF2051
C:\Users\CYMR90~1\AppData\Local\Temp\cca5ocgO.s:21836  .debug_str:000000000000b1c3 .LASF2052
C:\Users\CYMR90~1\AppData\Local\Temp\cca5ocgO.s:28365  .debug_str:0000000000025406 .LASF2053
C:\Users\CYMR90~1\AppData\Local\Temp\cca5ocgO.s:29673  .debug_str:000000000002a710 .LASF2054
C:\Users\CYMR90~1\AppData\Local\Temp\cca5ocgO.s:20324  .debug_str:000000000000512a .LASF2055
C:\Users\CYMR90~1\AppData\Local\Temp\cca5ocgO.s:28685  .debug_str:000000000002688a .LASF2056
C:\Users\CYMR90~1\AppData\Local\Temp\cca5ocgO.s:26723  .debug_str:000000000001ed67 .LASF2057
C:\Users\CYMR90~1\AppData\Local\Temp\cca5ocgO.s:24871  .debug_str:000000000001744a .LASF2058
C:\Users\CYMR90~1\AppData\Local\Temp\cca5ocgO.s:21710  .debug_str:000000000000a8ec .LASF2059
C:\Users\CYMR90~1\AppData\Local\Temp\cca5ocgO.s:22518  .debug_str:000000000000de5f .LASF2060
C:\Users\CYMR90~1\AppData\Local\Temp\cca5ocgO.s:27167  .debug_str:00000000000208dd .LASF2061
C:\Users\CYMR90~1\AppData\Local\Temp\cca5ocgO.s:24016  .debug_str:0000000000013d67 .LASF2062
C:\Users\CYMR90~1\AppData\Local\Temp\cca5ocgO.s:19698  .debug_str:0000000000002817 .LASF2063
C:\Users\CYMR90~1\AppData\Local\Temp\cca5ocgO.s:23300  .debug_str:0000000000010e59 .LASF2064
C:\Users\CYMR90~1\AppData\Local\Temp\cca5ocgO.s:26689  .debug_str:000000000001eb67 .LASF2065
C:\Users\CYMR90~1\AppData\Local\Temp\cca5ocgO.s:21400  .debug_str:0000000000009537 .LASF2066
C:\Users\CYMR90~1\AppData\Local\Temp\cca5ocgO.s:21864  .debug_str:000000000000b34a .LASF2067
C:\Users\CYMR90~1\AppData\Local\Temp\cca5ocgO.s:24973  .debug_str:0000000000017ae5 .LASF2068
C:\Users\CYMR90~1\AppData\Local\Temp\cca5ocgO.s:24576  .debug_str:00000000000160c0 .LASF2069
C:\Users\CYMR90~1\AppData\Local\Temp\cca5ocgO.s:22410  .debug_str:000000000000d805 .LASF2070
C:\Users\CYMR90~1\AppData\Local\Temp\cca5ocgO.s:20482  .debug_str:0000000000005ad2 .LASF2071
C:\Users\CYMR90~1\AppData\Local\Temp\cca5ocgO.s:23740  .debug_str:0000000000012b8b .LASF2072
C:\Users\CYMR90~1\AppData\Local\Temp\cca5ocgO.s:22746  .debug_str:000000000000ecd7 .LASF2073
C:\Users\CYMR90~1\AppData\Local\Temp\cca5ocgO.s:21992  .debug_str:000000000000bc1e .LASF2074
C:\Users\CYMR90~1\AppData\Local\Temp\cca5ocgO.s:30051  .debug_str:000000000002bfe3 .LASF2075
C:\Users\CYMR90~1\AppData\Local\Temp\cca5ocgO.s:21270  .debug_str:0000000000008dd2 .LASF2076
C:\Users\CYMR90~1\AppData\Local\Temp\cca5ocgO.s:29335  .debug_str:000000000002929b .LASF2077
C:\Users\CYMR90~1\AppData\Local\Temp\cca5ocgO.s:20336  .debug_str:00000000000051ea .LASF2078
C:\Users\CYMR90~1\AppData\Local\Temp\cca5ocgO.s:19460  .debug_str:0000000000001a02 .LASF2079
C:\Users\CYMR90~1\AppData\Local\Temp\cca5ocgO.s:27907  .debug_str:000000000002354b .LASF2080
C:\Users\CYMR90~1\AppData\Local\Temp\cca5ocgO.s:27333  .debug_str:0000000000021295 .LASF2081
C:\Users\CYMR90~1\AppData\Local\Temp\cca5ocgO.s:29313  .debug_str:0000000000029180 .LASF2082
C:\Users\CYMR90~1\AppData\Local\Temp\cca5ocgO.s:23606  .debug_str:0000000000012290 .LASF2083
C:\Users\CYMR90~1\AppData\Local\Temp\cca5ocgO.s:29555  .debug_str:0000000000029fea .LASF2084
C:\Users\CYMR90~1\AppData\Local\Temp\cca5ocgO.s:27791  .debug_str:0000000000022e6b .LASF2085
C:\Users\CYMR90~1\AppData\Local\Temp\cca5ocgO.s:19352  .debug_str:00000000000012e8 .LASF2086
C:\Users\CYMR90~1\AppData\Local\Temp\cca5ocgO.s:19204  .debug_str:000000000000098b .LASF2087
C:\Users\CYMR90~1\AppData\Local\Temp\cca5ocgO.s:25819  .debug_str:000000000001b35d .LASF2088
C:\Users\CYMR90~1\AppData\Local\Temp\cca5ocgO.s:26877  .debug_str:000000000001f70c .LASF2089
C:\Users\CYMR90~1\AppData\Local\Temp\cca5ocgO.s:24795  .debug_str:0000000000016fea .LASF2090
C:\Users\CYMR90~1\AppData\Local\Temp\cca5ocgO.s:23540  .debug_str:0000000000011e37 .LASF2091
C:\Users\CYMR90~1\AppData\Local\Temp\cca5ocgO.s:24899  .debug_str:00000000000175ff .LASF2092
C:\Users\CYMR90~1\AppData\Local\Temp\cca5ocgO.s:24042  .debug_str:0000000000013eff .LASF2093
C:\Users\CYMR90~1\AppData\Local\Temp\cca5ocgO.s:19878  .debug_str:0000000000003392 .LASF2094
C:\Users\CYMR90~1\AppData\Local\Temp\cca5ocgO.s:20094  .debug_str:0000000000004217 .LASF2095
C:\Users\CYMR90~1\AppData\Local\Temp\cca5ocgO.s:21510  .debug_str:0000000000009c81 .LASF2096
C:\Users\CYMR90~1\AppData\Local\Temp\cca5ocgO.s:29053  .debug_str:0000000000028073 .LASF2097
C:\Users\CYMR90~1\AppData\Local\Temp\cca5ocgO.s:28505  .debug_str:0000000000025d80 .LASF2098
C:\Users\CYMR90~1\AppData\Local\Temp\cca5ocgO.s:23088  .debug_str:0000000000010143 .LASF2099
C:\Users\CYMR90~1\AppData\Local\Temp\cca5ocgO.s:21870  .debug_str:000000000000b3af .LASF2100
C:\Users\CYMR90~1\AppData\Local\Temp\cca5ocgO.s:20660  .debug_str:000000000000655b .LASF2101
C:\Users\CYMR90~1\AppData\Local\Temp\cca5ocgO.s:19774  .debug_str:0000000000002cd0 .LASF2102
C:\Users\CYMR90~1\AppData\Local\Temp\cca5ocgO.s:21548  .debug_str:0000000000009ec3 .LASF2103
C:\Users\CYMR90~1\AppData\Local\Temp\cca5ocgO.s:30001  .debug_str:000000000002bc40 .LASF2104
C:\Users\CYMR90~1\AppData\Local\Temp\cca5ocgO.s:24897  .debug_str:00000000000175db .LASF2105
C:\Users\CYMR90~1\AppData\Local\Temp\cca5ocgO.s:19872  .debug_str:0000000000003312 .LASF2106
C:\Users\CYMR90~1\AppData\Local\Temp\cca5ocgO.s:29283  .debug_str:0000000000028fad .LASF2107
C:\Users\CYMR90~1\AppData\Local\Temp\cca5ocgO.s:23574  .debug_str:000000000001209a .LASF2108
C:\Users\CYMR90~1\AppData\Local\Temp\cca5ocgO.s:20866  .debug_str:00000000000072d9 .LASF2109
C:\Users\CYMR90~1\AppData\Local\Temp\cca5ocgO.s:22322  .debug_str:000000000000d21c .LASF2110
C:\Users\CYMR90~1\AppData\Local\Temp\cca5ocgO.s:24843  .debug_str:00000000000172b7 .LASF2111
C:\Users\CYMR90~1\AppData\Local\Temp\cca5ocgO.s:26897  .debug_str:000000000001f821 .LASF2112
C:\Users\CYMR90~1\AppData\Local\Temp\cca5ocgO.s:29443  .debug_str:000000000002996a .LASF2113
C:\Users\CYMR90~1\AppData\Local\Temp\cca5ocgO.s:22806  .debug_str:000000000000f009 .LASF2114
C:\Users\CYMR90~1\AppData\Local\Temp\cca5ocgO.s:23938  .debug_str:00000000000138b4 .LASF2115
C:\Users\CYMR90~1\AppData\Local\Temp\cca5ocgO.s:25803  .debug_str:000000000001b23c .LASF2116
C:\Users\CYMR90~1\AppData\Local\Temp\cca5ocgO.s:24124  .debug_str:0000000000014442 .LASF2117
C:\Users\CYMR90~1\AppData\Local\Temp\cca5ocgO.s:28137  .debug_str:000000000002447b .LASF2118
C:\Users\CYMR90~1\AppData\Local\Temp\cca5ocgO.s:26841  .debug_str:000000000001f4ae .LASF2119
C:\Users\CYMR90~1\AppData\Local\Temp\cca5ocgO.s:19732  .debug_str:0000000000002a46 .LASF2120
C:\Users\CYMR90~1\AppData\Local\Temp\cca5ocgO.s:27265  .debug_str:0000000000020ec9 .LASF2121
C:\Users\CYMR90~1\AppData\Local\Temp\cca5ocgO.s:21126  .debug_str:00000000000084bd .LASF2122
C:\Users\CYMR90~1\AppData\Local\Temp\cca5ocgO.s:23986  .debug_str:0000000000013b99 .LASF2123
C:\Users\CYMR90~1\AppData\Local\Temp\cca5ocgO.s:26589  .debug_str:000000000001e537 .LASF2124
C:\Users\CYMR90~1\AppData\Local\Temp\cca5ocgO.s:23838  .debug_str:000000000001320a .LASF2125
C:\Users\CYMR90~1\AppData\Local\Temp\cca5ocgO.s:24965  .debug_str:0000000000017a5d .LASF2126
C:\Users\CYMR90~1\AppData\Local\Temp\cca5ocgO.s:28817  .debug_str:00000000000270a8 .LASF2127
C:\Users\CYMR90~1\AppData\Local\Temp\cca5ocgO.s:27371  .debug_str:000000000002157e .LASF2128
C:\Users\CYMR90~1\AppData\Local\Temp\cca5ocgO.s:23296  .debug_str:0000000000010e1e .LASF2129
C:\Users\CYMR90~1\AppData\Local\Temp\cca5ocgO.s:27279  .debug_str:0000000000020f94 .LASF2130
C:\Users\CYMR90~1\AppData\Local\Temp\cca5ocgO.s:25191  .debug_str:00000000000187a6 .LASF2131
C:\Users\CYMR90~1\AppData\Local\Temp\cca5ocgO.s:27107  .debug_str:00000000000204b4 .LASF2132
C:\Users\CYMR90~1\AppData\Local\Temp\cca5ocgO.s:23476  .debug_str:0000000000011a61 .LASF2133
C:\Users\CYMR90~1\AppData\Local\Temp\cca5ocgO.s:19862  .debug_str:0000000000003274 .LASF2134
C:\Users\CYMR90~1\AppData\Local\Temp\cca5ocgO.s:19610  .debug_str:0000000000002283 .LASF2135
C:\Users\CYMR90~1\AppData\Local\Temp\cca5ocgO.s:25347  .debug_str:00000000000192f1 .LASF2136
C:\Users\CYMR90~1\AppData\Local\Temp\cca5ocgO.s:29543  .debug_str:0000000000029f3d .LASF2137
C:\Users\CYMR90~1\AppData\Local\Temp\cca5ocgO.s:21128  .debug_str:00000000000084e2 .LASF2138
C:\Users\CYMR90~1\AppData\Local\Temp\cca5ocgO.s:27463  .debug_str:0000000000021b24 .LASF2139
C:\Users\CYMR90~1\AppData\Local\Temp\cca5ocgO.s:23394  .debug_str:00000000000113da .LASF2140
C:\Users\CYMR90~1\AppData\Local\Temp\cca5ocgO.s:22870  .debug_str:000000000000f418 .LASF2141
C:\Users\CYMR90~1\AppData\Local\Temp\cca5ocgO.s:26857  .debug_str:000000000001f5e0 .LASF2142
C:\Users\CYMR90~1\AppData\Local\Temp\cca5ocgO.s:27393  .debug_str:00000000000216c0 .LASF2143
C:\Users\CYMR90~1\AppData\Local\Temp\cca5ocgO.s:23672  .debug_str:00000000000126f0 .LASF2144
C:\Users\CYMR90~1\AppData\Local\Temp\cca5ocgO.s:19890  .debug_str:0000000000003449 .LASF2145
C:\Users\CYMR90~1\AppData\Local\Temp\cca5ocgO.s:19066  .debug_str:0000000000000148 .LASF2146
C:\Users\CYMR90~1\AppData\Local\Temp\cca5ocgO.s:19486  .debug_str:0000000000001b7f .LASF2147
C:\Users\CYMR90~1\AppData\Local\Temp\cca5ocgO.s:24905  .debug_str:0000000000017655 .LASF2148
C:\Users\CYMR90~1\AppData\Local\Temp\cca5ocgO.s:29247  .debug_str:0000000000028d70 .LASF2149
C:\Users\CYMR90~1\AppData\Local\Temp\cca5ocgO.s:28841  .debug_str:00000000000272c2 .LASF2150
C:\Users\CYMR90~1\AppData\Local\Temp\cca5ocgO.s:23940  .debug_str:00000000000138db .LASF2151
C:\Users\CYMR90~1\AppData\Local\Temp\cca5ocgO.s:22490  .debug_str:000000000000dc63 .LASF2152
C:\Users\CYMR90~1\AppData\Local\Temp\cca5ocgO.s:20494  .debug_str:0000000000005b84 .LASF2153
C:\Users\CYMR90~1\AppData\Local\Temp\cca5ocgO.s:24680  .debug_str:00000000000166d0 .LASF2154
C:\Users\CYMR90~1\AppData\Local\Temp\cca5ocgO.s:19412  .debug_str:0000000000001681 .LASF2155
C:\Users\CYMR90~1\AppData\Local\Temp\cca5ocgO.s:19966  .debug_str:000000000000394e .LASF2156
C:\Users\CYMR90~1\AppData\Local\Temp\cca5ocgO.s:28805  .debug_str:0000000000026fc0 .LASF2157
C:\Users\CYMR90~1\AppData\Local\Temp\cca5ocgO.s:23332  .debug_str:0000000000011042 .LASF2158
C:\Users\CYMR90~1\AppData\Local\Temp\cca5ocgO.s:25253  .debug_str:0000000000018bd5 .LASF2159
C:\Users\CYMR90~1\AppData\Local\Temp\cca5ocgO.s:28605  .debug_str:0000000000026390 .LASF2160
C:\Users\CYMR90~1\AppData\Local\Temp\cca5ocgO.s:21296  .debug_str:0000000000008f8f .LASF2161
C:\Users\CYMR90~1\AppData\Local\Temp\cca5ocgO.s:29525  .debug_str:0000000000029e2b .LASF2162
C:\Users\CYMR90~1\AppData\Local\Temp\cca5ocgO.s:30227  .debug_str:000000000002cb55 .LASF2163
C:\Users\CYMR90~1\AppData\Local\Temp\cca5ocgO.s:19996  .debug_str:0000000000003b3b .LASF2164
C:\Users\CYMR90~1\AppData\Local\Temp\cca5ocgO.s:27889  .debug_str:00000000000233e9 .LASF2165
C:\Users\CYMR90~1\AppData\Local\Temp\cca5ocgO.s:25333  .debug_str:0000000000019238 .LASF2166
C:\Users\CYMR90~1\AppData\Local\Temp\cca5ocgO.s:28839  .debug_str:00000000000272aa .LASF2167
C:\Users\CYMR90~1\AppData\Local\Temp\cca5ocgO.s:21830  .debug_str:000000000000b184 .LASF2168
C:\Users\CYMR90~1\AppData\Local\Temp\cca5ocgO.s:24877  .debug_str:0000000000017491 .LASF2169
C:\Users\CYMR90~1\AppData\Local\Temp\cca5ocgO.s:24624  .debug_str:00000000000163c3 .LASF2170
C:\Users\CYMR90~1\AppData\Local\Temp\cca5ocgO.s:22640  .debug_str:000000000000e5be .LASF2171
C:\Users\CYMR90~1\AppData\Local\Temp\cca5ocgO.s:22774  .debug_str:000000000000ee36 .LASF2172
C:\Users\CYMR90~1\AppData\Local\Temp\cca5ocgO.s:26861  .debug_str:000000000001f617 .LASF2173
C:\Users\CYMR90~1\AppData\Local\Temp\cca5ocgO.s:24564  .debug_str:0000000000015fe3 .LASF2174
C:\Users\CYMR90~1\AppData\Local\Temp\cca5ocgO.s:23534  .debug_str:0000000000011df5 .LASF2175
C:\Users\CYMR90~1\AppData\Local\Temp\cca5ocgO.s:26655  .debug_str:000000000001e970 .LASF2176
C:\Users\CYMR90~1\AppData\Local\Temp\cca5ocgO.s:21874  .debug_str:000000000000b3d7 .LASF2177
C:\Users\CYMR90~1\AppData\Local\Temp\cca5ocgO.s:27541  .debug_str:0000000000021fdf .LASF2178
C:\Users\CYMR90~1\AppData\Local\Temp\cca5ocgO.s:22502  .debug_str:000000000000dd3e .LASF2179
C:\Users\CYMR90~1\AppData\Local\Temp\cca5ocgO.s:21002  .debug_str:0000000000007b8f .LASF2180
C:\Users\CYMR90~1\AppData\Local\Temp\cca5ocgO.s:28523  .debug_str:0000000000025ebd .LASF2181
C:\Users\CYMR90~1\AppData\Local\Temp\cca5ocgO.s:22668  .debug_str:000000000000e7c6 .LASF2182
C:\Users\CYMR90~1\AppData\Local\Temp\cca5ocgO.s:24598  .debug_str:0000000000016240 .LASF2183
C:\Users\CYMR90~1\AppData\Local\Temp\cca5ocgO.s:20116  .debug_str:000000000000435d .LASF2184
C:\Users\CYMR90~1\AppData\Local\Temp\cca5ocgO.s:22952  .debug_str:000000000000f980 .LASF2185
C:\Users\CYMR90~1\AppData\Local\Temp\cca5ocgO.s:29787  .debug_str:000000000002adf0 .LASF2186
C:\Users\CYMR90~1\AppData\Local\Temp\cca5ocgO.s:26665  .debug_str:000000000001ea10 .LASF2187
C:\Users\CYMR90~1\AppData\Local\Temp\cca5ocgO.s:21494  .debug_str:0000000000009baf .LASF2188
C:\Users\CYMR90~1\AppData\Local\Temp\cca5ocgO.s:25651  .debug_str:000000000001a86a .LASF2189
C:\Users\CYMR90~1\AppData\Local\Temp\cca5ocgO.s:20054  .debug_str:0000000000003eba .LASF2190
C:\Users\CYMR90~1\AppData\Local\Temp\cca5ocgO.s:21594  .debug_str:000000000000a1c1 .LASF2191
C:\Users\CYMR90~1\AppData\Local\Temp\cca5ocgO.s:26743  .debug_str:000000000001ee84 .LASF2192
C:\Users\CYMR90~1\AppData\Local\Temp\cca5ocgO.s:19980  .debug_str:0000000000003a10 .LASF2193
C:\Users\CYMR90~1\AppData\Local\Temp\cca5ocgO.s:23420  .debug_str:000000000001159f .LASF2194
C:\Users\CYMR90~1\AppData\Local\Temp\cca5ocgO.s:28089  .debug_str:00000000000240eb .LASF2195
C:\Users\CYMR90~1\AppData\Local\Temp\cca5ocgO.s:20950  .debug_str:0000000000007819 .LASF2196
C:\Users\CYMR90~1\AppData\Local\Temp\cca5ocgO.s:24288  .debug_str:0000000000014eb4 .LASF2197
C:\Users\CYMR90~1\AppData\Local\Temp\cca5ocgO.s:21226  .debug_str:0000000000008ab3 .LASF2198
C:\Users\CYMR90~1\AppData\Local\Temp\cca5ocgO.s:27101  .debug_str:000000000002046b .LASF2199
C:\Users\CYMR90~1\AppData\Local\Temp\cca5ocgO.s:21732  .debug_str:000000000000aa69 .LASF2200
C:\Users\CYMR90~1\AppData\Local\Temp\cca5ocgO.s:27603  .debug_str:0000000000022368 .LASF2201
C:\Users\CYMR90~1\AppData\Local\Temp\cca5ocgO.s:26939  .debug_str:000000000001fab7 .LASF2202
C:\Users\CYMR90~1\AppData\Local\Temp\cca5ocgO.s:28105  .debug_str:0000000000024223 .LASF2203
C:\Users\CYMR90~1\AppData\Local\Temp\cca5ocgO.s:28673  .debug_str:00000000000267db .LASF2204
C:\Users\CYMR90~1\AppData\Local\Temp\cca5ocgO.s:28509  .debug_str:0000000000025db3 .LASF2205
C:\Users\CYMR90~1\AppData\Local\Temp\cca5ocgO.s:28153  .debug_str:0000000000024551 .LASF2206
C:\Users\CYMR90~1\AppData\Local\Temp\cca5ocgO.s:27233  .debug_str:0000000000020cde .LASF2207
C:\Users\CYMR90~1\AppData\Local\Temp\cca5ocgO.s:23142  .debug_str:00000000000103e6 .LASF2208
C:\Users\CYMR90~1\AppData\Local\Temp\cca5ocgO.s:25297  .debug_str:0000000000018f1f .LASF2209
C:\Users\CYMR90~1\AppData\Local\Temp\cca5ocgO.s:27083  .debug_str:0000000000020345 .LASF2210
C:\Users\CYMR90~1\AppData\Local\Temp\cca5ocgO.s:22002  .debug_str:000000000000bcd0 .LASF2211
C:\Users\CYMR90~1\AppData\Local\Temp\cca5ocgO.s:20716  .debug_str:00000000000068ec .LASF2212
C:\Users\CYMR90~1\AppData\Local\Temp\cca5ocgO.s:29973  .debug_str:000000000002ba3e .LASF2213
C:\Users\CYMR90~1\AppData\Local\Temp\cca5ocgO.s:30053  .debug_str:000000000002bff4 .LASF2214
C:\Users\CYMR90~1\AppData\Local\Temp\cca5ocgO.s:24030  .debug_str:0000000000013e2d .LASF2215
C:\Users\CYMR90~1\AppData\Local\Temp\cca5ocgO.s:21692  .debug_str:000000000000a7eb .LASF2216
C:\Users\CYMR90~1\AppData\Local\Temp\cca5ocgO.s:25899  .debug_str:000000000001b8ac .LASF2217
C:\Users\CYMR90~1\AppData\Local\Temp\cca5ocgO.s:25225  .debug_str:0000000000018a16 .LASF2218
C:\Users\CYMR90~1\AppData\Local\Temp\cca5ocgO.s:29819  .debug_str:000000000002afb2 .LASF2219
C:\Users\CYMR90~1\AppData\Local\Temp\cca5ocgO.s:26443  .debug_str:000000000001dbf3 .LASF2220
C:\Users\CYMR90~1\AppData\Local\Temp\cca5ocgO.s:25311  .debug_str:0000000000018fe4 .LASF2221
C:\Users\CYMR90~1\AppData\Local\Temp\cca5ocgO.s:23708  .debug_str:000000000001294b .LASF2222
C:\Users\CYMR90~1\AppData\Local\Temp\cca5ocgO.s:25939  .debug_str:000000000001badf .LASF2223
C:\Users\CYMR90~1\AppData\Local\Temp\cca5ocgO.s:20654  .debug_str:0000000000006503 .LASF2224
C:\Users\CYMR90~1\AppData\Local\Temp\cca5ocgO.s:19086  .debug_str:000000000000027b .LASF2225
C:\Users\CYMR90~1\AppData\Local\Temp\cca5ocgO.s:20188  .debug_str:000000000000483a .LASF2226
C:\Users\CYMR90~1\AppData\Local\Temp\cca5ocgO.s:25487  .debug_str:0000000000019ca0 .LASF2227
C:\Users\CYMR90~1\AppData\Local\Temp\cca5ocgO.s:24767  .debug_str:0000000000016e1d .LASF2228
C:\Users\CYMR90~1\AppData\Local\Temp\cca5ocgO.s:26493  .debug_str:000000000001df93 .LASF2229
C:\Users\CYMR90~1\AppData\Local\Temp\cca5ocgO.s:20156  .debug_str:0000000000004604 .LASF2230
C:\Users\CYMR90~1\AppData\Local\Temp\cca5ocgO.s:26717  .debug_str:000000000001ecf4 .LASF2231
C:\Users\CYMR90~1\AppData\Local\Temp\cca5ocgO.s:19470  .debug_str:0000000000001a9d .LASF2232
C:\Users\CYMR90~1\AppData\Local\Temp\cca5ocgO.s:25475  .debug_str:0000000000019bdc .LASF2233
C:\Users\CYMR90~1\AppData\Local\Temp\cca5ocgO.s:22184  .debug_str:000000000000c8d1 .LASF2234
C:\Users\CYMR90~1\AppData\Local\Temp\cca5ocgO.s:20386  .debug_str:00000000000054fa .LASF2235
C:\Users\CYMR90~1\AppData\Local\Temp\cca5ocgO.s:30007  .debug_str:000000000002bc9d .LASF2236
C:\Users\CYMR90~1\AppData\Local\Temp\cca5ocgO.s:22644  .debug_str:000000000000e5f9 .LASF2237
C:\Users\CYMR90~1\AppData\Local\Temp\cca5ocgO.s:27347  .debug_str:000000000002140c .LASF2238
C:\Users\CYMR90~1\AppData\Local\Temp\cca5ocgO.s:26397  .debug_str:000000000001d934 .LASF2239
C:\Users\CYMR90~1\AppData\Local\Temp\cca5ocgO.s:26329  .debug_str:000000000001d4ba .LASF2240
C:\Users\CYMR90~1\AppData\Local\Temp\cca5ocgO.s:19534  .debug_str:0000000000001e66 .LASF2241
C:\Users\CYMR90~1\AppData\Local\Temp\cca5ocgO.s:27365  .debug_str:000000000002152a .LASF2242
C:\Users\CYMR90~1\AppData\Local\Temp\cca5ocgO.s:28887  .debug_str:000000000002755b .LASF2243
C:\Users\CYMR90~1\AppData\Local\Temp\cca5ocgO.s:23556  .debug_str:0000000000011f4d .LASF2244
C:\Users\CYMR90~1\AppData\Local\Temp\cca5ocgO.s:24777  .debug_str:0000000000016eb9 .LASF2245
C:\Users\CYMR90~1\AppData\Local\Temp\cca5ocgO.s:21682  .debug_str:000000000000a710 .LASF2246
C:\Users\CYMR90~1\AppData\Local\Temp\cca5ocgO.s:24358  .debug_str:0000000000015346 .LASF2247
C:\Users\CYMR90~1\AppData\Local\Temp\cca5ocgO.s:19892  .debug_str:0000000000003470 .LASF2248
C:\Users\CYMR90~1\AppData\Local\Temp\cca5ocgO.s:26735  .debug_str:000000000001edfe .LASF2249
C:\Users\CYMR90~1\AppData\Local\Temp\cca5ocgO.s:25873  .debug_str:000000000001b705 .LASF2250
C:\Users\CYMR90~1\AppData\Local\Temp\cca5ocgO.s:24941  .debug_str:0000000000017899 .LASF2251
C:\Users\CYMR90~1\AppData\Local\Temp\cca5ocgO.s:28113  .debug_str:00000000000242bc .LASF2252
C:\Users\CYMR90~1\AppData\Local\Temp\cca5ocgO.s:23714  .debug_str:00000000000129a9 .LASF2253
C:\Users\CYMR90~1\AppData\Local\Temp\cca5ocgO.s:22454  .debug_str:000000000000da72 .LASF2254
C:\Users\CYMR90~1\AppData\Local\Temp\cca5ocgO.s:21214  .debug_str:00000000000089e9 .LASF2255
C:\Users\CYMR90~1\AppData\Local\Temp\cca5ocgO.s:23120  .debug_str:00000000000102ae .LASF2256
C:\Users\CYMR90~1\AppData\Local\Temp\cca5ocgO.s:26143  .debug_str:000000000001c775 .LASF2257
C:\Users\CYMR90~1\AppData\Local\Temp\cca5ocgO.s:23412  .debug_str:0000000000011523 .LASF2258
C:\Users\CYMR90~1\AppData\Local\Temp\cca5ocgO.s:23634  .debug_str:0000000000012454 .LASF2259
C:\Users\CYMR90~1\AppData\Local\Temp\cca5ocgO.s:23314  .debug_str:0000000000010f0a .LASF2260
C:\Users\CYMR90~1\AppData\Local\Temp\cca5ocgO.s:24406  .debug_str:000000000001560b .LASF2261
C:\Users\CYMR90~1\AppData\Local\Temp\cca5ocgO.s:19592  .debug_str:000000000000218c .LASF2262
C:\Users\CYMR90~1\AppData\Local\Temp\cca5ocgO.s:22688  .debug_str:000000000000e8ec .LASF2263
C:\Users\CYMR90~1\AppData\Local\Temp\cca5ocgO.s:26517  .debug_str:000000000001e102 .LASF2264
C:\Users\CYMR90~1\AppData\Local\Temp\cca5ocgO.s:25573  .debug_str:000000000001a1aa .LASF2265
C:\Users\CYMR90~1\AppData\Local\Temp\cca5ocgO.s:22536  .debug_str:000000000000df67 .LASF2266
C:\Users\CYMR90~1\AppData\Local\Temp\cca5ocgO.s:21886  .debug_str:000000000000b52e .LASF2267
C:\Users\CYMR90~1\AppData\Local\Temp\cca5ocgO.s:24949  .debug_str:0000000000017953 .LASF2268
C:\Users\CYMR90~1\AppData\Local\Temp\cca5ocgO.s:29737  .debug_str:000000000002aad3 .LASF2269
C:\Users\CYMR90~1\AppData\Local\Temp\cca5ocgO.s:20208  .debug_str:0000000000004a07 .LASF2270
C:\Users\CYMR90~1\AppData\Local\Temp\cca5ocgO.s:26023  .debug_str:000000000001c053 .LASF2271
C:\Users\CYMR90~1\AppData\Local\Temp\cca5ocgO.s:26419  .debug_str:000000000001daa6 .LASF2272
C:\Users\CYMR90~1\AppData\Local\Temp\cca5ocgO.s:24242  .debug_str:0000000000014bc3 .LASF2273
C:\Users\CYMR90~1\AppData\Local\Temp\cca5ocgO.s:29097  .debug_str:00000000000283c8 .LASF2274
C:\Users\CYMR90~1\AppData\Local\Temp\cca5ocgO.s:25777  .debug_str:000000000001b07a .LASF2275
C:\Users\CYMR90~1\AppData\Local\Temp\cca5ocgO.s:22460  .debug_str:000000000000dadd .LASF2276
C:\Users\CYMR90~1\AppData\Local\Temp\cca5ocgO.s:20392  .debug_str:0000000000005541 .LASF2277
C:\Users\CYMR90~1\AppData\Local\Temp\cca5ocgO.s:19260  .debug_str:0000000000000d36 .LASF2278
C:\Users\CYMR90~1\AppData\Local\Temp\cca5ocgO.s:28953  .debug_str:0000000000027991 .LASF2279
C:\Users\CYMR90~1\AppData\Local\Temp\cca5ocgO.s:27351  .debug_str:000000000002144a .LASF2280
C:\Users\CYMR90~1\AppData\Local\Temp\cca5ocgO.s:20390  .debug_str:000000000000552e .LASF2281
C:\Users\CYMR90~1\AppData\Local\Temp\cca5ocgO.s:25509  .debug_str:0000000000019e0b .LASF2282
C:\Users\CYMR90~1\AppData\Local\Temp\cca5ocgO.s:24831  .debug_str:00000000000171fe .LASF2283
C:\Users\CYMR90~1\AppData\Local\Temp\cca5ocgO.s:26201  .debug_str:000000000001cbae .LASF2284
C:\Users\CYMR90~1\AppData\Local\Temp\cca5ocgO.s:25733  .debug_str:000000000001ad4a .LASF2285
C:\Users\CYMR90~1\AppData\Local\Temp\cca5ocgO.s:28905  .debug_str:0000000000027659 .LASF2286
C:\Users\CYMR90~1\AppData\Local\Temp\cca5ocgO.s:23320  .debug_str:0000000000010f64 .LASF2287
C:\Users\CYMR90~1\AppData\Local\Temp\cca5ocgO.s:27503  .debug_str:0000000000021db6 .LASF2288
C:\Users\CYMR90~1\AppData\Local\Temp\cca5ocgO.s:29409  .debug_str:000000000002974d .LASF2289
C:\Users\CYMR90~1\AppData\Local\Temp\cca5ocgO.s:23524  .debug_str:0000000000011d3f .LASF2290
C:\Users\CYMR90~1\AppData\Local\Temp\cca5ocgO.s:29873  .debug_str:000000000002b398 .LASF2291
C:\Users\CYMR90~1\AppData\Local\Temp\cca5ocgO.s:26607  .debug_str:000000000001e666 .LASF2292
C:\Users\CYMR90~1\AppData\Local\Temp\cca5ocgO.s:20288  .debug_str:0000000000004f0e .LASF2293
C:\Users\CYMR90~1\AppData\Local\Temp\cca5ocgO.s:29273  .debug_str:0000000000028eeb .LASF2294
C:\Users\CYMR90~1\AppData\Local\Temp\cca5ocgO.s:29837  .debug_str:000000000002b110 .LASF2295
C:\Users\CYMR90~1\AppData\Local\Temp\cca5ocgO.s:20916  .debug_str:00000000000075da .LASF2296
C:\Users\CYMR90~1\AppData\Local\Temp\cca5ocgO.s:22492  .debug_str:000000000000dc88 .LASF2297
C:\Users\CYMR90~1\AppData\Local\Temp\cca5ocgO.s:21866  .debug_str:000000000000b35b .LASF2298
C:\Users\CYMR90~1\AppData\Local\Temp\cca5ocgO.s:24040  .debug_str:0000000000013ed4 .LASF2299
C:\Users\CYMR90~1\AppData\Local\Temp\cca5ocgO.s:29111  .debug_str:00000000000284c1 .LASF2300
C:\Users\CYMR90~1\AppData\Local\Temp\cca5ocgO.s:22840  .debug_str:000000000000f226 .LASF2301
C:\Users\CYMR90~1\AppData\Local\Temp\cca5ocgO.s:25971  .debug_str:000000000001bcfb .LASF2302
C:\Users\CYMR90~1\AppData\Local\Temp\cca5ocgO.s:28243  .debug_str:0000000000024b8a .LASF2303
C:\Users\CYMR90~1\AppData\Local\Temp\cca5ocgO.s:22452  .debug_str:000000000000da4b .LASF2304
C:\Users\CYMR90~1\AppData\Local\Temp\cca5ocgO.s:27397  .debug_str:00000000000216fb .LASF2305
C:\Users\CYMR90~1\AppData\Local\Temp\cca5ocgO.s:19342  .debug_str:0000000000001269 .LASF2306
C:\Users\CYMR90~1\AppData\Local\Temp\cca5ocgO.s:25673  .debug_str:000000000001a9ad .LASF2307
C:\Users\CYMR90~1\AppData\Local\Temp\cca5ocgO.s:26163  .debug_str:000000000001c956 .LASF2308
C:\Users\CYMR90~1\AppData\Local\Temp\cca5ocgO.s:19842  .debug_str:000000000000314a .LASF2309
C:\Users\CYMR90~1\AppData\Local\Temp\cca5ocgO.s:28521  .debug_str:0000000000025e94 .LASF2310
C:\Users\CYMR90~1\AppData\Local\Temp\cca5ocgO.s:29347  .debug_str:000000000002934e .LASF2311
C:\Users\CYMR90~1\AppData\Local\Temp\cca5ocgO.s:24080  .debug_str:0000000000014179 .LASF2312
C:\Users\CYMR90~1\AppData\Local\Temp\cca5ocgO.s:29063  .debug_str:000000000002810d .LASF2313
C:\Users\CYMR90~1\AppData\Local\Temp\cca5ocgO.s:20910  .debug_str:0000000000007579 .LASF2314
C:\Users\CYMR90~1\AppData\Local\Temp\cca5ocgO.s:27185  .debug_str:00000000000209f0 .LASF2315
C:\Users\CYMR90~1\AppData\Local\Temp\cca5ocgO.s:20972  .debug_str:000000000000796d .LASF2316
C:\Users\CYMR90~1\AppData\Local\Temp\cca5ocgO.s:25989  .debug_str:000000000001be16 .LASF2317
C:\Users\CYMR90~1\AppData\Local\Temp\cca5ocgO.s:29107  .debug_str:000000000002847c .LASF2318
C:\Users\CYMR90~1\AppData\Local\Temp\cca5ocgO.s:22724  .debug_str:000000000000eb63 .LASF2319
C:\Users\CYMR90~1\AppData\Local\Temp\cca5ocgO.s:20218  .debug_str:0000000000004a99 .LASF2320
C:\Users\CYMR90~1\AppData\Local\Temp\cca5ocgO.s:19766  .debug_str:0000000000002c73 .LASF2321
C:\Users\CYMR90~1\AppData\Local\Temp\cca5ocgO.s:30299  .debug_str:000000000002d043 .LASF2322
C:\Users\CYMR90~1\AppData\Local\Temp\cca5ocgO.s:20578  .debug_str:000000000000606c .LASF2323
C:\Users\CYMR90~1\AppData\Local\Temp\cca5ocgO.s:24200  .debug_str:0000000000014941 .LASF2324
C:\Users\CYMR90~1\AppData\Local\Temp\cca5ocgO.s:29901  .debug_str:000000000002b567 .LASF2325
C:\Users\CYMR90~1\AppData\Local\Temp\cca5ocgO.s:21660  .debug_str:000000000000a5f4 .LASF2326
C:\Users\CYMR90~1\AppData\Local\Temp\cca5ocgO.s:25185  .debug_str:0000000000018748 .LASF2327
C:\Users\CYMR90~1\AppData\Local\Temp\cca5ocgO.s:19628  .debug_str:00000000000023ac .LASF2328
C:\Users\CYMR90~1\AppData\Local\Temp\cca5ocgO.s:24116  .debug_str:00000000000143d0 .LASF2329
C:\Users\CYMR90~1\AppData\Local\Temp\cca5ocgO.s:20964  .debug_str:0000000000007909 .LASF2330
C:\Users\CYMR90~1\AppData\Local\Temp\cca5ocgO.s:22114  .debug_str:000000000000c42e .LASF2331
C:\Users\CYMR90~1\AppData\Local\Temp\cca5ocgO.s:23162  .debug_str:000000000001051e .LASF2332
C:\Users\CYMR90~1\AppData\Local\Temp\cca5ocgO.s:27307  .debug_str:0000000000021114 .LASF2333
C:\Users\CYMR90~1\AppData\Local\Temp\cca5ocgO.s:28695  .debug_str:0000000000026938 .LASF2334
C:\Users\CYMR90~1\AppData\Local\Temp\cca5ocgO.s:23174  .debug_str:00000000000105d8 .LASF2335
C:\Users\CYMR90~1\AppData\Local\Temp\cca5ocgO.s:23566  .debug_str:0000000000012027 .LASF2336
C:\Users\CYMR90~1\AppData\Local\Temp\cca5ocgO.s:22620  .debug_str:000000000000e48b .LASF2337
C:\Users\CYMR90~1\AppData\Local\Temp\cca5ocgO.s:20592  .debug_str:0000000000006159 .LASF2338
C:\Users\CYMR90~1\AppData\Local\Temp\cca5ocgO.s:19676  .debug_str:000000000000266e .LASF2339
C:\Users\CYMR90~1\AppData\Local\Temp\cca5ocgO.s:26385  .debug_str:000000000001d86b .LASF2340
C:\Users\CYMR90~1\AppData\Local\Temp\cca5ocgO.s:28579  .debug_str:00000000000261f7 .LASF2341
C:\Users\CYMR90~1\AppData\Local\Temp\cca5ocgO.s:26967  .debug_str:000000000001fc82 .LASF2342
C:\Users\CYMR90~1\AppData\Local\Temp\cca5ocgO.s:26983  .debug_str:000000000001fd5a .LASF2343
C:\Users\CYMR90~1\AppData\Local\Temp\cca5ocgO.s:28009  .debug_str:0000000000023b5d .LASF2344
C:\Users\CYMR90~1\AppData\Local\Temp\cca5ocgO.s:28807  .debug_str:0000000000026fd6 .LASF2345
C:\Users\CYMR90~1\AppData\Local\Temp\cca5ocgO.s:26087  .debug_str:000000000001c44c .LASF2346
C:\Users\CYMR90~1\AppData\Local\Temp\cca5ocgO.s:26257  .debug_str:000000000001cfe7 .LASF2347
C:\Users\CYMR90~1\AppData\Local\Temp\cca5ocgO.s:23138  .debug_str:00000000000103b6 .LASF2348
C:\Users\CYMR90~1\AppData\Local\Temp\cca5ocgO.s:23926  .debug_str:0000000000013826 .LASF2349
C:\Users\CYMR90~1\AppData\Local\Temp\cca5ocgO.s:27445  .debug_str:00000000000219d2 .LASF2350
C:\Users\CYMR90~1\AppData\Local\Temp\cca5ocgO.s:29701  .debug_str:000000000002a8a1 .LASF2351
C:\Users\CYMR90~1\AppData\Local\Temp\cca5ocgO.s:28229  .debug_str:0000000000024a9b .LASF2352
C:\Users\CYMR90~1\AppData\Local\Temp\cca5ocgO.s:20742  .debug_str:0000000000006a6b .LASF2353
C:\Users\CYMR90~1\AppData\Local\Temp\cca5ocgO.s:23068  .debug_str:000000000000ffcf .LASF2354
C:\Users\CYMR90~1\AppData\Local\Temp\cca5ocgO.s:20688  .debug_str:00000000000066fa .LASF2355
C:\Users\CYMR90~1\AppData\Local\Temp\cca5ocgO.s:30109  .debug_str:000000000002c41d .LASF2356
C:\Users\CYMR90~1\AppData\Local\Temp\cca5ocgO.s:29529  .debug_str:0000000000029e50 .LASF2357
C:\Users\CYMR90~1\AppData\Local\Temp\cca5ocgO.s:22370  .debug_str:000000000000d5cb .LASF2358
C:\Users\CYMR90~1\AppData\Local\Temp\cca5ocgO.s:21410  .debug_str:000000000000962a .LASF2359
C:\Users\CYMR90~1\AppData\Local\Temp\cca5ocgO.s:19986  .debug_str:0000000000003aa6 .LASF2360
C:\Users\CYMR90~1\AppData\Local\Temp\cca5ocgO.s:23080  .debug_str:00000000000100ac .LASF2361
C:\Users\CYMR90~1\AppData\Local\Temp\cca5ocgO.s:21846  .debug_str:000000000000b25f .LASF2362
C:\Users\CYMR90~1\AppData\Local\Temp\cca5ocgO.s:20622  .debug_str:0000000000006311 .LASF2363
C:\Users\CYMR90~1\AppData\Local\Temp\cca5ocgO.s:28013  .debug_str:0000000000023b94 .LASF2364
C:\Users\CYMR90~1\AppData\Local\Temp\cca5ocgO.s:27193  .debug_str:0000000000020a6b .LASF2365
C:\Users\CYMR90~1\AppData\Local\Temp\cca5ocgO.s:23628  .debug_str:0000000000012405 .LASF2366
C:\Users\CYMR90~1\AppData\Local\Temp\cca5ocgO.s:28263  .debug_str:0000000000024d13 .LASF2367
C:\Users\CYMR90~1\AppData\Local\Temp\cca5ocgO.s:23750  .debug_str:0000000000012c06 .LASF2368
C:\Users\CYMR90~1\AppData\Local\Temp\cca5ocgO.s:19916  .debug_str:0000000000003607 .LASF2369
C:\Users\CYMR90~1\AppData\Local\Temp\cca5ocgO.s:25135  .debug_str:0000000000018463 .LASF2370
C:\Users\CYMR90~1\AppData\Local\Temp\cca5ocgO.s:21468  .debug_str:00000000000099fc .LASF2371
C:\Users\CYMR90~1\AppData\Local\Temp\cca5ocgO.s:29895  .debug_str:000000000002b51e .LASF2372
C:\Users\CYMR90~1\AppData\Local\Temp\cca5ocgO.s:28497  .debug_str:0000000000025d08 .LASF2373
C:\Users\CYMR90~1\AppData\Local\Temp\cca5ocgO.s:24540  .debug_str:0000000000015e2b .LASF2374
C:\Users\CYMR90~1\AppData\Local\Temp\cca5ocgO.s:24302  .debug_str:0000000000014fd3 .LASF2375
C:\Users\CYMR90~1\AppData\Local\Temp\cca5ocgO.s:24686  .debug_str:0000000000016713 .LASF2376
C:\Users\CYMR90~1\AppData\Local\Temp\cca5ocgO.s:21532  .debug_str:0000000000009ddc .LASF2377
C:\Users\CYMR90~1\AppData\Local\Temp\cca5ocgO.s:20770  .debug_str:0000000000006c3c .LASF2378
C:\Users\CYMR90~1\AppData\Local\Temp\cca5ocgO.s:29239  .debug_str:0000000000028cc1 .LASF2379
C:\Users\CYMR90~1\AppData\Local\Temp\cca5ocgO.s:19162  .debug_str:0000000000000703 .LASF2380
C:\Users\CYMR90~1\AppData\Local\Temp\cca5ocgO.s:20954  .debug_str:0000000000007861 .LASF2381
C:\Users\CYMR90~1\AppData\Local\Temp\cca5ocgO.s:19962  .debug_str:0000000000003911 .LASF2382
C:\Users\CYMR90~1\AppData\Local\Temp\cca5ocgO.s:28395  .debug_str:0000000000025642 .LASF2383
C:\Users\CYMR90~1\AppData\Local\Temp\cca5ocgO.s:23550  .debug_str:0000000000011ee7 .LASF2384
C:\Users\CYMR90~1\AppData\Local\Temp\cca5ocgO.s:22324  .debug_str:000000000000d241 .LASF2385
C:\Users\CYMR90~1\AppData\Local\Temp\cca5ocgO.s:26933  .debug_str:000000000001fa54 .LASF2386
C:\Users\CYMR90~1\AppData\Local\Temp\cca5ocgO.s:26059  .debug_str:000000000001c2be .LASF2387
C:\Users\CYMR90~1\AppData\Local\Temp\cca5ocgO.s:20004  .debug_str:0000000000003b98 .LASF2388
C:\Users\CYMR90~1\AppData\Local\Temp\cca5ocgO.s:28543  .debug_str:0000000000026002 .LASF2389
C:\Users\CYMR90~1\AppData\Local\Temp\cca5ocgO.s:22294  .debug_str:000000000000d073 .LASF2390
C:\Users\CYMR90~1\AppData\Local\Temp\cca5ocgO.s:21374  .debug_str:00000000000093d7 .LASF2391
C:\Users\CYMR90~1\AppData\Local\Temp\cca5ocgO.s:20332  .debug_str:0000000000005197 .LASF2392
C:\Users\CYMR90~1\AppData\Local\Temp\cca5ocgO.s:28893  .debug_str:00000000000275c0 .LASF2393
C:\Users\CYMR90~1\AppData\Local\Temp\cca5ocgO.s:29191  .debug_str:0000000000028a35 .LASF2394
C:\Users\CYMR90~1\AppData\Local\Temp\cca5ocgO.s:23408  .debug_str:00000000000114d2 .LASF2395
C:\Users\CYMR90~1\AppData\Local\Temp\cca5ocgO.s:27285  .debug_str:0000000000020fe1 .LASF2396
C:\Users\CYMR90~1\AppData\Local\Temp\cca5ocgO.s:24462  .debug_str:000000000001591d .LASF2397
C:\Users\CYMR90~1\AppData\Local\Temp\cca5ocgO.s:25035  .debug_str:0000000000017e5b .LASF2398
C:\Users\CYMR90~1\AppData\Local\Temp\cca5ocgO.s:23878  .debug_str:00000000000134fa .LASF2399
C:\Users\CYMR90~1\AppData\Local\Temp\cca5ocgO.s:24366  .debug_str:00000000000153e8 .LASF2400
C:\Users\CYMR90~1\AppData\Local\Temp\cca5ocgO.s:23072  .debug_str:0000000000010012 .LASF2401
C:\Users\CYMR90~1\AppData\Local\Temp\cca5ocgO.s:23360  .debug_str:00000000000111df .LASF2402
C:\Users\CYMR90~1\AppData\Local\Temp\cca5ocgO.s:22448  .debug_str:000000000000da10 .LASF2403
C:\Users\CYMR90~1\AppData\Local\Temp\cca5ocgO.s:21446  .debug_str:0000000000009829 .LASF2404
C:\Users\CYMR90~1\AppData\Local\Temp\cca5ocgO.s:29893  .debug_str:000000000002b4fb .LASF2405
C:\Users\CYMR90~1\AppData\Local\Temp\cca5ocgO.s:21922  .debug_str:000000000000b79d .LASF2406
C:\Users\CYMR90~1\AppData\Local\Temp\cca5ocgO.s:29233  .debug_str:0000000000028c64 .LASF2407
C:\Users\CYMR90~1\AppData\Local\Temp\cca5ocgO.s:27957  .debug_str:000000000002386d .LASF2408
C:\Users\CYMR90~1\AppData\Local\Temp\cca5ocgO.s:24855  .debug_str:000000000001736c .LASF2409
C:\Users\CYMR90~1\AppData\Local\Temp\cca5ocgO.s:24480  .debug_str:0000000000015a53 .LASF2410
C:\Users\CYMR90~1\AppData\Local\Temp\cca5ocgO.s:24610  .debug_str:00000000000162fb .LASF2411
C:\Users\CYMR90~1\AppData\Local\Temp\cca5ocgO.s:28915  .debug_str:0000000000027700 .LASF2412
C:\Users\CYMR90~1\AppData\Local\Temp\cca5ocgO.s:22314  .debug_str:000000000000d1a5 .LASF2413
C:\Users\CYMR90~1\AppData\Local\Temp\cca5ocgO.s:26719  .debug_str:000000000001ed15 .LASF2414
C:\Users\CYMR90~1\AppData\Local\Temp\cca5ocgO.s:20852  .debug_str:00000000000071a4 .LASF2415
C:\Users\CYMR90~1\AppData\Local\Temp\cca5ocgO.s:19306  .debug_str:0000000000001061 .LASF2416
C:\Users\CYMR90~1\AppData\Local\Temp\cca5ocgO.s:25713  .debug_str:000000000001ac23 .LASF2417
C:\Users\CYMR90~1\AppData\Local\Temp\cca5ocgO.s:21706  .debug_str:000000000000a8c5 .LASF2418
C:\Users\CYMR90~1\AppData\Local\Temp\cca5ocgO.s:24590  .debug_str:00000000000161c4 .LASF2419
C:\Users\CYMR90~1\AppData\Local\Temp\cca5ocgO.s:22022  .debug_str:000000000000be5f .LASF2420
C:\Users\CYMR90~1\AppData\Local\Temp\cca5ocgO.s:22162  .debug_str:000000000000c70c .LASF2421
C:\Users\CYMR90~1\AppData\Local\Temp\cca5ocgO.s:26101  .debug_str:000000000001c501 .LASF2422
C:\Users\CYMR90~1\AppData\Local\Temp\cca5ocgO.s:20274  .debug_str:0000000000004e31 .LASF2423
C:\Users\CYMR90~1\AppData\Local\Temp\cca5ocgO.s:25959  .debug_str:000000000001bc09 .LASF2424
C:\Users\CYMR90~1\AppData\Local\Temp\cca5ocgO.s:24466  .debug_str:0000000000015986 .LASF2425
C:\Users\CYMR90~1\AppData\Local\Temp\cca5ocgO.s:29377  .debug_str:000000000002957f .LASF2426
C:\Users\CYMR90~1\AppData\Local\Temp\cca5ocgO.s:27569  .debug_str:000000000002217f .LASF2427
C:\Users\CYMR90~1\AppData\Local\Temp\cca5ocgO.s:20244  .debug_str:0000000000004c5a .LASF2428
C:\Users\CYMR90~1\AppData\Local\Temp\cca5ocgO.s:19318  .debug_str:0000000000001108 .LASF2429
C:\Users\CYMR90~1\AppData\Local\Temp\cca5ocgO.s:28769  .debug_str:0000000000026dc5 .LASF2430
C:\Users\CYMR90~1\AppData\Local\Temp\cca5ocgO.s:19258  .debug_str:0000000000000d16 .LASF2431
C:\Users\CYMR90~1\AppData\Local\Temp\cca5ocgO.s:20976  .debug_str:00000000000079bf .LASF2432
C:\Users\CYMR90~1\AppData\Local\Temp\cca5ocgO.s:21444  .debug_str:0000000000009809 .LASF2433
C:\Users\CYMR90~1\AppData\Local\Temp\cca5ocgO.s:23728  .debug_str:0000000000012acb .LASF2434
C:\Users\CYMR90~1\AppData\Local\Temp\cca5ocgO.s:21502  .debug_str:0000000000009c25 .LASF2435
C:\Users\CYMR90~1\AppData\Local\Temp\cca5ocgO.s:20042  .debug_str:0000000000003e2f .LASF2436
C:\Users\CYMR90~1\AppData\Local\Temp\cca5ocgO.s:25969  .debug_str:000000000001bcd9 .LASF2437
C:\Users\CYMR90~1\AppData\Local\Temp\cca5ocgO.s:25127  .debug_str:00000000000183fb .LASF2438
C:\Users\CYMR90~1\AppData\Local\Temp\cca5ocgO.s:26673  .debug_str:000000000001ea94 .LASF2439
C:\Users\CYMR90~1\AppData\Local\Temp\cca5ocgO.s:30219  .debug_str:000000000002caec .LASF2440
C:\Users\CYMR90~1\AppData\Local\Temp\cca5ocgO.s:19502  .debug_str:0000000000001c99 .LASF2441
C:\Users\CYMR90~1\AppData\Local\Temp\cca5ocgO.s:23984  .debug_str:0000000000013b75 .LASF2442
C:\Users\CYMR90~1\AppData\Local\Temp\cca5ocgO.s:27547  .debug_str:0000000000022027 .LASF2443
C:\Users\CYMR90~1\AppData\Local\Temp\cca5ocgO.s:30005  .debug_str:000000000002bc7f .LASF2444
C:\Users\CYMR90~1\AppData\Local\Temp\cca5ocgO.s:23414  .debug_str:0000000000011552 .LASF2445
C:\Users\CYMR90~1\AppData\Local\Temp\cca5ocgO.s:22738  .debug_str:000000000000ec75 .LASF2446
C:\Users\CYMR90~1\AppData\Local\Temp\cca5ocgO.s:26227  .debug_str:000000000001cd80 .LASF2447
C:\Users\CYMR90~1\AppData\Local\Temp\cca5ocgO.s:25501  .debug_str:0000000000019d7c .LASF2448
C:\Users\CYMR90~1\AppData\Local\Temp\cca5ocgO.s:20294  .debug_str:0000000000004f73 .LASF2449
C:\Users\CYMR90~1\AppData\Local\Temp\cca5ocgO.s:20212  .debug_str:0000000000004a48 .LASF2450
C:\Users\CYMR90~1\AppData\Local\Temp\cca5ocgO.s:24919  .debug_str:000000000001773d .LASF2451
C:\Users\CYMR90~1\AppData\Local\Temp\cca5ocgO.s:26839  .debug_str:000000000001f490 .LASF2452
C:\Users\CYMR90~1\AppData\Local\Temp\cca5ocgO.s:21130  .debug_str:0000000000008509 .LASF2453
C:\Users\CYMR90~1\AppData\Local\Temp\cca5ocgO.s:21118  .debug_str:0000000000008468 .LASF2454
C:\Users\CYMR90~1\AppData\Local\Temp\cca5ocgO.s:28437  .debug_str:000000000002595e .LASF2455
C:\Users\CYMR90~1\AppData\Local\Temp\cca5ocgO.s:23374  .debug_str:00000000000112bd .LASF2456
C:\Users\CYMR90~1\AppData\Local\Temp\cca5ocgO.s:24608  .debug_str:00000000000162d7 .LASF2457
C:\Users\CYMR90~1\AppData\Local\Temp\cca5ocgO.s:25917  .debug_str:000000000001b9e3 .LASF2458
C:\Users\CYMR90~1\AppData\Local\Temp\cca5ocgO.s:29171  .debug_str:0000000000028910 .LASF2459
C:\Users\CYMR90~1\AppData\Local\Temp\cca5ocgO.s:27421  .debug_str:00000000000218a2 .LASF2460
C:\Users\CYMR90~1\AppData\Local\Temp\cca5ocgO.s:26467  .debug_str:000000000001dd5c .LASF2461
C:\Users\CYMR90~1\AppData\Local\Temp\cca5ocgO.s:25477  .debug_str:0000000000019c19 .LASF2462
C:\Users\CYMR90~1\AppData\Local\Temp\cca5ocgO.s:24566  .debug_str:0000000000016001 .LASF2463
C:\Users\CYMR90~1\AppData\Local\Temp\cca5ocgO.s:23636  .debug_str:0000000000012483 .LASF2464
C:\Users\CYMR90~1\AppData\Local\Temp\cca5ocgO.s:22658  .debug_str:000000000000e718 .LASF2465
C:\Users\CYMR90~1\AppData\Local\Temp\cca5ocgO.s:24396  .debug_str:000000000001557d .LASF2466
C:\Users\CYMR90~1\AppData\Local\Temp\cca5ocgO.s:20144  .debug_str:0000000000004541 .LASF2467
C:\Users\CYMR90~1\AppData\Local\Temp\cca5ocgO.s:19852  .debug_str:00000000000031cb .LASF2468
C:\Users\CYMR90~1\AppData\Local\Temp\cca5ocgO.s:21376  .debug_str:00000000000093f9 .LASF2469
C:\Users\CYMR90~1\AppData\Local\Temp\cca5ocgO.s:19254  .debug_str:0000000000000cdf .LASF2470
C:\Users\CYMR90~1\AppData\Local\Temp\cca5ocgO.s:22534  .debug_str:000000000000df49 .LASF2471
C:\Users\CYMR90~1\AppData\Local\Temp\cca5ocgO.s:27965  .debug_str:0000000000023900 .LASF2472
C:\Users\CYMR90~1\AppData\Local\Temp\cca5ocgO.s:19552  .debug_str:0000000000001f8a .LASF2473
C:\Users\CYMR90~1\AppData\Local\Temp\cca5ocgO.s:21988  .debug_str:000000000000bbae .LASF2474
C:\Users\CYMR90~1\AppData\Local\Temp\cca5ocgO.s:19358  .debug_str:000000000000133a .LASF2475
C:\Users\CYMR90~1\AppData\Local\Temp\cca5ocgO.s:25601  .debug_str:000000000001a510 .LASF2476
C:\Users\CYMR90~1\AppData\Local\Temp\cca5ocgO.s:25395  .debug_str:00000000000195f4 .LASF2477
C:\Users\CYMR90~1\AppData\Local\Temp\cca5ocgO.s:23906  .debug_str:00000000000136d2 .LASF2478
C:\Users\CYMR90~1\AppData\Local\Temp\cca5ocgO.s:29075  .debug_str:0000000000028265 .LASF2479
C:\Users\CYMR90~1\AppData\Local\Temp\cca5ocgO.s:21572  .debug_str:000000000000a06d .LASF2480
C:\Users\CYMR90~1\AppData\Local\Temp\cca5ocgO.s:25641  .debug_str:000000000001a740 .LASF2481
C:\Users\CYMR90~1\AppData\Local\Temp\cca5ocgO.s:26277  .debug_str:000000000001d1b0 .LASF2482
C:\Users\CYMR90~1\AppData\Local\Temp\cca5ocgO.s:24791  .debug_str:0000000000016f96 .LASF2483
C:\Users\CYMR90~1\AppData\Local\Temp\cca5ocgO.s:28659  .debug_str:0000000000026715 .LASF2484
C:\Users\CYMR90~1\AppData\Local\Temp\cca5ocgO.s:23848  .debug_str:000000000001329b .LASF2485
C:\Users\CYMR90~1\AppData\Local\Temp\cca5ocgO.s:19120  .debug_str:00000000000004a0 .LASF2486
C:\Users\CYMR90~1\AppData\Local\Temp\cca5ocgO.s:19618  .debug_str:00000000000022fd .LASF2487
C:\Users\CYMR90~1\AppData\Local\Temp\cca5ocgO.s:24428  .debug_str:0000000000015725 .LASF2488
C:\Users\CYMR90~1\AppData\Local\Temp\cca5ocgO.s:19242  .debug_str:0000000000000c3e .LASF2489
C:\Users\CYMR90~1\AppData\Local\Temp\cca5ocgO.s:26373  .debug_str:000000000001d7ce .LASF2490
C:\Users\CYMR90~1\AppData\Local\Temp\cca5ocgO.s:21696  .debug_str:000000000000a83c .LASF2491
C:\Users\CYMR90~1\AppData\Local\Temp\cca5ocgO.s:28241  .debug_str:0000000000024b64 .LASF2492
C:\Users\CYMR90~1\AppData\Local\Temp\cca5ocgO.s:20394  .debug_str:000000000000555f .LASF2493
C:\Users\CYMR90~1\AppData\Local\Temp\cca5ocgO.s:20006  .debug_str:0000000000003bba .LASF2494
C:\Users\CYMR90~1\AppData\Local\Temp\cca5ocgO.s:24110  .debug_str:0000000000014378 .LASF2495
C:\Users\CYMR90~1\AppData\Local\Temp\cca5ocgO.s:22064  .debug_str:000000000000c124 .LASF2496
C:\Users\CYMR90~1\AppData\Local\Temp\cca5ocgO.s:26827  .debug_str:000000000001f3d5 .LASF2497
C:\Users\CYMR90~1\AppData\Local\Temp\cca5ocgO.s:22618  .debug_str:000000000000e466 .LASF2498
C:\Users\CYMR90~1\AppData\Local\Temp\cca5ocgO.s:26643  .debug_str:000000000001e893 .LASF2499
C:\Users\CYMR90~1\AppData\Local\Temp\cca5ocgO.s:30203  .debug_str:000000000002ca16 .LASF2500
C:\Users\CYMR90~1\AppData\Local\Temp\cca5ocgO.s:20508  .debug_str:0000000000005c3f .LASF2501
C:\Users\CYMR90~1\AppData\Local\Temp\cca5ocgO.s:25627  .debug_str:000000000001a655 .LASF2502
C:\Users\CYMR90~1\AppData\Local\Temp\cca5ocgO.s:21784  .debug_str:000000000000adcb .LASF2503
C:\Users\CYMR90~1\AppData\Local\Temp\cca5ocgO.s:28373  .debug_str:00000000000254b7 .LASF2504
C:\Users\CYMR90~1\AppData\Local\Temp\cca5ocgO.s:19802  .debug_str:0000000000002e93 .LASF2505
C:\Users\CYMR90~1\AppData\Local\Temp\cca5ocgO.s:30091  .debug_str:000000000002c29d .LASF2506
C:\Users\CYMR90~1\AppData\Local\Temp\cca5ocgO.s:19394  .debug_str:0000000000001553 .LASF2507
C:\Users\CYMR90~1\AppData\Local\Temp\cca5ocgO.s:24086  .debug_str:00000000000141ec .LASF2508
C:\Users\CYMR90~1\AppData\Local\Temp\cca5ocgO.s:27583  .debug_str:000000000002224b .LASF2509
C:\Users\CYMR90~1\AppData\Local\Temp\cca5ocgO.s:24004  .debug_str:0000000000013cbe .LASF2510
C:\Users\CYMR90~1\AppData\Local\Temp\cca5ocgO.s:23794  .debug_str:0000000000012f16 .LASF2511
C:\Users\CYMR90~1\AppData\Local\Temp\cca5ocgO.s:26637  .debug_str:000000000001e828 .LASF2512
C:\Users\CYMR90~1\AppData\Local\Temp\cca5ocgO.s:21912  .debug_str:000000000000b6d8 .LASF2513
C:\Users\CYMR90~1\AppData\Local\Temp\cca5ocgO.s:20778  .debug_str:0000000000006ccb .LASF2514
C:\Users\CYMR90~1\AppData\Local\Temp\cca5ocgO.s:26931  .debug_str:000000000001fa26 .LASF2515
C:\Users\CYMR90~1\AppData\Local\Temp\cca5ocgO.s:29437  .debug_str:00000000000298f9 .LASF2516
C:\Users\CYMR90~1\AppData\Local\Temp\cca5ocgO.s:24947  .debug_str:0000000000017923 .LASF2517
C:\Users\CYMR90~1\AppData\Local\Temp\cca5ocgO.s:26291  .debug_str:000000000001d28b .LASF2518
C:\Users\CYMR90~1\AppData\Local\Temp\cca5ocgO.s:24170  .debug_str:000000000001475c .LASF2519
C:\Users\CYMR90~1\AppData\Local\Temp\cca5ocgO.s:22450  .debug_str:000000000000da33 .LASF2520
C:\Users\CYMR90~1\AppData\Local\Temp\cca5ocgO.s:25805  .debug_str:000000000001b261 .LASF2521
C:\Users\CYMR90~1\AppData\Local\Temp\cca5ocgO.s:29811  .debug_str:000000000002af44 .LASF2522
C:\Users\CYMR90~1\AppData\Local\Temp\cca5ocgO.s:20306  .debug_str:0000000000005023 .LASF2523
C:\Users\CYMR90~1\AppData\Local\Temp\cca5ocgO.s:20946  .debug_str:00000000000077db .LASF2524
C:\Users\CYMR90~1\AppData\Local\Temp\cca5ocgO.s:29249  .debug_str:0000000000028d96 .LASF2525
C:\Users\CYMR90~1\AppData\Local\Temp\cca5ocgO.s:25325  .debug_str:00000000000191a7 .LASF2526
C:\Users\CYMR90~1\AppData\Local\Temp\cca5ocgO.s:28311  .debug_str:0000000000024f9b .LASF2527
C:\Users\CYMR90~1\AppData\Local\Temp\cca5ocgO.s:22302  .debug_str:000000000000d0e9 .LASF2528
C:\Users\CYMR90~1\AppData\Local\Temp\cca5ocgO.s:27479  .debug_str:0000000000021c0e .LASF2529
C:\Users\CYMR90~1\AppData\Local\Temp\cca5ocgO.s:27725  .debug_str:0000000000022a45 .LASF2530
C:\Users\CYMR90~1\AppData\Local\Temp\cca5ocgO.s:23402  .debug_str:0000000000011488 .LASF2531
C:\Users\CYMR90~1\AppData\Local\Temp\cca5ocgO.s:19990  .debug_str:0000000000003ad8 .LASF2532
C:\Users\CYMR90~1\AppData\Local\Temp\cca5ocgO.s:25281  .debug_str:0000000000018e27 .LASF2533
C:\Users\CYMR90~1\AppData\Local\Temp\cca5ocgO.s:19174  .debug_str:00000000000007c5 .LASF2534
C:\Users\CYMR90~1\AppData\Local\Temp\cca5ocgO.s:27027  .debug_str:0000000000020063 .LASF2535
C:\Users\CYMR90~1\AppData\Local\Temp\cca5ocgO.s:29161  .debug_str:0000000000028849 .LASF2536
C:\Users\CYMR90~1\AppData\Local\Temp\cca5ocgO.s:21084  .debug_str:000000000000820c .LASF2537
C:\Users\CYMR90~1\AppData\Local\Temp\cca5ocgO.s:19130  .debug_str:000000000000051d .LASF2538
C:\Users\CYMR90~1\AppData\Local\Temp\cca5ocgO.s:27473  .debug_str:0000000000021bb7 .LASF2539
C:\Users\CYMR90~1\AppData\Local\Temp\cca5ocgO.s:19308  .debug_str:0000000000001073 .LASF2540
C:\Users\CYMR90~1\AppData\Local\Temp\cca5ocgO.s:22546  .debug_str:000000000000e001 .LASF2541
C:\Users\CYMR90~1\AppData\Local\Temp\cca5ocgO.s:25771  .debug_str:000000000001b029 .LASF2542
C:\Users\CYMR90~1\AppData\Local\Temp\cca5ocgO.s:28919  .debug_str:0000000000027745 .LASF2543
C:\Users\CYMR90~1\AppData\Local\Temp\cca5ocgO.s:20828  .debug_str:0000000000007002 .LASF2544
C:\Users\CYMR90~1\AppData\Local\Temp\cca5ocgO.s:24056  .debug_str:0000000000013fba .LASF2545
C:\Users\CYMR90~1\AppData\Local\Temp\cca5ocgO.s:20502  .debug_str:0000000000005bef .LASF2546
C:\Users\CYMR90~1\AppData\Local\Temp\cca5ocgO.s:25275  .debug_str:0000000000018dca .LASF2547
C:\Users\CYMR90~1\AppData\Local\Temp\cca5ocgO.s:29937  .debug_str:000000000002b7fe .LASF2548
C:\Users\CYMR90~1\AppData\Local\Temp\cca5ocgO.s:23352  .debug_str:0000000000011166 .LASF2549
C:\Users\CYMR90~1\AppData\Local\Temp\cca5ocgO.s:27997  .debug_str:0000000000023ab8 .LASF2550
C:\Users\CYMR90~1\AppData\Local\Temp\cca5ocgO.s:21424  .debug_str:0000000000009701 .LASF2551
C:\Users\CYMR90~1\AppData\Local\Temp\cca5ocgO.s:21796  .debug_str:000000000000af54 .LASF2552
C:\Users\CYMR90~1\AppData\Local\Temp\cca5ocgO.s:22458  .debug_str:000000000000dac3 .LASF2553
C:\Users\CYMR90~1\AppData\Local\Temp\cca5ocgO.s:27719  .debug_str:00000000000229df .LASF2554
C:\Users\CYMR90~1\AppData\Local\Temp\cca5ocgO.s:25003  .debug_str:0000000000017c7b .LASF2555
C:\Users\CYMR90~1\AppData\Local\Temp\cca5ocgO.s:20226  .debug_str:0000000000004b27 .LASF2556
C:\Users\CYMR90~1\AppData\Local\Temp\cca5ocgO.s:21664  .debug_str:000000000000a632 .LASF2557
C:\Users\CYMR90~1\AppData\Local\Temp\cca5ocgO.s:26855  .debug_str:000000000001f5c4 .LASF2558
C:\Users\CYMR90~1\AppData\Local\Temp\cca5ocgO.s:20798  .debug_str:0000000000006e2d .LASF2559
C:\Users\CYMR90~1\AppData\Local\Temp\cca5ocgO.s:25973  .debug_str:000000000001bd26 .LASF2560
C:\Users\CYMR90~1\AppData\Local\Temp\cca5ocgO.s:22160  .debug_str:000000000000c6f0 .LASF2561
C:\Users\CYMR90~1\AppData\Local\Temp\cca5ocgO.s:21896  .debug_str:000000000000b5c9 .LASF2562
C:\Users\CYMR90~1\AppData\Local\Temp\cca5ocgO.s:27093  .debug_str:00000000000203e2 .LASF2563
C:\Users\CYMR90~1\AppData\Local\Temp\cca5ocgO.s:21038  .debug_str:0000000000007e4b .LASF2564
C:\Users\CYMR90~1\AppData\Local\Temp\cca5ocgO.s:26195  .debug_str:000000000001cb64 .LASF2565
C:\Users\CYMR90~1\AppData\Local\Temp\cca5ocgO.s:20100  .debug_str:0000000000004277 .LASF2566
C:\Users\CYMR90~1\AppData\Local\Temp\cca5ocgO.s:27973  .debug_str:0000000000023968 .LASF2567
C:\Users\CYMR90~1\AppData\Local\Temp\cca5ocgO.s:25305  .debug_str:0000000000018f90 .LASF2568
C:\Users\CYMR90~1\AppData\Local\Temp\cca5ocgO.s:19578  .debug_str:00000000000020df .LASF2569
C:\Users\CYMR90~1\AppData\Local\Temp\cca5ocgO.s:19924  .debug_str:0000000000003667 .LASF2570
C:\Users\CYMR90~1\AppData\Local\Temp\cca5ocgO.s:28441  .debug_str:00000000000259a1 .LASF2571
C:\Users\CYMR90~1\AppData\Local\Temp\cca5ocgO.s:25831  .debug_str:000000000001b409 .LASF2572
C:\Users\CYMR90~1\AppData\Local\Temp\cca5ocgO.s:24987  .debug_str:0000000000017bb8 .LASF2573
C:\Users\CYMR90~1\AppData\Local\Temp\cca5ocgO.s:30119  .debug_str:000000000002c4be .LASF2574
C:\Users\CYMR90~1\AppData\Local\Temp\cca5ocgO.s:24054  .debug_str:0000000000013fa0 .LASF2575
C:\Users\CYMR90~1\AppData\Local\Temp\cca5ocgO.s:29275  .debug_str:0000000000028f14 .LASF2576
C:\Users\CYMR90~1\AppData\Local\Temp\cca5ocgO.s:23158  .debug_str:00000000000104e9 .LASF2577
C:\Users\CYMR90~1\AppData\Local\Temp\cca5ocgO.s:25729  .debug_str:000000000001ad12 .LASF2578
C:\Users\CYMR90~1\AppData\Local\Temp\cca5ocgO.s:19612  .debug_str:00000000000022a7 .LASF2579
C:\Users\CYMR90~1\AppData\Local\Temp\cca5ocgO.s:24781  .debug_str:0000000000016f11 .LASF2580
C:\Users\CYMR90~1\AppData\Local\Temp\cca5ocgO.s:24090  .debug_str:000000000001423f .LASF2581
C:\Users\CYMR90~1\AppData\Local\Temp\cca5ocgO.s:23862  .debug_str:00000000000133b2 .LASF2582
C:\Users\CYMR90~1\AppData\Local\Temp\cca5ocgO.s:22742  .debug_str:000000000000eca6 .LASF2583
C:\Users\CYMR90~1\AppData\Local\Temp\cca5ocgO.s:29813  .debug_str:000000000002af5c .LASF2584
C:\Users\CYMR90~1\AppData\Local\Temp\cca5ocgO.s:21736  .debug_str:000000000000aaa4 .LASF2585
C:\Users\CYMR90~1\AppData\Local\Temp\cca5ocgO.s:24945  .debug_str:000000000001790a .LASF2586
C:\Users\CYMR90~1\AppData\Local\Temp\cca5ocgO.s:28117  .debug_str:000000000002430e .LASF2587
C:\Users\CYMR90~1\AppData\Local\Temp\cca5ocgO.s:20028  .debug_str:0000000000003d58 .LASF2588
C:\Users\CYMR90~1\AppData\Local\Temp\cca5ocgO.s:23284  .debug_str:0000000000010d92 .LASF2589
C:\Users\CYMR90~1\AppData\Local\Temp\cca5ocgO.s:26445  .debug_str:000000000001dc19 .LASF2590
C:\Users\CYMR90~1\AppData\Local\Temp\cca5ocgO.s:29565  .debug_str:000000000002a06a .LASF2591
C:\Users\CYMR90~1\AppData\Local\Temp\cca5ocgO.s:21498  .debug_str:0000000000009bf0 .LASF2592
C:\Users\CYMR90~1\AppData\Local\Temp\cca5ocgO.s:24704  .debug_str:000000000001681b .LASF2593
C:\Users\CYMR90~1\AppData\Local\Temp\cca5ocgO.s:26677  .debug_str:000000000001eae0 .LASF2594
C:\Users\CYMR90~1\AppData\Local\Temp\cca5ocgO.s:20080  .debug_str:000000000000409f .LASF2595
C:\Users\CYMR90~1\AppData\Local\Temp\cca5ocgO.s:24813  .debug_str:00000000000170dd .LASF2596
C:\Users\CYMR90~1\AppData\Local\Temp\cca5ocgO.s:29483  .debug_str:0000000000029bd2 .LASF2597
C:\Users\CYMR90~1\AppData\Local\Temp\cca5ocgO.s:22916  .debug_str:000000000000f6c4 .LASF2598
C:\Users\CYMR90~1\AppData\Local\Temp\cca5ocgO.s:27563  .debug_str:0000000000022135 .LASF2599
C:\Users\CYMR90~1\AppData\Local\Temp\cca5ocgO.s:20960  .debug_str:00000000000078d2 .LASF2600
C:\Users\CYMR90~1\AppData\Local\Temp\cca5ocgO.s:24184  .debug_str:0000000000014837 .LASF2601
C:\Users\CYMR90~1\AppData\Local\Temp\cca5ocgO.s:27273  .debug_str:0000000000020f45 .LASF2602
C:\Users\CYMR90~1\AppData\Local\Temp\cca5ocgO.s:19206  .debug_str:00000000000009a7 .LASF2603
C:\Users\CYMR90~1\AppData\Local\Temp\cca5ocgO.s:22438  .debug_str:000000000000d98d .LASF2604
C:\Users\CYMR90~1\AppData\Local\Temp\cca5ocgO.s:25655  .debug_str:000000000001a8a4 .LASF2605
C:\Users\CYMR90~1\AppData\Local\Temp\cca5ocgO.s:28799  .debug_str:0000000000026f72 .LASF2606
C:\Users\CYMR90~1\AppData\Local\Temp\cca5ocgO.s:20710  .debug_str:0000000000006898 .LASF2607
C:\Users\CYMR90~1\AppData\Local\Temp\cca5ocgO.s:23962  .debug_str:0000000000013a1e .LASF2608
C:\Users\CYMR90~1\AppData\Local\Temp\cca5ocgO.s:27139  .debug_str:0000000000020724 .LASF2609
C:\Users\CYMR90~1\AppData\Local\Temp\cca5ocgO.s:24496  .debug_str:0000000000015b40 .LASF2610
C:\Users\CYMR90~1\AppData\Local\Temp\cca5ocgO.s:29175  .debug_str:0000000000028942 .LASF2611
C:\Users\CYMR90~1\AppData\Local\Temp\cca5ocgO.s:22602  .debug_str:000000000000e38f .LASF2612
C:\Users\CYMR90~1\AppData\Local\Temp\cca5ocgO.s:20652  .debug_str:00000000000064ea .LASF2613
C:\Users\CYMR90~1\AppData\Local\Temp\cca5ocgO.s:25407  .debug_str:00000000000196a5 .LASF2614
C:\Users\CYMR90~1\AppData\Local\Temp\cca5ocgO.s:23918  .debug_str:0000000000013792 .LASF2615
C:\Users\CYMR90~1\AppData\Local\Temp\cca5ocgO.s:27085  .debug_str:000000000002036e .LASF2616
C:\Users\CYMR90~1\AppData\Local\Temp\cca5ocgO.s:30283  .debug_str:000000000002cf56 .LASF2617
C:\Users\CYMR90~1\AppData\Local\Temp\cca5ocgO.s:26063  .debug_str:000000000001c2f4 .LASF2618
C:\Users\CYMR90~1\AppData\Local\Temp\cca5ocgO.s:28101  .debug_str:00000000000241ec .LASF2619
C:\Users\CYMR90~1\AppData\Local\Temp\cca5ocgO.s:28511  .debug_str:0000000000025dd7 .LASF2620
C:\Users\CYMR90~1\AppData\Local\Temp\cca5ocgO.s:29291  .debug_str:000000000002900d .LASF2621
C:\Users\CYMR90~1\AppData\Local\Temp\cca5ocgO.s:23684  .debug_str:00000000000127af .LASF2622
C:\Users\CYMR90~1\AppData\Local\Temp\cca5ocgO.s:26829  .debug_str:000000000001f3fa .LASF2623
C:\Users\CYMR90~1\AppData\Local\Temp\cca5ocgO.s:30071  .debug_str:000000000002c156 .LASF2624
C:\Users\CYMR90~1\AppData\Local\Temp\cca5ocgO.s:27565  .debug_str:0000000000022150 .LASF2625
C:\Users\CYMR90~1\AppData\Local\Temp\cca5ocgO.s:29539  .debug_str:0000000000029f00 .LASF2626
C:\Users\CYMR90~1\AppData\Local\Temp\cca5ocgO.s:20002  .debug_str:0000000000003b81 .LASF2627
C:\Users\CYMR90~1\AppData\Local\Temp\cca5ocgO.s:24726  .debug_str:00000000000169dc .LASF2628
C:\Users\CYMR90~1\AppData\Local\Temp\cca5ocgO.s:29399  .debug_str:00000000000296e2 .LASF2629
C:\Users\CYMR90~1\AppData\Local\Temp\cca5ocgO.s:22830  .debug_str:000000000000f177 .LASF2630
C:\Users\CYMR90~1\AppData\Local\Temp\cca5ocgO.s:24694  .debug_str:0000000000016795 .LASF2631
C:\Users\CYMR90~1\AppData\Local\Temp\cca5ocgO.s:29369  .debug_str:00000000000294ba .LASF2632
C:\Users\CYMR90~1\AppData\Local\Temp\cca5ocgO.s:22802  .debug_str:000000000000efdf .LASF2633
C:\Users\CYMR90~1\AppData\Local\Temp\cca5ocgO.s:27449  .debug_str:00000000000219f1 .LASF2634
C:\Users\CYMR90~1\AppData\Local\Temp\cca5ocgO.s:26141  .debug_str:000000000001c760 .LASF2635
C:\Users\CYMR90~1\AppData\Local\Temp\cca5ocgO.s:19518  .debug_str:0000000000001d7a .LASF2636
C:\Users\CYMR90~1\AppData\Local\Temp\cca5ocgO.s:24222  .debug_str:0000000000014a63 .LASF2637
C:\Users\CYMR90~1\AppData\Local\Temp\cca5ocgO.s:28899  .debug_str:0000000000027607 .LASF2638
C:\Users\CYMR90~1\AppData\Local\Temp\cca5ocgO.s:22342  .debug_str:000000000000d3b5 .LASF2639
C:\Users\CYMR90~1\AppData\Local\Temp\cca5ocgO.s:26987  .debug_str:000000000001fd90 .LASF2640
C:\Users\CYMR90~1\AppData\Local\Temp\cca5ocgO.s:21960  .debug_str:000000000000ba16 .LASF2641
C:\Users\CYMR90~1\AppData\Local\Temp\cca5ocgO.s:26623  .debug_str:000000000001e720 .LASF2642
C:\Users\CYMR90~1\AppData\Local\Temp\cca5ocgO.s:20018  .debug_str:0000000000003c8d .LASF2643
C:\Users\CYMR90~1\AppData\Local\Temp\cca5ocgO.s:24742  .debug_str:0000000000016ada .LASF2644
C:\Users\CYMR90~1\AppData\Local\Temp\cca5ocgO.s:21344  .debug_str:000000000000921a .LASF2645
C:\Users\CYMR90~1\AppData\Local\Temp\cca5ocgO.s:28073  .debug_str:0000000000023f39 .LASF2646
C:\Users\CYMR90~1\AppData\Local\Temp\cca5ocgO.s:19528  .debug_str:0000000000001e18 .LASF2647
C:\Users\CYMR90~1\AppData\Local\Temp\cca5ocgO.s:22764  .debug_str:000000000000edbf .LASF2648
C:\Users\CYMR90~1\AppData\Local\Temp\cca5ocgO.s:28857  .debug_str:00000000000273be .LASF2649
C:\Users\CYMR90~1\AppData\Local\Temp\cca5ocgO.s:29151  .debug_str:00000000000287b5 .LASF2650
C:\Users\CYMR90~1\AppData\Local\Temp\cca5ocgO.s:20970  .debug_str:0000000000007958 .LASF2651
C:\Users\CYMR90~1\AppData\Local\Temp\cca5ocgO.s:24190  .debug_str:000000000001487e .LASF2652
C:\Users\CYMR90~1\AppData\Local\Temp\cca5ocgO.s:21508  .debug_str:0000000000009c6c .LASF2653
C:\Users\CYMR90~1\AppData\Local\Temp\cca5ocgO.s:19294  .debug_str:0000000000000fc1 .LASF2654
C:\Users\CYMR90~1\AppData\Local\Temp\cca5ocgO.s:22528  .debug_str:000000000000df04 .LASF2655
C:\Users\CYMR90~1\AppData\Local\Temp\cca5ocgO.s:21062  .debug_str:000000000000800b .LASF2656
C:\Users\CYMR90~1\AppData\Local\Temp\cca5ocgO.s:25049  .debug_str:0000000000017f64 .LASF2657
C:\Users\CYMR90~1\AppData\Local\Temp\cca5ocgO.s:29721  .debug_str:000000000002a9ef .LASF2658
C:\Users\CYMR90~1\AppData\Local\Temp\cca5ocgO.s:23156  .debug_str:00000000000104d2 .LASF2659
C:\Users\CYMR90~1\AppData\Local\Temp\cca5ocgO.s:27801  .debug_str:0000000000022f0c .LASF2660
C:\Users\CYMR90~1\AppData\Local\Temp\cca5ocgO.s:28407  .debug_str:0000000000025710 .LASF2661
C:\Users\CYMR90~1\AppData\Local\Temp\cca5ocgO.s:25927  .debug_str:000000000001ba4b .LASF2662
C:\Users\CYMR90~1\AppData\Local\Temp\cca5ocgO.s:23338  .debug_str:0000000000011088 .LASF2663
C:\Users\CYMR90~1\AppData\Local\Temp\cca5ocgO.s:29589  .debug_str:000000000002a1aa .LASF2664
C:\Users\CYMR90~1\AppData\Local\Temp\cca5ocgO.s:25553  .debug_str:000000000001a096 .LASF2665
C:\Users\CYMR90~1\AppData\Local\Temp\cca5ocgO.s:21160  .debug_str:00000000000086a2 .LASF2666
C:\Users\CYMR90~1\AppData\Local\Temp\cca5ocgO.s:22136  .debug_str:000000000000c55f .LASF2667
C:\Users\CYMR90~1\AppData\Local\Temp\cca5ocgO.s:29605  .debug_str:000000000002a2b9 .LASF2668
C:\Users\CYMR90~1\AppData\Local\Temp\cca5ocgO.s:19936  .debug_str:0000000000003731 .LASF2669
C:\Users\CYMR90~1\AppData\Local\Temp\cca5ocgO.s:24883  .debug_str:00000000000174e6 .LASF2670
C:\Users\CYMR90~1\AppData\Local\Temp\cca5ocgO.s:20284  .debug_str:0000000000004ede .LASF2671
C:\Users\CYMR90~1\AppData\Local\Temp\cca5ocgO.s:23678  .debug_str:000000000001274c .LASF2672
C:\Users\CYMR90~1\AppData\Local\Temp\cca5ocgO.s:20328  .debug_str:0000000000005161 .LASF2673
C:\Users\CYMR90~1\AppData\Local\Temp\cca5ocgO.s:27149  .debug_str:00000000000207a3 .LASF2674
C:\Users\CYMR90~1\AppData\Local\Temp\cca5ocgO.s:28165  .debug_str:0000000000024644 .LASF2675
C:\Users\CYMR90~1\AppData\Local\Temp\cca5ocgO.s:22732  .debug_str:000000000000ec0a .LASF2676
C:\Users\CYMR90~1\AppData\Local\Temp\cca5ocgO.s:21788  .debug_str:000000000000ae20 .LASF2677
C:\Users\CYMR90~1\AppData\Local\Temp\cca5ocgO.s:19356  .debug_str:000000000000131c .LASF2678
C:\Users\CYMR90~1\AppData\Local\Temp\cca5ocgO.s:22172  .debug_str:000000000000c7b2 .LASF2679
C:\Users\CYMR90~1\AppData\Local\Temp\cca5ocgO.s:23966  .debug_str:0000000000013a59 .LASF2680
C:\Users\CYMR90~1\AppData\Local\Temp\cca5ocgO.s:27145  .debug_str:0000000000020774 .LASF2681
C:\Users\CYMR90~1\AppData\Local\Temp\cca5ocgO.s:19076  .debug_str:0000000000000203 .LASF2682
C:\Users\CYMR90~1\AppData\Local\Temp\cca5ocgO.s:22300  .debug_str:000000000000d0d6 .LASF2683
C:\Users\CYMR90~1\AppData\Local\Temp\cca5ocgO.s:25505  .debug_str:0000000000019dd2 .LASF2684
C:\Users\CYMR90~1\AppData\Local\Temp\cca5ocgO.s:19272  .debug_str:0000000000000e0b .LASF2685
C:\Users\CYMR90~1\AppData\Local\Temp\cca5ocgO.s:28925  .debug_str:000000000002779d .LASF2686
C:\Users\CYMR90~1\AppData\Local\Temp\cca5ocgO.s:27299  .debug_str:0000000000021096 .LASF2687
C:\Users\CYMR90~1\AppData\Local\Temp\cca5ocgO.s:25737  .debug_str:000000000001ad96 .LASF2688
C:\Users\CYMR90~1\AppData\Local\Temp\cca5ocgO.s:30127  .debug_str:000000000002c541 .LASF2689
C:\Users\CYMR90~1\AppData\Local\Temp\cca5ocgO.s:19388  .debug_str:000000000000151d .LASF2690
C:\Users\CYMR90~1\AppData\Local\Temp\cca5ocgO.s:24100  .debug_str:00000000000142e0 .LASF2691
C:\Users\CYMR90~1\AppData\Local\Temp\cca5ocgO.s:28761  .debug_str:0000000000026d45 .LASF2692
C:\Users\CYMR90~1\AppData\Local\Temp\cca5ocgO.s:29805  .debug_str:000000000002aee2 .LASF2693
C:\Users\CYMR90~1\AppData\Local\Temp\cca5ocgO.s:26067  .debug_str:000000000001c322 .LASF2694
C:\Users\CYMR90~1\AppData\Local\Temp\cca5ocgO.s:22350  .debug_str:000000000000d40d .LASF2695
C:\Users\CYMR90~1\AppData\Local\Temp\cca5ocgO.s:27597  .debug_str:0000000000022313 .LASF2696
C:\Users\CYMR90~1\AppData\Local\Temp\cca5ocgO.s:19510  .debug_str:0000000000001d06 .LASF2697
C:\Users\CYMR90~1\AppData\Local\Temp\cca5ocgO.s:22748  .debug_str:000000000000ecf1 .LASF2698
C:\Users\CYMR90~1\AppData\Local\Temp\cca5ocgO.s:25949  .debug_str:000000000001bb82 .LASF2699
C:\Users\CYMR90~1\AppData\Local\Temp\cca5ocgO.s:29045  .debug_str:0000000000027feb .LASF2700
C:\Users\CYMR90~1\AppData\Local\Temp\cca5ocgO.s:27439  .debug_str:0000000000021983 .LASF2701
C:\Users\CYMR90~1\AppData\Local\Temp\cca5ocgO.s:24178  .debug_str:00000000000147e7 .LASF2702
C:\Users\CYMR90~1\AppData\Local\Temp\cca5ocgO.s:24216  .debug_str:0000000000014a1e .LASF2703
C:\Users\CYMR90~1\AppData\Local\Temp\cca5ocgO.s:19286  .debug_str:0000000000000f62 .LASF2704
C:\Users\CYMR90~1\AppData\Local\Temp\cca5ocgO.s:22514  .debug_str:000000000000de28 .LASF2705
C:\Users\CYMR90~1\AppData\Local\Temp\cca5ocgO.s:24750  .debug_str:0000000000016b54 .LASF2706
C:\Users\CYMR90~1\AppData\Local\Temp\cca5ocgO.s:27595  .debug_str:00000000000222fe .LASF2707
C:\Users\CYMR90~1\AppData\Local\Temp\cca5ocgO.s:22850  .debug_str:000000000000f2c7 .LASF2708
C:\Users\CYMR90~1\AppData\Local\Temp\cca5ocgO.s:27501  .debug_str:0000000000021da1 .LASF2709
C:\Users\CYMR90~1\AppData\Local\Temp\cca5ocgO.s:27663  .debug_str:00000000000226c9 .LASF2710
C:\Users\CYMR90~1\AppData\Local\Temp\cca5ocgO.s:25649  .debug_str:000000000001a855 .LASF2711
C:\Users\CYMR90~1\AppData\Local\Temp\cca5ocgO.s:24913  .debug_str:00000000000176c2 .LASF2712
C:\Users\CYMR90~1\AppData\Local\Temp\cca5ocgO.s:22622  .debug_str:000000000000e4a5 .LASF2713
C:\Users\CYMR90~1\AppData\Local\Temp\cca5ocgO.s:23806  .debug_str:0000000000012fd5 .LASF2714
C:\Users\CYMR90~1\AppData\Local\Temp\cca5ocgO.s:23768  .debug_str:0000000000012d44 .LASF2715
C:\Users\CYMR90~1\AppData\Local\Temp\cca5ocgO.s:19846  .debug_str:0000000000003185 .LASF2716
C:\Users\CYMR90~1\AppData\Local\Temp\cca5ocgO.s:19734  .debug_str:0000000000002a6d .LASF2717
C:\Users\CYMR90~1\AppData\Local\Temp\cca5ocgO.s:27263  .debug_str:0000000000020eae .LASF2718
C:\Users\CYMR90~1\AppData\Local\Temp\cca5ocgO.s:28245  .debug_str:0000000000024bb5 .LASF2719
C:\Users\CYMR90~1\AppData\Local\Temp\cca5ocgO.s:27925  .debug_str:000000000002366c .LASF2720
C:\Users\CYMR90~1\AppData\Local\Temp\cca5ocgO.s:21850  .debug_str:000000000000b2a4 .LASF2721
C:\Users\CYMR90~1\AppData\Local\Temp\cca5ocgO.s:25051  .debug_str:0000000000017f7b .LASF2722
C:\Users\CYMR90~1\AppData\Local\Temp\cca5ocgO.s:28223  .debug_str:0000000000024a31 .LASF2723
C:\Users\CYMR90~1\AppData\Local\Temp\cca5ocgO.s:20134  .debug_str:000000000000449b .LASF2724
C:\Users\CYMR90~1\AppData\Local\Temp\cca5ocgO.s:23308  .debug_str:0000000000010ed9 .LASF2725
C:\Users\CYMR90~1\AppData\Local\Temp\cca5ocgO.s:20522  .debug_str:0000000000005cec .LASF2726
C:\Users\CYMR90~1\AppData\Local\Temp\cca5ocgO.s:30223  .debug_str:000000000002cb36 .LASF2727
C:\Users\CYMR90~1\AppData\Local\Temp\cca5ocgO.s:21610  .debug_str:000000000000a2cc .LASF2728
C:\Users\CYMR90~1\AppData\Local\Temp\cca5ocgO.s:24819  .debug_str:000000000001713a .LASF2729
C:\Users\CYMR90~1\AppData\Local\Temp\cca5ocgO.s:27993  .debug_str:0000000000023a86 .LASF2730
C:\Users\CYMR90~1\AppData\Local\Temp\cca5ocgO.s:26199  .debug_str:000000000001cb9a .LASF2731
C:\Users\CYMR90~1\AppData\Local\Temp\cca5ocgO.s:19576  .debug_str:00000000000020cb .LASF2732
C:\Users\CYMR90~1\AppData\Local\Temp\cca5ocgO.s:24280  .debug_str:0000000000014e32 .LASF2733
C:\Users\CYMR90~1\AppData\Local\Temp\cca5ocgO.s:28963  .debug_str:0000000000027a76 .LASF2734
C:\Users\CYMR90~1\AppData\Local\Temp\cca5ocgO.s:22398  .debug_str:000000000000d786 .LASF2735
C:\Users\CYMR90~1\AppData\Local\Temp\cca5ocgO.s:27053  .debug_str:00000000000201f0 .LASF2736
C:\Users\CYMR90~1\AppData\Local\Temp\cca5ocgO.s:29627  .debug_str:000000000002a441 .LASF2737
C:\Users\CYMR90~1\AppData\Local\Temp\cca5ocgO.s:29843  .debug_str:000000000002b17b .LASF2738
C:\Users\CYMR90~1\AppData\Local\Temp\cca5ocgO.s:25683  .debug_str:000000000001aa3d .LASF2739
C:\Users\CYMR90~1\AppData\Local\Temp\cca5ocgO.s:20864  .debug_str:0000000000007296 .LASF2740
C:\Users\CYMR90~1\AppData\Local\Temp\cca5ocgO.s:21168  .debug_str:000000000000871a .LASF2741
C:\Users\CYMR90~1\AppData\Local\Temp\cca5ocgO.s:25113  .debug_str:000000000001830f .LASF2742
C:\Users\CYMR90~1\AppData\Local\Temp\cca5ocgO.s:29941  .debug_str:000000000002b82b .LASF2743
C:\Users\CYMR90~1\AppData\Local\Temp\cca5ocgO.s:23544  .debug_str:0000000000011e72 .LASF2744
C:\Users\CYMR90~1\AppData\Local\Temp\cca5ocgO.s:24382  .debug_str:00000000000154a1 .LASF2745
C:\Users\CYMR90~1\AppData\Local\Temp\cca5ocgO.s:20560  .debug_str:0000000000005f2a .LASF2746
C:\Users\CYMR90~1\AppData\Local\Temp\cca5ocgO.s:27287  .debug_str:0000000000021003 .LASF2747
C:\Users\CYMR90~1\AppData\Local\Temp\cca5ocgO.s:28647  .debug_str:0000000000026664 .LASF2748
C:\Users\CYMR90~1\AppData\Local\Temp\cca5ocgO.s:30043  .debug_str:000000000002bf60 .LASF2749
C:\Users\CYMR90~1\AppData\Local\Temp\cca5ocgO.s:20090  .debug_str:00000000000041d1 .LASF2750
C:\Users\CYMR90~1\AppData\Local\Temp\cca5ocgO.s:23814  .debug_str:0000000000013063 .LASF2751
C:\Users\CYMR90~1\AppData\Local\Temp\cca5ocgO.s:29155  .debug_str:00000000000287e3 .LASF2752
C:\Users\CYMR90~1\AppData\Local\Temp\cca5ocgO.s:27113  .debug_str:0000000000020527 .LASF2753
C:\Users\CYMR90~1\AppData\Local\Temp\cca5ocgO.s:26025  .debug_str:000000000001c070 .LASF2754
C:\Users\CYMR90~1\AppData\Local\Temp\cca5ocgO.s:25599  .debug_str:000000000001a4d2 .LASF2755
C:\Users\CYMR90~1\AppData\Local\Temp\cca5ocgO.s:25523  .debug_str:0000000000019ec0 .LASF2756
C:\Users\CYMR90~1\AppData\Local\Temp\cca5ocgO.s:27703  .debug_str:00000000000228fc .LASF2757
C:\Users\CYMR90~1\AppData\Local\Temp\cca5ocgO.s:26019  .debug_str:000000000001c01d .LASF2758
C:\Users\CYMR90~1\AppData\Local\Temp\cca5ocgO.s:25177  .debug_str:00000000000186ef .LASF2759
C:\Users\CYMR90~1\AppData\Local\Temp\cca5ocgO.s:26543  .debug_str:000000000001e29e .LASF2760
C:\Users\CYMR90~1\AppData\Local\Temp\cca5ocgO.s:23746  .debug_str:0000000000012bd8 .LASF2761
C:\Users\CYMR90~1\AppData\Local\Temp\cca5ocgO.s:22482  .debug_str:000000000000dbff .LASF2762
C:\Users\CYMR90~1\AppData\Local\Temp\cca5ocgO.s:21604  .debug_str:000000000000a269 .LASF2763
C:\Users\CYMR90~1\AppData\Local\Temp\cca5ocgO.s:20696  .debug_str:00000000000067c6 .LASF2764
C:\Users\CYMR90~1\AppData\Local\Temp\cca5ocgO.s:19850  .debug_str:00000000000031bb .LASF2765
C:\Users\CYMR90~1\AppData\Local\Temp\cca5ocgO.s:30259  .debug_str:000000000002cde8 .LASF2766
C:\Users\CYMR90~1\AppData\Local\Temp\cca5ocgO.s:29403  .debug_str:0000000000029713 .LASF2767
C:\Users\CYMR90~1\AppData\Local\Temp\cca5ocgO.s:28151  .debug_str:000000000002453f .LASF2768
C:\Users\CYMR90~1\AppData\Local\Temp\cca5ocgO.s:20056  .debug_str:0000000000003f57 .LASF2769
C:\Users\CYMR90~1\AppData\Local\Temp\cca5ocgO.s:23322  .debug_str:0000000000010f8b .LASF2770
C:\Users\CYMR90~1\AppData\Local\Temp\cca5ocgO.s:26481  .debug_str:000000000001dece .LASF2771
C:\Users\CYMR90~1\AppData\Local\Temp\cca5ocgO.s:29691  .debug_str:000000000002a800 .LASF2772
C:\Users\CYMR90~1\AppData\Local\Temp\cca5ocgO.s:21622  .debug_str:000000000000a3b5 .LASF2773
C:\Users\CYMR90~1\AppData\Local\Temp\cca5ocgO.s:27781  .debug_str:0000000000022dee .LASF2774
C:\Users\CYMR90~1\AppData\Local\Temp\cca5ocgO.s:30225  .debug_str:000000000002cb48 .LASF2775
C:\Users\CYMR90~1\AppData\Local\Temp\cca5ocgO.s:23570  .debug_str:000000000001206a .LASF2776
C:\Users\CYMR90~1\AppData\Local\Temp\cca5ocgO.s:24442  .debug_str:00000000000157ff .LASF2777
C:\Users\CYMR90~1\AppData\Local\Temp\cca5ocgO.s:19664  .debug_str:00000000000025d4 .LASF2778
C:\Users\CYMR90~1\AppData\Local\Temp\cca5ocgO.s:26269  .debug_str:000000000001d146 .LASF2779
C:\Users\CYMR90~1\AppData\Local\Temp\cca5ocgO.s:25653  .debug_str:000000000001a883 .LASF2780
C:\Users\CYMR90~1\AppData\Local\Temp\cca5ocgO.s:25689  .debug_str:000000000001aac8 .LASF2781
C:\Users\CYMR90~1\AppData\Local\Temp\cca5ocgO.s:24658  .debug_str:000000000001657f .LASF2782
C:\Users\CYMR90~1\AppData\Local\Temp\cca5ocgO.s:21914  .debug_str:000000000000b706 .LASF2783
C:\Users\CYMR90~1\AppData\Local\Temp\cca5ocgO.s:24048  .debug_str:0000000000013f53 .LASF2784
C:\Users\CYMR90~1\AppData\Local\Temp\cca5ocgO.s:28563  .debug_str:00000000000260ff .LASF2785
C:\Users\CYMR90~1\AppData\Local\Temp\cca5ocgO.s:25855  .debug_str:000000000001b609 .LASF2786
C:\Users\CYMR90~1\AppData\Local\Temp\cca5ocgO.s:20544  .debug_str:0000000000005e3b .LASF2787
C:\Users\CYMR90~1\AppData\Local\Temp\cca5ocgO.s:22480  .debug_str:000000000000dbdd .LASF2788
C:\Users\CYMR90~1\AppData\Local\Temp\cca5ocgO.s:24364  .debug_str:00000000000153ab .LASF2789
C:\Users\CYMR90~1\AppData\Local\Temp\cca5ocgO.s:28935  .debug_str:0000000000027850 .LASF2790
C:\Users\CYMR90~1\AppData\Local\Temp\cca5ocgO.s:22042  .debug_str:000000000000bfc6 .LASF2791
C:\Users\CYMR90~1\AppData\Local\Temp\cca5ocgO.s:22604  .debug_str:000000000000e3a8 .LASF2792
C:\Users\CYMR90~1\AppData\Local\Temp\cca5ocgO.s:26587  .debug_str:000000000001e524 .LASF2793
C:\Users\CYMR90~1\AppData\Local\Temp\cca5ocgO.s:20304  .debug_str:000000000000500d .LASF2794
C:\Users\CYMR90~1\AppData\Local\Temp\cca5ocgO.s:29799  .debug_str:000000000002ae89 .LASF2795
C:\Users\CYMR90~1\AppData\Local\Temp\cca5ocgO.s:28007  .debug_str:0000000000023b48 .LASF2796
C:\Users\CYMR90~1\AppData\Local\Temp\cca5ocgO.s:28801  .debug_str:0000000000026f89 .LASF2797
C:\Users\CYMR90~1\AppData\Local\Temp\cca5ocgO.s:20738  .debug_str:0000000000006a3c .LASF2798
C:\Users\CYMR90~1\AppData\Local\Temp\cca5ocgO.s:30287  .debug_str:000000000002cf8a .LASF2799
C:\Users\CYMR90~1\AppData\Local\Temp\cca5ocgO.s:19824  .debug_str:0000000000002ff7 .LASF2800
C:\Users\CYMR90~1\AppData\Local\Temp\cca5ocgO.s:19554  .debug_str:0000000000001fac .LASF2801
C:\Users\CYMR90~1\AppData\Local\Temp\cca5ocgO.s:26613  .debug_str:000000000001e6b4 .LASF2802
C:\Users\CYMR90~1\AppData\Local\Temp\cca5ocgO.s:19800  .debug_str:0000000000002e7c .LASF2803
C:\Users\CYMR90~1\AppData\Local\Temp\cca5ocgO.s:19094  .debug_str:0000000000000325 .LASF2804
C:\Users\CYMR90~1\AppData\Local\Temp\cca5ocgO.s:30087  .debug_str:000000000002c228 .LASF2805
C:\Users\CYMR90~1\AppData\Local\Temp\cca5ocgO.s:28699  .debug_str:000000000002696a .LASF2806
C:\Users\CYMR90~1\AppData\Local\Temp\cca5ocgO.s:20528  .debug_str:0000000000005d48 .LASF2807
C:\Users\CYMR90~1\AppData\Local\Temp\cca5ocgO.s:29771  .debug_str:000000000002acf6 .LASF2808
C:\Users\CYMR90~1\AppData\Local\Temp\cca5ocgO.s:26185  .debug_str:000000000001cad9 .LASF2809
C:\Users\CYMR90~1\AppData\Local\Temp\cca5ocgO.s:27165  .debug_str:00000000000208b7 .LASF2810
C:\Users\CYMR90~1\AppData\Local\Temp\cca5ocgO.s:22970  .debug_str:000000000000fa8f .LASF2811
C:\Users\CYMR90~1\AppData\Local\Temp\cca5ocgO.s:22120  .debug_str:000000000000c469 .LASF2812
C:\Users\CYMR90~1\AppData\Local\Temp\cca5ocgO.s:25915  .debug_str:000000000001b9c7 .LASF2813
C:\Users\CYMR90~1\AppData\Local\Temp\cca5ocgO.s:29115  .debug_str:000000000002850c .LASF2814
C:\Users\CYMR90~1\AppData\Local\Temp\cca5ocgO.s:27557  .debug_str:00000000000220bc .LASF2815
C:\Users\CYMR90~1\AppData\Local\Temp\cca5ocgO.s:25907  .debug_str:000000000001b92b .LASF2816
C:\Users\CYMR90~1\AppData\Local\Temp\cca5ocgO.s:20146  .debug_str:000000000000455d .LASF2817
C:\Users\CYMR90~1\AppData\Local\Temp\cca5ocgO.s:26231  .debug_str:000000000001cdb2 .LASF2818
C:\Users\CYMR90~1\AppData\Local\Temp\cca5ocgO.s:29367  .debug_str:0000000000029499 .LASF2819
C:\Users\CYMR90~1\AppData\Local\Temp\cca5ocgO.s:28501  .debug_str:0000000000025d4b .LASF2820
C:\Users\CYMR90~1\AppData\Local\Temp\cca5ocgO.s:26363  .debug_str:000000000001d6ca .LASF2821
C:\Users\CYMR90~1\AppData\Local\Temp\cca5ocgO.s:29755  .debug_str:000000000002ac14 .LASF2822
C:\Users\CYMR90~1\AppData\Local\Temp\cca5ocgO.s:29865  .debug_str:000000000002b309 .LASF2823
C:\Users\CYMR90~1\AppData\Local\Temp\cca5ocgO.s:25045  .debug_str:0000000000017f12 .LASF2824
C:\Users\CYMR90~1\AppData\Local\Temp\cca5ocgO.s:20016  .debug_str:0000000000003c6a .LASF2825
C:\Users\CYMR90~1\AppData\Local\Temp\cca5ocgO.s:25277  .debug_str:0000000000018de2 .LASF2826
C:\Users\CYMR90~1\AppData\Local\Temp\cca5ocgO.s:22674  .debug_str:000000000000e821 .LASF2827
C:\Users\CYMR90~1\AppData\Local\Temp\cca5ocgO.s:22792  .debug_str:000000000000ef38 .LASF2828
C:\Users\CYMR90~1\AppData\Local\Temp\cca5ocgO.s:24262  .debug_str:0000000000014cdb .LASF2829
C:\Users\CYMR90~1\AppData\Local\Temp\cca5ocgO.s:24162  .debug_str:00000000000146ba .LASF2830
C:\Users\CYMR90~1\AppData\Local\Temp\cca5ocgO.s:22820  .debug_str:000000000000f0de .LASF2831
C:\Users\CYMR90~1\AppData\Local\Temp\cca5ocgO.s:22504  .debug_str:000000000000dd5c .LASF2832
C:\Users\CYMR90~1\AppData\Local\Temp\cca5ocgO.s:27941  .debug_str:0000000000023791 .LASF2833
C:\Users\CYMR90~1\AppData\Local\Temp\cca5ocgO.s:24853  .debug_str:0000000000017347 .LASF2834
C:\Users\CYMR90~1\AppData\Local\Temp\cca5ocgO.s:23950  .debug_str:0000000000013978 .LASF2835
C:\Users\CYMR90~1\AppData\Local\Temp\cca5ocgO.s:21238  .debug_str:0000000000008b8c .LASF2836
C:\Users\CYMR90~1\AppData\Local\Temp\cca5ocgO.s:29613  .debug_str:000000000002a336 .LASF2837
C:\Users\CYMR90~1\AppData\Local\Temp\cca5ocgO.s:30079  .debug_str:000000000002c1b2 .LASF2838
C:\Users\CYMR90~1\AppData\Local\Temp\cca5ocgO.s:24354  .debug_str:0000000000015302 .LASF2839
C:\Users\CYMR90~1\AppData\Local\Temp\cca5ocgO.s:20374  .debug_str:000000000000541f .LASF2840
C:\Users\CYMR90~1\AppData\Local\Temp\cca5ocgO.s:24532  .debug_str:0000000000015dae .LASF2841
C:\Users\CYMR90~1\AppData\Local\Temp\cca5ocgO.s:30045  .debug_str:000000000002bf80 .LASF2842
C:\Users\CYMR90~1\AppData\Local\Temp\cca5ocgO.s:23178  .debug_str:000000000001061d .LASF2843
C:\Users\CYMR90~1\AppData\Local\Temp\cca5ocgO.s:21642  .debug_str:000000000000a50e .LASF2844
C:\Users\CYMR90~1\AppData\Local\Temp\cca5ocgO.s:19196  .debug_str:000000000000090c .LASF2845
C:\Users\CYMR90~1\AppData\Local\Temp\cca5ocgO.s:27159  .debug_str:0000000000020838 .LASF2846
C:\Users\CYMR90~1\AppData\Local\Temp\cca5ocgO.s:30149  .debug_str:000000000002c652 .LASF2847
C:\Users\CYMR90~1\AppData\Local\Temp\cca5ocgO.s:28067  .debug_str:0000000000023ed5 .LASF2848
C:\Users\CYMR90~1\AppData\Local\Temp\cca5ocgO.s:19424  .debug_str:000000000000171e .LASF2849
C:\Users\CYMR90~1\AppData\Local\Temp\cca5ocgO.s:28691  .debug_str:00000000000268f4 .LASF2850
C:\Users\CYMR90~1\AppData\Local\Temp\cca5ocgO.s:30265  .debug_str:000000000002ce28 .LASF2851
C:\Users\CYMR90~1\AppData\Local\Temp\cca5ocgO.s:22692  .debug_str:000000000000e923 .LASF2852
C:\Users\CYMR90~1\AppData\Local\Temp\cca5ocgO.s:26037  .debug_str:000000000001c140 .LASF2853
C:\Users\CYMR90~1\AppData\Local\Temp\cca5ocgO.s:27709  .debug_str:0000000000022970 .LASF2854
C:\Users\CYMR90~1\AppData\Local\Temp\cca5ocgO.s:23302  .debug_str:0000000000010e85 .LASF2855
C:\Users\CYMR90~1\AppData\Local\Temp\cca5ocgO.s:22420  .debug_str:000000000000d8b4 .LASF2856
C:\Users\CYMR90~1\AppData\Local\Temp\cca5ocgO.s:29013  .debug_str:0000000000027d93 .LASF2857
C:\Users\CYMR90~1\AppData\Local\Temp\cca5ocgO.s:29479  .debug_str:0000000000029ba1 .LASF2858
C:\Users\CYMR90~1\AppData\Local\Temp\cca5ocgO.s:22066  .debug_str:000000000000c152 .LASF2859
C:\Users\CYMR90~1\AppData\Local\Temp\cca5ocgO.s:20850  .debug_str:000000000000718d .LASF2860
C:\Users\CYMR90~1\AppData\Local\Temp\cca5ocgO.s:27311  .debug_str:0000000000021149 .LASF2861
C:\Users\CYMR90~1\AppData\Local\Temp\cca5ocgO.s:29501  .debug_str:0000000000029ce5 .LASF2862
C:\Users\CYMR90~1\AppData\Local\Temp\cca5ocgO.s:19808  .debug_str:0000000000002efe .LASF2863
C:\Users\CYMR90~1\AppData\Local\Temp\cca5ocgO.s:22134  .debug_str:000000000000c54b .LASF2864
C:\Users\CYMR90~1\AppData\Local\Temp\cca5ocgO.s:22628  .debug_str:000000000000e507 .LASF2865
C:\Users\CYMR90~1\AppData\Local\Temp\cca5ocgO.s:29897  .debug_str:000000000002b540 .LASF2866
C:\Users\CYMR90~1\AppData\Local\Temp\cca5ocgO.s:20816  .debug_str:0000000000006f23 .LASF2867
C:\Users\CYMR90~1\AppData\Local\Temp\cca5ocgO.s:27049  .debug_str:00000000000201b1 .LASF2868
C:\Users\CYMR90~1\AppData\Local\Temp\cca5ocgO.s:23000  .debug_str:000000000000fc63 .LASF2869
C:\Users\CYMR90~1\AppData\Local\Temp\cca5ocgO.s:24867  .debug_str:000000000001741e .LASF2870
C:\Users\CYMR90~1\AppData\Local\Temp\cca5ocgO.s:21460  .debug_str:0000000000009958 .LASF2871
C:\Users\CYMR90~1\AppData\Local\Temp\cca5ocgO.s:21564  .debug_str:0000000000009ff7 .LASF2872
C:\Users\CYMR90~1\AppData\Local\Temp\cca5ocgO.s:22580  .debug_str:000000000000e20a .LASF2873
C:\Users\CYMR90~1\AppData\Local\Temp\cca5ocgO.s:21674  .debug_str:000000000000a6c4 .LASF2874
C:\Users\CYMR90~1\AppData\Local\Temp\cca5ocgO.s:28287  .debug_str:0000000000024e71 .LASF2875
C:\Users\CYMR90~1\AppData\Local\Temp\cca5ocgO.s:22744  .debug_str:000000000000ecc1 .LASF2876
C:\Users\CYMR90~1\AppData\Local\Temp\cca5ocgO.s:23318  .debug_str:0000000000010f4c .LASF2877
C:\Users\CYMR90~1\AppData\Local\Temp\cca5ocgO.s:27677  .debug_str:0000000000022789 .LASF2878
C:\Users\CYMR90~1\AppData\Local\Temp\cca5ocgO.s:21206  .debug_str:0000000000008979 .LASF2879
C:\Users\CYMR90~1\AppData\Local\Temp\cca5ocgO.s:29971  .debug_str:000000000002ba25 .LASF2880
C:\Users\CYMR90~1\AppData\Local\Temp\cca5ocgO.s:29135  .debug_str:000000000002868b .LASF2881
C:\Users\CYMR90~1\AppData\Local\Temp\cca5ocgO.s:29395  .debug_str:00000000000296b0 .LASF2882
C:\Users\CYMR90~1\AppData\Local\Temp\cca5ocgO.s:20064  .debug_str:0000000000003fd9 .LASF2883
C:\Users\CYMR90~1\AppData\Local\Temp\cca5ocgO.s:26089  .debug_str:000000000001c469 .LASF2884
C:\Users\CYMR90~1\AppData\Local\Temp\cca5ocgO.s:25897  .debug_str:000000000001b88f .LASF2885
C:\Users\CYMR90~1\AppData\Local\Temp\cca5ocgO.s:28303  .debug_str:0000000000024f25 .LASF2886
C:\Users\CYMR90~1\AppData\Local\Temp\cca5ocgO.s:22426  .debug_str:000000000000d8f9 .LASF2887
C:\Users\CYMR90~1\AppData\Local\Temp\cca5ocgO.s:25511  .debug_str:0000000000019e1e .LASF2888
C:\Users\CYMR90~1\AppData\Local\Temp\cca5ocgO.s:19328  .debug_str:00000000000011c7 .LASF2889
C:\Users\CYMR90~1\AppData\Local\Temp\cca5ocgO.s:22790  .debug_str:000000000000ef1e .LASF2890
C:\Users\CYMR90~1\AppData\Local\Temp\cca5ocgO.s:26093  .debug_str:000000000001c49d .LASF2891
C:\Users\CYMR90~1\AppData\Local\Temp\cca5ocgO.s:29413  .debug_str:000000000002978b .LASF2892
C:\Users\CYMR90~1\AppData\Local\Temp\cca5ocgO.s:19464  .debug_str:0000000000001a43 .LASF2893
C:\Users\CYMR90~1\AppData\Local\Temp\cca5ocgO.s:21530  .debug_str:0000000000009dc1 .LASF2894
C:\Users\CYMR90~1\AppData\Local\Temp\cca5ocgO.s:28831  .debug_str:0000000000027234 .LASF2895
C:\Users\CYMR90~1\AppData\Local\Temp\cca5ocgO.s:21092  .debug_str:00000000000082a1 .LASF2896
C:\Users\CYMR90~1\AppData\Local\Temp\cca5ocgO.s:22588  .debug_str:000000000000e29c .LASF2897
C:\Users\CYMR90~1\AppData\Local\Temp\cca5ocgO.s:28071  .debug_str:0000000000023f1a .LASF2898
C:\Users\CYMR90~1\AppData\Local\Temp\cca5ocgO.s:25445  .debug_str:00000000000199d6 .LASF2899
C:\Users\CYMR90~1\AppData\Local\Temp\cca5ocgO.s:26915  .debug_str:000000000001f942 .LASF2900
C:\Users\CYMR90~1\AppData\Local\Temp\cca5ocgO.s:26837  .debug_str:000000000001f47d .LASF2901
C:\Users\CYMR90~1\AppData\Local\Temp\cca5ocgO.s:21066  .debug_str:0000000000008044 .LASF2902
C:\Users\CYMR90~1\AppData\Local\Temp\cca5ocgO.s:29027  .debug_str:0000000000027e88 .LASF2903
C:\Users\CYMR90~1\AppData\Local\Temp\cca5ocgO.s:28519  .debug_str:0000000000025e7f .LASF2904
C:\Users\CYMR90~1\AppData\Local\Temp\cca5ocgO.s:28297  .debug_str:0000000000024ee0 .LASF2905
C:\Users\CYMR90~1\AppData\Local\Temp\cca5ocgO.s:28199  .debug_str:00000000000248ea .LASF2906
C:\Users\CYMR90~1\AppData\Local\Temp\cca5ocgO.s:27289  .debug_str:0000000000021023 .LASF2907
C:\Users\CYMR90~1\AppData\Local\Temp\cca5ocgO.s:23288  .debug_str:0000000000010dc0 .LASF2908
C:\Users\CYMR90~1\AppData\Local\Temp\cca5ocgO.s:28767  .debug_str:0000000000026dad .LASF2909
C:\Users\CYMR90~1\AppData\Local\Temp\cca5ocgO.s:27945  .debug_str:00000000000237ce .LASF2910
C:\Users\CYMR90~1\AppData\Local\Temp\cca5ocgO.s:24809  .debug_str:00000000000170b8 .LASF2911
C:\Users\CYMR90~1\AppData\Local\Temp\cca5ocgO.s:24552  .debug_str:0000000000015f1d .LASF2912
C:\Users\CYMR90~1\AppData\Local\Temp\cca5ocgO.s:26793  .debug_str:000000000001f1d5 .LASF2913
C:\Users\CYMR90~1\AppData\Local\Temp\cca5ocgO.s:23248  .debug_str:0000000000010b0c .LASF2914
C:\Users\CYMR90~1\AppData\Local\Temp\cca5ocgO.s:23376  .debug_str:00000000000112e1 .LASF2915
C:\Users\CYMR90~1\AppData\Local\Temp\cca5ocgO.s:22760  .debug_str:000000000000ed8e .LASF2916
C:\Users\CYMR90~1\AppData\Local\Temp\cca5ocgO.s:22898  .debug_str:000000000000f5c1 .LASF2917
C:\Users\CYMR90~1\AppData\Local\Temp\cca5ocgO.s:23872  .debug_str:00000000000134b2 .LASF2918
C:\Users\CYMR90~1\AppData\Local\Temp\cca5ocgO.s:29153  .debug_str:00000000000287ca .LASF2919
C:\Users\CYMR90~1\AppData\Local\Temp\cca5ocgO.s:24674  .debug_str:000000000001667e .LASF2920
C:\Users\CYMR90~1\AppData\Local\Temp\cca5ocgO.s:28063  .debug_str:0000000000023e84 .LASF2921
C:\Users\CYMR90~1\AppData\Local\Temp\cca5ocgO.s:25547  .debug_str:000000000001a040 .LASF2922
C:\Users\CYMR90~1\AppData\Local\Temp\cca5ocgO.s:20842  .debug_str:00000000000070e5 .LASF2923
C:\Users\CYMR90~1\AppData\Local\Temp\cca5ocgO.s:29201  .debug_str:0000000000028ac0 .LASF2924
C:\Users\CYMR90~1\AppData\Local\Temp\cca5ocgO.s:21582  .debug_str:000000000000a107 .LASF2925
C:\Users\CYMR90~1\AppData\Local\Temp\cca5ocgO.s:24052  .debug_str:0000000000013f89 .LASF2926
C:\Users\CYMR90~1\AppData\Local\Temp\cca5ocgO.s:24344  .debug_str:000000000001526d .LASF2927
C:\Users\CYMR90~1\AppData\Local\Temp\cca5ocgO.s:24404  .debug_str:00000000000155f1 .LASF2928
C:\Users\CYMR90~1\AppData\Local\Temp\cca5ocgO.s:27235  .debug_str:0000000000020d06 .LASF2929
C:\Users\CYMR90~1\AppData\Local\Temp\cca5ocgO.s:25203  .debug_str:0000000000018880 .LASF2930
C:\Users\CYMR90~1\AppData\Local\Temp\cca5ocgO.s:22722  .debug_str:000000000000eb0e .LASF2931
C:\Users\CYMR90~1\AppData\Local\Temp\cca5ocgO.s:29297  .debug_str:000000000002907a .LASF2932
C:\Users\CYMR90~1\AppData\Local\Temp\cca5ocgO.s:27727  .debug_str:0000000000022a60 .LASF2933
C:\Users\CYMR90~1\AppData\Local\Temp\cca5ocgO.s:22146  .debug_str:000000000000c5f4 .LASF2934
C:\Users\CYMR90~1\AppData\Local\Temp\cca5ocgO.s:30099  .debug_str:000000000002c357 .LASF2935
C:\Users\CYMR90~1\AppData\Local\Temp\cca5ocgO.s:29723  .debug_str:000000000002aa06 .LASF2936
C:\Users\CYMR90~1\AppData\Local\Temp\cca5ocgO.s:28813  .debug_str:0000000000027064 .LASF2937
C:\Users\CYMR90~1\AppData\Local\Temp\cca5ocgO.s:19888  .debug_str:0000000000003420 .LASF2938
C:\Users\CYMR90~1\AppData\Local\Temp\cca5ocgO.s:22040  .debug_str:000000000000bf9e .LASF2939
C:\Users\CYMR90~1\AppData\Local\Temp\cca5ocgO.s:25513  .debug_str:0000000000019e3c .LASF2940
C:\Users\CYMR90~1\AppData\Local\Temp\cca5ocgO.s:24356  .debug_str:000000000001532d .LASF2941
C:\Users\CYMR90~1\AppData\Local\Temp\cca5ocgO.s:25267  .debug_str:0000000000018d60 .LASF2942
C:\Users\CYMR90~1\AppData\Local\Temp\cca5ocgO.s:26921  .debug_str:000000000001f9a7 .LASF2943
C:\Users\CYMR90~1\AppData\Local\Temp\cca5ocgO.s:28159  .debug_str:00000000000245cb .LASF2944
C:\Users\CYMR90~1\AppData\Local\Temp\cca5ocgO.s:25391  .debug_str:00000000000195c0 .LASF2945
C:\Users\CYMR90~1\AppData\Local\Temp\cca5ocgO.s:22408  .debug_str:000000000000d7ed .LASF2946
C:\Users\CYMR90~1\AppData\Local\Temp\cca5ocgO.s:24106  .debug_str:0000000000014326 .LASF2947
C:\Users\CYMR90~1\AppData\Local\Temp\cca5ocgO.s:22808  .debug_str:000000000000f030 .LASF2948
C:\Users\CYMR90~1\AppData\Local\Temp\cca5ocgO.s:27115  .debug_str:000000000002054c .LASF2949
C:\Users\CYMR90~1\AppData\Local\Temp\cca5ocgO.s:24430  .debug_str:000000000001574a .LASF2950
C:\Users\CYMR90~1\AppData\Local\Temp\cca5ocgO.s:20586  .debug_str:00000000000060cc .LASF2951
C:\Users\CYMR90~1\AppData\Local\Temp\cca5ocgO.s:22886  .debug_str:000000000000f4f8 .LASF2952
C:\Users\CYMR90~1\AppData\Local\Temp\cca5ocgO.s:25081  .debug_str:0000000000018104 .LASF2953
C:\Users\CYMR90~1\AppData\Local\Temp\cca5ocgO.s:19876  .debug_str:000000000000336a .LASF2954
C:\Users\CYMR90~1\AppData\Local\Temp\cca5ocgO.s:23250  .debug_str:0000000000010b24 .LASF2955
C:\Users\CYMR90~1\AppData\Local\Temp\cca5ocgO.s:22288  .debug_str:000000000000d01d .LASF2956
C:\Users\CYMR90~1\AppData\Local\Temp\cca5ocgO.s:21304  .debug_str:0000000000008fd9 .LASF2957
C:\Users\CYMR90~1\AppData\Local\Temp\cca5ocgO.s:20384  .debug_str:00000000000054d2 .LASF2958
C:\Users\CYMR90~1\AppData\Local\Temp\cca5ocgO.s:19448  .debug_str:0000000000001958 .LASF2959
C:\Users\CYMR90~1\AppData\Local\Temp\cca5ocgO.s:29783  .debug_str:000000000002adbd .LASF2960
C:\Users\CYMR90~1\AppData\Local\Temp\cca5ocgO.s:27375  .debug_str:00000000000215c9 .LASF2961
C:\Users\CYMR90~1\AppData\Local\Temp\cca5ocgO.s:26421  .debug_str:000000000001dac3 .LASF2962
C:\Users\CYMR90~1\AppData\Local\Temp\cca5ocgO.s:25591  .debug_str:000000000001a2bf .LASF2963
C:\Users\CYMR90~1\AppData\Local\Temp\cca5ocgO.s:24594  .debug_str:0000000000016203 .LASF2964
C:\Users\CYMR90~1\AppData\Local\Temp\cca5ocgO.s:23658  .debug_str:00000000000125f1 .LASF2965
C:\Users\CYMR90~1\AppData\Local\Temp\cca5ocgO.s:22684  .debug_str:000000000000e8b2 .LASF2966
C:\Users\CYMR90~1\AppData\Local\Temp\cca5ocgO.s:27133  .debug_str:00000000000206b0 .LASF2967
C:\Users\CYMR90~1\AppData\Local\Temp\cca5ocgO.s:28759  .debug_str:0000000000026d18 .LASF2968
C:\Users\CYMR90~1\AppData\Local\Temp\cca5ocgO.s:28549  .debug_str:0000000000026042 .LASF2969
C:\Users\CYMR90~1\AppData\Local\Temp\cca5ocgO.s:23152  .debug_str:0000000000010483 .LASF2970
C:\Users\CYMR90~1\AppData\Local\Temp\cca5ocgO.s:21716  .debug_str:000000000000a95d .LASF2971
C:\Users\CYMR90~1\AppData\Local\Temp\cca5ocgO.s:20896  .debug_str:00000000000074c0 .LASF2972
C:\Users\CYMR90~1\AppData\Local\Temp\cca5ocgO.s:27459  .debug_str:0000000000021ab5 .LASF2973
C:\Users\CYMR90~1\AppData\Local\Temp\cca5ocgO.s:27845  .debug_str:000000000002315a .LASF2974
C:\Users\CYMR90~1\AppData\Local\Temp\cca5ocgO.s:22182  .debug_str:000000000000c8a0 .LASF2975
C:\Users\CYMR90~1\AppData\Local\Temp\cca5ocgO.s:29879  .debug_str:000000000002b412 .LASF2976
C:\Users\CYMR90~1\AppData\Local\Temp\cca5ocgO.s:20234  .debug_str:0000000000004bb3 .LASF2977
C:\Users\CYMR90~1\AppData\Local\Temp\cca5ocgO.s:26175  .debug_str:000000000001ca36 .LASF2978
C:\Users\CYMR90~1\AppData\Local\Temp\cca5ocgO.s:20614  .debug_str:000000000000628a .LASF2979
C:\Users\CYMR90~1\AppData\Local\Temp\cca5ocgO.s:19756  .debug_str:0000000000002bc5 .LASF2980
C:\Users\CYMR90~1\AppData\Local\Temp\cca5ocgO.s:30097  .debug_str:000000000002c32a .LASF2981
C:\Users\CYMR90~1\AppData\Local\Temp\cca5ocgO.s:29125  .debug_str:00000000000285bd .LASF2982
C:\Users\CYMR90~1\AppData\Local\Temp\cca5ocgO.s:26033  .debug_str:000000000001c107 .LASF2983
C:\Users\CYMR90~1\AppData\Local\Temp\cca5ocgO.s:26013  .debug_str:000000000001bfc3 .LASF2984
C:\Users\CYMR90~1\AppData\Local\Temp\cca5ocgO.s:27817  .debug_str:0000000000022fd3 .LASF2985
C:\Users\CYMR90~1\AppData\Local\Temp\cca5ocgO.s:26313  .debug_str:000000000001d3da .LASF2986
C:\Users\CYMR90~1\AppData\Local\Temp\cca5ocgO.s:19134  .debug_str:0000000000000559 .LASF2987
C:\Users\CYMR90~1\AppData\Local\Temp\cca5ocgO.s:23836  .debug_str:00000000000131ee .LASF2988
C:\Users\CYMR90~1\AppData\Local\Temp\cca5ocgO.s:28499  .debug_str:0000000000025d29 .LASF2989
C:\Users\CYMR90~1\AppData\Local\Temp\cca5ocgO.s:23742  .debug_str:0000000000012ba4 .LASF2990
C:\Users\CYMR90~1\AppData\Local\Temp\cca5ocgO.s:20606  .debug_str:0000000000006203 .LASF2991
C:\Users\CYMR90~1\AppData\Local\Temp\cca5ocgO.s:21188  .debug_str:0000000000008851 .LASF2992
C:\Users\CYMR90~1\AppData\Local\Temp\cca5ocgO.s:23496  .debug_str:0000000000011b94 .LASF2993
C:\Users\CYMR90~1\AppData\Local\Temp\cca5ocgO.s:22036  .debug_str:000000000000bf5c .LASF2994
C:\Users\CYMR90~1\AppData\Local\Temp\cca5ocgO.s:25879  .debug_str:000000000001b76e .LASF2995
C:\Users\CYMR90~1\AppData\Local\Temp\cca5ocgO.s:22396  .debug_str:000000000000d768 .LASF2996
C:\Users\CYMR90~1\AppData\Local\Temp\cca5ocgO.s:21372  .debug_str:00000000000093b7 .LASF2997
C:\Users\CYMR90~1\AppData\Local\Temp\cca5ocgO.s:28209  .debug_str:000000000002495f .LASF2998
C:\Users\CYMR90~1\AppData\Local\Temp\cca5ocgO.s:23542  .debug_str:0000000000011e52 .LASF2999
C:\Users\CYMR90~1\AppData\Local\Temp\cca5ocgO.s:27813  .debug_str:0000000000022fa8 .LASF3000
C:\Users\CYMR90~1\AppData\Local\Temp\cca5ocgO.s:21702  .debug_str:000000000000a8a1 .LASF3001
C:\Users\CYMR90~1\AppData\Local\Temp\cca5ocgO.s:25459  .debug_str:0000000000019ae3 .LASF3002
C:\Users\CYMR90~1\AppData\Local\Temp\cca5ocgO.s:28721  .debug_str:0000000000026a9d .LASF3003
C:\Users\CYMR90~1\AppData\Local\Temp\cca5ocgO.s:22424  .debug_str:000000000000d8d4 .LASF3004
C:\Users\CYMR90~1\AppData\Local\Temp\cca5ocgO.s:20498  .debug_str:0000000000005bb9 .LASF3005
C:\Users\CYMR90~1\AppData\Local\Temp\cca5ocgO.s:22018  .debug_str:000000000000be0e .LASF3006
C:\Users\CYMR90~1\AppData\Local\Temp\cca5ocgO.s:27097  .debug_str:0000000000020423 .LASF3007
C:\Users\CYMR90~1\AppData\Local\Temp\cca5ocgO.s:22710  .debug_str:000000000000ea77 .LASF3008
C:\Users\CYMR90~1\AppData\Local\Temp\cca5ocgO.s:19284  .debug_str:0000000000000f45 .LASF3009
C:\Users\CYMR90~1\AppData\Local\Temp\cca5ocgO.s:29919  .debug_str:000000000002b69d .LASF3010
C:\Users\CYMR90~1\AppData\Local\Temp\cca5ocgO.s:29517  .debug_str:0000000000029db1 .LASF3011
C:\Users\CYMR90~1\AppData\Local\Temp\cca5ocgO.s:19856  .debug_str:0000000000003216 .LASF3012
C:\Users\CYMR90~1\AppData\Local\Temp\cca5ocgO.s:28061  .debug_str:0000000000023e6c .LASF3013
C:\Users\CYMR90~1\AppData\Local\Temp\cca5ocgO.s:26547  .debug_str:000000000001e2d4 .LASF3014
C:\Users\CYMR90~1\AppData\Local\Temp\cca5ocgO.s:26927  .debug_str:000000000001f9f1 .LASF3015
C:\Users\CYMR90~1\AppData\Local\Temp\cca5ocgO.s:28875  .debug_str:00000000000274b0 .LASF3016
C:\Users\CYMR90~1\AppData\Local\Temp\cca5ocgO.s:24132  .debug_str:00000000000144a1 .LASF3017
C:\Users\CYMR90~1\AppData\Local\Temp\cca5ocgO.s:24696  .debug_str:00000000000167aa .LASF3018
C:\Users\CYMR90~1\AppData\Local\Temp\cca5ocgO.s:19546  .debug_str:0000000000001f26 .LASF3019
C:\Users\CYMR90~1\AppData\Local\Temp\cca5ocgO.s:26913  .debug_str:000000000001f908 .LASF3020
C:\Users\CYMR90~1\AppData\Local\Temp\cca5ocgO.s:26863  .debug_str:000000000001f635 .LASF3021
C:\Users\CYMR90~1\AppData\Local\Temp\cca5ocgO.s:25987  .debug_str:000000000001bdf4 .LASF3022
C:\Users\CYMR90~1\AppData\Local\Temp\cca5ocgO.s:19718  .debug_str:0000000000002978 .LASF3023
C:\Users\CYMR90~1\AppData\Local\Temp\cca5ocgO.s:28371  .debug_str:0000000000025498 .LASF3024
C:\Users\CYMR90~1\AppData\Local\Temp\cca5ocgO.s:22316  .debug_str:000000000000d1b8 .LASF3025
C:\Users\CYMR90~1\AppData\Local\Temp\cca5ocgO.s:20062  .debug_str:0000000000003fb3 .LASF3026
C:\Users\CYMR90~1\AppData\Local\Temp\cca5ocgO.s:19804  .debug_str:0000000000002eb3 .LASF3027
C:\Users\CYMR90~1\AppData\Local\Temp\cca5ocgO.s:21202  .debug_str:000000000000893b .LASF3028
C:\Users\CYMR90~1\AppData\Local\Temp\cca5ocgO.s:26537  .debug_str:000000000001e236 .LASF3029
C:\Users\CYMR90~1\AppData\Local\Temp\cca5ocgO.s:27655  .debug_str:000000000002263f .LASF3030
C:\Users\CYMR90~1\AppData\Local\Temp\cca5ocgO.s:21574  .debug_str:000000000000a094 .LASF3031
C:\Users\CYMR90~1\AppData\Local\Temp\cca5ocgO.s:23254  .debug_str:0000000000010b69 .LASF3032
C:\Users\CYMR90~1\AppData\Local\Temp\cca5ocgO.s:24490  .debug_str:0000000000015ae2 .LASF3033
C:\Users\CYMR90~1\AppData\Local\Temp\cca5ocgO.s:22550  .debug_str:000000000000e047 .LASF3034
C:\Users\CYMR90~1\AppData\Local\Temp\cca5ocgO.s:25765  .debug_str:000000000001afbf .LASF3035
C:\Users\CYMR90~1\AppData\Local\Temp\cca5ocgO.s:25421  .debug_str:0000000000019799 .LASF3036
C:\Users\CYMR90~1\AppData\Local\Temp\cca5ocgO.s:22026  .debug_str:000000000000be9d .LASF3037
C:\Users\CYMR90~1\AppData\Local\Temp\cca5ocgO.s:27119  .debug_str:000000000002058e .LASF3038
C:\Users\CYMR90~1\AppData\Local\Temp\cca5ocgO.s:24975  .debug_str:0000000000017af2 .LASF3039
C:\Users\CYMR90~1\AppData\Local\Temp\cca5ocgO.s:29119  .debug_str:000000000002854b .LASF3040
C:\Users\CYMR90~1\AppData\Local\Temp\cca5ocgO.s:26639  .debug_str:000000000001e857 .LASF3041
C:\Users\CYMR90~1\AppData\Local\Temp\cca5ocgO.s:25963  .debug_str:000000000001bc35 .LASF3042
C:\Users\CYMR90~1\AppData\Local\Temp\cca5ocgO.s:28997  .debug_str:0000000000027c93 .LASF3043
C:\Users\CYMR90~1\AppData\Local\Temp\cca5ocgO.s:19572  .debug_str:000000000000209a .LASF3044
C:\Users\CYMR90~1\AppData\Local\Temp\cca5ocgO.s:22734  .debug_str:000000000000ec28 .LASF3045
C:\Users\CYMR90~1\AppData\Local\Temp\cca5ocgO.s:22778  .debug_str:000000000000ee77 .LASF3046
C:\Users\CYMR90~1\AppData\Local\Temp\cca5ocgO.s:28635  .debug_str:0000000000026582 .LASF3047
C:\Users\CYMR90~1\AppData\Local\Temp\cca5ocgO.s:29003  .debug_str:0000000000027cf3 .LASF3048
C:\Users\CYMR90~1\AppData\Local\Temp\cca5ocgO.s:25069  .debug_str:000000000001806c .LASF3049
C:\Users\CYMR90~1\AppData\Local\Temp\cca5ocgO.s:27761  .debug_str:0000000000022cdb .LASF3050
C:\Users\CYMR90~1\AppData\Local\Temp\cca5ocgO.s:19404  .debug_str:00000000000015dc .LASF3051
C:\Users\CYMR90~1\AppData\Local\Temp\cca5ocgO.s:19712  .debug_str:000000000000291c .LASF3052
C:\Users\CYMR90~1\AppData\Local\Temp\cca5ocgO.s:29591  .debug_str:000000000002a1c5 .LASF3053
C:\Users\CYMR90~1\AppData\Local\Temp\cca5ocgO.s:20590  .debug_str:0000000000006136 .LASF3054
C:\Users\CYMR90~1\AppData\Local\Temp\cca5ocgO.s:23840  .debug_str:0000000000013230 .LASF3055
C:\Users\CYMR90~1\AppData\Local\Temp\cca5ocgO.s:22386  .debug_str:000000000000d6b0 .LASF3056
C:\Users\CYMR90~1\AppData\Local\Temp\cca5ocgO.s:27335  .debug_str:00000000000212af .LASF3057
C:\Users\CYMR90~1\AppData\Local\Temp\cca5ocgO.s:25429  .debug_str:0000000000019858 .LASF3058
C:\Users\CYMR90~1\AppData\Local\Temp\cca5ocgO.s:21552  .debug_str:0000000000009f1f .LASF3059
C:\Users\CYMR90~1\AppData\Local\Temp\cca5ocgO.s:21308  .debug_str:0000000000009016 .LASF3060
C:\Users\CYMR90~1\AppData\Local\Temp\cca5ocgO.s:21898  .debug_str:000000000000b5e6 .LASF3061
C:\Users\CYMR90~1\AppData\Local\Temp\cca5ocgO.s:20140  .debug_str:00000000000044f7 .LASF3062
C:\Users\CYMR90~1\AppData\Local\Temp\cca5ocgO.s:23272  .debug_str:0000000000010cf9 .LASF3063
C:\Users\CYMR90~1\AppData\Local\Temp\cca5ocgO.s:24959  .debug_str:0000000000017a06 .LASF3064
C:\Users\CYMR90~1\AppData\Local\Temp\cca5ocgO.s:21178  .debug_str:00000000000087a5 .LASF3065
C:\Users\CYMR90~1\AppData\Local\Temp\cca5ocgO.s:21976  .debug_str:000000000000bae9 .LASF3066
C:\Users\CYMR90~1\AppData\Local\Temp\cca5ocgO.s:21924  .debug_str:000000000000b7b4 .LASF3067
C:\Users\CYMR90~1\AppData\Local\Temp\cca5ocgO.s:24857  .debug_str:0000000000017382 .LASF3068
C:\Users\CYMR90~1\AppData\Local\Temp\cca5ocgO.s:28717  .debug_str:0000000000026a64 .LASF3069
C:\Users\CYMR90~1\AppData\Local\Temp\cca5ocgO.s:21650  .debug_str:000000000000a579 .LASF3070
C:\Users\CYMR90~1\AppData\Local\Temp\cca5ocgO.s:19688  .debug_str:0000000000002769 .LASF3071
C:\Users\CYMR90~1\AppData\Local\Temp\cca5ocgO.s:26667  .debug_str:000000000001ea29 .LASF3072
C:\Users\CYMR90~1\AppData\Local\Temp\cca5ocgO.s:19368  .debug_str:0000000000001403 .LASF3073
C:\Users\CYMR90~1\AppData\Local\Temp\cca5ocgO.s:25251  .debug_str:0000000000018bc1 .LASF3074
C:\Users\CYMR90~1\AppData\Local\Temp\cca5ocgO.s:19476  .debug_str:0000000000001afd .LASF3075
C:\Users\CYMR90~1\AppData\Local\Temp\cca5ocgO.s:30179  .debug_str:000000000002c882 .LASF3076
C:\Users\CYMR90~1\AppData\Local\Temp\cca5ocgO.s:24410  .debug_str:0000000000015635 .LASF3077
C:\Users\CYMR90~1\AppData\Local\Temp\cca5ocgO.s:28157  .debug_str:00000000000245b4 .LASF3078
C:\Users\CYMR90~1\AppData\Local\Temp\cca5ocgO.s:21588  .debug_str:000000000000a168 .LASF3079
C:\Users\CYMR90~1\AppData\Local\Temp\cca5ocgO.s:19504  .debug_str:0000000000001cbb .LASF3080
C:\Users\CYMR90~1\AppData\Local\Temp\cca5ocgO.s:20612  .debug_str:0000000000006271 .LASF3081
C:\Users\CYMR90~1\AppData\Local\Temp\cca5ocgO.s:25843  .debug_str:000000000001b54f .LASF3082
C:\Users\CYMR90~1\AppData\Local\Temp\cca5ocgO.s:20070  .debug_str:0000000000004022 .LASF3083
C:\Users\CYMR90~1\AppData\Local\Temp\cca5ocgO.s:21314  .debug_str:0000000000009079 .LASF3084
C:\Users\CYMR90~1\AppData\Local\Temp\cca5ocgO.s:20362  .debug_str:0000000000005378 .LASF3085
C:\Users\CYMR90~1\AppData\Local\Temp\cca5ocgO.s:29679  .debug_str:000000000002a76f .LASF3086
C:\Users\CYMR90~1\AppData\Local\Temp\cca5ocgO.s:22048  .debug_str:000000000000c00e .LASF3087
C:\Users\CYMR90~1\AppData\Local\Temp\cca5ocgO.s:19726  .debug_str:00000000000029f3 .LASF3088
C:\Users\CYMR90~1\AppData\Local\Temp\cca5ocgO.s:27617  .debug_str:0000000000022422 .LASF3089
C:\Users\CYMR90~1\AppData\Local\Temp\cca5ocgO.s:24314  .debug_str:0000000000015085 .LASF3090
C:\Users\CYMR90~1\AppData\Local\Temp\cca5ocgO.s:20892  .debug_str:0000000000007479 .LASF3091
C:\Users\CYMR90~1\AppData\Local\Temp\cca5ocgO.s:25821  .debug_str:000000000001b377 .LASF3092
C:\Users\CYMR90~1\AppData\Local\Temp\cca5ocgO.s:20496  .debug_str:0000000000005b9a .LASF3093
C:\Users\CYMR90~1\AppData\Local\Temp\cca5ocgO.s:21406  .debug_str:00000000000095f1 .LASF3094
C:\Users\CYMR90~1\AppData\Local\Temp\cca5ocgO.s:23676  .debug_str:0000000000012730 .LASF3095
C:\Users\CYMR90~1\AppData\Local\Temp\cca5ocgO.s:27633  .debug_str:00000000000224dd .LASF3096
C:\Users\CYMR90~1\AppData\Local\Temp\cca5ocgO.s:28983  .debug_str:0000000000027bbb .LASF3097
C:\Users\CYMR90~1\AppData\Local\Temp\cca5ocgO.s:25059  .debug_str:0000000000017fe0 .LASF3098
C:\Users\CYMR90~1\AppData\Local\Temp\cca5ocgO.s:23896  .debug_str:0000000000013631 .LASF3099
C:\Users\CYMR90~1\AppData\Local\Temp\cca5ocgO.s:27631  .debug_str:00000000000224c4 .LASF3100
C:\Users\CYMR90~1\AppData\Local\Temp\cca5ocgO.s:29423  .debug_str:0000000000029825 .LASF3101
C:\Users\CYMR90~1\AppData\Local\Temp\cca5ocgO.s:25677  .debug_str:000000000001a9ea .LASF3102
C:\Users\CYMR90~1\AppData\Local\Temp\cca5ocgO.s:20750  .debug_str:0000000000006b0b .LASF3103
C:\Users\CYMR90~1\AppData\Local\Temp\cca5ocgO.s:20368  .debug_str:00000000000053bc .LASF3104
C:\Users\CYMR90~1\AppData\Local\Temp\cca5ocgO.s:26585  .debug_str:000000000001e507 .LASF3105
C:\Users\CYMR90~1\AppData\Local\Temp\cca5ocgO.s:22608  .debug_str:000000000000e3ce .LASF3106
C:\Users\CYMR90~1\AppData\Local\Temp\cca5ocgO.s:27833  .debug_str:00000000000230a9 .LASF3107
C:\Users\CYMR90~1\AppData\Local\Temp\cca5ocgO.s:24915  .debug_str:00000000000176fb .LASF3108
C:\Users\CYMR90~1\AppData\Local\Temp\cca5ocgO.s:28273  .debug_str:0000000000024d89 .LASF3109
C:\Users\CYMR90~1\AppData\Local\Temp\cca5ocgO.s:27671  .debug_str:0000000000022739 .LASF3110
C:\Users\CYMR90~1\AppData\Local\Temp\cca5ocgO.s:24971  .debug_str:0000000000017ac9 .LASF3111
C:\Users\CYMR90~1\AppData\Local\Temp\cca5ocgO.s:29855  .debug_str:000000000002b255 .LASF3112
C:\Users\CYMR90~1\AppData\Local\Temp\cca5ocgO.s:30151  .debug_str:000000000002c67c .LASF3113
C:\Users\CYMR90~1\AppData\Local\Temp\cca5ocgO.s:28567  .debug_str:000000000002613c .LASF3114
C:\Users\CYMR90~1\AppData\Local\Temp\cca5ocgO.s:20022  .debug_str:0000000000003cdd .LASF3115
C:\Users\CYMR90~1\AppData\Local\Temp\cca5ocgO.s:22828  .debug_str:000000000000f15a .LASF3116
C:\Users\CYMR90~1\AppData\Local\Temp\cca5ocgO.s:19992  .debug_str:0000000000003af3 .LASF3117
C:\Users\CYMR90~1\AppData\Local\Temp\cca5ocgO.s:23388  .debug_str:0000000000011381 .LASF3118
C:\Users\CYMR90~1\AppData\Local\Temp\cca5ocgO.s:23210  .debug_str:00000000000108aa .LASF3119
C:\Users\CYMR90~1\AppData\Local\Temp\cca5ocgO.s:20720  .debug_str:000000000000692b .LASF3120
C:\Users\CYMR90~1\AppData\Local\Temp\cca5ocgO.s:23592  .debug_str:00000000000121ef .LASF3121
C:\Users\CYMR90~1\AppData\Local\Temp\cca5ocgO.s:23252  .debug_str:0000000000010b4c .LASF3122
C:\Users\CYMR90~1\AppData\Local\Temp\cca5ocgO.s:20980  .debug_str:0000000000007a0e .LASF3123
C:\Users\CYMR90~1\AppData\Local\Temp\cca5ocgO.s:21656  .debug_str:000000000000a5c3 .LASF3124
C:\Users\CYMR90~1\AppData\Local\Temp\cca5ocgO.s:24074  .debug_str:0000000000014111 .LASF3125
C:\Users\CYMR90~1\AppData\Local\Temp\cca5ocgO.s:26591  .debug_str:000000000001e55b .LASF3126
C:\Users\CYMR90~1\AppData\Local\Temp\cca5ocgO.s:20176  .debug_str:0000000000004764 .LASF3127
C:\Users\CYMR90~1\AppData\Local\Temp\cca5ocgO.s:27117  .debug_str:0000000000020578 .LASF3128
C:\Users\CYMR90~1\AppData\Local\Temp\cca5ocgO.s:27471  .debug_str:0000000000021b9c .LASF3129
C:\Users\CYMR90~1\AppData\Local\Temp\cca5ocgO.s:21462  .debug_str:0000000000009974 .LASF3130
C:\Users\CYMR90~1\AppData\Local\Temp\cca5ocgO.s:20804  .debug_str:0000000000006e78 .LASF3131
C:\Users\CYMR90~1\AppData\Local\Temp\cca5ocgO.s:21328  .debug_str:0000000000009115 .LASF3132
C:\Users\CYMR90~1\AppData\Local\Temp\cca5ocgO.s:19782  .debug_str:0000000000002d74 .LASF3133
C:\Users\CYMR90~1\AppData\Local\Temp\cca5ocgO.s:30009  .debug_str:000000000002bcbc .LASF3134
C:\Users\CYMR90~1\AppData\Local\Temp\cca5ocgO.s:20596  .debug_str:0000000000006189 .LASF3135
C:\Users\CYMR90~1\AppData\Local\Temp\cca5ocgO.s:19170  .debug_str:0000000000000780 .LASF3136
C:\Users\CYMR90~1\AppData\Local\Temp\cca5ocgO.s:20182  .debug_str:00000000000047e1 .LASF3137
C:\Users\CYMR90~1\AppData\Local\Temp\cca5ocgO.s:27575  .debug_str:00000000000221d6 .LASF3138
C:\Users\CYMR90~1\AppData\Local\Temp\cca5ocgO.s:23666  .debug_str:000000000001267e .LASF3139
C:\Users\CYMR90~1\AppData\Local\Temp\cca5ocgO.s:27203  .debug_str:0000000000020adc .LASF3140
C:\Users\CYMR90~1\AppData\Local\Temp\cca5ocgO.s:19104  .debug_str:00000000000003a8 .LASF3141
C:\Users\CYMR90~1\AppData\Local\Temp\cca5ocgO.s:26801  .debug_str:000000000001f24e .LASF3142
C:\Users\CYMR90~1\AppData\Local\Temp\cca5ocgO.s:25665  .debug_str:000000000001a928 .LASF3143
C:\Users\CYMR90~1\AppData\Local\Temp\cca5ocgO.s:26583  .debug_str:000000000001e4e7 .LASF3144
C:\Users\CYMR90~1\AppData\Local\Temp\cca5ocgO.s:26167  .debug_str:000000000001c9a1 .LASF3145
C:\Users\CYMR90~1\AppData\Local\Temp\cca5ocgO.s:25041  .debug_str:0000000000017edc .LASF3146
C:\Users\CYMR90~1\AppData\Local\Temp\cca5ocgO.s:23552  .debug_str:0000000000011f09 .LASF3147
C:\Users\CYMR90~1\AppData\Local\Temp\cca5ocgO.s:21544  .debug_str:0000000000009e8c .LASF3148
C:\Users\CYMR90~1\AppData\Local\Temp\cca5ocgO.s:26455  .debug_str:000000000001dc8e .LASF3149
C:\Users\CYMR90~1\AppData\Local\Temp\cca5ocgO.s:30103  .debug_str:000000000002c3b8 .LASF3150
C:\Users\CYMR90~1\AppData\Local\Temp\cca5ocgO.s:25439  .debug_str:000000000001995e .LASF3151
C:\Users\CYMR90~1\AppData\Local\Temp\cca5ocgO.s:25739  .debug_str:000000000001ada9 .LASF3152
C:\Users\CYMR90~1\AppData\Local\Temp\cca5ocgO.s:28201  .debug_str:00000000000248fd .LASF3153
C:\Users\CYMR90~1\AppData\Local\Temp\cca5ocgO.s:29587  .debug_str:000000000002a192 .LASF3154
C:\Users\CYMR90~1\AppData\Local\Temp\cca5ocgO.s:23430  .debug_str:000000000001164d .LASF3155
C:\Users\CYMR90~1\AppData\Local\Temp\cca5ocgO.s:26405  .debug_str:000000000001d9dc .LASF3156
C:\Users\CYMR90~1\AppData\Local\Temp\cca5ocgO.s:22508  .debug_str:000000000000dd95 .LASF3157
C:\Users\CYMR90~1\AppData\Local\Temp\cca5ocgO.s:29361  .debug_str:000000000002943c .LASF3158
C:\Users\CYMR90~1\AppData\Local\Temp\cca5ocgO.s:20906  .debug_str:0000000000007544 .LASF3159
C:\Users\CYMR90~1\AppData\Local\Temp\cca5ocgO.s:29631  .debug_str:000000000002a461 .LASF3160
C:\Users\CYMR90~1\AppData\Local\Temp\cca5ocgO.s:28419  .debug_str:0000000000025830 .LASF3161
C:\Users\CYMR90~1\AppData\Local\Temp\cca5ocgO.s:19954  .debug_str:0000000000003886 .LASF3162
C:\Users\CYMR90~1\AppData\Local\Temp\cca5ocgO.s:23146  .debug_str:0000000000010425 .LASF3163
C:\Users\CYMR90~1\AppData\Local\Temp\cca5ocgO.s:29089  .debug_str:0000000000028342 .LASF3164
C:\Users\CYMR90~1\AppData\Local\Temp\cca5ocgO.s:23616  .debug_str:000000000001235b .LASF3165
C:\Users\CYMR90~1\AppData\Local\Temp\cca5ocgO.s:21714  .debug_str:000000000000a93e .LASF3166
C:\Users\CYMR90~1\AppData\Local\Temp\cca5ocgO.s:27415  .debug_str:000000000002182e .LASF3167
C:\Users\CYMR90~1\AppData\Local\Temp\cca5ocgO.s:21802  .debug_str:000000000000afa0 .LASF3168
C:\Users\CYMR90~1\AppData\Local\Temp\cca5ocgO.s:29927  .debug_str:000000000002b70f .LASF3169
C:\Users\CYMR90~1\AppData\Local\Temp\cca5ocgO.s:29659  .debug_str:000000000002a63b .LASF3170
C:\Users\CYMR90~1\AppData\Local\Temp\cca5ocgO.s:25245  .debug_str:0000000000018b38 .LASF3171
C:\Users\CYMR90~1\AppData\Local\Temp\cca5ocgO.s:29699  .debug_str:000000000002a882 .LASF3172
C:\Users\CYMR90~1\AppData\Local\Temp\cca5ocgO.s:27303  .debug_str:00000000000210c2 .LASF3173
C:\Users\CYMR90~1\AppData\Local\Temp\cca5ocgO.s:28653  .debug_str:00000000000266b4 .LASF3174
C:\Users\CYMR90~1\AppData\Local\Temp\cca5ocgO.s:22364  .debug_str:000000000000d540 .LASF3175
C:\Users\CYMR90~1\AppData\Local\Temp\cca5ocgO.s:28049  .debug_str:0000000000023dc0 .LASF3176
C:\Users\CYMR90~1\AppData\Local\Temp\cca5ocgO.s:24196  .debug_str:00000000000148f0 .LASF3177
C:\Users\CYMR90~1\AppData\Local\Temp\cca5ocgO.s:23032  .debug_str:000000000000fd8b .LASF3178
C:\Users\CYMR90~1\AppData\Local\Temp\cca5ocgO.s:26155  .debug_str:000000000001c837 .LASF3179
C:\Users\CYMR90~1\AppData\Local\Temp\cca5ocgO.s:28921  .debug_str:000000000002775b .LASF3180
C:\Users\CYMR90~1\AppData\Local\Temp\cca5ocgO.s:19974  .debug_str:00000000000039b6 .LASF3181
C:\Users\CYMR90~1\AppData\Local\Temp\cca5ocgO.s:26387  .debug_str:000000000001d882 .LASF3182
C:\Users\CYMR90~1\AppData\Local\Temp\cca5ocgO.s:29099  .debug_str:00000000000283e6 .LASF3183
C:\Users\CYMR90~1\AppData\Local\Temp\cca5ocgO.s:21222  .debug_str:0000000000008a78 .LASF3184
C:\Users\CYMR90~1\AppData\Local\Temp\cca5ocgO.s:29651  .debug_str:000000000002a5ab .LASF3185
C:\Users\CYMR90~1\AppData\Local\Temp\cca5ocgO.s:24388  .debug_str:00000000000154f4 .LASF3186
C:\Users\CYMR90~1\AppData\Local\Temp\cca5ocgO.s:21310  .debug_str:000000000000903a .LASF3187
C:\Users\CYMR90~1\AppData\Local\Temp\cca5ocgO.s:26295  .debug_str:000000000001d2db .LASF3188
C:\Users\CYMR90~1\AppData\Local\Temp\cca5ocgO.s:23762  .debug_str:0000000000012ce7 .LASF3189
C:\Users\CYMR90~1\AppData\Local\Temp\cca5ocgO.s:21780  .debug_str:000000000000ad66 .LASF3190
C:\Users\CYMR90~1\AppData\Local\Temp\cca5ocgO.s:26225  .debug_str:000000000001cd59 .LASF3191
C:\Users\CYMR90~1\AppData\Local\Temp\cca5ocgO.s:21282  .debug_str:0000000000008ea0 .LASF3192
C:\Users\CYMR90~1\AppData\Local\Temp\cca5ocgO.s:22094  .debug_str:000000000000c2ed .LASF3193
C:\Users\CYMR90~1\AppData\Local\Temp\cca5ocgO.s:29601  .debug_str:000000000002a27f .LASF3194
C:\Users\CYMR90~1\AppData\Local\Temp\cca5ocgO.s:25489  .debug_str:0000000000019cc7 .LASF3195
C:\Users\CYMR90~1\AppData\Local\Temp\cca5ocgO.s:25531  .debug_str:0000000000019f38 .LASF3196
C:\Users\CYMR90~1\AppData\Local\Temp\cca5ocgO.s:25537  .debug_str:0000000000019fad .LASF3197
C:\Users\CYMR90~1\AppData\Local\Temp\cca5ocgO.s:28763  .debug_str:0000000000026d5a .LASF3198
C:\Users\CYMR90~1\AppData\Local\Temp\cca5ocgO.s:23648  .debug_str:0000000000012536 .LASF3199
C:\Users\CYMR90~1\AppData\Local\Temp\cca5ocgO.s:29573  .debug_str:000000000002a0dd .LASF3200
C:\Users\CYMR90~1\AppData\Local\Temp\cca5ocgO.s:26999  .debug_str:000000000001fe65 .LASF3201
C:\Users\CYMR90~1\AppData\Local\Temp\cca5ocgO.s:28851  .debug_str:000000000002734e .LASF3202
C:\Users\CYMR90~1\AppData\Local\Temp\cca5ocgO.s:23456  .debug_str:000000000001188e .LASF3203
C:\Users\CYMR90~1\AppData\Local\Temp\cca5ocgO.s:23244  .debug_str:0000000000010ac4 .LASF3204
C:\Users\CYMR90~1\AppData\Local\Temp\cca5ocgO.s:26565  .debug_str:000000000001e3c6 .LASF3205
C:\Users\CYMR90~1\AppData\Local\Temp\cca5ocgO.s:23576  .debug_str:00000000000120c1 .LASF3206
C:\Users\CYMR90~1\AppData\Local\Temp\cca5ocgO.s:22978  .debug_str:000000000000fb08 .LASF3207
C:\Users\CYMR90~1\AppData\Local\Temp\cca5ocgO.s:23760  .debug_str:0000000000012cae .LASF3208
C:\Users\CYMR90~1\AppData\Local\Temp\cca5ocgO.s:27769  .debug_str:0000000000022d31 .LASF3209
C:\Users\CYMR90~1\AppData\Local\Temp\cca5ocgO.s:24572  .debug_str:0000000000016075 .LASF3210
C:\Users\CYMR90~1\AppData\Local\Temp\cca5ocgO.s:26137  .debug_str:000000000001c700 .LASF3211
C:\Users\CYMR90~1\AppData\Local\Temp\cca5ocgO.s:28937  .debug_str:0000000000027865 .LASF3212
C:\Users\CYMR90~1\AppData\Local\Temp\cca5ocgO.s:21010  .debug_str:0000000000007c11 .LASF3213
C:\Users\CYMR90~1\AppData\Local\Temp\cca5ocgO.s:20310  .debug_str:000000000000504e .LASF3214
C:\Users\CYMR90~1\AppData\Local\Temp\cca5ocgO.s:23710  .debug_str:0000000000012971 .LASF3215
C:\Users\CYMR90~1\AppData\Local\Temp\cca5ocgO.s:19326  .debug_str:0000000000001197 .LASF3216
C:\Users\CYMR90~1\AppData\Local\Temp\cca5ocgO.s:19420  .debug_str:00000000000016d9 .LASF3217
C:\Users\CYMR90~1\AppData\Local\Temp\cca5ocgO.s:29049  .debug_str:0000000000028023 .LASF3218
C:\Users\CYMR90~1\AppData\Local\Temp\cca5ocgO.s:25807  .debug_str:000000000001b279 .LASF3219
C:\Users\CYMR90~1\AppData\Local\Temp\cca5ocgO.s:22280  .debug_str:000000000000cf75 .LASF3220
C:\Users\CYMR90~1\AppData\Local\Temp\cca5ocgO.s:24160  .debug_str:0000000000014681 .LASF3221
C:\Users\CYMR90~1\AppData\Local\Temp\cca5ocgO.s:19472  .debug_str:0000000000001abe .LASF3222
C:\Users\CYMR90~1\AppData\Local\Temp\cca5ocgO.s:22976  .debug_str:000000000000faef .LASF3223
C:\Users\CYMR90~1\AppData\Local\Temp\cca5ocgO.s:26617  .debug_str:000000000001e6ea .LASF3224
C:\Users\CYMR90~1\AppData\Local\Temp\cca5ocgO.s:22088  .debug_str:000000000000c29d .LASF3225
C:\Users\CYMR90~1\AppData\Local\Temp\cca5ocgO.s:21654  .debug_str:000000000000a5a0 .LASF3226
C:\Users\CYMR90~1\AppData\Local\Temp\cca5ocgO.s:24632  .debug_str:0000000000016437 .LASF3227
C:\Users\CYMR90~1\AppData\Local\Temp\cca5ocgO.s:25587  .debug_str:000000000001a27d .LASF3228
C:\Users\CYMR90~1\AppData\Local\Temp\cca5ocgO.s:26865  .debug_str:000000000001f654 .LASF3229
C:\Users\CYMR90~1\AppData\Local\Temp\cca5ocgO.s:23062  .debug_str:000000000000ff8b .LASF3230
C:\Users\CYMR90~1\AppData\Local\Temp\cca5ocgO.s:30173  .debug_str:000000000002c812 .LASF3231
C:\Users\CYMR90~1\AppData\Local\Temp\cca5ocgO.s:24961  .debug_str:0000000000017a1d .LASF3232
C:\Users\CYMR90~1\AppData\Local\Temp\cca5ocgO.s:27573  .debug_str:00000000000221b2 .LASF3233
C:\Users\CYMR90~1\AppData\Local\Temp\cca5ocgO.s:21964  .debug_str:000000000000ba45 .LASF3234
C:\Users\CYMR90~1\AppData\Local\Temp\cca5ocgO.s:27847  .debug_str:0000000000023187 .LASF3235
C:\Users\CYMR90~1\AppData\Local\Temp\cca5ocgO.s:24036  .debug_str:0000000000013e92 .LASF3236
C:\Users\CYMR90~1\AppData\Local\Temp\cca5ocgO.s:26759  .debug_str:000000000001ef7e .LASF3237
C:\Users\CYMR90~1\AppData\Local\Temp\cca5ocgO.s:22810  .debug_str:000000000000f052 .LASF3238
C:\Users\CYMR90~1\AppData\Local\Temp\cca5ocgO.s:29567  .debug_str:000000000002a083 .LASF3239
C:\Users\CYMR90~1\AppData\Local\Temp\cca5ocgO.s:23144  .debug_str:000000000001040e .LASF3240
C:\Users\CYMR90~1\AppData\Local\Temp\cca5ocgO.s:29177  .debug_str:000000000002895b .LASF3241
C:\Users\CYMR90~1\AppData\Local\Temp\cca5ocgO.s:20800  .debug_str:0000000000006e49 .LASF3242
C:\Users\CYMR90~1\AppData\Local\Temp\cca5ocgO.s:23458  .debug_str:00000000000118c5 .LASF3243
C:\Users\CYMR90~1\AppData\Local\Temp\cca5ocgO.s:21352  .debug_str:000000000000929b .LASF3244
C:\Users\CYMR90~1\AppData\Local\Temp\cca5ocgO.s:20936  .debug_str:0000000000007732 .LASF3245
C:\Users\CYMR90~1\AppData\Local\Temp\cca5ocgO.s:30281  .debug_str:000000000002cf3e .LASF3246
C:\Users\CYMR90~1\AppData\Local\Temp\cca5ocgO.s:20112  .debug_str:000000000000431c .LASF3247
C:\Users\CYMR90~1\AppData\Local\Temp\cca5ocgO.s:29827  .debug_str:000000000002b03b .LASF3248
C:\Users\CYMR90~1\AppData\Local\Temp\cca5ocgO.s:22432  .debug_str:000000000000d94a .LASF3249
C:\Users\CYMR90~1\AppData\Local\Temp\cca5ocgO.s:25133  .debug_str:000000000001844d .LASF3250
C:\Users\CYMR90~1\AppData\Local\Temp\cca5ocgO.s:24570  .debug_str:000000000001605d .LASF3251
C:\Users\CYMR90~1\AppData\Local\Temp\cca5ocgO.s:27859  .debug_str:0000000000023217 .LASF3252
C:\Users\CYMR90~1\AppData\Local\Temp\cca5ocgO.s:19338  .debug_str:000000000000123d .LASF3253
C:\Users\CYMR90~1\AppData\Local\Temp\cca5ocgO.s:20266  .debug_str:0000000000004dd8 .LASF3254
C:\Users\CYMR90~1\AppData\Local\Temp\cca5ocgO.s:27721  .debug_str:00000000000229f9 .LASF3255
C:\Users\CYMR90~1\AppData\Local\Temp\cca5ocgO.s:20514  .debug_str:0000000000005c96 .LASF3256
C:\Users\CYMR90~1\AppData\Local\Temp\cca5ocgO.s:28035  .debug_str:0000000000023ce1 .LASF3257
C:\Users\CYMR90~1\AppData\Local\Temp\cca5ocgO.s:28447  .debug_str:0000000000025a09 .LASF3258
C:\Users\CYMR90~1\AppData\Local\Temp\cca5ocgO.s:27191  .debug_str:0000000000020a55 .LASF3259
C:\Users\CYMR90~1\AppData\Local\Temp\cca5ocgO.s:24474  .debug_str:0000000000015a01 .LASF3260
C:\Users\CYMR90~1\AppData\Local\Temp\cca5ocgO.s:24218  .debug_str:0000000000014a31 .LASF3261
C:\Users\CYMR90~1\AppData\Local\Temp\cca5ocgO.s:24951  .debug_str:0000000000017973 .LASF3262
C:\Users\CYMR90~1\AppData\Local\Temp\cca5ocgO.s:27087  .debug_str:0000000000020383 .LASF3263
C:\Users\CYMR90~1\AppData\Local\Temp\cca5ocgO.s:20900  .debug_str:0000000000007502 .LASF3264
C:\Users\CYMR90~1\AppData\Local\Temp\cca5ocgO.s:19098  .debug_str:000000000000035e .LASF3265
C:\Users\CYMR90~1\AppData\Local\Temp\cca5ocgO.s:29197  .debug_str:0000000000028a97 .LASF3266
C:\Users\CYMR90~1\AppData\Local\Temp\cca5ocgO.s:19232  .debug_str:0000000000000bba .LASF3267
C:\Users\CYMR90~1\AppData\Local\Temp\cca5ocgO.s:27553  .debug_str:000000000002208c .LASF3268
C:\Users\CYMR90~1\AppData\Local\Temp\cca5ocgO.s:24372  .debug_str:0000000000015433 .LASF3269
C:\Users\CYMR90~1\AppData\Local\Temp\cca5ocgO.s:24020  .debug_str:0000000000013d93 .LASF3270
C:\Users\CYMR90~1\AppData\Local\Temp\cca5ocgO.s:22304  .debug_str:000000000000d103 .LASF3271
C:\Users\CYMR90~1\AppData\Local\Temp\cca5ocgO.s:27849  .debug_str:00000000000231ad .LASF3272
C:\Users\CYMR90~1\AppData\Local\Temp\cca5ocgO.s:25851  .debug_str:000000000001b5da .LASF3273
C:\Users\CYMR90~1\AppData\Local\Temp\cca5ocgO.s:24630  .debug_str:000000000001641a .LASF3274
C:\Users\CYMR90~1\AppData\Local\Temp\cca5ocgO.s:28289  .debug_str:0000000000024e88 .LASF3275
C:\Users\CYMR90~1\AppData\Local\Temp\cca5ocgO.s:22946  .debug_str:000000000000f936 .LASF3276
C:\Users\CYMR90~1\AppData\Local\Temp\cca5ocgO.s:27767  .debug_str:0000000000022d15 .LASF3277
C:\Users\CYMR90~1\AppData\Local\Temp\cca5ocgO.s:23858  .debug_str:0000000000013379 .LASF3278
C:\Users\CYMR90~1\AppData\Local\Temp\cca5ocgO.s:26339  .debug_str:000000000001d568 .LASF3279
C:\Users\CYMR90~1\AppData\Local\Temp\cca5ocgO.s:20718  .debug_str:0000000000006914 .LASF3280
C:\Users\CYMR90~1\AppData\Local\Temp\cca5ocgO.s:30213  .debug_str:000000000002ca9e .LASF3281
C:\Users\CYMR90~1\AppData\Local\Temp\cca5ocgO.s:20922  .debug_str:000000000000764f .LASF3282
C:\Users\CYMR90~1\AppData\Local\Temp\cca5ocgO.s:20038  .debug_str:0000000000003dea .LASF3283
C:\Users\CYMR90~1\AppData\Local\Temp\cca5ocgO.s:29903  .debug_str:000000000002b580 .LASF3284
C:\Users\CYMR90~1\AppData\Local\Temp\cca5ocgO.s:21808  .debug_str:000000000000b001 .LASF3285
C:\Users\CYMR90~1\AppData\Local\Temp\cca5ocgO.s:24014  .debug_str:0000000000013d45 .LASF3286
C:\Users\CYMR90~1\AppData\Local\Temp\cca5ocgO.s:20302  .debug_str:0000000000004fee .LASF3287
C:\Users\CYMR90~1\AppData\Local\Temp\cca5ocgO.s:28779  .debug_str:0000000000026e57 .LASF3288
C:\Users\CYMR90~1\AppData\Local\Temp\cca5ocgO.s:20492  .debug_str:0000000000005b5a .LASF3289
C:\Users\CYMR90~1\AppData\Local\Temp\cca5ocgO.s:21906  .debug_str:000000000000b654 .LASF3290
C:\Users\CYMR90~1\AppData\Local\Temp\cca5ocgO.s:20430  .debug_str:000000000000578e .LASF3291
C:\Users\CYMR90~1\AppData\Local\Temp\cca5ocgO.s:23568  .debug_str:0000000000012041 .LASF3292
C:\Users\CYMR90~1\AppData\Local\Temp\cca5ocgO.s:28957  .debug_str:0000000000027a11 .LASF3293
C:\Users\CYMR90~1\AppData\Local\Temp\cca5ocgO.s:25385  .debug_str:000000000001954d .LASF3294
C:\Users\CYMR90~1\AppData\Local\Temp\cca5ocgO.s:24158  .debug_str:0000000000014646 .LASF3295
C:\Users\CYMR90~1\AppData\Local\Temp\cca5ocgO.s:30239  .debug_str:000000000002ccb3 .LASF3296
C:\Users\CYMR90~1\AppData\Local\Temp\cca5ocgO.s:26835  .debug_str:000000000001f456 .LASF3297
C:\Users\CYMR90~1\AppData\Local\Temp\cca5ocgO.s:23498  .debug_str:0000000000011bae .LASF3298
C:\Users\CYMR90~1\AppData\Local\Temp\cca5ocgO.s:20618  .debug_str:00000000000062c4 .LASF3299
C:\Users\CYMR90~1\AppData\Local\Temp\cca5ocgO.s:27903  .debug_str:00000000000234dd .LASF3300
C:\Users\CYMR90~1\AppData\Local\Temp\cca5ocgO.s:24524  .debug_str:0000000000015d0e .LASF3301
C:\Users\CYMR90~1\AppData\Local\Temp\cca5ocgO.s:21140  .debug_str:0000000000008598 .LASF3302
C:\Users\CYMR90~1\AppData\Local\Temp\cca5ocgO.s:25077  .debug_str:00000000000180bb .LASF3303
C:\Users\CYMR90~1\AppData\Local\Temp\cca5ocgO.s:29963  .debug_str:000000000002b998 .LASF3304
C:\Users\CYMR90~1\AppData\Local\Temp\cca5ocgO.s:28515  .debug_str:0000000000025df9 .LASF3305
C:\Users\CYMR90~1\AppData\Local\Temp\cca5ocgO.s:19440  .debug_str:00000000000018d2 .LASF3306
C:\Users\CYMR90~1\AppData\Local\Temp\cca5ocgO.s:30105  .debug_str:000000000002c3d0 .LASF3307
C:\Users\CYMR90~1\AppData\Local\Temp\cca5ocgO.s:26625  .debug_str:000000000001e736 .LASF3308
C:\Users\CYMR90~1\AppData\Local\Temp\cca5ocgO.s:26843  .debug_str:000000000001f4d4 .LASF3309
C:\Users\CYMR90~1\AppData\Local\Temp\cca5ocgO.s:27947  .debug_str:00000000000237e5 .LASF3310
C:\Users\CYMR90~1\AppData\Local\Temp\cca5ocgO.s:19436  .debug_str:000000000000188b .LASF3311
C:\Users\CYMR90~1\AppData\Local\Temp\cca5ocgO.s:25189  .debug_str:0000000000018784 .LASF3312
C:\Users\CYMR90~1\AppData\Local\Temp\cca5ocgO.s:30195  .debug_str:000000000002c981 .LASF3313
C:\Users\CYMR90~1\AppData\Local\Temp\cca5ocgO.s:21880  .debug_str:000000000000b439 .LASF3314
C:\Users\CYMR90~1\AppData\Local\Temp\cca5ocgO.s:25057  .debug_str:0000000000017fc0 .LASF3315
C:\Users\CYMR90~1\AppData\Local\Temp\cca5ocgO.s:19370  .debug_str:0000000000001416 .LASF3316
C:\Users\CYMR90~1\AppData\Local\Temp\cca5ocgO.s:26115  .debug_str:000000000001c5bd .LASF3317
C:\Users\CYMR90~1\AppData\Local\Temp\cca5ocgO.s:22098  .debug_str:000000000000c32f .LASF3318
C:\Users\CYMR90~1\AppData\Local\Temp\cca5ocgO.s:22368  .debug_str:000000000000d58b .LASF3319
C:\Users\CYMR90~1\AppData\Local\Temp\cca5ocgO.s:29959  .debug_str:000000000002b94d .LASF3320
C:\Users\CYMR90~1\AppData\Local\Temp\cca5ocgO.s:27039  .debug_str:0000000000020109 .LASF3321
C:\Users\CYMR90~1\AppData\Local\Temp\cca5ocgO.s:22842  .debug_str:000000000000f251 .LASF3322
C:\Users\CYMR90~1\AppData\Local\Temp\cca5ocgO.s:28445  .debug_str:00000000000259e1 .LASF3323
C:\Users\CYMR90~1\AppData\Local\Temp\cca5ocgO.s:27405  .debug_str:000000000002178c .LASF3324
C:\Users\CYMR90~1\AppData\Local\Temp\cca5ocgO.s:23058  .debug_str:000000000000ff4c .LASF3325
C:\Users\CYMR90~1\AppData\Local\Temp\cca5ocgO.s:27037  .debug_str:00000000000200e2 .LASF3326
C:\Users\CYMR90~1\AppData\Local\Temp\cca5ocgO.s:24168  .debug_str:0000000000014735 .LASF3327
C:\Users\CYMR90~1\AppData\Local\Temp\cca5ocgO.s:29839  .debug_str:000000000002b139 .LASF3328
C:\Users\CYMR90~1\AppData\Local\Temp\cca5ocgO.s:19112  .debug_str:0000000000000412 .LASF3329
C:\Users\CYMR90~1\AppData\Local\Temp\cca5ocgO.s:27067  .debug_str:0000000000020285 .LASF3330
C:\Users\CYMR90~1\AppData\Local\Temp\cca5ocgO.s:28573  .debug_str:000000000002619b .LASF3331
C:\Users\CYMR90~1\AppData\Local\Temp\cca5ocgO.s:30241  .debug_str:000000000002ccda .LASF3332
C:\Users\CYMR90~1\AppData\Local\Temp\cca5ocgO.s:21524  .debug_str:0000000000009d62 .LASF3333
C:\Users\CYMR90~1\AppData\Local\Temp\cca5ocgO.s:25423  .debug_str:00000000000197bc .LASF3334
C:\Users\CYMR90~1\AppData\Local\Temp\cca5ocgO.s:24066  .debug_str:0000000000014062 .LASF3335
C:\Users\CYMR90~1\AppData\Local\Temp\cca5ocgO.s:26757  .debug_str:000000000001ef60 .LASF3336
C:\Users\CYMR90~1\AppData\Local\Temp\cca5ocgO.s:25243  .debug_str:0000000000018b19 .LASF3337
C:\Users\CYMR90~1\AppData\Local\Temp\cca5ocgO.s:29763  .debug_str:000000000002ac77 .LASF3338
C:\Users\CYMR90~1\AppData\Local\Temp\cca5ocgO.s:25999  .debug_str:000000000001bec7 .LASF3339
C:\Users\CYMR90~1\AppData\Local\Temp\cca5ocgO.s:20026  .debug_str:0000000000003d2b .LASF3340
C:\Users\CYMR90~1\AppData\Local\Temp\cca5ocgO.s:21792  .debug_str:000000000000ae5c .LASF3341
C:\Users\CYMR90~1\AppData\Local\Temp\cca5ocgO.s:22838  .debug_str:000000000000f203 .LASF3342
C:\Users\CYMR90~1\AppData\Local\Temp\cca5ocgO.s:27483  .debug_str:0000000000021c4c .LASF3343
C:\Users\CYMR90~1\AppData\Local\Temp\cca5ocgO.s:24738  .debug_str:0000000000016aab .LASF3344
C:\Users\CYMR90~1\AppData\Local\Temp\cca5ocgO.s:26527  .debug_str:000000000001e188 .LASF3345
C:\Users\CYMR90~1\AppData\Local\Temp\cca5ocgO.s:25757  .debug_str:000000000001aee1 .LASF3346
C:\Users\CYMR90~1\AppData\Local\Temp\cca5ocgO.s:27507  .debug_str:0000000000021de5 .LASF3347
C:\Users\CYMR90~1\AppData\Local\Temp\cca5ocgO.s:21758  .debug_str:000000000000ac15 .LASF3348
C:\Users\CYMR90~1\AppData\Local\Temp\cca5ocgO.s:24134  .debug_str:00000000000144bb .LASF3349
C:\Users\CYMR90~1\AppData\Local\Temp\cca5ocgO.s:20564  .debug_str:0000000000005f75 .LASF3350
C:\Users\CYMR90~1\AppData\Local\Temp\cca5ocgO.s:27247  .debug_str:0000000000020db3 .LASF3351
C:\Users\CYMR90~1\AppData\Local\Temp\cca5ocgO.s:23748  .debug_str:0000000000012be8 .LASF3352
C:\Users\CYMR90~1\AppData\Local\Temp\cca5ocgO.s:25397  .debug_str:0000000000019605 .LASF3353
C:\Users\CYMR90~1\AppData\Local\Temp\cca5ocgO.s:25693  .debug_str:000000000001aafe .LASF3354
C:\Users\CYMR90~1\AppData\Local\Temp\cca5ocgO.s:20322  .debug_str:0000000000005110 .LASF3355
C:\Users\CYMR90~1\AppData\Local\Temp\cca5ocgO.s:27109  .debug_str:00000000000204db .LASF3356
C:\Users\CYMR90~1\AppData\Local\Temp\cca5ocgO.s:23824  .debug_str:0000000000013113 .LASF3357
C:\Users\CYMR90~1\AppData\Local\Temp\cca5ocgO.s:21632  .debug_str:000000000000a447 .LASF3358
C:\Users\CYMR90~1\AppData\Local\Temp\cca5ocgO.s:26157  .debug_str:000000000001c85c .LASF3359
C:\Users\CYMR90~1\AppData\Local\Temp\cca5ocgO.s:20836  .debug_str:000000000000706f .LASF3360
C:\Users\CYMR90~1\AppData\Local\Temp\cca5ocgO.s:28757  .debug_str:0000000000026cf6 .LASF3361
C:\Users\CYMR90~1\AppData\Local\Temp\cca5ocgO.s:20232  .debug_str:0000000000004b8f .LASF3362
C:\Users\CYMR90~1\AppData\Local\Temp\cca5ocgO.s:20562  .debug_str:0000000000005f64 .LASF3363
C:\Users\CYMR90~1\AppData\Local\Temp\cca5ocgO.s:19556  .debug_str:0000000000001fc2 .LASF3364
C:\Users\CYMR90~1\AppData\Local\Temp\cca5ocgO.s:25137  .debug_str:0000000000018484 .LASF3365
C:\Users\CYMR90~1\AppData\Local\Temp\cca5ocgO.s:24845  .debug_str:00000000000172db .LASF3366
C:\Users\CYMR90~1\AppData\Local\Temp\cca5ocgO.s:25877  .debug_str:000000000001b74c .LASF3367
C:\Users\CYMR90~1\AppData\Local\Temp\cca5ocgO.s:22520  .debug_str:000000000000de80 .LASF3368
C:\Users\CYMR90~1\AppData\Local\Temp\cca5ocgO.s:27241  .debug_str:0000000000020d5d .LASF3369
C:\Users\CYMR90~1\AppData\Local\Temp\cca5ocgO.s:28099  .debug_str:00000000000241c7 .LASF3370
C:\Users\CYMR90~1\AppData\Local\Temp\cca5ocgO.s:28969  .debug_str:0000000000027ac4 .LASF3371
C:\Users\CYMR90~1\AppData\Local\Temp\cca5ocgO.s:27359  .debug_str:00000000000214c5 .LASF3372
C:\Users\CYMR90~1\AppData\Local\Temp\cca5ocgO.s:28597  .debug_str:00000000000262f9 .LASF3373
C:\Users\CYMR90~1\AppData\Local\Temp\cca5ocgO.s:20856  .debug_str:00000000000071f2 .LASF3374
C:\Users\CYMR90~1\AppData\Local\Temp\cca5ocgO.s:25885  .debug_str:000000000001b7d9 .LASF3375
C:\Users\CYMR90~1\AppData\Local\Temp\cca5ocgO.s:19652  .debug_str:00000000000024f6 .LASF3376
C:\Users\CYMR90~1\AppData\Local\Temp\cca5ocgO.s:28363  .debug_str:00000000000253e2 .LASF3377
C:\Users\CYMR90~1\AppData\Local\Temp\cca5ocgO.s:22106  .debug_str:000000000000c3c7 .LASF3378
C:\Users\CYMR90~1\AppData\Local\Temp\cca5ocgO.s:24604  .debug_str:000000000001628d .LASF3379
C:\Users\CYMR90~1\AppData\Local\Temp\cca5ocgO.s:28797  .debug_str:0000000000026f4f .LASF3380
C:\Users\CYMR90~1\AppData\Local\Temp\cca5ocgO.s:21746  .debug_str:000000000000ab45 .LASF3381
C:\Users\CYMR90~1\AppData\Local\Temp\cca5ocgO.s:22598  .debug_str:000000000000e345 .LASF3382
C:\Users\CYMR90~1\AppData\Local\Temp\cca5ocgO.s:20236  .debug_str:0000000000004bde .LASF3383
C:\Users\CYMR90~1\AppData\Local\Temp\cca5ocgO.s:19226  .debug_str:0000000000000b40 .LASF3384
C:\Users\CYMR90~1\AppData\Local\Temp\cca5ocgO.s:27517  .debug_str:0000000000021e89 .LASF3385
C:\Users\CYMR90~1\AppData\Local\Temp\cca5ocgO.s:21764  .debug_str:000000000000ac6d .LASF3386
C:\Users\CYMR90~1\AppData\Local\Temp\cca5ocgO.s:19946  .debug_str:00000000000037e6 .LASF3387
C:\Users\CYMR90~1\AppData\Local\Temp\cca5ocgO.s:19398  .debug_str:0000000000001587 .LASF3388
C:\Users\CYMR90~1\AppData\Local\Temp\cca5ocgO.s:25825  .debug_str:000000000001b3b1 .LASF3389
C:\Users\CYMR90~1\AppData\Local\Temp\cca5ocgO.s:24626  .debug_str:00000000000163da .LASF3390
C:\Users\CYMR90~1\AppData\Local\Temp\cca5ocgO.s:23812  .debug_str:0000000000013047 .LASF3391
C:\Users\CYMR90~1\AppData\Local\Temp\cca5ocgO.s:25495  .debug_str:0000000000019d2b .LASF3392
C:\Users\CYMR90~1\AppData\Local\Temp\cca5ocgO.s:29725  .debug_str:000000000002aa32 .LASF3393
C:\Users\CYMR90~1\AppData\Local\Temp\cca5ocgO.s:24692  .debug_str:000000000001677c .LASF3394
C:\Users\CYMR90~1\AppData\Local\Temp\cca5ocgO.s:23726  .debug_str:0000000000012ab2 .LASF3395
C:\Users\CYMR90~1\AppData\Local\Temp\cca5ocgO.s:25783  .debug_str:000000000001b0cd .LASF3396
C:\Users\CYMR90~1\AppData\Local\Temp\cca5ocgO.s:25629  .debug_str:000000000001a673 .LASF3397
C:\Users\CYMR90~1\AppData\Local\Temp\cca5ocgO.s:21074  .debug_str:0000000000008150 .LASF3398
C:\Users\CYMR90~1\AppData\Local\Temp\cca5ocgO.s:19770  .debug_str:0000000000002ca0 .LASF3399
C:\Users\CYMR90~1\AppData\Local\Temp\cca5ocgO.s:27441  .debug_str:0000000000021996 .LASF3400
C:\Users\CYMR90~1\AppData\Local\Temp\cca5ocgO.s:28193  .debug_str:00000000000247f2 .LASF3401
C:\Users\CYMR90~1\AppData\Local\Temp\cca5ocgO.s:27079  .debug_str:0000000000020317 .LASF3402
C:\Users\CYMR90~1\AppData\Local\Temp\cca5ocgO.s:27599  .debug_str:0000000000022326 .LASF3403
C:\Users\CYMR90~1\AppData\Local\Temp\cca5ocgO.s:25157  .debug_str:00000000000185ee .LASF3404
C:\Users\CYMR90~1\AppData\Local\Temp\cca5ocgO.s:20776  .debug_str:0000000000006cb1 .LASF3405
C:\Users\CYMR90~1\AppData\Local\Temp\cca5ocgO.s:29887  .debug_str:000000000002b4ba .LASF3406
C:\Users\CYMR90~1\AppData\Local\Temp\cca5ocgO.s:29713  .debug_str:000000000002a959 .LASF3407
C:\Users\CYMR90~1\AppData\Local\Temp\cca5ocgO.s:19414  .debug_str:0000000000001697 .LASF3408
C:\Users\CYMR90~1\AppData\Local\Temp\cca5ocgO.s:19208  .debug_str:00000000000009be .LASF3409
C:\Users\CYMR90~1\AppData\Local\Temp\cca5ocgO.s:28723  .debug_str:0000000000026aae .LASF3410
C:\Users\CYMR90~1\AppData\Local\Temp\cca5ocgO.s:29953  .debug_str:000000000002b8ff .LASF3411
C:\Users\CYMR90~1\AppData\Local\Temp\cca5ocgO.s:30183  .debug_str:000000000002c8af .LASF3412
C:\Users\CYMR90~1\AppData\Local\Temp\cca5ocgO.s:25321  .debug_str:0000000000019174 .LASF3413
C:\Users\CYMR90~1\AppData\Local\Temp\cca5ocgO.s:29823  .debug_str:000000000002aff8 .LASF3414
C:\Users\CYMR90~1\AppData\Local\Temp\cca5ocgO.s:25361  .debug_str:00000000000193c7 .LASF3415
C:\Users\CYMR90~1\AppData\Local\Temp\cca5ocgO.s:27585  .debug_str:000000000002227a .LASF3416
C:\Users\CYMR90~1\AppData\Local\Temp\cca5ocgO.s:24068  .debug_str:0000000000014081 .LASF3417
C:\Users\CYMR90~1\AppData\Local\Temp\cca5ocgO.s:22204  .debug_str:000000000000ca4a .LASF3418
C:\Users\CYMR90~1\AppData\Local\Temp\cca5ocgO.s:19832  .debug_str:0000000000003066 .LASF3419
C:\Users\CYMR90~1\AppData\Local\Temp\cca5ocgO.s:25659  .debug_str:000000000001a8d4 .LASF3420
C:\Users\CYMR90~1\AppData\Local\Temp\cca5ocgO.s:26869  .debug_str:000000000001f687 .LASF3421
C:\Users\CYMR90~1\AppData\Local\Temp\cca5ocgO.s:29521  .debug_str:0000000000029dee .LASF3422
C:\Users\CYMR90~1\AppData\Local\Temp\cca5ocgO.s:28711  .debug_str:0000000000026a1b .LASF3423
C:\Users\CYMR90~1\AppData\Local\Temp\cca5ocgO.s:27645  .debug_str:0000000000022597 .LASF3424
C:\Users\CYMR90~1\AppData\Local\Temp\cca5ocgO.s:28307  .debug_str:0000000000024f66 .LASF3425
C:\Users\CYMR90~1\AppData\Local\Temp\cca5ocgO.s:26475  .debug_str:000000000001de55 .LASF3426
C:\Users\CYMR90~1\AppData\Local\Temp\cca5ocgO.s:26535  .debug_str:000000000001e21b .LASF3427
C:\Users\CYMR90~1\AppData\Local\Temp\cca5ocgO.s:25575  .debug_str:000000000001a1ca .LASF3428
C:\Users\CYMR90~1\AppData\Local\Temp\cca5ocgO.s:19106  .debug_str:00000000000003c5 .LASF3429
C:\Users\CYMR90~1\AppData\Local\Temp\cca5ocgO.s:24939  .debug_str:0000000000017880 .LASF3430
C:\Users\CYMR90~1\AppData\Local\Temp\cca5ocgO.s:28487  .debug_str:0000000000025c5d .LASF3431
C:\Users\CYMR90~1\AppData\Local\Temp\cca5ocgO.s:20352  .debug_str:00000000000052e0 .LASF3432
C:\Users\CYMR90~1\AppData\Local\Temp\cca5ocgO.s:19452  .debug_str:00000000000019a7 .LASF3433
C:\Users\CYMR90~1\AppData\Local\Temp\cca5ocgO.s:24482  .debug_str:0000000000015a68 .LASF3434
C:\Users\CYMR90~1\AppData\Local\Temp\cca5ocgO.s:22918  .debug_str:000000000000f6df .LASF3435
C:\Users\CYMR90~1\AppData\Local\Temp\cca5ocgO.s:21438  .debug_str:00000000000097bd .LASF3436
C:\Users\CYMR90~1\AppData\Local\Temp\cca5ocgO.s:26551  .debug_str:000000000001e306 .LASF3437
C:\Users\CYMR90~1\AppData\Local\Temp\cca5ocgO.s:19548  .debug_str:0000000000001f43 .LASF3438
C:\Users\CYMR90~1\AppData\Local\Temp\cca5ocgO.s:26851  .debug_str:000000000001f568 .LASF3439
C:\Users\CYMR90~1\AppData\Local\Temp\cca5ocgO.s:21416  .debug_str:0000000000009692 .LASF3440
C:\Users\CYMR90~1\AppData\Local\Temp\cca5ocgO.s:25065  .debug_str:0000000000018042 .LASF3441
C:\Users\CYMR90~1\AppData\Local\Temp\cca5ocgO.s:28585  .debug_str:0000000000026241 .LASF3442
C:\Users\CYMR90~1\AppData\Local\Temp\cca5ocgO.s:22558  .debug_str:000000000000e0b8 .LASF3443
C:\Users\CYMR90~1\AppData\Local\Temp\cca5ocgO.s:26609  .debug_str:000000000001e68f .LASF3444
C:\Users\CYMR90~1\AppData\Local\Temp\cca5ocgO.s:30085  .debug_str:000000000002c20b .LASF3445
C:\Users\CYMR90~1\AppData\Local\Temp\cca5ocgO.s:22868  .debug_str:000000000000f3fd .LASF3446
C:\Users\CYMR90~1\AppData\Local\Temp\cca5ocgO.s:26891  .debug_str:000000000001f7da .LASF3447
C:\Users\CYMR90~1\AppData\Local\Temp\cca5ocgO.s:20224  .debug_str:0000000000004b09 .LASF3448
C:\Users\CYMR90~1\AppData\Local\Temp\cca5ocgO.s:26787  .debug_str:000000000001f17f .LASF3449
C:\Users\CYMR90~1\AppData\Local\Temp\cca5ocgO.s:22568  .debug_str:000000000000e158 .LASF3450
C:\Users\CYMR90~1\AppData\Local\Temp\cca5ocgO.s:29841  .debug_str:000000000002b160 .LASF3451
C:\Users\CYMR90~1\AppData\Local\Temp\cca5ocgO.s:27431  .debug_str:000000000002191d .LASF3452
C:\Users\CYMR90~1\AppData\Local\Temp\cca5ocgO.s:20722  .debug_str:0000000000006947 .LASF3453
C:\Users\CYMR90~1\AppData\Local\Temp\cca5ocgO.s:26349  .debug_str:000000000001d615 .LASF3454
C:\Users\CYMR90~1\AppData\Local\Temp\cca5ocgO.s:24879  .debug_str:00000000000174a9 .LASF3455
C:\Users\CYMR90~1\AppData\Local\Temp\cca5ocgO.s:28325  .debug_str:00000000000250ee .LASF3456
C:\Users\CYMR90~1\AppData\Local\Temp\cca5ocgO.s:26497  .debug_str:000000000001dfef .LASF3457
C:\Users\CYMR90~1\AppData\Local\Temp\cca5ocgO.s:27407  .debug_str:00000000000217cb .LASF3458
C:\Users\CYMR90~1\AppData\Local\Temp\cca5ocgO.s:23132  .debug_str:0000000000010364 .LASF3459
C:\Users\CYMR90~1\AppData\Local\Temp\cca5ocgO.s:24268  .debug_str:0000000000014d42 .LASF3460
C:\Users\CYMR90~1\AppData\Local\Temp\cca5ocgO.s:30205  .debug_str:000000000002ca40 .LASF3461
C:\Users\CYMR90~1\AppData\Local\Temp\cca5ocgO.s:22292  .debug_str:000000000000d05c .LASF3462
C:\Users\CYMR90~1\AppData\Local\Temp\cca5ocgO.s:25117  .debug_str:000000000001836e .LASF3463
C:\Users\CYMR90~1\AppData\Local\Temp\cca5ocgO.s:21442  .debug_str:00000000000097ef .LASF3464
C:\Users\CYMR90~1\AppData\Local\Temp\cca5ocgO.s:28583  .debug_str:0000000000026224 .LASF3465
C:\Users\CYMR90~1\AppData\Local\Temp\cca5ocgO.s:29655  .debug_str:000000000002a5fb .LASF3466
C:\Users\CYMR90~1\AppData\Local\Temp\cca5ocgO.s:21986  .debug_str:000000000000bb93 .LASF3467
C:\Users\CYMR90~1\AppData\Local\Temp\cca5ocgO.s:29073  .debug_str:000000000002824a .LASF3468
C:\Users\CYMR90~1\AppData\Local\Temp\cca5ocgO.s:26005  .debug_str:000000000001bf3f .LASF3469
C:\Users\CYMR90~1\AppData\Local\Temp\cca5ocgO.s:29531  .debug_str:0000000000029e78 .LASF3470
C:\Users\CYMR90~1\AppData\Local\Temp\cca5ocgO.s:19622  .debug_str:000000000000235b .LASF3471
C:\Users\CYMR90~1\AppData\Local\Temp\cca5ocgO.s:28641  .debug_str:00000000000265fe .LASF3472
C:\Users\CYMR90~1\AppData\Local\Temp\cca5ocgO.s:25451  .debug_str:0000000000019a67 .LASF3473
C:\Users\CYMR90~1\AppData\Local\Temp\cca5ocgO.s:25379  .debug_str:00000000000194fb .LASF3474
C:\Users\CYMR90~1\AppData\Local\Temp\cca5ocgO.s:25787  .debug_str:000000000001b10d .LASF3475
C:\Users\CYMR90~1\AppData\Local\Temp\cca5ocgO.s:19630  .debug_str:00000000000023c5 .LASF3476
C:\Users\CYMR90~1\AppData\Local\Temp\cca5ocgO.s:28993  .debug_str:0000000000027c63 .LASF3477
C:\Users\CYMR90~1\AppData\Local\Temp\cca5ocgO.s:26435  .debug_str:000000000001db98 .LASF3478
C:\Users\CYMR90~1\AppData\Local\Temp\cca5ocgO.s:25209  .debug_str:00000000000188ff .LASF3479
C:\Users\CYMR90~1\AppData\Local\Temp\cca5ocgO.s:27647  .debug_str:00000000000225b3 .LASF3480
C:\Users\CYMR90~1\AppData\Local\Temp\cca5ocgO.s:27201  .debug_str:0000000000020ac3 .LASF3481
C:\Users\CYMR90~1\AppData\Local\Temp\cca5ocgO.s:30041  .debug_str:000000000002bf45 .LASF3482
C:\Users\CYMR90~1\AppData\Local\Temp\cca5ocgO.s:29781  .debug_str:000000000002ada1 .LASF3483
C:\Users\CYMR90~1\AppData\Local\Temp\cca5ocgO.s:19168  .debug_str:0000000000000766 .LASF3484
C:\Users\CYMR90~1\AppData\Local\Temp\cca5ocgO.s:22782  .debug_str:000000000000eeaa .LASF3485
C:\Users\CYMR90~1\AppData\Local\Temp\cca5ocgO.s:24172  .debug_str:0000000000014788 .LASF3486
C:\Users\CYMR90~1\AppData\Local\Temp\cca5ocgO.s:27959  .debug_str:0000000000023882 .LASF3487
C:\Users\CYMR90~1\AppData\Local\Temp\cca5ocgO.s:25619  .debug_str:000000000001a5d9 .LASF3488
C:\Users\CYMR90~1\AppData\Local\Temp\cca5ocgO.s:24773  .debug_str:0000000000016e7f .LASF3489
C:\Users\CYMR90~1\AppData\Local\Temp\cca5ocgO.s:25229  .debug_str:0000000000018a4d .LASF3490
C:\Users\CYMR90~1\AppData\Local\Temp\cca5ocgO.s:29603  .debug_str:000000000002a29d .LASF3491
C:\Users\CYMR90~1\AppData\Local\Temp\cca5ocgO.s:22344  .debug_str:000000000000d3ca .LASF3492
C:\Users\CYMR90~1\AppData\Local\Temp\cca5ocgO.s:24821  .debug_str:000000000001714c .LASF3493
C:\Users\CYMR90~1\AppData\Local\Temp\cca5ocgO.s:24148  .debug_str:000000000001459f .LASF3494
C:\Users\CYMR90~1\AppData\Local\Temp\cca5ocgO.s:24240  .debug_str:0000000000014ba6 .LASF3495
C:\Users\CYMR90~1\AppData\Local\Temp\cca5ocgO.s:26579  .debug_str:000000000001e4b3 .LASF3496
C:\Users\CYMR90~1\AppData\Local\Temp\cca5ocgO.s:29401  .debug_str:00000000000296f9 .LASF3497
C:\Users\CYMR90~1\AppData\Local\Temp\cca5ocgO.s:19764  .debug_str:0000000000002c59 .LASF3498
C:\Users\CYMR90~1\AppData\Local\Temp\cca5ocgO.s:26771  .debug_str:000000000001f04d .LASF3499
C:\Users\CYMR90~1\AppData\Local\Temp\cca5ocgO.s:21566  .debug_str:000000000000a00e .LASF3500
C:\Users\CYMR90~1\AppData\Local\Temp\cca5ocgO.s:19880  .debug_str:00000000000033b0 .LASF3501
C:\Users\CYMR90~1\AppData\Local\Temp\cca5ocgO.s:21806  .debug_str:000000000000afe8 .LASF3502
C:\Users\CYMR90~1\AppData\Local\Temp\cca5ocgO.s:20740  .debug_str:0000000000006a50 .LASF3503
C:\Users\CYMR90~1\AppData\Local\Temp\cca5ocgO.s:28271  .debug_str:0000000000024d6d .LASF3504
C:\Users\CYMR90~1\AppData\Local\Temp\cca5ocgO.s:25679  .debug_str:000000000001aa09 .LASF3505
C:\Users\CYMR90~1\AppData\Local\Temp\cca5ocgO.s:25545  .debug_str:000000000001a026 .LASF3506
C:\Users\CYMR90~1\AppData\Local\Temp\cca5ocgO.s:20698  .debug_str:00000000000067d6 .LASF3507
C:\Users\CYMR90~1\AppData\Local\Temp\cca5ocgO.s:22662  .debug_str:000000000000e750 .LASF3508
C:\Users\CYMR90~1\AppData\Local\Temp\cca5ocgO.s:22506  .debug_str:000000000000dd78 .LASF3509
C:\Users\CYMR90~1\AppData\Local\Temp\cca5ocgO.s:21142  .debug_str:00000000000085bf .LASF3510
C:\Users\CYMR90~1\AppData\Local\Temp\cca5ocgO.s:21330  .debug_str:0000000000009134 .LASF3511
C:\Users\CYMR90~1\AppData\Local\Temp\cca5ocgO.s:21908  .debug_str:000000000000b676 .LASF3512
C:\Users\CYMR90~1\AppData\Local\Temp\cca5ocgO.s:19904  .debug_str:0000000000003537 .LASF3513
C:\Users\CYMR90~1\AppData\Local\Temp\cca5ocgO.s:21260  .debug_str:0000000000008cc2 .LASF3514
C:\Users\CYMR90~1\AppData\Local\Temp\cca5ocgO.s:19088  .debug_str:00000000000002bc .LASF3515
C:\Users\CYMR90~1\AppData\Local\Temp\cca5ocgO.s:24817  .debug_str:000000000001711e .LASF3516
C:\Users\CYMR90~1\AppData\Local\Temp\cca5ocgO.s:22062  .debug_str:000000000000c109 .LASF3517
C:\Users\CYMR90~1\AppData\Local\Temp\cca5ocgO.s:27899  .debug_str:00000000000234a3 .LASF3518
C:\Users\CYMR90~1\AppData\Local\Temp\cca5ocgO.s:25409  .debug_str:00000000000196be .LASF3519
C:\Users\CYMR90~1\AppData\Local\Temp\cca5ocgO.s:23622  .debug_str:00000000000123b7 .LASF3520
C:\Users\CYMR90~1\AppData\Local\Temp\cca5ocgO.s:23474  .debug_str:0000000000011a4b .LASF3521
C:\Users\CYMR90~1\AppData\Local\Temp\cca5ocgO.s:25801  .debug_str:000000000001b21f .LASF3522
C:\Users\CYMR90~1\AppData\Local\Temp\cca5ocgO.s:27911  .debug_str:0000000000023593 .LASF3523
C:\Users\CYMR90~1\AppData\Local\Temp\cca5ocgO.s:29337  .debug_str:00000000000292bb .LASF3524
C:\Users\CYMR90~1\AppData\Local\Temp\cca5ocgO.s:25465  .debug_str:0000000000019b40 .LASF3525
C:\Users\CYMR90~1\AppData\Local\Temp\cca5ocgO.s:26755  .debug_str:000000000001ef41 .LASF3526
C:\Users\CYMR90~1\AppData\Local\Temp\cca5ocgO.s:27837  .debug_str:00000000000230db .LASF3527
C:\Users\CYMR90~1\AppData\Local\Temp\cca5ocgO.s:28669  .debug_str:00000000000267a0 .LASF3528
C:\Users\CYMR90~1\AppData\Local\Temp\cca5ocgO.s:19268  .debug_str:0000000000000da8 .LASF3529
C:\Users\CYMR90~1\AppData\Local\Temp\cca5ocgO.s:27803  .debug_str:0000000000022f23 .LASF3530
C:\Users\CYMR90~1\AppData\Local\Temp\cca5ocgO.s:30037  .debug_str:000000000002bf14 .LASF3531
C:\Users\CYMR90~1\AppData\Local\Temp\cca5ocgO.s:28811  .debug_str:0000000000027014 .LASF3532
C:\Users\CYMR90~1\AppData\Local\Temp\cca5ocgO.s:19750  .debug_str:0000000000002b55 .LASF3533
C:\Users\CYMR90~1\AppData\Local\Temp\cca5ocgO.s:25929  .debug_str:000000000001ba62 .LASF3534
C:\Users\CYMR90~1\AppData\Local\Temp\cca5ocgO.s:22776  .debug_str:000000000000ee4f .LASF3535
C:\Users\CYMR90~1\AppData\Local\Temp\cca5ocgO.s:22268  .debug_str:000000000000ceae .LASF3536
C:\Users\CYMR90~1\AppData\Local\Temp\cca5ocgO.s:20602  .debug_str:00000000000061dc .LASF3537
C:\Users\CYMR90~1\AppData\Local\Temp\cca5ocgO.s:27295  .debug_str:0000000000021075 .LASF3538
C:\Users\CYMR90~1\AppData\Local\Temp\cca5ocgO.s:21158  .debug_str:000000000000868a .LASF3539
C:\Users\CYMR90~1\AppData\Local\Temp\cca5ocgO.s:21422  .debug_str:00000000000096e9 .LASF3540
C:\Users\CYMR90~1\AppData\Local\Temp\cca5ocgO.s:27955  .debug_str:0000000000023854 .LASF3541
C:\Users\CYMR90~1\AppData\Local\Temp\cca5ocgO.s:30155  .debug_str:000000000002c6bd .LASF3542
C:\Users\CYMR90~1\AppData\Local\Temp\cca5ocgO.s:23060  .debug_str:000000000000ff72 .LASF3543
C:\Users\CYMR90~1\AppData\Local\Temp\cca5ocgO.s:22556  .debug_str:000000000000e09f .LASF3544
C:\Users\CYMR90~1\AppData\Local\Temp\cca5ocgO.s:26697  .debug_str:000000000001ebe9 .LASF3545
C:\Users\CYMR90~1\AppData\Local\Temp\cca5ocgO.s:20192  .debug_str:0000000000004883 .LASF3546
C:\Users\CYMR90~1\AppData\Local\Temp\cca5ocgO.s:19498  .debug_str:0000000000001c57 .LASF3547
C:\Users\CYMR90~1\AppData\Local\Temp\cca5ocgO.s:21504  .debug_str:0000000000009c47 .LASF3548
C:\Users\CYMR90~1\AppData\Local\Temp\cca5ocgO.s:27811  .debug_str:0000000000022f90 .LASF3549
C:\Users\CYMR90~1\AppData\Local\Temp\cca5ocgO.s:23506  .debug_str:0000000000011c48 .LASF3550
C:\Users\CYMR90~1\AppData\Local\Temp\cca5ocgO.s:24046  .debug_str:0000000000013f3e .LASF3551
C:\Users\CYMR90~1\AppData\Local\Temp\cca5ocgO.s:21386  .debug_str:0000000000009477 .LASF3552
C:\Users\CYMR90~1\AppData\Local\Temp\cca5ocgO.s:25697  .debug_str:000000000001ab30 .LASF3553
C:\Users\CYMR90~1\AppData\Local\Temp\cca5ocgO.s:25303  .debug_str:0000000000018f7a .LASF3554
C:\Users\CYMR90~1\AppData\Local\Temp\cca5ocgO.s:27147  .debug_str:0000000000020787 .LASF3555
C:\Users\CYMR90~1\AppData\Local\Temp\cca5ocgO.s:24983  .debug_str:0000000000017b67 .LASF3556
C:\Users\CYMR90~1\AppData\Local\Temp\cca5ocgO.s:29113  .debug_str:00000000000284ec .LASF3557
C:\Users\CYMR90~1\AppData\Local\Temp\cca5ocgO.s:22566  .debug_str:000000000000e139 .LASF3558
C:\Users\CYMR90~1\AppData\Local\Temp\cca5ocgO.s:21054  .debug_str:0000000000007f63 .LASF3559
C:\Users\CYMR90~1\AppData\Local\Temp\cca5ocgO.s:30093  .debug_str:000000000002c2bd .LASF3560
C:\Users\CYMR90~1\AppData\Local\Temp\cca5ocgO.s:24374  .debug_str:000000000001544c .LASF3561
C:\Users\CYMR90~1\AppData\Local\Temp\cca5ocgO.s:20466  .debug_str:000000000000598e .LASF3562
C:\Users\CYMR90~1\AppData\Local\Temp\cca5ocgO.s:25521  .debug_str:0000000000019ea3 .LASF3563
C:\Users\CYMR90~1\AppData\Local\Temp\cca5ocgO.s:28097  .debug_str:000000000002418a .LASF3564
C:\Users\CYMR90~1\AppData\Local\Temp\cca5ocgO.s:27345  .debug_str:00000000000213ea .LASF3565
C:\Users\CYMR90~1\AppData\Local\Temp\cca5ocgO.s:21936  .debug_str:000000000000b863 .LASF3566
C:\Users\CYMR90~1\AppData\Local\Temp\cca5ocgO.s:25567  .debug_str:000000000001a15a .LASF3567
C:\Users\CYMR90~1\AppData\Local\Temp\cca5ocgO.s:19058  .debug_str:00000000000000dc .LASF3568
C:\Users\CYMR90~1\AppData\Local\Temp\cca5ocgO.s:23466  .debug_str:000000000001193d .LASF3569
C:\Users\CYMR90~1\AppData\Local\Temp\cca5ocgO.s:27385  .debug_str:0000000000021651 .LASF3570
C:\Users\CYMR90~1\AppData\Local\Temp\cca5ocgO.s:27643  .debug_str:0000000000022572 .LASF3571
C:\Users\CYMR90~1\AppData\Local\Temp\cca5ocgO.s:24558  .debug_str:0000000000015f67 .LASF3572
C:\Users\CYMR90~1\AppData\Local\Temp\cca5ocgO.s:29467  .debug_str:0000000000029ad0 .LASF3573
C:\Users\CYMR90~1\AppData\Local\Temp\cca5ocgO.s:22174  .debug_str:000000000000c7d0 .LASF3574
C:\Users\CYMR90~1\AppData\Local\Temp\cca5ocgO.s:23652  .debug_str:000000000001259c .LASF3575
C:\Users\CYMR90~1\AppData\Local\Temp\cca5ocgO.s:27933  .debug_str:00000000000236fa .LASF3576
C:\Users\CYMR90~1\AppData\Local\Temp\cca5ocgO.s:28361  .debug_str:00000000000253be .LASF3577
C:\Users\CYMR90~1\AppData\Local\Temp\cca5ocgO.s:23508  .debug_str:0000000000011c5d .LASF3578
C:\Users\CYMR90~1\AppData\Local\Temp\cca5ocgO.s:23876  .debug_str:00000000000134d5 .LASF3579
C:\Users\CYMR90~1\AppData\Local\Temp\cca5ocgO.s:19522  .debug_str:0000000000001da7 .LASF3580
C:\Users\CYMR90~1\AppData\Local\Temp\cca5ocgO.s:20834  .debug_str:000000000000704b .LASF3581
C:\Users\CYMR90~1\AppData\Local\Temp\cca5ocgO.s:29913  .debug_str:000000000002b628 .LASF3582
C:\Users\CYMR90~1\AppData\Local\Temp\cca5ocgO.s:24588  .debug_str:00000000000161a0 .LASF3583
C:\Users\CYMR90~1\AppData\Local\Temp\cca5ocgO.s:25389  .debug_str:000000000001959c .LASF3584
C:\Users\CYMR90~1\AppData\Local\Temp\cca5ocgO.s:22060  .debug_str:000000000000c0e4 .LASF3585
C:\Users\CYMR90~1\AppData\Local\Temp\cca5ocgO.s:23718  .debug_str:0000000000012a00 .LASF3586
C:\Users\CYMR90~1\AppData\Local\Temp\cca5ocgO.s:19290  .debug_str:0000000000000f8f .LASF3587
C:\Users\CYMR90~1\AppData\Local\Temp\cca5ocgO.s:25645  .debug_str:000000000001a78e .LASF3588
C:\Users\CYMR90~1\AppData\Local\Temp\cca5ocgO.s:20114  .debug_str:000000000000433b .LASF3589
C:\Users\CYMR90~1\AppData\Local\Temp\cca5ocgO.s:25895  .debug_str:000000000001b86d .LASF3590
C:\Users\CYMR90~1\AppData\Local\Temp\cca5ocgO.s:20372  .debug_str:00000000000053fd .LASF3591
C:\Users\CYMR90~1\AppData\Local\Temp\cca5ocgO.s:21488  .debug_str:0000000000009b32 .LASF3592
C:\Users\CYMR90~1\AppData\Local\Temp\cca5ocgO.s:20648  .debug_str:00000000000064b3 .LASF3593
C:\Users\CYMR90~1\AppData\Local\Temp\cca5ocgO.s:26395  .debug_str:000000000001d912 .LASF3594
C:\Users\CYMR90~1\AppData\Local\Temp\cca5ocgO.s:28837  .debug_str:0000000000027288 .LASF3595
C:\Users\CYMR90~1\AppData\Local\Temp\cca5ocgO.s:24212  .debug_str:00000000000149e2 .LASF3596
C:\Users\CYMR90~1\AppData\Local\Temp\cca5ocgO.s:20682  .debug_str:00000000000066a4 .LASF3597
C:\Users\CYMR90~1\AppData\Local\Temp\cca5ocgO.s:29477  .debug_str:0000000000029b7d .LASF3598
C:\Users\CYMR90~1\AppData\Local\Temp\cca5ocgO.s:26847  .debug_str:000000000001f52e .LASF3599
C:\Users\CYMR90~1\AppData\Local\Temp\cca5ocgO.s:23520  .debug_str:0000000000011ce6 .LASF3600
C:\Users\CYMR90~1\AppData\Local\Temp\cca5ocgO.s:21760  .debug_str:000000000000ac2f .LASF3601
C:\Users\CYMR90~1\AppData\Local\Temp\cca5ocgO.s:19148  .debug_str:0000000000000617 .LASF3602
C:\Users\CYMR90~1\AppData\Local\Temp\cca5ocgO.s:22994  .debug_str:000000000000fc14 .LASF3603
C:\Users\CYMR90~1\AppData\Local\Temp\cca5ocgO.s:21944  .debug_str:000000000000b8cc .LASF3604
C:\Users\CYMR90~1\AppData\Local\Temp\cca5ocgO.s:22708  .debug_str:000000000000ea53 .LASF3605
C:\Users\CYMR90~1\AppData\Local\Temp\cca5ocgO.s:20872  .debug_str:0000000000007341 .LASF3606
C:\Users\CYMR90~1\AppData\Local\Temp\cca5ocgO.s:28907  .debug_str:000000000002767f .LASF3607
C:\Users\CYMR90~1\AppData\Local\Temp\cca5ocgO.s:26321  .debug_str:000000000001d43c .LASF3608
C:\Users\CYMR90~1\AppData\Local\Temp\cca5ocgO.s:23818  .debug_str:00000000000130a7 .LASF3609
C:\Users\CYMR90~1\AppData\Local\Temp\cca5ocgO.s:25909  .debug_str:000000000001b968 .LASF3610
C:\Users\CYMR90~1\AppData\Local\Temp\cca5ocgO.s:29875  .debug_str:000000000002b3be .LASF3611
C:\Users\CYMR90~1\AppData\Local\Temp\cca5ocgO.s:23150  .debug_str:000000000001045f .LASF3612
C:\Users\CYMR90~1\AppData\Local\Temp\cca5ocgO.s:29143  .debug_str:0000000000028727 .LASF3613
C:\Users\CYMR90~1\AppData\Local\Temp\cca5ocgO.s:22154  .debug_str:000000000000c69b .LASF3614
C:\Users\CYMR90~1\AppData\Local\Temp\cca5ocgO.s:19604  .debug_str:0000000000002224 .LASF3615
C:\Users\CYMR90~1\AppData\Local\Temp\cca5ocgO.s:23128  .debug_str:0000000000010326 .LASF3616
C:\Users\CYMR90~1\AppData\Local\Temp\cca5ocgO.s:23040  .debug_str:000000000000fe1c .LASF3617
C:\Users\CYMR90~1\AppData\Local\Temp\cca5ocgO.s:23260  .debug_str:0000000000010bc2 .LASF3618
C:\Users\CYMR90~1\AppData\Local\Temp\cca5ocgO.s:27561  .debug_str:00000000000220f2 .LASF3619
C:\Users\CYMR90~1\AppData\Local\Temp\cca5ocgO.s:23936  .debug_str:000000000001388d .LASF3620
C:\Users\CYMR90~1\AppData\Local\Temp\cca5ocgO.s:21044  .debug_str:0000000000007ecb .LASF3621
C:\Users\CYMR90~1\AppData\Local\Temp\cca5ocgO.s:27787  .debug_str:0000000000022e2c .LASF3622
C:\Users\CYMR90~1\AppData\Local\Temp\cca5ocgO.s:29915  .debug_str:000000000002b64c .LASF3623
C:\Users\CYMR90~1\AppData\Local\Temp\cca5ocgO.s:29451  .debug_str:00000000000299da .LASF3624
C:\Users\CYMR90~1\AppData\Local\Temp\cca5ocgO.s:25995  .debug_str:000000000001be77 .LASF3625
C:\Users\CYMR90~1\AppData\Local\Temp\cca5ocgO.s:20838  .debug_str:000000000000708d .LASF3626
C:\Users\CYMR90~1\AppData\Local\Temp\cca5ocgO.s:20420  .debug_str:00000000000056fb .LASF3627
C:\Users\CYMR90~1\AppData\Local\Temp\cca5ocgO.s:20928  .debug_str:00000000000076ae .LASF3628
C:\Users\CYMR90~1\AppData\Local\Temp\cca5ocgO.s:19896  .debug_str:00000000000034bc .LASF3629
C:\Users\CYMR90~1\AppData\Local\Temp\cca5ocgO.s:28177  .debug_str:00000000000246f7 .LASF3630
C:\Users\CYMR90~1\AppData\Local\Temp\cca5ocgO.s:25237  .debug_str:0000000000018abe .LASF3631
C:\Users\CYMR90~1\AppData\Local\Temp\cca5ocgO.s:21234  .debug_str:0000000000008b2b .LASF3632
C:\Users\CYMR90~1\AppData\Local\Temp\cca5ocgO.s:21340  .debug_str:00000000000091e7 .LASF3633
C:\Users\CYMR90~1\AppData\Local\Temp\cca5ocgO.s:27451  .debug_str:0000000000021a06 .LASF3634
C:\Users\CYMR90~1\AppData\Local\Temp\cca5ocgO.s:29383  .debug_str:00000000000295c6 .LASF3635
C:\Users\CYMR90~1\AppData\Local\Temp\cca5ocgO.s:27701  .debug_str:00000000000228d5 .LASF3636
C:\Users\CYMR90~1\AppData\Local\Temp\cca5ocgO.s:29279  .debug_str:0000000000028f52 .LASF3637
C:\Users\CYMR90~1\AppData\Local\Temp\cca5ocgO.s:19182  .debug_str:0000000000000839 .LASF3638
C:\Users\CYMR90~1\AppData\Local\Temp\cca5ocgO.s:27735  .debug_str:0000000000022b40 .LASF3639
C:\Users\CYMR90~1\AppData\Local\Temp\cca5ocgO.s:24775  .debug_str:0000000000016e97 .LASF3640
C:\Users\CYMR90~1\AppData\Local\Temp\cca5ocgO.s:21768  .debug_str:000000000000aca6 .LASF3641
C:\Users\CYMR90~1\AppData\Local\Temp\cca5ocgO.s:22328  .debug_str:000000000000d2b0 .LASF3642
C:\Users\CYMR90~1\AppData\Local\Temp\cca5ocgO.s:20822  .debug_str:0000000000006f89 .LASF3643
C:\Users\CYMR90~1\AppData\Local\Temp\cca5ocgO.s:24392  .debug_str:0000000000015531 .LASF3644
C:\Users\CYMR90~1\AppData\Local\Temp\cca5ocgO.s:22200  .debug_str:000000000000ca1a .LASF3645
C:\Users\CYMR90~1\AppData\Local\Temp\cca5ocgO.s:27807  .debug_str:0000000000022f51 .LASF3646
C:\Users\CYMR90~1\AppData\Local\Temp\cca5ocgO.s:25799  .debug_str:000000000001b1dc .LASF3647
C:\Users\CYMR90~1\AppData\Local\Temp\cca5ocgO.s:27743  .debug_str:0000000000022bcf .LASF3648
C:\Users\CYMR90~1\AppData\Local\Temp\cca5ocgO.s:24923  .debug_str:000000000001777a .LASF3649
C:\Users\CYMR90~1\AppData\Local\Temp\cca5ocgO.s:22630  .debug_str:000000000000e51d .LASF3650
C:\Users\CYMR90~1\AppData\Local\Temp\cca5ocgO.s:26817  .debug_str:000000000001f324 .LASF3651
C:\Users\CYMR90~1\AppData\Local\Temp\cca5ocgO.s:21824  .debug_str:000000000000b0f6 .LASF3652
C:\Users\CYMR90~1\AppData\Local\Temp\cca5ocgO.s:24094  .debug_str:0000000000014295 .LASF3653
C:\Users\CYMR90~1\AppData\Local\Temp\cca5ocgO.s:25063  .debug_str:0000000000018020 .LASF3654
C:\Users\CYMR90~1\AppData\Local\Temp\cca5ocgO.s:28719  .debug_str:0000000000026a7b .LASF3655
C:\Users\CYMR90~1\AppData\Local\Temp\cca5ocgO.s:21612  .debug_str:000000000000a2de .LASF3656
C:\Users\CYMR90~1\AppData\Local\Temp\cca5ocgO.s:20342  .debug_str:0000000000005234 .LASF3657
C:\Users\CYMR90~1\AppData\Local\Temp\cca5ocgO.s:25359  .debug_str:00000000000193a5 .LASF3658
C:\Users\CYMR90~1\AppData\Local\Temp\cca5ocgO.s:27637  .debug_str:000000000002251e .LASF3659
C:\Users\CYMR90~1\AppData\Local\Temp\cca5ocgO.s:22600  .debug_str:000000000000e36d .LASF3660
C:\Users\CYMR90~1\AppData\Local\Temp\cca5ocgO.s:30015  .debug_str:000000000002bd46 .LASF3661
C:\Users\CYMR90~1\AppData\Local\Temp\cca5ocgO.s:29861  .debug_str:000000000002b2c0 .LASF3662
C:\Users\CYMR90~1\AppData\Local\Temp\cca5ocgO.s:22466  .debug_str:000000000000db33 .LASF3663
C:\Users\CYMR90~1\AppData\Local\Temp\cca5ocgO.s:20428  .debug_str:000000000000576a .LASF3664
C:\Users\CYMR90~1\AppData\Local\Temp\cca5ocgO.s:29503  .debug_str:0000000000029cfb .LASF3665
C:\Users\CYMR90~1\AppData\Local\Temp\cca5ocgO.s:27259  .debug_str:0000000000020e6c .LASF3666
C:\Users\CYMR90~1\AppData\Local\Temp\cca5ocgO.s:27179  .debug_str:000000000002097c .LASF3667
C:\Users\CYMR90~1\AppData\Local\Temp\cca5ocgO.s:24508  .debug_str:0000000000015bfd .LASF3668
C:\Users\CYMR90~1\AppData\Local\Temp\cca5ocgO.s:20526  .debug_str:0000000000005d24 .LASF3669
C:\Users\CYMR90~1\AppData\Local\Temp\cca5ocgO.s:23982  .debug_str:0000000000013b51 .LASF3670
C:\Users\CYMR90~1\AppData\Local\Temp\cca5ocgO.s:27443  .debug_str:00000000000219ae .LASF3671
C:\Users\CYMR90~1\AppData\Local\Temp\cca5ocgO.s:28533  .debug_str:0000000000025f51 .LASF3672
C:\Users\CYMR90~1\AppData\Local\Temp\cca5ocgO.s:20254  .debug_str:0000000000004cee .LASF3673
C:\Users\CYMR90~1\AppData\Local\Temp\cca5ocgO.s:28019  .debug_str:0000000000023bda .LASF3674
C:\Users\CYMR90~1\AppData\Local\Temp\cca5ocgO.s:27183  .debug_str:00000000000209cc .LASF3675
C:\Users\CYMR90~1\AppData\Local\Temp\cca5ocgO.s:29653  .debug_str:000000000002a5d7 .LASF3676
C:\Users\CYMR90~1\AppData\Local\Temp\cca5ocgO.s:22728  .debug_str:000000000000ebc4 .LASF3677
C:\Users\CYMR90~1\AppData\Local\Temp\cca5ocgO.s:20440  .debug_str:000000000000580c .LASF3678
C:\Users\CYMR90~1\AppData\Local\Temp\cca5ocgO.s:22102  .debug_str:000000000000c38a .LASF3679
C:\Users\CYMR90~1\AppData\Local\Temp\cca5ocgO.s:27269  .debug_str:0000000000020eff .LASF3680
C:\Users\CYMR90~1\AppData\Local\Temp\cca5ocgO.s:25169  .debug_str:000000000001867b .LASF3681
C:\Users\CYMR90~1\AppData\Local\Temp\cca5ocgO.s:26237  .debug_str:000000000001ce1c .LASF3682
C:\Users\CYMR90~1\AppData\Local\Temp\cca5ocgO.s:29251  .debug_str:0000000000028db0 .LASF3683
C:\Users\CYMR90~1\AppData\Local\Temp\cca5ocgO.s:27095  .debug_str:00000000000203ff .LASF3684
C:\Users\CYMR90~1\AppData\Local\Temp\cca5ocgO.s:30177  .debug_str:000000000002c85c .LASF3685
C:\Users\CYMR90~1\AppData\Local\Temp\cca5ocgO.s:19942  .debug_str:00000000000037a9 .LASF3686
C:\Users\CYMR90~1\AppData\Local\Temp\cca5ocgO.s:28343  .debug_str:00000000000252a4 .LASF3687
C:\Users\CYMR90~1\AppData\Local\Temp\cca5ocgO.s:19310  .debug_str:0000000000001089 .LASF3688
C:\Users\CYMR90~1\AppData\Local\Temp\cca5ocgO.s:26399  .debug_str:000000000001d959 .LASF3689
C:\Users\CYMR90~1\AppData\Local\Temp\cca5ocgO.s:23852  .debug_str:00000000000132ca .LASF3690
C:\Users\CYMR90~1\AppData\Local\Temp\cca5ocgO.s:30255  .debug_str:000000000002cdaa .LASF3691
C:\Users\CYMR90~1\AppData\Local\Temp\cca5ocgO.s:24827  .debug_str:00000000000171ac .LASF3692
C:\Users\CYMR90~1\AppData\Local\Temp\cca5ocgO.s:28777  .debug_str:0000000000026e2a .LASF3693
C:\Users\CYMR90~1\AppData\Local\Temp\cca5ocgO.s:23704  .debug_str:00000000000128fb .LASF3694
C:\Users\CYMR90~1\AppData\Local\Temp\cca5ocgO.s:27089  .debug_str:000000000002039a .LASF3695
C:\Users\CYMR90~1\AppData\Local\Temp\cca5ocgO.s:27225  .debug_str:0000000000020c46 .LASF3696
C:\Users\CYMR90~1\AppData\Local\Temp\cca5ocgO.s:19266  .debug_str:0000000000000d86 .LASF3697
C:\Users\CYMR90~1\AppData\Local\Temp\cca5ocgO.s:26461  .debug_str:000000000001dd06 .LASF3698
C:\Users\CYMR90~1\AppData\Local\Temp\cca5ocgO.s:19366  .debug_str:00000000000013b6 .LASF3699
C:\Users\CYMR90~1\AppData\Local\Temp\cca5ocgO.s:29043  .debug_str:0000000000027fbb .LASF3700
C:\Users\CYMR90~1\AppData\Local\Temp\cca5ocgO.s:23608  .debug_str:00000000000122aa .LASF3701
C:\Users\CYMR90~1\AppData\Local\Temp\cca5ocgO.s:26597  .debug_str:000000000001e5b0 .LASF3702
C:\Users\CYMR90~1\AppData\Local\Temp\cca5ocgO.s:25519  .debug_str:0000000000019e73 .LASF3703
C:\Users\CYMR90~1\AppData\Local\Temp\cca5ocgO.s:24276  .debug_str:0000000000014de3 .LASF3704
C:\Users\CYMR90~1\AppData\Local\Temp\cca5ocgO.s:23092  .debug_str:000000000001017b .LASF3705
C:\Users\CYMR90~1\AppData\Local\Temp\cca5ocgO.s:29905  .debug_str:000000000002b59c .LASF3706
C:\Users\CYMR90~1\AppData\Local\Temp\cca5ocgO.s:28259  .debug_str:0000000000024c84 .LASF3707
C:\Users\CYMR90~1\AppData\Local\Temp\cca5ocgO.s:19484  .debug_str:0000000000001b4f .LASF3708
C:\Users\CYMR90~1\AppData\Local\Temp\cca5ocgO.s:29031  .debug_str:0000000000027eaa .LASF3709
C:\Users\CYMR90~1\AppData\Local\Temp\cca5ocgO.s:29271  .debug_str:0000000000028eb9 .LASF3710
C:\Users\CYMR90~1\AppData\Local\Temp\cca5ocgO.s:22282  .debug_str:000000000000cfae .LASF3711
C:\Users\CYMR90~1\AppData\Local\Temp\cca5ocgO.s:30131  .debug_str:000000000002c56a .LASF3712
C:\Users\CYMR90~1\AppData\Local\Temp\cca5ocgO.s:21712  .debug_str:000000000000a90c .LASF3713
C:\Users\CYMR90~1\AppData\Local\Temp\cca5ocgO.s:28275  .debug_str:0000000000024da7 .LASF3714
C:\Users\CYMR90~1\AppData\Local\Temp\cca5ocgO.s:21570  .debug_str:000000000000a03b .LASF3715
C:\Users\CYMR90~1\AppData\Local\Temp\cca5ocgO.s:27329  .debug_str:000000000002124c .LASF3716
C:\Users\CYMR90~1\AppData\Local\Temp\cca5ocgO.s:28479  .debug_str:0000000000025bdc .LASF3717
C:\Users\CYMR90~1\AppData\Local\Temp\cca5ocgO.s:25535  .debug_str:0000000000019f7b .LASF3718
C:\Users\CYMR90~1\AppData\Local\Temp\cca5ocgO.s:22384  .debug_str:000000000000d67e .LASF3719
C:\Users\CYMR90~1\AppData\Local\Temp\cca5ocgO.s:20476  .debug_str:0000000000005a3e .LASF3720
C:\Users\CYMR90~1\AppData\Local\Temp\cca5ocgO.s:28951  .debug_str:000000000002795f .LASF3721
C:\Users\CYMR90~1\AppData\Local\Temp\cca5ocgO.s:22860  .debug_str:000000000000f37a .LASF3722
C:\Users\CYMR90~1\AppData\Local\Temp\cca5ocgO.s:22056  .debug_str:000000000000c082 .LASF3723
C:\Users\CYMR90~1\AppData\Local\Temp\cca5ocgO.s:21878  .debug_str:000000000000b407 .LASF3724
C:\Users\CYMR90~1\AppData\Local\Temp\cca5ocgO.s:19212  .debug_str:0000000000000a09 .LASF3725
C:\Users\CYMR90~1\AppData\Local\Temp\cca5ocgO.s:23504  .debug_str:0000000000011c16 .LASF3726
C:\Users\CYMR90~1\AppData\Local\Temp\cca5ocgO.s:28917  .debug_str:0000000000027713 .LASF3727
C:\Users\CYMR90~1\AppData\Local\Temp\cca5ocgO.s:20628  .debug_str:0000000000006364 .LASF3728
C:\Users\CYMR90~1\AppData\Local\Temp\cca5ocgO.s:21982  .debug_str:000000000000bb4d .LASF3729
C:\Users\CYMR90~1\AppData\Local\Temp\cca5ocgO.s:23082  .debug_str:00000000000100d2 .LASF3730
C:\Users\CYMR90~1\AppData\Local\Temp\cca5ocgO.s:27305  .debug_str:00000000000210e2 .LASF3731
C:\Users\CYMR90~1\AppData\Local\Temp\cca5ocgO.s:20264  .debug_str:0000000000004da6 .LASF3732
C:\Users\CYMR90~1\AppData\Local\Temp\cca5ocgO.s:24488  .debug_str:0000000000015ab0 .LASF3733
C:\Users\CYMR90~1\AppData\Local\Temp\cca5ocgO.s:28737  .debug_str:0000000000026b8b .LASF3734
C:\Users\CYMR90~1\AppData\Local\Temp\cca5ocgO.s:21756  .debug_str:000000000000abe3 .LASF3735
C:\Users\CYMR90~1\AppData\Local\Temp\cca5ocgO.s:24070  .debug_str:000000000001409c .LASF3736
C:\Users\CYMR90~1\AppData\Local\Temp\cca5ocgO.s:26487  .debug_str:000000000001df20 .LASF3737
C:\Users\CYMR90~1\AppData\Local\Temp\cca5ocgO.s:22262  .debug_str:000000000000ce4b .LASF3738
C:\Users\CYMR90~1\AppData\Local\Temp\cca5ocgO.s:27491  .debug_str:0000000000021cc8 .LASF3739
C:\Users\CYMR90~1\AppData\Local\Temp\cca5ocgO.s:20472  .debug_str:00000000000059e6 .LASF3740
C:\Users\CYMR90~1\AppData\Local\Temp\cca5ocgO.s:29859  .debug_str:000000000002b28e .LASF3741
C:\Users\CYMR90~1\AppData\Local\Temp\cca5ocgO.s:22854  .debug_str:000000000000f2f7 .LASF3742
C:\Users\CYMR90~1\AppData\Local\Temp\cca5ocgO.s:27001  .debug_str:000000000001fe9c .LASF3743
C:\Users\CYMR90~1\AppData\Local\Temp\cca5ocgO.s:19984  .debug_str:0000000000003a74 .LASF3744
C:\Users\CYMR90~1\AppData\Local\Temp\cca5ocgO.s:22930  .debug_str:000000000000f83f .LASF3745
C:\Users\CYMR90~1\AppData\Local\Temp\cca5ocgO.s:28053  .debug_str:0000000000023dfc .LASF3746
C:\Users\CYMR90~1\AppData\Local\Temp\cca5ocgO.s:21456  .debug_str:0000000000009915 .LASF3747
C:\Users\CYMR90~1\AppData\Local\Temp\cca5ocgO.s:25755  .debug_str:000000000001aeaf .LASF3748
C:\Users\CYMR90~1\AppData\Local\Temp\cca5ocgO.s:20082  .debug_str:00000000000040ba .LASF3749
C:\Users\CYMR90~1\AppData\Local\Temp\cca5ocgO.s:28095  .debug_str:0000000000024158 .LASF3750
C:\Users\CYMR90~1\AppData\Local\Temp\cca5ocgO.s:21098  .debug_str:00000000000082e9 .LASF3751
C:\Users\CYMR90~1\AppData\Local\Temp\cca5ocgO.s:22698  .debug_str:000000000000e97f .LASF3752
C:\Users\CYMR90~1\AppData\Local\Temp\cca5ocgO.s:29537  .debug_str:0000000000029ece .LASF3753
C:\Users\CYMR90~1\AppData\Local\Temp\cca5ocgO.s:20926  .debug_str:000000000000767c .LASF3754
C:\Users\CYMR90~1\AppData\Local\Temp\cca5ocgO.s:26875  .debug_str:000000000001f6da .LASF3755
C:\Users\CYMR90~1\AppData\Local\Temp\cca5ocgO.s:19702  .debug_str:0000000000002857 .LASF3756
C:\Users\CYMR90~1\AppData\Local\Temp\cca5ocgO.s:25099  .debug_str:0000000000018238 .LASF3757
C:\Users\CYMR90~1\AppData\Local\Temp\cca5ocgO.s:28227  .debug_str:0000000000024a69 .LASF3758
C:\Users\CYMR90~1\AppData\Local\Temp\cca5ocgO.s:21106  .debug_str:0000000000008366 .LASF3759
C:\Users\CYMR90~1\AppData\Local\Temp\cca5ocgO.s:28491  .debug_str:0000000000025c9c .LASF3760
C:\Users\CYMR90~1\AppData\Local\Temp\cca5ocgO.s:23650  .debug_str:000000000001256a .LASF3761
C:\Users\CYMR90~1\AppData\Local\Temp\cca5ocgO.s:27793  .debug_str:0000000000022e87 .LASF3762
C:\Users\CYMR90~1\AppData\Local\Temp\cca5ocgO.s:20532  .debug_str:0000000000005d91 .LASF3763
C:\Users\CYMR90~1\AppData\Local\Temp\cca5ocgO.s:23694  .debug_str:000000000001283b .LASF3764
C:\Users\CYMR90~1\AppData\Local\Temp\cca5ocgO.s:27003  .debug_str:000000000001fece .LASF3765
C:\Users\CYMR90~1\AppData\Local\Temp\cca5ocgO.s:23614  .debug_str:0000000000012337 .LASF3766
C:\Users\CYMR90~1\AppData\Local\Temp\cca5ocgO.s:28525  .debug_str:0000000000025edb .LASF3767
C:\Users\CYMR90~1\AppData\Local\Temp\cca5ocgO.s:19972  .debug_str:0000000000003992 .LASF3768
C:\Users\CYMR90~1\AppData\Local\Temp\cca5ocgO.s:22216  .debug_str:000000000000cbed .LASF3769
C:\Users\CYMR90~1\AppData\Local\Temp\cca5ocgO.s:22648  .debug_str:000000000000e632 .LASF3770
C:\Users\CYMR90~1\AppData\Local\Temp\cca5ocgO.s:28103  .debug_str:0000000000024201 .LASF3771
C:\Users\CYMR90~1\AppData\Local\Temp\cca5ocgO.s:24504  .debug_str:0000000000015bac .LASF3772
C:\Users\CYMR90~1\AppData\Local\Temp\cca5ocgO.s:24937  .debug_str:000000000001785e .LASF3773
C:\Users\CYMR90~1\AppData\Local\Temp\cca5ocgO.s:21934  .debug_str:000000000000b841 .LASF3774
C:\Users\CYMR90~1\AppData\Local\Temp\cca5ocgO.s:24284  .debug_str:0000000000014e6c .LASF3775
C:\Users\CYMR90~1\AppData\Local\Temp\cca5ocgO.s:27207  .debug_str:0000000000020b23 .LASF3776
C:\Users\CYMR90~1\AppData\Local\Temp\cca5ocgO.s:24308  .debug_str:0000000000015021 .LASF3777
C:\Users\CYMR90~1\AppData\Local\Temp\cca5ocgO.s:28555  .debug_str:00000000000260ae .LASF3778
C:\Users\CYMR90~1\AppData\Local\Temp\cca5ocgO.s:25383  .debug_str:000000000001952a .LASF3779
C:\Users\CYMR90~1\AppData\Local\Temp\cca5ocgO.s:23364  .debug_str:000000000001121d .LASF3780
C:\Users\CYMR90~1\AppData\Local\Temp\cca5ocgO.s:20136  .debug_str:00000000000044ad .LASF3781
C:\Users\CYMR90~1\AppData\Local\Temp\cca5ocgO.s:19376  .debug_str:000000000000145d .LASF3782
C:\Users\CYMR90~1\AppData\Local\Temp\cca5ocgO.s:22990  .debug_str:000000000000fbce .LASF3783
C:\Users\CYMR90~1\AppData\Local\Temp\cca5ocgO.s:23930  .debug_str:000000000001384c .LASF3784
C:\Users\CYMR90~1\AppData\Local\Temp\cca5ocgO.s:20398  .debug_str:0000000000005596 .LASF3785
C:\Users\CYMR90~1\AppData\Local\Temp\cca5ocgO.s:25199  .debug_str:0000000000018839 .LASF3786
C:\Users\CYMR90~1\AppData\Local\Temp\cca5ocgO.s:22542  .debug_str:000000000000dfcb .LASF3787
C:\Users\CYMR90~1\AppData\Local\Temp\cca5ocgO.s:21578  .debug_str:000000000000a0d5 .LASF3788
C:\Users\CYMR90~1\AppData\Local\Temp\cca5ocgO.s:23034  .debug_str:000000000000fdae .LASF3789
C:\Users\CYMR90~1\AppData\Local\Temp\cca5ocgO.s:24901  .debug_str:000000000001761a .LASF3790
C:\Users\CYMR90~1\AppData\Local\Temp\cca5ocgO.s:24350  .debug_str:00000000000152b8 .LASF3791
C:\Users\CYMR90~1\AppData\Local\Temp\cca5ocgO.s:23732  .debug_str:0000000000012b16 .LASF3792
C:\Users\CYMR90~1\AppData\Local\Temp\cca5ocgO.s:26075  .debug_str:000000000001c38b .LASF3793
C:\Users\CYMR90~1\AppData\Local\Temp\cca5ocgO.s:22652  .debug_str:000000000000e6b1 .LASF3794
C:\Users\CYMR90~1\AppData\Local\Temp\cca5ocgO.s:19250  .debug_str:0000000000000ca2 .LASF3795
C:\Users\CYMR90~1\AppData\Local\Temp\cca5ocgO.s:29277  .debug_str:0000000000028f2e .LASF3796
C:\Users\CYMR90~1\AppData\Local\Temp\cca5ocgO.s:23798  .debug_str:0000000000012f55 .LASF3797
C:\Users\CYMR90~1\AppData\Local\Temp\cca5ocgO.s:26411  .debug_str:000000000001da13 .LASF3798
C:\Users\CYMR90~1\AppData\Local\Temp\cca5ocgO.s:19644  .debug_str:000000000000249a .LASF3799
C:\Users\CYMR90~1\AppData\Local\Temp\cca5ocgO.s:24690  .debug_str:0000000000016758 .LASF3800
C:\Users\CYMR90~1\AppData\Local\Temp\cca5ocgO.s:28337  .debug_str:000000000002523d .LASF3801
C:\Users\CYMR90~1\AppData\Local\Temp\cca5ocgO.s:28115  .debug_str:00000000000242ea .LASF3802
C:\Users\CYMR90~1\AppData\Local\Temp\cca5ocgO.s:24769  .debug_str:0000000000016e44 .LASF3803
C:\Users\CYMR90~1\AppData\Local\Temp\cca5ocgO.s:24076  .debug_str:000000000001412b .LASF3804
C:\Users\CYMR90~1\AppData\Local\Temp\cca5ocgO.s:29263  .debug_str:0000000000028e5d .LASF3805
C:\Users\CYMR90~1\AppData\Local\Temp\cca5ocgO.s:25905  .debug_str:000000000001b907 .LASF3806
C:\Users\CYMR90~1\AppData\Local\Temp\cca5ocgO.s:22516  .debug_str:000000000000de3b .LASF3807
C:\Users\CYMR90~1\AppData\Local\Temp\cca5ocgO.s:29637  .debug_str:000000000002a4c8 .LASF3808
C:\Users\CYMR90~1\AppData\Local\Temp\cca5ocgO.s:29947  .debug_str:000000000002b881 .LASF3809
C:\Users\CYMR90~1\AppData\Local\Temp\cca5ocgO.s:21738  .debug_str:000000000000aabd .LASF3810
C:\Users\CYMR90~1\AppData\Local\Temp\cca5ocgO.s:20262  .debug_str:0000000000004d82 .LASF3811
C:\Users\CYMR90~1\AppData\Local\Temp\cca5ocgO.s:30163  .debug_str:000000000002c756 .LASF3812
C:\Users\CYMR90~1\AppData\Local\Temp\cca5ocgO.s:23488  .debug_str:0000000000011b12 .LASF3813
C:\Users\CYMR90~1\AppData\Local\Temp\cca5ocgO.s:20058  .debug_str:0000000000003f69 .LASF3814
C:\Users\CYMR90~1\AppData\Local\Temp\cca5ocgO.s:27979  .debug_str:00000000000239b4 .LASF3815
C:\Users\CYMR90~1\AppData\Local\Temp\cca5ocgO.s:24606  .debug_str:00000000000162b3 .LASF3816
C:\Users\CYMR90~1\AppData\Local\Temp\cca5ocgO.s:23048  .debug_str:000000000000fec1 .LASF3817
C:\Users\CYMR90~1\AppData\Local\Temp\cca5ocgO.s:29123  .debug_str:0000000000028599 .LASF3818
C:\Users\CYMR90~1\AppData\Local\Temp\cca5ocgO.s:27141  .debug_str:000000000002073b .LASF3819
C:\Users\CYMR90~1\AppData\Local\Temp\cca5ocgO.s:21064  .debug_str:0000000000008020 .LASF3820
C:\Users\CYMR90~1\AppData\Local\Temp\cca5ocgO.s:28965  .debug_str:0000000000027a8a .LASF3821
C:\Users\CYMR90~1\AppData\Local\Temp\cca5ocgO.s:25625  .debug_str:000000000001a631 .LASF3822
C:\Users\CYMR90~1\AppData\Local\Temp\cca5ocgO.s:22234  .debug_str:000000000000ccef .LASF3823
C:\Users\CYMR90~1\AppData\Local\Temp\cca5ocgO.s:30111  .debug_str:000000000002c444 .LASF3824
C:\Users\CYMR90~1\AppData\Local\Temp\cca5ocgO.s:20170  .debug_str:00000000000046ea .LASF3825
C:\Users\CYMR90~1\AppData\Local\Temp\cca5ocgO.s:23368  .debug_str:0000000000011258 .LASF3826
C:\Users\CYMR90~1\AppData\Local\Temp\cca5ocgO.s:26255  .debug_str:000000000001cfc3 .LASF3827
C:\Users\CYMR90~1\AppData\Local\Temp\cca5ocgO.s:27839  .debug_str:00000000000230fa .LASF3828
C:\Users\CYMR90~1\AppData\Local\Temp\cca5ocgO.s:29195  .debug_str:0000000000028a73 .LASF3829
C:\Users\CYMR90~1\AppData\Local\Temp\cca5ocgO.s:19780  .debug_str:0000000000002d50 .LASF3830
C:\Users\CYMR90~1\AppData\Local\Temp\cca5ocgO.s:24895  .debug_str:00000000000175b7 .LASF3831
C:\Users\CYMR90~1\AppData\Local\Temp\cca5ocgO.s:24316  .debug_str:00000000000150a1 .LASF3832
C:\Users\CYMR90~1\AppData\Local\Temp\cca5ocgO.s:20918  .debug_str:0000000000007605 .LASF3833
C:\Users\CYMR90~1\AppData\Local\Temp\cca5ocgO.s:21040  .debug_str:0000000000007e68 .LASF3834
C:\Users\CYMR90~1\AppData\Local\Temp\cca5ocgO.s:21036  .debug_str:0000000000007e27 .LASF3835
C:\Users\CYMR90~1\AppData\Local\Temp\cca5ocgO.s:22076  .debug_str:000000000000c1d0 .LASF3836
C:\Users\CYMR90~1\AppData\Local\Temp\cca5ocgO.s:29975  .debug_str:000000000002ba66 .LASF3837
C:\Users\CYMR90~1\AppData\Local\Temp\cca5ocgO.s:19694  .debug_str:00000000000027ba .LASF3838
C:\Users\CYMR90~1\AppData\Local\Temp\cca5ocgO.s:28001  .debug_str:0000000000023ae8 .LASF3839
C:\Users\CYMR90~1\AppData\Local\Temp\cca5ocgO.s:29911  .debug_str:000000000002b604 .LASF3840
C:\Users\CYMR90~1\AppData\Local\Temp\cca5ocgO.s:26413  .debug_str:000000000001da37 .LASF3841
C:\Users\CYMR90~1\AppData\Local\Temp\cca5ocgO.s:23074  .debug_str:0000000000010035 .LASF3842
C:\Users\CYMR90~1\AppData\Local\Temp\cca5ocgO.s:19488  .debug_str:0000000000001ba3 .LASF3843
C:\Users\CYMR90~1\AppData\Local\Temp\cca5ocgO.s:27545  .debug_str:0000000000022003 .LASF3844
C:\Users\CYMR90~1\AppData\Local\Temp\cca5ocgO.s:24180  .debug_str:00000000000147fa .LASF3845
C:\Users\CYMR90~1\AppData\Local\Temp\cca5ocgO.s:22866  .debug_str:000000000000f3d9 .LASF3846
C:\Users\CYMR90~1\AppData\Local\Temp\cca5ocgO.s:25461  .debug_str:0000000000019af6 .LASF3847
C:\Users\CYMR90~1\AppData\Local\Temp\cca5ocgO.s:25349  .debug_str:0000000000019315 .LASF3848
C:\Users\CYMR90~1\AppData\Local\Temp\cca5ocgO.s:26711  .debug_str:000000000001ecaa .LASF3849
C:\Users\CYMR90~1\AppData\Local\Temp\cca5ocgO.s:28603  .debug_str:000000000002636c .LASF3850
C:\Users\CYMR90~1\AppData\Local\Temp\cca5ocgO.s:26777  .debug_str:000000000001f0be .LASF3851
C:\Users\CYMR90~1\AppData\Local\Temp\cca5ocgO.s:21392  .debug_str:00000000000094cb .LASF3852
C:\Users\CYMR90~1\AppData\Local\Temp\cca5ocgO.s:21452  .debug_str:00000000000098cf .LASF3853
C:\Users\CYMR90~1\AppData\Local\Temp\cca5ocgO.s:26293  .debug_str:000000000001d2b7 .LASF3854
C:\Users\CYMR90~1\AppData\Local\Temp\cca5ocgO.s:27481  .debug_str:0000000000021c28 .LASF3855
C:\Users\CYMR90~1\AppData\Local\Temp\cca5ocgO.s:19496  .debug_str:0000000000001c33 .LASF3856
C:\Users\CYMR90~1\AppData\Local\Temp\cca5ocgO.s:27399  .debug_str:0000000000021722 .LASF3857
C:\Users\CYMR90~1\AppData\Local\Temp\cca5ocgO.s:24032  .debug_str:0000000000013e56 .LASF3858
C:\Users\CYMR90~1\AppData\Local\Temp\cca5ocgO.s:29649  .debug_str:000000000002a587 .LASF3859
C:\Users\CYMR90~1\AppData\Local\Temp\cca5ocgO.s:27337  .debug_str:00000000000212d3 .LASF3860
C:\Users\CYMR90~1\AppData\Local\Temp\cca5ocgO.s:23978  .debug_str:0000000000013b16 .LASF3861
C:\Users\CYMR90~1\AppData\Local\Temp\cca5ocgO.s:28619  .debug_str:000000000002647c .LASF3862
C:\Users\CYMR90~1\AppData\Local\Temp\cca5ocgO.s:28457  .debug_str:0000000000025aa1 .LASF3863
C:\Users\CYMR90~1\AppData\Local\Temp\cca5ocgO.s:25125  .debug_str:00000000000183d7 .LASF3864
C:\Users\CYMR90~1\AppData\Local\Temp\cca5ocgO.s:30215  .debug_str:000000000002cab8 .LASF3865
C:\Users\CYMR90~1\AppData\Local\Temp\cca5ocgO.s:29607  .debug_str:000000000002a2d6 .LASF3866
C:\Users\CYMR90~1\AppData\Local\Temp\cca5ocgO.s:27549  .debug_str:0000000000022044 .LASF3867
C:\Users\CYMR90~1\AppData\Local\Temp\cca5ocgO.s:26431  .debug_str:000000000001db48 .LASF3868
C:\Users\CYMR90~1\AppData\Local\Temp\cca5ocgO.s:20826  .debug_str:0000000000006fdd .LASF3869
C:\Users\CYMR90~1\AppData\Local\Temp\cca5ocgO.s:20974  .debug_str:0000000000007999 .LASF3870
C:\Users\CYMR90~1\AppData\Local\Temp\cca5ocgO.s:25007  .debug_str:0000000000017cb0 .LASF3871
C:\Users\CYMR90~1\AppData\Local\Temp\cca5ocgO.s:28901  .debug_str:000000000002761c .LASF3872
C:\Users\CYMR90~1\AppData\Local\Temp\cca5ocgO.s:21554  .debug_str:0000000000009f44 .LASF3873
C:\Users\CYMR90~1\AppData\Local\Temp\cca5ocgO.s:30047  .debug_str:000000000002bfad .LASF3874
C:\Users\CYMR90~1\AppData\Local\Temp\cca5ocgO.s:21080  .debug_str:00000000000081c0 .LASF3875
C:\Users\CYMR90~1\AppData\Local\Temp\cca5ocgO.s:23424  .debug_str:00000000000115f3 .LASF3876
C:\Users\CYMR90~1\AppData\Local\Temp\cca5ocgO.s:25955  .debug_str:000000000001bbcb .LASF3877
C:\Users\CYMR90~1\AppData\Local\Temp\cca5ocgO.s:29965  .debug_str:000000000002b9d3 .LASF3878
C:\Users\CYMR90~1\AppData\Local\Temp\cca5ocgO.s:24120  .debug_str:0000000000014405 .LASF3879
C:\Users\CYMR90~1\AppData\Local\Temp\cca5ocgO.s:26545  .debug_str:000000000001e2ae .LASF3880
C:\Users\CYMR90~1\AppData\Local\Temp\cca5ocgO.s:28827  .debug_str:00000000000271e2 .LASF3881
C:\Users\CYMR90~1\AppData\Local\Temp\cca5ocgO.s:19918  .debug_str:0000000000003614 .LASF3882
C:\Users\CYMR90~1\AppData\Local\Temp\cca5ocgO.s:27239  .debug_str:0000000000020d37 .LASF3883
C:\Users\CYMR90~1\AppData\Local\Temp\cca5ocgO.s:19834  .debug_str:0000000000003081 .LASF3884
C:\Users\CYMR90~1\AppData\Local\Temp\cca5ocgO.s:26881  .debug_str:000000000001f73e .LASF3885
C:\Users\CYMR90~1\AppData\Local\Temp\cca5ocgO.s:29229  .debug_str:0000000000028c1e .LASF3886
C:\Users\CYMR90~1\AppData\Local\Temp\cca5ocgO.s:23752  .debug_str:0000000000012c17 .LASF3887
C:\Users\CYMR90~1\AppData\Local\Temp\cca5ocgO.s:22540  .debug_str:000000000000dfa5 .LASF3888
C:\Users\CYMR90~1\AppData\Local\Temp\cca5ocgO.s:19588  .debug_str:000000000000214d .LASF3889
C:\Users\CYMR90~1\AppData\Local\Temp\cca5ocgO.s:21104  .debug_str:0000000000008340 .LASF3890
C:\Users\CYMR90~1\AppData\Local\Temp\cca5ocgO.s:23448  .debug_str:0000000000011826 .LASF3891
C:\Users\CYMR90~1\AppData\Local\Temp\cca5ocgO.s:25375  .debug_str:00000000000194b9 .LASF3892
C:\Users\CYMR90~1\AppData\Local\Temp\cca5ocgO.s:26885  .debug_str:000000000001f77d .LASF3893
C:\Users\CYMR90~1\AppData\Local\Temp\cca5ocgO.s:19132  .debug_str:0000000000000533 .LASF3894
C:\Users\CYMR90~1\AppData\Local\Temp\cca5ocgO.s:25837  .debug_str:000000000001b454 .LASF3895
C:\Users\CYMR90~1\AppData\Local\Temp\cca5ocgO.s:29821  .debug_str:000000000002afd2 .LASF3896
C:\Users\CYMR90~1\AppData\Local\Temp\cca5ocgO.s:22474  .debug_str:000000000000db96 .LASF3897
C:\Users\CYMR90~1\AppData\Local\Temp\cca5ocgO.s:21484  .debug_str:0000000000009afb .LASF3898
C:\Users\CYMR90~1\AppData\Local\Temp\cca5ocgO.s:25411  .debug_str:00000000000196d8 .LASF3899
C:\Users\CYMR90~1\AppData\Local\Temp\cca5ocgO.s:21360  .debug_str:0000000000009315 .LASF3900
C:\Users\CYMR90~1\AppData\Local\Temp\cca5ocgO.s:25313  .debug_str:0000000000019025 .LASF3901
C:\Users\CYMR90~1\AppData\Local\Temp\cca5ocgO.s:29187  .debug_str:00000000000289fb .LASF3902
C:\Users\CYMR90~1\AppData\Local\Temp\cca5ocgO.s:24248  .debug_str:0000000000014c01 .LASF3903
C:\Users\CYMR90~1\AppData\Local\Temp\cca5ocgO.s:25791  .debug_str:000000000001b14c .LASF3904
C:\Users\CYMR90~1\AppData\Local\Temp\cca5ocgO.s:29753  .debug_str:000000000002abee .LASF3905
C:\Users\CYMR90~1\AppData\Local\Temp\cca5ocgO.s:22412  .debug_str:000000000000d822 .LASF3906
C:\Users\CYMR90~1\AppData\Local\Temp\cca5ocgO.s:21540  .debug_str:0000000000009e4d .LASF3907
C:\Users\CYMR90~1\AppData\Local\Temp\cca5ocgO.s:23888  .debug_str:0000000000013594 .LASF3908
C:\Users\CYMR90~1\AppData\Local\Temp\cca5ocgO.s:27293  .debug_str:000000000002104f .LASF3909
C:\Users\CYMR90~1\AppData\Local\Temp\cca5ocgO.s:29035  .debug_str:0000000000027f33 .LASF3910
C:\Users\CYMR90~1\AppData\Local\Temp\cca5ocgO.s:29773  .debug_str:000000000002ad0b .LASF3911
C:\Users\CYMR90~1\AppData\Local\Temp\cca5ocgO.s:21774  .debug_str:000000000000acfe .LASF3912
C:\Users\CYMR90~1\AppData\Local\Temp\cca5ocgO.s:25727  .debug_str:000000000001acec .LASF3913
C:\Users\CYMR90~1\AppData\Local\Temp\cca5ocgO.s:29681  .debug_str:000000000002a78a .LASF3914
C:\Users\CYMR90~1\AppData\Local\Temp\cca5ocgO.s:25061  .debug_str:0000000000017ffa .LASF3915
C:\Users\CYMR90~1\AppData\Local\Temp\cca5ocgO.s:23856  .debug_str:0000000000013353 .LASF3916
C:\Users\CYMR90~1\AppData\Local\Temp\cca5ocgO.s:30165  .debug_str:000000000002c77a .LASF3917
C:\Users\CYMR90~1\AppData\Local\Temp\cca5ocgO.s:22818  .debug_str:000000000000f0b8 .LASF3918
C:\Users\CYMR90~1\AppData\Local\Temp\cca5ocgO.s:19866  .debug_str:00000000000032ae .LASF3919
C:\Users\CYMR90~1\AppData\Local\Temp\cca5ocgO.s:29059  .debug_str:00000000000280d2 .LASF3920
C:\Users\CYMR90~1\AppData\Local\Temp\cca5ocgO.s:29625  .debug_str:000000000002a41b .LASF3921
C:\Users\CYMR90~1\AppData\Local\Temp\cca5ocgO.s:27011  .debug_str:000000000001ff58 .LASF3922
C:\Users\CYMR90~1\AppData\Local\Temp\cca5ocgO.s:29615  .debug_str:000000000002a344 .LASF3923
C:\Users\CYMR90~1\AppData\Local\Temp\cca5ocgO.s:22284  .debug_str:000000000000cfe0 .LASF3924
C:\Users\CYMR90~1\AppData\Local\Temp\cca5ocgO.s:26191  .debug_str:000000000001cb2f .LASF3925
C:\Users\CYMR90~1\AppData\Local\Temp\cca5ocgO.s:30107  .debug_str:000000000002c3f7 .LASF3926
C:\Users\CYMR90~1\AppData\Local\Temp\cca5ocgO.s:21082  .debug_str:00000000000081e6 .LASF3927
C:\Users\CYMR90~1\AppData\Local\Temp\cca5ocgO.s:24238  .debug_str:0000000000014b80 .LASF3928
C:\Users\CYMR90~1\AppData\Local\Temp\cca5ocgO.s:23766  .debug_str:0000000000012d1e .LASF3929
C:\Users\CYMR90~1\AppData\Local\Temp\cca5ocgO.s:21640  .debug_str:000000000000a4e8 .LASF3930
C:\Users\CYMR90~1\AppData\Local\Temp\cca5ocgO.s:25585  .debug_str:000000000001a257 .LASF3931
C:\Users\CYMR90~1\AppData\Local\Temp\cca5ocgO.s:23084  .debug_str:0000000000010104 .LASF3932
C:\Users\CYMR90~1\AppData\Local\Temp\cca5ocgO.s:25967  .debug_str:000000000001bcb3 .LASF3933
C:\Users\CYMR90~1\AppData\Local\Temp\cca5ocgO.s:26121  .debug_str:000000000001c5ff .LASF3934
C:\Users\CYMR90~1\AppData\Local\Temp\cca5ocgO.s:27401  .debug_str:0000000000021746 .LASF3935
C:\Users\CYMR90~1\AppData\Local\Temp\cca5ocgO.s:22680  .debug_str:000000000000e879 .LASF3936
C:\Users\CYMR90~1\AppData\Local\Temp\cca5ocgO.s:26571  .debug_str:000000000001e414 .LASF3937
C:\Users\CYMR90~1\AppData\Local\Temp\cca5ocgO.s:19224  .debug_str:0000000000000b1a .LASF3938
C:\Users\CYMR90~1\AppData\Local\Temp\cca5ocgO.s:26127  .debug_str:000000000001c65d .LASF3939
C:\Users\CYMR90~1\AppData\Local\Temp\cca5ocgO.s:27667  .debug_str:00000000000226f2 .LASF3940
C:\Users\CYMR90~1\AppData\Local\Temp\cca5ocgO.s:29489  .debug_str:0000000000029c2a .LASF3941
C:\Users\CYMR90~1\AppData\Local\Temp\cca5ocgO.s:22150  .debug_str:000000000000c659 .LASF3942
C:\Users\CYMR90~1\AppData\Local\Temp\cca5ocgO.s:24260  .debug_str:0000000000014cb5 .LASF3943
C:\Users\CYMR90~1\AppData\Local\Temp\cca5ocgO.s:29979  .debug_str:000000000002baa2 .LASF3944
C:\Users\CYMR90~1\AppData\Local\Temp\cca5ocgO.s:26595  .debug_str:000000000001e58a .LASF3945
C:\Users\CYMR90~1\AppData\Local\Temp\cca5ocgO.s:26507  .debug_str:000000000001e06a .LASF3946
C:\Users\CYMR90~1\AppData\Local\Temp\cca5ocgO.s:19164  .debug_str:0000000000000727 .LASF3947
C:\Users\CYMR90~1\AppData\Local\Temp\cca5ocgO.s:30153  .debug_str:000000000002c697 .LASF3948
C:\Users\CYMR90~1\AppData\Local\Temp\cca5ocgO.s:20138  .debug_str:00000000000044d1 .LASF3949
C:\Users\CYMR90~1\AppData\Local\Temp\cca5ocgO.s:29427  .debug_str:000000000002986c .LASF3950
C:\Users\CYMR90~1\AppData\Local\Temp\cca5ocgO.s:25469  .debug_str:0000000000019b76 .LASF3951
C:\Users\CYMR90~1\AppData\Local\Temp\cca5ocgO.s:27751  .debug_str:0000000000022c2d .LASF3952
C:\Users\CYMR90~1\AppData\Local\Temp\cca5ocgO.s:29923  .debug_str:000000000002b6ce .LASF3953
C:\Users\CYMR90~1\AppData\Local\Temp\cca5ocgO.s:22562  .debug_str:000000000000e0e7 .LASF3954
C:\Users\CYMR90~1\AppData\Local\Temp\cca5ocgO.s:20422  .debug_str:000000000000571d .LASF3955
C:\Users\CYMR90~1\AppData\Local\Temp\cca5ocgO.s:19092  .debug_str:00000000000002ff .LASF3956
C:\Users\CYMR90~1\AppData\Local\Temp\cca5ocgO.s:28985  .debug_str:0000000000027bd6 .LASF3957
C:\Users\CYMR90~1\AppData\Local\Temp\cca5ocgO.s:20010  .debug_str:0000000000003bf1 .LASF3958
C:\Users\CYMR90~1\AppData\Local\Temp\cca5ocgO.s:24108  .debug_str:0000000000014352 .LASF3959
C:\Users\CYMR90~1\AppData\Local\Temp\cca5ocgO.s:22010  .debug_str:000000000000bd8a .LASF3960
C:\Users\CYMR90~1\AppData\Local\Temp\cca5ocgO.s:19378  .debug_str:0000000000001481 .LASF3961
C:\Users\CYMR90~1\AppData\Local\Temp\cca5ocgO.s:29847  .debug_str:000000000002b1d9 .LASF3962
C:\Users\CYMR90~1\AppData\Local\Temp\cca5ocgO.s:26763  .debug_str:000000000001efd2 .LASF3963
C:\Users\CYMR90~1\AppData\Local\Temp\cca5ocgO.s:26941  .debug_str:000000000001fadb .LASF3964
C:\Users\CYMR90~1\AppData\Local\Temp\cca5ocgO.s:30295  .debug_str:000000000002d005 .LASF3965
C:\Users\CYMR90~1\AppData\Local\Temp\cca5ocgO.s:23070  .debug_str:000000000000ffec .LASF3966
C:\Users\CYMR90~1\AppData\Local\Temp\cca5ocgO.s:23558  .debug_str:0000000000011f80 .LASF3967
C:\Users\CYMR90~1\AppData\Local\Temp\cca5ocgO.s:25887  .debug_str:000000000001b7fd .LASF3968
C:\Users\CYMR90~1\AppData\Local\Temp\cca5ocgO.s:19982  .debug_str:0000000000003a4e .LASF3969
C:\Users\CYMR90~1\AppData\Local\Temp\cca5ocgO.s:24286  .debug_str:0000000000014e8e .LASF3970
C:\Users\CYMR90~1\AppData\Local\Temp\cca5ocgO.s:27475  .debug_str:0000000000021bcd .LASF3971
C:\Users\CYMR90~1\AppData\Local\Temp\cca5ocgO.s:19826  .debug_str:000000000000300c .LASF3972
C:\Users\CYMR90~1\AppData\Local\Temp\cca5ocgO.s:21148  .debug_str:0000000000008609 .LASF3973
C:\Users\CYMR90~1\AppData\Local\Temp\cca5ocgO.s:25093  .debug_str:00000000000181db .LASF3974
C:\Users\CYMR90~1\AppData\Local\Temp\cca5ocgO.s:28981  .debug_str:0000000000027b95 .LASF3975
C:\Users\CYMR90~1\AppData\Local\Temp\cca5ocgO.s:27823  .debug_str:0000000000023029 .LASF3976
C:\Users\CYMR90~1\AppData\Local\Temp\cca5ocgO.s:30167  .debug_str:000000000002c7a0 .LASF3977
C:\Users\CYMR90~1\AppData\Local\Temp\cca5ocgO.s:29541  .debug_str:0000000000029f17 .LASF3978
C:\Users\CYMR90~1\AppData\Local\Temp\cca5ocgO.s:26533  .debug_str:000000000001e1f5 .LASF3979
C:\Users\CYMR90~1\AppData\Local\Temp\cca5ocgO.s:19708  .debug_str:00000000000028dc .LASF3980
C:\Users\CYMR90~1\AppData\Local\Temp\cca5ocgO.s:28423  .debug_str:000000000002588e .LASF3981
C:\Users\CYMR90~1\AppData\Local\Temp\cca5ocgO.s:21086  .debug_str:0000000000008222 .LASF3982
C:\Users\CYMR90~1\AppData\Local\Temp\cca5ocgO.s:25019  .debug_str:0000000000017d5e .LASF3983
C:\Users\CYMR90~1\AppData\Local\Temp\cca5ocgO.s:29745  .debug_str:000000000002ab53 .LASF3984
C:\Users\CYMR90~1\AppData\Local\Temp\cca5ocgO.s:20032  .debug_str:0000000000003d8c .LASF3985
C:\Users\CYMR90~1\AppData\Local\Temp\cca5ocgO.s:25507  .debug_str:0000000000019de5 .LASF3986
C:\Users\CYMR90~1\AppData\Local\Temp\cca5ocgO.s:29485  .debug_str:0000000000029bed .LASF3987
C:\Users\CYMR90~1\AppData\Local\Temp\cca5ocgO.s:27909  .debug_str:000000000002356d .LASF3988
C:\Users\CYMR90~1\AppData\Local\Temp\cca5ocgO.s:26973  .debug_str:000000000001fcd4 .LASF3989
C:\Users\CYMR90~1\AppData\Local\Temp\cca5ocgO.s:28255  .debug_str:0000000000024c4b .LASF3990
C:\Users\CYMR90~1\AppData\Local\Temp\cca5ocgO.s:23436  .debug_str:00000000000116ba .LASF3991
C:\Users\CYMR90~1\AppData\Local\Temp\cca5ocgO.s:24957  .debug_str:00000000000179e0 .LASF3992
C:\Users\CYMR90~1\AppData\Local\Temp\cca5ocgO.s:21240  .debug_str:0000000000008b9d .LASF3993
C:\Users\CYMR90~1\AppData\Local\Temp\cca5ocgO.s:25667  .debug_str:000000000001a948 .LASF3994
C:\Users\CYMR90~1\AppData\Local\Temp\cca5ocgO.s:25911  .debug_str:000000000001b98c .LASF3995
C:\Users\CYMR90~1\AppData\Local\Temp\cca5ocgO.s:29417  .debug_str:00000000000297e2 .LASF3996
C:\Users\CYMR90~1\AppData\Local\Temp\cca5ocgO.s:20110  .debug_str:00000000000042f6 .LASF3997
C:\Users\CYMR90~1\AppData\Local\Temp\cca5ocgO.s:22488  .debug_str:000000000000dc3d .LASF3998
C:\Users\CYMR90~1\AppData\Local\Temp\cca5ocgO.s:25299  .debug_str:0000000000018f47 .LASF3999
C:\Users\CYMR90~1\AppData\Local\Temp\cca5ocgO.s:20948  .debug_str:00000000000077f3 .LASF4000
C:\Users\CYMR90~1\AppData\Local\Temp\cca5ocgO.s:24889  .debug_str:0000000000017562 .LASF4001
C:\Users\CYMR90~1\AppData\Local\Temp\cca5ocgO.s:27891  .debug_str:0000000000023401 .LASF4002
C:\Users\CYMR90~1\AppData\Local\Temp\cca5ocgO.s:21420  .debug_str:00000000000096c3 .LASF4003
C:\Users\CYMR90~1\AppData\Local\Temp\cca5ocgO.s:30221  .debug_str:000000000002cb10 .LASF4004
C:\Users\CYMR90~1\AppData\Local\Temp\cca5ocgO.s:29355  .debug_str:00000000000293e9 .LASF4005
C:\Users\CYMR90~1\AppData\Local\Temp\cca5ocgO.s:22004  .debug_str:000000000000bd11 .LASF4006
C:\Users\CYMR90~1\AppData\Local\Temp\cca5ocgO.s:25985  .debug_str:000000000001bdce .LASF4007
C:\Users\CYMR90~1\AppData\Local\Temp\cca5ocgO.s:28277  .debug_str:0000000000024dd9 .LASF4008
C:\Users\CYMR90~1\AppData\Local\Temp\cca5ocgO.s:24352  .debug_str:00000000000152dc .LASF4009
C:\Users\CYMR90~1\AppData\Local\Temp\cca5ocgO.s:24829  .debug_str:00000000000171d8 .LASF4010
C:\Users\CYMR90~1\AppData\Local\Temp\cca5ocgO.s:28221  .debug_str:0000000000024a0b .LASF4011
C:\Users\CYMR90~1\AppData\Local\Temp\cca5ocgO.s:19278  .debug_str:0000000000000e53 .LASF4012
C:\Users\CYMR90~1\AppData\Local\Temp\cca5ocgO.s:25329  .debug_str:00000000000191ee .LASF4013
C:\Users\CYMR90~1\AppData\Local\Temp\cca5ocgO.s:24835  .debug_str:0000000000017244 .LASF4014
C:\Users\CYMR90~1\AppData\Local\Temp\cca5ocgO.s:27137  .debug_str:00000000000206fe .LASF4015
C:\Users\CYMR90~1\AppData\Local\Temp\cca5ocgO.s:29465  .debug_str:0000000000029aaa .LASF4016
C:\Users\CYMR90~1\AppData\Local\Temp\cca5ocgO.s:29767  .debug_str:000000000002acb8 .LASF4017
C:\Users\CYMR90~1\AppData\Local\Temp\cca5ocgO.s:22858  .debug_str:000000000000f354 .LASF4018
C:\Users\CYMR90~1\AppData\Local\Temp\cca5ocgO.s:30171  .debug_str:000000000002c7ec .LASF4019
C:\Users\CYMR90~1\AppData\Local\Temp\cca5ocgO.s:28643  .debug_str:0000000000026618 .LASF4020
C:\Users\CYMR90~1\AppData\Local\Temp\cca5ocgO.s:27227  .debug_str:0000000000020c67 .LASF4021
C:\Users\CYMR90~1\AppData\Local\Temp\cca5ocgO.s:25263  .debug_str:0000000000018d14 .LASF4022
C:\Users\CYMR90~1\AppData\Local\Temp\cca5ocgO.s:29225  .debug_str:0000000000028be4 .LASF4023
C:\Users\CYMR90~1\AppData\Local\Temp\cca5ocgO.s:28129  .debug_str:00000000000243ee .LASF4024
C:\Users\CYMR90~1\AppData\Local\Temp\cca5ocgO.s:25817  .debug_str:000000000001b337 .LASF4025
C:\Users\CYMR90~1\AppData\Local\Temp\cca5ocgO.s:29697  .debug_str:000000000002a85c .LASF4026
C:\Users\CYMR90~1\AppData\Local\Temp\cca5ocgO.s:22366  .debug_str:000000000000d565 .LASF4027
C:\Users\CYMR90~1\AppData\Local\Temp\cca5ocgO.s:28645  .debug_str:000000000002663e .LASF4028
C:\Users\CYMR90~1\AppData\Local\Temp\cca5ocgO.s:24730  .debug_str:0000000000016a10 .LASF4029
C:\Users\CYMR90~1\AppData\Local\Temp\cca5ocgO.s:21244  .debug_str:0000000000008bd7 .LASF4030
C:\Users\CYMR90~1\AppData\Local\Temp\cca5ocgO.s:25187  .debug_str:000000000001875e .LASF4031
C:\Users\CYMR90~1\AppData\Local\Temp\cca5ocgO.s:23226  .debug_str:000000000001098e .LASF4032
C:\Users\CYMR90~1\AppData\Local\Temp\cca5ocgO.s:21812  .debug_str:000000000000b047 .LASF4033
C:\Users\CYMR90~1\AppData\Local\Temp\cca5ocgO.s:25223  .debug_str:00000000000189f0 .LASF4034
C:\Users\CYMR90~1\AppData\Local\Temp\cca5ocgO.s:25431  .debug_str:000000000001987d .LASF4035
C:\Users\CYMR90~1\AppData\Local\Temp\cca5ocgO.s:29853  .debug_str:000000000002b22f .LASF4036
C:\Users\CYMR90~1\AppData\Local\Temp\cca5ocgO.s:20868  .debug_str:0000000000007300 .LASF4037
C:\Users\CYMR90~1\AppData\Local\Temp\cca5ocgO.s:30121  .debug_str:000000000002c4d8 .LASF4038
C:\Users\CYMR90~1\AppData\Local\Temp\cca5ocgO.s:27189  .debug_str:0000000000020a2f .LASF4039
C:\Users\CYMR90~1\AppData\Local\Temp\cca5ocgO.s:20808  .debug_str:0000000000006eb3 .LASF4040
C:\Users\CYMR90~1\AppData\Local\Temp\cca5ocgO.s:29095  .debug_str:00000000000283a2 .LASF4041
C:\Users\CYMR90~1\AppData\Local\Temp\cca5ocgO.s:21744  .debug_str:000000000000ab1f .LASF4042
C:\Users\CYMR90~1\AppData\Local\Temp\cca5ocgO.s:20412  .debug_str:0000000000005645 .LASF4043
C:\Users\CYMR90~1\AppData\Local\Temp\cca5ocgO.s:21186  .debug_str:000000000000882b .LASF4044
C:\Users\CYMR90~1\AppData\Local\Temp\cca5ocgO.s:22242  .debug_str:000000000000cd69 .LASF4045
C:\Users\CYMR90~1\AppData\Local\Temp\cca5ocgO.s:26139  .debug_str:000000000001c73a .LASF4046
C:\Users\CYMR90~1\AppData\Local\Temp\cca5ocgO.s:30057  .debug_str:000000000002c035 .LASF4047
C:\Users\CYMR90~1\AppData\Local\Temp\cca5ocgO.s:22794  .debug_str:000000000000ef64 .LASF4048
C:\Users\CYMR90~1\AppData\Local\Temp\cca5ocgO.s:26917  .debug_str:000000000001f956 .LASF4049
C:\Users\CYMR90~1\AppData\Local\Temp\cca5ocgO.s:27531  .debug_str:0000000000021f4e .LASF4050
C:\Users\CYMR90~1\AppData\Local\Temp\cca5ocgO.s:29881  .debug_str:000000000002b43b .LASF4051
C:\Users\CYMR90~1\AppData\Local\Temp\cca5ocgO.s:25631  .debug_str:000000000001a68c .LASF4052
C:\Users\CYMR90~1\AppData\Local\Temp\cca5ocgO.s:28235  .debug_str:0000000000024b0a .LASF4053
C:\Users\CYMR90~1\AppData\Local\Temp\cca5ocgO.s:25603  .debug_str:000000000001a523 .LASF4054
C:\Users\CYMR90~1\AppData\Local\Temp\cca5ocgO.s:26069  .debug_str:000000000001c337 .LASF4055
C:\Users\CYMR90~1\AppData\Local\Temp\cca5ocgO.s:19172  .debug_str:000000000000079f .LASF4056
C:\Users\CYMR90~1\AppData\Local\Temp\cca5ocgO.s:22164  .debug_str:000000000000c722 .LASF4057
C:\Users\CYMR90~1\AppData\Local\Temp\cca5ocgO.s:22338  .debug_str:000000000000d364 .LASF4058
C:\Users\CYMR90~1\AppData\Local\Temp\cca5ocgO.s:20480  .debug_str:0000000000005aac .LASF4059
C:\Users\CYMR90~1\AppData\Local\Temp\cca5ocgO.s:21614  .debug_str:000000000000a300 .LASF4060
C:\Users\CYMR90~1\AppData\Local\Temp\cca5ocgO.s:25549  .debug_str:000000000001a059 .LASF4061
C:\Users\CYMR90~1\AppData\Local\Temp\cca5ocgO.s:29439  .debug_str:0000000000029929 .LASF4062
C:\Users\CYMR90~1\AppData\Local\Temp\cca5ocgO.s:22096  .debug_str:000000000000c309 .LASF4063
C:\Users\CYMR90~1\AppData\Local\Temp\cca5ocgO.s:26011  .debug_str:000000000001bf9d .LASF4064
C:\Users\CYMR90~1\AppData\Local\Temp\cca5ocgO.s:26249  .debug_str:000000000001cf72 .LASF4065
C:\Users\CYMR90~1\AppData\Local\Temp\cca5ocgO.s:25687  .debug_str:000000000001aaa2 .LASF4066
C:\Users\CYMR90~1\AppData\Local\Temp\cca5ocgO.s:26541  .debug_str:000000000001e278 .LASF4067
C:\Users\CYMR90~1\AppData\Local\Temp\cca5ocgO.s:30123  .debug_str:000000000002c4fe .LASF4068
C:\Users\CYMR90~1\AppData\Local\Temp\cca5ocgO.s:21698  .debug_str:000000000000a862 .LASF4069
C:\Users\CYMR90~1\AppData\Local\Temp\cca5ocgO.s:20162  .debug_str:0000000000004666 .LASF4070
C:\Users\CYMR90~1\AppData\Local\Temp\cca5ocgO.s:24204  .debug_str:000000000001496a .LASF4071
C:\Users\CYMR90~1\AppData\Local\Temp\cca5ocgO.s:28107  .debug_str:0000000000024247 .LASF4072
C:\Users\CYMR90~1\AppData\Local\Temp\cca5ocgO.s:29833  .debug_str:000000000002b0d4 .LASF4073
C:\Users\CYMR90~1\AppData\Local\Temp\cca5ocgO.s:27607  .debug_str:000000000002239f .LASF4074
C:\Users\CYMR90~1\AppData\Local\Temp\cca5ocgO.s:29961  .debug_str:000000000002b972 .LASF4075
C:\Users\CYMR90~1\AppData\Local\Temp\cca5ocgO.s:20712  .debug_str:00000000000068af .LASF4076
C:\Users\CYMR90~1\AppData\Local\Temp\cca5ocgO.s:25181  .debug_str:0000000000018712 .LASF4077
C:\Users\CYMR90~1\AppData\Local\Temp\cca5ocgO.s:29157  .debug_str:0000000000028808 .LASF4078
C:\Users\CYMR90~1\AppData\Local\Temp\cca5ocgO.s:28489  .debug_str:0000000000025c76 .LASF4079
C:\Users\CYMR90~1\AppData\Local\Temp\cca5ocgO.s:24144  .debug_str:0000000000014540 .LASF4080
C:\Users\CYMR90~1\AppData\Local\Temp\cca5ocgO.s:28041  .debug_str:0000000000023d2f .LASF4081
C:\Users\CYMR90~1\AppData\Local\Temp\cca5ocgO.s:28773  .debug_str:0000000000026df0 .LASF4082
C:\Users\CYMR90~1\AppData\Local\Temp\cca5ocgO.s:26347  .debug_str:000000000001d5ef .LASF4083
C:\Users\CYMR90~1\AppData\Local\Temp\cca5ocgO.s:27069  .debug_str:00000000000202a4 .LASF4084
C:\Users\CYMR90~1\AppData\Local\Temp\cca5ocgO.s:23208  .debug_str:0000000000010884 .LASF4085
C:\Users\CYMR90~1\AppData\Local\Temp\cca5ocgO.s:25109  .debug_str:00000000000182d1 .LASF4086
C:\Users\CYMR90~1\AppData\Local\Temp\cca5ocgO.s:29085  .debug_str:00000000000282f6 .LASF4087
C:\Users\CYMR90~1\AppData\Local\Temp\cca5ocgO.s:21060  .debug_str:0000000000007fe5 .LASF4088
C:\Users\CYMR90~1\AppData\Local\Temp\cca5ocgO.s:28379  .debug_str:0000000000025522 .LASF4089
C:\Users\CYMR90~1\AppData\Local\Temp\cca5ocgO.s:29981  .debug_str:000000000002bac8 .LASF4090
C:\Users\CYMR90~1\AppData\Local\Temp\cca5ocgO.s:21412  .debug_str:000000000000964a .LASF4091
C:\Users\CYMR90~1\AppData\Local\Temp\cca5ocgO.s:24544  .debug_str:0000000000015e63 .LASF4092
C:\Users\CYMR90~1\AppData\Local\Temp\cca5ocgO.s:28439  .debug_str:000000000002597b .LASF4093
C:\Users\CYMR90~1\AppData\Local\Temp\cca5ocgO.s:23624  .debug_str:00000000000123d1 .LASF4094
C:\Users\CYMR90~1\AppData\Local\Temp\cca5ocgO.s:23668  .debug_str:000000000001269e .LASF4095
C:\Users\CYMR90~1\AppData\Local\Temp\cca5ocgO.s:22270  .debug_str:000000000000cec6 .LASF4096
C:\Users\CYMR90~1\AppData\Local\Temp\cca5ocgO.s:21670  .debug_str:000000000000a67d .LASF4097
C:\Users\CYMR90~1\AppData\Local\Temp\cca5ocgO.s:25621  .debug_str:000000000001a5f3 .LASF4098
C:\Users\CYMR90~1\AppData\Local\Temp\cca5ocgO.s:22676  .debug_str:000000000000e843 .LASF4099
C:\Users\CYMR90~1\AppData\Local\Temp\cca5ocgO.s:20524  .debug_str:0000000000005cfe .LASF4100
C:\Users\CYMR90~1\AppData\Local\Temp\cca5ocgO.s:26807  .debug_str:000000000001f297 .LASF4101
C:\Users\CYMR90~1\AppData\Local\Temp\cca5ocgO.s:28377  .debug_str:00000000000254fc .LASF4102
C:\Users\CYMR90~1\AppData\Local\Temp\cca5ocgO.s:28169  .debug_str:000000000002467c .LASF4103
C:\Users\CYMR90~1\AppData\Local\Temp\cca5ocgO.s:20092  .debug_str:00000000000041f1 .LASF4104
C:\Users\CYMR90~1\AppData\Local\Temp\cca5ocgO.s:25789  .debug_str:000000000001b126 .LASF4105
C:\Users\CYMR90~1\AppData\Local\Temp\cca5ocgO.s:23290  .debug_str:0000000000010dd5 .LASF4106
C:\Users\CYMR90~1\AppData\Local\Temp\cca5ocgO.s:25541  .debug_str:0000000000019fe1 .LASF4107
C:\Users\CYMR90~1\AppData\Local\Temp\cca5ocgO.s:29433  .debug_str:00000000000298bf .LASF4108
C:\Users\CYMR90~1\AppData\Local\Temp\cca5ocgO.s:28755  .debug_str:0000000000026cd0 .LASF4109
C:\Users\CYMR90~1\AppData\Local\Temp\cca5ocgO.s:24424  .debug_str:00000000000156e7 .LASF4110
C:\Users\CYMR90~1\AppData\Local\Temp\cca5ocgO.s:30067  .debug_str:000000000002c102 .LASF4111
C:\Users\CYMR90~1\AppData\Local\Temp\cca5ocgO.s:20956  .debug_str:0000000000007885 .LASF4112
C:\Users\CYMR90~1\AppData\Local\Temp\cca5ocgO.s:28321  .debug_str:00000000000250b2 .LASF4113
C:\Users\CYMR90~1\AppData\Local\Temp\cca5ocgO.s:30289  .debug_str:000000000002cfa1 .LASF4114
C:\Users\CYMR90~1\AppData\Local\Temp\cca5ocgO.s:20248  .debug_str:0000000000004c87 .LASF4115
C:\Users\CYMR90~1\AppData\Local\Temp\cca5ocgO.s:25483  .debug_str:0000000000019c69 .LASF4116
C:\Users\CYMR90~1\AppData\Local\Temp\cca5ocgO.s:20474  .debug_str:0000000000005a18 .LASF4117
C:\Users\CYMR90~1\AppData\Local\Temp\cca5ocgO.s:22016  .debug_str:000000000000bde8 .LASF4118
C:\Users\CYMR90~1\AppData\Local\Temp\cca5ocgO.s:23354  .debug_str:000000000001117e .LASF4119
C:\Users\CYMR90~1\AppData\Local\Temp\cca5ocgO.s:21512  .debug_str:0000000000009ca7 .LASF4120
C:\Users\CYMR90~1\AppData\Local\Temp\cca5ocgO.s:28529  .debug_str:0000000000025f18 .LASF4121
C:\Users\CYMR90~1\AppData\Local\Temp\cca5ocgO.s:24927  .debug_str:00000000000177b9 .LASF4122
C:\Users\CYMR90~1\AppData\Local\Temp\cca5ocgO.s:21482  .debug_str:0000000000009ad5 .LASF4123
C:\Users\CYMR90~1\AppData\Local\Temp\cca5ocgO.s:26129  .debug_str:000000000001c683 .LASF4124
C:\Users\CYMR90~1\AppData\Local\Temp\cca5ocgO.s:25427  .debug_str:0000000000019832 .LASF4125
C:\Users\CYMR90~1\AppData\Local\Temp\cca5ocgO.s:29309  .debug_str:0000000000029132 .LASF4126
C:\Users\CYMR90~1\AppData\Local\Temp\cca5ocgO.s:19474  .debug_str:0000000000001ad7 .LASF4127
C:\Users\CYMR90~1\AppData\Local\Temp\cca5ocgO.s:21828  .debug_str:000000000000b15e .LASF4128
C:\Users\CYMR90~1\AppData\Local\Temp\cca5ocgO.s:22968  .debug_str:000000000000fa69 .LASF4129
C:\Users\CYMR90~1\AppData\Local\Temp\cca5ocgO.s:20818  .debug_str:0000000000006f3c .LASF4130
C:\Users\CYMR90~1\AppData\Local\Temp\cca5ocgO.s:24863  .debug_str:00000000000173e1 .LASF4131
C:\Users\CYMR90~1\AppData\Local\Temp\cca5ocgO.s:28747  .debug_str:0000000000026c58 .LASF4132
C:\Users\CYMR90~1\AppData\Local\Temp\cca5ocgO.s:27277  .debug_str:0000000000020f6e .LASF4133
C:\Users\CYMR90~1\AppData\Local\Temp\cca5ocgO.s:25363  .debug_str:00000000000193e2 .LASF4134
C:\Users\CYMR90~1\AppData\Local\Temp\cca5ocgO.s:20640  .debug_str:000000000000643b .LASF4135
C:\Users\CYMR90~1\AppData\Local\Temp\cca5ocgO.s:21892  .debug_str:000000000000b590 .LASF4136
C:\Users\CYMR90~1\AppData\Local\Temp\cca5ocgO.s:25355  .debug_str:000000000001936c .LASF4137
C:\Users\CYMR90~1\AppData\Local\Temp\cca5ocgO.s:23516  .debug_str:0000000000011ca8 .LASF4138
C:\Users\CYMR90~1\AppData\Local\Temp\cca5ocgO.s:20556  .debug_str:0000000000005ef3 .LASF4139
C:\Users\CYMR90~1\AppData\Local\Temp\cca5ocgO.s:24799  .debug_str:000000000001701e .LASF4140
C:\Users\CYMR90~1\AppData\Local\Temp\cca5ocgO.s:28679  .debug_str:000000000002682d .LASF4141
C:\Users\CYMR90~1\AppData\Local\Temp\cca5ocgO.s:21346  .debug_str:0000000000009230 .LASF4142
C:\Users\CYMR90~1\AppData\Local\Temp\cca5ocgO.s:19438  .debug_str:00000000000018ac .LASF4143
C:\Users\CYMR90~1\AppData\Local\Temp\cca5ocgO.s:25463  .debug_str:0000000000019b1a .LASF4144
C:\Users\CYMR90~1\AppData\Local\Temp\cca5ocgO.s:21826  .debug_str:000000000000b138 .LASF4145
C:\Users\CYMR90~1\AppData\Local\Temp\cca5ocgO.s:25779  .debug_str:000000000001b08d .LASF4146
C:\Users\CYMR90~1\AppData\Local\Temp\cca5ocgO.s:29643  .debug_str:000000000002a532 .LASF4147
C:\Users\CYMR90~1\AppData\Local\Temp\cca5ocgO.s:22402  .debug_str:000000000000d7a7 .LASF4148
C:\Users\CYMR90~1\AppData\Local\Temp\cca5ocgO.s:19444  .debug_str:0000000000001912 .LASF4149
C:\Users\CYMR90~1\AppData\Local\Temp\cca5ocgO.s:28617  .debug_str:0000000000026456 .LASF4150
C:\Users\CYMR90~1\AppData\Local\Temp\cca5ocgO.s:23046  .debug_str:000000000000fe9b .LASF4151
C:\Users\CYMR90~1\AppData\Local\Temp\cca5ocgO.s:25525  .debug_str:0000000000019ee6 .LASF4152
C:\Users\CYMR90~1\AppData\Local\Temp\cca5ocgO.s:27661  .debug_str:00000000000226a3 .LASF4153
C:\Users\CYMR90~1\AppData\Local\Temp\cca5ocgO.s:30011  .debug_str:000000000002bcd9 .LASF4154
C:\Users\CYMR90~1\AppData\Local\Temp\cca5ocgO.s:25717  .debug_str:000000000001ac4e .LASF4155
C:\Users\CYMR90~1\AppData\Local\Temp\cca5ocgO.s:29585  .debug_str:000000000002a16c .LASF4156
C:\Users\CYMR90~1\AppData\Local\Temp\cca5ocgO.s:26557  .debug_str:000000000001e34d .LASF4157
C:\Users\CYMR90~1\AppData\Local\Temp\cca5ocgO.s:28885  .debug_str:0000000000027535 .LASF4158
C:\Users\CYMR90~1\AppData\Local\Temp\cca5ocgO.s:23340  .debug_str:000000000001109e .LASF4159
C:\Users\CYMR90~1\AppData\Local\Temp\cca5ocgO.s:21216  .debug_str:0000000000008a17 .LASF4160
C:\Users\CYMR90~1\AppData\Local\Temp\cca5ocgO.s:25155  .debug_str:00000000000185c8 .LASF4161
C:\Users\CYMR90~1\AppData\Local\Temp\cca5ocgO.s:22024  .debug_str:000000000000be77 .LASF4162
C:\Users\CYMR90~1\AppData\Local\Temp\cca5ocgO.s:23316  .debug_str:0000000000010f26 .LASF4163
C:\Users\CYMR90~1\AppData\Local\Temp\cca5ocgO.s:25643  .debug_str:000000000001a768 .LASF4164
C:\Users\CYMR90~1\AppData\Local\Temp\cca5ocgO.s:24026  .debug_str:0000000000013df2 .LASF4165
C:\Users\CYMR90~1\AppData\Local\Temp\cca5ocgO.s:26599  .debug_str:000000000001e5e0 .LASF4166
C:\Users\CYMR90~1\AppData\Local\Temp\cca5ocgO.s:27339  .debug_str:00000000000212f7 .LASF4167
C:\Users\CYMR90~1\AppData\Local\Temp\cca5ocgO.s:23460  .debug_str:00000000000118dd .LASF4168
C:\Users\CYMR90~1\AppData\Local\Temp\cca5ocgO.s:21742  .debug_str:000000000000aaf9 .LASF4169
C:\Users\CYMR90~1\AppData\Local\Temp\cca5ocgO.s:19870  .debug_str:00000000000032ec .LASF4170
C:\Users\CYMR90~1\AppData\Local\Temp\cca5ocgO.s:23828  .debug_str:0000000000013152 .LASF4171
C:\Users\CYMR90~1\AppData\Local\Temp\cca5ocgO.s:27373  .debug_str:00000000000215a3 .LASF4172
C:\Users\CYMR90~1\AppData\Local\Temp\cca5ocgO.s:20320  .debug_str:00000000000050ea .LASF4173
C:\Users\CYMR90~1\AppData\Local\Temp\cca5ocgO.s:24282  .debug_str:0000000000014e46 .LASF4174
C:\Users\CYMR90~1\AppData\Local\Temp\cca5ocgO.s:28179  .debug_str:0000000000024719 .LASF4175
C:\Users\CYMR90~1\AppData\Local\Temp\cca5ocgO.s:20810  .debug_str:0000000000006ed9 .LASF4176
C:\Users\CYMR90~1\AppData\Local\Temp\cca5ocgO.s:20106  .debug_str:00000000000042c7 .LASF4177
C:\Users\CYMR90~1\AppData\Local\Temp\cca5ocgO.s:28739  .debug_str:0000000000026bbd .LASF4178
C:\Users\CYMR90~1\AppData\Local\Temp\cca5ocgO.s:29333  .debug_str:0000000000029275 .LASF4179
C:\Users\CYMR90~1\AppData\Local\Temp\cca5ocgO.s:23774  .debug_str:0000000000012db9 .LASF4180
C:\Users\CYMR90~1\AppData\Local\Temp\cca5ocgO.s:27651  .debug_str:00000000000225e6 .LASF4181
C:\Users\CYMR90~1\AppData\Local\Temp\cca5ocgO.s:23610  .debug_str:00000000000122da .LASF4182
C:\Users\CYMR90~1\AppData\Local\Temp\cca5ocgO.s:24328  .debug_str:0000000000015177 .LASF4183
C:\Users\CYMR90~1\AppData\Local\Temp\cca5ocgO.s:30169  .debug_str:000000000002c7c6 .LASF4184
C:\Users\CYMR90~1\AppData\Local\Temp\cca5ocgO.s:28909  .debug_str:00000000000276a3 .LASF4185
C:\Users\CYMR90~1\AppData\Local\Temp\cca5ocgO.s:24698  .debug_str:00000000000167c6 .LASF4186
C:\Users\CYMR90~1\AppData\Local\Temp\cca5ocgO.s:23200  .debug_str:0000000000010807 .LASF4187
C:\Users\CYMR90~1\AppData\Local\Temp\cca5ocgO.s:21338  .debug_str:00000000000091c1 .LASF4188
C:\Users\CYMR90~1\AppData\Local\Temp\cca5ocgO.s:29693  .debug_str:000000000002a812 .LASF4189
C:\Users\CYMR90~1\AppData\Local\Temp\cca5ocgO.s:27581  .debug_str:0000000000022225 .LASF4190
C:\Users\CYMR90~1\AppData\Local\Temp\cca5ocgO.s:24582  .debug_str:000000000001613b .LASF4191
C:\Users\CYMR90~1\AppData\Local\Temp\cca5ocgO.s:27759  .debug_str:0000000000022cb5 .LASF4192
C:\Users\CYMR90~1\AppData\Local\Temp\cca5ocgO.s:22894  .debug_str:000000000000f583 .LASF4193
C:\Users\CYMR90~1\AppData\Local\Temp\cca5ocgO.s:20674  .debug_str:0000000000006613 .LASF4194
C:\Users\CYMR90~1\AppData\Local\Temp\cca5ocgO.s:24628  .debug_str:00000000000163f4 .LASF4195
C:\Users\CYMR90~1\AppData\Local\Temp\cca5ocgO.s:28609  .debug_str:00000000000263be .LASF4196
C:\Users\CYMR90~1\AppData\Local\Temp\cca5ocgO.s:21280  .debug_str:0000000000008e7a .LASF4197
C:\Users\CYMR90~1\AppData\Local\Temp\cca5ocgO.s:25219  .debug_str:0000000000018990 .LASF4198
C:\Users\CYMR90~1\AppData\Local\Temp\cca5ocgO.s:22296  .debug_str:000000000000d095 .LASF4199
C:\Users\CYMR90~1\AppData\Local\Temp\cca5ocgO.s:20142  .debug_str:000000000000451b .LASF4200
C:\Users\CYMR90~1\AppData\Local\Temp\cca5ocgO.s:24088  .debug_str:0000000000014219 .LASF4201
C:\Users\CYMR90~1\AppData\Local\Temp\cca5ocgO.s:22038  .debug_str:000000000000bf78 .LASF4202
C:\Users\CYMR90~1\AppData\Local\Temp\cca5ocgO.s:20610  .debug_str:000000000000624b .LASF4203
C:\Users\CYMR90~1\AppData\Local\Temp\cca5ocgO.s:19758  .debug_str:0000000000002bf2 .LASF4204
C:\Users\CYMR90~1\AppData\Local\Temp\cca5ocgO.s:30175  .debug_str:000000000002c836 .LASF4205
C:\Users\CYMR90~1\AppData\Local\Temp\cca5ocgO.s:21228  .debug_str:0000000000008ad7 .LASF4206
C:\Users\CYMR90~1\AppData\Local\Temp\cca5ocgO.s:25149  .debug_str:000000000001855a .LASF4207
C:\Users\CYMR90~1\AppData\Local\Temp\cca5ocgO.s:19514  .debug_str:0000000000001d3f .LASF4208
C:\Users\CYMR90~1\AppData\Local\Temp\cca5ocgO.s:26135  .debug_str:000000000001c6da .LASF4209
C:\Users\CYMR90~1\AppData\Local\Temp\cca5ocgO.s:24022  .debug_str:0000000000013daf .LASF4210
C:\Users\CYMR90~1\AppData\Local\Temp\cca5ocgO.s:27927  .debug_str:000000000002368b .LASF4211
C:\Users\CYMR90~1\AppData\Local\Temp\cca5ocgO.s:24434  .debug_str:0000000000015799 .LASF4212
C:\Users\CYMR90~1\AppData\Local\Temp\cca5ocgO.s:29087  .debug_str:000000000002831c .LASF4213
C:\Users\CYMR90~1\AppData\Local\Temp\cca5ocgO.s:22418  .debug_str:000000000000d88e .LASF4214
C:\Users\CYMR90~1\AppData\Local\Temp\cca5ocgO.s:21136  .debug_str:0000000000008561 .LASF4215
C:\Users\CYMR90~1\AppData\Local\Temp\cca5ocgO.s:27041  .debug_str:0000000000020130 .LASF4216
C:\Users\CYMR90~1\AppData\Local\Temp\cca5ocgO.s:28971  .debug_str:0000000000027ae9 .LASF4217
C:\Users\CYMR90~1\AppData\Local\Temp\cca5ocgO.s:21618  .debug_str:000000000000a33e .LASF4218
C:\Users\CYMR90~1\AppData\Local\Temp\cca5ocgO.s:29993  .debug_str:000000000002bb93 .LASF4219
C:\Users\CYMR90~1\AppData\Local\Temp\cca5ocgO.s:20920  .debug_str:0000000000007629 .LASF4220
C:\Users\CYMR90~1\AppData\Local\Temp\cca5ocgO.s:20470  .debug_str:00000000000059c0 .LASF4221
C:\Users\CYMR90~1\AppData\Local\Temp\cca5ocgO.s:23590  .debug_str:00000000000121c9 .LASF4222
C:\Users\CYMR90~1\AppData\Local\Temp\cca5ocgO.s:24478  .debug_str:0000000000015a2d .LASF4223
C:\Users\CYMR90~1\AppData\Local\Temp\cca5ocgO.s:21072  .debug_str:000000000000812a .LASF4224
C:\Users\CYMR90~1\AppData\Local\Temp\cca5ocgO.s:24494  .debug_str:0000000000015b1a .LASF4225
C:\Users\CYMR90~1\AppData\Local\Temp\cca5ocgO.s:21606  .debug_str:000000000000a279 .LASF4226
C:\Users\CYMR90~1\AppData\Local\Temp\cca5ocgO.s:19742  .debug_str:0000000000002ae8 .LASF4227
C:\Users\CYMR90~1\AppData\Local\Temp\cca5ocgO.s:27015  .debug_str:000000000001ffaf .LASF4228
C:\Users\CYMR90~1\AppData\Local\Temp\cca5ocgO.s:21810  .debug_str:000000000000b021 .LASF4229
C:\Users\CYMR90~1\AppData\Local\Temp\cca5ocgO.s:20406  .debug_str:00000000000055f9 .LASF4230
C:\Users\CYMR90~1\AppData\Local\Temp\cca5ocgO.s:21024  .debug_str:0000000000007cd1 .LASF4231
C:\Users\CYMR90~1\AppData\Local\Temp\cca5ocgO.s:29393  .debug_str:000000000002968a .LASF4232
C:\Users\CYMR90~1\AppData\Local\Temp\cca5ocgO.s:20996  .debug_str:0000000000007b44 .LASF4233
C:\Users\CYMR90~1\AppData\Local\Temp\cca5ocgO.s:20572  .debug_str:0000000000005fea .LASF4234
C:\Users\CYMR90~1\AppData\Local\Temp\cca5ocgO.s:21354  .debug_str:00000000000092b6 .LASF4235
C:\Users\CYMR90~1\AppData\Local\Temp\cca5ocgO.s:28005  .debug_str:0000000000023b22 .LASF4236
C:\Users\CYMR90~1\AppData\Local\Temp\cca5ocgO.s:20186  .debug_str:0000000000004814 .LASF4237
C:\Users\CYMR90~1\AppData\Local\Temp\cca5ocgO.s:20762  .debug_str:0000000000006ba8 .LASF4238
C:\Users\CYMR90~1\AppData\Local\Temp\cca5ocgO.s:29863  .debug_str:000000000002b2e3 .LASF4239
C:\Users\CYMR90~1\AppData\Local\Temp\cca5ocgO.s:20348  .debug_str:00000000000052a2 .LASF4240
C:\Users\CYMR90~1\AppData\Local\Temp\cca5ocgO.s:21626  .debug_str:000000000000a3ee .LASF4241
C:\Users\CYMR90~1\AppData\Local\Temp\cca5ocgO.s:20932  .debug_str:00000000000076f9 .LASF4242
C:\Users\CYMR90~1\AppData\Local\Temp\cca5ocgO.s:26287  .debug_str:000000000001d23b .LASF4243
C:\Users\CYMR90~1\AppData\Local\Temp\cca5ocgO.s:28575  .debug_str:00000000000261bc .LASF4244
C:\Users\CYMR90~1\AppData\Local\Temp\cca5ocgO.s:19634  .debug_str:00000000000023f8 .LASF4245
C:\Users\CYMR90~1\AppData\Local\Temp\cca5ocgO.s:21980  .debug_str:000000000000bb27 .LASF4246
C:\Users\CYMR90~1\AppData\Local\Temp\cca5ocgO.s:29341  .debug_str:00000000000292f0 .LASF4247
C:\Users\CYMR90~1\AppData\Local\Temp\cca5ocgO.s:21750  .debug_str:000000000000ab97 .LASF4248
C:\Users\CYMR90~1\AppData\Local\Temp\cca5ocgO.s:19068  .debug_str:000000000000016d .LASF4249
C:\Users\CYMR90~1\AppData\Local\Temp\cca5ocgO.s:28225  .debug_str:0000000000024a43 .LASF4250
C:\Users\CYMR90~1\AppData\Local\Temp\cca5ocgO.s:20858  .debug_str:0000000000007216 .LASF4251
C:\Users\CYMR90~1\AppData\Local\Temp\cca5ocgO.s:24815  .debug_str:00000000000170f8 .LASF4252
C:\Users\CYMR90~1\AppData\Local\Temp\cca5ocgO.s:24206  .debug_str:0000000000014990 .LASF4253
C:\Users\CYMR90~1\AppData\Local\Temp\cca5ocgO.s:24953  .debug_str:0000000000017989 .LASF4254
C:\Users\CYMR90~1\AppData\Local\Temp\cca5ocgO.s:25719  .debug_str:000000000001ac74 .LASF4255
C:\Users\CYMR90~1\AppData\Local\Temp\cca5ocgO.s:28657  .debug_str:00000000000266ef .LASF4256
C:\Users\CYMR90~1\AppData\Local\Temp\cca5ocgO.s:28789  .debug_str:0000000000026ecc .LASF4257
C:\Users\CYMR90~1\AppData\Local\Temp\cca5ocgO.s:25857  .debug_str:000000000001b62a .LASF4258
C:\Users\CYMR90~1\AppData\Local\Temp\cca5ocgO.s:27863  .debug_str:0000000000023268 .LASF4259
C:\Users\CYMR90~1\AppData\Local\Temp\cca5ocgO.s:20786  .debug_str:0000000000006d4a .LASF4260
C:\Users\CYMR90~1\AppData\Local\Temp\cca5ocgO.s:24744  .debug_str:0000000000016af0 .LASF4261
C:\Users\CYMR90~1\AppData\Local\Temp\cca5ocgO.s:28631  .debug_str:0000000000026523 .LASF4262
C:\Users\CYMR90~1\AppData\Local\Temp\cca5ocgO.s:20130  .debug_str:000000000000444f .LASF4263
C:\Users\CYMR90~1\AppData\Local\Temp\cca5ocgO.s:25265  .debug_str:0000000000018d3a .LASF4264
C:\Users\CYMR90~1\AppData\Local\Temp\cca5ocgO.s:23892  .debug_str:00000000000135f4 .LASF4265
C:\Users\CYMR90~1\AppData\Local\Temp\cca5ocgO.s:25993  .debug_str:000000000001be51 .LASF4266
C:\Users\CYMR90~1\AppData\Local\Temp\cca5ocgO.s:25809  .debug_str:000000000001b2ab .LASF4267
C:\Users\CYMR90~1\AppData\Local\Temp\cca5ocgO.s:24252  .debug_str:0000000000014c31 .LASF4268
C:\Users\CYMR90~1\AppData\Local\Temp\cca5ocgO.s:20132  .debug_str:0000000000004475 .LASF4269
C:\Users\CYMR90~1\AppData\Local\Temp\cca5ocgO.s:28121  .debug_str:0000000000024375 .LASF4270
C:\Users\CYMR90~1\AppData\Local\Temp\cca5ocgO.s:23426  .debug_str:0000000000011619 .LASF4271
C:\Users\CYMR90~1\AppData\Local\Temp\cca5ocgO.s:27317  .debug_str:00000000000211a2 .LASF4272
C:\Users\CYMR90~1\AppData\Local\Temp\cca5ocgO.s:19952  .debug_str:0000000000003860 .LASF4273
C:\Users\CYMR90~1\AppData\Local\Temp\cca5ocgO.s:23910  .debug_str:0000000000013726 .LASF4274
C:\Users\CYMR90~1\AppData\Local\Temp\cca5ocgO.s:27229  .debug_str:0000000000020c8d .LASF4275
C:\Users\CYMR90~1\AppData\Local\Temp\cca5ocgO.s:26107  .debug_str:000000000001c548 .LASF4276
C:\Users\CYMR90~1\AppData\Local\Temp\cca5ocgO.s:25285  .debug_str:0000000000018e8f .LASF4277
C:\Users\CYMR90~1\AppData\Local\Temp\cca5ocgO.s:26819  .debug_str:000000000001f34b .LASF4278
C:\Users\CYMR90~1\AppData\Local\Temp\cca5ocgO.s:20128  .debug_str:0000000000004429 .LASF4279
C:\Users\CYMR90~1\AppData\Local\Temp\cca5ocgO.s:20060  .debug_str:0000000000003f8d .LASF4280
C:\Users\CYMR90~1\AppData\Local\Temp\cca5ocgO.s:27255  .debug_str:0000000000020e2f .LASF4281
C:\Users\CYMR90~1\AppData\Local\Temp\cca5ocgO.s:25247  .debug_str:0000000000018b54 .LASF4282
C:\Users\CYMR90~1\AppData\Local\Temp\cca5ocgO.s:23942  .debug_str:0000000000013902 .LASF4283
C:\Users\CYMR90~1\AppData\Local\Temp\cca5ocgO.s:27753  .debug_str:0000000000022c53 .LASF4284
C:\Users\CYMR90~1\AppData\Local\Temp\cca5ocgO.s:30269  .debug_str:000000000002ce5e .LASF4285
C:\Users\CYMR90~1\AppData\Local\Temp\cca5ocgO.s:21722  .debug_str:000000000000a9be .LASF4286
C:\Users\CYMR90~1\AppData\Local\Temp\cca5ocgO.s:22400  .debug_str:000000000000d79a .LASF4287
C:\Users\CYMR90~1\AppData\Local\Temp\cca5ocgO.s:27883  .debug_str:000000000002338e .LASF4288
C:\Users\CYMR90~1\AppData\Local\Temp\cca5ocgO.s:26457  .debug_str:000000000001dcc4 .LASF4289
C:\Users\CYMR90~1\AppData\Local\Temp\cca5ocgO.s:19124  .debug_str:00000000000004c9 .LASF4290
C:\Users\CYMR90~1\AppData\Local\Temp\cca5ocgO.s:20178  .debug_str:000000000000477a .LASF4291
C:\Users\CYMR90~1\AppData\Local\Temp\cca5ocgO.s:22576  .debug_str:000000000000e1d5 .LASF4292
C:\Users\CYMR90~1\AppData\Local\Temp\cca5ocgO.s:20734  .debug_str:0000000000006a09 .LASF4293
C:\Users\CYMR90~1\AppData\Local\Temp\cca5ocgO.s:23964  .debug_str:0000000000013a35 .LASF4294
C:\Users\CYMR90~1\AppData\Local\Temp\cca5ocgO.s:23588  .debug_str:00000000000121a2 .LASF4295
C:\Users\CYMR90~1\AppData\Local\Temp\cca5ocgO.s:19816  .debug_str:0000000000002f65 .LASF4296
C:\Users\CYMR90~1\AppData\Local\Temp\cca5ocgO.s:20370  .debug_str:00000000000053da .LASF4297
C:\Users\CYMR90~1\AppData\Local\Temp\cca5ocgO.s:19900  .debug_str:00000000000034fc .LASF4298
C:\Users\CYMR90~1\AppData\Local\Temp\cca5ocgO.s:19084  .debug_str:0000000000000253 .LASF4299
C:\Users\CYMR90~1\AppData\Local\Temp\cca5ocgO.s:21348  .debug_str:0000000000009256 .LASF4300
C:\Users\CYMR90~1\AppData\Local\Temp\cca5ocgO.s:24720  .debug_str:0000000000016992 .LASF4301
C:\Users\CYMR90~1\AppData\Local\Temp\cca5ocgO.s:19806  .debug_str:0000000000002eda .LASF4302
C:\Users\CYMR90~1\AppData\Local\Temp\cca5ocgO.s:28713  .debug_str:0000000000026a37 .LASF4303
C:\Users\CYMR90~1\AppData\Local\Temp\cca5ocgO.s:24586  .debug_str:000000000001617c .LASF4304
C:\Users\CYMR90~1\AppData\Local\Temp\cca5ocgO.s:25259  .debug_str:0000000000018cad .LASF4305
C:\Users\CYMR90~1\AppData\Local\Temp\cca5ocgO.s:27895  .debug_str:000000000002345e .LASF4306
C:\Users\CYMR90~1\AppData\Local\Temp\cca5ocgO.s:27681  .debug_str:00000000000227cc .LASF4307
C:\Users\CYMR90~1\AppData\Local\Temp\cca5ocgO.s:23790  .debug_str:0000000000012eb7 .LASF4308
C:\Users\CYMR90~1\AppData\Local\Temp\cca5ocgO.s:26381  .debug_str:000000000001d82a .LASF4309
C:\Users\CYMR90~1\AppData\Local\Temp\cca5ocgO.s:29611  .debug_str:000000000002a312 .LASF4310
C:\Users\CYMR90~1\AppData\Local\Temp\cca5ocgO.s:19828  .debug_str:0000000000003032 .LASF4311
C:\Users\CYMR90~1\AppData\Local\Temp\cca5ocgO.s:28485  .debug_str:0000000000025c39 .LASF4312
C:\Users\CYMR90~1\AppData\Local\Temp\cca5ocgO.s:23326  .debug_str:0000000000010fcc .LASF4313
C:\Users\CYMR90~1\AppData\Local\Temp\cca5ocgO.s:26509  .debug_str:000000000001e090 .LASF4314
C:\Users\CYMR90~1\AppData\Local\Temp\cca5ocgO.s:21516  .debug_str:0000000000009ce4 .LASF4315
C:\Users\CYMR90~1\AppData\Local\Temp\cca5ocgO.s:25773  .debug_str:000000000001b03f .LASF4316
C:\Users\CYMR90~1\AppData\Local\Temp\cca5ocgO.s:26353  .debug_str:000000000001d647 .LASF4317
C:\Users\CYMR90~1\AppData\Local\Temp\cca5ocgO.s:21904  .debug_str:000000000000b62f .LASF4318
C:\Users\CYMR90~1\AppData\Local\Temp\cca5ocgO.s:24931  .debug_str:00000000000177f7 .LASF4319
C:\Users\CYMR90~1\AppData\Local\Temp\cca5ocgO.s:26055  .debug_str:000000000001c25d .LASF4320
C:\Users\CYMR90~1\AppData\Local\Temp\cca5ocgO.s:23722  .debug_str:0000000000012a6a .LASF4321
C:\Users\CYMR90~1\AppData\Local\Temp\cca5ocgO.s:27211  .debug_str:0000000000020b70 .LASF4322
C:\Users\CYMR90~1\AppData\Local\Temp\cca5ocgO.s:21838  .debug_str:000000000000b1e2 .LASF4323
C:\Users\CYMR90~1\AppData\Local\Temp\cca5ocgO.s:25741  .debug_str:000000000001adc1 .LASF4324
C:\Users\CYMR90~1\AppData\Local\Temp\cca5ocgO.s:24432  .debug_str:0000000000015774 .LASF4325
C:\Users\CYMR90~1\AppData\Local\Temp\cca5ocgO.s:23772  .debug_str:0000000000012d94 .LASF4326
C:\Users\CYMR90~1\AppData\Local\Temp\cca5ocgO.s:29989  .debug_str:000000000002bb6c .LASF4327
C:\Users\CYMR90~1\AppData\Local\Temp\cca5ocgO.s:25381  .debug_str:0000000000019513 .LASF4328
C:\Users\CYMR90~1\AppData\Local\Temp\cca5ocgO.s:24929  .debug_str:00000000000177df .LASF4329
C:\Users\CYMR90~1\AppData\Local\Temp\cca5ocgO.s:26377  .debug_str:000000000001d809 .LASF4330
C:\Users\CYMR90~1\AppData\Local\Temp\cca5ocgO.s:28627  .debug_str:00000000000264ea .LASF4331
C:\Users\CYMR90~1\AppData\Local\Temp\cca5ocgO.s:20404  .debug_str:00000000000055e0 .LASF4332
C:\Users\CYMR90~1\AppData\Local\Temp\cca5ocgO.s:19372  .debug_str:0000000000001437 .LASF4333
C:\Users\CYMR90~1\AppData\Local\Temp\cca5ocgO.s:26687  .debug_str:000000000001eb4f .LASF4334
C:\Users\CYMR90~1\AppData\Local\Temp\cca5ocgO.s:27389  .debug_str:000000000002168c .LASF4335
C:\Users\CYMR90~1\AppData\Local\Temp\cca5ocgO.s:29559  .debug_str:000000000002a01a .LASF4336
C:\Users\CYMR90~1\AppData\Local\Temp\cca5ocgO.s:23440  .debug_str:00000000000116f7 .LASF4337
C:\Users\CYMR90~1\AppData\Local\Temp\cca5ocgO.s:29217  .debug_str:0000000000028b88 .LASF4338
C:\Users\CYMR90~1\AppData\Local\Temp\cca5ocgO.s:24214  .debug_str:0000000000014a05 .LASF4339
C:\Users\CYMR90~1\AppData\Local\Temp\cca5ocgO.s:21798  .debug_str:000000000000af6e .LASF4340
C:\Users\CYMR90~1\AppData\Local\Temp\cca5ocgO.s:27173  .debug_str:0000000000020927 .LASF4341
C:\Users\CYMR90~1\AppData\Local\Temp\cca5ocgO.s:21242  .debug_str:0000000000008bc3 .LASF4342
C:\Users\CYMR90~1\AppData\Local\Temp\cca5ocgO.s:28017  .debug_str:0000000000023bc5 .LASF4343
C:\Users\CYMR90~1\AppData\Local\Temp\cca5ocgO.s:27975  .debug_str:0000000000023985 .LASF4344
C:\Users\CYMR90~1\AppData\Local\Temp\cca5ocgO.s:28787  .debug_str:0000000000026eba .LASF4345
C:\Users\CYMR90~1\AppData\Local\Temp\cca5ocgO.s:20902  .debug_str:0000000000007518 .LASF4346
C:\Users\CYMR90~1\AppData\Local\Temp\cca5ocgO.s:26593  .debug_str:000000000001e573 .LASF4347
C:\Users\CYMR90~1\AppData\Local\Temp\cca5ocgO.s:22224  .debug_str:000000000000cc7d .LASF4348
C:\Users\CYMR90~1\AppData\Local\Temp\cca5ocgO.s:24028  .debug_str:0000000000013e18 .LASF4349
C:\Users\CYMR90~1\AppData\Local\Temp\cca5ocgO.s:26425  .debug_str:000000000001db05 .LASF4350
C:\Users\CYMR90~1\AppData\Local\Temp\cca5ocgO.s:23802  .debug_str:0000000000012f90 .LASF4351
C:\Users\CYMR90~1\AppData\Local\Temp\cca5ocgO.s:27243  .debug_str:0000000000020d82 .LASF4352
C:\Users\CYMR90~1\AppData\Local\Temp\cca5ocgO.s:22762  .debug_str:000000000000edaa .LASF4353
C:\Users\CYMR90~1\AppData\Local\Temp\cca5ocgO.s:26375  .debug_str:000000000001d7f4 .LASF4354
C:\Users\CYMR90~1\AppData\Local\Temp\cca5ocgO.s:20184  .debug_str:0000000000004800 .LASF4355
C:\Users\CYMR90~1\AppData\Local\Temp\cca5ocgO.s:19566  .debug_str:000000000000205a .LASF4356
C:\Users\CYMR90~1\AppData\Local\Temp\cca5ocgO.s:26095  .debug_str:000000000001c4b8 .LASF4357
C:\Users\CYMR90~1\AppData\Local\Temp\cca5ocgO.s:21156  .debug_str:0000000000008676 .LASF4358
C:\Users\CYMR90~1\AppData\Local\Temp\cca5ocgO.s:29685  .debug_str:000000000002a7c1 .LASF4359
C:\Users\CYMR90~1\AppData\Local\Temp\cca5ocgO.s:21008  .debug_str:0000000000007bfa .LASF4360
C:\Users\CYMR90~1\AppData\Local\Temp\cca5ocgO.s:19136  .debug_str:0000000000000571 .LASF4361
C:\Users\CYMR90~1\AppData\Local\Temp\cca5ocgO.s:28217  .debug_str:00000000000249cd .LASF4362
C:\Users\CYMR90~1\AppData\Local\Temp\cca5ocgO.s:25167  .debug_str:0000000000018663 .LASF4363
C:\Users\CYMR90~1\AppData\Local\Temp\cca5ocgO.s:22874  .debug_str:000000000000f458 .LASF4364
C:\Users\CYMR90~1\AppData\Local\Temp\cca5ocgO.s:27821  .debug_str:0000000000023014 .LASF4365
C:\Users\CYMR90~1\AppData\Local\Temp\cca5ocgO.s:29509  .debug_str:0000000000029d61 .LASF4366
C:\Users\CYMR90~1\AppData\Local\Temp\cca5ocgO.s:22068  .debug_str:000000000000c16a .LASF4367
C:\Users\CYMR90~1\AppData\Local\Temp\cca5ocgO.s:20594  .debug_str:0000000000006173 .LASF4368
C:\Users\CYMR90~1\AppData\Local\Temp\cca5ocgO.s:20228  .debug_str:0000000000004b41 .LASF4369
C:\Users\CYMR90~1\AppData\Local\Temp\cca5ocgO.s:28553  .debug_str:0000000000026098 .LASF4370
C:\Users\CYMR90~1\AppData\Local\Temp\cca5ocgO.s:22472  .debug_str:000000000000db7f .LASF4371
C:\Users\CYMR90~1\AppData\Local\Temp\cca5ocgO.s:23884  .debug_str:000000000001355e .LASF4372
C:\Users\CYMR90~1\AppData\Local\Temp\cca5ocgO.s:26685  .debug_str:000000000001eb3a .LASF4373
C:\Users\CYMR90~1\AppData\Local\Temp\cca5ocgO.s:24440  .debug_str:00000000000157ea .LASF4374
C:\Users\CYMR90~1\AppData\Local\Temp\cca5ocgO.s:28351  .debug_str:0000000000025323 .LASF4375
C:\Users\CYMR90~1\AppData\Local\Temp\cca5ocgO.s:19672  .debug_str:0000000000002642 .LASF4376
C:\Users\CYMR90~1\AppData\Local\Temp\cca5ocgO.s:22812  .debug_str:000000000000f077 .LASF4377
C:\Users\CYMR90~1\AppData\Local\Temp\cca5ocgO.s:19280  .debug_str:0000000000000e79 .LASF4378
C:\Users\CYMR90~1\AppData\Local\Temp\cca5ocgO.s:23278  .debug_str:0000000000010d3d .LASF4379
C:\Users\CYMR90~1\AppData\Local\Temp\cca5ocgO.s:21948  .debug_str:000000000000b906 .LASF4380
C:\Users\CYMR90~1\AppData\Local\Temp\cca5ocgO.s:26943  .debug_str:000000000001fb01 .LASF4381
C:\Users\CYMR90~1\AppData\Local\Temp\cca5ocgO.s:21740  .debug_str:000000000000aae1 .LASF4382
C:\Users\CYMR90~1\AppData\Local\Temp\cca5ocgO.s:23688  .debug_str:00000000000127fd .LASF4383
C:\Users\CYMR90~1\AppData\Local\Temp\cca5ocgO.s:19666  .debug_str:00000000000025f5 .LASF4384
C:\Users\CYMR90~1\AppData\Local\Temp\cca5ocgO.s:26327  .debug_str:000000000001d4a0 .LASF4385
C:\Users\CYMR90~1\AppData\Local\Temp\cca5ocgO.s:22198  .debug_str:000000000000ca02 .LASF4386
C:\Users\CYMR90~1\AppData\Local\Temp\cca5ocgO.s:29669  .debug_str:000000000002a6dc .LASF4387
C:\Users\CYMR90~1\AppData\Local\Temp\cca5ocgO.s:25605  .debug_str:000000000001a549 .LASF4388
C:\Users\CYMR90~1\AppData\Local\Temp\cca5ocgO.s:27789  .debug_str:0000000000022e52 .LASF4389
C:\Users\CYMR90~1\AppData\Local\Temp\cca5ocgO.s:29349  .debug_str:0000000000029377 .LASF4390
C:\Users\CYMR90~1\AppData\Local\Temp\cca5ocgO.s:24684  .debug_str:00000000000166f7 .LASF4391
C:\Users\CYMR90~1\AppData\Local\Temp\cca5ocgO.s:25351  .debug_str:0000000000019339 .LASF4392
C:\Users\CYMR90~1\AppData\Local\Temp\cca5ocgO.s:20402  .debug_str:00000000000055c7 .LASF4393
C:\Users\CYMR90~1\AppData\Local\Temp\cca5ocgO.s:27035  .debug_str:00000000000200c5 .LASF4394
C:\Users\CYMR90~1\AppData\Local\Temp\cca5ocgO.s:23054  .debug_str:000000000000ff1a .LASF4395
C:\Users\CYMR90~1\AppData\Local\Temp\cca5ocgO.s:26229  .debug_str:000000000001cd99 .LASF4396
C:\Users\CYMR90~1\AppData\Local\Temp\cca5ocgO.s:27509  .debug_str:0000000000021dff .LASF4397
C:\Users\CYMR90~1\AppData\Local\Temp\cca5ocgO.s:22430  .debug_str:000000000000d934 .LASF4398
C:\Users\CYMR90~1\AppData\Local\Temp\cca5ocgO.s:29835  .debug_str:000000000002b0fa .LASF4399
C:\Users\CYMR90~1\AppData\Local\Temp\cca5ocgO.s:21968  .debug_str:000000000000ba7a .LASF4400
C:\Users\CYMR90~1\AppData\Local\Temp\cca5ocgO.s:27123  .debug_str:000000000002063e .LASF4401
C:\Users\CYMR90~1\AppData\Local\Temp\cca5ocgO.s:24542  .debug_str:0000000000015e4d .LASF4402
C:\Users\CYMR90~1\AppData\Local\Temp\cca5ocgO.s:27961  .debug_str:000000000002389d .LASF4403
C:\Users\CYMR90~1\AppData\Local\Temp\cca5ocgO.s:29803  .debug_str:000000000002aecb .LASF4404
C:\Users\CYMR90~1\AppData\Local\Temp\cca5ocgO.s:27313  .debug_str:000000000002115f .LASF4405
C:\Users\CYMR90~1\AppData\Local\Temp\cca5ocgO.s:27649  .debug_str:00000000000225ce .LASF4406
C:\Users\CYMR90~1\AppData\Local\Temp\cca5ocgO.s:29411  .debug_str:0000000000029773 .LASF4407
C:\Users\CYMR90~1\AppData\Local\Temp\cca5ocgO.s:20824  .debug_str:0000000000006fca .LASF4408
C:\Users\CYMR90~1\AppData\Local\Temp\cca5ocgO.s:28387  .debug_str:00000000000255d2 .LASF4409
C:\Users\CYMR90~1\AppData\Local\Temp\cca5ocgO.s:23712  .debug_str:0000000000012992 .LASF4410
C:\Users\CYMR90~1\AppData\Local\Temp\cca5ocgO.s:19276  .debug_str:0000000000000e3b .LASF4411
C:\Users\CYMR90~1\AppData\Local\Temp\cca5ocgO.s:27625  .debug_str:000000000002247e .LASF4412
C:\Users\CYMR90~1\AppData\Local\Temp\cca5ocgO.s:24348  .debug_str:00000000000152a0 .LASF4413
C:\Users\CYMR90~1\AppData\Local\Temp\cca5ocgO.s:19748  .debug_str:0000000000002b3d .LASF4414
C:\Users\CYMR90~1\AppData\Local\Temp\cca5ocgO.s:22740  .debug_str:000000000000ec8e .LASF4415
C:\Users\CYMR90~1\AppData\Local\Temp\cca5ocgO.s:28535  .debug_str:0000000000025f75 .LASF4416
C:\Users\CYMR90~1\AppData\Local\Temp\cca5ocgO.s:19970  .debug_str:000000000000397b .LASF4417
C:\Users\CYMR90~1\AppData\Local\Temp\cca5ocgO.s:24006  .debug_str:0000000000013cec .LASF4418
C:\Users\CYMR90~1\AppData\Local\Temp\cca5ocgO.s:28301  .debug_str:0000000000024f0f .LASF4419
C:\Users\CYMR90~1\AppData\Local\Temp\cca5ocgO.s:29299  .debug_str:00000000000290ab .LASF4420
C:\Users\CYMR90~1\AppData\Local\Temp\cca5ocgO.s:24012  .debug_str:0000000000013d30 .LASF4421
C:\Users\CYMR90~1\AppData\Local\Temp\cca5ocgO.s:20520  .debug_str:0000000000005cd6 .LASF4422
C:\Users\CYMR90~1\AppData\Local\Temp\cca5ocgO.s:20120  .debug_str:0000000000004395 .LASF4423
C:\Users\CYMR90~1\AppData\Local\Temp\cca5ocgO.s:27425  .debug_str:00000000000218d5 .LASF4424
C:\Users\CYMR90~1\AppData\Local\Temp\cca5ocgO.s:26959  .debug_str:000000000001fbf0 .LASF4425
C:\Users\CYMR90~1\AppData\Local\Temp\cca5ocgO.s:20206  .debug_str:00000000000049ee .LASF4426
C:\Users\CYMR90~1\AppData\Local\Temp\cca5ocgO.s:27223  .debug_str:0000000000020c2c .LASF4427
C:\Users\CYMR90~1\AppData\Local\Temp\cca5ocgO.s:28607  .debug_str:00000000000263a7 .LASF4428
C:\Users\CYMR90~1\AppData\Local\Temp\cca5ocgO.s:29791  .debug_str:000000000002ae21 .LASF4429
C:\Users\CYMR90~1\AppData\Local\Temp\cca5ocgO.s:28527  .debug_str:0000000000025eff .LASF4430
C:\Users\CYMR90~1\AppData\Local\Temp\cca5ocgO.s:19426  .debug_str:000000000000174a .LASF4431
C:\Users\CYMR90~1\AppData\Local\Temp\cca5ocgO.s:26559  .debug_str:000000000001e373 .LASF4432
C:\Users\CYMR90~1\AppData\Local\Temp\cca5ocgO.s:28835  .debug_str:000000000002726d .LASF4433
C:\Users\CYMR90~1\AppData\Local\Temp\cca5ocgO.s:21646  .debug_str:000000000000a547 .LASF4434
C:\Users\CYMR90~1\AppData\Local\Temp\cca5ocgO.s:30139  .debug_str:000000000002c5e2 .LASF4435
C:\Users\CYMR90~1\AppData\Local\Temp\cca5ocgO.s:25467  .debug_str:0000000000019b5d .LASF4436
C:\Users\CYMR90~1\AppData\Local\Temp\cca5ocgO.s:21014  .debug_str:0000000000007c54 .LASF4437
C:\Users\CYMR90~1\AppData\Local\Temp\cca5ocgO.s:20102  .debug_str:0000000000004294 .LASF4438
C:\Users\CYMR90~1\AppData\Local\Temp\cca5ocgO.s:28689  .debug_str:00000000000268db .LASF4439
C:\Users\CYMR90~1\AppData\Local\Temp\cca5ocgO.s:26111  .debug_str:000000000001c591 .LASF4440
C:\Users\CYMR90~1\AppData\Local\Temp\cca5ocgO.s:28665  .debug_str:000000000002676d .LASF4441
C:\Users\CYMR90~1\AppData\Local\Temp\cca5ocgO.s:24038  .debug_str:0000000000013ebb .LASF4442
C:\Users\CYMR90~1\AppData\Local\Temp\cca5ocgO.s:22944  .debug_str:000000000000f91d .LASF4443
C:\Users\CYMR90~1\AppData\Local\Temp\cca5ocgO.s:26659  .debug_str:000000000001e9b5 .LASF4444
C:\Users\CYMR90~1\AppData\Local\Temp\cca5ocgO.s:20454  .debug_str:00000000000058ff .LASF4445
C:\Users\CYMR90~1\AppData\Local\Temp\cca5ocgO.s:27843  .debug_str:0000000000023140 .LASF4446
C:\Users\CYMR90~1\AppData\Local\Temp\cca5ocgO.s:25289  .debug_str:0000000000018ece .LASF4447
C:\Users\CYMR90~1\AppData\Local\Temp\cca5ocgO.s:19632  .debug_str:00000000000023de .LASF4448
C:\Users\CYMR90~1\AppData\Local\Temp\cca5ocgO.s:19836  .debug_str:00000000000030a7 .LASF4449
C:\Users\CYMR90~1\AppData\Local\Temp\cca5ocgO.s:28493  .debug_str:0000000000025cce .LASF4450
C:\Users\CYMR90~1\AppData\Local\Temp\cca5ocgO.s:24446  .debug_str:000000000001583a .LASF4451
C:\Users\CYMR90~1\AppData\Local\Temp\cca5ocgO.s:21762  .debug_str:000000000000ac53 .LASF4452
C:\Users\CYMR90~1\AppData\Local\Temp\cca5ocgO.s:21322  .debug_str:00000000000090cf .LASF4453
C:\Users\CYMR90~1\AppData\Local\Temp\cca5ocgO.s:29093  .debug_str:0000000000028388 .LASF4454
C:\Users\CYMR90~1\AppData\Local\Temp\cca5ocgO.s:30273  .debug_str:000000000002cea7 .LASF4455
C:\Users\CYMR90~1\AppData\Local\Temp\cca5ocgO.s:26489  .debug_str:000000000001df52 .LASF4456
C:\Users\CYMR90~1\AppData\Local\Temp\cca5ocgO.s:20772  .debug_str:0000000000006c60 .LASF4457
C:\Users\CYMR90~1\AppData\Local\Temp\cca5ocgO.s:20240  .debug_str:0000000000004c17 .LASF4458
C:\Users\CYMR90~1\AppData\Local\Temp\cca5ocgO.s:24793  .debug_str:0000000000016fae .LASF4459
C:\Users\CYMR90~1\AppData\Local\Temp\cca5ocgO.s:29933  .debug_str:000000000002b7be .LASF4460
C:\Users\CYMR90~1\AppData\Local\Temp\cca5ocgO.s:23826  .debug_str:0000000000013133 .LASF4461
C:\Users\CYMR90~1\AppData\Local\Temp\cca5ocgO.s:29561  .debug_str:000000000002a033 .LASF4462
C:\Users\CYMR90~1\AppData\Local\Temp\cca5ocgO.s:28639  .debug_str:00000000000265c4 .LASF4463
C:\Users\CYMR90~1\AppData\Local\Temp\cca5ocgO.s:28861  .debug_str:00000000000273e9 .LASF4464
C:\Users\CYMR90~1\AppData\Local\Temp\cca5ocgO.s:29391  .debug_str:000000000002964f .LASF4465
C:\Users\CYMR90~1\AppData\Local\Temp\cca5ocgO.s:19550  .debug_str:0000000000001f5d .LASF4466
C:\Users\CYMR90~1\AppData\Local\Temp\cca5ocgO.s:25491  .debug_str:0000000000019ce1 .LASF4467
C:\Users\CYMR90~1\AppData\Local\Temp\cca5ocgO.s:21070  .debug_str:0000000000008111 .LASF4468
C:\Users\CYMR90~1\AppData\Local\Temp\cca5ocgO.s:26197  .debug_str:000000000001cb81 .LASF4469
C:\Users\CYMR90~1\AppData\Local\Temp\cca5ocgO.s:25793  .debug_str:000000000001b172 .LASF4470
C:\Users\CYMR90~1\AppData\Local\Temp\cca5ocgO.s:27691  .debug_str:0000000000022847 .LASF4471
C:\Users\CYMR90~1\AppData\Local\Temp\cca5ocgO.s:28593  .debug_str:00000000000262c5 .LASF4472
C:\Users\CYMR90~1\AppData\Local\Temp\cca5ocgO.s:19542  .debug_str:0000000000001ee3 .LASF4473
C:\Users\CYMR90~1\AppData\Local\Temp\cca5ocgO.s:24618  .debug_str:0000000000016346 .LASF4474
C:\Users\CYMR90~1\AppData\Local\Temp\cca5ocgO.s:19848  .debug_str:00000000000031a2 .LASF4475
C:\Users\CYMR90~1\AppData\Local\Temp\cca5ocgO.s:22032  .debug_str:000000000000bf2c .LASF4476
C:\Users\CYMR90~1\AppData\Local\Temp\cca5ocgO.s:26669  .debug_str:000000000001ea43 .LASF4477
C:\Users\CYMR90~1\AppData\Local\Temp\cca5ocgO.s:19332  .debug_str:00000000000011fd .LASF4478
C:\Users\CYMR90~1\AppData\Local\Temp\cca5ocgO.s:28331  .debug_str:0000000000025139 .LASF4479
C:\Users\CYMR90~1\AppData\Local\Temp\cca5ocgO.s:21180  .debug_str:00000000000087bb .LASF4480
C:\Users\CYMR90~1\AppData\Local\Temp\cca5ocgO.s:26299  .debug_str:000000000001d312 .LASF4481
C:\Users\CYMR90~1\AppData\Local\Temp\cca5ocgO.s:26317  .debug_str:000000000001d409 .LASF4482
C:\Users\CYMR90~1\AppData\Local\Temp\cca5ocgO.s:27261  .debug_str:0000000000020e90 .LASF4483
C:\Users\CYMR90~1\AppData\Local\Temp\cca5ocgO.s:25731  .debug_str:000000000001ad2d .LASF4484
C:\Users\CYMR90~1\AppData\Local\Temp\cca5ocgO.s:20490  .debug_str:0000000000005b3f .LASF4485
C:\Users\CYMR90~1\AppData\Local\Temp\cca5ocgO.s:29055  .debug_str:000000000002809e .LASF4486
C:\Users\CYMR90~1\AppData\Local\Temp\cca5ocgO.s:27969  .debug_str:0000000000023934 .LASF4487
C:\Users\CYMR90~1\AppData\Local\Temp\cca5ocgO.s:24336  .debug_str:00000000000151f2 .LASF4488
C:\Users\CYMR90~1\AppData\Local\Temp\cca5ocgO.s:30237  .debug_str:000000000002cc86 .LASF4489
C:\Users\CYMR90~1\AppData\Local\Temp\cca5ocgO.s:19812  .debug_str:0000000000002f29 .LASF4490
C:\Users\CYMR90~1\AppData\Local\Temp\cca5ocgO.s:19072  .debug_str:00000000000001c1 .LASF4491
C:\Users\CYMR90~1\AppData\Local\Temp\cca5ocgO.s:25447  .debug_str:00000000000199f1 .LASF4492
C:\Users\CYMR90~1\AppData\Local\Temp\cca5ocgO.s:23228  .debug_str:00000000000109b4 .LASF4493
C:\Users\CYMR90~1\AppData\Local\Temp\cca5ocgO.s:20118  .debug_str:000000000000437d .LASF4494
C:\Users\CYMR90~1\AppData\Local\Temp\cca5ocgO.s:22142  .debug_str:000000000000c5c6 .LASF4495
C:\Users\CYMR90~1\AppData\Local\Temp\cca5ocgO.s:22054  .debug_str:000000000000c06a .LASF4496
C:\Users\CYMR90~1\AppData\Local\Temp\cca5ocgO.s:19096  .debug_str:000000000000033b .LASF4497
C:\Users\CYMR90~1\AppData\Local\Temp\cca5ocgO.s:20334  .debug_str:00000000000051b9 .LASF4498
C:\Users\CYMR90~1\AppData\Local\Temp\cca5ocgO.s:29315  .debug_str:0000000000029199 .LASF4499
C:\Users\CYMR90~1\AppData\Local\Temp\cca5ocgO.s:20150  .debug_str:00000000000045ab .LASF4500
C:\Users\CYMR90~1\AppData\Local\Temp\cca5ocgO.s:21790  .debug_str:000000000000ae3e .LASF4501
C:\Users\CYMR90~1\AppData\Local\Temp\cca5ocgO.s:19116  .debug_str:0000000000000468 .LASF4502
C:\Users\CYMR90~1\AppData\Local\Temp\cca5ocgO.s:26647  .debug_str:000000000001e8f3 .LASF4503
C:\Users\CYMR90~1\AppData\Local\Temp\cca5ocgO.s:24801  .debug_str:0000000000017044 .LASF4504
C:\Users\CYMR90~1\AppData\Local\Temp\cca5ocgO.s:19684  .debug_str:000000000000270d .LASF4505
C:\Users\CYMR90~1\AppData\Local\Temp\cca5ocgO.s:28753  .debug_str:0000000000026cba .LASF4506
C:\Users\CYMR90~1\AppData\Local\Temp\cca5ocgO.s:30095  .debug_str:000000000002c2f8 .LASF4507
C:\Users\CYMR90~1\AppData\Local\Temp\cca5ocgO.s:27091  .debug_str:00000000000203ba .LASF4508
C:\Users\CYMR90~1\AppData\Local\Temp\cca5ocgO.s:22138  .debug_str:000000000000c57c .LASF4509
C:\Users\CYMR90~1\AppData\Local\Temp\cca5ocgO.s:27699  .debug_str:00000000000228b6 .LASF4510
C:\Users\CYMR90~1\AppData\Local\Temp\cca5ocgO.s:22028  .debug_str:000000000000bec8 .LASF4511
C:\Users\CYMR90~1\AppData\Local\Temp\cca5ocgO.s:27689  .debug_str:0000000000022829 .LASF4512
C:\Users\CYMR90~1\AppData\Local\Temp\cca5ocgO.s:29207  .debug_str:0000000000028af1 .LASF4513
C:\Users\CYMR90~1\AppData\Local\Temp\cca5ocgO.s:20536  .debug_str:0000000000005dd9 .LASF4514
C:\Users\CYMR90~1\AppData\Local\Temp\cca5ocgO.s:23344  .debug_str:00000000000110df .LASF4515
C:\Users\CYMR90~1\AppData\Local\Temp\cca5ocgO.s:22512  .debug_str:000000000000dde9 .LASF4516
C:\Users\CYMR90~1\AppData\Local\Temp\cca5ocgO.s:20198  .debug_str:000000000000496b .LASF4517
C:\Users\CYMR90~1\AppData\Local\Temp\cca5ocgO.s:21466  .debug_str:00000000000099bb .LASF4518
C:\Users\CYMR90~1\AppData\Local\Temp\cca5ocgO.s:24002  .debug_str:0000000000013c8c .LASF4519
C:\Users\CYMR90~1\AppData\Local\Temp\cca5ocgO.s:20020  .debug_str:0000000000003ca3 .LASF4520
C:\Users\CYMR90~1\AppData\Local\Temp\cca5ocgO.s:20764  .debug_str:0000000000006bce .LASF4521
C:\Users\CYMR90~1\AppData\Local\Temp\cca5ocgO.s:19048  .debug_str:000000000000002e .LASF4522
C:\Users\CYMR90~1\AppData\Local\Temp\cca5ocgO.s:23328  .debug_str:0000000000010ff0 .LASF4523
C:\Users\CYMR90~1\AppData\Local\Temp\cca5ocgO.s:25685  .debug_str:000000000001aa64 .LASF4524
C:\Users\CYMR90~1\AppData\Local\Temp\cca5ocgO.s:24746  .debug_str:0000000000016b16 .LASF4525
C:\Users\CYMR90~1\AppData\Local\Temp\cca5ocgO.s:30035  .debug_str:000000000002bed5 .LASF4526
C:\Users\CYMR90~1\AppData\Local\Temp\cca5ocgO.s:28109  .debug_str:000000000002426d .LASF4527
C:\Users\CYMR90~1\AppData\Local\Temp\cca5ocgO.s:22614  .debug_str:000000000000e41e .LASF4528
C:\Users\CYMR90~1\AppData\Local\Temp\cca5ocgO.s:26767  .debug_str:000000000001f00f .LASF4529
C:\Users\CYMR90~1\AppData\Local\Temp\cca5ocgO.s:24266  .debug_str:0000000000014d1d .LASF4530
C:\Users\CYMR90~1\AppData\Local\Temp\cca5ocgO.s:26417  .debug_str:000000000001da7f .LASF4531
C:\Users\CYMR90~1\AppData\Local\Temp\cca5ocgO.s:25309  .debug_str:0000000000018fbd .LASF4532
C:\Users\CYMR90~1\AppData\Local\Temp\cca5ocgO.s:23854  .debug_str:00000000000132fa .LASF4533
C:\Users\CYMR90~1\AppData\Local\Temp\cca5ocgO.s:19822  .debug_str:0000000000002fc7 .LASF4534
C:\Users\CYMR90~1\AppData\Local\Temp\cca5ocgO.s:26749  .debug_str:000000000001eeec .LASF4535
C:\Users\CYMR90~1\AppData\Local\Temp\cca5ocgO.s:21638  .debug_str:000000000000a4af .LASF4536
C:\Users\CYMR90~1\AppData\Local\Temp\cca5ocgO.s:19176  .debug_str:00000000000007e0 .LASF4537
C:\Users\CYMR90~1\AppData\Local\Temp\cca5ocgO.s:25701  .debug_str:000000000001ab63 .LASF4538
C:\Users\CYMR90~1\AppData\Local\Temp\cca5ocgO.s:28975  .debug_str:0000000000027b31 .LASF4539
C:\Users\CYMR90~1\AppData\Local\Temp\cca5ocgO.s:24414  .debug_str:000000000001565d .LASF4540
C:\Users\CYMR90~1\AppData\Local\Temp\cca5ocgO.s:25371  .debug_str:0000000000019446 .LASF4541
C:\Users\CYMR90~1\AppData\Local\Temp\cca5ocgO.s:22020  .debug_str:000000000000be35 .LASF4542
C:\Users\CYMR90~1\AppData\Local\Temp\cca5ocgO.s:25425  .debug_str:00000000000197f9 .LASF4543
C:\Users\CYMR90~1\AppData\Local\Temp\cca5ocgO.s:27315  .debug_str:0000000000021177 .LASF4544
C:\Users\CYMR90~1\AppData\Local\Temp\cca5ocgO.s:25449  .debug_str:0000000000019a2c .LASF4545
C:\Users\CYMR90~1\AppData\Local\Temp\cca5ocgO.s:20098  .debug_str:000000000000424b .LASF4546
C:\Users\CYMR90~1\AppData\Local\Temp\cca5ocgO.s:21686  .debug_str:000000000000a764 .LASF4547
C:\Users\CYMR90~1\AppData\Local\Temp\cca5ocgO.s:22388  .debug_str:000000000000d6d4 .LASF4548
C:\Users\CYMR90~1\AppData\Local\Temp\cca5ocgO.s:27161  .debug_str:0000000000020864 .LASF4549
C:\Users\CYMR90~1\AppData\Local\Temp\cca5ocgO.s:26761  .debug_str:000000000001efa6 .LASF4550
C:\Users\CYMR90~1\AppData\Local\Temp\cca5ocgO.s:22510  .debug_str:000000000000ddad .LASF4551
C:\Users\CYMR90~1\AppData\Local\Temp\cca5ocgO.s:25811  .debug_str:000000000001b2d1 .LASF4552
C:\Users\CYMR90~1\AppData\Local\Temp\cca5ocgO.s:22214  .debug_str:000000000000cbb2 .LASF4553
C:\Users\CYMR90~1\AppData\Local\Temp\cca5ocgO.s:23792  .debug_str:0000000000012edb .LASF4554
C:\Users\CYMR90~1\AppData\Local\Temp\cca5ocgO.s:23970  .debug_str:0000000000013a82 .LASF4555
C:\Users\CYMR90~1\AppData\Local\Temp\cca5ocgO.s:27591  .debug_str:00000000000222c0 .LASF4556
C:\Users\CYMR90~1\AppData\Local\Temp\cca5ocgO.s:29711  .debug_str:000000000002a930 .LASF4557
C:\Users\CYMR90~1\AppData\Local\Temp\cca5ocgO.s:23022  .debug_str:000000000000fce9 .LASF4558
C:\Users\CYMR90~1\AppData\Local\Temp\cca5ocgO.s:27653  .debug_str:000000000002260c .LASF4559
C:\Users\CYMR90~1\AppData\Local\Temp\cca5ocgO.s:29951  .debug_str:000000000002b8bc .LASF4560
C:\Users\CYMR90~1\AppData\Local\Temp\cca5ocgO.s:28149  .debug_str:000000000002451a .LASF4561
C:\Users\CYMR90~1\AppData\Local\Temp\cca5ocgO.s:24688  .debug_str:0000000000016734 .LASF4562
C:\Users\CYMR90~1\AppData\Local\Temp\cca5ocgO.s:26161  .debug_str:000000000001c932 .LASF4563
C:\Users\CYMR90~1\AppData\Local\Temp\cca5ocgO.s:25471  .debug_str:0000000000019b9c .LASF4564
C:\Users\CYMR90~1\AppData\Local\Temp\cca5ocgO.s:23166  .debug_str:000000000001055a .LASF4565
C:\Users\CYMR90~1\AppData\Local\Temp\cca5ocgO.s:23598  .debug_str:0000000000012234 .LASF4566
C:\Users\CYMR90~1\AppData\Local\Temp\cca5ocgO.s:19902  .debug_str:000000000000351e .LASF4567
C:\Users\CYMR90~1\AppData\Local\Temp\cca5ocgO.s:20756  .debug_str:0000000000006b62 .LASF4568
C:\Users\CYMR90~1\AppData\Local\Temp\cca5ocgO.s:23654  .debug_str:00000000000125c0 .LASF4569
C:\Users\CYMR90~1\AppData\Local\Temp\cca5ocgO.s:29751  .debug_str:000000000002abb1 .LASF4570
C:\Users\CYMR90~1\AppData\Local\Temp\cca5ocgO.s:22632  .debug_str:000000000000e543 .LASF4571
C:\Users\CYMR90~1\AppData\Local\Temp\cca5ocgO.s:25569  .debug_str:000000000001a17c .LASF4572
C:\Users\CYMR90~1\AppData\Local\Temp\cca5ocgO.s:20048  .debug_str:0000000000003e81 .LASF4573
C:\Users\CYMR90~1\AppData\Local\Temp\cca5ocgO.s:28979  .debug_str:0000000000027b7e .LASF4574
C:\Users\CYMR90~1\AppData\Local\Temp\cca5ocgO.s:30199  .debug_str:000000000002c9bf .LASF4575
C:\Users\CYMR90~1\AppData\Local\Temp\cca5ocgO.s:22416  .debug_str:000000000000d86f .LASF4576
C:\Users\CYMR90~1\AppData\Local\Temp\cca5ocgO.s:25101  .debug_str:000000000001826a .LASF4577
C:\Users\CYMR90~1\AppData\Local\Temp\cca5ocgO.s:19416  .debug_str:00000000000016b3 .LASF4578
C:\Users\CYMR90~1\AppData\Local\Temp\cca5ocgO.s:28027  .debug_str:0000000000023c6c .LASF4579
C:\Users\CYMR90~1\AppData\Local\Temp\cca5ocgO.s:24556  .debug_str:0000000000015f49 .LASF4580
C:\Users\CYMR90~1\AppData\Local\Temp\cca5ocgO.s:29675  .debug_str:000000000002a734 .LASF4581
C:\Users\CYMR90~1\AppData\Local\Temp\cca5ocgO.s:28623  .debug_str:00000000000264b2 .LASF4582
C:\Users\CYMR90~1\AppData\Local\Temp\cca5ocgO.s:29677  .debug_str:000000000002a752 .LASF4583
C:\Users\CYMR90~1\AppData\Local\Temp\cca5ocgO.s:26099  .debug_str:000000000001c4e6 .LASF4584
C:\Users\CYMR90~1\AppData\Local\Temp\cca5ocgO.s:19360  .debug_str:0000000000001364 .LASF4585
C:\Users\CYMR90~1\AppData\Local\Temp\cca5ocgO.s:28405  .debug_str:00000000000256d9 .LASF4586
C:\Users\CYMR90~1\AppData\Local\Temp\cca5ocgO.s:26003  .debug_str:000000000001bf10 .LASF4587
C:\Users\CYMR90~1\AppData\Local\Temp\cca5ocgO.s:20530  .debug_str:0000000000005d5c .LASF4588
C:\Users\CYMR90~1\AppData\Local\Temp\cca5ocgO.s:22638  .debug_str:000000000000e591 .LASF4589
C:\Users\CYMR90~1\AppData\Local\Temp\cca5ocgO.s:27099  .debug_str:000000000002043c .LASF4590
C:\Users\CYMR90~1\AppData\Local\Temp\cca5ocgO.s:23786  .debug_str:0000000000012e76 .LASF4591
C:\Users\CYMR90~1\AppData\Local\Temp\cca5ocgO.s:28765  .debug_str:0000000000026d8c .LASF4592
C:\Users\CYMR90~1\AppData\Local\Temp\cca5ocgO.s:24320  .debug_str:00000000000150d9 .LASF4593
C:\Users\CYMR90~1\AppData\Local\Temp\cca5ocgO.s:24072  .debug_str:00000000000140ce .LASF4594
C:\Users\CYMR90~1\AppData\Local\Temp\cca5ocgO.s:23154  .debug_str:00000000000104b0 .LASF4595
C:\Users\CYMR90~1\AppData\Local\Temp\cca5ocgO.s:26969  .debug_str:000000000001fc9a .LASF4596
C:\Users\CYMR90~1\AppData\Local\Temp\cca5ocgO.s:22730  .debug_str:000000000000ebe8 .LASF4597
C:\Users\CYMR90~1\AppData\Local\Temp\cca5ocgO.s:20442  .debug_str:0000000000005830 .LASF4598
C:\Users\CYMR90~1\AppData\Local\Temp\cca5ocgO.s:29519  .debug_str:0000000000029dcc .LASF4599
C:\Users\CYMR90~1\AppData\Local\Temp\cca5ocgO.s:27271  .debug_str:0000000000020f23 .LASF4600
C:\Users\CYMR90~1\AppData\Local\Temp\cca5ocgO.s:30031  .debug_str:000000000002bea0 .LASF4601
C:\Users\CYMR90~1\AppData\Local\Temp\cca5ocgO.s:22936  .debug_str:000000000000f8b3 .LASF4602
C:\Users\CYMR90~1\AppData\Local\Temp\cca5ocgO.s:21358  .debug_str:00000000000092f3 .LASF4603
C:\Users\CYMR90~1\AppData\Local\Temp\cca5ocgO.s:29709  .debug_str:000000000002a90e .LASF4604
C:\Users\CYMR90~1\AppData\Local\Temp\cca5ocgO.s:27361  .debug_str:00000000000214ea .LASF4605
C:\Users\CYMR90~1\AppData\Local\Temp\cca5ocgO.s:29181  .debug_str:0000000000028999 .LASF4606
C:\Users\CYMR90~1\AppData\Local\Temp\cca5ocgO.s:20746  .debug_str:0000000000006ac4 .LASF4607
C:\Users\CYMR90~1\AppData\Local\Temp\cca5ocgO.s:27511  .debug_str:0000000000021e18 .LASF4608
C:\Users\CYMR90~1\AppData\Local\Temp\cca5ocgO.s:29345  .debug_str:000000000002932d .LASF4609
C:\Users\CYMR90~1\AppData\Local\Temp\cca5ocgO.s:29079  .debug_str:00000000000282aa .LASF4610
C:\Users\CYMR90~1\AppData\Local\Temp\cca5ocgO.s:28369  .debug_str:0000000000025479 .LASF4611
C:\Users\CYMR90~1\AppData\Local\Temp\cca5ocgO.s:25543  .debug_str:000000000001a007 .LASF4612
C:\Users\CYMR90~1\AppData\Local\Temp\cca5ocgO.s:21526  .debug_str:0000000000009d84 .LASF4613
C:\Users\CYMR90~1\AppData\Local\Temp\cca5ocgO.s:22938  .debug_str:000000000000f8d5 .LASF4614
C:\Users\CYMR90~1\AppData\Local\Temp\cca5ocgO.s:19636  .debug_str:000000000000241e .LASF4615
C:\Users\CYMR90~1\AppData\Local\Temp\cca5ocgO.s:21672  .debug_str:000000000000a6a3 .LASF4616
C:\Users\CYMR90~1\AppData\Local\Temp\cca5ocgO.s:26615  .debug_str:000000000001e6c9 .LASF4617
C:\Users\CYMR90~1\AppData\Local\Temp\cca5ocgO.s:24873  .debug_str:0000000000017467 .LASF4618
C:\Users\CYMR90~1\AppData\Local\Temp\cca5ocgO.s:22340  .debug_str:000000000000d38a .LASF4619
C:\Users\CYMR90~1\AppData\Local\Temp\cca5ocgO.s:30083  .debug_str:000000000002c1e4 .LASF4620
C:\Users\CYMR90~1\AppData\Local\Temp\cca5ocgO.s:24706  .debug_str:0000000000016834 .LASF4621
C:\Users\CYMR90~1\AppData\Local\Temp\cca5ocgO.s:29739  .debug_str:000000000002aaf3 .LASF4622
C:\Users\CYMR90~1\AppData\Local\Temp\cca5ocgO.s:19840  .debug_str:0000000000003124 .LASF4623
C:\Users\CYMR90~1\AppData\Local\Temp\cca5ocgO.s:28125  .debug_str:00000000000243af .LASF4624
C:\Users\CYMR90~1\AppData\Local\Temp\cca5ocgO.s:24716  .debug_str:000000000001693a .LASF4625
C:\Users\CYMR90~1\AppData\Local\Temp\cca5ocgO.s:21248  .debug_str:0000000000008c20 .LASF4626
C:\Users\CYMR90~1\AppData\Local\Temp\cca5ocgO.s:28855  .debug_str:000000000002739e .LASF4627
C:\Users\CYMR90~1\AppData\Local\Temp\cca5ocgO.s:27795  .debug_str:0000000000022eb9 .LASF4628
C:\Users\CYMR90~1\AppData\Local\Temp\cca5ocgO.s:19608  .debug_str:0000000000002261 .LASF4629
C:\Users\CYMR90~1\AppData\Local\Temp\cca5ocgO.s:20706  .debug_str:0000000000006862 .LASF4630
C:\Users\CYMR90~1\AppData\Local\Temp\cca5ocgO.s:28999  .debug_str:0000000000027cb7 .LASF4631
C:\Users\CYMR90~1\AppData\Local\Temp\cca5ocgO.s:26549  .debug_str:000000000001e2ec .LASF4632
C:\Users\CYMR90~1\AppData\Local\Temp\cca5ocgO.s:21076  .debug_str:0000000000008168 .LASF4633
C:\Users\CYMR90~1\AppData\Local\Temp\cca5ocgO.s:28913  .debug_str:00000000000276e3 .LASF4634
C:\Users\CYMR90~1\AppData\Local\Temp\cca5ocgO.s:22796  .debug_str:000000000000ef8a .LASF4635
C:\Users\CYMR90~1\AppData\Local\Temp\cca5ocgO.s:26235  .debug_str:000000000001cdfc .LASF4636
C:\Users\CYMR90~1\AppData\Local\Temp\cca5ocgO.s:26367  .debug_str:000000000001d70b .LASF4637
C:\Users\CYMR90~1\AppData\Local\Temp\cca5ocgO.s:19590  .debug_str:0000000000002173 .LASF4638
C:\Users\CYMR90~1\AppData\Local\Temp\cca5ocgO.s:22960  .debug_str:000000000000f9f1 .LASF4639
C:\Users\CYMR90~1\AppData\Local\Temp\cca5ocgO.s:29497  .debug_str:0000000000029cb8 .LASF4640
C:\Users\CYMR90~1\AppData\Local\Temp\cca5ocgO.s:22772  .debug_str:000000000000ee1b .LASF4641
C:\Users\CYMR90~1\AppData\Local\Temp\cca5ocgO.s:26153  .debug_str:000000000001c81c .LASF4642
C:\Users\CYMR90~1\AppData\Local\Temp\cca5ocgO.s:21854  .debug_str:000000000000b2df .LASF4643
C:\Users\CYMR90~1\AppData\Local\Temp\cca5ocgO.s:25027  .debug_str:0000000000017de2 .LASF4644
C:\Users\CYMR90~1\AppData\Local\Temp\cca5ocgO.s:23196  .debug_str:00000000000107cc .LASF4645
C:\Users\CYMR90~1\AppData\Local\Temp\cca5ocgO.s:19682  .debug_str:00000000000026eb .LASF4646
C:\Users\CYMR90~1\AppData\Local\Temp\cca5ocgO.s:27779  .debug_str:0000000000022dcc .LASF4647
C:\Users\CYMR90~1\AppData\Local\Temp\cca5ocgO.s:19402  .debug_str:00000000000015ba .LASF4648
C:\Users\CYMR90~1\AppData\Local\Temp\cca5ocgO.s:19230  .debug_str:0000000000000b95 .LASF4649
C:\Users\CYMR90~1\AppData\Local\Temp\cca5ocgO.s:20292  .debug_str:0000000000004f51 .LASF4650
C:\Users\CYMR90~1\AppData\Local\Temp\cca5ocgO.s:20938  .debug_str:0000000000007749 .LASF4651
C:\Users\CYMR90~1\AppData\Local\Temp\cca5ocgO.s:28577  .debug_str:00000000000261e2 .LASF4652
C:\Users\CYMR90~1\AppData\Local\Temp\cca5ocgO.s:19594  .debug_str:00000000000021a8 .LASF4653
C:\Users\CYMR90~1\AppData\Local\Temp\cca5ocgO.s:23242  .debug_str:0000000000010aad .LASF4654
C:\Users\CYMR90~1\AppData\Local\Temp\cca5ocgO.s:21928  .debug_str:000000000000b7f6 .LASF4655
C:\Users\CYMR90~1\AppData\Local\Temp\cca5ocgO.s:24787  .debug_str:0000000000016f71 .LASF4656
C:\Users\CYMR90~1\AppData\Local\Temp\cca5ocgO.s:21286  .debug_str:0000000000008ef5 .LASF4657
C:\Users\CYMR90~1\AppData\Local\Temp\cca5ocgO.s:26957  .debug_str:000000000001fbda .LASF4658
C:\Users\CYMR90~1\AppData\Local\Temp\cca5ocgO.s:27571  .debug_str:000000000002219a .LASF4659
C:\Users\CYMR90~1\AppData\Local\Temp\cca5ocgO.s:23630  .debug_str:000000000001242c .LASF4660
C:\Users\CYMR90~1\AppData\Local\Temp\cca5ocgO.s:27659  .debug_str:000000000002268d .LASF4661
C:\Users\CYMR90~1\AppData\Local\Temp\cca5ocgO.s:24634  .debug_str:000000000001645b .LASF4662
C:\Users\CYMR90~1\AppData\Local\Temp\cca5ocgO.s:24538  .debug_str:0000000000015e14 .LASF4663
C:\Users\CYMR90~1\AppData\Local\Temp\cca5ocgO.s:24122  .debug_str:000000000001442b .LASF4664
C:\Users\CYMR90~1\AppData\Local\Temp\cca5ocgO.s:26683  .debug_str:000000000001eb24 .LASF4665
C:\Users\CYMR90~1\AppData\Local\Temp\cca5ocgO.s:23366  .debug_str:0000000000011241 .LASF4666
C:\Users\CYMR90~1\AppData\Local\Temp\cca5ocgO.s:26407  .debug_str:000000000001d9f4 .LASF4667
C:\Users\CYMR90~1\AppData\Local\Temp\cca5ocgO.s:19768  .debug_str:0000000000002c89 .LASF4668
C:\Users\CYMR90~1\AppData\Local\Temp\cca5ocgO.s:22624  .debug_str:000000000000e4c1 .LASF4669
C:\Users\CYMR90~1\AppData\Local\Temp\cca5ocgO.s:25131  .debug_str:0000000000018437 .LASF4670
C:\Users\CYMR90~1\AppData\Local\Temp\cca5ocgO.s:19454  .debug_str:00000000000019c2 .LASF4671
C:\Users\CYMR90~1\AppData\Local\Temp\cca5ocgO.s:20084  .debug_str:00000000000040ec .LASF4672
C:\Users\CYMR90~1\AppData\Local\Temp\cca5ocgO.s:20088  .debug_str:00000000000041bc .LASF4673
C:\Users\CYMR90~1\AppData\Local\Temp\cca5ocgO.s:23276  .debug_str:0000000000010d29 .LASF4674
C:\Users\CYMR90~1\AppData\Local\Temp\cca5ocgO.s:28047  .debug_str:0000000000023da9 .LASF4675
C:\Users\CYMR90~1\AppData\Local\Temp\cca5ocgO.s:21956  .debug_str:000000000000b9e5 .LASF4676
C:\Users\CYMR90~1\AppData\Local\Temp\cca5ocgO.s:21666  .debug_str:000000000000a64e .LASF4677
C:\Users\CYMR90~1\AppData\Local\Temp\cca5ocgO.s:27215  .debug_str:0000000000020bcf .LASF4678
C:\Users\CYMR90~1\AppData\Local\Temp\cca5ocgO.s:21018  .debug_str:0000000000007c84 .LASF4679
C:\Users\CYMR90~1\AppData\Local\Temp\cca5ocgO.s:28463  .debug_str:0000000000025af0 .LASF4680
C:\Users\CYMR90~1\AppData\Local\Temp\cca5ocgO.s:28111  .debug_str:000000000002429d .LASF4681
C:\Users\CYMR90~1\AppData\Local\Temp\cca5ocgO.s:23104  .debug_str:0000000000010253 .LASF4682
C:\Users\CYMR90~1\AppData\Local\Temp\cca5ocgO.s:24420  .debug_str:00000000000156b5 .LASF4683
C:\Users\CYMR90~1\AppData\Local\Temp\cca5ocgO.s:29883  .debug_str:000000000002b461 .LASF4684
C:\Users\CYMR90~1\AppData\Local\Temp\cca5ocgO.s:28155  .debug_str:0000000000024592 .LASF4685
C:\Users\CYMR90~1\AppData\Local\Temp\cca5ocgO.s:25415  .debug_str:0000000000019715 .LASF4686
C:\Users\CYMR90~1\AppData\Local\Temp\cca5ocgO.s:26433  .debug_str:000000000001db6c .LASF4687
C:\Users\CYMR90~1\AppData\Local\Temp\cca5ocgO.s:24622  .debug_str:0000000000016392 .LASF4688
C:\Users\CYMR90~1\AppData\Local\Temp\cca5ocgO.s:21294  .debug_str:0000000000008f69 .LASF4689
C:\Users\CYMR90~1\AppData\Local\Temp\cca5ocgO.s:21056  .debug_str:0000000000007f83 .LASF4690
C:\Users\CYMR90~1\AppData\Local\Temp\cca5ocgO.s:25221  .debug_str:00000000000189b6 .LASF4691
C:\Users\CYMR90~1\AppData\Local\Temp\cca5ocgO.s:24881  .debug_str:00000000000174c4 .LASF4692
C:\Users\CYMR90~1\AppData\Local\Temp\cca5ocgO.s:24648  .debug_str:0000000000016503 .LASF4693
C:\Users\CYMR90~1\AppData\Local\Temp\cca5ocgO.s:20034  .debug_str:0000000000003db2 .LASF4694
C:\Users\CYMR90~1\AppData\Local\Temp\cca5ocgO.s:28877  .debug_str:00000000000274cb .LASF4695
C:\Users\CYMR90~1\AppData\Local\Temp\cca5ocgO.s:22596  .debug_str:000000000000e31e .LASF4696
C:\Users\CYMR90~1\AppData\Local\Temp\cca5ocgO.s:20076  .debug_str:0000000000004069 .LASF4697
C:\Users\CYMR90~1\AppData\Local\Temp\cca5ocgO.s:24256  .debug_str:0000000000014c6f .LASF4698
C:\Users\CYMR90~1\AppData\Local\Temp\cca5ocgO.s:22592  .debug_str:000000000000e2cc .LASF4699
C:\Users\CYMR90~1\AppData\Local\Temp\cca5ocgO.s:19620  .debug_str:0000000000002336 .LASF4700
C:\Users\CYMR90~1\AppData\Local\Temp\cca5ocgO.s:29717  .debug_str:000000000002a994 .LASF4701
C:\Users\CYMR90~1\AppData\Local\Temp\cca5ocgO.s:21198  .debug_str:00000000000088ee .LASF4702
C:\Users\CYMR90~1\AppData\Local\Temp\cca5ocgO.s:19798  .debug_str:0000000000002e66 .LASF4703
C:\Users\CYMR90~1\AppData\Local\Temp\cca5ocgO.s:28967  .debug_str:0000000000027aae .LASF4704
C:\Users\CYMR90~1\AppData\Local\Temp\cca5ocgO.s:29455  .debug_str:0000000000029a0b .LASF4705
C:\Users\CYMR90~1\AppData\Local\Temp\cca5ocgO.s:22034  .debug_str:000000000000bf45 .LASF4706
C:\Users\CYMR90~1\AppData\Local\Temp\cca5ocgO.s:25571  .debug_str:000000000001a193 .LASF4707
C:\Users\CYMR90~1\AppData\Local\Temp\cca5ocgO.s:28409  .debug_str:0000000000025727 .LASF4708
C:\Users\CYMR90~1\AppData\Local\Temp\cca5ocgO.s:24360  .debug_str:000000000001537a .LASF4709
C:\Users\CYMR90~1\AppData\Local\Temp\cca5ocgO.s:30229  .debug_str:000000000002cb6c .LASF4710
C:\Users\CYMR90~1\AppData\Local\Temp\cca5ocgO.s:29131  .debug_str:0000000000028652 .LASF4711
C:\Users\CYMR90~1\AppData\Local\Temp\cca5ocgO.s:27877  .debug_str:000000000002332c .LASF4712
C:\Users\CYMR90~1\AppData\Local\Temp\cca5ocgO.s:26713  .debug_str:000000000001ecce .LASF4713
C:\Users\CYMR90~1\AppData\Local\Temp\cca5ocgO.s:23168  .debug_str:0000000000010598 .LASF4714
C:\Users\CYMR90~1\AppData\Local\Temp\cca5ocgO.s:30125  .debug_str:000000000002c524 .LASF4715
C:\Users\CYMR90~1\AppData\Local\Temp\cca5ocgO.s:22538  .debug_str:000000000000df87 .LASF4716
C:\Users\CYMR90~1\AppData\Local\Temp\cca5ocgO.s:28195  .debug_str:000000000002480d .LASF4717
C:\Users\CYMR90~1\AppData\Local\Temp\cca5ocgO.s:20806  .debug_str:0000000000006e91 .LASF4718
C:\Users\CYMR90~1\AppData\Local\Temp\cca5ocgO.s:22826  .debug_str:000000000000f137 .LASF4719
C:\Users\CYMR90~1\AppData\Local\Temp\cca5ocgO.s:28945  .debug_str:0000000000027906 .LASF4720
C:\Users\CYMR90~1\AppData\Local\Temp\cca5ocgO.s:26217  .debug_str:000000000001ccb7 .LASF4721
C:\Users\CYMR90~1\AppData\Local\Temp\cca5ocgO.s:28729  .debug_str:0000000000026b06 .LASF4722
C:\Users\CYMR90~1\AppData\Local\Temp\cca5ocgO.s:24991  .debug_str:0000000000017beb .LASF4723
C:\Users\CYMR90~1\AppData\Local\Temp\cca5ocgO.s:19786  .debug_str:0000000000002da9 .LASF4724
C:\Users\CYMR90~1\AppData\Local\Temp\cca5ocgO.s:21096  .debug_str:00000000000082cf .LASF4725
C:\Users\CYMR90~1\AppData\Local\Temp\cca5ocgO.s:26203  .debug_str:000000000001cbd4 .LASF4726
C:\Users\CYMR90~1\AppData\Local\Temp\cca5ocgO.s:23464  .debug_str:000000000001191b .LASF4727
C:\Users\CYMR90~1\AppData\Local\Temp\cca5ocgO.s:20676  .debug_str:0000000000006639 .LASF4728
C:\Users\CYMR90~1\AppData\Local\Temp\cca5ocgO.s:29365  .debug_str:000000000002947b .LASF4729
C:\Users\CYMR90~1\AppData\Local\Temp\cca5ocgO.s:25823  .debug_str:000000000001b395 .LASF4730
C:\Users\CYMR90~1\AppData\Local\Temp\cca5ocgO.s:20068  .debug_str:000000000000400e .LASF4731
C:\Users\CYMR90~1\AppData\Local\Temp\cca5ocgO.s:28481  .debug_str:0000000000025c0e .LASF4732
C:\Users\CYMR90~1\AppData\Local\Temp\cca5ocgO.s:22672  .debug_str:000000000000e7f9 .LASF4733
C:\Users\CYMR90~1\AppData\Local\Temp\cca5ocgO.s:20040  .debug_str:0000000000003e04 .LASF4734
C:\Users\CYMR90~1\AppData\Local\Temp\cca5ocgO.s:24156  .debug_str:000000000001461b .LASF4735
C:\Users\CYMR90~1\AppData\Local\Temp\cca5ocgO.s:21816  .debug_str:000000000000b086 .LASF4736
C:\Users\CYMR90~1\AppData\Local\Temp\cca5ocgO.s:27231  .debug_str:0000000000020cb3 .LASF4737
C:\Users\CYMR90~1\AppData\Local\Temp\cca5ocgO.s:28589  .debug_str:0000000000026275 .LASF4738
C:\Users\CYMR90~1\AppData\Local\Temp\cca5ocgO.s:26923  .debug_str:000000000001f9c4 .LASF4739
C:\Users\CYMR90~1\AppData\Local\Temp\cca5ocgO.s:27513  .debug_str:0000000000021e3c .LASF4740
C:\Users\CYMR90~1\AppData\Local\Temp\cca5ocgO.s:25795  .debug_str:000000000001b18b .LASF4741
C:\Users\CYMR90~1\AppData\Local\Temp\cca5ocgO.s:24330  .debug_str:000000000001519d .LASF4742
C:\Users\CYMR90~1\AppData\Local\Temp\cca5ocgO.s:28539  .debug_str:0000000000025fa5 .LASF4743
C:\Users\CYMR90~1\AppData\Local\Temp\cca5ocgO.s:28031  .debug_str:0000000000023cac .LASF4744
C:\Users\CYMR90~1\AppData\Local\Temp\cca5ocgO.s:26791  .debug_str:000000000001f1b3 .LASF4745
C:\Users\CYMR90~1\AppData\Local\Temp\cca5ocgO.s:27427  .debug_str:00000000000218ea .LASF4746
C:\Users\CYMR90~1\AppData\Local\Temp\cca5ocgO.s:20672  .debug_str:00000000000065f0 .LASF4747
C:\Users\CYMR90~1\AppData\Local\Temp\cca5ocgO.s:19616  .debug_str:00000000000022d9 .LASF4748
C:\Users\CYMR90~1\AppData\Local\Temp\cca5ocgO.s:27755  .debug_str:0000000000022c75 .LASF4749
C:\Users\CYMR90~1\AppData\Local\Temp\cca5ocgO.s:27707  .debug_str:000000000002294e .LASF4750
C:\Users\CYMR90~1\AppData\Local\Temp\cca5ocgO.s:27019  .debug_str:000000000001ffe7 .LASF4751
C:\Users\CYMR90~1\AppData\Local\Temp\cca5ocgO.s:19214  .debug_str:0000000000000a3b .LASF4752
C:\Users\CYMR90~1\AppData\Local\Temp\cca5ocgO.s:23946  .debug_str:000000000001393e .LASF4753
C:\Users\CYMR90~1\AppData\Local\Temp\cca5ocgO.s:25079  .debug_str:00000000000180e2 .LASF4754
C:\Users\CYMR90~1\AppData\Local\Temp\cca5ocgO.s:26355  .debug_str:000000000001d66c .LASF4755
C:\Users\CYMR90~1\AppData\Local\Temp\cca5ocgO.s:26263  .debug_str:000000000001d05a .LASF4756
C:\Users\CYMR90~1\AppData\Local\Temp\cca5ocgO.s:24292  .debug_str:0000000000014f0c .LASF4757
C:\Users\CYMR90~1\AppData\Local\Temp\cca5ocgO.s:19602  .debug_str:0000000000002201 .LASF4758
C:\Users\CYMR90~1\AppData\Local\Temp\cca5ocgO.s:21050  .debug_str:0000000000007f23 .LASF4759
C:\Users\CYMR90~1\AppData\Local\Temp\cca5ocgO.s:22092  .debug_str:000000000000c2c8 .LASF4760
C:\Users\CYMR90~1\AppData\Local\Temp\cca5ocgO.s:27559  .debug_str:00000000000220d6 .LASF4761
C:\Users\CYMR90~1\AppData\Local\Temp\cca5ocgO.s:25951  .debug_str:000000000001bb95 .LASF4762
C:\Users\CYMR90~1\AppData\Local\Temp\cca5ocgO.s:20154  .debug_str:00000000000045e8 .LASF4763
C:\Users\CYMR90~1\AppData\Local\Temp\cca5ocgO.s:21172  .debug_str:0000000000008758 .LASF4764
C:\Users\CYMR90~1\AppData\Local\Temp\cca5ocgO.s:20204  .debug_str:00000000000049cc .LASF4765
C:\Users\CYMR90~1\AppData\Local\Temp\cca5ocgO.s:26529  .debug_str:000000000001e1ba .LASF4766
C:\Users\CYMR90~1\AppData\Local\Temp\cca5ocgO.s:28127  .debug_str:00000000000243cb .LASF4767
C:\Users\CYMR90~1\AppData\Local\Temp\cca5ocgO.s:29623  .debug_str:000000000002a3f7 .LASF4768
C:\Users\CYMR90~1\AppData\Local\Temp\cca5ocgO.s:23002  .debug_str:000000000000fc7d .LASF4769
C:\Users\CYMR90~1\AppData\Local\Temp\cca5ocgO.s:27539  .debug_str:0000000000021fbb .LASF4770
C:\Users\CYMR90~1\AppData\Local\Temp\cca5ocgO.s:29071  .debug_str:0000000000028226 .LASF4771
C:\Users\CYMR90~1\AppData\Local\Temp\cca5ocgO.s:27917  .debug_str:00000000000235d6 .LASF4772
C:\Users\CYMR90~1\AppData\Local\Temp\cca5ocgO.s:24312  .debug_str:000000000001505c .LASF4773
C:\Users\CYMR90~1\AppData\Local\Temp\cca5ocgO.s:29825  .debug_str:000000000002b012 .LASF4774
C:\Users\CYMR90~1\AppData\Local\Temp\cca5ocgO.s:21852  .debug_str:000000000000b2b6 .LASF4775
C:\Users\CYMR90~1\AppData\Local\Temp\cca5ocgO.s:29331  .debug_str:000000000002924c .LASF4776
C:\Users\CYMR90~1\AppData\Local\Temp\cca5ocgO.s:24394  .debug_str:0000000000015554 .LASF4777
C:\Users\CYMR90~1\AppData\Local\Temp\cca5ocgO.s:27417  .debug_str:000000000002184d .LASF4778
C:\Users\CYMR90~1\AppData\Local\Temp\cca5ocgO.s:29727  .debug_str:000000000002aa4a .LASF4779
C:\Users\CYMR90~1\AppData\Local\Temp\cca5ocgO.s:19186  .debug_str:0000000000000877 .LASF4780
C:\Users\CYMR90~1\AppData\Local\Temp\cca5ocgO.s:24933  .debug_str:000000000001781c .LASF4781
C:\Users\CYMR90~1\AppData\Local\Temp\cca5ocgO.s:26675  .debug_str:000000000001eab6 .LASF4782
C:\Users\CYMR90~1\AppData\Local\Temp\cca5ocgO.s:21592  .debug_str:000000000000a197 .LASF4783
C:\Users\CYMR90~1\AppData\Local\Temp\cca5ocgO.s:20418  .debug_str:00000000000056d1 .LASF4784
C:\Users\CYMR90~1\AppData\Local\Temp\cca5ocgO.s:22934  .debug_str:000000000000f889 .LASF4785
C:\Users\CYMR90~1\AppData\Local\Temp\cca5ocgO.s:25215  .debug_str:0000000000018944 .LASF4786
C:\Users\CYMR90~1\AppData\Local\Temp\cca5ocgO.s:19704  .debug_str:0000000000002889 .LASF4787
C:\Users\CYMR90~1\AppData\Local\Temp\cca5ocgO.s:25453  .debug_str:0000000000019a7f .LASF4788
C:\Users\CYMR90~1\AppData\Local\Temp\cca5ocgO.s:26781  .debug_str:000000000001f0ff .LASF4789
C:\Users\CYMR90~1\AppData\Local\Temp\cca5ocgO.s:19222  .debug_str:0000000000000b01 .LASF4790
C:\Users\CYMR90~1\AppData\Local\Temp\cca5ocgO.s:20656  .debug_str:000000000000652a .LASF4791
C:\Users\CYMR90~1\AppData\Local\Temp\cca5ocgO.s:23696  .debug_str:0000000000012880 .LASF4792
C:\Users\CYMR90~1\AppData\Local\Temp\cca5ocgO.s:26065  .debug_str:000000000001c309 .LASF4793
C:\Users\CYMR90~1\AppData\Local\Temp\cca5ocgO.s:26279  .debug_str:000000000001d1c9 .LASF4794
C:\Users\CYMR90~1\AppData\Local\Temp\cca5ocgO.s:29777  .debug_str:000000000002ad56 .LASF4795
C:\Users\CYMR90~1\AppData\Local\Temp\cca5ocgO.s:22006  .debug_str:000000000000bd37 .LASF4796
C:\Users\CYMR90~1\AppData\Local\Temp\cca5ocgO.s:25047  .debug_str:0000000000017f41 .LASF4797
C:\Users\CYMR90~1\AppData\Local\Temp\cca5ocgO.s:24044  .debug_str:0000000000013f1b .LASF4798
C:\Users\CYMR90~1\AppData\Local\Temp\cca5ocgO.s:25033  .debug_str:0000000000017e38 .LASF4799
C:\Users\CYMR90~1\AppData\Local\Temp\cca5ocgO.s:28989  .debug_str:0000000000027c2a .LASF4800
C:\Users\CYMR90~1\AppData\Local\Temp\cca5ocgO.s:27221  .debug_str:0000000000020c0a .LASF4801
C:\Users\CYMR90~1\AppData\Local\Temp\cca5ocgO.s:19820  .debug_str:0000000000002fa5 .LASF4802
C:\Users\CYMR90~1\AppData\Local\Temp\cca5ocgO.s:22752  .debug_str:000000000000ed17 .LASF4803
C:\Users\CYMR90~1\AppData\Local\Temp\cca5ocgO.s:29523  .debug_str:0000000000029e09 .LASF4804
C:\Users\CYMR90~1\AppData\Local\Temp\cca5ocgO.s:21208  .debug_str:0000000000008991 .LASF4805
C:\Users\CYMR90~1\AppData\Local\Temp\cca5ocgO.s:22966  .debug_str:000000000000fa47 .LASF4806
C:\Users\CYMR90~1\AppData\Local\Temp\cca5ocgO.s:19762  .debug_str:0000000000002c37 .LASF4807
C:\Users\CYMR90~1\AppData\Local\Temp\cca5ocgO.s:22992  .debug_str:000000000000fbf2 .LASF4808
C:\Users\CYMR90~1\AppData\Local\Temp\cca5ocgO.s:24833  .debug_str:0000000000017222 .LASF4809
C:\Users\CYMR90~1\AppData\Local\Temp\cca5ocgO.s:22456  .debug_str:000000000000daa0 .LASF4810
C:\Users\CYMR90~1\AppData\Local\Temp\cca5ocgO.s:24917  .debug_str:000000000001771a .LASF4811
C:\Users\CYMR90~1\AppData\Local\Temp\cca5ocgO.s:21478  .debug_str:0000000000009a9a .LASF4812
C:\Users\CYMR90~1\AppData\Local\Temp\cca5ocgO.s:24306  .debug_str:0000000000014ffe .LASF4813
C:\Users\CYMR90~1\AppData\Local\Temp\cca5ocgO.s:21230  .debug_str:0000000000008afd .LASF4814
C:\Users\CYMR90~1\AppData\Local\Temp\cca5ocgO.s:21162  .debug_str:00000000000086be .LASF4815
C:\Users\CYMR90~1\AppData\Local\Temp\cca5ocgO.s:29775  .debug_str:000000000002ad31 .LASF4816
C:\Users\CYMR90~1\AppData\Local\Temp\cca5ocgO.s:28083  .debug_str:000000000002408c .LASF4817
C:\Users\CYMR90~1\AppData\Local\Temp\cca5ocgO.s:29761  .debug_str:000000000002ac5b .LASF4818
C:\Users\CYMR90~1\AppData\Local\Temp\cca5ocgO.s:25111  .debug_str:00000000000182f7 .LASF4819
C:\Users\CYMR90~1\AppData\Local\Temp\cca5ocgO.s:29259  .debug_str:0000000000028e22 .LASF4820
C:\Users\CYMR90~1\AppData\Local\Temp\cca5ocgO.s:28943  .debug_str:00000000000278e4 .LASF4821
C:\Users\CYMR90~1\AppData\Local\Temp\cca5ocgO.s:21454  .debug_str:00000000000098f3 .LASF4822
C:\Users\CYMR90~1\AppData\Local\Temp\cca5ocgO.s:28677  .debug_str:000000000002680b .LASF4823
C:\Users\CYMR90~1\AppData\Local\Temp\cca5ocgO.s:25095  .debug_str:0000000000018201 .LASF4824
C:\Users\CYMR90~1\AppData\Local\Temp\cca5ocgO.s:25001  .debug_str:0000000000017c58 .LASF4825
C:\Users\CYMR90~1\AppData\Local\Temp\cca5ocgO.s:28809  .debug_str:0000000000026ff1 .LASF4826
C:\Users\CYMR90~1\AppData\Local\Temp\cca5ocgO.s:22856  .debug_str:000000000000f329 .LASF4827
C:\Users\CYMR90~1\AppData\Local\Temp\cca5ocgO.s:26239  .debug_str:000000000001ce40 .LASF4828
C:\Users\CYMR90~1\AppData\Local\Temp\cca5ocgO.s:21634  .debug_str:000000000000a469 .LASF4829
C:\Users\CYMR90~1\AppData\Local\Temp\cca5ocgO.s:22178  .debug_str:000000000000c85e .LASF4830
C:\Users\CYMR90~1\AppData\Local\Temp\cca5ocgO.s:28339  .debug_str:0000000000025261 .LASF4831
C:\Users\CYMR90~1\AppData\Local\Temp\cca5ocgO.s:21584  .debug_str:000000000000a121 .LASF4832
C:\Users\CYMR90~1\AppData\Local\Temp\cca5ocgO.s:28163  .debug_str:0000000000024617 .LASF4833
C:\Users\CYMR90~1\AppData\Local\Temp\cca5ocgO.s:26007  .debug_str:000000000001bf5a .LASF4834
C:\Users\CYMR90~1\AppData\Local\Temp\cca5ocgO.s:22318  .debug_str:000000000000d1dd .LASF4835
C:\Users\CYMR90~1\AppData\Local\Temp\cca5ocgO.s:23186  .debug_str:000000000001074f .LASF4836
C:\Users\CYMR90~1\AppData\Local\Temp\cca5ocgO.s:19544  .debug_str:0000000000001efc .LASF4837
C:\Users\CYMR90~1\AppData\Local\Temp\cca5ocgO.s:24783  .debug_str:0000000000016f2c .LASF4838
C:\Users\CYMR90~1\AppData\Local\Temp\cca5ocgO.s:26083  .debug_str:000000000001c3fd .LASF4839
C:\Users\CYMR90~1\AppData\Local\Temp\cca5ocgO.s:24198  .debug_str:0000000000014915 .LASF4840
C:\Users\CYMR90~1\AppData\Local\Temp\cca5ocgO.s:20148  .debug_str:000000000000457f .LASF4841
C:\Users\CYMR90~1\AppData\Local\Temp\cca5ocgO.s:25725  .debug_str:000000000001acc0 .LASF4842
C:\Users\CYMR90~1\AppData\Local\Temp\cca5ocgO.s:28433  .debug_str:000000000002591b .LASF4843
C:\Users\CYMR90~1\AppData\Local\Temp\cca5ocgO.s:22910  .debug_str:000000000000f672 .LASF4844
C:\Users\CYMR90~1\AppData\Local\Temp\cca5ocgO.s:27253  .debug_str:0000000000020e02 .LASF4845
C:\Users\CYMR90~1\AppData\Local\Temp\cca5ocgO.s:19050  .debug_str:000000000000006a .LASF4846
C:\Users\CYMR90~1\AppData\Local\Temp\cca5ocgO.s:22082  .debug_str:000000000000c245 .LASF4847
C:\Users\CYMR90~1\AppData\Local\Temp\cca5ocgO.s:29957  .debug_str:000000000002b937 .LASF4848
C:\Users\CYMR90~1\AppData\Local\Temp\cca5ocgO.s:20890  .debug_str:0000000000007461 .LASF4849
C:\Users\CYMR90~1\AppData\Local\Temp\cca5ocgO.s:24448  .debug_str:0000000000015854 .LASF4850
C:\Users\CYMR90~1\AppData\Local\Temp\cca5ocgO.s:22128  .debug_str:000000000000c4e9 .LASF4851
C:\Users\CYMR90~1\AppData\Local\Temp\cca5ocgO.s:24296  .debug_str:0000000000014f53 .LASF4852
C:\Users\CYMR90~1\AppData\Local\Temp\cca5ocgO.s:21916  .debug_str:000000000000b727 .LASF4853
C:\Users\CYMR90~1\AppData\Local\Temp\cca5ocgO.s:24492  .debug_str:0000000000015b03 .LASF4854
C:\Users\CYMR90~1\AppData\Local\Temp\cca5ocgO.s:23382  .debug_str:000000000001131c .LASF4855
C:\Users\CYMR90~1\AppData\Local\Temp\cca5ocgO.s:28599  .debug_str:000000000002631e .LASF4856
C:\Users\CYMR90~1\AppData\Local\Temp\cca5ocgO.s:23620  .debug_str:00000000000123a0 .LASF4857
C:\Users\CYMR90~1\AppData\Local\Temp\cca5ocgO.s:24370  .debug_str:000000000001541c .LASF4858
C:\Users\CYMR90~1\AppData\Local\Temp\cca5ocgO.s:23292  .debug_str:0000000000010dfb .LASF4859
C:\Users\CYMR90~1\AppData\Local\Temp\cca5ocgO.s:29133  .debug_str:0000000000028674 .LASF4860
C:\Users\CYMR90~1\AppData\Local\Temp\cca5ocgO.s:20940  .debug_str:000000000000776b .LASF4861
C:\Users\CYMR90~1\AppData\Local\Temp\cca5ocgO.s:30023  .debug_str:000000000002bd9d .LASF4862
C:\Users\CYMR90~1\AppData\Local\Temp\cca5ocgO.s:30039  .debug_str:000000000002bf2d .LASF4863
C:\Users\CYMR90~1\AppData\Local\Temp\cca5ocgO.s:27245  .debug_str:0000000000020d9a .LASF4864
C:\Users\CYMR90~1\AppData\Local\Temp\cca5ocgO.s:19248  .debug_str:0000000000000c8a .LASF4865
C:\Users\CYMR90~1\AppData\Local\Temp\cca5ocgO.s:21958  .debug_str:000000000000b9fd .LASF4866
C:\Users\CYMR90~1\AppData\Local\Temp\cca5ocgO.s:25171  .debug_str:000000000001869f .LASF4867
C:\Users\CYMR90~1\AppData\Local\Temp\cca5ocgO.s:20664  .debug_str:0000000000006595 .LASF4868
C:\Users\CYMR90~1\AppData\Local\Temp\cca5ocgO.s:21132  .debug_str:0000000000008527 .LASF4869
C:\Users\CYMR90~1\AppData\Local\Temp\cca5ocgO.s:23810  .debug_str:0000000000013029 .LASF4870
C:\Users\CYMR90~1\AppData\Local\Temp\cca5ocgO.s:23230  .debug_str:00000000000109cd .LASF4871
C:\Users\CYMR90~1\AppData\Local\Temp\cca5ocgO.s:27527  .debug_str:0000000000021f20 .LASF4872
C:\Users\CYMR90~1\AppData\Local\Temp\cca5ocgO.s:26581  .debug_str:000000000001e4cc .LASF4873
C:\Users\CYMR90~1\AppData\Local\Temp\cca5ocgO.s:20338  .debug_str:000000000000520c .LASF4874
C:\Users\CYMR90~1\AppData\Local\Temp\cca5ocgO.s:27363  .debug_str:000000000002150e .LASF4875
C:\Users\CYMR90~1\AppData\Local\Temp\cca5ocgO.s:24546  .debug_str:0000000000015e89 .LASF4876
C:\Users\CYMR90~1\AppData\Local\Temp\cca5ocgO.s:20574  .debug_str:0000000000006010 .LASF4877
C:\Users\CYMR90~1\AppData\Local\Temp\cca5ocgO.s:21052  .debug_str:0000000000007f47 .LASF4878
C:\Users\CYMR90~1\AppData\Local\Temp\cca5ocgO.s:24380  .debug_str:0000000000015485 .LASF4879
C:\Users\CYMR90~1\AppData\Local\Temp\cca5ocgO.s:27023  .debug_str:0000000000020035 .LASF4880
C:\Users\CYMR90~1\AppData\Local\Temp\cca5ocgO.s:29163  .debug_str:000000000002885f .LASF4881
C:\Users\CYMR90~1\AppData\Local\Temp\cca5ocgO.s:24024  .debug_str:0000000000013dd5 .LASF4882
C:\Users\CYMR90~1\AppData\Local\Temp\cca5ocgO.s:23960  .debug_str:0000000000013a00 .LASF4883
C:\Users\CYMR90~1\AppData\Local\Temp\cca5ocgO.s:19656  .debug_str:000000000000256e .LASF4884
C:\Users\CYMR90~1\AppData\Local\Temp\cca5ocgO.s:26641  .debug_str:000000000001e875 .LASF4885
C:\Users\CYMR90~1\AppData\Local\Temp\cca5ocgO.s:26103  .debug_str:000000000001c51a .LASF4886
C:\Users\CYMR90~1\AppData\Local\Temp\cca5ocgO.s:28389  .debug_str:00000000000255e9 .LASF4887
C:\Users\CYMR90~1\AppData\Local\Temp\cca5ocgO.s:20714  .debug_str:00000000000068d5 .LASF4888
C:\Users\CYMR90~1\AppData\Local\Temp\cca5ocgO.s:19508  .debug_str:0000000000001cee .LASF4889
C:\Users\CYMR90~1\AppData\Local\Temp\cca5ocgO.s:21316  .debug_str:0000000000009090 .LASF4890
C:\Users\CYMR90~1\AppData\Local\Temp\cca5ocgO.s:21480  .debug_str:0000000000009abd .LASF4891
C:\Users\CYMR90~1\AppData\Local\Temp\cca5ocgO.s:19520  .debug_str:0000000000001d8f .LASF4892
C:\Users\CYMR90~1\AppData\Local\Temp\cca5ocgO.s:30063  .debug_str:000000000002c0ac .LASF4893
C:\Users\CYMR90~1\AppData\Local\Temp\cca5ocgO.s:24246  .debug_str:0000000000014be9 .LASF4894
C:\Users\CYMR90~1\AppData\Local\Temp\cca5ocgO.s:24652  .debug_str:0000000000016546 .LASF4895
C:\Users\CYMR90~1\AppData\Local\Temp\cca5ocgO.s:23744  .debug_str:0000000000012bc0 .LASF4896
C:\Users\CYMR90~1\AppData\Local\Temp\cca5ocgO.s:21800  .debug_str:000000000000af87 .LASF4897
C:\Users\CYMR90~1\AppData\Local\Temp\cca5ocgO.s:24310  .debug_str:0000000000015043 .LASF4898
C:\Users\CYMR90~1\AppData\Local\Temp\cca5ocgO.s:20860  .debug_str:000000000000723c .LASF4899
C:\Users\CYMR90~1\AppData\Local\Temp\cca5ocgO.s:25091  .debug_str:00000000000181c4 .LASF4900
C:\Users\CYMR90~1\AppData\Local\Temp\cca5ocgO.s:22954  .debug_str:000000000000f9a0 .LASF4901
C:\Users\CYMR90~1\AppData\Local\Temp\cca5ocgO.s:24476  .debug_str:0000000000015a15 .LASF4902
C:\Users\CYMR90~1\AppData\Local\Temp\cca5ocgO.s:21004  .debug_str:0000000000007bad .LASF4903
C:\Users\CYMR90~1\AppData\Local\Temp\cca5ocgO.s:25745  .debug_str:000000000001ae10 .LASF4904
C:\Users\CYMR90~1\AppData\Local\Temp\cca5ocgO.s:30293  .debug_str:000000000002cfed .LASF4905
C:\Users\CYMR90~1\AppData\Local\Temp\cca5ocgO.s:19944  .debug_str:00000000000037ce .LASF4906
C:\Users\CYMR90~1\AppData\Local\Temp\cca5ocgO.s:23602  .debug_str:0000000000012264 .LASF4907
C:\Users\CYMR90~1\AppData\Local\Temp\cca5ocgO.s:20914  .debug_str:00000000000075bd .LASF4908
C:\Users\CYMR90~1\AppData\Local\Temp\cca5ocgO.s:20296  .debug_str:0000000000004f8f .LASF4909
C:\Users\CYMR90~1\AppData\Local\Temp\cca5ocgO.s:21528  .debug_str:0000000000009da3 .LASF4910
C:\Users\CYMR90~1\AppData\Local\Temp\cca5ocgO.s:21476  .debug_str:0000000000009a79 .LASF4911
C:\Users\CYMR90~1\AppData\Local\Temp\cca5ocgO.s:22378  .debug_str:000000000000d62f .LASF4912
C:\Users\CYMR90~1\AppData\Local\Temp\cca5ocgO.s:19600  .debug_str:00000000000021e4 .LASF4913
C:\Users\CYMR90~1\AppData\Local\Temp\cca5ocgO.s:19678  .debug_str:0000000000002688 .LASF4914
C:\Users\CYMR90~1\AppData\Local\Temp\cca5ocgO.s:27135  .debug_str:00000000000206df .LASF4915
C:\Users\CYMR90~1\AppData\Local\Temp\cca5ocgO.s:28819  .debug_str:00000000000270cf .LASF4916
C:\Users\CYMR90~1\AppData\Local\Temp\cca5ocgO.s:19462  .debug_str:0000000000001a24 .LASF4917
C:\Users\CYMR90~1\AppData\Local\Temp\cca5ocgO.s:22974  .debug_str:000000000000face .LASF4918
C:\Users\CYMR90~1\AppData\Local\Temp\cca5ocgO.s:21364  .debug_str:000000000000934b .LASF4919
C:\Users\CYMR90~1\AppData\Local\Temp\cca5ocgO.s:28279  .debug_str:0000000000024dff .LASF4920
C:\Users\CYMR90~1\AppData\Local\Temp\cca5ocgO.s:29741  .debug_str:000000000002ab19 .LASF4921
C:\Users\CYMR90~1\AppData\Local\Temp\cca5ocgO.s:24803  .debug_str:0000000000017072 .LASF4922
C:\Users\CYMR90~1\AppData\Local\Temp\cca5ocgO.s:24921  .debug_str:000000000001775c .LASF4923
C:\Users\CYMR90~1\AppData\Local\Temp\cca5ocgO.s:26459  .debug_str:000000000001dce8 .LASF4924
C:\Users\CYMR90~1\AppData\Local\Temp\cca5ocgO.s:21602  .debug_str:000000000000a248 .LASF4925
C:\Users\CYMR90~1\AppData\Local\Temp\cca5ocgO.s:26889  .debug_str:000000000001f7bc .LASF4926
C:\Users\CYMR90~1\AppData\Local\Temp\cca5ocgO.s:28045  .debug_str:0000000000023d8c .LASF4927
C:\Users\CYMR90~1\AppData\Local\Temp\cca5ocgO.s:23734  .debug_str:0000000000012b3a .LASF4928
C:\Users\CYMR90~1\AppData\Local\Temp\cca5ocgO.s:19948  .debug_str:0000000000003807 .LASF4929
C:\Users\CYMR90~1\AppData\Local\Temp\cca5ocgO.s:20126  .debug_str:0000000000004406 .LASF4930
C:\Users\CYMR90~1\AppData\Local\Temp\cca5ocgO.s:28977  .debug_str:0000000000027b5f .LASF4931
C:\Users\CYMR90~1\AppData\Local\Temp\cca5ocgO.s:23398  .debug_str:000000000001140f .LASF4932
C:\Users\CYMR90~1\AppData\Local\Temp\cca5ocgO.s:21970  .debug_str:000000000000ba96 .LASF4933
C:\Users\CYMR90~1\AppData\Local\Temp\cca5ocgO.s:28037  .debug_str:0000000000023cfb .LASF4934
C:\Users\CYMR90~1\AppData\Local\Temp\cca5ocgO.s:28141  .debug_str:00000000000244ba .LASF4935
C:\Users\CYMR90~1\AppData\Local\Temp\cca5ocgO.s:24450  .debug_str:000000000001586a .LASF4936
C:\Users\CYMR90~1\AppData\Local\Temp\cca5ocgO.s:26953  .debug_str:000000000001fbb1 .LASF4937
C:\Users\CYMR90~1\AppData\Local\Temp\cca5ocgO.s:24785  .debug_str:0000000000016f56 .LASF4938
C:\Users\CYMR90~1\AppData\Local\Temp\cca5ocgO.s:19910  .debug_str:00000000000035af .LASF4939
C:\Users\CYMR90~1\AppData\Local\Temp\cca5ocgO.s:21636  .debug_str:000000000000a495 .LASF4940
C:\Users\CYMR90~1\AppData\Local\Temp\cca5ocgO.s:20626  .debug_str:000000000000634b .LASF4941
C:\Users\CYMR90~1\AppData\Local\Temp\cca5ocgO.s:28611  .debug_str:00000000000263e4 .LASF4942
C:\Users\CYMR90~1\AppData\Local\Temp\cca5ocgO.s:24702  .debug_str:0000000000016801 .LASF4943
C:\Users\CYMR90~1\AppData\Local\Temp\cca5ocgO.s:19158  .debug_str:00000000000006c2 .LASF4944
C:\Users\CYMR90~1\AppData\Local\Temp\cca5ocgO.s:25657  .debug_str:000000000001a8bb .LASF4945
C:\Users\CYMR90~1\AppData\Local\Temp\cca5ocgO.s:30003  .debug_str:000000000002bc63 .LASF4946
C:\Users\CYMR90~1\AppData\Local\Temp\cca5ocgO.s:21786  .debug_str:000000000000ae05 .LASF4947
C:\Users\CYMR90~1\AppData\Local\Temp\cca5ocgO.s:20708  .debug_str:000000000000687d .LASF4948
C:\Users\CYMR90~1\AppData\Local\Temp\cca5ocgO.s:28927  .debug_str:00000000000277b0 .LASF4949
C:\Users\CYMR90~1\AppData\Local\Temp\cca5ocgO.s:25681  .debug_str:000000000001aa22 .LASF4950
C:\Users\CYMR90~1\AppData\Local\Temp\cca5ocgO.s:26797  .debug_str:000000000001f20f .LASF4951
C:\Users\CYMR90~1\AppData\Local\Temp\cca5ocgO.s:25943  .debug_str:000000000001bb30 .LASF4952
C:\Users\CYMR90~1\AppData\Local\Temp\cca5ocgO.s:20416  .debug_str:00000000000056b8 .LASF4953
C:\Users\CYMR90~1\AppData\Local\Temp\cca5ocgO.s:27809  .debug_str:0000000000022f74 .LASF4954
C:\Users\CYMR90~1\AppData\Local\Temp\cca5ocgO.s:27827  .debug_str:0000000000023060 .LASF4955
C:\Users\CYMR90~1\AppData\Local\Temp\cca5ocgO.s:28309  .debug_str:0000000000024f81 .LASF4956
C:\Users\CYMR90~1\AppData\Local\Temp\cca5ocgO.s:29235  .debug_str:0000000000028c7f .LASF4957
C:\Users\CYMR90~1\AppData\Local\Temp\cca5ocgO.s:27869  .debug_str:00000000000232bf .LASF4958
C:\Users\CYMR90~1\AppData\Local\Temp\cca5ocgO.s:29357  .debug_str:000000000002940f .LASF4959
C:\Users\CYMR90~1\AppData\Local\Temp\cca5ocgO.s:23816  .debug_str:0000000000013087 .LASF4960
C:\Users\CYMR90~1\AppData\Local\Temp\cca5ocgO.s:23642  .debug_str:00000000000124e3 .LASF4961
C:\Users\CYMR90~1\AppData\Local\Temp\cca5ocgO.s:27403  .debug_str:000000000002176c .LASF4962
C:\Users\CYMR90~1\AppData\Local\Temp\cca5ocgO.s:30267  .debug_str:000000000002ce3e .LASF4963
C:\Users\CYMR90~1\AppData\Local\Temp\cca5ocgO.s:23820  .debug_str:00000000000130cb .LASF4964
C:\Users\CYMR90~1\AppData\Local\Temp\cca5ocgO.s:25005  .debug_str:0000000000017c95 .LASF4965
C:\Users\CYMR90~1\AppData\Local\Temp\cca5ocgO.s:20290  .debug_str:0000000000004f37 .LASF4966
C:\Users\CYMR90~1\AppData\Local\Temp\cca5ocgO.s:27387  .debug_str:0000000000021675 .LASF4967
C:\Users\CYMR90~1\AppData\Local\Temp\cca5ocgO.s:24841  .debug_str:00000000000172a0 .LASF4968
C:\Users\CYMR90~1\AppData\Local\Temp\cca5ocgO.s:19818  .debug_str:0000000000002f8c .LASF4969
C:\Users\CYMR90~1\AppData\Local\Temp\cca5ocgO.s:26703  .debug_str:000000000001ec31 .LASF4970
C:\Users\CYMR90~1\AppData\Local\Temp\cca5ocgO.s:27623  .debug_str:0000000000022466 .LASF4971
C:\Users\CYMR90~1\AppData\Local\Temp\cca5ocgO.s:20580  .debug_str:0000000000006082 .LASF4972
C:\Users\CYMR90~1\AppData\Local\Temp\cca5ocgO.s:28077  .debug_str:0000000000023f65 .LASF4973
C:\Users\CYMR90~1\AppData\Local\Temp\cca5ocgO.s:26343  .debug_str:000000000001d593 .LASF4974
C:\Users\CYMR90~1\AppData\Local\Temp\cca5ocgO.s:26323  .debug_str:000000000001d460 .LASF4975
C:\Users\CYMR90~1\AppData\Local\Temp\cca5ocgO.s:19298  .debug_str:0000000000000fee .LASF4976
C:\Users\CYMR90~1\AppData\Local\Temp\cca5ocgO.s:23690  .debug_str:0000000000012812 .LASF4977
C:\Users\CYMR90~1\AppData\Local\Temp\cca5ocgO.s:25107  .debug_str:00000000000182b0 .LASF4978
C:\Users\CYMR90~1\AppData\Local\Temp\cca5ocgO.s:20886  .debug_str:0000000000007416 .LASF4979
C:\Users\CYMR90~1\AppData\Local\Temp\cca5ocgO.s:25663  .debug_str:000000000001a905 .LASF4980
C:\Users\CYMR90~1\AppData\Local\Temp\cca5ocgO.s:29475  .debug_str:0000000000029b5a .LASF4981
C:\Users\CYMR90~1\AppData\Local\Temp\cca5ocgO.s:22158  .debug_str:000000000000c6cd .LASF4982
C:\Users\CYMR90~1\AppData\Local\Temp\cca5ocgO.s:21770  .debug_str:000000000000acc8 .LASF4983
C:\Users\CYMR90~1\AppData\Local\Temp\cca5ocgO.s:22784  .debug_str:000000000000eec4 .LASF4984
C:\Users\CYMR90~1\AppData\Local\Temp\cca5ocgO.s:20748  .debug_str:0000000000006ae8 .LASF4985
C:\Users\CYMR90~1\AppData\Local\Temp\cca5ocgO.s:30277  .debug_str:000000000002cef3 .LASF4986
C:\Users\CYMR90~1\AppData\Local\Temp\cca5ocgO.s:19660  .debug_str:00000000000025a4 .LASF4987
C:\Users\CYMR90~1\AppData\Local\Temp\cca5ocgO.s:27857  .debug_str:00000000000231f7 .LASF4988
C:\Users\CYMR90~1\AppData\Local\Temp\cca5ocgO.s:24710  .debug_str:000000000001689b .LASF4989
C:\Users\CYMR90~1\AppData\Local\Temp\cca5ocgO.s:21848  .debug_str:000000000000b284 .LASF4990
C:\Users\CYMR90~1\AppData\Local\Temp\cca5ocgO.s:22972  .debug_str:000000000000faae .LASF4991
C:\Users\CYMR90~1\AppData\Local\Temp\cca5ocgO.s:29021  .debug_str:0000000000027e16 .LASF4992
C:\Users\CYMR90~1\AppData\Local\Temp\cca5ocgO.s:20962  .debug_str:00000000000078e9 .LASF4993
C:\Users\CYMR90~1\AppData\Local\Temp\cca5ocgO.s:22394  .debug_str:000000000000d747 .LASF4994
C:\Users\CYMR90~1\AppData\Local\Temp\cca5ocgO.s:30187  .debug_str:000000000002c8e9 .LASF4995
C:\Users\CYMR90~1\AppData\Local\Temp\cca5ocgO.s:22012  .debug_str:000000000000bdb0 .LASF4996
C:\Users\CYMR90~1\AppData\Local\Temp\cca5ocgO.s:21576  .debug_str:000000000000a0b4 .LASF4997
C:\Users\CYMR90~1\AppData\Local\Temp\cca5ocgO.s:28931  .debug_str:0000000000027808 .LASF4998
C:\Users\CYMR90~1\AppData\Local\Temp\cca5ocgO.s:23432  .debug_str:0000000000011665 .LASF4999
C:\Users\CYMR90~1\AppData\Local\Temp\cca5ocgO.s:20210  .debug_str:0000000000004a24 .LASF5000
C:\Users\CYMR90~1\AppData\Local\Temp\cca5ocgO.s:21520  .debug_str:0000000000009d1d .LASF5001
C:\Users\CYMR90~1\AppData\Local\Temp\cca5ocgO.s:25331  .debug_str:0000000000019214 .LASF5002
C:\Users\CYMR90~1\AppData\Local\Temp\cca5ocgO.s:26285  .debug_str:000000000001d217 .LASF5003
C:\Users\CYMR90~1\AppData\Local\Temp\cca5ocgO.s:26499  .debug_str:000000000001e00e .LASF5004
C:\Users\CYMR90~1\AppData\Local\Temp\cca5ocgO.s:22238  .debug_str:000000000000cd2e .LASF5005
C:\Users\CYMR90~1\AppData\Local\Temp\cca5ocgO.s:24506  .debug_str:0000000000015bce .LASF5006
C:\Users\CYMR90~1\AppData\Local\Temp\cca5ocgO.s:22626  .debug_str:000000000000e4d6 .LASF5007
C:\Users\CYMR90~1\AppData\Local\Temp\cca5ocgO.s:25493  .debug_str:0000000000019cfa .LASF5008
C:\Users\CYMR90~1\AppData\Local\Temp\cca5ocgO.s:25249  .debug_str:0000000000018b90 .LASF5009
C:\Users\CYMR90~1\AppData\Local\Temp\cca5ocgO.s:27929  .debug_str:00000000000236b1 .LASF5010
C:\Users\CYMR90~1\AppData\Local\Temp\cca5ocgO.s:20174  .debug_str:0000000000004733 .LASF5011
C:\Users\CYMR90~1\AppData\Local\Temp\cca5ocgO.s:19228  .debug_str:0000000000000b64 .LASF5012
C:\Users\CYMR90~1\AppData\Local\Temp\cca5ocgO.s:23522  .debug_str:0000000000011d0a .LASF5013
C:\Users\CYMR90~1\AppData\Local\Temp\cca5ocgO.s:24270  .debug_str:0000000000014d59 .LASF5014
C:\Users\CYMR90~1\AppData\Local\Temp\cca5ocgO.s:30065  .debug_str:000000000002c0c4 .LASF5015
C:\Users\CYMR90~1\AppData\Local\Temp\cca5ocgO.s:21110  .debug_str:00000000000083ac .LASF5016
C:\Users\CYMR90~1\AppData\Local\Temp\cca5ocgO.s:21662  .debug_str:000000000000a60a .LASF5017
C:\Users\CYMR90~1\AppData\Local\Temp\cca5ocgO.s:25337  .debug_str:0000000000019276 .LASF5018
C:\Users\CYMR90~1\AppData\Local\Temp\cca5ocgO.s:22564  .debug_str:000000000000e10d .LASF5019
C:\Users\CYMR90~1\AppData\Local\Temp\cca5ocgO.s:30113  .debug_str:000000000002c468 .LASF5020
C:\Users\CYMR90~1\AppData\Local\Temp\cca5ocgO.s:19466  .debug_str:0000000000001a62 .LASF5021
C:\Users\CYMR90~1\AppData\Local\Temp\cca5ocgO.s:29011  .debug_str:0000000000027d69 .LASF5022
C:\Users\CYMR90~1\AppData\Local\Temp\cca5ocgO.s:26401  .debug_str:000000000001d999 .LASF5023
C:\Users\CYMR90~1\AppData\Local\Temp\cca5ocgO.s:24765  .debug_str:0000000000016df3 .LASF5024
C:\Users\CYMR90~1\AppData\Local\Temp\cca5ocgO.s:21624  .debug_str:000000000000a3c7 .LASF5025
C:\Users\CYMR90~1\AppData\Local\Temp\cca5ocgO.s:20278  .debug_str:0000000000004e6b .LASF5026
C:\Users\CYMR90~1\AppData\Local\Temp\cca5ocgO.s:23822  .debug_str:00000000000130eb .LASF5027
C:\Users\CYMR90~1\AppData\Local\Temp\cca5ocgO.s:25235  .debug_str:0000000000018a95 .LASF5028
C:\Users\CYMR90~1\AppData\Local\Temp\cca5ocgO.s:23922  .debug_str:00000000000137c9 .LASF5029
C:\Users\CYMR90~1\AppData\Local\Temp\cca5ocgO.s:26289  .debug_str:000000000001d261 .LASF5030
C:\Users\CYMR90~1\AppData\Local\Temp\cca5ocgO.s:28613  .debug_str:00000000000263ff .LASF5031
C:\Users\CYMR90~1\AppData\Local\Temp\cca5ocgO.s:19722  .debug_str:00000000000029bb .LASF5032
C:\Users\CYMR90~1\AppData\Local\Temp\cca5ocgO.s:23492  .debug_str:0000000000011b5d .LASF5033
C:\Users\CYMR90~1\AppData\Local\Temp\cca5ocgO.s:27021  .debug_str:000000000002000a .LASF5034
C:\Users\CYMR90~1\AppData\Local\Temp\cca5ocgO.s:19860  .debug_str:000000000000324a .LASF5035
C:\Users\CYMR90~1\AppData\Local\Temp\cca5ocgO.s:26951  .debug_str:000000000001fb72 .LASF5036
C:\Users\CYMR90~1\AppData\Local\Temp\cca5ocgO.s:23908  .debug_str:00000000000136f9 .LASF5037
C:\Users\CYMR90~1\AppData\Local\Temp\cca5ocgO.s:29351  .debug_str:0000000000029393 .LASF5038
C:\Users\CYMR90~1\AppData\Local\Temp\cca5ocgO.s:21608  .debug_str:000000000000a29f .LASF5039
C:\Users\CYMR90~1\AppData\Local\Temp\cca5ocgO.s:25327  .debug_str:00000000000191c1 .LASF5040
C:\Users\CYMR90~1\AppData\Local\Temp\cca5ocgO.s:29599  .debug_str:000000000002a252 .LASF5041
C:\Users\CYMR90~1\AppData\Local\Temp\cca5ocgO.s:22572  .debug_str:000000000000e18e .LASF5042
C:\Users\CYMR90~1\AppData\Local\Temp\cca5ocgO.s:29593  .debug_str:000000000002a1e9 .LASF5043
C:\Users\CYMR90~1\AppData\Local\Temp\cca5ocgO.s:19796  .debug_str:0000000000002e39 .LASF5044
C:\Users\CYMR90~1\AppData\Local\Temp\cca5ocgO.s:25747  .debug_str:000000000001ae28 .LASF5045
C:\Users\CYMR90~1\AppData\Local\Temp\cca5ocgO.s:22888  .debug_str:000000000000f520 .LASF5046
C:\Users\CYMR90~1\AppData\Local\Temp\cca5ocgO.s:24082  .debug_str:00000000000141a5 .LASF5047
C:\Users\CYMR90~1\AppData\Local\Temp\cca5ocgO.s:29241  .debug_str:0000000000028ce5 .LASF5048
C:\Users\CYMR90~1\AppData\Local\Temp\cca5ocgO.s:21336  .debug_str:0000000000009192 .LASF5049
C:\Users\CYMR90~1\AppData\Local\Temp\cca5ocgO.s:26259  .debug_str:000000000001d003 .LASF5050
C:\Users\CYMR90~1\AppData\Local\Temp\cca5ocgO.s:29639  .debug_str:000000000002a4ec .LASF5051
C:\Users\CYMR90~1\AppData\Local\Temp\cca5ocgO.s:20168  .debug_str:00000000000046bb .LASF5052
C:\Users\CYMR90~1\AppData\Local\Temp\cca5ocgO.s:23324  .debug_str:0000000000010f9d .LASF5053
C:\Users\CYMR90~1\AppData\Local\Temp\cca5ocgO.s:26911  .debug_str:000000000001f8d9 .LASF5054
C:\Users\CYMR90~1\AppData\Local\Temp\cca5ocgO.s:26081  .debug_str:000000000001c3d5 .LASF5055
C:\Users\CYMR90~1\AppData\Local\Temp\cca5ocgO.s:27045  .debug_str:0000000000020169 .LASF5056
C:\Users\CYMR90~1\AppData\Local\Temp\cca5ocgO.s:30247  .debug_str:000000000002cd2c .LASF5057
C:\Users\CYMR90~1\AppData\Local\Temp\cca5ocgO.s:19914  .debug_str:00000000000035de .LASF5058
C:\Users\CYMR90~1\AppData\Local\Temp\cca5ocgO.s:26663  .debug_str:000000000001e9e7 .LASF5059
C:\Users\CYMR90~1\AppData\Local\Temp\cca5ocgO.s:27419  .debug_str:0000000000021879 .LASF5060
C:\Users\CYMR90~1\AppData\Local\Temp\cca5ocgO.s:19490  .debug_str:0000000000001bc7 .LASF5061
C:\Users\CYMR90~1\AppData\Local\Temp\cca5ocgO.s:23730  .debug_str:0000000000012aed .LASF5062
C:\Users\CYMR90~1\AppData\Local\Temp\cca5ocgO.s:25037  .debug_str:0000000000017e7d .LASF5063
C:\Users\CYMR90~1\AppData\Local\Temp\cca5ocgO.s:23238  .debug_str:0000000000010a7b .LASF5064
C:\Users\CYMR90~1\AppData\Local\Temp\cca5ocgO.s:25143  .debug_str:00000000000184d5 .LASF5065
C:\Users\CYMR90~1\AppData\Local\Temp\cca5ocgO.s:25705  .debug_str:000000000001abbb .LASF5066
C:\Users\CYMR90~1\AppData\Local\Temp\cca5ocgO.s:27051  .debug_str:00000000000201ca .LASF5067
C:\Users\CYMR90~1\AppData\Local\Temp\cca5ocgO.s:30279  .debug_str:000000000002cf11 .LASF5068
C:\Users\CYMR90~1\AppData\Local\Temp\cca5ocgO.s:24192  .debug_str:0000000000014893 .LASF5069
C:\Users\CYMR90~1\AppData\Local\Temp\cca5ocgO.s:25563  .debug_str:000000000001a121 .LASF5070
C:\Users\CYMR90~1\AppData\Local\Temp\cca5ocgO.s:20376  .debug_str:000000000000544a .LASF5071
C:\Users\CYMR90~1\AppData\Local\Temp\cca5ocgO.s:28135  .debug_str:0000000000024433 .LASF5072
C:\Users\CYMR90~1\AppData\Local\Temp\cca5ocgO.s:29015  .debug_str:0000000000027da8 .LASF5073
C:\Users\CYMR90~1\AppData\Local\Temp\cca5ocgO.s:20984  .debug_str:0000000000007a42 .LASF5074
C:\Users\CYMR90~1\AppData\Local\Temp\cca5ocgO.s:30073  .debug_str:000000000002c16b .LASF5075
C:\Users\CYMR90~1\AppData\Local\Temp\cca5ocgO.s:22736  .debug_str:000000000000ec48 .LASF5076
C:\Users\CYMR90~1\AppData\Local\Temp\cca5ocgO.s:24955  .debug_str:00000000000179af .LASF5077
C:\Users\CYMR90~1\AppData\Local\Temp\cca5ocgO.s:21090  .debug_str:0000000000008270 .LASF5078
C:\Users\CYMR90~1\AppData\Local\Temp\cca5ocgO.s:20678  .debug_str:000000000000665b .LASF5079
C:\Users\CYMR90~1\AppData\Local\Temp\cca5ocgO.s:20282  .debug_str:0000000000004eac .LASF5080
C:\Users\CYMR90~1\AppData\Local\Temp\cca5ocgO.s:28829  .debug_str:0000000000027208 .LASF5081
C:\Users\CYMR90~1\AppData\Local\Temp\cca5ocgO.s:25083  .debug_str:000000000001812c .LASF5082
C:\Users\CYMR90~1\AppData\Local\Temp\cca5ocgO.s:23670  .debug_str:00000000000126c4 .LASF5083
C:\Users\CYMR90~1\AppData\Local\Temp\cca5ocgO.s:22186  .debug_str:000000000000c8f0 .LASF5084
C:\Users\CYMR90~1\AppData\Local\Temp\cca5ocgO.s:26645  .debug_str:000000000001e8bd .LASF5085
C:\Users\CYMR90~1\AppData\Local\Temp\cca5ocgO.s:21334  .debug_str:0000000000009161 .LASF5086
C:\Users\CYMR90~1\AppData\Local\Temp\cca5ocgO.s:29801  .debug_str:000000000002aea1 .LASF5087
C:\Users\CYMR90~1\AppData\Local\Temp\cca5ocgO.s:26635  .debug_str:000000000001e7e1 .LASF5088
C:\Users\CYMR90~1\AppData\Local\Temp\cca5ocgO.s:21184  .debug_str:000000000000880a .LASF5089
C:\Users\CYMR90~1\AppData\Local\Temp\cca5ocgO.s:28923  .debug_str:000000000002777e .LASF5090
C:\Users\CYMR90~1\AppData\Local\Temp\cca5ocgO.s:30285  .debug_str:000000000002cf6b .LASF5091
C:\Users\CYMR90~1\AppData\Local\Temp\cca5ocgO.s:26961  .debug_str:000000000001fc09 .LASF5092
C:\Users\CYMR90~1\AppData\Local\Temp\cca5ocgO.s:29209  .debug_str:0000000000028b0f .LASF5093
C:\Users\CYMR90~1\AppData\Local\Temp\cca5ocgO.s:19776  .debug_str:0000000000002cf3 .LASF5094
C:\Users\CYMR90~1\AppData\Local\Temp\cca5ocgO.s:20600  .debug_str:00000000000061bd .LASF5095
C:\Users\CYMR90~1\AppData\Local\Temp\cca5ocgO.s:25583  .debug_str:000000000001a238 .LASF5096
C:\Users\CYMR90~1\AppData\Local\Temp\cca5ocgO.s:24278  .debug_str:0000000000014e13 .LASF5097
C:\Users\CYMR90~1\AppData\Local\Temp\cca5ocgO.s:23030  .debug_str:000000000000fd6c .LASF5098
C:\Users\CYMR90~1\AppData\Local\Temp\cca5ocgO.s:29657  .debug_str:000000000002a616 .LASF5099
C:\Users\CYMR90~1\AppData\Local\Temp\cca5ocgO.s:26021  .debug_str:000000000001c02d .LASF5100
C:\Users\CYMR90~1\AppData\Local\Temp\cca5ocgO.s:27485  .debug_str:0000000000021c78 .LASF5101
C:\Users\CYMR90~1\AppData\Local\Temp\cca5ocgO.s:25785  .debug_str:000000000001b0e6 .LASF5102
C:\Users\CYMR90~1\AppData\Local\Temp\cca5ocgO.s:24736  .debug_str:0000000000016a80 .LASF5103
C:\Users\CYMR90~1\AppData\Local\Temp\cca5ocgO.s:23720  .debug_str:0000000000012a40 .LASF5104
C:\Users\CYMR90~1\AppData\Local\Temp\cca5ocgO.s:22444  .debug_str:000000000000d9dd .LASF5105
C:\Users\CYMR90~1\AppData\Local\Temp\cca5ocgO.s:19706  .debug_str:00000000000028b1 .LASF5106
C:\Users\CYMR90~1\AppData\Local\Temp\cca5ocgO.s:26691  .debug_str:000000000001eb8a .LASF5107
C:\Users\CYMR90~1\AppData\Local\Temp\cca5ocgO.s:24300  .debug_str:0000000000014fa8 .LASF5108
C:\Users\CYMR90~1\AppData\Local\Temp\cca5ocgO.s:19046  .debug_str:0000000000000000 .LASF5109
C:\Users\CYMR90~1\AppData\Local\Temp\cca5ocgO.s:19500  .debug_str:0000000000001c6c .LASF5110
C:\Users\CYMR90~1\AppData\Local\Temp\cca5ocgO.s:29353  .debug_str:00000000000293c0 .LASF5111
C:\Users\CYMR90~1\AppData\Local\Temp\cca5ocgO.s:28215  .debug_str:00000000000249a4 .LASF5112
C:\Users\CYMR90~1\AppData\Local\Temp\cca5ocgO.s:26709  .debug_str:000000000001ec7f .LASF5113
C:\Users\CYMR90~1\AppData\Local\Temp\cca5ocgO.s:20382  .debug_str:00000000000054a9 .LASF5114
C:\Users\CYMR90~1\AppData\Local\Temp\cca5ocgO.s:24734  .debug_str:0000000000016a5a .LASF5115
C:\Users\CYMR90~1\AppData\Local\Temp\cca5ocgO.s:26997  .debug_str:000000000001fe3e .LASF5116
C:\Users\CYMR90~1\AppData\Local\Temp\cca5ocgO.s:25669  .debug_str:000000000001a96e .LASF5117
C:\Users\CYMR90~1\AppData\Local\Temp\cca5ocgO.s:30271  .debug_str:000000000002ce80 .LASF5118
C:\Users\CYMR90~1\AppData\Local\Temp\cca5ocgO.s:24861  .debug_str:00000000000173b6 .LASF5119
C:\Users\CYMR90~1\AppData\Local\Temp\cca5ocgO.s:20568  .debug_str:0000000000005fa5 .LASF5120
C:\Users\CYMR90~1\AppData\Local\Temp\cca5ocgO.s:22846  .debug_str:000000000000f28d .LASF5121
C:\Users\CYMR90~1\AppData\Local\Temp\cca5ocgO.s:23562  .debug_str:0000000000011fe5 .LASF5122
C:\Users\CYMR90~1\AppData\Local\Temp\cca5ocgO.s:25197  .debug_str:000000000001880f .LASF5123
C:\Users\CYMR90~1\AppData\Local\Temp\cca5ocgO.s:27497  .debug_str:0000000000021d1f .LASF5124
C:\Users\CYMR90~1\AppData\Local\Temp\cca5ocgO.s:22594  .debug_str:000000000000e2f2 .LASF5125
C:\Users\CYMR90~1\AppData\Local\Temp\cca5ocgO.s:29167  .debug_str:000000000002889a .LASF5126
C:\Users\CYMR90~1\AppData\Local\Temp\cca5ocgO.s:28615  .debug_str:0000000000026429 .LASF5127
C:\Users\CYMR90~1\AppData\Local\Temp\cca5ocgO.s:23370  .debug_str:000000000001127c .LASF5128
C:\Users\CYMR90~1\AppData\Local\Temp\cca5ocgO.s:22276  .debug_str:000000000000cf23 .LASF5129
C:\Users\CYMR90~1\AppData\Local\Temp\cca5ocgO.s:27157  .debug_str:0000000000020808 .LASF5130
C:\Users\CYMR90~1\AppData\Local\Temp\cca5ocgO.s:22924  .debug_str:000000000000f7cc .LASF5131
C:\Users\CYMR90~1\AppData\Local\Temp\cca5ocgO.s:20012  .debug_str:0000000000003c17 .LASF5132
C:\Users\CYMR90~1\AppData\Local\Temp\cca5ocgO.s:28591  .debug_str:000000000002629f .LASF5133
C:\Users\CYMR90~1\AppData\Local\Temp\cca5ocgO.s:23834  .debug_str:00000000000131c8 .LASF5134
C:\Users\CYMR90~1\AppData\Local\Temp\cca5ocgO.s:22046  .debug_str:000000000000bfe8 .LASF5135
C:\Users\CYMR90~1\AppData\Local\Temp\cca5ocgO.s:19960  .debug_str:00000000000038eb .LASF5136
C:\Users\CYMR90~1\AppData\Local\Temp\cca5ocgO.s:20876  .debug_str:000000000000737b .LASF5137
C:\Users\CYMR90~1\AppData\Local\Temp\cca5ocgO.s:22928  .debug_str:000000000000f81b .LASF5138
C:\Users\CYMR90~1\AppData\Local\Temp\cca5ocgO.s:20444  .debug_str:0000000000005852 .LASF5139
C:\Users\CYMR90~1\AppData\Local\Temp\cca5ocgO.s:29047  .debug_str:0000000000027ffe .LASF5140
C:\Users\CYMR90~1\AppData\Local\Temp\cca5ocgO.s:23618  .debug_str:000000000001237e .LASF5141
C:\Users\CYMR90~1\AppData\Local\Temp\cca5ocgO.s:19790  .debug_str:0000000000002ddd .LASF5142
C:\Users\CYMR90~1\AppData\Local\Temp\cca5ocgO.s:28455  .debug_str:0000000000025a7c .LASF5143
C:\Users\CYMR90~1\AppData\Local\Temp\cca5ocgO.s:28843  .debug_str:00000000000272e9 .LASF5144
C:\Users\CYMR90~1\AppData\Local\Temp\cca5ocgO.s:23386  .debug_str:000000000001135c .LASF5145
C:\Users\CYMR90~1\AppData\Local\Temp\cca5ocgO.s:24568  .debug_str:0000000000016026 .LASF5146
C:\Users\CYMR90~1\AppData\Local\Temp\cca5ocgO.s:27861  .debug_str:0000000000023230 .LASF5147
C:\Users\CYMR90~1\AppData\Local\Temp\cca5ocgO.s:26627  .debug_str:000000000001e75d .LASF5148
C:\Users\CYMR90~1\AppData\Local\Temp\cca5ocgO.s:27515  .debug_str:0000000000021e64 .LASF5149
C:\Users\CYMR90~1\AppData\Local\Temp\cca5ocgO.s:30291  .debug_str:000000000002cfc7 .LASF5150
C:\Users\CYMR90~1\AppData\Local\Temp\cca5ocgO.s:27693  .debug_str:0000000000022860 .LASF5151
C:\Users\CYMR90~1\AppData\Local\Temp\cca5ocgO.s:19432  .debug_str:0000000000001841 .LASF5152
C:\Users\CYMR90~1\AppData\Local\Temp\cca5ocgO.s:20968  .debug_str:0000000000007936 .LASF5153
C:\Users\CYMR90~1\AppData\Local\Temp\cca5ocgO.s:20316  .debug_str:00000000000050a5 .LASF5154
C:\Users\CYMR90~1\AppData\Local\Temp\cca5ocgO.s:27723  .debug_str:0000000000022a12 .LASF5155
C:\Users\CYMR90~1\AppData\Local\Temp\cca5ocgO.s:23680  .debug_str:0000000000012767 .LASF5156
C:\Users\CYMR90~1\AppData\Local\Temp\cca5ocgO.s:28189  .debug_str:00000000000247a8 .LASF5157
C:\Users\CYMR90~1\AppData\Local\Temp\cca5ocgO.s:29491  .debug_str:0000000000029c50 .LASF5158
C:\Users\CYMR90~1\AppData\Local\Temp\cca5ocgO.s:26261  .debug_str:000000000001d032 .LASF5159
C:\Users\CYMR90~1\AppData\Local\Temp\cca5ocgO.s:28421  .debug_str:0000000000025865 .LASF5160
C:\Users\CYMR90~1\AppData\Local\Temp\cca5ocgO.s:28469  .debug_str:0000000000025b55 .LASF5161
C:\Users\CYMR90~1\AppData\Local\Temp\cca5ocgO.s:24104  .debug_str:0000000000014317 .LASF5162
C:\Users\CYMR90~1\AppData\Local\Temp\cca5ocgO.s:23026  .debug_str:000000000000fd26 .LASF5163
C:\Users\CYMR90~1\AppData\Local\Temp\cca5ocgO.s:23206  .debug_str:0000000000010860 .LASF5164
C:\Users\CYMR90~1\AppData\Local\Temp\cca5ocgO.s:28305  .debug_str:0000000000024f42 .LASF5165
C:\Users\CYMR90~1\AppData\Local\Temp\cca5ocgO.s:21720  .debug_str:000000000000a9a7 .LASF5166
C:\Users\CYMR90~1\AppData\Local\Temp\cca5ocgO.s:23240  .debug_str:0000000000010a9a .LASF5167
C:\Users\CYMR90~1\AppData\Local\Temp\cca5ocgO.s:29747  .debug_str:000000000002ab79 .LASF5168
C:\Users\CYMR90~1\AppData\Local\Temp\cca5ocgO.s:21256  .debug_str:0000000000008c98 .LASF5169
C:\Users\CYMR90~1\AppData\Local\Temp\cca5ocgO.s:21832  .debug_str:000000000000b19b .LASF5170
C:\Users\CYMR90~1\AppData\Local\Temp\cca5ocgO.s:28477  .debug_str:0000000000025bc6 .LASF5171
C:\Users\CYMR90~1\AppData\Local\Temp\cca5ocgO.s:19324  .debug_str:0000000000001181 .LASF5172
C:\Users\CYMR90~1\AppData\Local\Temp\cca5ocgO.s:24644  .debug_str:00000000000164cb .LASF5173
C:\Users\CYMR90~1\AppData\Local\Temp\cca5ocgO.s:26705  .debug_str:000000000001ec49 .LASF5174
C:\Users\CYMR90~1\AppData\Local\Temp\cca5ocgO.s:28973  .debug_str:0000000000027b0f .LASF5175
C:\Users\CYMR90~1\AppData\Local\Temp\cca5ocgO.s:22686  .debug_str:000000000000e8db .LASF5176
C:\Users\CYMR90~1\AppData\Local\Temp\cca5ocgO.s:29001  .debug_str:0000000000027cd2 .LASF5177
C:\Users\CYMR90~1\AppData\Local\Temp\cca5ocgO.s:26649  .debug_str:000000000001e911 .LASF5178
C:\Users\CYMR90~1\AppData\Local\Temp\cca5ocgO.s:23434  .debug_str:0000000000011689 .LASF5179
C:\Users\CYMR90~1\AppData\Local\Temp\cca5ocgO.s:26949  .debug_str:000000000001fb41 .LASF5180
C:\Users\CYMR90~1\AppData\Local\Temp\cca5ocgO.s:20298  .debug_str:0000000000004fad .LASF5181
C:\Users\CYMR90~1\AppData\Local\Temp\cca5ocgO.s:23974  .debug_str:0000000000013ace .LASF5182
C:\Users\CYMR90~1\AppData\Local\Temp\cca5ocgO.s:26991  .debug_str:000000000001fdba .LASF5183
C:\Users\CYMR90~1\AppData\Local\Temp\cca5ocgO.s:22548  .debug_str:000000000000e017 .LASF5184
C:\Users\CYMR90~1\AppData\Local\Temp\cca5ocgO.s:26219  .debug_str:000000000001ccdd .LASF5185
C:\Users\CYMR90~1\AppData\Local\Temp\cca5ocgO.s:22666  .debug_str:000000000000e795 .LASF5186
C:\Users\CYMR90~1\AppData\Local\Temp\cca5ocgO.s:29385  .debug_str:00000000000295ec .LASF5187
C:\Users\CYMR90~1\AppData\Local\Temp\cca5ocgO.s:26737  .debug_str:000000000001ee2d .LASF5188
C:\Users\CYMR90~1\AppData\Local\Temp\cca5ocgO.s:22696  .debug_str:000000000000e94f .LASF5189
C:\Users\CYMR90~1\AppData\Local\Temp\cca5ocgO.s:19406  .debug_str:0000000000001600 .LASF5190
C:\Users\CYMR90~1\AppData\Local\Temp\cca5ocgO.s:25829  .debug_str:000000000001b3f3 .LASF5191
C:\Users\CYMR90~1\AppData\Local\Temp\cca5ocgO.s:28795  .debug_str:0000000000026f38 .LASF5192
C:\Users\CYMR90~1\AppData\Local\Temp\cca5ocgO.s:25715  .debug_str:000000000001ac38 .LASF5193
C:\Users\CYMR90~1\AppData\Local\Temp\cca5ocgO.s:26699  .debug_str:000000000001ec02 .LASF5194
C:\Users\CYMR90~1\AppData\Local\Temp\cca5ocgO.s:19252  .debug_str:0000000000000cc6 .LASF5195
C:\Users\CYMR90~1\AppData\Local\Temp\cca5ocgO.s:27283  .debug_str:0000000000020fc8 .LASF5196
C:\Users\CYMR90~1\AppData\Local\Temp\cca5ocgO.s:22190  .debug_str:000000000000c964 .LASF5197
C:\Users\CYMR90~1\AppData\Local\Temp\cca5ocgO.s:24512  .debug_str:0000000000015c38 .LASF5198
C:\Users\CYMR90~1\AppData\Local\Temp\cca5ocgO.s:22950  .debug_str:000000000000f967 .LASF5199
C:\Users\CYMR90~1\AppData\Local\Temp\cca5ocgO.s:25139  .debug_str:00000000000184a5 .LASF5200
C:\Users\CYMR90~1\AppData\Local\Temp\cca5ocgO.s:29647  .debug_str:000000000002a56f .LASF5201
C:\Users\CYMR90~1\AppData\Local\Temp\cca5ocgO.s:23904  .debug_str:00000000000136bc .LASF5202
C:\Users\CYMR90~1\AppData\Local\Temp\cca5ocgO.s:26879  .debug_str:000000000001f728 .LASF5203
C:\Users\CYMR90~1\AppData\Local\Temp\cca5ocgO.s:20944  .debug_str:00000000000077c4 .LASF5204
C:\Users\CYMR90~1\AppData\Local\Temp\cca5ocgO.s:28341  .debug_str:000000000002528c .LASF5205
C:\Users\CYMR90~1\AppData\Local\Temp\cca5ocgO.s:20814  .debug_str:0000000000006f09 .LASF5206
C:\Users\CYMR90~1\AppData\Local\Temp\cca5ocgO.s:28879  .debug_str:00000000000274f0 .LASF5207
C:\Users\CYMR90~1\AppData\Local\Temp\cca5ocgO.s:19100  .debug_str:0000000000000376 .LASF5208
C:\Users\CYMR90~1\AppData\Local\Temp\cca5ocgO.s:27609  .debug_str:00000000000223c5 .LASF5209
C:\Users\CYMR90~1\AppData\Local\Temp\cca5ocgO.s:24426  .debug_str:000000000001570d .LASF5210
C:\Users\CYMR90~1\AppData\Local\Temp\cca5ocgO.s:21262  .debug_str:0000000000008cdf .LASF5211
C:\Users\CYMR90~1\AppData\Local\Temp\cca5ocgO.s:19868  .debug_str:00000000000032d4 .LASF5212
C:\Users\CYMR90~1\AppData\Local\Temp\cca5ocgO.s:30061  .debug_str:000000000002c094 .LASF5213
C:\Users\CYMR90~1\AppData\Local\Temp\cca5ocgO.s:21440  .debug_str:00000000000097d8 .LASF5214
C:\Users\CYMR90~1\AppData\Local\Temp\cca5ocgO.s:21266  .debug_str:0000000000008d06 .LASF5215
C:\Users\CYMR90~1\AppData\Local\Temp\cca5ocgO.s:29557  .debug_str:000000000002a003 .LASF5216
C:\Users\CYMR90~1\AppData\Local\Temp\cca5ocgO.s:22786  .debug_str:000000000000eee7 .LASF5217
C:\Users\CYMR90~1\AppData\Local\Temp\cca5ocgO.s:29253  .debug_str:0000000000028dd4 .LASF5218
C:\Users\CYMR90~1\AppData\Local\Temp\cca5ocgO.s:21380  .debug_str:000000000000942c .LASF5219
C:\Users\CYMR90~1\AppData\Local\Temp\cca5ocgO.s:20780  .debug_str:0000000000006cf8 .LASF5220
C:\Users\CYMR90~1\AppData\Local\Temp\cca5ocgO.s:28537  .debug_str:0000000000025f8d .LASF5221
C:\Users\CYMR90~1\AppData\Local\Temp\cca5ocgO.s:22932  .debug_str:000000000000f871 .LASF5222
C:\Users\CYMR90~1\AppData\Local\Temp\cca5ocgO.s:29705  .debug_str:000000000002a8d9 .LASF5223
C:\Users\CYMR90~1\AppData\Local\Temp\cca5ocgO.s:25671  .debug_str:000000000001a995 .LASF5224
C:\Users\CYMR90~1\AppData\Local\Temp\cca5ocgO.s:28299  .debug_str:0000000000024ef7 .LASF5225
C:\Users\CYMR90~1\AppData\Local\Temp\cca5ocgO.s:22872  .debug_str:000000000000f43c .LASF5226
C:\Users\CYMR90~1\AppData\Local\Temp\cca5ocgO.s:19156  .debug_str:00000000000006aa .LASF5227
C:\Users\CYMR90~1\AppData\Local\Temp\cca5ocgO.s:19102  .debug_str:0000000000000391 .LASF5228
C:\Users\CYMR90~1\AppData\Local\Temp\cca5ocgO.s:19458  .debug_str:00000000000019eb .LASF5229
C:\Users\CYMR90~1\AppData\Local\Temp\cca5ocgO.s:27943  .debug_str:00000000000237b7 .LASF5230
C:\Users\CYMR90~1\AppData\Local\Temp\cca5ocgO.s:28587  .debug_str:000000000002625e .LASF5231
C:\Users\CYMR90~1\AppData\Local\Temp\cca5ocgO.s:23782  .debug_str:0000000000012e28 .LASF5232
C:\Users\CYMR90~1\AppData\Local\Temp\cca5ocgO.s:25709  .debug_str:000000000001abf9 .LASF5233
C:\Users\CYMR90~1\AppData\Local\Temp\cca5ocgO.s:19746  .debug_str:0000000000002b26 .LASF5234
C:\Users\CYMR90~1\AppData\Local\Temp\cca5ocgO.s:24518  .debug_str:0000000000015cd1 .LASF5235
C:\Users\CYMR90~1\AppData\Local\Temp\cca5ocgO.s:27075  .debug_str:00000000000202f2 .LASF5236
C:\Users\CYMR90~1\AppData\Local\Temp\cca5ocgO.s:26403  .debug_str:000000000001d9c3 .LASF5237
C:\Users\CYMR90~1\AppData\Local\Temp\cca5ocgO.s:21170  .debug_str:0000000000008741 .LASF5238
C:\Users\CYMR90~1\AppData\Local\Temp\cca5ocgO.s:27749  .debug_str:0000000000022c15 .LASF5239
C:\Users\CYMR90~1\AppData\Local\Temp\cca5ocgO.s:27057  .debug_str:0000000000020216 .LASF5240
C:\Users\CYMR90~1\AppData\Local\Temp\cca5ocgO.s:21182  .debug_str:00000000000087f3 .LASF5241
C:\Users\CYMR90~1\AppData\Local\Temp\cca5ocgO.s:20624  .debug_str:0000000000006334 .LASF5242
C:\Users\CYMR90~1\AppData\Local\Temp\cca5ocgO.s:27705  .debug_str:000000000002292f .LASF5243
C:\Users\CYMR90~1\AppData\Local\Temp\cca5ocgO.s:29441  .debug_str:000000000002994f .LASF5244
C:\Users\CYMR90~1\AppData\Local\Temp\cca5ocgO.s:25315  .debug_str:000000000001904b .LASF5245
C:\Users\CYMR90~1\AppData\Local\Temp\cca5ocgO.s:22084  .debug_str:000000000000c26f .LASF5246
C:\Users\CYMR90~1\AppData\Local\Temp\cca5ocgO.s:26779  .debug_str:000000000001f0e2 .LASF5247
C:\Users\CYMR90~1\AppData\Local\Temp\cca5ocgO.s:21900  .debug_str:000000000000b60b .LASF5248
C:\Users\CYMR90~1\AppData\Local\Temp\cca5ocgO.s:27163  .debug_str:000000000002089e .LASF5249
C:\Users\CYMR90~1\AppData\Local\Temp\cca5ocgO.s:23980  .debug_str:0000000000013b3a .LASF5250
C:\Users\CYMR90~1\AppData\Local\Temp\cca5ocgO.s:29387  .debug_str:000000000002961e .LASF5251
C:\Users\CYMR90~1\AppData\Local\Temp\cca5ocgO.s:23124  .debug_str:00000000000102f5 .LASF5252
C:\Users\CYMR90~1\AppData\Local\Temp\cca5ocgO.s:22346  .debug_str:000000000000d3e7 .LASF5253
C:\Users\CYMR90~1\AppData\Local\Temp\cca5ocgO.s:26789  .debug_str:000000000001f19b .LASF5254
C:\Users\CYMR90~1\AppData\Local\Temp\cca5ocgO.s:29977  .debug_str:000000000002ba8a .LASF5255
C:\Users\CYMR90~1\AppData\Local\Temp\cca5ocgO.s:27729  .debug_str:0000000000022afe .LASF5256
C:\Users\CYMR90~1\AppData\Local\Temp\cca5ocgO.s:27873  .debug_str:00000000000232fe .LASF5257
C:\Users\CYMR90~1\AppData\Local\Temp\cca5ocgO.s:21876  .debug_str:000000000000b3f0 .LASF5258
C:\Users\CYMR90~1\AppData\Local\Temp\cca5ocgO.s:27999  .debug_str:0000000000023ad0 .LASF5259
C:\Users\CYMR90~1\AppData\Local\Temp\cca5ocgO.s:27613  .debug_str:00000000000223f6 .LASF5260
C:\Users\CYMR90~1\AppData\Local\Temp\cca5ocgO.s:25551  .debug_str:000000000001a07f .LASF5261
C:\Users\CYMR90~1\AppData\Local\Temp\cca5ocgO.s:25097  .debug_str:0000000000018223 .LASF5262
C:\Users\CYMR90~1\AppData\Local\Temp\cca5ocgO.s:27487  .debug_str:0000000000021c9e .LASF5263
C:\Users\CYMR90~1\AppData\Local\Temp\cca5ocgO.s:28291  .debug_str:0000000000024ea6 .LASF5264
C:\Users\CYMR90~1\AppData\Local\Temp\cca5ocgO.s:21016  .debug_str:0000000000007c6d .LASF5265
C:\Users\CYMR90~1\AppData\Local\Temp\cca5ocgO.s:20452  .debug_str:00000000000058e8 .LASF5266
C:\Users\CYMR90~1\AppData\Local\Temp\cca5ocgO.s:20758  .debug_str:0000000000006b7b .LASF5267
C:\Users\CYMR90~1\AppData\Local\Temp\cca5ocgO.s:22232  .debug_str:000000000000ccd8 .LASF5268
C:\Users\CYMR90~1\AppData\Local\Temp\cca5ocgO.s:23584  .debug_str:0000000000012168 .LASF5269
C:\Users\CYMR90~1\AppData\Local\Temp\cca5ocgO.s:21972  .debug_str:000000000000bab7 .LASF5270
C:\Users\CYMR90~1\AppData\Local\Temp\cca5ocgO.s:28991  .debug_str:0000000000027c4c .LASF5271
C:\Users\CYMR90~1\AppData\Local\Temp\cca5ocgO.s:28571  .debug_str:0000000000026184 .LASF5272
C:\Users\CYMR90~1\AppData\Local\Temp\cca5ocgO.s:24332  .debug_str:00000000000151ca .LASF5273
C:\Users\CYMR90~1\AppData\Local\Temp\cca5ocgO.s:26945  .debug_str:000000000001fb19 .LASF5274
C:\Users\CYMR90~1\AppData\Local\Temp\cca5ocgO.s:23894  .debug_str:000000000001361a .LASF5275
C:\Users\CYMR90~1\AppData\Local\Temp\cca5ocgO.s:30129  .debug_str:000000000002c554 .LASF5276
C:\Users\CYMR90~1\AppData\Local\Temp\cca5ocgO.s:26447  .debug_str:000000000001dc32 .LASF5277
C:\Users\CYMR90~1\AppData\Local\Temp\cca5ocgO.s:26245  .debug_str:000000000001cf40 .LASF5278
C:\Users\CYMR90~1\AppData\Local\Temp\cca5ocgO.s:27331  .debug_str:000000000002127e .LASF5279
C:\Users\CYMR90~1\AppData\Local\Temp\cca5ocgO.s:22306  .debug_str:000000000000d123 .LASF5280
C:\Users\CYMR90~1\AppData\Local\Temp\cca5ocgO.s:29381  .debug_str:00000000000295b0 .LASF5281
C:\Users\CYMR90~1\AppData\Local\Temp\cca5ocgO.s:24977  .debug_str:0000000000017b18 .LASF5282
C:\Users\CYMR90~1\AppData\Local\Temp\cca5ocgO.s:24136  .debug_str:00000000000144d9 .LASF5283
C:\Users\CYMR90~1\AppData\Local\Temp\cca5ocgO.s:19814  .debug_str:0000000000002f4e .LASF5284
C:\Users\CYMR90~1\AppData\Local\Temp\cca5ocgO.s:24340  .debug_str:0000000000015240 .LASF5285
C:\Users\CYMR90~1\AppData\Local\Temp\cca5ocgO.s:22372  .debug_str:000000000000d5f3 .LASF5286
C:\Users\CYMR90~1\AppData\Local\Temp\cca5ocgO.s:24008  .debug_str:0000000000013d03 .LASF5287
C:\Users\CYMR90~1\AppData\Local\Temp\cca5ocgO.s:26281  .debug_str:000000000001d1e0 .LASF5288
C:\Users\CYMR90~1\AppData\Local\Temp\cca5ocgO.s:21558  .debug_str:0000000000009f94 .LASF5289
C:\Users\CYMR90~1\AppData\Local\Temp\cca5ocgO.s:28319  .debug_str:000000000002509d .LASF5290
C:\Users\CYMR90~1\AppData\Local\Temp\cca5ocgO.s:26309  .debug_str:000000000001d3ab .LASF5291
C:\Users\CYMR90~1\AppData\Local\Temp\cca5ocgO.s:30207  .debug_str:000000000002ca57 .LASF5292
C:\Users\CYMR90~1\AppData\Local\Temp\cca5ocgO.s:24522  .debug_str:0000000000015cf7 .LASF5293
C:\Users\CYMR90~1\AppData\Local\Temp\cca5ocgO.s:21590  .debug_str:000000000000a17f .LASF5294
C:\Users\CYMR90~1\AppData\Local\Temp\cca5ocgO.s:22406  .debug_str:000000000000d7d6 .LASF5295
C:\Users\CYMR90~1\AppData\Local\Temp\cca5ocgO.s:27065  .debug_str:000000000002026e .LASF5296
C:\Users\CYMR90~1\AppData\Local\Temp\cca5ocgO.s:28415  .debug_str:00000000000257f4 .LASF5297
C:\Users\CYMR90~1\AppData\Local\Temp\cca5ocgO.s:22208  .debug_str:000000000000ca85 .LASF5298
C:\Users\CYMR90~1\AppData\Local\Temp\cca5ocgO.s:21620  .debug_str:000000000000a364 .LASF5299
C:\Users\CYMR90~1\AppData\Local\Temp\cca5ocgO.s:25763  .debug_str:000000000001af64 .LASF5300
C:\Users\CYMR90~1\AppData\Local\Temp\cca5ocgO.s:28939  .debug_str:000000000002789f .LASF5301
C:\Users\CYMR90~1\AppData\Local\Temp\cca5ocgO.s:25257  .debug_str:0000000000018c0d .LASF5302
C:\Users\CYMR90~1\AppData\Local\Temp\cca5ocgO.s:22176  .debug_str:000000000000c811 .LASF5303
C:\Users\CYMR90~1\AppData\Local\Temp\cca5ocgO.s:22310  .debug_str:000000000000d150 .LASF5304
C:\Users\CYMR90~1\AppData\Local\Temp\cca5ocgO.s:23390  .debug_str:00000000000113a0 .LASF5305
C:\Users\CYMR90~1\AppData\Local\Temp\cca5ocgO.s:26441  .debug_str:000000000001dbd1 .LASF5306
C:\Users\CYMR90~1\AppData\Local\Temp\cca5ocgO.s:21350  .debug_str:0000000000009279 .LASF5307
C:\Users\CYMR90~1\AppData\Local\Temp\cca5ocgO.s:21414  .debug_str:0000000000009670 .LASF5308
C:\Users\CYMR90~1\AppData\Local\Temp\cca5ocgO.s:26333  .debug_str:000000000001d518 .LASF5309
C:\Users\CYMR90~1\AppData\Local\Temp\cca5ocgO.s:24911  .debug_str:00000000000176a0 .LASF5310
C:\Users\CYMR90~1\AppData\Local\Temp\cca5ocgO.s:20260  .debug_str:0000000000004d4c .LASF5311
C:\Users\CYMR90~1\AppData\Local\Temp\cca5ocgO.s:19054  .debug_str:00000000000000a6 .LASF5312
C:\Users\CYMR90~1\AppData\Local\Temp\cca5ocgO.s:27031  .debug_str:0000000000020098 .LASF5313
C:\Users\CYMR90~1\AppData\Local\Temp\cca5ocgO.s:30249  .debug_str:000000000002cd55 .LASF5314
C:\Users\CYMR90~1\AppData\Local\Temp\cca5ocgO.s:26471  .debug_str:000000000001de1c .LASF5315
C:\Users\CYMR90~1\AppData\Local\Temp\cca5ocgO.s:20504  .debug_str:0000000000005c07 .LASF5316
C:\Users\CYMR90~1\AppData\Local\Temp\cca5ocgO.s:19686  .debug_str:0000000000002730 .LASF5317
C:\Users\CYMR90~1\AppData\Local\Temp\cca5ocgO.s:23972  .debug_str:0000000000013ab5 .LASF5318
C:\Users\CYMR90~1\AppData\Local\Temp\cca5ocgO.s:29117  .debug_str:0000000000028532 .LASF5319
C:\Users\CYMR90~1\AppData\Local\Temp\cca5ocgO.s:19146  .debug_str:00000000000005ff .LASF5320
C:\Users\CYMR90~1\AppData\Local\Temp\cca5ocgO.s:23612  .debug_str:0000000000012300 .LASF5321
C:\Users\CYMR90~1\AppData\Local\Temp\cca5ocgO.s:26531  .debug_str:000000000001e1dc .LASF5322
C:\Users\CYMR90~1\AppData\Local\Temp\cca5ocgO.s:23582  .debug_str:000000000001214f .LASF5323
C:\Users\CYMR90~1\AppData\Local\Temp\cca5ocgO.s:20630  .debug_str:0000000000006396 .LASF5324
C:\Users\CYMR90~1\AppData\Local\Temp\cca5ocgO.s:26769  .debug_str:000000000001f034 .LASF5325
C:\Users\CYMR90~1\AppData\Local\Temp\cca5ocgO.s:24925  .debug_str:00000000000177a0 .LASF5326
C:\Users\CYMR90~1\AppData\Local\Temp\cca5ocgO.s:19410  .debug_str:0000000000001646 .LASF5327
C:\Users\CYMR90~1\AppData\Local\Temp\cca5ocgO.s:26981  .debug_str:000000000001fd3c .LASF5328
C:\Users\CYMR90~1\AppData\Local\Temp\cca5ocgO.s:19760  .debug_str:0000000000002c18 .LASF5329
C:\Users\CYMR90~1\AppData\Local\Temp\cca5ocgO.s:27893  .debug_str:0000000000023427 .LASF5330
C:\Users\CYMR90~1\AppData\Local\Temp\cca5ocgO.s:19364  .debug_str:0000000000001399 .LASF5331
C:\Users\CYMR90~1\AppData\Local\Temp\cca5ocgO.s:28731  .debug_str:0000000000026b2b .LASF5332
C:\Users\CYMR90~1\AppData\Local\Temp\cca5ocgO.s:24578  .debug_str:00000000000160dc .LASF5333
C:\Users\CYMR90~1\AppData\Local\Temp\cca5ocgO.s:19978  .debug_str:00000000000039f2 .LASF5334
C:\Users\CYMR90~1\AppData\Local\Temp\cca5ocgO.s:21840  .debug_str:000000000000b207 .LASF5335
C:\Users\CYMR90~1\AppData\Local\Temp\cca5ocgO.s:28043  .debug_str:0000000000023d55 .LASF5336
C:\Users\CYMR90~1\AppData\Local\Temp\cca5ocgO.s:26985  .debug_str:000000000001fd73 .LASF5337
C:\Users\CYMR90~1\AppData\Local\Temp\cca5ocgO.s:28889  .debug_str:000000000002758c .LASF5338
C:\Users\CYMR90~1\AppData\Local\Temp\cca5ocgO.s:21112  .debug_str:00000000000083d4 .LASF5339
C:\Users\CYMR90~1\AppData\Local\Temp\cca5ocgO.s:29851  .debug_str:000000000002b215 .LASF5340
C:\Users\CYMR90~1\AppData\Local\Temp\cca5ocgO.s:27061  .debug_str:0000000000020241 .LASF5341
C:\Users\CYMR90~1\AppData\Local\Temp\cca5ocgO.s:25405  .debug_str:000000000001966d .LASF5342
C:\Users\CYMR90~1\AppData\Local\Temp\cca5ocgO.s:19288  .debug_str:0000000000000f75 .LASF5343
C:\Users\CYMR90~1\AppData\Local\Temp\cca5ocgO.s:26893  .debug_str:000000000001f7f7 .LASF5344
C:\Users\CYMR90~1\AppData\Local\Temp\cca5ocgO.s:20478  .debug_str:0000000000005a70 .LASF5345
C:\Users\CYMR90~1\AppData\Local\Temp\cca5ocgO.s:29817  .debug_str:000000000002af97 .LASF5346
C:\Users\CYMR90~1\AppData\Local\Temp\cca5ocgO.s:24642  .debug_str:00000000000164ae .LASF5347
C:\Users\CYMR90~1\AppData\Local\Temp\cca5ocgO.s:24444  .debug_str:000000000001581f .LASF5348
C:\Users\CYMR90~1\AppData\Local\Temp\cca5ocgO.s:26725  .debug_str:000000000001ed8b .LASF5349
C:\Users\CYMR90~1\AppData\Local\Temp\cca5ocgO.s:28633  .debug_str:0000000000026549 .LASF5350
C:\Users\CYMR90~1\AppData\Local\Temp\cca5ocgO.s:28207  .debug_str:0000000000024943 .LASF5351
C:\Users\CYMR90~1\AppData\Local\Temp\cca5ocgO.s:29795  .debug_str:000000000002ae57 .LASF5352
C:\Users\CYMR90~1\AppData\Local\Temp\cca5ocgO.s:20024  .debug_str:0000000000003cf4 .LASF5353
C:\Users\CYMR90~1\AppData\Local\Temp\cca5ocgO.s:26693  .debug_str:000000000001ebb6 .LASF5354
C:\Users\CYMR90~1\AppData\Local\Temp\cca5ocgO.s:25975  .debug_str:000000000001bd42 .LASF5355
C:\Users\CYMR90~1\AppData\Local\Temp\cca5ocgO.s:23808  .debug_str:0000000000012ff2 .LASF5356
C:\Users\CYMR90~1\AppData\Local\Temp\cca5ocgO.s:29549  .debug_str:0000000000029f94 .LASF5357
C:\Users\CYMR90~1\AppData\Local\Temp\cca5ocgO.s:27457  .debug_str:0000000000021a8e .LASF5358
C:\Users\CYMR90~1\AppData\Local\Temp\cca5ocgO.s:28065  .debug_str:0000000000023e9e .LASF5359
C:\Users\CYMR90~1\AppData\Local\Temp\cca5ocgO.s:30191  .debug_str:000000000002c93a .LASF5360
C:\Users\CYMR90~1\AppData\Local\Temp\cca5ocgO.s:29261  .debug_str:0000000000028e35 .LASF5361
C:\Users\CYMR90~1\AppData\Local\Temp\cca5ocgO.s:29415  .debug_str:00000000000297aa .LASF5362
C:\Users\CYMR90~1\AppData\Local\Temp\cca5ocgO.s:27411  .debug_str:0000000000021800 .LASF5363
C:\Users\CYMR90~1\AppData\Local\Temp\cca5ocgO.s:30159  .debug_str:000000000002c6f9 .LASF5364
C:\Users\CYMR90~1\AppData\Local\Temp\cca5ocgO.s:26671  .debug_str:000000000001ea5c .LASF5365
C:\Users\CYMR90~1\AppData\Local\Temp\cca5ocgO.s:29507  .debug_str:0000000000029d42 .LASF5366
C:\Users\CYMR90~1\AppData\Local\Temp\cca5ocgO.s:24516  .debug_str:0000000000015cb1 .LASF5367
C:\Users\CYMR90~1\AppData\Local\Temp\cca5ocgO.s:26605  .debug_str:000000000001e62e .LASF5368
C:\Users\CYMR90~1\AppData\Local\Temp\cca5ocgO.s:22902  .debug_str:000000000000f5f5 .LASF5369
C:\Users\CYMR90~1\AppData\Local\Temp\cca5ocgO.s:22892  .debug_str:000000000000f568 .LASF5370
C:\Users\CYMR90~1\AppData\Local\Temp\cca5ocgO.s:26963  .debug_str:000000000001fc28 .LASF5371
C:\Users\CYMR90~1\AppData\Local\Temp\cca5ocgO.s:28625  .debug_str:00000000000264cf .LASF5372
C:\Users\CYMR90~1\AppData\Local\Temp\cca5ocgO.s:19442  .debug_str:00000000000018f8 .LASF5373
C:\Users\CYMR90~1\AppData\Local\Temp\cca5ocgO.s:25419  .debug_str:000000000001975d .LASF5374
C:\Users\CYMR90~1\AppData\Local\Temp\cca5ocgO.s:19240  .debug_str:0000000000000c23 .LASF5375
C:\Users\CYMR90~1\AppData\Local\Temp\cca5ocgO.s:24728  .debug_str:00000000000169f3 .LASF5376
C:\Users\CYMR90~1\AppData\Local\Temp\cca5ocgO.s:19560  .debug_str:0000000000001fe8 .LASF5377
C:\Users\CYMR90~1\AppData\Local\Temp\cca5ocgO.s:24763  .debug_str:0000000000016dbe .LASF5378
C:\Users\CYMR90~1\AppData\Local\Temp\cca5ocgO.s:22646  .debug_str:000000000000e618 .LASF5379
C:\Users\CYMR90~1\AppData\Local\Temp\cca5ocgO.s:23392  .debug_str:00000000000113c2 .LASF5380
C:\Users\CYMR90~1\AppData\Local\Temp\cca5ocgO.s:21772  .debug_str:000000000000aceb .LASF5381
C:\Users\CYMR90~1\AppData\Local\Temp\cca5ocgO.s:20072  .debug_str:000000000000403a .LASF5382
C:\Users\CYMR90~1\AppData\Local\Temp\cca5ocgO.s:29909  .debug_str:000000000002b5dd .LASF5383
C:\Users\CYMR90~1\AppData\Local\Temp\cca5ocgO.s:21598  .debug_str:000000000000a20b .LASF5384
C:\Users\CYMR90~1\AppData\Local\Temp\cca5ocgO.s:27205  .debug_str:0000000000020afb .LASF5385
C:\Users\CYMR90~1\AppData\Local\Temp\cca5ocgO.s:27887  .debug_str:00000000000233d1 .LASF5386
C:\Users\CYMR90~1\AppData\Local\Temp\cca5ocgO.s:29943  .debug_str:000000000002b854 .LASF5387
C:\Users\CYMR90~1\AppData\Local\Temp\cca5ocgO.s:19346  .debug_str:00000000000012a5 .LASF5388
C:\Users\CYMR90~1\AppData\Local\Temp\cca5ocgO.s:24797  .debug_str:0000000000017006 .LASF5389
C:\Users\CYMR90~1\AppData\Local\Temp\cca5ocgO.s:27529  .debug_str:0000000000021f38 .LASF5390
C:\Users\CYMR90~1\AppData\Local\Temp\cca5ocgO.s:26473  .debug_str:000000000001de3e .LASF5391
C:\Users\CYMR90~1\AppData\Local\Temp\cca5ocgO.s:23078  .debug_str:0000000000010073 .LASF5392
C:\Users\CYMR90~1\AppData\Local\Temp\cca5ocgO.s:19532  .debug_str:0000000000001e3c .LASF5393
C:\Users\CYMR90~1\AppData\Local\Temp\cca5ocgO.s:25743  .debug_str:000000000001ade6 .LASF5394
C:\Users\CYMR90~1\AppData\Local\Temp\cca5ocgO.s:22522  .debug_str:000000000000dea1 .LASF5395
C:\Users\CYMR90~1\AppData\Local\Temp\cca5ocgO.s:24078  .debug_str:000000000001414f .LASF5396
C:\Users\CYMR90~1\AppData\Local\Temp\cca5ocgO.s:29127  .debug_str:00000000000285ea .LASF5397
C:\Users\CYMR90~1\AppData\Local\Temp\cca5ocgO.s:30059  .debug_str:000000000002c05b .LASF5398
C:\Users\CYMR90~1\AppData\Local\Temp\cca5ocgO.s:21396  .debug_str:0000000000009507 .LASF5399
C:\Users\CYMR90~1\AppData\Local\Temp\cca5ocgO.s:22718  .debug_str:000000000000ead1 .LASF5400
C:\Users\CYMR90~1\AppData\Local\Temp\cca5ocgO.s:20752  .debug_str:0000000000006b28 .LASF5401
C:\Users\CYMR90~1\AppData\Local\Temp\cca5ocgO.s:29695  .debug_str:000000000002a838 .LASF5402
C:\Users\CYMR90~1\AppData\Local\Temp\cca5ocgO.s:19382  .debug_str:00000000000014ba .LASF5403
C:\Users\CYMR90~1\AppData\Local\Temp\cca5ocgO.s:28649  .debug_str:0000000000026684 .LASF5404
C:\Users\CYMR90~1\AppData\Local\Temp\cca5ocgO.s:19198  .debug_str:0000000000000937 .LASF5405
C:\Users\CYMR90~1\AppData\Local\Temp\cca5ocgO.s:23528  .debug_str:0000000000011d94 .LASF5406
C:\Users\CYMR90~1\AppData\Local\Temp\cca5ocgO.s:20540  .debug_str:0000000000005e0a .LASF5407
C:\Users\CYMR90~1\AppData\Local\Temp\cca5ocgO.s:29931  .debug_str:000000000002b7a5 .LASF5408
C:\Users\CYMR90~1\AppData\Local\Temp\cca5ocgO.s:23096  .debug_str:00000000000101c5 .LASF5409
C:\Users\CYMR90~1\AppData\Local\Temp\cca5ocgO.s:20802  .debug_str:0000000000006e5f .LASF5410
C:\Users\CYMR90~1\AppData\Local\Temp\cca5ocgO.s:23736  .debug_str:0000000000012b59 .LASF5411
C:\Users\CYMR90~1\AppData\Local\Temp\cca5ocgO.s:27971  .debug_str:000000000002394f .LASF5412
C:\Users\CYMR90~1\AppData\Local\Temp\cca5ocgO.s:23306  .debug_str:0000000000010ec0 .LASF5413
C:\Users\CYMR90~1\AppData\Local\Temp\cca5ocgO.s:26463  .debug_str:000000000001dd32 .LASF5414
C:\Users\CYMR90~1\AppData\Local\Temp\cca5ocgO.s:29671  .debug_str:000000000002a6f7 .LASF5415
C:\Users\CYMR90~1\AppData\Local\Temp\cca5ocgO.s:19506  .debug_str:0000000000001cd3 .LASF5416
C:\Users\CYMR90~1\AppData\Local\Temp\cca5ocgO.s:28833  .debug_str:0000000000027252 .LASF5417
C:\Users\CYMR90~1\AppData\Local\Temp\cca5ocgO.s:30185  .debug_str:000000000002c8ce .LASF5418
C:\Users\CYMR90~1\AppData\Local\Temp\cca5ocgO.s:25833  .debug_str:000000000001b421 .LASF5419
C:\Users\CYMR90~1\AppData\Local\Temp\cca5ocgO.s:26975  .debug_str:000000000001fcfa .LASF5420
C:\Users\CYMR90~1\AppData\Local\Temp\cca5ocgO.s:20360  .debug_str:000000000000535d .LASF5421
C:\Users\CYMR90~1\AppData\Local\Temp\cca5ocgO.s:25891  .debug_str:000000000001b83a .LASF5422
C:\Users\CYMR90~1\AppData\Local\Temp\cca5ocgO.s:29405  .debug_str:0000000000029723 .LASF5423
C:\Users\CYMR90~1\AppData\Local\Temp\cca5ocgO.s:25947  .debug_str:000000000001bb67 .LASF5424
C:\Users\CYMR90~1\AppData\Local\Temp\cca5ocgO.s:28947  .debug_str:000000000002792c .LASF5425
C:\Users\CYMR90~1\AppData\Local\Temp\cca5ocgO.s:22382  .debug_str:000000000000d663 .LASF5426
C:\Users\CYMR90~1\AppData\Local\Temp\cca5ocgO.s:27831  .debug_str:000000000002308e .LASF5427
C:\Users\CYMR90~1\AppData\Local\Temp\cca5ocgO.s:20410  .debug_str:000000000000562a .LASF5428
C:\Users\CYMR90~1\AppData\Local\Temp\cca5ocgO.s:25165  .debug_str:0000000000018648 .LASF5429
C:\Users\CYMR90~1\AppData\Local\Temp\cca5ocgO.s:29831  .debug_str:000000000002b0b9 .LASF5430
C:\Users\CYMR90~1\AppData\Local\Temp\cca5ocgO.s:26505  .debug_str:000000000001e053 .LASF5431
C:\Users\CYMR90~1\AppData\Local\Temp\cca5ocgO.s:23450  .debug_str:000000000001184c .LASF5432
C:\Users\CYMR90~1\AppData\Local\Temp\cca5ocgO.s:21734  .debug_str:000000000000aa8d .LASF5433
C:\Users\CYMR90~1\AppData\Local\Temp\cca5ocgO.s:21668  .debug_str:000000000000a666 .LASF5434
C:\Users\CYMR90~1\AppData\Local\Temp\cca5ocgO.s:20966  .debug_str:000000000000791f .LASF5435
C:\Users\CYMR90~1\AppData\Local\Temp\cca5ocgO.s:23184  .debug_str:0000000000010738 .LASF5436
C:\Users\CYMR90~1\AppData\Local\Temp\cca5ocgO.s:26357  .debug_str:000000000001d690 .LASF5437
C:\Users\CYMR90~1\AppData\Local\Temp\cca5ocgO.s:19928  .debug_str:00000000000036a1 .LASF5438
C:\Users\CYMR90~1\AppData\Local\Temp\cca5ocgO.s:26501  .debug_str:000000000001e032 .LASF5439
C:\Users\CYMR90~1\AppData\Local\Temp\cca5ocgO.s:22360  .debug_str:000000000000d524 .LASF5440
C:\Users\CYMR90~1\AppData\Local\Temp\cca5ocgO.s:25723  .debug_str:000000000001aca7 .LASF5441
C:\Users\CYMR90~1\AppData\Local\Temp\cca5ocgO.s:19082  .debug_str:000000000000023a .LASF5442
C:\Users\CYMR90~1\AppData\Local\Temp\cca5ocgO.s:25749  .debug_str:000000000001ae55 .LASF5443
C:\Users\CYMR90~1\AppData\Local\Temp\cca5ocgO.s:28429  .debug_str:00000000000258eb .LASF5444
C:\Users\CYMR90~1\AppData\Local\Temp\cca5ocgO.s:21882  .debug_str:000000000000b478 .LASF5445
C:\Users\CYMR90~1\AppData\Local\Temp\cca5ocgO.s:19166  .debug_str:000000000000074d .LASF5446
C:\Users\CYMR90~1\AppData\Local\Temp\cca5ocgO.s:28847  .debug_str:0000000000027323 .LASF5447
C:\Users\CYMR90~1\AppData\Local\Temp\cca5ocgO.s:21298  .debug_str:0000000000008fa6 .LASF5448
C:\Users\CYMR90~1\AppData\Local\Temp\cca5ocgO.s:24422  .debug_str:00000000000156ce .LASF5449
C:\Users\CYMR90~1\AppData\Local\Temp\cca5ocgO.s:23844  .debug_str:000000000001326a .LASF5450
C:\Users\CYMR90~1\AppData\Local\Temp\cca5ocgO.s:22532  .debug_str:000000000000df30 .LASF5451
C:\Users\CYMR90~1\AppData\Local\Temp\cca5ocgO.s:28069  .debug_str:0000000000023f01 .LASF5452
C:\Users\CYMR90~1\AppData\Local\Temp\cca5ocgO.s:24346  .debug_str:0000000000015287 .LASF5453
C:\Users\CYMR90~1\AppData\Local\Temp\cca5ocgO.s:21210  .debug_str:00000000000089b3 .LASF5454
C:\Users\CYMR90~1\AppData\Local\Temp\cca5ocgO.s:20280  .debug_str:0000000000004e93 .LASF5455
C:\Users\CYMR90~1\AppData\Local\Temp\cca5ocgO.s:19920  .debug_str:000000000000363a .LASF5456
C:\Users\CYMR90~1\AppData\Local\Temp\cca5ocgO.s:29949  .debug_str:000000000002b8a5 .LASF5457
C:\Users\CYMR90~1\AppData\Local\Temp\cca5ocgO.s:28055  .debug_str:0000000000023e2e .LASF5458
C:\Users\CYMR90~1\AppData\Local\Temp\cca5ocgO.s:19968  .debug_str:0000000000003964 .LASF5459
C:\Users\CYMR90~1\AppData\Local\Temp\cca5ocgO.s:23220  .debug_str:0000000000010942 .LASF5460
C:\Users\CYMR90~1\AppData\Local\Temp\cca5ocgO.s:25889  .debug_str:000000000001b823 .LASF5461
C:\Users\CYMR90~1\AppData\Local\Temp\cca5ocgO.s:29595  .debug_str:000000000002a216 .LASF5462
C:\Users\CYMR90~1\AppData\Local\Temp\cca5ocgO.s:27519  .debug_str:0000000000021eb1 .LASF5463
C:\Users\CYMR90~1\AppData\Local\Temp\cca5ocgO.s:28853  .debug_str:0000000000027387 .LASF5464
C:\Users\CYMR90~1\AppData\Local\Temp\cca5ocgO.s:27341  .debug_str:000000000002131d .LASF5465
C:\Users\CYMR90~1\AppData\Local\Temp\cca5ocgO.s:21872  .debug_str:000000000000b3be .LASF5466
C:\Users\CYMR90~1\AppData\Local\Temp\cca5ocgO.s:29389  .debug_str:0000000000029636 .LASF5467
C:\Users\CYMR90~1\AppData\Local\Temp\cca5ocgO.s:25703  .debug_str:000000000001aba2 .LASF5468
C:\Users\CYMR90~1\AppData\Local\Temp\cca5ocgO.s:23198  .debug_str:00000000000107ee .LASF5469
C:\Users\CYMR90~1\AppData\Local\Temp\cca5ocgO.s:22312  .debug_str:000000000000d18c .LASF5470
C:\Users\CYMR90~1\AppData\Local\Temp\cca5ocgO.s:30055  .debug_str:000000000002c01c .LASF5471
C:\Users\CYMR90~1\AppData\Local\Temp\cca5ocgO.s:21996  .debug_str:000000000000bc7e .LASF5472
C:\Users\CYMR90~1\AppData\Local\Temp\cca5ocgO.s:27983  .debug_str:00000000000239f0 .LASF5473
C:\Users\CYMR90~1\AppData\Local\Temp\cca5ocgO.s:24989  .debug_str:0000000000017bd2 .LASF5474
C:\Users\CYMR90~1\AppData\Local\Temp\cca5ocgO.s:27301  .debug_str:00000000000210a9 .LASF5475
C:\Users\CYMR90~1\AppData\Local\Temp\cca5ocgO.s:20692  .debug_str:0000000000006733 .LASF5476
C:\Users\CYMR90~1\AppData\Local\Temp\cca5ocgO.s:26423  .debug_str:000000000001daec .LASF5477
C:\Users\CYMR90~1\AppData\Local\Temp\cca5ocgO.s:19606  .debug_str:0000000000002248 .LASF5478
C:\Users\CYMR90~1\AppData\Local\Temp\cca5ocgO.s:27155  .debug_str:00000000000207ef .LASF5479
C:\Users\CYMR90~1\AppData\Local\Temp\cca5ocgO.s:28171  .debug_str:00000000000246a2 .LASF5480
C:\Users\CYMR90~1\AppData\Local\Temp\cca5ocgO.s:27073  .debug_str:00000000000202db .LASF5481
C:\Users\CYMR90~1\AppData\Local\Temp\cca5ocgO.s:28281  .debug_str:0000000000024e22 .LASF5482
C:\Users\CYMR90~1\AppData\Local\Temp\cca5ocgO.s:29265  .debug_str:0000000000028e81 .LASF5483
C:\Users\CYMR90~1\AppData\Local\Temp\cca5ocgO.s:24865  .debug_str:0000000000017407 .LASF5484
C:\Users\CYMR90~1\AppData\Local\Temp\cca5ocgO.s:28431  .debug_str:0000000000025904 .LASF5485
C:\Users\CYMR90~1\AppData\Local\Temp\cca5ocgO.s:19152  .debug_str:000000000000067a .LASF5486
C:\Users\CYMR90~1\AppData\Local\Temp\cca5ocgO.s:20160  .debug_str:000000000000464f .LASF5487
C:\Users\CYMR90~1\AppData\Local\Temp\cca5ocgO.s:26747  .debug_str:000000000001eed5 .LASF5488
C:\Users\CYMR90~1\AppData\Local\Temp\cca5ocgO.s:28211  .debug_str:0000000000024981 .LASF5489
C:\Users\CYMR90~1\AppData\Local\Temp\cca5ocgO.s:25775  .debug_str:000000000001b063 .LASF5490
C:\Users\CYMR90~1\AppData\Local\Temp\cca5ocgO.s:22104  .debug_str:000000000000c3ae .LASF5491
C:\Users\CYMR90~1\AppData\Local\Temp\cca5ocgO.s:24064  .debug_str:0000000000014049 .LASF5492
C:\Users\CYMR90~1\AppData\Local\Temp\cca5ocgO.s:26181  .debug_str:000000000001caab .LASF5493
C:\Users\CYMR90~1\AppData\Local\Temp\cca5ocgO.s:25119  .debug_str:0000000000018387 .LASF5494
C:\Users\CYMR90~1\AppData\Local\Temp\cca5ocgO.s:24362  .debug_str:0000000000015392 .LASF5495
C:\Users\CYMR90~1\AppData\Local\Temp\cca5ocgO.s:23468  .debug_str:0000000000011961 .LASF5496
C:\Users\CYMR90~1\AppData\Local\Temp\cca5ocgO.s:22442  .debug_str:000000000000d9c4 .LASF5497
C:\Users\CYMR90~1\AppData\Local\Temp\cca5ocgO.s:21700  .debug_str:000000000000a888 .LASF5498
C:\Users\CYMR90~1\AppData\Local\Temp\cca5ocgO.s:22584  .debug_str:000000000000e26b .LASF5499
C:\Users\CYMR90~1\AppData\Local\Temp\cca5ocgO.s:23976  .debug_str:0000000000013afd .LASF5500
C:\Users\CYMR90~1\AppData\Local\Temp\cca5ocgO.s:19692  .debug_str:00000000000027a1 .LASF5501
C:\Users\CYMR90~1\AppData\Local\Temp\cca5ocgO.s:22862  .debug_str:000000000000f3ac .LASF5502
C:\Users\CYMR90~1\AppData\Local\Temp\cca5ocgO.s:22500  .debug_str:000000000000dd25 .LASF5503
C:\Users\CYMR90~1\AppData\Local\Temp\cca5ocgO.s:22494  .debug_str:000000000000dcb3 .LASF5504
C:\Users\CYMR90~1\AppData\Local\Temp\cca5ocgO.s:23956  .debug_str:00000000000139d1 .LASF5505
C:\Users\CYMR90~1\AppData\Local\Temp\cca5ocgO.s:25287  .debug_str:0000000000018eb5 .LASF5506
C:\Users\CYMR90~1\AppData\Local\Temp\cca5ocgO.s:19638  .debug_str:000000000000243a .LASF5507
C:\Users\CYMR90~1\AppData\Local\Temp\cca5ocgO.s:24418  .debug_str:000000000001569c .LASF5508
C:\Users\CYMR90~1\AppData\Local\Temp\cca5ocgO.s:20632  .debug_str:00000000000063cd .LASF5509
C:\Users\CYMR90~1\AppData\Local\Temp\cca5ocgO.s:21814  .debug_str:000000000000b06d .LASF5510
C:\Users\CYMR90~1\AppData\Local\Temp\cca5ocgO.s:28873  .debug_str:0000000000027497 .LASF5511
C:\Users\CYMR90~1\AppData\Local\Temp\cca5ocgO.s:25953  .debug_str:000000000001bbb2 .LASF5512
C:\Users\CYMR90~1\AppData\Local\Temp\cca5ocgO.s:29141  .debug_str:000000000002870e .LASF5513
C:\Users\CYMR90~1\AppData\Local\Temp\cca5ocgO.s:20570  .debug_str:0000000000005fd1 .LASF5514
C:\Users\CYMR90~1\AppData\Local\Temp\cca5ocgO.s:24182  .debug_str:000000000001481e .LASF5515
C:\Users\CYMR90~1\AppData\Local\Temp\cca5ocgO.s:23900  .debug_str:0000000000013665 .LASF5516
C:\Users\CYMR90~1\AppData\Local\Temp\cca5ocgO.s:20784  .debug_str:0000000000006d2f .LASF5517
C:\Users\CYMR90~1\AppData\Local\Temp\cca5ocgO.s:21974  .debug_str:000000000000bace .LASF5518
C:\Users\CYMR90~1\AppData\Local\Temp\cca5ocgO.s:28185  .debug_str:0000000000024769 .LASF5519
C:\Users\CYMR90~1\AppData\Local\Temp\cca5ocgO.s:20030  .debug_str:0000000000003d71 .LASF5520
C:\Users\CYMR90~1\AppData\Local\Temp\cca5ocgO.s:19384  .debug_str:00000000000014de .LASF5521
C:\Users\CYMR90~1\AppData\Local\Temp\cca5ocgO.s:29429  .debug_str:0000000000029892 .LASF5522
C:\Users\CYMR90~1\AppData\Local\Temp\cca5ocgO.s:22852  .debug_str:000000000000f2dc .LASF5523
C:\Users\CYMR90~1\AppData\Local\Temp\cca5ocgO.s:22940  .debug_str:000000000000f8f0 .LASF5524
C:\Users\CYMR90~1\AppData\Local\Temp\cca5ocgO.s:19400  .debug_str:000000000000159f .LASF5525
C:\Users\CYMR90~1\AppData\Local\Temp\cca5ocgO.s:27477  .debug_str:0000000000021bf3 .LASF5526
C:\Users\CYMR90~1\AppData\Local\Temp\cca5ocgO.s:20078  .debug_str:0000000000004084 .LASF5527
C:\Users\CYMR90~1\AppData\Local\Temp\cca5ocgO.s:24825  .debug_str:0000000000017191 .LASF5528
C:\Users\CYMR90~1\AppData\Local\Temp\cca5ocgO.s:29481  .debug_str:0000000000029bb7 .LASF5529
C:\Users\CYMR90~1\AppData\Local\Temp\cca5ocgO.s:22914  .debug_str:000000000000f6a9 .LASF5530
C:\Users\CYMR90~1\AppData\Local\Temp\cca5ocgO.s:22634  .debug_str:000000000000e55c .LASF5531
C:\Users\CYMR90~1\AppData\Local\Temp\cca5ocgO.s:25849  .debug_str:000000000001b5c7 .LASF5532
C:\Users\CYMR90~1\AppData\Local\Temp\cca5ocgO.s:29023  .debug_str:0000000000027e36 .LASF5533
C:\Users\CYMR90~1\AppData\Local\Temp\cca5ocgO.s:20934  .debug_str:000000000000771f .LASF5534
C:\Users\CYMR90~1\AppData\Local\Temp\cca5ocgO.s:21390  .debug_str:00000000000094b8 .LASF5535
C:\Users\CYMR90~1\AppData\Local\Temp\cca5ocgO.s:27251  .debug_str:0000000000020def .LASF5536
C:\Users\CYMR90~1\AppData\Local\Temp\cca5ocgO.s:24202  .debug_str:0000000000014957 .LASF5537
C:\Users\CYMR90~1\AppData\Local\Temp\cca5ocgO.s:21942  .debug_str:000000000000b8b9 .LASF5538
C:\Users\CYMR90~1\AppData\Local\Temp\cca5ocgO.s:26739  .debug_str:000000000001ee5f .LASF5539
C:\Users\CYMR90~1\AppData\Local\Temp\cca5ocgO.s:24554  .debug_str:0000000000015f36 .LASF5540
C:\Users\CYMR90~1\AppData\Local\Temp\cca5ocgO.s:19700  .debug_str:0000000000002842 .LASF5541
C:\Users\CYMR90~1\AppData\Local\Temp\cca5ocgO.s:29757  .debug_str:000000000002ac33 .LASF5542
C:\Users\CYMR90~1\AppData\Local\Temp\cca5ocgO.s:27197  .debug_str:0000000000020a9a .LASF5543
C:\Users\CYMR90~1\AppData\Local\Temp\cca5ocgO.s:22308  .debug_str:000000000000d13b .LASF5544
C:\Users\CYMR90~1\AppData\Local\Temp\cca5ocgO.s:25339  .debug_str:000000000001929f .LASF5545
C:\Users\CYMR90~1\AppData\Local\Temp\cca5ocgO.s:26091  .debug_str:000000000001c488 .LASF5546
C:\Users\CYMR90~1\AppData\Local\Temp\cca5ocgO.s:22374  .debug_str:000000000000d60a .LASF5547
C:\Users\CYMR90~1\AppData\Local\Temp\cca5ocgO.s:22264  .debug_str:000000000000ce7d .LASF5548
C:\Users\CYMR90~1\AppData\Local\Temp\cca5ocgO.s:26183  .debug_str:000000000001cac4 .LASF5549
C:\Users\CYMR90~1\AppData\Local\Temp\cca5ocgO.s:20768  .debug_str:0000000000006c27 .LASF5550
C:\Users\CYMR90~1\AppData\Local\Temp\cca5ocgO.s:24869  .debug_str:0000000000017435 .LASF5551
C:\Users\CYMR90~1\AppData\Local\Temp\cca5ocgO.s:20378  .debug_str:0000000000005478 .LASF5552
C:\Users\CYMR90~1\AppData\Local\Temp\cca5ocgO.s:20840  .debug_str:00000000000070d0 .LASF5553
C:\Users\CYMR90~1\AppData\Local\Temp\cca5ocgO.s:28381  .debug_str:0000000000025548 .LASF5554
C:\Users\CYMR90~1\AppData\Local\Temp\cca5ocgO.s:21114  .debug_str:000000000000840a .LASF5555
                           .group:0000000000000000 wm4.0.10abbef32179bc1260444192115bdf5e
                           .group:0000000000000000 wm4.stddef.h.39.144cf5ddcd53cbfdac30259dc1a6c87f
                           .group:0000000000000000 wm4._newlib_version.h.4.bfdf54b0af045d4a71376ae00f63a22c
                           .group:0000000000000000 wm4.newlib.h.18.08a2ecba46890ca2aa56bbe21686e6c3
                           .group:0000000000000000 wm4.ieeefp.h.202.4f2759f5758fd82153cfbf98692f2ced
                           .group:0000000000000000 wm4.features.h.22.fad1cec3bc7ff06488171438dbdcfd02
                           .group:0000000000000000 wm4.config.h.83.13bbc8852bfac55b724c9822481355b5
                           .group:0000000000000000 wm4._ansi.h.31.de524f58584151836e90d8620a16f8e8
                           .group:0000000000000000 wm4.stdio.h.31.7c0e28c411445f3f9c5b11accf882760
                           .group:0000000000000000 wm4._default_types.h.6.959254cf5f09734ea7516c89e8bb21bd
                           .group:0000000000000000 wm4.stddef.h.155.ba788add86a0e365f264484f110c3c29
                           .group:0000000000000000 wm4.cdefs.h.49.39045112216f6a021dbdffe3bf5accce
                           .group:0000000000000000 wm4.stdarg.h.34.3a23a216c0c293b3d2ea2e89281481e6
                           .group:0000000000000000 wm4._types.h.20.dd0d04dca3800a0d2a6129b87f3adbb2
                           .group:0000000000000000 wm4.stddef.h.155.3588ebfdd1e8c7ede80509bb9c3b8009
                           .group:0000000000000000 wm4._types.h.127.34941de1b2539d59d5cac00e0dd27a45
                           .group:0000000000000000 wm4.reent.h.17.e292bf8b0bec6c96e131a54347145a30
                           .group:0000000000000000 wm4.lock.h.2.c0958401bd0ce484d507ee19aacab817
                           .group:0000000000000000 wm4.reent.h.77.dcd6129ff07fe81bd5636db29abe53b2
                           .group:0000000000000000 wm4.types.h.40.8b6acba56cefbb11746718204edc8f5e
                           .group:0000000000000000 wm4._stdint.h.10.c24fa3af3bc1706662bb5593a907e841
                           .group:0000000000000000 wm4._endian.h.18.1bf9649e8e5bbc91042012680270b9ed
                           .group:0000000000000000 wm4.endian.h.9.49f3a4695c1b61e8a0808de3c4a106cb
                           .group:0000000000000000 wm4._timeval.h.32.bec3221fa7a9bb0bdde696c9c57e47d2
                           .group:0000000000000000 wm4.timespec.h.41.d855182eb0e690443ab8651bcedca6e1
                           .group:0000000000000000 wm4.select.h.19.40cd3f2bfc456b193b790c2754690ebf
                           .group:0000000000000000 wm4.types.h.51.5571ec98f267d17d3c670b7a3ba33afa
                           .group:0000000000000000 wm4.sched.h.22.c60982713a5c428609783c78f9c78d95
                           .group:0000000000000000 wm4._pthreadtypes.h.36.fcee9961c35163dde6267ef772ad1972
                           .group:0000000000000000 wm4.stdio.h.2.4aa87247282eca6c8f36f9de33d8df1a
                           .group:0000000000000000 wm4.stdio.h.81.932d0c162786b883f622b8d05c120c78
                           .group:0000000000000000 wm4.gd32vw55x.h.47.379378190858578060a317909b2c8d8a
                           .group:0000000000000000 wm4._intsup.h.10.48bafbb683905c4daa4565a85aeeb264
                           .group:0000000000000000 wm4.stdint.h.23.d53047a68f4a85177f80b422d52785ed
                           .group:0000000000000000 wm4.nmsis_version.h.19.ffa173da8efb17b1050904994d6f500e
                           .group:0000000000000000 wm4.riscv_bits.h.19.ee94eb3d39937793d4cd0a62363e5d00
                           .group:0000000000000000 wm4.riscv_encoding.h.35.f5d37fad7abbab8278b4bb6f1e32fa65
                           .group:0000000000000000 wm4.nmsis_gcc.h.61.5d70d7598ffc79c3c991d847a574cf23
                           .group:0000000000000000 wm4.core_feature_base.h.20.e99d3e75c26a8f3341d35bf20d0e1d20
                           .group:0000000000000000 wm4.core_feature_fpu.h.19.695f2200274659b530cb97cda749ff4f
                           .group:0000000000000000 wm4.core_feature_dsp.h.19.e8f8d7aa42f197807aefedb6584486cd
                           .group:0000000000000000 wm4.core_compatiable.h.19.5b8282d61b1f6889a82895616b730084
                           .group:0000000000000000 wm4.core_feature_eclic.h.19.e0c091d0cbda79e8b3b031b979ebd5a1
                           .group:0000000000000000 wm4.core_feature_timer.h.19.21a5151282de34c37dfa6d84e262aa54
                           .group:0000000000000000 wm4.system_gd32vw55x.h.32.f1fcb1212d387c35ac955b0e96ada468
                           .group:0000000000000000 wm4.gd32vw55x.h.231.3529c650aff38c9372f7e03177fd2c8a
                           .group:0000000000000000 wm4.gd32vw55x_adc.h.42.ae73acec1704ef509ccecb41a875b50e
                           .group:0000000000000000 wm4.gd32vw55x_cau.h.36.c98428fe1eae7edb4721da5c8078c974
                           .group:0000000000000000 wm4.gd32vw55x_crc.h.37.c58f296814c2300a4b067c08bd88d54e
                           .group:0000000000000000 wm4.gd32vw55x_dbg.h.36.311650c8545549d482ceca8befc5a232
                           .group:0000000000000000 wm4.gd32vw55x_dma.h.36.f4adc751172b2a7b1533dda72e948737
                           .group:0000000000000000 wm4.gd32vw55x_eclic.h.36.0411499f2b2493c67246e32ccae096c1
                           .group:0000000000000000 wm4.gd32vw55x_efuse.h.36.091404cecbab70359dfd93faec5fdb62
                           .group:0000000000000000 wm4.gd32vw55x_fmc.h.36.a4b0b94c47ffe23a2fa09260c5ed4850
                           .group:0000000000000000 wm4.gd32vw55x_fwdgt.h.36.4846b6900fd24b5bfce4986c9a8ce677
                           .group:0000000000000000 wm4.gd32vw55x_gpio.h.36.adfee1371bb58d3d9043c47bdb25a90f
                           .group:0000000000000000 wm4.gd32vw55x_hau.h.36.f3cbcbd7b67c9e5bdc7a1100b1bf3458
                           .group:0000000000000000 wm4.gd32vw55x_i2c.h.36.3848990933925e084eb427083790c53f
                           .group:0000000000000000 wm4.gd32vw55x_pkcau.h.36.bb2235f4cf4967063a51bfa9aca5ef27
                           .group:0000000000000000 wm4.gd32vw55x_pmu.h.36.4c76091f1415551526d489ccf2c42052
                           .group:0000000000000000 wm4.gd32vw55x_qspi.h.36.2d2c181cfe19b935a9641008fc786613
                           .group:0000000000000000 wm4.gd32vw55x_rcu.h.36.780a8a45c00d563711cceb445027ef47
                           .group:0000000000000000 wm4.gd32vw55x_rtc.h.36.3172855e8715659e080e0eab46fdf175
                           .group:0000000000000000 wm4.gd32vw55x_spi.h.36.9fa1be2b09fb73e4b5886e97f0e96d58
                           .group:0000000000000000 wm4.gd32vw55x_syscfg.h.36.010551f05591f5e34051d2e15df0352b
                           .group:0000000000000000 wm4.gd32vw55x_timer.h.38.2cbee78ea60d47145be361b2d2c55070
                           .group:0000000000000000 wm4.gd32vw55x_trng.h.36.c9e7807af1b1ab68d3bbb54f4ed5cd73
                           .group:0000000000000000 wm4.gd32vw55x_usart.h.36.f5c497cca17945a34f154b0e17017d02
                           .group:0000000000000000 wm4.gd32vw55x_wwdgt.h.36.f7a443b7302efc0e5c335888582ee197
                           .group:0000000000000000 wm4.gd32vw55x_exti.h.41.dd9c71b5e0ebd8835855b40b9911aa36

NO UNDEFINED SYMBOLS
