   1              		.file	"gd32vw55x_fmc.c"
   2              		.option nopic
   3              		.attribute arch, "rv32i2p0_m2p0_a2p0_c2p0"
   4              		.attribute unaligned_access, 0
   5              		.attribute stack_align, 16
   6              		.text
   7              	.Ltext0:
   8              		.cfi_sections	.debug_frame
   9              		.section	.text.fmc_unlock,"ax",@progbits
  10              		.align	1
  11              		.globl	fmc_unlock
  13              	fmc_unlock:
  14              	.LFB347:
  15              		.file 1 "../Firmware/GD32VW55x_standard_peripheral/Source/gd32vw55x_fmc.c"
   1:../Firmware/GD32VW55x_standard_peripheral/Source/gd32vw55x_fmc.c **** /*!
   2:../Firmware/GD32VW55x_standard_peripheral/Source/gd32vw55x_fmc.c ****     \file    gd32vw55x_fmc.h
   3:../Firmware/GD32VW55x_standard_peripheral/Source/gd32vw55x_fmc.c ****     \brief   definitions for the FMC
   4:../Firmware/GD32VW55x_standard_peripheral/Source/gd32vw55x_fmc.c **** 
   5:../Firmware/GD32VW55x_standard_peripheral/Source/gd32vw55x_fmc.c ****     \version 2025-01-16, V1.4.0, firmware for GD32VW55x
   6:../Firmware/GD32VW55x_standard_peripheral/Source/gd32vw55x_fmc.c **** */
   7:../Firmware/GD32VW55x_standard_peripheral/Source/gd32vw55x_fmc.c **** 
   8:../Firmware/GD32VW55x_standard_peripheral/Source/gd32vw55x_fmc.c **** /*
   9:../Firmware/GD32VW55x_standard_peripheral/Source/gd32vw55x_fmc.c ****     Copyright (c) 2025, GigaDevice Semiconductor Inc.
  10:../Firmware/GD32VW55x_standard_peripheral/Source/gd32vw55x_fmc.c **** 
  11:../Firmware/GD32VW55x_standard_peripheral/Source/gd32vw55x_fmc.c ****     Redistribution and use in source and binary forms, with or without modification,
  12:../Firmware/GD32VW55x_standard_peripheral/Source/gd32vw55x_fmc.c **** are permitted provided that the following conditions are met:
  13:../Firmware/GD32VW55x_standard_peripheral/Source/gd32vw55x_fmc.c **** 
  14:../Firmware/GD32VW55x_standard_peripheral/Source/gd32vw55x_fmc.c ****     1. Redistributions of source code must retain the above copyright notice, this
  15:../Firmware/GD32VW55x_standard_peripheral/Source/gd32vw55x_fmc.c ****        list of conditions and the following disclaimer.
  16:../Firmware/GD32VW55x_standard_peripheral/Source/gd32vw55x_fmc.c ****     2. Redistributions in binary form must reproduce the above copyright notice,
  17:../Firmware/GD32VW55x_standard_peripheral/Source/gd32vw55x_fmc.c ****        this list of conditions and the following disclaimer in the documentation
  18:../Firmware/GD32VW55x_standard_peripheral/Source/gd32vw55x_fmc.c ****        and/or other materials provided with the distribution.
  19:../Firmware/GD32VW55x_standard_peripheral/Source/gd32vw55x_fmc.c ****     3. Neither the name of the copyright holder nor the names of its contributors
  20:../Firmware/GD32VW55x_standard_peripheral/Source/gd32vw55x_fmc.c ****        may be used to endorse or promote products derived from this software without
  21:../Firmware/GD32VW55x_standard_peripheral/Source/gd32vw55x_fmc.c ****        specific prior written permission.
  22:../Firmware/GD32VW55x_standard_peripheral/Source/gd32vw55x_fmc.c **** 
  23:../Firmware/GD32VW55x_standard_peripheral/Source/gd32vw55x_fmc.c ****     THIS SOFTWARE IS PROVIDED BY THE COPYRIGHT HOLDERS AND CONTRIBUTORS "AS IS"
  24:../Firmware/GD32VW55x_standard_peripheral/Source/gd32vw55x_fmc.c **** AND ANY EXPRESS OR IMPLIED WARRANTIES, INCLUDING, BUT NOT LIMITED TO, THE IMPLIED
  25:../Firmware/GD32VW55x_standard_peripheral/Source/gd32vw55x_fmc.c **** WARRANTIES OF MERCHANTABILITY AND FITNESS FOR A PARTICULAR PURPOSE ARE DISCLAIMED.
  26:../Firmware/GD32VW55x_standard_peripheral/Source/gd32vw55x_fmc.c **** IN NO EVENT SHALL THE COPYRIGHT HOLDER OR CONTRIBUTORS BE LIABLE FOR ANY DIRECT,
  27:../Firmware/GD32VW55x_standard_peripheral/Source/gd32vw55x_fmc.c **** INDIRECT, INCIDENTAL, SPECIAL, EXEMPLARY, OR CONSEQUENTIAL DAMAGES (INCLUDING, BUT
  28:../Firmware/GD32VW55x_standard_peripheral/Source/gd32vw55x_fmc.c **** NOT LIMITED TO, PROCUREMENT OF SUBSTITUTE GOODS OR SERVICES; LOSS OF USE, DATA, OR
  29:../Firmware/GD32VW55x_standard_peripheral/Source/gd32vw55x_fmc.c **** PROFITS; OR BUSINESS INTERRUPTION) HOWEVER CAUSED AND ON ANY THEORY OF LIABILITY,
  30:../Firmware/GD32VW55x_standard_peripheral/Source/gd32vw55x_fmc.c **** WHETHER IN CONTRACT, STRICT LIABILITY, OR TORT (INCLUDING NEGLIGENCE OR OTHERWISE)
  31:../Firmware/GD32VW55x_standard_peripheral/Source/gd32vw55x_fmc.c **** ARISING IN ANY WAY OUT OF THE USE OF THIS SOFTWARE, EVEN IF ADVISED OF THE POSSIBILITY
  32:../Firmware/GD32VW55x_standard_peripheral/Source/gd32vw55x_fmc.c **** OF SUCH DAMAGE.
  33:../Firmware/GD32VW55x_standard_peripheral/Source/gd32vw55x_fmc.c ****  */
  34:../Firmware/GD32VW55x_standard_peripheral/Source/gd32vw55x_fmc.c **** 
  35:../Firmware/GD32VW55x_standard_peripheral/Source/gd32vw55x_fmc.c **** #include "gd32vw55x_fmc.h"
  36:../Firmware/GD32VW55x_standard_peripheral/Source/gd32vw55x_fmc.c **** 
  37:../Firmware/GD32VW55x_standard_peripheral/Source/gd32vw55x_fmc.c **** /* FMC mask */
  38:../Firmware/GD32VW55x_standard_peripheral/Source/gd32vw55x_fmc.c **** /* FMC_OBR_SPC mask */
  39:../Firmware/GD32VW55x_standard_peripheral/Source/gd32vw55x_fmc.c **** #define FMC_OBR_SPC_MASK                  ((uint32_t)0xFFFFFF00U)
  40:../Firmware/GD32VW55x_standard_peripheral/Source/gd32vw55x_fmc.c **** /* FMC_OBUSER mask */
  41:../Firmware/GD32VW55x_standard_peripheral/Source/gd32vw55x_fmc.c **** #define FMC_OBUSER_MASK                   ((uint32_t)0x00000000U)
  42:../Firmware/GD32VW55x_standard_peripheral/Source/gd32vw55x_fmc.c **** /* FMC_OBSTAT security protection mask */
  43:../Firmware/GD32VW55x_standard_peripheral/Source/gd32vw55x_fmc.c **** #define FMC_OBSTAT_SPCSTAT_MASK           ((uint32_t)0x00000002U)
  44:../Firmware/GD32VW55x_standard_peripheral/Source/gd32vw55x_fmc.c **** /* FMC_OBWRPx/FMC_OFRG end page of region offset */
  45:../Firmware/GD32VW55x_standard_peripheral/Source/gd32vw55x_fmc.c **** #define FMC_EPAGE_OFFSET                  ((uint32_t)16U)
  46:../Firmware/GD32VW55x_standard_peripheral/Source/gd32vw55x_fmc.c **** 
  47:../Firmware/GD32VW55x_standard_peripheral/Source/gd32vw55x_fmc.c **** /* return the FMC state */
  48:../Firmware/GD32VW55x_standard_peripheral/Source/gd32vw55x_fmc.c **** static fmc_state_enum fmc_state_get(void);
  49:../Firmware/GD32VW55x_standard_peripheral/Source/gd32vw55x_fmc.c **** /* check FMC ready or not */
  50:../Firmware/GD32VW55x_standard_peripheral/Source/gd32vw55x_fmc.c **** static fmc_state_enum fmc_ready_wait(uint32_t timeout);
  51:../Firmware/GD32VW55x_standard_peripheral/Source/gd32vw55x_fmc.c **** 
  52:../Firmware/GD32VW55x_standard_peripheral/Source/gd32vw55x_fmc.c **** /*!
  53:../Firmware/GD32VW55x_standard_peripheral/Source/gd32vw55x_fmc.c ****     \brief      unlock the main FMC operation
  54:../Firmware/GD32VW55x_standard_peripheral/Source/gd32vw55x_fmc.c ****                 it is better to used in pairs with fmc_lock
  55:../Firmware/GD32VW55x_standard_peripheral/Source/gd32vw55x_fmc.c ****     \param[in]  none
  56:../Firmware/GD32VW55x_standard_peripheral/Source/gd32vw55x_fmc.c ****     \param[out] none
  57:../Firmware/GD32VW55x_standard_peripheral/Source/gd32vw55x_fmc.c ****     \retval     none
  58:../Firmware/GD32VW55x_standard_peripheral/Source/gd32vw55x_fmc.c **** */
  59:../Firmware/GD32VW55x_standard_peripheral/Source/gd32vw55x_fmc.c **** void fmc_unlock(void)
  60:../Firmware/GD32VW55x_standard_peripheral/Source/gd32vw55x_fmc.c **** {
  16              		.loc 1 60 1
  17              		.cfi_startproc
  18 0000 4111     		addi	sp,sp,-16
  19              		.cfi_def_cfa_offset 16
  20 0002 22C6     		sw	s0,12(sp)
  21              		.cfi_offset 8, -4
  22 0004 0008     		addi	s0,sp,16
  23              		.cfi_def_cfa 8, 0
  61:../Firmware/GD32VW55x_standard_peripheral/Source/gd32vw55x_fmc.c ****     if(RESET != (FMC_CTL & FMC_CTL_LK)){
  24              		.loc 1 61 18
  25 0006 B7270240 		li	a5,1073881088
  26 000a C107     		addi	a5,a5,16
  27 000c 9C43     		lw	a5,0(a5)
  28              		.loc 1 61 26
  29 000e 93F70708 		andi	a5,a5,128
  30              		.loc 1 61 7
  31 0012 8DC3     		beq	a5,zero,.L3
  62:../Firmware/GD32VW55x_standard_peripheral/Source/gd32vw55x_fmc.c ****         /* write the FMC unlock key */
  63:../Firmware/GD32VW55x_standard_peripheral/Source/gd32vw55x_fmc.c ****         FMC_KEY = UNLOCK_KEY0;
  32              		.loc 1 63 9
  33 0014 B7270240 		li	a5,1073881088
  34 0018 9107     		addi	a5,a5,4
  35              		.loc 1 63 17
  36 001a 37076745 		li	a4,1164378112
  37 001e 13073712 		addi	a4,a4,291
  38 0022 98C3     		sw	a4,0(a5)
  64:../Firmware/GD32VW55x_standard_peripheral/Source/gd32vw55x_fmc.c ****         FMC_KEY = UNLOCK_KEY1;
  39              		.loc 1 64 9
  40 0024 B7270240 		li	a5,1073881088
  41 0028 9107     		addi	a5,a5,4
  42              		.loc 1 64 17
  43 002a 3797EFCD 		li	a4,-839938048
  44 002e 1307B79A 		addi	a4,a4,-1621
  45 0032 98C3     		sw	a4,0(a5)
  46              	.L3:
  65:../Firmware/GD32VW55x_standard_peripheral/Source/gd32vw55x_fmc.c ****     }
  66:../Firmware/GD32VW55x_standard_peripheral/Source/gd32vw55x_fmc.c **** }
  47              		.loc 1 66 1
  48 0034 0100     		nop
  49 0036 3244     		lw	s0,12(sp)
  50              		.cfi_restore 8
  51              		.cfi_def_cfa 2, 16
  52 0038 4101     		addi	sp,sp,16
  53              		.cfi_def_cfa_offset 0
  54 003a 8280     		jr	ra
  55              		.cfi_endproc
  56              	.LFE347:
  58              		.section	.text.fmc_lock,"ax",@progbits
  59              		.align	1
  60              		.globl	fmc_lock
  62              	fmc_lock:
  63              	.LFB348:
  67:../Firmware/GD32VW55x_standard_peripheral/Source/gd32vw55x_fmc.c **** 
  68:../Firmware/GD32VW55x_standard_peripheral/Source/gd32vw55x_fmc.c **** /*!
  69:../Firmware/GD32VW55x_standard_peripheral/Source/gd32vw55x_fmc.c ****     \brief      lock the main FMC operation
  70:../Firmware/GD32VW55x_standard_peripheral/Source/gd32vw55x_fmc.c ****                 it is better to used in pairs with fmc_unlock after an operation
  71:../Firmware/GD32VW55x_standard_peripheral/Source/gd32vw55x_fmc.c ****     \param[in]  none
  72:../Firmware/GD32VW55x_standard_peripheral/Source/gd32vw55x_fmc.c ****     \param[out] none
  73:../Firmware/GD32VW55x_standard_peripheral/Source/gd32vw55x_fmc.c ****     \retval     none
  74:../Firmware/GD32VW55x_standard_peripheral/Source/gd32vw55x_fmc.c **** */
  75:../Firmware/GD32VW55x_standard_peripheral/Source/gd32vw55x_fmc.c **** void fmc_lock(void)
  76:../Firmware/GD32VW55x_standard_peripheral/Source/gd32vw55x_fmc.c **** {
  64              		.loc 1 76 1
  65              		.cfi_startproc
  66 0000 4111     		addi	sp,sp,-16
  67              		.cfi_def_cfa_offset 16
  68 0002 22C6     		sw	s0,12(sp)
  69              		.cfi_offset 8, -4
  70 0004 0008     		addi	s0,sp,16
  71              		.cfi_def_cfa 8, 0
  77:../Firmware/GD32VW55x_standard_peripheral/Source/gd32vw55x_fmc.c ****     /* set the LK bit */
  78:../Firmware/GD32VW55x_standard_peripheral/Source/gd32vw55x_fmc.c ****     FMC_CTL |= FMC_CTL_LK;
  72              		.loc 1 78 13
  73 0006 B7270240 		li	a5,1073881088
  74 000a C107     		addi	a5,a5,16
  75 000c 9843     		lw	a4,0(a5)
  76 000e B7270240 		li	a5,1073881088
  77 0012 C107     		addi	a5,a5,16
  78 0014 13670708 		ori	a4,a4,128
  79 0018 98C3     		sw	a4,0(a5)
  79:../Firmware/GD32VW55x_standard_peripheral/Source/gd32vw55x_fmc.c **** }
  80              		.loc 1 79 1
  81 001a 0100     		nop
  82 001c 3244     		lw	s0,12(sp)
  83              		.cfi_restore 8
  84              		.cfi_def_cfa 2, 16
  85 001e 4101     		addi	sp,sp,16
  86              		.cfi_def_cfa_offset 0
  87 0020 8280     		jr	ra
  88              		.cfi_endproc
  89              	.LFE348:
  91              		.section	.text.fmc_page_erase,"ax",@progbits
  92              		.align	1
  93              		.globl	fmc_page_erase
  95              	fmc_page_erase:
  96              	.LFB349:
  80:../Firmware/GD32VW55x_standard_peripheral/Source/gd32vw55x_fmc.c **** 
  81:../Firmware/GD32VW55x_standard_peripheral/Source/gd32vw55x_fmc.c **** /*!
  82:../Firmware/GD32VW55x_standard_peripheral/Source/gd32vw55x_fmc.c ****     \brief      FMC erase page
  83:../Firmware/GD32VW55x_standard_peripheral/Source/gd32vw55x_fmc.c ****     \param[in]  page_address: target page address
  84:../Firmware/GD32VW55x_standard_peripheral/Source/gd32vw55x_fmc.c ****     \param[out] none
  85:../Firmware/GD32VW55x_standard_peripheral/Source/gd32vw55x_fmc.c ****     \retval     state of FMC
  86:../Firmware/GD32VW55x_standard_peripheral/Source/gd32vw55x_fmc.c ****       \arg        FMC_READY: the operation has been completed
  87:../Firmware/GD32VW55x_standard_peripheral/Source/gd32vw55x_fmc.c ****       \arg        FMC_WPERR: erase/program protection error
  88:../Firmware/GD32VW55x_standard_peripheral/Source/gd32vw55x_fmc.c ****       \arg        FMC_TOERR: timeout error
  89:../Firmware/GD32VW55x_standard_peripheral/Source/gd32vw55x_fmc.c **** */
  90:../Firmware/GD32VW55x_standard_peripheral/Source/gd32vw55x_fmc.c **** fmc_state_enum fmc_page_erase(uint32_t page_address)
  91:../Firmware/GD32VW55x_standard_peripheral/Source/gd32vw55x_fmc.c **** {
  97              		.loc 1 91 1
  98              		.cfi_startproc
  99 0000 7971     		addi	sp,sp,-48
 100              		.cfi_def_cfa_offset 48
 101 0002 06D6     		sw	ra,44(sp)
 102 0004 22D4     		sw	s0,40(sp)
 103              		.cfi_offset 1, -4
 104              		.cfi_offset 8, -8
 105 0006 0018     		addi	s0,sp,48
 106              		.cfi_def_cfa 8, 0
 107 0008 232EA4FC 		sw	a0,-36(s0)
  92:../Firmware/GD32VW55x_standard_peripheral/Source/gd32vw55x_fmc.c ****     fmc_state_enum fmc_state = FMC_READY;
 108              		.loc 1 92 20
 109 000c 232604FE 		sw	zero,-20(s0)
  93:../Firmware/GD32VW55x_standard_peripheral/Source/gd32vw55x_fmc.c **** 
  94:../Firmware/GD32VW55x_standard_peripheral/Source/gd32vw55x_fmc.c ****     /* wait for the FMC ready */
  95:../Firmware/GD32VW55x_standard_peripheral/Source/gd32vw55x_fmc.c ****     fmc_state = fmc_ready_wait(FMC_TIMEOUT_COUNT);
 110              		.loc 1 95 17
 111 0010 37050001 		li	a0,16777216
 112 0014 97000000 		call	fmc_ready_wait
 112      E7800000 
 113 001c 2326A4FE 		sw	a0,-20(s0)
  96:../Firmware/GD32VW55x_standard_peripheral/Source/gd32vw55x_fmc.c **** 
  97:../Firmware/GD32VW55x_standard_peripheral/Source/gd32vw55x_fmc.c ****     if(FMC_READY == fmc_state){
 114              		.loc 1 97 7
 115 0020 8327C4FE 		lw	a5,-20(s0)
 116 0024 A1EF     		bne	a5,zero,.L6
  98:../Firmware/GD32VW55x_standard_peripheral/Source/gd32vw55x_fmc.c ****         /* start page erase */
  99:../Firmware/GD32VW55x_standard_peripheral/Source/gd32vw55x_fmc.c ****         FMC_CTL |= FMC_CTL_PER;
 117              		.loc 1 99 17
 118 0026 B7270240 		li	a5,1073881088
 119 002a C107     		addi	a5,a5,16
 120 002c 9843     		lw	a4,0(a5)
 121 002e B7270240 		li	a5,1073881088
 122 0032 C107     		addi	a5,a5,16
 123 0034 13672700 		ori	a4,a4,2
 124 0038 98C3     		sw	a4,0(a5)
 100:../Firmware/GD32VW55x_standard_peripheral/Source/gd32vw55x_fmc.c ****         FMC_ADDR = page_address;
 125              		.loc 1 100 9
 126 003a B7270240 		li	a5,1073881088
 127 003e D107     		addi	a5,a5,20
 128              		.loc 1 100 18
 129 0040 0327C4FD 		lw	a4,-36(s0)
 130 0044 98C3     		sw	a4,0(a5)
 101:../Firmware/GD32VW55x_standard_peripheral/Source/gd32vw55x_fmc.c ****         FMC_CTL |= FMC_CTL_START;
 131              		.loc 1 101 17
 132 0046 B7270240 		li	a5,1073881088
 133 004a C107     		addi	a5,a5,16
 134 004c 9843     		lw	a4,0(a5)
 135 004e B7270240 		li	a5,1073881088
 136 0052 C107     		addi	a5,a5,16
 137 0054 13670704 		ori	a4,a4,64
 138 0058 98C3     		sw	a4,0(a5)
 102:../Firmware/GD32VW55x_standard_peripheral/Source/gd32vw55x_fmc.c ****         /* wait for the FMC ready */
 103:../Firmware/GD32VW55x_standard_peripheral/Source/gd32vw55x_fmc.c ****         fmc_state = fmc_ready_wait(FMC_TIMEOUT_COUNT);
 139              		.loc 1 103 21
 140 005a 37050001 		li	a0,16777216
 141 005e 97000000 		call	fmc_ready_wait
 141      E7800000 
 142 0066 2326A4FE 		sw	a0,-20(s0)
 104:../Firmware/GD32VW55x_standard_peripheral/Source/gd32vw55x_fmc.c ****         /* reset the PER bit */
 105:../Firmware/GD32VW55x_standard_peripheral/Source/gd32vw55x_fmc.c ****         FMC_CTL &= ~FMC_CTL_PER;
 143              		.loc 1 105 17
 144 006a B7270240 		li	a5,1073881088
 145 006e C107     		addi	a5,a5,16
 146 0070 9843     		lw	a4,0(a5)
 147 0072 B7270240 		li	a5,1073881088
 148 0076 C107     		addi	a5,a5,16
 149 0078 759B     		andi	a4,a4,-3
 150 007a 98C3     		sw	a4,0(a5)
 151              	.L6:
 106:../Firmware/GD32VW55x_standard_peripheral/Source/gd32vw55x_fmc.c ****     }
 107:../Firmware/GD32VW55x_standard_peripheral/Source/gd32vw55x_fmc.c **** 
 108:../Firmware/GD32VW55x_standard_peripheral/Source/gd32vw55x_fmc.c ****     /* return the FMC state */
 109:../Firmware/GD32VW55x_standard_peripheral/Source/gd32vw55x_fmc.c ****     return fmc_state;
 152              		.loc 1 109 12
 153 007c 8327C4FE 		lw	a5,-20(s0)
 110:../Firmware/GD32VW55x_standard_peripheral/Source/gd32vw55x_fmc.c **** }
 154              		.loc 1 110 1
 155 0080 3E85     		mv	a0,a5
 156 0082 B250     		lw	ra,44(sp)
 157              		.cfi_restore 1
 158 0084 2254     		lw	s0,40(sp)
 159              		.cfi_restore 8
 160              		.cfi_def_cfa 2, 48
 161 0086 4561     		addi	sp,sp,48
 162              		.cfi_def_cfa_offset 0
 163 0088 8280     		jr	ra
 164              		.cfi_endproc
 165              	.LFE349:
 167              		.section	.text.fmc_mass_erase,"ax",@progbits
 168              		.align	1
 169              		.globl	fmc_mass_erase
 171              	fmc_mass_erase:
 172              	.LFB350:
 111:../Firmware/GD32VW55x_standard_peripheral/Source/gd32vw55x_fmc.c **** 
 112:../Firmware/GD32VW55x_standard_peripheral/Source/gd32vw55x_fmc.c **** /*!
 113:../Firmware/GD32VW55x_standard_peripheral/Source/gd32vw55x_fmc.c ****     \brief      FMC erase whole chip
 114:../Firmware/GD32VW55x_standard_peripheral/Source/gd32vw55x_fmc.c ****     \param[in]  none
 115:../Firmware/GD32VW55x_standard_peripheral/Source/gd32vw55x_fmc.c ****     \param[out] none
 116:../Firmware/GD32VW55x_standard_peripheral/Source/gd32vw55x_fmc.c ****     \retval     state of FMC
 117:../Firmware/GD32VW55x_standard_peripheral/Source/gd32vw55x_fmc.c ****       \arg        FMC_READY: the operation has been completed
 118:../Firmware/GD32VW55x_standard_peripheral/Source/gd32vw55x_fmc.c ****       \arg        FMC_WPERR: erase/program protection error
 119:../Firmware/GD32VW55x_standard_peripheral/Source/gd32vw55x_fmc.c ****       \arg        FMC_TOERR: timeout error
 120:../Firmware/GD32VW55x_standard_peripheral/Source/gd32vw55x_fmc.c **** */
 121:../Firmware/GD32VW55x_standard_peripheral/Source/gd32vw55x_fmc.c **** fmc_state_enum fmc_mass_erase(void)
 122:../Firmware/GD32VW55x_standard_peripheral/Source/gd32vw55x_fmc.c **** {
 173              		.loc 1 122 1
 174              		.cfi_startproc
 175 0000 0111     		addi	sp,sp,-32
 176              		.cfi_def_cfa_offset 32
 177 0002 06CE     		sw	ra,28(sp)
 178 0004 22CC     		sw	s0,24(sp)
 179              		.cfi_offset 1, -4
 180              		.cfi_offset 8, -8
 181 0006 0010     		addi	s0,sp,32
 182              		.cfi_def_cfa 8, 0
 123:../Firmware/GD32VW55x_standard_peripheral/Source/gd32vw55x_fmc.c ****     fmc_state_enum fmc_state = FMC_READY;
 183              		.loc 1 123 20
 184 0008 232604FE 		sw	zero,-20(s0)
 124:../Firmware/GD32VW55x_standard_peripheral/Source/gd32vw55x_fmc.c **** 
 125:../Firmware/GD32VW55x_standard_peripheral/Source/gd32vw55x_fmc.c ****     /* wait for the FMC ready */
 126:../Firmware/GD32VW55x_standard_peripheral/Source/gd32vw55x_fmc.c ****     fmc_state = fmc_ready_wait(FMC_TIMEOUT_COUNT);
 185              		.loc 1 126 17
 186 000c 37050001 		li	a0,16777216
 187 0010 97000000 		call	fmc_ready_wait
 187      E7800000 
 188 0018 2326A4FE 		sw	a0,-20(s0)
 127:../Firmware/GD32VW55x_standard_peripheral/Source/gd32vw55x_fmc.c **** 
 128:../Firmware/GD32VW55x_standard_peripheral/Source/gd32vw55x_fmc.c ****     if(FMC_READY == fmc_state){
 189              		.loc 1 128 7
 190 001c 8327C4FE 		lw	a5,-20(s0)
 191 0020 B1E7     		bne	a5,zero,.L9
 129:../Firmware/GD32VW55x_standard_peripheral/Source/gd32vw55x_fmc.c ****         /* start chip erase */
 130:../Firmware/GD32VW55x_standard_peripheral/Source/gd32vw55x_fmc.c ****         FMC_CTL |= FMC_CTL_MER;
 192              		.loc 1 130 17
 193 0022 B7270240 		li	a5,1073881088
 194 0026 C107     		addi	a5,a5,16
 195 0028 9843     		lw	a4,0(a5)
 196 002a B7270240 		li	a5,1073881088
 197 002e C107     		addi	a5,a5,16
 198 0030 13674700 		ori	a4,a4,4
 199 0034 98C3     		sw	a4,0(a5)
 131:../Firmware/GD32VW55x_standard_peripheral/Source/gd32vw55x_fmc.c ****         FMC_CTL |= FMC_CTL_START;
 200              		.loc 1 131 17
 201 0036 B7270240 		li	a5,1073881088
 202 003a C107     		addi	a5,a5,16
 203 003c 9843     		lw	a4,0(a5)
 204 003e B7270240 		li	a5,1073881088
 205 0042 C107     		addi	a5,a5,16
 206 0044 13670704 		ori	a4,a4,64
 207 0048 98C3     		sw	a4,0(a5)
 132:../Firmware/GD32VW55x_standard_peripheral/Source/gd32vw55x_fmc.c ****         /* wait for the FMC ready */
 133:../Firmware/GD32VW55x_standard_peripheral/Source/gd32vw55x_fmc.c ****         fmc_state = fmc_ready_wait(FMC_TIMEOUT_COUNT);
 208              		.loc 1 133 21
 209 004a 37050001 		li	a0,16777216
 210 004e 97000000 		call	fmc_ready_wait
 210      E7800000 
 211 0056 2326A4FE 		sw	a0,-20(s0)
 134:../Firmware/GD32VW55x_standard_peripheral/Source/gd32vw55x_fmc.c ****         /* reset the MER bit */
 135:../Firmware/GD32VW55x_standard_peripheral/Source/gd32vw55x_fmc.c ****         FMC_CTL &= ~FMC_CTL_MER;
 212              		.loc 1 135 17
 213 005a B7270240 		li	a5,1073881088
 214 005e C107     		addi	a5,a5,16
 215 0060 9843     		lw	a4,0(a5)
 216 0062 B7270240 		li	a5,1073881088
 217 0066 C107     		addi	a5,a5,16
 218 0068 6D9B     		andi	a4,a4,-5
 219 006a 98C3     		sw	a4,0(a5)
 220              	.L9:
 136:../Firmware/GD32VW55x_standard_peripheral/Source/gd32vw55x_fmc.c ****     }
 137:../Firmware/GD32VW55x_standard_peripheral/Source/gd32vw55x_fmc.c **** 
 138:../Firmware/GD32VW55x_standard_peripheral/Source/gd32vw55x_fmc.c ****     /* return the FMC state  */
 139:../Firmware/GD32VW55x_standard_peripheral/Source/gd32vw55x_fmc.c ****     return fmc_state;
 221              		.loc 1 139 12
 222 006c 8327C4FE 		lw	a5,-20(s0)
 140:../Firmware/GD32VW55x_standard_peripheral/Source/gd32vw55x_fmc.c **** }
 223              		.loc 1 140 1
 224 0070 3E85     		mv	a0,a5
 225 0072 F240     		lw	ra,28(sp)
 226              		.cfi_restore 1
 227 0074 6244     		lw	s0,24(sp)
 228              		.cfi_restore 8
 229              		.cfi_def_cfa 2, 32
 230 0076 0561     		addi	sp,sp,32
 231              		.cfi_def_cfa_offset 0
 232 0078 8280     		jr	ra
 233              		.cfi_endproc
 234              	.LFE350:
 236              		.section	.text.fmc_word_program,"ax",@progbits
 237              		.align	1
 238              		.globl	fmc_word_program
 240              	fmc_word_program:
 241              	.LFB351:
 141:../Firmware/GD32VW55x_standard_peripheral/Source/gd32vw55x_fmc.c **** 
 142:../Firmware/GD32VW55x_standard_peripheral/Source/gd32vw55x_fmc.c **** /*!
 143:../Firmware/GD32VW55x_standard_peripheral/Source/gd32vw55x_fmc.c ****     \brief      FMC program a word at the corresponding address
 144:../Firmware/GD32VW55x_standard_peripheral/Source/gd32vw55x_fmc.c ****     \param[in]  address: address to program
 145:../Firmware/GD32VW55x_standard_peripheral/Source/gd32vw55x_fmc.c ****     \param[in]  data: word to program
 146:../Firmware/GD32VW55x_standard_peripheral/Source/gd32vw55x_fmc.c ****     \param[out] none
 147:../Firmware/GD32VW55x_standard_peripheral/Source/gd32vw55x_fmc.c ****     \retval     state of FMC
 148:../Firmware/GD32VW55x_standard_peripheral/Source/gd32vw55x_fmc.c ****       \arg        FMC_READY: the operation has been completed
 149:../Firmware/GD32VW55x_standard_peripheral/Source/gd32vw55x_fmc.c ****       \arg        FMC_WPERR: erase/program protection error
 150:../Firmware/GD32VW55x_standard_peripheral/Source/gd32vw55x_fmc.c ****       \arg        FMC_TOERR: timeout error
 151:../Firmware/GD32VW55x_standard_peripheral/Source/gd32vw55x_fmc.c **** */
 152:../Firmware/GD32VW55x_standard_peripheral/Source/gd32vw55x_fmc.c **** fmc_state_enum fmc_word_program(uint32_t address, uint32_t data)
 153:../Firmware/GD32VW55x_standard_peripheral/Source/gd32vw55x_fmc.c **** {
 242              		.loc 1 153 1
 243              		.cfi_startproc
 244 0000 7971     		addi	sp,sp,-48
 245              		.cfi_def_cfa_offset 48
 246 0002 06D6     		sw	ra,44(sp)
 247 0004 22D4     		sw	s0,40(sp)
 248              		.cfi_offset 1, -4
 249              		.cfi_offset 8, -8
 250 0006 0018     		addi	s0,sp,48
 251              		.cfi_def_cfa 8, 0
 252 0008 232EA4FC 		sw	a0,-36(s0)
 253 000c 232CB4FC 		sw	a1,-40(s0)
 154:../Firmware/GD32VW55x_standard_peripheral/Source/gd32vw55x_fmc.c ****     fmc_state_enum fmc_state = FMC_READY;
 254              		.loc 1 154 20
 255 0010 232604FE 		sw	zero,-20(s0)
 155:../Firmware/GD32VW55x_standard_peripheral/Source/gd32vw55x_fmc.c **** 
 156:../Firmware/GD32VW55x_standard_peripheral/Source/gd32vw55x_fmc.c ****     /* wait for the FMC ready */
 157:../Firmware/GD32VW55x_standard_peripheral/Source/gd32vw55x_fmc.c ****     fmc_state = fmc_ready_wait(FMC_TIMEOUT_COUNT);
 256              		.loc 1 157 17
 257 0014 37050001 		li	a0,16777216
 258 0018 97000000 		call	fmc_ready_wait
 258      E7800000 
 259 0020 2326A4FE 		sw	a0,-20(s0)
 158:../Firmware/GD32VW55x_standard_peripheral/Source/gd32vw55x_fmc.c **** 
 159:../Firmware/GD32VW55x_standard_peripheral/Source/gd32vw55x_fmc.c ****     if(FMC_READY == fmc_state){
 260              		.loc 1 159 7
 261 0024 8327C4FE 		lw	a5,-20(s0)
 262 0028 A9E3     		bne	a5,zero,.L12
 160:../Firmware/GD32VW55x_standard_peripheral/Source/gd32vw55x_fmc.c ****         /* set the PG bit to start program */
 161:../Firmware/GD32VW55x_standard_peripheral/Source/gd32vw55x_fmc.c ****         FMC_CTL |= FMC_CTL_PG;
 263              		.loc 1 161 17
 264 002a B7270240 		li	a5,1073881088
 265 002e C107     		addi	a5,a5,16
 266 0030 9843     		lw	a4,0(a5)
 267 0032 B7270240 		li	a5,1073881088
 268 0036 C107     		addi	a5,a5,16
 269 0038 13671700 		ori	a4,a4,1
 270 003c 98C3     		sw	a4,0(a5)
 162:../Firmware/GD32VW55x_standard_peripheral/Source/gd32vw55x_fmc.c ****         REG32(address) = data;
 271              		.loc 1 162 9
 272 003e 8327C4FD 		lw	a5,-36(s0)
 273              		.loc 1 162 24
 274 0042 032784FD 		lw	a4,-40(s0)
 275 0046 98C3     		sw	a4,0(a5)
 163:../Firmware/GD32VW55x_standard_peripheral/Source/gd32vw55x_fmc.c ****         /* wait for the FMC ready */
 164:../Firmware/GD32VW55x_standard_peripheral/Source/gd32vw55x_fmc.c ****         fmc_state = fmc_ready_wait(FMC_TIMEOUT_COUNT);
 276              		.loc 1 164 21
 277 0048 37050001 		li	a0,16777216
 278 004c 97000000 		call	fmc_ready_wait
 278      E7800000 
 279 0054 2326A4FE 		sw	a0,-20(s0)
 165:../Firmware/GD32VW55x_standard_peripheral/Source/gd32vw55x_fmc.c ****         /* reset the PG bit */
 166:../Firmware/GD32VW55x_standard_peripheral/Source/gd32vw55x_fmc.c ****         FMC_CTL &= ~FMC_CTL_PG;
 280              		.loc 1 166 17
 281 0058 B7270240 		li	a5,1073881088
 282 005c C107     		addi	a5,a5,16
 283 005e 9843     		lw	a4,0(a5)
 284 0060 B7270240 		li	a5,1073881088
 285 0064 C107     		addi	a5,a5,16
 286 0066 799B     		andi	a4,a4,-2
 287 0068 98C3     		sw	a4,0(a5)
 288              	.L12:
 167:../Firmware/GD32VW55x_standard_peripheral/Source/gd32vw55x_fmc.c ****     }
 168:../Firmware/GD32VW55x_standard_peripheral/Source/gd32vw55x_fmc.c **** 
 169:../Firmware/GD32VW55x_standard_peripheral/Source/gd32vw55x_fmc.c ****     /* return the FMC state */
 170:../Firmware/GD32VW55x_standard_peripheral/Source/gd32vw55x_fmc.c ****     return fmc_state;
 289              		.loc 1 170 12
 290 006a 8327C4FE 		lw	a5,-20(s0)
 171:../Firmware/GD32VW55x_standard_peripheral/Source/gd32vw55x_fmc.c **** }
 291              		.loc 1 171 1
 292 006e 3E85     		mv	a0,a5
 293 0070 B250     		lw	ra,44(sp)
 294              		.cfi_restore 1
 295 0072 2254     		lw	s0,40(sp)
 296              		.cfi_restore 8
 297              		.cfi_def_cfa 2, 48
 298 0074 4561     		addi	sp,sp,48
 299              		.cfi_def_cfa_offset 0
 300 0076 8280     		jr	ra
 301              		.cfi_endproc
 302              	.LFE351:
 304              		.section	.text.fmc_continuous_program,"ax",@progbits
 305              		.align	1
 306              		.globl	fmc_continuous_program
 308              	fmc_continuous_program:
 309              	.LFB352:
 172:../Firmware/GD32VW55x_standard_peripheral/Source/gd32vw55x_fmc.c **** 
 173:../Firmware/GD32VW55x_standard_peripheral/Source/gd32vw55x_fmc.c **** /*!
 174:../Firmware/GD32VW55x_standard_peripheral/Source/gd32vw55x_fmc.c ****     \brief      FMC program data continuously at the corresponding address
 175:../Firmware/GD32VW55x_standard_peripheral/Source/gd32vw55x_fmc.c ****     \param[in]  address: address to program, must be 4-byte aligned
 176:../Firmware/GD32VW55x_standard_peripheral/Source/gd32vw55x_fmc.c ****     \param[in]  data: data buffer to program
 177:../Firmware/GD32VW55x_standard_peripheral/Source/gd32vw55x_fmc.c ****     \param[in]  size: data buffer size in bytes, must be 4-byte aligned
 178:../Firmware/GD32VW55x_standard_peripheral/Source/gd32vw55x_fmc.c ****     \param[out] none
 179:../Firmware/GD32VW55x_standard_peripheral/Source/gd32vw55x_fmc.c ****     \retval     state of FMC
 180:../Firmware/GD32VW55x_standard_peripheral/Source/gd32vw55x_fmc.c ****       \arg        FMC_READY: the operation has been completed
 181:../Firmware/GD32VW55x_standard_peripheral/Source/gd32vw55x_fmc.c ****       \arg        FMC_WPERR: erase/program protection error
 182:../Firmware/GD32VW55x_standard_peripheral/Source/gd32vw55x_fmc.c ****       \arg        FMC_TOERR: timeout error
 183:../Firmware/GD32VW55x_standard_peripheral/Source/gd32vw55x_fmc.c **** */
 184:../Firmware/GD32VW55x_standard_peripheral/Source/gd32vw55x_fmc.c **** fmc_state_enum fmc_continuous_program(uint32_t address, uint32_t data[], uint32_t size)
 185:../Firmware/GD32VW55x_standard_peripheral/Source/gd32vw55x_fmc.c **** {
 310              		.loc 1 185 1
 311              		.cfi_startproc
 312 0000 7971     		addi	sp,sp,-48
 313              		.cfi_def_cfa_offset 48
 314 0002 06D6     		sw	ra,44(sp)
 315 0004 22D4     		sw	s0,40(sp)
 316              		.cfi_offset 1, -4
 317              		.cfi_offset 8, -8
 318 0006 0018     		addi	s0,sp,48
 319              		.cfi_def_cfa 8, 0
 320 0008 232EA4FC 		sw	a0,-36(s0)
 321 000c 232CB4FC 		sw	a1,-40(s0)
 322 0010 232AC4FC 		sw	a2,-44(s0)
 186:../Firmware/GD32VW55x_standard_peripheral/Source/gd32vw55x_fmc.c ****     fmc_state_enum fmc_state = FMC_READY;
 323              		.loc 1 186 20
 324 0014 232404FE 		sw	zero,-24(s0)
 187:../Firmware/GD32VW55x_standard_peripheral/Source/gd32vw55x_fmc.c **** 
 188:../Firmware/GD32VW55x_standard_peripheral/Source/gd32vw55x_fmc.c ****     /* wait for the FMC ready */
 189:../Firmware/GD32VW55x_standard_peripheral/Source/gd32vw55x_fmc.c ****     fmc_state = fmc_ready_wait(FMC_TIMEOUT_COUNT);
 325              		.loc 1 189 17
 326 0018 37050001 		li	a0,16777216
 327 001c 97000000 		call	fmc_ready_wait
 327      E7800000 
 328 0024 2324A4FE 		sw	a0,-24(s0)
 190:../Firmware/GD32VW55x_standard_peripheral/Source/gd32vw55x_fmc.c **** 
 191:../Firmware/GD32VW55x_standard_peripheral/Source/gd32vw55x_fmc.c ****     if(FMC_READY == fmc_state){
 329              		.loc 1 191 7
 330 0028 832784FE 		lw	a5,-24(s0)
 331 002c ADE3     		bne	a5,zero,.L15
 192:../Firmware/GD32VW55x_standard_peripheral/Source/gd32vw55x_fmc.c ****         /* set the PG bit to start program */
 193:../Firmware/GD32VW55x_standard_peripheral/Source/gd32vw55x_fmc.c ****         FMC_CTL |= FMC_CTL_PG;
 332              		.loc 1 193 17
 333 002e B7270240 		li	a5,1073881088
 334 0032 C107     		addi	a5,a5,16
 335 0034 9843     		lw	a4,0(a5)
 336 0036 B7270240 		li	a5,1073881088
 337 003a C107     		addi	a5,a5,16
 338 003c 13671700 		ori	a4,a4,1
 339 0040 98C3     		sw	a4,0(a5)
 340              	.LBB2:
 194:../Firmware/GD32VW55x_standard_peripheral/Source/gd32vw55x_fmc.c **** 
 195:../Firmware/GD32VW55x_standard_peripheral/Source/gd32vw55x_fmc.c ****         for(uint32_t i = 0U; i < size; i++){
 341              		.loc 1 195 22
 342 0042 232604FE 		sw	zero,-20(s0)
 343              		.loc 1 195 9
 344 0046 2DA0     		j	.L16
 345              	.L17:
 196:../Firmware/GD32VW55x_standard_peripheral/Source/gd32vw55x_fmc.c ****             REG32(address) = data[i];
 346              		.loc 1 196 34 discriminator 3
 347 0048 8327C4FE 		lw	a5,-20(s0)
 348 004c 8A07     		slli	a5,a5,2
 349 004e 032784FD 		lw	a4,-40(s0)
 350 0052 3E97     		add	a4,a4,a5
 351              		.loc 1 196 13 discriminator 3
 352 0054 8327C4FD 		lw	a5,-36(s0)
 353              		.loc 1 196 34 discriminator 3
 354 0058 1843     		lw	a4,0(a4)
 355              		.loc 1 196 28 discriminator 3
 356 005a 98C3     		sw	a4,0(a5)
 197:../Firmware/GD32VW55x_standard_peripheral/Source/gd32vw55x_fmc.c ****             address += 4U;
 357              		.loc 1 197 21 discriminator 3
 358 005c 8327C4FD 		lw	a5,-36(s0)
 359 0060 9107     		addi	a5,a5,4
 360 0062 232EF4FC 		sw	a5,-36(s0)
 195:../Firmware/GD32VW55x_standard_peripheral/Source/gd32vw55x_fmc.c ****             REG32(address) = data[i];
 361              		.loc 1 195 41 discriminator 3
 362 0066 8327C4FE 		lw	a5,-20(s0)
 363 006a 8507     		addi	a5,a5,1
 364 006c 2326F4FE 		sw	a5,-20(s0)
 365              	.L16:
 195:../Firmware/GD32VW55x_standard_peripheral/Source/gd32vw55x_fmc.c ****             REG32(address) = data[i];
 366              		.loc 1 195 9 discriminator 1
 367 0070 0327C4FE 		lw	a4,-20(s0)
 368 0074 832744FD 		lw	a5,-44(s0)
 369 0078 E368F7FC 		bltu	a4,a5,.L17
 370              	.LBE2:
 198:../Firmware/GD32VW55x_standard_peripheral/Source/gd32vw55x_fmc.c ****         }
 199:../Firmware/GD32VW55x_standard_peripheral/Source/gd32vw55x_fmc.c **** 
 200:../Firmware/GD32VW55x_standard_peripheral/Source/gd32vw55x_fmc.c ****         /* reset the PG bit */
 201:../Firmware/GD32VW55x_standard_peripheral/Source/gd32vw55x_fmc.c ****         FMC_CTL &= ~FMC_CTL_PG;
 371              		.loc 1 201 17
 372 007c B7270240 		li	a5,1073881088
 373 0080 C107     		addi	a5,a5,16
 374 0082 9843     		lw	a4,0(a5)
 375 0084 B7270240 		li	a5,1073881088
 376 0088 C107     		addi	a5,a5,16
 377 008a 799B     		andi	a4,a4,-2
 378 008c 98C3     		sw	a4,0(a5)
 379              	.L15:
 202:../Firmware/GD32VW55x_standard_peripheral/Source/gd32vw55x_fmc.c ****     }
 203:../Firmware/GD32VW55x_standard_peripheral/Source/gd32vw55x_fmc.c **** 
 204:../Firmware/GD32VW55x_standard_peripheral/Source/gd32vw55x_fmc.c ****     /* return the FMC state */
 205:../Firmware/GD32VW55x_standard_peripheral/Source/gd32vw55x_fmc.c ****     return fmc_state;
 380              		.loc 1 205 12
 381 008e 832784FE 		lw	a5,-24(s0)
 206:../Firmware/GD32VW55x_standard_peripheral/Source/gd32vw55x_fmc.c **** }
 382              		.loc 1 206 1
 383 0092 3E85     		mv	a0,a5
 384 0094 B250     		lw	ra,44(sp)
 385              		.cfi_restore 1
 386 0096 2254     		lw	s0,40(sp)
 387              		.cfi_restore 8
 388              		.cfi_def_cfa 2, 48
 389 0098 4561     		addi	sp,sp,48
 390              		.cfi_def_cfa_offset 0
 391 009a 8280     		jr	ra
 392              		.cfi_endproc
 393              	.LFE352:
 395              		.section	.text.fmc_obr_function_enable,"ax",@progbits
 396              		.align	1
 397              		.globl	fmc_obr_function_enable
 399              	fmc_obr_function_enable:
 400              	.LFB353:
 207:../Firmware/GD32VW55x_standard_peripheral/Source/gd32vw55x_fmc.c **** 
 208:../Firmware/GD32VW55x_standard_peripheral/Source/gd32vw55x_fmc.c **** /*!
 209:../Firmware/GD32VW55x_standard_peripheral/Source/gd32vw55x_fmc.c ****     \brief      enable FMC OBR function
 210:../Firmware/GD32VW55x_standard_peripheral/Source/gd32vw55x_fmc.c ****     \param[in]  obr_function: the OBR function
 211:../Firmware/GD32VW55x_standard_peripheral/Source/gd32vw55x_fmc.c ****                 one or more parameters can be selected which are shown as below:
 212:../Firmware/GD32VW55x_standard_peripheral/Source/gd32vw55x_fmc.c ****       \arg        FMC_OBR_NWDG_HW: watchdog status function
 213:../Firmware/GD32VW55x_standard_peripheral/Source/gd32vw55x_fmc.c ****       \arg        FMC_OBR_NRST_STDBY: no reset generated when entering Standby mode function
 214:../Firmware/GD32VW55x_standard_peripheral/Source/gd32vw55x_fmc.c ****       \arg        FMC_OBR_NSRT_DPSLP: no reset generated when entering DeepSleep mode function
 215:../Firmware/GD32VW55x_standard_peripheral/Source/gd32vw55x_fmc.c ****       \arg        FMC_OBR_SRAM1_RST: SRAM1 reset automatically function
 216:../Firmware/GD32VW55x_standard_peripheral/Source/gd32vw55x_fmc.c ****     \param[out] none
 217:../Firmware/GD32VW55x_standard_peripheral/Source/gd32vw55x_fmc.c ****     \retval     none
 218:../Firmware/GD32VW55x_standard_peripheral/Source/gd32vw55x_fmc.c **** */
 219:../Firmware/GD32VW55x_standard_peripheral/Source/gd32vw55x_fmc.c **** void fmc_obr_function_enable(uint32_t obr_function)
 220:../Firmware/GD32VW55x_standard_peripheral/Source/gd32vw55x_fmc.c **** {
 401              		.loc 1 220 1
 402              		.cfi_startproc
 403 0000 0111     		addi	sp,sp,-32
 404              		.cfi_def_cfa_offset 32
 405 0002 22CE     		sw	s0,28(sp)
 406              		.cfi_offset 8, -4
 407 0004 0010     		addi	s0,sp,32
 408              		.cfi_def_cfa 8, 0
 409 0006 2326A4FE 		sw	a0,-20(s0)
 221:../Firmware/GD32VW55x_standard_peripheral/Source/gd32vw55x_fmc.c ****     FMC_OBR |= obr_function;
 410              		.loc 1 221 13
 411 000a B7270240 		li	a5,1073881088
 412 000e 93870704 		addi	a5,a5,64
 413 0012 9443     		lw	a3,0(a5)
 414 0014 B7270240 		li	a5,1073881088
 415 0018 93870704 		addi	a5,a5,64
 416 001c 0327C4FE 		lw	a4,-20(s0)
 417 0020 558F     		or	a4,a3,a4
 418 0022 98C3     		sw	a4,0(a5)
 222:../Firmware/GD32VW55x_standard_peripheral/Source/gd32vw55x_fmc.c **** }
 419              		.loc 1 222 1
 420 0024 0100     		nop
 421 0026 7244     		lw	s0,28(sp)
 422              		.cfi_restore 8
 423              		.cfi_def_cfa 2, 32
 424 0028 0561     		addi	sp,sp,32
 425              		.cfi_def_cfa_offset 0
 426 002a 8280     		jr	ra
 427              		.cfi_endproc
 428              	.LFE353:
 430              		.section	.text.fmc_obr_function_disable,"ax",@progbits
 431              		.align	1
 432              		.globl	fmc_obr_function_disable
 434              	fmc_obr_function_disable:
 435              	.LFB354:
 223:../Firmware/GD32VW55x_standard_peripheral/Source/gd32vw55x_fmc.c **** 
 224:../Firmware/GD32VW55x_standard_peripheral/Source/gd32vw55x_fmc.c **** /*!
 225:../Firmware/GD32VW55x_standard_peripheral/Source/gd32vw55x_fmc.c ****     \brief      disable FMC OBR function
 226:../Firmware/GD32VW55x_standard_peripheral/Source/gd32vw55x_fmc.c ****     \param[in]  obr_function: the OBR function
 227:../Firmware/GD32VW55x_standard_peripheral/Source/gd32vw55x_fmc.c ****                 one or more parameters can be selected which are shown as below:
 228:../Firmware/GD32VW55x_standard_peripheral/Source/gd32vw55x_fmc.c ****       \arg        FMC_OBR_NWDG_HW: watchdog status function
 229:../Firmware/GD32VW55x_standard_peripheral/Source/gd32vw55x_fmc.c ****       \arg        FMC_OBR_NRST_STDBY: no reset generated when entering Standby mode function
 230:../Firmware/GD32VW55x_standard_peripheral/Source/gd32vw55x_fmc.c ****       \arg        FMC_OBR_NSRT_DPSLP: no reset generated when entering DeepSleep mode function
 231:../Firmware/GD32VW55x_standard_peripheral/Source/gd32vw55x_fmc.c ****       \arg        FMC_OBR_SRAM1_RST: SRAM1 reset automatically function
 232:../Firmware/GD32VW55x_standard_peripheral/Source/gd32vw55x_fmc.c ****     \param[out] none
 233:../Firmware/GD32VW55x_standard_peripheral/Source/gd32vw55x_fmc.c ****     \retval     none
 234:../Firmware/GD32VW55x_standard_peripheral/Source/gd32vw55x_fmc.c **** */
 235:../Firmware/GD32VW55x_standard_peripheral/Source/gd32vw55x_fmc.c **** void fmc_obr_function_disable(uint32_t obr_function)
 236:../Firmware/GD32VW55x_standard_peripheral/Source/gd32vw55x_fmc.c **** {
 436              		.loc 1 236 1
 437              		.cfi_startproc
 438 0000 0111     		addi	sp,sp,-32
 439              		.cfi_def_cfa_offset 32
 440 0002 22CE     		sw	s0,28(sp)
 441              		.cfi_offset 8, -4
 442 0004 0010     		addi	s0,sp,32
 443              		.cfi_def_cfa 8, 0
 444 0006 2326A4FE 		sw	a0,-20(s0)
 237:../Firmware/GD32VW55x_standard_peripheral/Source/gd32vw55x_fmc.c ****     FMC_OBR &= ~(uint32_t) obr_function;
 445              		.loc 1 237 13
 446 000a B7270240 		li	a5,1073881088
 447 000e 93870704 		addi	a5,a5,64
 448 0012 9443     		lw	a3,0(a5)
 449              		.loc 1 237 16
 450 0014 8327C4FE 		lw	a5,-20(s0)
 451 0018 13C7F7FF 		not	a4,a5
 452              		.loc 1 237 13
 453 001c B7270240 		li	a5,1073881088
 454 0020 93870704 		addi	a5,a5,64
 455 0024 758F     		and	a4,a3,a4
 456 0026 98C3     		sw	a4,0(a5)
 238:../Firmware/GD32VW55x_standard_peripheral/Source/gd32vw55x_fmc.c **** }
 457              		.loc 1 238 1
 458 0028 0100     		nop
 459 002a 7244     		lw	s0,28(sp)
 460              		.cfi_restore 8
 461              		.cfi_def_cfa 2, 32
 462 002c 0561     		addi	sp,sp,32
 463              		.cfi_def_cfa_offset 0
 464 002e 8280     		jr	ra
 465              		.cfi_endproc
 466              	.LFE354:
 468              		.section	.text.ob_unlock,"ax",@progbits
 469              		.align	1
 470              		.globl	ob_unlock
 472              	ob_unlock:
 473              	.LFB355:
 239:../Firmware/GD32VW55x_standard_peripheral/Source/gd32vw55x_fmc.c **** 
 240:../Firmware/GD32VW55x_standard_peripheral/Source/gd32vw55x_fmc.c **** /*!
 241:../Firmware/GD32VW55x_standard_peripheral/Source/gd32vw55x_fmc.c ****     \brief      unlock the option bytes operation
 242:../Firmware/GD32VW55x_standard_peripheral/Source/gd32vw55x_fmc.c ****     it is better to used in pairs with ob_lock
 243:../Firmware/GD32VW55x_standard_peripheral/Source/gd32vw55x_fmc.c ****     \param[in]  none
 244:../Firmware/GD32VW55x_standard_peripheral/Source/gd32vw55x_fmc.c ****     \param[out] none
 245:../Firmware/GD32VW55x_standard_peripheral/Source/gd32vw55x_fmc.c ****     \retval     none
 246:../Firmware/GD32VW55x_standard_peripheral/Source/gd32vw55x_fmc.c **** */
 247:../Firmware/GD32VW55x_standard_peripheral/Source/gd32vw55x_fmc.c **** void ob_unlock(void)
 248:../Firmware/GD32VW55x_standard_peripheral/Source/gd32vw55x_fmc.c **** {
 474              		.loc 1 248 1
 475              		.cfi_startproc
 476 0000 4111     		addi	sp,sp,-16
 477              		.cfi_def_cfa_offset 16
 478 0002 22C6     		sw	s0,12(sp)
 479              		.cfi_offset 8, -4
 480 0004 0008     		addi	s0,sp,16
 481              		.cfi_def_cfa 8, 0
 249:../Firmware/GD32VW55x_standard_peripheral/Source/gd32vw55x_fmc.c ****     if (RESET == (FMC_CTL & FMC_CTL_OBWEN)){
 482              		.loc 1 249 19
 483 0006 B7270240 		li	a5,1073881088
 484 000a C107     		addi	a5,a5,16
 485 000c 9C43     		lw	a5,0(a5)
 486              		.loc 1 249 27
 487 000e 93F70720 		andi	a5,a5,512
 488              		.loc 1 249 8
 489 0012 8DE3     		bne	a5,zero,.L23
 250:../Firmware/GD32VW55x_standard_peripheral/Source/gd32vw55x_fmc.c ****         /* write the FMC ob unlock key */
 251:../Firmware/GD32VW55x_standard_peripheral/Source/gd32vw55x_fmc.c ****         FMC_OBKEY = UNLOCK_KEY0;
 490              		.loc 1 251 9
 491 0014 B7270240 		li	a5,1073881088
 492 0018 A107     		addi	a5,a5,8
 493              		.loc 1 251 19
 494 001a 37076745 		li	a4,1164378112
 495 001e 13073712 		addi	a4,a4,291
 496 0022 98C3     		sw	a4,0(a5)
 252:../Firmware/GD32VW55x_standard_peripheral/Source/gd32vw55x_fmc.c ****         FMC_OBKEY = UNLOCK_KEY1;
 497              		.loc 1 252 9
 498 0024 B7270240 		li	a5,1073881088
 499 0028 A107     		addi	a5,a5,8
 500              		.loc 1 252 19
 501 002a 3797EFCD 		li	a4,-839938048
 502 002e 1307B79A 		addi	a4,a4,-1621
 503 0032 98C3     		sw	a4,0(a5)
 504              	.L23:
 253:../Firmware/GD32VW55x_standard_peripheral/Source/gd32vw55x_fmc.c ****     }
 254:../Firmware/GD32VW55x_standard_peripheral/Source/gd32vw55x_fmc.c **** }
 505              		.loc 1 254 1
 506 0034 0100     		nop
 507 0036 3244     		lw	s0,12(sp)
 508              		.cfi_restore 8
 509              		.cfi_def_cfa 2, 16
 510 0038 4101     		addi	sp,sp,16
 511              		.cfi_def_cfa_offset 0
 512 003a 8280     		jr	ra
 513              		.cfi_endproc
 514              	.LFE355:
 516              		.section	.text.ob_lock,"ax",@progbits
 517              		.align	1
 518              		.globl	ob_lock
 520              	ob_lock:
 521              	.LFB356:
 255:../Firmware/GD32VW55x_standard_peripheral/Source/gd32vw55x_fmc.c **** 
 256:../Firmware/GD32VW55x_standard_peripheral/Source/gd32vw55x_fmc.c **** /*!
 257:../Firmware/GD32VW55x_standard_peripheral/Source/gd32vw55x_fmc.c ****     \brief      lock the option bytes operation
 258:../Firmware/GD32VW55x_standard_peripheral/Source/gd32vw55x_fmc.c ****                 it is better to used in pairs with ob_unlock after an operation
 259:../Firmware/GD32VW55x_standard_peripheral/Source/gd32vw55x_fmc.c ****     \param[in]  none
 260:../Firmware/GD32VW55x_standard_peripheral/Source/gd32vw55x_fmc.c ****     \param[out] none
 261:../Firmware/GD32VW55x_standard_peripheral/Source/gd32vw55x_fmc.c ****     \retval     none
 262:../Firmware/GD32VW55x_standard_peripheral/Source/gd32vw55x_fmc.c **** */
 263:../Firmware/GD32VW55x_standard_peripheral/Source/gd32vw55x_fmc.c **** void ob_lock(void)
 264:../Firmware/GD32VW55x_standard_peripheral/Source/gd32vw55x_fmc.c **** {
 522              		.loc 1 264 1
 523              		.cfi_startproc
 524 0000 4111     		addi	sp,sp,-16
 525              		.cfi_def_cfa_offset 16
 526 0002 22C6     		sw	s0,12(sp)
 527              		.cfi_offset 8, -4
 528 0004 0008     		addi	s0,sp,16
 529              		.cfi_def_cfa 8, 0
 265:../Firmware/GD32VW55x_standard_peripheral/Source/gd32vw55x_fmc.c ****     /* reset the OBWEN bit */
 266:../Firmware/GD32VW55x_standard_peripheral/Source/gd32vw55x_fmc.c ****     FMC_CTL &= ~FMC_CTL_OBWEN;
 530              		.loc 1 266 13
 531 0006 B7270240 		li	a5,1073881088
 532 000a C107     		addi	a5,a5,16
 533 000c 9843     		lw	a4,0(a5)
 534 000e B7270240 		li	a5,1073881088
 535 0012 C107     		addi	a5,a5,16
 536 0014 1377F7DF 		andi	a4,a4,-513
 537 0018 98C3     		sw	a4,0(a5)
 267:../Firmware/GD32VW55x_standard_peripheral/Source/gd32vw55x_fmc.c **** }
 538              		.loc 1 267 1
 539 001a 0100     		nop
 540 001c 3244     		lw	s0,12(sp)
 541              		.cfi_restore 8
 542              		.cfi_def_cfa 2, 16
 543 001e 4101     		addi	sp,sp,16
 544              		.cfi_def_cfa_offset 0
 545 0020 8280     		jr	ra
 546              		.cfi_endproc
 547              	.LFE356:
 549              		.section	.text.ob_start,"ax",@progbits
 550              		.align	1
 551              		.globl	ob_start
 553              	ob_start:
 554              	.LFB357:
 268:../Firmware/GD32VW55x_standard_peripheral/Source/gd32vw55x_fmc.c **** 
 269:../Firmware/GD32VW55x_standard_peripheral/Source/gd32vw55x_fmc.c **** /*!
 270:../Firmware/GD32VW55x_standard_peripheral/Source/gd32vw55x_fmc.c ****     \brief      send option bytes modification start command
 271:../Firmware/GD32VW55x_standard_peripheral/Source/gd32vw55x_fmc.c ****     \param[in]  none
 272:../Firmware/GD32VW55x_standard_peripheral/Source/gd32vw55x_fmc.c ****     \param[out] none
 273:../Firmware/GD32VW55x_standard_peripheral/Source/gd32vw55x_fmc.c ****     \retval     none
 274:../Firmware/GD32VW55x_standard_peripheral/Source/gd32vw55x_fmc.c **** */
 275:../Firmware/GD32VW55x_standard_peripheral/Source/gd32vw55x_fmc.c **** void ob_start(void)
 276:../Firmware/GD32VW55x_standard_peripheral/Source/gd32vw55x_fmc.c **** {
 555              		.loc 1 276 1
 556              		.cfi_startproc
 557 0000 4111     		addi	sp,sp,-16
 558              		.cfi_def_cfa_offset 16
 559 0002 22C6     		sw	s0,12(sp)
 560              		.cfi_offset 8, -4
 561 0004 0008     		addi	s0,sp,16
 562              		.cfi_def_cfa 8, 0
 277:../Firmware/GD32VW55x_standard_peripheral/Source/gd32vw55x_fmc.c ****     /* set the OB_START bit in FMC_CTL register to start option bytes modification */
 278:../Firmware/GD32VW55x_standard_peripheral/Source/gd32vw55x_fmc.c ****     FMC_CTL |= (FMC_CTL_OBSTART | FMC_CTL_OBWEN);
 563              		.loc 1 278 13
 564 0006 B7270240 		li	a5,1073881088
 565 000a C107     		addi	a5,a5,16
 566 000c 9443     		lw	a3,0(a5)
 567 000e B7270240 		li	a5,1073881088
 568 0012 C107     		addi	a5,a5,16
 569 0014 1167     		li	a4,16384
 570 0016 13070720 		addi	a4,a4,512
 571 001a 558F     		or	a4,a3,a4
 572 001c 98C3     		sw	a4,0(a5)
 279:../Firmware/GD32VW55x_standard_peripheral/Source/gd32vw55x_fmc.c **** }
 573              		.loc 1 279 1
 574 001e 0100     		nop
 575 0020 3244     		lw	s0,12(sp)
 576              		.cfi_restore 8
 577              		.cfi_def_cfa 2, 16
 578 0022 4101     		addi	sp,sp,16
 579              		.cfi_def_cfa_offset 0
 580 0024 8280     		jr	ra
 581              		.cfi_endproc
 582              	.LFE357:
 584              		.section	.text.ob_reload,"ax",@progbits
 585              		.align	1
 586              		.globl	ob_reload
 588              	ob_reload:
 589              	.LFB358:
 280:../Firmware/GD32VW55x_standard_peripheral/Source/gd32vw55x_fmc.c **** 
 281:../Firmware/GD32VW55x_standard_peripheral/Source/gd32vw55x_fmc.c **** /*!
 282:../Firmware/GD32VW55x_standard_peripheral/Source/gd32vw55x_fmc.c ****     \brief      reload option bytes
 283:../Firmware/GD32VW55x_standard_peripheral/Source/gd32vw55x_fmc.c ****     \param[in]  none
 284:../Firmware/GD32VW55x_standard_peripheral/Source/gd32vw55x_fmc.c ****     \param[out] none
 285:../Firmware/GD32VW55x_standard_peripheral/Source/gd32vw55x_fmc.c ****     \retval     none
 286:../Firmware/GD32VW55x_standard_peripheral/Source/gd32vw55x_fmc.c **** */
 287:../Firmware/GD32VW55x_standard_peripheral/Source/gd32vw55x_fmc.c **** void ob_reload(void)
 288:../Firmware/GD32VW55x_standard_peripheral/Source/gd32vw55x_fmc.c **** {
 590              		.loc 1 288 1
 591              		.cfi_startproc
 592 0000 4111     		addi	sp,sp,-16
 593              		.cfi_def_cfa_offset 16
 594 0002 22C6     		sw	s0,12(sp)
 595              		.cfi_offset 8, -4
 596 0004 0008     		addi	s0,sp,16
 597              		.cfi_def_cfa 8, 0
 289:../Firmware/GD32VW55x_standard_peripheral/Source/gd32vw55x_fmc.c ****     /* set the FMC_CTL_OBRLD bit in FMC_CTL register to reload option bytes */
 290:../Firmware/GD32VW55x_standard_peripheral/Source/gd32vw55x_fmc.c ****     FMC_CTL |= FMC_CTL_OBRLD;
 598              		.loc 1 290 13
 599 0006 B7270240 		li	a5,1073881088
 600 000a C107     		addi	a5,a5,16
 601 000c 9443     		lw	a3,0(a5)
 602 000e B7270240 		li	a5,1073881088
 603 0012 C107     		addi	a5,a5,16
 604 0014 2167     		li	a4,32768
 605 0016 558F     		or	a4,a3,a4
 606 0018 98C3     		sw	a4,0(a5)
 291:../Firmware/GD32VW55x_standard_peripheral/Source/gd32vw55x_fmc.c **** }
 607              		.loc 1 291 1
 608 001a 0100     		nop
 609 001c 3244     		lw	s0,12(sp)
 610              		.cfi_restore 8
 611              		.cfi_def_cfa 2, 16
 612 001e 4101     		addi	sp,sp,16
 613              		.cfi_def_cfa_offset 0
 614 0020 8280     		jr	ra
 615              		.cfi_endproc
 616              	.LFE358:
 618              		.section	.text.ob_security_protection_config,"ax",@progbits
 619              		.align	1
 620              		.globl	ob_security_protection_config
 622              	ob_security_protection_config:
 623              	.LFB359:
 292:../Firmware/GD32VW55x_standard_peripheral/Source/gd32vw55x_fmc.c **** 
 293:../Firmware/GD32VW55x_standard_peripheral/Source/gd32vw55x_fmc.c **** /*!
 294:../Firmware/GD32VW55x_standard_peripheral/Source/gd32vw55x_fmc.c ****     \brief      configure security protection
 295:../Firmware/GD32VW55x_standard_peripheral/Source/gd32vw55x_fmc.c ****                 programmer must ensure FMC & option bytes are both unlocked before calling this fun
 296:../Firmware/GD32VW55x_standard_peripheral/Source/gd32vw55x_fmc.c ****     \param[in]  ob_spc: specify security protection
 297:../Firmware/GD32VW55x_standard_peripheral/Source/gd32vw55x_fmc.c ****                 only one parameter can be selected which is shown as below:
 298:../Firmware/GD32VW55x_standard_peripheral/Source/gd32vw55x_fmc.c ****       \arg        FMC_NSPC: no security protection
 299:../Firmware/GD32VW55x_standard_peripheral/Source/gd32vw55x_fmc.c ****       \arg        FMC_SPC_P1: security protection level 1
 300:../Firmware/GD32VW55x_standard_peripheral/Source/gd32vw55x_fmc.c ****     \param[out] none
 301:../Firmware/GD32VW55x_standard_peripheral/Source/gd32vw55x_fmc.c ****     \retval     state of FMC
 302:../Firmware/GD32VW55x_standard_peripheral/Source/gd32vw55x_fmc.c ****       \arg        FMC_READY: the operation has been completed
 303:../Firmware/GD32VW55x_standard_peripheral/Source/gd32vw55x_fmc.c ****       \arg        FMC_WPERR: erase/program protection error
 304:../Firmware/GD32VW55x_standard_peripheral/Source/gd32vw55x_fmc.c ****       \arg        FMC_TOERR: timeout error
 305:../Firmware/GD32VW55x_standard_peripheral/Source/gd32vw55x_fmc.c **** */
 306:../Firmware/GD32VW55x_standard_peripheral/Source/gd32vw55x_fmc.c **** fmc_state_enum ob_security_protection_config(uint8_t ob_spc)
 307:../Firmware/GD32VW55x_standard_peripheral/Source/gd32vw55x_fmc.c **** {
 624              		.loc 1 307 1
 625              		.cfi_startproc
 626 0000 7971     		addi	sp,sp,-48
 627              		.cfi_def_cfa_offset 48
 628 0002 06D6     		sw	ra,44(sp)
 629 0004 22D4     		sw	s0,40(sp)
 630              		.cfi_offset 1, -4
 631              		.cfi_offset 8, -8
 632 0006 0018     		addi	s0,sp,48
 633              		.cfi_def_cfa 8, 0
 634 0008 AA87     		mv	a5,a0
 635 000a A30FF4FC 		sb	a5,-33(s0)
 308:../Firmware/GD32VW55x_standard_peripheral/Source/gd32vw55x_fmc.c ****     fmc_state_enum fmc_state = fmc_ready_wait(FMC_TIMEOUT_COUNT);
 636              		.loc 1 308 32
 637 000e 37050001 		li	a0,16777216
 638 0012 97000000 		call	fmc_ready_wait
 638      E7800000 
 639 001a 2326A4FE 		sw	a0,-20(s0)
 309:../Firmware/GD32VW55x_standard_peripheral/Source/gd32vw55x_fmc.c **** 
 310:../Firmware/GD32VW55x_standard_peripheral/Source/gd32vw55x_fmc.c ****     if(FMC_READY == fmc_state){
 640              		.loc 1 310 7
 641 001e 8327C4FE 		lw	a5,-20(s0)
 642 0022 A1EF     		bne	a5,zero,.L28
 311:../Firmware/GD32VW55x_standard_peripheral/Source/gd32vw55x_fmc.c ****         FMC_OBR &= FMC_OBR_SPC_MASK;
 643              		.loc 1 311 17
 644 0024 B7270240 		li	a5,1073881088
 645 0028 93870704 		addi	a5,a5,64
 646 002c 9843     		lw	a4,0(a5)
 647 002e B7270240 		li	a5,1073881088
 648 0032 93870704 		addi	a5,a5,64
 649 0036 137707F0 		andi	a4,a4,-256
 650 003a 98C3     		sw	a4,0(a5)
 312:../Firmware/GD32VW55x_standard_peripheral/Source/gd32vw55x_fmc.c ****         FMC_OBR |= ob_spc;
 651              		.loc 1 312 17
 652 003c B7270240 		li	a5,1073881088
 653 0040 93870704 		addi	a5,a5,64
 654 0044 9443     		lw	a3,0(a5)
 655 0046 0347F4FD 		lbu	a4,-33(s0)
 656 004a B7270240 		li	a5,1073881088
 657 004e 93870704 		addi	a5,a5,64
 658 0052 558F     		or	a4,a3,a4
 659 0054 98C3     		sw	a4,0(a5)
 313:../Firmware/GD32VW55x_standard_peripheral/Source/gd32vw55x_fmc.c ****         /* start option bytes modification */
 314:../Firmware/GD32VW55x_standard_peripheral/Source/gd32vw55x_fmc.c ****         FMC_CTL |= FMC_CTL_OBSTART;
 660              		.loc 1 314 17
 661 0056 B7270240 		li	a5,1073881088
 662 005a C107     		addi	a5,a5,16
 663 005c 9443     		lw	a3,0(a5)
 664 005e B7270240 		li	a5,1073881088
 665 0062 C107     		addi	a5,a5,16
 666 0064 1167     		li	a4,16384
 667 0066 558F     		or	a4,a3,a4
 668 0068 98C3     		sw	a4,0(a5)
 315:../Firmware/GD32VW55x_standard_peripheral/Source/gd32vw55x_fmc.c ****         /* wait for the FMC ready */
 316:../Firmware/GD32VW55x_standard_peripheral/Source/gd32vw55x_fmc.c ****         fmc_state = fmc_ready_wait(FMC_TIMEOUT_COUNT);
 669              		.loc 1 316 21
 670 006a 37050001 		li	a0,16777216
 671 006e 97000000 		call	fmc_ready_wait
 671      E7800000 
 672 0076 2326A4FE 		sw	a0,-20(s0)
 673              	.L28:
 317:../Firmware/GD32VW55x_standard_peripheral/Source/gd32vw55x_fmc.c ****     }
 318:../Firmware/GD32VW55x_standard_peripheral/Source/gd32vw55x_fmc.c **** 
 319:../Firmware/GD32VW55x_standard_peripheral/Source/gd32vw55x_fmc.c ****     /* return the FMC state */
 320:../Firmware/GD32VW55x_standard_peripheral/Source/gd32vw55x_fmc.c ****     return fmc_state;
 674              		.loc 1 320 12
 675 007a 8327C4FE 		lw	a5,-20(s0)
 321:../Firmware/GD32VW55x_standard_peripheral/Source/gd32vw55x_fmc.c **** }
 676              		.loc 1 321 1
 677 007e 3E85     		mv	a0,a5
 678 0080 B250     		lw	ra,44(sp)
 679              		.cfi_restore 1
 680 0082 2254     		lw	s0,40(sp)
 681              		.cfi_restore 8
 682              		.cfi_def_cfa 2, 48
 683 0084 4561     		addi	sp,sp,48
 684              		.cfi_def_cfa_offset 0
 685 0086 8280     		jr	ra
 686              		.cfi_endproc
 687              	.LFE359:
 689              		.section	.text.ob_user_write,"ax",@progbits
 690              		.align	1
 691              		.globl	ob_user_write
 693              	ob_user_write:
 694              	.LFB360:
 322:../Firmware/GD32VW55x_standard_peripheral/Source/gd32vw55x_fmc.c **** 
 323:../Firmware/GD32VW55x_standard_peripheral/Source/gd32vw55x_fmc.c **** /*!
 324:../Firmware/GD32VW55x_standard_peripheral/Source/gd32vw55x_fmc.c ****     \brief      program option bytes USER
 325:../Firmware/GD32VW55x_standard_peripheral/Source/gd32vw55x_fmc.c ****                 programmer must ensure FMC & option bytes are both unlocked before calling this fun
 326:../Firmware/GD32VW55x_standard_peripheral/Source/gd32vw55x_fmc.c ****     \param[in]  ob_user: option bytes user value
 327:../Firmware/GD32VW55x_standard_peripheral/Source/gd32vw55x_fmc.c ****     \param[out] none
 328:../Firmware/GD32VW55x_standard_peripheral/Source/gd32vw55x_fmc.c ****     \retval     state of FMC
 329:../Firmware/GD32VW55x_standard_peripheral/Source/gd32vw55x_fmc.c ****       \arg        FMC_READY: the operation has been completed
 330:../Firmware/GD32VW55x_standard_peripheral/Source/gd32vw55x_fmc.c ****       \arg        FMC_WPERR: erase/program protection error
 331:../Firmware/GD32VW55x_standard_peripheral/Source/gd32vw55x_fmc.c ****       \arg        FMC_TOERR: timeout error
 332:../Firmware/GD32VW55x_standard_peripheral/Source/gd32vw55x_fmc.c **** */
 333:../Firmware/GD32VW55x_standard_peripheral/Source/gd32vw55x_fmc.c **** fmc_state_enum ob_user_write(uint32_t ob_user)
 334:../Firmware/GD32VW55x_standard_peripheral/Source/gd32vw55x_fmc.c **** {
 695              		.loc 1 334 1
 696              		.cfi_startproc
 697 0000 7971     		addi	sp,sp,-48
 698              		.cfi_def_cfa_offset 48
 699 0002 06D6     		sw	ra,44(sp)
 700 0004 22D4     		sw	s0,40(sp)
 701              		.cfi_offset 1, -4
 702              		.cfi_offset 8, -8
 703 0006 0018     		addi	s0,sp,48
 704              		.cfi_def_cfa 8, 0
 705 0008 232EA4FC 		sw	a0,-36(s0)
 335:../Firmware/GD32VW55x_standard_peripheral/Source/gd32vw55x_fmc.c ****     fmc_state_enum fmc_state = fmc_ready_wait(FMC_TIMEOUT_COUNT);
 706              		.loc 1 335 32
 707 000c 37050001 		li	a0,16777216
 708 0010 97000000 		call	fmc_ready_wait
 708      E7800000 
 709 0018 2326A4FE 		sw	a0,-20(s0)
 336:../Firmware/GD32VW55x_standard_peripheral/Source/gd32vw55x_fmc.c **** 
 337:../Firmware/GD32VW55x_standard_peripheral/Source/gd32vw55x_fmc.c ****     if(FMC_READY == fmc_state){
 710              		.loc 1 337 7
 711 001c 8327C4FE 		lw	a5,-20(s0)
 712 0020 B9EB     		bne	a5,zero,.L31
 338:../Firmware/GD32VW55x_standard_peripheral/Source/gd32vw55x_fmc.c ****         FMC_OBUSER &= FMC_OBUSER_MASK;
 713              		.loc 1 338 20
 714 0022 B7270240 		li	a5,1073881088
 715 0026 93874704 		addi	a5,a5,68
 716 002a 9C43     		lw	a5,0(a5)
 717 002c B7270240 		li	a5,1073881088
 718 0030 93874704 		addi	a5,a5,68
 719 0034 23A00700 		sw	zero,0(a5)
 339:../Firmware/GD32VW55x_standard_peripheral/Source/gd32vw55x_fmc.c ****         FMC_OBUSER |= ob_user;
 720              		.loc 1 339 20
 721 0038 B7270240 		li	a5,1073881088
 722 003c 93874704 		addi	a5,a5,68
 723 0040 9443     		lw	a3,0(a5)
 724 0042 B7270240 		li	a5,1073881088
 725 0046 93874704 		addi	a5,a5,68
 726 004a 0327C4FD 		lw	a4,-36(s0)
 727 004e 558F     		or	a4,a3,a4
 728 0050 98C3     		sw	a4,0(a5)
 340:../Firmware/GD32VW55x_standard_peripheral/Source/gd32vw55x_fmc.c ****         /* start option bytes modification */
 341:../Firmware/GD32VW55x_standard_peripheral/Source/gd32vw55x_fmc.c ****         FMC_CTL |= FMC_CTL_OBSTART;
 729              		.loc 1 341 17
 730 0052 B7270240 		li	a5,1073881088
 731 0056 C107     		addi	a5,a5,16
 732 0058 9443     		lw	a3,0(a5)
 733 005a B7270240 		li	a5,1073881088
 734 005e C107     		addi	a5,a5,16
 735 0060 1167     		li	a4,16384
 736 0062 558F     		or	a4,a3,a4
 737 0064 98C3     		sw	a4,0(a5)
 342:../Firmware/GD32VW55x_standard_peripheral/Source/gd32vw55x_fmc.c ****         /* wait for the FMC ready */
 343:../Firmware/GD32VW55x_standard_peripheral/Source/gd32vw55x_fmc.c ****         fmc_state = fmc_ready_wait(FMC_TIMEOUT_COUNT);
 738              		.loc 1 343 21
 739 0066 37050001 		li	a0,16777216
 740 006a 97000000 		call	fmc_ready_wait
 740      E7800000 
 741 0072 2326A4FE 		sw	a0,-20(s0)
 742              	.L31:
 344:../Firmware/GD32VW55x_standard_peripheral/Source/gd32vw55x_fmc.c ****     }
 345:../Firmware/GD32VW55x_standard_peripheral/Source/gd32vw55x_fmc.c **** 
 346:../Firmware/GD32VW55x_standard_peripheral/Source/gd32vw55x_fmc.c ****     /* return the FMC state */
 347:../Firmware/GD32VW55x_standard_peripheral/Source/gd32vw55x_fmc.c ****     return fmc_state;
 743              		.loc 1 347 12
 744 0076 8327C4FE 		lw	a5,-20(s0)
 348:../Firmware/GD32VW55x_standard_peripheral/Source/gd32vw55x_fmc.c **** }
 745              		.loc 1 348 1
 746 007a 3E85     		mv	a0,a5
 747 007c B250     		lw	ra,44(sp)
 748              		.cfi_restore 1
 749 007e 2254     		lw	s0,40(sp)
 750              		.cfi_restore 8
 751              		.cfi_def_cfa 2, 48
 752 0080 4561     		addi	sp,sp,48
 753              		.cfi_def_cfa_offset 0
 754 0082 8280     		jr	ra
 755              		.cfi_endproc
 756              	.LFE360:
 758              		.section	.text.ob_write_protection_config,"ax",@progbits
 759              		.align	1
 760              		.globl	ob_write_protection_config
 762              	ob_write_protection_config:
 763              	.LFB361:
 349:../Firmware/GD32VW55x_standard_peripheral/Source/gd32vw55x_fmc.c **** 
 350:../Firmware/GD32VW55x_standard_peripheral/Source/gd32vw55x_fmc.c **** /*!
 351:../Firmware/GD32VW55x_standard_peripheral/Source/gd32vw55x_fmc.c ****     \brief      configure write protection pages
 352:../Firmware/GD32VW55x_standard_peripheral/Source/gd32vw55x_fmc.c ****     \param[in]  wrp_spage: start page of write protection area, 0~0x3FF
 353:../Firmware/GD32VW55x_standard_peripheral/Source/gd32vw55x_fmc.c ****     \param[in]  wrp_epage: end page of write protection area, 0~0x3FF
 354:../Firmware/GD32VW55x_standard_peripheral/Source/gd32vw55x_fmc.c ****     \param[in]  wrp_register_index
 355:../Firmware/GD32VW55x_standard_peripheral/Source/gd32vw55x_fmc.c ****                 only one parameter can be selected which are shown as below:
 356:../Firmware/GD32VW55x_standard_peripheral/Source/gd32vw55x_fmc.c ****       \arg        OBWRP_INDEX0: option byte write protection area register 0
 357:../Firmware/GD32VW55x_standard_peripheral/Source/gd32vw55x_fmc.c ****       \arg        OBWRP_INDEX1: option byte write protection area register 1
 358:../Firmware/GD32VW55x_standard_peripheral/Source/gd32vw55x_fmc.c ****     \param[out] none
 359:../Firmware/GD32VW55x_standard_peripheral/Source/gd32vw55x_fmc.c ****     \retval     state of FMC
 360:../Firmware/GD32VW55x_standard_peripheral/Source/gd32vw55x_fmc.c ****       \arg        FMC_READY: the operation has been completed
 361:../Firmware/GD32VW55x_standard_peripheral/Source/gd32vw55x_fmc.c ****       \arg        FMC_WPERR: erase/program protection error
 362:../Firmware/GD32VW55x_standard_peripheral/Source/gd32vw55x_fmc.c ****       \arg        FMC_TOERR: timeout error
 363:../Firmware/GD32VW55x_standard_peripheral/Source/gd32vw55x_fmc.c **** */
 364:../Firmware/GD32VW55x_standard_peripheral/Source/gd32vw55x_fmc.c **** fmc_state_enum ob_write_protection_config(uint32_t wrp_spage, uint32_t wrp_epage, uint32_t wrp_regi
 365:../Firmware/GD32VW55x_standard_peripheral/Source/gd32vw55x_fmc.c **** {
 764              		.loc 1 365 1
 765              		.cfi_startproc
 766 0000 7971     		addi	sp,sp,-48
 767              		.cfi_def_cfa_offset 48
 768 0002 06D6     		sw	ra,44(sp)
 769 0004 22D4     		sw	s0,40(sp)
 770              		.cfi_offset 1, -4
 771              		.cfi_offset 8, -8
 772 0006 0018     		addi	s0,sp,48
 773              		.cfi_def_cfa 8, 0
 774 0008 232EA4FC 		sw	a0,-36(s0)
 775 000c 232CB4FC 		sw	a1,-40(s0)
 776 0010 232AC4FC 		sw	a2,-44(s0)
 366:../Firmware/GD32VW55x_standard_peripheral/Source/gd32vw55x_fmc.c ****     fmc_state_enum fmc_state = fmc_ready_wait(FMC_TIMEOUT_COUNT);
 777              		.loc 1 366 32
 778 0014 37050001 		li	a0,16777216
 779 0018 97000000 		call	fmc_ready_wait
 779      E7800000 
 780 0020 2326A4FE 		sw	a0,-20(s0)
 367:../Firmware/GD32VW55x_standard_peripheral/Source/gd32vw55x_fmc.c **** 
 368:../Firmware/GD32VW55x_standard_peripheral/Source/gd32vw55x_fmc.c ****     if(FMC_READY == fmc_state){
 781              		.loc 1 368 7
 782 0024 8327C4FE 		lw	a5,-20(s0)
 783 0028 F1E3     		bne	a5,zero,.L34
 369:../Firmware/GD32VW55x_standard_peripheral/Source/gd32vw55x_fmc.c ****         switch(wrp_register_index){
 784              		.loc 1 369 9
 785 002a 832744FD 		lw	a5,-44(s0)
 786 002e 99C7     		beq	a5,zero,.L35
 787 0030 032744FD 		lw	a4,-44(s0)
 788 0034 8547     		li	a5,1
 789 0036 6306F704 		beq	a4,a5,.L36
 370:../Firmware/GD32VW55x_standard_peripheral/Source/gd32vw55x_fmc.c ****         case OBWRP_INDEX0:
 371:../Firmware/GD32VW55x_standard_peripheral/Source/gd32vw55x_fmc.c ****             FMC_OBWRP0 = 0U;
 372:../Firmware/GD32VW55x_standard_peripheral/Source/gd32vw55x_fmc.c ****             FMC_OBWRP0 |= wrp_spage;
 373:../Firmware/GD32VW55x_standard_peripheral/Source/gd32vw55x_fmc.c ****             FMC_OBWRP0 |= wrp_epage << FMC_EPAGE_OFFSET;
 374:../Firmware/GD32VW55x_standard_peripheral/Source/gd32vw55x_fmc.c ****             break;
 375:../Firmware/GD32VW55x_standard_peripheral/Source/gd32vw55x_fmc.c ****         case OBWRP_INDEX1:
 376:../Firmware/GD32VW55x_standard_peripheral/Source/gd32vw55x_fmc.c ****             FMC_OBWRP1 = 0U;
 377:../Firmware/GD32VW55x_standard_peripheral/Source/gd32vw55x_fmc.c ****             FMC_OBWRP1 |= wrp_spage;
 378:../Firmware/GD32VW55x_standard_peripheral/Source/gd32vw55x_fmc.c ****             FMC_OBWRP1 |= wrp_epage << FMC_EPAGE_OFFSET;
 379:../Firmware/GD32VW55x_standard_peripheral/Source/gd32vw55x_fmc.c ****             break;
 380:../Firmware/GD32VW55x_standard_peripheral/Source/gd32vw55x_fmc.c ****         default:
 381:../Firmware/GD32VW55x_standard_peripheral/Source/gd32vw55x_fmc.c ****             break;
 790              		.loc 1 381 13
 791 003a 79A0     		j	.L38
 792              	.L35:
 371:../Firmware/GD32VW55x_standard_peripheral/Source/gd32vw55x_fmc.c ****             FMC_OBWRP0 |= wrp_spage;
 793              		.loc 1 371 13
 794 003c B7270240 		li	a5,1073881088
 795 0040 93878704 		addi	a5,a5,72
 371:../Firmware/GD32VW55x_standard_peripheral/Source/gd32vw55x_fmc.c ****             FMC_OBWRP0 |= wrp_spage;
 796              		.loc 1 371 24
 797 0044 23A00700 		sw	zero,0(a5)
 372:../Firmware/GD32VW55x_standard_peripheral/Source/gd32vw55x_fmc.c ****             FMC_OBWRP0 |= wrp_epage << FMC_EPAGE_OFFSET;
 798              		.loc 1 372 24
 799 0048 B7270240 		li	a5,1073881088
 800 004c 93878704 		addi	a5,a5,72
 801 0050 9443     		lw	a3,0(a5)
 802 0052 B7270240 		li	a5,1073881088
 803 0056 93878704 		addi	a5,a5,72
 804 005a 0327C4FD 		lw	a4,-36(s0)
 805 005e 558F     		or	a4,a3,a4
 806 0060 98C3     		sw	a4,0(a5)
 373:../Firmware/GD32VW55x_standard_peripheral/Source/gd32vw55x_fmc.c ****             break;
 807              		.loc 1 373 24
 808 0062 B7270240 		li	a5,1073881088
 809 0066 93878704 		addi	a5,a5,72
 810 006a 9443     		lw	a3,0(a5)
 373:../Firmware/GD32VW55x_standard_peripheral/Source/gd32vw55x_fmc.c ****             break;
 811              		.loc 1 373 37
 812 006c 832784FD 		lw	a5,-40(s0)
 813 0070 13970701 		slli	a4,a5,16
 373:../Firmware/GD32VW55x_standard_peripheral/Source/gd32vw55x_fmc.c ****             break;
 814              		.loc 1 373 24
 815 0074 B7270240 		li	a5,1073881088
 816 0078 93878704 		addi	a5,a5,72
 817 007c 558F     		or	a4,a3,a4
 818 007e 98C3     		sw	a4,0(a5)
 374:../Firmware/GD32VW55x_standard_peripheral/Source/gd32vw55x_fmc.c ****         case OBWRP_INDEX1:
 819              		.loc 1 374 13
 820 0080 A1A0     		j	.L38
 821              	.L36:
 376:../Firmware/GD32VW55x_standard_peripheral/Source/gd32vw55x_fmc.c ****             FMC_OBWRP1 |= wrp_spage;
 822              		.loc 1 376 13
 823 0082 B7270240 		li	a5,1073881088
 824 0086 9387C704 		addi	a5,a5,76
 376:../Firmware/GD32VW55x_standard_peripheral/Source/gd32vw55x_fmc.c ****             FMC_OBWRP1 |= wrp_spage;
 825              		.loc 1 376 24
 826 008a 23A00700 		sw	zero,0(a5)
 377:../Firmware/GD32VW55x_standard_peripheral/Source/gd32vw55x_fmc.c ****             FMC_OBWRP1 |= wrp_epage << FMC_EPAGE_OFFSET;
 827              		.loc 1 377 24
 828 008e B7270240 		li	a5,1073881088
 829 0092 9387C704 		addi	a5,a5,76
 830 0096 9443     		lw	a3,0(a5)
 831 0098 B7270240 		li	a5,1073881088
 832 009c 9387C704 		addi	a5,a5,76
 833 00a0 0327C4FD 		lw	a4,-36(s0)
 834 00a4 558F     		or	a4,a3,a4
 835 00a6 98C3     		sw	a4,0(a5)
 378:../Firmware/GD32VW55x_standard_peripheral/Source/gd32vw55x_fmc.c ****             break;
 836              		.loc 1 378 24
 837 00a8 B7270240 		li	a5,1073881088
 838 00ac 9387C704 		addi	a5,a5,76
 839 00b0 9443     		lw	a3,0(a5)
 378:../Firmware/GD32VW55x_standard_peripheral/Source/gd32vw55x_fmc.c ****             break;
 840              		.loc 1 378 37
 841 00b2 832784FD 		lw	a5,-40(s0)
 842 00b6 13970701 		slli	a4,a5,16
 378:../Firmware/GD32VW55x_standard_peripheral/Source/gd32vw55x_fmc.c ****             break;
 843              		.loc 1 378 24
 844 00ba B7270240 		li	a5,1073881088
 845 00be 9387C704 		addi	a5,a5,76
 846 00c2 558F     		or	a4,a3,a4
 847 00c4 98C3     		sw	a4,0(a5)
 379:../Firmware/GD32VW55x_standard_peripheral/Source/gd32vw55x_fmc.c ****         default:
 848              		.loc 1 379 13
 849 00c6 0100     		nop
 850              	.L38:
 382:../Firmware/GD32VW55x_standard_peripheral/Source/gd32vw55x_fmc.c ****         }
 383:../Firmware/GD32VW55x_standard_peripheral/Source/gd32vw55x_fmc.c ****         /* start option bytes modification */
 384:../Firmware/GD32VW55x_standard_peripheral/Source/gd32vw55x_fmc.c ****         FMC_CTL |= FMC_CTL_OBSTART;
 851              		.loc 1 384 17
 852 00c8 B7270240 		li	a5,1073881088
 853 00cc C107     		addi	a5,a5,16
 854 00ce 9443     		lw	a3,0(a5)
 855 00d0 B7270240 		li	a5,1073881088
 856 00d4 C107     		addi	a5,a5,16
 857 00d6 1167     		li	a4,16384
 858 00d8 558F     		or	a4,a3,a4
 859 00da 98C3     		sw	a4,0(a5)
 385:../Firmware/GD32VW55x_standard_peripheral/Source/gd32vw55x_fmc.c ****         /* wait for the FMC ready */
 386:../Firmware/GD32VW55x_standard_peripheral/Source/gd32vw55x_fmc.c ****         fmc_state = fmc_ready_wait(FMC_TIMEOUT_COUNT);
 860              		.loc 1 386 21
 861 00dc 37050001 		li	a0,16777216
 862 00e0 97000000 		call	fmc_ready_wait
 862      E7800000 
 863 00e8 2326A4FE 		sw	a0,-20(s0)
 864              	.L34:
 387:../Firmware/GD32VW55x_standard_peripheral/Source/gd32vw55x_fmc.c ****     }
 388:../Firmware/GD32VW55x_standard_peripheral/Source/gd32vw55x_fmc.c ****     /* return the FMC state */
 389:../Firmware/GD32VW55x_standard_peripheral/Source/gd32vw55x_fmc.c ****     return fmc_state;
 865              		.loc 1 389 12
 866 00ec 8327C4FE 		lw	a5,-20(s0)
 390:../Firmware/GD32VW55x_standard_peripheral/Source/gd32vw55x_fmc.c **** }
 867              		.loc 1 390 1
 868 00f0 3E85     		mv	a0,a5
 869 00f2 B250     		lw	ra,44(sp)
 870              		.cfi_restore 1
 871 00f4 2254     		lw	s0,40(sp)
 872              		.cfi_restore 8
 873              		.cfi_def_cfa 2, 48
 874 00f6 4561     		addi	sp,sp,48
 875              		.cfi_def_cfa_offset 0
 876 00f8 8280     		jr	ra
 877              		.cfi_endproc
 878              	.LFE361:
 880              		.section	.text.fmc_no_rtdec_config,"ax",@progbits
 881              		.align	1
 882              		.globl	fmc_no_rtdec_config
 884              	fmc_no_rtdec_config:
 885              	.LFB362:
 391:../Firmware/GD32VW55x_standard_peripheral/Source/gd32vw55x_fmc.c **** 
 392:../Firmware/GD32VW55x_standard_peripheral/Source/gd32vw55x_fmc.c **** /*!
 393:../Firmware/GD32VW55x_standard_peripheral/Source/gd32vw55x_fmc.c ****     \brief      configure NO-RTDEC pages
 394:../Firmware/GD32VW55x_standard_peripheral/Source/gd32vw55x_fmc.c ****     \param[in]  nodec_spage: start page of NO-RTDEC area, 0~0x03FF
 395:../Firmware/GD32VW55x_standard_peripheral/Source/gd32vw55x_fmc.c ****     \param[in]  nodec_epage: end page of NO-RTDEC area, 0~0x03FF
 396:../Firmware/GD32VW55x_standard_peripheral/Source/gd32vw55x_fmc.c ****     \param[in]  nodec_register_index
 397:../Firmware/GD32VW55x_standard_peripheral/Source/gd32vw55x_fmc.c ****                 only one parameter can be selected which are shown as below:
 398:../Firmware/GD32VW55x_standard_peripheral/Source/gd32vw55x_fmc.c ****       \arg        NODEC_INDEX0: NO-RTDEC region register 0
 399:../Firmware/GD32VW55x_standard_peripheral/Source/gd32vw55x_fmc.c ****       \arg        NODEC_INDEX1: NO-RTDEC region register 1
 400:../Firmware/GD32VW55x_standard_peripheral/Source/gd32vw55x_fmc.c ****       \arg        NODEC_INDEX2: NO-RTDEC region register 2
 401:../Firmware/GD32VW55x_standard_peripheral/Source/gd32vw55x_fmc.c ****       \arg        NODEC_INDEX3: NO-RTDEC region register 3
 402:../Firmware/GD32VW55x_standard_peripheral/Source/gd32vw55x_fmc.c ****     \param[out] none
 403:../Firmware/GD32VW55x_standard_peripheral/Source/gd32vw55x_fmc.c ****     \retval     none
 404:../Firmware/GD32VW55x_standard_peripheral/Source/gd32vw55x_fmc.c **** */
 405:../Firmware/GD32VW55x_standard_peripheral/Source/gd32vw55x_fmc.c **** void fmc_no_rtdec_config(uint32_t nodec_spage, uint32_t nodec_epage, uint32_t nodec_register_index)
 406:../Firmware/GD32VW55x_standard_peripheral/Source/gd32vw55x_fmc.c **** {
 886              		.loc 1 406 1
 887              		.cfi_startproc
 888 0000 0111     		addi	sp,sp,-32
 889              		.cfi_def_cfa_offset 32
 890 0002 22CE     		sw	s0,28(sp)
 891              		.cfi_offset 8, -4
 892 0004 0010     		addi	s0,sp,32
 893              		.cfi_def_cfa 8, 0
 894 0006 2326A4FE 		sw	a0,-20(s0)
 895 000a 2324B4FE 		sw	a1,-24(s0)
 896 000e 2322C4FE 		sw	a2,-28(s0)
 407:../Firmware/GD32VW55x_standard_peripheral/Source/gd32vw55x_fmc.c ****     switch(nodec_register_index){
 897              		.loc 1 407 5
 898 0012 032744FE 		lw	a4,-28(s0)
 899 0016 8D47     		li	a5,3
 900 0018 6303F710 		beq	a4,a5,.L41
 901 001c 032744FE 		lw	a4,-28(s0)
 902 0020 8D47     		li	a5,3
 903 0022 63E1E714 		bgtu	a4,a5,.L47
 904 0026 032744FE 		lw	a4,-28(s0)
 905 002a 8947     		li	a5,2
 906 002c 6306F70A 		beq	a4,a5,.L43
 907 0030 032744FE 		lw	a4,-28(s0)
 908 0034 8947     		li	a5,2
 909 0036 63E7E712 		bgtu	a4,a5,.L47
 910 003a 832744FE 		lw	a5,-28(s0)
 911 003e 99C7     		beq	a5,zero,.L44
 912 0040 032744FE 		lw	a4,-28(s0)
 913 0044 8547     		li	a5,1
 914 0046 6306F704 		beq	a4,a5,.L45
 408:../Firmware/GD32VW55x_standard_peripheral/Source/gd32vw55x_fmc.c ****     case NODEC_INDEX0:
 409:../Firmware/GD32VW55x_standard_peripheral/Source/gd32vw55x_fmc.c ****         FMC_NODEC0 = 0U;
 410:../Firmware/GD32VW55x_standard_peripheral/Source/gd32vw55x_fmc.c ****         FMC_NODEC0 |= nodec_spage;
 411:../Firmware/GD32VW55x_standard_peripheral/Source/gd32vw55x_fmc.c ****         FMC_NODEC0 |= nodec_epage << FMC_EPAGE_OFFSET;
 412:../Firmware/GD32VW55x_standard_peripheral/Source/gd32vw55x_fmc.c ****         break;
 413:../Firmware/GD32VW55x_standard_peripheral/Source/gd32vw55x_fmc.c ****     case NODEC_INDEX1:
 414:../Firmware/GD32VW55x_standard_peripheral/Source/gd32vw55x_fmc.c ****         FMC_NODEC1 = 0U;
 415:../Firmware/GD32VW55x_standard_peripheral/Source/gd32vw55x_fmc.c ****         FMC_NODEC1 |= nodec_spage;
 416:../Firmware/GD32VW55x_standard_peripheral/Source/gd32vw55x_fmc.c ****         FMC_NODEC1 |= nodec_epage << FMC_EPAGE_OFFSET;
 417:../Firmware/GD32VW55x_standard_peripheral/Source/gd32vw55x_fmc.c ****         break;
 418:../Firmware/GD32VW55x_standard_peripheral/Source/gd32vw55x_fmc.c ****     case NODEC_INDEX2:
 419:../Firmware/GD32VW55x_standard_peripheral/Source/gd32vw55x_fmc.c ****         FMC_NODEC2 = 0U;
 420:../Firmware/GD32VW55x_standard_peripheral/Source/gd32vw55x_fmc.c ****         FMC_NODEC2 |= nodec_spage;
 421:../Firmware/GD32VW55x_standard_peripheral/Source/gd32vw55x_fmc.c ****         FMC_NODEC2 |= nodec_epage << FMC_EPAGE_OFFSET;
 422:../Firmware/GD32VW55x_standard_peripheral/Source/gd32vw55x_fmc.c ****         break;
 423:../Firmware/GD32VW55x_standard_peripheral/Source/gd32vw55x_fmc.c ****     case NODEC_INDEX3:
 424:../Firmware/GD32VW55x_standard_peripheral/Source/gd32vw55x_fmc.c ****         FMC_NODEC3 = 0U;
 425:../Firmware/GD32VW55x_standard_peripheral/Source/gd32vw55x_fmc.c ****         FMC_NODEC3 |= nodec_spage;
 426:../Firmware/GD32VW55x_standard_peripheral/Source/gd32vw55x_fmc.c ****         FMC_NODEC3 |= nodec_epage << FMC_EPAGE_OFFSET;
 427:../Firmware/GD32VW55x_standard_peripheral/Source/gd32vw55x_fmc.c ****         break;
 428:../Firmware/GD32VW55x_standard_peripheral/Source/gd32vw55x_fmc.c ****     default:
 429:../Firmware/GD32VW55x_standard_peripheral/Source/gd32vw55x_fmc.c ****         break;
 915              		.loc 1 429 9
 916 004a 29AA     		j	.L47
 917              	.L44:
 409:../Firmware/GD32VW55x_standard_peripheral/Source/gd32vw55x_fmc.c ****         FMC_NODEC0 |= nodec_spage;
 918              		.loc 1 409 9
 919 004c B7270240 		li	a5,1073881088
 920 0050 93870707 		addi	a5,a5,112
 409:../Firmware/GD32VW55x_standard_peripheral/Source/gd32vw55x_fmc.c ****         FMC_NODEC0 |= nodec_spage;
 921              		.loc 1 409 20
 922 0054 23A00700 		sw	zero,0(a5)
 410:../Firmware/GD32VW55x_standard_peripheral/Source/gd32vw55x_fmc.c ****         FMC_NODEC0 |= nodec_epage << FMC_EPAGE_OFFSET;
 923              		.loc 1 410 20
 924 0058 B7270240 		li	a5,1073881088
 925 005c 93870707 		addi	a5,a5,112
 926 0060 9443     		lw	a3,0(a5)
 927 0062 B7270240 		li	a5,1073881088
 928 0066 93870707 		addi	a5,a5,112
 929 006a 0327C4FE 		lw	a4,-20(s0)
 930 006e 558F     		or	a4,a3,a4
 931 0070 98C3     		sw	a4,0(a5)
 411:../Firmware/GD32VW55x_standard_peripheral/Source/gd32vw55x_fmc.c ****         break;
 932              		.loc 1 411 20
 933 0072 B7270240 		li	a5,1073881088
 934 0076 93870707 		addi	a5,a5,112
 935 007a 9443     		lw	a3,0(a5)
 411:../Firmware/GD32VW55x_standard_peripheral/Source/gd32vw55x_fmc.c ****         break;
 936              		.loc 1 411 35
 937 007c 832784FE 		lw	a5,-24(s0)
 938 0080 13970701 		slli	a4,a5,16
 411:../Firmware/GD32VW55x_standard_peripheral/Source/gd32vw55x_fmc.c ****         break;
 939              		.loc 1 411 20
 940 0084 B7270240 		li	a5,1073881088
 941 0088 93870707 		addi	a5,a5,112
 942 008c 558F     		or	a4,a3,a4
 943 008e 98C3     		sw	a4,0(a5)
 412:../Firmware/GD32VW55x_standard_peripheral/Source/gd32vw55x_fmc.c ****     case NODEC_INDEX1:
 944              		.loc 1 412 9
 945 0090 D9A8     		j	.L46
 946              	.L45:
 414:../Firmware/GD32VW55x_standard_peripheral/Source/gd32vw55x_fmc.c ****         FMC_NODEC1 |= nodec_spage;
 947              		.loc 1 414 9
 948 0092 B7270240 		li	a5,1073881088
 949 0096 93874707 		addi	a5,a5,116
 414:../Firmware/GD32VW55x_standard_peripheral/Source/gd32vw55x_fmc.c ****         FMC_NODEC1 |= nodec_spage;
 950              		.loc 1 414 20
 951 009a 23A00700 		sw	zero,0(a5)
 415:../Firmware/GD32VW55x_standard_peripheral/Source/gd32vw55x_fmc.c ****         FMC_NODEC1 |= nodec_epage << FMC_EPAGE_OFFSET;
 952              		.loc 1 415 20
 953 009e B7270240 		li	a5,1073881088
 954 00a2 93874707 		addi	a5,a5,116
 955 00a6 9443     		lw	a3,0(a5)
 956 00a8 B7270240 		li	a5,1073881088
 957 00ac 93874707 		addi	a5,a5,116
 958 00b0 0327C4FE 		lw	a4,-20(s0)
 959 00b4 558F     		or	a4,a3,a4
 960 00b6 98C3     		sw	a4,0(a5)
 416:../Firmware/GD32VW55x_standard_peripheral/Source/gd32vw55x_fmc.c ****         break;
 961              		.loc 1 416 20
 962 00b8 B7270240 		li	a5,1073881088
 963 00bc 93874707 		addi	a5,a5,116
 964 00c0 9443     		lw	a3,0(a5)
 416:../Firmware/GD32VW55x_standard_peripheral/Source/gd32vw55x_fmc.c ****         break;
 965              		.loc 1 416 35
 966 00c2 832784FE 		lw	a5,-24(s0)
 967 00c6 13970701 		slli	a4,a5,16
 416:../Firmware/GD32VW55x_standard_peripheral/Source/gd32vw55x_fmc.c ****         break;
 968              		.loc 1 416 20
 969 00ca B7270240 		li	a5,1073881088
 970 00ce 93874707 		addi	a5,a5,116
 971 00d2 558F     		or	a4,a3,a4
 972 00d4 98C3     		sw	a4,0(a5)
 417:../Firmware/GD32VW55x_standard_peripheral/Source/gd32vw55x_fmc.c ****     case NODEC_INDEX2:
 973              		.loc 1 417 9
 974 00d6 41A8     		j	.L46
 975              	.L43:
 419:../Firmware/GD32VW55x_standard_peripheral/Source/gd32vw55x_fmc.c ****         FMC_NODEC2 |= nodec_spage;
 976              		.loc 1 419 9
 977 00d8 B7270240 		li	a5,1073881088
 978 00dc 93878707 		addi	a5,a5,120
 419:../Firmware/GD32VW55x_standard_peripheral/Source/gd32vw55x_fmc.c ****         FMC_NODEC2 |= nodec_spage;
 979              		.loc 1 419 20
 980 00e0 23A00700 		sw	zero,0(a5)
 420:../Firmware/GD32VW55x_standard_peripheral/Source/gd32vw55x_fmc.c ****         FMC_NODEC2 |= nodec_epage << FMC_EPAGE_OFFSET;
 981              		.loc 1 420 20
 982 00e4 B7270240 		li	a5,1073881088
 983 00e8 93878707 		addi	a5,a5,120
 984 00ec 9443     		lw	a3,0(a5)
 985 00ee B7270240 		li	a5,1073881088
 986 00f2 93878707 		addi	a5,a5,120
 987 00f6 0327C4FE 		lw	a4,-20(s0)
 988 00fa 558F     		or	a4,a3,a4
 989 00fc 98C3     		sw	a4,0(a5)
 421:../Firmware/GD32VW55x_standard_peripheral/Source/gd32vw55x_fmc.c ****         break;
 990              		.loc 1 421 20
 991 00fe B7270240 		li	a5,1073881088
 992 0102 93878707 		addi	a5,a5,120
 993 0106 9443     		lw	a3,0(a5)
 421:../Firmware/GD32VW55x_standard_peripheral/Source/gd32vw55x_fmc.c ****         break;
 994              		.loc 1 421 35
 995 0108 832784FE 		lw	a5,-24(s0)
 996 010c 13970701 		slli	a4,a5,16
 421:../Firmware/GD32VW55x_standard_peripheral/Source/gd32vw55x_fmc.c ****         break;
 997              		.loc 1 421 20
 998 0110 B7270240 		li	a5,1073881088
 999 0114 93878707 		addi	a5,a5,120
 1000 0118 558F     		or	a4,a3,a4
 1001 011a 98C3     		sw	a4,0(a5)
 422:../Firmware/GD32VW55x_standard_peripheral/Source/gd32vw55x_fmc.c ****     case NODEC_INDEX3:
 1002              		.loc 1 422 9
 1003 011c A9A0     		j	.L46
 1004              	.L41:
 424:../Firmware/GD32VW55x_standard_peripheral/Source/gd32vw55x_fmc.c ****         FMC_NODEC3 |= nodec_spage;
 1005              		.loc 1 424 9
 1006 011e B7270240 		li	a5,1073881088
 1007 0122 9387C707 		addi	a5,a5,124
 424:../Firmware/GD32VW55x_standard_peripheral/Source/gd32vw55x_fmc.c ****         FMC_NODEC3 |= nodec_spage;
 1008              		.loc 1 424 20
 1009 0126 23A00700 		sw	zero,0(a5)
 425:../Firmware/GD32VW55x_standard_peripheral/Source/gd32vw55x_fmc.c ****         FMC_NODEC3 |= nodec_epage << FMC_EPAGE_OFFSET;
 1010              		.loc 1 425 20
 1011 012a B7270240 		li	a5,1073881088
 1012 012e 9387C707 		addi	a5,a5,124
 1013 0132 9443     		lw	a3,0(a5)
 1014 0134 B7270240 		li	a5,1073881088
 1015 0138 9387C707 		addi	a5,a5,124
 1016 013c 0327C4FE 		lw	a4,-20(s0)
 1017 0140 558F     		or	a4,a3,a4
 1018 0142 98C3     		sw	a4,0(a5)
 426:../Firmware/GD32VW55x_standard_peripheral/Source/gd32vw55x_fmc.c ****         break;
 1019              		.loc 1 426 20
 1020 0144 B7270240 		li	a5,1073881088
 1021 0148 9387C707 		addi	a5,a5,124
 1022 014c 9443     		lw	a3,0(a5)
 426:../Firmware/GD32VW55x_standard_peripheral/Source/gd32vw55x_fmc.c ****         break;
 1023              		.loc 1 426 35
 1024 014e 832784FE 		lw	a5,-24(s0)
 1025 0152 13970701 		slli	a4,a5,16
 426:../Firmware/GD32VW55x_standard_peripheral/Source/gd32vw55x_fmc.c ****         break;
 1026              		.loc 1 426 20
 1027 0156 B7270240 		li	a5,1073881088
 1028 015a 9387C707 		addi	a5,a5,124
 1029 015e 558F     		or	a4,a3,a4
 1030 0160 98C3     		sw	a4,0(a5)
 427:../Firmware/GD32VW55x_standard_peripheral/Source/gd32vw55x_fmc.c ****     default:
 1031              		.loc 1 427 9
 1032 0162 11A0     		j	.L46
 1033              	.L47:
 1034              		.loc 1 429 9
 1035 0164 0100     		nop
 1036              	.L46:
 430:../Firmware/GD32VW55x_standard_peripheral/Source/gd32vw55x_fmc.c ****     }
 431:../Firmware/GD32VW55x_standard_peripheral/Source/gd32vw55x_fmc.c **** }
 1037              		.loc 1 431 1
 1038 0166 0100     		nop
 1039 0168 7244     		lw	s0,28(sp)
 1040              		.cfi_restore 8
 1041              		.cfi_def_cfa 2, 32
 1042 016a 0561     		addi	sp,sp,32
 1043              		.cfi_def_cfa_offset 0
 1044 016c 8280     		jr	ra
 1045              		.cfi_endproc
 1046              	.LFE362:
 1048              		.section	.text.fmc_offset_region_config,"ax",@progbits
 1049              		.align	1
 1050              		.globl	fmc_offset_region_config
 1052              	fmc_offset_region_config:
 1053              	.LFB363:
 432:../Firmware/GD32VW55x_standard_peripheral/Source/gd32vw55x_fmc.c **** 
 433:../Firmware/GD32VW55x_standard_peripheral/Source/gd32vw55x_fmc.c **** /*!
 434:../Firmware/GD32VW55x_standard_peripheral/Source/gd32vw55x_fmc.c ****     \brief      configure offset region
 435:../Firmware/GD32VW55x_standard_peripheral/Source/gd32vw55x_fmc.c ****     \param[in]  of_spage: start page of offset region, 0~0x1FFF
 436:../Firmware/GD32VW55x_standard_peripheral/Source/gd32vw55x_fmc.c ****     \param[in]  of_epage: end page of offset region, 0~0x1FFF
 437:../Firmware/GD32VW55x_standard_peripheral/Source/gd32vw55x_fmc.c ****     \param[out] none
 438:../Firmware/GD32VW55x_standard_peripheral/Source/gd32vw55x_fmc.c ****     \retval     none
 439:../Firmware/GD32VW55x_standard_peripheral/Source/gd32vw55x_fmc.c **** */
 440:../Firmware/GD32VW55x_standard_peripheral/Source/gd32vw55x_fmc.c **** void fmc_offset_region_config(uint32_t of_spage, uint32_t of_epage)
 441:../Firmware/GD32VW55x_standard_peripheral/Source/gd32vw55x_fmc.c **** {
 1054              		.loc 1 441 1
 1055              		.cfi_startproc
 1056 0000 0111     		addi	sp,sp,-32
 1057              		.cfi_def_cfa_offset 32
 1058 0002 22CE     		sw	s0,28(sp)
 1059              		.cfi_offset 8, -4
 1060 0004 0010     		addi	s0,sp,32
 1061              		.cfi_def_cfa 8, 0
 1062 0006 2326A4FE 		sw	a0,-20(s0)
 1063 000a 2324B4FE 		sw	a1,-24(s0)
 442:../Firmware/GD32VW55x_standard_peripheral/Source/gd32vw55x_fmc.c ****     FMC_OFRG = 0U;
 1064              		.loc 1 442 5
 1065 000e B7270240 		li	a5,1073881088
 1066 0012 93870708 		addi	a5,a5,128
 1067              		.loc 1 442 14
 1068 0016 23A00700 		sw	zero,0(a5)
 443:../Firmware/GD32VW55x_standard_peripheral/Source/gd32vw55x_fmc.c ****     FMC_OFRG |= (uint32_t) (of_spage);
 1069              		.loc 1 443 14
 1070 001a B7270240 		li	a5,1073881088
 1071 001e 93870708 		addi	a5,a5,128
 1072 0022 9443     		lw	a3,0(a5)
 1073 0024 B7270240 		li	a5,1073881088
 1074 0028 93870708 		addi	a5,a5,128
 1075 002c 0327C4FE 		lw	a4,-20(s0)
 1076 0030 558F     		or	a4,a3,a4
 1077 0032 98C3     		sw	a4,0(a5)
 444:../Firmware/GD32VW55x_standard_peripheral/Source/gd32vw55x_fmc.c ****     FMC_OFRG |= (uint32_t) (of_epage << FMC_EPAGE_OFFSET);
 1078              		.loc 1 444 14
 1079 0034 B7270240 		li	a5,1073881088
 1080 0038 93870708 		addi	a5,a5,128
 1081 003c 9443     		lw	a3,0(a5)
 1082              		.loc 1 444 38
 1083 003e 832784FE 		lw	a5,-24(s0)
 1084 0042 13970701 		slli	a4,a5,16
 1085              		.loc 1 444 14
 1086 0046 B7270240 		li	a5,1073881088
 1087 004a 93870708 		addi	a5,a5,128
 1088 004e 558F     		or	a4,a3,a4
 1089 0050 98C3     		sw	a4,0(a5)
 445:../Firmware/GD32VW55x_standard_peripheral/Source/gd32vw55x_fmc.c **** }
 1090              		.loc 1 445 1
 1091 0052 0100     		nop
 1092 0054 7244     		lw	s0,28(sp)
 1093              		.cfi_restore 8
 1094              		.cfi_def_cfa 2, 32
 1095 0056 0561     		addi	sp,sp,32
 1096              		.cfi_def_cfa_offset 0
 1097 0058 8280     		jr	ra
 1098              		.cfi_endproc
 1099              	.LFE363:
 1101              		.section	.text.fmc_offset_value_config,"ax",@progbits
 1102              		.align	1
 1103              		.globl	fmc_offset_value_config
 1105              	fmc_offset_value_config:
 1106              	.LFB364:
 446:../Firmware/GD32VW55x_standard_peripheral/Source/gd32vw55x_fmc.c **** 
 447:../Firmware/GD32VW55x_standard_peripheral/Source/gd32vw55x_fmc.c **** /*!
 448:../Firmware/GD32VW55x_standard_peripheral/Source/gd32vw55x_fmc.c ****     \brief      configure offset value
 449:../Firmware/GD32VW55x_standard_peripheral/Source/gd32vw55x_fmc.c ****     \param[in]  of_value: offset value, 0~0x1FFF
 450:../Firmware/GD32VW55x_standard_peripheral/Source/gd32vw55x_fmc.c ****     \param[out] none
 451:../Firmware/GD32VW55x_standard_peripheral/Source/gd32vw55x_fmc.c ****     \retval     none
 452:../Firmware/GD32VW55x_standard_peripheral/Source/gd32vw55x_fmc.c **** */
 453:../Firmware/GD32VW55x_standard_peripheral/Source/gd32vw55x_fmc.c **** void fmc_offset_value_config(uint32_t of_value)
 454:../Firmware/GD32VW55x_standard_peripheral/Source/gd32vw55x_fmc.c **** {
 1107              		.loc 1 454 1
 1108              		.cfi_startproc
 1109 0000 0111     		addi	sp,sp,-32
 1110              		.cfi_def_cfa_offset 32
 1111 0002 22CE     		sw	s0,28(sp)
 1112              		.cfi_offset 8, -4
 1113 0004 0010     		addi	s0,sp,32
 1114              		.cfi_def_cfa 8, 0
 1115 0006 2326A4FE 		sw	a0,-20(s0)
 455:../Firmware/GD32VW55x_standard_peripheral/Source/gd32vw55x_fmc.c ****     FMC_OFVR = 0U;
 1116              		.loc 1 455 5
 1117 000a B7270240 		li	a5,1073881088
 1118 000e 93874708 		addi	a5,a5,132
 1119              		.loc 1 455 14
 1120 0012 23A00700 		sw	zero,0(a5)
 456:../Firmware/GD32VW55x_standard_peripheral/Source/gd32vw55x_fmc.c ****     FMC_OFVR |= (uint32_t) (of_value);
 1121              		.loc 1 456 14
 1122 0016 B7270240 		li	a5,1073881088
 1123 001a 93874708 		addi	a5,a5,132
 1124 001e 9443     		lw	a3,0(a5)
 1125 0020 B7270240 		li	a5,1073881088
 1126 0024 93874708 		addi	a5,a5,132
 1127 0028 0327C4FE 		lw	a4,-20(s0)
 1128 002c 558F     		or	a4,a3,a4
 1129 002e 98C3     		sw	a4,0(a5)
 457:../Firmware/GD32VW55x_standard_peripheral/Source/gd32vw55x_fmc.c **** }
 1130              		.loc 1 457 1
 1131 0030 0100     		nop
 1132 0032 7244     		lw	s0,28(sp)
 1133              		.cfi_restore 8
 1134              		.cfi_def_cfa 2, 32
 1135 0034 0561     		addi	sp,sp,32
 1136              		.cfi_def_cfa_offset 0
 1137 0036 8280     		jr	ra
 1138              		.cfi_endproc
 1139              	.LFE364:
 1141              		.section	.text.fmc_wifi_trim_cal_get,"ax",@progbits
 1142              		.align	1
 1143              		.globl	fmc_wifi_trim_cal_get
 1145              	fmc_wifi_trim_cal_get:
 1146              	.LFB365:
 458:../Firmware/GD32VW55x_standard_peripheral/Source/gd32vw55x_fmc.c **** 
 459:../Firmware/GD32VW55x_standard_peripheral/Source/gd32vw55x_fmc.c **** /*!
 460:../Firmware/GD32VW55x_standard_peripheral/Source/gd32vw55x_fmc.c ****     \brief      get calibration value
 461:../Firmware/GD32VW55x_standard_peripheral/Source/gd32vw55x_fmc.c ****     \param[in]  none
 462:../Firmware/GD32VW55x_standard_peripheral/Source/gd32vw55x_fmc.c ****     \param[out] rft0_bletxcal: BLE transmit power calibration value
 463:../Firmware/GD32VW55x_standard_peripheral/Source/gd32vw55x_fmc.c ****     \param[out] rft0_wftxcal: WIFI transmit power calibration value
 464:../Firmware/GD32VW55x_standard_peripheral/Source/gd32vw55x_fmc.c ****     \param[out] rft0_thecal: thermal meter calibration value
 465:../Firmware/GD32VW55x_standard_peripheral/Source/gd32vw55x_fmc.c ****     \param[out] rft1_wfrxcal: WIFI receive gain calibration value
 466:../Firmware/GD32VW55x_standard_peripheral/Source/gd32vw55x_fmc.c ****     \retval     none
 467:../Firmware/GD32VW55x_standard_peripheral/Source/gd32vw55x_fmc.c **** */
 468:../Firmware/GD32VW55x_standard_peripheral/Source/gd32vw55x_fmc.c **** void fmc_wifi_trim_cal_get(uint32_t *rft0_bletxcal, uint32_t *rft0_wftxcal, uint32_t *rft0_thecal, 
 469:../Firmware/GD32VW55x_standard_peripheral/Source/gd32vw55x_fmc.c **** {
 1147              		.loc 1 469 1
 1148              		.cfi_startproc
 1149 0000 7971     		addi	sp,sp,-48
 1150              		.cfi_def_cfa_offset 48
 1151 0002 22D6     		sw	s0,44(sp)
 1152              		.cfi_offset 8, -4
 1153 0004 0018     		addi	s0,sp,48
 1154              		.cfi_def_cfa 8, 0
 1155 0006 232EA4FC 		sw	a0,-36(s0)
 1156 000a 232CB4FC 		sw	a1,-40(s0)
 1157 000e 232AC4FC 		sw	a2,-44(s0)
 1158 0012 2328D4FC 		sw	a3,-48(s0)
 470:../Firmware/GD32VW55x_standard_peripheral/Source/gd32vw55x_fmc.c ****     uint32_t rft0_reg;
 471:../Firmware/GD32VW55x_standard_peripheral/Source/gd32vw55x_fmc.c ****     uint32_t rft1_reg;
 472:../Firmware/GD32VW55x_standard_peripheral/Source/gd32vw55x_fmc.c **** 
 473:../Firmware/GD32VW55x_standard_peripheral/Source/gd32vw55x_fmc.c ****     rft0_reg = FMC_RFT0;
 1159              		.loc 1 473 16
 1160 0016 B7270240 		li	a5,1073881088
 1161 001a 93878710 		addi	a5,a5,264
 1162              		.loc 1 473 14
 1163 001e 9C43     		lw	a5,0(a5)
 1164 0020 2326F4FE 		sw	a5,-20(s0)
 474:../Firmware/GD32VW55x_standard_peripheral/Source/gd32vw55x_fmc.c ****     rft1_reg = FMC_RFT1;
 1165              		.loc 1 474 16
 1166 0024 B7270240 		li	a5,1073881088
 1167 0028 9387C710 		addi	a5,a5,268
 1168              		.loc 1 474 14
 1169 002c 9C43     		lw	a5,0(a5)
 1170 002e 2324F4FE 		sw	a5,-24(s0)
 475:../Firmware/GD32VW55x_standard_peripheral/Source/gd32vw55x_fmc.c ****     *rft0_bletxcal = (uint32_t)(rft0_reg & FMC_RFT0_BLETXCAL);
 1171              		.loc 1 475 22
 1172 0032 0327C4FE 		lw	a4,-20(s0)
 1173 0036 B70700FF 		li	a5,-16777216
 1174 003a 7D8F     		and	a4,a4,a5
 1175              		.loc 1 475 20
 1176 003c 8327C4FD 		lw	a5,-36(s0)
 1177 0040 98C3     		sw	a4,0(a5)
 476:../Firmware/GD32VW55x_standard_peripheral/Source/gd32vw55x_fmc.c ****     *rft0_wftxcal = (uint32_t)(rft0_reg & FMC_RFT0_WIFITXCAL);
 1178              		.loc 1 476 21
 1179 0042 0327C4FE 		lw	a4,-20(s0)
 1180 0046 B707FF00 		li	a5,16711680
 1181 004a 7D8F     		and	a4,a4,a5
 1182              		.loc 1 476 19
 1183 004c 832784FD 		lw	a5,-40(s0)
 1184 0050 98C3     		sw	a4,0(a5)
 477:../Firmware/GD32VW55x_standard_peripheral/Source/gd32vw55x_fmc.c ****     *rft0_thecal = (uint32_t)(rft0_reg & FMC_RFT0_THECAL);
 1185              		.loc 1 477 20
 1186 0052 0327C4FE 		lw	a4,-20(s0)
 1187 0056 C167     		li	a5,65536
 1188 0058 938707F0 		addi	a5,a5,-256
 1189 005c 7D8F     		and	a4,a4,a5
 1190              		.loc 1 477 18
 1191 005e 832744FD 		lw	a5,-44(s0)
 1192 0062 98C3     		sw	a4,0(a5)
 478:../Firmware/GD32VW55x_standard_peripheral/Source/gd32vw55x_fmc.c ****     *rft1_wfrxcal = (uint32_t)(rft1_reg & FMC_RFT1_WIFIRXGCAL);
 1193              		.loc 1 478 21
 1194 0064 832784FE 		lw	a5,-24(s0)
 1195 0068 13F7F700 		andi	a4,a5,15
 1196              		.loc 1 478 19
 1197 006c 832704FD 		lw	a5,-48(s0)
 1198 0070 98C3     		sw	a4,0(a5)
 479:../Firmware/GD32VW55x_standard_peripheral/Source/gd32vw55x_fmc.c **** }
 1199              		.loc 1 479 1
 1200 0072 0100     		nop
 1201 0074 3254     		lw	s0,44(sp)
 1202              		.cfi_restore 8
 1203              		.cfi_def_cfa 2, 48
 1204 0076 4561     		addi	sp,sp,48
 1205              		.cfi_def_cfa_offset 0
 1206 0078 8280     		jr	ra
 1207              		.cfi_endproc
 1208              	.LFE365:
 1210              		.section	.text.fmc_wifi_trim_pa_get,"ax",@progbits
 1211              		.align	1
 1212              		.globl	fmc_wifi_trim_pa_get
 1214              	fmc_wifi_trim_pa_get:
 1215              	.LFB366:
 480:../Firmware/GD32VW55x_standard_peripheral/Source/gd32vw55x_fmc.c **** 
 481:../Firmware/GD32VW55x_standard_peripheral/Source/gd32vw55x_fmc.c **** /*!
 482:../Firmware/GD32VW55x_standard_peripheral/Source/gd32vw55x_fmc.c ****     \brief      get Power Amplifier bias tune value
 483:../Firmware/GD32VW55x_standard_peripheral/Source/gd32vw55x_fmc.c ****     \param[in]  none
 484:../Firmware/GD32VW55x_standard_peripheral/Source/gd32vw55x_fmc.c ****     \param[out] rft0_pa_tune0: Power Amplifier bias coarse tune value
 485:../Firmware/GD32VW55x_standard_peripheral/Source/gd32vw55x_fmc.c ****     \param[out] rft0_pa_tune1: Power Amplifier bias fine tune value
 486:../Firmware/GD32VW55x_standard_peripheral/Source/gd32vw55x_fmc.c ****     \retval     none
 487:../Firmware/GD32VW55x_standard_peripheral/Source/gd32vw55x_fmc.c **** */
 488:../Firmware/GD32VW55x_standard_peripheral/Source/gd32vw55x_fmc.c **** void fmc_wifi_trim_pa_get(uint32_t *rft0_pa_tune0, uint32_t *rft0_pa_tune1)
 489:../Firmware/GD32VW55x_standard_peripheral/Source/gd32vw55x_fmc.c **** {
 1216              		.loc 1 489 1
 1217              		.cfi_startproc
 1218 0000 7971     		addi	sp,sp,-48
 1219              		.cfi_def_cfa_offset 48
 1220 0002 22D6     		sw	s0,44(sp)
 1221              		.cfi_offset 8, -4
 1222 0004 0018     		addi	s0,sp,48
 1223              		.cfi_def_cfa 8, 0
 1224 0006 232EA4FC 		sw	a0,-36(s0)
 1225 000a 232CB4FC 		sw	a1,-40(s0)
 490:../Firmware/GD32VW55x_standard_peripheral/Source/gd32vw55x_fmc.c ****     uint32_t rft0_reg;
 491:../Firmware/GD32VW55x_standard_peripheral/Source/gd32vw55x_fmc.c **** 
 492:../Firmware/GD32VW55x_standard_peripheral/Source/gd32vw55x_fmc.c ****     rft0_reg = FMC_RFT0;
 1226              		.loc 1 492 16
 1227 000e B7270240 		li	a5,1073881088
 1228 0012 93878710 		addi	a5,a5,264
 1229              		.loc 1 492 14
 1230 0016 9C43     		lw	a5,0(a5)
 1231 0018 2326F4FE 		sw	a5,-20(s0)
 493:../Firmware/GD32VW55x_standard_peripheral/Source/gd32vw55x_fmc.c ****     *rft0_pa_tune0 = (uint32_t)(rft0_reg & FMC_RFT0_PABIAST0);
 1232              		.loc 1 493 22
 1233 001c 8327C4FE 		lw	a5,-20(s0)
 1234 0020 13F7F700 		andi	a4,a5,15
 1235              		.loc 1 493 20
 1236 0024 8327C4FD 		lw	a5,-36(s0)
 1237 0028 98C3     		sw	a4,0(a5)
 494:../Firmware/GD32VW55x_standard_peripheral/Source/gd32vw55x_fmc.c ****     *rft0_pa_tune1 = (uint32_t)(rft0_reg & FMC_RFT0_PABIAST1);
 1238              		.loc 1 494 22
 1239 002a 8327C4FE 		lw	a5,-20(s0)
 1240 002e 13F7070F 		andi	a4,a5,240
 1241              		.loc 1 494 20
 1242 0032 832784FD 		lw	a5,-40(s0)
 1243 0036 98C3     		sw	a4,0(a5)
 495:../Firmware/GD32VW55x_standard_peripheral/Source/gd32vw55x_fmc.c **** }
 1244              		.loc 1 495 1
 1245 0038 0100     		nop
 1246 003a 3254     		lw	s0,44(sp)
 1247              		.cfi_restore 8
 1248              		.cfi_def_cfa 2, 48
 1249 003c 4561     		addi	sp,sp,48
 1250              		.cfi_def_cfa_offset 0
 1251 003e 8280     		jr	ra
 1252              		.cfi_endproc
 1253              	.LFE366:
 1255              		.section	.text.fmc_wifi_trim_get,"ax",@progbits
 1256              		.align	1
 1257              		.globl	fmc_wifi_trim_get
 1259              	fmc_wifi_trim_get:
 1260              	.LFB367:
 496:../Firmware/GD32VW55x_standard_peripheral/Source/gd32vw55x_fmc.c **** 
 497:../Firmware/GD32VW55x_standard_peripheral/Source/gd32vw55x_fmc.c **** /*!
 498:../Firmware/GD32VW55x_standard_peripheral/Source/gd32vw55x_fmc.c ****     \brief      get wifi trim
 499:../Firmware/GD32VW55x_standard_peripheral/Source/gd32vw55x_fmc.c ****     \param[in]  size: the size of data written to wifi trim, must be 16U
 500:../Firmware/GD32VW55x_standard_peripheral/Source/gd32vw55x_fmc.c ****     \param[in]  buf: the buffer of data read from wifi trim
 501:../Firmware/GD32VW55x_standard_peripheral/Source/gd32vw55x_fmc.c ****     \param[out] none
 502:../Firmware/GD32VW55x_standard_peripheral/Source/gd32vw55x_fmc.c ****     \retval     state of FMC
 503:../Firmware/GD32VW55x_standard_peripheral/Source/gd32vw55x_fmc.c **** */
 504:../Firmware/GD32VW55x_standard_peripheral/Source/gd32vw55x_fmc.c **** fmc_state_enum fmc_wifi_trim_get(uint32_t size, uint32_t buf[])
 505:../Firmware/GD32VW55x_standard_peripheral/Source/gd32vw55x_fmc.c **** {
 1261              		.loc 1 505 1
 1262              		.cfi_startproc
 1263 0000 7971     		addi	sp,sp,-48
 1264              		.cfi_def_cfa_offset 48
 1265 0002 22D6     		sw	s0,44(sp)
 1266              		.cfi_offset 8, -4
 1267 0004 0018     		addi	s0,sp,48
 1268              		.cfi_def_cfa 8, 0
 1269 0006 232EA4FC 		sw	a0,-36(s0)
 1270 000a 232CB4FC 		sw	a1,-40(s0)
 506:../Firmware/GD32VW55x_standard_peripheral/Source/gd32vw55x_fmc.c ****     uint32_t i;
 507:../Firmware/GD32VW55x_standard_peripheral/Source/gd32vw55x_fmc.c **** 
 508:../Firmware/GD32VW55x_standard_peripheral/Source/gd32vw55x_fmc.c ****     if(size != 16U){
 1271              		.loc 1 508 7
 1272 000e 0327C4FD 		lw	a4,-36(s0)
 1273 0012 C147     		li	a5,16
 1274 0014 6304F700 		beq	a4,a5,.L53
 509:../Firmware/GD32VW55x_standard_peripheral/Source/gd32vw55x_fmc.c ****         return FMC_ERR;
 1275              		.loc 1 509 16
 1276 0018 9147     		li	a5,4
 1277 001a 89A0     		j	.L54
 1278              	.L53:
 510:../Firmware/GD32VW55x_standard_peripheral/Source/gd32vw55x_fmc.c ****     }
 511:../Firmware/GD32VW55x_standard_peripheral/Source/gd32vw55x_fmc.c ****     for(i = 0; i < size; i++){
 1279              		.loc 1 511 11
 1280 001c 232604FE 		sw	zero,-20(s0)
 1281              		.loc 1 511 5
 1282 0020 3DA0     		j	.L55
 1283              	.L56:
 512:../Firmware/GD32VW55x_standard_peripheral/Source/gd32vw55x_fmc.c ****         buf[i] = REG32(FMC + 0x00000200U + i*4);
 1284              		.loc 1 512 18 discriminator 3
 1285 0022 0327C4FE 		lw	a4,-20(s0)
 1286 0026 B7970010 		li	a5,268472320
 1287 002a 93870788 		addi	a5,a5,-1920
 1288 002e BA97     		add	a5,a4,a5
 1289 0030 8A07     		slli	a5,a5,2
 1290 0032 BE86     		mv	a3,a5
 1291              		.loc 1 512 12 discriminator 3
 1292 0034 8327C4FE 		lw	a5,-20(s0)
 1293 0038 8A07     		slli	a5,a5,2
 1294 003a 032784FD 		lw	a4,-40(s0)
 1295 003e BA97     		add	a5,a4,a5
 1296              		.loc 1 512 18 discriminator 3
 1297 0040 9842     		lw	a4,0(a3)
 1298              		.loc 1 512 16 discriminator 3
 1299 0042 98C3     		sw	a4,0(a5)
 511:../Firmware/GD32VW55x_standard_peripheral/Source/gd32vw55x_fmc.c ****         buf[i] = REG32(FMC + 0x00000200U + i*4);
 1300              		.loc 1 511 27 discriminator 3
 1301 0044 8327C4FE 		lw	a5,-20(s0)
 1302 0048 8507     		addi	a5,a5,1
 1303 004a 2326F4FE 		sw	a5,-20(s0)
 1304              	.L55:
 511:../Firmware/GD32VW55x_standard_peripheral/Source/gd32vw55x_fmc.c ****         buf[i] = REG32(FMC + 0x00000200U + i*4);
 1305              		.loc 1 511 5 discriminator 1
 1306 004e 0327C4FE 		lw	a4,-20(s0)
 1307 0052 8327C4FD 		lw	a5,-36(s0)
 1308 0056 E366F7FC 		bltu	a4,a5,.L56
 513:../Firmware/GD32VW55x_standard_peripheral/Source/gd32vw55x_fmc.c ****     }
 514:../Firmware/GD32VW55x_standard_peripheral/Source/gd32vw55x_fmc.c ****     /* return the FMC state */
 515:../Firmware/GD32VW55x_standard_peripheral/Source/gd32vw55x_fmc.c ****     return FMC_READY;
 1309              		.loc 1 515 12
 1310 005a 8147     		li	a5,0
 1311              	.L54:
 516:../Firmware/GD32VW55x_standard_peripheral/Source/gd32vw55x_fmc.c **** }
 1312              		.loc 1 516 1
 1313 005c 3E85     		mv	a0,a5
 1314 005e 3254     		lw	s0,44(sp)
 1315              		.cfi_restore 8
 1316              		.cfi_def_cfa 2, 48
 1317 0060 4561     		addi	sp,sp,48
 1318              		.cfi_def_cfa_offset 0
 1319 0062 8280     		jr	ra
 1320              		.cfi_endproc
 1321              	.LFE367:
 1323              		.section	.text.fmc_pid_get,"ax",@progbits
 1324              		.align	1
 1325              		.globl	fmc_pid_get
 1327              	fmc_pid_get:
 1328              	.LFB368:
 517:../Firmware/GD32VW55x_standard_peripheral/Source/gd32vw55x_fmc.c **** 
 518:../Firmware/GD32VW55x_standard_peripheral/Source/gd32vw55x_fmc.c **** /*!
 519:../Firmware/GD32VW55x_standard_peripheral/Source/gd32vw55x_fmc.c ****     \brief      get product ID
 520:../Firmware/GD32VW55x_standard_peripheral/Source/gd32vw55x_fmc.c ****     \param[in]  none
 521:../Firmware/GD32VW55x_standard_peripheral/Source/gd32vw55x_fmc.c ****     \param[out] pid: product ID
 522:../Firmware/GD32VW55x_standard_peripheral/Source/gd32vw55x_fmc.c ****     \retval     none
 523:../Firmware/GD32VW55x_standard_peripheral/Source/gd32vw55x_fmc.c **** */
 524:../Firmware/GD32VW55x_standard_peripheral/Source/gd32vw55x_fmc.c **** void fmc_pid_get(uint32_t *pid)
 525:../Firmware/GD32VW55x_standard_peripheral/Source/gd32vw55x_fmc.c **** {
 1329              		.loc 1 525 1
 1330              		.cfi_startproc
 1331 0000 7971     		addi	sp,sp,-48
 1332              		.cfi_def_cfa_offset 48
 1333 0002 22D6     		sw	s0,44(sp)
 1334              		.cfi_offset 8, -4
 1335 0004 0018     		addi	s0,sp,48
 1336              		.cfi_def_cfa 8, 0
 1337 0006 232EA4FC 		sw	a0,-36(s0)
 526:../Firmware/GD32VW55x_standard_peripheral/Source/gd32vw55x_fmc.c ****     uint32_t pid_addr = (uint32_t)pid;
 1338              		.loc 1 526 14
 1339 000a 8327C4FD 		lw	a5,-36(s0)
 1340 000e 2326F4FE 		sw	a5,-20(s0)
 527:../Firmware/GD32VW55x_standard_peripheral/Source/gd32vw55x_fmc.c ****     *(uint32_t *)pid_addr = (uint32_t)(FMC_PID0);
 1341              		.loc 1 527 29
 1342 0012 B7270240 		li	a5,1073881088
 1343 0016 13870710 		addi	a4,a5,256
 1344              		.loc 1 527 6
 1345 001a 8327C4FE 		lw	a5,-20(s0)
 1346              		.loc 1 527 29
 1347 001e 1843     		lw	a4,0(a4)
 1348              		.loc 1 527 27
 1349 0020 98C3     		sw	a4,0(a5)
 528:../Firmware/GD32VW55x_standard_peripheral/Source/gd32vw55x_fmc.c ****     pid_addr += 4U;
 1350              		.loc 1 528 14
 1351 0022 8327C4FE 		lw	a5,-20(s0)
 1352 0026 9107     		addi	a5,a5,4
 1353 0028 2326F4FE 		sw	a5,-20(s0)
 529:../Firmware/GD32VW55x_standard_peripheral/Source/gd32vw55x_fmc.c ****     *(uint32_t *)pid_addr = (uint32_t)(FMC_PID1);
 1354              		.loc 1 529 29
 1355 002c B7270240 		li	a5,1073881088
 1356 0030 13874710 		addi	a4,a5,260
 1357              		.loc 1 529 6
 1358 0034 8327C4FE 		lw	a5,-20(s0)
 1359              		.loc 1 529 29
 1360 0038 1843     		lw	a4,0(a4)
 1361              		.loc 1 529 27
 1362 003a 98C3     		sw	a4,0(a5)
 530:../Firmware/GD32VW55x_standard_peripheral/Source/gd32vw55x_fmc.c **** }
 1363              		.loc 1 530 1
 1364 003c 0100     		nop
 1365 003e 3254     		lw	s0,44(sp)
 1366              		.cfi_restore 8
 1367              		.cfi_def_cfa 2, 48
 1368 0040 4561     		addi	sp,sp,48
 1369              		.cfi_def_cfa_offset 0
 1370 0042 8280     		jr	ra
 1371              		.cfi_endproc
 1372              	.LFE368:
 1374              		.section	.text.ob_write_protection_get,"ax",@progbits
 1375              		.align	1
 1376              		.globl	ob_write_protection_get
 1378              	ob_write_protection_get:
 1379              	.LFB369:
 531:../Firmware/GD32VW55x_standard_peripheral/Source/gd32vw55x_fmc.c **** 
 532:../Firmware/GD32VW55x_standard_peripheral/Source/gd32vw55x_fmc.c **** /*!
 533:../Firmware/GD32VW55x_standard_peripheral/Source/gd32vw55x_fmc.c ****     \brief      get option bytes write protection state, only applies to get the status of write/er
 534:../Firmware/GD32VW55x_standard_peripheral/Source/gd32vw55x_fmc.c ****     \param[in]  none
 535:../Firmware/GD32VW55x_standard_peripheral/Source/gd32vw55x_fmc.c ****     \param[out] none
 536:../Firmware/GD32VW55x_standard_peripheral/Source/gd32vw55x_fmc.c ****     \retval     FlagStatus: SET or RESET
 537:../Firmware/GD32VW55x_standard_peripheral/Source/gd32vw55x_fmc.c **** */
 538:../Firmware/GD32VW55x_standard_peripheral/Source/gd32vw55x_fmc.c **** FlagStatus ob_write_protection_get(void)
 539:../Firmware/GD32VW55x_standard_peripheral/Source/gd32vw55x_fmc.c **** {
 1380              		.loc 1 539 1
 1381              		.cfi_startproc
 1382 0000 0111     		addi	sp,sp,-32
 1383              		.cfi_def_cfa_offset 32
 1384 0002 22CE     		sw	s0,28(sp)
 1385              		.cfi_offset 8, -4
 1386 0004 0010     		addi	s0,sp,32
 1387              		.cfi_def_cfa 8, 0
 540:../Firmware/GD32VW55x_standard_peripheral/Source/gd32vw55x_fmc.c ****     FlagStatus status = RESET;
 1388              		.loc 1 540 16
 1389 0006 232604FE 		sw	zero,-20(s0)
 541:../Firmware/GD32VW55x_standard_peripheral/Source/gd32vw55x_fmc.c **** 
 542:../Firmware/GD32VW55x_standard_peripheral/Source/gd32vw55x_fmc.c ****     if(FMC_OBSTAT & FMC_OBSTAT_WP) {
 1390              		.loc 1 542 8
 1391 000a B7270240 		li	a5,1073881088
 1392 000e F107     		addi	a5,a5,28
 1393 0010 9C43     		lw	a5,0(a5)
 1394              		.loc 1 542 19
 1395 0012 918B     		andi	a5,a5,4
 1396              		.loc 1 542 7
 1397 0014 89C7     		beq	a5,zero,.L59
 543:../Firmware/GD32VW55x_standard_peripheral/Source/gd32vw55x_fmc.c ****         status = SET;
 1398              		.loc 1 543 16
 1399 0016 8547     		li	a5,1
 1400 0018 2326F4FE 		sw	a5,-20(s0)
 1401 001c 19A0     		j	.L60
 1402              	.L59:
 544:../Firmware/GD32VW55x_standard_peripheral/Source/gd32vw55x_fmc.c ****     } else {
 545:../Firmware/GD32VW55x_standard_peripheral/Source/gd32vw55x_fmc.c ****         status = RESET;
 1403              		.loc 1 545 16
 1404 001e 232604FE 		sw	zero,-20(s0)
 1405              	.L60:
 546:../Firmware/GD32VW55x_standard_peripheral/Source/gd32vw55x_fmc.c ****     }
 547:../Firmware/GD32VW55x_standard_peripheral/Source/gd32vw55x_fmc.c **** 
 548:../Firmware/GD32VW55x_standard_peripheral/Source/gd32vw55x_fmc.c ****     /* return the state of corresponding FMC flag */
 549:../Firmware/GD32VW55x_standard_peripheral/Source/gd32vw55x_fmc.c ****     return status;
 1406              		.loc 1 549 12
 1407 0022 8327C4FE 		lw	a5,-20(s0)
 550:../Firmware/GD32VW55x_standard_peripheral/Source/gd32vw55x_fmc.c **** }
 1408              		.loc 1 550 1
 1409 0026 3E85     		mv	a0,a5
 1410 0028 7244     		lw	s0,28(sp)
 1411              		.cfi_restore 8
 1412              		.cfi_def_cfa 2, 32
 1413 002a 0561     		addi	sp,sp,32
 1414              		.cfi_def_cfa_offset 0
 1415 002c 8280     		jr	ra
 1416              		.cfi_endproc
 1417              	.LFE369:
 1419              		.section	.text.ob_user_get,"ax",@progbits
 1420              		.align	1
 1421              		.globl	ob_user_get
 1423              	ob_user_get:
 1424              	.LFB370:
 551:../Firmware/GD32VW55x_standard_peripheral/Source/gd32vw55x_fmc.c **** 
 552:../Firmware/GD32VW55x_standard_peripheral/Source/gd32vw55x_fmc.c **** /*!
 553:../Firmware/GD32VW55x_standard_peripheral/Source/gd32vw55x_fmc.c ****     \brief      get the value of option bytes USER
 554:../Firmware/GD32VW55x_standard_peripheral/Source/gd32vw55x_fmc.c ****     \param[in]  none
 555:../Firmware/GD32VW55x_standard_peripheral/Source/gd32vw55x_fmc.c ****     \param[out] none
 556:../Firmware/GD32VW55x_standard_peripheral/Source/gd32vw55x_fmc.c ****     \retval     the option bytes USER value
 557:../Firmware/GD32VW55x_standard_peripheral/Source/gd32vw55x_fmc.c **** */
 558:../Firmware/GD32VW55x_standard_peripheral/Source/gd32vw55x_fmc.c **** uint32_t ob_user_get(void)
 559:../Firmware/GD32VW55x_standard_peripheral/Source/gd32vw55x_fmc.c **** {
 1425              		.loc 1 559 1
 1426              		.cfi_startproc
 1427 0000 4111     		addi	sp,sp,-16
 1428              		.cfi_def_cfa_offset 16
 1429 0002 22C6     		sw	s0,12(sp)
 1430              		.cfi_offset 8, -4
 1431 0004 0008     		addi	s0,sp,16
 1432              		.cfi_def_cfa 8, 0
 560:../Firmware/GD32VW55x_standard_peripheral/Source/gd32vw55x_fmc.c ****     /* return the FMC user option bytes value */
 561:../Firmware/GD32VW55x_standard_peripheral/Source/gd32vw55x_fmc.c ****     return (uint32_t) FMC_OBUSER;
 1433              		.loc 1 561 12
 1434 0006 B7270240 		li	a5,1073881088
 1435 000a 93874704 		addi	a5,a5,68
 1436 000e 9C43     		lw	a5,0(a5)
 562:../Firmware/GD32VW55x_standard_peripheral/Source/gd32vw55x_fmc.c **** }
 1437              		.loc 1 562 1
 1438 0010 3E85     		mv	a0,a5
 1439 0012 3244     		lw	s0,12(sp)
 1440              		.cfi_restore 8
 1441              		.cfi_def_cfa 2, 16
 1442 0014 4101     		addi	sp,sp,16
 1443              		.cfi_def_cfa_offset 0
 1444 0016 8280     		jr	ra
 1445              		.cfi_endproc
 1446              	.LFE370:
 1448              		.section	.text.ob_security_protection_flag_get,"ax",@progbits
 1449              		.align	1
 1450              		.globl	ob_security_protection_flag_get
 1452              	ob_security_protection_flag_get:
 1453              	.LFB371:
 563:../Firmware/GD32VW55x_standard_peripheral/Source/gd32vw55x_fmc.c **** 
 564:../Firmware/GD32VW55x_standard_peripheral/Source/gd32vw55x_fmc.c **** /*!
 565:../Firmware/GD32VW55x_standard_peripheral/Source/gd32vw55x_fmc.c ****     \brief      get the FMC option bytes security protection state
 566:../Firmware/GD32VW55x_standard_peripheral/Source/gd32vw55x_fmc.c ****     \param[in]  none
 567:../Firmware/GD32VW55x_standard_peripheral/Source/gd32vw55x_fmc.c ****     \param[out] none
 568:../Firmware/GD32VW55x_standard_peripheral/Source/gd32vw55x_fmc.c ****     \retval     FlagStatus: SET or RESET
 569:../Firmware/GD32VW55x_standard_peripheral/Source/gd32vw55x_fmc.c **** */
 570:../Firmware/GD32VW55x_standard_peripheral/Source/gd32vw55x_fmc.c **** FlagStatus ob_security_protection_flag_get(void)
 571:../Firmware/GD32VW55x_standard_peripheral/Source/gd32vw55x_fmc.c **** {
 1454              		.loc 1 571 1
 1455              		.cfi_startproc
 1456 0000 0111     		addi	sp,sp,-32
 1457              		.cfi_def_cfa_offset 32
 1458 0002 22CE     		sw	s0,28(sp)
 1459              		.cfi_offset 8, -4
 1460 0004 0010     		addi	s0,sp,32
 1461              		.cfi_def_cfa 8, 0
 572:../Firmware/GD32VW55x_standard_peripheral/Source/gd32vw55x_fmc.c ****     FlagStatus state = RESET;
 1462              		.loc 1 572 16
 1463 0006 232604FE 		sw	zero,-20(s0)
 573:../Firmware/GD32VW55x_standard_peripheral/Source/gd32vw55x_fmc.c **** 
 574:../Firmware/GD32VW55x_standard_peripheral/Source/gd32vw55x_fmc.c ****     if (FMC_OBSTAT & FMC_OBSTAT_SPCSTAT_MASK){
 1464              		.loc 1 574 9
 1465 000a B7270240 		li	a5,1073881088
 1466 000e F107     		addi	a5,a5,28
 1467 0010 9C43     		lw	a5,0(a5)
 1468              		.loc 1 574 20
 1469 0012 898B     		andi	a5,a5,2
 1470              		.loc 1 574 8
 1471 0014 89C7     		beq	a5,zero,.L65
 575:../Firmware/GD32VW55x_standard_peripheral/Source/gd32vw55x_fmc.c ****         state = SET;
 1472              		.loc 1 575 15
 1473 0016 8547     		li	a5,1
 1474 0018 2326F4FE 		sw	a5,-20(s0)
 1475 001c 19A0     		j	.L66
 1476              	.L65:
 576:../Firmware/GD32VW55x_standard_peripheral/Source/gd32vw55x_fmc.c ****     }else{
 577:../Firmware/GD32VW55x_standard_peripheral/Source/gd32vw55x_fmc.c ****         state = RESET;
 1477              		.loc 1 577 15
 1478 001e 232604FE 		sw	zero,-20(s0)
 1479              	.L66:
 578:../Firmware/GD32VW55x_standard_peripheral/Source/gd32vw55x_fmc.c ****     }
 579:../Firmware/GD32VW55x_standard_peripheral/Source/gd32vw55x_fmc.c **** 
 580:../Firmware/GD32VW55x_standard_peripheral/Source/gd32vw55x_fmc.c ****     /* return the state of corresponding FMC flag */
 581:../Firmware/GD32VW55x_standard_peripheral/Source/gd32vw55x_fmc.c ****     return state;
 1480              		.loc 1 581 12
 1481 0022 8327C4FE 		lw	a5,-20(s0)
 582:../Firmware/GD32VW55x_standard_peripheral/Source/gd32vw55x_fmc.c **** }
 1482              		.loc 1 582 1
 1483 0026 3E85     		mv	a0,a5
 1484 0028 7244     		lw	s0,28(sp)
 1485              		.cfi_restore 8
 1486              		.cfi_def_cfa 2, 32
 1487 002a 0561     		addi	sp,sp,32
 1488              		.cfi_def_cfa_offset 0
 1489 002c 8280     		jr	ra
 1490              		.cfi_endproc
 1491              	.LFE371:
 1493              		.section	.text.fmc_flag_get,"ax",@progbits
 1494              		.align	1
 1495              		.globl	fmc_flag_get
 1497              	fmc_flag_get:
 1498              	.LFB372:
 583:../Firmware/GD32VW55x_standard_peripheral/Source/gd32vw55x_fmc.c **** 
 584:../Firmware/GD32VW55x_standard_peripheral/Source/gd32vw55x_fmc.c **** /*!
 585:../Firmware/GD32VW55x_standard_peripheral/Source/gd32vw55x_fmc.c ****     \brief      get FMC flag status
 586:../Firmware/GD32VW55x_standard_peripheral/Source/gd32vw55x_fmc.c ****     \param[in]  flag: FMC flag
 587:../Firmware/GD32VW55x_standard_peripheral/Source/gd32vw55x_fmc.c ****                 only one parameter can be selected which is shown as below:
 588:../Firmware/GD32VW55x_standard_peripheral/Source/gd32vw55x_fmc.c ****       \arg        FMC_FLAG_BUSY: FMC busy flag
 589:../Firmware/GD32VW55x_standard_peripheral/Source/gd32vw55x_fmc.c ****       \arg        FMC_FLAG_WPERR: FMC erase/program protection error flag
 590:../Firmware/GD32VW55x_standard_peripheral/Source/gd32vw55x_fmc.c ****       \arg        FMC_FLAG_END: FMC end of operation flag
 591:../Firmware/GD32VW55x_standard_peripheral/Source/gd32vw55x_fmc.c ****     \param[out] none
 592:../Firmware/GD32VW55x_standard_peripheral/Source/gd32vw55x_fmc.c ****     \retval     FlagStatus: SET or RESET
 593:../Firmware/GD32VW55x_standard_peripheral/Source/gd32vw55x_fmc.c **** */
 594:../Firmware/GD32VW55x_standard_peripheral/Source/gd32vw55x_fmc.c **** FlagStatus fmc_flag_get(uint32_t flag)
 595:../Firmware/GD32VW55x_standard_peripheral/Source/gd32vw55x_fmc.c **** {
 1499              		.loc 1 595 1
 1500              		.cfi_startproc
 1501 0000 7971     		addi	sp,sp,-48
 1502              		.cfi_def_cfa_offset 48
 1503 0002 22D6     		sw	s0,44(sp)
 1504              		.cfi_offset 8, -4
 1505 0004 0018     		addi	s0,sp,48
 1506              		.cfi_def_cfa 8, 0
 1507 0006 232EA4FC 		sw	a0,-36(s0)
 596:../Firmware/GD32VW55x_standard_peripheral/Source/gd32vw55x_fmc.c ****     FlagStatus status = RESET;
 1508              		.loc 1 596 16
 1509 000a 232604FE 		sw	zero,-20(s0)
 597:../Firmware/GD32VW55x_standard_peripheral/Source/gd32vw55x_fmc.c **** 
 598:../Firmware/GD32VW55x_standard_peripheral/Source/gd32vw55x_fmc.c ****     if (FMC_STAT & flag){
 1510              		.loc 1 598 9
 1511 000e B7270240 		li	a5,1073881088
 1512 0012 B107     		addi	a5,a5,12
 1513 0014 9843     		lw	a4,0(a5)
 1514              		.loc 1 598 18
 1515 0016 8327C4FD 		lw	a5,-36(s0)
 1516 001a F98F     		and	a5,a4,a5
 1517              		.loc 1 598 8
 1518 001c 81C7     		beq	a5,zero,.L69
 599:../Firmware/GD32VW55x_standard_peripheral/Source/gd32vw55x_fmc.c ****         status = SET;
 1519              		.loc 1 599 16
 1520 001e 8547     		li	a5,1
 1521 0020 2326F4FE 		sw	a5,-20(s0)
 1522              	.L69:
 600:../Firmware/GD32VW55x_standard_peripheral/Source/gd32vw55x_fmc.c ****     }
 601:../Firmware/GD32VW55x_standard_peripheral/Source/gd32vw55x_fmc.c ****     /* return the state of corresponding FMC flag */
 602:../Firmware/GD32VW55x_standard_peripheral/Source/gd32vw55x_fmc.c ****     return status;
 1523              		.loc 1 602 12
 1524 0024 8327C4FE 		lw	a5,-20(s0)
 603:../Firmware/GD32VW55x_standard_peripheral/Source/gd32vw55x_fmc.c **** }
 1525              		.loc 1 603 1
 1526 0028 3E85     		mv	a0,a5
 1527 002a 3254     		lw	s0,44(sp)
 1528              		.cfi_restore 8
 1529              		.cfi_def_cfa 2, 48
 1530 002c 4561     		addi	sp,sp,48
 1531              		.cfi_def_cfa_offset 0
 1532 002e 8280     		jr	ra
 1533              		.cfi_endproc
 1534              	.LFE372:
 1536              		.section	.text.fmc_flag_clear,"ax",@progbits
 1537              		.align	1
 1538              		.globl	fmc_flag_clear
 1540              	fmc_flag_clear:
 1541              	.LFB373:
 604:../Firmware/GD32VW55x_standard_peripheral/Source/gd32vw55x_fmc.c **** 
 605:../Firmware/GD32VW55x_standard_peripheral/Source/gd32vw55x_fmc.c **** /*!
 606:../Firmware/GD32VW55x_standard_peripheral/Source/gd32vw55x_fmc.c ****     \brief      clear the FMC flag
 607:../Firmware/GD32VW55x_standard_peripheral/Source/gd32vw55x_fmc.c ****     \param[in]  flag: FMC flag
 608:../Firmware/GD32VW55x_standard_peripheral/Source/gd32vw55x_fmc.c ****                 only one parameter can be selected which is shown as below:
 609:../Firmware/GD32VW55x_standard_peripheral/Source/gd32vw55x_fmc.c ****       \arg        FMC_FLAG_WPERR: FMC erase/program protection error flag
 610:../Firmware/GD32VW55x_standard_peripheral/Source/gd32vw55x_fmc.c ****       \arg        FMC_FLAG_END: FMC end of operation flag
 611:../Firmware/GD32VW55x_standard_peripheral/Source/gd32vw55x_fmc.c ****     \param[out] none
 612:../Firmware/GD32VW55x_standard_peripheral/Source/gd32vw55x_fmc.c ****     \retval     none
 613:../Firmware/GD32VW55x_standard_peripheral/Source/gd32vw55x_fmc.c **** */
 614:../Firmware/GD32VW55x_standard_peripheral/Source/gd32vw55x_fmc.c **** void fmc_flag_clear(uint32_t flag)
 615:../Firmware/GD32VW55x_standard_peripheral/Source/gd32vw55x_fmc.c **** {
 1542              		.loc 1 615 1
 1543              		.cfi_startproc
 1544 0000 0111     		addi	sp,sp,-32
 1545              		.cfi_def_cfa_offset 32
 1546 0002 22CE     		sw	s0,28(sp)
 1547              		.cfi_offset 8, -4
 1548 0004 0010     		addi	s0,sp,32
 1549              		.cfi_def_cfa 8, 0
 1550 0006 2326A4FE 		sw	a0,-20(s0)
 616:../Firmware/GD32VW55x_standard_peripheral/Source/gd32vw55x_fmc.c ****     /* clear the flags */
 617:../Firmware/GD32VW55x_standard_peripheral/Source/gd32vw55x_fmc.c ****     FMC_STAT = flag;
 1551              		.loc 1 617 5
 1552 000a B7270240 		li	a5,1073881088
 1553 000e B107     		addi	a5,a5,12
 1554              		.loc 1 617 14
 1555 0010 0327C4FE 		lw	a4,-20(s0)
 1556 0014 98C3     		sw	a4,0(a5)
 618:../Firmware/GD32VW55x_standard_peripheral/Source/gd32vw55x_fmc.c **** }
 1557              		.loc 1 618 1
 1558 0016 0100     		nop
 1559 0018 7244     		lw	s0,28(sp)
 1560              		.cfi_restore 8
 1561              		.cfi_def_cfa 2, 32
 1562 001a 0561     		addi	sp,sp,32
 1563              		.cfi_def_cfa_offset 0
 1564 001c 8280     		jr	ra
 1565              		.cfi_endproc
 1566              	.LFE373:
 1568              		.section	.text.fmc_interrupt_enable,"ax",@progbits
 1569              		.align	1
 1570              		.globl	fmc_interrupt_enable
 1572              	fmc_interrupt_enable:
 1573              	.LFB374:
 619:../Firmware/GD32VW55x_standard_peripheral/Source/gd32vw55x_fmc.c **** 
 620:../Firmware/GD32VW55x_standard_peripheral/Source/gd32vw55x_fmc.c **** /*!
 621:../Firmware/GD32VW55x_standard_peripheral/Source/gd32vw55x_fmc.c ****     \brief      enable FMC interrupt
 622:../Firmware/GD32VW55x_standard_peripheral/Source/gd32vw55x_fmc.c ****     \param[in]  interrupt: the FMC interrupt
 623:../Firmware/GD32VW55x_standard_peripheral/Source/gd32vw55x_fmc.c ****                 only one parameter can be selected which is shown as below:
 624:../Firmware/GD32VW55x_standard_peripheral/Source/gd32vw55x_fmc.c ****       \arg        FMC_INT_END: FMC end of operation interrupt
 625:../Firmware/GD32VW55x_standard_peripheral/Source/gd32vw55x_fmc.c ****       \arg        FMC_INT_ERR: FMC error interrupt
 626:../Firmware/GD32VW55x_standard_peripheral/Source/gd32vw55x_fmc.c ****     \param[out] none
 627:../Firmware/GD32VW55x_standard_peripheral/Source/gd32vw55x_fmc.c ****     \retval     none
 628:../Firmware/GD32VW55x_standard_peripheral/Source/gd32vw55x_fmc.c **** */
 629:../Firmware/GD32VW55x_standard_peripheral/Source/gd32vw55x_fmc.c **** void fmc_interrupt_enable(uint32_t interrupt)
 630:../Firmware/GD32VW55x_standard_peripheral/Source/gd32vw55x_fmc.c **** {
 1574              		.loc 1 630 1
 1575              		.cfi_startproc
 1576 0000 0111     		addi	sp,sp,-32
 1577              		.cfi_def_cfa_offset 32
 1578 0002 22CE     		sw	s0,28(sp)
 1579              		.cfi_offset 8, -4
 1580 0004 0010     		addi	s0,sp,32
 1581              		.cfi_def_cfa 8, 0
 1582 0006 2326A4FE 		sw	a0,-20(s0)
 631:../Firmware/GD32VW55x_standard_peripheral/Source/gd32vw55x_fmc.c ****     FMC_CTL |= interrupt;
 1583              		.loc 1 631 13
 1584 000a B7270240 		li	a5,1073881088
 1585 000e C107     		addi	a5,a5,16
 1586 0010 9443     		lw	a3,0(a5)
 1587 0012 B7270240 		li	a5,1073881088
 1588 0016 C107     		addi	a5,a5,16
 1589 0018 0327C4FE 		lw	a4,-20(s0)
 1590 001c 558F     		or	a4,a3,a4
 1591 001e 98C3     		sw	a4,0(a5)
 632:../Firmware/GD32VW55x_standard_peripheral/Source/gd32vw55x_fmc.c **** }
 1592              		.loc 1 632 1
 1593 0020 0100     		nop
 1594 0022 7244     		lw	s0,28(sp)
 1595              		.cfi_restore 8
 1596              		.cfi_def_cfa 2, 32
 1597 0024 0561     		addi	sp,sp,32
 1598              		.cfi_def_cfa_offset 0
 1599 0026 8280     		jr	ra
 1600              		.cfi_endproc
 1601              	.LFE374:
 1603              		.section	.text.fmc_interrupt_disable,"ax",@progbits
 1604              		.align	1
 1605              		.globl	fmc_interrupt_disable
 1607              	fmc_interrupt_disable:
 1608              	.LFB375:
 633:../Firmware/GD32VW55x_standard_peripheral/Source/gd32vw55x_fmc.c **** 
 634:../Firmware/GD32VW55x_standard_peripheral/Source/gd32vw55x_fmc.c **** /*!
 635:../Firmware/GD32VW55x_standard_peripheral/Source/gd32vw55x_fmc.c ****     \brief      disable FMC interrupt
 636:../Firmware/GD32VW55x_standard_peripheral/Source/gd32vw55x_fmc.c ****     \param[in]  interrupt: the FMC interrupt
 637:../Firmware/GD32VW55x_standard_peripheral/Source/gd32vw55x_fmc.c ****                 only one parameter can be selected which is shown as below:
 638:../Firmware/GD32VW55x_standard_peripheral/Source/gd32vw55x_fmc.c ****       \arg        FMC_INT_END: FMC end of operation interrupt
 639:../Firmware/GD32VW55x_standard_peripheral/Source/gd32vw55x_fmc.c ****       \arg        FMC_INT_ERR: FMC error interrupt
 640:../Firmware/GD32VW55x_standard_peripheral/Source/gd32vw55x_fmc.c ****     \param[out] none
 641:../Firmware/GD32VW55x_standard_peripheral/Source/gd32vw55x_fmc.c ****     \retval     none
 642:../Firmware/GD32VW55x_standard_peripheral/Source/gd32vw55x_fmc.c **** */
 643:../Firmware/GD32VW55x_standard_peripheral/Source/gd32vw55x_fmc.c **** void fmc_interrupt_disable(uint32_t interrupt)
 644:../Firmware/GD32VW55x_standard_peripheral/Source/gd32vw55x_fmc.c **** {
 1609              		.loc 1 644 1
 1610              		.cfi_startproc
 1611 0000 0111     		addi	sp,sp,-32
 1612              		.cfi_def_cfa_offset 32
 1613 0002 22CE     		sw	s0,28(sp)
 1614              		.cfi_offset 8, -4
 1615 0004 0010     		addi	s0,sp,32
 1616              		.cfi_def_cfa 8, 0
 1617 0006 2326A4FE 		sw	a0,-20(s0)
 645:../Firmware/GD32VW55x_standard_peripheral/Source/gd32vw55x_fmc.c ****     FMC_CTL &= ~(uint32_t) interrupt;
 1618              		.loc 1 645 13
 1619 000a B7270240 		li	a5,1073881088
 1620 000e C107     		addi	a5,a5,16
 1621 0010 9443     		lw	a3,0(a5)
 1622              		.loc 1 645 16
 1623 0012 8327C4FE 		lw	a5,-20(s0)
 1624 0016 13C7F7FF 		not	a4,a5
 1625              		.loc 1 645 13
 1626 001a B7270240 		li	a5,1073881088
 1627 001e C107     		addi	a5,a5,16
 1628 0020 758F     		and	a4,a3,a4
 1629 0022 98C3     		sw	a4,0(a5)
 646:../Firmware/GD32VW55x_standard_peripheral/Source/gd32vw55x_fmc.c **** }
 1630              		.loc 1 646 1
 1631 0024 0100     		nop
 1632 0026 7244     		lw	s0,28(sp)
 1633              		.cfi_restore 8
 1634              		.cfi_def_cfa 2, 32
 1635 0028 0561     		addi	sp,sp,32
 1636              		.cfi_def_cfa_offset 0
 1637 002a 8280     		jr	ra
 1638              		.cfi_endproc
 1639              	.LFE375:
 1641              		.section	.text.fmc_interrupt_flag_get,"ax",@progbits
 1642              		.align	1
 1643              		.globl	fmc_interrupt_flag_get
 1645              	fmc_interrupt_flag_get:
 1646              	.LFB376:
 647:../Firmware/GD32VW55x_standard_peripheral/Source/gd32vw55x_fmc.c **** 
 648:../Firmware/GD32VW55x_standard_peripheral/Source/gd32vw55x_fmc.c **** /*!
 649:../Firmware/GD32VW55x_standard_peripheral/Source/gd32vw55x_fmc.c ****     \brief      get FMC interrupt flag
 650:../Firmware/GD32VW55x_standard_peripheral/Source/gd32vw55x_fmc.c ****     \param[in]  flag: FMC interrupt flag
 651:../Firmware/GD32VW55x_standard_peripheral/Source/gd32vw55x_fmc.c ****                 only one parameter can be selected which is shown as below:
 652:../Firmware/GD32VW55x_standard_peripheral/Source/gd32vw55x_fmc.c ****       \arg        FMC_INT_FLAG_WPERR: FMC erase/program protection error interrupt flag
 653:../Firmware/GD32VW55x_standard_peripheral/Source/gd32vw55x_fmc.c ****       \arg        FMC_INT_FLAG_END: FMC end of operation interrupt flag
 654:../Firmware/GD32VW55x_standard_peripheral/Source/gd32vw55x_fmc.c ****     \param[out] none
 655:../Firmware/GD32VW55x_standard_peripheral/Source/gd32vw55x_fmc.c ****     \retval     FlagStatus: SET or RESET
 656:../Firmware/GD32VW55x_standard_peripheral/Source/gd32vw55x_fmc.c **** */
 657:../Firmware/GD32VW55x_standard_peripheral/Source/gd32vw55x_fmc.c **** FlagStatus fmc_interrupt_flag_get(uint32_t flag)
 658:../Firmware/GD32VW55x_standard_peripheral/Source/gd32vw55x_fmc.c **** {
 1647              		.loc 1 658 1
 1648              		.cfi_startproc
 1649 0000 7971     		addi	sp,sp,-48
 1650              		.cfi_def_cfa_offset 48
 1651 0002 22D6     		sw	s0,44(sp)
 1652              		.cfi_offset 8, -4
 1653 0004 0018     		addi	s0,sp,48
 1654              		.cfi_def_cfa 8, 0
 1655 0006 232EA4FC 		sw	a0,-36(s0)
 659:../Firmware/GD32VW55x_standard_peripheral/Source/gd32vw55x_fmc.c ****     FlagStatus status = RESET;
 1656              		.loc 1 659 16
 1657 000a 232604FE 		sw	zero,-20(s0)
 660:../Firmware/GD32VW55x_standard_peripheral/Source/gd32vw55x_fmc.c **** 
 661:../Firmware/GD32VW55x_standard_peripheral/Source/gd32vw55x_fmc.c ****     if(FMC_STAT & flag){
 1658              		.loc 1 661 8
 1659 000e B7270240 		li	a5,1073881088
 1660 0012 B107     		addi	a5,a5,12
 1661 0014 9843     		lw	a4,0(a5)
 1662              		.loc 1 661 17
 1663 0016 8327C4FD 		lw	a5,-36(s0)
 1664 001a F98F     		and	a5,a4,a5
 1665              		.loc 1 661 7
 1666 001c 81C7     		beq	a5,zero,.L75
 662:../Firmware/GD32VW55x_standard_peripheral/Source/gd32vw55x_fmc.c ****         status = SET;
 1667              		.loc 1 662 16
 1668 001e 8547     		li	a5,1
 1669 0020 2326F4FE 		sw	a5,-20(s0)
 1670              	.L75:
 663:../Firmware/GD32VW55x_standard_peripheral/Source/gd32vw55x_fmc.c ****     }
 664:../Firmware/GD32VW55x_standard_peripheral/Source/gd32vw55x_fmc.c ****     /* return the state of corresponding FMC flag */
 665:../Firmware/GD32VW55x_standard_peripheral/Source/gd32vw55x_fmc.c ****     return status;
 1671              		.loc 1 665 12
 1672 0024 8327C4FE 		lw	a5,-20(s0)
 666:../Firmware/GD32VW55x_standard_peripheral/Source/gd32vw55x_fmc.c **** }
 1673              		.loc 1 666 1
 1674 0028 3E85     		mv	a0,a5
 1675 002a 3254     		lw	s0,44(sp)
 1676              		.cfi_restore 8
 1677              		.cfi_def_cfa 2, 48
 1678 002c 4561     		addi	sp,sp,48
 1679              		.cfi_def_cfa_offset 0
 1680 002e 8280     		jr	ra
 1681              		.cfi_endproc
 1682              	.LFE376:
 1684              		.section	.text.fmc_interrupt_flag_clear,"ax",@progbits
 1685              		.align	1
 1686              		.globl	fmc_interrupt_flag_clear
 1688              	fmc_interrupt_flag_clear:
 1689              	.LFB377:
 667:../Firmware/GD32VW55x_standard_peripheral/Source/gd32vw55x_fmc.c **** 
 668:../Firmware/GD32VW55x_standard_peripheral/Source/gd32vw55x_fmc.c **** /*!
 669:../Firmware/GD32VW55x_standard_peripheral/Source/gd32vw55x_fmc.c ****     \brief      clear FMC interrupt flag
 670:../Firmware/GD32VW55x_standard_peripheral/Source/gd32vw55x_fmc.c ****     \param[in]  flag: FMC interrupt flag
 671:../Firmware/GD32VW55x_standard_peripheral/Source/gd32vw55x_fmc.c ****                 only one parameter can be selected which is shown as below:
 672:../Firmware/GD32VW55x_standard_peripheral/Source/gd32vw55x_fmc.c ****       \arg        FMC_INT_FLAG_WPERR: FMC erase/program protection error interrupt flag
 673:../Firmware/GD32VW55x_standard_peripheral/Source/gd32vw55x_fmc.c ****       \arg        FMC_INT_FLAG_END: FMC end of operation interrupt flag
 674:../Firmware/GD32VW55x_standard_peripheral/Source/gd32vw55x_fmc.c ****     \param[out] none
 675:../Firmware/GD32VW55x_standard_peripheral/Source/gd32vw55x_fmc.c ****     \retval     none
 676:../Firmware/GD32VW55x_standard_peripheral/Source/gd32vw55x_fmc.c **** */
 677:../Firmware/GD32VW55x_standard_peripheral/Source/gd32vw55x_fmc.c **** void fmc_interrupt_flag_clear(uint32_t flag)
 678:../Firmware/GD32VW55x_standard_peripheral/Source/gd32vw55x_fmc.c **** {
 1690              		.loc 1 678 1
 1691              		.cfi_startproc
 1692 0000 0111     		addi	sp,sp,-32
 1693              		.cfi_def_cfa_offset 32
 1694 0002 22CE     		sw	s0,28(sp)
 1695              		.cfi_offset 8, -4
 1696 0004 0010     		addi	s0,sp,32
 1697              		.cfi_def_cfa 8, 0
 1698 0006 2326A4FE 		sw	a0,-20(s0)
 679:../Firmware/GD32VW55x_standard_peripheral/Source/gd32vw55x_fmc.c ****     /* clear the flag */
 680:../Firmware/GD32VW55x_standard_peripheral/Source/gd32vw55x_fmc.c ****     FMC_STAT = flag;
 1699              		.loc 1 680 5
 1700 000a B7270240 		li	a5,1073881088
 1701 000e B107     		addi	a5,a5,12
 1702              		.loc 1 680 14
 1703 0010 0327C4FE 		lw	a4,-20(s0)
 1704 0014 98C3     		sw	a4,0(a5)
 681:../Firmware/GD32VW55x_standard_peripheral/Source/gd32vw55x_fmc.c **** }
 1705              		.loc 1 681 1
 1706 0016 0100     		nop
 1707 0018 7244     		lw	s0,28(sp)
 1708              		.cfi_restore 8
 1709              		.cfi_def_cfa 2, 32
 1710 001a 0561     		addi	sp,sp,32
 1711              		.cfi_def_cfa_offset 0
 1712 001c 8280     		jr	ra
 1713              		.cfi_endproc
 1714              	.LFE377:
 1716              		.section	.text.fmc_state_get,"ax",@progbits
 1717              		.align	1
 1719              	fmc_state_get:
 1720              	.LFB378:
 682:../Firmware/GD32VW55x_standard_peripheral/Source/gd32vw55x_fmc.c **** 
 683:../Firmware/GD32VW55x_standard_peripheral/Source/gd32vw55x_fmc.c **** /*!
 684:../Firmware/GD32VW55x_standard_peripheral/Source/gd32vw55x_fmc.c ****     \brief      get the FMC state
 685:../Firmware/GD32VW55x_standard_peripheral/Source/gd32vw55x_fmc.c ****     \param[in]  none
 686:../Firmware/GD32VW55x_standard_peripheral/Source/gd32vw55x_fmc.c ****     \param[out] none
 687:../Firmware/GD32VW55x_standard_peripheral/Source/gd32vw55x_fmc.c ****     \retval     state of FMC
 688:../Firmware/GD32VW55x_standard_peripheral/Source/gd32vw55x_fmc.c ****       \arg        FMC_READY: the operation has been completed
 689:../Firmware/GD32VW55x_standard_peripheral/Source/gd32vw55x_fmc.c ****       \arg        FMC_BUSY: the operation is in progress
 690:../Firmware/GD32VW55x_standard_peripheral/Source/gd32vw55x_fmc.c ****       \arg        FMC_WPERR: erase/program protection error
 691:../Firmware/GD32VW55x_standard_peripheral/Source/gd32vw55x_fmc.c **** */
 692:../Firmware/GD32VW55x_standard_peripheral/Source/gd32vw55x_fmc.c **** static fmc_state_enum fmc_state_get(void)
 693:../Firmware/GD32VW55x_standard_peripheral/Source/gd32vw55x_fmc.c **** {
 1721              		.loc 1 693 1
 1722              		.cfi_startproc
 1723 0000 0111     		addi	sp,sp,-32
 1724              		.cfi_def_cfa_offset 32
 1725 0002 22CE     		sw	s0,28(sp)
 1726              		.cfi_offset 8, -4
 1727 0004 0010     		addi	s0,sp,32
 1728              		.cfi_def_cfa 8, 0
 694:../Firmware/GD32VW55x_standard_peripheral/Source/gd32vw55x_fmc.c ****     fmc_state_enum fmc_state = FMC_READY;
 1729              		.loc 1 694 20
 1730 0006 232604FE 		sw	zero,-20(s0)
 695:../Firmware/GD32VW55x_standard_peripheral/Source/gd32vw55x_fmc.c **** 
 696:../Firmware/GD32VW55x_standard_peripheral/Source/gd32vw55x_fmc.c ****     if((uint32_t) 0x00U != (FMC_STAT & FMC_STAT_BUSY)){
 1731              		.loc 1 696 29
 1732 000a B7270240 		li	a5,1073881088
 1733 000e B107     		addi	a5,a5,12
 1734 0010 9C43     		lw	a5,0(a5)
 1735              		.loc 1 696 38
 1736 0012 858B     		andi	a5,a5,1
 1737              		.loc 1 696 7
 1738 0014 89C7     		beq	a5,zero,.L79
 697:../Firmware/GD32VW55x_standard_peripheral/Source/gd32vw55x_fmc.c ****         fmc_state = FMC_BUSY;
 1739              		.loc 1 697 19
 1740 0016 8547     		li	a5,1
 1741 0018 2326F4FE 		sw	a5,-20(s0)
 1742 001c 11A8     		j	.L80
 1743              	.L79:
 698:../Firmware/GD32VW55x_standard_peripheral/Source/gd32vw55x_fmc.c ****     }else{
 699:../Firmware/GD32VW55x_standard_peripheral/Source/gd32vw55x_fmc.c ****         if((uint32_t) 0x00U != (FMC_STAT & FMC_STAT_WPERR)){
 1744              		.loc 1 699 33
 1745 001e B7270240 		li	a5,1073881088
 1746 0022 B107     		addi	a5,a5,12
 1747 0024 9C43     		lw	a5,0(a5)
 1748              		.loc 1 699 42
 1749 0026 C18B     		andi	a5,a5,16
 1750              		.loc 1 699 11
 1751 0028 81C7     		beq	a5,zero,.L80
 700:../Firmware/GD32VW55x_standard_peripheral/Source/gd32vw55x_fmc.c ****             fmc_state = FMC_WPERR;
 1752              		.loc 1 700 23
 1753 002a 8947     		li	a5,2
 1754 002c 2326F4FE 		sw	a5,-20(s0)
 1755              	.L80:
 701:../Firmware/GD32VW55x_standard_peripheral/Source/gd32vw55x_fmc.c ****         }
 702:../Firmware/GD32VW55x_standard_peripheral/Source/gd32vw55x_fmc.c ****     }
 703:../Firmware/GD32VW55x_standard_peripheral/Source/gd32vw55x_fmc.c ****     /* return the FMC state */
 704:../Firmware/GD32VW55x_standard_peripheral/Source/gd32vw55x_fmc.c ****     return fmc_state;
 1756              		.loc 1 704 12
 1757 0030 8327C4FE 		lw	a5,-20(s0)
 705:../Firmware/GD32VW55x_standard_peripheral/Source/gd32vw55x_fmc.c **** }
 1758              		.loc 1 705 1
 1759 0034 3E85     		mv	a0,a5
 1760 0036 7244     		lw	s0,28(sp)
 1761              		.cfi_restore 8
 1762              		.cfi_def_cfa 2, 32
 1763 0038 0561     		addi	sp,sp,32
 1764              		.cfi_def_cfa_offset 0
 1765 003a 8280     		jr	ra
 1766              		.cfi_endproc
 1767              	.LFE378:
 1769              		.section	.text.fmc_ready_wait,"ax",@progbits
 1770              		.align	1
 1772              	fmc_ready_wait:
 1773              	.LFB379:
 706:../Firmware/GD32VW55x_standard_peripheral/Source/gd32vw55x_fmc.c **** 
 707:../Firmware/GD32VW55x_standard_peripheral/Source/gd32vw55x_fmc.c **** /*!
 708:../Firmware/GD32VW55x_standard_peripheral/Source/gd32vw55x_fmc.c ****     \brief      check whether FMC is ready or not
 709:../Firmware/GD32VW55x_standard_peripheral/Source/gd32vw55x_fmc.c ****     \param[in]  timeout: timeout count
 710:../Firmware/GD32VW55x_standard_peripheral/Source/gd32vw55x_fmc.c ****     \param[out] none
 711:../Firmware/GD32VW55x_standard_peripheral/Source/gd32vw55x_fmc.c ****     \retval     state of FMC
 712:../Firmware/GD32VW55x_standard_peripheral/Source/gd32vw55x_fmc.c ****       \arg        FMC_READY: the operation has been completed
 713:../Firmware/GD32VW55x_standard_peripheral/Source/gd32vw55x_fmc.c ****       \arg        FMC_WPERR: erase/program protection error
 714:../Firmware/GD32VW55x_standard_peripheral/Source/gd32vw55x_fmc.c ****       \arg        FMC_TOERR: timeout error
 715:../Firmware/GD32VW55x_standard_peripheral/Source/gd32vw55x_fmc.c **** */
 716:../Firmware/GD32VW55x_standard_peripheral/Source/gd32vw55x_fmc.c **** static fmc_state_enum fmc_ready_wait(uint32_t timeout)
 717:../Firmware/GD32VW55x_standard_peripheral/Source/gd32vw55x_fmc.c **** {
 1774              		.loc 1 717 1
 1775              		.cfi_startproc
 1776 0000 7971     		addi	sp,sp,-48
 1777              		.cfi_def_cfa_offset 48
 1778 0002 06D6     		sw	ra,44(sp)
 1779 0004 22D4     		sw	s0,40(sp)
 1780              		.cfi_offset 1, -4
 1781              		.cfi_offset 8, -8
 1782 0006 0018     		addi	s0,sp,48
 1783              		.cfi_def_cfa 8, 0
 1784 0008 232EA4FC 		sw	a0,-36(s0)
 718:../Firmware/GD32VW55x_standard_peripheral/Source/gd32vw55x_fmc.c ****     fmc_state_enum fmc_state = FMC_BUSY;
 1785              		.loc 1 718 20
 1786 000c 8547     		li	a5,1
 1787 000e 2326F4FE 		sw	a5,-20(s0)
 1788              	.L84:
 719:../Firmware/GD32VW55x_standard_peripheral/Source/gd32vw55x_fmc.c **** 
 720:../Firmware/GD32VW55x_standard_peripheral/Source/gd32vw55x_fmc.c ****     /* wait for FMC ready */
 721:../Firmware/GD32VW55x_standard_peripheral/Source/gd32vw55x_fmc.c ****     do{
 722:../Firmware/GD32VW55x_standard_peripheral/Source/gd32vw55x_fmc.c ****         /* get FMC state */
 723:../Firmware/GD32VW55x_standard_peripheral/Source/gd32vw55x_fmc.c ****         fmc_state = fmc_state_get();
 1789              		.loc 1 723 21 discriminator 2
 1790 0012 97000000 		call	fmc_state_get
 1790      E7800000 
 1791 001a 2326A4FE 		sw	a0,-20(s0)
 724:../Firmware/GD32VW55x_standard_peripheral/Source/gd32vw55x_fmc.c ****         timeout--;
 1792              		.loc 1 724 16 discriminator 2
 1793 001e 8327C4FD 		lw	a5,-36(s0)
 1794 0022 FD17     		addi	a5,a5,-1
 1795 0024 232EF4FC 		sw	a5,-36(s0)
 725:../Firmware/GD32VW55x_standard_peripheral/Source/gd32vw55x_fmc.c ****     }while((FMC_BUSY == fmc_state) && (0x00U != timeout));
 1796              		.loc 1 725 5 discriminator 2
 1797 0028 0327C4FE 		lw	a4,-20(s0)
 1798 002c 8547     		li	a5,1
 1799 002e 6315F700 		bne	a4,a5,.L83
 1800              		.loc 1 725 36 discriminator 1
 1801 0032 8327C4FD 		lw	a5,-36(s0)
 1802 0036 F1FF     		bne	a5,zero,.L84
 1803              	.L83:
 726:../Firmware/GD32VW55x_standard_peripheral/Source/gd32vw55x_fmc.c **** 
 727:../Firmware/GD32VW55x_standard_peripheral/Source/gd32vw55x_fmc.c ****     if (FMC_BUSY == fmc_state){
 1804              		.loc 1 727 8
 1805 0038 0327C4FE 		lw	a4,-20(s0)
 1806 003c 8547     		li	a5,1
 1807 003e 6315F700 		bne	a4,a5,.L85
 728:../Firmware/GD32VW55x_standard_peripheral/Source/gd32vw55x_fmc.c ****         fmc_state = FMC_TOERR;
 1808              		.loc 1 728 19
 1809 0042 8D47     		li	a5,3
 1810 0044 2326F4FE 		sw	a5,-20(s0)
 1811              	.L85:
 729:../Firmware/GD32VW55x_standard_peripheral/Source/gd32vw55x_fmc.c ****     }
 730:../Firmware/GD32VW55x_standard_peripheral/Source/gd32vw55x_fmc.c **** 
 731:../Firmware/GD32VW55x_standard_peripheral/Source/gd32vw55x_fmc.c ****     /* return the FMC state */
 732:../Firmware/GD32VW55x_standard_peripheral/Source/gd32vw55x_fmc.c ****     return fmc_state;
 1812              		.loc 1 732 12
 1813 0048 8327C4FE 		lw	a5,-20(s0)
 733:../Firmware/GD32VW55x_standard_peripheral/Source/gd32vw55x_fmc.c **** }
 1814              		.loc 1 733 1
 1815 004c 3E85     		mv	a0,a5
 1816 004e B250     		lw	ra,44(sp)
 1817              		.cfi_restore 1
 1818 0050 2254     		lw	s0,40(sp)
 1819              		.cfi_restore 8
 1820              		.cfi_def_cfa 2, 48
 1821 0052 4561     		addi	sp,sp,48
 1822              		.cfi_def_cfa_offset 0
 1823 0054 8280     		jr	ra
 1824              		.cfi_endproc
 1825              	.LFE379:
 1827              		.text
 1828              	.Letext0:
 1829              		.file 2 "e:\\gd32\\gd32embeddedbuilder_v1.5.2.30854\\tools\\nuclei_riscv_newlibc_prebuilt_win32_20
 1830              		.file 3 "e:\\gd32\\gd32embeddedbuilder_v1.5.2.30854\\tools\\nuclei_riscv_newlibc_prebuilt_win32_20
 1831              		.file 4 "../Firmware/GD32VW55x_standard_peripheral/gd32vw55x.h"
 1832              		.file 5 "../Firmware/GD32VW55x_standard_peripheral/Include/gd32vw55x_fmc.h"
DEFINED SYMBOLS
                            *ABS*:0000000000000000 gd32vw55x_fmc.c
C:\Users\CYMR90~1\AppData\Local\Temp\ccX1amHi.s:13     .text.fmc_unlock:0000000000000000 fmc_unlock
C:\Users\CYMR90~1\AppData\Local\Temp\ccX1amHi.s:17     .text.fmc_unlock:0000000000000000 .L0 
C:\Users\CYMR90~1\AppData\Local\Temp\ccX1amHi.s:18     .text.fmc_unlock:0000000000000000 .L0 
C:\Users\CYMR90~1\AppData\Local\Temp\ccX1amHi.s:19     .text.fmc_unlock:0000000000000002 .L0 
C:\Users\CYMR90~1\AppData\Local\Temp\ccX1amHi.s:21     .text.fmc_unlock:0000000000000004 .L0 
C:\Users\CYMR90~1\AppData\Local\Temp\ccX1amHi.s:23     .text.fmc_unlock:0000000000000006 .L0 
C:\Users\CYMR90~1\AppData\Local\Temp\ccX1amHi.s:25     .text.fmc_unlock:0000000000000006 .L0 
C:\Users\CYMR90~1\AppData\Local\Temp\ccX1amHi.s:29     .text.fmc_unlock:000000000000000e .L0 
C:\Users\CYMR90~1\AppData\Local\Temp\ccX1amHi.s:31     .text.fmc_unlock:0000000000000012 .L0 
C:\Users\CYMR90~1\AppData\Local\Temp\ccX1amHi.s:33     .text.fmc_unlock:0000000000000014 .L0 
C:\Users\CYMR90~1\AppData\Local\Temp\ccX1amHi.s:36     .text.fmc_unlock:000000000000001a .L0 
C:\Users\CYMR90~1\AppData\Local\Temp\ccX1amHi.s:40     .text.fmc_unlock:0000000000000024 .L0 
C:\Users\CYMR90~1\AppData\Local\Temp\ccX1amHi.s:43     .text.fmc_unlock:000000000000002a .L0 
C:\Users\CYMR90~1\AppData\Local\Temp\ccX1amHi.s:48     .text.fmc_unlock:0000000000000034 .L0 
C:\Users\CYMR90~1\AppData\Local\Temp\ccX1amHi.s:50     .text.fmc_unlock:0000000000000038 .L0 
C:\Users\CYMR90~1\AppData\Local\Temp\ccX1amHi.s:51     .text.fmc_unlock:0000000000000038 .L0 
C:\Users\CYMR90~1\AppData\Local\Temp\ccX1amHi.s:53     .text.fmc_unlock:000000000000003a .L0 
C:\Users\CYMR90~1\AppData\Local\Temp\ccX1amHi.s:55     .text.fmc_unlock:000000000000003c .L0 
C:\Users\CYMR90~1\AppData\Local\Temp\ccX1amHi.s:62     .text.fmc_lock:0000000000000000 fmc_lock
C:\Users\CYMR90~1\AppData\Local\Temp\ccX1amHi.s:65     .text.fmc_lock:0000000000000000 .L0 
C:\Users\CYMR90~1\AppData\Local\Temp\ccX1amHi.s:66     .text.fmc_lock:0000000000000000 .L0 
C:\Users\CYMR90~1\AppData\Local\Temp\ccX1amHi.s:67     .text.fmc_lock:0000000000000002 .L0 
C:\Users\CYMR90~1\AppData\Local\Temp\ccX1amHi.s:69     .text.fmc_lock:0000000000000004 .L0 
C:\Users\CYMR90~1\AppData\Local\Temp\ccX1amHi.s:71     .text.fmc_lock:0000000000000006 .L0 
C:\Users\CYMR90~1\AppData\Local\Temp\ccX1amHi.s:73     .text.fmc_lock:0000000000000006 .L0 
C:\Users\CYMR90~1\AppData\Local\Temp\ccX1amHi.s:81     .text.fmc_lock:000000000000001a .L0 
C:\Users\CYMR90~1\AppData\Local\Temp\ccX1amHi.s:83     .text.fmc_lock:000000000000001e .L0 
C:\Users\CYMR90~1\AppData\Local\Temp\ccX1amHi.s:84     .text.fmc_lock:000000000000001e .L0 
C:\Users\CYMR90~1\AppData\Local\Temp\ccX1amHi.s:86     .text.fmc_lock:0000000000000020 .L0 
C:\Users\CYMR90~1\AppData\Local\Temp\ccX1amHi.s:88     .text.fmc_lock:0000000000000022 .L0 
C:\Users\CYMR90~1\AppData\Local\Temp\ccX1amHi.s:95     .text.fmc_page_erase:0000000000000000 fmc_page_erase
C:\Users\CYMR90~1\AppData\Local\Temp\ccX1amHi.s:98     .text.fmc_page_erase:0000000000000000 .L0 
C:\Users\CYMR90~1\AppData\Local\Temp\ccX1amHi.s:99     .text.fmc_page_erase:0000000000000000 .L0 
C:\Users\CYMR90~1\AppData\Local\Temp\ccX1amHi.s:100    .text.fmc_page_erase:0000000000000002 .L0 
C:\Users\CYMR90~1\AppData\Local\Temp\ccX1amHi.s:103    .text.fmc_page_erase:0000000000000006 .L0 
C:\Users\CYMR90~1\AppData\Local\Temp\ccX1amHi.s:104    .text.fmc_page_erase:0000000000000006 .L0 
C:\Users\CYMR90~1\AppData\Local\Temp\ccX1amHi.s:106    .text.fmc_page_erase:0000000000000008 .L0 
C:\Users\CYMR90~1\AppData\Local\Temp\ccX1amHi.s:109    .text.fmc_page_erase:000000000000000c .L0 
C:\Users\CYMR90~1\AppData\Local\Temp\ccX1amHi.s:111    .text.fmc_page_erase:0000000000000010 .L0 
C:\Users\CYMR90~1\AppData\Local\Temp\ccX1amHi.s:1772   .text.fmc_ready_wait:0000000000000000 fmc_ready_wait
C:\Users\CYMR90~1\AppData\Local\Temp\ccX1amHi.s:115    .text.fmc_page_erase:0000000000000020 .L0 
C:\Users\CYMR90~1\AppData\Local\Temp\ccX1amHi.s:118    .text.fmc_page_erase:0000000000000026 .L0 
C:\Users\CYMR90~1\AppData\Local\Temp\ccX1amHi.s:126    .text.fmc_page_erase:000000000000003a .L0 
C:\Users\CYMR90~1\AppData\Local\Temp\ccX1amHi.s:129    .text.fmc_page_erase:0000000000000040 .L0 
C:\Users\CYMR90~1\AppData\Local\Temp\ccX1amHi.s:132    .text.fmc_page_erase:0000000000000046 .L0 
C:\Users\CYMR90~1\AppData\Local\Temp\ccX1amHi.s:140    .text.fmc_page_erase:000000000000005a .L0 
C:\Users\CYMR90~1\AppData\Local\Temp\ccX1amHi.s:144    .text.fmc_page_erase:000000000000006a .L0 
C:\Users\CYMR90~1\AppData\Local\Temp\ccX1amHi.s:153    .text.fmc_page_erase:000000000000007c .L0 
C:\Users\CYMR90~1\AppData\Local\Temp\ccX1amHi.s:155    .text.fmc_page_erase:0000000000000080 .L0 
C:\Users\CYMR90~1\AppData\Local\Temp\ccX1amHi.s:157    .text.fmc_page_erase:0000000000000084 .L0 
C:\Users\CYMR90~1\AppData\Local\Temp\ccX1amHi.s:159    .text.fmc_page_erase:0000000000000086 .L0 
C:\Users\CYMR90~1\AppData\Local\Temp\ccX1amHi.s:160    .text.fmc_page_erase:0000000000000086 .L0 
C:\Users\CYMR90~1\AppData\Local\Temp\ccX1amHi.s:162    .text.fmc_page_erase:0000000000000088 .L0 
C:\Users\CYMR90~1\AppData\Local\Temp\ccX1amHi.s:164    .text.fmc_page_erase:000000000000008a .L0 
C:\Users\CYMR90~1\AppData\Local\Temp\ccX1amHi.s:171    .text.fmc_mass_erase:0000000000000000 fmc_mass_erase
C:\Users\CYMR90~1\AppData\Local\Temp\ccX1amHi.s:174    .text.fmc_mass_erase:0000000000000000 .L0 
C:\Users\CYMR90~1\AppData\Local\Temp\ccX1amHi.s:175    .text.fmc_mass_erase:0000000000000000 .L0 
C:\Users\CYMR90~1\AppData\Local\Temp\ccX1amHi.s:176    .text.fmc_mass_erase:0000000000000002 .L0 
C:\Users\CYMR90~1\AppData\Local\Temp\ccX1amHi.s:179    .text.fmc_mass_erase:0000000000000006 .L0 
C:\Users\CYMR90~1\AppData\Local\Temp\ccX1amHi.s:180    .text.fmc_mass_erase:0000000000000006 .L0 
C:\Users\CYMR90~1\AppData\Local\Temp\ccX1amHi.s:182    .text.fmc_mass_erase:0000000000000008 .L0 
C:\Users\CYMR90~1\AppData\Local\Temp\ccX1amHi.s:184    .text.fmc_mass_erase:0000000000000008 .L0 
C:\Users\CYMR90~1\AppData\Local\Temp\ccX1amHi.s:186    .text.fmc_mass_erase:000000000000000c .L0 
C:\Users\CYMR90~1\AppData\Local\Temp\ccX1amHi.s:190    .text.fmc_mass_erase:000000000000001c .L0 
C:\Users\CYMR90~1\AppData\Local\Temp\ccX1amHi.s:193    .text.fmc_mass_erase:0000000000000022 .L0 
C:\Users\CYMR90~1\AppData\Local\Temp\ccX1amHi.s:201    .text.fmc_mass_erase:0000000000000036 .L0 
C:\Users\CYMR90~1\AppData\Local\Temp\ccX1amHi.s:209    .text.fmc_mass_erase:000000000000004a .L0 
C:\Users\CYMR90~1\AppData\Local\Temp\ccX1amHi.s:213    .text.fmc_mass_erase:000000000000005a .L0 
C:\Users\CYMR90~1\AppData\Local\Temp\ccX1amHi.s:222    .text.fmc_mass_erase:000000000000006c .L0 
C:\Users\CYMR90~1\AppData\Local\Temp\ccX1amHi.s:224    .text.fmc_mass_erase:0000000000000070 .L0 
C:\Users\CYMR90~1\AppData\Local\Temp\ccX1amHi.s:226    .text.fmc_mass_erase:0000000000000074 .L0 
C:\Users\CYMR90~1\AppData\Local\Temp\ccX1amHi.s:228    .text.fmc_mass_erase:0000000000000076 .L0 
C:\Users\CYMR90~1\AppData\Local\Temp\ccX1amHi.s:229    .text.fmc_mass_erase:0000000000000076 .L0 
C:\Users\CYMR90~1\AppData\Local\Temp\ccX1amHi.s:231    .text.fmc_mass_erase:0000000000000078 .L0 
C:\Users\CYMR90~1\AppData\Local\Temp\ccX1amHi.s:233    .text.fmc_mass_erase:000000000000007a .L0 
C:\Users\CYMR90~1\AppData\Local\Temp\ccX1amHi.s:240    .text.fmc_word_program:0000000000000000 fmc_word_program
C:\Users\CYMR90~1\AppData\Local\Temp\ccX1amHi.s:243    .text.fmc_word_program:0000000000000000 .L0 
C:\Users\CYMR90~1\AppData\Local\Temp\ccX1amHi.s:244    .text.fmc_word_program:0000000000000000 .L0 
C:\Users\CYMR90~1\AppData\Local\Temp\ccX1amHi.s:245    .text.fmc_word_program:0000000000000002 .L0 
C:\Users\CYMR90~1\AppData\Local\Temp\ccX1amHi.s:248    .text.fmc_word_program:0000000000000006 .L0 
C:\Users\CYMR90~1\AppData\Local\Temp\ccX1amHi.s:249    .text.fmc_word_program:0000000000000006 .L0 
C:\Users\CYMR90~1\AppData\Local\Temp\ccX1amHi.s:251    .text.fmc_word_program:0000000000000008 .L0 
C:\Users\CYMR90~1\AppData\Local\Temp\ccX1amHi.s:255    .text.fmc_word_program:0000000000000010 .L0 
C:\Users\CYMR90~1\AppData\Local\Temp\ccX1amHi.s:257    .text.fmc_word_program:0000000000000014 .L0 
C:\Users\CYMR90~1\AppData\Local\Temp\ccX1amHi.s:261    .text.fmc_word_program:0000000000000024 .L0 
C:\Users\CYMR90~1\AppData\Local\Temp\ccX1amHi.s:264    .text.fmc_word_program:000000000000002a .L0 
C:\Users\CYMR90~1\AppData\Local\Temp\ccX1amHi.s:272    .text.fmc_word_program:000000000000003e .L0 
C:\Users\CYMR90~1\AppData\Local\Temp\ccX1amHi.s:274    .text.fmc_word_program:0000000000000042 .L0 
C:\Users\CYMR90~1\AppData\Local\Temp\ccX1amHi.s:277    .text.fmc_word_program:0000000000000048 .L0 
C:\Users\CYMR90~1\AppData\Local\Temp\ccX1amHi.s:281    .text.fmc_word_program:0000000000000058 .L0 
C:\Users\CYMR90~1\AppData\Local\Temp\ccX1amHi.s:290    .text.fmc_word_program:000000000000006a .L0 
C:\Users\CYMR90~1\AppData\Local\Temp\ccX1amHi.s:292    .text.fmc_word_program:000000000000006e .L0 
C:\Users\CYMR90~1\AppData\Local\Temp\ccX1amHi.s:294    .text.fmc_word_program:0000000000000072 .L0 
C:\Users\CYMR90~1\AppData\Local\Temp\ccX1amHi.s:296    .text.fmc_word_program:0000000000000074 .L0 
C:\Users\CYMR90~1\AppData\Local\Temp\ccX1amHi.s:297    .text.fmc_word_program:0000000000000074 .L0 
C:\Users\CYMR90~1\AppData\Local\Temp\ccX1amHi.s:299    .text.fmc_word_program:0000000000000076 .L0 
C:\Users\CYMR90~1\AppData\Local\Temp\ccX1amHi.s:301    .text.fmc_word_program:0000000000000078 .L0 
C:\Users\CYMR90~1\AppData\Local\Temp\ccX1amHi.s:308    .text.fmc_continuous_program:0000000000000000 fmc_continuous_program
C:\Users\CYMR90~1\AppData\Local\Temp\ccX1amHi.s:311    .text.fmc_continuous_program:0000000000000000 .L0 
C:\Users\CYMR90~1\AppData\Local\Temp\ccX1amHi.s:312    .text.fmc_continuous_program:0000000000000000 .L0 
C:\Users\CYMR90~1\AppData\Local\Temp\ccX1amHi.s:313    .text.fmc_continuous_program:0000000000000002 .L0 
C:\Users\CYMR90~1\AppData\Local\Temp\ccX1amHi.s:316    .text.fmc_continuous_program:0000000000000006 .L0 
C:\Users\CYMR90~1\AppData\Local\Temp\ccX1amHi.s:317    .text.fmc_continuous_program:0000000000000006 .L0 
C:\Users\CYMR90~1\AppData\Local\Temp\ccX1amHi.s:319    .text.fmc_continuous_program:0000000000000008 .L0 
C:\Users\CYMR90~1\AppData\Local\Temp\ccX1amHi.s:324    .text.fmc_continuous_program:0000000000000014 .L0 
C:\Users\CYMR90~1\AppData\Local\Temp\ccX1amHi.s:326    .text.fmc_continuous_program:0000000000000018 .L0 
C:\Users\CYMR90~1\AppData\Local\Temp\ccX1amHi.s:330    .text.fmc_continuous_program:0000000000000028 .L0 
C:\Users\CYMR90~1\AppData\Local\Temp\ccX1amHi.s:333    .text.fmc_continuous_program:000000000000002e .L0 
C:\Users\CYMR90~1\AppData\Local\Temp\ccX1amHi.s:342    .text.fmc_continuous_program:0000000000000042 .L0 
C:\Users\CYMR90~1\AppData\Local\Temp\ccX1amHi.s:344    .text.fmc_continuous_program:0000000000000046 .L0 
C:\Users\CYMR90~1\AppData\Local\Temp\ccX1amHi.s:347    .text.fmc_continuous_program:0000000000000048 .L0 
C:\Users\CYMR90~1\AppData\Local\Temp\ccX1amHi.s:352    .text.fmc_continuous_program:0000000000000054 .L0 
C:\Users\CYMR90~1\AppData\Local\Temp\ccX1amHi.s:354    .text.fmc_continuous_program:0000000000000058 .L0 
C:\Users\CYMR90~1\AppData\Local\Temp\ccX1amHi.s:356    .text.fmc_continuous_program:000000000000005a .L0 
C:\Users\CYMR90~1\AppData\Local\Temp\ccX1amHi.s:358    .text.fmc_continuous_program:000000000000005c .L0 
C:\Users\CYMR90~1\AppData\Local\Temp\ccX1amHi.s:362    .text.fmc_continuous_program:0000000000000066 .L0 
C:\Users\CYMR90~1\AppData\Local\Temp\ccX1amHi.s:367    .text.fmc_continuous_program:0000000000000070 .L0 
C:\Users\CYMR90~1\AppData\Local\Temp\ccX1amHi.s:372    .text.fmc_continuous_program:000000000000007c .L0 
C:\Users\CYMR90~1\AppData\Local\Temp\ccX1amHi.s:381    .text.fmc_continuous_program:000000000000008e .L0 
C:\Users\CYMR90~1\AppData\Local\Temp\ccX1amHi.s:383    .text.fmc_continuous_program:0000000000000092 .L0 
C:\Users\CYMR90~1\AppData\Local\Temp\ccX1amHi.s:385    .text.fmc_continuous_program:0000000000000096 .L0 
C:\Users\CYMR90~1\AppData\Local\Temp\ccX1amHi.s:387    .text.fmc_continuous_program:0000000000000098 .L0 
C:\Users\CYMR90~1\AppData\Local\Temp\ccX1amHi.s:388    .text.fmc_continuous_program:0000000000000098 .L0 
C:\Users\CYMR90~1\AppData\Local\Temp\ccX1amHi.s:390    .text.fmc_continuous_program:000000000000009a .L0 
C:\Users\CYMR90~1\AppData\Local\Temp\ccX1amHi.s:392    .text.fmc_continuous_program:000000000000009c .L0 
C:\Users\CYMR90~1\AppData\Local\Temp\ccX1amHi.s:399    .text.fmc_obr_function_enable:0000000000000000 fmc_obr_function_enable
C:\Users\CYMR90~1\AppData\Local\Temp\ccX1amHi.s:402    .text.fmc_obr_function_enable:0000000000000000 .L0 
C:\Users\CYMR90~1\AppData\Local\Temp\ccX1amHi.s:403    .text.fmc_obr_function_enable:0000000000000000 .L0 
C:\Users\CYMR90~1\AppData\Local\Temp\ccX1amHi.s:404    .text.fmc_obr_function_enable:0000000000000002 .L0 
C:\Users\CYMR90~1\AppData\Local\Temp\ccX1amHi.s:406    .text.fmc_obr_function_enable:0000000000000004 .L0 
C:\Users\CYMR90~1\AppData\Local\Temp\ccX1amHi.s:408    .text.fmc_obr_function_enable:0000000000000006 .L0 
C:\Users\CYMR90~1\AppData\Local\Temp\ccX1amHi.s:411    .text.fmc_obr_function_enable:000000000000000a .L0 
C:\Users\CYMR90~1\AppData\Local\Temp\ccX1amHi.s:420    .text.fmc_obr_function_enable:0000000000000024 .L0 
C:\Users\CYMR90~1\AppData\Local\Temp\ccX1amHi.s:422    .text.fmc_obr_function_enable:0000000000000028 .L0 
C:\Users\CYMR90~1\AppData\Local\Temp\ccX1amHi.s:423    .text.fmc_obr_function_enable:0000000000000028 .L0 
C:\Users\CYMR90~1\AppData\Local\Temp\ccX1amHi.s:425    .text.fmc_obr_function_enable:000000000000002a .L0 
C:\Users\CYMR90~1\AppData\Local\Temp\ccX1amHi.s:427    .text.fmc_obr_function_enable:000000000000002c .L0 
C:\Users\CYMR90~1\AppData\Local\Temp\ccX1amHi.s:434    .text.fmc_obr_function_disable:0000000000000000 fmc_obr_function_disable
C:\Users\CYMR90~1\AppData\Local\Temp\ccX1amHi.s:437    .text.fmc_obr_function_disable:0000000000000000 .L0 
C:\Users\CYMR90~1\AppData\Local\Temp\ccX1amHi.s:438    .text.fmc_obr_function_disable:0000000000000000 .L0 
C:\Users\CYMR90~1\AppData\Local\Temp\ccX1amHi.s:439    .text.fmc_obr_function_disable:0000000000000002 .L0 
C:\Users\CYMR90~1\AppData\Local\Temp\ccX1amHi.s:441    .text.fmc_obr_function_disable:0000000000000004 .L0 
C:\Users\CYMR90~1\AppData\Local\Temp\ccX1amHi.s:443    .text.fmc_obr_function_disable:0000000000000006 .L0 
C:\Users\CYMR90~1\AppData\Local\Temp\ccX1amHi.s:446    .text.fmc_obr_function_disable:000000000000000a .L0 
C:\Users\CYMR90~1\AppData\Local\Temp\ccX1amHi.s:450    .text.fmc_obr_function_disable:0000000000000014 .L0 
C:\Users\CYMR90~1\AppData\Local\Temp\ccX1amHi.s:453    .text.fmc_obr_function_disable:000000000000001c .L0 
C:\Users\CYMR90~1\AppData\Local\Temp\ccX1amHi.s:458    .text.fmc_obr_function_disable:0000000000000028 .L0 
C:\Users\CYMR90~1\AppData\Local\Temp\ccX1amHi.s:460    .text.fmc_obr_function_disable:000000000000002c .L0 
C:\Users\CYMR90~1\AppData\Local\Temp\ccX1amHi.s:461    .text.fmc_obr_function_disable:000000000000002c .L0 
C:\Users\CYMR90~1\AppData\Local\Temp\ccX1amHi.s:463    .text.fmc_obr_function_disable:000000000000002e .L0 
C:\Users\CYMR90~1\AppData\Local\Temp\ccX1amHi.s:465    .text.fmc_obr_function_disable:0000000000000030 .L0 
C:\Users\CYMR90~1\AppData\Local\Temp\ccX1amHi.s:472    .text.ob_unlock:0000000000000000 ob_unlock
C:\Users\CYMR90~1\AppData\Local\Temp\ccX1amHi.s:475    .text.ob_unlock:0000000000000000 .L0 
C:\Users\CYMR90~1\AppData\Local\Temp\ccX1amHi.s:476    .text.ob_unlock:0000000000000000 .L0 
C:\Users\CYMR90~1\AppData\Local\Temp\ccX1amHi.s:477    .text.ob_unlock:0000000000000002 .L0 
C:\Users\CYMR90~1\AppData\Local\Temp\ccX1amHi.s:479    .text.ob_unlock:0000000000000004 .L0 
C:\Users\CYMR90~1\AppData\Local\Temp\ccX1amHi.s:481    .text.ob_unlock:0000000000000006 .L0 
C:\Users\CYMR90~1\AppData\Local\Temp\ccX1amHi.s:483    .text.ob_unlock:0000000000000006 .L0 
C:\Users\CYMR90~1\AppData\Local\Temp\ccX1amHi.s:487    .text.ob_unlock:000000000000000e .L0 
C:\Users\CYMR90~1\AppData\Local\Temp\ccX1amHi.s:489    .text.ob_unlock:0000000000000012 .L0 
C:\Users\CYMR90~1\AppData\Local\Temp\ccX1amHi.s:491    .text.ob_unlock:0000000000000014 .L0 
C:\Users\CYMR90~1\AppData\Local\Temp\ccX1amHi.s:494    .text.ob_unlock:000000000000001a .L0 
C:\Users\CYMR90~1\AppData\Local\Temp\ccX1amHi.s:498    .text.ob_unlock:0000000000000024 .L0 
C:\Users\CYMR90~1\AppData\Local\Temp\ccX1amHi.s:501    .text.ob_unlock:000000000000002a .L0 
C:\Users\CYMR90~1\AppData\Local\Temp\ccX1amHi.s:506    .text.ob_unlock:0000000000000034 .L0 
C:\Users\CYMR90~1\AppData\Local\Temp\ccX1amHi.s:508    .text.ob_unlock:0000000000000038 .L0 
C:\Users\CYMR90~1\AppData\Local\Temp\ccX1amHi.s:509    .text.ob_unlock:0000000000000038 .L0 
C:\Users\CYMR90~1\AppData\Local\Temp\ccX1amHi.s:511    .text.ob_unlock:000000000000003a .L0 
C:\Users\CYMR90~1\AppData\Local\Temp\ccX1amHi.s:513    .text.ob_unlock:000000000000003c .L0 
C:\Users\CYMR90~1\AppData\Local\Temp\ccX1amHi.s:520    .text.ob_lock:0000000000000000 ob_lock
C:\Users\CYMR90~1\AppData\Local\Temp\ccX1amHi.s:523    .text.ob_lock:0000000000000000 .L0 
C:\Users\CYMR90~1\AppData\Local\Temp\ccX1amHi.s:524    .text.ob_lock:0000000000000000 .L0 
C:\Users\CYMR90~1\AppData\Local\Temp\ccX1amHi.s:525    .text.ob_lock:0000000000000002 .L0 
C:\Users\CYMR90~1\AppData\Local\Temp\ccX1amHi.s:527    .text.ob_lock:0000000000000004 .L0 
C:\Users\CYMR90~1\AppData\Local\Temp\ccX1amHi.s:529    .text.ob_lock:0000000000000006 .L0 
C:\Users\CYMR90~1\AppData\Local\Temp\ccX1amHi.s:531    .text.ob_lock:0000000000000006 .L0 
C:\Users\CYMR90~1\AppData\Local\Temp\ccX1amHi.s:539    .text.ob_lock:000000000000001a .L0 
C:\Users\CYMR90~1\AppData\Local\Temp\ccX1amHi.s:541    .text.ob_lock:000000000000001e .L0 
C:\Users\CYMR90~1\AppData\Local\Temp\ccX1amHi.s:542    .text.ob_lock:000000000000001e .L0 
C:\Users\CYMR90~1\AppData\Local\Temp\ccX1amHi.s:544    .text.ob_lock:0000000000000020 .L0 
C:\Users\CYMR90~1\AppData\Local\Temp\ccX1amHi.s:546    .text.ob_lock:0000000000000022 .L0 
C:\Users\CYMR90~1\AppData\Local\Temp\ccX1amHi.s:553    .text.ob_start:0000000000000000 ob_start
C:\Users\CYMR90~1\AppData\Local\Temp\ccX1amHi.s:556    .text.ob_start:0000000000000000 .L0 
C:\Users\CYMR90~1\AppData\Local\Temp\ccX1amHi.s:557    .text.ob_start:0000000000000000 .L0 
C:\Users\CYMR90~1\AppData\Local\Temp\ccX1amHi.s:558    .text.ob_start:0000000000000002 .L0 
C:\Users\CYMR90~1\AppData\Local\Temp\ccX1amHi.s:560    .text.ob_start:0000000000000004 .L0 
C:\Users\CYMR90~1\AppData\Local\Temp\ccX1amHi.s:562    .text.ob_start:0000000000000006 .L0 
C:\Users\CYMR90~1\AppData\Local\Temp\ccX1amHi.s:564    .text.ob_start:0000000000000006 .L0 
C:\Users\CYMR90~1\AppData\Local\Temp\ccX1amHi.s:574    .text.ob_start:000000000000001e .L0 
C:\Users\CYMR90~1\AppData\Local\Temp\ccX1amHi.s:576    .text.ob_start:0000000000000022 .L0 
C:\Users\CYMR90~1\AppData\Local\Temp\ccX1amHi.s:577    .text.ob_start:0000000000000022 .L0 
C:\Users\CYMR90~1\AppData\Local\Temp\ccX1amHi.s:579    .text.ob_start:0000000000000024 .L0 
C:\Users\CYMR90~1\AppData\Local\Temp\ccX1amHi.s:581    .text.ob_start:0000000000000026 .L0 
C:\Users\CYMR90~1\AppData\Local\Temp\ccX1amHi.s:588    .text.ob_reload:0000000000000000 ob_reload
C:\Users\CYMR90~1\AppData\Local\Temp\ccX1amHi.s:591    .text.ob_reload:0000000000000000 .L0 
C:\Users\CYMR90~1\AppData\Local\Temp\ccX1amHi.s:592    .text.ob_reload:0000000000000000 .L0 
C:\Users\CYMR90~1\AppData\Local\Temp\ccX1amHi.s:593    .text.ob_reload:0000000000000002 .L0 
C:\Users\CYMR90~1\AppData\Local\Temp\ccX1amHi.s:595    .text.ob_reload:0000000000000004 .L0 
C:\Users\CYMR90~1\AppData\Local\Temp\ccX1amHi.s:597    .text.ob_reload:0000000000000006 .L0 
C:\Users\CYMR90~1\AppData\Local\Temp\ccX1amHi.s:599    .text.ob_reload:0000000000000006 .L0 
C:\Users\CYMR90~1\AppData\Local\Temp\ccX1amHi.s:608    .text.ob_reload:000000000000001a .L0 
C:\Users\CYMR90~1\AppData\Local\Temp\ccX1amHi.s:610    .text.ob_reload:000000000000001e .L0 
C:\Users\CYMR90~1\AppData\Local\Temp\ccX1amHi.s:611    .text.ob_reload:000000000000001e .L0 
C:\Users\CYMR90~1\AppData\Local\Temp\ccX1amHi.s:613    .text.ob_reload:0000000000000020 .L0 
C:\Users\CYMR90~1\AppData\Local\Temp\ccX1amHi.s:615    .text.ob_reload:0000000000000022 .L0 
C:\Users\CYMR90~1\AppData\Local\Temp\ccX1amHi.s:622    .text.ob_security_protection_config:0000000000000000 ob_security_protection_config
C:\Users\CYMR90~1\AppData\Local\Temp\ccX1amHi.s:625    .text.ob_security_protection_config:0000000000000000 .L0 
C:\Users\CYMR90~1\AppData\Local\Temp\ccX1amHi.s:626    .text.ob_security_protection_config:0000000000000000 .L0 
C:\Users\CYMR90~1\AppData\Local\Temp\ccX1amHi.s:627    .text.ob_security_protection_config:0000000000000002 .L0 
C:\Users\CYMR90~1\AppData\Local\Temp\ccX1amHi.s:630    .text.ob_security_protection_config:0000000000000006 .L0 
C:\Users\CYMR90~1\AppData\Local\Temp\ccX1amHi.s:631    .text.ob_security_protection_config:0000000000000006 .L0 
C:\Users\CYMR90~1\AppData\Local\Temp\ccX1amHi.s:633    .text.ob_security_protection_config:0000000000000008 .L0 
C:\Users\CYMR90~1\AppData\Local\Temp\ccX1amHi.s:637    .text.ob_security_protection_config:000000000000000e .L0 
C:\Users\CYMR90~1\AppData\Local\Temp\ccX1amHi.s:641    .text.ob_security_protection_config:000000000000001e .L0 
C:\Users\CYMR90~1\AppData\Local\Temp\ccX1amHi.s:644    .text.ob_security_protection_config:0000000000000024 .L0 
C:\Users\CYMR90~1\AppData\Local\Temp\ccX1amHi.s:652    .text.ob_security_protection_config:000000000000003c .L0 
C:\Users\CYMR90~1\AppData\Local\Temp\ccX1amHi.s:661    .text.ob_security_protection_config:0000000000000056 .L0 
C:\Users\CYMR90~1\AppData\Local\Temp\ccX1amHi.s:670    .text.ob_security_protection_config:000000000000006a .L0 
C:\Users\CYMR90~1\AppData\Local\Temp\ccX1amHi.s:675    .text.ob_security_protection_config:000000000000007a .L0 
C:\Users\CYMR90~1\AppData\Local\Temp\ccX1amHi.s:677    .text.ob_security_protection_config:000000000000007e .L0 
C:\Users\CYMR90~1\AppData\Local\Temp\ccX1amHi.s:679    .text.ob_security_protection_config:0000000000000082 .L0 
C:\Users\CYMR90~1\AppData\Local\Temp\ccX1amHi.s:681    .text.ob_security_protection_config:0000000000000084 .L0 
C:\Users\CYMR90~1\AppData\Local\Temp\ccX1amHi.s:682    .text.ob_security_protection_config:0000000000000084 .L0 
C:\Users\CYMR90~1\AppData\Local\Temp\ccX1amHi.s:684    .text.ob_security_protection_config:0000000000000086 .L0 
C:\Users\CYMR90~1\AppData\Local\Temp\ccX1amHi.s:686    .text.ob_security_protection_config:0000000000000088 .L0 
C:\Users\CYMR90~1\AppData\Local\Temp\ccX1amHi.s:693    .text.ob_user_write:0000000000000000 ob_user_write
C:\Users\CYMR90~1\AppData\Local\Temp\ccX1amHi.s:696    .text.ob_user_write:0000000000000000 .L0 
C:\Users\CYMR90~1\AppData\Local\Temp\ccX1amHi.s:697    .text.ob_user_write:0000000000000000 .L0 
C:\Users\CYMR90~1\AppData\Local\Temp\ccX1amHi.s:698    .text.ob_user_write:0000000000000002 .L0 
C:\Users\CYMR90~1\AppData\Local\Temp\ccX1amHi.s:701    .text.ob_user_write:0000000000000006 .L0 
C:\Users\CYMR90~1\AppData\Local\Temp\ccX1amHi.s:702    .text.ob_user_write:0000000000000006 .L0 
C:\Users\CYMR90~1\AppData\Local\Temp\ccX1amHi.s:704    .text.ob_user_write:0000000000000008 .L0 
C:\Users\CYMR90~1\AppData\Local\Temp\ccX1amHi.s:707    .text.ob_user_write:000000000000000c .L0 
C:\Users\CYMR90~1\AppData\Local\Temp\ccX1amHi.s:711    .text.ob_user_write:000000000000001c .L0 
C:\Users\CYMR90~1\AppData\Local\Temp\ccX1amHi.s:714    .text.ob_user_write:0000000000000022 .L0 
C:\Users\CYMR90~1\AppData\Local\Temp\ccX1amHi.s:721    .text.ob_user_write:0000000000000038 .L0 
C:\Users\CYMR90~1\AppData\Local\Temp\ccX1amHi.s:730    .text.ob_user_write:0000000000000052 .L0 
C:\Users\CYMR90~1\AppData\Local\Temp\ccX1amHi.s:739    .text.ob_user_write:0000000000000066 .L0 
C:\Users\CYMR90~1\AppData\Local\Temp\ccX1amHi.s:744    .text.ob_user_write:0000000000000076 .L0 
C:\Users\CYMR90~1\AppData\Local\Temp\ccX1amHi.s:746    .text.ob_user_write:000000000000007a .L0 
C:\Users\CYMR90~1\AppData\Local\Temp\ccX1amHi.s:748    .text.ob_user_write:000000000000007e .L0 
C:\Users\CYMR90~1\AppData\Local\Temp\ccX1amHi.s:750    .text.ob_user_write:0000000000000080 .L0 
C:\Users\CYMR90~1\AppData\Local\Temp\ccX1amHi.s:751    .text.ob_user_write:0000000000000080 .L0 
C:\Users\CYMR90~1\AppData\Local\Temp\ccX1amHi.s:753    .text.ob_user_write:0000000000000082 .L0 
C:\Users\CYMR90~1\AppData\Local\Temp\ccX1amHi.s:755    .text.ob_user_write:0000000000000084 .L0 
C:\Users\CYMR90~1\AppData\Local\Temp\ccX1amHi.s:762    .text.ob_write_protection_config:0000000000000000 ob_write_protection_config
C:\Users\CYMR90~1\AppData\Local\Temp\ccX1amHi.s:765    .text.ob_write_protection_config:0000000000000000 .L0 
C:\Users\CYMR90~1\AppData\Local\Temp\ccX1amHi.s:766    .text.ob_write_protection_config:0000000000000000 .L0 
C:\Users\CYMR90~1\AppData\Local\Temp\ccX1amHi.s:767    .text.ob_write_protection_config:0000000000000002 .L0 
C:\Users\CYMR90~1\AppData\Local\Temp\ccX1amHi.s:770    .text.ob_write_protection_config:0000000000000006 .L0 
C:\Users\CYMR90~1\AppData\Local\Temp\ccX1amHi.s:771    .text.ob_write_protection_config:0000000000000006 .L0 
C:\Users\CYMR90~1\AppData\Local\Temp\ccX1amHi.s:773    .text.ob_write_protection_config:0000000000000008 .L0 
C:\Users\CYMR90~1\AppData\Local\Temp\ccX1amHi.s:778    .text.ob_write_protection_config:0000000000000014 .L0 
C:\Users\CYMR90~1\AppData\Local\Temp\ccX1amHi.s:782    .text.ob_write_protection_config:0000000000000024 .L0 
C:\Users\CYMR90~1\AppData\Local\Temp\ccX1amHi.s:785    .text.ob_write_protection_config:000000000000002a .L0 
C:\Users\CYMR90~1\AppData\Local\Temp\ccX1amHi.s:791    .text.ob_write_protection_config:000000000000003a .L0 
C:\Users\CYMR90~1\AppData\Local\Temp\ccX1amHi.s:794    .text.ob_write_protection_config:000000000000003c .L0 
C:\Users\CYMR90~1\AppData\Local\Temp\ccX1amHi.s:797    .text.ob_write_protection_config:0000000000000044 .L0 
C:\Users\CYMR90~1\AppData\Local\Temp\ccX1amHi.s:799    .text.ob_write_protection_config:0000000000000048 .L0 
C:\Users\CYMR90~1\AppData\Local\Temp\ccX1amHi.s:808    .text.ob_write_protection_config:0000000000000062 .L0 
C:\Users\CYMR90~1\AppData\Local\Temp\ccX1amHi.s:812    .text.ob_write_protection_config:000000000000006c .L0 
C:\Users\CYMR90~1\AppData\Local\Temp\ccX1amHi.s:815    .text.ob_write_protection_config:0000000000000074 .L0 
C:\Users\CYMR90~1\AppData\Local\Temp\ccX1amHi.s:820    .text.ob_write_protection_config:0000000000000080 .L0 
C:\Users\CYMR90~1\AppData\Local\Temp\ccX1amHi.s:823    .text.ob_write_protection_config:0000000000000082 .L0 
C:\Users\CYMR90~1\AppData\Local\Temp\ccX1amHi.s:826    .text.ob_write_protection_config:000000000000008a .L0 
C:\Users\CYMR90~1\AppData\Local\Temp\ccX1amHi.s:828    .text.ob_write_protection_config:000000000000008e .L0 
C:\Users\CYMR90~1\AppData\Local\Temp\ccX1amHi.s:837    .text.ob_write_protection_config:00000000000000a8 .L0 
C:\Users\CYMR90~1\AppData\Local\Temp\ccX1amHi.s:841    .text.ob_write_protection_config:00000000000000b2 .L0 
C:\Users\CYMR90~1\AppData\Local\Temp\ccX1amHi.s:844    .text.ob_write_protection_config:00000000000000ba .L0 
C:\Users\CYMR90~1\AppData\Local\Temp\ccX1amHi.s:849    .text.ob_write_protection_config:00000000000000c6 .L0 
C:\Users\CYMR90~1\AppData\Local\Temp\ccX1amHi.s:852    .text.ob_write_protection_config:00000000000000c8 .L0 
C:\Users\CYMR90~1\AppData\Local\Temp\ccX1amHi.s:861    .text.ob_write_protection_config:00000000000000dc .L0 
C:\Users\CYMR90~1\AppData\Local\Temp\ccX1amHi.s:866    .text.ob_write_protection_config:00000000000000ec .L0 
C:\Users\CYMR90~1\AppData\Local\Temp\ccX1amHi.s:868    .text.ob_write_protection_config:00000000000000f0 .L0 
C:\Users\CYMR90~1\AppData\Local\Temp\ccX1amHi.s:870    .text.ob_write_protection_config:00000000000000f4 .L0 
C:\Users\CYMR90~1\AppData\Local\Temp\ccX1amHi.s:872    .text.ob_write_protection_config:00000000000000f6 .L0 
C:\Users\CYMR90~1\AppData\Local\Temp\ccX1amHi.s:873    .text.ob_write_protection_config:00000000000000f6 .L0 
C:\Users\CYMR90~1\AppData\Local\Temp\ccX1amHi.s:875    .text.ob_write_protection_config:00000000000000f8 .L0 
C:\Users\CYMR90~1\AppData\Local\Temp\ccX1amHi.s:877    .text.ob_write_protection_config:00000000000000fa .L0 
C:\Users\CYMR90~1\AppData\Local\Temp\ccX1amHi.s:884    .text.fmc_no_rtdec_config:0000000000000000 fmc_no_rtdec_config
C:\Users\CYMR90~1\AppData\Local\Temp\ccX1amHi.s:887    .text.fmc_no_rtdec_config:0000000000000000 .L0 
C:\Users\CYMR90~1\AppData\Local\Temp\ccX1amHi.s:888    .text.fmc_no_rtdec_config:0000000000000000 .L0 
C:\Users\CYMR90~1\AppData\Local\Temp\ccX1amHi.s:889    .text.fmc_no_rtdec_config:0000000000000002 .L0 
C:\Users\CYMR90~1\AppData\Local\Temp\ccX1amHi.s:891    .text.fmc_no_rtdec_config:0000000000000004 .L0 
C:\Users\CYMR90~1\AppData\Local\Temp\ccX1amHi.s:893    .text.fmc_no_rtdec_config:0000000000000006 .L0 
C:\Users\CYMR90~1\AppData\Local\Temp\ccX1amHi.s:898    .text.fmc_no_rtdec_config:0000000000000012 .L0 
C:\Users\CYMR90~1\AppData\Local\Temp\ccX1amHi.s:916    .text.fmc_no_rtdec_config:000000000000004a .L0 
C:\Users\CYMR90~1\AppData\Local\Temp\ccX1amHi.s:919    .text.fmc_no_rtdec_config:000000000000004c .L0 
C:\Users\CYMR90~1\AppData\Local\Temp\ccX1amHi.s:922    .text.fmc_no_rtdec_config:0000000000000054 .L0 
C:\Users\CYMR90~1\AppData\Local\Temp\ccX1amHi.s:924    .text.fmc_no_rtdec_config:0000000000000058 .L0 
C:\Users\CYMR90~1\AppData\Local\Temp\ccX1amHi.s:933    .text.fmc_no_rtdec_config:0000000000000072 .L0 
C:\Users\CYMR90~1\AppData\Local\Temp\ccX1amHi.s:937    .text.fmc_no_rtdec_config:000000000000007c .L0 
C:\Users\CYMR90~1\AppData\Local\Temp\ccX1amHi.s:940    .text.fmc_no_rtdec_config:0000000000000084 .L0 
C:\Users\CYMR90~1\AppData\Local\Temp\ccX1amHi.s:945    .text.fmc_no_rtdec_config:0000000000000090 .L0 
C:\Users\CYMR90~1\AppData\Local\Temp\ccX1amHi.s:948    .text.fmc_no_rtdec_config:0000000000000092 .L0 
C:\Users\CYMR90~1\AppData\Local\Temp\ccX1amHi.s:951    .text.fmc_no_rtdec_config:000000000000009a .L0 
C:\Users\CYMR90~1\AppData\Local\Temp\ccX1amHi.s:953    .text.fmc_no_rtdec_config:000000000000009e .L0 
C:\Users\CYMR90~1\AppData\Local\Temp\ccX1amHi.s:962    .text.fmc_no_rtdec_config:00000000000000b8 .L0 
C:\Users\CYMR90~1\AppData\Local\Temp\ccX1amHi.s:966    .text.fmc_no_rtdec_config:00000000000000c2 .L0 
C:\Users\CYMR90~1\AppData\Local\Temp\ccX1amHi.s:969    .text.fmc_no_rtdec_config:00000000000000ca .L0 
C:\Users\CYMR90~1\AppData\Local\Temp\ccX1amHi.s:974    .text.fmc_no_rtdec_config:00000000000000d6 .L0 
C:\Users\CYMR90~1\AppData\Local\Temp\ccX1amHi.s:977    .text.fmc_no_rtdec_config:00000000000000d8 .L0 
C:\Users\CYMR90~1\AppData\Local\Temp\ccX1amHi.s:980    .text.fmc_no_rtdec_config:00000000000000e0 .L0 
C:\Users\CYMR90~1\AppData\Local\Temp\ccX1amHi.s:982    .text.fmc_no_rtdec_config:00000000000000e4 .L0 
C:\Users\CYMR90~1\AppData\Local\Temp\ccX1amHi.s:991    .text.fmc_no_rtdec_config:00000000000000fe .L0 
C:\Users\CYMR90~1\AppData\Local\Temp\ccX1amHi.s:995    .text.fmc_no_rtdec_config:0000000000000108 .L0 
C:\Users\CYMR90~1\AppData\Local\Temp\ccX1amHi.s:998    .text.fmc_no_rtdec_config:0000000000000110 .L0 
C:\Users\CYMR90~1\AppData\Local\Temp\ccX1amHi.s:1003   .text.fmc_no_rtdec_config:000000000000011c .L0 
C:\Users\CYMR90~1\AppData\Local\Temp\ccX1amHi.s:1006   .text.fmc_no_rtdec_config:000000000000011e .L0 
C:\Users\CYMR90~1\AppData\Local\Temp\ccX1amHi.s:1009   .text.fmc_no_rtdec_config:0000000000000126 .L0 
C:\Users\CYMR90~1\AppData\Local\Temp\ccX1amHi.s:1011   .text.fmc_no_rtdec_config:000000000000012a .L0 
C:\Users\CYMR90~1\AppData\Local\Temp\ccX1amHi.s:1020   .text.fmc_no_rtdec_config:0000000000000144 .L0 
C:\Users\CYMR90~1\AppData\Local\Temp\ccX1amHi.s:1024   .text.fmc_no_rtdec_config:000000000000014e .L0 
C:\Users\CYMR90~1\AppData\Local\Temp\ccX1amHi.s:1027   .text.fmc_no_rtdec_config:0000000000000156 .L0 
C:\Users\CYMR90~1\AppData\Local\Temp\ccX1amHi.s:1032   .text.fmc_no_rtdec_config:0000000000000162 .L0 
C:\Users\CYMR90~1\AppData\Local\Temp\ccX1amHi.s:1035   .text.fmc_no_rtdec_config:0000000000000164 .L0 
C:\Users\CYMR90~1\AppData\Local\Temp\ccX1amHi.s:1038   .text.fmc_no_rtdec_config:0000000000000166 .L0 
C:\Users\CYMR90~1\AppData\Local\Temp\ccX1amHi.s:1040   .text.fmc_no_rtdec_config:000000000000016a .L0 
C:\Users\CYMR90~1\AppData\Local\Temp\ccX1amHi.s:1041   .text.fmc_no_rtdec_config:000000000000016a .L0 
C:\Users\CYMR90~1\AppData\Local\Temp\ccX1amHi.s:1043   .text.fmc_no_rtdec_config:000000000000016c .L0 
C:\Users\CYMR90~1\AppData\Local\Temp\ccX1amHi.s:1045   .text.fmc_no_rtdec_config:000000000000016e .L0 
C:\Users\CYMR90~1\AppData\Local\Temp\ccX1amHi.s:1052   .text.fmc_offset_region_config:0000000000000000 fmc_offset_region_config
C:\Users\CYMR90~1\AppData\Local\Temp\ccX1amHi.s:1055   .text.fmc_offset_region_config:0000000000000000 .L0 
C:\Users\CYMR90~1\AppData\Local\Temp\ccX1amHi.s:1056   .text.fmc_offset_region_config:0000000000000000 .L0 
C:\Users\CYMR90~1\AppData\Local\Temp\ccX1amHi.s:1057   .text.fmc_offset_region_config:0000000000000002 .L0 
C:\Users\CYMR90~1\AppData\Local\Temp\ccX1amHi.s:1059   .text.fmc_offset_region_config:0000000000000004 .L0 
C:\Users\CYMR90~1\AppData\Local\Temp\ccX1amHi.s:1061   .text.fmc_offset_region_config:0000000000000006 .L0 
C:\Users\CYMR90~1\AppData\Local\Temp\ccX1amHi.s:1065   .text.fmc_offset_region_config:000000000000000e .L0 
C:\Users\CYMR90~1\AppData\Local\Temp\ccX1amHi.s:1068   .text.fmc_offset_region_config:0000000000000016 .L0 
C:\Users\CYMR90~1\AppData\Local\Temp\ccX1amHi.s:1070   .text.fmc_offset_region_config:000000000000001a .L0 
C:\Users\CYMR90~1\AppData\Local\Temp\ccX1amHi.s:1079   .text.fmc_offset_region_config:0000000000000034 .L0 
C:\Users\CYMR90~1\AppData\Local\Temp\ccX1amHi.s:1083   .text.fmc_offset_region_config:000000000000003e .L0 
C:\Users\CYMR90~1\AppData\Local\Temp\ccX1amHi.s:1086   .text.fmc_offset_region_config:0000000000000046 .L0 
C:\Users\CYMR90~1\AppData\Local\Temp\ccX1amHi.s:1091   .text.fmc_offset_region_config:0000000000000052 .L0 
C:\Users\CYMR90~1\AppData\Local\Temp\ccX1amHi.s:1093   .text.fmc_offset_region_config:0000000000000056 .L0 
C:\Users\CYMR90~1\AppData\Local\Temp\ccX1amHi.s:1094   .text.fmc_offset_region_config:0000000000000056 .L0 
C:\Users\CYMR90~1\AppData\Local\Temp\ccX1amHi.s:1096   .text.fmc_offset_region_config:0000000000000058 .L0 
C:\Users\CYMR90~1\AppData\Local\Temp\ccX1amHi.s:1098   .text.fmc_offset_region_config:000000000000005a .L0 
C:\Users\CYMR90~1\AppData\Local\Temp\ccX1amHi.s:1105   .text.fmc_offset_value_config:0000000000000000 fmc_offset_value_config
C:\Users\CYMR90~1\AppData\Local\Temp\ccX1amHi.s:1108   .text.fmc_offset_value_config:0000000000000000 .L0 
C:\Users\CYMR90~1\AppData\Local\Temp\ccX1amHi.s:1109   .text.fmc_offset_value_config:0000000000000000 .L0 
C:\Users\CYMR90~1\AppData\Local\Temp\ccX1amHi.s:1110   .text.fmc_offset_value_config:0000000000000002 .L0 
C:\Users\CYMR90~1\AppData\Local\Temp\ccX1amHi.s:1112   .text.fmc_offset_value_config:0000000000000004 .L0 
C:\Users\CYMR90~1\AppData\Local\Temp\ccX1amHi.s:1114   .text.fmc_offset_value_config:0000000000000006 .L0 
C:\Users\CYMR90~1\AppData\Local\Temp\ccX1amHi.s:1117   .text.fmc_offset_value_config:000000000000000a .L0 
C:\Users\CYMR90~1\AppData\Local\Temp\ccX1amHi.s:1120   .text.fmc_offset_value_config:0000000000000012 .L0 
C:\Users\CYMR90~1\AppData\Local\Temp\ccX1amHi.s:1122   .text.fmc_offset_value_config:0000000000000016 .L0 
C:\Users\CYMR90~1\AppData\Local\Temp\ccX1amHi.s:1131   .text.fmc_offset_value_config:0000000000000030 .L0 
C:\Users\CYMR90~1\AppData\Local\Temp\ccX1amHi.s:1133   .text.fmc_offset_value_config:0000000000000034 .L0 
C:\Users\CYMR90~1\AppData\Local\Temp\ccX1amHi.s:1134   .text.fmc_offset_value_config:0000000000000034 .L0 
C:\Users\CYMR90~1\AppData\Local\Temp\ccX1amHi.s:1136   .text.fmc_offset_value_config:0000000000000036 .L0 
C:\Users\CYMR90~1\AppData\Local\Temp\ccX1amHi.s:1138   .text.fmc_offset_value_config:0000000000000038 .L0 
C:\Users\CYMR90~1\AppData\Local\Temp\ccX1amHi.s:1145   .text.fmc_wifi_trim_cal_get:0000000000000000 fmc_wifi_trim_cal_get
C:\Users\CYMR90~1\AppData\Local\Temp\ccX1amHi.s:1148   .text.fmc_wifi_trim_cal_get:0000000000000000 .L0 
C:\Users\CYMR90~1\AppData\Local\Temp\ccX1amHi.s:1149   .text.fmc_wifi_trim_cal_get:0000000000000000 .L0 
C:\Users\CYMR90~1\AppData\Local\Temp\ccX1amHi.s:1150   .text.fmc_wifi_trim_cal_get:0000000000000002 .L0 
C:\Users\CYMR90~1\AppData\Local\Temp\ccX1amHi.s:1152   .text.fmc_wifi_trim_cal_get:0000000000000004 .L0 
C:\Users\CYMR90~1\AppData\Local\Temp\ccX1amHi.s:1154   .text.fmc_wifi_trim_cal_get:0000000000000006 .L0 
C:\Users\CYMR90~1\AppData\Local\Temp\ccX1amHi.s:1160   .text.fmc_wifi_trim_cal_get:0000000000000016 .L0 
C:\Users\CYMR90~1\AppData\Local\Temp\ccX1amHi.s:1163   .text.fmc_wifi_trim_cal_get:000000000000001e .L0 
C:\Users\CYMR90~1\AppData\Local\Temp\ccX1amHi.s:1166   .text.fmc_wifi_trim_cal_get:0000000000000024 .L0 
C:\Users\CYMR90~1\AppData\Local\Temp\ccX1amHi.s:1169   .text.fmc_wifi_trim_cal_get:000000000000002c .L0 
C:\Users\CYMR90~1\AppData\Local\Temp\ccX1amHi.s:1172   .text.fmc_wifi_trim_cal_get:0000000000000032 .L0 
C:\Users\CYMR90~1\AppData\Local\Temp\ccX1amHi.s:1176   .text.fmc_wifi_trim_cal_get:000000000000003c .L0 
C:\Users\CYMR90~1\AppData\Local\Temp\ccX1amHi.s:1179   .text.fmc_wifi_trim_cal_get:0000000000000042 .L0 
C:\Users\CYMR90~1\AppData\Local\Temp\ccX1amHi.s:1183   .text.fmc_wifi_trim_cal_get:000000000000004c .L0 
C:\Users\CYMR90~1\AppData\Local\Temp\ccX1amHi.s:1186   .text.fmc_wifi_trim_cal_get:0000000000000052 .L0 
C:\Users\CYMR90~1\AppData\Local\Temp\ccX1amHi.s:1191   .text.fmc_wifi_trim_cal_get:000000000000005e .L0 
C:\Users\CYMR90~1\AppData\Local\Temp\ccX1amHi.s:1194   .text.fmc_wifi_trim_cal_get:0000000000000064 .L0 
C:\Users\CYMR90~1\AppData\Local\Temp\ccX1amHi.s:1197   .text.fmc_wifi_trim_cal_get:000000000000006c .L0 
C:\Users\CYMR90~1\AppData\Local\Temp\ccX1amHi.s:1200   .text.fmc_wifi_trim_cal_get:0000000000000072 .L0 
C:\Users\CYMR90~1\AppData\Local\Temp\ccX1amHi.s:1202   .text.fmc_wifi_trim_cal_get:0000000000000076 .L0 
C:\Users\CYMR90~1\AppData\Local\Temp\ccX1amHi.s:1203   .text.fmc_wifi_trim_cal_get:0000000000000076 .L0 
C:\Users\CYMR90~1\AppData\Local\Temp\ccX1amHi.s:1205   .text.fmc_wifi_trim_cal_get:0000000000000078 .L0 
C:\Users\CYMR90~1\AppData\Local\Temp\ccX1amHi.s:1207   .text.fmc_wifi_trim_cal_get:000000000000007a .L0 
C:\Users\CYMR90~1\AppData\Local\Temp\ccX1amHi.s:1214   .text.fmc_wifi_trim_pa_get:0000000000000000 fmc_wifi_trim_pa_get
C:\Users\CYMR90~1\AppData\Local\Temp\ccX1amHi.s:1217   .text.fmc_wifi_trim_pa_get:0000000000000000 .L0 
C:\Users\CYMR90~1\AppData\Local\Temp\ccX1amHi.s:1218   .text.fmc_wifi_trim_pa_get:0000000000000000 .L0 
C:\Users\CYMR90~1\AppData\Local\Temp\ccX1amHi.s:1219   .text.fmc_wifi_trim_pa_get:0000000000000002 .L0 
C:\Users\CYMR90~1\AppData\Local\Temp\ccX1amHi.s:1221   .text.fmc_wifi_trim_pa_get:0000000000000004 .L0 
C:\Users\CYMR90~1\AppData\Local\Temp\ccX1amHi.s:1223   .text.fmc_wifi_trim_pa_get:0000000000000006 .L0 
C:\Users\CYMR90~1\AppData\Local\Temp\ccX1amHi.s:1227   .text.fmc_wifi_trim_pa_get:000000000000000e .L0 
C:\Users\CYMR90~1\AppData\Local\Temp\ccX1amHi.s:1230   .text.fmc_wifi_trim_pa_get:0000000000000016 .L0 
C:\Users\CYMR90~1\AppData\Local\Temp\ccX1amHi.s:1233   .text.fmc_wifi_trim_pa_get:000000000000001c .L0 
C:\Users\CYMR90~1\AppData\Local\Temp\ccX1amHi.s:1236   .text.fmc_wifi_trim_pa_get:0000000000000024 .L0 
C:\Users\CYMR90~1\AppData\Local\Temp\ccX1amHi.s:1239   .text.fmc_wifi_trim_pa_get:000000000000002a .L0 
C:\Users\CYMR90~1\AppData\Local\Temp\ccX1amHi.s:1242   .text.fmc_wifi_trim_pa_get:0000000000000032 .L0 
C:\Users\CYMR90~1\AppData\Local\Temp\ccX1amHi.s:1245   .text.fmc_wifi_trim_pa_get:0000000000000038 .L0 
C:\Users\CYMR90~1\AppData\Local\Temp\ccX1amHi.s:1247   .text.fmc_wifi_trim_pa_get:000000000000003c .L0 
C:\Users\CYMR90~1\AppData\Local\Temp\ccX1amHi.s:1248   .text.fmc_wifi_trim_pa_get:000000000000003c .L0 
C:\Users\CYMR90~1\AppData\Local\Temp\ccX1amHi.s:1250   .text.fmc_wifi_trim_pa_get:000000000000003e .L0 
C:\Users\CYMR90~1\AppData\Local\Temp\ccX1amHi.s:1252   .text.fmc_wifi_trim_pa_get:0000000000000040 .L0 
C:\Users\CYMR90~1\AppData\Local\Temp\ccX1amHi.s:1259   .text.fmc_wifi_trim_get:0000000000000000 fmc_wifi_trim_get
C:\Users\CYMR90~1\AppData\Local\Temp\ccX1amHi.s:1262   .text.fmc_wifi_trim_get:0000000000000000 .L0 
C:\Users\CYMR90~1\AppData\Local\Temp\ccX1amHi.s:1263   .text.fmc_wifi_trim_get:0000000000000000 .L0 
C:\Users\CYMR90~1\AppData\Local\Temp\ccX1amHi.s:1264   .text.fmc_wifi_trim_get:0000000000000002 .L0 
C:\Users\CYMR90~1\AppData\Local\Temp\ccX1amHi.s:1266   .text.fmc_wifi_trim_get:0000000000000004 .L0 
C:\Users\CYMR90~1\AppData\Local\Temp\ccX1amHi.s:1268   .text.fmc_wifi_trim_get:0000000000000006 .L0 
C:\Users\CYMR90~1\AppData\Local\Temp\ccX1amHi.s:1272   .text.fmc_wifi_trim_get:000000000000000e .L0 
C:\Users\CYMR90~1\AppData\Local\Temp\ccX1amHi.s:1276   .text.fmc_wifi_trim_get:0000000000000018 .L0 
C:\Users\CYMR90~1\AppData\Local\Temp\ccX1amHi.s:1280   .text.fmc_wifi_trim_get:000000000000001c .L0 
C:\Users\CYMR90~1\AppData\Local\Temp\ccX1amHi.s:1282   .text.fmc_wifi_trim_get:0000000000000020 .L0 
C:\Users\CYMR90~1\AppData\Local\Temp\ccX1amHi.s:1285   .text.fmc_wifi_trim_get:0000000000000022 .L0 
C:\Users\CYMR90~1\AppData\Local\Temp\ccX1amHi.s:1292   .text.fmc_wifi_trim_get:0000000000000034 .L0 
C:\Users\CYMR90~1\AppData\Local\Temp\ccX1amHi.s:1297   .text.fmc_wifi_trim_get:0000000000000040 .L0 
C:\Users\CYMR90~1\AppData\Local\Temp\ccX1amHi.s:1299   .text.fmc_wifi_trim_get:0000000000000042 .L0 
C:\Users\CYMR90~1\AppData\Local\Temp\ccX1amHi.s:1301   .text.fmc_wifi_trim_get:0000000000000044 .L0 
C:\Users\CYMR90~1\AppData\Local\Temp\ccX1amHi.s:1306   .text.fmc_wifi_trim_get:000000000000004e .L0 
C:\Users\CYMR90~1\AppData\Local\Temp\ccX1amHi.s:1310   .text.fmc_wifi_trim_get:000000000000005a .L0 
C:\Users\CYMR90~1\AppData\Local\Temp\ccX1amHi.s:1313   .text.fmc_wifi_trim_get:000000000000005c .L0 
C:\Users\CYMR90~1\AppData\Local\Temp\ccX1amHi.s:1315   .text.fmc_wifi_trim_get:0000000000000060 .L0 
C:\Users\CYMR90~1\AppData\Local\Temp\ccX1amHi.s:1316   .text.fmc_wifi_trim_get:0000000000000060 .L0 
C:\Users\CYMR90~1\AppData\Local\Temp\ccX1amHi.s:1318   .text.fmc_wifi_trim_get:0000000000000062 .L0 
C:\Users\CYMR90~1\AppData\Local\Temp\ccX1amHi.s:1320   .text.fmc_wifi_trim_get:0000000000000064 .L0 
C:\Users\CYMR90~1\AppData\Local\Temp\ccX1amHi.s:1327   .text.fmc_pid_get:0000000000000000 fmc_pid_get
C:\Users\CYMR90~1\AppData\Local\Temp\ccX1amHi.s:1330   .text.fmc_pid_get:0000000000000000 .L0 
C:\Users\CYMR90~1\AppData\Local\Temp\ccX1amHi.s:1331   .text.fmc_pid_get:0000000000000000 .L0 
C:\Users\CYMR90~1\AppData\Local\Temp\ccX1amHi.s:1332   .text.fmc_pid_get:0000000000000002 .L0 
C:\Users\CYMR90~1\AppData\Local\Temp\ccX1amHi.s:1334   .text.fmc_pid_get:0000000000000004 .L0 
C:\Users\CYMR90~1\AppData\Local\Temp\ccX1amHi.s:1336   .text.fmc_pid_get:0000000000000006 .L0 
C:\Users\CYMR90~1\AppData\Local\Temp\ccX1amHi.s:1339   .text.fmc_pid_get:000000000000000a .L0 
C:\Users\CYMR90~1\AppData\Local\Temp\ccX1amHi.s:1342   .text.fmc_pid_get:0000000000000012 .L0 
C:\Users\CYMR90~1\AppData\Local\Temp\ccX1amHi.s:1345   .text.fmc_pid_get:000000000000001a .L0 
C:\Users\CYMR90~1\AppData\Local\Temp\ccX1amHi.s:1347   .text.fmc_pid_get:000000000000001e .L0 
C:\Users\CYMR90~1\AppData\Local\Temp\ccX1amHi.s:1349   .text.fmc_pid_get:0000000000000020 .L0 
C:\Users\CYMR90~1\AppData\Local\Temp\ccX1amHi.s:1351   .text.fmc_pid_get:0000000000000022 .L0 
C:\Users\CYMR90~1\AppData\Local\Temp\ccX1amHi.s:1355   .text.fmc_pid_get:000000000000002c .L0 
C:\Users\CYMR90~1\AppData\Local\Temp\ccX1amHi.s:1358   .text.fmc_pid_get:0000000000000034 .L0 
C:\Users\CYMR90~1\AppData\Local\Temp\ccX1amHi.s:1360   .text.fmc_pid_get:0000000000000038 .L0 
C:\Users\CYMR90~1\AppData\Local\Temp\ccX1amHi.s:1362   .text.fmc_pid_get:000000000000003a .L0 
C:\Users\CYMR90~1\AppData\Local\Temp\ccX1amHi.s:1364   .text.fmc_pid_get:000000000000003c .L0 
C:\Users\CYMR90~1\AppData\Local\Temp\ccX1amHi.s:1366   .text.fmc_pid_get:0000000000000040 .L0 
C:\Users\CYMR90~1\AppData\Local\Temp\ccX1amHi.s:1367   .text.fmc_pid_get:0000000000000040 .L0 
C:\Users\CYMR90~1\AppData\Local\Temp\ccX1amHi.s:1369   .text.fmc_pid_get:0000000000000042 .L0 
C:\Users\CYMR90~1\AppData\Local\Temp\ccX1amHi.s:1371   .text.fmc_pid_get:0000000000000044 .L0 
C:\Users\CYMR90~1\AppData\Local\Temp\ccX1amHi.s:1378   .text.ob_write_protection_get:0000000000000000 ob_write_protection_get
C:\Users\CYMR90~1\AppData\Local\Temp\ccX1amHi.s:1381   .text.ob_write_protection_get:0000000000000000 .L0 
C:\Users\CYMR90~1\AppData\Local\Temp\ccX1amHi.s:1382   .text.ob_write_protection_get:0000000000000000 .L0 
C:\Users\CYMR90~1\AppData\Local\Temp\ccX1amHi.s:1383   .text.ob_write_protection_get:0000000000000002 .L0 
C:\Users\CYMR90~1\AppData\Local\Temp\ccX1amHi.s:1385   .text.ob_write_protection_get:0000000000000004 .L0 
C:\Users\CYMR90~1\AppData\Local\Temp\ccX1amHi.s:1387   .text.ob_write_protection_get:0000000000000006 .L0 
C:\Users\CYMR90~1\AppData\Local\Temp\ccX1amHi.s:1389   .text.ob_write_protection_get:0000000000000006 .L0 
C:\Users\CYMR90~1\AppData\Local\Temp\ccX1amHi.s:1391   .text.ob_write_protection_get:000000000000000a .L0 
C:\Users\CYMR90~1\AppData\Local\Temp\ccX1amHi.s:1395   .text.ob_write_protection_get:0000000000000012 .L0 
C:\Users\CYMR90~1\AppData\Local\Temp\ccX1amHi.s:1397   .text.ob_write_protection_get:0000000000000014 .L0 
C:\Users\CYMR90~1\AppData\Local\Temp\ccX1amHi.s:1399   .text.ob_write_protection_get:0000000000000016 .L0 
C:\Users\CYMR90~1\AppData\Local\Temp\ccX1amHi.s:1404   .text.ob_write_protection_get:000000000000001e .L0 
C:\Users\CYMR90~1\AppData\Local\Temp\ccX1amHi.s:1407   .text.ob_write_protection_get:0000000000000022 .L0 
C:\Users\CYMR90~1\AppData\Local\Temp\ccX1amHi.s:1409   .text.ob_write_protection_get:0000000000000026 .L0 
C:\Users\CYMR90~1\AppData\Local\Temp\ccX1amHi.s:1411   .text.ob_write_protection_get:000000000000002a .L0 
C:\Users\CYMR90~1\AppData\Local\Temp\ccX1amHi.s:1412   .text.ob_write_protection_get:000000000000002a .L0 
C:\Users\CYMR90~1\AppData\Local\Temp\ccX1amHi.s:1414   .text.ob_write_protection_get:000000000000002c .L0 
C:\Users\CYMR90~1\AppData\Local\Temp\ccX1amHi.s:1416   .text.ob_write_protection_get:000000000000002e .L0 
C:\Users\CYMR90~1\AppData\Local\Temp\ccX1amHi.s:1423   .text.ob_user_get:0000000000000000 ob_user_get
C:\Users\CYMR90~1\AppData\Local\Temp\ccX1amHi.s:1426   .text.ob_user_get:0000000000000000 .L0 
C:\Users\CYMR90~1\AppData\Local\Temp\ccX1amHi.s:1427   .text.ob_user_get:0000000000000000 .L0 
C:\Users\CYMR90~1\AppData\Local\Temp\ccX1amHi.s:1428   .text.ob_user_get:0000000000000002 .L0 
C:\Users\CYMR90~1\AppData\Local\Temp\ccX1amHi.s:1430   .text.ob_user_get:0000000000000004 .L0 
C:\Users\CYMR90~1\AppData\Local\Temp\ccX1amHi.s:1432   .text.ob_user_get:0000000000000006 .L0 
C:\Users\CYMR90~1\AppData\Local\Temp\ccX1amHi.s:1434   .text.ob_user_get:0000000000000006 .L0 
C:\Users\CYMR90~1\AppData\Local\Temp\ccX1amHi.s:1438   .text.ob_user_get:0000000000000010 .L0 
C:\Users\CYMR90~1\AppData\Local\Temp\ccX1amHi.s:1440   .text.ob_user_get:0000000000000014 .L0 
C:\Users\CYMR90~1\AppData\Local\Temp\ccX1amHi.s:1441   .text.ob_user_get:0000000000000014 .L0 
C:\Users\CYMR90~1\AppData\Local\Temp\ccX1amHi.s:1443   .text.ob_user_get:0000000000000016 .L0 
C:\Users\CYMR90~1\AppData\Local\Temp\ccX1amHi.s:1445   .text.ob_user_get:0000000000000018 .L0 
C:\Users\CYMR90~1\AppData\Local\Temp\ccX1amHi.s:1452   .text.ob_security_protection_flag_get:0000000000000000 ob_security_protection_flag_get
C:\Users\CYMR90~1\AppData\Local\Temp\ccX1amHi.s:1455   .text.ob_security_protection_flag_get:0000000000000000 .L0 
C:\Users\CYMR90~1\AppData\Local\Temp\ccX1amHi.s:1456   .text.ob_security_protection_flag_get:0000000000000000 .L0 
C:\Users\CYMR90~1\AppData\Local\Temp\ccX1amHi.s:1457   .text.ob_security_protection_flag_get:0000000000000002 .L0 
C:\Users\CYMR90~1\AppData\Local\Temp\ccX1amHi.s:1459   .text.ob_security_protection_flag_get:0000000000000004 .L0 
C:\Users\CYMR90~1\AppData\Local\Temp\ccX1amHi.s:1461   .text.ob_security_protection_flag_get:0000000000000006 .L0 
C:\Users\CYMR90~1\AppData\Local\Temp\ccX1amHi.s:1463   .text.ob_security_protection_flag_get:0000000000000006 .L0 
C:\Users\CYMR90~1\AppData\Local\Temp\ccX1amHi.s:1465   .text.ob_security_protection_flag_get:000000000000000a .L0 
C:\Users\CYMR90~1\AppData\Local\Temp\ccX1amHi.s:1469   .text.ob_security_protection_flag_get:0000000000000012 .L0 
C:\Users\CYMR90~1\AppData\Local\Temp\ccX1amHi.s:1471   .text.ob_security_protection_flag_get:0000000000000014 .L0 
C:\Users\CYMR90~1\AppData\Local\Temp\ccX1amHi.s:1473   .text.ob_security_protection_flag_get:0000000000000016 .L0 
C:\Users\CYMR90~1\AppData\Local\Temp\ccX1amHi.s:1478   .text.ob_security_protection_flag_get:000000000000001e .L0 
C:\Users\CYMR90~1\AppData\Local\Temp\ccX1amHi.s:1481   .text.ob_security_protection_flag_get:0000000000000022 .L0 
C:\Users\CYMR90~1\AppData\Local\Temp\ccX1amHi.s:1483   .text.ob_security_protection_flag_get:0000000000000026 .L0 
C:\Users\CYMR90~1\AppData\Local\Temp\ccX1amHi.s:1485   .text.ob_security_protection_flag_get:000000000000002a .L0 
C:\Users\CYMR90~1\AppData\Local\Temp\ccX1amHi.s:1486   .text.ob_security_protection_flag_get:000000000000002a .L0 
C:\Users\CYMR90~1\AppData\Local\Temp\ccX1amHi.s:1488   .text.ob_security_protection_flag_get:000000000000002c .L0 
C:\Users\CYMR90~1\AppData\Local\Temp\ccX1amHi.s:1490   .text.ob_security_protection_flag_get:000000000000002e .L0 
C:\Users\CYMR90~1\AppData\Local\Temp\ccX1amHi.s:1497   .text.fmc_flag_get:0000000000000000 fmc_flag_get
C:\Users\CYMR90~1\AppData\Local\Temp\ccX1amHi.s:1500   .text.fmc_flag_get:0000000000000000 .L0 
C:\Users\CYMR90~1\AppData\Local\Temp\ccX1amHi.s:1501   .text.fmc_flag_get:0000000000000000 .L0 
C:\Users\CYMR90~1\AppData\Local\Temp\ccX1amHi.s:1502   .text.fmc_flag_get:0000000000000002 .L0 
C:\Users\CYMR90~1\AppData\Local\Temp\ccX1amHi.s:1504   .text.fmc_flag_get:0000000000000004 .L0 
C:\Users\CYMR90~1\AppData\Local\Temp\ccX1amHi.s:1506   .text.fmc_flag_get:0000000000000006 .L0 
C:\Users\CYMR90~1\AppData\Local\Temp\ccX1amHi.s:1509   .text.fmc_flag_get:000000000000000a .L0 
C:\Users\CYMR90~1\AppData\Local\Temp\ccX1amHi.s:1511   .text.fmc_flag_get:000000000000000e .L0 
C:\Users\CYMR90~1\AppData\Local\Temp\ccX1amHi.s:1515   .text.fmc_flag_get:0000000000000016 .L0 
C:\Users\CYMR90~1\AppData\Local\Temp\ccX1amHi.s:1518   .text.fmc_flag_get:000000000000001c .L0 
C:\Users\CYMR90~1\AppData\Local\Temp\ccX1amHi.s:1520   .text.fmc_flag_get:000000000000001e .L0 
C:\Users\CYMR90~1\AppData\Local\Temp\ccX1amHi.s:1524   .text.fmc_flag_get:0000000000000024 .L0 
C:\Users\CYMR90~1\AppData\Local\Temp\ccX1amHi.s:1526   .text.fmc_flag_get:0000000000000028 .L0 
C:\Users\CYMR90~1\AppData\Local\Temp\ccX1amHi.s:1528   .text.fmc_flag_get:000000000000002c .L0 
C:\Users\CYMR90~1\AppData\Local\Temp\ccX1amHi.s:1529   .text.fmc_flag_get:000000000000002c .L0 
C:\Users\CYMR90~1\AppData\Local\Temp\ccX1amHi.s:1531   .text.fmc_flag_get:000000000000002e .L0 
C:\Users\CYMR90~1\AppData\Local\Temp\ccX1amHi.s:1533   .text.fmc_flag_get:0000000000000030 .L0 
C:\Users\CYMR90~1\AppData\Local\Temp\ccX1amHi.s:1540   .text.fmc_flag_clear:0000000000000000 fmc_flag_clear
C:\Users\CYMR90~1\AppData\Local\Temp\ccX1amHi.s:1543   .text.fmc_flag_clear:0000000000000000 .L0 
C:\Users\CYMR90~1\AppData\Local\Temp\ccX1amHi.s:1544   .text.fmc_flag_clear:0000000000000000 .L0 
C:\Users\CYMR90~1\AppData\Local\Temp\ccX1amHi.s:1545   .text.fmc_flag_clear:0000000000000002 .L0 
C:\Users\CYMR90~1\AppData\Local\Temp\ccX1amHi.s:1547   .text.fmc_flag_clear:0000000000000004 .L0 
C:\Users\CYMR90~1\AppData\Local\Temp\ccX1amHi.s:1549   .text.fmc_flag_clear:0000000000000006 .L0 
C:\Users\CYMR90~1\AppData\Local\Temp\ccX1amHi.s:1552   .text.fmc_flag_clear:000000000000000a .L0 
C:\Users\CYMR90~1\AppData\Local\Temp\ccX1amHi.s:1555   .text.fmc_flag_clear:0000000000000010 .L0 
C:\Users\CYMR90~1\AppData\Local\Temp\ccX1amHi.s:1558   .text.fmc_flag_clear:0000000000000016 .L0 
C:\Users\CYMR90~1\AppData\Local\Temp\ccX1amHi.s:1560   .text.fmc_flag_clear:000000000000001a .L0 
C:\Users\CYMR90~1\AppData\Local\Temp\ccX1amHi.s:1561   .text.fmc_flag_clear:000000000000001a .L0 
C:\Users\CYMR90~1\AppData\Local\Temp\ccX1amHi.s:1563   .text.fmc_flag_clear:000000000000001c .L0 
C:\Users\CYMR90~1\AppData\Local\Temp\ccX1amHi.s:1565   .text.fmc_flag_clear:000000000000001e .L0 
C:\Users\CYMR90~1\AppData\Local\Temp\ccX1amHi.s:1572   .text.fmc_interrupt_enable:0000000000000000 fmc_interrupt_enable
C:\Users\CYMR90~1\AppData\Local\Temp\ccX1amHi.s:1575   .text.fmc_interrupt_enable:0000000000000000 .L0 
C:\Users\CYMR90~1\AppData\Local\Temp\ccX1amHi.s:1576   .text.fmc_interrupt_enable:0000000000000000 .L0 
C:\Users\CYMR90~1\AppData\Local\Temp\ccX1amHi.s:1577   .text.fmc_interrupt_enable:0000000000000002 .L0 
C:\Users\CYMR90~1\AppData\Local\Temp\ccX1amHi.s:1579   .text.fmc_interrupt_enable:0000000000000004 .L0 
C:\Users\CYMR90~1\AppData\Local\Temp\ccX1amHi.s:1581   .text.fmc_interrupt_enable:0000000000000006 .L0 
C:\Users\CYMR90~1\AppData\Local\Temp\ccX1amHi.s:1584   .text.fmc_interrupt_enable:000000000000000a .L0 
C:\Users\CYMR90~1\AppData\Local\Temp\ccX1amHi.s:1593   .text.fmc_interrupt_enable:0000000000000020 .L0 
C:\Users\CYMR90~1\AppData\Local\Temp\ccX1amHi.s:1595   .text.fmc_interrupt_enable:0000000000000024 .L0 
C:\Users\CYMR90~1\AppData\Local\Temp\ccX1amHi.s:1596   .text.fmc_interrupt_enable:0000000000000024 .L0 
C:\Users\CYMR90~1\AppData\Local\Temp\ccX1amHi.s:1598   .text.fmc_interrupt_enable:0000000000000026 .L0 
C:\Users\CYMR90~1\AppData\Local\Temp\ccX1amHi.s:1600   .text.fmc_interrupt_enable:0000000000000028 .L0 
C:\Users\CYMR90~1\AppData\Local\Temp\ccX1amHi.s:1607   .text.fmc_interrupt_disable:0000000000000000 fmc_interrupt_disable
C:\Users\CYMR90~1\AppData\Local\Temp\ccX1amHi.s:1610   .text.fmc_interrupt_disable:0000000000000000 .L0 
C:\Users\CYMR90~1\AppData\Local\Temp\ccX1amHi.s:1611   .text.fmc_interrupt_disable:0000000000000000 .L0 
C:\Users\CYMR90~1\AppData\Local\Temp\ccX1amHi.s:1612   .text.fmc_interrupt_disable:0000000000000002 .L0 
C:\Users\CYMR90~1\AppData\Local\Temp\ccX1amHi.s:1614   .text.fmc_interrupt_disable:0000000000000004 .L0 
C:\Users\CYMR90~1\AppData\Local\Temp\ccX1amHi.s:1616   .text.fmc_interrupt_disable:0000000000000006 .L0 
C:\Users\CYMR90~1\AppData\Local\Temp\ccX1amHi.s:1619   .text.fmc_interrupt_disable:000000000000000a .L0 
C:\Users\CYMR90~1\AppData\Local\Temp\ccX1amHi.s:1623   .text.fmc_interrupt_disable:0000000000000012 .L0 
C:\Users\CYMR90~1\AppData\Local\Temp\ccX1amHi.s:1626   .text.fmc_interrupt_disable:000000000000001a .L0 
C:\Users\CYMR90~1\AppData\Local\Temp\ccX1amHi.s:1631   .text.fmc_interrupt_disable:0000000000000024 .L0 
C:\Users\CYMR90~1\AppData\Local\Temp\ccX1amHi.s:1633   .text.fmc_interrupt_disable:0000000000000028 .L0 
C:\Users\CYMR90~1\AppData\Local\Temp\ccX1amHi.s:1634   .text.fmc_interrupt_disable:0000000000000028 .L0 
C:\Users\CYMR90~1\AppData\Local\Temp\ccX1amHi.s:1636   .text.fmc_interrupt_disable:000000000000002a .L0 
C:\Users\CYMR90~1\AppData\Local\Temp\ccX1amHi.s:1638   .text.fmc_interrupt_disable:000000000000002c .L0 
C:\Users\CYMR90~1\AppData\Local\Temp\ccX1amHi.s:1645   .text.fmc_interrupt_flag_get:0000000000000000 fmc_interrupt_flag_get
C:\Users\CYMR90~1\AppData\Local\Temp\ccX1amHi.s:1648   .text.fmc_interrupt_flag_get:0000000000000000 .L0 
C:\Users\CYMR90~1\AppData\Local\Temp\ccX1amHi.s:1649   .text.fmc_interrupt_flag_get:0000000000000000 .L0 
C:\Users\CYMR90~1\AppData\Local\Temp\ccX1amHi.s:1650   .text.fmc_interrupt_flag_get:0000000000000002 .L0 
C:\Users\CYMR90~1\AppData\Local\Temp\ccX1amHi.s:1652   .text.fmc_interrupt_flag_get:0000000000000004 .L0 
C:\Users\CYMR90~1\AppData\Local\Temp\ccX1amHi.s:1654   .text.fmc_interrupt_flag_get:0000000000000006 .L0 
C:\Users\CYMR90~1\AppData\Local\Temp\ccX1amHi.s:1657   .text.fmc_interrupt_flag_get:000000000000000a .L0 
C:\Users\CYMR90~1\AppData\Local\Temp\ccX1amHi.s:1659   .text.fmc_interrupt_flag_get:000000000000000e .L0 
C:\Users\CYMR90~1\AppData\Local\Temp\ccX1amHi.s:1663   .text.fmc_interrupt_flag_get:0000000000000016 .L0 
C:\Users\CYMR90~1\AppData\Local\Temp\ccX1amHi.s:1666   .text.fmc_interrupt_flag_get:000000000000001c .L0 
C:\Users\CYMR90~1\AppData\Local\Temp\ccX1amHi.s:1668   .text.fmc_interrupt_flag_get:000000000000001e .L0 
C:\Users\CYMR90~1\AppData\Local\Temp\ccX1amHi.s:1672   .text.fmc_interrupt_flag_get:0000000000000024 .L0 
C:\Users\CYMR90~1\AppData\Local\Temp\ccX1amHi.s:1674   .text.fmc_interrupt_flag_get:0000000000000028 .L0 
C:\Users\CYMR90~1\AppData\Local\Temp\ccX1amHi.s:1676   .text.fmc_interrupt_flag_get:000000000000002c .L0 
C:\Users\CYMR90~1\AppData\Local\Temp\ccX1amHi.s:1677   .text.fmc_interrupt_flag_get:000000000000002c .L0 
C:\Users\CYMR90~1\AppData\Local\Temp\ccX1amHi.s:1679   .text.fmc_interrupt_flag_get:000000000000002e .L0 
C:\Users\CYMR90~1\AppData\Local\Temp\ccX1amHi.s:1681   .text.fmc_interrupt_flag_get:0000000000000030 .L0 
C:\Users\CYMR90~1\AppData\Local\Temp\ccX1amHi.s:1688   .text.fmc_interrupt_flag_clear:0000000000000000 fmc_interrupt_flag_clear
C:\Users\CYMR90~1\AppData\Local\Temp\ccX1amHi.s:1691   .text.fmc_interrupt_flag_clear:0000000000000000 .L0 
C:\Users\CYMR90~1\AppData\Local\Temp\ccX1amHi.s:1692   .text.fmc_interrupt_flag_clear:0000000000000000 .L0 
C:\Users\CYMR90~1\AppData\Local\Temp\ccX1amHi.s:1693   .text.fmc_interrupt_flag_clear:0000000000000002 .L0 
C:\Users\CYMR90~1\AppData\Local\Temp\ccX1amHi.s:1695   .text.fmc_interrupt_flag_clear:0000000000000004 .L0 
C:\Users\CYMR90~1\AppData\Local\Temp\ccX1amHi.s:1697   .text.fmc_interrupt_flag_clear:0000000000000006 .L0 
C:\Users\CYMR90~1\AppData\Local\Temp\ccX1amHi.s:1700   .text.fmc_interrupt_flag_clear:000000000000000a .L0 
C:\Users\CYMR90~1\AppData\Local\Temp\ccX1amHi.s:1703   .text.fmc_interrupt_flag_clear:0000000000000010 .L0 
C:\Users\CYMR90~1\AppData\Local\Temp\ccX1amHi.s:1706   .text.fmc_interrupt_flag_clear:0000000000000016 .L0 
C:\Users\CYMR90~1\AppData\Local\Temp\ccX1amHi.s:1708   .text.fmc_interrupt_flag_clear:000000000000001a .L0 
C:\Users\CYMR90~1\AppData\Local\Temp\ccX1amHi.s:1709   .text.fmc_interrupt_flag_clear:000000000000001a .L0 
C:\Users\CYMR90~1\AppData\Local\Temp\ccX1amHi.s:1711   .text.fmc_interrupt_flag_clear:000000000000001c .L0 
C:\Users\CYMR90~1\AppData\Local\Temp\ccX1amHi.s:1713   .text.fmc_interrupt_flag_clear:000000000000001e .L0 
C:\Users\CYMR90~1\AppData\Local\Temp\ccX1amHi.s:1719   .text.fmc_state_get:0000000000000000 fmc_state_get
C:\Users\CYMR90~1\AppData\Local\Temp\ccX1amHi.s:1722   .text.fmc_state_get:0000000000000000 .L0 
C:\Users\CYMR90~1\AppData\Local\Temp\ccX1amHi.s:1723   .text.fmc_state_get:0000000000000000 .L0 
C:\Users\CYMR90~1\AppData\Local\Temp\ccX1amHi.s:1724   .text.fmc_state_get:0000000000000002 .L0 
C:\Users\CYMR90~1\AppData\Local\Temp\ccX1amHi.s:1726   .text.fmc_state_get:0000000000000004 .L0 
C:\Users\CYMR90~1\AppData\Local\Temp\ccX1amHi.s:1728   .text.fmc_state_get:0000000000000006 .L0 
C:\Users\CYMR90~1\AppData\Local\Temp\ccX1amHi.s:1730   .text.fmc_state_get:0000000000000006 .L0 
C:\Users\CYMR90~1\AppData\Local\Temp\ccX1amHi.s:1732   .text.fmc_state_get:000000000000000a .L0 
C:\Users\CYMR90~1\AppData\Local\Temp\ccX1amHi.s:1736   .text.fmc_state_get:0000000000000012 .L0 
C:\Users\CYMR90~1\AppData\Local\Temp\ccX1amHi.s:1738   .text.fmc_state_get:0000000000000014 .L0 
C:\Users\CYMR90~1\AppData\Local\Temp\ccX1amHi.s:1740   .text.fmc_state_get:0000000000000016 .L0 
C:\Users\CYMR90~1\AppData\Local\Temp\ccX1amHi.s:1745   .text.fmc_state_get:000000000000001e .L0 
C:\Users\CYMR90~1\AppData\Local\Temp\ccX1amHi.s:1749   .text.fmc_state_get:0000000000000026 .L0 
C:\Users\CYMR90~1\AppData\Local\Temp\ccX1amHi.s:1751   .text.fmc_state_get:0000000000000028 .L0 
C:\Users\CYMR90~1\AppData\Local\Temp\ccX1amHi.s:1753   .text.fmc_state_get:000000000000002a .L0 
C:\Users\CYMR90~1\AppData\Local\Temp\ccX1amHi.s:1757   .text.fmc_state_get:0000000000000030 .L0 
C:\Users\CYMR90~1\AppData\Local\Temp\ccX1amHi.s:1759   .text.fmc_state_get:0000000000000034 .L0 
C:\Users\CYMR90~1\AppData\Local\Temp\ccX1amHi.s:1761   .text.fmc_state_get:0000000000000038 .L0 
C:\Users\CYMR90~1\AppData\Local\Temp\ccX1amHi.s:1762   .text.fmc_state_get:0000000000000038 .L0 
C:\Users\CYMR90~1\AppData\Local\Temp\ccX1amHi.s:1764   .text.fmc_state_get:000000000000003a .L0 
C:\Users\CYMR90~1\AppData\Local\Temp\ccX1amHi.s:1766   .text.fmc_state_get:000000000000003c .L0 
C:\Users\CYMR90~1\AppData\Local\Temp\ccX1amHi.s:1775   .text.fmc_ready_wait:0000000000000000 .L0 
C:\Users\CYMR90~1\AppData\Local\Temp\ccX1amHi.s:1776   .text.fmc_ready_wait:0000000000000000 .L0 
C:\Users\CYMR90~1\AppData\Local\Temp\ccX1amHi.s:1777   .text.fmc_ready_wait:0000000000000002 .L0 
C:\Users\CYMR90~1\AppData\Local\Temp\ccX1amHi.s:1780   .text.fmc_ready_wait:0000000000000006 .L0 
C:\Users\CYMR90~1\AppData\Local\Temp\ccX1amHi.s:1781   .text.fmc_ready_wait:0000000000000006 .L0 
C:\Users\CYMR90~1\AppData\Local\Temp\ccX1amHi.s:1783   .text.fmc_ready_wait:0000000000000008 .L0 
C:\Users\CYMR90~1\AppData\Local\Temp\ccX1amHi.s:1786   .text.fmc_ready_wait:000000000000000c .L0 
C:\Users\CYMR90~1\AppData\Local\Temp\ccX1amHi.s:1790   .text.fmc_ready_wait:0000000000000012 .L0 
C:\Users\CYMR90~1\AppData\Local\Temp\ccX1amHi.s:1793   .text.fmc_ready_wait:000000000000001e .L0 
C:\Users\CYMR90~1\AppData\Local\Temp\ccX1amHi.s:1797   .text.fmc_ready_wait:0000000000000028 .L0 
C:\Users\CYMR90~1\AppData\Local\Temp\ccX1amHi.s:1801   .text.fmc_ready_wait:0000000000000032 .L0 
C:\Users\CYMR90~1\AppData\Local\Temp\ccX1amHi.s:1805   .text.fmc_ready_wait:0000000000000038 .L0 
C:\Users\CYMR90~1\AppData\Local\Temp\ccX1amHi.s:1809   .text.fmc_ready_wait:0000000000000042 .L0 
C:\Users\CYMR90~1\AppData\Local\Temp\ccX1amHi.s:1813   .text.fmc_ready_wait:0000000000000048 .L0 
C:\Users\CYMR90~1\AppData\Local\Temp\ccX1amHi.s:1815   .text.fmc_ready_wait:000000000000004c .L0 
C:\Users\CYMR90~1\AppData\Local\Temp\ccX1amHi.s:1817   .text.fmc_ready_wait:0000000000000050 .L0 
C:\Users\CYMR90~1\AppData\Local\Temp\ccX1amHi.s:1819   .text.fmc_ready_wait:0000000000000052 .L0 
C:\Users\CYMR90~1\AppData\Local\Temp\ccX1amHi.s:1820   .text.fmc_ready_wait:0000000000000052 .L0 
C:\Users\CYMR90~1\AppData\Local\Temp\ccX1amHi.s:1822   .text.fmc_ready_wait:0000000000000054 .L0 
C:\Users\CYMR90~1\AppData\Local\Temp\ccX1amHi.s:1824   .text.fmc_ready_wait:0000000000000056 .L0 
C:\Users\CYMR90~1\AppData\Local\Temp\ccX1amHi.s:58     .text.fmc_unlock:000000000000003c .L0 
C:\Users\CYMR90~1\AppData\Local\Temp\ccX1amHi.s:91     .text.fmc_lock:0000000000000022 .L0 
C:\Users\CYMR90~1\AppData\Local\Temp\ccX1amHi.s:167    .text.fmc_page_erase:000000000000008a .L0 
C:\Users\CYMR90~1\AppData\Local\Temp\ccX1amHi.s:236    .text.fmc_mass_erase:000000000000007a .L0 
C:\Users\CYMR90~1\AppData\Local\Temp\ccX1amHi.s:304    .text.fmc_word_program:0000000000000078 .L0 
C:\Users\CYMR90~1\AppData\Local\Temp\ccX1amHi.s:395    .text.fmc_continuous_program:000000000000009c .L0 
C:\Users\CYMR90~1\AppData\Local\Temp\ccX1amHi.s:430    .text.fmc_obr_function_enable:000000000000002c .L0 
C:\Users\CYMR90~1\AppData\Local\Temp\ccX1amHi.s:468    .text.fmc_obr_function_disable:0000000000000030 .L0 
C:\Users\CYMR90~1\AppData\Local\Temp\ccX1amHi.s:516    .text.ob_unlock:000000000000003c .L0 
C:\Users\CYMR90~1\AppData\Local\Temp\ccX1amHi.s:549    .text.ob_lock:0000000000000022 .L0 
C:\Users\CYMR90~1\AppData\Local\Temp\ccX1amHi.s:584    .text.ob_start:0000000000000026 .L0 
C:\Users\CYMR90~1\AppData\Local\Temp\ccX1amHi.s:618    .text.ob_reload:0000000000000022 .L0 
C:\Users\CYMR90~1\AppData\Local\Temp\ccX1amHi.s:689    .text.ob_security_protection_config:0000000000000088 .L0 
C:\Users\CYMR90~1\AppData\Local\Temp\ccX1amHi.s:758    .text.ob_user_write:0000000000000084 .L0 
C:\Users\CYMR90~1\AppData\Local\Temp\ccX1amHi.s:880    .text.ob_write_protection_config:00000000000000fa .L0 
C:\Users\CYMR90~1\AppData\Local\Temp\ccX1amHi.s:1048   .text.fmc_no_rtdec_config:000000000000016e .L0 
C:\Users\CYMR90~1\AppData\Local\Temp\ccX1amHi.s:1101   .text.fmc_offset_region_config:000000000000005a .L0 
C:\Users\CYMR90~1\AppData\Local\Temp\ccX1amHi.s:1141   .text.fmc_offset_value_config:0000000000000038 .L0 
C:\Users\CYMR90~1\AppData\Local\Temp\ccX1amHi.s:1210   .text.fmc_wifi_trim_cal_get:000000000000007a .L0 
C:\Users\CYMR90~1\AppData\Local\Temp\ccX1amHi.s:1255   .text.fmc_wifi_trim_pa_get:0000000000000040 .L0 
C:\Users\CYMR90~1\AppData\Local\Temp\ccX1amHi.s:1323   .text.fmc_wifi_trim_get:0000000000000064 .L0 
C:\Users\CYMR90~1\AppData\Local\Temp\ccX1amHi.s:1374   .text.fmc_pid_get:0000000000000044 .L0 
C:\Users\CYMR90~1\AppData\Local\Temp\ccX1amHi.s:1419   .text.ob_write_protection_get:000000000000002e .L0 
C:\Users\CYMR90~1\AppData\Local\Temp\ccX1amHi.s:1448   .text.ob_user_get:0000000000000018 .L0 
C:\Users\CYMR90~1\AppData\Local\Temp\ccX1amHi.s:1493   .text.ob_security_protection_flag_get:000000000000002e .L0 
C:\Users\CYMR90~1\AppData\Local\Temp\ccX1amHi.s:1536   .text.fmc_flag_get:0000000000000030 .L0 
C:\Users\CYMR90~1\AppData\Local\Temp\ccX1amHi.s:1568   .text.fmc_flag_clear:000000000000001e .L0 
C:\Users\CYMR90~1\AppData\Local\Temp\ccX1amHi.s:1603   .text.fmc_interrupt_enable:0000000000000028 .L0 
C:\Users\CYMR90~1\AppData\Local\Temp\ccX1amHi.s:1641   .text.fmc_interrupt_disable:000000000000002c .L0 
C:\Users\CYMR90~1\AppData\Local\Temp\ccX1amHi.s:1684   .text.fmc_interrupt_flag_get:0000000000000030 .L0 
C:\Users\CYMR90~1\AppData\Local\Temp\ccX1amHi.s:1716   .text.fmc_interrupt_flag_clear:000000000000001e .L0 
C:\Users\CYMR90~1\AppData\Local\Temp\ccX1amHi.s:1769   .text.fmc_state_get:000000000000003c .L0 
C:\Users\CYMR90~1\AppData\Local\Temp\ccX1amHi.s:1827   .text.fmc_ready_wait:0000000000000056 .L0 
                     .debug_frame:0000000000000000 .L0 
C:\Users\CYMR90~1\AppData\Local\Temp\ccX1amHi.s:46     .text.fmc_unlock:0000000000000034 .L3
C:\Users\CYMR90~1\AppData\Local\Temp\ccX1amHi.s:151    .text.fmc_page_erase:000000000000007c .L6
C:\Users\CYMR90~1\AppData\Local\Temp\ccX1amHi.s:220    .text.fmc_mass_erase:000000000000006c .L9
C:\Users\CYMR90~1\AppData\Local\Temp\ccX1amHi.s:288    .text.fmc_word_program:000000000000006a .L12
C:\Users\CYMR90~1\AppData\Local\Temp\ccX1amHi.s:379    .text.fmc_continuous_program:000000000000008e .L15
C:\Users\CYMR90~1\AppData\Local\Temp\ccX1amHi.s:365    .text.fmc_continuous_program:0000000000000070 .L16
C:\Users\CYMR90~1\AppData\Local\Temp\ccX1amHi.s:345    .text.fmc_continuous_program:0000000000000048 .L17
C:\Users\CYMR90~1\AppData\Local\Temp\ccX1amHi.s:504    .text.ob_unlock:0000000000000034 .L23
C:\Users\CYMR90~1\AppData\Local\Temp\ccX1amHi.s:673    .text.ob_security_protection_config:000000000000007a .L28
C:\Users\CYMR90~1\AppData\Local\Temp\ccX1amHi.s:742    .text.ob_user_write:0000000000000076 .L31
C:\Users\CYMR90~1\AppData\Local\Temp\ccX1amHi.s:864    .text.ob_write_protection_config:00000000000000ec .L34
C:\Users\CYMR90~1\AppData\Local\Temp\ccX1amHi.s:792    .text.ob_write_protection_config:000000000000003c .L35
C:\Users\CYMR90~1\AppData\Local\Temp\ccX1amHi.s:821    .text.ob_write_protection_config:0000000000000082 .L36
C:\Users\CYMR90~1\AppData\Local\Temp\ccX1amHi.s:850    .text.ob_write_protection_config:00000000000000c8 .L38
C:\Users\CYMR90~1\AppData\Local\Temp\ccX1amHi.s:1004   .text.fmc_no_rtdec_config:000000000000011e .L41
C:\Users\CYMR90~1\AppData\Local\Temp\ccX1amHi.s:1033   .text.fmc_no_rtdec_config:0000000000000164 .L47
C:\Users\CYMR90~1\AppData\Local\Temp\ccX1amHi.s:975    .text.fmc_no_rtdec_config:00000000000000d8 .L43
C:\Users\CYMR90~1\AppData\Local\Temp\ccX1amHi.s:917    .text.fmc_no_rtdec_config:000000000000004c .L44
C:\Users\CYMR90~1\AppData\Local\Temp\ccX1amHi.s:946    .text.fmc_no_rtdec_config:0000000000000092 .L45
C:\Users\CYMR90~1\AppData\Local\Temp\ccX1amHi.s:1036   .text.fmc_no_rtdec_config:0000000000000166 .L46
C:\Users\CYMR90~1\AppData\Local\Temp\ccX1amHi.s:1278   .text.fmc_wifi_trim_get:000000000000001c .L53
C:\Users\CYMR90~1\AppData\Local\Temp\ccX1amHi.s:1311   .text.fmc_wifi_trim_get:000000000000005c .L54
C:\Users\CYMR90~1\AppData\Local\Temp\ccX1amHi.s:1304   .text.fmc_wifi_trim_get:000000000000004e .L55
C:\Users\CYMR90~1\AppData\Local\Temp\ccX1amHi.s:1283   .text.fmc_wifi_trim_get:0000000000000022 .L56
C:\Users\CYMR90~1\AppData\Local\Temp\ccX1amHi.s:1402   .text.ob_write_protection_get:000000000000001e .L59
C:\Users\CYMR90~1\AppData\Local\Temp\ccX1amHi.s:1405   .text.ob_write_protection_get:0000000000000022 .L60
C:\Users\CYMR90~1\AppData\Local\Temp\ccX1amHi.s:1476   .text.ob_security_protection_flag_get:000000000000001e .L65
C:\Users\CYMR90~1\AppData\Local\Temp\ccX1amHi.s:1479   .text.ob_security_protection_flag_get:0000000000000022 .L66
C:\Users\CYMR90~1\AppData\Local\Temp\ccX1amHi.s:1522   .text.fmc_flag_get:0000000000000024 .L69
C:\Users\CYMR90~1\AppData\Local\Temp\ccX1amHi.s:1670   .text.fmc_interrupt_flag_get:0000000000000024 .L75
C:\Users\CYMR90~1\AppData\Local\Temp\ccX1amHi.s:1743   .text.fmc_state_get:000000000000001e .L79
C:\Users\CYMR90~1\AppData\Local\Temp\ccX1amHi.s:1755   .text.fmc_state_get:0000000000000030 .L80
C:\Users\CYMR90~1\AppData\Local\Temp\ccX1amHi.s:1803   .text.fmc_ready_wait:0000000000000038 .L83
C:\Users\CYMR90~1\AppData\Local\Temp\ccX1amHi.s:1788   .text.fmc_ready_wait:0000000000000012 .L84
C:\Users\CYMR90~1\AppData\Local\Temp\ccX1amHi.s:1811   .text.fmc_ready_wait:0000000000000048 .L85
C:\Users\CYMR90~1\AppData\Local\Temp\ccX1amHi.s:2830   .debug_abbrev:0000000000000000 .Ldebug_abbrev0
C:\Users\CYMR90~1\AppData\Local\Temp\ccX1amHi.s:23893  .debug_str:000000000000afb0 .LASF5645
C:\Users\CYMR90~1\AppData\Local\Temp\ccX1amHi.s:22003  .debug_str:00000000000035cd .LASF5646
C:\Users\CYMR90~1\AppData\Local\Temp\ccX1amHi.s:24193  .debug_str:000000000000c38f .LASF5647
C:\Users\CYMR90~1\AppData\Local\Temp\ccX1amHi.s:3413   .debug_ranges:0000000000000000 .Ldebug_ranges0
C:\Users\CYMR90~1\AppData\Local\Temp\ccX1amHi.s:21131  .debug_line:0000000000000000 .Ldebug_line0
C:\Users\CYMR90~1\AppData\Local\Temp\ccX1amHi.s:3483   .debug_macro:0000000000000000 .Ldebug_macro0
C:\Users\CYMR90~1\AppData\Local\Temp\ccX1amHi.s:32390  .debug_str:000000000002cf8c .LASF5560
C:\Users\CYMR90~1\AppData\Local\Temp\ccX1amHi.s:21151  .debug_str:000000000000013e .LASF5561
C:\Users\CYMR90~1\AppData\Local\Temp\ccX1amHi.s:22059  .debug_str:00000000000039e9 .LASF5562
C:\Users\CYMR90~1\AppData\Local\Temp\ccX1amHi.s:27274  .debug_str:000000000001883c .LASF5563
C:\Users\CYMR90~1\AppData\Local\Temp\ccX1amHi.s:23373  .debug_str:0000000000008f58 .LASF5568
C:\Users\CYMR90~1\AppData\Local\Temp\ccX1amHi.s:26733  .debug_str:00000000000164e3 .LASF5564
C:\Users\CYMR90~1\AppData\Local\Temp\ccX1amHi.s:28610  .debug_str:000000000001e0ca .LASF5565
C:\Users\CYMR90~1\AppData\Local\Temp\ccX1amHi.s:26195  .debug_str:0000000000014338 .LASF5566
C:\Users\CYMR90~1\AppData\Local\Temp\ccX1amHi.s:29026  .debug_str:000000000001f9a9 .LASF5567
C:\Users\CYMR90~1\AppData\Local\Temp\ccX1amHi.s:27488  .debug_str:0000000000019698 .LASF5569
C:\Users\CYMR90~1\AppData\Local\Temp\ccX1amHi.s:21265  .debug_str:000000000000081b .LASF5570
C:\Users\CYMR90~1\AppData\Local\Temp\ccX1amHi.s:30562  .debug_str:0000000000025a4f .LASF5571
C:\Users\CYMR90~1\AppData\Local\Temp\ccX1amHi.s:29048  .debug_str:000000000001fb13 .LASF855
C:\Users\CYMR90~1\AppData\Local\Temp\ccX1amHi.s:26497  .debug_str:00000000000155f9 .LASF5572
C:\Users\CYMR90~1\AppData\Local\Temp\ccX1amHi.s:30678  .debug_str:00000000000261c5 .LASF5573
C:\Users\CYMR90~1\AppData\Local\Temp\ccX1amHi.s:30256  .debug_str:00000000000244fe .LASF5574
C:\Users\CYMR90~1\AppData\Local\Temp\ccX1amHi.s:23741  .debug_str:000000000000a65a .LASF5575
C:\Users\CYMR90~1\AppData\Local\Temp\ccX1amHi.s:23869  .debug_str:000000000000ae0a .LASF5576
C:\Users\CYMR90~1\AppData\Local\Temp\ccX1amHi.s:29734  .debug_str:0000000000022530 .LASF5577
C:\Users\CYMR90~1\AppData\Local\Temp\ccX1amHi.s:30378  .debug_str:0000000000024ccc .LASF5578
C:\Users\CYMR90~1\AppData\Local\Temp\ccX1amHi.s:28348  .debug_str:000000000001cf86 .LASF5579
C:\Users\CYMR90~1\AppData\Local\Temp\ccX1amHi.s:21723  .debug_str:0000000000002418 .LASF5580
C:\Users\CYMR90~1\AppData\Local\Temp\ccX1amHi.s:26313  .debug_str:0000000000014a84 .LASF5581
C:\Users\CYMR90~1\AppData\Local\Temp\ccX1amHi.s:25561  .debug_str:0000000000011a13 .LASF5582
C:\Users\CYMR90~1\AppData\Local\Temp\ccX1amHi.s:1773   .text.fmc_ready_wait:0000000000000000 .LFB379
C:\Users\CYMR90~1\AppData\Local\Temp\ccX1amHi.s:1825   .text.fmc_ready_wait:0000000000000056 .LFE379
C:\Users\CYMR90~1\AppData\Local\Temp\ccX1amHi.s:31868  .debug_str:000000000002ac9a .LASF5585
C:\Users\CYMR90~1\AppData\Local\Temp\ccX1amHi.s:29238  .debug_str:00000000000206bc .LASF5584
C:\Users\CYMR90~1\AppData\Local\Temp\ccX1amHi.s:22617  .debug_str:0000000000005dd0 .LASF5583
C:\Users\CYMR90~1\AppData\Local\Temp\ccX1amHi.s:1720   .text.fmc_state_get:0000000000000000 .LFB378
C:\Users\CYMR90~1\AppData\Local\Temp\ccX1amHi.s:1767   .text.fmc_state_get:000000000000003c .LFE378
C:\Users\CYMR90~1\AppData\Local\Temp\ccX1amHi.s:29506  .debug_str:000000000002178e .LASF5588
C:\Users\CYMR90~1\AppData\Local\Temp\ccX1amHi.s:1689   .text.fmc_interrupt_flag_clear:0000000000000000 .LFB377
C:\Users\CYMR90~1\AppData\Local\Temp\ccX1amHi.s:1714   .text.fmc_interrupt_flag_clear:000000000000001e .LFE377
C:\Users\CYMR90~1\AppData\Local\Temp\ccX1amHi.s:23729  .debug_str:000000000000a58a .LASF5586
C:\Users\CYMR90~1\AppData\Local\Temp\ccX1amHi.s:30000  .debug_str:0000000000023465 .LASF5593
C:\Users\CYMR90~1\AppData\Local\Temp\ccX1amHi.s:1646   .text.fmc_interrupt_flag_get:0000000000000000 .LFB376
C:\Users\CYMR90~1\AppData\Local\Temp\ccX1amHi.s:1682   .text.fmc_interrupt_flag_get:0000000000000030 .LFE376
C:\Users\CYMR90~1\AppData\Local\Temp\ccX1amHi.s:24177  .debug_str:000000000000c2c3 .LASF5587
C:\Users\CYMR90~1\AppData\Local\Temp\ccX1amHi.s:24477  .debug_str:000000000000d6f3 .LASF5589
C:\Users\CYMR90~1\AppData\Local\Temp\ccX1amHi.s:1608   .text.fmc_interrupt_disable:0000000000000000 .LFB375
C:\Users\CYMR90~1\AppData\Local\Temp\ccX1amHi.s:1639   .text.fmc_interrupt_disable:000000000000002c .LFE375
C:\Users\CYMR90~1\AppData\Local\Temp\ccX1amHi.s:27836  .debug_str:000000000001ae51 .LASF5590
C:\Users\CYMR90~1\AppData\Local\Temp\ccX1amHi.s:21535  .debug_str:000000000000194f .LASF5591
C:\Users\CYMR90~1\AppData\Local\Temp\ccX1amHi.s:1573   .text.fmc_interrupt_enable:0000000000000000 .LFB374
C:\Users\CYMR90~1\AppData\Local\Temp\ccX1amHi.s:1601   .text.fmc_interrupt_enable:0000000000000028 .LFE374
C:\Users\CYMR90~1\AppData\Local\Temp\ccX1amHi.s:27388  .debug_str:0000000000018ff3 .LASF5592
C:\Users\CYMR90~1\AppData\Local\Temp\ccX1amHi.s:1541   .text.fmc_flag_clear:0000000000000000 .LFB373
C:\Users\CYMR90~1\AppData\Local\Temp\ccX1amHi.s:1566   .text.fmc_flag_clear:000000000000001e .LFE373
C:\Users\CYMR90~1\AppData\Local\Temp\ccX1amHi.s:21245  .debug_str:00000000000006dc .LASF5594
C:\Users\CYMR90~1\AppData\Local\Temp\ccX1amHi.s:1498   .text.fmc_flag_get:0000000000000000 .LFB372
C:\Users\CYMR90~1\AppData\Local\Temp\ccX1amHi.s:1534   .text.fmc_flag_get:0000000000000030 .LFE372
C:\Users\CYMR90~1\AppData\Local\Temp\ccX1amHi.s:25721  .debug_str:0000000000012473 .LASF5595
C:\Users\CYMR90~1\AppData\Local\Temp\ccX1amHi.s:1453   .text.ob_security_protection_flag_get:0000000000000000 .LFB371
C:\Users\CYMR90~1\AppData\Local\Temp\ccX1amHi.s:1491   .text.ob_security_protection_flag_get:000000000000002e .LFE371
C:\Users\CYMR90~1\AppData\Local\Temp\ccX1amHi.s:29260  .debug_str:0000000000020852 .LASF5596
C:\Users\CYMR90~1\AppData\Local\Temp\ccX1amHi.s:27434  .debug_str:000000000001936e .LASF5648
C:\Users\CYMR90~1\AppData\Local\Temp\ccX1amHi.s:1424   .text.ob_user_get:0000000000000000 .LFB370
C:\Users\CYMR90~1\AppData\Local\Temp\ccX1amHi.s:1446   .text.ob_user_get:0000000000000018 .LFE370
C:\Users\CYMR90~1\AppData\Local\Temp\ccX1amHi.s:28994  .debug_str:000000000001f7d6 .LASF5597
C:\Users\CYMR90~1\AppData\Local\Temp\ccX1amHi.s:1379   .text.ob_write_protection_get:0000000000000000 .LFB369
C:\Users\CYMR90~1\AppData\Local\Temp\ccX1amHi.s:1417   .text.ob_write_protection_get:000000000000002e .LFE369
C:\Users\CYMR90~1\AppData\Local\Temp\ccX1amHi.s:31190  .debug_str:000000000002834c .LASF5598
C:\Users\CYMR90~1\AppData\Local\Temp\ccX1amHi.s:1328   .text.fmc_pid_get:0000000000000000 .LFB368
C:\Users\CYMR90~1\AppData\Local\Temp\ccX1amHi.s:1372   .text.fmc_pid_get:0000000000000044 .LFE368
C:\Users\CYMR90~1\AppData\Local\Temp\ccX1amHi.s:26123  .debug_str:0000000000013ec5 .LASF5599
C:\Users\CYMR90~1\AppData\Local\Temp\ccX1amHi.s:23619  .debug_str:0000000000009ec3 .LASF5600
C:\Users\CYMR90~1\AppData\Local\Temp\ccX1amHi.s:1260   .text.fmc_wifi_trim_get:0000000000000000 .LFB367
C:\Users\CYMR90~1\AppData\Local\Temp\ccX1amHi.s:1321   .text.fmc_wifi_trim_get:0000000000000064 .LFE367
C:\Users\CYMR90~1\AppData\Local\Temp\ccX1amHi.s:22485  .debug_str:00000000000055b8 .LASF5601
C:\Users\CYMR90~1\AppData\Local\Temp\ccX1amHi.s:26453  .debug_str:00000000000153d3 .LASF5602
C:\Users\CYMR90~1\AppData\Local\Temp\ccX1amHi.s:1215   .text.fmc_wifi_trim_pa_get:0000000000000000 .LFB366
C:\Users\CYMR90~1\AppData\Local\Temp\ccX1amHi.s:1253   .text.fmc_wifi_trim_pa_get:0000000000000040 .LFE366
C:\Users\CYMR90~1\AppData\Local\Temp\ccX1amHi.s:24597  .debug_str:000000000000ddba .LASF5603
C:\Users\CYMR90~1\AppData\Local\Temp\ccX1amHi.s:24599  .debug_str:000000000000ddc8 .LASF5604
C:\Users\CYMR90~1\AppData\Local\Temp\ccX1amHi.s:28566  .debug_str:000000000001dd83 .LASF5605
C:\Users\CYMR90~1\AppData\Local\Temp\ccX1amHi.s:23797  .debug_str:000000000000a998 .LASF5606
C:\Users\CYMR90~1\AppData\Local\Temp\ccX1amHi.s:1146   .text.fmc_wifi_trim_cal_get:0000000000000000 .LFB365
C:\Users\CYMR90~1\AppData\Local\Temp\ccX1amHi.s:1208   .text.fmc_wifi_trim_cal_get:000000000000007a .LFE365
C:\Users\CYMR90~1\AppData\Local\Temp\ccX1amHi.s:26697  .debug_str:00000000000162d5 .LASF5607
C:\Users\CYMR90~1\AppData\Local\Temp\ccX1amHi.s:25951  .debug_str:00000000000133eb .LASF5608
C:\Users\CYMR90~1\AppData\Local\Temp\ccX1amHi.s:25893  .debug_str:0000000000013003 .LASF5609
C:\Users\CYMR90~1\AppData\Local\Temp\ccX1amHi.s:27058  .debug_str:0000000000017bad .LASF5610
C:\Users\CYMR90~1\AppData\Local\Temp\ccX1amHi.s:30310  .debug_str:0000000000024827 .LASF5611
C:\Users\CYMR90~1\AppData\Local\Temp\ccX1amHi.s:21995  .debug_str:000000000000353c .LASF5612
C:\Users\CYMR90~1\AppData\Local\Temp\ccX1amHi.s:1106   .text.fmc_offset_value_config:0000000000000000 .LFB364
C:\Users\CYMR90~1\AppData\Local\Temp\ccX1amHi.s:1139   .text.fmc_offset_value_config:0000000000000038 .LFE364
C:\Users\CYMR90~1\AppData\Local\Temp\ccX1amHi.s:24949  .debug_str:000000000000f336 .LASF5613
C:\Users\CYMR90~1\AppData\Local\Temp\ccX1amHi.s:27840  .debug_str:000000000001ae79 .LASF5614
C:\Users\CYMR90~1\AppData\Local\Temp\ccX1amHi.s:1053   .text.fmc_offset_region_config:0000000000000000 .LFB363
C:\Users\CYMR90~1\AppData\Local\Temp\ccX1amHi.s:1099   .text.fmc_offset_region_config:000000000000005a .LFE363
C:\Users\CYMR90~1\AppData\Local\Temp\ccX1amHi.s:26926  .debug_str:0000000000017361 .LASF5615
C:\Users\CYMR90~1\AppData\Local\Temp\ccX1amHi.s:25191  .debug_str:00000000000102b4 .LASF5616
C:\Users\CYMR90~1\AppData\Local\Temp\ccX1amHi.s:27228  .debug_str:00000000000185bf .LASF5617
C:\Users\CYMR90~1\AppData\Local\Temp\ccX1amHi.s:885    .text.fmc_no_rtdec_config:0000000000000000 .LFB362
C:\Users\CYMR90~1\AppData\Local\Temp\ccX1amHi.s:1046   .text.fmc_no_rtdec_config:000000000000016e .LFE362
C:\Users\CYMR90~1\AppData\Local\Temp\ccX1amHi.s:23693  .debug_str:000000000000a347 .LASF5618
C:\Users\CYMR90~1\AppData\Local\Temp\ccX1amHi.s:21893  .debug_str:0000000000002ea8 .LASF5619
C:\Users\CYMR90~1\AppData\Local\Temp\ccX1amHi.s:30130  .debug_str:0000000000023c66 .LASF5620
C:\Users\CYMR90~1\AppData\Local\Temp\ccX1amHi.s:28602  .debug_str:000000000001e03c .LASF5621
C:\Users\CYMR90~1\AppData\Local\Temp\ccX1amHi.s:763    .text.ob_write_protection_config:0000000000000000 .LFB361
C:\Users\CYMR90~1\AppData\Local\Temp\ccX1amHi.s:878    .text.ob_write_protection_config:00000000000000fa .LFE361
C:\Users\CYMR90~1\AppData\Local\Temp\ccX1amHi.s:31606  .debug_str:0000000000029d3b .LASF5622
C:\Users\CYMR90~1\AppData\Local\Temp\ccX1amHi.s:26980  .debug_str:000000000001769e .LASF5623
C:\Users\CYMR90~1\AppData\Local\Temp\ccX1amHi.s:25319  .debug_str:0000000000010aea .LASF5624
C:\Users\CYMR90~1\AppData\Local\Temp\ccX1amHi.s:23745  .debug_str:000000000000a684 .LASF5625
C:\Users\CYMR90~1\AppData\Local\Temp\ccX1amHi.s:694    .text.ob_user_write:0000000000000000 .LFB360
C:\Users\CYMR90~1\AppData\Local\Temp\ccX1amHi.s:756    .text.ob_user_write:0000000000000084 .LFE360
C:\Users\CYMR90~1\AppData\Local\Temp\ccX1amHi.s:27848  .debug_str:000000000001af01 .LASF5626
C:\Users\CYMR90~1\AppData\Local\Temp\ccX1amHi.s:24961  .debug_str:000000000000f40f .LASF5627
C:\Users\CYMR90~1\AppData\Local\Temp\ccX1amHi.s:623    .text.ob_security_protection_config:0000000000000000 .LFB359
C:\Users\CYMR90~1\AppData\Local\Temp\ccX1amHi.s:687    .text.ob_security_protection_config:0000000000000088 .LFE359
C:\Users\CYMR90~1\AppData\Local\Temp\ccX1amHi.s:30308  .debug_str:0000000000024820 .LASF5628
C:\Users\CYMR90~1\AppData\Local\Temp\ccX1amHi.s:23953  .debug_str:000000000000b3b9 .LASF5629
C:\Users\CYMR90~1\AppData\Local\Temp\ccX1amHi.s:589    .text.ob_reload:0000000000000000 .LFB358
C:\Users\CYMR90~1\AppData\Local\Temp\ccX1amHi.s:616    .text.ob_reload:0000000000000022 .LFE358
C:\Users\CYMR90~1\AppData\Local\Temp\ccX1amHi.s:21153  .debug_str:000000000000014c .LASF5630
C:\Users\CYMR90~1\AppData\Local\Temp\ccX1amHi.s:554    .text.ob_start:0000000000000000 .LFB357
C:\Users\CYMR90~1\AppData\Local\Temp\ccX1amHi.s:582    .text.ob_start:0000000000000026 .LFE357
C:\Users\CYMR90~1\AppData\Local\Temp\ccX1amHi.s:28846  .debug_str:000000000001eee3 .LASF5631
C:\Users\CYMR90~1\AppData\Local\Temp\ccX1amHi.s:521    .text.ob_lock:0000000000000000 .LFB356
C:\Users\CYMR90~1\AppData\Local\Temp\ccX1amHi.s:547    .text.ob_lock:0000000000000022 .LFE356
C:\Users\CYMR90~1\AppData\Local\Temp\ccX1amHi.s:27806  .debug_str:000000000001aca8 .LASF5632
C:\Users\CYMR90~1\AppData\Local\Temp\ccX1amHi.s:473    .text.ob_unlock:0000000000000000 .LFB355
C:\Users\CYMR90~1\AppData\Local\Temp\ccX1amHi.s:514    .text.ob_unlock:000000000000003c .LFE355
C:\Users\CYMR90~1\AppData\Local\Temp\ccX1amHi.s:31634  .debug_str:0000000000029ec6 .LASF5633
C:\Users\CYMR90~1\AppData\Local\Temp\ccX1amHi.s:435    .text.fmc_obr_function_disable:0000000000000000 .LFB354
C:\Users\CYMR90~1\AppData\Local\Temp\ccX1amHi.s:466    .text.fmc_obr_function_disable:0000000000000030 .LFE354
C:\Users\CYMR90~1\AppData\Local\Temp\ccX1amHi.s:25677  .debug_str:00000000000121c0 .LASF5634
C:\Users\CYMR90~1\AppData\Local\Temp\ccX1amHi.s:23509  .debug_str:00000000000097a2 .LASF5635
C:\Users\CYMR90~1\AppData\Local\Temp\ccX1amHi.s:400    .text.fmc_obr_function_enable:0000000000000000 .LFB353
C:\Users\CYMR90~1\AppData\Local\Temp\ccX1amHi.s:428    .text.fmc_obr_function_enable:000000000000002c .LFE353
C:\Users\CYMR90~1\AppData\Local\Temp\ccX1amHi.s:26723  .debug_str:000000000001645c .LASF5636
C:\Users\CYMR90~1\AppData\Local\Temp\ccX1amHi.s:309    .text.fmc_continuous_program:0000000000000000 .LFB352
C:\Users\CYMR90~1\AppData\Local\Temp\ccX1amHi.s:393    .text.fmc_continuous_program:000000000000009c .LFE352
C:\Users\CYMR90~1\AppData\Local\Temp\ccX1amHi.s:26475  .debug_str:00000000000154d1 .LASF5637
C:\Users\CYMR90~1\AppData\Local\Temp\ccX1amHi.s:31520  .debug_str:000000000002983a .LASF5638
C:\Users\CYMR90~1\AppData\Local\Temp\ccX1amHi.s:340    .text.fmc_continuous_program:0000000000000042 .LBB2
C:\Users\CYMR90~1\AppData\Local\Temp\ccX1amHi.s:370    .text.fmc_continuous_program:000000000000007c .LBE2
C:\Users\CYMR90~1\AppData\Local\Temp\ccX1amHi.s:23305  .debug_str:0000000000008ae9 .LASF5639
C:\Users\CYMR90~1\AppData\Local\Temp\ccX1amHi.s:241    .text.fmc_word_program:0000000000000000 .LFB351
C:\Users\CYMR90~1\AppData\Local\Temp\ccX1amHi.s:302    .text.fmc_word_program:0000000000000078 .LFE351
C:\Users\CYMR90~1\AppData\Local\Temp\ccX1amHi.s:29590  .debug_str:0000000000021c82 .LASF5640
C:\Users\CYMR90~1\AppData\Local\Temp\ccX1amHi.s:172    .text.fmc_mass_erase:0000000000000000 .LFB350
C:\Users\CYMR90~1\AppData\Local\Temp\ccX1amHi.s:234    .text.fmc_mass_erase:000000000000007a .LFE350
C:\Users\CYMR90~1\AppData\Local\Temp\ccX1amHi.s:21555  .debug_str:0000000000001a75 .LASF5641
C:\Users\CYMR90~1\AppData\Local\Temp\ccX1amHi.s:96     .text.fmc_page_erase:0000000000000000 .LFB349
C:\Users\CYMR90~1\AppData\Local\Temp\ccX1amHi.s:165    .text.fmc_page_erase:000000000000008a .LFE349
C:\Users\CYMR90~1\AppData\Local\Temp\ccX1amHi.s:23647  .debug_str:000000000000a073 .LASF5642
C:\Users\CYMR90~1\AppData\Local\Temp\ccX1amHi.s:25471  .debug_str:00000000000113f1 .LASF5643
C:\Users\CYMR90~1\AppData\Local\Temp\ccX1amHi.s:63     .text.fmc_lock:0000000000000000 .LFB348
C:\Users\CYMR90~1\AppData\Local\Temp\ccX1amHi.s:89     .text.fmc_lock:0000000000000022 .LFE348
C:\Users\CYMR90~1\AppData\Local\Temp\ccX1amHi.s:31060  .debug_str:00000000000279b8 .LASF5644
C:\Users\CYMR90~1\AppData\Local\Temp\ccX1amHi.s:14     .text.fmc_unlock:0000000000000000 .LFB347
C:\Users\CYMR90~1\AppData\Local\Temp\ccX1amHi.s:56     .text.fmc_unlock:000000000000003c .LFE347
C:\Users\CYMR90~1\AppData\Local\Temp\ccX1amHi.s:1834   .debug_info:0000000000000000 .Ldebug_info0
C:\Users\CYMR90~1\AppData\Local\Temp\ccX1amHi.s:4116   .debug_macro:0000000000000000 .Ldebug_macro2
C:\Users\CYMR90~1\AppData\Local\Temp\ccX1amHi.s:25843  .debug_str:0000000000012cb4 .LASF314
C:\Users\CYMR90~1\AppData\Local\Temp\ccX1amHi.s:26904  .debug_str:0000000000017218 .LASF315
C:\Users\CYMR90~1\AppData\Local\Temp\ccX1amHi.s:5063   .debug_macro:0000000000000000 .Ldebug_macro3
C:\Users\CYMR90~1\AppData\Local\Temp\ccX1amHi.s:23317  .debug_str:0000000000008ba2 .LASF369
C:\Users\CYMR90~1\AppData\Local\Temp\ccX1amHi.s:22877  .debug_str:0000000000006ddf .LASF370
C:\Users\CYMR90~1\AppData\Local\Temp\ccX1amHi.s:27150  .debug_str:000000000001810c .LASF371
C:\Users\CYMR90~1\AppData\Local\Temp\ccX1amHi.s:5227   .debug_macro:0000000000000000 .Ldebug_macro4
C:\Users\CYMR90~1\AppData\Local\Temp\ccX1amHi.s:5247   .debug_macro:0000000000000000 .Ldebug_macro5
C:\Users\CYMR90~1\AppData\Local\Temp\ccX1amHi.s:25803  .debug_str:0000000000012a25 .LASF390
C:\Users\CYMR90~1\AppData\Local\Temp\ccX1amHi.s:5291   .debug_macro:0000000000000000 .Ldebug_macro6
C:\Users\CYMR90~1\AppData\Local\Temp\ccX1amHi.s:5305   .debug_macro:0000000000000000 .Ldebug_macro7
C:\Users\CYMR90~1\AppData\Local\Temp\ccX1amHi.s:5373   .debug_macro:0000000000000000 .Ldebug_macro8
C:\Users\CYMR90~1\AppData\Local\Temp\ccX1amHi.s:5399   .debug_macro:0000000000000000 .Ldebug_macro9
C:\Users\CYMR90~1\AppData\Local\Temp\ccX1amHi.s:5428   .debug_macro:0000000000000000 .Ldebug_macro10
C:\Users\CYMR90~1\AppData\Local\Temp\ccX1amHi.s:27286  .debug_str:0000000000018929 .LASF433
C:\Users\CYMR90~1\AppData\Local\Temp\ccX1amHi.s:5442   .debug_macro:0000000000000000 .Ldebug_macro11
C:\Users\CYMR90~1\AppData\Local\Temp\ccX1amHi.s:5486   .debug_macro:0000000000000000 .Ldebug_macro12
C:\Users\CYMR90~1\AppData\Local\Temp\ccX1amHi.s:5512   .debug_macro:0000000000000000 .Ldebug_macro13
C:\Users\CYMR90~1\AppData\Local\Temp\ccX1amHi.s:30838  .debug_str:0000000000026ba6 .LASF569
C:\Users\CYMR90~1\AppData\Local\Temp\ccX1amHi.s:5883   .debug_macro:0000000000000000 .Ldebug_macro14
C:\Users\CYMR90~1\AppData\Local\Temp\ccX1amHi.s:25323  .debug_str:0000000000010b16 .LASF572
C:\Users\CYMR90~1\AppData\Local\Temp\ccX1amHi.s:30184  .debug_str:0000000000023f77 .LASF573
C:\Users\CYMR90~1\AppData\Local\Temp\ccX1amHi.s:5894   .debug_macro:0000000000000000 .Ldebug_macro15
C:\Users\CYMR90~1\AppData\Local\Temp\ccX1amHi.s:5908   .debug_macro:0000000000000000 .Ldebug_macro16
C:\Users\CYMR90~1\AppData\Local\Temp\ccX1amHi.s:21817  .debug_str:0000000000002a02 .LASF578
C:\Users\CYMR90~1\AppData\Local\Temp\ccX1amHi.s:5940   .debug_macro:0000000000000000 .Ldebug_macro17
C:\Users\CYMR90~1\AppData\Local\Temp\ccX1amHi.s:5966   .debug_macro:0000000000000000 .Ldebug_macro18
C:\Users\CYMR90~1\AppData\Local\Temp\ccX1amHi.s:5977   .debug_macro:0000000000000000 .Ldebug_macro19
C:\Users\CYMR90~1\AppData\Local\Temp\ccX1amHi.s:6021   .debug_macro:0000000000000000 .Ldebug_macro20
C:\Users\CYMR90~1\AppData\Local\Temp\ccX1amHi.s:6191   .debug_macro:0000000000000000 .Ldebug_macro21
C:\Users\CYMR90~1\AppData\Local\Temp\ccX1amHi.s:6202   .debug_macro:0000000000000000 .Ldebug_macro22
C:\Users\CYMR90~1\AppData\Local\Temp\ccX1amHi.s:25809  .debug_str:0000000000012a7e .LASF675
C:\Users\CYMR90~1\AppData\Local\Temp\ccX1amHi.s:6258   .debug_macro:0000000000000000 .Ldebug_macro23
C:\Users\CYMR90~1\AppData\Local\Temp\ccX1amHi.s:6275   .debug_macro:0000000000000000 .Ldebug_macro24
C:\Users\CYMR90~1\AppData\Local\Temp\ccX1amHi.s:29018  .debug_str:000000000001f939 .LASF693
C:\Users\CYMR90~1\AppData\Local\Temp\ccX1amHi.s:27156  .debug_str:000000000001813d .LASF694
C:\Users\CYMR90~1\AppData\Local\Temp\ccX1amHi.s:6319   .debug_macro:0000000000000000 .Ldebug_macro25
C:\Users\CYMR90~1\AppData\Local\Temp\ccX1amHi.s:22329  .debug_str:0000000000004c43 .LASF700
C:\Users\CYMR90~1\AppData\Local\Temp\ccX1amHi.s:23459  .debug_str:000000000000943f .LASF701
C:\Users\CYMR90~1\AppData\Local\Temp\ccX1amHi.s:6339   .debug_macro:0000000000000000 .Ldebug_macro26
C:\Users\CYMR90~1\AppData\Local\Temp\ccX1amHi.s:6350   .debug_macro:0000000000000000 .Ldebug_macro27
C:\Users\CYMR90~1\AppData\Local\Temp\ccX1amHi.s:6394   .debug_macro:0000000000000000 .Ldebug_macro28
C:\Users\CYMR90~1\AppData\Local\Temp\ccX1amHi.s:22699  .debug_str:00000000000062d1 .LASF749
C:\Users\CYMR90~1\AppData\Local\Temp\ccX1amHi.s:6495   .debug_macro:0000000000000000 .Ldebug_macro29
C:\Users\CYMR90~1\AppData\Local\Temp\ccX1amHi.s:6512   .debug_macro:0000000000000000 .Ldebug_macro30
C:\Users\CYMR90~1\AppData\Local\Temp\ccX1amHi.s:21203  .debug_str:0000000000000479 .LASF763
C:\Users\CYMR90~1\AppData\Local\Temp\ccX1amHi.s:22501  .debug_str:00000000000056d2 .LASF764
C:\Users\CYMR90~1\AppData\Local\Temp\ccX1amHi.s:6544   .debug_macro:0000000000000000 .Ldebug_macro31
C:\Users\CYMR90~1\AppData\Local\Temp\ccX1amHi.s:6558   .debug_macro:0000000000000000 .Ldebug_macro32
C:\Users\CYMR90~1\AppData\Local\Temp\ccX1amHi.s:6728   .debug_macro:0000000000000000 .Ldebug_macro33
C:\Users\CYMR90~1\AppData\Local\Temp\ccX1amHi.s:24983  .debug_str:000000000000f54e .LASF850
C:\Users\CYMR90~1\AppData\Local\Temp\ccX1amHi.s:27372  .debug_str:0000000000018f33 .LASF851
C:\Users\CYMR90~1\AppData\Local\Temp\ccX1amHi.s:6814   .debug_macro:0000000000000000 .Ldebug_macro34
C:\Users\CYMR90~1\AppData\Local\Temp\ccX1amHi.s:6939   .debug_macro:0000000000000000 .Ldebug_macro35
C:\Users\CYMR90~1\AppData\Local\Temp\ccX1amHi.s:21475  .debug_str:00000000000014f5 .LASF951
C:\Users\CYMR90~1\AppData\Local\Temp\ccX1amHi.s:7151   .debug_macro:0000000000000000 .Ldebug_macro36
C:\Users\CYMR90~1\AppData\Local\Temp\ccX1amHi.s:23205  .debug_str:0000000000008500 .LASF957
C:\Users\CYMR90~1\AppData\Local\Temp\ccX1amHi.s:22751  .debug_str:00000000000065de .LASF958
C:\Users\CYMR90~1\AppData\Local\Temp\ccX1amHi.s:21641  .debug_str:0000000000001f8e .LASF959
C:\Users\CYMR90~1\AppData\Local\Temp\ccX1amHi.s:7171   .debug_macro:0000000000000000 .Ldebug_macro37
C:\Users\CYMR90~1\AppData\Local\Temp\ccX1amHi.s:7263   .debug_macro:0000000000000000 .Ldebug_macro38
C:\Users\CYMR90~1\AppData\Local\Temp\ccX1amHi.s:8909   .debug_macro:0000000000000000 .Ldebug_macro39
C:\Users\CYMR90~1\AppData\Local\Temp\ccX1amHi.s:9001   .debug_macro:0000000000000000 .Ldebug_macro40
C:\Users\CYMR90~1\AppData\Local\Temp\ccX1amHi.s:9057   .debug_macro:0000000000000000 .Ldebug_macro41
C:\Users\CYMR90~1\AppData\Local\Temp\ccX1amHi.s:9071   .debug_macro:0000000000000000 .Ldebug_macro42
C:\Users\CYMR90~1\AppData\Local\Temp\ccX1amHi.s:26693  .debug_str:00000000000162a7 .LASF1655
C:\Users\CYMR90~1\AppData\Local\Temp\ccX1amHi.s:23587  .debug_str:0000000000009cf6 .LASF1656
C:\Users\CYMR90~1\AppData\Local\Temp\ccX1amHi.s:9295   .debug_macro:0000000000000000 .Ldebug_macro43
C:\Users\CYMR90~1\AppData\Local\Temp\ccX1amHi.s:9342   .debug_macro:0000000000000000 .Ldebug_macro44
C:\Users\CYMR90~1\AppData\Local\Temp\ccX1amHi.s:9497   .debug_macro:0000000000000000 .Ldebug_macro45
C:\Users\CYMR90~1\AppData\Local\Temp\ccX1amHi.s:9553   .debug_macro:0000000000000000 .Ldebug_macro46
C:\Users\CYMR90~1\AppData\Local\Temp\ccX1amHi.s:9564   .debug_macro:0000000000000000 .Ldebug_macro47
C:\Users\CYMR90~1\AppData\Local\Temp\ccX1amHi.s:31626  .debug_str:0000000000029e6c .LASF1782
C:\Users\CYMR90~1\AppData\Local\Temp\ccX1amHi.s:26455  .debug_str:00000000000153e8 .LASF1783
C:\Users\CYMR90~1\AppData\Local\Temp\ccX1amHi.s:9695   .debug_macro:0000000000000000 .Ldebug_macro48
C:\Users\CYMR90~1\AppData\Local\Temp\ccX1amHi.s:10267  .debug_macro:0000000000000000 .Ldebug_macro49
C:\Users\CYMR90~1\AppData\Local\Temp\ccX1amHi.s:10554  .debug_macro:0000000000000000 .Ldebug_macro50
C:\Users\CYMR90~1\AppData\Local\Temp\ccX1amHi.s:10583  .debug_macro:0000000000000000 .Ldebug_macro51
C:\Users\CYMR90~1\AppData\Local\Temp\ccX1amHi.s:10660  .debug_macro:0000000000000000 .Ldebug_macro52
C:\Users\CYMR90~1\AppData\Local\Temp\ccX1amHi.s:11193  .debug_macro:0000000000000000 .Ldebug_macro53
C:\Users\CYMR90~1\AppData\Local\Temp\ccX1amHi.s:11216  .debug_macro:0000000000000000 .Ldebug_macro54
C:\Users\CYMR90~1\AppData\Local\Temp\ccX1amHi.s:11482  .debug_macro:0000000000000000 .Ldebug_macro55
C:\Users\CYMR90~1\AppData\Local\Temp\ccX1amHi.s:11961  .debug_macro:0000000000000000 .Ldebug_macro56
C:\Users\CYMR90~1\AppData\Local\Temp\ccX1amHi.s:12050  .debug_macro:0000000000000000 .Ldebug_macro57
C:\Users\CYMR90~1\AppData\Local\Temp\ccX1amHi.s:12865  .debug_macro:0000000000000000 .Ldebug_macro58
C:\Users\CYMR90~1\AppData\Local\Temp\ccX1amHi.s:13056  .debug_macro:0000000000000000 .Ldebug_macro59
C:\Users\CYMR90~1\AppData\Local\Temp\ccX1amHi.s:13559  .debug_macro:0000000000000000 .Ldebug_macro60
C:\Users\CYMR90~1\AppData\Local\Temp\ccX1amHi.s:13705  .debug_macro:0000000000000000 .Ldebug_macro61
C:\Users\CYMR90~1\AppData\Local\Temp\ccX1amHi.s:14235  .debug_macro:0000000000000000 .Ldebug_macro62
C:\Users\CYMR90~1\AppData\Local\Temp\ccX1amHi.s:14657  .debug_macro:0000000000000000 .Ldebug_macro63
C:\Users\CYMR90~1\AppData\Local\Temp\ccX1amHi.s:17431  .debug_macro:0000000000000000 .Ldebug_macro64
C:\Users\CYMR90~1\AppData\Local\Temp\ccX1amHi.s:18507  .debug_macro:0000000000000000 .Ldebug_macro65
C:\Users\CYMR90~1\AppData\Local\Temp\ccX1amHi.s:18776  .debug_macro:0000000000000000 .Ldebug_macro66
C:\Users\CYMR90~1\AppData\Local\Temp\ccX1amHi.s:19048  .debug_macro:0000000000000000 .Ldebug_macro67
C:\Users\CYMR90~1\AppData\Local\Temp\ccX1amHi.s:20076  .debug_macro:0000000000000000 .Ldebug_macro68
C:\Users\CYMR90~1\AppData\Local\Temp\ccX1amHi.s:20120  .debug_macro:0000000000000000 .Ldebug_macro69
C:\Users\CYMR90~1\AppData\Local\Temp\ccX1amHi.s:20746  .debug_macro:0000000000000000 .Ldebug_macro70
C:\Users\CYMR90~1\AppData\Local\Temp\ccX1amHi.s:20805  .debug_macro:0000000000000000 .Ldebug_macro71
C:\Users\CYMR90~1\AppData\Local\Temp\ccX1amHi.s:27438  .debug_str:0000000000019391 .LASF5556
C:\Users\CYMR90~1\AppData\Local\Temp\ccX1amHi.s:23351  .debug_str:0000000000008d92 .LASF5557
C:\Users\CYMR90~1\AppData\Local\Temp\ccX1amHi.s:28604  .debug_str:000000000001e057 .LASF5558
C:\Users\CYMR90~1\AppData\Local\Temp\ccX1amHi.s:22509  .debug_str:0000000000005752 .LASF5559
C:\Users\CYMR90~1\AppData\Local\Temp\ccX1amHi.s:22483  .debug_str:00000000000055ad .LASF0
C:\Users\CYMR90~1\AppData\Local\Temp\ccX1amHi.s:26886  .debug_str:000000000001711f .LASF1
C:\Users\CYMR90~1\AppData\Local\Temp\ccX1amHi.s:25149  .debug_str:000000000001002c .LASF2
C:\Users\CYMR90~1\AppData\Local\Temp\ccX1amHi.s:25209  .debug_str:00000000000103c9 .LASF3
C:\Users\CYMR90~1\AppData\Local\Temp\ccX1amHi.s:26485  .debug_str:0000000000015562 .LASF4
C:\Users\CYMR90~1\AppData\Local\Temp\ccX1amHi.s:32018  .debug_str:000000000002b664 .LASF5
C:\Users\CYMR90~1\AppData\Local\Temp\ccX1amHi.s:22725  .debug_str:0000000000006475 .LASF6
C:\Users\CYMR90~1\AppData\Local\Temp\ccX1amHi.s:31340  .debug_str:0000000000028d11 .LASF7
C:\Users\CYMR90~1\AppData\Local\Temp\ccX1amHi.s:30294  .debug_str:000000000002474e .LASF8
C:\Users\CYMR90~1\AppData\Local\Temp\ccX1amHi.s:28230  .debug_str:000000000001c69f .LASF9
C:\Users\CYMR90~1\AppData\Local\Temp\ccX1amHi.s:27570  .debug_str:0000000000019c69 .LASF10
C:\Users\CYMR90~1\AppData\Local\Temp\ccX1amHi.s:27428  .debug_str:0000000000019313 .LASF11
C:\Users\CYMR90~1\AppData\Local\Temp\ccX1amHi.s:31860  .debug_str:000000000002ac3c .LASF12
C:\Users\CYMR90~1\AppData\Local\Temp\ccX1amHi.s:27444  .debug_str:00000000000193fc .LASF13
C:\Users\CYMR90~1\AppData\Local\Temp\ccX1amHi.s:24235  .debug_str:000000000000c61c .LASF14
C:\Users\CYMR90~1\AppData\Local\Temp\ccX1amHi.s:28812  .debug_str:000000000001ecf6 .LASF15
C:\Users\CYMR90~1\AppData\Local\Temp\ccX1amHi.s:29562  .debug_str:0000000000021ade .LASF16
C:\Users\CYMR90~1\AppData\Local\Temp\ccX1amHi.s:23793  .debug_str:000000000000a960 .LASF17
C:\Users\CYMR90~1\AppData\Local\Temp\ccX1amHi.s:30576  .debug_str:0000000000025b60 .LASF18
C:\Users\CYMR90~1\AppData\Local\Temp\ccX1amHi.s:24763  .debug_str:000000000000e80c .LASF19
C:\Users\CYMR90~1\AppData\Local\Temp\ccX1amHi.s:21801  .debug_str:0000000000002903 .LASF20
C:\Users\CYMR90~1\AppData\Local\Temp\ccX1amHi.s:27240  .debug_str:0000000000018667 .LASF21
C:\Users\CYMR90~1\AppData\Local\Temp\ccX1amHi.s:27238  .debug_str:000000000001864d .LASF22
C:\Users\CYMR90~1\AppData\Local\Temp\ccX1amHi.s:29860  .debug_str:0000000000022cb1 .LASF23
C:\Users\CYMR90~1\AppData\Local\Temp\ccX1amHi.s:28182  .debug_str:000000000001c414 .LASF24
C:\Users\CYMR90~1\AppData\Local\Temp\ccX1amHi.s:22033  .debug_str:000000000000382e .LASF25
C:\Users\CYMR90~1\AppData\Local\Temp\ccX1amHi.s:26627  .debug_str:0000000000015e1b .LASF26
C:\Users\CYMR90~1\AppData\Local\Temp\ccX1amHi.s:29864  .debug_str:0000000000022ce7 .LASF27
C:\Users\CYMR90~1\AppData\Local\Temp\ccX1amHi.s:29570  .debug_str:0000000000021b3b .LASF28
C:\Users\CYMR90~1\AppData\Local\Temp\ccX1amHi.s:22435  .debug_str:00000000000052ac .LASF29
C:\Users\CYMR90~1\AppData\Local\Temp\ccX1amHi.s:28582  .debug_str:000000000001dec8 .LASF30
C:\Users\CYMR90~1\AppData\Local\Temp\ccX1amHi.s:21425  .debug_str:000000000000122b .LASF31
C:\Users\CYMR90~1\AppData\Local\Temp\ccX1amHi.s:29052  .debug_str:000000000001fb32 .LASF32
C:\Users\CYMR90~1\AppData\Local\Temp\ccX1amHi.s:23629  .debug_str:0000000000009f54 .LASF33
C:\Users\CYMR90~1\AppData\Local\Temp\ccX1amHi.s:23475  .debug_str:0000000000009556 .LASF34
C:\Users\CYMR90~1\AppData\Local\Temp\ccX1amHi.s:24793  .debug_str:000000000000e9d7 .LASF35
C:\Users\CYMR90~1\AppData\Local\Temp\ccX1amHi.s:27678  .debug_str:000000000001a2b2 .LASF36
C:\Users\CYMR90~1\AppData\Local\Temp\ccX1amHi.s:22971  .debug_str:000000000000744a .LASF37
C:\Users\CYMR90~1\AppData\Local\Temp\ccX1amHi.s:25147  .debug_str:0000000000010009 .LASF38
C:\Users\CYMR90~1\AppData\Local\Temp\ccX1amHi.s:21993  .debug_str:000000000000351a .LASF39
C:\Users\CYMR90~1\AppData\Local\Temp\ccX1amHi.s:21793  .debug_str:0000000000002871 .LASF40
C:\Users\CYMR90~1\AppData\Local\Temp\ccX1amHi.s:25311  .debug_str:0000000000010a76 .LASF41
C:\Users\CYMR90~1\AppData\Local\Temp\ccX1amHi.s:25745  .debug_str:0000000000012641 .LASF42
C:\Users\CYMR90~1\AppData\Local\Temp\ccX1amHi.s:26005  .debug_str:00000000000137b1 .LASF43
C:\Users\CYMR90~1\AppData\Local\Temp\ccX1amHi.s:27668  .debug_str:000000000001a220 .LASF44
C:\Users\CYMR90~1\AppData\Local\Temp\ccX1amHi.s:25603  .debug_str:0000000000011d1c .LASF45
C:\Users\CYMR90~1\AppData\Local\Temp\ccX1amHi.s:22265  .debug_str:00000000000047a7 .LASF46
C:\Users\CYMR90~1\AppData\Local\Temp\ccX1amHi.s:28588  .debug_str:000000000001df2d .LASF47
C:\Users\CYMR90~1\AppData\Local\Temp\ccX1amHi.s:30296  .debug_str:0000000000024763 .LASF48
C:\Users\CYMR90~1\AppData\Local\Temp\ccX1amHi.s:24529  .debug_str:000000000000d9c1 .LASF49
C:\Users\CYMR90~1\AppData\Local\Temp\ccX1amHi.s:21637  .debug_str:0000000000001f5b .LASF50
C:\Users\CYMR90~1\AppData\Local\Temp\ccX1amHi.s:21155  .debug_str:0000000000000155 .LASF51
C:\Users\CYMR90~1\AppData\Local\Temp\ccX1amHi.s:31638  .debug_str:0000000000029f03 .LASF52
C:\Users\CYMR90~1\AppData\Local\Temp\ccX1amHi.s:24343  .debug_str:000000000000cdb6 .LASF53
C:\Users\CYMR90~1\AppData\Local\Temp\ccX1amHi.s:26077  .debug_str:0000000000013c1c .LASF54
C:\Users\CYMR90~1\AppData\Local\Temp\ccX1amHi.s:25111  .debug_str:000000000000fd95 .LASF55
C:\Users\CYMR90~1\AppData\Local\Temp\ccX1amHi.s:23059  .debug_str:00000000000079ff .LASF56
C:\Users\CYMR90~1\AppData\Local\Temp\ccX1amHi.s:26479  .debug_str:00000000000154ff .LASF57
C:\Users\CYMR90~1\AppData\Local\Temp\ccX1amHi.s:21379  .debug_str:0000000000000f89 .LASF58
C:\Users\CYMR90~1\AppData\Local\Temp\ccX1amHi.s:30580  .debug_str:0000000000025ba0 .LASF59
C:\Users\CYMR90~1\AppData\Local\Temp\ccX1amHi.s:26011  .debug_str:00000000000137f4 .LASF60
C:\Users\CYMR90~1\AppData\Local\Temp\ccX1amHi.s:27958  .debug_str:000000000001b657 .LASF61
C:\Users\CYMR90~1\AppData\Local\Temp\ccX1amHi.s:21859  .debug_str:0000000000002ca2 .LASF62
C:\Users\CYMR90~1\AppData\Local\Temp\ccX1amHi.s:24523  .debug_str:000000000000d97d .LASF63
C:\Users\CYMR90~1\AppData\Local\Temp\ccX1amHi.s:24257  .debug_str:000000000000c754 .LASF64
C:\Users\CYMR90~1\AppData\Local\Temp\ccX1amHi.s:27654  .debug_str:000000000001a157 .LASF65
C:\Users\CYMR90~1\AppData\Local\Temp\ccX1amHi.s:26309  .debug_str:0000000000014a44 .LASF66
C:\Users\CYMR90~1\AppData\Local\Temp\ccX1amHi.s:31412  .debug_str:0000000000029183 .LASF67
C:\Users\CYMR90~1\AppData\Local\Temp\ccX1amHi.s:31862  .debug_str:000000000002ac4f .LASF68
C:\Users\CYMR90~1\AppData\Local\Temp\ccX1amHi.s:25553  .debug_str:00000000000119ad .LASF69
C:\Users\CYMR90~1\AppData\Local\Temp\ccX1amHi.s:24687  .debug_str:000000000000e339 .LASF70
C:\Users\CYMR90~1\AppData\Local\Temp\ccX1amHi.s:22277  .debug_str:00000000000048fa .LASF71
C:\Users\CYMR90~1\AppData\Local\Temp\ccX1amHi.s:25591  .debug_str:0000000000011c59 .LASF72
C:\Users\CYMR90~1\AppData\Local\Temp\ccX1amHi.s:25217  .debug_str:000000000001043a .LASF73
C:\Users\CYMR90~1\AppData\Local\Temp\ccX1amHi.s:25821  .debug_str:0000000000012b6f .LASF74
C:\Users\CYMR90~1\AppData\Local\Temp\ccX1amHi.s:25665  .debug_str:0000000000012107 .LASF75
C:\Users\CYMR90~1\AppData\Local\Temp\ccX1amHi.s:25765  .debug_str:00000000000127ac .LASF76
C:\Users\CYMR90~1\AppData\Local\Temp\ccX1amHi.s:30216  .debug_str:0000000000024221 .LASF77
C:\Users\CYMR90~1\AppData\Local\Temp\ccX1amHi.s:28158  .debug_str:000000000001c2b0 .LASF78
C:\Users\CYMR90~1\AppData\Local\Temp\ccX1amHi.s:28552  .debug_str:000000000001dc99 .LASF79
C:\Users\CYMR90~1\AppData\Local\Temp\ccX1amHi.s:31392  .debug_str:0000000000029034 .LASF80
C:\Users\CYMR90~1\AppData\Local\Temp\ccX1amHi.s:23577  .debug_str:0000000000009c3c .LASF81
C:\Users\CYMR90~1\AppData\Local\Temp\ccX1amHi.s:23779  .debug_str:000000000000a82c .LASF82
C:\Users\CYMR90~1\AppData\Local\Temp\ccX1amHi.s:31528  .debug_str:00000000000298bb .LASF83
C:\Users\CYMR90~1\AppData\Local\Temp\ccX1amHi.s:23517  .debug_str:0000000000009800 .LASF84
C:\Users\CYMR90~1\AppData\Local\Temp\ccX1amHi.s:22789  .debug_str:0000000000006857 .LASF85
C:\Users\CYMR90~1\AppData\Local\Temp\ccX1amHi.s:27860  .debug_str:000000000001afea .LASF86
C:\Users\CYMR90~1\AppData\Local\Temp\ccX1amHi.s:31558  .debug_str:0000000000029a45 .LASF87
C:\Users\CYMR90~1\AppData\Local\Temp\ccX1amHi.s:28992  .debug_str:000000000001f7b2 .LASF88
C:\Users\CYMR90~1\AppData\Local\Temp\ccX1amHi.s:27772  .debug_str:000000000001aa7d .LASF89
C:\Users\CYMR90~1\AppData\Local\Temp\ccX1amHi.s:29022  .debug_str:000000000001f96c .LASF90
C:\Users\CYMR90~1\AppData\Local\Temp\ccX1amHi.s:31768  .debug_str:000000000002a6d9 .LASF91
C:\Users\CYMR90~1\AppData\Local\Temp\ccX1amHi.s:30588  .debug_str:0000000000025c18 .LASF92
C:\Users\CYMR90~1\AppData\Local\Temp\ccX1amHi.s:23657  .debug_str:000000000000a115 .LASF93
C:\Users\CYMR90~1\AppData\Local\Temp\ccX1amHi.s:28436  .debug_str:000000000001d55a .LASF94
C:\Users\CYMR90~1\AppData\Local\Temp\ccX1amHi.s:26039  .debug_str:00000000000139ad .LASF95
C:\Users\CYMR90~1\AppData\Local\Temp\ccX1amHi.s:26023  .debug_str:00000000000138bd .LASF96
C:\Users\CYMR90~1\AppData\Local\Temp\ccX1amHi.s:32068  .debug_str:000000000002b9bd .LASF97
C:\Users\CYMR90~1\AppData\Local\Temp\ccX1amHi.s:25679  .debug_str:00000000000121cd .LASF98
C:\Users\CYMR90~1\AppData\Local\Temp\ccX1amHi.s:29588  .debug_str:0000000000021c5f .LASF99
C:\Users\CYMR90~1\AppData\Local\Temp\ccX1amHi.s:23983  .debug_str:000000000000b574 .LASF100
C:\Users\CYMR90~1\AppData\Local\Temp\ccX1amHi.s:25161  .debug_str:00000000000100b7 .LASF101
C:\Users\CYMR90~1\AppData\Local\Temp\ccX1amHi.s:26543  .debug_str:0000000000015888 .LASF102
C:\Users\CYMR90~1\AppData\Local\Temp\ccX1amHi.s:25445  .debug_str:000000000001126f .LASF103
C:\Users\CYMR90~1\AppData\Local\Temp\ccX1amHi.s:24441  .debug_str:000000000000d40a .LASF104
C:\Users\CYMR90~1\AppData\Local\Temp\ccX1amHi.s:25613  .debug_str:0000000000011db3 .LASF105
C:\Users\CYMR90~1\AppData\Local\Temp\ccX1amHi.s:22321  .debug_str:0000000000004bbc .LASF106
C:\Users\CYMR90~1\AppData\Local\Temp\ccX1amHi.s:25439  .debug_str:000000000001120a .LASF107
C:\Users\CYMR90~1\AppData\Local\Temp\ccX1amHi.s:24437  .debug_str:000000000000d3e6 .LASF108
C:\Users\CYMR90~1\AppData\Local\Temp\ccX1amHi.s:25873  .debug_str:0000000000012ebd .LASF109
C:\Users\CYMR90~1\AppData\Local\Temp\ccX1amHi.s:24817  .debug_str:000000000000eb85 .LASF110
C:\Users\CYMR90~1\AppData\Local\Temp\ccX1amHi.s:27292  .debug_str:0000000000018985 .LASF111
C:\Users\CYMR90~1\AppData\Local\Temp\ccX1amHi.s:23921  .debug_str:000000000000b1fe .LASF112
C:\Users\CYMR90~1\AppData\Local\Temp\ccX1amHi.s:23655  .debug_str:000000000000a0ec .LASF113
C:\Users\CYMR90~1\AppData\Local\Temp\ccX1amHi.s:26577  .debug_str:0000000000015ab3 .LASF114
C:\Users\CYMR90~1\AppData\Local\Temp\ccX1amHi.s:31456  .debug_str:000000000002942a .LASF115
C:\Users\CYMR90~1\AppData\Local\Temp\ccX1amHi.s:29454  .debug_str:00000000000213d3 .LASF116
C:\Users\CYMR90~1\AppData\Local\Temp\ccX1amHi.s:23411  .debug_str:000000000000916d .LASF117
C:\Users\CYMR90~1\AppData\Local\Temp\ccX1amHi.s:28022  .debug_str:000000000001ba58 .LASF118
C:\Users\CYMR90~1\AppData\Local\Temp\ccX1amHi.s:32178  .debug_str:000000000002c163 .LASF119
C:\Users\CYMR90~1\AppData\Local\Temp\ccX1amHi.s:24735  .debug_str:000000000000e606 .LASF120
C:\Users\CYMR90~1\AppData\Local\Temp\ccX1amHi.s:30200  .debug_str:0000000000024046 .LASF121
C:\Users\CYMR90~1\AppData\Local\Temp\ccX1amHi.s:24219  .debug_str:000000000000c517 .LASF122
C:\Users\CYMR90~1\AppData\Local\Temp\ccX1amHi.s:24329  .debug_str:000000000000cd09 .LASF123
C:\Users\CYMR90~1\AppData\Local\Temp\ccX1amHi.s:21963  .debug_str:000000000000333a .LASF124
C:\Users\CYMR90~1\AppData\Local\Temp\ccX1amHi.s:22241  .debug_str:00000000000045eb .LASF125
C:\Users\CYMR90~1\AppData\Local\Temp\ccX1amHi.s:31130  .debug_str:0000000000027e85 .LASF126
C:\Users\CYMR90~1\AppData\Local\Temp\ccX1amHi.s:25619  .debug_str:0000000000011df1 .LASF127
C:\Users\CYMR90~1\AppData\Local\Temp\ccX1amHi.s:28412  .debug_str:000000000001d3fc .LASF128
C:\Users\CYMR90~1\AppData\Local\Temp\ccX1amHi.s:23483  .debug_str:00000000000095ce .LASF129
C:\Users\CYMR90~1\AppData\Local\Temp\ccX1amHi.s:30704  .debug_str:0000000000026326 .LASF130
C:\Users\CYMR90~1\AppData\Local\Temp\ccX1amHi.s:31004  .debug_str:000000000002766b .LASF131
C:\Users\CYMR90~1\AppData\Local\Temp\ccX1amHi.s:30818  .debug_str:0000000000026a4b .LASF132
C:\Users\CYMR90~1\AppData\Local\Temp\ccX1amHi.s:24711  .debug_str:000000000000e495 .LASF133
C:\Users\CYMR90~1\AppData\Local\Temp\ccX1amHi.s:30120  .debug_str:0000000000023bdc .LASF134
C:\Users\CYMR90~1\AppData\Local\Temp\ccX1amHi.s:22233  .debug_str:0000000000004565 .LASF135
C:\Users\CYMR90~1\AppData\Local\Temp\ccX1amHi.s:23105  .debug_str:0000000000007d00 .LASF136
C:\Users\CYMR90~1\AppData\Local\Temp\ccX1amHi.s:31854  .debug_str:000000000002abe5 .LASF137
C:\Users\CYMR90~1\AppData\Local\Temp\ccX1amHi.s:25869  .debug_str:0000000000012e8d .LASF138
C:\Users\CYMR90~1\AppData\Local\Temp\ccX1amHi.s:31336  .debug_str:0000000000028cee .LASF139
C:\Users\CYMR90~1\AppData\Local\Temp\ccX1amHi.s:30474  .debug_str:00000000000253bc .LASF140
C:\Users\CYMR90~1\AppData\Local\Temp\ccX1amHi.s:28116  .debug_str:000000000001c006 .LASF141
C:\Users\CYMR90~1\AppData\Local\Temp\ccX1amHi.s:23617  .debug_str:0000000000009ea2 .LASF142
C:\Users\CYMR90~1\AppData\Local\Temp\ccX1amHi.s:31928  .debug_str:000000000002b03a .LASF143
C:\Users\CYMR90~1\AppData\Local\Temp\ccX1amHi.s:27262  .debug_str:000000000001877b .LASF144
C:\Users\CYMR90~1\AppData\Local\Temp\ccX1amHi.s:26323  .debug_str:0000000000014b45 .LASF145
C:\Users\CYMR90~1\AppData\Local\Temp\ccX1amHi.s:24291  .debug_str:000000000000ca30 .LASF146
C:\Users\CYMR90~1\AppData\Local\Temp\ccX1amHi.s:22275  .debug_str:00000000000048e3 .LASF147
C:\Users\CYMR90~1\AppData\Local\Temp\ccX1amHi.s:24857  .debug_str:000000000000edec .LASF148
C:\Users\CYMR90~1\AppData\Local\Temp\ccX1amHi.s:27242  .debug_str:000000000001867b .LASF149
C:\Users\CYMR90~1\AppData\Local\Temp\ccX1amHi.s:21227  .debug_str:00000000000005b7 .LASF150
C:\Users\CYMR90~1\AppData\Local\Temp\ccX1amHi.s:32398  .debug_str:000000000002cfe7 .LASF151
C:\Users\CYMR90~1\AppData\Local\Temp\ccX1amHi.s:25863  .debug_str:0000000000012e0b .LASF152
C:\Users\CYMR90~1\AppData\Local\Temp\ccX1amHi.s:30480  .debug_str:000000000002540f .LASF153
C:\Users\CYMR90~1\AppData\Local\Temp\ccX1amHi.s:28314  .debug_str:000000000001cc70 .LASF154
C:\Users\CYMR90~1\AppData\Local\Temp\ccX1amHi.s:25273  .debug_str:0000000000010830 .LASF155
C:\Users\CYMR90~1\AppData\Local\Temp\ccX1amHi.s:28326  .debug_str:000000000001cd56 .LASF156
C:\Users\CYMR90~1\AppData\Local\Temp\ccX1amHi.s:28442  .debug_str:000000000001d5c2 .LASF157
C:\Users\CYMR90~1\AppData\Local\Temp\ccX1amHi.s:24147  .debug_str:000000000000c0cb .LASF158
C:\Users\CYMR90~1\AppData\Local\Temp\ccX1amHi.s:23209  .debug_str:0000000000008522 .LASF159
C:\Users\CYMR90~1\AppData\Local\Temp\ccX1amHi.s:27966  .debug_str:000000000001b6d1 .LASF160
C:\Users\CYMR90~1\AppData\Local\Temp\ccX1amHi.s:29398  .debug_str:0000000000021099 .LASF161
C:\Users\CYMR90~1\AppData\Local\Temp\ccX1amHi.s:27562  .debug_str:0000000000019be4 .LASF162
C:\Users\CYMR90~1\AppData\Local\Temp\ccX1amHi.s:30112  .debug_str:0000000000023b6a .LASF163
C:\Users\CYMR90~1\AppData\Local\Temp\ccX1amHi.s:31754  .debug_str:000000000002a60b .LASF164
C:\Users\CYMR90~1\AppData\Local\Temp\ccX1amHi.s:22961  .debug_str:00000000000073c6 .LASF165
C:\Users\CYMR90~1\AppData\Local\Temp\ccX1amHi.s:31444  .debug_str:000000000002939b .LASF166
C:\Users\CYMR90~1\AppData\Local\Temp\ccX1amHi.s:31260  .debug_str:00000000000287ff .LASF167
C:\Users\CYMR90~1\AppData\Local\Temp\ccX1amHi.s:30034  .debug_str:000000000002366a .LASF168
C:\Users\CYMR90~1\AppData\Local\Temp\ccX1amHi.s:27030  .debug_str:00000000000179ac .LASF169
C:\Users\CYMR90~1\AppData\Local\Temp\ccX1amHi.s:30878  .debug_str:0000000000026dec .LASF170
C:\Users\CYMR90~1\AppData\Local\Temp\ccX1amHi.s:26655  .debug_str:0000000000015fe3 .LASF171
C:\Users\CYMR90~1\AppData\Local\Temp\ccX1amHi.s:28236  .debug_str:000000000001c6fe .LASF172
C:\Users\CYMR90~1\AppData\Local\Temp\ccX1amHi.s:23609  .debug_str:0000000000009e2e .LASF173
C:\Users\CYMR90~1\AppData\Local\Temp\ccX1amHi.s:29928  .debug_str:000000000002309d .LASF174
C:\Users\CYMR90~1\AppData\Local\Temp\ccX1amHi.s:22615  .debug_str:0000000000005dba .LASF175
C:\Users\CYMR90~1\AppData\Local\Temp\ccX1amHi.s:23451  .debug_str:00000000000093d6 .LASF176
C:\Users\CYMR90~1\AppData\Local\Temp\ccX1amHi.s:22109  .debug_str:0000000000003cf5 .LASF177
C:\Users\CYMR90~1\AppData\Local\Temp\ccX1amHi.s:27440  .debug_str:00000000000193ba .LASF178
C:\Users\CYMR90~1\AppData\Local\Temp\ccX1amHi.s:24383  .debug_str:000000000000d059 .LASF179
C:\Users\CYMR90~1\AppData\Local\Temp\ccX1amHi.s:21631  .debug_str:0000000000001eef .LASF180
C:\Users\CYMR90~1\AppData\Local\Temp\ccX1amHi.s:32064  .debug_str:000000000002b992 .LASF181
C:\Users\CYMR90~1\AppData\Local\Temp\ccX1amHi.s:21411  .debug_str:0000000000001180 .LASF182
C:\Users\CYMR90~1\AppData\Local\Temp\ccX1amHi.s:25983  .debug_str:0000000000013626 .LASF183
C:\Users\CYMR90~1\AppData\Local\Temp\ccX1amHi.s:26389  .debug_str:0000000000014f9a .LASF184
C:\Users\CYMR90~1\AppData\Local\Temp\ccX1amHi.s:31270  .debug_str:00000000000288ae .LASF185
C:\Users\CYMR90~1\AppData\Local\Temp\ccX1amHi.s:24479  .debug_str:000000000000d709 .LASF186
C:\Users\CYMR90~1\AppData\Local\Temp\ccX1amHi.s:22945  .debug_str:0000000000007265 .LASF187
C:\Users\CYMR90~1\AppData\Local\Temp\ccX1amHi.s:28968  .debug_str:000000000001f676 .LASF188
C:\Users\CYMR90~1\AppData\Local\Temp\ccX1amHi.s:24755  .debug_str:000000000000e797 .LASF189
C:\Users\CYMR90~1\AppData\Local\Temp\ccX1amHi.s:26083  .debug_str:0000000000013c7b .LASF190
C:\Users\CYMR90~1\AppData\Local\Temp\ccX1amHi.s:29458  .debug_str:0000000000021407 .LASF191
C:\Users\CYMR90~1\AppData\Local\Temp\ccX1amHi.s:26815  .debug_str:0000000000016a90 .LASF192
C:\Users\CYMR90~1\AppData\Local\Temp\ccX1amHi.s:29680  .debug_str:00000000000221f8 .LASF193
C:\Users\CYMR90~1\AppData\Local\Temp\ccX1amHi.s:22567  .debug_str:0000000000005ad9 .LASF194
C:\Users\CYMR90~1\AppData\Local\Temp\ccX1amHi.s:21931  .debug_str:000000000000311c .LASF195
C:\Users\CYMR90~1\AppData\Local\Temp\ccX1amHi.s:24577  .debug_str:000000000000dc6d .LASF196
C:\Users\CYMR90~1\AppData\Local\Temp\ccX1amHi.s:25501  .debug_str:00000000000115b8 .LASF197
C:\Users\CYMR90~1\AppData\Local\Temp\ccX1amHi.s:22421  .debug_str:00000000000051cc .LASF198
C:\Users\CYMR90~1\AppData\Local\Temp\ccX1amHi.s:31162  .debug_str:00000000000280cc .LASF199
C:\Users\CYMR90~1\AppData\Local\Temp\ccX1amHi.s:29336  .debug_str:0000000000020cd9 .LASF200
C:\Users\CYMR90~1\AppData\Local\Temp\ccX1amHi.s:28450  .debug_str:000000000001d620 .LASF201
C:\Users\CYMR90~1\AppData\Local\Temp\ccX1amHi.s:23583  .debug_str:0000000000009c92 .LASF202
C:\Users\CYMR90~1\AppData\Local\Temp\ccX1amHi.s:31618  .debug_str:0000000000029ddb .LASF203
C:\Users\CYMR90~1\AppData\Local\Temp\ccX1amHi.s:21945  .debug_str:0000000000003216 .LASF204
C:\Users\CYMR90~1\AppData\Local\Temp\ccX1amHi.s:24989  .debug_str:000000000000f5a8 .LASF205
C:\Users\CYMR90~1\AppData\Local\Temp\ccX1amHi.s:31348  .debug_str:0000000000028d72 .LASF206
C:\Users\CYMR90~1\AppData\Local\Temp\ccX1amHi.s:26203  .debug_str:00000000000143b9 .LASF207
C:\Users\CYMR90~1\AppData\Local\Temp\ccX1amHi.s:29010  .debug_str:000000000001f8ca .LASF208
C:\Users\CYMR90~1\AppData\Local\Temp\ccX1amHi.s:24213  .debug_str:000000000000c4d2 .LASF209
C:\Users\CYMR90~1\AppData\Local\Temp\ccX1amHi.s:32272  .debug_str:000000000002c760 .LASF210
C:\Users\CYMR90~1\AppData\Local\Temp\ccX1amHi.s:26173  .debug_str:00000000000141d8 .LASF211
C:\Users\CYMR90~1\AppData\Local\Temp\ccX1amHi.s:28852  .debug_str:000000000001ef16 .LASF212
C:\Users\CYMR90~1\AppData\Local\Temp\ccX1amHi.s:27460  .debug_str:00000000000194e8 .LASF213
C:\Users\CYMR90~1\AppData\Local\Temp\ccX1amHi.s:22661  .debug_str:0000000000006065 .LASF214
C:\Users\CYMR90~1\AppData\Local\Temp\ccX1amHi.s:26181  .debug_str:000000000001425e .LASF215
C:\Users\CYMR90~1\AppData\Local\Temp\ccX1amHi.s:28154  .debug_str:000000000001c260 .LASF216
C:\Users\CYMR90~1\AppData\Local\Temp\ccX1amHi.s:22473  .debug_str:0000000000005506 .LASF217
C:\Users\CYMR90~1\AppData\Local\Temp\ccX1amHi.s:25067  .debug_str:000000000000fabe .LASF218
C:\Users\CYMR90~1\AppData\Local\Temp\ccX1amHi.s:30482  .debug_str:000000000002544b .LASF219
C:\Users\CYMR90~1\AppData\Local\Temp\ccX1amHi.s:30288  .debug_str:00000000000246f5 .LASF220
C:\Users\CYMR90~1\AppData\Local\Temp\ccX1amHi.s:29822  .debug_str:00000000000229ff .LASF221
C:\Users\CYMR90~1\AppData\Local\Temp\ccX1amHi.s:26463  .debug_str:0000000000015446 .LASF222
C:\Users\CYMR90~1\AppData\Local\Temp\ccX1amHi.s:22627  .debug_str:0000000000005e55 .LASF223
C:\Users\CYMR90~1\AppData\Local\Temp\ccX1amHi.s:23309  .debug_str:0000000000008b19 .LASF224
C:\Users\CYMR90~1\AppData\Local\Temp\ccX1amHi.s:31938  .debug_str:000000000002b0cf .LASF225
C:\Users\CYMR90~1\AppData\Local\Temp\ccX1amHi.s:24649  .debug_str:000000000000e0fd .LASF226
C:\Users\CYMR90~1\AppData\Local\Temp\ccX1amHi.s:28310  .debug_str:000000000001cc42 .LASF227
C:\Users\CYMR90~1\AppData\Local\Temp\ccX1amHi.s:28164  .debug_str:000000000001c306 .LASF228
C:\Users\CYMR90~1\AppData\Local\Temp\ccX1amHi.s:24591  .debug_str:000000000000dd4a .LASF229
C:\Users\CYMR90~1\AppData\Local\Temp\ccX1amHi.s:28892  .debug_str:000000000001f18c .LASF230
C:\Users\CYMR90~1\AppData\Local\Temp\ccX1amHi.s:28644  .debug_str:000000000001e2bd .LASF231
C:\Users\CYMR90~1\AppData\Local\Temp\ccX1amHi.s:22673  .debug_str:000000000000613a .LASF232
C:\Users\CYMR90~1\AppData\Local\Temp\ccX1amHi.s:23261  .debug_str:0000000000008838 .LASF233
C:\Users\CYMR90~1\AppData\Local\Temp\ccX1amHi.s:25265  .debug_str:000000000001071b .LASF234
C:\Users\CYMR90~1\AppData\Local\Temp\ccX1amHi.s:24985  .debug_str:000000000000f560 .LASF235
C:\Users\CYMR90~1\AppData\Local\Temp\ccX1amHi.s:30042  .debug_str:0000000000023716 .LASF236
C:\Users\CYMR90~1\AppData\Local\Temp\ccX1amHi.s:25007  .debug_str:000000000000f6b1 .LASF237
C:\Users\CYMR90~1\AppData\Local\Temp\ccX1amHi.s:30700  .debug_str:00000000000262ea .LASF238
C:\Users\CYMR90~1\AppData\Local\Temp\ccX1amHi.s:30026  .debug_str:00000000000235eb .LASF239
C:\Users\CYMR90~1\AppData\Local\Temp\ccX1amHi.s:30254  .debug_str:00000000000244e5 .LASF240
C:\Users\CYMR90~1\AppData\Local\Temp\ccX1amHi.s:23073  .debug_str:0000000000007b23 .LASF241
C:\Users\CYMR90~1\AppData\Local\Temp\ccX1amHi.s:24673  .debug_str:000000000000e258 .LASF242
C:\Users\CYMR90~1\AppData\Local\Temp\ccX1amHi.s:25659  .debug_str:0000000000012079 .LASF243
C:\Users\CYMR90~1\AppData\Local\Temp\ccX1amHi.s:30052  .debug_str:000000000002378e .LASF244
C:\Users\CYMR90~1\AppData\Local\Temp\ccX1amHi.s:25847  .debug_str:0000000000012ceb .LASF245
C:\Users\CYMR90~1\AppData\Local\Temp\ccX1amHi.s:28902  .debug_str:000000000001f254 .LASF246
C:\Users\CYMR90~1\AppData\Local\Temp\ccX1amHi.s:27226  .debug_str:0000000000018579 .LASF247
C:\Users\CYMR90~1\AppData\Local\Temp\ccX1amHi.s:26745  .debug_str:000000000001658a .LASF248
C:\Users\CYMR90~1\AppData\Local\Temp\ccX1amHi.s:28250  .debug_str:000000000001c811 .LASF249
C:\Users\CYMR90~1\AppData\Local\Temp\ccX1amHi.s:27618  .debug_str:0000000000019f30 .LASF250
C:\Users\CYMR90~1\AppData\Local\Temp\ccX1amHi.s:28184  .debug_str:000000000001c423 .LASF251
C:\Users\CYMR90~1\AppData\Local\Temp\ccX1amHi.s:29872  .debug_str:0000000000022d7b .LASF252
C:\Users\CYMR90~1\AppData\Local\Temp\ccX1amHi.s:24561  .debug_str:000000000000dbab .LASF253
C:\Users\CYMR90~1\AppData\Local\Temp\ccX1amHi.s:30552  .debug_str:00000000000259bc .LASF254
C:\Users\CYMR90~1\AppData\Local\Temp\ccX1amHi.s:24423  .debug_str:000000000000d2dc .LASF255
C:\Users\CYMR90~1\AppData\Local\Temp\ccX1amHi.s:27528  .debug_str:00000000000199ba .LASF256
C:\Users\CYMR90~1\AppData\Local\Temp\ccX1amHi.s:24669  .debug_str:000000000000e226 .LASF257
C:\Users\CYMR90~1\AppData\Local\Temp\ccX1amHi.s:28838  .debug_str:000000000001ee3f .LASF258
C:\Users\CYMR90~1\AppData\Local\Temp\ccX1amHi.s:23881  .debug_str:000000000000aeb1 .LASF259
C:\Users\CYMR90~1\AppData\Local\Temp\ccX1amHi.s:21301  .debug_str:0000000000000a53 .LASF260
C:\Users\CYMR90~1\AppData\Local\Temp\ccX1amHi.s:29866  .debug_str:0000000000022d01 .LASF261
C:\Users\CYMR90~1\AppData\Local\Temp\ccX1amHi.s:31142  .debug_str:0000000000027f2b .LASF262
C:\Users\CYMR90~1\AppData\Local\Temp\ccX1amHi.s:26153  .debug_str:0000000000014085 .LASF263
C:\Users\CYMR90~1\AppData\Local\Temp\ccX1amHi.s:28138  .debug_str:000000000001c173 .LASF264
C:\Users\CYMR90~1\AppData\Local\Temp\ccX1amHi.s:25115  .debug_str:000000000000fddc .LASF265
C:\Users\CYMR90~1\AppData\Local\Temp\ccX1amHi.s:24593  .debug_str:000000000000dd8b .LASF266
C:\Users\CYMR90~1\AppData\Local\Temp\ccX1amHi.s:23931  .debug_str:000000000000b281 .LASF267
C:\Users\CYMR90~1\AppData\Local\Temp\ccX1amHi.s:28238  .debug_str:000000000001c713 .LASF268
C:\Users\CYMR90~1\AppData\Local\Temp\ccX1amHi.s:24237  .debug_str:000000000000c62f .LASF269
C:\Users\CYMR90~1\AppData\Local\Temp\ccX1amHi.s:25181  .debug_str:0000000000010219 .LASF270
C:\Users\CYMR90~1\AppData\Local\Temp\ccX1amHi.s:26433  .debug_str:000000000001525a .LASF271
C:\Users\CYMR90~1\AppData\Local\Temp\ccX1amHi.s:30802  .debug_str:0000000000026966 .LASF272
C:\Users\CYMR90~1\AppData\Local\Temp\ccX1amHi.s:22833  .debug_str:0000000000006af9 .LASF273
C:\Users\CYMR90~1\AppData\Local\Temp\ccX1amHi.s:21747  .debug_str:000000000000254c .LASF274
C:\Users\CYMR90~1\AppData\Local\Temp\ccX1amHi.s:22929  .debug_str:000000000000714e .LASF275
C:\Users\CYMR90~1\AppData\Local\Temp\ccX1amHi.s:21999  .debug_str:000000000000356e .LASF276
C:\Users\CYMR90~1\AppData\Local\Temp\ccX1amHi.s:24129  .debug_str:000000000000bfb0 .LASF277
C:\Users\CYMR90~1\AppData\Local\Temp\ccX1amHi.s:21435  .debug_str:000000000000129f .LASF278
C:\Users\CYMR90~1\AppData\Local\Temp\ccX1amHi.s:22755  .debug_str:0000000000006608 .LASF279
C:\Users\CYMR90~1\AppData\Local\Temp\ccX1amHi.s:31466  .debug_str:00000000000294be .LASF280
C:\Users\CYMR90~1\AppData\Local\Temp\ccX1amHi.s:23633  .debug_str:0000000000009f8c .LASF281
C:\Users\CYMR90~1\AppData\Local\Temp\ccX1amHi.s:22721  .debug_str:0000000000006438 .LASF282
C:\Users\CYMR90~1\AppData\Local\Temp\ccX1amHi.s:22619  .debug_str:0000000000005dde .LASF283
C:\Users\CYMR90~1\AppData\Local\Temp\ccX1amHi.s:22381  .debug_str:0000000000004f67 .LASF284
C:\Users\CYMR90~1\AppData\Local\Temp\ccX1amHi.s:30354  .debug_str:0000000000024b4f .LASF285
C:\Users\CYMR90~1\AppData\Local\Temp\ccX1amHi.s:31174  .debug_str:00000000000281c2 .LASF286
C:\Users\CYMR90~1\AppData\Local\Temp\ccX1amHi.s:31452  .debug_str:00000000000293f8 .LASF287
C:\Users\CYMR90~1\AppData\Local\Temp\ccX1amHi.s:31362  .debug_str:0000000000028e43 .LASF288
C:\Users\CYMR90~1\AppData\Local\Temp\ccX1amHi.s:32206  .debug_str:000000000002c2fe .LASF289
C:\Users\CYMR90~1\AppData\Local\Temp\ccX1amHi.s:27170  .debug_str:0000000000018236 .LASF290
C:\Users\CYMR90~1\AppData\Local\Temp\ccX1amHi.s:26207  .debug_str:00000000000143df .LASF291
C:\Users\CYMR90~1\AppData\Local\Temp\ccX1amHi.s:30392  .debug_str:0000000000024db5 .LASF292
C:\Users\CYMR90~1\AppData\Local\Temp\ccX1amHi.s:22027  .debug_str:00000000000037b8 .LASF293
C:\Users\CYMR90~1\AppData\Local\Temp\ccX1amHi.s:29350  .debug_str:0000000000020dc3 .LASF294
C:\Users\CYMR90~1\AppData\Local\Temp\ccX1amHi.s:22301  .debug_str:0000000000004a6e .LASF295
C:\Users\CYMR90~1\AppData\Local\Temp\ccX1amHi.s:31798  .debug_str:000000000002a8a5 .LASF296
C:\Users\CYMR90~1\AppData\Local\Temp\ccX1amHi.s:31984  .debug_str:000000000002b407 .LASF297
C:\Users\CYMR90~1\AppData\Local\Temp\ccX1amHi.s:27050  .debug_str:0000000000017b25 .LASF298
C:\Users\CYMR90~1\AppData\Local\Temp\ccX1amHi.s:21285  .debug_str:000000000000094d .LASF299
C:\Users\CYMR90~1\AppData\Local\Temp\ccX1amHi.s:25087  .debug_str:000000000000fc0a .LASF300
C:\Users\CYMR90~1\AppData\Local\Temp\ccX1amHi.s:27798  .debug_str:000000000001ac17 .LASF301
C:\Users\CYMR90~1\AppData\Local\Temp\ccX1amHi.s:26317  .debug_str:0000000000014ab7 .LASF302
C:\Users\CYMR90~1\AppData\Local\Temp\ccX1amHi.s:25797  .debug_str:00000000000129c1 .LASF303
C:\Users\CYMR90~1\AppData\Local\Temp\ccX1amHi.s:21671  .debug_str:00000000000020f4 .LASF304
C:\Users\CYMR90~1\AppData\Local\Temp\ccX1amHi.s:24245  .debug_str:000000000000c6b3 .LASF305
C:\Users\CYMR90~1\AppData\Local\Temp\ccX1amHi.s:29554  .debug_str:0000000000021a78 .LASF306
C:\Users\CYMR90~1\AppData\Local\Temp\ccX1amHi.s:25103  .debug_str:000000000000fd13 .LASF307
C:\Users\CYMR90~1\AppData\Local\Temp\ccX1amHi.s:30376  .debug_str:0000000000024cbc .LASF308
C:\Users\CYMR90~1\AppData\Local\Temp\ccX1amHi.s:29994  .debug_str:0000000000023414 .LASF309
C:\Users\CYMR90~1\AppData\Local\Temp\ccX1amHi.s:24651  .debug_str:000000000000e116 .LASF310
C:\Users\CYMR90~1\AppData\Local\Temp\ccX1amHi.s:30696  .debug_str:00000000000262bf .LASF311
C:\Users\CYMR90~1\AppData\Local\Temp\ccX1amHi.s:30210  .debug_str:00000000000241ba .LASF312
C:\Users\CYMR90~1\AppData\Local\Temp\ccX1amHi.s:24363  .debug_str:000000000000ced4 .LASF313
C:\Users\CYMR90~1\AppData\Local\Temp\ccX1amHi.s:27312  .debug_str:0000000000018adf .LASF316
C:\Users\CYMR90~1\AppData\Local\Temp\ccX1amHi.s:27670  .debug_str:000000000001a23d .LASF317
C:\Users\CYMR90~1\AppData\Local\Temp\ccX1amHi.s:28028  .debug_str:000000000001ba96 .LASF318
C:\Users\CYMR90~1\AppData\Local\Temp\ccX1amHi.s:25095  .debug_str:000000000000fca7 .LASF319
C:\Users\CYMR90~1\AppData\Local\Temp\ccX1amHi.s:24003  .debug_str:000000000000b718 .LASF320
C:\Users\CYMR90~1\AppData\Local\Temp\ccX1amHi.s:31410  .debug_str:0000000000029177 .LASF321
C:\Users\CYMR90~1\AppData\Local\Temp\ccX1amHi.s:24559  .debug_str:000000000000db9e .LASF322
C:\Users\CYMR90~1\AppData\Local\Temp\ccX1amHi.s:30646  .debug_str:0000000000025f8a .LASF323
C:\Users\CYMR90~1\AppData\Local\Temp\ccX1amHi.s:21173  .debug_str:0000000000000286 .LASF324
C:\Users\CYMR90~1\AppData\Local\Temp\ccX1amHi.s:31820  .debug_str:000000000002a9da .LASF325
C:\Users\CYMR90~1\AppData\Local\Temp\ccX1amHi.s:22081  .debug_str:0000000000003b1a .LASF326
C:\Users\CYMR90~1\AppData\Local\Temp\ccX1amHi.s:26141  .debug_str:0000000000013fc8 .LASF327
C:\Users\CYMR90~1\AppData\Local\Temp\ccX1amHi.s:25799  .debug_str:00000000000129d6 .LASF328
C:\Users\CYMR90~1\AppData\Local\Temp\ccX1amHi.s:28686  .debug_str:000000000001e52f .LASF329
C:\Users\CYMR90~1\AppData\Local\Temp\ccX1amHi.s:28678  .debug_str:000000000001e4de .LASF330
C:\Users\CYMR90~1\AppData\Local\Temp\ccX1amHi.s:30840  .debug_str:0000000000026bb8 .LASF331
C:\Users\CYMR90~1\AppData\Local\Temp\ccX1amHi.s:31390  .debug_str:0000000000029025 .LASF332
C:\Users\CYMR90~1\AppData\Local\Temp\ccX1amHi.s:31584  .debug_str:0000000000029be2 .LASF333
C:\Users\CYMR90~1\AppData\Local\Temp\ccX1amHi.s:27644  .debug_str:000000000001a0c2 .LASF334
C:\Users\CYMR90~1\AppData\Local\Temp\ccX1amHi.s:27094  .debug_str:0000000000017dad .LASF335
C:\Users\CYMR90~1\AppData\Local\Temp\ccX1amHi.s:31434  .debug_str:000000000002930c .LASF336
C:\Users\CYMR90~1\AppData\Local\Temp\ccX1amHi.s:25727  .debug_str:00000000000124d3 .LASF337
C:\Users\CYMR90~1\AppData\Local\Temp\ccX1amHi.s:29406  .debug_str:0000000000021105 .LASF338
C:\Users\CYMR90~1\AppData\Local\Temp\ccX1amHi.s:23751  .debug_str:000000000000a6bd .LASF339
C:\Users\CYMR90~1\AppData\Local\Temp\ccX1amHi.s:25933  .debug_str:00000000000132b5 .LASF340
C:\Users\CYMR90~1\AppData\Local\Temp\ccX1amHi.s:27852  .debug_str:000000000001af38 .LASF341
C:\Users\CYMR90~1\AppData\Local\Temp\ccX1amHi.s:24065  .debug_str:000000000000bb4f .LASF342
C:\Users\CYMR90~1\AppData\Local\Temp\ccX1amHi.s:21417  .debug_str:00000000000011cb .LASF343
C:\Users\CYMR90~1\AppData\Local\Temp\ccX1amHi.s:31548  .debug_str:00000000000299b4 .LASF344
C:\Users\CYMR90~1\AppData\Local\Temp\ccX1amHi.s:32146  .debug_str:000000000002bef2 .LASF345
C:\Users\CYMR90~1\AppData\Local\Temp\ccX1amHi.s:24975  .debug_str:000000000000f4d8 .LASF346
C:\Users\CYMR90~1\AppData\Local\Temp\ccX1amHi.s:21273  .debug_str:0000000000000896 .LASF347
C:\Users\CYMR90~1\AppData\Local\Temp\ccX1amHi.s:29198  .debug_str:0000000000020425 .LASF348
C:\Users\CYMR90~1\AppData\Local\Temp\ccX1amHi.s:31152  .debug_str:0000000000027ffa .LASF349
C:\Users\CYMR90~1\AppData\Local\Temp\ccX1amHi.s:28680  .debug_str:000000000001e4ea .LASF350
C:\Users\CYMR90~1\AppData\Local\Temp\ccX1amHi.s:21209  .debug_str:00000000000004cd .LASF351
C:\Users\CYMR90~1\AppData\Local\Temp\ccX1amHi.s:28972  .debug_str:000000000001f6a6 .LASF352
C:\Users\CYMR90~1\AppData\Local\Temp\ccX1amHi.s:30638  .debug_str:0000000000025f20 .LASF353
C:\Users\CYMR90~1\AppData\Local\Temp\ccX1amHi.s:28296  .debug_str:000000000001cb90 .LASF354
C:\Users\CYMR90~1\AppData\Local\Temp\ccX1amHi.s:28464  .debug_str:000000000001d716 .LASF355
C:\Users\CYMR90~1\AppData\Local\Temp\ccX1amHi.s:24447  .debug_str:000000000000d500 .LASF356
C:\Users\CYMR90~1\AppData\Local\Temp\ccX1amHi.s:27602  .debug_str:0000000000019e5e .LASF357
C:\Users\CYMR90~1\AppData\Local\Temp\ccX1amHi.s:31062  .debug_str:00000000000279c3 .LASF358
C:\Users\CYMR90~1\AppData\Local\Temp\ccX1amHi.s:25789  .debug_str:0000000000012916 .LASF359
C:\Users\CYMR90~1\AppData\Local\Temp\ccX1amHi.s:23851  .debug_str:000000000000ad02 .LASF360
C:\Users\CYMR90~1\AppData\Local\Temp\ccX1amHi.s:28854  .debug_str:000000000001ef2e .LASF361
C:\Users\CYMR90~1\AppData\Local\Temp\ccX1amHi.s:25523  .debug_str:000000000001171c .LASF362
C:\Users\CYMR90~1\AppData\Local\Temp\ccX1amHi.s:31328  .debug_str:0000000000028c63 .LASF363
C:\Users\CYMR90~1\AppData\Local\Temp\ccX1amHi.s:23395  .debug_str:0000000000009099 .LASF364
C:\Users\CYMR90~1\AppData\Local\Temp\ccX1amHi.s:31224  .debug_str:000000000002855d .LASF365
C:\Users\CYMR90~1\AppData\Local\Temp\ccX1amHi.s:22793  .debug_str:00000000000068bc .LASF366
C:\Users\CYMR90~1\AppData\Local\Temp\ccX1amHi.s:25923  .debug_str:00000000000131f1 .LASF367
C:\Users\CYMR90~1\AppData\Local\Temp\ccX1amHi.s:23081  .debug_str:0000000000007ba1 .LASF368
C:\Users\CYMR90~1\AppData\Local\Temp\ccX1amHi.s:27138  .debug_str:0000000000018059 .LASF372
C:\Users\CYMR90~1\AppData\Local\Temp\ccX1amHi.s:30880  .debug_str:0000000000026e31 .LASF373
C:\Users\CYMR90~1\AppData\Local\Temp\ccX1amHi.s:23833  .debug_str:000000000000abd0 .LASF374
C:\Users\CYMR90~1\AppData\Local\Temp\ccX1amHi.s:26928  .debug_str:000000000001736a .LASF375
C:\Users\CYMR90~1\AppData\Local\Temp\ccX1amHi.s:27124  .debug_str:0000000000017f8b .LASF376
C:\Users\CYMR90~1\AppData\Local\Temp\ccX1amHi.s:29646  .debug_str:0000000000022018 .LASF377
C:\Users\CYMR90~1\AppData\Local\Temp\ccX1amHi.s:28312  .debug_str:000000000001cc5b .LASF378
C:\Users\CYMR90~1\AppData\Local\Temp\ccX1amHi.s:31976  .debug_str:000000000002b394 .LASF379
C:\Users\CYMR90~1\AppData\Local\Temp\ccX1amHi.s:21761  .debug_str:000000000000264a .LASF380
C:\Users\CYMR90~1\AppData\Local\Temp\ccX1amHi.s:31920  .debug_str:000000000002afd2 .LASF381
C:\Users\CYMR90~1\AppData\Local\Temp\ccX1amHi.s:28036  .debug_str:000000000001bae7 .LASF382
C:\Users\CYMR90~1\AppData\Local\Temp\ccX1amHi.s:22851  .debug_str:0000000000006c29 .LASF383
C:\Users\CYMR90~1\AppData\Local\Temp\ccX1amHi.s:24215  .debug_str:000000000000c4ed .LASF384
C:\Users\CYMR90~1\AppData\Local\Temp\ccX1amHi.s:27544  .debug_str:0000000000019ad7 .LASF385
C:\Users\CYMR90~1\AppData\Local\Temp\ccX1amHi.s:25213  .debug_str:000000000001040b .LASF386
C:\Users\CYMR90~1\AppData\Local\Temp\ccX1amHi.s:21697  .debug_str:0000000000002282 .LASF387
C:\Users\CYMR90~1\AppData\Local\Temp\ccX1amHi.s:24819  .debug_str:000000000000eba5 .LASF388
C:\Users\CYMR90~1\AppData\Local\Temp\ccX1amHi.s:23365  .debug_str:0000000000008ed1 .LASF389
C:\Users\CYMR90~1\AppData\Local\Temp\ccX1amHi.s:22169  .debug_str:0000000000004157 .LASF391
C:\Users\CYMR90~1\AppData\Local\Temp\ccX1amHi.s:25221  .debug_str:0000000000010477 .LASF392
C:\Users\CYMR90~1\AppData\Local\Temp\ccX1amHi.s:29296  .debug_str:0000000000020a56 .LASF393
C:\Users\CYMR90~1\AppData\Local\Temp\ccX1amHi.s:31018  .debug_str:000000000002772f .LASF394
C:\Users\CYMR90~1\AppData\Local\Temp\ccX1amHi.s:21721  .debug_str:00000000000023c4 .LASF395
C:\Users\CYMR90~1\AppData\Local\Temp\ccX1amHi.s:23875  .debug_str:000000000000ae4d .LASF396
C:\Users\CYMR90~1\AppData\Local\Temp\ccX1amHi.s:27650  .debug_str:000000000001a122 .LASF397
C:\Users\CYMR90~1\AppData\Local\Temp\ccX1amHi.s:31796  .debug_str:000000000002a893 .LASF398
C:\Users\CYMR90~1\AppData\Local\Temp\ccX1amHi.s:26491  .debug_str:00000000000155b5 .LASF399
C:\Users\CYMR90~1\AppData\Local\Temp\ccX1amHi.s:28932  .debug_str:000000000001f41f .LASF400
C:\Users\CYMR90~1\AppData\Local\Temp\ccX1amHi.s:23353  .debug_str:0000000000008dba .LASF401
C:\Users\CYMR90~1\AppData\Local\Temp\ccX1amHi.s:26982  .debug_str:00000000000176a8 .LASF402
C:\Users\CYMR90~1\AppData\Local\Temp\ccX1amHi.s:22689  .debug_str:000000000000623b .LASF403
C:\Users\CYMR90~1\AppData\Local\Temp\ccX1amHi.s:23805  .debug_str:000000000000a9fd .LASF404
C:\Users\CYMR90~1\AppData\Local\Temp\ccX1amHi.s:24873  .debug_str:000000000000eebb .LASF405
C:\Users\CYMR90~1\AppData\Local\Temp\ccX1amHi.s:28222  .debug_str:000000000001c633 .LASF406
C:\Users\CYMR90~1\AppData\Local\Temp\ccX1amHi.s:26413  .debug_str:0000000000015147 .LASF407
C:\Users\CYMR90~1\AppData\Local\Temp\ccX1amHi.s:27386  .debug_str:0000000000018fde .LASF408
C:\Users\CYMR90~1\AppData\Local\Temp\ccX1amHi.s:29596  .debug_str:0000000000021ce4 .LASF409
C:\Users\CYMR90~1\AppData\Local\Temp\ccX1amHi.s:22641  .debug_str:0000000000005f34 .LASF410
C:\Users\CYMR90~1\AppData\Local\Temp\ccX1amHi.s:26603  .debug_str:0000000000015c43 .LASF411
C:\Users\CYMR90~1\AppData\Local\Temp\ccX1amHi.s:29714  .debug_str:0000000000022425 .LASF412
C:\Users\CYMR90~1\AppData\Local\Temp\ccX1amHi.s:22825  .debug_str:0000000000006a99 .LASF413
C:\Users\CYMR90~1\AppData\Local\Temp\ccX1amHi.s:31424  .debug_str:0000000000029259 .LASF414
C:\Users\CYMR90~1\AppData\Local\Temp\ccX1amHi.s:24977  .debug_str:000000000000f4e6 .LASF415
C:\Users\CYMR90~1\AppData\Local\Temp\ccX1amHi.s:30756  .debug_str:0000000000026673 .LASF416
C:\Users\CYMR90~1\AppData\Local\Temp\ccX1amHi.s:32270  .debug_str:000000000002c755 .LASF417
C:\Users\CYMR90~1\AppData\Local\Temp\ccX1amHi.s:23279  .debug_str:000000000000895e .LASF418
C:\Users\CYMR90~1\AppData\Local\Temp\ccX1amHi.s:31644  .debug_str:0000000000029f5a .LASF419
C:\Users\CYMR90~1\AppData\Local\Temp\ccX1amHi.s:22897  .debug_str:0000000000006f37 .LASF420
C:\Users\CYMR90~1\AppData\Local\Temp\ccX1amHi.s:31838  .debug_str:000000000002aad0 .LASF421
C:\Users\CYMR90~1\AppData\Local\Temp\ccX1amHi.s:24141  .debug_str:000000000000c07b .LASF422
C:\Users\CYMR90~1\AppData\Local\Temp\ccX1amHi.s:24341  .debug_str:000000000000cdaa .LASF423
C:\Users\CYMR90~1\AppData\Local\Temp\ccX1amHi.s:28832  .debug_str:000000000001edfb .LASF424
C:\Users\CYMR90~1\AppData\Local\Temp\ccX1amHi.s:27426  .debug_str:00000000000192fa .LASF425
C:\Users\CYMR90~1\AppData\Local\Temp\ccX1amHi.s:21183  .debug_str:000000000000033f .LASF426
C:\Users\CYMR90~1\AppData\Local\Temp\ccX1amHi.s:22279  .debug_str:0000000000004913 .LASF427
C:\Users\CYMR90~1\AppData\Local\Temp\ccX1amHi.s:26685  .debug_str:0000000000016223 .LASF428
C:\Users\CYMR90~1\AppData\Local\Temp\ccX1amHi.s:28600  .debug_str:000000000001e01a .LASF429
C:\Users\CYMR90~1\AppData\Local\Temp\ccX1amHi.s:25159  .debug_str:00000000000100ae .LASF430
C:\Users\CYMR90~1\AppData\Local\Temp\ccX1amHi.s:26880  .debug_str:00000000000170bc .LASF431
C:\Users\CYMR90~1\AppData\Local\Temp\ccX1amHi.s:29668  .debug_str:0000000000022146 .LASF432
C:\Users\CYMR90~1\AppData\Local\Temp\ccX1amHi.s:24325  .debug_str:000000000000ccca .LASF434
C:\Users\CYMR90~1\AppData\Local\Temp\ccX1amHi.s:22355  .debug_str:0000000000004dde .LASF435
C:\Users\CYMR90~1\AppData\Local\Temp\ccX1amHi.s:27068  .debug_str:0000000000017c28 .LASF436
C:\Users\CYMR90~1\AppData\Local\Temp\ccX1amHi.s:22917  .debug_str:0000000000007073 .LASF437
C:\Users\CYMR90~1\AppData\Local\Temp\ccX1amHi.s:31352  .debug_str:0000000000028dae .LASF438
C:\Users\CYMR90~1\AppData\Local\Temp\ccX1amHi.s:21145  .debug_str:00000000000000e9 .LASF439
C:\Users\CYMR90~1\AppData\Local\Temp\ccX1amHi.s:28870  .debug_str:000000000001f02f .LASF440
C:\Users\CYMR90~1\AppData\Local\Temp\ccX1amHi.s:24567  .debug_str:000000000000dc03 .LASF441
C:\Users\CYMR90~1\AppData\Local\Temp\ccX1amHi.s:29900  .debug_str:0000000000022f09 .LASF442
C:\Users\CYMR90~1\AppData\Local\Temp\ccX1amHi.s:25459  .debug_str:0000000000011336 .LASF443
C:\Users\CYMR90~1\AppData\Local\Temp\ccX1amHi.s:25293  .debug_str:0000000000010962 .LASF444
C:\Users\CYMR90~1\AppData\Local\Temp\ccX1amHi.s:32264  .debug_str:000000000002c709 .LASF445
C:\Users\CYMR90~1\AppData\Local\Temp\ccX1amHi.s:32204  .debug_str:000000000002c2f8 .LASF446
C:\Users\CYMR90~1\AppData\Local\Temp\ccX1amHi.s:25647  .debug_str:0000000000011fb6 .LASF447
C:\Users\CYMR90~1\AppData\Local\Temp\ccX1amHi.s:29874  .debug_str:0000000000022d8d .LASF448
C:\Users\CYMR90~1\AppData\Local\Temp\ccX1amHi.s:22181  .debug_str:0000000000004202 .LASF449
C:\Users\CYMR90~1\AppData\Local\Temp\ccX1amHi.s:22937  .debug_str:00000000000071dc .LASF450
C:\Users\CYMR90~1\AppData\Local\Temp\ccX1amHi.s:21653  .debug_str:0000000000002017 .LASF451
C:\Users\CYMR90~1\AppData\Local\Temp\ccX1amHi.s:26325  .debug_str:0000000000014b59 .LASF452
C:\Users\CYMR90~1\AppData\Local\Temp\ccX1amHi.s:21643  .debug_str:0000000000001fa4 .LASF453
C:\Users\CYMR90~1\AppData\Local\Temp\ccX1amHi.s:32210  .debug_str:000000000002c33e .LASF454
C:\Users\CYMR90~1\AppData\Local\Temp\ccX1amHi.s:24741  .debug_str:000000000000e66d .LASF455
C:\Users\CYMR90~1\AppData\Local\Temp\ccX1amHi.s:29500  .debug_str:0000000000021735 .LASF456
C:\Users\CYMR90~1\AppData\Local\Temp\ccX1amHi.s:24417  .debug_str:000000000000d298 .LASF457
C:\Users\CYMR90~1\AppData\Local\Temp\ccX1amHi.s:22701  .debug_str:00000000000062e8 .LASF458
C:\Users\CYMR90~1\AppData\Local\Temp\ccX1amHi.s:25361  .debug_str:0000000000010df2 .LASF459
C:\Users\CYMR90~1\AppData\Local\Temp\ccX1amHi.s:29250  .debug_str:00000000000207b7 .LASF460
C:\Users\CYMR90~1\AppData\Local\Temp\ccX1amHi.s:30380  .debug_str:0000000000024cd6 .LASF461
C:\Users\CYMR90~1\AppData\Local\Temp\ccX1amHi.s:26847  .debug_str:0000000000016ce8 .LASF462
C:\Users\CYMR90~1\AppData\Local\Temp\ccX1amHi.s:27702  .debug_str:000000000001a5be .LASF463
C:\Users\CYMR90~1\AppData\Local\Temp\ccX1amHi.s:24583  .debug_str:000000000000dccf .LASF464
C:\Users\CYMR90~1\AppData\Local\Temp\ccX1amHi.s:25739  .debug_str:00000000000125e6 .LASF465
C:\Users\CYMR90~1\AppData\Local\Temp\ccX1amHi.s:22843  .debug_str:0000000000006bc0 .LASF466
C:\Users\CYMR90~1\AppData\Local\Temp\ccX1amHi.s:23413  .debug_str:000000000000917c .LASF467
C:\Users\CYMR90~1\AppData\Local\Temp\ccX1amHi.s:25499  .debug_str:00000000000115a1 .LASF468
C:\Users\CYMR90~1\AppData\Local\Temp\ccX1amHi.s:21977  .debug_str:0000000000003427 .LASF469
C:\Users\CYMR90~1\AppData\Local\Temp\ccX1amHi.s:25257  .debug_str:0000000000010696 .LASF470
C:\Users\CYMR90~1\AppData\Local\Temp\ccX1amHi.s:25135  .debug_str:000000000000ff23 .LASF471
C:\Users\CYMR90~1\AppData\Local\Temp\ccX1amHi.s:24715  .debug_str:000000000000e4e1 .LASF472
C:\Users\CYMR90~1\AppData\Local\Temp\ccX1amHi.s:21357  .debug_str:0000000000000ddf .LASF473
C:\Users\CYMR90~1\AppData\Local\Temp\ccX1amHi.s:22963  .debug_str:00000000000073dd .LASF474
C:\Users\CYMR90~1\AppData\Local\Temp\ccX1amHi.s:21303  .debug_str:0000000000000a91 .LASF475
C:\Users\CYMR90~1\AppData\Local\Temp\ccX1amHi.s:22147  .debug_str:0000000000003f6d .LASF476
C:\Users\CYMR90~1\AppData\Local\Temp\ccX1amHi.s:21521  .debug_str:0000000000001882 .LASF477
C:\Users\CYMR90~1\AppData\Local\Temp\ccX1amHi.s:26629  .debug_str:0000000000015e38 .LASF478
C:\Users\CYMR90~1\AppData\Local\Temp\ccX1amHi.s:24021  .debug_str:000000000000b87c .LASF479
C:\Users\CYMR90~1\AppData\Local\Temp\ccX1amHi.s:31834  .debug_str:000000000002aaa0 .LASF480
C:\Users\CYMR90~1\AppData\Local\Temp\ccX1amHi.s:27220  .debug_str:000000000001851f .LASF481
C:\Users\CYMR90~1\AppData\Local\Temp\ccX1amHi.s:23941  .debug_str:000000000000b316 .LASF482
C:\Users\CYMR90~1\AppData\Local\Temp\ccX1amHi.s:22741  .debug_str:0000000000006548 .LASF483
C:\Users\CYMR90~1\AppData\Local\Temp\ccX1amHi.s:21269  .debug_str:000000000000084f .LASF484
C:\Users\CYMR90~1\AppData\Local\Temp\ccX1amHi.s:27168  .debug_str:0000000000018213 .LASF485
C:\Users\CYMR90~1\AppData\Local\Temp\ccX1amHi.s:22367  .debug_str:0000000000004e8f .LASF486
C:\Users\CYMR90~1\AppData\Local\Temp\ccX1amHi.s:26081  .debug_str:0000000000013c65 .LASF487
C:\Users\CYMR90~1\AppData\Local\Temp\ccX1amHi.s:25281  .debug_str:00000000000108ba .LASF488
C:\Users\CYMR90~1\AppData\Local\Temp\ccX1amHi.s:25851  .debug_str:0000000000012d4d .LASF489
C:\Users\CYMR90~1\AppData\Local\Temp\ccX1amHi.s:24301  .debug_str:000000000000cb8d .LASF490
C:\Users\CYMR90~1\AppData\Local\Temp\ccX1amHi.s:23277  .debug_str:0000000000008950 .LASF491
C:\Users\CYMR90~1\AppData\Local\Temp\ccX1amHi.s:24931  .debug_str:000000000000f234 .LASF492
C:\Users\CYMR90~1\AppData\Local\Temp\ccX1amHi.s:23283  .debug_str:000000000000899c .LASF493
C:\Users\CYMR90~1\AppData\Local\Temp\ccX1amHi.s:25141  .debug_str:000000000000ff97 .LASF494
C:\Users\CYMR90~1\AppData\Local\Temp\ccX1amHi.s:27416  .debug_str:000000000001925f .LASF495
C:\Users\CYMR90~1\AppData\Local\Temp\ccX1amHi.s:32288  .debug_str:000000000002c862 .LASF496
C:\Users\CYMR90~1\AppData\Local\Temp\ccX1amHi.s:32226  .debug_str:000000000002c498 .LASF497
C:\Users\CYMR90~1\AppData\Local\Temp\ccX1amHi.s:24981  .debug_str:000000000000f52d .LASF498
C:\Users\CYMR90~1\AppData\Local\Temp\ccX1amHi.s:31450  .debug_str:00000000000293d3 .LASF499
C:\Users\CYMR90~1\AppData\Local\Temp\ccX1amHi.s:31552  .debug_str:00000000000299d7 .LASF500
C:\Users\CYMR90~1\AppData\Local\Temp\ccX1amHi.s:26287  .debug_str:0000000000014903 .LASF501
C:\Users\CYMR90~1\AppData\Local\Temp\ccX1amHi.s:31508  .debug_str:0000000000029782 .LASF502
C:\Users\CYMR90~1\AppData\Local\Temp\ccX1amHi.s:26239  .debug_str:0000000000014598 .LASF503
C:\Users\CYMR90~1\AppData\Local\Temp\ccX1amHi.s:21845  .debug_str:0000000000002bbb .LASF504
C:\Users\CYMR90~1\AppData\Local\Temp\ccX1amHi.s:30150  .debug_str:0000000000023d55 .LASF505
C:\Users\CYMR90~1\AppData\Local\Temp\ccX1amHi.s:31014  .debug_str:00000000000276fc .LASF506
C:\Users\CYMR90~1\AppData\Local\Temp\ccX1amHi.s:30592  .debug_str:0000000000025c45 .LASF507
C:\Users\CYMR90~1\AppData\Local\Temp\ccX1amHi.s:27334  .debug_str:0000000000018c38 .LASF508
C:\Users\CYMR90~1\AppData\Local\Temp\ccX1amHi.s:29586  .debug_str:0000000000021c21 .LASF509
C:\Users\CYMR90~1\AppData\Local\Temp\ccX1amHi.s:31244  .debug_str:00000000000286c4 .LASF510
C:\Users\CYMR90~1\AppData\Local\Temp\ccX1amHi.s:27112  .debug_str:0000000000017e9f .LASF511
C:\Users\CYMR90~1\AppData\Local\Temp\ccX1amHi.s:30868  .debug_str:0000000000026d3c .LASF512
C:\Users\CYMR90~1\AppData\Local\Temp\ccX1amHi.s:30986  .debug_str:0000000000027568 .LASF513
C:\Users\CYMR90~1\AppData\Local\Temp\ccX1amHi.s:31432  .debug_str:00000000000292d1 .LASF514
C:\Users\CYMR90~1\AppData\Local\Temp\ccX1amHi.s:26015  .debug_str:0000000000013840 .LASF515
C:\Users\CYMR90~1\AppData\Local\Temp\ccX1amHi.s:31300  .debug_str:0000000000028aa8 .LASF516
C:\Users\CYMR90~1\AppData\Local\Temp\ccX1amHi.s:27486  .debug_str:0000000000019684 .LASF517
C:\Users\CYMR90~1\AppData\Local\Temp\ccX1amHi.s:31252  .debug_str:0000000000028778 .LASF518
C:\Users\CYMR90~1\AppData\Local\Temp\ccX1amHi.s:28146  .debug_str:000000000001c1db .LASF519
C:\Users\CYMR90~1\AppData\Local\Temp\ccX1amHi.s:32198  .debug_str:000000000002c296 .LASF520
C:\Users\CYMR90~1\AppData\Local\Temp\ccX1amHi.s:28408  .debug_str:000000000001d3b3 .LASF521
C:\Users\CYMR90~1\AppData\Local\Temp\ccX1amHi.s:30502  .debug_str:000000000002559d .LASF522
C:\Users\CYMR90~1\AppData\Local\Temp\ccX1amHi.s:25897  .debug_str:0000000000013027 .LASF523
C:\Users\CYMR90~1\AppData\Local\Temp\ccX1amHi.s:30066  .debug_str:0000000000023899 .LASF524
C:\Users\CYMR90~1\AppData\Local\Temp\ccX1amHi.s:23491  .debug_str:000000000000963a .LASF525
C:\Users\CYMR90~1\AppData\Local\Temp\ccX1amHi.s:32218  .debug_str:000000000002c3ac .LASF526
C:\Users\CYMR90~1\AppData\Local\Temp\ccX1amHi.s:24749  .debug_str:000000000000e6eb .LASF527
C:\Users\CYMR90~1\AppData\Local\Temp\ccX1amHi.s:25763  .debug_str:000000000001276e .LASF528
C:\Users\CYMR90~1\AppData\Local\Temp\ccX1amHi.s:26609  .debug_str:0000000000015ca7 .LASF529
C:\Users\CYMR90~1\AppData\Local\Temp\ccX1amHi.s:26643  .debug_str:0000000000015f01 .LASF530
C:\Users\CYMR90~1\AppData\Local\Temp\ccX1amHi.s:25687  .debug_str:0000000000012252 .LASF531
C:\Users\CYMR90~1\AppData\Local\Temp\ccX1amHi.s:21905  .debug_str:0000000000002f38 .LASF532
C:\Users\CYMR90~1\AppData\Local\Temp\ccX1amHi.s:24425  .debug_str:000000000000d2f4 .LASF533
C:\Users\CYMR90~1\AppData\Local\Temp\ccX1amHi.s:32058  .debug_str:000000000002b8d5 .LASF534
C:\Users\CYMR90~1\AppData\Local\Temp\ccX1amHi.s:24929  .debug_str:000000000000f1e8 .LASF535
C:\Users\CYMR90~1\AppData\Local\Temp\ccX1amHi.s:30242  .debug_str:0000000000024405 .LASF536
C:\Users\CYMR90~1\AppData\Local\Temp\ccX1amHi.s:31712  .debug_str:000000000002a33c .LASF537
C:\Users\CYMR90~1\AppData\Local\Temp\ccX1amHi.s:25513  .debug_str:0000000000011663 .LASF538
C:\Users\CYMR90~1\AppData\Local\Temp\ccX1amHi.s:26085  .debug_str:0000000000013c94 .LASF539
C:\Users\CYMR90~1\AppData\Local\Temp\ccX1amHi.s:28204  .debug_str:000000000001c547 .LASF540
C:\Users\CYMR90~1\AppData\Local\Temp\ccX1amHi.s:24517  .debug_str:000000000000d934 .LASF541
C:\Users\CYMR90~1\AppData\Local\Temp\ccX1amHi.s:28496  .debug_str:000000000001d929 .LASF542
C:\Users\CYMR90~1\AppData\Local\Temp\ccX1amHi.s:22255  .debug_str:00000000000046e5 .LASF543
C:\Users\CYMR90~1\AppData\Local\Temp\ccX1amHi.s:24681  .debug_str:000000000000e2c0 .LASF544
C:\Users\CYMR90~1\AppData\Local\Temp\ccX1amHi.s:31492  .debug_str:0000000000029673 .LASF545
C:\Users\CYMR90~1\AppData\Local\Temp\ccX1amHi.s:26025  .debug_str:00000000000138cf .LASF546
C:\Users\CYMR90~1\AppData\Local\Temp\ccX1amHi.s:29764  .debug_str:00000000000226b2 .LASF547
C:\Users\CYMR90~1\AppData\Local\Temp\ccX1amHi.s:31972  .debug_str:000000000002b353 .LASF548
C:\Users\CYMR90~1\AppData\Local\Temp\ccX1amHi.s:21951  .debug_str:0000000000003265 .LASF549
C:\Users\CYMR90~1\AppData\Local\Temp\ccX1amHi.s:23109  .debug_str:0000000000007d40 .LASF550
C:\Users\CYMR90~1\AppData\Local\Temp\ccX1amHi.s:30764  .debug_str:00000000000266d6 .LASF551
C:\Users\CYMR90~1\AppData\Local\Temp\ccX1amHi.s:22669  .debug_str:00000000000060f1 .LASF552
C:\Users\CYMR90~1\AppData\Local\Temp\ccX1amHi.s:31730  .debug_str:000000000002a438 .LASF553
C:\Users\CYMR90~1\AppData\Local\Temp\ccX1amHi.s:24091  .debug_str:000000000000bcd2 .LASF554
C:\Users\CYMR90~1\AppData\Local\Temp\ccX1amHi.s:24277  .debug_str:000000000000c911 .LASF555
C:\Users\CYMR90~1\AppData\Local\Temp\ccX1amHi.s:22791  .debug_str:0000000000006869 .LASF556
C:\Users\CYMR90~1\AppData\Local\Temp\ccX1amHi.s:22489  .debug_str:00000000000055e3 .LASF557
C:\Users\CYMR90~1\AppData\Local\Temp\ccX1amHi.s:25631  .debug_str:0000000000011eba .LASF558
C:\Users\CYMR90~1\AppData\Local\Temp\ccX1amHi.s:27362  .debug_str:0000000000018e66 .LASF559
C:\Users\CYMR90~1\AppData\Local\Temp\ccX1amHi.s:31290  .debug_str:00000000000289f6 .LASF560
C:\Users\CYMR90~1\AppData\Local\Temp\ccX1amHi.s:30564  .debug_str:0000000000025a66 .LASF561
C:\Users\CYMR90~1\AppData\Local\Temp\ccX1amHi.s:25093  .debug_str:000000000000fc5c .LASF562
C:\Users\CYMR90~1\AppData\Local\Temp\ccX1amHi.s:24467  .debug_str:000000000000d626 .LASF563
C:\Users\CYMR90~1\AppData\Local\Temp\ccX1amHi.s:23789  .debug_str:000000000000a8e3 .LASF564
C:\Users\CYMR90~1\AppData\Local\Temp\ccX1amHi.s:29526  .debug_str:000000000002189b .LASF565
C:\Users\CYMR90~1\AppData\Local\Temp\ccX1amHi.s:28748  .debug_str:000000000001e8e7 .LASF566
C:\Users\CYMR90~1\AppData\Local\Temp\ccX1amHi.s:25627  .debug_str:0000000000011e72 .LASF567
C:\Users\CYMR90~1\AppData\Local\Temp\ccX1amHi.s:22671  .debug_str:0000000000006105 .LASF568
C:\Users\CYMR90~1\AppData\Local\Temp\ccX1amHi.s:21329  .debug_str:0000000000000c57 .LASF570
C:\Users\CYMR90~1\AppData\Local\Temp\ccX1amHi.s:26998  .debug_str:0000000000017799 .LASF571
C:\Users\CYMR90~1\AppData\Local\Temp\ccX1amHi.s:28142  .debug_str:000000000001c1b5 .LASF574
C:\Users\CYMR90~1\AppData\Local\Temp\ccX1amHi.s:22223  .debug_str:00000000000044ca .LASF575
C:\Users\CYMR90~1\AppData\Local\Temp\ccX1amHi.s:26245  .debug_str:0000000000014630 .LASF576
C:\Users\CYMR90~1\AppData\Local\Temp\ccX1amHi.s:23207  .debug_str:0000000000008514 .LASF577
C:\Users\CYMR90~1\AppData\Local\Temp\ccX1amHi.s:29430  .debug_str:000000000002127d .LASF579
C:\Users\CYMR90~1\AppData\Local\Temp\ccX1amHi.s:28616  .debug_str:000000000001e11e .LASF580
C:\Users\CYMR90~1\AppData\Local\Temp\ccX1amHi.s:30148  .debug_str:0000000000023d4c .LASF581
C:\Users\CYMR90~1\AppData\Local\Temp\ccX1amHi.s:22623  .debug_str:0000000000005e1a .LASF582
C:\Users\CYMR90~1\AppData\Local\Temp\ccX1amHi.s:25239  .debug_str:000000000001057c .LASF583
C:\Users\CYMR90~1\AppData\Local\Temp\ccX1amHi.s:21799  .debug_str:00000000000028e9 .LASF584
C:\Users\CYMR90~1\AppData\Local\Temp\ccX1amHi.s:31590  .debug_str:0000000000029c41 .LASF585
C:\Users\CYMR90~1\AppData\Local\Temp\ccX1amHi.s:29812  .debug_str:0000000000022980 .LASF586
C:\Users\CYMR90~1\AppData\Local\Temp\ccX1amHi.s:28024  .debug_str:000000000001ba74 .LASF587
C:\Users\CYMR90~1\AppData\Local\Temp\ccX1amHi.s:22861  .debug_str:0000000000006cdc .LASF588
C:\Users\CYMR90~1\AppData\Local\Temp\ccX1amHi.s:27272  .debug_str:000000000001880f .LASF589
C:\Users\CYMR90~1\AppData\Local\Temp\ccX1amHi.s:27646  .debug_str:000000000001a0cb .LASF590
C:\Users\CYMR90~1\AppData\Local\Temp\ccX1amHi.s:28488  .debug_str:000000000001d8bd .LASF591
C:\Users\CYMR90~1\AppData\Local\Temp\ccX1amHi.s:30896  .debug_str:0000000000026f36 .LASF592
C:\Users\CYMR90~1\AppData\Local\Temp\ccX1amHi.s:30136  .debug_str:0000000000023ca9 .LASF593
C:\Users\CYMR90~1\AppData\Local\Temp\ccX1amHi.s:25203  .debug_str:0000000000010371 .LASF594
C:\Users\CYMR90~1\AppData\Local\Temp\ccX1amHi.s:26079  .debug_str:0000000000013c45 .LASF595
C:\Users\CYMR90~1\AppData\Local\Temp\ccX1amHi.s:25813  .debug_str:0000000000012ac1 .LASF596
C:\Users\CYMR90~1\AppData\Local\Temp\ccX1amHi.s:22965  .debug_str:00000000000073fc .LASF597
C:\Users\CYMR90~1\AppData\Local\Temp\ccX1amHi.s:31112  .debug_str:0000000000027d70 .LASF598
C:\Users\CYMR90~1\AppData\Local\Temp\ccX1amHi.s:25975  .debug_str:00000000000135aa .LASF599
C:\Users\CYMR90~1\AppData\Local\Temp\ccX1amHi.s:28952  .debug_str:000000000001f550 .LASF600
C:\Users\CYMR90~1\AppData\Local\Temp\ccX1amHi.s:28212  .debug_str:000000000001c5b3 .LASF601
C:\Users\CYMR90~1\AppData\Local\Temp\ccX1amHi.s:30600  .debug_str:0000000000025cd8 .LASF602
C:\Users\CYMR90~1\AppData\Local\Temp\ccX1amHi.s:31308  .debug_str:0000000000028b3b .LASF603
C:\Users\CYMR90~1\AppData\Local\Temp\ccX1amHi.s:31200  .debug_str:00000000000283e0 .LASF604
C:\Users\CYMR90~1\AppData\Local\Temp\ccX1amHi.s:25921  .debug_str:00000000000131d9 .LASF605
C:\Users\CYMR90~1\AppData\Local\Temp\ccX1amHi.s:29956  .debug_str:00000000000231f7 .LASF606
C:\Users\CYMR90~1\AppData\Local\Temp\ccX1amHi.s:23563  .debug_str:0000000000009b5d .LASF607
C:\Users\CYMR90~1\AppData\Local\Temp\ccX1amHi.s:23063  .debug_str:0000000000007a48 .LASF608
C:\Users\CYMR90~1\AppData\Local\Temp\ccX1amHi.s:23853  .debug_str:000000000000ad10 .LASF609
C:\Users\CYMR90~1\AppData\Local\Temp\ccX1amHi.s:28064  .debug_str:000000000001bc70 .LASF610
C:\Users\CYMR90~1\AppData\Local\Temp\ccX1amHi.s:22587  .debug_str:0000000000005c04 .LASF611
C:\Users\CYMR90~1\AppData\Local\Temp\ccX1amHi.s:29738  .debug_str:0000000000022551 .LASF612
C:\Users\CYMR90~1\AppData\Local\Temp\ccX1amHi.s:26473  .debug_str:00000000000154ba .LASF613
C:\Users\CYMR90~1\AppData\Local\Temp\ccX1amHi.s:23131  .debug_str:0000000000007f64 .LASF614
C:\Users\CYMR90~1\AppData\Local\Temp\ccX1amHi.s:21231  .debug_str:00000000000005e4 .LASF615
C:\Users\CYMR90~1\AppData\Local\Temp\ccX1amHi.s:26715  .debug_str:00000000000163c7 .LASF616
C:\Users\CYMR90~1\AppData\Local\Temp\ccX1amHi.s:27682  .debug_str:000000000001a2f9 .LASF617
C:\Users\CYMR90~1\AppData\Local\Temp\ccX1amHi.s:26849  .debug_str:0000000000016cf7 .LASF618
C:\Users\CYMR90~1\AppData\Local\Temp\ccX1amHi.s:29820  .debug_str:00000000000229e5 .LASF619
C:\Users\CYMR90~1\AppData\Local\Temp\ccX1amHi.s:24107  .debug_str:000000000000be49 .LASF620
C:\Users\CYMR90~1\AppData\Local\Temp\ccX1amHi.s:22875  .debug_str:0000000000006dc9 .LASF621
C:\Users\CYMR90~1\AppData\Local\Temp\ccX1amHi.s:30016  .debug_str:000000000002354f .LASF622
C:\Users\CYMR90~1\AppData\Local\Temp\ccX1amHi.s:29128  .debug_str:000000000001fff5 .LASF623
C:\Users\CYMR90~1\AppData\Local\Temp\ccX1amHi.s:31070  .debug_str:0000000000027a38 .LASF624
C:\Users\CYMR90~1\AppData\Local\Temp\ccX1amHi.s:31686  .debug_str:000000000002a1d9 .LASF625
C:\Users\CYMR90~1\AppData\Local\Temp\ccX1amHi.s:26149  .debug_str:0000000000014024 .LASF626
C:\Users\CYMR90~1\AppData\Local\Temp\ccX1amHi.s:31940  .debug_str:000000000002b0e6 .LASF627
C:\Users\CYMR90~1\AppData\Local\Temp\ccX1amHi.s:26563  .debug_str:00000000000159d3 .LASF628
C:\Users\CYMR90~1\AppData\Local\Temp\ccX1amHi.s:29762  .debug_str:000000000002267a .LASF629
C:\Users\CYMR90~1\AppData\Local\Temp\ccX1amHi.s:25193  .debug_str:00000000000102bd .LASF630
C:\Users\CYMR90~1\AppData\Local\Temp\ccX1amHi.s:24503  .debug_str:000000000000d84d .LASF631
C:\Users\CYMR90~1\AppData\Local\Temp\ccX1amHi.s:29728  .debug_str:00000000000224ce .LASF632
C:\Users\CYMR90~1\AppData\Local\Temp\ccX1amHi.s:24221  .debug_str:000000000000c542 .LASF633
C:\Users\CYMR90~1\AppData\Local\Temp\ccX1amHi.s:21319  .debug_str:0000000000000bc4 .LASF634
C:\Users\CYMR90~1\AppData\Local\Temp\ccX1amHi.s:27592  .debug_str:0000000000019dba .LASF635
C:\Users\CYMR90~1\AppData\Local\Temp\ccX1amHi.s:26771  .debug_str:000000000001676a .LASF636
C:\Users\CYMR90~1\AppData\Local\Temp\ccX1amHi.s:28376  .debug_str:000000000001d1cc .LASF637
C:\Users\CYMR90~1\AppData\Local\Temp\ccX1amHi.s:22019  .debug_str:0000000000003711 .LASF638
C:\Users\CYMR90~1\AppData\Local\Temp\ccX1amHi.s:25579  .debug_str:0000000000011bab .LASF639
C:\Users\CYMR90~1\AppData\Local\Temp\ccX1amHi.s:23143  .debug_str:000000000000800c .LASF640
C:\Users\CYMR90~1\AppData\Local\Temp\ccX1amHi.s:25795  .debug_str:0000000000012985 .LASF641
C:\Users\CYMR90~1\AppData\Local\Temp\ccX1amHi.s:24011  .debug_str:000000000000b792 .LASF642
C:\Users\CYMR90~1\AppData\Local\Temp\ccX1amHi.s:31054  .debug_str:0000000000027932 .LASF643
C:\Users\CYMR90~1\AppData\Local\Temp\ccX1amHi.s:24381  .debug_str:000000000000d017 .LASF644
C:\Users\CYMR90~1\AppData\Local\Temp\ccX1amHi.s:22195  .debug_str:00000000000042bf .LASF645
C:\Users\CYMR90~1\AppData\Local\Temp\ccX1amHi.s:23025  .debug_str:00000000000077ac .LASF646
C:\Users\CYMR90~1\AppData\Local\Temp\ccX1amHi.s:21941  .debug_str:00000000000031b9 .LASF647
C:\Users\CYMR90~1\AppData\Local\Temp\ccX1amHi.s:22311  .debug_str:0000000000004af8 .LASF648
C:\Users\CYMR90~1\AppData\Local\Temp\ccX1amHi.s:31588  .debug_str:0000000000029c02 .LASF649
C:\Users\CYMR90~1\AppData\Local\Temp\ccX1amHi.s:25497  .debug_str:0000000000011549 .LASF650
C:\Users\CYMR90~1\AppData\Local\Temp\ccX1amHi.s:31702  .debug_str:000000000002a2b3 .LASF651
C:\Users\CYMR90~1\AppData\Local\Temp\ccX1amHi.s:25101  .debug_str:000000000000fcf9 .LASF652
C:\Users\CYMR90~1\AppData\Local\Temp\ccX1amHi.s:21213  .debug_str:00000000000004ed .LASF653
C:\Users\CYMR90~1\AppData\Local\Temp\ccX1amHi.s:31924  .debug_str:000000000002affd .LASF654
C:\Users\CYMR90~1\AppData\Local\Temp\ccX1amHi.s:23383  .debug_str:0000000000008fe3 .LASF655
C:\Users\CYMR90~1\AppData\Local\Temp\ccX1amHi.s:31128  .debug_str:0000000000027e6d .LASF656
C:\Users\CYMR90~1\AppData\Local\Temp\ccX1amHi.s:21263  .debug_str:000000000000080d .LASF657
C:\Users\CYMR90~1\AppData\Local\Temp\ccX1amHi.s:31750  .debug_str:000000000002a593 .LASF658
C:\Users\CYMR90~1\AppData\Local\Temp\ccX1amHi.s:25887  .debug_str:0000000000012fb6 .LASF659
C:\Users\CYMR90~1\AppData\Local\Temp\ccX1amHi.s:28308  .debug_str:000000000001cc2f .LASF660
C:\Users\CYMR90~1\AppData\Local\Temp\ccX1amHi.s:24785  .debug_str:000000000000e96e .LASF661
C:\Users\CYMR90~1\AppData\Local\Temp\ccX1amHi.s:28978  .debug_str:000000000001f6f1 .LASF662
C:\Users\CYMR90~1\AppData\Local\Temp\ccX1amHi.s:30910  .debug_str:0000000000027011 .LASF663
C:\Users\CYMR90~1\AppData\Local\Temp\ccX1amHi.s:25477  .debug_str:0000000000011421 .LASF664
C:\Users\CYMR90~1\AppData\Local\Temp\ccX1amHi.s:25469  .debug_str:00000000000113de .LASF665
C:\Users\CYMR90~1\AppData\Local\Temp\ccX1amHi.s:27370  .debug_str:0000000000018f1f .LASF666
C:\Users\CYMR90~1\AppData\Local\Temp\ccX1amHi.s:22599  .debug_str:0000000000005cc5 .LASF667
C:\Users\CYMR90~1\AppData\Local\Temp\ccX1amHi.s:32414  .debug_str:000000000002d0e9 .LASF668
C:\Users\CYMR90~1\AppData\Local\Temp\ccX1amHi.s:22991  .debug_str:0000000000007597 .LASF669
C:\Users\CYMR90~1\AppData\Local\Temp\ccX1amHi.s:29618  .debug_str:0000000000021e32 .LASF670
C:\Users\CYMR90~1\AppData\Local\Temp\ccX1amHi.s:25871  .debug_str:0000000000012ea9 .LASF671
C:\Users\CYMR90~1\AppData\Local\Temp\ccX1amHi.s:29032  .debug_str:000000000001f9eb .LASF672
C:\Users\CYMR90~1\AppData\Local\Temp\ccX1amHi.s:29740  .debug_str:000000000002256a .LASF673
C:\Users\CYMR90~1\AppData\Local\Temp\ccX1amHi.s:21591  .debug_str:0000000000001c8f .LASF674
C:\Users\CYMR90~1\AppData\Local\Temp\ccX1amHi.s:26549  .debug_str:00000000000158ee .LASF676
C:\Users\CYMR90~1\AppData\Local\Temp\ccX1amHi.s:30166  .debug_str:0000000000023e64 .LASF677
C:\Users\CYMR90~1\AppData\Local\Temp\ccX1amHi.s:27604  .debug_str:0000000000019e6a .LASF678
C:\Users\CYMR90~1\AppData\Local\Temp\ccX1amHi.s:30262  .debug_str:0000000000024570 .LASF679
C:\Users\CYMR90~1\AppData\Local\Temp\ccX1amHi.s:28744  .debug_str:000000000001e8bb .LASF680
C:\Users\CYMR90~1\AppData\Local\Temp\ccX1amHi.s:31602  .debug_str:0000000000029cff .LASF681
C:\Users\CYMR90~1\AppData\Local\Temp\ccX1amHi.s:22197  .debug_str:00000000000042fd .LASF682
C:\Users\CYMR90~1\AppData\Local\Temp\ccX1amHi.s:22117  .debug_str:0000000000003d55 .LASF683
C:\Users\CYMR90~1\AppData\Local\Temp\ccX1amHi.s:23519  .debug_str:0000000000009813 .LASF684
C:\Users\CYMR90~1\AppData\Local\Temp\ccX1amHi.s:28068  .debug_str:000000000001bc9d .LASF685
C:\Users\CYMR90~1\AppData\Local\Temp\ccX1amHi.s:29486  .debug_str:0000000000021649 .LASF686
C:\Users\CYMR90~1\AppData\Local\Temp\ccX1amHi.s:26827  .debug_str:0000000000016b28 .LASF687
C:\Users\CYMR90~1\AppData\Local\Temp\ccX1amHi.s:25397  .debug_str:0000000000010fc9 .LASF688
C:\Users\CYMR90~1\AppData\Local\Temp\ccX1amHi.s:21997  .debug_str:0000000000003554 .LASF689
C:\Users\CYMR90~1\AppData\Local\Temp\ccX1amHi.s:22881  .debug_str:0000000000006e48 .LASF690
C:\Users\CYMR90~1\AppData\Local\Temp\ccX1amHi.s:25747  .debug_str:000000000001265a .LASF691
C:\Users\CYMR90~1\AppData\Local\Temp\ccX1amHi.s:26591  .debug_str:0000000000015b7b .LASF692
C:\Users\CYMR90~1\AppData\Local\Temp\ccX1amHi.s:22565  .debug_str:0000000000005ac7 .LASF695
C:\Users\CYMR90~1\AppData\Local\Temp\ccX1amHi.s:26996  .debug_str:0000000000017782 .LASF696
C:\Users\CYMR90~1\AppData\Local\Temp\ccX1amHi.s:26890  .debug_str:0000000000017154 .LASF697
C:\Users\CYMR90~1\AppData\Local\Temp\ccX1amHi.s:28034  .debug_str:000000000001bad5 .LASF698
C:\Users\CYMR90~1\AppData\Local\Temp\ccX1amHi.s:30204  .debug_str:0000000000024079 .LASF699
C:\Users\CYMR90~1\AppData\Local\Temp\ccX1amHi.s:26321  .debug_str:0000000000014ad6 .LASF702
C:\Users\CYMR90~1\AppData\Local\Temp\ccX1amHi.s:23541  .debug_str:0000000000009985 .LASF703
C:\Users\CYMR90~1\AppData\Local\Temp\ccX1amHi.s:28922  .debug_str:000000000001f38f .LASF704
C:\Users\CYMR90~1\AppData\Local\Temp\ccX1amHi.s:22389  .debug_str:0000000000004fc4 .LASF705
C:\Users\CYMR90~1\AppData\Local\Temp\ccX1amHi.s:26653  .debug_str:0000000000015fd5 .LASF706
C:\Users\CYMR90~1\AppData\Local\Temp\ccX1amHi.s:24979  .debug_str:000000000000f507 .LASF707
C:\Users\CYMR90~1\AppData\Local\Temp\ccX1amHi.s:31324  .debug_str:0000000000028c37 .LASF708
C:\Users\CYMR90~1\AppData\Local\Temp\ccX1amHi.s:30570  .debug_str:0000000000025af5 .LASF709
C:\Users\CYMR90~1\AppData\Local\Temp\ccX1amHi.s:24621  .debug_str:000000000000df49 .LASF710
C:\Users\CYMR90~1\AppData\Local\Temp\ccX1amHi.s:25139  .debug_str:000000000000ff64 .LASF711
C:\Users\CYMR90~1\AppData\Local\Temp\ccX1amHi.s:26801  .debug_str:0000000000016936 .LASF712
C:\Users\CYMR90~1\AppData\Local\Temp\ccX1amHi.s:23783  .debug_str:000000000000a871 .LASF713
C:\Users\CYMR90~1\AppData\Local\Temp\ccX1amHi.s:32136  .debug_str:000000000002be34 .LASF714
C:\Users\CYMR90~1\AppData\Local\Temp\ccX1amHi.s:23127  .debug_str:0000000000007eff .LASF715
C:\Users\CYMR90~1\AppData\Local\Temp\ccX1amHi.s:24049  .debug_str:000000000000ba02 .LASF716
C:\Users\CYMR90~1\AppData\Local\Temp\ccX1amHi.s:29144  .debug_str:0000000000020113 .LASF717
C:\Users\CYMR90~1\AppData\Local\Temp\ccX1amHi.s:30528  .debug_str:00000000000257bd .LASF718
C:\Users\CYMR90~1\AppData\Local\Temp\ccX1amHi.s:30304  .debug_str:00000000000247e7 .LASF719
C:\Users\CYMR90~1\AppData\Local\Temp\ccX1amHi.s:27306  .debug_str:0000000000018a8d .LASF720
C:\Users\CYMR90~1\AppData\Local\Temp\ccX1amHi.s:21647  .debug_str:0000000000001fd9 .LASF721
C:\Users\CYMR90~1\AppData\Local\Temp\ccX1amHi.s:29254  .debug_str:00000000000207eb .LASF722
C:\Users\CYMR90~1\AppData\Local\Temp\ccX1amHi.s:28224  .debug_str:000000000001c643 .LASF723
C:\Users\CYMR90~1\AppData\Local\Temp\ccX1amHi.s:28798  .debug_str:000000000001ec32 .LASF724
C:\Users\CYMR90~1\AppData\Local\Temp\ccX1amHi.s:29720  .debug_str:000000000002247c .LASF725
C:\Users\CYMR90~1\AppData\Local\Temp\ccX1amHi.s:25991  .debug_str:00000000000136b6 .LASF726
C:\Users\CYMR90~1\AppData\Local\Temp\ccX1amHi.s:23777  .debug_str:000000000000a817 .LASF727
C:\Users\CYMR90~1\AppData\Local\Temp\ccX1amHi.s:30664  .debug_str:00000000000260dc .LASF728
C:\Users\CYMR90~1\AppData\Local\Temp\ccX1amHi.s:21559  .debug_str:0000000000001aa9 .LASF729
C:\Users\CYMR90~1\AppData\Local\Temp\ccX1amHi.s:27496  .debug_str:000000000001971f .LASF730
C:\Users\CYMR90~1\AppData\Local\Temp\ccX1amHi.s:25963  .debug_str:0000000000013509 .LASF731
C:\Users\CYMR90~1\AppData\Local\Temp\ccX1amHi.s:30602  .debug_str:0000000000025d13 .LASF732
C:\Users\CYMR90~1\AppData\Local\Temp\ccX1amHi.s:32342  .debug_str:000000000002cc2c .LASF733
C:\Users\CYMR90~1\AppData\Local\Temp\ccX1amHi.s:25453  .debug_str:00000000000112dd .LASF734
C:\Users\CYMR90~1\AppData\Local\Temp\ccX1amHi.s:25373  .debug_str:0000000000010e80 .LASF735
C:\Users\CYMR90~1\AppData\Local\Temp\ccX1amHi.s:32274  .debug_str:000000000002c776 .LASF736
C:\Users\CYMR90~1\AppData\Local\Temp\ccX1amHi.s:24349  .debug_str:000000000000ce09 .LASF737
C:\Users\CYMR90~1\AppData\Local\Temp\ccX1amHi.s:28374  .debug_str:000000000001d1bb .LASF738
C:\Users\CYMR90~1\AppData\Local\Temp\ccX1amHi.s:32026  .debug_str:000000000002b6c0 .LASF739
C:\Users\CYMR90~1\AppData\Local\Temp\ccX1amHi.s:21561  .debug_str:0000000000001abc .LASF740
C:\Users\CYMR90~1\AppData\Local\Temp\ccX1amHi.s:24283  .debug_str:000000000000c981 .LASF741
C:\Users\CYMR90~1\AppData\Local\Temp\ccX1amHi.s:21533  .debug_str:000000000000193d .LASF742
C:\Users\CYMR90~1\AppData\Local\Temp\ccX1amHi.s:25407  .debug_str:0000000000011035 .LASF743
C:\Users\CYMR90~1\AppData\Local\Temp\ccX1amHi.s:21981  .debug_str:0000000000003464 .LASF744
C:\Users\CYMR90~1\AppData\Local\Temp\ccX1amHi.s:23393  .debug_str:0000000000009084 .LASF745
C:\Users\CYMR90~1\AppData\Local\Temp\ccX1amHi.s:29732  .debug_str:000000000002251d .LASF746
C:\Users\CYMR90~1\AppData\Local\Temp\ccX1amHi.s:21431  .debug_str:0000000000001270 .LASF747
C:\Users\CYMR90~1\AppData\Local\Temp\ccX1amHi.s:21421  .debug_str:00000000000011ee .LASF748
C:\Users\CYMR90~1\AppData\Local\Temp\ccX1amHi.s:22543  .debug_str:0000000000005941 .LASF750
C:\Users\CYMR90~1\AppData\Local\Temp\ccX1amHi.s:25325  .debug_str:0000000000010b28 .LASF751
C:\Users\CYMR90~1\AppData\Local\Temp\ccX1amHi.s:31486  .debug_str:0000000000029618 .LASF752
C:\Users\CYMR90~1\AppData\Local\Temp\ccX1amHi.s:25263  .debug_str:0000000000010710 .LASF753
C:\Users\CYMR90~1\AppData\Local\Temp\ccX1amHi.s:22427  .debug_str:000000000000523e .LASF754
C:\Users\CYMR90~1\AppData\Local\Temp\ccX1amHi.s:24033  .debug_str:000000000000b91c .LASF755
C:\Users\CYMR90~1\AppData\Local\Temp\ccX1amHi.s:27568  .debug_str:0000000000019c51 .LASF756
C:\Users\CYMR90~1\AppData\Local\Temp\ccX1amHi.s:23529  .debug_str:00000000000098c2 .LASF757
C:\Users\CYMR90~1\AppData\Local\Temp\ccX1amHi.s:30554  .debug_str:00000000000259d9 .LASF758
C:\Users\CYMR90~1\AppData\Local\Temp\ccX1amHi.s:27206  .debug_str:000000000001846a .LASF759
C:\Users\CYMR90~1\AppData\Local\Temp\ccX1amHi.s:27944  .debug_str:000000000001b56b .LASF760
C:\Users\CYMR90~1\AppData\Local\Temp\ccX1amHi.s:32118  .debug_str:000000000002bcea .LASF761
C:\Users\CYMR90~1\AppData\Local\Temp\ccX1amHi.s:23961  .debug_str:000000000000b401 .LASF762
C:\Users\CYMR90~1\AppData\Local\Temp\ccX1amHi.s:27952  .debug_str:000000000001b5ff .LASF765
C:\Users\CYMR90~1\AppData\Local\Temp\ccX1amHi.s:26623  .debug_str:0000000000015d99 .LASF766
C:\Users\CYMR90~1\AppData\Local\Temp\ccX1amHi.s:29626  .debug_str:0000000000021eb1 .LASF767
C:\Users\CYMR90~1\AppData\Local\Temp\ccX1amHi.s:26615  .debug_str:0000000000015d40 .LASF768
C:\Users\CYMR90~1\AppData\Local\Temp\ccX1amHi.s:21787  .debug_str:0000000000002828 .LASF769
C:\Users\CYMR90~1\AppData\Local\Temp\ccX1amHi.s:28084  .debug_str:000000000001bde0 .LASF770
C:\Users\CYMR90~1\AppData\Local\Temp\ccX1amHi.s:26711  .debug_str:00000000000163a1 .LASF771
C:\Users\CYMR90~1\AppData\Local\Temp\ccX1amHi.s:30270  .debug_str:00000000000245de .LASF772
C:\Users\CYMR90~1\AppData\Local\Temp\ccX1amHi.s:29912  .debug_str:0000000000022fac .LASF773
C:\Users\CYMR90~1\AppData\Local\Temp\ccX1amHi.s:24705  .debug_str:000000000000e457 .LASF774
C:\Users\CYMR90~1\AppData\Local\Temp\ccX1amHi.s:30604  .debug_str:0000000000025d29 .LASF775
C:\Users\CYMR90~1\AppData\Local\Temp\ccX1amHi.s:23675  .debug_str:000000000000a235 .LASF776
C:\Users\CYMR90~1\AppData\Local\Temp\ccX1amHi.s:23691  .debug_str:000000000000a339 .LASF777
C:\Users\CYMR90~1\AppData\Local\Temp\ccX1amHi.s:28734  .debug_str:000000000001e81a .LASF778
C:\Users\CYMR90~1\AppData\Local\Temp\ccX1amHi.s:25205  .debug_str:0000000000010399 .LASF779
C:\Users\CYMR90~1\AppData\Local\Temp\ccX1amHi.s:28988  .debug_str:000000000001f788 .LASF780
C:\Users\CYMR90~1\AppData\Local\Temp\ccX1amHi.s:29622  .debug_str:0000000000021e78 .LASF781
C:\Users\CYMR90~1\AppData\Local\Temp\ccX1amHi.s:25697  .debug_str:00000000000122f9 .LASF782
C:\Users\CYMR90~1\AppData\Local\Temp\ccX1amHi.s:26835  .debug_str:0000000000016c4b .LASF783
C:\Users\CYMR90~1\AppData\Local\Temp\ccX1amHi.s:25595  .debug_str:0000000000011ca9 .LASF784
C:\Users\CYMR90~1\AppData\Local\Temp\ccX1amHi.s:24881  .debug_str:000000000000ef2c .LASF785
C:\Users\CYMR90~1\AppData\Local\Temp\ccX1amHi.s:29984  .debug_str:0000000000023381 .LASF786
C:\Users\CYMR90~1\AppData\Local\Temp\ccX1amHi.s:26335  .debug_str:0000000000014bfb .LASF787
C:\Users\CYMR90~1\AppData\Local\Temp\ccX1amHi.s:28666  .debug_str:000000000001e425 .LASF788
C:\Users\CYMR90~1\AppData\Local\Temp\ccX1amHi.s:25059  .debug_str:000000000000fa49 .LASF789
C:\Users\CYMR90~1\AppData\Local\Temp\ccX1amHi.s:22475  .debug_str:0000000000005548 .LASF790
C:\Users\CYMR90~1\AppData\Local\Temp\ccX1amHi.s:30954  .debug_str:000000000002736e .LASF791
C:\Users\CYMR90~1\AppData\Local\Temp\ccX1amHi.s:23251  .debug_str:00000000000087a6 .LASF792
C:\Users\CYMR90~1\AppData\Local\Temp\ccX1amHi.s:32348  .debug_str:000000000002cc7a .LASF793
C:\Users\CYMR90~1\AppData\Local\Temp\ccX1amHi.s:23035  .debug_str:0000000000007880 .LASF794
C:\Users\CYMR90~1\AppData\Local\Temp\ccX1amHi.s:31206  .debug_str:000000000002843f .LASF795
C:\Users\CYMR90~1\AppData\Local\Temp\ccX1amHi.s:29228  .debug_str:0000000000020619 .LASF796
C:\Users\CYMR90~1\AppData\Local\Temp\ccX1amHi.s:31916  .debug_str:000000000002afac .LASF797
C:\Users\CYMR90~1\AppData\Local\Temp\ccX1amHi.s:22865  .debug_str:0000000000006d26 .LASF798
C:\Users\CYMR90~1\AppData\Local\Temp\ccX1amHi.s:31266  .debug_str:000000000002887e .LASF799
C:\Users\CYMR90~1\AppData\Local\Temp\ccX1amHi.s:22441  .debug_str:000000000000530a .LASF800
C:\Users\CYMR90~1\AppData\Local\Temp\ccX1amHi.s:27704  .debug_str:000000000001a5cb .LASF801
C:\Users\CYMR90~1\AppData\Local\Temp\ccX1amHi.s:27732  .debug_str:000000000001a77a .LASF802
C:\Users\CYMR90~1\AppData\Local\Temp\ccX1amHi.s:23595  .debug_str:0000000000009d6a .LASF803
C:\Users\CYMR90~1\AppData\Local\Temp\ccX1amHi.s:26087  .debug_str:0000000000013cb4 .LASF804
C:\Users\CYMR90~1\AppData\Local\Temp\ccX1amHi.s:22879  .debug_str:0000000000006ded .LASF805
C:\Users\CYMR90~1\AppData\Local\Temp\ccX1amHi.s:25545  .debug_str:00000000000118e9 .LASF806
C:\Users\CYMR90~1\AppData\Local\Temp\ccX1amHi.s:28688  .debug_str:000000000001e53b .LASF807
C:\Users\CYMR90~1\AppData\Local\Temp\ccX1amHi.s:28274  .debug_str:000000000001ca1f .LASF808
C:\Users\CYMR90~1\AppData\Local\Temp\ccX1amHi.s:30674  .debug_str:0000000000026173 .LASF809
C:\Users\CYMR90~1\AppData\Local\Temp\ccX1amHi.s:32122  .debug_str:000000000002bd3f .LASF810
C:\Users\CYMR90~1\AppData\Local\Temp\ccX1amHi.s:23275  .debug_str:0000000000008917 .LASF811
C:\Users\CYMR90~1\AppData\Local\Temp\ccX1amHi.s:22177  .debug_str:00000000000041cf .LASF812
C:\Users\CYMR90~1\AppData\Local\Temp\ccX1amHi.s:32162  .debug_str:000000000002c052 .LASF813
C:\Users\CYMR90~1\AppData\Local\Temp\ccX1amHi.s:22539  .debug_str:000000000000591a .LASF814
C:\Users\CYMR90~1\AppData\Local\Temp\ccX1amHi.s:22771  .debug_str:0000000000006710 .LASF815
C:\Users\CYMR90~1\AppData\Local\Temp\ccX1amHi.s:28052  .debug_str:000000000001bbca .LASF816
C:\Users\CYMR90~1\AppData\Local\Temp\ccX1amHi.s:23455  .debug_str:0000000000009407 .LASF817
C:\Users\CYMR90~1\AppData\Local\Temp\ccX1amHi.s:28192  .debug_str:000000000001c4a3 .LASF818
C:\Users\CYMR90~1\AppData\Local\Temp\ccX1amHi.s:28088  .debug_str:000000000001bdf8 .LASF819
C:\Users\CYMR90~1\AppData\Local\Temp\ccX1amHi.s:21305  .debug_str:0000000000000aca .LASF820
C:\Users\CYMR90~1\AppData\Local\Temp\ccX1amHi.s:31752  .debug_str:000000000002a5a3 .LASF821
C:\Users\CYMR90~1\AppData\Local\Temp\ccX1amHi.s:30266  .debug_str:00000000000245ae .LASF822
C:\Users\CYMR90~1\AppData\Local\Temp\ccX1amHi.s:23423  .debug_str:00000000000091ff .LASF823
C:\Users\CYMR90~1\AppData\Local\Temp\ccX1amHi.s:26759  .debug_str:00000000000166c7 .LASF824
C:\Users\CYMR90~1\AppData\Local\Temp\ccX1amHi.s:28378  .debug_str:000000000001d1f6 .LASF825
C:\Users\CYMR90~1\AppData\Local\Temp\ccX1amHi.s:26547  .debug_str:00000000000158cd .LASF826
C:\Users\CYMR90~1\AppData\Local\Temp\ccX1amHi.s:22067  .debug_str:0000000000003a4c .LASF827
C:\Users\CYMR90~1\AppData\Local\Temp\ccX1amHi.s:24861  .debug_str:000000000000ee1f .LASF828
C:\Users\CYMR90~1\AppData\Local\Temp\ccX1amHi.s:30374  .debug_str:0000000000024c91 .LASF829
C:\Users\CYMR90~1\AppData\Local\Temp\ccX1amHi.s:30544  .debug_str:0000000000025919 .LASF830
C:\Users\CYMR90~1\AppData\Local\Temp\ccX1amHi.s:24039  .debug_str:000000000000b977 .LASF831
C:\Users\CYMR90~1\AppData\Local\Temp\ccX1amHi.s:24809  .debug_str:000000000000eb0c .LASF832
C:\Users\CYMR90~1\AppData\Local\Temp\ccX1amHi.s:22631  .debug_str:0000000000005e86 .LASF833
C:\Users\CYMR90~1\AppData\Local\Temp\ccX1amHi.s:25455  .debug_str:00000000000112ee .LASF834
C:\Users\CYMR90~1\AppData\Local\Temp\ccX1amHi.s:27230  .debug_str:00000000000185d3 .LASF835
C:\Users\CYMR90~1\AppData\Local\Temp\ccX1amHi.s:25355  .debug_str:0000000000010d0d .LASF836
C:\Users\CYMR90~1\AppData\Local\Temp\ccX1amHi.s:29136  .debug_str:0000000000020097 .LASF837
C:\Users\CYMR90~1\AppData\Local\Temp\ccX1amHi.s:23321  .debug_str:0000000000008bf0 .LASF838
C:\Users\CYMR90~1\AppData\Local\Temp\ccX1amHi.s:29116  .debug_str:000000000001ff31 .LASF839
C:\Users\CYMR90~1\AppData\Local\Temp\ccX1amHi.s:25253  .debug_str:000000000001065f .LASF840
C:\Users\CYMR90~1\AppData\Local\Temp\ccX1amHi.s:24169  .debug_str:000000000000c239 .LASF841
C:\Users\CYMR90~1\AppData\Local\Temp\ccX1amHi.s:28290  .debug_str:000000000001cb29 .LASF842
C:\Users\CYMR90~1\AppData\Local\Temp\ccX1amHi.s:21375  .debug_str:0000000000000f64 .LASF843
C:\Users\CYMR90~1\AppData\Local\Temp\ccX1amHi.s:21729  .debug_str:0000000000002458 .LASF844
C:\Users\CYMR90~1\AppData\Local\Temp\ccX1amHi.s:30128  .debug_str:0000000000023c50 .LASF845
C:\Users\CYMR90~1\AppData\Local\Temp\ccX1amHi.s:21141  .debug_str:00000000000000b8 .LASF846
C:\Users\CYMR90~1\AppData\Local\Temp\ccX1amHi.s:23117  .debug_str:0000000000007e72 .LASF847
C:\Users\CYMR90~1\AppData\Local\Temp\ccX1amHi.s:28996  .debug_str:000000000001f7ee .LASF848
C:\Users\CYMR90~1\AppData\Local\Temp\ccX1amHi.s:23083  .debug_str:0000000000007bb3 .LASF849
C:\Users\CYMR90~1\AppData\Local\Temp\ccX1amHi.s:24463  .debug_str:000000000000d5f8 .LASF852
C:\Users\CYMR90~1\AppData\Local\Temp\ccX1amHi.s:31318  .debug_str:0000000000028bdf .LASF853
C:\Users\CYMR90~1\AppData\Local\Temp\ccX1amHi.s:26395  .debug_str:0000000000015028 .LASF854
C:\Users\CYMR90~1\AppData\Local\Temp\ccX1amHi.s:29632  .debug_str:0000000000021f46 .LASF856
C:\Users\CYMR90~1\AppData\Local\Temp\ccX1amHi.s:28514  .debug_str:000000000001da7a .LASF857
C:\Users\CYMR90~1\AppData\Local\Temp\ccX1amHi.s:31140  .debug_str:0000000000027f21 .LASF858
C:\Users\CYMR90~1\AppData\Local\Temp\ccX1amHi.s:24451  .debug_str:000000000000d529 .LASF859
C:\Users\CYMR90~1\AppData\Local\Temp\ccX1amHi.s:25405  .debug_str:000000000001102b .LASF860
C:\Users\CYMR90~1\AppData\Local\Temp\ccX1amHi.s:29566  .debug_str:0000000000021b0c .LASF861
C:\Users\CYMR90~1\AppData\Local\Temp\ccX1amHi.s:28726  .debug_str:000000000001e7ca .LASF862
C:\Users\CYMR90~1\AppData\Local\Temp\ccX1amHi.s:21469  .debug_str:00000000000014b4 .LASF863
C:\Users\CYMR90~1\AppData\Local\Temp\ccX1amHi.s:22121  .debug_str:0000000000003d83 .LASF864
C:\Users\CYMR90~1\AppData\Local\Temp\ccX1amHi.s:22511  .debug_str:0000000000005773 .LASF865
C:\Users\CYMR90~1\AppData\Local\Temp\ccX1amHi.s:23723  .debug_str:000000000000a535 .LASF866
C:\Users\CYMR90~1\AppData\Local\Temp\ccX1amHi.s:23187  .debug_str:000000000000839b .LASF867
C:\Users\CYMR90~1\AppData\Local\Temp\ccX1amHi.s:28446  .debug_str:000000000001d5f2 .LASF868
C:\Users\CYMR90~1\AppData\Local\Temp\ccX1amHi.s:29076  .debug_str:000000000001fced .LASF869
C:\Users\CYMR90~1\AppData\Local\Temp\ccX1amHi.s:30142  .debug_str:0000000000023d05 .LASF870
C:\Users\CYMR90~1\AppData\Local\Temp\ccX1amHi.s:23363  .debug_str:0000000000008ec5 .LASF871
C:\Users\CYMR90~1\AppData\Local\Temp\ccX1amHi.s:23801  .debug_str:000000000000a9c6 .LASF872
C:\Users\CYMR90~1\AppData\Local\Temp\ccX1amHi.s:28282  .debug_str:000000000001cab7 .LASF873
C:\Users\CYMR90~1\AppData\Local\Temp\ccX1amHi.s:30842  .debug_str:0000000000026bc1 .LASF874
C:\Users\CYMR90~1\AppData\Local\Temp\ccX1amHi.s:25615  .debug_str:0000000000011dc1 .LASF875
C:\Users\CYMR90~1\AppData\Local\Temp\ccX1amHi.s:26297  .debug_str:00000000000149bd .LASF876
C:\Users\CYMR90~1\AppData\Local\Temp\ccX1amHi.s:23601  .debug_str:0000000000009dbf .LASF877
C:\Users\CYMR90~1\AppData\Local\Temp\ccX1amHi.s:27986  .debug_str:000000000001b81b .LASF878
C:\Users\CYMR90~1\AppData\Local\Temp\ccX1amHi.s:25401  .debug_str:0000000000011006 .LASF879
C:\Users\CYMR90~1\AppData\Local\Temp\ccX1amHi.s:26944  .debug_str:0000000000017465 .LASF880
C:\Users\CYMR90~1\AppData\Local\Temp\ccX1amHi.s:22443  .debug_str:0000000000005323 .LASF881
C:\Users\CYMR90~1\AppData\Local\Temp\ccX1amHi.s:25831  .debug_str:0000000000012c20 .LASF882
C:\Users\CYMR90~1\AppData\Local\Temp\ccX1amHi.s:28964  .debug_str:000000000001f638 .LASF883
C:\Users\CYMR90~1\AppData\Local\Temp\ccX1amHi.s:29148  .debug_str:0000000000020140 .LASF884
C:\Users\CYMR90~1\AppData\Local\Temp\ccX1amHi.s:32400  .debug_str:000000000002cffd .LASF885
C:\Users\CYMR90~1\AppData\Local\Temp\ccX1amHi.s:27992  .debug_str:000000000001b873 .LASF886
C:\Users\CYMR90~1\AppData\Local\Temp\ccX1amHi.s:23467  .debug_str:00000000000094da .LASF887
C:\Users\CYMR90~1\AppData\Local\Temp\ccX1amHi.s:30098  .debug_str:0000000000023aa7 .LASF888
C:\Users\CYMR90~1\AppData\Local\Temp\ccX1amHi.s:25771  .debug_str:0000000000012803 .LASF889
C:\Users\CYMR90~1\AppData\Local\Temp\ccX1amHi.s:30030  .debug_str:0000000000023622 .LASF890
C:\Users\CYMR90~1\AppData\Local\Temp\ccX1amHi.s:22271  .debug_str:0000000000004896 .LASF891
C:\Users\CYMR90~1\AppData\Local\Temp\ccX1amHi.s:24759  .debug_str:000000000000e7ca .LASF892
C:\Users\CYMR90~1\AppData\Local\Temp\ccX1amHi.s:30790  .debug_str:00000000000268b2 .LASF893
C:\Users\CYMR90~1\AppData\Local\Temp\ccX1amHi.s:30186  .debug_str:0000000000023f86 .LASF894
C:\Users\CYMR90~1\AppData\Local\Temp\ccX1amHi.s:21443  .debug_str:000000000000131a .LASF895
C:\Users\CYMR90~1\AppData\Local\Temp\ccX1amHi.s:26151  .debug_str:000000000001405c .LASF896
C:\Users\CYMR90~1\AppData\Local\Temp\ccX1amHi.s:22359  .debug_str:0000000000004e09 .LASF897
C:\Users\CYMR90~1\AppData\Local\Temp\ccX1amHi.s:23591  .debug_str:0000000000009d2b .LASF898
C:\Users\CYMR90~1\AppData\Local\Temp\ccX1amHi.s:31082  .debug_str:0000000000027b48 .LASF899
C:\Users\CYMR90~1\AppData\Local\Temp\ccX1amHi.s:23919  .debug_str:000000000000b1e4 .LASF900
C:\Users\CYMR90~1\AppData\Local\Temp\ccX1amHi.s:28040  .debug_str:000000000001bb0b .LASF901
C:\Users\CYMR90~1\AppData\Local\Temp\ccX1amHi.s:31624  .debug_str:0000000000029e41 .LASF902
C:\Users\CYMR90~1\AppData\Local\Temp\ccX1amHi.s:25651  .debug_str:0000000000011fdc .LASF903
C:\Users\CYMR90~1\AppData\Local\Temp\ccX1amHi.s:31228  .debug_str:00000000000285aa .LASF904
C:\Users\CYMR90~1\AppData\Local\Temp\ccX1amHi.s:25817  .debug_str:0000000000012b2b .LASF905
C:\Users\CYMR90~1\AppData\Local\Temp\ccX1amHi.s:23239  .debug_str:0000000000008703 .LASF906
C:\Users\CYMR90~1\AppData\Local\Temp\ccX1amHi.s:31794  .debug_str:000000000002a877 .LASF907
C:\Users\CYMR90~1\AppData\Local\Temp\ccX1amHi.s:24753  .debug_str:000000000000e76c .LASF908
C:\Users\CYMR90~1\AppData\Local\Temp\ccX1amHi.s:31058  .debug_str:0000000000027992 .LASF909
C:\Users\CYMR90~1\AppData\Local\Temp\ccX1amHi.s:25375  .debug_str:0000000000010e91 .LASF910
C:\Users\CYMR90~1\AppData\Local\Temp\ccX1amHi.s:21819  .debug_str:0000000000002a15 .LASF911
C:\Users\CYMR90~1\AppData\Local\Temp\ccX1amHi.s:21415  .debug_str:00000000000011b1 .LASF912
C:\Users\CYMR90~1\AppData\Local\Temp\ccX1amHi.s:29488  .debug_str:000000000002166d .LASF913
C:\Users\CYMR90~1\AppData\Local\Temp\ccX1amHi.s:30352  .debug_str:0000000000024b24 .LASF914
C:\Users\CYMR90~1\AppData\Local\Temp\ccX1amHi.s:24295  .debug_str:000000000000ca53 .LASF915
C:\Users\CYMR90~1\AppData\Local\Temp\ccX1amHi.s:26916  .debug_str:00000000000172b1 .LASF916
C:\Users\CYMR90~1\AppData\Local\Temp\ccX1amHi.s:25185  .debug_str:0000000000010243 .LASF917
C:\Users\CYMR90~1\AppData\Local\Temp\ccX1amHi.s:31866  .debug_str:000000000002ac78 .LASF918
C:\Users\CYMR90~1\AppData\Local\Temp\ccX1amHi.s:21401  .debug_str:00000000000010bd .LASF919
C:\Users\CYMR90~1\AppData\Local\Temp\ccX1amHi.s:23905  .debug_str:000000000000b103 .LASF920
C:\Users\CYMR90~1\AppData\Local\Temp\ccX1amHi.s:30306  .debug_str:00000000000247fc .LASF921
C:\Users\CYMR90~1\AppData\Local\Temp\ccX1amHi.s:27726  .debug_str:000000000001a708 .LASF922
C:\Users\CYMR90~1\AppData\Local\Temp\ccX1amHi.s:30822  .debug_str:0000000000026a92 .LASF923
C:\Users\CYMR90~1\AppData\Local\Temp\ccX1amHi.s:26872  .debug_str:0000000000017038 .LASF924
C:\Users\CYMR90~1\AppData\Local\Temp\ccX1amHi.s:21779  .debug_str:0000000000002795 .LASF925
C:\Users\CYMR90~1\AppData\Local\Temp\ccX1amHi.s:27946  .debug_str:000000000001b5a5 .LASF926
C:\Users\CYMR90~1\AppData\Local\Temp\ccX1amHi.s:21509  .debug_str:00000000000017b1 .LASF927
C:\Users\CYMR90~1\AppData\Local\Temp\ccX1amHi.s:26327  .debug_str:0000000000014b75 .LASF928
C:\Users\CYMR90~1\AppData\Local\Temp\ccX1amHi.s:29028  .debug_str:000000000001f9b2 .LASF929
C:\Users\CYMR90~1\AppData\Local\Temp\ccX1amHi.s:32120  .debug_str:000000000002bd22 .LASF930
C:\Users\CYMR90~1\AppData\Local\Temp\ccX1amHi.s:32340  .debug_str:000000000002cc0e .LASF931
C:\Users\CYMR90~1\AppData\Local\Temp\ccX1amHi.s:28924  .debug_str:000000000001f3a3 .LASF932
C:\Users\CYMR90~1\AppData\Local\Temp\ccX1amHi.s:31604  .debug_str:0000000000029d0f .LASF933
C:\Users\CYMR90~1\AppData\Local\Temp\ccX1amHi.s:26673  .debug_str:000000000001615d .LASF934
C:\Users\CYMR90~1\AppData\Local\Temp\ccX1amHi.s:27504  .debug_str:0000000000019799 .LASF935
C:\Users\CYMR90~1\AppData\Local\Temp\ccX1amHi.s:26551  .debug_str:0000000000015902 .LASF936
C:\Users\CYMR90~1\AppData\Local\Temp\ccX1amHi.s:30444  .debug_str:0000000000025142 .LASF937
C:\Users\CYMR90~1\AppData\Local\Temp\ccX1amHi.s:21323  .debug_str:0000000000000bfd .LASF938
C:\Users\CYMR90~1\AppData\Local\Temp\ccX1amHi.s:29292  .debug_str:0000000000020a27 .LASF939
C:\Users\CYMR90~1\AppData\Local\Temp\ccX1amHi.s:30530  .debug_str:00000000000257c9 .LASF940
C:\Users\CYMR90~1\AppData\Local\Temp\ccX1amHi.s:24041  .debug_str:000000000000b995 .LASF941
C:\Users\CYMR90~1\AppData\Local\Temp\ccX1amHi.s:27714  .debug_str:000000000001a64f .LASF942
C:\Users\CYMR90~1\AppData\Local\Temp\ccX1amHi.s:27566  .debug_str:0000000000019c39 .LASF943
C:\Users\CYMR90~1\AppData\Local\Temp\ccX1amHi.s:30472  .debug_str:00000000000253a2 .LASF944
C:\Users\CYMR90~1\AppData\Local\Temp\ccX1amHi.s:28136  .debug_str:000000000001c15b .LASF945
C:\Users\CYMR90~1\AppData\Local\Temp\ccX1amHi.s:25001  .debug_str:000000000000f655 .LASF946
C:\Users\CYMR90~1\AppData\Local\Temp\ccX1amHi.s:27022  .debug_str:000000000001792a .LASF947
C:\Users\CYMR90~1\AppData\Local\Temp\ccX1amHi.s:28650  .debug_str:000000000001e33f .LASF948
C:\Users\CYMR90~1\AppData\Local\Temp\ccX1amHi.s:25351  .debug_str:0000000000010ccf .LASF949
C:\Users\CYMR90~1\AppData\Local\Temp\ccX1amHi.s:24355  .debug_str:000000000000ce5f .LASF950
C:\Users\CYMR90~1\AppData\Local\Temp\ccX1amHi.s:22941  .debug_str:0000000000007239 .LASF952
C:\Users\CYMR90~1\AppData\Local\Temp\ccX1amHi.s:26467  .debug_str:0000000000015462 .LASF953
C:\Users\CYMR90~1\AppData\Local\Temp\ccX1amHi.s:24391  .debug_str:000000000000d0cc .LASF954
C:\Users\CYMR90~1\AppData\Local\Temp\ccX1amHi.s:32332  .debug_str:000000000002cb99 .LASF955
C:\Users\CYMR90~1\AppData\Local\Temp\ccX1amHi.s:31504  .debug_str:0000000000029705 .LASF956
C:\Users\CYMR90~1\AppData\Local\Temp\ccX1amHi.s:31594  .debug_str:0000000000029c79 .LASF960
C:\Users\CYMR90~1\AppData\Local\Temp\ccX1amHi.s:23493  .debug_str:00000000000096c6 .LASF961
C:\Users\CYMR90~1\AppData\Local\Temp\ccX1amHi.s:30850  .debug_str:0000000000026c4c .LASF962
C:\Users\CYMR90~1\AppData\Local\Temp\ccX1amHi.s:25587  .debug_str:0000000000011c2d .LASF963
C:\Users\CYMR90~1\AppData\Local\Temp\ccX1amHi.s:22967  .debug_str:0000000000007420 .LASF964
C:\Users\CYMR90~1\AppData\Local\Temp\ccX1amHi.s:29662  .debug_str:00000000000220fc .LASF965
C:\Users\CYMR90~1\AppData\Local\Temp\ccX1amHi.s:27940  .debug_str:000000000001b539 .LASF966
C:\Users\CYMR90~1\AppData\Local\Temp\ccX1amHi.s:30796  .debug_str:000000000002690e .LASF967
C:\Users\CYMR90~1\AppData\Local\Temp\ccX1amHi.s:31908  .debug_str:000000000002af28 .LASF968
C:\Users\CYMR90~1\AppData\Local\Temp\ccX1amHi.s:22693  .debug_str:000000000000626a .LASF969
C:\Users\CYMR90~1\AppData\Local\Temp\ccX1amHi.s:26191  .debug_str:00000000000142f9 .LASF970
C:\Users\CYMR90~1\AppData\Local\Temp\ccX1amHi.s:31996  .debug_str:000000000002b4e3 .LASF971
C:\Users\CYMR90~1\AppData\Local\Temp\ccX1amHi.s:24807  .debug_str:000000000000eae6 .LASF972
C:\Users\CYMR90~1\AppData\Local\Temp\ccX1amHi.s:26257  .debug_str:0000000000014725 .LASF973
C:\Users\CYMR90~1\AppData\Local\Temp\ccX1amHi.s:24413  .debug_str:000000000000d225 .LASF974
C:\Users\CYMR90~1\AppData\Local\Temp\ccX1amHi.s:26807  .debug_str:00000000000169b0 .LASF975
C:\Users\CYMR90~1\AppData\Local\Temp\ccX1amHi.s:32364  .debug_str:000000000002cd3f .LASF976
C:\Users\CYMR90~1\AppData\Local\Temp\ccX1amHi.s:24351  .debug_str:000000000000ce1a .LASF977
C:\Users\CYMR90~1\AppData\Local\Temp\ccX1amHi.s:32388  .debug_str:000000000002cf7a .LASF978
C:\Users\CYMR90~1\AppData\Local\Temp\ccX1amHi.s:30634  .debug_str:0000000000025ee4 .LASF979
C:\Users\CYMR90~1\AppData\Local\Temp\ccX1amHi.s:30694  .debug_str:00000000000262a9 .LASF980
C:\Users\CYMR90~1\AppData\Local\Temp\ccX1amHi.s:24859  .debug_str:000000000000ee05 .LASF981
C:\Users\CYMR90~1\AppData\Local\Temp\ccX1amHi.s:22397  .debug_str:000000000000504a .LASF982
C:\Users\CYMR90~1\AppData\Local\Temp\ccX1amHi.s:25611  .debug_str:0000000000011da4 .LASF983
C:\Users\CYMR90~1\AppData\Local\Temp\ccX1amHi.s:23367  .debug_str:0000000000008ee5 .LASF984
C:\Users\CYMR90~1\AppData\Local\Temp\ccX1amHi.s:28368  .debug_str:000000000001d0d3 .LASF985
C:\Users\CYMR90~1\AppData\Local\Temp\ccX1amHi.s:29946  .debug_str:000000000002318a .LASF986
C:\Users\CYMR90~1\AppData\Local\Temp\ccX1amHi.s:26619  .debug_str:0000000000015d75 .LASF987
C:\Users\CYMR90~1\AppData\Local\Temp\ccX1amHi.s:21837  .debug_str:0000000000002b28 .LASF988
C:\Users\CYMR90~1\AppData\Local\Temp\ccX1amHi.s:29858  .debug_str:0000000000022c9a .LASF989
C:\Users\CYMR90~1\AppData\Local\Temp\ccX1amHi.s:27320  .debug_str:0000000000018b4e .LASF990
C:\Users\CYMR90~1\AppData\Local\Temp\ccX1amHi.s:24347  .debug_str:000000000000cdf2 .LASF991
C:\Users\CYMR90~1\AppData\Local\Temp\ccX1amHi.s:30798  .debug_str:0000000000026936 .LASF992
C:\Users\CYMR90~1\AppData\Local\Temp\ccX1amHi.s:22987  .debug_str:000000000000755e .LASF993
C:\Users\CYMR90~1\AppData\Local\Temp\ccX1amHi.s:30614  .debug_str:0000000000025d93 .LASF994
C:\Users\CYMR90~1\AppData\Local\Temp\ccX1amHi.s:27402  .debug_str:0000000000019188 .LASF995
C:\Users\CYMR90~1\AppData\Local\Temp\ccX1amHi.s:31404  .debug_str:0000000000029122 .LASF996
C:\Users\CYMR90~1\AppData\Local\Temp\ccX1amHi.s:28554  .debug_str:000000000001dcab .LASF997
C:\Users\CYMR90~1\AppData\Local\Temp\ccX1amHi.s:28630  .debug_str:000000000001e1e4 .LASF998
C:\Users\CYMR90~1\AppData\Local\Temp\ccX1amHi.s:21741  .debug_str:00000000000024ec .LASF999
C:\Users\CYMR90~1\AppData\Local\Temp\ccX1amHi.s:22073  .debug_str:0000000000003aa4 .LASF1000
C:\Users\CYMR90~1\AppData\Local\Temp\ccX1amHi.s:30282  .debug_str:000000000002469c .LASF1001
C:\Users\CYMR90~1\AppData\Local\Temp\ccX1amHi.s:25195  .debug_str:00000000000102f3 .LASF1002
C:\Users\CYMR90~1\AppData\Local\Temp\ccX1amHi.s:22351  .debug_str:0000000000004db0 .LASF1003
C:\Users\CYMR90~1\AppData\Local\Temp\ccX1amHi.s:28176  .debug_str:000000000001c3c2 .LASF1004
C:\Users\CYMR90~1\AppData\Local\Temp\ccX1amHi.s:25563  .debug_str:0000000000011a22 .LASF1005
C:\Users\CYMR90~1\AppData\Local\Temp\ccX1amHi.s:24061  .debug_str:000000000000bb0b .LASF1006
C:\Users\CYMR90~1\AppData\Local\Temp\ccX1amHi.s:22667  .debug_str:00000000000060d3 .LASF1007
C:\Users\CYMR90~1\AppData\Local\Temp\ccX1amHi.s:29658  .debug_str:00000000000220c4 .LASF1008
C:\Users\CYMR90~1\AppData\Local\Temp\ccX1amHi.s:27098  .debug_str:0000000000017dcf .LASF1009
C:\Users\CYMR90~1\AppData\Local\Temp\ccX1amHi.s:27254  .debug_str:000000000001871b .LASF1010
C:\Users\CYMR90~1\AppData\Local\Temp\ccX1amHi.s:24629  .debug_str:000000000000dfb7 .LASF1011
C:\Users\CYMR90~1\AppData\Local\Temp\ccX1amHi.s:28416  .debug_str:000000000001d431 .LASF1012
C:\Users\CYMR90~1\AppData\Local\Temp\ccX1amHi.s:24823  .debug_str:000000000000ebd9 .LASF1013
C:\Users\CYMR90~1\AppData\Local\Temp\ccX1amHi.s:27520  .debug_str:00000000000198e7 .LASF1014
C:\Users\CYMR90~1\AppData\Local\Temp\ccX1amHi.s:22071  .debug_str:0000000000003a8e .LASF1015
C:\Users\CYMR90~1\AppData\Local\Temp\ccX1amHi.s:22547  .debug_str:0000000000005977 .LASF1016
C:\Users\CYMR90~1\AppData\Local\Temp\ccX1amHi.s:22499  .debug_str:00000000000056bb .LASF1017
C:\Users\CYMR90~1\AppData\Local\Temp\ccX1amHi.s:30944  .debug_str:000000000002722e .LASF1018
C:\Users\CYMR90~1\AppData\Local\Temp\ccX1amHi.s:24869  .debug_str:000000000000ee87 .LASF1019
C:\Users\CYMR90~1\AppData\Local\Temp\ccX1amHi.s:21735  .debug_str:00000000000024a3 .LASF1020
C:\Users\CYMR90~1\AppData\Local\Temp\ccX1amHi.s:27136  .debug_str:000000000001803c .LASF1021
C:\Users\CYMR90~1\AppData\Local\Temp\ccX1amHi.s:24167  .debug_str:000000000000c221 .LASF1022
C:\Users\CYMR90~1\AppData\Local\Temp\ccX1amHi.s:30870  .debug_str:0000000000026d67 .LASF1023
C:\Users\CYMR90~1\AppData\Local\Temp\ccX1amHi.s:23405  .debug_str:0000000000009127 .LASF1024
C:\Users\CYMR90~1\AppData\Local\Temp\ccX1amHi.s:25881  .debug_str:0000000000012f50 .LASF1025
C:\Users\CYMR90~1\AppData\Local\Temp\ccX1amHi.s:25379  .debug_str:0000000000010ed2 .LASF1026
C:\Users\CYMR90~1\AppData\Local\Temp\ccX1amHi.s:26319  .debug_str:0000000000014ac1 .LASF1027
C:\Users\CYMR90~1\AppData\Local\Temp\ccX1amHi.s:28494  .debug_str:000000000001d914 .LASF1028
C:\Users\CYMR90~1\AppData\Local\Temp\ccX1amHi.s:28886  .debug_str:000000000001f133 .LASF1029
C:\Users\CYMR90~1\AppData\Local\Temp\ccX1amHi.s:30160  .debug_str:0000000000023e12 .LASF1030
C:\Users\CYMR90~1\AppData\Local\Temp\ccX1amHi.s:29248  .debug_str:00000000000207a5 .LASF1031
C:\Users\CYMR90~1\AppData\Local\Temp\ccX1amHi.s:31506  .debug_str:000000000002976d .LASF1032
C:\Users\CYMR90~1\AppData\Local\Temp\ccX1amHi.s:23549  .debug_str:0000000000009a5c .LASF1033
C:\Users\CYMR90~1\AppData\Local\Temp\ccX1amHi.s:22405  .debug_str:00000000000050cc .LASF1034
C:\Users\CYMR90~1\AppData\Local\Temp\ccX1amHi.s:27452  .debug_str:0000000000019472 .LASF1035
C:\Users\CYMR90~1\AppData\Local\Temp\ccX1amHi.s:27706  .debug_str:000000000001a5e5 .LASF1036
C:\Users\CYMR90~1\AppData\Local\Temp\ccX1amHi.s:29962  .debug_str:000000000002323c .LASF1037
C:\Users\CYMR90~1\AppData\Local\Temp\ccX1amHi.s:25041  .debug_str:000000000000f96a .LASF1038
C:\Users\CYMR90~1\AppData\Local\Temp\ccX1amHi.s:28596  .debug_str:000000000001dfca .LASF1039
C:\Users\CYMR90~1\AppData\Local\Temp\ccX1amHi.s:26489  .debug_str:00000000000155a3 .LASF1040
C:\Users\CYMR90~1\AppData\Local\Temp\ccX1amHi.s:24945  .debug_str:000000000000f30f .LASF1041
C:\Users\CYMR90~1\AppData\Local\Temp\ccX1amHi.s:30684  .debug_str:0000000000026210 .LASF1042
C:\Users\CYMR90~1\AppData\Local\Temp\ccX1amHi.s:25197  .debug_str:000000000001030a .LASF1043
C:\Users\CYMR90~1\AppData\Local\Temp\ccX1amHi.s:21163  .debug_str:00000000000001f0 .LASF1044
C:\Users\CYMR90~1\AppData\Local\Temp\ccX1amHi.s:23417  .debug_str:00000000000091ae .LASF1045
C:\Users\CYMR90~1\AppData\Local\Temp\ccX1amHi.s:27934  .debug_str:000000000001b4e2 .LASF1046
C:\Users\CYMR90~1\AppData\Local\Temp\ccX1amHi.s:26741  .debug_str:0000000000016544 .LASF1047
C:\Users\CYMR90~1\AppData\Local\Temp\ccX1amHi.s:30006  .debug_str:00000000000234b2 .LASF1048
C:\Users\CYMR90~1\AppData\Local\Temp\ccX1amHi.s:28850  .debug_str:000000000001eefe .LASF1049
C:\Users\CYMR90~1\AppData\Local\Temp\ccX1amHi.s:21911  .debug_str:0000000000002fea .LASF1050
C:\Users\CYMR90~1\AppData\Local\Temp\ccX1amHi.s:28860  .debug_str:000000000001ef89 .LASF1051
C:\Users\CYMR90~1\AppData\Local\Temp\ccX1amHi.s:29060  .debug_str:000000000001fbd0 .LASF1052
C:\Users\CYMR90~1\AppData\Local\Temp\ccX1amHi.s:23917  .debug_str:000000000000b1d2 .LASF1053
C:\Users\CYMR90~1\AppData\Local\Temp\ccX1amHi.s:29902  .debug_str:0000000000022f23 .LASF1054
C:\Users\CYMR90~1\AppData\Local\Temp\ccX1amHi.s:25857  .debug_str:0000000000012db6 .LASF1055
C:\Users\CYMR90~1\AppData\Local\Temp\ccX1amHi.s:24803  .debug_str:000000000000ea94 .LASF1056
C:\Users\CYMR90~1\AppData\Local\Temp\ccX1amHi.s:31118  .debug_str:0000000000027dd0 .LASF1057
C:\Users\CYMR90~1\AppData\Local\Temp\ccX1amHi.s:31716  .debug_str:000000000002a361 .LASF1058
C:\Users\CYMR90~1\AppData\Local\Temp\ccX1amHi.s:30442  .debug_str:0000000000025120 .LASF1059
C:\Users\CYMR90~1\AppData\Local\Temp\ccX1amHi.s:21599  .debug_str:0000000000001d12 .LASF1060
C:\Users\CYMR90~1\AppData\Local\Temp\ccX1amHi.s:23219  .debug_str:00000000000085c0 .LASF1061
C:\Users\CYMR90~1\AppData\Local\Temp\ccX1amHi.s:21287  .debug_str:0000000000000962 .LASF1062
C:\Users\CYMR90~1\AppData\Local\Temp\ccX1amHi.s:26231  .debug_str:000000000001451d .LASF1063
C:\Users\CYMR90~1\AppData\Local\Temp\ccX1amHi.s:22119  .debug_str:0000000000003d6c .LASF1064
C:\Users\CYMR90~1\AppData\Local\Temp\ccX1amHi.s:21229  .debug_str:00000000000005cd .LASF1065
C:\Users\CYMR90~1\AppData\Local\Temp\ccX1amHi.s:32394  .debug_str:000000000002cfc3 .LASF1066
C:\Users\CYMR90~1\AppData\Local\Temp\ccX1amHi.s:30284  .debug_str:00000000000246b4 .LASF1067
C:\Users\CYMR90~1\AppData\Local\Temp\ccX1amHi.s:26805  .debug_str:0000000000016996 .LASF1068
C:\Users\CYMR90~1\AppData\Local\Temp\ccX1amHi.s:28386  .debug_str:000000000001d250 .LASF1069
C:\Users\CYMR90~1\AppData\Local\Temp\ccX1amHi.s:21341  .debug_str:0000000000000cf0 .LASF1070
C:\Users\CYMR90~1\AppData\Local\Temp\ccX1amHi.s:23681  .debug_str:000000000000a289 .LASF1071
C:\Users\CYMR90~1\AppData\Local\Temp\ccX1amHi.s:29808  .debug_str:000000000002294f .LASF1072
C:\Users\CYMR90~1\AppData\Local\Temp\ccX1amHi.s:28350  .debug_str:000000000001cf90 .LASF1073
C:\Users\CYMR90~1\AppData\Local\Temp\ccX1amHi.s:31368  .debug_str:0000000000028eb8 .LASF1074
C:\Users\CYMR90~1\AppData\Local\Temp\ccX1amHi.s:26952  .debug_str:00000000000174dd .LASF1075
C:\Users\CYMR90~1\AppData\Local\Temp\ccX1amHi.s:21773  .debug_str:0000000000002745 .LASF1076
C:\Users\CYMR90~1\AppData\Local\Temp\ccX1amHi.s:31800  .debug_str:000000000002a8c6 .LASF1077
C:\Users\CYMR90~1\AppData\Local\Temp\ccX1amHi.s:22729  .debug_str:000000000000649f .LASF1078
C:\Users\CYMR90~1\AppData\Local\Temp\ccX1amHi.s:29290  .debug_str:0000000000020a15 .LASF1079
C:\Users\CYMR90~1\AppData\Local\Temp\ccX1amHi.s:29384  .debug_str:0000000000020fdb .LASF1080
C:\Users\CYMR90~1\AppData\Local\Temp\ccX1amHi.s:28156  .debug_str:000000000001c29e .LASF1081
C:\Users\CYMR90~1\AppData\Local\Temp\ccX1amHi.s:30974  .debug_str:00000000000274a6 .LASF1082
C:\Users\CYMR90~1\AppData\Local\Temp\ccX1amHi.s:26427  .debug_str:000000000001521b .LASF1083
C:\Users\CYMR90~1\AppData\Local\Temp\ccX1amHi.s:29508  .debug_str:00000000000217a7 .LASF1084
C:\Users\CYMR90~1\AppData\Local\Temp\ccX1amHi.s:22423  .debug_str:0000000000005206 .LASF1085
C:\Users\CYMR90~1\AppData\Local\Temp\ccX1amHi.s:21545  .debug_str:00000000000019ed .LASF1086
C:\Users\CYMR90~1\AppData\Local\Temp\ccX1amHi.s:24677  .debug_str:000000000000e295 .LASF1087
C:\Users\CYMR90~1\AppData\Local\Temp\ccX1amHi.s:30692  .debug_str:000000000002629a .LASF1088
C:\Users\CYMR90~1\AppData\Local\Temp\ccX1amHi.s:29800  .debug_str:00000000000228da .LASF1089
C:\Users\CYMR90~1\AppData\Local\Temp\ccX1amHi.s:21393  .debug_str:0000000000001047 .LASF1090
C:\Users\CYMR90~1\AppData\Local\Temp\ccX1amHi.s:32328  .debug_str:000000000002cb41 .LASF1091
C:\Users\CYMR90~1\AppData\Local\Temp\ccX1amHi.s:31080  .debug_str:0000000000027b30 .LASF1092
C:\Users\CYMR90~1\AppData\Local\Temp\ccX1amHi.s:25021  .debug_str:000000000000f774 .LASF1093
C:\Users\CYMR90~1\AppData\Local\Temp\ccX1amHi.s:30736  .debug_str:000000000002650e .LASF1094
C:\Users\CYMR90~1\AppData\Local\Temp\ccX1amHi.s:26503  .debug_str:000000000001563c .LASF1095
C:\Users\CYMR90~1\AppData\Local\Temp\ccX1amHi.s:27964  .debug_str:000000000001b6b1 .LASF1096
C:\Users\CYMR90~1\AppData\Local\Temp\ccX1amHi.s:28498  .debug_str:000000000001d966 .LASF1097
C:\Users\CYMR90~1\AppData\Local\Temp\ccX1amHi.s:22717  .debug_str:00000000000063fa .LASF1098
C:\Users\CYMR90~1\AppData\Local\Temp\ccX1amHi.s:25877  .debug_str:0000000000012eed .LASF1099
C:\Users\CYMR90~1\AppData\Local\Temp\ccX1amHi.s:25189  .debug_str:000000000001029a .LASF1100
C:\Users\CYMR90~1\AppData\Local\Temp\ccX1amHi.s:30080  .debug_str:000000000002397f .LASF1101
C:\Users\CYMR90~1\AppData\Local\Temp\ccX1amHi.s:24361  .debug_str:000000000000ceb9 .LASF1102
C:\Users\CYMR90~1\AppData\Local\Temp\ccX1amHi.s:29746  .debug_str:00000000000225ab .LASF1103
C:\Users\CYMR90~1\AppData\Local\Temp\ccX1amHi.s:31312  .debug_str:0000000000028b89 .LASF1104
C:\Users\CYMR90~1\AppData\Local\Temp\ccX1amHi.s:29182  .debug_str:0000000000020344 .LASF1105
C:\Users\CYMR90~1\AppData\Local\Temp\ccX1amHi.s:26055  .debug_str:0000000000013a99 .LASF1106
C:\Users\CYMR90~1\AppData\Local\Temp\ccX1amHi.s:30002  .debug_str:000000000002347c .LASF1107
C:\Users\CYMR90~1\AppData\Local\Temp\ccX1amHi.s:27878  .debug_str:000000000001b132 .LASF1108
C:\Users\CYMR90~1\AppData\Local\Temp\ccX1amHi.s:22733  .debug_str:00000000000064db .LASF1109
C:\Users\CYMR90~1\AppData\Local\Temp\ccX1amHi.s:23711  .debug_str:000000000000a447 .LASF1110
C:\Users\CYMR90~1\AppData\Local\Temp\ccX1amHi.s:21609  .debug_str:0000000000001db3 .LASF1111
C:\Users\CYMR90~1\AppData\Local\Temp\ccX1amHi.s:22819  .debug_str:0000000000006a42 .LASF1112
C:\Users\CYMR90~1\AppData\Local\Temp\ccX1amHi.s:23939  .debug_str:000000000000b2f5 .LASF1113
C:\Users\CYMR90~1\AppData\Local\Temp\ccX1amHi.s:22467  .debug_str:00000000000054b3 .LASF1114
C:\Users\CYMR90~1\AppData\Local\Temp\ccX1amHi.s:23497  .debug_str:00000000000096ed .LASF1115
C:\Users\CYMR90~1\AppData\Local\Temp\ccX1amHi.s:31160  .debug_str:00000000000280b3 .LASF1116
C:\Users\CYMR90~1\AppData\Local\Temp\ccX1amHi.s:31666  .debug_str:000000000002a08a .LASF1117
C:\Users\CYMR90~1\AppData\Local\Temp\ccX1amHi.s:22633  .debug_str:0000000000005eb0 .LASF1118
C:\Users\CYMR90~1\AppData\Local\Temp\ccX1amHi.s:27114  .debug_str:0000000000017ecb .LASF1119
C:\Users\CYMR90~1\AppData\Local\Temp\ccX1amHi.s:23185  .debug_str:000000000000837e .LASF1120
C:\Users\CYMR90~1\AppData\Local\Temp\ccX1amHi.s:23399  .debug_str:00000000000090c6 .LASF1121
C:\Users\CYMR90~1\AppData\Local\Temp\ccX1amHi.s:25995  .debug_str:00000000000136e5 .LASF1122
C:\Users\CYMR90~1\AppData\Local\Temp\ccX1amHi.s:25639  .debug_str:0000000000011f45 .LASF1123
C:\Users\CYMR90~1\AppData\Local\Temp\ccX1amHi.s:24653  .debug_str:000000000000e12e .LASF1124
C:\Users\CYMR90~1\AppData\Local\Temp\ccX1amHi.s:26431  .debug_str:0000000000015244 .LASF1125
C:\Users\CYMR90~1\AppData\Local\Temp\ccX1amHi.s:26523  .debug_str:0000000000015775 .LASF1126
C:\Users\CYMR90~1\AppData\Local\Temp\ccX1amHi.s:29892  .debug_str:0000000000022e85 .LASF1127
C:\Users\CYMR90~1\AppData\Local\Temp\ccX1amHi.s:30972  .debug_str:0000000000027491 .LASF1128
C:\Users\CYMR90~1\AppData\Local\Temp\ccX1amHi.s:22513  .debug_str:0000000000005780 .LASF1129
C:\Users\CYMR90~1\AppData\Local\Temp\ccX1amHi.s:26521  .debug_str:0000000000015760 .LASF1130
C:\Users\CYMR90~1\AppData\Local\Temp\ccX1amHi.s:31500  .debug_str:00000000000296ce .LASF1131
C:\Users\CYMR90~1\AppData\Local\Temp\ccX1amHi.s:31898  .debug_str:000000000002ae9a .LASF1132
C:\Users\CYMR90~1\AppData\Local\Temp\ccX1amHi.s:27224  .debug_str:0000000000018560 .LASF1133
C:\Users\CYMR90~1\AppData\Local\Temp\ccX1amHi.s:30050  .debug_str:0000000000023778 .LASF1134
C:\Users\CYMR90~1\AppData\Local\Temp\ccX1amHi.s:23071  .debug_str:0000000000007b0d .LASF1135
C:\Users\CYMR90~1\AppData\Local\Temp\ccX1amHi.s:22295  .debug_str:0000000000004a0a .LASF1136
C:\Users\CYMR90~1\AppData\Local\Temp\ccX1amHi.s:22123  .debug_str:0000000000003d8e .LASF1137
C:\Users\CYMR90~1\AppData\Local\Temp\ccX1amHi.s:31512  .debug_str:00000000000297cc .LASF1138
C:\Users\CYMR90~1\AppData\Local\Temp\ccX1amHi.s:28634  .debug_str:000000000001e21d .LASF1139
C:\Users\CYMR90~1\AppData\Local\Temp\ccX1amHi.s:28530  .debug_str:000000000001db61 .LASF1140
C:\Users\CYMR90~1\AppData\Local\Temp\ccX1amHi.s:21205  .debug_str:0000000000000489 .LASF1141
C:\Users\CYMR90~1\AppData\Local\Temp\ccX1amHi.s:25429  .debug_str:000000000001117d .LASF1142
C:\Users\CYMR90~1\AppData\Local\Temp\ccX1amHi.s:24683  .debug_str:000000000000e308 .LASF1143
C:\Users\CYMR90~1\AppData\Local\Temp\ccX1amHi.s:31026  .debug_str:000000000002778d .LASF1144
C:\Users\CYMR90~1\AppData\Local\Temp\ccX1amHi.s:29226  .debug_str:00000000000205ff .LASF1145
C:\Users\CYMR90~1\AppData\Local\Temp\ccX1amHi.s:24203  .debug_str:000000000000c43c .LASF1146
C:\Users\CYMR90~1\AppData\Local\Temp\ccX1amHi.s:32324  .debug_str:000000000002caff .LASF1147
C:\Users\CYMR90~1\AppData\Local\Temp\ccX1amHi.s:26976  .debug_str:000000000001763d .LASF1148
C:\Users\CYMR90~1\AppData\Local\Temp\ccX1amHi.s:27232  .debug_str:00000000000185fb .LASF1149
C:\Users\CYMR90~1\AppData\Local\Temp\ccX1amHi.s:27984  .debug_str:000000000001b7e0 .LASF1150
C:\Users\CYMR90~1\AppData\Local\Temp\ccX1amHi.s:21611  .debug_str:0000000000001dd1 .LASF1151
C:\Users\CYMR90~1\AppData\Local\Temp\ccX1amHi.s:28406  .debug_str:000000000001d39c .LASF1152
C:\Users\CYMR90~1\AppData\Local\Temp\ccX1amHi.s:23523  .debug_str:0000000000009834 .LASF1153
C:\Users\CYMR90~1\AppData\Local\Temp\ccX1amHi.s:29522  .debug_str:0000000000021859 .LASF1154
C:\Users\CYMR90~1\AppData\Local\Temp\ccX1amHi.s:28768  .debug_str:000000000001ea70 .LASF1155
C:\Users\CYMR90~1\AppData\Local\Temp\ccX1amHi.s:26347  .debug_str:0000000000014cab .LASF1156
C:\Users\CYMR90~1\AppData\Local\Temp\ccX1amHi.s:28590  .debug_str:000000000001df4f .LASF1157
C:\Users\CYMR90~1\AppData\Local\Temp\ccX1amHi.s:23959  .debug_str:000000000000b3ef .LASF1158
C:\Users\CYMR90~1\AppData\Local\Temp\ccX1amHi.s:31684  .debug_str:000000000002a1c7 .LASF1159
C:\Users\CYMR90~1\AppData\Local\Temp\ccX1amHi.s:21493  .debug_str:000000000000161c .LASF1160
C:\Users\CYMR90~1\AppData\Local\Temp\ccX1amHi.s:31762  .debug_str:000000000002a682 .LASF1161
C:\Users\CYMR90~1\AppData\Local\Temp\ccX1amHi.s:31448  .debug_str:00000000000293cb .LASF1162
C:\Users\CYMR90~1\AppData\Local\Temp\ccX1amHi.s:28484  .debug_str:000000000001d891 .LASF1163
C:\Users\CYMR90~1\AppData\Local\Temp\ccX1amHi.s:27606  .debug_str:0000000000019e7b .LASF1164
C:\Users\CYMR90~1\AppData\Local\Temp\ccX1amHi.s:24493  .debug_str:000000000000d7d7 .LASF1165
C:\Users\CYMR90~1\AppData\Local\Temp\ccX1amHi.s:29152  .debug_str:000000000002017c .LASF1166
C:\Users\CYMR90~1\AppData\Local\Temp\ccX1amHi.s:25387  .debug_str:0000000000010f3b .LASF1167
C:\Users\CYMR90~1\AppData\Local\Temp\ccX1amHi.s:23521  .debug_str:000000000000982a .LASF1168
C:\Users\CYMR90~1\AppData\Local\Temp\ccX1amHi.s:26465  .debug_str:0000000000015457 .LASF1169
C:\Users\CYMR90~1\AppData\Local\Temp\ccX1amHi.s:27816  .debug_str:000000000001ad2a .LASF1170
C:\Users\CYMR90~1\AppData\Local\Temp\ccX1amHi.s:27522  .debug_str:00000000000198fe .LASF1171
C:\Users\CYMR90~1\AppData\Local\Temp\ccX1amHi.s:31710  .debug_str:000000000002a32f .LASF1172
C:\Users\CYMR90~1\AppData\Local\Temp\ccX1amHi.s:26753  .debug_str:00000000000165e4 .LASF1173
C:\Users\CYMR90~1\AppData\Local\Temp\ccX1amHi.s:21321  .debug_str:0000000000000bef .LASF1174
C:\Users\CYMR90~1\AppData\Local\Temp\ccX1amHi.s:21715  .debug_str:000000000000237a .LASF1175
C:\Users\CYMR90~1\AppData\Local\Temp\ccX1amHi.s:25967  .debug_str:0000000000013533 .LASF1176
C:\Users\CYMR90~1\AppData\Local\Temp\ccX1amHi.s:24307  .debug_str:000000000000cbd1 .LASF1177
C:\Users\CYMR90~1\AppData\Local\Temp\ccX1amHi.s:28540  .debug_str:000000000001dbfa .LASF1178
C:\Users\CYMR90~1\AppData\Local\Temp\ccX1amHi.s:24913  .debug_str:000000000000f102 .LASF1179
C:\Users\CYMR90~1\AppData\Local\Temp\ccX1amHi.s:24481  .debug_str:000000000000d745 .LASF1180
C:\Users\CYMR90~1\AppData\Local\Temp\ccX1amHi.s:30246  .debug_str:000000000002446c .LASF1181
C:\Users\CYMR90~1\AppData\Local\Temp\ccX1amHi.s:31454  .debug_str:0000000000029416 .LASF1182
C:\Users\CYMR90~1\AppData\Local\Temp\ccX1amHi.s:21877  .debug_str:0000000000002db5 .LASF1183
C:\Users\CYMR90~1\AppData\Local\Temp\ccX1amHi.s:28872  .debug_str:000000000001f044 .LASF1184
C:\Users\CYMR90~1\AppData\Local\Temp\ccX1amHi.s:29322  .debug_str:0000000000020bf3 .LASF1185
C:\Users\CYMR90~1\AppData\Local\Temp\ccX1amHi.s:30484  .debug_str:0000000000025464 .LASF1186
C:\Users\CYMR90~1\AppData\Local\Temp\ccX1amHi.s:24411  .debug_str:000000000000d211 .LASF1187
C:\Users\CYMR90~1\AppData\Local\Temp\ccX1amHi.s:22523  .debug_str:0000000000005810 .LASF1188
C:\Users\CYMR90~1\AppData\Local\Temp\ccX1amHi.s:29788  .debug_str:0000000000022826 .LASF1189
C:\Users\CYMR90~1\AppData\Local\Temp\ccX1amHi.s:23075  .debug_str:0000000000007b3e .LASF1190
C:\Users\CYMR90~1\AppData\Local\Temp\ccX1amHi.s:29836  .debug_str:0000000000022ae6 .LASF1191
C:\Users\CYMR90~1\AppData\Local\Temp\ccX1amHi.s:24281  .debug_str:000000000000c96f .LASF1192
C:\Users\CYMR90~1\AppData\Local\Temp\ccX1amHi.s:29510  .debug_str:00000000000217b9 .LASF1193
C:\Users\CYMR90~1\AppData\Local\Temp\ccX1amHi.s:24525  .debug_str:000000000000d99f .LASF1194
C:\Users\CYMR90~1\AppData\Local\Temp\ccX1amHi.s:28086  .debug_str:000000000001bded .LASF1195
C:\Users\CYMR90~1\AppData\Local\Temp\ccX1amHi.s:26107  .debug_str:0000000000013de2 .LASF1196
C:\Users\CYMR90~1\AppData\Local\Temp\ccX1amHi.s:29544  .debug_str:00000000000219d6 .LASF1197
C:\Users\CYMR90~1\AppData\Local\Temp\ccX1amHi.s:31708  .debug_str:000000000002a320 .LASF1198
C:\Users\CYMR90~1\AppData\Local\Temp\ccX1amHi.s:26775  .debug_str:00000000000167b4 .LASF1199
C:\Users\CYMR90~1\AppData\Local\Temp\ccX1amHi.s:31714  .debug_str:000000000002a356 .LASF1200
C:\Users\CYMR90~1\AppData\Local\Temp\ccX1amHi.s:23775  .debug_str:000000000000a80b .LASF1201
C:\Users\CYMR90~1\AppData\Local\Temp\ccX1amHi.s:23433  .debug_str:00000000000092be .LASF1202
C:\Users\CYMR90~1\AppData\Local\Temp\ccX1amHi.s:26964  .debug_str:000000000001759c .LASF1203
C:\Users\CYMR90~1\AppData\Local\Temp\ccX1amHi.s:30810  .debug_str:00000000000269df .LASF1204
C:\Users\CYMR90~1\AppData\Local\Temp\ccX1amHi.s:26019  .debug_str:000000000001388d .LASF1205
C:\Users\CYMR90~1\AppData\Local\Temp\ccX1amHi.s:25085  .debug_str:000000000000fbfe .LASF1206
C:\Users\CYMR90~1\AppData\Local\Temp\ccX1amHi.s:31680  .debug_str:000000000002a195 .LASF1207
C:\Users\CYMR90~1\AppData\Local\Temp\ccX1amHi.s:30334  .debug_str:0000000000024a0f .LASF1208
C:\Users\CYMR90~1\AppData\Local\Temp\ccX1amHi.s:25013  .debug_str:000000000000f717 .LASF1209
C:\Users\CYMR90~1\AppData\Local\Temp\ccX1amHi.s:22417  .debug_str:000000000000519e .LASF1210
C:\Users\CYMR90~1\AppData\Local\Temp\ccX1amHi.s:22515  .debug_str:0000000000005796 .LASF1211
C:\Users\CYMR90~1\AppData\Local\Temp\ccX1amHi.s:23223  .debug_str:0000000000008604 .LASF1212
C:\Users\CYMR90~1\AppData\Local\Temp\ccX1amHi.s:22813  .debug_str:00000000000069c2 .LASF1213
C:\Users\CYMR90~1\AppData\Local\Temp\ccX1amHi.s:21725  .debug_str:0000000000002420 .LASF1214
C:\Users\CYMR90~1\AppData\Local\Temp\ccX1amHi.s:23567  .debug_str:0000000000009b9f .LASF1215
C:\Users\CYMR90~1\AppData\Local\Temp\ccX1amHi.s:21669  .debug_str:00000000000020de .LASF1216
C:\Users\CYMR90~1\AppData\Local\Temp\ccX1amHi.s:29958  .debug_str:000000000002320f .LASF1217
C:\Users\CYMR90~1\AppData\Local\Temp\ccX1amHi.s:29972  .debug_str:00000000000232c3 .LASF1218
C:\Users\CYMR90~1\AppData\Local\Temp\ccX1amHi.s:30390  .debug_str:0000000000024da5 .LASF1219
C:\Users\CYMR90~1\AppData\Local\Temp\ccX1amHi.s:27968  .debug_str:000000000001b6e5 .LASF1220
C:\Users\CYMR90~1\AppData\Local\Temp\ccX1amHi.s:24569  .debug_str:000000000000dc18 .LASF1221
C:\Users\CYMR90~1\AppData\Local\Temp\ccX1amHi.s:26281  .debug_str:00000000000148b1 .LASF1222
C:\Users\CYMR90~1\AppData\Local\Temp\ccX1amHi.s:21897  .debug_str:0000000000002ecd .LASF1223
C:\Users\CYMR90~1\AppData\Local\Temp\ccX1amHi.s:27700  .debug_str:000000000001a5af .LASF1224
C:\Users\CYMR90~1\AppData\Local\Temp\ccX1amHi.s:30990  .debug_str:00000000000275aa .LASF1225
C:\Users\CYMR90~1\AppData\Local\Temp\ccX1amHi.s:24045  .debug_str:000000000000b9cf .LASF1226
C:\Users\CYMR90~1\AppData\Local\Temp\ccX1amHi.s:22957  .debug_str:0000000000007376 .LASF1227
C:\Users\CYMR90~1\AppData\Local\Temp\ccX1amHi.s:21989  .debug_str:00000000000034ec .LASF1228
C:\Users\CYMR90~1\AppData\Local\Temp\ccX1amHi.s:32378  .debug_str:000000000002cecf .LASF1229
C:\Users\CYMR90~1\AppData\Local\Temp\ccX1amHi.s:31430  .debug_str:00000000000292bb .LASF1230
C:\Users\CYMR90~1\AppData\Local\Temp\ccX1amHi.s:30450  .debug_str:0000000000025197 .LASF1231
C:\Users\CYMR90~1\AppData\Local\Temp\ccX1amHi.s:29498  .debug_str:000000000002171f .LASF1232
C:\Users\CYMR90~1\AppData\Local\Temp\ccX1amHi.s:29382  .debug_str:0000000000020fc4 .LASF1233
C:\Users\CYMR90~1\AppData\Local\Temp\ccX1amHi.s:28424  .debug_str:000000000001d494 .LASF1234
C:\Users\CYMR90~1\AppData\Local\Temp\ccX1amHi.s:27480  .debug_str:0000000000019643 .LASF1235
C:\Users\CYMR90~1\AppData\Local\Temp\ccX1amHi.s:25891  .debug_str:0000000000012fec .LASF1236
C:\Users\CYMR90~1\AppData\Local\Temp\ccX1amHi.s:25551  .debug_str:0000000000011996 .LASF1237
C:\Users\CYMR90~1\AppData\Local\Temp\ccX1amHi.s:24595  .debug_str:000000000000dda3 .LASF1238
C:\Users\CYMR90~1\AppData\Local\Temp\ccX1amHi.s:23641  .debug_str:000000000000a000 .LASF1239
C:\Users\CYMR90~1\AppData\Local\Temp\ccX1amHi.s:22629  .debug_str:0000000000005e6f .LASF1240
C:\Users\CYMR90~1\AppData\Local\Temp\ccX1amHi.s:21687  .debug_str:00000000000021ee .LASF1241
C:\Users\CYMR90~1\AppData\Local\Temp\ccX1amHi.s:32092  .debug_str:000000000002bb6e .LASF1242
C:\Users\CYMR90~1\AppData\Local\Temp\ccX1amHi.s:21217  .debug_str:0000000000000523 .LASF1243
C:\Users\CYMR90~1\AppData\Local\Temp\ccX1amHi.s:31576  .debug_str:0000000000029b6c .LASF1244
C:\Users\CYMR90~1\AppData\Local\Temp\ccX1amHi.s:30594  .debug_str:0000000000025c6f .LASF1245
C:\Users\CYMR90~1\AppData\Local\Temp\ccX1amHi.s:29648  .debug_str:000000000002202f .LASF1246
C:\Users\CYMR90~1\AppData\Local\Temp\ccX1amHi.s:28672  .debug_str:000000000001e46d .LASF1247
C:\Users\CYMR90~1\AppData\Local\Temp\ccX1amHi.s:27758  .debug_str:000000000001a997 .LASF1248
C:\Users\CYMR90~1\AppData\Local\Temp\ccX1amHi.s:26819  .debug_str:0000000000016ab7 .LASF1249
C:\Users\CYMR90~1\AppData\Local\Temp\ccX1amHi.s:31510  .debug_str:00000000000297b5 .LASF1250
C:\Users\CYMR90~1\AppData\Local\Temp\ccX1amHi.s:24919  .debug_str:000000000000f147 .LASF1251
C:\Users\CYMR90~1\AppData\Local\Temp\ccX1amHi.s:27078  .debug_str:0000000000017cca .LASF1252
C:\Users\CYMR90~1\AppData\Local\Temp\ccX1amHi.s:24421  .debug_str:000000000000d2c5 .LASF1253
C:\Users\CYMR90~1\AppData\Local\Temp\ccX1amHi.s:23445  .debug_str:0000000000009377 .LASF1254
C:\Users\CYMR90~1\AppData\Local\Temp\ccX1amHi.s:21457  .debug_str:000000000000140c .LASF1255
C:\Users\CYMR90~1\AppData\Local\Temp\ccX1amHi.s:24339  .debug_str:000000000000cd9c .LASF1256
C:\Users\CYMR90~1\AppData\Local\Temp\ccX1amHi.s:22581  .debug_str:0000000000005bb9 .LASF1257
C:\Users\CYMR90~1\AppData\Local\Temp\ccX1amHi.s:27348  .debug_str:0000000000018dc3 .LASF1258
C:\Users\CYMR90~1\AppData\Local\Temp\ccX1amHi.s:27350  .debug_str:0000000000018dd6 .LASF1259
C:\Users\CYMR90~1\AppData\Local\Temp\ccX1amHi.s:29840  .debug_str:0000000000022b16 .LASF1260
C:\Users\CYMR90~1\AppData\Local\Temp\ccX1amHi.s:27962  .debug_str:000000000001b69e .LASF1261
C:\Users\CYMR90~1\AppData\Local\Temp\ccX1amHi.s:25357  .debug_str:0000000000010dd3 .LASF1262
C:\Users\CYMR90~1\AppData\Local\Temp\ccX1amHi.s:22471  .debug_str:00000000000054f6 .LASF1263
C:\Users\CYMR90~1\AppData\Local\Temp\ccX1amHi.s:24657  .debug_str:000000000000e160 .LASF1264
C:\Users\CYMR90~1\AppData\Local\Temp\ccX1amHi.s:26843  .debug_str:0000000000016cc4 .LASF1265
C:\Users\CYMR90~1\AppData\Local\Temp\ccX1amHi.s:24709  .debug_str:000000000000e483 .LASF1266
C:\Users\CYMR90~1\AppData\Local\Temp\ccX1amHi.s:29868  .debug_str:0000000000022d42 .LASF1267
C:\Users\CYMR90~1\AppData\Local\Temp\ccX1amHi.s:30044  .debug_str:000000000002372e .LASF1268
C:\Users\CYMR90~1\AppData\Local\Temp\ccX1amHi.s:25493  .debug_str:0000000000011518 .LASF1269
C:\Users\CYMR90~1\AppData\Local\Temp\ccX1amHi.s:32150  .debug_str:000000000002bf18 .LASF1270
C:\Users\CYMR90~1\AppData\Local\Temp\ccX1amHi.s:27080  .debug_str:0000000000017ce1 .LASF1271
C:\Users\CYMR90~1\AppData\Local\Temp\ccX1amHi.s:31536  .debug_str:0000000000029913 .LASF1272
C:\Users\CYMR90~1\AppData\Local\Temp\ccX1amHi.s:23203  .debug_str:00000000000084ef .LASF1273
C:\Users\CYMR90~1\AppData\Local\Temp\ccX1amHi.s:21277  .debug_str:00000000000008d4 .LASF1274
C:\Users\CYMR90~1\AppData\Local\Temp\ccX1amHi.s:27358  .debug_str:0000000000018e3b .LASF1275
C:\Users\CYMR90~1\AppData\Local\Temp\ccX1amHi.s:21383  .debug_str:0000000000000fc3 .LASF1276
C:\Users\CYMR90~1\AppData\Local\Temp\ccX1amHi.s:23663  .debug_str:000000000000a165 .LASF1277
C:\Users\CYMR90~1\AppData\Local\Temp\ccX1amHi.s:22651  .debug_str:0000000000005fd0 .LASF1278
C:\Users\CYMR90~1\AppData\Local\Temp\ccX1amHi.s:21713  .debug_str:0000000000002368 .LASF1279
C:\Users\CYMR90~1\AppData\Local\Temp\ccX1amHi.s:32112  .debug_str:000000000002bc9b .LASF1280
C:\Users\CYMR90~1\AppData\Local\Temp\ccX1amHi.s:22535  .debug_str:00000000000058db .LASF1281
C:\Users\CYMR90~1\AppData\Local\Temp\ccX1amHi.s:21601  .debug_str:0000000000001d2f .LASF1282
C:\Users\CYMR90~1\AppData\Local\Temp\ccX1amHi.s:28716  .debug_str:000000000001e724 .LASF1283
C:\Users\CYMR90~1\AppData\Local\Temp\ccX1amHi.s:31022  .debug_str:0000000000027754 .LASF1284
C:\Users\CYMR90~1\AppData\Local\Temp\ccX1amHi.s:30070  .debug_str:00000000000238f9 .LASF1285
C:\Users\CYMR90~1\AppData\Local\Temp\ccX1amHi.s:29102  .debug_str:000000000001fe68 .LASF1286
C:\Users\CYMR90~1\AppData\Local\Temp\ccX1amHi.s:28150  .debug_str:000000000001c21f .LASF1287
C:\Users\CYMR90~1\AppData\Local\Temp\ccX1amHi.s:27186  .debug_str:0000000000018330 .LASF1288
C:\Users\CYMR90~1\AppData\Local\Temp\ccX1amHi.s:26219  .debug_str:000000000001448f .LASF1289
C:\Users\CYMR90~1\AppData\Local\Temp\ccX1amHi.s:25285  .debug_str:00000000000108eb .LASF1290
C:\Users\CYMR90~1\AppData\Local\Temp\ccX1amHi.s:29600  .debug_str:0000000000021d21 .LASF1291
C:\Users\CYMR90~1\AppData\Local\Temp\ccX1amHi.s:28618  .debug_str:000000000001e12e .LASF1292
C:\Users\CYMR90~1\AppData\Local\Temp\ccX1amHi.s:27698  .debug_str:000000000001a59b .LASF1293
C:\Users\CYMR90~1\AppData\Local\Temp\ccX1amHi.s:26707  .debug_str:0000000000016375 .LASF1294
C:\Users\CYMR90~1\AppData\Local\Temp\ccX1amHi.s:25779  .debug_str:0000000000012887 .LASF1295
C:\Users\CYMR90~1\AppData\Local\Temp\ccX1amHi.s:24815  .debug_str:000000000000eb71 .LASF1296
C:\Users\CYMR90~1\AppData\Local\Temp\ccX1amHi.s:24181  .debug_str:000000000000c2e6 .LASF1297
C:\Users\CYMR90~1\AppData\Local\Temp\ccX1amHi.s:29068  .debug_str:000000000001fc44 .LASF1298
C:\Users\CYMR90~1\AppData\Local\Temp\ccX1amHi.s:28124  .debug_str:000000000001c08b .LASF1299
C:\Users\CYMR90~1\AppData\Local\Temp\ccX1amHi.s:27154  .debug_str:000000000001812c .LASF1300
C:\Users\CYMR90~1\AppData\Local\Temp\ccX1amHi.s:28098  .debug_str:000000000001bec1 .LASF1301
C:\Users\CYMR90~1\AppData\Local\Temp\ccX1amHi.s:29318  .debug_str:0000000000020bd0 .LASF1302
C:\Users\CYMR90~1\AppData\Local\Temp\ccX1amHi.s:26751  .debug_str:00000000000165d1 .LASF1303
C:\Users\CYMR90~1\AppData\Local\Temp\ccX1amHi.s:27616  .debug_str:0000000000019f1f .LASF1304
C:\Users\CYMR90~1\AppData\Local\Temp\ccX1amHi.s:27588  .debug_str:0000000000019d81 .LASF1305
C:\Users\CYMR90~1\AppData\Local\Temp\ccX1amHi.s:23337  .debug_str:0000000000008cdc .LASF1306
C:\Users\CYMR90~1\AppData\Local\Temp\ccX1amHi.s:22325  .debug_str:0000000000004bff .LASF1307
C:\Users\CYMR90~1\AppData\Local\Temp\ccX1amHi.s:21395  .debug_str:0000000000001059 .LASF1308
C:\Users\CYMR90~1\AppData\Local\Temp\ccX1amHi.s:31778  .debug_str:000000000002a77b .LASF1309
C:\Users\CYMR90~1\AppData\Local\Temp\ccX1amHi.s:30806  .debug_str:00000000000269a4 .LASF1310
C:\Users\CYMR90~1\AppData\Local\Temp\ccX1amHi.s:29844  .debug_str:0000000000022b42 .LASF1311
C:\Users\CYMR90~1\AppData\Local\Temp\ccX1amHi.s:23287  .debug_str:00000000000089d7 .LASF1312
C:\Users\CYMR90~1\AppData\Local\Temp\ccX1amHi.s:24671  .debug_str:000000000000e240 .LASF1313
C:\Users\CYMR90~1\AppData\Local\Temp\ccX1amHi.s:25937  .debug_str:00000000000132e4 .LASF1314
C:\Users\CYMR90~1\AppData\Local\Temp\ccX1amHi.s:31994  .debug_str:000000000002b4cb .LASF1315
C:\Users\CYMR90~1\AppData\Local\Temp\ccX1amHi.s:30524  .debug_str:000000000002576e .LASF1316
C:\Users\CYMR90~1\AppData\Local\Temp\ccX1amHi.s:30062  .debug_str:000000000002385d .LASF1317
C:\Users\CYMR90~1\AppData\Local\Temp\ccX1amHi.s:29094  .debug_str:000000000001fdfb .LASF1318
C:\Users\CYMR90~1\AppData\Local\Temp\ccX1amHi.s:28160  .debug_str:000000000001c2c9 .LASF1319
C:\Users\CYMR90~1\AppData\Local\Temp\ccX1amHi.s:27196  .debug_str:00000000000183de .LASF1320
C:\Users\CYMR90~1\AppData\Local\Temp\ccX1amHi.s:26229  .debug_str:0000000000014505 .LASF1321
C:\Users\CYMR90~1\AppData\Local\Temp\ccX1amHi.s:25291  .debug_str:000000000001094a .LASF1322
C:\Users\CYMR90~1\AppData\Local\Temp\ccX1amHi.s:25757  .debug_str:0000000000012717 .LASF1323
C:\Users\CYMR90~1\AppData\Local\Temp\ccX1amHi.s:24185  .debug_str:000000000000c30b .LASF1324
C:\Users\CYMR90~1\AppData\Local\Temp\ccX1amHi.s:23829  .debug_str:000000000000ab83 .LASF1325
C:\Users\CYMR90~1\AppData\Local\Temp\ccX1amHi.s:22821  .debug_str:0000000000006a5e .LASF1326
C:\Users\CYMR90~1\AppData\Local\Temp\ccX1amHi.s:21855  .debug_str:0000000000002c65 .LASF1327
C:\Users\CYMR90~1\AppData\Local\Temp\ccX1amHi.s:32266  .debug_str:000000000002c724 .LASF1328
C:\Users\CYMR90~1\AppData\Local\Temp\ccX1amHi.s:31344  .debug_str:0000000000028d40 .LASF1329
C:\Users\CYMR90~1\AppData\Local\Temp\ccX1amHi.s:30370  .debug_str:0000000000024c51 .LASF1330
C:\Users\CYMR90~1\AppData\Local\Temp\ccX1amHi.s:29424  .debug_str:0000000000021227 .LASF1331
C:\Users\CYMR90~1\AppData\Local\Temp\ccX1amHi.s:28456  .debug_str:000000000001d69e .LASF1332
C:\Users\CYMR90~1\AppData\Local\Temp\ccX1amHi.s:28894  .debug_str:000000000001f1c8 .LASF1333
C:\Users\CYMR90~1\AppData\Local\Temp\ccX1amHi.s:27978  .debug_str:000000000001b784 .LASF1334
C:\Users\CYMR90~1\AppData\Local\Temp\ccX1amHi.s:26667  .debug_str:00000000000160f3 .LASF1335
C:\Users\CYMR90~1\AppData\Local\Temp\ccX1amHi.s:24335  .debug_str:000000000000cd71 .LASF1336
C:\Users\CYMR90~1\AppData\Local\Temp\ccX1amHi.s:29110  .debug_str:000000000001fec7 .LASF1337
C:\Users\CYMR90~1\AppData\Local\Temp\ccX1amHi.s:25637  .debug_str:0000000000011f30 .LASF1338
C:\Users\CYMR90~1\AppData\Local\Temp\ccX1amHi.s:21497  .debug_str:0000000000001654 .LASF1339
C:\Users\CYMR90~1\AppData\Local\Temp\ccX1amHi.s:23613  .debug_str:0000000000009e69 .LASF1340
C:\Users\CYMR90~1\AppData\Local\Temp\ccX1amHi.s:22597  .debug_str:0000000000005cb0 .LASF1341
C:\Users\CYMR90~1\AppData\Local\Temp\ccX1amHi.s:21657  .debug_str:0000000000002040 .LASF1342
C:\Users\CYMR90~1\AppData\Local\Temp\ccX1amHi.s:32072  .debug_str:000000000002b9fb .LASF1343
C:\Users\CYMR90~1\AppData\Local\Temp\ccX1amHi.s:31864  .debug_str:000000000002ac62 .LASF1344
C:\Users\CYMR90~1\AppData\Local\Temp\ccX1amHi.s:30886  .debug_str:0000000000026e95 .LASF1345
C:\Users\CYMR90~1\AppData\Local\Temp\ccX1amHi.s:29936  .debug_str:00000000000230fd .LASF1346
C:\Users\CYMR90~1\AppData\Local\Temp\ccX1amHi.s:31294  .debug_str:0000000000028a63 .LASF1347
C:\Users\CYMR90~1\AppData\Local\Temp\ccX1amHi.s:28026  .debug_str:000000000001ba80 .LASF1348
C:\Users\CYMR90~1\AppData\Local\Temp\ccX1amHi.s:28532  .debug_str:000000000001db79 .LASF1349
C:\Users\CYMR90~1\AppData\Local\Temp\ccX1amHi.s:26097  .debug_str:0000000000013d5a .LASF1350
C:\Users\CYMR90~1\AppData\Local\Temp\ccX1amHi.s:29252  .debug_str:00000000000207d5 .LASF1351
C:\Users\CYMR90~1\AppData\Local\Temp\ccX1amHi.s:24199  .debug_str:000000000000c411 .LASF1352
C:\Users\CYMR90~1\AppData\Local\Temp\ccX1amHi.s:23119  .debug_str:0000000000007e84 .LASF1353
C:\Users\CYMR90~1\AppData\Local\Temp\ccX1amHi.s:23695  .debug_str:000000000000a353 .LASF1354
C:\Users\CYMR90~1\AppData\Local\Temp\ccX1amHi.s:22683  .debug_str:00000000000061ee .LASF1355
C:\Users\CYMR90~1\AppData\Local\Temp\ccX1amHi.s:21737  .debug_str:00000000000024c0 .LASF1356
C:\Users\CYMR90~1\AppData\Local\Temp\ccX1amHi.s:32140  .debug_str:000000000002be9d .LASF1357
C:\Users\CYMR90~1\AppData\Local\Temp\ccX1amHi.s:26187  .debug_str:00000000000142ce .LASF1358
C:\Users\CYMR90~1\AppData\Local\Temp\ccX1amHi.s:22815  .debug_str:0000000000006a06 .LASF1359
C:\Users\CYMR90~1\AppData\Local\Temp\ccX1amHi.s:29298  .debug_str:0000000000020a7e .LASF1360
C:\Users\CYMR90~1\AppData\Local\Temp\ccX1amHi.s:28252  .debug_str:000000000001c82b .LASF1361
C:\Users\CYMR90~1\AppData\Local\Temp\ccX1amHi.s:27290  .debug_str:000000000001896f .LASF1362
C:\Users\CYMR90~1\AppData\Local\Temp\ccX1amHi.s:31306  .debug_str:0000000000028b25 .LASF1363
C:\Users\CYMR90~1\AppData\Local\Temp\ccX1amHi.s:26593  .debug_str:0000000000015b95 .LASF1364
C:\Users\CYMR90~1\AppData\Local\Temp\ccX1amHi.s:23241  .debug_str:000000000000871d .LASF1365
C:\Users\CYMR90~1\AppData\Local\Temp\ccX1amHi.s:30914  .debug_str:0000000000027052 .LASF1366
C:\Users\CYMR90~1\AppData\Local\Temp\ccX1amHi.s:30168  .debug_str:0000000000023e75 .LASF1367
C:\Users\CYMR90~1\AppData\Local\Temp\ccX1amHi.s:29194  .debug_str:00000000000203fc .LASF1368
C:\Users\CYMR90~1\AppData\Local\Temp\ccX1amHi.s:27456  .debug_str:000000000001949e .LASF1369
C:\Users\CYMR90~1\AppData\Local\Temp\ccX1amHi.s:25337  .debug_str:0000000000010be1 .LASF1370
C:\Users\CYMR90~1\AppData\Local\Temp\ccX1amHi.s:28466  .debug_str:000000000001d729 .LASF1371
C:\Users\CYMR90~1\AppData\Local\Temp\ccX1amHi.s:21777  .debug_str:0000000000002782 .LASF1372
C:\Users\CYMR90~1\AppData\Local\Temp\ccX1amHi.s:24379  .debug_str:000000000000d000 .LASF1373
C:\Users\CYMR90~1\AppData\Local\Temp\ccX1amHi.s:27500  .debug_str:0000000000019758 .LASF1374
C:\Users\CYMR90~1\AppData\Local\Temp\ccX1amHi.s:30586  .debug_str:0000000000025c01 .LASF1375
C:\Users\CYMR90~1\AppData\Local\Temp\ccX1amHi.s:22353  .debug_str:0000000000004dc7 .LASF1376
C:\Users\CYMR90~1\AppData\Local\Temp\ccX1amHi.s:25535  .debug_str:00000000000117e4 .LASF1377
C:\Users\CYMR90~1\AppData\Local\Temp\ccX1amHi.s:28628  .debug_str:000000000001e1cd .LASF1378
C:\Users\CYMR90~1\AppData\Local\Temp\ccX1amHi.s:31774  .debug_str:000000000002a73e .LASF1379
C:\Users\CYMR90~1\AppData\Local\Temp\ccX1amHi.s:31742  .debug_str:000000000002a523 .LASF1380
C:\Users\CYMR90~1\AppData\Local\Temp\ccX1amHi.s:23457  .debug_str:0000000000009427 .LASF1381
C:\Users\CYMR90~1\AppData\Local\Temp\ccX1amHi.s:26561  .debug_str:00000000000159bb .LASF1382
C:\Users\CYMR90~1\AppData\Local\Temp\ccX1amHi.s:29692  .debug_str:00000000000222b7 .LASF1383
C:\Users\CYMR90~1\AppData\Local\Temp\ccX1amHi.s:21471  .debug_str:00000000000014bd .LASF1384
C:\Users\CYMR90~1\AppData\Local\Temp\ccX1amHi.s:24641  .debug_str:000000000000e078 .LASF1385
C:\Users\CYMR90~1\AppData\Local\Temp\ccX1amHi.s:27794  .debug_str:000000000001abe3 .LASF1386
C:\Users\CYMR90~1\AppData\Local\Temp\ccX1amHi.s:30876  .debug_str:0000000000026dd4 .LASF1387
C:\Users\CYMR90~1\AppData\Local\Temp\ccX1amHi.s:22635  .debug_str:0000000000005ed2 .LASF1388
C:\Users\CYMR90~1\AppData\Local\Temp\ccX1amHi.s:25741  .debug_str:0000000000012609 .LASF1389
C:\Users\CYMR90~1\AppData\Local\Temp\ccX1amHi.s:25091  .debug_str:000000000000fc44 .LASF1390
C:\Users\CYMR90~1\AppData\Local\Temp\ccX1amHi.s:28108  .debug_str:000000000001bf77 .LASF1391
C:\Users\CYMR90~1\AppData\Local\Temp\ccX1amHi.s:31214  .debug_str:00000000000284c6 .LASF1392
C:\Users\CYMR90~1\AppData\Local\Temp\ccX1amHi.s:22995  .debug_str:00000000000075d7 .LASF1393
C:\Users\CYMR90~1\AppData\Local\Temp\ccX1amHi.s:26125  .debug_str:0000000000013ece .LASF1394
C:\Users\CYMR90~1\AppData\Local\Temp\ccX1amHi.s:29266  .debug_str:0000000000020893 .LASF1395
C:\Users\CYMR90~1\AppData\Local\Temp\ccX1amHi.s:32436  .debug_str:000000000002d238 .LASF1396
C:\Users\CYMR90~1\AppData\Local\Temp\ccX1amHi.s:24255  .debug_str:000000000000c73c .LASF1397
C:\Users\CYMR90~1\AppData\Local\Temp\ccX1amHi.s:28842  .debug_str:000000000001eea1 .LASF1398
C:\Users\CYMR90~1\AppData\Local\Temp\ccX1amHi.s:25447  .debug_str:0000000000011294 .LASF1399
C:\Users\CYMR90~1\AppData\Local\Temp\ccX1amHi.s:26731  .debug_str:00000000000164cb .LASF1400
C:\Users\CYMR90~1\AppData\Local\Temp\ccX1amHi.s:21429  .debug_str:0000000000001258 .LASF1401
C:\Users\CYMR90~1\AppData\Local\Temp\ccX1amHi.s:29174  .debug_str:00000000000202c4 .LASF1402
C:\Users\CYMR90~1\AppData\Local\Temp\ccX1amHi.s:24083  .debug_str:000000000000bc65 .LASF1403
C:\Users\CYMR90~1\AppData\Local\Temp\ccX1amHi.s:28942  .debug_str:000000000001f4c8 .LASF1404
C:\Users\CYMR90~1\AppData\Local\Temp\ccX1amHi.s:32020  .debug_str:000000000002b670 .LASF1405
C:\Users\CYMR90~1\AppData\Local\Temp\ccX1amHi.s:31704  .debug_str:000000000002a2d0 .LASF1406
C:\Users\CYMR90~1\AppData\Local\Temp\ccX1amHi.s:29890  .debug_str:0000000000022e6d .LASF1407
C:\Users\CYMR90~1\AppData\Local\Temp\ccX1amHi.s:30048  .debug_str:0000000000023760 .LASF1408
C:\Users\CYMR90~1\AppData\Local\Temp\ccX1amHi.s:21809  .debug_str:000000000000297d .LASF1409
C:\Users\CYMR90~1\AppData\Local\Temp\ccX1amHi.s:24995  .debug_str:000000000000f603 .LASF1410
C:\Users\CYMR90~1\AppData\Local\Temp\ccX1amHi.s:31446  .debug_str:00000000000293b2 .LASF1411
C:\Users\CYMR90~1\AppData\Local\Temp\ccX1amHi.s:23229  .debug_str:0000000000008659 .LASF1412
C:\Users\CYMR90~1\AppData\Local\Temp\ccX1amHi.s:28818  .debug_str:000000000001ed3c .LASF1413
C:\Users\CYMR90~1\AppData\Local\Temp\ccX1amHi.s:29482  .debug_str:0000000000021612 .LASF1414
C:\Users\CYMR90~1\AppData\Local\Temp\ccX1amHi.s:21279  .debug_str:00000000000008e7 .LASF1415
C:\Users\CYMR90~1\AppData\Local\Temp\ccX1amHi.s:24345  .debug_str:000000000000cdd9 .LASF1416
C:\Users\CYMR90~1\AppData\Local\Temp\ccX1amHi.s:27478  .debug_str:000000000001962a .LASF1417
C:\Users\CYMR90~1\AppData\Local\Temp\ccX1amHi.s:29006  .debug_str:000000000001f88b .LASF1418
C:\Users\CYMR90~1\AppData\Local\Temp\ccX1amHi.s:22333  .debug_str:0000000000004c7b .LASF1419
C:\Users\CYMR90~1\AppData\Local\Temp\ccX1amHi.s:25431  .debug_str:0000000000011193 .LASF1420
C:\Users\CYMR90~1\AppData\Local\Temp\ccX1amHi.s:24773  .debug_str:000000000000e8af .LASF1421
C:\Users\CYMR90~1\AppData\Local\Temp\ccX1amHi.s:27910  .debug_str:000000000001b37d .LASF1422
C:\Users\CYMR90~1\AppData\Local\Temp\ccX1amHi.s:30988  .debug_str:0000000000027591 .LASF1423
C:\Users\CYMR90~1\AppData\Local\Temp\ccX1amHi.s:22767  .debug_str:00000000000066d3 .LASF1424
C:\Users\CYMR90~1\AppData\Local\Temp\ccX1amHi.s:25941  .debug_str:0000000000013312 .LASF1425
C:\Users\CYMR90~1\AppData\Local\Temp\ccX1amHi.s:28934  .debug_str:000000000001f42f .LASF1426
C:\Users\CYMR90~1\AppData\Local\Temp\ccX1amHi.s:32156  .debug_str:000000000002bfeb .LASF1427
C:\Users\CYMR90~1\AppData\Local\Temp\ccX1amHi.s:23957  .debug_str:000000000000b3d6 .LASF1428
C:\Users\CYMR90~1\AppData\Local\Temp\ccX1amHi.s:27056  .debug_str:0000000000017b94 .LASF1429
C:\Users\CYMR90~1\AppData\Local\Temp\ccX1amHi.s:30178  .debug_str:0000000000023f15 .LASF1430
C:\Users\CYMR90~1\AppData\Local\Temp\ccX1amHi.s:28944  .debug_str:000000000001f4e0 .LASF1431
C:\Users\CYMR90~1\AppData\Local\Temp\ccX1amHi.s:21241  .debug_str:00000000000006ab .LASF1432
C:\Users\CYMR90~1\AppData\Local\Temp\ccX1amHi.s:25475  .debug_str:000000000001140e .LASF1433
C:\Users\CYMR90~1\AppData\Local\Temp\ccX1amHi.s:29178  .debug_str:0000000000020317 .LASF1434
C:\Users\CYMR90~1\AppData\Local\Temp\ccX1amHi.s:28218  .debug_str:000000000001c5ff .LASF1435
C:\Users\CYMR90~1\AppData\Local\Temp\ccX1amHi.s:27258  .debug_str:0000000000018742 .LASF1436
C:\Users\CYMR90~1\AppData\Local\Temp\ccX1amHi.s:26689  .debug_str:0000000000016275 .LASF1437
C:\Users\CYMR90~1\AppData\Local\Temp\ccX1amHi.s:31020  .debug_str:0000000000027740 .LASF1438
C:\Users\CYMR90~1\AppData\Local\Temp\ccX1amHi.s:30068  .debug_str:00000000000238e5 .LASF1439
C:\Users\CYMR90~1\AppData\Local\Temp\ccX1amHi.s:29100  .debug_str:000000000001fe54 .LASF1440
C:\Users\CYMR90~1\AppData\Local\Temp\ccX1amHi.s:28148  .debug_str:000000000001c20b .LASF1441
C:\Users\CYMR90~1\AppData\Local\Temp\ccX1amHi.s:27184  .debug_str:000000000001831c .LASF1442
C:\Users\CYMR90~1\AppData\Local\Temp\ccX1amHi.s:26217  .debug_str:000000000001447b .LASF1443
C:\Users\CYMR90~1\AppData\Local\Temp\ccX1amHi.s:25283  .debug_str:00000000000108d7 .LASF1444
C:\Users\CYMR90~1\AppData\Local\Temp\ccX1amHi.s:32108  .debug_str:000000000002bc63 .LASF1445
C:\Users\CYMR90~1\AppData\Local\Temp\ccX1amHi.s:23345  .debug_str:0000000000008d4a .LASF1446
C:\Users\CYMR90~1\AppData\Local\Temp\ccX1amHi.s:24905  .debug_str:000000000000f07f .LASF1447
C:\Users\CYMR90~1\AppData\Local\Temp\ccX1amHi.s:30406  .debug_str:0000000000024e9e .LASF1448
C:\Users\CYMR90~1\AppData\Local\Temp\ccX1amHi.s:29460  .debug_str:000000000002141d .LASF1449
C:\Users\CYMR90~1\AppData\Local\Temp\ccX1amHi.s:28476  .debug_str:000000000001d828 .LASF1450
C:\Users\CYMR90~1\AppData\Local\Temp\ccX1amHi.s:27542  .debug_str:0000000000019ac2 .LASF1451
C:\Users\CYMR90~1\AppData\Local\Temp\ccX1amHi.s:26559  .debug_str:00000000000159a6 .LASF1452
C:\Users\CYMR90~1\AppData\Local\Temp\ccX1amHi.s:23955  .debug_str:000000000000b3c3 .LASF1453
C:\Users\CYMR90~1\AppData\Local\Temp\ccX1amHi.s:22541  .debug_str:0000000000005931 .LASF1454
C:\Users\CYMR90~1\AppData\Local\Temp\ccX1amHi.s:23757  .debug_str:000000000000a70d .LASF1455
C:\Users\CYMR90~1\AppData\Local\Temp\ccX1amHi.s:28848  .debug_str:000000000001eeeb .LASF1456
C:\Users\CYMR90~1\AppData\Local\Temp\ccX1amHi.s:30460  .debug_str:000000000002524a .LASF1457
C:\Users\CYMR90~1\AppData\Local\Temp\ccX1amHi.s:22507  .debug_str:0000000000005742 .LASF1458
C:\Users\CYMR90~1\AppData\Local\Temp\ccX1amHi.s:28928  .debug_str:000000000001f3e1 .LASF1459
C:\Users\CYMR90~1\AppData\Local\Temp\ccX1amHi.s:25761  .debug_str:0000000000012758 .LASF1460
C:\Users\CYMR90~1\AppData\Local\Temp\ccX1amHi.s:23865  .debug_str:000000000000add1 .LASF1461
C:\Users\CYMR90~1\AppData\Local\Temp\ccX1amHi.s:25047  .debug_str:000000000000f9b2 .LASF1462
C:\Users\CYMR90~1\AppData\Local\Temp\ccX1amHi.s:25543  .debug_str:00000000000118d9 .LASF1463
C:\Users\CYMR90~1\AppData\Local\Temp\ccX1amHi.s:26621  .debug_str:0000000000015d81 .LASF1464
C:\Users\CYMR90~1\AppData\Local\Temp\ccX1amHi.s:31888  .debug_str:000000000002ae04 .LASF1465
C:\Users\CYMR90~1\AppData\Local\Temp\ccX1amHi.s:31338  .debug_str:0000000000028cfe .LASF1466
C:\Users\CYMR90~1\AppData\Local\Temp\ccX1amHi.s:26221  .debug_str:00000000000144a2 .LASF1467
C:\Users\CYMR90~1\AppData\Local\Temp\ccX1amHi.s:30906  .debug_str:0000000000026fdb .LASF1468
C:\Users\CYMR90~1\AppData\Local\Temp\ccX1amHi.s:25225  .debug_str:00000000000104ab .LASF1469
C:\Users\CYMR90~1\AppData\Local\Temp\ccX1amHi.s:23299  .debug_str:0000000000008a99 .LASF1470
C:\Users\CYMR90~1\AppData\Local\Temp\ccX1amHi.s:25517  .debug_str:00000000000116bb .LASF1471
C:\Users\CYMR90~1\AppData\Local\Temp\ccX1amHi.s:27082  .debug_str:0000000000017cf4 .LASF1472
C:\Users\CYMR90~1\AppData\Local\Temp\ccX1amHi.s:30358  .debug_str:0000000000024b9a .LASF1473
C:\Users\CYMR90~1\AppData\Local\Temp\ccX1amHi.s:30994  .debug_str:00000000000275e2 .LASF1474
C:\Users\CYMR90~1\AppData\Local\Temp\ccX1amHi.s:21331  .debug_str:0000000000000c68 .LASF1475
C:\Users\CYMR90~1\AppData\Local\Temp\ccX1amHi.s:23231  .debug_str:0000000000008672 .LASF1476
C:\Users\CYMR90~1\AppData\Local\Temp\ccX1amHi.s:21833  .debug_str:0000000000002af8 .LASF1477
C:\Users\CYMR90~1\AppData\Local\Temp\ccX1amHi.s:31180  .debug_str:0000000000028216 .LASF1478
C:\Users\CYMR90~1\AppData\Local\Temp\ccX1amHi.s:30212  .debug_str:00000000000241cb .LASF1479
C:\Users\CYMR90~1\AppData\Local\Temp\ccX1amHi.s:21955  .debug_str:00000000000032aa .LASF1480
C:\Users\CYMR90~1\AppData\Local\Temp\ccX1amHi.s:24207  .debug_str:000000000000c46d .LASF1481
C:\Users\CYMR90~1\AppData\Local\Temp\ccX1amHi.s:30326  .debug_str:00000000000249a6 .LASF1482
C:\Users\CYMR90~1\AppData\Local\Temp\ccX1amHi.s:23543  .debug_str:00000000000099f4 .LASF1483
C:\Users\CYMR90~1\AppData\Local\Temp\ccX1amHi.s:22339  .debug_str:0000000000004cd4 .LASF1484
C:\Users\CYMR90~1\AppData\Local\Temp\ccX1amHi.s:24781  .debug_str:000000000000e938 .LASF1485
C:\Users\CYMR90~1\AppData\Local\Temp\ccX1amHi.s:26185  .debug_str:00000000000142bb .LASF1486
C:\Users\CYMR90~1\AppData\Local\Temp\ccX1amHi.s:27790  .debug_str:000000000001abb4 .LASF1487
C:\Users\CYMR90~1\AppData\Local\Temp\ccX1amHi.s:21171  .debug_str:0000000000000273 .LASF1488
C:\Users\CYMR90~1\AppData\Local\Temp\ccX1amHi.s:26579  .debug_str:0000000000015ac8 .LASF1489
C:\Users\CYMR90~1\AppData\Local\Temp\ccX1amHi.s:24575  .debug_str:000000000000dc56 .LASF1490
C:\Users\CYMR90~1\AppData\Local\Temp\ccX1amHi.s:31408  .debug_str:0000000000029160 .LASF1491
C:\Users\CYMR90~1\AppData\Local\Temp\ccX1amHi.s:21803  .debug_str:0000000000002916 .LASF1492
C:\Users\CYMR90~1\AppData\Local\Temp\ccX1amHi.s:29412  .debug_str:0000000000021161 .LASF1493
C:\Users\CYMR90~1\AppData\Local\Temp\ccX1amHi.s:31632  .debug_str:0000000000029eb8 .LASF1494
C:\Users\CYMR90~1\AppData\Local\Temp\ccX1amHi.s:22983  .debug_str:0000000000007533 .LASF1495
C:\Users\CYMR90~1\AppData\Local\Temp\ccX1amHi.s:30680  .debug_str:00000000000261ce .LASF1496
C:\Users\CYMR90~1\AppData\Local\Temp\ccX1amHi.s:31380  .debug_str:0000000000028f93 .LASF1497
C:\Users\CYMR90~1\AppData\Local\Temp\ccX1amHi.s:22773  .debug_str:000000000000672b .LASF1498
C:\Users\CYMR90~1\AppData\Local\Temp\ccX1amHi.s:23637  .debug_str:0000000000009fc7 .LASF1499
C:\Users\CYMR90~1\AppData\Local\Temp\ccX1amHi.s:32314  .debug_str:000000000002ca51 .LASF1500
C:\Users\CYMR90~1\AppData\Local\Temp\ccX1amHi.s:31546  .debug_str:00000000000299a0 .LASF1501
C:\Users\CYMR90~1\AppData\Local\Temp\ccX1amHi.s:29310  .debug_str:0000000000020b60 .LASF1502
C:\Users\CYMR90~1\AppData\Local\Temp\ccX1amHi.s:22753  .debug_str:00000000000065ef .LASF1503
C:\Users\CYMR90~1\AppData\Local\Temp\ccX1amHi.s:24317  .debug_str:000000000000cc48 .LASF1504
C:\Users\CYMR90~1\AppData\Local\Temp\ccX1amHi.s:28684  .debug_str:000000000001e51b .LASF1505
C:\Users\CYMR90~1\AppData\Local\Temp\ccX1amHi.s:28002  .debug_str:000000000001b90d .LASF1506
C:\Users\CYMR90~1\AppData\Local\Temp\ccX1amHi.s:24899  .debug_str:000000000000f030 .LASF1507
C:\Users\CYMR90~1\AppData\Local\Temp\ccX1amHi.s:29512  .debug_str:00000000000217c4 .LASF1508
C:\Users\CYMR90~1\AppData\Local\Temp\ccX1amHi.s:25705  .debug_str:000000000001234f .LASF1509
C:\Users\CYMR90~1\AppData\Local\Temp\ccX1amHi.s:31280  .debug_str:0000000000028961 .LASF1510
C:\Users\CYMR90~1\AppData\Local\Temp\ccX1amHi.s:30082  .debug_str:000000000002399f .LASF1511
C:\Users\CYMR90~1\AppData\Local\Temp\ccX1amHi.s:22001  .debug_str:00000000000035af .LASF1512
C:\Users\CYMR90~1\AppData\Local\Temp\ccX1amHi.s:26645  .debug_str:0000000000015f64 .LASF1513
C:\Users\CYMR90~1\AppData\Local\Temp\ccX1amHi.s:30486  .debug_str:0000000000025478 .LASF1514
C:\Users\CYMR90~1\AppData\Local\Temp\ccX1amHi.s:28904  .debug_str:000000000001f295 .LASF1515
C:\Users\CYMR90~1\AppData\Local\Temp\ccX1amHi.s:32054  .debug_str:000000000002b8a1 .LASF1516
C:\Users\CYMR90~1\AppData\Local\Temp\ccX1amHi.s:28736  .debug_str:000000000001e828 .LASF1517
C:\Users\CYMR90~1\AppData\Local\Temp\ccX1amHi.s:30716  .debug_str:00000000000263d9 .LASF1518
C:\Users\CYMR90~1\AppData\Local\Temp\ccX1amHi.s:25695  .debug_str:00000000000122de .LASF1519
C:\Users\CYMR90~1\AppData\Local\Temp\ccX1amHi.s:29126  .debug_str:000000000001ffda .LASF1520
C:\Users\CYMR90~1\AppData\Local\Temp\ccX1amHi.s:28178  .debug_str:000000000001c3d8 .LASF1521
C:\Users\CYMR90~1\AppData\Local\Temp\ccX1amHi.s:29452  .debug_str:00000000000213b8 .LASF1522
C:\Users\CYMR90~1\AppData\Local\Temp\ccX1amHi.s:27454  .debug_str:0000000000019482 .LASF1523
C:\Users\CYMR90~1\AppData\Local\Temp\ccX1amHi.s:30084  .debug_str:00000000000239b5 .LASF1524
C:\Users\CYMR90~1\AppData\Local\Temp\ccX1amHi.s:22409  .debug_str:00000000000050f8 .LASF1525
C:\Users\CYMR90~1\AppData\Local\Temp\ccX1amHi.s:28122  .debug_str:000000000001c070 .LASF1526
C:\Users\CYMR90~1\AppData\Local\Temp\ccX1amHi.s:24229  .debug_str:000000000000c5c3 .LASF1527
C:\Users\CYMR90~1\AppData\Local\Temp\ccX1amHi.s:29838  .debug_str:0000000000022afa .LASF1528
C:\Users\CYMR90~1\AppData\Local\Temp\ccX1amHi.s:31076  .debug_str:0000000000027aa0 .LASF1529
C:\Users\CYMR90~1\AppData\Local\Temp\ccX1amHi.s:30318  .debug_str:0000000000024884 .LASF1530
C:\Users\CYMR90~1\AppData\Local\Temp\ccX1amHi.s:30384  .debug_str:0000000000024d19 .LASF1531
C:\Users\CYMR90~1\AppData\Local\Temp\ccX1amHi.s:22159  .debug_str:0000000000004024 .LASF1532
C:\Users\CYMR90~1\AppData\Local\Temp\ccX1amHi.s:27398  .debug_str:0000000000019074 .LASF1533
C:\Users\CYMR90~1\AppData\Local\Temp\ccX1amHi.s:30206  .debug_str:000000000002408b .LASF1534
C:\Users\CYMR90~1\AppData\Local\Temp\ccX1amHi.s:24299  .debug_str:000000000000ca93 .LASF1535
C:\Users\CYMR90~1\AppData\Local\Temp\ccX1amHi.s:30388  .debug_str:0000000000024d99 .LASF1536
C:\Users\CYMR90~1\AppData\Local\Temp\ccX1amHi.s:29744  .debug_str:000000000002259b .LASF1537
C:\Users\CYMR90~1\AppData\Local\Temp\ccX1amHi.s:30950  .debug_str:0000000000027290 .LASF1538
C:\Users\CYMR90~1\AppData\Local\Temp\ccX1amHi.s:30844  .debug_str:0000000000026bca .LASF1539
C:\Users\CYMR90~1\AppData\Local\Temp\ccX1amHi.s:25571  .debug_str:0000000000011b1e .LASF1540
C:\Users\CYMR90~1\AppData\Local\Temp\ccX1amHi.s:31574  .debug_str:0000000000029b4f .LASF1541
C:\Users\CYMR90~1\AppData\Local\Temp\ccX1amHi.s:24553  .debug_str:000000000000db42 .LASF1542
C:\Users\CYMR90~1\AppData\Local\Temp\ccX1amHi.s:21921  .debug_str:0000000000003059 .LASF1543
C:\Users\CYMR90~1\AppData\Local\Temp\ccX1amHi.s:25133  .debug_str:000000000000fef6 .LASF1544
C:\Users\CYMR90~1\AppData\Local\Temp\ccX1amHi.s:23163  .debug_str:00000000000081e8 .LASF1545
C:\Users\CYMR90~1\AppData\Local\Temp\ccX1amHi.s:23645  .debug_str:000000000000a03a .LASF1546
C:\Users\CYMR90~1\AppData\Local\Temp\ccX1amHi.s:24285  .debug_str:000000000000c994 .LASF1547
C:\Users\CYMR90~1\AppData\Local\Temp\ccX1amHi.s:31156  .debug_str:0000000000028035 .LASF1548
C:\Users\CYMR90~1\AppData\Local\Temp\ccX1amHi.s:30650  .debug_str:0000000000025fbb .LASF1549
C:\Users\CYMR90~1\AppData\Local\Temp\ccX1amHi.s:28072  .debug_str:000000000001bcda .LASF1550
C:\Users\CYMR90~1\AppData\Local\Temp\ccX1amHi.s:25443  .debug_str:0000000000011246 .LASF1551
C:\Users\CYMR90~1\AppData\Local\Temp\ccX1amHi.s:28038  .debug_str:000000000001baf5 .LASF1552
C:\Users\CYMR90~1\AppData\Local\Temp\ccX1amHi.s:21397  .debug_str:0000000000001070 .LASF1553
C:\Users\CYMR90~1\AppData\Local\Temp\ccX1amHi.s:21707  .debug_str:00000000000022fd .LASF1554
C:\Users\CYMR90~1\AppData\Local\Temp\ccX1amHi.s:28774  .debug_str:000000000001eaba .LASF1555
C:\Users\CYMR90~1\AppData\Local\Temp\ccX1amHi.s:27352  .debug_str:0000000000018de5 .LASF1556
C:\Users\CYMR90~1\AppData\Local\Temp\ccX1amHi.s:24963  .debug_str:000000000000f42d .LASF1557
C:\Users\CYMR90~1\AppData\Local\Temp\ccX1amHi.s:31660  .debug_str:000000000002a03b .LASF1558
C:\Users\CYMR90~1\AppData\Local\Temp\ccX1amHi.s:25279  .debug_str:00000000000108ab .LASF1559
C:\Users\CYMR90~1\AppData\Local\Temp\ccX1amHi.s:30094  .debug_str:0000000000023a3f .LASF1560
C:\Users\CYMR90~1\AppData\Local\Temp\ccX1amHi.s:30512  .debug_str:0000000000025670 .LASF1561
C:\Users\CYMR90~1\AppData\Local\Temp\ccX1amHi.s:25391  .debug_str:0000000000010f69 .LASF1562
C:\Users\CYMR90~1\AppData\Local\Temp\ccX1amHi.s:25057  .debug_str:000000000000fa2f .LASF1563
C:\Users\CYMR90~1\AppData\Local\Temp\ccX1amHi.s:32154  .debug_str:000000000002bf45 .LASF1564
C:\Users\CYMR90~1\AppData\Local\Temp\ccX1amHi.s:22781  .debug_str:0000000000006794 .LASF1565
C:\Users\CYMR90~1\AppData\Local\Temp\ccX1amHi.s:28474  .debug_str:000000000001d79a .LASF1566
C:\Users\CYMR90~1\AppData\Local\Temp\ccX1amHi.s:27742  .debug_str:000000000001a842 .LASF1567
C:\Users\CYMR90~1\AppData\Local\Temp\ccX1amHi.s:29244  .debug_str:0000000000020700 .LASF1568
C:\Users\CYMR90~1\AppData\Local\Temp\ccX1amHi.s:25569  .debug_str:0000000000011a77 .LASF1569
C:\Users\CYMR90~1\AppData\Local\Temp\ccX1amHi.s:30538  .debug_str:0000000000025846 .LASF1570
C:\Users\CYMR90~1\AppData\Local\Temp\ccX1amHi.s:21233  .debug_str:00000000000005f0 .LASF1571
C:\Users\CYMR90~1\AppData\Local\Temp\ccX1amHi.s:22455  .debug_str:00000000000053ee .LASF1572
C:\Users\CYMR90~1\AppData\Local\Temp\ccX1amHi.s:26379  .debug_str:0000000000014f02 .LASF1573
C:\Users\CYMR90~1\AppData\Local\Temp\ccX1amHi.s:31268  .debug_str:0000000000028897 .LASF1574
C:\Users\CYMR90~1\AppData\Local\Temp\ccX1amHi.s:27390  .debug_str:0000000000019002 .LASF1575
C:\Users\CYMR90~1\AppData\Local\Temp\ccX1amHi.s:24933  .debug_str:000000000000f244 .LASF1576
C:\Users\CYMR90~1\AppData\Local\Temp\ccX1amHi.s:28778  .debug_str:000000000001eafc .LASF1577
C:\Users\CYMR90~1\AppData\Local\Temp\ccX1amHi.s:31766  .debug_str:000000000002a6a8 .LASF1578
C:\Users\CYMR90~1\AppData\Local\Temp\ccX1amHi.s:21717  .debug_str:0000000000002388 .LASF1579
C:\Users\CYMR90~1\AppData\Local\Temp\ccX1amHi.s:28318  .debug_str:000000000001ccde .LASF1580
C:\Users\CYMR90~1\AppData\Local\Temp\ccX1amHi.s:23763  .debug_str:000000000000a760 .LASF1581
C:\Users\CYMR90~1\AppData\Local\Temp\ccX1amHi.s:24469  .debug_str:000000000000d66c .LASF1582
C:\Users\CYMR90~1\AppData\Local\Temp\ccX1amHi.s:23153  .debug_str:00000000000080bc .LASF1583
C:\Users\CYMR90~1\AppData\Local\Temp\ccX1amHi.s:30952  .debug_str:00000000000272ae .LASF1584
C:\Users\CYMR90~1\AppData\Local\Temp\ccX1amHi.s:28572  .debug_str:000000000001ddbc .LASF1585
C:\Users\CYMR90~1\AppData\Local\Temp\ccX1amHi.s:32366  .debug_str:000000000002cd51 .LASF1586
C:\Users\CYMR90~1\AppData\Local\Temp\ccX1amHi.s:24443  .debug_str:000000000000d422 .LASF1587
C:\Users\CYMR90~1\AppData\Local\Temp\ccX1amHi.s:23111  .debug_str:0000000000007d6f .LASF1588
C:\Users\CYMR90~1\AppData\Local\Temp\ccX1amHi.s:26831  .debug_str:0000000000016b72 .LASF1589
C:\Users\CYMR90~1\AppData\Local\Temp\ccX1amHi.s:23985  .debug_str:000000000000b587 .LASF1590
C:\Users\CYMR90~1\AppData\Local\Temp\ccX1amHi.s:26757  .debug_str:0000000000016613 .LASF1591
C:\Users\CYMR90~1\AppData\Local\Temp\ccX1amHi.s:23359  .debug_str:0000000000008e02 .LASF1592
C:\Users\CYMR90~1\AppData\Local\Temp\ccX1amHi.s:25955  .debug_str:0000000000013413 .LASF1593
C:\Users\CYMR90~1\AppData\Local\Temp\ccX1amHi.s:25271  .debug_str:000000000001077c .LASF1594
C:\Users\CYMR90~1\AppData\Local\Temp\ccX1amHi.s:31188  .debug_str:0000000000028294 .LASF1595
C:\Users\CYMR90~1\AppData\Local\Temp\ccX1amHi.s:21365  .debug_str:0000000000000e42 .LASF1596
C:\Users\CYMR90~1\AppData\Local\Temp\ccX1amHi.s:28344  .debug_str:000000000001ceb3 .LASF1597
C:\Users\CYMR90~1\AppData\Local\Temp\ccX1amHi.s:22269  .debug_str:00000000000047e2 .LASF1598
C:\Users\CYMR90~1\AppData\Local\Temp\ccX1amHi.s:30462  .debug_str:0000000000025259 .LASF1599
C:\Users\CYMR90~1\AppData\Local\Temp\ccX1amHi.s:21503  .debug_str:00000000000016ad .LASF1600
C:\Users\CYMR90~1\AppData\Local\Temp\ccX1amHi.s:25023  .debug_str:000000000000f78c .LASF1601
C:\Users\CYMR90~1\AppData\Local\Temp\ccX1amHi.s:29476  .debug_str:0000000000021515 .LASF1602
C:\Users\CYMR90~1\AppData\Local\Temp\ccX1amHi.s:28370  .debug_str:000000000001d0e2 .LASF1603
C:\Users\CYMR90~1\AppData\Local\Temp\ccX1amHi.s:28264  .debug_str:000000000001c8e6 .LASF1604
C:\Users\CYMR90~1\AppData\Local\Temp\ccX1amHi.s:30440  .debug_str:0000000000025074 .LASF1605
C:\Users\CYMR90~1\AppData\Local\Temp\ccX1amHi.s:30360  .debug_str:0000000000024bb0 .LASF1606
C:\Users\CYMR90~1\AppData\Local\Temp\ccX1amHi.s:30312  .debug_str:0000000000024830 .LASF1607
C:\Users\CYMR90~1\AppData\Local\Temp\ccX1amHi.s:27296  .debug_str:00000000000189c1 .LASF1608
C:\Users\CYMR90~1\AppData\Local\Temp\ccX1amHi.s:22247  .debug_str:0000000000004655 .LASF1609
C:\Users\CYMR90~1\AppData\Local\Temp\ccX1amHi.s:29676  .debug_str:00000000000221bc .LASF1610
C:\Users\CYMR90~1\AppData\Local\Temp\ccX1amHi.s:32276  .debug_str:000000000002c787 .LASF1611
C:\Users\CYMR90~1\AppData\Local\Temp\ccX1amHi.s:28214  .debug_str:000000000001c5c3 .LASF1612
C:\Users\CYMR90~1\AppData\Local\Temp\ccX1amHi.s:26267  .debug_str:00000000000147e1 .LASF1613
C:\Users\CYMR90~1\AppData\Local\Temp\ccX1amHi.s:23631  .debug_str:0000000000009f69 .LASF1614
C:\Users\CYMR90~1\AppData\Local\Temp\ccX1amHi.s:27894  .debug_str:000000000001b237 .LASF1615
C:\Users\CYMR90~1\AppData\Local\Temp\ccX1amHi.s:29568  .debug_str:0000000000021b18 .LASF1616
C:\Users\CYMR90~1\AppData\Local\Temp\ccX1amHi.s:26353  .debug_str:0000000000014d09 .LASF1617
C:\Users\CYMR90~1\AppData\Local\Temp\ccX1amHi.s:28276  .debug_str:000000000001ca4e .LASF1618
C:\Users\CYMR90~1\AppData\Local\Temp\ccX1amHi.s:22293  .debug_str:00000000000049ec .LASF1619
C:\Users\CYMR90~1\AppData\Local\Temp\ccX1amHi.s:24019  .debug_str:000000000000b836 .LASF1620
C:\Users\CYMR90~1\AppData\Local\Temp\ccX1amHi.s:24853  .debug_str:000000000000edb5 .LASF1621
C:\Users\CYMR90~1\AppData\Local\Temp\ccX1amHi.s:21861  .debug_str:0000000000002cc4 .LASF1622
C:\Users\CYMR90~1\AppData\Local\Temp\ccX1amHi.s:29274  .debug_str:00000000000208f0 .LASF1623
C:\Users\CYMR90~1\AppData\Local\Temp\ccX1amHi.s:25959  .debug_str:00000000000134d2 .LASF1624
C:\Users\CYMR90~1\AppData\Local\Temp\ccX1amHi.s:24113  .debug_str:000000000000bea6 .LASF1625
C:\Users\CYMR90~1\AppData\Local\Temp\ccX1amHi.s:29966  .debug_str:000000000002326b .LASF1626
C:\Users\CYMR90~1\AppData\Local\Temp\ccX1amHi.s:22777  .debug_str:0000000000006766 .LASF1627
C:\Users\CYMR90~1\AppData\Local\Temp\ccX1amHi.s:29024  .debug_str:000000000001f992 .LASF1628
C:\Users\CYMR90~1\AppData\Local\Temp\ccX1amHi.s:23877  .debug_str:000000000000ae7a .LASF1629
C:\Users\CYMR90~1\AppData\Local\Temp\ccX1amHi.s:29754  .debug_str:0000000000022607 .LASF1630
C:\Users\CYMR90~1\AppData\Local\Temp\ccX1amHi.s:23339  .debug_str:0000000000008cf3 .LASF1631
C:\Users\CYMR90~1\AppData\Local\Temp\ccX1amHi.s:21463  .debug_str:0000000000001468 .LASF1632
C:\Users\CYMR90~1\AppData\Local\Temp\ccX1amHi.s:28016  .debug_str:000000000001ba10 .LASF1633
C:\Users\CYMR90~1\AppData\Local\Temp\ccX1amHi.s:26992  .debug_str:0000000000017747 .LASF1634
C:\Users\CYMR90~1\AppData\Local\Temp\ccX1amHi.s:24095  .debug_str:000000000000bd4c .LASF1635
C:\Users\CYMR90~1\AppData\Local\Temp\ccX1amHi.s:24201  .debug_str:000000000000c427 .LASF1636
C:\Users\CYMR90~1\AppData\Local\Temp\ccX1amHi.s:27866  .debug_str:000000000001b086 .LASF1637
C:\Users\CYMR90~1\AppData\Local\Temp\ccX1amHi.s:24269  .debug_str:000000000000c881 .LASF1638
C:\Users\CYMR90~1\AppData\Local\Temp\ccX1amHi.s:23995  .debug_str:000000000000b6ac .LASF1639
C:\Users\CYMR90~1\AppData\Local\Temp\ccX1amHi.s:27200  .debug_str:000000000001840f .LASF1640
C:\Users\CYMR90~1\AppData\Local\Temp\ccX1amHi.s:25231  .debug_str:0000000000010507 .LASF1641
C:\Users\CYMR90~1\AppData\Local\Temp\ccX1amHi.s:30302  .debug_str:00000000000247d2 .LASF1642
C:\Users\CYMR90~1\AppData\Local\Temp\ccX1amHi.s:25581  .debug_str:0000000000011be5 .LASF1643
C:\Users\CYMR90~1\AppData\Local\Temp\ccX1amHi.s:29162  .debug_str:0000000000020216 .LASF1644
C:\Users\CYMR90~1\AppData\Local\Temp\ccX1amHi.s:32244  .debug_str:000000000002c5e8 .LASF1645
C:\Users\CYMR90~1\AppData\Local\Temp\ccX1amHi.s:21851  .debug_str:0000000000002c34 .LASF1646
C:\Users\CYMR90~1\AppData\Local\Temp\ccX1amHi.s:26793  .debug_str:00000000000168c8 .LASF1647
C:\Users\CYMR90~1\AppData\Local\Temp\ccX1amHi.s:26898  .debug_str:00000000000171d7 .LASF1648
C:\Users\CYMR90~1\AppData\Local\Temp\ccX1amHi.s:21661  .debug_str:0000000000002074 .LASF1649
C:\Users\CYMR90~1\AppData\Local\Temp\ccX1amHi.s:23179  .debug_str:000000000000831f .LASF1650
C:\Users\CYMR90~1\AppData\Local\Temp\ccX1amHi.s:29982  .debug_str:000000000002336b .LASF1651
C:\Users\CYMR90~1\AppData\Local\Temp\ccX1amHi.s:25737  .debug_str:0000000000012571 .LASF1652
C:\Users\CYMR90~1\AppData\Local\Temp\ccX1amHi.s:23067  .debug_str:0000000000007a7f .LASF1653
C:\Users\CYMR90~1\AppData\Local\Temp\ccX1amHi.s:21403  .debug_str:00000000000010e1 .LASF1654
C:\Users\CYMR90~1\AppData\Local\Temp\ccX1amHi.s:27096  .debug_str:0000000000017db7 .LASF1657
C:\Users\CYMR90~1\AppData\Local\Temp\ccX1amHi.s:31816  .debug_str:000000000002a9b4 .LASF1658
C:\Users\CYMR90~1\AppData\Local\Temp\ccX1amHi.s:25359  .debug_str:0000000000010de1 .LASF1659
C:\Users\CYMR90~1\AppData\Local\Temp\ccX1amHi.s:27424  .debug_str:00000000000192e9 .LASF1660
C:\Users\CYMR90~1\AppData\Local\Temp\ccX1amHi.s:32050  .debug_str:000000000002b862 .LASF1661
C:\Users\CYMR90~1\AppData\Local\Temp\ccX1amHi.s:32080  .debug_str:000000000002ba8f .LASF1662
C:\Users\CYMR90~1\AppData\Local\Temp\ccX1amHi.s:29364  .debug_str:0000000000020ebb .LASF1663
C:\Users\CYMR90~1\AppData\Local\Temp\ccX1amHi.s:26315  .debug_str:0000000000014a93 .LASF1664
C:\Users\CYMR90~1\AppData\Local\Temp\ccX1amHi.s:28520  .debug_str:000000000001daca .LASF1665
C:\Users\CYMR90~1\AppData\Local\Temp\ccX1amHi.s:22375  .debug_str:0000000000004f07 .LASF1666
C:\Users\CYMR90~1\AppData\Local\Temp\ccX1amHi.s:25061  .debug_str:000000000000fa55 .LASF1667
C:\Users\CYMR90~1\AppData\Local\Temp\ccX1amHi.s:24767  .debug_str:000000000000e839 .LASF1668
C:\Users\CYMR90~1\AppData\Local\Temp\ccX1amHi.s:22087  .debug_str:0000000000003b67 .LASF1669
C:\Users\CYMR90~1\AppData\Local\Temp\ccX1amHi.s:23379  .debug_str:0000000000008fa0 .LASF1670
C:\Users\CYMR90~1\AppData\Local\Temp\ccX1amHi.s:22307  .debug_str:0000000000004aca .LASF1671
C:\Users\CYMR90~1\AppData\Local\Temp\ccX1amHi.s:26169  .debug_str:000000000001419c .LASF1672
C:\Users\CYMR90~1\AppData\Local\Temp\ccX1amHi.s:26243  .debug_str:00000000000145f7 .LASF1673
C:\Users\CYMR90~1\AppData\Local\Temp\ccX1amHi.s:25655  .debug_str:0000000000012029 .LASF1674
C:\Users\CYMR90~1\AppData\Local\Temp\ccX1amHi.s:24805  .debug_str:000000000000eaa9 .LASF1675
C:\Users\CYMR90~1\AppData\Local\Temp\ccX1amHi.s:30324  .debug_str:000000000002498c .LASF1676
C:\Users\CYMR90~1\AppData\Local\Temp\ccX1amHi.s:25783  .debug_str:00000000000128b0 .LASF1677
C:\Users\CYMR90~1\AppData\Local\Temp\ccX1amHi.s:32246  .debug_str:000000000002c5fd .LASF1678
C:\Users\CYMR90~1\AppData\Local\Temp\ccX1amHi.s:21763  .debug_str:0000000000002661 .LASF1679
C:\Users\CYMR90~1\AppData\Local\Temp\ccX1amHi.s:25307  .debug_str:0000000000010a4a .LASF1680
C:\Users\CYMR90~1\AppData\Local\Temp\ccX1amHi.s:26487  .debug_str:0000000000015574 .LASF1681
C:\Users\CYMR90~1\AppData\Local\Temp\ccX1amHi.s:25153  .debug_str:000000000001005b .LASF1682
C:\Users\CYMR90~1\AppData\Local\Temp\ccX1amHi.s:27850  .debug_str:000000000001af09 .LASF1683
C:\Users\CYMR90~1\AppData\Local\Temp\ccX1amHi.s:29930  .debug_str:00000000000230b5 .LASF1684
C:\Users\CYMR90~1\AppData\Local\Temp\ccX1amHi.s:30836  .debug_str:0000000000026b6f .LASF1685
C:\Users\CYMR90~1\AppData\Local\Temp\ccX1amHi.s:25305  .debug_str:0000000000010a32 .LASF1686
C:\Users\CYMR90~1\AppData\Local\Temp\ccX1amHi.s:29256  .debug_str:00000000000207fe .LASF1687
C:\Users\CYMR90~1\AppData\Local\Temp\ccX1amHi.s:31564  .debug_str:0000000000029aa4 .LASF1688
C:\Users\CYMR90~1\AppData\Local\Temp\ccX1amHi.s:30108  .debug_str:0000000000023b35 .LASF1689
C:\Users\CYMR90~1\AppData\Local\Temp\ccX1amHi.s:27974  .debug_str:000000000001b736 .LASF1690
C:\Users\CYMR90~1\AppData\Local\Temp\ccX1amHi.s:26043  .debug_str:00000000000139f4 .LASF1691
C:\Users\CYMR90~1\AppData\Local\Temp\ccX1amHi.s:29660  .debug_str:00000000000220e0 .LASF1692
C:\Users\CYMR90~1\AppData\Local\Temp\ccX1amHi.s:27284  .debug_str:0000000000018908 .LASF1693
C:\Users\CYMR90~1\AppData\Local\Temp\ccX1amHi.s:23173  .debug_str:00000000000082ab .LASF1694
C:\Users\CYMR90~1\AppData\Local\Temp\ccX1amHi.s:25227  .debug_str:00000000000104bb .LASF1695
C:\Users\CYMR90~1\AppData\Local\Temp\ccX1amHi.s:27066  .debug_str:0000000000017c04 .LASF1696
C:\Users\CYMR90~1\AppData\Local\Temp\ccX1amHi.s:26361  .debug_str:0000000000014d9c .LASF1697
C:\Users\CYMR90~1\AppData\Local\Temp\ccX1amHi.s:28918  .debug_str:000000000001f34e .LASF1698
C:\Users\CYMR90~1\AppData\Local\Temp\ccX1amHi.s:27464  .debug_str:0000000000019549 .LASF1699
C:\Users\CYMR90~1\AppData\Local\Temp\ccX1amHi.s:29374  .debug_str:0000000000020f56 .LASF1700
C:\Users\CYMR90~1\AppData\Local\Temp\ccX1amHi.s:28914  .debug_str:000000000001f311 .LASF1701
C:\Users\CYMR90~1\AppData\Local\Temp\ccX1amHi.s:30152  .debug_str:0000000000023d92 .LASF1702
C:\Users\CYMR90~1\AppData\Local\Temp\ccX1amHi.s:30114  .debug_str:0000000000023b84 .LASF1703
C:\Users\CYMR90~1\AppData\Local\Temp\ccX1amHi.s:29650  .debug_str:0000000000022046 .LASF1704
C:\Users\CYMR90~1\AppData\Local\Temp\ccX1amHi.s:28104  .debug_str:000000000001bf1c .LASF1705
C:\Users\CYMR90~1\AppData\Local\Temp\ccX1amHi.s:29514  .debug_str:00000000000217d8 .LASF1706
C:\Users\CYMR90~1\AppData\Local\Temp\ccX1amHi.s:26974  .debug_str:0000000000017619 .LASF1707
C:\Users\CYMR90~1\AppData\Local\Temp\ccX1amHi.s:25961  .debug_str:00000000000134e5 .LASF1708
C:\Users\CYMR90~1\AppData\Local\Temp\ccX1amHi.s:28664  .debug_str:000000000001e403 .LASF1709
C:\Users\CYMR90~1\AppData\Local\Temp\ccX1amHi.s:27202  .debug_str:0000000000018424 .LASF1710
C:\Users\CYMR90~1\AppData\Local\Temp\ccX1amHi.s:31028  .debug_str:00000000000277a4 .LASF1711
C:\Users\CYMR90~1\AppData\Local\Temp\ccX1amHi.s:25601  .debug_str:0000000000011cf8 .LASF1712
C:\Users\CYMR90~1\AppData\Local\Temp\ccX1amHi.s:22705  .debug_str:0000000000006318 .LASF1713
C:\Users\CYMR90~1\AppData\Local\Temp\ccX1amHi.s:25071  .debug_str:000000000000faf9 .LASF1714
C:\Users\CYMR90~1\AppData\Local\Temp\ccX1amHi.s:21975  .debug_str:00000000000033fb .LASF1715
C:\Users\CYMR90~1\AppData\Local\Temp\ccX1amHi.s:25303  .debug_str:0000000000010a06 .LASF1716
C:\Users\CYMR90~1\AppData\Local\Temp\ccX1amHi.s:28632  .debug_str:000000000001e1fb .LASF1717
C:\Users\CYMR90~1\AppData\Local\Temp\ccX1amHi.s:27166  .debug_str:00000000000181f1 .LASF1718
C:\Users\CYMR90~1\AppData\Local\Temp\ccX1amHi.s:25541  .debug_str:000000000001182b .LASF1719
C:\Users\CYMR90~1\AppData\Local\Temp\ccX1amHi.s:27524  .debug_str:000000000001990b .LASF1720
C:\Users\CYMR90~1\AppData\Local\Temp\ccX1amHi.s:26035  .debug_str:0000000000013971 .LASF1721
C:\Users\CYMR90~1\AppData\Local\Temp\ccX1amHi.s:21695  .debug_str:0000000000002260 .LASF1722
C:\Users\CYMR90~1\AppData\Local\Temp\ccX1amHi.s:27858  .debug_str:000000000001afa3 .LASF1723
C:\Users\CYMR90~1\AppData\Local\Temp\ccX1amHi.s:21755  .debug_str:00000000000025eb .LASF1724
C:\Users\CYMR90~1\AppData\Local\Temp\ccX1amHi.s:26555  .debug_str:000000000001593c .LASF1725
C:\Users\CYMR90~1\AppData\Local\Temp\ccX1amHi.s:31356  .debug_str:0000000000028de8 .LASF1726
C:\Users\CYMR90~1\AppData\Local\Temp\ccX1amHi.s:22591  .debug_str:0000000000005c37 .LASF1727
C:\Users\CYMR90~1\AppData\Local\Temp\ccX1amHi.s:30996  .debug_str:00000000000275f6 .LASF1728
C:\Users\CYMR90~1\AppData\Local\Temp\ccX1amHi.s:28316  .debug_str:000000000001cca7 .LASF1729
C:\Users\CYMR90~1\AppData\Local\Temp\ccX1amHi.s:32158  .debug_str:000000000002c004 .LASF1730
C:\Users\CYMR90~1\AppData\Local\Temp\ccX1amHi.s:30826  .debug_str:0000000000026ad4 .LASF1731
C:\Users\CYMR90~1\AppData\Local\Temp\ccX1amHi.s:25481  .debug_str:0000000000011450 .LASF1732
C:\Users\CYMR90~1\AppData\Local\Temp\ccX1amHi.s:23487  .debug_str:00000000000095f5 .LASF1733
C:\Users\CYMR90~1\AppData\Local\Temp\ccX1amHi.s:21465  .debug_str:000000000000147b .LASF1734
C:\Users\CYMR90~1\AppData\Local\Temp\ccX1amHi.s:26930  .debug_str:000000000001737d .LASF1735
C:\Users\CYMR90~1\AppData\Local\Temp\ccX1amHi.s:29088  .debug_str:000000000001fd9f .LASF1736
C:\Users\CYMR90~1\AppData\Local\Temp\ccX1amHi.s:23479  .debug_str:000000000000957f .LASF1737
C:\Users\CYMR90~1\AppData\Local\Temp\ccX1amHi.s:23195  .debug_str:0000000000008434 .LASF1738
C:\Users\CYMR90~1\AppData\Local\Temp\ccX1amHi.s:30832  .debug_str:0000000000026b40 .LASF1739
C:\Users\CYMR90~1\AppData\Local\Temp\ccX1amHi.s:24829  .debug_str:000000000000ec37 .LASF1740
C:\Users\CYMR90~1\AppData\Local\Temp\ccX1amHi.s:23831  .debug_str:000000000000ab9b .LASF1741
C:\Users\CYMR90~1\AppData\Local\Temp\ccX1amHi.s:28940  .debug_str:000000000001f495 .LASF1742
C:\Users\CYMR90~1\AppData\Local\Temp\ccX1amHi.s:24319  .debug_str:000000000000cc5f .LASF1743
C:\Users\CYMR90~1\AppData\Local\Temp\ccX1amHi.s:31110  .debug_str:0000000000027d18 .LASF1744
C:\Users\CYMR90~1\AppData\Local\Temp\ccX1amHi.s:23201  .debug_str:00000000000084a6 .LASF1745
C:\Users\CYMR90~1\AppData\Local\Temp\ccX1amHi.s:25125  .debug_str:000000000000fe6d .LASF1746
C:\Users\CYMR90~1\AppData\Local\Temp\ccX1amHi.s:30156  .debug_str:0000000000023dd0 .LASF1747
C:\Users\CYMR90~1\AppData\Local\Temp\ccX1amHi.s:29760  .debug_str:0000000000022657 .LASF1748
C:\Users\CYMR90~1\AppData\Local\Temp\ccX1amHi.s:25301  .debug_str:00000000000109e3 .LASF1749
C:\Users\CYMR90~1\AppData\Local\Temp\ccX1amHi.s:23991  .debug_str:000000000000b663 .LASF1750
C:\Users\CYMR90~1\AppData\Local\Temp\ccX1amHi.s:27100  .debug_str:0000000000017deb .LASF1751
C:\Users\CYMR90~1\AppData\Local\Temp\ccX1amHi.s:22341  .debug_str:0000000000004ce8 .LASF1752
C:\Users\CYMR90~1\AppData\Local\Temp\ccX1amHi.s:27830  .debug_str:000000000001ae00 .LASF1753
C:\Users\CYMR90~1\AppData\Local\Temp\ccX1amHi.s:27724  .debug_str:000000000001a6e2 .LASF1754
C:\Users\CYMR90~1\AppData\Local\Temp\ccX1amHi.s:24259  .debug_str:000000000000c780 .LASF1755
C:\Users\CYMR90~1\AppData\Local\Temp\ccX1amHi.s:25849  .debug_str:0000000000012d2a .LASF1756
C:\Users\CYMR90~1\AppData\Local\Temp\ccX1amHi.s:27926  .debug_str:000000000001b470 .LASF1757
C:\Users\CYMR90~1\AppData\Local\Temp\ccX1amHi.s:24921  .debug_str:000000000000f15e .LASF1758
C:\Users\CYMR90~1\AppData\Local\Temp\ccX1amHi.s:23013  .debug_str:00000000000076fa .LASF1759
C:\Users\CYMR90~1\AppData\Local\Temp\ccX1amHi.s:27666  .debug_str:000000000001a1f7 .LASF1760
C:\Users\CYMR90~1\AppData\Local\Temp\ccX1amHi.s:23301  .debug_str:0000000000008aab .LASF1761
C:\Users\CYMR90~1\AppData\Local\Temp\ccX1amHi.s:21525  .debug_str:00000000000018ca .LASF1762
C:\Users\CYMR90~1\AppData\Local\Temp\ccX1amHi.s:30340  .debug_str:0000000000024a5b .LASF1763
C:\Users\CYMR90~1\AppData\Local\Temp\ccX1amHi.s:23041  .debug_str:00000000000078d5 .LASF1764
C:\Users\CYMR90~1\AppData\Local\Temp\ccX1amHi.s:22719  .debug_str:0000000000006411 .LASF1765
C:\Users\CYMR90~1\AppData\Local\Temp\ccX1amHi.s:21505  .debug_str:0000000000001763 .LASF1766
C:\Users\CYMR90~1\AppData\Local\Temp\ccX1amHi.s:28044  .debug_str:000000000001bb4e .LASF1767
C:\Users\CYMR90~1\AppData\Local\Temp\ccX1amHi.s:24631  .debug_str:000000000000dfce .LASF1768
C:\Users\CYMR90~1\AppData\Local\Temp\ccX1amHi.s:30540  .debug_str:00000000000258d4 .LASF1769
C:\Users\CYMR90~1\AppData\Local\Temp\ccX1amHi.s:32230  .debug_str:000000000002c4f7 .LASF1770
C:\Users\CYMR90~1\AppData\Local\Temp\ccX1amHi.s:24149  .debug_str:000000000000c0e2 .LASF1771
C:\Users\CYMR90~1\AppData\Local\Temp\ccX1amHi.s:23733  .debug_str:000000000000a5a6 .LASF1772
C:\Users\CYMR90~1\AppData\Local\Temp\ccX1amHi.s:21247  .debug_str:00000000000006e9 .LASF1773
C:\Users\CYMR90~1\AppData\Local\Temp\ccX1amHi.s:21295  .debug_str:00000000000009d1 .LASF1774
C:\Users\CYMR90~1\AppData\Local\Temp\ccX1amHi.s:31258  .debug_str:00000000000287d8 .LASF1775
C:\Users\CYMR90~1\AppData\Local\Temp\ccX1amHi.s:26259  .debug_str:000000000001474d .LASF1776
C:\Users\CYMR90~1\AppData\Local\Temp\ccX1amHi.s:25005  .debug_str:000000000000f68a .LASF1777
C:\Users\CYMR90~1\AppData\Local\Temp\ccX1amHi.s:27092  .debug_str:0000000000017d86 .LASF1778
C:\Users\CYMR90~1\AppData\Local\Temp\ccX1amHi.s:22431  .debug_str:000000000000526f .LASF1779
C:\Users\CYMR90~1\AppData\Local\Temp\ccX1amHi.s:30578  .debug_str:0000000000025b77 .LASF1780
C:\Users\CYMR90~1\AppData\Local\Temp\ccX1amHi.s:29794  .debug_str:0000000000022877 .LASF1781
C:\Users\CYMR90~1\AppData\Local\Temp\ccX1amHi.s:28324  .debug_str:000000000001cd49 .LASF1784
C:\Users\CYMR90~1\AppData\Local\Temp\ccX1amHi.s:27474  .debug_str:00000000000195e4 .LASF1785
C:\Users\CYMR90~1\AppData\Local\Temp\ccX1amHi.s:27318  .debug_str:0000000000018b2c .LASF1786
C:\Users\CYMR90~1\AppData\Local\Temp\ccX1amHi.s:26299  .debug_str:00000000000149c7 .LASF1787
C:\Users\CYMR90~1\AppData\Local\Temp\ccX1amHi.s:31696  .debug_str:000000000002a251 .LASF1788
C:\Users\CYMR90~1\AppData\Local\Temp\ccX1amHi.s:27868  .debug_str:000000000001b09b .LASF1789
C:\Users\CYMR90~1\AppData\Local\Temp\ccX1amHi.s:22025  .debug_str:0000000000003795 .LASF1790
C:\Users\CYMR90~1\AppData\Local\Temp\ccX1amHi.s:21167  .debug_str:000000000000023d .LASF1791
C:\Users\CYMR90~1\AppData\Local\Temp\ccX1amHi.s:30916  .debug_str:0000000000027066 .LASF1792
C:\Users\CYMR90~1\AppData\Local\Temp\ccX1amHi.s:30012  .debug_str:0000000000023508 .LASF1793
C:\Users\CYMR90~1\AppData\Local\Temp\ccX1amHi.s:31880  .debug_str:000000000002ad5b .LASF1794
C:\Users\CYMR90~1\AppData\Local\Temp\ccX1amHi.s:31192  .debug_str:0000000000028358 .LASF1795
C:\Users\CYMR90~1\AppData\Local\Temp\ccX1amHi.s:25973  .debug_str:0000000000013588 .LASF1796
C:\Users\CYMR90~1\AppData\Local\Temp\ccX1amHi.s:26247  .debug_str:0000000000014639 .LASF1797
C:\Users\CYMR90~1\AppData\Local\Temp\ccX1amHi.s:25363  .debug_str:0000000000010dfe .LASF1798
C:\Users\CYMR90~1\AppData\Local\Temp\ccX1amHi.s:24175  .debug_str:000000000000c2a2 .LASF1799
C:\Users\CYMR90~1\AppData\Local\Temp\ccX1amHi.s:27008  .debug_str:0000000000017846 .LASF1800
C:\Users\CYMR90~1\AppData\Local\Temp\ccX1amHi.s:27310  .debug_str:0000000000018abb .LASF1801
C:\Users\CYMR90~1\AppData\Local\Temp\ccX1amHi.s:26383  .debug_str:0000000000014f3c .LASF1802
C:\Users\CYMR90~1\AppData\Local\Temp\ccX1amHi.s:25425  .debug_str:0000000000011142 .LASF1803
C:\Users\CYMR90~1\AppData\Local\Temp\ccX1amHi.s:24901  .debug_str:000000000000f047 .LASF1804
C:\Users\CYMR90~1\AppData\Local\Temp\ccX1amHi.s:29598  .debug_str:0000000000021cfa .LASF1805
C:\Users\CYMR90~1\AppData\Local\Temp\ccX1amHi.s:26269  .debug_str:0000000000014805 .LASF1806
C:\Users\CYMR90~1\AppData\Local\Temp\ccX1amHi.s:29202  .debug_str:000000000002044c .LASF1807
C:\Users\CYMR90~1\AppData\Local\Temp\ccX1amHi.s:26409  .debug_str:00000000000150f6 .LASF1808
C:\Users\CYMR90~1\AppData\Local\Temp\ccX1amHi.s:31184  .debug_str:0000000000028253 .LASF1809
C:\Users\CYMR90~1\AppData\Local\Temp\ccX1amHi.s:28420  .debug_str:000000000001d463 .LASF1810
C:\Users\CYMR90~1\AppData\Local\Temp\ccX1amHi.s:27106  .debug_str:0000000000017e60 .LASF1811
C:\Users\CYMR90~1\AppData\Local\Temp\ccX1amHi.s:21485  .debug_str:0000000000001598 .LASF1812
C:\Users\CYMR90~1\AppData\Local\Temp\ccX1amHi.s:25313  .debug_str:0000000000010a90 .LASF1813
C:\Users\CYMR90~1\AppData\Local\Temp\ccX1amHi.s:25585  .debug_str:0000000000011c17 .LASF1814
C:\Users\CYMR90~1\AppData\Local\Temp\ccX1amHi.s:28402  .debug_str:000000000001d36b .LASF1815
C:\Users\CYMR90~1\AppData\Local\Temp\ccX1amHi.s:27072  .debug_str:0000000000017c76 .LASF1816
C:\Users\CYMR90~1\AppData\Local\Temp\ccX1amHi.s:28410  .debug_str:000000000001d3e9 .LASF1817
C:\Users\CYMR90~1\AppData\Local\Temp\ccX1amHi.s:28864  .debug_str:000000000001efd7 .LASF1818
C:\Users\CYMR90~1\AppData\Local\Temp\ccX1amHi.s:25121  .debug_str:000000000000fe35 .LASF1819
C:\Users\CYMR90~1\AppData\Local\Temp\ccX1amHi.s:29344  .debug_str:0000000000020d70 .LASF1820
C:\Users\CYMR90~1\AppData\Local\Temp\ccX1amHi.s:22745  .debug_str:0000000000006583 .LASF1821
C:\Users\CYMR90~1\AppData\Local\Temp\ccX1amHi.s:23133  .debug_str:0000000000007f7a .LASF1822
C:\Users\CYMR90~1\AppData\Local\Temp\ccX1amHi.s:28796  .debug_str:000000000001ec1b .LASF1823
C:\Users\CYMR90~1\AppData\Local\Temp\ccX1amHi.s:31470  .debug_str:00000000000294ff .LASF1824
C:\Users\CYMR90~1\AppData\Local\Temp\ccX1amHi.s:24053  .debug_str:000000000000baaa .LASF1825
C:\Users\CYMR90~1\AppData\Local\Temp\ccX1amHi.s:29442  .debug_str:0000000000021321 .LASF1826
C:\Users\CYMR90~1\AppData\Local\Temp\ccX1amHi.s:31822  .debug_str:000000000002a9ee .LASF1827
C:\Users\CYMR90~1\AppData\Local\Temp\ccX1amHi.s:24871  .debug_str:000000000000eea7 .LASF1828
C:\Users\CYMR90~1\AppData\Local\Temp\ccX1amHi.s:24941  .debug_str:000000000000f2d3 .LASF1829
C:\Users\CYMR90~1\AppData\Local\Temp\ccX1amHi.s:25733  .debug_str:000000000001252e .LASF1830
C:\Users\CYMR90~1\AppData\Local\Temp\ccX1amHi.s:23507  .debug_str:000000000000978c .LASF1831
C:\Users\CYMR90~1\AppData\Local\Temp\ccX1amHi.s:30860  .debug_str:0000000000026cbe .LASF1832
C:\Users\CYMR90~1\AppData\Local\Temp\ccX1amHi.s:24315  .debug_str:000000000000cc2d .LASF1833
C:\Users\CYMR90~1\AppData\Local\Temp\ccX1amHi.s:22953  .debug_str:0000000000007337 .LASF1834
C:\Users\CYMR90~1\AppData\Local\Temp\ccX1amHi.s:26709  .debug_str:0000000000016389 .LASF1835
C:\Users\CYMR90~1\AppData\Local\Temp\ccX1amHi.s:30730  .debug_str:00000000000264a8 .LASF1836
C:\Users\CYMR90~1\AppData\Local\Temp\ccX1amHi.s:26677  .debug_str:00000000000161aa .LASF1837
C:\Users\CYMR90~1\AppData\Local\Temp\ccX1amHi.s:27396  .debug_str:000000000001905c .LASF1838
C:\Users\CYMR90~1\AppData\Local\Temp\ccX1amHi.s:25367  .debug_str:0000000000010e36 .LASF1839
C:\Users\CYMR90~1\AppData\Local\Temp\ccX1amHi.s:28356  .debug_str:000000000001cff8 .LASF1840
C:\Users\CYMR90~1\AppData\Local\Temp\ccX1amHi.s:27628  .debug_str:0000000000019fdb .LASF1841
C:\Users\CYMR90~1\AppData\Local\Temp\ccX1amHi.s:30420  .debug_str:0000000000024f6d .LASF1842
C:\Users\CYMR90~1\AppData\Local\Temp\ccX1amHi.s:30816  .debug_str:0000000000026a33 .LASF1843
C:\Users\CYMR90~1\AppData\Local\Temp\ccX1amHi.s:32016  .debug_str:000000000002b64c .LASF1844
C:\Users\CYMR90~1\AppData\Local\Temp\ccX1amHi.s:31874  .debug_str:000000000002aceb .LASF1845
C:\Users\CYMR90~1\AppData\Local\Temp\ccX1amHi.s:23237  .debug_str:00000000000086ec .LASF1846
C:\Users\CYMR90~1\AppData\Local\Temp\ccX1amHi.s:28556  .debug_str:000000000001dcc2 .LASF1847
C:\Users\CYMR90~1\AppData\Local\Temp\ccX1amHi.s:29702  .debug_str:0000000000022363 .LASF1848
C:\Users\CYMR90~1\AppData\Local\Temp\ccX1amHi.s:29716  .debug_str:0000000000022436 .LASF1849
C:\Users\CYMR90~1\AppData\Local\Temp\ccX1amHi.s:28950  .debug_str:000000000001f533 .LASF1850
C:\Users\CYMR90~1\AppData\Local\Temp\ccX1amHi.s:23293  .debug_str:0000000000008a28 .LASF1851
C:\Users\CYMR90~1\AppData\Local\Temp\ccX1amHi.s:30772  .debug_str:000000000002677d .LASF1852
C:\Users\CYMR90~1\AppData\Local\Temp\ccX1amHi.s:24555  .debug_str:000000000000db5f .LASF1853
C:\Users\CYMR90~1\AppData\Local\Temp\ccX1amHi.s:21925  .debug_str:00000000000030b5 .LASF1854
C:\Users\CYMR90~1\AppData\Local\Temp\ccX1amHi.s:28440  .debug_str:000000000001d5a8 .LASF1855
C:\Users\CYMR90~1\AppData\Local\Temp\ccX1amHi.s:31034  .debug_str:0000000000027812 .LASF1856
C:\Users\CYMR90~1\AppData\Local\Temp\ccX1amHi.s:23387  .debug_str:000000000000902b .LASF1857
C:\Users\CYMR90~1\AppData\Local\Temp\ccX1amHi.s:24241  .debug_str:000000000000c673 .LASF1858
C:\Users\CYMR90~1\AppData\Local\Temp\ccX1amHi.s:31132  .debug_str:0000000000027ea3 .LASF1859
C:\Users\CYMR90~1\AppData\Local\Temp\ccX1amHi.s:26415  .debug_str:0000000000015157 .LASF1860
C:\Users\CYMR90~1\AppData\Local\Temp\ccX1amHi.s:27340  .debug_str:0000000000018d20 .LASF1861
C:\Users\CYMR90~1\AppData\Local\Temp\ccX1amHi.s:25171  .debug_str:0000000000010148 .LASF1862
C:\Users\CYMR90~1\AppData\Local\Temp\ccX1amHi.s:22905  .debug_str:0000000000006f9a .LASF1863
C:\Users\CYMR90~1\AppData\Local\Temp\ccX1amHi.s:27252  .debug_str:00000000000186fa .LASF1864
C:\Users\CYMR90~1\AppData\Local\Temp\ccX1amHi.s:22537  .debug_str:00000000000058ee .LASF1865
C:\Users\CYMR90~1\AppData\Local\Temp\ccX1amHi.s:29898  .debug_str:0000000000022ee9 .LASF1866
C:\Users\CYMR90~1\AppData\Local\Temp\ccX1amHi.s:29132  .debug_str:0000000000020040 .LASF1867
C:\Users\CYMR90~1\AppData\Local\Temp\ccX1amHi.s:24173  .debug_str:000000000000c272 .LASF1868
C:\Users\CYMR90~1\AppData\Local\Temp\ccX1amHi.s:21275  .debug_str:00000000000008a3 .LASF1869
C:\Users\CYMR90~1\AppData\Local\Temp\ccX1amHi.s:21635  .debug_str:0000000000001f23 .LASF1870
C:\Users\CYMR90~1\AppData\Local\Temp\ccX1amHi.s:31416  .debug_str:00000000000291b3 .LASF1871
C:\Users\CYMR90~1\AppData\Local\Temp\ccX1amHi.s:30518  .debug_str:00000000000256f2 .LASF1872
C:\Users\CYMR90~1\AppData\Local\Temp\ccX1amHi.s:26545  .debug_str:00000000000158a4 .LASF1873
C:\Users\CYMR90~1\AppData\Local\Temp\ccX1amHi.s:23077  .debug_str:0000000000007b52 .LASF1874
C:\Users\CYMR90~1\AppData\Local\Temp\ccX1amHi.s:23969  .debug_str:000000000000b47b .LASF1875
C:\Users\CYMR90~1\AppData\Local\Temp\ccX1amHi.s:31600  .debug_str:0000000000029cd6 .LASF1876
C:\Users\CYMR90~1\AppData\Local\Temp\ccX1amHi.s:21943  .debug_str:00000000000031ed .LASF1877
C:\Users\CYMR90~1\AppData\Local\Temp\ccX1amHi.s:28620  .debug_str:000000000001e142 .LASF1878
C:\Users\CYMR90~1\AppData\Local\Temp\ccX1amHi.s:25009  .debug_str:000000000000f6c3 .LASF1879
C:\Users\CYMR90~1\AppData\Local\Temp\ccX1amHi.s:23341  .debug_str:0000000000008d0a .LASF1880
C:\Users\CYMR90~1\AppData\Local\Temp\ccX1amHi.s:28930  .debug_str:000000000001f3f6 .LASF1881
C:\Users\CYMR90~1\AppData\Local\Temp\ccX1amHi.s:21385  .debug_str:0000000000000fd1 .LASF1882
C:\Users\CYMR90~1\AppData\Local\Temp\ccX1amHi.s:29332  .debug_str:0000000000020c89 .LASF1883
C:\Users\CYMR90~1\AppData\Local\Temp\ccX1amHi.s:32012  .debug_str:000000000002b604 .LASF1884
C:\Users\CYMR90~1\AppData\Local\Temp\ccX1amHi.s:29042  .debug_str:000000000001faa3 .LASF1885
C:\Users\CYMR90~1\AppData\Local\Temp\ccX1amHi.s:31148  .debug_str:0000000000027fa3 .LASF1886
C:\Users\CYMR90~1\AppData\Local\Temp\ccX1amHi.s:23565  .debug_str:0000000000009b75 .LASF1887
C:\Users\CYMR90~1\AppData\Local\Temp\ccX1amHi.s:23375  .debug_str:0000000000008f62 .LASF1888
C:\Users\CYMR90~1\AppData\Local\Temp\ccX1amHi.s:32046  .debug_str:000000000002b820 .LASF1889
C:\Users\CYMR90~1\AppData\Local\Temp\ccX1amHi.s:27490  .debug_str:00000000000196a3 .LASF1890
C:\Users\CYMR90~1\AppData\Local\Temp\ccX1amHi.s:23555  .debug_str:0000000000009aa6 .LASF1891
C:\Users\CYMR90~1\AppData\Local\Temp\ccX1amHi.s:23651  .debug_str:000000000000a0a6 .LASF1892
C:\Users\CYMR90~1\AppData\Local\Temp\ccX1amHi.s:28246  .debug_str:000000000001c7b5 .LASF1893
C:\Users\CYMR90~1\AppData\Local\Temp\ccX1amHi.s:23369  .debug_str:0000000000008ef6 .LASF1894
C:\Users\CYMR90~1\AppData\Local\Temp\ccX1amHi.s:24625  .debug_str:000000000000df7d .LASF1895
C:\Users\CYMR90~1\AppData\Local\Temp\ccX1amHi.s:26942  .debug_str:0000000000017440 .LASF1896
C:\Users\CYMR90~1\AppData\Local\Temp\ccX1amHi.s:21587  .debug_str:0000000000001c43 .LASF1897
C:\Users\CYMR90~1\AppData\Local\Temp\ccX1amHi.s:30884  .debug_str:0000000000026e6f .LASF1898
C:\Users\CYMR90~1\AppData\Local\Temp\ccX1amHi.s:27730  .debug_str:000000000001a754 .LASF1899
C:\Users\CYMR90~1\AppData\Local\Temp\ccX1amHi.s:24445  .debug_str:000000000000d4da .LASF1900
C:\Users\CYMR90~1\AppData\Local\Temp\ccX1amHi.s:21201  .debug_str:0000000000000452 .LASF1901
C:\Users\CYMR90~1\AppData\Local\Temp\ccX1amHi.s:22009  .debug_str:000000000000365f .LASF1902
C:\Users\CYMR90~1\AppData\Local\Temp\ccX1amHi.s:24077  .debug_str:000000000000bbe6 .LASF1903
C:\Users\CYMR90~1\AppData\Local\Temp\ccX1amHi.s:32292  .debug_str:000000000002c8a5 .LASF1904
C:\Users\CYMR90~1\AppData\Local\Temp\ccX1amHi.s:26811  .debug_str:0000000000016a31 .LASF1905
C:\Users\CYMR90~1\AppData\Local\Temp\ccX1amHi.s:23525  .debug_str:000000000000984f .LASF1906
C:\Users\CYMR90~1\AppData\Local\Temp\ccX1amHi.s:31226  .debug_str:000000000002856e .LASF1907
C:\Users\CYMR90~1\AppData\Local\Temp\ccX1amHi.s:28284  .debug_str:000000000001cac4 .LASF1908
C:\Users\CYMR90~1\AppData\Local\Temp\ccX1amHi.s:22525  .debug_str:0000000000005824 .LASF1909
C:\Users\CYMR90~1\AppData\Local\Temp\ccX1amHi.s:31592  .debug_str:0000000000029c59 .LASF1910
C:\Users\CYMR90~1\AppData\Local\Temp\ccX1amHi.s:27914  .debug_str:000000000001b3b8 .LASF1911
C:\Users\CYMR90~1\AppData\Local\Temp\ccX1amHi.s:27586  .debug_str:0000000000019d62 .LASF1912
C:\Users\CYMR90~1\AppData\Local\Temp\ccX1amHi.s:23989  .debug_str:000000000000b644 .LASF1913
C:\Users\CYMR90~1\AppData\Local\Temp\ccX1amHi.s:23827  .debug_str:000000000000ab43 .LASF1914
C:\Users\CYMR90~1\AppData\Local\Temp\ccX1amHi.s:29234  .debug_str:0000000000020669 .LASF1915
C:\Users\CYMR90~1\AppData\Local\Temp\ccX1amHi.s:30494  .debug_str:0000000000025521 .LASF1916
C:\Users\CYMR90~1\AppData\Local\Temp\ccX1amHi.s:27104  .debug_str:0000000000017e34 .LASF1917
C:\Users\CYMR90~1\AppData\Local\Temp\ccX1amHi.s:23725  .debug_str:000000000000a53c .LASF1918
C:\Users\CYMR90~1\AppData\Local\Temp\ccX1amHi.s:31646  .debug_str:0000000000029f64 .LASF1919
C:\Users\CYMR90~1\AppData\Local\Temp\ccX1amHi.s:28256  .debug_str:000000000001c85c .LASF1920
C:\Users\CYMR90~1\AppData\Local\Temp\ccX1amHi.s:24407  .debug_str:000000000000d1c0 .LASF1921
C:\Users\CYMR90~1\AppData\Local\Temp\ccX1amHi.s:22927  .debug_str:0000000000007122 .LASF1922
C:\Users\CYMR90~1\AppData\Local\Temp\ccX1amHi.s:29304  .debug_str:0000000000020ae4 .LASF1923
C:\Users\CYMR90~1\AppData\Local\Temp\ccX1amHi.s:31370  .debug_str:0000000000028ed4 .LASF1924
C:\Users\CYMR90~1\AppData\Local\Temp\ccX1amHi.s:23847  .debug_str:000000000000acae .LASF1925
C:\Users\CYMR90~1\AppData\Local\Temp\ccX1amHi.s:29130  .debug_str:0000000000020012 .LASF1926
C:\Users\CYMR90~1\AppData\Local\Temp\ccX1amHi.s:28152  .debug_str:000000000001c232 .LASF1927
C:\Users\CYMR90~1\AppData\Local\Temp\ccX1amHi.s:22047  .debug_str:00000000000038ed .LASF1928
C:\Users\CYMR90~1\AppData\Local\Temp\ccX1amHi.s:22979  .debug_str:00000000000074d7 .LASF1929
C:\Users\CYMR90~1\AppData\Local\Temp\ccX1amHi.s:29058  .debug_str:000000000001fba1 .LASF1930
C:\Users\CYMR90~1\AppData\Local\Temp\ccX1amHi.s:32320  .debug_str:000000000002caa8 .LASF1931
C:\Users\CYMR90~1\AppData\Local\Temp\ccX1amHi.s:32004  .debug_str:000000000002b56a .LASF1932
C:\Users\CYMR90~1\AppData\Local\Temp\ccX1amHi.s:23089  .debug_str:0000000000007bfc .LASF1933
C:\Users\CYMR90~1\AppData\Local\Temp\ccX1amHi.s:24153  .debug_str:000000000000c13d .LASF1934
C:\Users\CYMR90~1\AppData\Local\Temp\ccX1amHi.s:28228  .debug_str:000000000001c67a .LASF1935
C:\Users\CYMR90~1\AppData\Local\Temp\ccX1amHi.s:22569  .debug_str:0000000000005af3 .LASF1936
C:\Users\CYMR90~1\AppData\Local\Temp\ccX1amHi.s:28090  .debug_str:000000000001be1f .LASF1937
C:\Users\CYMR90~1\AppData\Local\Temp\ccX1amHi.s:27054  .debug_str:0000000000017b68 .LASF1938
C:\Users\CYMR90~1\AppData\Local\Temp\ccX1amHi.s:26363  .debug_str:0000000000014dc8 .LASF1939
C:\Users\CYMR90~1\AppData\Local\Temp\ccX1amHi.s:23281  .debug_str:0000000000008974 .LASF1940
C:\Users\CYMR90~1\AppData\Local\Temp\ccX1amHi.s:31438  .debug_str:000000000002933c .LASF1941
C:\Users\CYMR90~1\AppData\Local\Temp\ccX1amHi.s:28336  .debug_str:000000000001ce1c .LASF1942
C:\Users\CYMR90~1\AppData\Local\Temp\ccX1amHi.s:24211  .debug_str:000000000000c4b3 .LASF1943
C:\Users\CYMR90~1\AppData\Local\Temp\ccX1amHi.s:25349  .debug_str:0000000000010cb0 .LASF1944
C:\Users\CYMR90~1\AppData\Local\Temp\ccX1amHi.s:29166  .debug_str:0000000000020252 .LASF1945
C:\Users\CYMR90~1\AppData\Local\Temp\ccX1amHi.s:26075  .debug_str:0000000000013bfd .LASF1946
C:\Users\CYMR90~1\AppData\Local\Temp\ccX1amHi.s:22871  .debug_str:0000000000006d84 .LASF1947
C:\Users\CYMR90~1\AppData\Local\Temp\ccX1amHi.s:21783  .debug_str:00000000000027df .LASF1948
C:\Users\CYMR90~1\AppData\Local\Temp\ccX1amHi.s:27970  .debug_str:000000000001b6f4 .LASF1949
C:\Users\CYMR90~1\AppData\Local\Temp\ccX1amHi.s:24889  .debug_str:000000000000ef8a .LASF1950
C:\Users\CYMR90~1\AppData\Local\Temp\ccX1amHi.s:21659  .debug_str:0000000000002055 .LASF1951
C:\Users\CYMR90~1\AppData\Local\Temp\ccX1amHi.s:29916  .debug_str:0000000000022fcf .LASF1952
C:\Users\CYMR90~1\AppData\Local\Temp\ccX1amHi.s:30626  .debug_str:0000000000025e5a .LASF1953
C:\Users\CYMR90~1\AppData\Local\Temp\ccX1amHi.s:26201  .debug_str:000000000001439e .LASF1954
C:\Users\CYMR90~1\AppData\Local\Temp\ccX1amHi.s:29456  .debug_str:00000000000213ec .LASF1955
C:\Users\CYMR90~1\AppData\Local\Temp\ccX1amHi.s:30110  .debug_str:0000000000023b4d .LASF1956
C:\Users\CYMR90~1\AppData\Local\Temp\ccX1amHi.s:21709  .debug_str:0000000000002327 .LASF1957
C:\Users\CYMR90~1\AppData\Local\Temp\ccX1amHi.s:31846  .debug_str:000000000002ab55 .LASF1958
C:\Users\CYMR90~1\AppData\Local\Temp\ccX1amHi.s:23095  .debug_str:0000000000007c6d .LASF1959
C:\Users\CYMR90~1\AppData\Local\Temp\ccX1amHi.s:31418  .debug_str:00000000000291f2 .LASF1960
C:\Users\CYMR90~1\AppData\Local\Temp\ccX1amHi.s:28292  .debug_str:000000000001cb4a .LASF1961
C:\Users\CYMR90~1\AppData\Local\Temp\ccX1amHi.s:21239  .debug_str:000000000000066c .LASF1962
C:\Users\CYMR90~1\AppData\Local\Temp\ccX1amHi.s:26595  .debug_str:0000000000015bab .LASF1963
C:\Users\CYMR90~1\AppData\Local\Temp\ccX1amHi.s:30476  .debug_str:00000000000253d4 .LASF1964
C:\Users\CYMR90~1\AppData\Local\Temp\ccX1amHi.s:22931  .debug_str:000000000000718d .LASF1965
C:\Users\CYMR90~1\AppData\Local\Temp\ccX1amHi.s:28430  .debug_str:000000000001d4ec .LASF1966
C:\Users\CYMR90~1\AppData\Local\Temp\ccX1amHi.s:31946  .debug_str:000000000002b14d .LASF1967
C:\Users\CYMR90~1\AppData\Local\Temp\ccX1amHi.s:28270  .debug_str:000000000001c9df .LASF1968
C:\Users\CYMR90~1\AppData\Local\Temp\ccX1amHi.s:29798  .debug_str:00000000000228b7 .LASF1969
C:\Users\CYMR90~1\AppData\Local\Temp\ccX1amHi.s:22915  .debug_str:0000000000007050 .LASF1970
C:\Users\CYMR90~1\AppData\Local\Temp\ccX1amHi.s:29804  .debug_str:0000000000022905 .LASF1971
C:\Users\CYMR90~1\AppData\Local\Temp\ccX1amHi.s:30510  .debug_str:0000000000025648 .LASF1972
C:\Users\CYMR90~1\AppData\Local\Temp\ccX1amHi.s:27574  .debug_str:0000000000019ca2 .LASF1973
C:\Users\CYMR90~1\AppData\Local\Temp\ccX1amHi.s:27380  .debug_str:0000000000018fa3 .LASF1974
C:\Users\CYMR90~1\AppData\Local\Temp\ccX1amHi.s:31894  .debug_str:000000000002ae53 .LASF1975
C:\Users\CYMR90~1\AppData\Local\Temp\ccX1amHi.s:23115  .debug_str:0000000000007e4f .LASF1976
C:\Users\CYMR90~1\AppData\Local\Temp\ccX1amHi.s:23473  .debug_str:0000000000009536 .LASF1977
C:\Users\CYMR90~1\AppData\Local\Temp\ccX1amHi.s:31668  .debug_str:000000000002a0a7 .LASF1978
C:\Users\CYMR90~1\AppData\Local\Temp\ccX1amHi.s:22393  .debug_str:0000000000004ffe .LASF1979
C:\Users\CYMR90~1\AppData\Local\Temp\ccX1amHi.s:27972  .debug_str:000000000001b713 .LASF1980
C:\Users\CYMR90~1\AppData\Local\Temp\ccX1amHi.s:30268  .debug_str:00000000000245bb .LASF1981
C:\Users\CYMR90~1\AppData\Local\Temp\ccX1amHi.s:30116  .debug_str:0000000000023ba8 .LASF1982
C:\Users\CYMR90~1\AppData\Local\Temp\ccX1amHi.s:30932  .debug_str:000000000002713b .LASF1983
C:\Users\CYMR90~1\AppData\Local\Temp\ccX1amHi.s:31850  .debug_str:000000000002abab .LASF1984
C:\Users\CYMR90~1\AppData\Local\Temp\ccX1amHi.s:28824  .debug_str:000000000001ed80 .LASF1985
C:\Users\CYMR90~1\AppData\Local\Temp\ccX1amHi.s:28004  .debug_str:000000000001b926 .LASF1986
C:\Users\CYMR90~1\AppData\Local\Temp\ccX1amHi.s:26279  .debug_str:000000000001488e .LASF1987
C:\Users\CYMR90~1\AppData\Local\Temp\ccX1amHi.s:27280  .debug_str:0000000000018896 .LASF1988
C:\Users\CYMR90~1\AppData\Local\Temp\ccX1amHi.s:24309  .debug_str:000000000000cbde .LASF1989
C:\Users\CYMR90~1\AppData\Local\Temp\ccX1amHi.s:23333  .debug_str:0000000000008c99 .LASF1990
C:\Users\CYMR90~1\AppData\Local\Temp\ccX1amHi.s:24371  .debug_str:000000000000cf6a .LASF1991
C:\Users\CYMR90~1\AppData\Local\Temp\ccX1amHi.s:27622  .debug_str:0000000000019f6c .LASF1992
C:\Users\CYMR90~1\AppData\Local\Temp\ccX1amHi.s:22299  .debug_str:0000000000004a4c .LASF1993
C:\Users\CYMR90~1\AppData\Local\Temp\ccX1amHi.s:21381  .debug_str:0000000000000fa1 .LASF1994
C:\Users\CYMR90~1\AppData\Local\Temp\ccX1amHi.s:30526  .debug_str:0000000000025786 .LASF1995
C:\Users\CYMR90~1\AppData\Local\Temp\ccX1amHi.s:22007  .debug_str:000000000000362b .LASF1996
C:\Users\CYMR90~1\AppData\Local\Temp\ccX1amHi.s:30982  .debug_str:0000000000027526 .LASF1997
C:\Users\CYMR90~1\AppData\Local\Temp\ccX1amHi.s:23253  .debug_str:00000000000087bc .LASF1998
C:\Users\CYMR90~1\AppData\Local\Temp\ccX1amHi.s:27208  .debug_str:0000000000018484 .LASF1999
C:\Users\CYMR90~1\AppData\Local\Temp\ccX1amHi.s:28166  .debug_str:000000000001c342 .LASF2000
C:\Users\CYMR90~1\AppData\Local\Temp\ccX1amHi.s:25511  .debug_str:000000000001164c .LASF2001
C:\Users\CYMR90~1\AppData\Local\Temp\ccX1amHi.s:29810  .debug_str:000000000002296a .LASF2002
C:\Users\CYMR90~1\AppData\Local\Temp\ccX1amHi.s:31204  .debug_str:0000000000028421 .LASF2003
C:\Users\CYMR90~1\AppData\Local\Temp\ccX1amHi.s:26233  .debug_str:000000000001453a .LASF2004
C:\Users\CYMR90~1\AppData\Local\Temp\ccX1amHi.s:29704  .debug_str:000000000002237e .LASF2005
C:\Users\CYMR90~1\AppData\Local\Temp\ccX1amHi.s:26900  .debug_str:00000000000171eb .LASF2006
C:\Users\CYMR90~1\AppData\Local\Temp\ccX1amHi.s:32094  .debug_str:000000000002bb85 .LASF2007
C:\Users\CYMR90~1\AppData\Local\Temp\ccX1amHi.s:22433  .debug_str:0000000000005297 .LASF2008
C:\Users\CYMR90~1\AppData\Local\Temp\ccX1amHi.s:26007  .debug_str:00000000000137c9 .LASF2009
C:\Users\CYMR90~1\AppData\Local\Temp\ccX1amHi.s:28718  .debug_str:000000000001e737 .LASF2010
C:\Users\CYMR90~1\AppData\Local\Temp\ccX1amHi.s:24337  .debug_str:000000000000cd87 .LASF2011
C:\Users\CYMR90~1\AppData\Local\Temp\ccX1amHi.s:21571  .debug_str:0000000000001b6e .LASF2012
C:\Users\CYMR90~1\AppData\Local\Temp\ccX1amHi.s:29996  .debug_str:000000000002342d .LASF2013
C:\Users\CYMR90~1\AppData\Local\Temp\ccX1amHi.s:29752  .debug_str:00000000000225ef .LASF2014
C:\Users\CYMR90~1\AppData\Local\Temp\ccX1amHi.s:27708  .debug_str:000000000001a5f7 .LASF2015
C:\Users\CYMR90~1\AppData\Local\Temp\ccX1amHi.s:31578  .debug_str:0000000000029b83 .LASF2016
C:\Users\CYMR90~1\AppData\Local\Temp\ccX1amHi.s:29906  .debug_str:0000000000022f63 .LASF2017
C:\Users\CYMR90~1\AppData\Local\Temp\ccX1amHi.s:32006  .debug_str:000000000002b59a .LASF2018
C:\Users\CYMR90~1\AppData\Local\Temp\ccX1amHi.s:28470  .debug_str:000000000001d764 .LASF2019
C:\Users\CYMR90~1\AppData\Local\Temp\ccX1amHi.s:28254  .debug_str:000000000001c841 .LASF2020
C:\Users\CYMR90~1\AppData\Local\Temp\ccX1amHi.s:29950  .debug_str:00000000000231ac .LASF2021
C:\Users\CYMR90~1\AppData\Local\Temp\ccX1amHi.s:30922  .debug_str:00000000000270bd .LASF2022
C:\Users\CYMR90~1\AppData\Local\Temp\ccX1amHi.s:27120  .debug_str:0000000000017f54 .LASF2023
C:\Users\CYMR90~1\AppData\Local\Temp\ccX1amHi.s:30862  .debug_str:0000000000026cd3 .LASF2024
C:\Users\CYMR90~1\AppData\Local\Temp\ccX1amHi.s:24051  .debug_str:000000000000ba8f .LASF2025
C:\Users\CYMR90~1\AppData\Local\Temp\ccX1amHi.s:31960  .debug_str:000000000002b229 .LASF2026
C:\Users\CYMR90~1\AppData\Local\Temp\ccX1amHi.s:21967  .debug_str:0000000000003379 .LASF2027
C:\Users\CYMR90~1\AppData\Local\Temp\ccX1amHi.s:30010  .debug_str:00000000000234ea .LASF2028
C:\Users\CYMR90~1\AppData\Local\Temp\ccX1amHi.s:29030  .debug_str:000000000001f9ce .LASF2029
C:\Users\CYMR90~1\AppData\Local\Temp\ccX1amHi.s:21149  .debug_str:0000000000000121 .LASF2030
C:\Users\CYMR90~1\AppData\Local\Temp\ccX1amHi.s:27108  .debug_str:0000000000017e75 .LASF2031
C:\Users\CYMR90~1\AppData\Local\Temp\ccX1amHi.s:23821  .debug_str:000000000000aafe .LASF2032
C:\Users\CYMR90~1\AppData\Local\Temp\ccX1amHi.s:25027  .debug_str:000000000000f878 .LASF2033
C:\Users\CYMR90~1\AppData\Local\Temp\ccX1amHi.s:24031  .debug_str:000000000000b8ff .LASF2034
C:\Users\CYMR90~1\AppData\Local\Temp\ccX1amHi.s:25583  .debug_str:0000000000011bfa .LASF2035
C:\Users\CYMR90~1\AppData\Local\Temp\ccX1amHi.s:29490  .debug_str:0000000000021689 .LASF2036
C:\Users\CYMR90~1\AppData\Local\Temp\ccX1amHi.s:29884  .debug_str:0000000000022e1c .LASF2037
C:\Users\CYMR90~1\AppData\Local\Temp\ccX1amHi.s:30454  .debug_str:00000000000251cb .LASF2038
C:\Users\CYMR90~1\AppData\Local\Temp\ccX1amHi.s:25681  .debug_str:00000000000121e7 .LASF2039
C:\Users\CYMR90~1\AppData\Local\Temp\ccX1amHi.s:27648  .debug_str:000000000001a102 .LASF2040
C:\Users\CYMR90~1\AppData\Local\Temp\ccX1amHi.s:24365  .debug_str:000000000000ceeb .LASF2041
C:\Users\CYMR90~1\AppData\Local\Temp\ccX1amHi.s:21791  .debug_str:0000000000002852 .LASF2042
C:\Users\CYMR90~1\AppData\Local\Temp\ccX1amHi.s:22527  .debug_str:0000000000005862 .LASF2043
C:\Users\CYMR90~1\AppData\Local\Temp\ccX1amHi.s:32368  .debug_str:000000000002ce07 .LASF2044
C:\Users\CYMR90~1\AppData\Local\Temp\ccX1amHi.s:25979  .debug_str:00000000000135e1 .LASF2045
C:\Users\CYMR90~1\AppData\Local\Temp\ccX1amHi.s:29766  .debug_str:00000000000226c5 .LASF2046
C:\Users\CYMR90~1\AppData\Local\Temp\ccX1amHi.s:31382  .debug_str:0000000000028fa7 .LASF2047
C:\Users\CYMR90~1\AppData\Local\Temp\ccX1amHi.s:28134  .debug_str:000000000001c119 .LASF2048
C:\Users\CYMR90~1\AppData\Local\Temp\ccX1amHi.s:28674  .debug_str:000000000001e484 .LASF2049
C:\Users\CYMR90~1\AppData\Local\Temp\ccX1amHi.s:22593  .debug_str:0000000000005c7a .LASF2050
C:\Users\CYMR90~1\AppData\Local\Temp\ccX1amHi.s:21953  .debug_str:000000000000327f .LASF2051
C:\Users\CYMR90~1\AppData\Local\Temp\ccX1amHi.s:23933  .debug_str:000000000000b293 .LASF2052
C:\Users\CYMR90~1\AppData\Local\Temp\ccX1amHi.s:30492  .debug_str:00000000000254da .LASF2053
C:\Users\CYMR90~1\AppData\Local\Temp\ccX1amHi.s:31806  .debug_str:000000000002a914 .LASF2054
C:\Users\CYMR90~1\AppData\Local\Temp\ccX1amHi.s:22403  .debug_str:00000000000050a6 .LASF2055
C:\Users\CYMR90~1\AppData\Local\Temp\ccX1amHi.s:30820  .debug_str:0000000000026a6a .LASF2056
C:\Users\CYMR90~1\AppData\Local\Temp\ccX1amHi.s:28840  .debug_str:000000000001ee7d .LASF2057
C:\Users\CYMR90~1\AppData\Local\Temp\ccX1amHi.s:26960  .debug_str:0000000000017561 .LASF2058
C:\Users\CYMR90~1\AppData\Local\Temp\ccX1amHi.s:23807  .debug_str:000000000000aa0e .LASF2059
C:\Users\CYMR90~1\AppData\Local\Temp\ccX1amHi.s:24615  .debug_str:000000000000dedd .LASF2060
C:\Users\CYMR90~1\AppData\Local\Temp\ccX1amHi.s:29288  .debug_str:00000000000209f5 .LASF2061
C:\Users\CYMR90~1\AppData\Local\Temp\ccX1amHi.s:26105  .debug_str:0000000000013dc1 .LASF2062
C:\Users\CYMR90~1\AppData\Local\Temp\ccX1amHi.s:23803  .debug_str:000000000000a9d2 .LASF2063
C:\Users\CYMR90~1\AppData\Local\Temp\ccX1amHi.s:25393  .debug_str:0000000000010f80 .LASF2064
C:\Users\CYMR90~1\AppData\Local\Temp\ccX1amHi.s:28806  .debug_str:000000000001ec8b .LASF2065
C:\Users\CYMR90~1\AppData\Local\Temp\ccX1amHi.s:23489  .debug_str:0000000000009616 .LASF2066
C:\Users\CYMR90~1\AppData\Local\Temp\ccX1amHi.s:23963  .debug_str:000000000000b41d .LASF2067
C:\Users\CYMR90~1\AppData\Local\Temp\ccX1amHi.s:27060  .debug_str:0000000000017bba .LASF2068
C:\Users\CYMR90~1\AppData\Local\Temp\ccX1amHi.s:26669  .debug_str:0000000000016109 .LASF2069
C:\Users\CYMR90~1\AppData\Local\Temp\ccX1amHi.s:24499  .debug_str:000000000000d80a .LASF2070
C:\Users\CYMR90~1\AppData\Local\Temp\ccX1amHi.s:22563  .debug_str:0000000000005aac .LASF2071
C:\Users\CYMR90~1\AppData\Local\Temp\ccX1amHi.s:25833  .debug_str:0000000000012c39 .LASF2072
C:\Users\CYMR90~1\AppData\Local\Temp\ccX1amHi.s:24849  .debug_str:000000000000ed88 .LASF2073
C:\Users\CYMR90~1\AppData\Local\Temp\ccX1amHi.s:24089  .debug_str:000000000000bcbf .LASF2074
C:\Users\CYMR90~1\AppData\Local\Temp\ccX1amHi.s:32180  .debug_str:000000000002c173 .LASF2075
C:\Users\CYMR90~1\AppData\Local\Temp\ccX1amHi.s:23361  .debug_str:0000000000008eb8 .LASF2076
C:\Users\CYMR90~1\AppData\Local\Temp\ccX1amHi.s:31462  .debug_str:0000000000029484 .LASF2077
C:\Users\CYMR90~1\AppData\Local\Temp\ccX1amHi.s:22415  .debug_str:000000000000517c .LASF2078
C:\Users\CYMR90~1\AppData\Local\Temp\ccX1amHi.s:21537  .debug_str:0000000000001964 .LASF2079
C:\Users\CYMR90~1\AppData\Local\Temp\ccX1amHi.s:30036  .debug_str:00000000000236b1 .LASF2080
C:\Users\CYMR90~1\AppData\Local\Temp\ccX1amHi.s:31346  .debug_str:0000000000028d58 .LASF2081
C:\Users\CYMR90~1\AppData\Local\Temp\ccX1amHi.s:31440  .debug_str:0000000000029364 .LASF2082
C:\Users\CYMR90~1\AppData\Local\Temp\ccX1amHi.s:25707  .debug_str:0000000000012363 .LASF2083
C:\Users\CYMR90~1\AppData\Local\Temp\ccX1amHi.s:23137  .debug_str:0000000000007fba .LASF2084
C:\Users\CYMR90~1\AppData\Local\Temp\ccX1amHi.s:29922  .debug_str:000000000002302d .LASF2085
C:\Users\CYMR90~1\AppData\Local\Temp\ccX1amHi.s:21433  .debug_str:0000000000001283 .LASF2086
C:\Users\CYMR90~1\AppData\Local\Temp\ccX1amHi.s:21289  .debug_str:000000000000097f .LASF2087
C:\Users\CYMR90~1\AppData\Local\Temp\ccX1amHi.s:27918  .debug_str:000000000001b3fe .LASF2088
C:\Users\CYMR90~1\AppData\Local\Temp\ccX1amHi.s:29000  .debug_str:000000000001f833 .LASF2089
C:\Users\CYMR90~1\AppData\Local\Temp\ccX1amHi.s:26888  .debug_str:0000000000017138 .LASF2090
C:\Users\CYMR90~1\AppData\Local\Temp\ccX1amHi.s:25641  .debug_str:0000000000011f5a .LASF2091
C:\Users\CYMR90~1\AppData\Local\Temp\ccX1amHi.s:26988  .debug_str:0000000000017708 .LASF2092
C:\Users\CYMR90~1\AppData\Local\Temp\ccX1amHi.s:26133  .debug_str:0000000000013f53 .LASF2093
C:\Users\CYMR90~1\AppData\Local\Temp\ccX1amHi.s:21947  .debug_str:000000000000322f .LASF2094
C:\Users\CYMR90~1\AppData\Local\Temp\ccX1amHi.s:22167  .debug_str:0000000000004139 .LASF2095
C:\Users\CYMR90~1\AppData\Local\Temp\ccX1amHi.s:23605  .debug_str:0000000000009de2 .LASF2096
C:\Users\CYMR90~1\AppData\Local\Temp\ccX1amHi.s:21923  .debug_str:000000000000308a .LASF2097
C:\Users\CYMR90~1\AppData\Local\Temp\ccX1amHi.s:30636  .debug_str:0000000000025ef8 .LASF2098
C:\Users\CYMR90~1\AppData\Local\Temp\ccX1amHi.s:25183  .debug_str:0000000000010232 .LASF2099
C:\Users\CYMR90~1\AppData\Local\Temp\ccX1amHi.s:23971  .debug_str:000000000000b4a4 .LASF2100
C:\Users\CYMR90~1\AppData\Local\Temp\ccX1amHi.s:22743  .debug_str:0000000000006560 .LASF2101
C:\Users\CYMR90~1\AppData\Local\Temp\ccX1amHi.s:21839  .debug_str:0000000000002b3e .LASF2102
C:\Users\CYMR90~1\AppData\Local\Temp\ccX1amHi.s:23643  .debug_str:000000000000a017 .LASF2103
C:\Users\CYMR90~1\AppData\Local\Temp\ccX1amHi.s:32124  .debug_str:000000000002bd71 .LASF2104
C:\Users\CYMR90~1\AppData\Local\Temp\ccX1amHi.s:26986  .debug_str:00000000000176e4 .LASF2105
C:\Users\CYMR90~1\AppData\Local\Temp\ccX1amHi.s:21939  .debug_str:0000000000003195 .LASF2106
C:\Users\CYMR90~1\AppData\Local\Temp\ccX1amHi.s:31406  .debug_str:000000000002913a .LASF2107
C:\Users\CYMR90~1\AppData\Local\Temp\ccX1amHi.s:25675  .debug_str:0000000000012199 .LASF2108
C:\Users\CYMR90~1\AppData\Local\Temp\ccX1amHi.s:21957  .debug_str:00000000000032bd .LASF2109
C:\Users\CYMR90~1\AppData\Local\Temp\ccX1amHi.s:24409  .debug_str:000000000000d1ec .LASF2110
C:\Users\CYMR90~1\AppData\Local\Temp\ccX1amHi.s:26934  .debug_str:00000000000173b5 .LASF2111
C:\Users\CYMR90~1\AppData\Local\Temp\ccX1amHi.s:29020  .debug_str:000000000001f948 .LASF2112
C:\Users\CYMR90~1\AppData\Local\Temp\ccX1amHi.s:31572  .debug_str:0000000000029b29 .LASF2113
C:\Users\CYMR90~1\AppData\Local\Temp\ccX1amHi.s:24907  .debug_str:000000000000f094 .LASF2114
C:\Users\CYMR90~1\AppData\Local\Temp\ccX1amHi.s:26029  .debug_str:0000000000013901 .LASF2115
C:\Users\CYMR90~1\AppData\Local\Temp\ccX1amHi.s:27900  .debug_str:000000000001b2bb .LASF2116
C:\Users\CYMR90~1\AppData\Local\Temp\ccX1amHi.s:26215  .debug_str:0000000000014457 .LASF2117
C:\Users\CYMR90~1\AppData\Local\Temp\ccX1amHi.s:30260  .debug_str:000000000002454c .LASF2118
C:\Users\CYMR90~1\AppData\Local\Temp\ccX1amHi.s:28960  .debug_str:000000000001f5d2 .LASF2119
C:\Users\CYMR90~1\AppData\Local\Temp\ccX1amHi.s:21795  .debug_str:0000000000002889 .LASF2120
C:\Users\CYMR90~1\AppData\Local\Temp\ccX1amHi.s:29394  .debug_str:0000000000021063 .LASF2121
C:\Users\CYMR90~1\AppData\Local\Temp\ccX1amHi.s:23211  .debug_str:000000000000853a .LASF2122
C:\Users\CYMR90~1\AppData\Local\Temp\ccX1amHi.s:26073  .debug_str:0000000000013bd9 .LASF2123
C:\Users\CYMR90~1\AppData\Local\Temp\ccX1amHi.s:28702  .debug_str:000000000001e63a .LASF2124
C:\Users\CYMR90~1\AppData\Local\Temp\ccX1amHi.s:25929  .debug_str:000000000001326b .LASF2125
C:\Users\CYMR90~1\AppData\Local\Temp\ccX1amHi.s:27052  .debug_str:0000000000017b41 .LASF2126
C:\Users\CYMR90~1\AppData\Local\Temp\ccX1amHi.s:30946  .debug_str:0000000000027246 .LASF2127
C:\Users\CYMR90~1\AppData\Local\Temp\ccX1amHi.s:29502  .debug_str:0000000000021743 .LASF2128
C:\Users\CYMR90~1\AppData\Local\Temp\ccX1amHi.s:25389  .debug_str:0000000000010f45 .LASF2129
C:\Users\CYMR90~1\AppData\Local\Temp\ccX1amHi.s:29410  .debug_str:000000000002113d .LASF2130
C:\Users\CYMR90~1\AppData\Local\Temp\ccX1amHi.s:27270  .debug_str:00000000000187e9 .LASF2131
C:\Users\CYMR90~1\AppData\Local\Temp\ccX1amHi.s:29230  .debug_str:0000000000020624 .LASF2132
C:\Users\CYMR90~1\AppData\Local\Temp\ccX1amHi.s:25575  .debug_str:0000000000011b5e .LASF2133
C:\Users\CYMR90~1\AppData\Local\Temp\ccX1amHi.s:21929  .debug_str:00000000000030f7 .LASF2134
C:\Users\CYMR90~1\AppData\Local\Temp\ccX1amHi.s:21683  .debug_str:00000000000021af .LASF2135
C:\Users\CYMR90~1\AppData\Local\Temp\ccX1amHi.s:27430  .debug_str:0000000000019326 .LASF2136
C:\Users\CYMR90~1\AppData\Local\Temp\ccX1amHi.s:31676  .debug_str:000000000002a136 .LASF2137
C:\Users\CYMR90~1\AppData\Local\Temp\ccX1amHi.s:23213  .debug_str:000000000000855f .LASF2138
C:\Users\CYMR90~1\AppData\Local\Temp\ccX1amHi.s:29594  .debug_str:0000000000021cbd .LASF2139
C:\Users\CYMR90~1\AppData\Local\Temp\ccX1amHi.s:25491  .debug_str:00000000000114f3 .LASF2140
C:\Users\CYMR90~1\AppData\Local\Temp\ccX1amHi.s:24969  .debug_str:000000000000f480 .LASF2141
C:\Users\CYMR90~1\AppData\Local\Temp\ccX1amHi.s:28976  .debug_str:000000000001f6cd .LASF2142
C:\Users\CYMR90~1\AppData\Local\Temp\ccX1amHi.s:29524  .debug_str:0000000000021875 .LASF2143
C:\Users\CYMR90~1\AppData\Local\Temp\ccX1amHi.s:25769  .debug_str:00000000000127dc .LASF2144
C:\Users\CYMR90~1\AppData\Local\Temp\ccX1amHi.s:21959  .debug_str:00000000000032e4 .LASF2145
C:\Users\CYMR90~1\AppData\Local\Temp\ccX1amHi.s:21157  .debug_str:0000000000000173 .LASF2146
C:\Users\CYMR90~1\AppData\Local\Temp\ccX1amHi.s:21565  .debug_str:0000000000001afd .LASF2147
C:\Users\CYMR90~1\AppData\Local\Temp\ccX1amHi.s:26994  .debug_str:000000000001775e .LASF2148
C:\Users\CYMR90~1\AppData\Local\Temp\ccX1amHi.s:31372  .debug_str:0000000000028f14 .LASF2149
C:\Users\CYMR90~1\AppData\Local\Temp\ccX1amHi.s:30968  .debug_str:0000000000027445 .LASF2150
C:\Users\CYMR90~1\AppData\Local\Temp\ccX1amHi.s:26031  .debug_str:0000000000013928 .LASF2151
C:\Users\CYMR90~1\AppData\Local\Temp\ccX1amHi.s:24581  .debug_str:000000000000dcaa .LASF2152
C:\Users\CYMR90~1\AppData\Local\Temp\ccX1amHi.s:22575  .debug_str:0000000000005b5e .LASF2153
C:\Users\CYMR90~1\AppData\Local\Temp\ccX1amHi.s:26773  .debug_str:000000000001679e .LASF2154
C:\Users\CYMR90~1\AppData\Local\Temp\ccX1amHi.s:21489  .debug_str:00000000000015e8 .LASF2155
C:\Users\CYMR90~1\AppData\Local\Temp\ccX1amHi.s:22035  .debug_str:0000000000003847 .LASF2156
C:\Users\CYMR90~1\AppData\Local\Temp\ccX1amHi.s:30934  .debug_str:000000000002715e .LASF2157
C:\Users\CYMR90~1\AppData\Local\Temp\ccX1amHi.s:25427  .debug_str:0000000000011166 .LASF2158
C:\Users\CYMR90~1\AppData\Local\Temp\ccX1amHi.s:27332  .debug_str:0000000000018c21 .LASF2159
C:\Users\CYMR90~1\AppData\Local\Temp\ccX1amHi.s:30740  .debug_str:0000000000026569 .LASF2160
C:\Users\CYMR90~1\AppData\Local\Temp\ccX1amHi.s:23391  .debug_str:000000000000906d .LASF2161
C:\Users\CYMR90~1\AppData\Local\Temp\ccX1amHi.s:31656  .debug_str:000000000002a00a .LASF2162
C:\Users\CYMR90~1\AppData\Local\Temp\ccX1amHi.s:32358  .debug_str:000000000002ccf3 .LASF2163
C:\Users\CYMR90~1\AppData\Local\Temp\ccX1amHi.s:22069  .debug_str:0000000000003a76 .LASF2164
C:\Users\CYMR90~1\AppData\Local\Temp\ccX1amHi.s:30020  .debug_str:0000000000023586 .LASF2165
C:\Users\CYMR90~1\AppData\Local\Temp\ccX1amHi.s:27412  .debug_str:0000000000019231 .LASF2166
C:\Users\CYMR90~1\AppData\Local\Temp\ccX1amHi.s:30966  .debug_str:000000000002742d .LASF2167
C:\Users\CYMR90~1\AppData\Local\Temp\ccX1amHi.s:23245  .debug_str:0000000000008747 .LASF2168
C:\Users\CYMR90~1\AppData\Local\Temp\ccX1amHi.s:28522  .debug_str:000000000001daee .LASF2169
C:\Users\CYMR90~1\AppData\Local\Temp\ccX1amHi.s:26719  .debug_str:000000000001642b .LASF2170
C:\Users\CYMR90~1\AppData\Local\Temp\ccX1amHi.s:24739  .debug_str:000000000000e655 .LASF2171
C:\Users\CYMR90~1\AppData\Local\Temp\ccX1amHi.s:24877  .debug_str:000000000000eee9 .LASF2172
C:\Users\CYMR90~1\AppData\Local\Temp\ccX1amHi.s:28982  .debug_str:000000000001f726 .LASF2173
C:\Users\CYMR90~1\AppData\Local\Temp\ccX1amHi.s:26657  .debug_str:000000000001602c .LASF2174
C:\Users\CYMR90~1\AppData\Local\Temp\ccX1amHi.s:25635  .debug_str:0000000000011f18 .LASF2175
C:\Users\CYMR90~1\AppData\Local\Temp\ccX1amHi.s:28772  .debug_str:000000000001ea9e .LASF2176
C:\Users\CYMR90~1\AppData\Local\Temp\ccX1amHi.s:23973  .debug_str:000000000000b4b3 .LASF2177
C:\Users\CYMR90~1\AppData\Local\Temp\ccX1amHi.s:29666  .debug_str:000000000002212f .LASF2178
C:\Users\CYMR90~1\AppData\Local\Temp\ccX1amHi.s:25457  .debug_str:0000000000011318 .LASF2179
C:\Users\CYMR90~1\AppData\Local\Temp\ccX1amHi.s:23085  .debug_str:0000000000007bc6 .LASF2180
C:\Users\CYMR90~1\AppData\Local\Temp\ccX1amHi.s:30656  .debug_str:000000000002605b .LASF2181
C:\Users\CYMR90~1\AppData\Local\Temp\ccX1amHi.s:24771  .debug_str:000000000000e895 .LASF2182
C:\Users\CYMR90~1\AppData\Local\Temp\ccX1amHi.s:26691  .debug_str:0000000000016289 .LASF2183
C:\Users\CYMR90~1\AppData\Local\Temp\ccX1amHi.s:22187  .debug_str:000000000000424c .LASF2184
C:\Users\CYMR90~1\AppData\Local\Temp\ccX1amHi.s:25051  .debug_str:000000000000f9df .LASF2185
C:\Users\CYMR90~1\AppData\Local\Temp\ccX1amHi.s:31918  .debug_str:000000000002afb7 .LASF2186
C:\Users\CYMR90~1\AppData\Local\Temp\ccX1amHi.s:28782  .debug_str:000000000001eb3e .LASF2187
C:\Users\CYMR90~1\AppData\Local\Temp\ccX1amHi.s:23589  .debug_str:0000000000009d10 .LASF2188
C:\Users\CYMR90~1\AppData\Local\Temp\ccX1amHi.s:27746  .debug_str:000000000001a8fc .LASF2189
C:\Users\CYMR90~1\AppData\Local\Temp\ccX1amHi.s:22125  .debug_str:0000000000003da5 .LASF2190
C:\Users\CYMR90~1\AppData\Local\Temp\ccX1amHi.s:23689  .debug_str:000000000000a2fd .LASF2191
C:\Users\CYMR90~1\AppData\Local\Temp\ccX1amHi.s:28862  .debug_str:000000000001ef9b .LASF2192
C:\Users\CYMR90~1\AppData\Local\Temp\ccX1amHi.s:22051  .debug_str:000000000000393a .LASF2193
C:\Users\CYMR90~1\AppData\Local\Temp\ccX1amHi.s:25515  .debug_str:000000000001167c .LASF2194
C:\Users\CYMR90~1\AppData\Local\Temp\ccX1amHi.s:30214  .debug_str:00000000000241e2 .LASF2195
C:\Users\CYMR90~1\AppData\Local\Temp\ccX1amHi.s:23033  .debug_str:0000000000007843 .LASF2196
C:\Users\CYMR90~1\AppData\Local\Temp\ccX1amHi.s:26377  .debug_str:0000000000014ec1 .LASF2197
C:\Users\CYMR90~1\AppData\Local\Temp\ccX1amHi.s:23311  .debug_str:0000000000008b35 .LASF2198
C:\Users\CYMR90~1\AppData\Local\Temp\ccX1amHi.s:29224  .debug_str:00000000000205db .LASF2199
C:\Users\CYMR90~1\AppData\Local\Temp\ccX1amHi.s:23835  .debug_str:000000000000abdd .LASF2200
C:\Users\CYMR90~1\AppData\Local\Temp\ccX1amHi.s:29730  .debug_str:00000000000224f9 .LASF2201
C:\Users\CYMR90~1\AppData\Local\Temp\ccX1amHi.s:29062  .debug_str:000000000001fbe2 .LASF2202
C:\Users\CYMR90~1\AppData\Local\Temp\ccX1amHi.s:30228  .debug_str:0000000000024307 .LASF2203
C:\Users\CYMR90~1\AppData\Local\Temp\ccX1amHi.s:30808  .debug_str:00000000000269bb .LASF2204
C:\Users\CYMR90~1\AppData\Local\Temp\ccX1amHi.s:30640  .debug_str:0000000000025f2b .LASF2205
C:\Users\CYMR90~1\AppData\Local\Temp\ccX1amHi.s:30276  .debug_str:0000000000024622 .LASF2206
C:\Users\CYMR90~1\AppData\Local\Temp\ccX1amHi.s:29360  .debug_str:0000000000020e7a .LASF2207
C:\Users\CYMR90~1\AppData\Local\Temp\ccX1amHi.s:25233  .debug_str:000000000001051c .LASF2208
C:\Users\CYMR90~1\AppData\Local\Temp\ccX1amHi.s:27376  .debug_str:0000000000018f55 .LASF2209
C:\Users\CYMR90~1\AppData\Local\Temp\ccX1amHi.s:29204  .debug_str:0000000000020460 .LASF2210
C:\Users\CYMR90~1\AppData\Local\Temp\ccX1amHi.s:24101  .debug_str:000000000000bdc8 .LASF2211
C:\Users\CYMR90~1\AppData\Local\Temp\ccX1amHi.s:22805  .debug_str:0000000000006952 .LASF2212
C:\Users\CYMR90~1\AppData\Local\Temp\ccX1amHi.s:32098  .debug_str:000000000002bbb3 .LASF2213
C:\Users\CYMR90~1\AppData\Local\Temp\ccX1amHi.s:32182  .debug_str:000000000002c184 .LASF2214
C:\Users\CYMR90~1\AppData\Local\Temp\ccX1amHi.s:26121  .debug_str:0000000000013e9c .LASF2215
C:\Users\CYMR90~1\AppData\Local\Temp\ccX1amHi.s:23791  .debug_str:000000000000a921 .LASF2216
C:\Users\CYMR90~1\AppData\Local\Temp\ccX1amHi.s:27998  .debug_str:000000000001b8ca .LASF2217
C:\Users\CYMR90~1\AppData\Local\Temp\ccX1amHi.s:27304  .debug_str:0000000000018a6b .LASF2218
C:\Users\CYMR90~1\AppData\Local\Temp\ccX1amHi.s:31950  .debug_str:000000000002b18a .LASF2219
C:\Users\CYMR90~1\AppData\Local\Temp\ccX1amHi.s:28546  .debug_str:000000000001dc44 .LASF2220
C:\Users\CYMR90~1\AppData\Local\Temp\ccX1amHi.s:29176  .debug_str:00000000000202d6 .LASF2221
C:\Users\CYMR90~1\AppData\Local\Temp\ccX1amHi.s:25805  .debug_str:0000000000012a37 .LASF2222
C:\Users\CYMR90~1\AppData\Local\Temp\ccX1amHi.s:28042  .debug_str:000000000001bb27 .LASF2223
C:\Users\CYMR90~1\AppData\Local\Temp\ccX1amHi.s:30632  .debug_str:0000000000025ebd .LASF2224
C:\Users\CYMR90~1\AppData\Local\Temp\ccX1amHi.s:21179  .debug_str:00000000000002d8 .LASF2225
C:\Users\CYMR90~1\AppData\Local\Temp\ccX1amHi.s:22263  .debug_str:0000000000004781 .LASF2226
C:\Users\CYMR90~1\AppData\Local\Temp\ccX1amHi.s:27576  .debug_str:0000000000019cb3 .LASF2227
C:\Users\CYMR90~1\AppData\Local\Temp\ccX1amHi.s:26862  .debug_str:0000000000016f7f .LASF2228
C:\Users\CYMR90~1\AppData\Local\Temp\ccX1amHi.s:28598  .debug_str:000000000001dfe0 .LASF2229
C:\Users\CYMR90~1\AppData\Local\Temp\ccX1amHi.s:22231  .debug_str:0000000000004544 .LASF2230
C:\Users\CYMR90~1\AppData\Local\Temp\ccX1amHi.s:28834  .debug_str:000000000001ee05 .LASF2231
C:\Users\CYMR90~1\AppData\Local\Temp\ccX1amHi.s:21547  .debug_str:00000000000019ff .LASF2232
C:\Users\CYMR90~1\AppData\Local\Temp\ccX1amHi.s:27564  .debug_str:0000000000019bfc .LASF2233
C:\Users\CYMR90~1\AppData\Local\Temp\ccX1amHi.s:24273  .debug_str:000000000000c8c5 .LASF2234
C:\Users\CYMR90~1\AppData\Local\Temp\ccX1amHi.s:22461  .debug_str:000000000000545b .LASF2235
C:\Users\CYMR90~1\AppData\Local\Temp\ccX1amHi.s:32130  .debug_str:000000000002bdd2 .LASF2236
C:\Users\CYMR90~1\AppData\Local\Temp\ccX1amHi.s:24743  .debug_str:000000000000e690 .LASF2237
C:\Users\CYMR90~1\AppData\Local\Temp\ccX1amHi.s:29480  .debug_str:00000000000215ed .LASF2238
C:\Users\CYMR90~1\AppData\Local\Temp\ccX1amHi.s:28502  .debug_str:000000000001d9a3 .LASF2239
C:\Users\CYMR90~1\AppData\Local\Temp\ccX1amHi.s:28434  .debug_str:000000000001d529 .LASF2240
C:\Users\CYMR90~1\AppData\Local\Temp\ccX1amHi.s:21607  .debug_str:0000000000001d81 .LASF2241
C:\Users\CYMR90~1\AppData\Local\Temp\ccX1amHi.s:29496  .debug_str:00000000000216ef .LASF2242
C:\Users\CYMR90~1\AppData\Local\Temp\ccX1amHi.s:31010  .debug_str:00000000000276b0 .LASF2243
C:\Users\CYMR90~1\AppData\Local\Temp\ccX1amHi.s:25657  .debug_str:0000000000012046 .LASF2244
C:\Users\CYMR90~1\AppData\Local\Temp\ccX1amHi.s:26870  .debug_str:0000000000017004 .LASF2245
C:\Users\CYMR90~1\AppData\Local\Temp\ccX1amHi.s:23781  .debug_str:000000000000a83e .LASF2246
C:\Users\CYMR90~1\AppData\Local\Temp\ccX1amHi.s:26443  .debug_str:0000000000015303 .LASF2247
C:\Users\CYMR90~1\AppData\Local\Temp\ccX1amHi.s:21961  .debug_str:000000000000330b .LASF2248
C:\Users\CYMR90~1\AppData\Local\Temp\ccX1amHi.s:28856  .debug_str:000000000001ef41 .LASF2249
C:\Users\CYMR90~1\AppData\Local\Temp\ccX1amHi.s:27976  .debug_str:000000000001b755 .LASF2250
C:\Users\CYMR90~1\AppData\Local\Temp\ccX1amHi.s:27028  .debug_str:000000000001797d .LASF2251
C:\Users\CYMR90~1\AppData\Local\Temp\ccX1amHi.s:30234  .debug_str:0000000000024370 .LASF2252
C:\Users\CYMR90~1\AppData\Local\Temp\ccX1amHi.s:25811  .debug_str:0000000000012a94 .LASF2253
C:\Users\CYMR90~1\AppData\Local\Temp\ccX1amHi.s:24545  .debug_str:000000000000dab9 .LASF2254
C:\Users\CYMR90~1\AppData\Local\Temp\ccX1amHi.s:23295  .debug_str:0000000000008a45 .LASF2255
C:\Users\CYMR90~1\AppData\Local\Temp\ccX1amHi.s:25211  .debug_str:00000000000103db .LASF2256
C:\Users\CYMR90~1\AppData\Local\Temp\ccX1amHi.s:28248  .debug_str:000000000001c7e1 .LASF2257
C:\Users\CYMR90~1\AppData\Local\Temp\ccX1amHi.s:25507  .debug_str:0000000000011607 .LASF2258
C:\Users\CYMR90~1\AppData\Local\Temp\ccX1amHi.s:25735  .debug_str:0000000000012542 .LASF2259
C:\Users\CYMR90~1\AppData\Local\Temp\ccX1amHi.s:25409  .debug_str:0000000000011048 .LASF2260
C:\Users\CYMR90~1\AppData\Local\Temp\ccX1amHi.s:26495  .debug_str:00000000000155dd .LASF2261
C:\Users\CYMR90~1\AppData\Local\Temp\ccX1amHi.s:21665  .debug_str:00000000000020ad .LASF2262
C:\Users\CYMR90~1\AppData\Local\Temp\ccX1amHi.s:24791  .debug_str:000000000000e9bb .LASF2263
C:\Users\CYMR90~1\AppData\Local\Temp\ccX1amHi.s:28622  .debug_str:000000000001e16c .LASF2264
C:\Users\CYMR90~1\AppData\Local\Temp\ccX1amHi.s:27662  .debug_str:000000000001a1bb .LASF2265
C:\Users\CYMR90~1\AppData\Local\Temp\ccX1amHi.s:24633  .debug_str:000000000000dff9 .LASF2266
C:\Users\CYMR90~1\AppData\Local\Temp\ccX1amHi.s:23987  .debug_str:000000000000b624 .LASF2267
C:\Users\CYMR90~1\AppData\Local\Temp\ccX1amHi.s:27036  .debug_str:0000000000017a37 .LASF2268
C:\Users\CYMR90~1\AppData\Local\Temp\ccX1amHi.s:23385  .debug_str:000000000000900b .LASF2269
C:\Users\CYMR90~1\AppData\Local\Temp\ccX1amHi.s:22285  .debug_str:0000000000004966 .LASF2270
C:\Users\CYMR90~1\AppData\Local\Temp\ccX1amHi.s:28130  .debug_str:000000000001c0d9 .LASF2271
C:\Users\CYMR90~1\AppData\Local\Temp\ccX1amHi.s:28524  .debug_str:000000000001db06 .LASF2272
C:\Users\CYMR90~1\AppData\Local\Temp\ccX1amHi.s:26333  .debug_str:0000000000014bde .LASF2273
C:\Users\CYMR90~1\AppData\Local\Temp\ccX1amHi.s:31220  .debug_str:000000000002851e .LASF2274
C:\Users\CYMR90~1\AppData\Local\Temp\ccX1amHi.s:27874  .debug_str:000000000001b0f9 .LASF2275
C:\Users\CYMR90~1\AppData\Local\Temp\ccX1amHi.s:24551  .debug_str:000000000000db24 .LASF2276
C:\Users\CYMR90~1\AppData\Local\Temp\ccX1amHi.s:22063  .debug_str:0000000000003a10 .LASF2277
C:\Users\CYMR90~1\AppData\Local\Temp\ccX1amHi.s:21345  .debug_str:0000000000000d2b .LASF2278
C:\Users\CYMR90~1\AppData\Local\Temp\ccX1amHi.s:31074  .debug_str:0000000000027a82 .LASF2279
C:\Users\CYMR90~1\AppData\Local\Temp\ccX1amHi.s:29484  .debug_str:000000000002162b .LASF2280
C:\Users\CYMR90~1\AppData\Local\Temp\ccX1amHi.s:22465  .debug_str:00000000000054a0 .LASF2281
C:\Users\CYMR90~1\AppData\Local\Temp\ccX1amHi.s:27598  .debug_str:0000000000019e2d .LASF2282
C:\Users\CYMR90~1\AppData\Local\Temp\ccX1amHi.s:26922  .debug_str:000000000001731b .LASF2283
C:\Users\CYMR90~1\AppData\Local\Temp\ccX1amHi.s:28304  .debug_str:000000000001cbe9 .LASF2284
C:\Users\CYMR90~1\AppData\Local\Temp\ccX1amHi.s:27828  .debug_str:000000000001adda .LASF2285
C:\Users\CYMR90~1\AppData\Local\Temp\ccX1amHi.s:30992  .debug_str:00000000000275bc .LASF2286
C:\Users\CYMR90~1\AppData\Local\Temp\ccX1amHi.s:25415  .debug_str:00000000000110a2 .LASF2287
C:\Users\CYMR90~1\AppData\Local\Temp\ccX1amHi.s:29630  .debug_str:0000000000021f1d .LASF2288
C:\Users\CYMR90~1\AppData\Local\Temp\ccX1amHi.s:31538  .debug_str:0000000000029922 .LASF2289
C:\Users\CYMR90~1\AppData\Local\Temp\ccX1amHi.s:31334  .debug_str:0000000000028cc8 .LASF2290
C:\Users\CYMR90~1\AppData\Local\Temp\ccX1amHi.s:32000  .debug_str:000000000002b520 .LASF2291
C:\Users\CYMR90~1\AppData\Local\Temp\ccX1amHi.s:28722  .debug_str:000000000001e784 .LASF2292
C:\Users\CYMR90~1\AppData\Local\Temp\ccX1amHi.s:22369  .debug_str:0000000000004ea2 .LASF2293
C:\Users\CYMR90~1\AppData\Local\Temp\ccX1amHi.s:31396  .debug_str:0000000000029078 .LASF2294
C:\Users\CYMR90~1\AppData\Local\Temp\ccX1amHi.s:31966  .debug_str:000000000002b2c0 .LASF2295
C:\Users\CYMR90~1\AppData\Local\Temp\ccX1amHi.s:24087  .debug_str:000000000000bc94 .LASF2296
C:\Users\CYMR90~1\AppData\Local\Temp\ccX1amHi.s:24585  .debug_str:000000000000dce0 .LASF2297
C:\Users\CYMR90~1\AppData\Local\Temp\ccX1amHi.s:23965  .debug_str:000000000000b42e .LASF2298
C:\Users\CYMR90~1\AppData\Local\Temp\ccX1amHi.s:26131  .debug_str:0000000000013f28 .LASF2299
C:\Users\CYMR90~1\AppData\Local\Temp\ccX1amHi.s:31236  .debug_str:000000000002862f .LASF2300
C:\Users\CYMR90~1\AppData\Local\Temp\ccX1amHi.s:24937  .debug_str:000000000000f280 .LASF2301
C:\Users\CYMR90~1\AppData\Local\Temp\ccX1amHi.s:28078  .debug_str:000000000001bd7a .LASF2302
C:\Users\CYMR90~1\AppData\Local\Temp\ccX1amHi.s:30364  .debug_str:0000000000024bf4 .LASF2303
C:\Users\CYMR90~1\AppData\Local\Temp\ccX1amHi.s:24543  .debug_str:000000000000da92 .LASF2304
C:\Users\CYMR90~1\AppData\Local\Temp\ccX1amHi.s:29528  .debug_str:00000000000218b0 .LASF2305
C:\Users\CYMR90~1\AppData\Local\Temp\ccX1amHi.s:21423  .debug_str:0000000000001204 .LASF2306
C:\Users\CYMR90~1\AppData\Local\Temp\ccX1amHi.s:27770  .debug_str:000000000001aa56 .LASF2307
C:\Users\CYMR90~1\AppData\Local\Temp\ccX1amHi.s:28268  .debug_str:000000000001c9b6 .LASF2308
C:\Users\CYMR90~1\AppData\Local\Temp\ccX1amHi.s:21909  .debug_str:0000000000002fc1 .LASF2309
C:\Users\CYMR90~1\AppData\Local\Temp\ccX1amHi.s:30654  .debug_str:0000000000026032 .LASF2310
C:\Users\CYMR90~1\AppData\Local\Temp\ccX1amHi.s:31474  .debug_str:0000000000029537 .LASF2311
C:\Users\CYMR90~1\AppData\Local\Temp\ccX1amHi.s:29300  .debug_str:0000000000020a94 .LASF2312
C:\Users\CYMR90~1\AppData\Local\Temp\ccX1amHi.s:31186  .debug_str:0000000000028268 .LASF2313
C:\Users\CYMR90~1\AppData\Local\Temp\ccX1amHi.s:22993  .debug_str:00000000000075ab .LASF2314
C:\Users\CYMR90~1\AppData\Local\Temp\ccX1amHi.s:29308  .debug_str:0000000000020b34 .LASF2315
C:\Users\CYMR90~1\AppData\Local\Temp\ccX1amHi.s:23053  .debug_str:0000000000007980 .LASF2316
C:\Users\CYMR90~1\AppData\Local\Temp\ccX1amHi.s:28096  .debug_str:000000000001be95 .LASF2317
C:\Users\CYMR90~1\AppData\Local\Temp\ccX1amHi.s:31230  .debug_str:00000000000285d2 .LASF2318
C:\Users\CYMR90~1\AppData\Local\Temp\ccX1amHi.s:24827  .debug_str:000000000000ec0b .LASF2319
C:\Users\CYMR90~1\AppData\Local\Temp\ccX1amHi.s:22297  .debug_str:0000000000004a22 .LASF2320
C:\Users\CYMR90~1\AppData\Local\Temp\ccX1amHi.s:21831  .debug_str:0000000000002ae2 .LASF2321
C:\Users\CYMR90~1\AppData\Local\Temp\ccX1amHi.s:32438  .debug_str:000000000002d250 .LASF2322
C:\Users\CYMR90~1\AppData\Local\Temp\ccX1amHi.s:22663  .debug_str:00000000000060a5 .LASF2323
C:\Users\CYMR90~1\AppData\Local\Temp\ccX1amHi.s:26293  .debug_str:0000000000014981 .LASF2324
C:\Users\CYMR90~1\AppData\Local\Temp\ccX1amHi.s:32028  .debug_str:000000000002b6d1 .LASF2325
C:\Users\CYMR90~1\AppData\Local\Temp\ccX1amHi.s:23759  .debug_str:000000000000a722 .LASF2326
C:\Users\CYMR90~1\AppData\Local\Temp\ccX1amHi.s:27264  .debug_str:000000000001878b .LASF2327
C:\Users\CYMR90~1\AppData\Local\Temp\ccX1amHi.s:21699  .debug_str:0000000000002298 .LASF2328
C:\Users\CYMR90~1\AppData\Local\Temp\ccX1amHi.s:26205  .debug_str:00000000000143c9 .LASF2329
C:\Users\CYMR90~1\AppData\Local\Temp\ccX1amHi.s:23047  .debug_str:0000000000007933 .LASF2330
C:\Users\CYMR90~1\AppData\Local\Temp\ccX1amHi.s:24205  .debug_str:000000000000c454 .LASF2331
C:\Users\CYMR90~1\AppData\Local\Temp\ccX1amHi.s:25255  .debug_str:000000000001067a .LASF2332
C:\Users\CYMR90~1\AppData\Local\Temp\ccX1amHi.s:29440  .debug_str:0000000000021304 .LASF2333
C:\Users\CYMR90~1\AppData\Local\Temp\ccX1amHi.s:30830  .debug_str:0000000000026b29 .LASF2334
C:\Users\CYMR90~1\AppData\Local\Temp\ccX1amHi.s:25267  .debug_str:0000000000010734 .LASF2335
C:\Users\CYMR90~1\AppData\Local\Temp\ccX1amHi.s:25669  .debug_str:0000000000012135 .LASF2336
C:\Users\CYMR90~1\AppData\Local\Temp\ccX1amHi.s:24719  .debug_str:000000000000e522 .LASF2337
C:\Users\CYMR90~1\AppData\Local\Temp\ccX1amHi.s:22677  .debug_str:00000000000061a0 .LASF2338
C:\Users\CYMR90~1\AppData\Local\Temp\ccX1amHi.s:21743  .debug_str:0000000000002502 .LASF2339
C:\Users\CYMR90~1\AppData\Local\Temp\ccX1amHi.s:28490  .debug_str:000000000001d8da .LASF2340
C:\Users\CYMR90~1\AppData\Local\Temp\ccX1amHi.s:30714  .debug_str:00000000000263c1 .LASF2341
C:\Users\CYMR90~1\AppData\Local\Temp\ccX1amHi.s:29090  .debug_str:000000000001fdc1 .LASF2342
C:\Users\CYMR90~1\AppData\Local\Temp\ccX1amHi.s:29106  .debug_str:000000000001fe99 .LASF2343
C:\Users\CYMR90~1\AppData\Local\Temp\ccX1amHi.s:30134  .debug_str:0000000000023c90 .LASF2344
C:\Users\CYMR90~1\AppData\Local\Temp\ccX1amHi.s:30936  .debug_str:0000000000027174 .LASF2345
C:\Users\CYMR90~1\AppData\Local\Temp\ccX1amHi.s:28194  .debug_str:000000000001c4c7 .LASF2346
C:\Users\CYMR90~1\AppData\Local\Temp\ccX1amHi.s:28360  .debug_str:000000000001d036 .LASF2347
C:\Users\CYMR90~1\AppData\Local\Temp\ccX1amHi.s:23267  .debug_str:000000000000889d .LASF2348
C:\Users\CYMR90~1\AppData\Local\Temp\ccX1amHi.s:26017  .debug_str:0000000000013873 .LASF2349
C:\Users\CYMR90~1\AppData\Local\Temp\ccX1amHi.s:29578  .debug_str:0000000000021ba4 .LASF2350
C:\Users\CYMR90~1\AppData\Local\Temp\ccX1amHi.s:31832  .debug_str:000000000002aa81 .LASF2351
C:\Users\CYMR90~1\AppData\Local\Temp\ccX1amHi.s:30350  .debug_str:0000000000024b05 .LASF2352
C:\Users\CYMR90~1\AppData\Local\Temp\ccX1amHi.s:22831  .debug_str:0000000000006adf .LASF2353
C:\Users\CYMR90~1\AppData\Local\Temp\ccX1amHi.s:25163  .debug_str:00000000000100cd .LASF2354
C:\Users\CYMR90~1\AppData\Local\Temp\ccX1amHi.s:22775  .debug_str:0000000000006742 .LASF2355
C:\Users\CYMR90~1\AppData\Local\Temp\ccX1amHi.s:32238  .debug_str:000000000002c575 .LASF2356
C:\Users\CYMR90~1\AppData\Local\Temp\ccX1amHi.s:31662  .debug_str:000000000002a049 .LASF2357
C:\Users\CYMR90~1\AppData\Local\Temp\ccX1amHi.s:24459  .debug_str:000000000000d5b9 .LASF2358
C:\Users\CYMR90~1\AppData\Local\Temp\ccX1amHi.s:23499  .debug_str:0000000000009709 .LASF2359
C:\Users\CYMR90~1\AppData\Local\Temp\ccX1amHi.s:22057  .debug_str:00000000000039c3 .LASF2360
C:\Users\CYMR90~1\AppData\Local\Temp\ccX1amHi.s:25175  .debug_str:000000000001019b .LASF2361
C:\Users\CYMR90~1\AppData\Local\Temp\ccX1amHi.s:23943  .debug_str:000000000000b32f .LASF2362
C:\Users\CYMR90~1\AppData\Local\Temp\ccX1amHi.s:22707  .debug_str:000000000000633e .LASF2363
C:\Users\CYMR90~1\AppData\Local\Temp\ccX1amHi.s:30140  .debug_str:0000000000023ce0 .LASF2364
C:\Users\CYMR90~1\AppData\Local\Temp\ccX1amHi.s:29316  .debug_str:0000000000020baf .LASF2365
C:\Users\CYMR90~1\AppData\Local\Temp\ccX1amHi.s:25729  .debug_str:00000000000124e1 .LASF2366
C:\Users\CYMR90~1\AppData\Local\Temp\ccX1amHi.s:30386  .debug_str:0000000000024d78 .LASF2367
C:\Users\CYMR90~1\AppData\Local\Temp\ccX1amHi.s:31006  .debug_str:0000000000027683 .LASF2368
C:\Users\CYMR90~1\AppData\Local\Temp\ccX1amHi.s:23485  .debug_str:00000000000095e6 .LASF2369
C:\Users\CYMR90~1\AppData\Local\Temp\ccX1amHi.s:24821  .debug_str:000000000000ebb4 .LASF2370
C:\Users\CYMR90~1\AppData\Local\Temp\ccX1amHi.s:22841  .debug_str:0000000000006b9c .LASF2371
C:\Users\CYMR90~1\AppData\Local\Temp\ccX1amHi.s:25229  .debug_str:00000000000104e3 .LASF2372
C:\Users\CYMR90~1\AppData\Local\Temp\ccX1amHi.s:32110  .debug_str:000000000002bc77 .LASF2373
C:\Users\CYMR90~1\AppData\Local\Temp\ccX1amHi.s:30784  .debug_str:0000000000026857 .LASF2374
C:\Users\CYMR90~1\AppData\Local\Temp\ccX1amHi.s:21283  .debug_str:000000000000092b .LASF2375
C:\Users\CYMR90~1\AppData\Local\Temp\ccX1amHi.s:25629  .debug_str:0000000000011ea1 .LASF2376
C:\Users\CYMR90~1\AppData\Local\Temp\ccX1amHi.s:28802  .debug_str:000000000001ec5a .LASF2377
C:\Users\CYMR90~1\AppData\Local\Temp\ccX1amHi.s:32060  .debug_str:000000000002b94c .LASF2378
C:\Users\CYMR90~1\AppData\Local\Temp\ccX1amHi.s:23945  .debug_str:000000000000b354 .LASF2379
C:\Users\CYMR90~1\AppData\Local\Temp\ccX1amHi.s:22887  .debug_str:0000000000006e97 .LASF2380
C:\Users\CYMR90~1\AppData\Local\Temp\ccX1amHi.s:30342  .debug_str:0000000000024a82 .LASF2381
C:\Users\CYMR90~1\AppData\Local\Temp\ccX1amHi.s:30102  .debug_str:0000000000023adb .LASF2382
C:\Users\CYMR90~1\AppData\Local\Temp\ccX1amHi.s:25399  .debug_str:0000000000010fed .LASF2383
C:\Users\CYMR90~1\AppData\Local\Temp\ccX1amHi.s:26856  .debug_str:0000000000016f21 .LASF2384
C:\Users\CYMR90~1\AppData\Local\Temp\ccX1amHi.s:31804  .debug_str:000000000002a8fb .LASF2385
C:\Users\CYMR90~1\AppData\Local\Temp\ccX1amHi.s:21581  .debug_str:0000000000001bfd .LASF2386
C:\Users\CYMR90~1\AppData\Local\Temp\ccX1amHi.s:26301  .debug_str:00000000000149e9 .LASF2387
C:\Users\CYMR90~1\AppData\Local\Temp\ccX1amHi.s:31008  .debug_str:0000000000027695 .LASF2388
C:\Users\CYMR90~1\AppData\Local\Temp\ccX1amHi.s:27932  .debug_str:000000000001b4c7 .LASF2389
C:\Users\CYMR90~1\AppData\Local\Temp\ccX1amHi.s:29098  .debug_str:000000000001fe39 .LASF2390
C:\Users\CYMR90~1\AppData\Local\Temp\ccX1amHi.s:22437  .debug_str:00000000000052d3 .LASF2391
C:\Users\CYMR90~1\AppData\Local\Temp\ccX1amHi.s:27190  .debug_str:0000000000018364 .LASF2392
C:\Users\CYMR90~1\AppData\Local\Temp\ccX1amHi.s:31902  .debug_str:000000000002aec7 .LASF2393
C:\Users\CYMR90~1\AppData\Local\Temp\ccX1amHi.s:28054  .debug_str:000000000001bbe6 .LASF2394
C:\Users\CYMR90~1\AppData\Local\Temp\ccX1amHi.s:31068  .debug_str:0000000000027a1d .LASF2395
C:\Users\CYMR90~1\AppData\Local\Temp\ccX1amHi.s:24471  .debug_str:000000000000d682 .LASF2396
C:\Users\CYMR90~1\AppData\Local\Temp\ccX1amHi.s:29154  .debug_str:0000000000020187 .LASF2397
C:\Users\CYMR90~1\AppData\Local\Temp\ccX1amHi.s:25625  .debug_str:0000000000011e57 .LASF2398
C:\Users\CYMR90~1\AppData\Local\Temp\ccX1amHi.s:27244  .debug_str:000000000001868f .LASF2399
C:\Users\CYMR90~1\AppData\Local\Temp\ccX1amHi.s:31962  .debug_str:000000000002b28f .LASF2400
C:\Users\CYMR90~1\AppData\Local\Temp\ccX1amHi.s:31836  .debug_str:000000000002aab9 .LASF2401
C:\Users\CYMR90~1\AppData\Local\Temp\ccX1amHi.s:23731  .debug_str:000000000000a58f .LASF2402
C:\Users\CYMR90~1\AppData\Local\Temp\ccX1amHi.s:26940  .debug_str:0000000000017429 .LASF2403
C:\Users\CYMR90~1\AppData\Local\Temp\ccX1amHi.s:30144  .debug_str:0000000000023d11 .LASF2404
C:\Users\CYMR90~1\AppData\Local\Temp\ccX1amHi.s:22085  .debug_str:0000000000003b50 .LASF2405
C:\Users\CYMR90~1\AppData\Local\Temp\ccX1amHi.s:25275  .debug_str:000000000001086a .LASF2406
C:\Users\CYMR90~1\AppData\Local\Temp\ccX1amHi.s:28462  .debug_str:000000000001d6ff .LASF2407
C:\Users\CYMR90~1\AppData\Local\Temp\ccX1amHi.s:31688  .debug_str:000000000002a1f7 .LASF2408
C:\Users\CYMR90~1\AppData\Local\Temp\ccX1amHi.s:26061  .debug_str:0000000000013af7 .LASF2409
C:\Users\CYMR90~1\AppData\Local\Temp\ccX1amHi.s:24449  .debug_str:000000000000d512 .LASF2410
C:\Users\CYMR90~1\AppData\Local\Temp\ccX1amHi.s:27818  .debug_str:000000000001ad37 .LASF2411
C:\Users\CYMR90~1\AppData\Local\Temp\ccX1amHi.s:21175  .debug_str:0000000000000297 .LASF2412
C:\Users\CYMR90~1\AppData\Local\Temp\ccX1amHi.s:29772  .debug_str:0000000000022725 .LASF2413
C:\Users\CYMR90~1\AppData\Local\Temp\ccX1amHi.s:30556  .debug_str:00000000000259f3 .LASF2414
C:\Users\CYMR90~1\AppData\Local\Temp\ccX1amHi.s:23981  .debug_str:000000000000b55b .LASF2415
C:\Users\CYMR90~1\AppData\Local\Temp\ccX1amHi.s:28642  .debug_str:000000000001e2a4 .LASF2416
C:\Users\CYMR90~1\AppData\Local\Temp\ccX1amHi.s:24303  .debug_str:000000000000cba6 .LASF2417
C:\Users\CYMR90~1\AppData\Local\Temp\ccX1amHi.s:26735  .debug_str:00000000000164f1 .LASF2418
C:\Users\CYMR90~1\AppData\Local\Temp\ccX1amHi.s:28858  .debug_str:000000000001ef70 .LASF2419
C:\Users\CYMR90~1\AppData\Local\Temp\ccX1amHi.s:25935  .debug_str:00000000000132cb .LASF2420
C:\Users\CYMR90~1\AppData\Local\Temp\ccX1amHi.s:30608  .debug_str:0000000000025d4d .LASF2421
C:\Users\CYMR90~1\AppData\Local\Temp\ccX1amHi.s:24023  .debug_str:000000000000b893 .LASF2422
C:\Users\CYMR90~1\AppData\Local\Temp\ccX1amHi.s:28694  .debug_str:000000000001e5d1 .LASF2423
C:\Users\CYMR90~1\AppData\Local\Temp\ccX1amHi.s:22053  .debug_str:0000000000003978 .LASF2424
C:\Users\CYMR90~1\AppData\Local\Temp\ccX1amHi.s:26795  .debug_str:00000000000168dd .LASF2425
C:\Users\CYMR90~1\AppData\Local\Temp\ccX1amHi.s:23861  .debug_str:000000000000ad98 .LASF2426
C:\Users\CYMR90~1\AppData\Local\Temp\ccX1amHi.s:26966  .debug_str:00000000000175a8 .LASF2427
C:\Users\CYMR90~1\AppData\Local\Temp\ccX1amHi.s:30182  .debug_str:0000000000023f60 .LASF2428
C:\Users\CYMR90~1\AppData\Local\Temp\ccX1amHi.s:22037  .debug_str:000000000000385d .LASF2429
C:\Users\CYMR90~1\AppData\Local\Temp\ccX1amHi.s:25309  .debug_str:0000000000010a5f .LASF2430
C:\Users\CYMR90~1\AppData\Local\Temp\ccX1amHi.s:25555  .debug_str:00000000000119c1 .LASF2431
C:\Users\CYMR90~1\AppData\Local\Temp\ccX1amHi.s:31728  .debug_str:000000000002a421 .LASF2432
C:\Users\CYMR90~1\AppData\Local\Temp\ccX1amHi.s:22239  .debug_str:00000000000045d4 .LASF2433
C:\Users\CYMR90~1\AppData\Local\Temp\ccX1amHi.s:31998  .debug_str:000000000002b509 .LASF2434
C:\Users\CYMR90~1\AppData\Local\Temp\ccX1amHi.s:29948  .debug_str:0000000000023195 .LASF2435
C:\Users\CYMR90~1\AppData\Local\Temp\ccX1amHi.s:31286  .debug_str:00000000000289ae .LASF2436
C:\Users\CYMR90~1\AppData\Local\Temp\ccX1amHi.s:24691  .debug_str:000000000000e376 .LASF2437
C:\Users\CYMR90~1\AppData\Local\Temp\ccX1amHi.s:29378  .debug_str:0000000000020f85 .LASF2438
C:\Users\CYMR90~1\AppData\Local\Temp\ccX1amHi.s:22727  .debug_str:0000000000006486 .LASF2439
C:\Users\CYMR90~1\AppData\Local\Temp\ccX1amHi.s:27484  .debug_str:000000000001966b .LASF2440
C:\Users\CYMR90~1\AppData\Local\Temp\ccX1amHi.s:32184  .debug_str:000000000002c1ac .LASF2441
C:\Users\CYMR90~1\AppData\Local\Temp\ccX1amHi.s:25565  .debug_str:0000000000011a3a .LASF2442
C:\Users\CYMR90~1\AppData\Local\Temp\ccX1amHi.s:30244  .debug_str:0000000000024453 .LASF2443
C:\Users\CYMR90~1\AppData\Local\Temp\ccX1amHi.s:24155  .debug_str:000000000000c16d .LASF2444
C:\Users\CYMR90~1\AppData\Local\Temp\ccX1amHi.s:29434  .debug_str:0000000000021299 .LASF2445
C:\Users\CYMR90~1\AppData\Local\Temp\ccX1amHi.s:22779  .debug_str:000000000000677b .LASF2446
C:\Users\CYMR90~1\AppData\Local\Temp\ccX1amHi.s:27530  .debug_str:00000000000199d4 .LASF2447
C:\Users\CYMR90~1\AppData\Local\Temp\ccX1amHi.s:32234  .debug_str:000000000002c536 .LASF2448
C:\Users\CYMR90~1\AppData\Local\Temp\ccX1amHi.s:25621  .debug_str:0000000000011e09 .LASF2449
C:\Users\CYMR90~1\AppData\Local\Temp\ccX1amHi.s:30292  .debug_str:0000000000024735 .LASF2450
C:\Users\CYMR90~1\AppData\Local\Temp\ccX1amHi.s:29120  .debug_str:000000000001ff6d .LASF2451
C:\Users\CYMR90~1\AppData\Local\Temp\ccX1amHi.s:30404  .debug_str:0000000000024e87 .LASF2452
C:\Users\CYMR90~1\AppData\Local\Temp\ccX1amHi.s:28770  .debug_str:000000000001ea87 .LASF2453
C:\Users\CYMR90~1\AppData\Local\Temp\ccX1amHi.s:27374  .debug_str:0000000000018f3e .LASF2454
C:\Users\CYMR90~1\AppData\Local\Temp\ccX1amHi.s:30558  .debug_str:0000000000025a0c .LASF2455
C:\Users\CYMR90~1\AppData\Local\Temp\ccX1amHi.s:23923  .debug_str:000000000000b217 .LASF2456
C:\Users\CYMR90~1\AppData\Local\Temp\ccX1amHi.s:25701  .debug_str:0000000000012320 .LASF2457
C:\Users\CYMR90~1\AppData\Local\Temp\ccX1amHi.s:28866  .debug_str:000000000001efec .LASF2458
C:\Users\CYMR90~1\AppData\Local\Temp\ccX1amHi.s:30332  .debug_str:00000000000249f8 .LASF2459
C:\Users\CYMR90~1\AppData\Local\Temp\ccX1amHi.s:23927  .debug_str:000000000000b254 .LASF2460
C:\Users\CYMR90~1\AppData\Local\Temp\ccX1amHi.s:29986  .debug_str:000000000002338a .LASF2461
C:\Users\CYMR90~1\AppData\Local\Temp\ccX1amHi.s:32056  .debug_str:000000000002b8bc .LASF2462
C:\Users\CYMR90~1\AppData\Local\Temp\ccX1amHi.s:28346  .debug_str:000000000001cf6d .LASF2463
C:\Users\CYMR90~1\AppData\Local\Temp\ccX1amHi.s:21705  .debug_str:00000000000022e4 .LASF2464
C:\Users\CYMR90~1\AppData\Local\Temp\ccX1amHi.s:26423  .debug_str:00000000000151c6 .LASF2465
C:\Users\CYMR90~1\AppData\Local\Temp\ccX1amHi.s:31136  .debug_str:0000000000027ee9 .LASF2466
C:\Users\CYMR90~1\AppData\Local\Temp\ccX1amHi.s:24531  .debug_str:000000000000d9e1 .LASF2467
C:\Users\CYMR90~1\AppData\Local\Temp\ccX1amHi.s:29220  .debug_str:0000000000020593 .LASF2468
C:\Users\CYMR90~1\AppData\Local\Temp\ccX1amHi.s:27316  .debug_str:0000000000018b13 .LASF2469
C:\Users\CYMR90~1\AppData\Local\Temp\ccX1amHi.s:22113  .debug_str:0000000000003d29 .LASF2470
C:\Users\CYMR90~1\AppData\Local\Temp\ccX1amHi.s:21757  .debug_str:000000000000260d .LASF2471
C:\Users\CYMR90~1\AppData\Local\Temp\ccX1amHi.s:25989  .debug_str:000000000001369d .LASF2472
C:\Users\CYMR90~1\AppData\Local\Temp\ccX1amHi.s:22179  .debug_str:00000000000041e9 .LASF2473
C:\Users\CYMR90~1\AppData\Local\Temp\ccX1amHi.s:24589  .debug_str:000000000000dd31 .LASF2474
C:\Users\CYMR90~1\AppData\Local\Temp\ccX1amHi.s:29276  .debug_str:0000000000020907 .LASF2475
C:\Users\CYMR90~1\AppData\Local\Temp\ccX1amHi.s:31414  .debug_str:000000000002919a .LASF2476
C:\Users\CYMR90~1\AppData\Local\Temp\ccX1amHi.s:21895  .debug_str:0000000000002eb4 .LASF2477
C:\Users\CYMR90~1\AppData\Local\Temp\ccX1amHi.s:26505  .debug_str:0000000000015656 .LASF2478
C:\Users\CYMR90~1\AppData\Local\Temp\ccX1amHi.s:31176  .debug_str:00000000000281e0 .LASF2479
C:\Users\CYMR90~1\AppData\Local\Temp\ccX1amHi.s:29546  .debug_str:00000000000219e5 .LASF2480
C:\Users\CYMR90~1\AppData\Local\Temp\ccX1amHi.s:27938  .debug_str:000000000001b520 .LASF2481
C:\Users\CYMR90~1\AppData\Local\Temp\ccX1amHi.s:28060  .debug_str:000000000001bc31 .LASF2482
C:\Users\CYMR90~1\AppData\Local\Temp\ccX1amHi.s:31262  .debug_str:0000000000028841 .LASF2483
C:\Users\CYMR90~1\AppData\Local\Temp\ccX1amHi.s:23141  .debug_str:0000000000007ff3 .LASF2484
C:\Users\CYMR90~1\AppData\Local\Temp\ccX1amHi.s:26275  .debug_str:000000000001485e .LASF2485
C:\Users\CYMR90~1\AppData\Local\Temp\ccX1amHi.s:25993  .debug_str:00000000000136ca .LASF2486
C:\Users\CYMR90~1\AppData\Local\Temp\ccX1amHi.s:30668  .debug_str:0000000000026113 .LASF2487
C:\Users\CYMR90~1\AppData\Local\Temp\ccX1amHi.s:24073  .debug_str:000000000000bbb4 .LASF2488
C:\Users\CYMR90~1\AppData\Local\Temp\ccX1amHi.s:28746  .debug_str:000000000001e8cc .LASF2489
C:\Users\CYMR90~1\AppData\Local\Temp\ccX1amHi.s:22103  .debug_str:0000000000003c96 .LASF2490
C:\Users\CYMR90~1\AppData\Local\Temp\ccX1amHi.s:26858  .debug_str:0000000000016f3a .LASF2491
C:\Users\CYMR90~1\AppData\Local\Temp\ccX1amHi.s:31556  .debug_str:0000000000029a2a .LASF2492
C:\Users\CYMR90~1\AppData\Local\Temp\ccX1amHi.s:24951  .debug_str:000000000000f33f .LASF2493
C:\Users\CYMR90~1\AppData\Local\Temp\ccX1amHi.s:22999  .debug_str:000000000000760c .LASF2494
C:\Users\CYMR90~1\AppData\Local\Temp\ccX1amHi.s:24123  .debug_str:000000000000bf4c .LASF2495
C:\Users\CYMR90~1\AppData\Local\Temp\ccX1amHi.s:28792  .debug_str:000000000001ebe5 .LASF2496
C:\Users\CYMR90~1\AppData\Local\Temp\ccX1amHi.s:22151  .debug_str:0000000000003fa6 .LASF2497
C:\Users\CYMR90~1\AppData\Local\Temp\ccX1amHi.s:21549  .debug_str:0000000000001a20 .LASF2498
C:\Users\CYMR90~1\AppData\Local\Temp\ccX1amHi.s:31612  .debug_str:0000000000029d7f .LASF2499
C:\Users\CYMR90~1\AppData\Local\Temp\ccX1amHi.s:25015  .debug_str:000000000000f723 .LASF2500
C:\Users\CYMR90~1\AppData\Local\Temp\ccX1amHi.s:24733  .debug_str:000000000000e5f3 .LASF2501
C:\Users\CYMR90~1\AppData\Local\Temp\ccX1amHi.s:27948  .debug_str:000000000001b5ce .LASF2502
C:\Users\CYMR90~1\AppData\Local\Temp\ccX1amHi.s:31146  .debug_str:0000000000027f90 .LASF2503
C:\Users\CYMR90~1\AppData\Local\Temp\ccX1amHi.s:23017  .debug_str:0000000000007749 .LASF2504
C:\Users\CYMR90~1\AppData\Local\Temp\ccX1amHi.s:26155  .debug_str:000000000001409d .LASF2505
C:\Users\CYMR90~1\AppData\Local\Temp\ccX1amHi.s:29376  .debug_str:0000000000020f72 .LASF2506
C:\Users\CYMR90~1\AppData\Local\Temp\ccX1amHi.s:31542  .debug_str:0000000000029967 .LASF2507
C:\Users\CYMR90~1\AppData\Local\Temp\ccX1amHi.s:24497  .debug_str:000000000000d7f7 .LASF2508
C:\Users\CYMR90~1\AppData\Local\Temp\ccX1amHi.s:27720  .debug_str:000000000001a6a9 .LASF2509
C:\Users\CYMR90~1\AppData\Local\Temp\ccX1amHi.s:30904  .debug_str:0000000000026fc8 .LASF2510
C:\Users\CYMR90~1\AppData\Local\Temp\ccX1amHi.s:31234  .debug_str:000000000002861a .LASF2511
C:\Users\CYMR90~1\AppData\Local\Temp\ccX1amHi.s:24635  .debug_str:000000000000e019 .LASF2512
C:\Users\CYMR90~1\AppData\Local\Temp\ccX1amHi.s:29320  .debug_str:0000000000020bde .LASF2513
C:\Users\CYMR90~1\AppData\Local\Temp\ccX1amHi.s:22655  .debug_str:000000000000600e .LASF2514
C:\Users\CYMR90~1\AppData\Local\Temp\ccX1amHi.s:27420  .debug_str:00000000000192ae .LASF2515
C:\Users\CYMR90~1\AppData\Local\Temp\ccX1amHi.s:28198  .debug_str:000000000001c503 .LASF2516
C:\Users\CYMR90~1\AppData\Local\Temp\ccX1amHi.s:25505  .debug_str:00000000000115f2 .LASF2517
C:\Users\CYMR90~1\AppData\Local\Temp\ccX1amHi.s:30192  .debug_str:0000000000023fd0 .LASF2518
C:\Users\CYMR90~1\AppData\Local\Temp\ccX1amHi.s:28286  .debug_str:000000000001caff .LASF2519
C:\Users\CYMR90~1\AppData\Local\Temp\ccX1amHi.s:29468  .debug_str:0000000000021492 .LASF2520
C:\Users\CYMR90~1\AppData\Local\Temp\ccX1amHi.s:22811  .debug_str:00000000000069ad .LASF2521
C:\Users\CYMR90~1\AppData\Local\Temp\ccX1amHi.s:27554  .debug_str:0000000000019b64 .LASF2522
C:\Users\CYMR90~1\AppData\Local\Temp\ccX1amHi.s:32262  .debug_str:000000000002c6f4 .LASF2523
C:\Users\CYMR90~1\AppData\Local\Temp\ccX1amHi.s:25649  .debug_str:0000000000011fc7 .LASF2524
C:\Users\CYMR90~1\AppData\Local\Temp\ccX1amHi.s:30314  .debug_str:0000000000024852 .LASF2525
C:\Users\CYMR90~1\AppData\Local\Temp\ccX1amHi.s:27690  .debug_str:000000000001a521 .LASF2526
C:\Users\CYMR90~1\AppData\Local\Temp\ccX1amHi.s:27482  .debug_str:000000000001965a .LASF2527
C:\Users\CYMR90~1\AppData\Local\Temp\ccX1amHi.s:25999  .debug_str:0000000000013737 .LASF2528
C:\Users\CYMR90~1\AppData\Local\Temp\ccX1amHi.s:31198  .debug_str:00000000000283b9 .LASF2529
C:\Users\CYMR90~1\AppData\Local\Temp\ccX1amHi.s:23667  .debug_str:000000000000a1a9 .LASF2530
C:\Users\CYMR90~1\AppData\Local\Temp\ccX1amHi.s:27734  .debug_str:000000000001a796 .LASF2531
C:\Users\CYMR90~1\AppData\Local\Temp\ccX1amHi.s:28380  .debug_str:000000000001d204 .LASF2532
C:\Users\CYMR90~1\AppData\Local\Temp\ccX1amHi.s:26882  .debug_str:00000000000170cb .LASF2533
C:\Users\CYMR90~1\AppData\Local\Temp\ccX1amHi.s:30794  .debug_str:00000000000268f5 .LASF2534
C:\Users\CYMR90~1\AppData\Local\Temp\ccX1amHi.s:25939  .debug_str:00000000000132fc .LASF2535
C:\Users\CYMR90~1\AppData\Local\Temp\ccX1amHi.s:21211  .debug_str:00000000000004d7 .LASF2536
C:\Users\CYMR90~1\AppData\Local\Temp\ccX1amHi.s:31678  .debug_str:000000000002a15c .LASF2537
C:\Users\CYMR90~1\AppData\Local\Temp\ccX1amHi.s:26513  .debug_str:00000000000156c6 .LASF2538
C:\Users\CYMR90~1\AppData\Local\Temp\ccX1amHi.s:21327  .debug_str:0000000000000c32 .LASF2539
C:\Users\CYMR90~1\AppData\Local\Temp\ccX1amHi.s:28478  .debug_str:000000000001d83d .LASF2540
C:\Users\CYMR90~1\AppData\Local\Temp\ccX1amHi.s:23795  .debug_str:000000000000a972 .LASF2541
C:\Users\CYMR90~1\AppData\Local\Temp\ccX1amHi.s:30362  .debug_str:0000000000024bce .LASF2542
C:\Users\CYMR90~1\AppData\Local\Temp\ccX1amHi.s:22469  .debug_str:00000000000054cf .LASF2543
C:\Users\CYMR90~1\AppData\Local\Temp\ccX1amHi.s:22079  .debug_str:0000000000003af3 .LASF2544
C:\Users\CYMR90~1\AppData\Local\Temp\ccX1amHi.s:26199  .debug_str:0000000000014371 .LASF2545
C:\Users\CYMR90~1\AppData\Local\Temp\ccX1amHi.s:24159  .debug_str:000000000000c1a1 .LASF2546
C:\Users\CYMR90~1\AppData\Local\Temp\ccX1amHi.s:28946  .debug_str:000000000001f4f9 .LASF2547
C:\Users\CYMR90~1\AppData\Local\Temp\ccX1amHi.s:24717  .debug_str:000000000000e4fd .LASF2548
C:\Users\CYMR90~1\AppData\Local\Temp\ccX1amHi.s:28758  .debug_str:000000000001e9ad .LASF2549
C:\Users\CYMR90~1\AppData\Local\Temp\ccX1amHi.s:32334  .debug_str:000000000002cbb4 .LASF2550
C:\Users\CYMR90~1\AppData\Local\Temp\ccX1amHi.s:22589  .debug_str:0000000000005c19 .LASF2551
C:\Users\CYMR90~1\AppData\Local\Temp\ccX1amHi.s:27718  .debug_str:000000000001a68b .LASF2552
C:\Users\CYMR90~1\AppData\Local\Temp\ccX1amHi.s:23883  .debug_str:000000000000aef4 .LASF2553
C:\Users\CYMR90~1\AppData\Local\Temp\ccX1amHi.s:30500  .debug_str:000000000002558b .LASF2554
C:\Users\CYMR90~1\AppData\Local\Temp\ccX1amHi.s:21869  .debug_str:0000000000002d33 .LASF2555
C:\Users\CYMR90~1\AppData\Local\Temp\ccX1amHi.s:32220  .debug_str:000000000002c40b .LASF2556
C:\Users\CYMR90~1\AppData\Local\Temp\ccX1amHi.s:21473  .debug_str:00000000000014d5 .LASF2557
C:\Users\CYMR90~1\AppData\Local\Temp\ccX1amHi.s:26175  .debug_str:00000000000141f0 .LASF2558
C:\Users\CYMR90~1\AppData\Local\Temp\ccX1amHi.s:29710  .debug_str:00000000000223dc .LASF2559
C:\Users\CYMR90~1\AppData\Local\Temp\ccX1amHi.s:26091  .debug_str:0000000000013cfe .LASF2560
C:\Users\CYMR90~1\AppData\Local\Temp\ccX1amHi.s:25885  .debug_str:0000000000012f89 .LASF2561
C:\Users\CYMR90~1\AppData\Local\Temp\ccX1amHi.s:28752  .debug_str:000000000001e942 .LASF2562
C:\Users\CYMR90~1\AppData\Local\Temp\ccX1amHi.s:24013  .debug_str:000000000000b7ce .LASF2563
C:\Users\CYMR90~1\AppData\Local\Temp\ccX1amHi.s:22869  .debug_str:0000000000006d57 .LASF2564
C:\Users\CYMR90~1\AppData\Local\Temp\ccX1amHi.s:29054  .debug_str:000000000001fb4d .LASF2565
C:\Users\CYMR90~1\AppData\Local\Temp\ccX1amHi.s:31566  .debug_str:0000000000029ab8 .LASF2566
C:\Users\CYMR90~1\AppData\Local\Temp\ccX1amHi.s:27034  .debug_str:0000000000017a07 .LASF2567
C:\Users\CYMR90~1\AppData\Local\Temp\ccX1amHi.s:28396  .debug_str:000000000001d2f2 .LASF2568
C:\Users\CYMR90~1\AppData\Local\Temp\ccX1amHi.s:26263  .debug_str:000000000001479c .LASF2569
C:\Users\CYMR90~1\AppData\Local\Temp\ccX1amHi.s:24541  .debug_str:000000000000da7a .LASF2570
C:\Users\CYMR90~1\AppData\Local\Temp\ccX1amHi.s:27902  .debug_str:000000000001b2e0 .LASF2571
C:\Users\CYMR90~1\AppData\Local\Temp\ccX1amHi.s:31942  .debug_str:000000000002b11c .LASF2572
C:\Users\CYMR90~1\AppData\Local\Temp\ccX1amHi.s:22387  .debug_str:0000000000004fac .LASF2573
C:\Users\CYMR90~1\AppData\Local\Temp\ccX1amHi.s:23029  .debug_str:0000000000007805 .LASF2574
C:\Users\CYMR90~1\AppData\Local\Temp\ccX1amHi.s:31374  .debug_str:0000000000028f3a .LASF2575
C:\Users\CYMR90~1\AppData\Local\Temp\ccX1amHi.s:27404  .debug_str:00000000000191a0 .LASF2576
C:\Users\CYMR90~1\AppData\Local\Temp\ccX1amHi.s:30438  .debug_str:000000000002505a .LASF2577
C:\Users\CYMR90~1\AppData\Local\Temp\ccX1amHi.s:24395  .debug_str:000000000000d0fa .LASF2578
C:\Users\CYMR90~1\AppData\Local\Temp\ccX1amHi.s:29608  .debug_str:0000000000021d8c .LASF2579
C:\Users\CYMR90~1\AppData\Local\Temp\ccX1amHi.s:23007  .debug_str:000000000000768b .LASF2580
C:\Users\CYMR90~1\AppData\Local\Temp\ccX1amHi.s:28278  .debug_str:000000000001ca6f .LASF2581
C:\Users\CYMR90~1\AppData\Local\Temp\ccX1amHi.s:22061  .debug_str:00000000000039f5 .LASF2582
C:\Users\CYMR90~1\AppData\Local\Temp\ccX1amHi.s:27360  .debug_str:0000000000018e4b .LASF2583
C:\Users\CYMR90~1\AppData\Local\Temp\ccX1amHi.s:21259  .debug_str:00000000000007b9 .LASF2584
C:\Users\CYMR90~1\AppData\Local\Temp\ccX1amHi.s:29146  .debug_str:0000000000020125 .LASF2585
C:\Users\CYMR90~1\AppData\Local\Temp\ccX1amHi.s:31282  .debug_str:000000000002897c .LASF2586
C:\Users\CYMR90~1\AppData\Local\Temp\ccX1amHi.s:23169  .debug_str:000000000000826f .LASF2587
C:\Users\CYMR90~1\AppData\Local\Temp\ccX1amHi.s:23819  .debug_str:000000000000aae8 .LASF2588
C:\Users\CYMR90~1\AppData\Local\Temp\ccX1amHi.s:29604  .debug_str:0000000000021d50 .LASF2589
C:\Users\CYMR90~1\AppData\Local\Temp\ccX1amHi.s:21389  .debug_str:000000000000100e .LASF2590
C:\Users\CYMR90~1\AppData\Local\Temp\ccX1amHi.s:24643  .debug_str:000000000000e090 .LASF2591
C:\Users\CYMR90~1\AppData\Local\Temp\ccX1amHi.s:27870  .debug_str:000000000001b0bf .LASF2592
C:\Users\CYMR90~1\AppData\Local\Temp\ccX1amHi.s:31044  .debug_str:00000000000278ad .LASF2593
C:\Users\CYMR90~1\AppData\Local\Temp\ccX1amHi.s:22913  .debug_str:000000000000703a .LASF2594
C:\Users\CYMR90~1\AppData\Local\Temp\ccX1amHi.s:26147  .debug_str:000000000001400e .LASF2595
C:\Users\CYMR90~1\AppData\Local\Temp\ccX1amHi.s:22583  .debug_str:0000000000005bc9 .LASF2596
C:\Users\CYMR90~1\AppData\Local\Temp\ccX1amHi.s:27354  .debug_str:0000000000018e0c .LASF2597
C:\Users\CYMR90~1\AppData\Local\Temp\ccX1amHi.s:32066  .debug_str:000000000002b9a5 .LASF2598
C:\Users\CYMR90~1\AppData\Local\Temp\ccX1amHi.s:25449  .debug_str:00000000000112ac .LASF2599
C:\Users\CYMR90~1\AppData\Local\Temp\ccX1amHi.s:30122  .debug_str:0000000000023bfc .LASF2600
C:\Users\CYMR90~1\AppData\Local\Temp\ccX1amHi.s:23515  .debug_str:00000000000097e8 .LASF2601
C:\Users\CYMR90~1\AppData\Local\Temp\ccX1amHi.s:23895  .debug_str:000000000000b07d .LASF2602
C:\Users\CYMR90~1\AppData\Local\Temp\ccX1amHi.s:24549  .debug_str:000000000000db0a .LASF2603
C:\Users\CYMR90~1\AppData\Local\Temp\ccX1amHi.s:29846  .debug_str:0000000000022b59 .LASF2604
C:\Users\CYMR90~1\AppData\Local\Temp\ccX1amHi.s:27086  .debug_str:0000000000017d2b .LASF2605
C:\Users\CYMR90~1\AppData\Local\Temp\ccX1amHi.s:22305  .debug_str:0000000000004ab0 .LASF2606
C:\Users\CYMR90~1\AppData\Local\Temp\ccX1amHi.s:23765  .debug_str:000000000000a777 .LASF2607
C:\Users\CYMR90~1\AppData\Local\Temp\ccX1amHi.s:28974  .debug_str:000000000001f6b1 .LASF2608
C:\Users\CYMR90~1\AppData\Local\Temp\ccX1amHi.s:22883  .debug_str:0000000000006e62 .LASF2609
C:\Users\CYMR90~1\AppData\Local\Temp\ccX1amHi.s:28080  .debug_str:000000000001bda5 .LASF2610
C:\Users\CYMR90~1\AppData\Local\Temp\ccX1amHi.s:24249  .debug_str:000000000000c6e4 .LASF2611
C:\Users\CYMR90~1\AppData\Local\Temp\ccX1amHi.s:23997  .debug_str:000000000000b6bf .LASF2612
C:\Users\CYMR90~1\AppData\Local\Temp\ccX1amHi.s:29216  .debug_str:0000000000020552 .LASF2613
C:\Users\CYMR90~1\AppData\Local\Temp\ccX1amHi.s:23123  .debug_str:0000000000007ebe .LASF2614
C:\Users\CYMR90~1\AppData\Local\Temp\ccX1amHi.s:28298  .debug_str:000000000001cb9f .LASF2615
C:\Users\CYMR90~1\AppData\Local\Temp\ccX1amHi.s:22173  .debug_str:0000000000004199 .LASF2616
C:\Users\CYMR90~1\AppData\Local\Temp\ccX1amHi.s:30104  .debug_str:0000000000023af4 .LASF2617
C:\Users\CYMR90~1\AppData\Local\Temp\ccX1amHi.s:27384  .debug_str:0000000000018fc6 .LASF2618
C:\Users\CYMR90~1\AppData\Local\Temp\ccX1amHi.s:21651  .debug_str:0000000000001fff .LASF2619
C:\Users\CYMR90~1\AppData\Local\Temp\ccX1amHi.s:21991  .debug_str:0000000000003502 .LASF2620
C:\Users\CYMR90~1\AppData\Local\Temp\ccX1amHi.s:30568  .debug_str:0000000000025add .LASF2621
C:\Users\CYMR90~1\AppData\Local\Temp\ccX1amHi.s:27930  .debug_str:000000000001b4af .LASF2622
C:\Users\CYMR90~1\AppData\Local\Temp\ccX1amHi.s:27074  .debug_str:0000000000017c8d .LASF2623
C:\Users\CYMR90~1\AppData\Local\Temp\ccX1amHi.s:32248  .debug_str:000000000002c616 .LASF2624
C:\Users\CYMR90~1\AppData\Local\Temp\ccX1amHi.s:26145  .debug_str:0000000000013ff4 .LASF2625
C:\Users\CYMR90~1\AppData\Local\Temp\ccX1amHi.s:31398  .debug_str:00000000000290a1 .LASF2626
C:\Users\CYMR90~1\AppData\Local\Temp\ccX1amHi.s:25251  .debug_str:0000000000010645 .LASF2627
C:\Users\CYMR90~1\AppData\Local\Temp\ccX1amHi.s:27824  .debug_str:000000000001ada2 .LASF2628
C:\Users\CYMR90~1\AppData\Local\Temp\ccX1amHi.s:21685  .debug_str:00000000000021d3 .LASF2629
C:\Users\CYMR90~1\AppData\Local\Temp\ccX1amHi.s:26874  .debug_str:000000000001705c .LASF2630
C:\Users\CYMR90~1\AppData\Local\Temp\ccX1amHi.s:26179  .debug_str:0000000000014243 .LASF2631
C:\Users\CYMR90~1\AppData\Local\Temp\ccX1amHi.s:25953  .debug_str:00000000000133f8 .LASF2632
C:\Users\CYMR90~1\AppData\Local\Temp\ccX1amHi.s:24845  .debug_str:000000000000ed57 .LASF2633
C:\Users\CYMR90~1\AppData\Local\Temp\ccX1amHi.s:31944  .debug_str:000000000002b134 .LASF2634
C:\Users\CYMR90~1\AppData\Local\Temp\ccX1amHi.s:23837  .debug_str:000000000000ac01 .LASF2635
C:\Users\CYMR90~1\AppData\Local\Temp\ccX1amHi.s:27032  .debug_str:00000000000179ee .LASF2636
C:\Users\CYMR90~1\AppData\Local\Temp\ccX1amHi.s:30240  .debug_str:00000000000243ec .LASF2637
C:\Users\CYMR90~1\AppData\Local\Temp\ccX1amHi.s:22101  .debug_str:0000000000003c7d .LASF2638
C:\Users\CYMR90~1\AppData\Local\Temp\ccX1amHi.s:25377  .debug_str:0000000000010eb9 .LASF2639
C:\Users\CYMR90~1\AppData\Local\Temp\ccX1amHi.s:28548  .debug_str:000000000001dc6a .LASF2640
C:\Users\CYMR90~1\AppData\Local\Temp\ccX1amHi.s:31698  .debug_str:000000000002a275 .LASF2641
C:\Users\CYMR90~1\AppData\Local\Temp\ccX1amHi.s:23593  .debug_str:0000000000009d51 .LASF2642
C:\Users\CYMR90~1\AppData\Local\Temp\ccX1amHi.s:26797  .debug_str:00000000000168f6 .LASF2643
C:\Users\CYMR90~1\AppData\Local\Temp\ccX1amHi.s:28794  .debug_str:000000000001ec00 .LASF2644
C:\Users\CYMR90~1\AppData\Local\Temp\ccX1amHi.s:22153  .debug_str:0000000000003fc1 .LASF2645
C:\Users\CYMR90~1\AppData\Local\Temp\ccX1amHi.s:26906  .debug_str:0000000000017225 .LASF2646
C:\Users\CYMR90~1\AppData\Local\Temp\ccX1amHi.s:31614  .debug_str:0000000000029d9a .LASF2647
C:\Users\CYMR90~1\AppData\Local\Temp\ccX1amHi.s:25017  .debug_str:000000000000f73e .LASF2648
C:\Users\CYMR90~1\AppData\Local\Temp\ccX1amHi.s:29688  .debug_str:0000000000022285 .LASF2649
C:\Users\CYMR90~1\AppData\Local\Temp\ccX1amHi.s:23043  .debug_str:00000000000078fc .LASF2650
C:\Users\CYMR90~1\AppData\Local\Temp\ccX1amHi.s:26277  .debug_str:0000000000014877 .LASF2651
C:\Users\CYMR90~1\AppData\Local\Temp\ccX1amHi.s:29404  .debug_str:00000000000210ee .LASF2652
C:\Users\CYMR90~1\AppData\Local\Temp\ccX1amHi.s:21291  .debug_str:000000000000099b .LASF2653
C:\Users\CYMR90~1\AppData\Local\Temp\ccX1amHi.s:24527  .debug_str:000000000000d9aa .LASF2654
C:\Users\CYMR90~1\AppData\Local\Temp\ccX1amHi.s:27752  .debug_str:000000000001a94d .LASF2655
C:\Users\CYMR90~1\AppData\Local\Temp\ccX1amHi.s:30928  .debug_str:0000000000027110 .LASF2656
C:\Users\CYMR90~1\AppData\Local\Temp\ccX1amHi.s:22799  .debug_str:00000000000068fe .LASF2657
C:\Users\CYMR90~1\AppData\Local\Temp\ccX1amHi.s:26049  .debug_str:0000000000013a4b .LASF2658
C:\Users\CYMR90~1\AppData\Local\Temp\ccX1amHi.s:29262  .debug_str:0000000000020858 .LASF2659
C:\Users\CYMR90~1\AppData\Local\Temp\ccX1amHi.s:26589  .debug_str:0000000000015b62 .LASF2660
C:\Users\CYMR90~1\AppData\Local\Temp\ccX1amHi.s:31296  .debug_str:0000000000028a79 .LASF2661
C:\Users\CYMR90~1\AppData\Local\Temp\ccX1amHi.s:24701  .debug_str:000000000000e426 .LASF2662
C:\Users\CYMR90~1\AppData\Local\Temp\ccX1amHi.s:22735  .debug_str:00000000000064f0 .LASF2663
C:\Users\CYMR90~1\AppData\Local\Temp\ccX1amHi.s:27494  .debug_str:0000000000019706 .LASF2664
C:\Users\CYMR90~1\AppData\Local\Temp\ccX1amHi.s:26009  .debug_str:00000000000137df .LASF2665
C:\Users\CYMR90~1\AppData\Local\Temp\ccX1amHi.s:29206  .debug_str:0000000000020489 .LASF2666
C:\Users\CYMR90~1\AppData\Local\Temp\ccX1amHi.s:32422  .debug_str:000000000002d163 .LASF2667
C:\Users\CYMR90~1\AppData\Local\Temp\ccX1amHi.s:28168  .debug_str:000000000001c359 .LASF2668
C:\Users\CYMR90~1\AppData\Local\Temp\ccX1amHi.s:30224  .debug_str:00000000000242d0 .LASF2669
C:\Users\CYMR90~1\AppData\Local\Temp\ccX1amHi.s:30642  .debug_str:0000000000025f4f .LASF2670
C:\Users\CYMR90~1\AppData\Local\Temp\ccX1amHi.s:24535  .debug_str:000000000000da1d .LASF2671
C:\Users\CYMR90~1\AppData\Local\Temp\ccX1amHi.s:25781  .debug_str:000000000001289b .LASF2672
C:\Users\CYMR90~1\AppData\Local\Temp\ccX1amHi.s:28948  .debug_str:000000000001f51e .LASF2673
C:\Users\CYMR90~1\AppData\Local\Temp\ccX1amHi.s:32200  .debug_str:000000000002c2c4 .LASF2674
C:\Users\CYMR90~1\AppData\Local\Temp\ccX1amHi.s:29690  .debug_str:00000000000222a0 .LASF2675
C:\Users\CYMR90~1\AppData\Local\Temp\ccX1amHi.s:31672  .debug_str:000000000002a0f9 .LASF2676
C:\Users\CYMR90~1\AppData\Local\Temp\ccX1amHi.s:22075  .debug_str:0000000000003aba .LASF2677
C:\Users\CYMR90~1\AppData\Local\Temp\ccX1amHi.s:26821  .debug_str:0000000000016ace .LASF2678
C:\Users\CYMR90~1\AppData\Local\Temp\ccX1amHi.s:31530  .debug_str:00000000000298d2 .LASF2679
C:\Users\CYMR90~1\AppData\Local\Temp\ccX1amHi.s:24927  .debug_str:000000000000f1d1 .LASF2680
C:\Users\CYMR90~1\AppData\Local\Temp\ccX1amHi.s:26787  .debug_str:0000000000016871 .LASF2681
C:\Users\CYMR90~1\AppData\Local\Temp\ccX1amHi.s:31498  .debug_str:00000000000296b9 .LASF2682
C:\Users\CYMR90~1\AppData\Local\Temp\ccX1amHi.s:24903  .debug_str:000000000000f06a .LASF2683
C:\Users\CYMR90~1\AppData\Local\Temp\ccX1amHi.s:29582  .debug_str:0000000000021be5 .LASF2684
C:\Users\CYMR90~1\AppData\Local\Temp\ccX1amHi.s:26059  .debug_str:0000000000013ae2 .LASF2685
C:\Users\CYMR90~1\AppData\Local\Temp\ccX1amHi.s:21593  .debug_str:0000000000001ca4 .LASF2686
C:\Users\CYMR90~1\AppData\Local\Temp\ccX1amHi.s:25667  .debug_str:0000000000012120 .LASF2687
C:\Users\CYMR90~1\AppData\Local\Temp\ccX1amHi.s:26111  .debug_str:0000000000013e09 .LASF2688
C:\Users\CYMR90~1\AppData\Local\Temp\ccX1amHi.s:24431  .debug_str:000000000000d39d .LASF2689
C:\Users\CYMR90~1\AppData\Local\Temp\ccX1amHi.s:29108  .debug_str:000000000001feb2 .LASF2690
C:\Users\CYMR90~1\AppData\Local\Temp\ccX1amHi.s:24059  .debug_str:000000000000baf5 .LASF2691
C:\Users\CYMR90~1\AppData\Local\Temp\ccX1amHi.s:28738  .debug_str:000000000001e83e .LASF2692
C:\Users\CYMR90~1\AppData\Local\Temp\ccX1amHi.s:22091  .debug_str:0000000000003bb2 .LASF2693
C:\Users\CYMR90~1\AppData\Local\Temp\ccX1amHi.s:26837  .debug_str:0000000000016c59 .LASF2694
C:\Users\CYMR90~1\AppData\Local\Temp\ccX1amHi.s:25509  .debug_str:0000000000011636 .LASF2695
C:\Users\CYMR90~1\AppData\Local\Temp\ccX1amHi.s:30198  .debug_str:0000000000024030 .LASF2696
C:\Users\CYMR90~1\AppData\Local\Temp\ccX1amHi.s:21603  .debug_str:0000000000001d42 .LASF2697
C:\Users\CYMR90~1\AppData\Local\Temp\ccX1amHi.s:24867  .debug_str:000000000000ee72 .LASF2698
C:\Users\CYMR90~1\AppData\Local\Temp\ccX1amHi.s:30980  .debug_str:0000000000027511 .LASF2699
C:\Users\CYMR90~1\AppData\Local\Temp\ccX1amHi.s:31272  .debug_str:00000000000288e8 .LASF2700
C:\Users\CYMR90~1\AppData\Local\Temp\ccX1amHi.s:23051  .debug_str:000000000000796b .LASF2701
C:\Users\CYMR90~1\AppData\Local\Temp\ccX1amHi.s:26283  .debug_str:00000000000148be .LASF2702
C:\Users\CYMR90~1\AppData\Local\Temp\ccX1amHi.s:23603  .debug_str:0000000000009dcd .LASF2703
C:\Users\CYMR90~1\AppData\Local\Temp\ccX1amHi.s:21377  .debug_str:0000000000000f74 .LASF2704
C:\Users\CYMR90~1\AppData\Local\Temp\ccX1amHi.s:24627  .debug_str:000000000000dfa2 .LASF2705
C:\Users\CYMR90~1\AppData\Local\Temp\ccX1amHi.s:23147  .debug_str:000000000000806e .LASF2706
C:\Users\CYMR90~1\AppData\Local\Temp\ccX1amHi.s:27132  .debug_str:0000000000018013 .LASF2707
C:\Users\CYMR90~1\AppData\Local\Temp\ccX1amHi.s:31852  .debug_str:000000000002abce .LASF2708
C:\Users\CYMR90~1\AppData\Local\Temp\ccX1amHi.s:25249  .debug_str:000000000001062e .LASF2709
C:\Users\CYMR90~1\AppData\Local\Temp\ccX1amHi.s:29932  .debug_str:00000000000230ce .LASF2710
C:\Users\CYMR90~1\AppData\Local\Temp\ccX1amHi.s:30534  .debug_str:0000000000025818 .LASF2711
C:\Users\CYMR90~1\AppData\Local\Temp\ccX1amHi.s:28030  .debug_str:000000000001baa6 .LASF2712
C:\Users\CYMR90~1\AppData\Local\Temp\ccX1amHi.s:25435  .debug_str:00000000000111ce .LASF2713
C:\Users\CYMR90~1\AppData\Local\Temp\ccX1amHi.s:31722  .debug_str:000000000002a3b5 .LASF2714
C:\Users\CYMR90~1\AppData\Local\Temp\ccX1amHi.s:22827  .debug_str:0000000000006aa9 .LASF2715
C:\Users\CYMR90~1\AppData\Local\Temp\ccX1amHi.s:23247  .debug_str:000000000000875e .LASF2716
C:\Users\CYMR90~1\AppData\Local\Temp\ccX1amHi.s:24225  .debug_str:000000000000c577 .LASF2717
C:\Users\CYMR90~1\AppData\Local\Temp\ccX1amHi.s:21689  .debug_str:0000000000002205 .LASF2718
C:\Users\CYMR90~1\AppData\Local\Temp\ccX1amHi.s:22005  .debug_str:000000000000360e .LASF2719
C:\Users\CYMR90~1\AppData\Local\Temp\ccX1amHi.s:26972  .debug_str:00000000000175fc .LASF2720
C:\Users\CYMR90~1\AppData\Local\Temp\ccX1amHi.s:22363  .debug_str:0000000000004e5f .LASF2721
C:\Users\CYMR90~1\AppData\Local\Temp\ccX1amHi.s:25775  .debug_str:0000000000012838 .LASF2722
C:\Users\CYMR90~1\AppData\Local\Temp\ccX1amHi.s:22407  .debug_str:00000000000050dd .LASF2723
C:\Users\CYMR90~1\AppData\Local\Temp\ccX1amHi.s:29272  .debug_str:00000000000208d3 .LASF2724
C:\Users\CYMR90~1\AppData\Local\Temp\ccX1amHi.s:26045  .debug_str:0000000000013a0f .LASF2725
C:\Users\CYMR90~1\AppData\Local\Temp\ccX1amHi.s:24835  .debug_str:000000000000ecb2 .LASF2726
C:\Users\CYMR90~1\AppData\Local\Temp\ccX1amHi.s:23887  .debug_str:000000000000af49 .LASF2727
C:\Users\CYMR90~1\AppData\Local\Temp\ccX1amHi.s:21437  .debug_str:00000000000012b7 .LASF2728
C:\Users\CYMR90~1\AppData\Local\Temp\ccX1amHi.s:24261  .debug_str:000000000000c7a6 .LASF2729
C:\Users\CYMR90~1\AppData\Local\Temp\ccX1amHi.s:26053  .debug_str:0000000000013a86 .LASF2730
C:\Users\CYMR90~1\AppData\Local\Temp\ccX1amHi.s:29268  .debug_str:00000000000208ab .LASF2731
C:\Users\CYMR90~1\AppData\Local\Temp\ccX1amHi.s:21169  .debug_str:0000000000000260 .LASF2732
C:\Users\CYMR90~1\AppData\Local\Temp\ccX1amHi.s:24393  .debug_str:000000000000d0e7 .LASF2733
C:\Users\CYMR90~1\AppData\Local\Temp\ccX1amHi.s:27594  .debug_str:0000000000019df4 .LASF2734
C:\Users\CYMR90~1\AppData\Local\Temp\ccX1amHi.s:21355  .debug_str:0000000000000dcc .LASF2735
C:\Users\CYMR90~1\AppData\Local\Temp\ccX1amHi.s:31050  .debug_str:0000000000027905 .LASF2736
C:\Users\CYMR90~1\AppData\Local\Temp\ccX1amHi.s:29432  .debug_str:0000000000021286 .LASF2737
C:\Users\CYMR90~1\AppData\Local\Temp\ccX1amHi.s:27832  .debug_str:000000000001ae26 .LASF2738
C:\Users\CYMR90~1\AppData\Local\Temp\ccX1amHi.s:32256  .debug_str:000000000002c699 .LASF2739
C:\Users\CYMR90~1\AppData\Local\Temp\ccX1amHi.s:21467  .debug_str:000000000000149f .LASF2740
C:\Users\CYMR90~1\AppData\Local\Temp\ccX1amHi.s:26189  .debug_str:00000000000142e4 .LASF2741
C:\Users\CYMR90~1\AppData\Local\Temp\ccX1amHi.s:24375  .debug_str:000000000000cfc5 .LASF2742
C:\Users\CYMR90~1\AppData\Local\Temp\ccX1amHi.s:24311  .debug_str:000000000000cc01 .LASF2743
C:\Users\CYMR90~1\AppData\Local\Temp\ccX1amHi.s:28172  .debug_str:000000000001c387 .LASF2744
C:\Users\CYMR90~1\AppData\Local\Temp\ccX1amHi.s:24439  .debug_str:000000000000d3f5 .LASF2745
C:\Users\CYMR90~1\AppData\Local\Temp\ccX1amHi.s:29724  .debug_str:00000000000224a4 .LASF2746
C:\Users\CYMR90~1\AppData\Local\Temp\ccX1amHi.s:21585  .debug_str:0000000000001c30 .LASF2747
C:\Users\CYMR90~1\AppData\Local\Temp\ccX1amHi.s:24851  .debug_str:000000000000eda2 .LASF2748
C:\Users\CYMR90~1\AppData\Local\Temp\ccX1amHi.s:28056  .debug_str:000000000001bc01 .LASF2749
C:\Users\CYMR90~1\AppData\Local\Temp\ccX1amHi.s:31168  .debug_str:0000000000028158 .LASF2750
C:\Users\CYMR90~1\AppData\Local\Temp\ccX1amHi.s:29572  .debug_str:0000000000021b55 .LASF2751
C:\Users\CYMR90~1\AppData\Local\Temp\ccX1amHi.s:26271  .debug_str:0000000000014827 .LASF2752
C:\Users\CYMR90~1\AppData\Local\Temp\ccX1amHi.s:26305  .debug_str:0000000000014a1d .LASF2753
C:\Users\CYMR90~1\AppData\Local\Temp\ccX1amHi.s:21369  .debug_str:0000000000000f15 .LASF2754
C:\Users\CYMR90~1\AppData\Local\Temp\ccX1amHi.s:24611  .debug_str:000000000000dea6 .LASF2755
C:\Users\CYMR90~1\AppData\Local\Temp\ccX1amHi.s:26845  .debug_str:0000000000016cd3 .LASF2756
C:\Users\CYMR90~1\AppData\Local\Temp\ccX1amHi.s:29722  .debug_str:000000000002248f .LASF2757
C:\Users\CYMR90~1\AppData\Local\Temp\ccX1amHi.s:24947  .debug_str:000000000000f321 .LASF2758
C:\Users\CYMR90~1\AppData\Local\Temp\ccX1amHi.s:29628  .debug_str:0000000000021f08 .LASF2759
C:\Users\CYMR90~1\AppData\Local\Temp\ccX1amHi.s:29786  .debug_str:0000000000022811 .LASF2760
C:\Users\CYMR90~1\AppData\Local\Temp\ccX1amHi.s:27744  .debug_str:000000000001a8e7 .LASF2761
C:\Users\CYMR90~1\AppData\Local\Temp\ccX1amHi.s:27002  .debug_str:00000000000177cb .LASF2762
C:\Users\CYMR90~1\AppData\Local\Temp\ccX1amHi.s:24721  .debug_str:000000000000e53c .LASF2763
C:\Users\CYMR90~1\AppData\Local\Temp\ccX1amHi.s:25899  .debug_str:0000000000013054 .LASF2764
C:\Users\CYMR90~1\AppData\Local\Temp\ccX1amHi.s:25861  .debug_str:0000000000012df2 .LASF2765
C:\Users\CYMR90~1\AppData\Local\Temp\ccX1amHi.s:21913  .debug_str:0000000000002ffc .LASF2766
C:\Users\CYMR90~1\AppData\Local\Temp\ccX1amHi.s:21797  .debug_str:00000000000028b0 .LASF2767
C:\Users\CYMR90~1\AppData\Local\Temp\ccX1amHi.s:29392  .debug_str:0000000000021048 .LASF2768
C:\Users\CYMR90~1\AppData\Local\Temp\ccX1amHi.s:30366  .debug_str:0000000000024c1f .LASF2769
C:\Users\CYMR90~1\AppData\Local\Temp\ccX1amHi.s:30054  .debug_str:00000000000237d2 .LASF2770
C:\Users\CYMR90~1\AppData\Local\Temp\ccX1amHi.s:23947  .debug_str:000000000000b36d .LASF2771
C:\Users\CYMR90~1\AppData\Local\Temp\ccX1amHi.s:27134  .debug_str:000000000001802a .LASF2772
C:\Users\CYMR90~1\AppData\Local\Temp\ccX1amHi.s:30344  .debug_str:0000000000024a9b .LASF2773
C:\Users\CYMR90~1\AppData\Local\Temp\ccX1amHi.s:22207  .debug_str:00000000000043a7 .LASF2774
C:\Users\CYMR90~1\AppData\Local\Temp\ccX1amHi.s:24305  .debug_str:000000000000cbbf .LASF2775
C:\Users\CYMR90~1\AppData\Local\Temp\ccX1amHi.s:28568  .debug_str:000000000001dd8c .LASF2776
C:\Users\CYMR90~1\AppData\Local\Temp\ccX1amHi.s:32354  .debug_str:000000000002ccd4 .LASF2777
C:\Users\CYMR90~1\AppData\Local\Temp\ccX1amHi.s:23705  .debug_str:000000000000a3ed .LASF2778
C:\Users\CYMR90~1\AppData\Local\Temp\ccX1amHi.s:26912  .debug_str:0000000000017282 .LASF2779
C:\Users\CYMR90~1\AppData\Local\Temp\ccX1amHi.s:30118  .debug_str:0000000000023bca .LASF2780
C:\Users\CYMR90~1\AppData\Local\Temp\ccX1amHi.s:28302  .debug_str:000000000001cbd5 .LASF2781
C:\Users\CYMR90~1\AppData\Local\Temp\ccX1amHi.s:21649  .debug_str:0000000000001feb .LASF2782
C:\Users\CYMR90~1\AppData\Local\Temp\ccX1amHi.s:26369  .debug_str:0000000000014e3f .LASF2783
C:\Users\CYMR90~1\AppData\Local\Temp\ccX1amHi.s:31084  .debug_str:0000000000027b67 .LASF2784
C:\Users\CYMR90~1\AppData\Local\Temp\ccX1amHi.s:24487  .debug_str:000000000000d790 .LASF2785
C:\Users\CYMR90~1\AppData\Local\Temp\ccX1amHi.s:29172  .debug_str:00000000000202b0 .LASF2786
C:\Users\CYMR90~1\AppData\Local\Temp\ccX1amHi.s:31760  .debug_str:000000000002a66a .LASF2787
C:\Users\CYMR90~1\AppData\Local\Temp\ccX1amHi.s:31970  .debug_str:000000000002b310 .LASF2788
C:\Users\CYMR90~1\AppData\Local\Temp\ccX1amHi.s:27782  .debug_str:000000000001ab08 .LASF2789
C:\Users\CYMR90~1\AppData\Local\Temp\ccX1amHi.s:22947  .debug_str:00000000000072a6 .LASF2790
C:\Users\CYMR90~1\AppData\Local\Temp\ccX1amHi.s:23255  .debug_str:00000000000087df .LASF2791
C:\Users\CYMR90~1\AppData\Local\Temp\ccX1amHi.s:27194  .debug_str:0000000000018397 .LASF2792
C:\Users\CYMR90~1\AppData\Local\Temp\ccX1amHi.s:32070  .debug_str:000000000002b9d2 .LASF2793
C:\Users\CYMR90~1\AppData\Local\Temp\ccX1amHi.s:25645  .debug_str:0000000000011f95 .LASF2794
C:\Users\CYMR90~1\AppData\Local\Temp\ccX1amHi.s:26471  .debug_str:0000000000015499 .LASF2795
C:\Users\CYMR90~1\AppData\Local\Temp\ccX1amHi.s:22645  .debug_str:0000000000005f67 .LASF2796
C:\Users\CYMR90~1\AppData\Local\Temp\ccX1amHi.s:29418  .debug_str:00000000000211ac .LASF2797
C:\Users\CYMR90~1\AppData\Local\Temp\ccX1amHi.s:30782  .debug_str:0000000000026837 .LASF2798
C:\Users\CYMR90~1\AppData\Local\Temp\ccX1amHi.s:32172  .debug_str:000000000002c0f0 .LASF2799
C:\Users\CYMR90~1\AppData\Local\Temp\ccX1amHi.s:22163  .debug_str:00000000000040f3 .LASF2800
C:\Users\CYMR90~1\AppData\Local\Temp\ccX1amHi.s:25905  .debug_str:00000000000130c4 .LASF2801
C:\Users\CYMR90~1\AppData\Local\Temp\ccX1amHi.s:31276  .debug_str:0000000000028916 .LASF2802
C:\Users\CYMR90~1\AppData\Local\Temp\ccX1amHi.s:29236  .debug_str:0000000000020697 .LASF2803
C:\Users\CYMR90~1\AppData\Local\Temp\ccX1amHi.s:28132  .debug_str:000000000001c0f6 .LASF2804
C:\Users\CYMR90~1\AppData\Local\Temp\ccX1amHi.s:27688  .debug_str:000000000001a4e3 .LASF2805
C:\Users\CYMR90~1\AppData\Local\Temp\ccX1amHi.s:27612  .debug_str:0000000000019ed3 .LASF2806
C:\Users\CYMR90~1\AppData\Local\Temp\ccX1amHi.s:29828  .debug_str:0000000000022a5b .LASF2807
C:\Users\CYMR90~1\AppData\Local\Temp\ccX1amHi.s:28128  .debug_str:000000000001c0c9 .LASF2808
C:\Users\CYMR90~1\AppData\Local\Temp\ccX1amHi.s:27256  .debug_str:0000000000018732 .LASF2809
C:\Users\CYMR90~1\AppData\Local\Temp\ccX1amHi.s:28654  .debug_str:000000000001e37f .LASF2810
C:\Users\CYMR90~1\AppData\Local\Temp\ccX1amHi.s:25839  .debug_str:0000000000012c86 .LASF2811
C:\Users\CYMR90~1\AppData\Local\Temp\ccX1amHi.s:24573  .debug_str:000000000000dc46 .LASF2812
C:\Users\CYMR90~1\AppData\Local\Temp\ccX1amHi.s:23699  .debug_str:000000000000a38a .LASF2813
C:\Users\CYMR90~1\AppData\Local\Temp\ccX1amHi.s:22785  .debug_str:000000000000682c .LASF2814
C:\Users\CYMR90~1\AppData\Local\Temp\ccX1amHi.s:21917  .debug_str:0000000000003032 .LASF2815
C:\Users\CYMR90~1\AppData\Local\Temp\ccX1amHi.s:32396  .debug_str:000000000002cfd7 .LASF2816
C:\Users\CYMR90~1\AppData\Local\Temp\ccX1amHi.s:31534  .debug_str:0000000000029903 .LASF2817
C:\Users\CYMR90~1\AppData\Local\Temp\ccX1amHi.s:30274  .debug_str:0000000000024610 .LASF2818
C:\Users\CYMR90~1\AppData\Local\Temp\ccX1amHi.s:22127  .debug_str:0000000000003e42 .LASF2819
C:\Users\CYMR90~1\AppData\Local\Temp\ccX1amHi.s:25419  .debug_str:00000000000110de .LASF2820
C:\Users\CYMR90~1\AppData\Local\Temp\ccX1amHi.s:28586  .debug_str:000000000001df1b .LASF2821
C:\Users\CYMR90~1\AppData\Local\Temp\ccX1amHi.s:31824  .debug_str:000000000002aa04 .LASF2822
C:\Users\CYMR90~1\AppData\Local\Temp\ccX1amHi.s:23717  .debug_str:000000000000a4d6 .LASF2823
C:\Users\CYMR90~1\AppData\Local\Temp\ccX1amHi.s:29910  .debug_str:0000000000022f9b .LASF2824
C:\Users\CYMR90~1\AppData\Local\Temp\ccX1amHi.s:32356  .debug_str:000000000002cce6 .LASF2825
C:\Users\CYMR90~1\AppData\Local\Temp\ccX1amHi.s:25673  .debug_str:0000000000012178 .LASF2826
C:\Users\CYMR90~1\AppData\Local\Temp\ccX1amHi.s:26527  .debug_str:00000000000157a0 .LASF2827
C:\Users\CYMR90~1\AppData\Local\Temp\ccX1amHi.s:21731  .debug_str:0000000000002468 .LASF2828
C:\Users\CYMR90~1\AppData\Local\Temp\ccX1amHi.s:28372  .debug_str:000000000001d19a .LASF2829
C:\Users\CYMR90~1\AppData\Local\Temp\ccX1amHi.s:27748  .debug_str:000000000001a915 .LASF2830
C:\Users\CYMR90~1\AppData\Local\Temp\ccX1amHi.s:27788  .debug_str:000000000001ab93 .LASF2831
C:\Users\CYMR90~1\AppData\Local\Temp\ccX1amHi.s:26755  .debug_str:00000000000165f2 .LASF2832
C:\Users\CYMR90~1\AppData\Local\Temp\ccX1amHi.s:24015  .debug_str:000000000000b7fc .LASF2833
C:\Users\CYMR90~1\AppData\Local\Temp\ccX1amHi.s:26139  .debug_str:0000000000013fa7 .LASF2834
C:\Users\CYMR90~1\AppData\Local\Temp\ccX1amHi.s:30698  .debug_str:00000000000262c9 .LASF2835
C:\Users\CYMR90~1\AppData\Local\Temp\ccX1amHi.s:27954  .debug_str:000000000001b610 .LASF2836
C:\Users\CYMR90~1\AppData\Local\Temp\ccX1amHi.s:22625  .debug_str:0000000000005e32 .LASF2837
C:\Users\CYMR90~1\AppData\Local\Temp\ccX1amHi.s:24571  .debug_str:000000000000dc24 .LASF2838
C:\Users\CYMR90~1\AppData\Local\Temp\ccX1amHi.s:26449  .debug_str:0000000000015373 .LASF2839
C:\Users\CYMR90~1\AppData\Local\Temp\ccX1amHi.s:30368  .debug_str:0000000000024c3c .LASF2840
C:\Users\CYMR90~1\AppData\Local\Temp\ccX1amHi.s:24139  .debug_str:000000000000c067 .LASF2841
C:\Users\CYMR90~1\AppData\Local\Temp\ccX1amHi.s:24703  .debug_str:000000000000e43f .LASF2842
C:\Users\CYMR90~1\AppData\Local\Temp\ccX1amHi.s:28700  .debug_str:000000000001e627 .LASF2843
C:\Users\CYMR90~1\AppData\Local\Temp\ccX1amHi.s:22385  .debug_str:0000000000004f96 .LASF2844
C:\Users\CYMR90~1\AppData\Local\Temp\ccX1amHi.s:31930  .debug_str:000000000002b050 .LASF2845
C:\Users\CYMR90~1\AppData\Local\Temp\ccX1amHi.s:30132  .debug_str:0000000000023c7b .LASF2846
C:\Users\CYMR90~1\AppData\Local\Temp\ccX1amHi.s:30930  .debug_str:0000000000027127 .LASF2847
C:\Users\CYMR90~1\AppData\Local\Temp\ccX1amHi.s:31784  .debug_str:000000000002a7ce .LASF2848
C:\Users\CYMR90~1\AppData\Local\Temp\ccX1amHi.s:32426  .debug_str:000000000002d197 .LASF2849
C:\Users\CYMR90~1\AppData\Local\Temp\ccX1amHi.s:21891  .debug_str:0000000000002e93 .LASF2850
C:\Users\CYMR90~1\AppData\Local\Temp\ccX1amHi.s:21627  .debug_str:0000000000001ecc .LASF2851
C:\Users\CYMR90~1\AppData\Local\Temp\ccX1amHi.s:28728  .debug_str:000000000001e7d2 .LASF2852
C:\Users\CYMR90~1\AppData\Local\Temp\ccX1amHi.s:21867  .debug_str:0000000000002d1c .LASF2853
C:\Users\CYMR90~1\AppData\Local\Temp\ccX1amHi.s:21187  .debug_str:000000000000038d .LASF2854
C:\Users\CYMR90~1\AppData\Local\Temp\ccX1amHi.s:32216  .debug_str:000000000002c396 .LASF2855
C:\Users\CYMR90~1\AppData\Local\Temp\ccX1amHi.s:30834  .debug_str:0000000000026b5b .LASF2856
C:\Users\CYMR90~1\AppData\Local\Temp\ccX1amHi.s:22607  .debug_str:0000000000005d39 .LASF2857
C:\Users\CYMR90~1\AppData\Local\Temp\ccX1amHi.s:31900  .debug_str:000000000002aeb2 .LASF2858
C:\Users\CYMR90~1\AppData\Local\Temp\ccX1amHi.s:28288  .debug_str:000000000001cb14 .LASF2859
C:\Users\CYMR90~1\AppData\Local\Temp\ccX1amHi.s:29286  .debug_str:00000000000209cf .LASF2860
C:\Users\CYMR90~1\AppData\Local\Temp\ccX1amHi.s:25077  .debug_str:000000000000fb67 .LASF2861
C:\Users\CYMR90~1\AppData\Local\Temp\ccX1amHi.s:24209  .debug_str:000000000000c481 .LASF2862
C:\Users\CYMR90~1\AppData\Local\Temp\ccX1amHi.s:28018  .debug_str:000000000001ba25 .LASF2863
C:\Users\CYMR90~1\AppData\Local\Temp\ccX1amHi.s:31240  .debug_str:000000000002867a .LASF2864
C:\Users\CYMR90~1\AppData\Local\Temp\ccX1amHi.s:29682  .debug_str:0000000000022210 .LASF2865
C:\Users\CYMR90~1\AppData\Local\Temp\ccX1amHi.s:28010  .debug_str:000000000001b989 .LASF2866
C:\Users\CYMR90~1\AppData\Local\Temp\ccX1amHi.s:22217  .debug_str:000000000000444e .LASF2867
C:\Users\CYMR90~1\AppData\Local\Temp\ccX1amHi.s:28334  .debug_str:000000000001cdfa .LASF2868
C:\Users\CYMR90~1\AppData\Local\Temp\ccX1amHi.s:31496  .debug_str:0000000000029698 .LASF2869
C:\Users\CYMR90~1\AppData\Local\Temp\ccX1amHi.s:23101  .debug_str:0000000000007cbb .LASF2870
C:\Users\CYMR90~1\AppData\Local\Temp\ccX1amHi.s:28468  .debug_str:000000000001d739 .LASF2871
C:\Users\CYMR90~1\AppData\Local\Temp\ccX1amHi.s:24511  .debug_str:000000000000d8d2 .LASF2872
C:\Users\CYMR90~1\AppData\Local\Temp\ccX1amHi.s:31992  .debug_str:000000000002b49e .LASF2873
C:\Users\CYMR90~1\AppData\Local\Temp\ccX1amHi.s:27126  .debug_str:0000000000017fa3 .LASF2874
C:\Users\CYMR90~1\AppData\Local\Temp\ccX1amHi.s:22089  .debug_str:0000000000003b8f .LASF2875
C:\Users\CYMR90~1\AppData\Local\Temp\ccX1amHi.s:32034  .debug_str:000000000002b736 .LASF2876
C:\Users\CYMR90~1\AppData\Local\Temp\ccX1amHi.s:24777  .debug_str:000000000000e8f0 .LASF2877
C:\Users\CYMR90~1\AppData\Local\Temp\ccX1amHi.s:24893  .debug_str:000000000000efc3 .LASF2878
C:\Users\CYMR90~1\AppData\Local\Temp\ccX1amHi.s:26351  .debug_str:0000000000014ce8 .LASF2879
C:\Users\CYMR90~1\AppData\Local\Temp\ccX1amHi.s:26255  .debug_str:00000000000146fa .LASF2880
C:\Users\CYMR90~1\AppData\Local\Temp\ccX1amHi.s:24917  .debug_str:000000000000f12c .LASF2881
C:\Users\CYMR90~1\AppData\Local\Temp\ccX1amHi.s:22977  .debug_str:00000000000074bb .LASF2882
C:\Users\CYMR90~1\AppData\Local\Temp\ccX1amHi.s:30072  .debug_str:000000000002390c .LASF2883
C:\Users\CYMR90~1\AppData\Local\Temp\ccX1amHi.s:26946  .debug_str:0000000000017473 .LASF2884
C:\Users\CYMR90~1\AppData\Local\Temp\ccX1amHi.s:26041  .debug_str:00000000000139c5 .LASF2885
C:\Users\CYMR90~1\AppData\Local\Temp\ccX1amHi.s:23325  .debug_str:0000000000008c28 .LASF2886
C:\Users\CYMR90~1\AppData\Local\Temp\ccX1amHi.s:31746  .debug_str:000000000002a55f .LASF2887
C:\Users\CYMR90~1\AppData\Local\Temp\ccX1amHi.s:32208  .debug_str:000000000002c320 .LASF2888
C:\Users\CYMR90~1\AppData\Local\Temp\ccX1amHi.s:26439  .debug_str:00000000000152bf .LASF2889
C:\Users\CYMR90~1\AppData\Local\Temp\ccX1amHi.s:22451  .debug_str:0000000000005395 .LASF2890
C:\Users\CYMR90~1\AppData\Local\Temp\ccX1amHi.s:26625  .debug_str:0000000000015dee .LASF2891
C:\Users\CYMR90~1\AppData\Local\Temp\ccX1amHi.s:32174  .debug_str:000000000002c110 .LASF2892
C:\Users\CYMR90~1\AppData\Local\Temp\ccX1amHi.s:25269  .debug_str:000000000001074f .LASF2893
C:\Users\CYMR90~1\AppData\Local\Temp\ccX1amHi.s:23739  .debug_str:000000000000a62c .LASF2894
C:\Users\CYMR90~1\AppData\Local\Temp\ccX1amHi.s:21281  .debug_str:0000000000000900 .LASF2895
C:\Users\CYMR90~1\AppData\Local\Temp\ccX1amHi.s:29280  .debug_str:0000000000020950 .LASF2896
C:\Users\CYMR90~1\AppData\Local\Temp\ccX1amHi.s:32278  .debug_str:000000000002c7ac .LASF2897
C:\Users\CYMR90~1\AppData\Local\Temp\ccX1amHi.s:30194  .debug_str:0000000000023fe5 .LASF2898
C:\Users\CYMR90~1\AppData\Local\Temp\ccX1amHi.s:29592  .debug_str:0000000000021c91 .LASF2899
C:\Users\CYMR90~1\AppData\Local\Temp\ccX1amHi.s:22413  .debug_str:0000000000005151 .LASF2900
C:\Users\CYMR90~1\AppData\Local\Temp\ccX1amHi.s:32402  .debug_str:000000000002d017 .LASF2901
C:\Users\CYMR90~1\AppData\Local\Temp\ccX1amHi.s:24795  .debug_str:000000000000e9f2 .LASF2902
C:\Users\CYMR90~1\AppData\Local\Temp\ccX1amHi.s:28144  .debug_str:000000000001c1c4 .LASF2903
C:\Users\CYMR90~1\AppData\Local\Temp\ccX1amHi.s:29834  .debug_str:0000000000022acf .LASF2904
C:\Users\CYMR90~1\AppData\Local\Temp\ccX1amHi.s:30410  .debug_str:0000000000024ed1 .LASF2905
C:\Users\CYMR90~1\AppData\Local\Temp\ccX1amHi.s:24509  .debug_str:000000000000d8b9 .LASF2906
C:\Users\CYMR90~1\AppData\Local\Temp\ccX1amHi.s:29270  .debug_str:00000000000208be .LASF2907
C:\Users\CYMR90~1\AppData\Local\Temp\ccX1amHi.s:31610  .debug_str:0000000000029d69 .LASF2908
C:\Users\CYMR90~1\AppData\Local\Temp\ccX1amHi.s:24161  .debug_str:000000000000c1cf .LASF2909
C:\Users\CYMR90~1\AppData\Local\Temp\ccX1amHi.s:22933  .debug_str:00000000000071b0 .LASF2910
C:\Users\CYMR90~1\AppData\Local\Temp\ccX1amHi.s:29444  .debug_str:0000000000021339 .LASF2911
C:\Users\CYMR90~1\AppData\Local\Temp\ccX1amHi.s:25117  .debug_str:000000000000fdf7 .LASF2912
C:\Users\CYMR90~1\AppData\Local\Temp\ccX1amHi.s:21875  .debug_str:0000000000002d9e .LASF2913
C:\Users\CYMR90~1\AppData\Local\Temp\ccX1amHi.s:24223  .debug_str:000000000000c563 .LASF2914
C:\Users\CYMR90~1\AppData\Local\Temp\ccX1amHi.s:24727  .debug_str:000000000000e59e .LASF2915
C:\Users\CYMR90~1\AppData\Local\Temp\ccX1amHi.s:32024  .debug_str:000000000002b6aa .LASF2916
C:\Users\CYMR90~1\AppData\Local\Temp\ccX1amHi.s:22901  .debug_str:0000000000006f5b .LASF2917
C:\Users\CYMR90~1\AppData\Local\Temp\ccX1amHi.s:29168  .debug_str:0000000000020271 .LASF2918
C:\Users\CYMR90~1\AppData\Local\Temp\ccX1amHi.s:25105  .debug_str:000000000000fd24 .LASF2919
C:\Users\CYMR90~1\AppData\Local\Temp\ccX1amHi.s:26958  .debug_str:000000000001754a .LASF2920
C:\Users\CYMR90~1\AppData\Local\Temp\ccX1amHi.s:23551  .debug_str:0000000000009a6d .LASF2921
C:\Users\CYMR90~1\AppData\Local\Temp\ccX1amHi.s:23659  .debug_str:000000000000a133 .LASF2922
C:\Users\CYMR90~1\AppData\Local\Temp\ccX1amHi.s:24679  .debug_str:000000000000e2a7 .LASF2923
C:\Users\CYMR90~1\AppData\Local\Temp\ccX1amHi.s:23773  .debug_str:000000000000a7f2 .LASF2924
C:\Users\CYMR90~1\AppData\Local\Temp\ccX1amHi.s:30414  .debug_str:0000000000024f0e .LASF2925
C:\Users\CYMR90~1\AppData\Local\Temp\ccX1amHi.s:24847  .debug_str:000000000000ed72 .LASF2926
C:\Users\CYMR90~1\AppData\Local\Temp\ccX1amHi.s:25413  .debug_str:000000000001108a .LASF2927
C:\Users\CYMR90~1\AppData\Local\Temp\ccX1amHi.s:31164  .debug_str:000000000002810b .LASF2928
C:\Users\CYMR90~1\AppData\Local\Temp\ccX1amHi.s:23289  .debug_str:00000000000089ee .LASF2929
C:\Users\CYMR90~1\AppData\Local\Temp\ccX1amHi.s:32096  .debug_str:000000000002bb9a .LASF2930
C:\Users\CYMR90~1\AppData\Local\Temp\ccX1amHi.s:31256  .debug_str:00000000000287be .LASF2931
C:\Users\CYMR90~1\AppData\Local\Temp\ccX1amHi.s:31526  .debug_str:00000000000298a0 .LASF2932
C:\Users\CYMR90~1\AppData\Local\Temp\ccX1amHi.s:22137  .debug_str:0000000000003eec .LASF2933
C:\Users\CYMR90~1\AppData\Local\Temp\ccX1amHi.s:28196  .debug_str:000000000001c4e4 .LASF2934
C:\Users\CYMR90~1\AppData\Local\Temp\ccX1amHi.s:27996  .debug_str:000000000001b8ad .LASF2935
C:\Users\CYMR90~1\AppData\Local\Temp\ccX1amHi.s:30428  .debug_str:0000000000024fcb .LASF2936
C:\Users\CYMR90~1\AppData\Local\Temp\ccX1amHi.s:24515  .debug_str:000000000000d916 .LASF2937
C:\Users\CYMR90~1\AppData\Local\Temp\ccX1amHi.s:27600  .debug_str:0000000000019e40 .LASF2938
C:\Users\CYMR90~1\AppData\Local\Temp\ccX1amHi.s:21409  .debug_str:0000000000001162 .LASF2939
C:\Users\CYMR90~1\AppData\Local\Temp\ccX1amHi.s:24891  .debug_str:000000000000efa9 .LASF2940
C:\Users\CYMR90~1\AppData\Local\Temp\ccX1amHi.s:28200  .debug_str:000000000001c518 .LASF2941
C:\Users\CYMR90~1\AppData\Local\Temp\ccX1amHi.s:31540  .debug_str:0000000000029948 .LASF2942
C:\Users\CYMR90~1\AppData\Local\Temp\ccX1amHi.s:21541  .debug_str:00000000000019a5 .LASF2943
C:\Users\CYMR90~1\AppData\Local\Temp\ccX1amHi.s:23625  .debug_str:0000000000009f12 .LASF2944
C:\Users\CYMR90~1\AppData\Local\Temp\ccX1amHi.s:30960  .debug_str:00000000000273d2 .LASF2945
C:\Users\CYMR90~1\AppData\Local\Temp\ccX1amHi.s:23177  .debug_str:0000000000008304 .LASF2946
C:\Users\CYMR90~1\AppData\Local\Temp\ccX1amHi.s:24685  .debug_str:000000000000e320 .LASF2947
C:\Users\CYMR90~1\AppData\Local\Temp\ccX1amHi.s:30196  .debug_str:0000000000024011 .LASF2948
C:\Users\CYMR90~1\AppData\Local\Temp\ccX1amHi.s:27532  .debug_str:00000000000199ed .LASF2949
C:\Users\CYMR90~1\AppData\Local\Temp\ccX1amHi.s:29038  .debug_str:000000000001fa69 .LASF2950
C:\Users\CYMR90~1\AppData\Local\Temp\ccX1amHi.s:28956  .debug_str:000000000001f5a1 .LASF2951
C:\Users\CYMR90~1\AppData\Local\Temp\ccX1amHi.s:23151  .debug_str:00000000000080a7 .LASF2952
C:\Users\CYMR90~1\AppData\Local\Temp\ccX1amHi.s:31150  .debug_str:0000000000027fe2 .LASF2953
C:\Users\CYMR90~1\AppData\Local\Temp\ccX1amHi.s:30652  .debug_str:000000000002601d .LASF2954
C:\Users\CYMR90~1\AppData\Local\Temp\ccX1amHi.s:30422  .debug_str:0000000000024f86 .LASF2955
C:\Users\CYMR90~1\AppData\Local\Temp\ccX1amHi.s:22115  .debug_str:0000000000003d42 .LASF2956
C:\Users\CYMR90~1\AppData\Local\Temp\ccX1amHi.s:29422  .debug_str:0000000000021213 .LASF2957
C:\Users\CYMR90~1\AppData\Local\Temp\ccX1amHi.s:25381  .debug_str:0000000000010ee7 .LASF2958
C:\Users\CYMR90~1\AppData\Local\Temp\ccX1amHi.s:30902  .debug_str:0000000000026fb0 .LASF2959
C:\Users\CYMR90~1\AppData\Local\Temp\ccX1amHi.s:30076  .debug_str:0000000000023949 .LASF2960
C:\Users\CYMR90~1\AppData\Local\Temp\ccX1amHi.s:26902  .debug_str:0000000000017200 .LASF2961
C:\Users\CYMR90~1\AppData\Local\Temp\ccX1amHi.s:26647  .debug_str:0000000000015f79 .LASF2962
C:\Users\CYMR90~1\AppData\Local\Temp\ccX1amHi.s:28912  .debug_str:000000000001f2f9 .LASF2963
C:\Users\CYMR90~1\AppData\Local\Temp\ccX1amHi.s:25341  .debug_str:0000000000010c2d .LASF2964
C:\Users\CYMR90~1\AppData\Local\Temp\ccX1amHi.s:25473  .debug_str:00000000000113fa .LASF2965
C:\Users\CYMR90~1\AppData\Local\Temp\ccX1amHi.s:24863  .debug_str:000000000000ee41 .LASF2966
C:\Users\CYMR90~1\AppData\Local\Temp\ccX1amHi.s:24999  .debug_str:000000000000f63b .LASF2967
C:\Users\CYMR90~1\AppData\Local\Temp\ccX1amHi.s:25965  .debug_str:000000000001351c .LASF2968
C:\Users\CYMR90~1\AppData\Local\Temp\ccX1amHi.s:31274  .debug_str:00000000000288fd .LASF2969
C:\Users\CYMR90~1\AppData\Local\Temp\ccX1amHi.s:26767  .debug_str:0000000000016730 .LASF2970
C:\Users\CYMR90~1\AppData\Local\Temp\ccX1amHi.s:30190  .debug_str:0000000000023fb6 .LASF2971
C:\Users\CYMR90~1\AppData\Local\Temp\ccX1amHi.s:27636  .debug_str:000000000001a053 .LASF2972
C:\Users\CYMR90~1\AppData\Local\Temp\ccX1amHi.s:22925  .debug_str:0000000000007108 .LASF2973
C:\Users\CYMR90~1\AppData\Local\Temp\ccX1amHi.s:31326  .debug_str:0000000000028c48 .LASF2974
C:\Users\CYMR90~1\AppData\Local\Temp\ccX1amHi.s:23677  .debug_str:000000000000a243 .LASF2975
C:\Users\CYMR90~1\AppData\Local\Temp\ccX1amHi.s:26143  .debug_str:0000000000013fdd .LASF2976
C:\Users\CYMR90~1\AppData\Local\Temp\ccX1amHi.s:24825  .debug_str:000000000000ebf1 .LASF2977
C:\Users\CYMR90~1\AppData\Local\Temp\ccX1amHi.s:26493  .debug_str:00000000000155c3 .LASF2978
C:\Users\CYMR90~1\AppData\Local\Temp\ccX1amHi.s:29362  .debug_str:0000000000020ea2 .LASF2979
C:\Users\CYMR90~1\AppData\Local\Temp\ccX1amHi.s:27282  .debug_str:00000000000188b9 .LASF2980
C:\Users\CYMR90~1\AppData\Local\Temp\ccX1amHi.s:29214  .debug_str:00000000000204fd .LASF2981
C:\Users\CYMR90~1\AppData\Local\Temp\ccX1amHi.s:31420  .debug_str:0000000000029212 .LASF2982
C:\Users\CYMR90~1\AppData\Local\Temp\ccX1amHi.s:29854  .debug_str:0000000000022be5 .LASF2983
C:\Users\CYMR90~1\AppData\Local\Temp\ccX1amHi.s:29420  .debug_str:00000000000211cc .LASF2984
C:\Users\CYMR90~1\AppData\Local\Temp\ccX1amHi.s:32228  .debug_str:000000000002c4bd .LASF2985
C:\Users\CYMR90~1\AppData\Local\Temp\ccX1amHi.s:24797  .debug_str:000000000000ea06 .LASF2986
C:\Users\CYMR90~1\AppData\Local\Temp\ccX1amHi.s:30942  .debug_str:0000000000027202 .LASF2987
C:\Users\CYMR90~1\AppData\Local\Temp\ccX1amHi.s:30686  .debug_str:0000000000026239 .LASF2988
C:\Users\CYMR90~1\AppData\Local\Temp\ccX1amHi.s:24137  .debug_str:000000000000c03f .LASF2989
C:\Users\CYMR90~1\AppData\Local\Temp\ccX1amHi.s:26541  .debug_str:000000000001586d .LASF2990
C:\Users\CYMR90~1\AppData\Local\Temp\ccX1amHi.s:26441  .debug_str:00000000000152ea .LASF2991
C:\Users\CYMR90~1\AppData\Local\Temp\ccX1amHi.s:27346  .debug_str:0000000000018da2 .LASF2992
C:\Users\CYMR90~1\AppData\Local\Temp\ccX1amHi.s:29044  .debug_str:000000000001face .LASF2993
C:\Users\CYMR90~1\AppData\Local\Temp\ccX1amHi.s:29558  .debug_str:0000000000021a9b .LASF2994
C:\Users\CYMR90~1\AppData\Local\Temp\ccX1amHi.s:32360  .debug_str:000000000002cd0a .LASF2995
C:\Users\CYMR90~1\AppData\Local\Temp\ccX1amHi.s:25053  .debug_str:000000000000f9ff .LASF2996
C:\Users\CYMR90~1\AppData\Local\Temp\ccX1amHi.s:21889  .debug_str:0000000000002e67 .LASF2997
C:\Users\CYMR90~1\AppData\Local\Temp\ccX1amHi.s:24909  .debug_str:000000000000f0bb .LASF2998
C:\Users\CYMR90~1\AppData\Local\Temp\ccX1amHi.s:28398  .debug_str:000000000001d31e .LASF2999
C:\Users\CYMR90~1\AppData\Local\Temp\ccX1amHi.s:26515  .debug_str:00000000000156eb .LASF3000
C:\Users\CYMR90~1\AppData\Local\Temp\ccX1amHi.s:25529  .debug_str:0000000000011766 .LASF3001
C:\Users\CYMR90~1\AppData\Local\Temp\ccX1amHi.s:28140  .debug_str:000000000001c18d .LASF3002
C:\Users\CYMR90~1\AppData\Local\Temp\ccX1amHi.s:27162  .debug_str:0000000000018197 .LASF3003
C:\Users\CYMR90~1\AppData\Local\Temp\ccX1amHi.s:29074  .debug_str:000000000001fcc5 .LASF3004
C:\Users\CYMR90~1\AppData\Local\Temp\ccX1amHi.s:25343  .debug_str:0000000000010c45 .LASF3005
C:\Users\CYMR90~1\AppData\Local\Temp\ccX1amHi.s:31208  .debug_str:000000000002844a .LASF3006
C:\Users\CYMR90~1\AppData\Local\Temp\ccX1amHi.s:23397  .debug_str:000000000000909e .LASF3007
C:\Users\CYMR90~1\AppData\Local\Temp\ccX1amHi.s:22459  .debug_str:0000000000005433 .LASF3008
C:\Users\CYMR90~1\AppData\Local\Temp\ccX1amHi.s:21523  .debug_str:00000000000018a2 .LASF3009
C:\Users\CYMR90~1\AppData\Local\Temp\ccX1amHi.s:31914  .debug_str:000000000002af84 .LASF3010
C:\Users\CYMR90~1\AppData\Local\Temp\ccX1amHi.s:31772  .debug_str:000000000002a715 .LASF3011
C:\Users\CYMR90~1\AppData\Local\Temp\ccX1amHi.s:28526  .debug_str:000000000001db23 .LASF3012
C:\Users\CYMR90~1\AppData\Local\Temp\ccX1amHi.s:27680  .debug_str:000000000001a2d0 .LASF3013
C:\Users\CYMR90~1\AppData\Local\Temp\ccX1amHi.s:26687  .debug_str:000000000001624c .LASF3014
C:\Users\CYMR90~1\AppData\Local\Temp\ccX1amHi.s:25759  .debug_str:000000000001272f .LASF3015
C:\Users\CYMR90~1\AppData\Local\Temp\ccX1amHi.s:24787  .debug_str:000000000000e981 .LASF3016
C:\Users\CYMR90~1\AppData\Local\Temp\ccX1amHi.s:24923  .debug_str:000000000000f185 .LASF3017
C:\Users\CYMR90~1\AppData\Local\Temp\ccX1amHi.s:30894  .debug_str:0000000000026f09 .LASF3018
C:\Users\CYMR90~1\AppData\Local\Temp\ccX1amHi.s:30682  .debug_str:00000000000261e3 .LASF3019
C:\Users\CYMR90~1\AppData\Local\Temp\ccX1amHi.s:25245  .debug_str:00000000000105df .LASF3020
C:\Users\CYMR90~1\AppData\Local\Temp\ccX1amHi.s:24093  .debug_str:000000000000bd1f .LASF3021
C:\Users\CYMR90~1\AppData\Local\Temp\ccX1amHi.s:22981  .debug_str:0000000000007506 .LASF3022
C:\Users\CYMR90~1\AppData\Local\Temp\ccX1amHi.s:28364  .debug_str:000000000001d081 .LASF3023
C:\Users\CYMR90~1\AppData\Local\Temp\ccX1amHi.s:29976  .debug_str:00000000000232ff .LASF3024
C:\Users\CYMR90~1\AppData\Local\Temp\ccX1amHi.s:24271  .debug_str:000000000000c894 .LASF3025
C:\Users\CYMR90~1\AppData\Local\Temp\ccX1amHi.s:22529  .debug_str:0000000000005881 .LASF3026
C:\Users\CYMR90~1\AppData\Local\Temp\ccX1amHi.s:22317  .debug_str:0000000000004b6f .LASF3027
C:\Users\CYMR90~1\AppData\Local\Temp\ccX1amHi.s:28280  .debug_str:000000000001ca8a .LASF3028
C:\Users\CYMR90~1\AppData\Local\Temp\ccX1amHi.s:26783  .debug_str:000000000001682b .LASF3029
C:\Users\CYMR90~1\AppData\Local\Temp\ccX1amHi.s:21821  .debug_str:0000000000002a34 .LASF3030
C:\Users\CYMR90~1\AppData\Local\Temp\ccX1amHi.s:32300  .debug_str:000000000002c952 .LASF3031
C:\Users\CYMR90~1\AppData\Local\Temp\ccX1amHi.s:31248  .debug_str:0000000000028712 .LASF3032
C:\Users\CYMR90~1\AppData\Local\Temp\ccX1amHi.s:22287  .debug_str:0000000000004983 .LASF3033
C:\Users\CYMR90~1\AppData\Local\Temp\ccX1amHi.s:28120  .debug_str:000000000001c042 .LASF3034
C:\Users\CYMR90~1\AppData\Local\Temp\ccX1amHi.s:25347  .debug_str:0000000000010c8a .LASF3035
C:\Users\CYMR90~1\AppData\Local\Temp\ccX1amHi.s:28418  .debug_str:000000000001d449 .LASF3036
C:\Users\CYMR90~1\AppData\Local\Temp\ccX1amHi.s:21223  .debug_str:000000000000058a .LASF3037
C:\Users\CYMR90~1\AppData\Local\Temp\ccX1amHi.s:25927  .debug_str:000000000001324f .LASF3038
C:\Users\CYMR90~1\AppData\Local\Temp\ccX1amHi.s:30630  .debug_str:0000000000025e9b .LASF3039
C:\Users\CYMR90~1\AppData\Local\Temp\ccX1amHi.s:25835  .debug_str:0000000000012c52 .LASF3040
C:\Users\CYMR90~1\AppData\Local\Temp\ccX1amHi.s:22691  .debug_str:000000000000624a .LASF3041
C:\Users\CYMR90~1\AppData\Local\Temp\ccX1amHi.s:23273  .debug_str:00000000000088ff .LASF3042
C:\Users\CYMR90~1\AppData\Local\Temp\ccX1amHi.s:25597  .debug_str:0000000000011cb7 .LASF3043
C:\Users\CYMR90~1\AppData\Local\Temp\ccX1amHi.s:24133  .debug_str:000000000000c00d .LASF3044
C:\Users\CYMR90~1\AppData\Local\Temp\ccX1amHi.s:27982  .debug_str:000000000001b7be .LASF3045
C:\Users\CYMR90~1\AppData\Local\Temp\ccX1amHi.s:24485  .debug_str:000000000000d772 .LASF3046
C:\Users\CYMR90~1\AppData\Local\Temp\ccX1amHi.s:23461  .debug_str:0000000000009452 .LASF3047
C:\Users\CYMR90~1\AppData\Local\Temp\ccX1amHi.s:30330  .debug_str:00000000000249d6 .LASF3048
C:\Users\CYMR90~1\AppData\Local\Temp\ccX1amHi.s:25643  .debug_str:0000000000011f75 .LASF3049
C:\Users\CYMR90~1\AppData\Local\Temp\ccX1amHi.s:29944  .debug_str:000000000002316a .LASF3050
C:\Users\CYMR90~1\AppData\Local\Temp\ccX1amHi.s:23799  .debug_str:000000000000a9ae .LASF3051
C:\Users\CYMR90~1\AppData\Local\Temp\ccX1amHi.s:27546  .debug_str:0000000000019afa .LASF3052
C:\Users\CYMR90~1\AppData\Local\Temp\ccX1amHi.s:30856  .debug_str:0000000000026c8e .LASF3053
C:\Users\CYMR90~1\AppData\Local\Temp\ccX1amHi.s:24513  .debug_str:000000000000d8f1 .LASF3054
C:\Users\CYMR90~1\AppData\Local\Temp\ccX1amHi.s:22579  .debug_str:0000000000005b93 .LASF3055
C:\Users\CYMR90~1\AppData\Local\Temp\ccX1amHi.s:24117  .debug_str:000000000000bee3 .LASF3056
C:\Users\CYMR90~1\AppData\Local\Temp\ccX1amHi.s:22885  .debug_str:0000000000006e7e .LASF3057
C:\Users\CYMR90~1\AppData\Local\Temp\ccX1amHi.s:24813  .debug_str:000000000000eb5a .LASF3058
C:\Users\CYMR90~1\AppData\Local\Temp\ccX1amHi.s:21367  .debug_str:0000000000000ef8 .LASF3059
C:\Users\CYMR90~1\AppData\Local\Temp\ccX1amHi.s:32048  .debug_str:000000000002b84a .LASF3060
C:\Users\CYMR90~1\AppData\Local\Temp\ccX1amHi.s:31648  .debug_str:0000000000029f90 .LASF3061
C:\Users\CYMR90~1\AppData\Local\Temp\ccX1amHi.s:29086  .debug_str:000000000001fd83 .LASF3062
C:\Users\CYMR90~1\AppData\Local\Temp\ccX1amHi.s:30188  .debug_str:0000000000023f9e .LASF3063
C:\Users\CYMR90~1\AppData\Local\Temp\ccX1amHi.s:28658  .debug_str:000000000001e3b5 .LASF3064
C:\Users\CYMR90~1\AppData\Local\Temp\ccX1amHi.s:29050  .debug_str:000000000001fb18 .LASF3065
C:\Users\CYMR90~1\AppData\Local\Temp\ccX1amHi.s:30998  .debug_str:0000000000027610 .LASF3066
C:\Users\CYMR90~1\AppData\Local\Temp\ccX1amHi.s:26223  .debug_str:00000000000144b6 .LASF3067
C:\Users\CYMR90~1\AppData\Local\Temp\ccX1amHi.s:26789  .debug_str:0000000000016886 .LASF3068
C:\Users\CYMR90~1\AppData\Local\Temp\ccX1amHi.s:21619  .debug_str:0000000000001e4f .LASF3069
C:\Users\CYMR90~1\AppData\Local\Temp\ccX1amHi.s:29036  .debug_str:000000000001fa2f .LASF3070
C:\Users\CYMR90~1\AppData\Local\Temp\ccX1amHi.s:28984  .debug_str:000000000001f744 .LASF3071
C:\Users\CYMR90~1\AppData\Local\Temp\ccX1amHi.s:28094  .debug_str:000000000001be73 .LASF3072
C:\Users\CYMR90~1\AppData\Local\Temp\ccX1amHi.s:21781  .debug_str:00000000000027bb .LASF3073
C:\Users\CYMR90~1\AppData\Local\Temp\ccX1amHi.s:30498  .debug_str:000000000002556c .LASF3074
C:\Users\CYMR90~1\AppData\Local\Temp\ccX1amHi.s:24405  .debug_str:000000000000d19b .LASF3075
C:\Users\CYMR90~1\AppData\Local\Temp\ccX1amHi.s:22133  .debug_str:0000000000003e9e .LASF3076
C:\Users\CYMR90~1\AppData\Local\Temp\ccX1amHi.s:21871  .debug_str:0000000000002d53 .LASF3077
C:\Users\CYMR90~1\AppData\Local\Temp\ccX1amHi.s:23285  .debug_str:00000000000089b0 .LASF3078
C:\Users\CYMR90~1\AppData\Local\Temp\ccX1amHi.s:28648  .debug_str:000000000001e317 .LASF3079
C:\Users\CYMR90~1\AppData\Local\Temp\ccX1amHi.s:29780  .debug_str:00000000000227af .LASF3080
C:\Users\CYMR90~1\AppData\Local\Temp\ccX1amHi.s:23669  .debug_str:000000000000a1d0 .LASF3081
C:\Users\CYMR90~1\AppData\Local\Temp\ccX1amHi.s:24605  .debug_str:000000000000de0b .LASF3082
C:\Users\CYMR90~1\AppData\Local\Temp\ccX1amHi.s:26583  .debug_str:0000000000015b11 .LASF3083
C:\Users\CYMR90~1\AppData\Local\Temp\ccX1amHi.s:24647  .debug_str:000000000000e0d6 .LASF3084
C:\Users\CYMR90~1\AppData\Local\Temp\ccX1amHi.s:27864  .debug_str:000000000001b05a .LASF3085
C:\Users\CYMR90~1\AppData\Local\Temp\ccX1amHi.s:27508  .debug_str:00000000000197dd .LASF3086
C:\Users\CYMR90~1\AppData\Local\Temp\ccX1amHi.s:24125  .debug_str:000000000000bf67 .LASF3087
C:\Users\CYMR90~1\AppData\Local\Temp\ccX1amHi.s:29242  .debug_str:00000000000206dc .LASF3088
C:\Users\CYMR90~1\AppData\Local\Temp\ccX1amHi.s:27062  .debug_str:0000000000017bc7 .LASF3089
C:\Users\CYMR90~1\AppData\Local\Temp\ccX1amHi.s:31242  .debug_str:00000000000286a0 .LASF3090
C:\Users\CYMR90~1\AppData\Local\Temp\ccX1amHi.s:28754  .debug_str:000000000001e971 .LASF3091
C:\Users\CYMR90~1\AppData\Local\Temp\ccX1amHi.s:28070  .debug_str:000000000001bcb4 .LASF3092
C:\Users\CYMR90~1\AppData\Local\Temp\ccX1amHi.s:31120  .debug_str:0000000000027de5 .LASF3093
C:\Users\CYMR90~1\AppData\Local\Temp\ccX1amHi.s:21645  .debug_str:0000000000001fba .LASF3094
C:\Users\CYMR90~1\AppData\Local\Temp\ccX1amHi.s:24837  .debug_str:000000000000ecd0 .LASF3095
C:\Users\CYMR90~1\AppData\Local\Temp\ccX1amHi.s:24879  .debug_str:000000000000ef02 .LASF3096
C:\Users\CYMR90~1\AppData\Local\Temp\ccX1amHi.s:30770  .debug_str:0000000000026755 .LASF3097
C:\Users\CYMR90~1\AppData\Local\Temp\ccX1amHi.s:31126  .debug_str:0000000000027e49 .LASF3098
C:\Users\CYMR90~1\AppData\Local\Temp\ccX1amHi.s:27152  .debug_str:000000000001811b .LASF3099
C:\Users\CYMR90~1\AppData\Local\Temp\ccX1amHi.s:29888  .debug_str:0000000000022e60 .LASF3100
C:\Users\CYMR90~1\AppData\Local\Temp\ccX1amHi.s:21481  .debug_str:0000000000001543 .LASF3101
C:\Users\CYMR90~1\AppData\Local\Temp\ccX1amHi.s:21775  .debug_str:000000000000275f .LASF3102
C:\Users\CYMR90~1\AppData\Local\Temp\ccX1amHi.s:31724  .debug_str:000000000002a3d0 .LASF3103
C:\Users\CYMR90~1\AppData\Local\Temp\ccX1amHi.s:22675  .debug_str:000000000000617d .LASF3104
C:\Users\CYMR90~1\AppData\Local\Temp\ccX1amHi.s:25931  .debug_str:0000000000013291 .LASF3105
C:\Users\CYMR90~1\AppData\Local\Temp\ccX1amHi.s:24475  .debug_str:000000000000d6cf .LASF3106
C:\Users\CYMR90~1\AppData\Local\Temp\ccX1amHi.s:29470  .debug_str:00000000000214a7 .LASF3107
C:\Users\CYMR90~1\AppData\Local\Temp\ccX1amHi.s:27516  .debug_str:000000000001989c .LASF3108
C:\Users\CYMR90~1\AppData\Local\Temp\ccX1amHi.s:22621  .debug_str:0000000000005df5 .LASF3109
C:\Users\CYMR90~1\AppData\Local\Temp\ccX1amHi.s:23401  .debug_str:00000000000090db .LASF3110
C:\Users\CYMR90~1\AppData\Local\Temp\ccX1amHi.s:23999  .debug_str:000000000000b6dc .LASF3111
C:\Users\CYMR90~1\AppData\Local\Temp\ccX1amHi.s:22211  .debug_str:00000000000043df .LASF3112
C:\Users\CYMR90~1\AppData\Local\Temp\ccX1amHi.s:25365  .debug_str:0000000000010e20 .LASF3113
C:\Users\CYMR90~1\AppData\Local\Temp\ccX1amHi.s:27046  .debug_str:0000000000017aea .LASF3114
C:\Users\CYMR90~1\AppData\Local\Temp\ccX1amHi.s:23263  .debug_str:000000000000884f .LASF3115
C:\Users\CYMR90~1\AppData\Local\Temp\ccX1amHi.s:24075  .debug_str:000000000000bbcf .LASF3116
C:\Users\CYMR90~1\AppData\Local\Temp\ccX1amHi.s:24025  .debug_str:000000000000b8ac .LASF3117
C:\Users\CYMR90~1\AppData\Local\Temp\ccX1amHi.s:26950  .debug_str:00000000000174c5 .LASF3118
C:\Users\CYMR90~1\AppData\Local\Temp\ccX1amHi.s:30852  .debug_str:0000000000026c55 .LASF3119
C:\Users\CYMR90~1\AppData\Local\Temp\ccX1amHi.s:23747  .debug_str:000000000000a692 .LASF3120
C:\Users\CYMR90~1\AppData\Local\Temp\ccX1amHi.s:21753  .debug_str:00000000000025d5 .LASF3121
C:\Users\CYMR90~1\AppData\Local\Temp\ccX1amHi.s:28784  .debug_str:000000000001eb57 .LASF3122
C:\Users\CYMR90~1\AppData\Local\Temp\ccX1amHi.s:21449  .debug_str:000000000000139e .LASF3123
C:\Users\CYMR90~1\AppData\Local\Temp\ccX1amHi.s:27330  .debug_str:0000000000018c0d .LASF3124
C:\Users\CYMR90~1\AppData\Local\Temp\ccX1amHi.s:21553  .debug_str:0000000000001a61 .LASF3125
C:\Users\CYMR90~1\AppData\Local\Temp\ccX1amHi.s:32312  .debug_str:000000000002ca3b .LASF3126
C:\Users\CYMR90~1\AppData\Local\Temp\ccX1amHi.s:26499  .debug_str:0000000000015601 .LASF3127
C:\Users\CYMR90~1\AppData\Local\Temp\ccX1amHi.s:30280  .debug_str:0000000000024685 .LASF3128
C:\Users\CYMR90~1\AppData\Local\Temp\ccX1amHi.s:23683  .debug_str:000000000000a2a4 .LASF3129
C:\Users\CYMR90~1\AppData\Local\Temp\ccX1amHi.s:21579  .debug_str:0000000000001be5 .LASF3130
C:\Users\CYMR90~1\AppData\Local\Temp\ccX1amHi.s:22697  .debug_str:00000000000062b8 .LASF3131
C:\Users\CYMR90~1\AppData\Local\Temp\ccX1amHi.s:27942  .debug_str:000000000001b556 .LASF3132
C:\Users\CYMR90~1\AppData\Local\Temp\ccX1amHi.s:22143  .debug_str:0000000000003f44 .LASF3133
C:\Users\CYMR90~1\AppData\Local\Temp\ccX1amHi.s:23407  .debug_str:000000000000913e .LASF3134
C:\Users\CYMR90~1\AppData\Local\Temp\ccX1amHi.s:22439  .debug_str:00000000000052ee .LASF3135
C:\Users\CYMR90~1\AppData\Local\Temp\ccX1amHi.s:31812  .debug_str:000000000002a973 .LASF3136
C:\Users\CYMR90~1\AppData\Local\Temp\ccX1amHi.s:24145  .debug_str:000000000000c0af .LASF3137
C:\Users\CYMR90~1\AppData\Local\Temp\ccX1amHi.s:21789  .debug_str:0000000000002836 .LASF3138
C:\Users\CYMR90~1\AppData\Local\Temp\ccX1amHi.s:29742  .debug_str:000000000002257e .LASF3139
C:\Users\CYMR90~1\AppData\Local\Temp\ccX1amHi.s:26405  .debug_str:00000000000150b6 .LASF3140
C:\Users\CYMR90~1\AppData\Local\Temp\ccX1amHi.s:28266  .debug_str:000000000001c99e .LASF3141
C:\Users\CYMR90~1\AppData\Local\Temp\ccX1amHi.s:27920  .debug_str:000000000001b418 .LASF3142
C:\Users\CYMR90~1\AppData\Local\Temp\ccX1amHi.s:22577  .debug_str:0000000000005b74 .LASF3143
C:\Users\CYMR90~1\AppData\Local\Temp\ccX1amHi.s:23495  .debug_str:00000000000096d0 .LASF3144
C:\Users\CYMR90~1\AppData\Local\Temp\ccX1amHi.s:25773  .debug_str:000000000001281c .LASF3145
C:\Users\CYMR90~1\AppData\Local\Temp\ccX1amHi.s:29758  .debug_str:0000000000022639 .LASF3146
C:\Users\CYMR90~1\AppData\Local\Temp\ccX1amHi.s:31106  .debug_str:0000000000027cd2 .LASF3147
C:\Users\CYMR90~1\AppData\Local\Temp\ccX1amHi.s:27142  .debug_str:000000000001808f .LASF3148
C:\Users\CYMR90~1\AppData\Local\Temp\ccX1amHi.s:24997  .debug_str:000000000000f61b .LASF3149
C:\Users\CYMR90~1\AppData\Local\Temp\ccX1amHi.s:29756  .debug_str:0000000000022620 .LASF3150
C:\Users\CYMR90~1\AppData\Local\Temp\ccX1amHi.s:31550  .debug_str:00000000000299bd .LASF3151
C:\Users\CYMR90~1\AppData\Local\Temp\ccX1amHi.s:27774  .debug_str:000000000001aa93 .LASF3152
C:\Users\CYMR90~1\AppData\Local\Temp\ccX1amHi.s:22839  .debug_str:0000000000006b7f .LASF3153
C:\Users\CYMR90~1\AppData\Local\Temp\ccX1amHi.s:22445  .debug_str:0000000000005332 .LASF3154
C:\Users\CYMR90~1\AppData\Local\Temp\ccX1amHi.s:28698  .debug_str:000000000001e60a .LASF3155
C:\Users\CYMR90~1\AppData\Local\Temp\ccX1amHi.s:24707  .debug_str:000000000000e465 .LASF3156
C:\Users\CYMR90~1\AppData\Local\Temp\ccX1amHi.s:29964  .debug_str:000000000002324e .LASF3157
C:\Users\CYMR90~1\AppData\Local\Temp\ccX1amHi.s:27004  .debug_str:0000000000017804 .LASF3158
C:\Users\CYMR90~1\AppData\Local\Temp\ccX1amHi.s:30396  .debug_str:0000000000024dee .LASF3159
C:\Users\CYMR90~1\AppData\Local\Temp\ccX1amHi.s:29796  .debug_str:0000000000022898 .LASF3160
C:\Users\CYMR90~1\AppData\Local\Temp\ccX1amHi.s:32194  .debug_str:000000000002c254 .LASF3161
C:\Users\CYMR90~1\AppData\Local\Temp\ccX1amHi.s:31982  .debug_str:000000000002b3ea .LASF3162
C:\Users\CYMR90~1\AppData\Local\Temp\ccX1amHi.s:32282  .debug_str:000000000002c808 .LASF3163
C:\Users\CYMR90~1\AppData\Local\Temp\ccX1amHi.s:30702  .debug_str:0000000000026306 .LASF3164
C:\Users\CYMR90~1\AppData\Local\Temp\ccX1amHi.s:22095  .debug_str:0000000000003c02 .LASF3165
C:\Users\CYMR90~1\AppData\Local\Temp\ccX1amHi.s:24925  .debug_str:000000000000f1b4 .LASF3166
C:\Users\CYMR90~1\AppData\Local\Temp\ccX1amHi.s:22065  .debug_str:0000000000003a2e .LASF3167
C:\Users\CYMR90~1\AppData\Local\Temp\ccX1amHi.s:25485  .debug_str:000000000001149a .LASF3168
C:\Users\CYMR90~1\AppData\Local\Temp\ccX1amHi.s:25299  .debug_str:00000000000109c7 .LASF3169
C:\Users\CYMR90~1\AppData\Local\Temp\ccX1amHi.s:22809  .debug_str:0000000000006991 .LASF3170
C:\Users\CYMR90~1\AppData\Local\Temp\ccX1amHi.s:25693  .debug_str:00000000000122c2 .LASF3171
C:\Users\CYMR90~1\AppData\Local\Temp\ccX1amHi.s:25345  .debug_str:0000000000010c6d .LASF3172
C:\Users\CYMR90~1\AppData\Local\Temp\ccX1amHi.s:23061  .debug_str:0000000000007a2c .LASF3173
C:\Users\CYMR90~1\AppData\Local\Temp\ccX1amHi.s:23755  .debug_str:000000000000a6f1 .LASF3174
C:\Users\CYMR90~1\AppData\Local\Temp\ccX1amHi.s:26163  .debug_str:0000000000014134 .LASF3175
C:\Users\CYMR90~1\AppData\Local\Temp\ccX1amHi.s:28706  .debug_str:000000000001e679 .LASF3176
C:\Users\CYMR90~1\AppData\Local\Temp\ccX1amHi.s:22251  .debug_str:00000000000046ab .LASF3177
C:\Users\CYMR90~1\AppData\Local\Temp\ccX1amHi.s:29240  .debug_str:00000000000206c6 .LASF3178
C:\Users\CYMR90~1\AppData\Local\Temp\ccX1amHi.s:29602  .debug_str:0000000000021d35 .LASF3179
C:\Users\CYMR90~1\AppData\Local\Temp\ccX1amHi.s:23553  .debug_str:0000000000009a89 .LASF3180
C:\Users\CYMR90~1\AppData\Local\Temp\ccX1amHi.s:22889  .debug_str:0000000000006eb0 .LASF3181
C:\Users\CYMR90~1\AppData\Local\Temp\ccX1amHi.s:23419  .debug_str:00000000000091c6 .LASF3182
C:\Users\CYMR90~1\AppData\Local\Temp\ccX1amHi.s:21849  .debug_str:0000000000002c14 .LASF3183
C:\Users\CYMR90~1\AppData\Local\Temp\ccX1amHi.s:32132  .debug_str:000000000002bdf1 .LASF3184
C:\Users\CYMR90~1\AppData\Local\Temp\ccX1amHi.s:22681  .debug_str:00000000000061d0 .LASF3185
C:\Users\CYMR90~1\AppData\Local\Temp\ccX1amHi.s:21255  .debug_str:0000000000000774 .LASF3186
C:\Users\CYMR90~1\AppData\Local\Temp\ccX1amHi.s:22257  .debug_str:0000000000004728 .LASF3187
C:\Users\CYMR90~1\AppData\Local\Temp\ccX1amHi.s:29700  .debug_str:0000000000022344 .LASF3188
C:\Users\CYMR90~1\AppData\Local\Temp\ccX1amHi.s:25767  .debug_str:00000000000127bc .LASF3189
C:\Users\CYMR90~1\AppData\Local\Temp\ccX1amHi.s:29326  .debug_str:0000000000020c20 .LASF3190
C:\Users\CYMR90~1\AppData\Local\Temp\ccX1amHi.s:21197  .debug_str:000000000000041f .LASF3191
C:\Users\CYMR90~1\AppData\Local\Temp\ccX1amHi.s:28920  .debug_str:000000000001f372 .LASF3192
C:\Users\CYMR90~1\AppData\Local\Temp\ccX1amHi.s:27762  .debug_str:000000000001a9d1 .LASF3193
C:\Users\CYMR90~1\AppData\Local\Temp\ccX1amHi.s:28696  .debug_str:000000000001e5ea .LASF3194
C:\Users\CYMR90~1\AppData\Local\Temp\ccX1amHi.s:28272  .debug_str:000000000001ca01 .LASF3195
C:\Users\CYMR90~1\AppData\Local\Temp\ccX1amHi.s:27122  .debug_str:0000000000017f6d .LASF3196
C:\Users\CYMR90~1\AppData\Local\Temp\ccX1amHi.s:25653  .debug_str:0000000000012002 .LASF3197
C:\Users\CYMR90~1\AppData\Local\Temp\ccX1amHi.s:23639  .debug_str:0000000000009fe0 .LASF3198
C:\Users\CYMR90~1\AppData\Local\Temp\ccX1amHi.s:28558  .debug_str:000000000001dcdf .LASF3199
C:\Users\CYMR90~1\AppData\Local\Temp\ccX1amHi.s:32232  .debug_str:000000000002c51e .LASF3200
C:\Users\CYMR90~1\AppData\Local\Temp\ccX1amHi.s:27526  .debug_str:00000000000199a2 .LASF3201
C:\Users\CYMR90~1\AppData\Local\Temp\ccX1amHi.s:27834  .debug_str:000000000001ae39 .LASF3202
C:\Users\CYMR90~1\AppData\Local\Temp\ccX1amHi.s:30322  .debug_str:0000000000024974 .LASF3203
C:\Users\CYMR90~1\AppData\Local\Temp\ccX1amHi.s:31720  .debug_str:000000000002a39d .LASF3204
C:\Users\CYMR90~1\AppData\Local\Temp\ccX1amHi.s:25525  .debug_str:000000000001172a .LASF3205
C:\Users\CYMR90~1\AppData\Local\Temp\ccX1amHi.s:28510  .debug_str:000000000001da4b .LASF3206
C:\Users\CYMR90~1\AppData\Local\Temp\ccX1amHi.s:24603  .debug_str:000000000000ddf3 .LASF3207
C:\Users\CYMR90~1\AppData\Local\Temp\ccX1amHi.s:31488  .debug_str:0000000000029625 .LASF3208
C:\Users\CYMR90~1\AppData\Local\Temp\ccX1amHi.s:22989  .debug_str:0000000000007576 .LASF3209
C:\Users\CYMR90~1\AppData\Local\Temp\ccX1amHi.s:31764  .debug_str:000000000002a68a .LASF3210
C:\Users\CYMR90~1\AppData\Local\Temp\ccX1amHi.s:30546  .debug_str:0000000000025938 .LASF3211
C:\Users\CYMR90~1\AppData\Local\Temp\ccX1amHi.s:22023  .debug_str:0000000000003771 .LASF3212
C:\Users\CYMR90~1\AppData\Local\Temp\ccX1amHi.s:25237  .debug_str:000000000001055b .LASF3213
C:\Users\CYMR90~1\AppData\Local\Temp\ccX1amHi.s:31212  .debug_str:0000000000028498 .LASF3214
C:\Users\CYMR90~1\AppData\Local\Temp\ccX1amHi.s:25717  .debug_str:000000000001242e .LASF3215
C:\Users\CYMR90~1\AppData\Local\Temp\ccX1amHi.s:23817  .debug_str:000000000000aac9 .LASF3216
C:\Users\CYMR90~1\AppData\Local\Temp\ccX1amHi.s:32040  .debug_str:000000000002b7b6 .LASF3217
C:\Users\CYMR90~1\AppData\Local\Temp\ccX1amHi.s:23901  .debug_str:000000000000b0c9 .LASF3218
C:\Users\CYMR90~1\AppData\Local\Temp\ccX1amHi.s:27578  .debug_str:0000000000019cda .LASF3219
C:\Users\CYMR90~1\AppData\Local\Temp\ccX1amHi.s:31792  .debug_str:000000000002a83f .LASF3220
C:\Users\CYMR90~1\AppData\Local\Temp\ccX1amHi.s:27324  .debug_str:0000000000018b84 .LASF3221
C:\Users\CYMR90~1\AppData\Local\Temp\ccX1amHi.s:31830  .debug_str:000000000002aa62 .LASF3222
C:\Users\CYMR90~1\AppData\Local\Temp\ccX1amHi.s:29436  .debug_str:00000000000212b2 .LASF3223
C:\Users\CYMR90~1\AppData\Local\Temp\ccX1amHi.s:30788  .debug_str:0000000000026894 .LASF3224
C:\Users\CYMR90~1\AppData\Local\Temp\ccX1amHi.s:24453  .debug_str:000000000000d52e .LASF3225
C:\Users\CYMR90~1\AppData\Local\Temp\ccX1amHi.s:30176  .debug_str:0000000000023ef2 .LASF3226
C:\Users\CYMR90~1\AppData\Local\Temp\ccX1amHi.s:26289  .debug_str:0000000000014930 .LASF3227
C:\Users\CYMR90~1\AppData\Local\Temp\ccX1amHi.s:25129  .debug_str:000000000000feaf .LASF3228
C:\Users\CYMR90~1\AppData\Local\Temp\ccX1amHi.s:28260  .debug_str:000000000001c8a3 .LASF3229
C:\Users\CYMR90~1\AppData\Local\Temp\ccX1amHi.s:31046  .debug_str:00000000000278c3 .LASF3230
C:\Users\CYMR90~1\AppData\Local\Temp\ccX1amHi.s:22045  .debug_str:00000000000038c8 .LASF3231
C:\Users\CYMR90~1\AppData\Local\Temp\ccX1amHi.s:28492  .debug_str:000000000001d8f1 .LASF3232
C:\Users\CYMR90~1\AppData\Local\Temp\ccX1amHi.s:31222  .debug_str:000000000002853c .LASF3233
C:\Users\CYMR90~1\AppData\Local\Temp\ccX1amHi.s:23307  .debug_str:0000000000008afa .LASF3234
C:\Users\CYMR90~1\AppData\Local\Temp\ccX1amHi.s:29674  .debug_str:0000000000022190 .LASF3235
C:\Users\CYMR90~1\AppData\Local\Temp\ccX1amHi.s:26477  .debug_str:00000000000154d9 .LASF3236
C:\Users\CYMR90~1\AppData\Local\Temp\ccX1amHi.s:23403  .debug_str:00000000000090ff .LASF3237
C:\Users\CYMR90~1\AppData\Local\Temp\ccX1amHi.s:28400  .debug_str:000000000001d34a .LASF3238
C:\Users\CYMR90~1\AppData\Local\Temp\ccX1amHi.s:25855  .debug_str:0000000000012d95 .LASF3239
C:\Users\CYMR90~1\AppData\Local\Temp\ccX1amHi.s:23879  .debug_str:000000000000ae8f .LASF3240
C:\Users\CYMR90~1\AppData\Local\Temp\ccX1amHi.s:28328  .debug_str:000000000001cd94 .LASF3241
C:\Users\CYMR90~1\AppData\Local\Temp\ccX1amHi.s:30418  .debug_str:0000000000024f43 .LASF3242
C:\Users\CYMR90~1\AppData\Local\Temp\ccX1amHi.s:22335  .debug_str:0000000000004c94 .LASF3243
C:\Users\CYMR90~1\AppData\Local\Temp\ccX1amHi.s:31734  .debug_str:000000000002a48a .LASF3244
C:\Users\CYMR90~1\AppData\Local\Temp\ccX1amHi.s:30612  .debug_str:0000000000025d79 .LASF3245
C:\Users\CYMR90~1\AppData\Local\Temp\ccX1amHi.s:27620  .debug_str:0000000000019f4b .LASF3246
C:\Users\CYMR90~1\AppData\Local\Temp\ccX1amHi.s:27626  .debug_str:0000000000019fc0 .LASF3247
C:\Users\CYMR90~1\AppData\Local\Temp\ccX1amHi.s:30898  .debug_str:0000000000026f5d .LASF3248
C:\Users\CYMR90~1\AppData\Local\Temp\ccX1amHi.s:25749  .debug_str:0000000000012674 .LASF3249
C:\Users\CYMR90~1\AppData\Local\Temp\ccX1amHi.s:31706  .debug_str:000000000002a2e8 .LASF3250
C:\Users\CYMR90~1\AppData\Local\Temp\ccX1amHi.s:27288  .debug_str:0000000000018938 .LASF3251
C:\Users\CYMR90~1\AppData\Local\Temp\ccX1amHi.s:30976  .debug_str:00000000000274b8 .LASF3252
C:\Users\CYMR90~1\AppData\Local\Temp\ccX1amHi.s:22229  .debug_str:000000000000450d .LASF3253
C:\Users\CYMR90~1\AppData\Local\Temp\ccX1amHi.s:25335  .debug_str:0000000000010ba8 .LASF3254
C:\Users\CYMR90~1\AppData\Local\Temp\ccX1amHi.s:28676  .debug_str:000000000001e4a7 .LASF3255
C:\Users\CYMR90~1\AppData\Local\Temp\ccX1amHi.s:23189  .debug_str:00000000000083a3 .LASF3256
C:\Users\CYMR90~1\AppData\Local\Temp\ccX1amHi.s:25083  .debug_str:000000000000fbc7 .LASF3257
C:\Users\CYMR90~1\AppData\Local\Temp\ccX1amHi.s:25853  .debug_str:0000000000012d5c .LASF3258
C:\Users\CYMR90~1\AppData\Local\Temp\ccX1amHi.s:29896  .debug_str:0000000000022eb6 .LASF3259
C:\Users\CYMR90~1\AppData\Local\Temp\ccX1amHi.s:26665  .debug_str:00000000000160be .LASF3260
C:\Users\CYMR90~1\AppData\Local\Temp\ccX1amHi.s:28242  .debug_str:000000000001c755 .LASF3261
C:\Users\CYMR90~1\AppData\Local\Temp\ccX1amHi.s:24097  .debug_str:000000000000bd61 .LASF3262
C:\Users\CYMR90~1\AppData\Local\Temp\ccX1amHi.s:23093  .debug_str:0000000000007c48 .LASF3263
C:\Users\CYMR90~1\AppData\Local\Temp\ccX1amHi.s:22391  .debug_str:0000000000004fd7 .LASF3264
C:\Users\CYMR90~1\AppData\Local\Temp\ccX1amHi.s:25807  .debug_str:0000000000012a5d .LASF3265
C:\Users\CYMR90~1\AppData\Local\Temp\ccX1amHi.s:21407  .debug_str:0000000000001132 .LASF3266
C:\Users\CYMR90~1\AppData\Local\Temp\ccX1amHi.s:21495  .debug_str:0000000000001624 .LASF3267
C:\Users\CYMR90~1\AppData\Local\Temp\ccX1amHi.s:31172  .debug_str:0000000000028190 .LASF3268
C:\Users\CYMR90~1\AppData\Local\Temp\ccX1amHi.s:27904  .debug_str:000000000001b2f8 .LASF3269
C:\Users\CYMR90~1\AppData\Local\Temp\ccX1amHi.s:24373  .debug_str:000000000000cf8c .LASF3270
C:\Users\CYMR90~1\AppData\Local\Temp\ccX1amHi.s:26253  .debug_str:00000000000146c1 .LASF3271
C:\Users\CYMR90~1\AppData\Local\Temp\ccX1amHi.s:27234  .debug_str:000000000001861b .LASF3272
C:\Users\CYMR90~1\AppData\Local\Temp\ccX1amHi.s:31040  .debug_str:0000000000027862 .LASF3273
C:\Users\CYMR90~1\AppData\Local\Temp\ccX1amHi.s:28732  .debug_str:000000000001e808 .LASF3274
C:\Users\CYMR90~1\AppData\Local\Temp\ccX1amHi.s:24183  .debug_str:000000000000c2f8 .LASF3275
C:\Users\CYMR90~1\AppData\Local\Temp\ccX1amHi.s:23753  .debug_str:000000000000a6ce .LASF3276
C:\Users\CYMR90~1\AppData\Local\Temp\ccX1amHi.s:26727  .debug_str:0000000000016490 .LASF3277
C:\Users\CYMR90~1\AppData\Local\Temp\ccX1amHi.s:27676  .debug_str:000000000001a28e .LASF3278
C:\Users\CYMR90~1\AppData\Local\Temp\ccX1amHi.s:28986  .debug_str:000000000001f763 .LASF3279
C:\Users\CYMR90~1\AppData\Local\Temp\ccX1amHi.s:25157  .debug_str:0000000000010089 .LASF3280
C:\Users\CYMR90~1\AppData\Local\Temp\ccX1amHi.s:32306  .debug_str:000000000002c9cb .LASF3281
C:\Users\CYMR90~1\AppData\Local\Temp\ccX1amHi.s:27048  .debug_str:0000000000017b01 .LASF3282
C:\Users\CYMR90~1\AppData\Local\Temp\ccX1amHi.s:29698  .debug_str:0000000000022320 .LASF3283
C:\Users\CYMR90~1\AppData\Local\Temp\ccX1amHi.s:24063  .debug_str:000000000000bb2b .LASF3284
C:\Users\CYMR90~1\AppData\Local\Temp\ccX1amHi.s:29978  .debug_str:000000000002332c .LASF3285
C:\Users\CYMR90~1\AppData\Local\Temp\ccX1amHi.s:26127  .debug_str:0000000000013ee6 .LASF3286
C:\Users\CYMR90~1\AppData\Local\Temp\ccX1amHi.s:28880  .debug_str:000000000001f0b9 .LASF3287
C:\Users\CYMR90~1\AppData\Local\Temp\ccX1amHi.s:24911  .debug_str:000000000000f0dd .LASF3288
C:\Users\CYMR90~1\AppData\Local\Temp\ccX1amHi.s:31700  .debug_str:000000000002a28e .LASF3289
C:\Users\CYMR90~1\AppData\Local\Temp\ccX1amHi.s:25235  .debug_str:0000000000010544 .LASF3290
C:\Users\CYMR90~1\AppData\Local\Temp\ccX1amHi.s:31298  .debug_str:0000000000028a92 .LASF3291
C:\Users\CYMR90~1\AppData\Local\Temp\ccX1amHi.s:26419  .debug_str:0000000000015199 .LASF3292
C:\Users\CYMR90~1\AppData\Local\Temp\ccX1amHi.s:25557  .debug_str:00000000000119d8 .LASF3293
C:\Users\CYMR90~1\AppData\Local\Temp\ccX1amHi.s:23441  .debug_str:0000000000009336 .LASF3294
C:\Users\CYMR90~1\AppData\Local\Temp\ccX1amHi.s:23019  .debug_str:000000000000775c .LASF3295
C:\Users\CYMR90~1\AppData\Local\Temp\ccX1amHi.s:32420  .debug_str:000000000002d14b .LASF3296
C:\Users\CYMR90~1\AppData\Local\Temp\ccX1amHi.s:22183  .debug_str:000000000000420b .LASF3297
C:\Users\CYMR90~1\AppData\Local\Temp\ccX1amHi.s:31958  .debug_str:000000000002b211 .LASF3298
C:\Users\CYMR90~1\AppData\Local\Temp\ccX1amHi.s:24521  .debug_str:000000000000d967 .LASF3299
C:\Users\CYMR90~1\AppData\Local\Temp\ccX1amHi.s:27212  .debug_str:00000000000184b2 .LASF3300
C:\Users\CYMR90~1\AppData\Local\Temp\ccX1amHi.s:26663  .debug_str:00000000000160a6 .LASF3301
C:\Users\CYMR90~1\AppData\Local\Temp\ccX1amHi.s:29990  .debug_str:00000000000233c3 .LASF3302
C:\Users\CYMR90~1\AppData\Local\Temp\ccX1amHi.s:21419  .debug_str:00000000000011d8 .LASF3303
C:\Users\CYMR90~1\AppData\Local\Temp\ccX1amHi.s:22349  .debug_str:0000000000004d9a .LASF3304
C:\Users\CYMR90~1\AppData\Local\Temp\ccX1amHi.s:29848  .debug_str:0000000000022b73 .LASF3305
C:\Users\CYMR90~1\AppData\Local\Temp\ccX1amHi.s:22595  .debug_str:0000000000005c99 .LASF3306
C:\Users\CYMR90~1\AppData\Local\Temp\ccX1amHi.s:30162  .debug_str:0000000000023e27 .LASF3307
C:\Users\CYMR90~1\AppData\Local\Temp\ccX1amHi.s:30574  .debug_str:0000000000025b45 .LASF3308
C:\Users\CYMR90~1\AppData\Local\Temp\ccX1amHi.s:29314  .debug_str:0000000000020b99 .LASF3309
C:\Users\CYMR90~1\AppData\Local\Temp\ccX1amHi.s:26565  .debug_str:0000000000015a0b .LASF3310
C:\Users\CYMR90~1\AppData\Local\Temp\ccX1amHi.s:26307  .debug_str:0000000000014a30 .LASF3311
C:\Users\CYMR90~1\AppData\Local\Temp\ccX1amHi.s:27038  .debug_str:0000000000017a57 .LASF3312
C:\Users\CYMR90~1\AppData\Local\Temp\ccX1amHi.s:29208  .debug_str:000000000002049e .LASF3313
C:\Users\CYMR90~1\AppData\Local\Temp\ccX1amHi.s:22985  .debug_str:0000000000007548 .LASF3314
C:\Users\CYMR90~1\AppData\Local\Temp\ccX1amHi.s:21191  .debug_str:00000000000003c6 .LASF3315
C:\Users\CYMR90~1\AppData\Local\Temp\ccX1amHi.s:31322  .debug_str:0000000000028c1f .LASF3316
C:\Users\CYMR90~1\AppData\Local\Temp\ccX1amHi.s:21317  .debug_str:0000000000000bae .LASF3317
C:\Users\CYMR90~1\AppData\Local\Temp\ccX1amHi.s:29678  .debug_str:00000000000221e0 .LASF3318
C:\Users\CYMR90~1\AppData\Local\Temp\ccX1amHi.s:26459  .debug_str:0000000000015410 .LASF3319
C:\Users\CYMR90~1\AppData\Local\Temp\ccX1amHi.s:26109  .debug_str:0000000000013ded .LASF3320
C:\Users\CYMR90~1\AppData\Local\Temp\ccX1amHi.s:24397  .debug_str:000000000000d114 .LASF3321
C:\Users\CYMR90~1\AppData\Local\Temp\ccX1amHi.s:29980  .debug_str:0000000000023352 .LASF3322
C:\Users\CYMR90~1\AppData\Local\Temp\ccX1amHi.s:27950  .debug_str:000000000001b5e1 .LASF3323
C:\Users\CYMR90~1\AppData\Local\Temp\ccX1amHi.s:26725  .debug_str:0000000000016473 .LASF3324
C:\Users\CYMR90~1\AppData\Local\Temp\ccX1amHi.s:30416  .debug_str:0000000000024f25 .LASF3325
C:\Users\CYMR90~1\AppData\Local\Temp\ccX1amHi.s:25045  .debug_str:000000000000f995 .LASF3326
C:\Users\CYMR90~1\AppData\Local\Temp\ccX1amHi.s:29894  .debug_str:0000000000022e9a .LASF3327
C:\Users\CYMR90~1\AppData\Local\Temp\ccX1amHi.s:25949  .debug_str:00000000000133cd .LASF3328
C:\Users\CYMR90~1\AppData\Local\Temp\ccX1amHi.s:28444  .debug_str:000000000001d5d7 .LASF3329
C:\Users\CYMR90~1\AppData\Local\Temp\ccX1amHi.s:22807  .debug_str:000000000000697a .LASF3330
C:\Users\CYMR90~1\AppData\Local\Temp\ccX1amHi.s:32344  .debug_str:000000000002cc3c .LASF3331
C:\Users\CYMR90~1\AppData\Local\Temp\ccX1amHi.s:23005  .debug_str:0000000000007671 .LASF3332
C:\Users\CYMR90~1\AppData\Local\Temp\ccX1amHi.s:22111  .debug_str:0000000000003d0f .LASF3333
C:\Users\CYMR90~1\AppData\Local\Temp\ccX1amHi.s:32030  .debug_str:000000000002b6ea .LASF3334
C:\Users\CYMR90~1\AppData\Local\Temp\ccX1amHi.s:23909  .debug_str:000000000000b145 .LASF3335
C:\Users\CYMR90~1\AppData\Local\Temp\ccX1amHi.s:26101  .debug_str:0000000000013d85 .LASF3336
C:\Users\CYMR90~1\AppData\Local\Temp\ccX1amHi.s:22383  .debug_str:0000000000004f77 .LASF3337
C:\Users\CYMR90~1\AppData\Local\Temp\ccX1amHi.s:23787  .debug_str:000000000000a8cb .LASF3338
C:\Users\CYMR90~1\AppData\Local\Temp\ccX1amHi.s:22573  .debug_str:0000000000005b34 .LASF3339
C:\Users\CYMR90~1\AppData\Local\Temp\ccX1amHi.s:24007  .debug_str:000000000000b74a .LASF3340
C:\Users\CYMR90~1\AppData\Local\Temp\ccX1amHi.s:22505  .debug_str:0000000000005706 .LASF3341
C:\Users\CYMR90~1\AppData\Local\Temp\ccX1amHi.s:25671  .debug_str:000000000001214f .LASF3342
C:\Users\CYMR90~1\AppData\Local\Temp\ccX1amHi.s:31078  .debug_str:0000000000027b02 .LASF3343
C:\Users\CYMR90~1\AppData\Local\Temp\ccX1amHi.s:27472  .debug_str:00000000000195b7 .LASF3344
C:\Users\CYMR90~1\AppData\Local\Temp\ccX1amHi.s:26251  .debug_str:0000000000014686 .LASF3345
C:\Users\CYMR90~1\AppData\Local\Temp\ccX1amHi.s:32372  .debug_str:000000000002ce6e .LASF3346
C:\Users\CYMR90~1\AppData\Local\Temp\ccX1amHi.s:28954  .debug_str:000000000001f57a .LASF3347
C:\Users\CYMR90~1\AppData\Local\Temp\ccX1amHi.s:25599  .debug_str:0000000000011cd1 .LASF3348
C:\Users\CYMR90~1\AppData\Local\Temp\ccX1amHi.s:22139  .debug_str:0000000000003f09 .LASF3349
C:\Users\CYMR90~1\AppData\Local\Temp\ccX1amHi.s:30032  .debug_str:0000000000023643 .LASF3350
C:\Users\CYMR90~1\AppData\Local\Temp\ccX1amHi.s:26617  .debug_str:0000000000015d4e .LASF3351
C:\Users\CYMR90~1\AppData\Local\Temp\ccX1amHi.s:23225  .debug_str:0000000000008615 .LASF3352
C:\Users\CYMR90~1\AppData\Local\Temp\ccX1amHi.s:27158  .debug_str:000000000001814e .LASF3353
C:\Users\CYMR90~1\AppData\Local\Temp\ccX1amHi.s:32088  .debug_str:000000000002bb0d .LASF3354
C:\Users\CYMR90~1\AppData\Local\Temp\ccX1amHi.s:30648  .debug_str:0000000000025f97 .LASF3355
C:\Users\CYMR90~1\AppData\Local\Temp\ccX1amHi.s:21515  .debug_str:000000000000181c .LASF3356
C:\Users\CYMR90~1\AppData\Local\Temp\ccX1amHi.s:22545  .debug_str:0000000000005950 .LASF3357
C:\Users\CYMR90~1\AppData\Local\Temp\ccX1amHi.s:28740  .debug_str:000000000001e854 .LASF3358
C:\Users\CYMR90~1\AppData\Local\Temp\ccX1amHi.s:28962  .debug_str:000000000001f5f8 .LASF3359
C:\Users\CYMR90~1\AppData\Local\Temp\ccX1amHi.s:30078  .debug_str:0000000000023960 .LASF3360
C:\Users\CYMR90~1\AppData\Local\Temp\ccX1amHi.s:21511  .debug_str:00000000000017d5 .LASF3361
C:\Users\CYMR90~1\AppData\Local\Temp\ccX1amHi.s:27268  .debug_str:00000000000187c7 .LASF3362
C:\Users\CYMR90~1\AppData\Local\Temp\ccX1amHi.s:32326  .debug_str:000000000002cb1f .LASF3363
C:\Users\CYMR90~1\AppData\Local\Temp\ccX1amHi.s:23979  .debug_str:000000000000b51c .LASF3364
C:\Users\CYMR90~1\AppData\Local\Temp\ccX1amHi.s:27140  .debug_str:000000000001806f .LASF3365
C:\Users\CYMR90~1\AppData\Local\Temp\ccX1amHi.s:21451  .debug_str:00000000000013b1 .LASF3366
C:\Users\CYMR90~1\AppData\Local\Temp\ccX1amHi.s:28220  .debug_str:000000000001c612 .LASF3367
C:\Users\CYMR90~1\AppData\Local\Temp\ccX1amHi.s:24191  .debug_str:000000000000c36e .LASF3368
C:\Users\CYMR90~1\AppData\Local\Temp\ccX1amHi.s:24457  .debug_str:000000000000d579 .LASF3369
C:\Users\CYMR90~1\AppData\Local\Temp\ccX1amHi.s:32084  .debug_str:000000000002bac2 .LASF3370
C:\Users\CYMR90~1\AppData\Local\Temp\ccX1amHi.s:29158  .debug_str:00000000000201c9 .LASF3371
C:\Users\CYMR90~1\AppData\Local\Temp\ccX1amHi.s:24939  .debug_str:000000000000f2ab .LASF3372
C:\Users\CYMR90~1\AppData\Local\Temp\ccX1amHi.s:30572  .debug_str:0000000000025b1d .LASF3373
C:\Users\CYMR90~1\AppData\Local\Temp\ccX1amHi.s:29536  .debug_str:0000000000021941 .LASF3374
C:\Users\CYMR90~1\AppData\Local\Temp\ccX1amHi.s:25201  .debug_str:000000000001034b .LASF3375
C:\Users\CYMR90~1\AppData\Local\Temp\ccX1amHi.s:29156  .debug_str:00000000000201a2 .LASF3376
C:\Users\CYMR90~1\AppData\Local\Temp\ccX1amHi.s:26261  .debug_str:0000000000014775 .LASF3377
C:\Users\CYMR90~1\AppData\Local\Temp\ccX1amHi.s:31968  .debug_str:000000000002b2e9 .LASF3378
C:\Users\CYMR90~1\AppData\Local\Temp\ccX1amHi.s:23235  .debug_str:00000000000086ac .LASF3379
C:\Users\CYMR90~1\AppData\Local\Temp\ccX1amHi.s:24387  .debug_str:000000000000d087 .LASF3380
C:\Users\CYMR90~1\AppData\Local\Temp\ccX1amHi.s:30708  .debug_str:0000000000026365 .LASF3381
C:\Users\CYMR90~1\AppData\Local\Temp\ccX1amHi.s:32374  .debug_str:000000000002ce95 .LASF3382
C:\Users\CYMR90~1\AppData\Local\Temp\ccX1amHi.s:26171  .debug_str:00000000000141b6 .LASF3383
C:\Users\CYMR90~1\AppData\Local\Temp\ccX1amHi.s:27510  .debug_str:0000000000019800 .LASF3384
C:\Users\CYMR90~1\AppData\Local\Temp\ccX1amHi.s:24915  .debug_str:000000000000f10d .LASF3385
C:\Users\CYMR90~1\AppData\Local\Temp\ccX1amHi.s:28878  .debug_str:000000000001f09b .LASF3386
C:\Users\CYMR90~1\AppData\Local\Temp\ccX1amHi.s:27322  .debug_str:0000000000018b65 .LASF3387
C:\Users\CYMR90~1\AppData\Local\Temp\ccX1amHi.s:31892  .debug_str:000000000002ae33 .LASF3388
C:\Users\CYMR90~1\AppData\Local\Temp\ccX1amHi.s:28106  .debug_str:000000000001bf46 .LASF3389
C:\Users\CYMR90~1\AppData\Local\Temp\ccX1amHi.s:22099  .debug_str:0000000000003c50 .LASF3390
C:\Users\CYMR90~1\AppData\Local\Temp\ccX1amHi.s:23891  .debug_str:000000000000af85 .LASF3391
C:\Users\CYMR90~1\AppData\Local\Temp\ccX1amHi.s:24935  .debug_str:000000000000f25d .LASF3392
C:\Users\CYMR90~1\AppData\Local\Temp\ccX1amHi.s:29612  .debug_str:0000000000021dca .LASF3393
C:\Users\CYMR90~1\AppData\Local\Temp\ccX1amHi.s:26833  .debug_str:0000000000016c2a .LASF3394
C:\Users\CYMR90~1\AppData\Local\Temp\ccX1amHi.s:28636  .debug_str:000000000001e237 .LASF3395
C:\Users\CYMR90~1\AppData\Local\Temp\ccX1amHi.s:27856  .debug_str:000000000001af7c .LASF3396
C:\Users\CYMR90~1\AppData\Local\Temp\ccX1amHi.s:29634  .debug_str:0000000000021f4c .LASF3397
C:\Users\CYMR90~1\AppData\Local\Temp\ccX1amHi.s:23857  .debug_str:000000000000ad5a .LASF3398
C:\Users\CYMR90~1\AppData\Local\Temp\ccX1amHi.s:26225  .debug_str:00000000000144d0 .LASF3399
C:\Users\CYMR90~1\AppData\Local\Temp\ccX1amHi.s:22649  .debug_str:0000000000005fb2 .LASF3400
C:\Users\CYMR90~1\AppData\Local\Temp\ccX1amHi.s:29372  .debug_str:0000000000020f36 .LASF3401
C:\Users\CYMR90~1\AppData\Local\Temp\ccX1amHi.s:25841  .debug_str:0000000000012c96 .LASF3402
C:\Users\CYMR90~1\AppData\Local\Temp\ccX1amHi.s:27924  .debug_str:000000000001b452 .LASF3403
C:\Users\CYMR90~1\AppData\Local\Temp\ccX1amHi.s:27792  .debug_str:000000000001abc9 .LASF3404
C:\Users\CYMR90~1\AppData\Local\Temp\ccX1amHi.s:22401  .debug_str:000000000000508c .LASF3405
C:\Users\CYMR90~1\AppData\Local\Temp\ccX1amHi.s:29232  .debug_str:000000000002064b .LASF3406
C:\Users\CYMR90~1\AppData\Local\Temp\ccX1amHi.s:25915  .debug_str:0000000000013174 .LASF3407
C:\Users\CYMR90~1\AppData\Local\Temp\ccX1amHi.s:23727  .debug_str:000000000000a568 .LASF3408
C:\Users\CYMR90~1\AppData\Local\Temp\ccX1amHi.s:28262  .debug_str:000000000001c8c8 .LASF3409
C:\Users\CYMR90~1\AppData\Local\Temp\ccX1amHi.s:22921  .debug_str:00000000000070a7 .LASF3410
C:\Users\CYMR90~1\AppData\Local\Temp\ccX1amHi.s:30892  .debug_str:0000000000026ee7 .LASF3411
C:\Users\CYMR90~1\AppData\Local\Temp\ccX1amHi.s:22315  .debug_str:0000000000004b4b .LASF3412
C:\Users\CYMR90~1\AppData\Local\Temp\ccX1amHi.s:22647  .debug_str:0000000000005fa1 .LASF3413
C:\Users\CYMR90~1\AppData\Local\Temp\ccX1amHi.s:21629  .debug_str:0000000000001ee2 .LASF3414
C:\Users\CYMR90~1\AppData\Local\Temp\ccX1amHi.s:27216  .debug_str:00000000000184e9 .LASF3415
C:\Users\CYMR90~1\AppData\Local\Temp\ccX1amHi.s:26936  .debug_str:00000000000173d9 .LASF3416
C:\Users\CYMR90~1\AppData\Local\Temp\ccX1amHi.s:27980  .debug_str:000000000001b79c .LASF3417
C:\Users\CYMR90~1\AppData\Local\Temp\ccX1amHi.s:24617  .debug_str:000000000000defe .LASF3418
C:\Users\CYMR90~1\AppData\Local\Temp\ccX1amHi.s:29368  .debug_str:0000000000020ef9 .LASF3419
C:\Users\CYMR90~1\AppData\Local\Temp\ccX1amHi.s:30222  .debug_str:00000000000242ab .LASF3420
C:\Users\CYMR90~1\AppData\Local\Temp\ccX1amHi.s:31090  .debug_str:0000000000027bb5 .LASF3421
C:\Users\CYMR90~1\AppData\Local\Temp\ccX1amHi.s:29492  .debug_str:00000000000216a6 .LASF3422
C:\Users\CYMR90~1\AppData\Local\Temp\ccX1amHi.s:30732  .debug_str:00000000000264c3 .LASF3423
C:\Users\CYMR90~1\AppData\Local\Temp\ccX1amHi.s:22939  .debug_str:0000000000007215 .LASF3424
C:\Users\CYMR90~1\AppData\Local\Temp\ccX1amHi.s:27988  .debug_str:000000000001b829 .LASF3425
C:\Users\CYMR90~1\AppData\Local\Temp\ccX1amHi.s:21719  .debug_str:00000000000023a0 .LASF3426
C:\Users\CYMR90~1\AppData\Local\Temp\ccX1amHi.s:30490  .debug_str:00000000000254b6 .LASF3427
C:\Users\CYMR90~1\AppData\Local\Temp\ccX1amHi.s:24197  .debug_str:000000000000c3ed .LASF3428
C:\Users\CYMR90~1\AppData\Local\Temp\ccX1amHi.s:26699  .debug_str:00000000000162e3 .LASF3429
C:\Users\CYMR90~1\AppData\Local\Temp\ccX1amHi.s:30926  .debug_str:00000000000270ed .LASF3430
C:\Users\CYMR90~1\AppData\Local\Temp\ccX1amHi.s:23845  .debug_str:000000000000ac8a .LASF3431
C:\Users\CYMR90~1\AppData\Local\Temp\ccX1amHi.s:24697  .debug_str:000000000000e3dc .LASF3432
C:\Users\CYMR90~1\AppData\Local\Temp\ccX1amHi.s:22319  .debug_str:0000000000004b9a .LASF3433
C:\Users\CYMR90~1\AppData\Local\Temp\ccX1amHi.s:21311  .debug_str:0000000000000b34 .LASF3434
C:\Users\CYMR90~1\AppData\Local\Temp\ccX1amHi.s:29644  .debug_str:0000000000021ff0 .LASF3435
C:\Users\CYMR90~1\AppData\Local\Temp\ccX1amHi.s:23863  .debug_str:000000000000adaf .LASF3436
C:\Users\CYMR90~1\AppData\Local\Temp\ccX1amHi.s:22015  .debug_str:00000000000036d1 .LASF3437
C:\Users\CYMR90~1\AppData\Local\Temp\ccX1amHi.s:21477  .debug_str:0000000000001509 .LASF3438
C:\Users\CYMR90~1\AppData\Local\Temp\ccX1amHi.s:27236  .debug_str:0000000000018634 .LASF3439
C:\Users\CYMR90~1\AppData\Local\Temp\ccX1amHi.s:26721  .debug_str:0000000000016442 .LASF3440
C:\Users\CYMR90~1\AppData\Local\Temp\ccX1amHi.s:25903  .debug_str:00000000000130a8 .LASF3441
C:\Users\CYMR90~1\AppData\Local\Temp\ccX1amHi.s:27584  .debug_str:0000000000019d43 .LASF3442
C:\Users\CYMR90~1\AppData\Local\Temp\ccX1amHi.s:31856  .debug_str:000000000002abf9 .LASF3443
C:\Users\CYMR90~1\AppData\Local\Temp\ccX1amHi.s:26785  .debug_str:0000000000016858 .LASF3444
C:\Users\CYMR90~1\AppData\Local\Temp\ccX1amHi.s:28208  .debug_str:000000000001c57c .LASF3445
C:\Users\CYMR90~1\AppData\Local\Temp\ccX1amHi.s:27880  .debug_str:000000000001b14c .LASF3446
C:\Users\CYMR90~1\AppData\Local\Temp\ccX1amHi.s:30762  .debug_str:00000000000266bd .LASF3447
C:\Users\CYMR90~1\AppData\Local\Temp\ccX1amHi.s:23159  .debug_str:00000000000081b3 .LASF3448
C:\Users\CYMR90~1\AppData\Local\Temp\ccX1amHi.s:21835  .debug_str:0000000000002b0e .LASF3449
C:\Users\CYMR90~1\AppData\Local\Temp\ccX1amHi.s:29574  .debug_str:0000000000021b68 .LASF3450
C:\Users\CYMR90~1\AppData\Local\Temp\ccX1amHi.s:28910  .debug_str:000000000001f2de .LASF3451
C:\Users\CYMR90~1\AppData\Local\Temp\ccX1amHi.s:29200  .debug_str:0000000000020432 .LASF3452
C:\Users\CYMR90~1\AppData\Local\Temp\ccX1amHi.s:29726  .debug_str:00000000000224b7 .LASF3453
C:\Users\CYMR90~1\AppData\Local\Temp\ccX1amHi.s:25333  .debug_str:0000000000010b90 .LASF3454
C:\Users\CYMR90~1\AppData\Local\Temp\ccX1amHi.s:22867  .debug_str:0000000000006d3d .LASF3455
C:\Users\CYMR90~1\AppData\Local\Temp\ccX1amHi.s:32014  .debug_str:000000000002b62f .LASF3456
C:\Users\CYMR90~1\AppData\Local\Temp\ccX1amHi.s:31844  .debug_str:000000000002ab38 .LASF3457
C:\Users\CYMR90~1\AppData\Local\Temp\ccX1amHi.s:28580  .debug_str:000000000001deac .LASF3458
C:\Users\CYMR90~1\AppData\Local\Temp\ccX1amHi.s:21293  .debug_str:00000000000009b2 .LASF3459
C:\Users\CYMR90~1\AppData\Local\Temp\ccX1amHi.s:30858  .debug_str:0000000000026c9f .LASF3460
C:\Users\CYMR90~1\AppData\Local\Temp\ccX1amHi.s:25113  .debug_str:000000000000fdbd .LASF3461
C:\Users\CYMR90~1\AppData\Local\Temp\ccX1amHi.s:32316  .debug_str:000000000002ca68 .LASF3462
C:\Users\CYMR90~1\AppData\Local\Temp\ccX1amHi.s:27400  .debug_str:000000000001916d .LASF3463
C:\Users\CYMR90~1\AppData\Local\Temp\ccX1amHi.s:31016  .debug_str:0000000000027715 .LASF3464
C:\Users\CYMR90~1\AppData\Local\Temp\ccX1amHi.s:27448  .debug_str:0000000000019431 .LASF3465
C:\Users\CYMR90~1\AppData\Local\Temp\ccX1amHi.s:29712  .debug_str:000000000002240b .LASF3466
C:\Users\CYMR90~1\AppData\Local\Temp\ccX1amHi.s:26157  .debug_str:00000000000140b0 .LASF3467
C:\Users\CYMR90~1\AppData\Local\Temp\ccX1amHi.s:24293  .debug_str:000000000000ca3e .LASF3468
C:\Users\CYMR90~1\AppData\Local\Temp\ccX1amHi.s:21899  .debug_str:0000000000002edd .LASF3469
C:\Users\CYMR90~1\AppData\Local\Temp\ccX1amHi.s:27756  .debug_str:000000000001a97d .LASF3470
C:\Users\CYMR90~1\AppData\Local\Temp\ccX1amHi.s:28990  .debug_str:000000000001f796 .LASF3471
C:\Users\CYMR90~1\AppData\Local\Temp\ccX1amHi.s:31652  .debug_str:0000000000029fcd .LASF3472
C:\Users\CYMR90~1\AppData\Local\Temp\ccX1amHi.s:30846  .debug_str:0000000000026c0c .LASF3473
C:\Users\CYMR90~1\AppData\Local\Temp\ccX1amHi.s:29770  .debug_str:0000000000022709 .LASF3474
C:\Users\CYMR90~1\AppData\Local\Temp\ccX1amHi.s:30432  .debug_str:000000000002500c .LASF3475
C:\Users\CYMR90~1\AppData\Local\Temp\ccX1amHi.s:28578  .debug_str:000000000001de90 .LASF3476
C:\Users\CYMR90~1\AppData\Local\Temp\ccX1amHi.s:28646  .debug_str:000000000001e2fc .LASF3477
C:\Users\CYMR90~1\AppData\Local\Temp\ccX1amHi.s:27664  .debug_str:000000000001a1db .LASF3478
C:\Users\CYMR90~1\AppData\Local\Temp\ccX1amHi.s:21199  .debug_str:000000000000043c .LASF3479
C:\Users\CYMR90~1\AppData\Local\Temp\ccX1amHi.s:27026  .debug_str:0000000000017964 .LASF3480
C:\Users\CYMR90~1\AppData\Local\Temp\ccX1amHi.s:30618  .debug_str:0000000000025dcf .LASF3481
C:\Users\CYMR90~1\AppData\Local\Temp\ccX1amHi.s:22429  .debug_str:0000000000005256 .LASF3482
C:\Users\CYMR90~1\AppData\Local\Temp\ccX1amHi.s:21527  .debug_str:00000000000018f1 .LASF3483
C:\Users\CYMR90~1\AppData\Local\Temp\ccX1amHi.s:26575  .debug_str:0000000000015a97 .LASF3484
C:\Users\CYMR90~1\AppData\Local\Temp\ccX1amHi.s:25019  .debug_str:000000000000f759 .LASF3485
C:\Users\CYMR90~1\AppData\Local\Temp\ccX1amHi.s:23531  .debug_str:00000000000098db .LASF3486
C:\Users\CYMR90~1\AppData\Local\Temp\ccX1amHi.s:28662  .debug_str:000000000001e3e7 .LASF3487
C:\Users\CYMR90~1\AppData\Local\Temp\ccX1amHi.s:21621  .debug_str:0000000000001e6c .LASF3488
C:\Users\CYMR90~1\AppData\Local\Temp\ccX1amHi.s:28970  .debug_str:000000000001f68c .LASF3489
C:\Users\CYMR90~1\AppData\Local\Temp\ccX1amHi.s:23505  .debug_str:0000000000009771 .LASF3490
C:\Users\CYMR90~1\AppData\Local\Temp\ccX1amHi.s:27148  .debug_str:00000000000180f1 .LASF3491
C:\Users\CYMR90~1\AppData\Local\Temp\ccX1amHi.s:30720  .debug_str:000000000002640b .LASF3492
C:\Users\CYMR90~1\AppData\Local\Temp\ccX1amHi.s:24655  .debug_str:000000000000e143 .LASF3493
C:\Users\CYMR90~1\AppData\Local\Temp\ccX1amHi.s:28724  .debug_str:000000000001e7ad .LASF3494
C:\Users\CYMR90~1\AppData\Local\Temp\ccX1amHi.s:32214  .debug_str:000000000002c379 .LASF3495
C:\Users\CYMR90~1\AppData\Local\Temp\ccX1amHi.s:24967  .debug_str:000000000000f465 .LASF3496
C:\Users\CYMR90~1\AppData\Local\Temp\ccX1amHi.s:29014  .debug_str:000000000001f901 .LASF3497
C:\Users\CYMR90~1\AppData\Local\Temp\ccX1amHi.s:22303  .debug_str:0000000000004a92 .LASF3498
C:\Users\CYMR90~1\AppData\Local\Temp\ccX1amHi.s:28906  .debug_str:000000000001f2aa .LASF3499
C:\Users\CYMR90~1\AppData\Local\Temp\ccX1amHi.s:24667  .debug_str:000000000000e20a .LASF3500
C:\Users\CYMR90~1\AppData\Local\Temp\ccX1amHi.s:26553  .debug_str:0000000000015921 .LASF3501
C:\Users\CYMR90~1\AppData\Local\Temp\ccX1amHi.s:29564  .debug_str:0000000000021aef .LASF3502
C:\Users\CYMR90~1\AppData\Local\Temp\ccX1amHi.s:26918  .debug_str:00000000000172d9 .LASF3503
C:\Users\CYMR90~1\AppData\Local\Temp\ccX1amHi.s:28454  .debug_str:000000000001d684 .LASF3504
C:\Users\CYMR90~1\AppData\Local\Temp\ccX1amHi.s:26968  .debug_str:00000000000175bf .LASF3505
C:\Users\CYMR90~1\AppData\Local\Temp\ccX1amHi.s:30452  .debug_str:00000000000251ad .LASF3506
C:\Users\CYMR90~1\AppData\Local\Temp\ccX1amHi.s:28606  .debug_str:000000000001e087 .LASF3507
C:\Users\CYMR90~1\AppData\Local\Temp\ccX1amHi.s:29538  .debug_str:0000000000021980 .LASF3508
C:\Users\CYMR90~1\AppData\Local\Temp\ccX1amHi.s:25223  .debug_str:0000000000010491 .LASF3509
C:\Users\CYMR90~1\AppData\Local\Temp\ccX1amHi.s:26357  .debug_str:0000000000014d4f .LASF3510
C:\Users\CYMR90~1\AppData\Local\Temp\ccX1amHi.s:32336  .debug_str:000000000002cbde .LASF3511
C:\Users\CYMR90~1\AppData\Local\Temp\ccX1amHi.s:24385  .debug_str:000000000000d070 .LASF3512
C:\Users\CYMR90~1\AppData\Local\Temp\ccX1amHi.s:27198  .debug_str:00000000000183f6 .LASF3513
C:\Users\CYMR90~1\AppData\Local\Temp\ccX1amHi.s:23535  .debug_str:000000000000990d .LASF3514
C:\Users\CYMR90~1\AppData\Local\Temp\ccX1amHi.s:30718  .debug_str:00000000000263ee .LASF3515
C:\Users\CYMR90~1\AppData\Local\Temp\ccX1amHi.s:31788  .debug_str:000000000002a806 .LASF3516
C:\Users\CYMR90~1\AppData\Local\Temp\ccX1amHi.s:24085  .debug_str:000000000000bc79 .LASF3517
C:\Users\CYMR90~1\AppData\Local\Temp\ccX1amHi.s:31196  .debug_str:000000000002839e .LASF3518
C:\Users\CYMR90~1\AppData\Local\Temp\ccX1amHi.s:28112  .debug_str:000000000001bfbe .LASF3519
C:\Users\CYMR90~1\AppData\Local\Temp\ccX1amHi.s:31664  .debug_str:000000000002a071 .LASF3520
C:\Users\CYMR90~1\AppData\Local\Temp\ccX1amHi.s:21693  .debug_str:0000000000002247 .LASF3521
C:\Users\CYMR90~1\AppData\Local\Temp\ccX1amHi.s:30776  .debug_str:00000000000267d1 .LASF3522
C:\Users\CYMR90~1\AppData\Local\Temp\ccX1amHi.s:27538  .debug_str:0000000000019a7e .LASF3523
C:\Users\CYMR90~1\AppData\Local\Temp\ccX1amHi.s:27466  .debug_str:0000000000019565 .LASF3524
C:\Users\CYMR90~1\AppData\Local\Temp\ccX1amHi.s:27884  .debug_str:000000000001b18c .LASF3525
C:\Users\CYMR90~1\AppData\Local\Temp\ccX1amHi.s:21701  .debug_str:00000000000022b1 .LASF3526
C:\Users\CYMR90~1\AppData\Local\Temp\ccX1amHi.s:31116  .debug_str:0000000000027db5 .LASF3527
C:\Users\CYMR90~1\AppData\Local\Temp\ccX1amHi.s:28538  .debug_str:000000000001dbdf .LASF3528
C:\Users\CYMR90~1\AppData\Local\Temp\ccX1amHi.s:22313  .debug_str:0000000000004b30 .LASF3529
C:\Users\CYMR90~1\AppData\Local\Temp\ccX1amHi.s:24757  .debug_str:000000000000e7af .LASF3530
C:\Users\CYMR90~1\AppData\Local\Temp\ccX1amHi.s:29324  .debug_str:0000000000020c07 .LASF3531
C:\Users\CYMR90~1\AppData\Local\Temp\ccX1amHi.s:32170  .debug_str:000000000002c0d5 .LASF3532
C:\Users\CYMR90~1\AppData\Local\Temp\ccX1amHi.s:31910  .debug_str:000000000002af52 .LASF3533
C:\Users\CYMR90~1\AppData\Local\Temp\ccX1amHi.s:21253  .debug_str:000000000000075a .LASF3534
C:\Users\CYMR90~1\AppData\Local\Temp\ccX1amHi.s:24883  .debug_str:000000000000ef35 .LASF3535
C:\Users\CYMR90~1\AppData\Local\Temp\ccX1amHi.s:26265  .debug_str:00000000000147c8 .LASF3536
C:\Users\CYMR90~1\AppData\Local\Temp\ccX1amHi.s:30090  .debug_str:0000000000023a0e .LASF3537
C:\Users\CYMR90~1\AppData\Local\Temp\ccX1amHi.s:27710  .debug_str:000000000001a60f .LASF3538
C:\Users\CYMR90~1\AppData\Local\Temp\ccX1amHi.s:26866  .debug_str:0000000000016fca .LASF3539
C:\Users\CYMR90~1\AppData\Local\Temp\ccX1amHi.s:27308  .debug_str:0000000000018aa2 .LASF3540
C:\Users\CYMR90~1\AppData\Local\Temp\ccX1amHi.s:31736  .debug_str:000000000002a4a8 .LASF3541
C:\Users\CYMR90~1\AppData\Local\Temp\ccX1amHi.s:24433  .debug_str:000000000000d3b2 .LASF3542
C:\Users\CYMR90~1\AppData\Local\Temp\ccX1amHi.s:26914  .debug_str:0000000000017294 .LASF3543
C:\Users\CYMR90~1\AppData\Local\Temp\ccX1amHi.s:26573  .debug_str:0000000000015a7f .LASF3544
C:\Users\CYMR90~1\AppData\Local\Temp\ccX1amHi.s:26331  .debug_str:0000000000014bc1 .LASF3545
C:\Users\CYMR90~1\AppData\Local\Temp\ccX1amHi.s:28692  .debug_str:000000000001e5b8 .LASF3546
C:\Users\CYMR90~1\AppData\Local\Temp\ccX1amHi.s:31532  .debug_str:00000000000298e9 .LASF3547
C:\Users\CYMR90~1\AppData\Local\Temp\ccX1amHi.s:21829  .debug_str:0000000000002ac8 .LASF3548
C:\Users\CYMR90~1\AppData\Local\Temp\ccX1amHi.s:28890  .debug_str:000000000001f16f .LASF3549
C:\Users\CYMR90~1\AppData\Local\Temp\ccX1amHi.s:23661  .debug_str:000000000000a14a .LASF3550
C:\Users\CYMR90~1\AppData\Local\Temp\ccX1amHi.s:21949  .debug_str:000000000000324d .LASF3551
C:\Users\CYMR90~1\AppData\Local\Temp\ccX1amHi.s:23907  .debug_str:000000000000b12c .LASF3552
C:\Users\CYMR90~1\AppData\Local\Temp\ccX1amHi.s:22829  .debug_str:0000000000006ac4 .LASF3553
C:\Users\CYMR90~1\AppData\Local\Temp\ccX1amHi.s:30394  .debug_str:0000000000024dd2 .LASF3554
C:\Users\CYMR90~1\AppData\Local\Temp\ccX1amHi.s:27776  .debug_str:000000000001aab2 .LASF3555
C:\Users\CYMR90~1\AppData\Local\Temp\ccX1amHi.s:27634  .debug_str:000000000001a039 .LASF3556
C:\Users\CYMR90~1\AppData\Local\Temp\ccX1amHi.s:22787  .debug_str:000000000000683c .LASF3557
C:\Users\CYMR90~1\AppData\Local\Temp\ccX1amHi.s:24765  .debug_str:000000000000e81f .LASF3558
C:\Users\CYMR90~1\AppData\Local\Temp\ccX1amHi.s:24601  .debug_str:000000000000ddd6 .LASF3559
C:\Users\CYMR90~1\AppData\Local\Temp\ccX1amHi.s:23227  .debug_str:000000000000863c .LASF3560
C:\Users\CYMR90~1\AppData\Local\Temp\ccX1amHi.s:23421  .debug_str:00000000000091e5 .LASF3561
C:\Users\CYMR90~1\AppData\Local\Temp\ccX1amHi.s:24009  .debug_str:000000000000b76c .LASF3562
C:\Users\CYMR90~1\AppData\Local\Temp\ccX1amHi.s:21973  .debug_str:00000000000033d2 .LASF3563
C:\Users\CYMR90~1\AppData\Local\Temp\ccX1amHi.s:23347  .debug_str:0000000000008d5e .LASF3564
C:\Users\CYMR90~1\AppData\Local\Temp\ccX1amHi.s:31358  .debug_str:0000000000028e08 .LASF3565
C:\Users\CYMR90~1\AppData\Local\Temp\ccX1amHi.s:26910  .debug_str:0000000000017266 .LASF3566
C:\Users\CYMR90~1\AppData\Local\Temp\ccX1amHi.s:24157  .debug_str:000000000000c186 .LASF3567
C:\Users\CYMR90~1\AppData\Local\Temp\ccX1amHi.s:30028  .debug_str:0000000000023609 .LASF3568
C:\Users\CYMR90~1\AppData\Local\Temp\ccX1amHi.s:32082  .debug_str:000000000002baa8 .LASF3569
C:\Users\CYMR90~1\AppData\Local\Temp\ccX1amHi.s:25723  .debug_str:0000000000012493 .LASF3570
C:\Users\CYMR90~1\AppData\Local\Temp\ccX1amHi.s:25573  .debug_str:0000000000011b48 .LASF3571
C:\Users\CYMR90~1\AppData\Local\Temp\ccX1amHi.s:27898  .debug_str:000000000001b29e .LASF3572
C:\Users\CYMR90~1\AppData\Local\Temp\ccX1amHi.s:30040  .debug_str:00000000000236f9 .LASF3573
C:\Users\CYMR90~1\AppData\Local\Temp\ccX1amHi.s:31464  .debug_str:00000000000294a4 .LASF3574
C:\Users\CYMR90~1\AppData\Local\Temp\ccX1amHi.s:27552  .debug_str:0000000000019b47 .LASF3575
C:\Users\CYMR90~1\AppData\Local\Temp\ccX1amHi.s:28876  .debug_str:000000000001f07c .LASF3576
C:\Users\CYMR90~1\AppData\Local\Temp\ccX1amHi.s:29968  .debug_str:0000000000023280 .LASF3577
C:\Users\CYMR90~1\AppData\Local\Temp\ccX1amHi.s:30804  .debug_str:0000000000026980 .LASF3578
C:\Users\CYMR90~1\AppData\Local\Temp\ccX1amHi.s:21353  .debug_str:0000000000000da8 .LASF3579
C:\Users\CYMR90~1\AppData\Local\Temp\ccX1amHi.s:29934  .debug_str:00000000000230e5 .LASF3580
C:\Users\CYMR90~1\AppData\Local\Temp\ccX1amHi.s:32166  .debug_str:000000000002c0a4 .LASF3581
C:\Users\CYMR90~1\AppData\Local\Temp\ccX1amHi.s:30940  .debug_str:00000000000271b2 .LASF3582
C:\Users\CYMR90~1\AppData\Local\Temp\ccX1amHi.s:21815  .debug_str:00000000000029c4 .LASF3583
C:\Users\CYMR90~1\AppData\Local\Temp\ccX1amHi.s:21499  .debug_str:0000000000001669 .LASF3584
C:\Users\CYMR90~1\AppData\Local\Temp\ccX1amHi.s:22949  .debug_str:00000000000072e9 .LASF3585
C:\Users\CYMR90~1\AppData\Local\Temp\ccX1amHi.s:24357  .debug_str:000000000000ce7b .LASF3586
C:\Users\CYMR90~1\AppData\Local\Temp\ccX1amHi.s:22687  .debug_str:0000000000006223 .LASF3587
C:\Users\CYMR90~1\AppData\Local\Temp\ccX1amHi.s:29428  .debug_str:0000000000021265 .LASF3588
C:\Users\CYMR90~1\AppData\Local\Temp\ccX1amHi.s:29684  .debug_str:000000000002222a .LASF3589
C:\Users\CYMR90~1\AppData\Local\Temp\ccX1amHi.s:23513  .debug_str:00000000000097d0 .LASF3590
C:\Users\CYMR90~1\AppData\Local\Temp\ccX1amHi.s:30086  .debug_str:00000000000239cf .LASF3591
C:\Users\CYMR90~1\AppData\Local\Temp\ccX1amHi.s:32286  .debug_str:000000000002c849 .LASF3592
C:\Users\CYMR90~1\AppData\Local\Temp\ccX1amHi.s:25155  .debug_str:0000000000010070 .LASF3593
C:\Users\CYMR90~1\AppData\Local\Temp\ccX1amHi.s:26587  .debug_str:0000000000015b49 .LASF3594
C:\Users\CYMR90~1\AppData\Local\Temp\ccX1amHi.s:28814  .debug_str:000000000001ed0d .LASF3595
C:\Users\CYMR90~1\AppData\Local\Temp\ccX1amHi.s:22267  .debug_str:00000000000047ca .LASF3596
C:\Users\CYMR90~1\AppData\Local\Temp\ccX1amHi.s:21575  .debug_str:0000000000001baa .LASF3597
C:\Users\CYMR90~1\AppData\Local\Temp\ccX1amHi.s:23599  .debug_str:0000000000009da8 .LASF3598
C:\Users\CYMR90~1\AppData\Local\Temp\ccX1amHi.s:29942  .debug_str:0000000000023152 .LASF3599
C:\Users\CYMR90~1\AppData\Local\Temp\ccX1amHi.s:25607  .debug_str:0000000000011d6b .LASF3600
C:\Users\CYMR90~1\AppData\Local\Temp\ccX1amHi.s:26137  .debug_str:0000000000013f92 .LASF3601
C:\Users\CYMR90~1\AppData\Local\Temp\ccX1amHi.s:23477  .debug_str:0000000000009569 .LASF3602
C:\Users\CYMR90~1\AppData\Local\Temp\ccX1amHi.s:27796  .debug_str:000000000001abfb .LASF3603
C:\Users\CYMR90~1\AppData\Local\Temp\ccX1amHi.s:27382  .debug_str:0000000000018fb0 .LASF3604
C:\Users\CYMR90~1\AppData\Local\Temp\ccX1amHi.s:31314  .debug_str:0000000000028b9d .LASF3605
C:\Users\CYMR90~1\AppData\Local\Temp\ccX1amHi.s:27070  .debug_str:0000000000017c3c .LASF3606
C:\Users\CYMR90~1\AppData\Local\Temp\ccX1amHi.s:31238  .debug_str:000000000002865a .LASF3607
C:\Users\CYMR90~1\AppData\Local\Temp\ccX1amHi.s:24665  .debug_str:000000000000e1eb .LASF3608
C:\Users\CYMR90~1\AppData\Local\Temp\ccX1amHi.s:23139  .debug_str:0000000000007fd3 .LASF3609
C:\Users\CYMR90~1\AppData\Local\Temp\ccX1amHi.s:32222  .debug_str:000000000002c42b .LASF3610
C:\Users\CYMR90~1\AppData\Local\Temp\ccX1amHi.s:26461  .debug_str:0000000000015429 .LASF3611
C:\Users\CYMR90~1\AppData\Local\Temp\ccX1amHi.s:28186  .debug_str:000000000001c43a .LASF3612
C:\Users\CYMR90~1\AppData\Local\Temp\ccX1amHi.s:27610  .debug_str:0000000000019eb6 .LASF3613
C:\Users\CYMR90~1\AppData\Local\Temp\ccX1amHi.s:30220  .debug_str:000000000002426e .LASF3614
C:\Users\CYMR90~1\AppData\Local\Temp\ccX1amHi.s:29478  .debug_str:00000000000215cb .LASF3615
C:\Users\CYMR90~1\AppData\Local\Temp\ccX1amHi.s:24037  .debug_str:000000000000b955 .LASF3616
C:\Users\CYMR90~1\AppData\Local\Temp\ccX1amHi.s:27656  .debug_str:000000000001a16b .LASF3617
C:\Users\CYMR90~1\AppData\Local\Temp\ccX1amHi.s:21147  .debug_str:00000000000000fe .LASF3618
C:\Users\CYMR90~1\AppData\Local\Temp\ccX1amHi.s:25567  .debug_str:0000000000011a53 .LASF3619
C:\Users\CYMR90~1\AppData\Local\Temp\ccX1amHi.s:29516  .debug_str:0000000000021806 .LASF3620
C:\Users\CYMR90~1\AppData\Local\Temp\ccX1amHi.s:29768  .debug_str:00000000000226e4 .LASF3621
C:\Users\CYMR90~1\AppData\Local\Temp\ccX1amHi.s:26651  .debug_str:0000000000015fb0 .LASF3622
C:\Users\CYMR90~1\AppData\Local\Temp\ccX1amHi.s:31598  .debug_str:0000000000029cb1 .LASF3623
C:\Users\CYMR90~1\AppData\Local\Temp\ccX1amHi.s:24263  .debug_str:000000000000c7c4 .LASF3624
C:\Users\CYMR90~1\AppData\Local\Temp\ccX1amHi.s:25753  .debug_str:00000000000126da .LASF3625
C:\Users\CYMR90~1\AppData\Local\Temp\ccX1amHi.s:30064  .debug_str:0000000000023875 .LASF3626
C:\Users\CYMR90~1\AppData\Local\Temp\ccX1amHi.s:30488  .debug_str:0000000000025492 .LASF3627
C:\Users\CYMR90~1\AppData\Local\Temp\ccX1amHi.s:25609  .debug_str:0000000000011d80 .LASF3628
C:\Users\CYMR90~1\AppData\Local\Temp\ccX1amHi.s:25969  .debug_str:000000000001353f .LASF3629
C:\Users\CYMR90~1\AppData\Local\Temp\ccX1amHi.s:21597  .debug_str:0000000000001cd1 .LASF3630
C:\Users\CYMR90~1\AppData\Local\Temp\ccX1amHi.s:22919  .debug_str:0000000000007083 .LASF3631
C:\Users\CYMR90~1\AppData\Local\Temp\ccX1amHi.s:32042  .debug_str:000000000002b7d5 .LASF3632
C:\Users\CYMR90~1\AppData\Local\Temp\ccX1amHi.s:26681  .debug_str:00000000000161e9 .LASF3633
C:\Users\CYMR90~1\AppData\Local\Temp\ccX1amHi.s:27476  .debug_str:0000000000019606 .LASF3634
C:\Users\CYMR90~1\AppData\Local\Temp\ccX1amHi.s:24537  .debug_str:000000000000da32 .LASF3635
C:\Users\CYMR90~1\AppData\Local\Temp\ccX1amHi.s:25815  .debug_str:0000000000012aeb .LASF3636
C:\Users\CYMR90~1\AppData\Local\Temp\ccX1amHi.s:21373  .debug_str:0000000000000f42 .LASF3637
C:\Users\CYMR90~1\AppData\Local\Temp\ccX1amHi.s:27740  .debug_str:000000000001a820 .LASF3638
C:\Users\CYMR90~1\AppData\Local\Temp\ccX1amHi.s:22185  .debug_str:000000000000422a .LASF3639
C:\Users\CYMR90~1\AppData\Local\Temp\ccX1amHi.s:27994  .debug_str:000000000001b88b .LASF3640
C:\Users\CYMR90~1\AppData\Local\Temp\ccX1amHi.s:22449  .debug_str:0000000000005373 .LASF3641
C:\Users\CYMR90~1\AppData\Local\Temp\ccX1amHi.s:23581  .debug_str:0000000000009c70 .LASF3642
C:\Users\CYMR90~1\AppData\Local\Temp\ccX1amHi.s:22731  .debug_str:00000000000064b9 .LASF3643
C:\Users\CYMR90~1\AppData\Local\Temp\ccX1amHi.s:28500  .debug_str:000000000001d981 .LASF3644
C:\Users\CYMR90~1\AppData\Local\Temp\ccX1amHi.s:30964  .debug_str:000000000002740b .LASF3645
C:\Users\CYMR90~1\AppData\Local\Temp\ccX1amHi.s:29706  .debug_str:0000000000022393 .LASF3646
C:\Users\CYMR90~1\AppData\Local\Temp\ccX1amHi.s:22769  .debug_str:00000000000066ec .LASF3647
C:\Users\CYMR90~1\AppData\Local\Temp\ccX1amHi.s:31608  .debug_str:0000000000029d45 .LASF3648
C:\Users\CYMR90~1\AppData\Local\Temp\ccX1amHi.s:28966  .debug_str:000000000001f652 .LASF3649
C:\Users\CYMR90~1\AppData\Local\Temp\ccX1amHi.s:24855  .debug_str:000000000000edc8 .LASF3650
C:\Users\CYMR90~1\AppData\Local\Temp\ccX1amHi.s:23859  .debug_str:000000000000ad74 .LASF3651
C:\Users\CYMR90~1\AppData\Local\Temp\ccX1amHi.s:21237  .debug_str:0000000000000648 .LASF3652
C:\Users\CYMR90~1\AppData\Local\Temp\ccX1amHi.s:25099  .debug_str:000000000000fcd5 .LASF3653
C:\Users\CYMR90~1\AppData\Local\Temp\ccX1amHi.s:24043  .debug_str:000000000000b9ab .LASF3654
C:\Users\CYMR90~1\AppData\Local\Temp\ccX1amHi.s:24811  .debug_str:000000000000eb36 .LASF3655
C:\Users\CYMR90~1\AppData\Local\Temp\ccX1amHi.s:22955  .debug_str:0000000000007352 .LASF3656
C:\Users\CYMR90~1\AppData\Local\Temp\ccX1amHi.s:31030  .debug_str:00000000000277c8 .LASF3657
C:\Users\CYMR90~1\AppData\Local\Temp\ccX1amHi.s:28426  .debug_str:000000000001d4ab .LASF3658
C:\Users\CYMR90~1\AppData\Local\Temp\ccX1amHi.s:25909  .debug_str:0000000000013108 .LASF3659
C:\Users\CYMR90~1\AppData\Local\Temp\ccX1amHi.s:28012  .debug_str:000000000001b9c6 .LASF3660
C:\Users\CYMR90~1\AppData\Local\Temp\ccX1amHi.s:32002  .debug_str:000000000002b546 .LASF3661
C:\Users\CYMR90~1\AppData\Local\Temp\ccX1amHi.s:25243  .debug_str:00000000000105bb .LASF3662
C:\Users\CYMR90~1\AppData\Local\Temp\ccX1amHi.s:31264  .debug_str:000000000002885a .LASF3663
C:\Users\CYMR90~1\AppData\Local\Temp\ccX1amHi.s:24243  .debug_str:000000000000c68f .LASF3664
C:\Users\CYMR90~1\AppData\Local\Temp\ccX1amHi.s:21677  .debug_str:0000000000002145 .LASF3665
C:\Users\CYMR90~1\AppData\Local\Temp\ccX1amHi.s:25219  .debug_str:0000000000010453 .LASF3666
C:\Users\CYMR90~1\AppData\Local\Temp\ccX1amHi.s:25137  .debug_str:000000000000ff40 .LASF3667
C:\Users\CYMR90~1\AppData\Local\Temp\ccX1amHi.s:25353  .debug_str:0000000000010ce9 .LASF3668
C:\Users\CYMR90~1\AppData\Local\Temp\ccX1amHi.s:29686  .debug_str:0000000000022242 .LASF3669
C:\Users\CYMR90~1\AppData\Local\Temp\ccX1amHi.s:26027  .debug_str:00000000000138da .LASF3670
C:\Users\CYMR90~1\AppData\Local\Temp\ccX1amHi.s:23129  .debug_str:0000000000007f3e .LASF3671
C:\Users\CYMR90~1\AppData\Local\Temp\ccX1amHi.s:29918  .debug_str:0000000000022fee .LASF3672
C:\Users\CYMR90~1\AppData\Local\Temp\ccX1amHi.s:32044  .debug_str:000000000002b7f9 .LASF3673
C:\Users\CYMR90~1\AppData\Local\Temp\ccX1amHi.s:31580  .debug_str:0000000000029b99 .LASF3674
C:\Users\CYMR90~1\AppData\Local\Temp\ccX1amHi.s:28102  .debug_str:000000000001bef6 .LASF3675
C:\Users\CYMR90~1\AppData\Local\Temp\ccX1amHi.s:22923  .debug_str:00000000000070c5 .LASF3676
C:\Users\CYMR90~1\AppData\Local\Temp\ccX1amHi.s:22495  .debug_str:0000000000005673 .LASF3677
C:\Users\CYMR90~1\AppData\Local\Temp\ccX1amHi.s:23011  .debug_str:00000000000076d8 .LASF3678
C:\Users\CYMR90~1\AppData\Local\Temp\ccX1amHi.s:21965  .debug_str:0000000000003357 .LASF3679
C:\Users\CYMR90~1\AppData\Local\Temp\ccX1amHi.s:30298  .debug_str:000000000002478a .LASF3680
C:\Users\CYMR90~1\AppData\Local\Temp\ccX1amHi.s:25165  .debug_str:00000000000100ea .LASF3681
C:\Users\CYMR90~1\AppData\Local\Temp\ccX1amHi.s:23319  .debug_str:0000000000008bad .LASF3682
C:\Users\CYMR90~1\AppData\Local\Temp\ccX1amHi.s:23431  .debug_str:0000000000009298 .LASF3683
C:\Users\CYMR90~1\AppData\Local\Temp\ccX1amHi.s:29584  .debug_str:0000000000021bfa .LASF3684
C:\Users\CYMR90~1\AppData\Local\Temp\ccX1amHi.s:31516  .debug_str:00000000000297fc .LASF3685
C:\Users\CYMR90~1\AppData\Local\Temp\ccX1amHi.s:29826  .debug_str:0000000000022a34 .LASF3686
C:\Users\CYMR90~1\AppData\Local\Temp\ccX1amHi.s:31402  .debug_str:00000000000290df .LASF3687
C:\Users\CYMR90~1\AppData\Local\Temp\ccX1amHi.s:21267  .debug_str:000000000000082d .LASF3688
C:\Users\CYMR90~1\AppData\Local\Temp\ccX1amHi.s:29862  .debug_str:0000000000022cc5 .LASF3689
C:\Users\CYMR90~1\AppData\Local\Temp\ccX1amHi.s:26868  .debug_str:0000000000016fe2 .LASF3690
C:\Users\CYMR90~1\AppData\Local\Temp\ccX1amHi.s:23867  .debug_str:000000000000ade8 .LASF3691
C:\Users\CYMR90~1\AppData\Local\Temp\ccX1amHi.s:25823  .debug_str:0000000000012b92 .LASF3692
C:\Users\CYMR90~1\AppData\Local\Temp\ccX1amHi.s:22907  .debug_str:0000000000006fc1 .LASF3693
C:\Users\CYMR90~1\AppData\Local\Temp\ccX1amHi.s:26481  .debug_str:0000000000015516 .LASF3694
C:\Users\CYMR90~1\AppData\Local\Temp\ccX1amHi.s:24289  .debug_str:000000000000ca0e .LASF3695
C:\Users\CYMR90~1\AppData\Local\Temp\ccX1amHi.s:29938  .debug_str:0000000000023113 .LASF3696
C:\Users\CYMR90~1\AppData\Local\Temp\ccX1amHi.s:27896  .debug_str:000000000001b25b .LASF3697
C:\Users\CYMR90~1\AppData\Local\Temp\ccX1amHi.s:29870  .debug_str:0000000000022d54 .LASF3698
C:\Users\CYMR90~1\AppData\Local\Temp\ccX1amHi.s:27012  .debug_str:0000000000017888 .LASF3699
C:\Users\CYMR90~1\AppData\Local\Temp\ccX1amHi.s:24729  .debug_str:000000000000e5b4 .LASF3700
C:\Users\CYMR90~1\AppData\Local\Temp\ccX1amHi.s:28936  .debug_str:000000000001f448 .LASF3701
C:\Users\CYMR90~1\AppData\Local\Temp\ccX1amHi.s:23463  .debug_str:0000000000009472 .LASF3702
C:\Users\CYMR90~1\AppData\Local\Temp\ccX1amHi.s:26183  .debug_str:0000000000014299 .LASF3703
C:\Users\CYMR90~1\AppData\Local\Temp\ccX1amHi.s:27146  .debug_str:00000000000180cf .LASF3704
C:\Users\CYMR90~1\AppData\Local\Temp\ccX1amHi.s:30854  .debug_str:0000000000026c6c .LASF3705
C:\Users\CYMR90~1\AppData\Local\Temp\ccX1amHi.s:23707  .debug_str:000000000000a3ff .LASF3706
C:\Users\CYMR90~1\AppData\Local\Temp\ccX1amHi.s:22419  .debug_str:00000000000051aa .LASF3707
C:\Users\CYMR90~1\AppData\Local\Temp\ccX1amHi.s:27446  .debug_str:000000000001940f .LASF3708
C:\Users\CYMR90~1\AppData\Local\Temp\ccX1amHi.s:23967  .debug_str:000000000000b459 .LASF3709
C:\Users\CYMR90~1\AppData\Local\Temp\ccX1amHi.s:24699  .debug_str:000000000000e404 .LASF3710
C:\Users\CYMR90~1\AppData\Local\Temp\ccX1amHi.s:32138  .debug_str:000000000002be7b .LASF3711
C:\Users\CYMR90~1\AppData\Local\Temp\ccX1amHi.s:31988  .debug_str:000000000002b455 .LASF3712
C:\Users\CYMR90~1\AppData\Local\Temp\ccX1amHi.s:24557  .debug_str:000000000000db7a .LASF3713
C:\Users\CYMR90~1\AppData\Local\Temp\ccX1amHi.s:22503  .debug_str:00000000000056e2 .LASF3714
C:\Users\CYMR90~1\AppData\Local\Temp\ccX1amHi.s:31636  .debug_str:0000000000029edf .LASF3715
C:\Users\CYMR90~1\AppData\Local\Temp\ccX1amHi.s:29388  .debug_str:0000000000021006 .LASF3716
C:\Users\CYMR90~1\AppData\Local\Temp\ccX1amHi.s:29302  .debug_str:0000000000020ac0 .LASF3717
C:\Users\CYMR90~1\AppData\Local\Temp\ccX1amHi.s:26601  .debug_str:0000000000015c1f .LASF3718
C:\Users\CYMR90~1\AppData\Local\Temp\ccX1amHi.s:22605  .debug_str:0000000000005d15 .LASF3719
C:\Users\CYMR90~1\AppData\Local\Temp\ccX1amHi.s:26069  .debug_str:0000000000013b78 .LASF3720
C:\Users\CYMR90~1\AppData\Local\Temp\ccX1amHi.s:29576  .debug_str:0000000000021b80 .LASF3721
C:\Users\CYMR90~1\AppData\Local\Temp\ccX1amHi.s:30666  .debug_str:00000000000260ef .LASF3722
C:\Users\CYMR90~1\AppData\Local\Temp\ccX1amHi.s:22337  .debug_str:0000000000004cb0 .LASF3723
C:\Users\CYMR90~1\AppData\Local\Temp\ccX1amHi.s:30146  .debug_str:0000000000023d28 .LASF3724
C:\Users\CYMR90~1\AppData\Local\Temp\ccX1amHi.s:29306  .debug_str:0000000000020b10 .LASF3725
C:\Users\CYMR90~1\AppData\Local\Temp\ccX1amHi.s:31786  .debug_str:000000000002a7e2 .LASF3726
C:\Users\CYMR90~1\AppData\Local\Temp\ccX1amHi.s:24831  .debug_str:000000000000ec6c .LASF3727
C:\Users\CYMR90~1\AppData\Local\Temp\ccX1amHi.s:22517  .debug_str:00000000000057a5 .LASF3728
C:\Users\CYMR90~1\AppData\Local\Temp\ccX1amHi.s:24195  .debug_str:000000000000c3c9 .LASF3729
C:\Users\CYMR90~1\AppData\Local\Temp\ccX1amHi.s:29400  .debug_str:00000000000210a8 .LASF3730
C:\Users\CYMR90~1\AppData\Local\Temp\ccX1amHi.s:27248  .debug_str:00000000000186c2 .LASF3731
C:\Users\CYMR90~1\AppData\Local\Temp\ccX1amHi.s:28340  .debug_str:000000000001ce64 .LASF3732
C:\Users\CYMR90~1\AppData\Local\Temp\ccX1amHi.s:31376  .debug_str:0000000000028f54 .LASF3733
C:\Users\CYMR90~1\AppData\Local\Temp\ccX1amHi.s:29218  .debug_str:000000000002056f .LASF3734
C:\Users\CYMR90~1\AppData\Local\Temp\ccX1amHi.s:32310  .debug_str:000000000002ca15 .LASF3735
C:\Users\CYMR90~1\AppData\Local\Temp\ccX1amHi.s:22011  .debug_str:0000000000003686 .LASF3736
C:\Users\CYMR90~1\AppData\Local\Temp\ccX1amHi.s:30470  .debug_str:0000000000025378 .LASF3737
C:\Users\CYMR90~1\AppData\Local\Temp\ccX1amHi.s:21391  .debug_str:0000000000001024 .LASF3738
C:\Users\CYMR90~1\AppData\Local\Temp\ccX1amHi.s:28504  .debug_str:000000000001d9c8 .LASF3739
C:\Users\CYMR90~1\AppData\Local\Temp\ccX1amHi.s:25943  .debug_str:000000000001332b .LASF3740
C:\Users\CYMR90~1\AppData\Local\Temp\ccX1amHi.s:32392  .debug_str:000000000002cf99 .LASF3741
C:\Users\CYMR90~1\AppData\Local\Temp\ccX1amHi.s:21805  .debug_str:000000000000292b .LASF3742
C:\Users\CYMR90~1\AppData\Local\Temp\ccX1amHi.s:30912  .debug_str:0000000000027025 .LASF3743
C:\Users\CYMR90~1\AppData\Local\Temp\ccX1amHi.s:25801  .debug_str:00000000000129e7 .LASF3744
C:\Users\CYMR90~1\AppData\Local\Temp\ccX1amHi.s:29210  .debug_str:00000000000204b5 .LASF3745
C:\Users\CYMR90~1\AppData\Local\Temp\ccX1amHi.s:29352  .debug_str:0000000000020de2 .LASF3746
C:\Users\CYMR90~1\AppData\Local\Temp\ccX1amHi.s:21351  .debug_str:0000000000000d86 .LASF3747
C:\Users\CYMR90~1\AppData\Local\Temp\ccX1amHi.s:28564  .debug_str:000000000001dd57 .LASF3748
C:\Users\CYMR90~1\AppData\Local\Temp\ccX1amHi.s:21447  .debug_str:0000000000001351 .LASF3749
C:\Users\CYMR90~1\AppData\Local\Temp\ccX1amHi.s:31166  .debug_str:0000000000028128 .LASF3750
C:\Users\CYMR90~1\AppData\Local\Temp\ccX1amHi.s:25709  .debug_str:000000000001237d .LASF3751
C:\Users\CYMR90~1\AppData\Local\Temp\ccX1amHi.s:28712  .debug_str:000000000001e6ce .LASF3752
C:\Users\CYMR90~1\AppData\Local\Temp\ccX1amHi.s:27608  .debug_str:0000000000019e86 .LASF3753
C:\Users\CYMR90~1\AppData\Local\Temp\ccX1amHi.s:26365  .debug_str:0000000000014df0 .LASF3754
C:\Users\CYMR90~1\AppData\Local\Temp\ccX1amHi.s:25187  .debug_str:000000000001026a .LASF3755
C:\Users\CYMR90~1\AppData\Local\Temp\ccX1amHi.s:32032  .debug_str:000000000002b706 .LASF3756
C:\Users\CYMR90~1\AppData\Local\Temp\ccX1amHi.s:30382  .debug_str:0000000000024ce9 .LASF3757
C:\Users\CYMR90~1\AppData\Local\Temp\ccX1amHi.s:21563  .debug_str:0000000000001acd .LASF3758
C:\Users\CYMR90~1\AppData\Local\Temp\ccX1amHi.s:31154  .debug_str:0000000000028004 .LASF3759
C:\Users\CYMR90~1\AppData\Local\Temp\ccX1amHi.s:31394  .debug_str:0000000000029046 .LASF3760
C:\Users\CYMR90~1\AppData\Local\Temp\ccX1amHi.s:21159  .debug_str:0000000000000198 .LASF3761
C:\Users\CYMR90~1\AppData\Local\Temp\ccX1amHi.s:32260  .debug_str:000000000002c6c2 .LASF3762
C:\Users\CYMR90~1\AppData\Local\Temp\ccX1amHi.s:23809  .debug_str:000000000000aa2e .LASF3763
C:\Users\CYMR90~1\AppData\Local\Temp\ccX1amHi.s:30398  .debug_str:0000000000024e0c .LASF3764
C:\Users\CYMR90~1\AppData\Local\Temp\ccX1amHi.s:23665  .debug_str:000000000000a177 .LASF3765
C:\Users\CYMR90~1\AppData\Local\Temp\ccX1amHi.s:29462  .debug_str:0000000000021432 .LASF3766
C:\Users\CYMR90~1\AppData\Local\Temp\ccX1amHi.s:21841  .debug_str:0000000000002b61 .LASF3767
C:\Users\CYMR90~1\AppData\Local\Temp\ccX1amHi.s:27624  .debug_str:0000000000019f8e .LASF3768
C:\Users\CYMR90~1\AppData\Local\Temp\ccX1amHi.s:24473  .debug_str:000000000000d69d .LASF3769
C:\Users\CYMR90~1\AppData\Local\Temp\ccX1amHi.s:22557  .debug_str:0000000000005a18 .LASF3770
C:\Users\CYMR90~1\AppData\Local\Temp\ccX1amHi.s:31072  .debug_str:0000000000027a50 .LASF3771
C:\Users\CYMR90~1\AppData\Local\Temp\ccX1amHi.s:24959  .debug_str:000000000000f3dd .LASF3772
C:\Users\CYMR90~1\AppData\Local\Temp\ccX1amHi.s:24151  .debug_str:000000000000c10b .LASF3773
C:\Users\CYMR90~1\AppData\Local\Temp\ccX1amHi.s:29190  .debug_str:00000000000203a4 .LASF3774
C:\Users\CYMR90~1\AppData\Local\Temp\ccX1amHi.s:21297  .debug_str:00000000000009fd .LASF3775
C:\Users\CYMR90~1\AppData\Local\Temp\ccX1amHi.s:25605  .debug_str:0000000000011d39 .LASF3776
C:\Users\CYMR90~1\AppData\Local\Temp\ccX1amHi.s:31042  .debug_str:000000000002787b .LASF3777
C:\Users\CYMR90~1\AppData\Local\Temp\ccX1amHi.s:22713  .debug_str:0000000000006391 .LASF3778
C:\Users\CYMR90~1\AppData\Local\Temp\ccX1amHi.s:24081  .debug_str:000000000000bc33 .LASF3779
C:\Users\CYMR90~1\AppData\Local\Temp\ccX1amHi.s:25177  .debug_str:00000000000101c1 .LASF3780
C:\Users\CYMR90~1\AppData\Local\Temp\ccX1amHi.s:29438  .debug_str:00000000000212d2 .LASF3781
C:\Users\CYMR90~1\AppData\Local\Temp\ccX1amHi.s:22347  .debug_str:0000000000004d68 .LASF3782
C:\Users\CYMR90~1\AppData\Local\Temp\ccX1amHi.s:26581  .debug_str:0000000000015adf .LASF3783
C:\Users\CYMR90~1\AppData\Local\Temp\ccX1amHi.s:30872  .debug_str:0000000000026d7c .LASF3784
C:\Users\CYMR90~1\AppData\Local\Temp\ccX1amHi.s:23855  .debug_str:000000000000ad28 .LASF3785
C:\Users\CYMR90~1\AppData\Local\Temp\ccX1amHi.s:26159  .debug_str:00000000000140cb .LASF3786
C:\Users\CYMR90~1\AppData\Local\Temp\ccX1amHi.s:28592  .debug_str:000000000001df6d .LASF3787
C:\Users\CYMR90~1\AppData\Local\Temp\ccX1amHi.s:24353  .debug_str:000000000000ce2d .LASF3788
C:\Users\CYMR90~1\AppData\Local\Temp\ccX1amHi.s:29620  .debug_str:0000000000021e46 .LASF3789
C:\Users\CYMR90~1\AppData\Local\Temp\ccX1amHi.s:22551  .debug_str:00000000000059b3 .LASF3790
C:\Users\CYMR90~1\AppData\Local\Temp\ccX1amHi.s:31986  .debug_str:000000000002b423 .LASF3791
C:\Users\CYMR90~1\AppData\Local\Temp\ccX1amHi.s:24953  .debug_str:000000000000f35a .LASF3792
C:\Users\CYMR90~1\AppData\Local\Temp\ccX1amHi.s:29122  .debug_str:000000000001ff84 .LASF3793
C:\Users\CYMR90~1\AppData\Local\Temp\ccX1amHi.s:22055  .debug_str:0000000000003991 .LASF3794
C:\Users\CYMR90~1\AppData\Local\Temp\ccX1amHi.s:25031  .debug_str:000000000000f8b9 .LASF3795
C:\Users\CYMR90~1\AppData\Local\Temp\ccX1amHi.s:30180  .debug_str:0000000000023f2e .LASF3796
C:\Users\CYMR90~1\AppData\Local\Temp\ccX1amHi.s:23547  .debug_str:0000000000009a2a .LASF3797
C:\Users\CYMR90~1\AppData\Local\Temp\ccX1amHi.s:27854  .debug_str:000000000001af4a .LASF3798
C:\Users\CYMR90~1\AppData\Local\Temp\ccX1amHi.s:22155  .debug_str:0000000000003fdc .LASF3799
C:\Users\CYMR90~1\AppData\Local\Temp\ccX1amHi.s:30218  .debug_str:000000000002423c .LASF3800
C:\Users\CYMR90~1\AppData\Local\Temp\ccX1amHi.s:23183  .debug_str:000000000000834c .LASF3801
C:\Users\CYMR90~1\AppData\Local\Temp\ccX1amHi.s:24801  .debug_str:000000000000ea62 .LASF3802
C:\Users\CYMR90~1\AppData\Local\Temp\ccX1amHi.s:31670  .debug_str:000000000002a0c7 .LASF3803
C:\Users\CYMR90~1\AppData\Local\Temp\ccX1amHi.s:23009  .debug_str:00000000000076a6 .LASF3804
C:\Users\CYMR90~1\AppData\Local\Temp\ccX1amHi.s:28998  .debug_str:000000000001f801 .LASF3805
C:\Users\CYMR90~1\AppData\Local\Temp\ccX1amHi.s:21765  .debug_str:000000000000269a .LASF3806
C:\Users\CYMR90~1\AppData\Local\Temp\ccX1amHi.s:27180  .debug_str:00000000000182cb .LASF3807
C:\Users\CYMR90~1\AppData\Local\Temp\ccX1amHi.s:30348  .debug_str:0000000000024ad3 .LASF3808
C:\Users\CYMR90~1\AppData\Local\Temp\ccX1amHi.s:23193  .debug_str:0000000000008402 .LASF3809
C:\Users\CYMR90~1\AppData\Local\Temp\ccX1amHi.s:30622  .debug_str:0000000000025e0e .LASF3810
C:\Users\CYMR90~1\AppData\Local\Temp\ccX1amHi.s:25751  .debug_str:00000000000126a8 .LASF3811
C:\Users\CYMR90~1\AppData\Local\Temp\ccX1amHi.s:29924  .debug_str:0000000000023049 .LASF3812
C:\Users\CYMR90~1\AppData\Local\Temp\ccX1amHi.s:22859  .debug_str:0000000000006caa .LASF3813
C:\Users\CYMR90~1\AppData\Local\Temp\ccX1amHi.s:25791  .debug_str:0000000000012927 .LASF3814
C:\Users\CYMR90~1\AppData\Local\Temp\ccX1amHi.s:29124  .debug_str:000000000001ffb6 .LASF3815
C:\Users\CYMR90~1\AppData\Local\Temp\ccX1amHi.s:25715  .debug_str:000000000001240a .LASF3816
C:\Users\CYMR90~1\AppData\Local\Temp\ccX1amHi.s:30658  .debug_str:0000000000026079 .LASF3817
C:\Users\CYMR90~1\AppData\Local\Temp\ccX1amHi.s:25971  .debug_str:0000000000013564 .LASF3818
C:\Users\CYMR90~1\AppData\Local\Temp\ccX1amHi.s:30596  .debug_str:0000000000025c86 .LASF3819
C:\Users\CYMR90~1\AppData\Local\Temp\ccX1amHi.s:24747  .debug_str:000000000000e6c9 .LASF3820
C:\Users\CYMR90~1\AppData\Local\Temp\ccX1amHi.s:30226  .debug_str:00000000000242e5 .LASF3821
C:\Users\CYMR90~1\AppData\Local\Temp\ccX1amHi.s:26597  .debug_str:0000000000015bce .LASF3822
C:\Users\CYMR90~1\AppData\Local\Temp\ccX1amHi.s:27024  .debug_str:0000000000017942 .LASF3823
C:\Users\CYMR90~1\AppData\Local\Temp\ccX1amHi.s:24035  .debug_str:000000000000b933 .LASF3824
C:\Users\CYMR90~1\AppData\Local\Temp\ccX1amHi.s:26373  .debug_str:0000000000014e79 .LASF3825
C:\Users\CYMR90~1\AppData\Local\Temp\ccX1amHi.s:29330  .debug_str:0000000000020c67 .LASF3826
C:\Users\CYMR90~1\AppData\Local\Temp\ccX1amHi.s:26399  .debug_str:0000000000015052 .LASF3827
C:\Users\CYMR90~1\AppData\Local\Temp\ccX1amHi.s:30690  .debug_str:0000000000026278 .LASF3828
C:\Users\CYMR90~1\AppData\Local\Temp\ccX1amHi.s:27470  .debug_str:0000000000019594 .LASF3829
C:\Users\CYMR90~1\AppData\Local\Temp\ccX1amHi.s:25461  .debug_str:0000000000011351 .LASF3830
C:\Users\CYMR90~1\AppData\Local\Temp\ccX1amHi.s:23103  .debug_str:0000000000007cdc .LASF3831
C:\Users\CYMR90~1\AppData\Local\Temp\ccX1amHi.s:21459  .debug_str:000000000000141e .LASF3832
C:\Users\CYMR90~1\AppData\Local\Temp\ccX1amHi.s:21985  .debug_str:00000000000034a2 .LASF3833
C:\Users\CYMR90~1\AppData\Local\Temp\ccX1amHi.s:26021  .debug_str:0000000000013899 .LASF3834
C:\Users\CYMR90~1\AppData\Local\Temp\ccX1amHi.s:28690  .debug_str:000000000001e594 .LASF3835
C:\Users\CYMR90~1\AppData\Local\Temp\ccX1amHi.s:27278  .debug_str:0000000000018872 .LASF3836
C:\Users\CYMR90~1\AppData\Local\Temp\ccX1amHi.s:24639  .debug_str:000000000000e054 .LASF3837
C:\Users\CYMR90~1\AppData\Local\Temp\ccX1amHi.s:23673  .debug_str:000000000000a211 .LASF3838
C:\Users\CYMR90~1\AppData\Local\Temp\ccX1amHi.s:25131  .debug_str:000000000000fed2 .LASF3839
C:\Users\CYMR90~1\AppData\Local\Temp\ccX1amHi.s:26990  .debug_str:0000000000017723 .LASF3840
C:\Users\CYMR90~1\AppData\Local\Temp\ccX1amHi.s:26435  .debug_str:0000000000015275 .LASF3841
C:\Users\CYMR90~1\AppData\Local\Temp\ccX1amHi.s:25827  .debug_str:0000000000012bdd .LASF3842
C:\Users\CYMR90~1\AppData\Local\Temp\ccX1amHi.s:28180  .debug_str:000000000001c3f0 .LASF3843
C:\Users\CYMR90~1\AppData\Local\Temp\ccX1amHi.s:24751  .debug_str:000000000000e748 .LASF3844
C:\Users\CYMR90~1\AppData\Local\Temp\ccX1amHi.s:21335  .debug_str:0000000000000c96 .LASF3845
C:\Users\CYMR90~1\AppData\Local\Temp\ccX1amHi.s:31400  .debug_str:00000000000290bb .LASF3846
C:\Users\CYMR90~1\AppData\Local\Temp\ccX1amHi.s:25889  .debug_str:0000000000012fc8 .LASF3847
C:\Users\CYMR90~1\AppData\Local\Temp\ccX1amHi.s:28516  .debug_str:000000000001da82 .LASF3848
C:\Users\CYMR90~1\AppData\Local\Temp\ccX1amHi.s:21711  .debug_str:0000000000002344 .LASF3849
C:\Users\CYMR90~1\AppData\Local\Temp\ccX1amHi.s:21623  .debug_str:0000000000001e86 .LASF3850
C:\Users\CYMR90~1\AppData\Local\Temp\ccX1amHi.s:30464  .debug_str:0000000000025311 .LASF3851
C:\Users\CYMR90~1\AppData\Local\Temp\ccX1amHi.s:30238  .debug_str:00000000000243c8 .LASF3852
C:\Users\CYMR90~1\AppData\Local\Temp\ccX1amHi.s:26864  .debug_str:0000000000016fa6 .LASF3853
C:\Users\CYMR90~1\AppData\Local\Temp\ccX1amHi.s:26165  .debug_str:000000000001414e .LASF3854
C:\Users\CYMR90~1\AppData\Local\Temp\ccX1amHi.s:31388  .debug_str:0000000000029001 .LASF3855
C:\Users\CYMR90~1\AppData\Local\Temp\ccX1amHi.s:28006  .debug_str:000000000001b949 .LASF3856
C:\Users\CYMR90~1\AppData\Local\Temp\ccX1amHi.s:24613  .debug_str:000000000000deb9 .LASF3857
C:\Users\CYMR90~1\AppData\Local\Temp\ccX1amHi.s:31770  .debug_str:000000000002a6f1 .LASF3858
C:\Users\CYMR90~1\AppData\Local\Temp\ccX1amHi.s:32074  .debug_str:000000000002ba10 .LASF3859
C:\Users\CYMR90~1\AppData\Local\Temp\ccX1amHi.s:23839  .debug_str:000000000000ac1a .LASF3860
C:\Users\CYMR90~1\AppData\Local\Temp\ccX1amHi.s:22345  .debug_str:0000000000004d44 .LASF3861
C:\Users\CYMR90~1\AppData\Local\Temp\ccX1amHi.s:32294  .debug_str:000000000002c8e2 .LASF3862
C:\Users\CYMR90~1\AppData\Local\Temp\ccX1amHi.s:25589  .debug_str:0000000000011c35 .LASF3863
C:\Users\CYMR90~1\AppData\Local\Temp\ccX1amHi.s:22129  .debug_str:0000000000003e54 .LASF3864
C:\Users\CYMR90~1\AppData\Local\Temp\ccX1amHi.s:30106  .debug_str:0000000000023b11 .LASF3865
C:\Users\CYMR90~1\AppData\Local\Temp\ccX1amHi.s:26701  .debug_str:0000000000016309 .LASF3866
C:\Users\CYMR90~1\AppData\Local\Temp\ccX1amHi.s:25145  .debug_str:000000000000ffe5 .LASF3867
C:\Users\CYMR90~1\AppData\Local\Temp\ccX1amHi.s:31246  .debug_str:00000000000286ee .LASF3868
C:\Users\CYMR90~1\AppData\Local\Temp\ccX1amHi.s:29264  .debug_str:000000000002086f .LASF3869
C:\Users\CYMR90~1\AppData\Local\Temp\ccX1amHi.s:23149  .debug_str:0000000000008083 .LASF3870
C:\Users\CYMR90~1\AppData\Local\Temp\ccX1amHi.s:31086  .debug_str:0000000000027b7b .LASF3871
C:\Users\CYMR90~1\AppData\Local\Temp\ccX1amHi.s:27716  .debug_str:000000000001a667 .LASF3872
C:\Users\CYMR90~1\AppData\Local\Temp\ccX1amHi.s:24323  .debug_str:000000000000cca6 .LASF3873
C:\Users\CYMR90~1\AppData\Local\Temp\ccX1amHi.s:32240  .debug_str:000000000002c59c .LASF3874
C:\Users\CYMR90~1\AppData\Local\Temp\ccX1amHi.s:22245  .debug_str:0000000000004631 .LASF3875
C:\Users\CYMR90~1\AppData\Local\Temp\ccX1amHi.s:25465  .debug_str:000000000001138c .LASF3876
C:\Users\CYMR90~1\AppData\Local\Temp\ccX1amHi.s:28358  .debug_str:000000000001d012 .LASF3877
C:\Users\CYMR90~1\AppData\Local\Temp\ccX1amHi.s:29970  .debug_str:000000000002329f .LASF3878
C:\Users\CYMR90~1\AppData\Local\Temp\ccX1amHi.s:31320  .debug_str:0000000000028bfb .LASF3879
C:\Users\CYMR90~1\AppData\Local\Temp\ccX1amHi.s:21847  .debug_str:0000000000002bf0 .LASF3880
C:\Users\CYMR90~1\AppData\Local\Temp\ccX1amHi.s:26984  .debug_str:00000000000176c0 .LASF3881
C:\Users\CYMR90~1\AppData\Local\Temp\ccX1amHi.s:26407  .debug_str:00000000000150d2 .LASF3882
C:\Users\CYMR90~1\AppData\Local\Temp\ccX1amHi.s:23001  .debug_str:0000000000007627 .LASF3883
C:\Users\CYMR90~1\AppData\Local\Temp\ccX1amHi.s:23125  .debug_str:0000000000007edb .LASF3884
C:\Users\CYMR90~1\AppData\Local\Temp\ccX1amHi.s:23121  .debug_str:0000000000007e9a .LASF3885
C:\Users\CYMR90~1\AppData\Local\Temp\ccX1amHi.s:24171  .debug_str:000000000000c24e .LASF3886
C:\Users\CYMR90~1\AppData\Local\Temp\ccX1amHi.s:32100  .debug_str:000000000002bbdb .LASF3887
C:\Users\CYMR90~1\AppData\Local\Temp\ccX1amHi.s:21759  .debug_str:0000000000002626 .LASF3888
C:\Users\CYMR90~1\AppData\Local\Temp\ccX1amHi.s:30126  .debug_str:0000000000023c2c .LASF3889
C:\Users\CYMR90~1\AppData\Local\Temp\ccX1amHi.s:32038  .debug_str:000000000002b792 .LASF3890
C:\Users\CYMR90~1\AppData\Local\Temp\ccX1amHi.s:28518  .debug_str:000000000001daa6 .LASF3891
C:\Users\CYMR90~1\AppData\Local\Temp\ccX1amHi.s:25169  .debug_str:0000000000010124 .LASF3892
C:\Users\CYMR90~1\AppData\Local\Temp\ccX1amHi.s:21567  .debug_str:0000000000001b21 .LASF3893
C:\Users\CYMR90~1\AppData\Local\Temp\ccX1amHi.s:29670  .debug_str:0000000000022153 .LASF3894
C:\Users\CYMR90~1\AppData\Local\Temp\ccX1amHi.s:26273  .debug_str:000000000001483a .LASF3895
C:\Users\CYMR90~1\AppData\Local\Temp\ccX1amHi.s:24965  .debug_str:000000000000f441 .LASF3896
C:\Users\CYMR90~1\AppData\Local\Temp\ccX1amHi.s:27548  .debug_str:0000000000019b0d .LASF3897
C:\Users\CYMR90~1\AppData\Local\Temp\ccX1amHi.s:27432  .debug_str:000000000001934a .LASF3898
C:\Users\CYMR90~1\AppData\Local\Temp\ccX1amHi.s:28828  .debug_str:000000000001edbb .LASF3899
C:\Users\CYMR90~1\AppData\Local\Temp\ccX1amHi.s:30738  .debug_str:0000000000026545 .LASF3900
C:\Users\CYMR90~1\AppData\Local\Temp\ccX1amHi.s:28896  .debug_str:000000000001f1e0 .LASF3901
C:\Users\CYMR90~1\AppData\Local\Temp\ccX1amHi.s:23481  .debug_str:00000000000095aa .LASF3902
C:\Users\CYMR90~1\AppData\Local\Temp\ccX1amHi.s:31886  .debug_str:000000000002ade0 .LASF3903
C:\Users\CYMR90~1\AppData\Local\Temp\ccX1amHi.s:25069  .debug_str:000000000000fad5 .LASF3904
C:\Users\CYMR90~1\AppData\Local\Temp\ccX1amHi.s:29610  .debug_str:0000000000021da6 .LASF3905
C:\Users\CYMR90~1\AppData\Local\Temp\ccX1amHi.s:21573  .debug_str:0000000000001b86 .LASF3906
C:\Users\CYMR90~1\AppData\Local\Temp\ccX1amHi.s:29530  .debug_str:00000000000218d7 .LASF3907
C:\Users\CYMR90~1\AppData\Local\Temp\ccX1amHi.s:25331  .debug_str:0000000000010b6c .LASF3908
C:\Users\CYMR90~1\AppData\Local\Temp\ccX1amHi.s:31782  .debug_str:000000000002a7aa .LASF3909
C:\Users\CYMR90~1\AppData\Local\Temp\ccX1amHi.s:29472  .debug_str:00000000000214cb .LASF3910
C:\Users\CYMR90~1\AppData\Local\Temp\ccX1amHi.s:26065  .debug_str:0000000000013b3d .LASF3911
C:\Users\CYMR90~1\AppData\Local\Temp\ccX1amHi.s:26705  .debug_str:0000000000016351 .LASF3912
C:\Users\CYMR90~1\AppData\Local\Temp\ccX1amHi.s:30584  .debug_str:0000000000025bdd .LASF3913
C:\Users\CYMR90~1\AppData\Local\Temp\ccX1amHi.s:27204  .debug_str:0000000000018446 .LASF3914
C:\Users\CYMR90~1\AppData\Local\Temp\ccX1amHi.s:32346  .debug_str:000000000002cc56 .LASF3915
C:\Users\CYMR90~1\AppData\Local\Temp\ccX1amHi.s:31738  .debug_str:000000000002a4c4 .LASF3916
C:\Users\CYMR90~1\AppData\Local\Temp\ccX1amHi.s:22043  .debug_str:00000000000038a4 .LASF3917
C:\Users\CYMR90~1\AppData\Local\Temp\ccX1amHi.s:28534  .debug_str:000000000001db8f .LASF3918
C:\Users\CYMR90~1\AppData\Local\Temp\ccX1amHi.s:22911  .debug_str:0000000000007015 .LASF3919
C:\Users\CYMR90~1\AppData\Local\Temp\ccX1amHi.s:23055  .debug_str:00000000000079ac .LASF3920
C:\Users\CYMR90~1\AppData\Local\Temp\ccX1amHi.s:27090  .debug_str:0000000000017d60 .LASF3921
C:\Users\CYMR90~1\AppData\Local\Temp\ccX1amHi.s:31024  .debug_str:0000000000027767 .LASF3922
C:\Users\CYMR90~1\AppData\Local\Temp\ccX1amHi.s:23649  .debug_str:000000000000a080 .LASF3923
C:\Users\CYMR90~1\AppData\Local\Temp\ccX1amHi.s:32176  .debug_str:000000000002c13d .LASF3924
C:\Users\CYMR90~1\AppData\Local\Temp\ccX1amHi.s:23165  .debug_str:0000000000008223 .LASF3925
C:\Users\CYMR90~1\AppData\Local\Temp\ccX1amHi.s:25519  .debug_str:00000000000116d0 .LASF3926
C:\Users\CYMR90~1\AppData\Local\Temp\ccX1amHi.s:28062  .debug_str:000000000001bc4a .LASF3927
C:\Users\CYMR90~1\AppData\Local\Temp\ccX1amHi.s:32090  .debug_str:000000000002bb48 .LASF3928
C:\Users\CYMR90~1\AppData\Local\Temp\ccX1amHi.s:26209  .debug_str:00000000000143fe .LASF3929
C:\Users\CYMR90~1\AppData\Local\Temp\ccX1amHi.s:28656  .debug_str:000000000001e38f .LASF3930
C:\Users\CYMR90~1\AppData\Local\Temp\ccX1amHi.s:30956  .debug_str:0000000000027380 .LASF3931
C:\Users\CYMR90~1\AppData\Local\Temp\ccX1amHi.s:21987  .debug_str:00000000000034c6 .LASF3932
C:\Users\CYMR90~1\AppData\Local\Temp\ccX1amHi.s:29366  .debug_str:0000000000020ed3 .LASF3933
C:\Users\CYMR90~1\AppData\Local\Temp\ccX1amHi.s:21901  .debug_str:0000000000002ef8 .LASF3934
C:\Users\CYMR90~1\AppData\Local\Temp\ccX1amHi.s:29004  .debug_str:000000000001f865 .LASF3935
C:\Users\CYMR90~1\AppData\Local\Temp\ccX1amHi.s:31354  .debug_str:0000000000028dc2 .LASF3936
C:\Users\CYMR90~1\AppData\Local\Temp\ccX1amHi.s:25845  .debug_str:0000000000012cc5 .LASF3937
C:\Users\CYMR90~1\AppData\Local\Temp\ccX1amHi.s:24637  .debug_str:000000000000e02e .LASF3938
C:\Users\CYMR90~1\AppData\Local\Temp\ccX1amHi.s:21663  .debug_str:0000000000002087 .LASF3939
C:\Users\CYMR90~1\AppData\Local\Temp\ccX1amHi.s:23191  .debug_str:00000000000083dc .LASF3940
C:\Users\CYMR90~1\AppData\Local\Temp\ccX1amHi.s:25547  .debug_str:0000000000011944 .LASF3941
C:\Users\CYMR90~1\AppData\Local\Temp\ccX1amHi.s:27462  .debug_str:0000000000019523 .LASF3942
C:\Users\CYMR90~1\AppData\Local\Temp\ccX1amHi.s:29008  .debug_str:000000000001f8a4 .LASF3943
C:\Users\CYMR90~1\AppData\Local\Temp\ccX1amHi.s:21221  .debug_str:0000000000000564 .LASF3944
C:\Users\CYMR90~1\AppData\Local\Temp\ccX1amHi.s:27936  .debug_str:000000000001b4fa .LASF3945
C:\Users\CYMR90~1\AppData\Local\Temp\ccX1amHi.s:31952  .debug_str:000000000002b1aa .LASF3946
C:\Users\CYMR90~1\AppData\Local\Temp\ccX1amHi.s:24565  .debug_str:000000000000dbdd .LASF3947
C:\Users\CYMR90~1\AppData\Local\Temp\ccX1amHi.s:23575  .debug_str:0000000000009c16 .LASF3948
C:\Users\CYMR90~1\AppData\Local\Temp\ccX1amHi.s:27498  .debug_str:0000000000019732 .LASF3949
C:\Users\CYMR90~1\AppData\Local\Temp\ccX1amHi.s:23449  .debug_str:00000000000093b0 .LASF3950
C:\Users\CYMR90~1\AppData\Local\Temp\ccX1amHi.s:27392  .debug_str:000000000001901e .LASF3951
C:\Users\CYMR90~1\AppData\Local\Temp\ccX1amHi.s:31310  .debug_str:0000000000028b63 .LASF3952
C:\Users\CYMR90~1\AppData\Local\Temp\ccX1amHi.s:26339  .debug_str:0000000000014c1c .LASF3953
C:\Users\CYMR90~1\AppData\Local\Temp\ccX1amHi.s:27888  .debug_str:000000000001b1cb .LASF3954
C:\Users\CYMR90~1\AppData\Local\Temp\ccX1amHi.s:31884  .debug_str:000000000002adba .LASF3955
C:\Users\CYMR90~1\AppData\Local\Temp\ccX1amHi.s:24501  .debug_str:000000000000d827 .LASF3956
C:\Users\CYMR90~1\AppData\Local\Temp\ccX1amHi.s:23635  .debug_str:0000000000009fa1 .LASF3957
C:\Users\CYMR90~1\AppData\Local\Temp\ccX1amHi.s:25981  .debug_str:0000000000013600 .LASF3958
C:\Users\CYMR90~1\AppData\Local\Temp\ccX1amHi.s:29426  .debug_str:000000000002123f .LASF3959
C:\Users\CYMR90~1\AppData\Local\Temp\ccX1amHi.s:31158  .debug_str:000000000002808d .LASF3960
C:\Users\CYMR90~1\AppData\Local\Temp\ccX1amHi.s:22463  .debug_str:000000000000547a .LASF3961
C:\Users\CYMR90~1\AppData\Local\Temp\ccX1amHi.s:23873  .debug_str:000000000000ae27 .LASF3962
C:\Users\CYMR90~1\AppData\Local\Temp\ccX1amHi.s:27822  .debug_str:000000000001ad7c .LASF3963
C:\Users\CYMR90~1\AppData\Local\Temp\ccX1amHi.s:31814  .debug_str:000000000002a98e .LASF3964
C:\Users\CYMR90~1\AppData\Local\Temp\ccX1amHi.s:27144  .debug_str:00000000000180a9 .LASF3965
C:\Users\CYMR90~1\AppData\Local\Temp\ccX1amHi.s:28354  .debug_str:000000000001cfd2 .LASF3966
C:\Users\CYMR90~1\AppData\Local\Temp\ccX1amHi.s:32296  .debug_str:000000000002c906 .LASF3967
C:\Users\CYMR90~1\AppData\Local\Temp\ccX1amHi.s:27422  .debug_str:00000000000192c3 .LASF3968
C:\Users\CYMR90~1\AppData\Local\Temp\ccX1amHi.s:21933  .debug_str:0000000000003131 .LASF3969
C:\Users\CYMR90~1\AppData\Local\Temp\ccX1amHi.s:31182  .debug_str:000000000002822d .LASF3970
C:\Users\CYMR90~1\AppData\Local\Temp\ccX1amHi.s:31758  .debug_str:000000000002a644 .LASF3971
C:\Users\CYMR90~1\AppData\Local\Temp\ccX1amHi.s:22737  .debug_str:0000000000006509 .LASF3972
C:\Users\CYMR90~1\AppData\Local\Temp\ccX1amHi.s:31748  .debug_str:000000000002a56d .LASF3973
C:\Users\CYMR90~1\AppData\Local\Temp\ccX1amHi.s:24377  .debug_str:000000000000cfda .LASF3974
C:\Users\CYMR90~1\AppData\Local\Temp\ccX1amHi.s:28294  .debug_str:000000000001cb6a .LASF3975
C:\Users\CYMR90~1\AppData\Local\Temp\ccX1amHi.s:32236  .debug_str:000000000002c54f .LASF3976
C:\Users\CYMR90~1\AppData\Local\Temp\ccX1amHi.s:23167  .debug_str:0000000000008249 .LASF3977
C:\Users\CYMR90~1\AppData\Local\Temp\ccX1amHi.s:26329  .debug_str:0000000000014b9b .LASF3978
C:\Users\CYMR90~1\AppData\Local\Temp\ccX1amHi.s:25859  .debug_str:0000000000012dcc .LASF3979
C:\Users\CYMR90~1\AppData\Local\Temp\ccX1amHi.s:23737  .debug_str:000000000000a606 .LASF3980
C:\Users\CYMR90~1\AppData\Local\Temp\ccX1amHi.s:27674  .debug_str:000000000001a268 .LASF3981
C:\Users\CYMR90~1\AppData\Local\Temp\ccX1amHi.s:25179  .debug_str:00000000000101f3 .LASF3982
C:\Users\CYMR90~1\AppData\Local\Temp\ccX1amHi.s:28074  .debug_str:000000000001bd32 .LASF3983
C:\Users\CYMR90~1\AppData\Local\Temp\ccX1amHi.s:28226  .debug_str:000000000001c654 .LASF3984
C:\Users\CYMR90~1\AppData\Local\Temp\ccX1amHi.s:29532  .debug_str:00000000000218fb .LASF3985
C:\Users\CYMR90~1\AppData\Local\Temp\ccX1amHi.s:24783  .debug_str:000000000000e948 .LASF3986
C:\Users\CYMR90~1\AppData\Local\Temp\ccX1amHi.s:28682  .debug_str:000000000001e4f5 .LASF3987
C:\Users\CYMR90~1\AppData\Local\Temp\ccX1amHi.s:21309  .debug_str:0000000000000b0e .LASF3988
C:\Users\CYMR90~1\AppData\Local\Temp\ccX1amHi.s:28232  .debug_str:000000000001c6b2 .LASF3989
C:\Users\CYMR90~1\AppData\Local\Temp\ccX1amHi.s:29792  .debug_str:0000000000022851 .LASF3990
C:\Users\CYMR90~1\AppData\Local\Temp\ccX1amHi.s:31620  .debug_str:0000000000029df2 .LASF3991
C:\Users\CYMR90~1\AppData\Local\Temp\ccX1amHi.s:24239  .debug_str:000000000000c64d .LASF3992
C:\Users\CYMR90~1\AppData\Local\Temp\ccX1amHi.s:26349  .debug_str:0000000000014cc2 .LASF3993
C:\Users\CYMR90~1\AppData\Local\Temp\ccX1amHi.s:32104  .debug_str:000000000002bc17 .LASF3994
C:\Users\CYMR90~1\AppData\Local\Temp\ccX1amHi.s:28710  .debug_str:000000000001e6a8 .LASF3995
C:\Users\CYMR90~1\AppData\Local\Temp\ccX1amHi.s:28612  .debug_str:000000000001e0d4 .LASF3996
C:\Users\CYMR90~1\AppData\Local\Temp\ccX1amHi.s:21251  .debug_str:0000000000000734 .LASF3997
C:\Users\CYMR90~1\AppData\Local\Temp\ccX1amHi.s:32284  .debug_str:000000000002c823 .LASF3998
C:\Users\CYMR90~1\AppData\Local\Temp\ccX1amHi.s:22209  .debug_str:00000000000043b9 .LASF3999
C:\Users\CYMR90~1\AppData\Local\Temp\ccX1amHi.s:31554  .debug_str:0000000000029a04 .LASF4000
C:\Users\CYMR90~1\AppData\Local\Temp\ccX1amHi.s:27556  .debug_str:0000000000019b79 .LASF4001
C:\Users\CYMR90~1\AppData\Local\Temp\ccX1amHi.s:29878  .debug_str:0000000000022db2 .LASF4002
C:\Users\CYMR90~1\AppData\Local\Temp\ccX1amHi.s:32052  .debug_str:000000000002b87b .LASF4003
C:\Users\CYMR90~1\AppData\Local\Temp\ccX1amHi.s:24659  .debug_str:000000000000e172 .LASF4004
C:\Users\CYMR90~1\AppData\Local\Temp\ccX1amHi.s:22497  .debug_str:0000000000005695 .LASF4005
C:\Users\CYMR90~1\AppData\Local\Temp\ccX1amHi.s:21185  .debug_str:0000000000000367 .LASF4006
C:\Users\CYMR90~1\AppData\Local\Temp\ccX1amHi.s:25731  .debug_str:0000000000012508 .LASF4007
C:\Users\CYMR90~1\AppData\Local\Temp\ccX1amHi.s:22083  .debug_str:0000000000003b2a .LASF4008
C:\Users\CYMR90~1\AppData\Local\Temp\ccX1amHi.s:26197  .debug_str:000000000001434b .LASF4009
C:\Users\CYMR90~1\AppData\Local\Temp\ccX1amHi.s:24109  .debug_str:000000000000be5f .LASF4010
C:\Users\CYMR90~1\AppData\Local\Temp\ccX1amHi.s:21461  .debug_str:0000000000001442 .LASF4011
C:\Users\CYMR90~1\AppData\Local\Temp\ccX1amHi.s:31974  .debug_str:000000000002b36e .LASF4012
C:\Users\CYMR90~1\AppData\Local\Temp\ccX1amHi.s:28884  .debug_str:000000000001f10d .LASF4013
C:\Users\CYMR90~1\AppData\Local\Temp\ccX1amHi.s:29064  .debug_str:000000000001fc06 .LASF4014
C:\Users\CYMR90~1\AppData\Local\Temp\ccX1amHi.s:32434  .debug_str:000000000002d212 .LASF4015
C:\Users\CYMR90~1\AppData\Local\Temp\ccX1amHi.s:21455  .debug_str:00000000000013e6 .LASF4016
C:\Users\CYMR90~1\AppData\Local\Temp\ccX1amHi.s:29056  .debug_str:000000000001fb7b .LASF4017
C:\Users\CYMR90~1\AppData\Local\Temp\ccX1amHi.s:27990  .debug_str:000000000001b84d .LASF4018
C:\Users\CYMR90~1\AppData\Local\Temp\ccX1amHi.s:30644  .debug_str:0000000000025f64 .LASF4019
C:\Users\CYMR90~1\AppData\Local\Temp\ccX1amHi.s:26375  .debug_str:0000000000014e9b .LASF4020
C:\Users\CYMR90~1\AppData\Local\Temp\ccX1amHi.s:29606  .debug_str:0000000000021d66 .LASF4021
C:\Users\CYMR90~1\AppData\Local\Temp\ccX1amHi.s:23221  .debug_str:00000000000085de .LASF4022
C:\Users\CYMR90~1\AppData\Local\Temp\ccX1amHi.s:23233  .debug_str:0000000000008686 .LASF4023
C:\Users\CYMR90~1\AppData\Local\Temp\ccX1amHi.s:27174  .debug_str:000000000001826e .LASF4024
C:\Users\CYMR90~1\AppData\Local\Temp\ccX1amHi.s:31104  .debug_str:0000000000027cac .LASF4025
C:\Users\CYMR90~1\AppData\Local\Temp\ccX1amHi.s:31096  .debug_str:0000000000027c22 .LASF4026
C:\Users\CYMR90~1\AppData\Local\Temp\ccX1amHi.s:32298  .debug_str:000000000002c92c .LASF4027
C:\Users\CYMR90~1\AppData\Local\Temp\ccX1amHi.s:31674  .debug_str:000000000002a110 .LASF4028
C:\Users\CYMR90~1\AppData\Local\Temp\ccX1amHi.s:27378  .debug_str:0000000000018f7d .LASF4029
C:\Users\CYMR90~1\AppData\Local\Temp\ccX1amHi.s:21771  .debug_str:000000000000271f .LASF4030
C:\Users\CYMR90~1\AppData\Local\Temp\ccX1amHi.s:30550  .debug_str:0000000000025996 .LASF4031
C:\Users\CYMR90~1\AppData\Local\Temp\ccX1amHi.s:23171  .debug_str:0000000000008285 .LASF4032
C:\Users\CYMR90~1\AppData\Local\Temp\ccX1amHi.s:27102  .debug_str:0000000000017e0e .LASF4033
C:\Users\CYMR90~1\AppData\Local\Temp\ccX1amHi.s:31316  .debug_str:0000000000028bb9 .LASF4034
C:\Users\CYMR90~1\AppData\Local\Temp\ccX1amHi.s:22105  .debug_str:0000000000003cb1 .LASF4035
C:\Users\CYMR90~1\AppData\Local\Temp\ccX1amHi.s:27596  .debug_str:0000000000019e07 .LASF4036
C:\Users\CYMR90~1\AppData\Local\Temp\ccX1amHi.s:31616  .debug_str:0000000000029db5 .LASF4037
C:\Users\CYMR90~1\AppData\Local\Temp\ccX1amHi.s:30038  .debug_str:00000000000236d3 .LASF4038
C:\Users\CYMR90~1\AppData\Local\Temp\ccX1amHi.s:29096  .debug_str:000000000001fe13 .LASF4039
C:\Users\CYMR90~1\AppData\Local\Temp\ccX1amHi.s:24693  .debug_str:000000000000e38f .LASF4040
C:\Users\CYMR90~1\AppData\Local\Temp\ccX1amHi.s:25533  .debug_str:00000000000117be .LASF4041
C:\Users\CYMR90~1\AppData\Local\Temp\ccX1amHi.s:27044  .debug_str:0000000000017ac4 .LASF4042
C:\Users\CYMR90~1\AppData\Local\Temp\ccX1amHi.s:23327  .debug_str:0000000000008c39 .LASF4043
C:\Users\CYMR90~1\AppData\Local\Temp\ccX1amHi.s:27764  .debug_str:000000000001a9f1 .LASF4044
C:\Users\CYMR90~1\AppData\Local\Temp\ccX1amHi.s:28014  .debug_str:000000000001b9ea .LASF4045
C:\Users\CYMR90~1\AppData\Local\Temp\ccX1amHi.s:31544  .debug_str:000000000002997a .LASF4046
C:\Users\CYMR90~1\AppData\Local\Temp\ccX1amHi.s:24165  .debug_str:000000000000c1fb .LASF4047
C:\Users\CYMR90~1\AppData\Local\Temp\ccX1amHi.s:24579  .debug_str:000000000000dc84 .LASF4048
C:\Users\CYMR90~1\AppData\Local\Temp\ccX1amHi.s:31936  .debug_str:000000000002b0a9 .LASF4049
C:\Users\CYMR90~1\AppData\Local\Temp\ccX1amHi.s:23031  .debug_str:000000000000781d .LASF4050
C:\Users\CYMR90~1\AppData\Local\Temp\ccX1amHi.s:26978  .debug_str:0000000000017678 .LASF4051
C:\Users\CYMR90~1\AppData\Local\Temp\ccX1amHi.s:30022  .debug_str:000000000002359e .LASF4052
C:\Users\CYMR90~1\AppData\Local\Temp\ccX1amHi.s:23537  .debug_str:0000000000009927 .LASF4053
C:\Users\CYMR90~1\AppData\Local\Temp\ccX1amHi.s:32352  .debug_str:000000000002ccae .LASF4054
C:\Users\CYMR90~1\AppData\Local\Temp\ccX1amHi.s:31482  .debug_str:00000000000295d2 .LASF4055
C:\Users\CYMR90~1\AppData\Local\Temp\ccX1amHi.s:24103  .debug_str:000000000000be09 .LASF4056
C:\Users\CYMR90~1\AppData\Local\Temp\ccX1amHi.s:28092  .debug_str:000000000001be4d .LASF4057
C:\Users\CYMR90~1\AppData\Local\Temp\ccX1amHi.s:30400  .debug_str:0000000000024e3e .LASF4058
C:\Users\CYMR90~1\AppData\Local\Temp\ccX1amHi.s:26437  .debug_str:0000000000015299 .LASF4059
C:\Users\CYMR90~1\AppData\Local\Temp\ccX1amHi.s:26920  .debug_str:00000000000172f5 .LASF4060
C:\Users\CYMR90~1\AppData\Local\Temp\ccX1amHi.s:29852  .debug_str:0000000000022bbf .LASF4061
C:\Users\CYMR90~1\AppData\Local\Temp\ccX1amHi.s:23465  .debug_str:00000000000094b4 .LASF4062
C:\Users\CYMR90~1\AppData\Local\Temp\ccX1amHi.s:27408  .debug_str:00000000000191e7 .LASF4063
C:\Users\CYMR90~1\AppData\Local\Temp\ccX1amHi.s:22379  .debug_str:0000000000004f41 .LASF4064
C:\Users\CYMR90~1\AppData\Local\Temp\ccX1amHi.s:23157  .debug_str:000000000000818d .LASF4065
C:\Users\CYMR90~1\AppData\Local\Temp\ccX1amHi.s:31596  .debug_str:0000000000029c8b .LASF4066
C:\Users\CYMR90~1\AppData\Local\Temp\ccX1amHi.s:31896  .debug_str:000000000002ae74 .LASF4067
C:\Users\CYMR90~1\AppData\Local\Temp\ccX1amHi.s:24957  .debug_str:000000000000f3b7 .LASF4068
C:\Users\CYMR90~1\AppData\Local\Temp\ccX1amHi.s:32304  .debug_str:000000000002c9a5 .LASF4069
C:\Users\CYMR90~1\AppData\Local\Temp\ccX1amHi.s:30778  .debug_str:00000000000267eb .LASF4070
C:\Users\CYMR90~1\AppData\Local\Temp\ccX1amHi.s:29354  .debug_str:0000000000020e03 .LASF4071
C:\Users\CYMR90~1\AppData\Local\Temp\ccX1amHi.s:27342  .debug_str:0000000000018d60 .LASF4072
C:\Users\CYMR90~1\AppData\Local\Temp\ccX1amHi.s:31350  .debug_str:0000000000028d88 .LASF4073
C:\Users\CYMR90~1\AppData\Local\Temp\ccX1amHi.s:30252  .debug_str:00000000000244bf .LASF4074
C:\Users\CYMR90~1\AppData\Local\Temp\ccX1amHi.s:27916  .debug_str:000000000001b3d8 .LASF4075
C:\Users\CYMR90~1\AppData\Local\Temp\ccX1amHi.s:31828  .debug_str:000000000002aa3c .LASF4076
C:\Users\CYMR90~1\AppData\Local\Temp\ccX1amHi.s:24455  .debug_str:000000000000d553 .LASF4077
C:\Users\CYMR90~1\AppData\Local\Temp\ccX1amHi.s:30780  .debug_str:0000000000026811 .LASF4078
C:\Users\CYMR90~1\AppData\Local\Temp\ccX1amHi.s:26825  .debug_str:0000000000016b02 .LASF4079
C:\Users\CYMR90~1\AppData\Local\Temp\ccX1amHi.s:23331  .debug_str:0000000000008c73 .LASF4080
C:\Users\CYMR90~1\AppData\Local\Temp\ccX1amHi.s:27266  .debug_str:00000000000187a1 .LASF4081
C:\Users\CYMR90~1\AppData\Local\Temp\ccX1amHi.s:25315  .debug_str:0000000000010aab .LASF4082
C:\Users\CYMR90~1\AppData\Local\Temp\ccX1amHi.s:23913  .debug_str:000000000000b181 .LASF4083
C:\Users\CYMR90~1\AppData\Local\Temp\ccX1amHi.s:27302  .debug_str:0000000000018a45 .LASF4084
C:\Users\CYMR90~1\AppData\Local\Temp\ccX1amHi.s:27518  .debug_str:00000000000198c1 .LASF4085
C:\Users\CYMR90~1\AppData\Local\Temp\ccX1amHi.s:31980  .debug_str:000000000002b3c4 .LASF4086
C:\Users\CYMR90~1\AppData\Local\Temp\ccX1amHi.s:22951  .debug_str:0000000000007311 .LASF4087
C:\Users\CYMR90~1\AppData\Local\Temp\ccX1amHi.s:32250  .debug_str:000000000002c630 .LASF4088
C:\Users\CYMR90~1\AppData\Local\Temp\ccX1amHi.s:29312  .debug_str:0000000000020b73 .LASF4089
C:\Users\CYMR90~1\AppData\Local\Temp\ccX1amHi.s:22893  .debug_str:0000000000006eeb .LASF4090
C:\Users\CYMR90~1\AppData\Local\Temp\ccX1amHi.s:31218  .debug_str:00000000000284f8 .LASF4091
C:\Users\CYMR90~1\AppData\Local\Temp\ccX1amHi.s:23843  .debug_str:000000000000ac64 .LASF4092
C:\Users\CYMR90~1\AppData\Local\Temp\ccX1amHi.s:22487  .debug_str:00000000000055bd .LASF4093
C:\Users\CYMR90~1\AppData\Local\Temp\ccX1amHi.s:23271  .debug_str:00000000000088d9 .LASF4094
C:\Users\CYMR90~1\AppData\Local\Temp\ccX1amHi.s:24331  .debug_str:000000000000cd20 .LASF4095
C:\Users\CYMR90~1\AppData\Local\Temp\ccX1amHi.s:28244  .debug_str:000000000001c78f .LASF4096
C:\Users\CYMR90~1\AppData\Local\Temp\ccX1amHi.s:32186  .debug_str:000000000002c1c5 .LASF4097
C:\Users\CYMR90~1\AppData\Local\Temp\ccX1amHi.s:24895  .debug_str:000000000000efef .LASF4098
C:\Users\CYMR90~1\AppData\Local\Temp\ccX1amHi.s:29040  .debug_str:000000000001fa7d .LASF4099
C:\Users\CYMR90~1\AppData\Local\Temp\ccX1amHi.s:29656  .debug_str:000000000002209e .LASF4100
C:\Users\CYMR90~1\AppData\Local\Temp\ccX1amHi.s:32008  .debug_str:000000000002b5b0 .LASF4101
C:\Users\CYMR90~1\AppData\Local\Temp\ccX1amHi.s:27722  .debug_str:000000000001a6bc .LASF4102
C:\Users\CYMR90~1\AppData\Local\Temp\ccX1amHi.s:30356  .debug_str:0000000000024b74 .LASF4103
C:\Users\CYMR90~1\AppData\Local\Temp\ccX1amHi.s:27692  .debug_str:000000000001a534 .LASF4104
C:\Users\CYMR90~1\AppData\Local\Temp\ccX1amHi.s:28174  .debug_str:000000000001c39c .LASF4105
C:\Users\CYMR90~1\AppData\Local\Temp\ccX1amHi.s:21257  .debug_str:0000000000000793 .LASF4106
C:\Users\CYMR90~1\AppData\Local\Temp\ccX1amHi.s:24253  .debug_str:000000000000c716 .LASF4107
C:\Users\CYMR90~1\AppData\Local\Temp\ccX1amHi.s:24427  .debug_str:000000000000d34c .LASF4108
C:\Users\CYMR90~1\AppData\Local\Temp\ccX1amHi.s:22561  .debug_str:0000000000005a86 .LASF4109
C:\Users\CYMR90~1\AppData\Local\Temp\ccX1amHi.s:23709  .debug_str:000000000000a421 .LASF4110
C:\Users\CYMR90~1\AppData\Local\Temp\ccX1amHi.s:27638  .debug_str:000000000001a06c .LASF4111
C:\Users\CYMR90~1\AppData\Local\Temp\ccX1amHi.s:31568  .debug_str:0000000000029ae8 .LASF4112
C:\Users\CYMR90~1\AppData\Local\Temp\ccX1amHi.s:24189  .debug_str:000000000000c348 .LASF4113
C:\Users\CYMR90~1\AppData\Local\Temp\ccX1amHi.s:28118  .debug_str:000000000001c01c .LASF4114
C:\Users\CYMR90~1\AppData\Local\Temp\ccX1amHi.s:28352  .debug_str:000000000001cfac .LASF4115
C:\Users\CYMR90~1\AppData\Local\Temp\ccX1amHi.s:27786  .debug_str:000000000001ab6d .LASF4116
C:\Users\CYMR90~1\AppData\Local\Temp\ccX1amHi.s:28652  .debug_str:000000000001e359 .LASF4117
C:\Users\CYMR90~1\AppData\Local\Temp\ccX1amHi.s:32252  .debug_str:000000000002c656 .LASF4118
C:\Users\CYMR90~1\AppData\Local\Temp\ccX1amHi.s:27960  .debug_str:000000000001b678 .LASF4119
C:\Users\CYMR90~1\AppData\Local\Temp\ccX1amHi.s:22237  .debug_str:00000000000045ae .LASF4120
C:\Users\CYMR90~1\AppData\Local\Temp\ccX1amHi.s:26295  .debug_str:0000000000014997 .LASF4121
C:\Users\CYMR90~1\AppData\Local\Temp\ccX1amHi.s:30230  .debug_str:000000000002432b .LASF4122
C:\Users\CYMR90~1\AppData\Local\Temp\ccX1amHi.s:22817  .debug_str:0000000000006a1c .LASF4123
C:\Users\CYMR90~1\AppData\Local\Temp\ccX1amHi.s:26779  .debug_str:00000000000167e1 .LASF4124
C:\Users\CYMR90~1\AppData\Local\Temp\ccX1amHi.s:32086  .debug_str:000000000002bae7 .LASF4125
C:\Users\CYMR90~1\AppData\Local\Temp\ccX1amHi.s:22801  .debug_str:0000000000006915 .LASF4126
C:\Users\CYMR90~1\AppData\Local\Temp\ccX1amHi.s:27260  .debug_str:0000000000018755 .LASF4127
C:\Users\CYMR90~1\AppData\Local\Temp\ccX1amHi.s:31278  .debug_str:000000000002893b .LASF4128
C:\Users\CYMR90~1\AppData\Local\Temp\ccX1amHi.s:30620  .debug_str:0000000000025de8 .LASF4129
C:\Users\CYMR90~1\AppData\Local\Temp\ccX1amHi.s:26235  .debug_str:0000000000014555 .LASF4130
C:\Users\CYMR90~1\AppData\Local\Temp\ccX1amHi.s:28714  .debug_str:000000000001e6fe .LASF4131
C:\Users\CYMR90~1\AppData\Local\Temp\ccX1amHi.s:30908  .debug_str:0000000000026feb .LASF4132
C:\Users\CYMR90~1\AppData\Local\Temp\ccX1amHi.s:28452  .debug_str:000000000001d65e .LASF4133
C:\Users\CYMR90~1\AppData\Local\Temp\ccX1amHi.s:29192  .debug_str:00000000000203d6 .LASF4134
C:\Users\CYMR90~1\AppData\Local\Temp\ccX1amHi.s:25297  .debug_str:00000000000109a1 .LASF4135
C:\Users\CYMR90~1\AppData\Local\Temp\ccX1amHi.s:28898  .debug_str:000000000001f204 .LASF4136
C:\Users\CYMR90~1\AppData\Local\Temp\ccX1amHi.s:24587  .debug_str:000000000000dd0b .LASF4137
C:\Users\CYMR90~1\AppData\Local\Temp\ccX1amHi.s:23145  .debug_str:0000000000008048 .LASF4138
C:\Users\CYMR90~1\AppData\Local\Temp\ccX1amHi.s:30508  .debug_str:0000000000025622 .LASF4139
C:\Users\CYMR90~1\AppData\Local\Temp\ccX1amHi.s:32106  .debug_str:000000000002bc3d .LASF4140
C:\Users\CYMR90~1\AppData\Local\Temp\ccX1amHi.s:23501  .debug_str:0000000000009729 .LASF4141
C:\Users\CYMR90~1\AppData\Local\Temp\ccX1amHi.s:26639  .debug_str:0000000000015ebf .LASF4142
C:\Users\CYMR90~1\AppData\Local\Temp\ccX1amHi.s:30566  .debug_str:0000000000025ab7 .LASF4143
C:\Users\CYMR90~1\AppData\Local\Temp\ccX1amHi.s:25725  .debug_str:00000000000124ad .LASF4144
C:\Users\CYMR90~1\AppData\Local\Temp\ccX1amHi.s:27116  .debug_str:0000000000017ee8 .LASF4145
C:\Users\CYMR90~1\AppData\Local\Temp\ccX1amHi.s:24359  .debug_str:000000000000ce93 .LASF4146
C:\Users\CYMR90~1\AppData\Local\Temp\ccX1amHi.s:23769  .debug_str:000000000000a7ab .LASF4147
C:\Users\CYMR90~1\AppData\Local\Temp\ccX1amHi.s:27712  .debug_str:000000000001a629 .LASF4148
C:\Users\CYMR90~1\AppData\Local\Temp\ccX1amHi.s:24779  .debug_str:000000000000e912 .LASF4149
C:\Users\CYMR90~1\AppData\Local\Temp\ccX1amHi.s:22603  .debug_str:0000000000005cef .LASF4150
C:\Users\CYMR90~1\AppData\Local\Temp\ccX1amHi.s:28926  .debug_str:000000000001f3bb .LASF4151
C:\Users\CYMR90~1\AppData\Local\Temp\ccX1amHi.s:30504  .debug_str:00000000000255d0 .LASF4152
C:\Users\CYMR90~1\AppData\Local\Temp\ccX1amHi.s:30290  .debug_str:000000000002470f .LASF4153
C:\Users\CYMR90~1\AppData\Local\Temp\ccX1amHi.s:22165  .debug_str:0000000000004113 .LASF4154
C:\Users\CYMR90~1\AppData\Local\Temp\ccX1amHi.s:27886  .debug_str:000000000001b1a5 .LASF4155
C:\Users\CYMR90~1\AppData\Local\Temp\ccX1amHi.s:25383  .debug_str:0000000000010efc .LASF4156
C:\Users\CYMR90~1\AppData\Local\Temp\ccX1amHi.s:27630  .debug_str:0000000000019ff4 .LASF4157
C:\Users\CYMR90~1\AppData\Local\Temp\ccX1amHi.s:31560  .debug_str:0000000000029a57 .LASF4158
C:\Users\CYMR90~1\AppData\Local\Temp\ccX1amHi.s:30890  .debug_str:0000000000026ec1 .LASF4159
C:\Users\CYMR90~1\AppData\Local\Temp\ccX1amHi.s:26509  .debug_str:0000000000015688 .LASF4160
C:\Users\CYMR90~1\AppData\Local\Temp\ccX1amHi.s:32196  .debug_str:000000000002c270 .LASF4161
C:\Users\CYMR90~1\AppData\Local\Temp\ccX1amHi.s:23039  .debug_str:00000000000078af .LASF4162
C:\Users\CYMR90~1\AppData\Local\Temp\ccX1amHi.s:30448  .debug_str:0000000000025171 .LASF4163
C:\Users\CYMR90~1\AppData\Local\Temp\ccX1amHi.s:32428  .debug_str:000000000002d1ae .LASF4164
C:\Users\CYMR90~1\AppData\Local\Temp\ccX1amHi.s:22331  .debug_str:0000000000004c55 .LASF4165
C:\Users\CYMR90~1\AppData\Local\Temp\ccX1amHi.s:27572  .debug_str:0000000000019c7c .LASF4166
C:\Users\CYMR90~1\AppData\Local\Temp\ccX1amHi.s:22553  .debug_str:00000000000059e5 .LASF4167
C:\Users\CYMR90~1\AppData\Local\Temp\ccX1amHi.s:24115  .debug_str:000000000000bebd .LASF4168
C:\Users\CYMR90~1\AppData\Local\Temp\ccX1amHi.s:21181  .debug_str:0000000000000319 .LASF4169
C:\Users\CYMR90~1\AppData\Local\Temp\ccX1amHi.s:23607  .debug_str:0000000000009e08 .LASF4170
C:\Users\CYMR90~1\AppData\Local\Temp\ccX1amHi.s:30662  .debug_str:00000000000260b6 .LASF4171
C:\Users\CYMR90~1\AppData\Local\Temp\ccX1amHi.s:27016  .debug_str:00000000000178c7 .LASF4172
C:\Users\CYMR90~1\AppData\Local\Temp\ccX1amHi.s:23573  .debug_str:0000000000009bf0 .LASF4173
C:\Users\CYMR90~1\AppData\Local\Temp\ccX1amHi.s:28234  .debug_str:000000000001c6d8 .LASF4174
C:\Users\CYMR90~1\AppData\Local\Temp\ccX1amHi.s:27514  .debug_str:0000000000019876 .LASF4175
C:\Users\CYMR90~1\AppData\Local\Temp\ccX1amHi.s:31436  .debug_str:0000000000029316 .LASF4176
C:\Users\CYMR90~1\AppData\Local\Temp\ccX1amHi.s:21551  .debug_str:0000000000001a3b .LASF4177
C:\Users\CYMR90~1\AppData\Local\Temp\ccX1amHi.s:23925  .debug_str:000000000000b22e .LASF4178
C:\Users\CYMR90~1\AppData\Local\Temp\ccX1amHi.s:25075  .debug_str:000000000000fb41 .LASF4179
C:\Users\CYMR90~1\AppData\Local\Temp\ccX1amHi.s:22903  .debug_str:0000000000006f74 .LASF4180
C:\Users\CYMR90~1\AppData\Local\Temp\ccX1amHi.s:26956  .debug_str:0000000000017524 .LASF4181
C:\Users\CYMR90~1\AppData\Local\Temp\ccX1amHi.s:30882  .debug_str:0000000000026e49 .LASF4182
C:\Users\CYMR90~1\AppData\Local\Temp\ccX1amHi.s:29408  .debug_str:0000000000021117 .LASF4183
C:\Users\CYMR90~1\AppData\Local\Temp\ccX1amHi.s:27450  .debug_str:000000000001944c .LASF4184
C:\Users\CYMR90~1\AppData\Local\Temp\ccX1amHi.s:22723  .debug_str:000000000000644f .LASF4185
C:\Users\CYMR90~1\AppData\Local\Temp\ccX1amHi.s:23993  .debug_str:000000000000b686 .LASF4186
C:\Users\CYMR90~1\AppData\Local\Temp\ccX1amHi.s:27442  .debug_str:00000000000193d6 .LASF4187
C:\Users\CYMR90~1\AppData\Local\Temp\ccX1amHi.s:25617  .debug_str:0000000000011dcb .LASF4188
C:\Users\CYMR90~1\AppData\Local\Temp\ccX1amHi.s:22639  .debug_str:0000000000005f0e .LASF4189
C:\Users\CYMR90~1\AppData\Local\Temp\ccX1amHi.s:26892  .debug_str:0000000000017166 .LASF4190
C:\Users\CYMR90~1\AppData\Local\Temp\ccX1amHi.s:30814  .debug_str:0000000000026a0d .LASF4191
C:\Users\CYMR90~1\AppData\Local\Temp\ccX1amHi.s:23435  .debug_str:00000000000092cb .LASF4192
C:\Users\CYMR90~1\AppData\Local\Temp\ccX1amHi.s:21513  .debug_str:00000000000017f6 .LASF4193
C:\Users\CYMR90~1\AppData\Local\Temp\ccX1amHi.s:31292  .debug_str:0000000000028a3d .LASF4194
C:\Users\CYMR90~1\AppData\Local\Temp\ccX1amHi.s:28584  .debug_str:000000000001def5 .LASF4195
C:\Users\CYMR90~1\AppData\Local\Temp\ccX1amHi.s:27876  .debug_str:000000000001b10c .LASF4196
C:\Users\CYMR90~1\AppData\Local\Temp\ccX1amHi.s:31776  .debug_str:000000000002a755 .LASF4197
C:\Users\CYMR90~1\AppData\Local\Temp\ccX1amHi.s:24491  .debug_str:000000000000d7b1 .LASF4198
C:\Users\CYMR90~1\AppData\Local\Temp\ccX1amHi.s:21519  .debug_str:000000000000185c .LASF4199
C:\Users\CYMR90~1\AppData\Local\Temp\ccX1amHi.s:30754  .debug_str:000000000002664d .LASF4200
C:\Users\CYMR90~1\AppData\Local\Temp\ccX1amHi.s:25143  .debug_str:000000000000ffbf .LASF4201
C:\Users\CYMR90~1\AppData\Local\Temp\ccX1amHi.s:27614  .debug_str:0000000000019ef9 .LASF4202
C:\Users\CYMR90~1\AppData\Local\Temp\ccX1amHi.s:29784  .debug_str:00000000000227eb .LASF4203
C:\Users\CYMR90~1\AppData\Local\Temp\ccX1amHi.s:32134  .debug_str:000000000002be0e .LASF4204
C:\Users\CYMR90~1\AppData\Local\Temp\ccX1amHi.s:27812  .debug_str:000000000001ace8 .LASF4205
C:\Users\CYMR90~1\AppData\Local\Temp\ccX1amHi.s:31718  .debug_str:000000000002a377 .LASF4206
C:\Users\CYMR90~1\AppData\Local\Temp\ccX1amHi.s:28668  .debug_str:000000000001e42e .LASF4207
C:\Users\CYMR90~1\AppData\Local\Temp\ccX1amHi.s:25089  .debug_str:000000000000fc1e .LASF4208
C:\Users\CYMR90~1\AppData\Local\Temp\ccX1amHi.s:25437  .debug_str:00000000000111e4 .LASF4209
C:\Users\CYMR90~1\AppData\Local\Temp\ccX1amHi.s:23297  .debug_str:0000000000008a73 .LASF4210
C:\Users\CYMR90~1\AppData\Local\Temp\ccX1amHi.s:23381  .debug_str:0000000000008fbd .LASF4211
C:\Users\CYMR90~1\AppData\Local\Temp\ccX1amHi.s:26241  .debug_str:00000000000145d1 .LASF4212
C:\Users\CYMR90~1\AppData\Local\Temp\ccX1amHi.s:25411  .debug_str:0000000000011064 .LASF4213
C:\Users\CYMR90~1\AppData\Local\Temp\ccX1amHi.s:27738  .debug_str:000000000001a7fa .LASF4214
C:\Users\CYMR90~1\AppData\Local\Temp\ccX1amHi.s:26117  .debug_str:0000000000013e61 .LASF4215
C:\Users\CYMR90~1\AppData\Local\Temp\ccX1amHi.s:25287  .debug_str:00000000000108fe .LASF4216
C:\Users\CYMR90~1\AppData\Local\Temp\ccX1amHi.s:29474  .debug_str:00000000000214ef .LASF4217
C:\Users\CYMR90~1\AppData\Local\Temp\ccX1amHi.s:23557  .debug_str:0000000000009ad0 .LASF4218
C:\Users\CYMR90~1\AppData\Local\Temp\ccX1amHi.s:23841  .debug_str:000000000000ac3e .LASF4219
C:\Users\CYMR90~1\AppData\Local\Temp\ccX1amHi.s:21937  .debug_str:000000000000316f .LASF4220
C:\Users\CYMR90~1\AppData\Local\Temp\ccX1amHi.s:25919  .debug_str:00000000000131b3 .LASF4221
C:\Users\CYMR90~1\AppData\Local\Temp\ccX1amHi.s:29504  .debug_str:0000000000021768 .LASF4222
C:\Users\CYMR90~1\AppData\Local\Temp\ccX1amHi.s:22399  .debug_str:0000000000005066 .LASF4223
C:\Users\CYMR90~1\AppData\Local\Temp\ccX1amHi.s:26371  .debug_str:0000000000014e53 .LASF4224
C:\Users\CYMR90~1\AppData\Local\Temp\ccX1amHi.s:30300  .debug_str:00000000000247ac .LASF4225
C:\Users\CYMR90~1\AppData\Local\Temp\ccX1amHi.s:22895  .debug_str:0000000000006f11 .LASF4226
C:\Users\CYMR90~1\AppData\Local\Temp\ccX1amHi.s:25241  .debug_str:0000000000010595 .LASF4227
C:\Users\CYMR90~1\AppData\Local\Temp\ccX1amHi.s:30874  .debug_str:0000000000026dae .LASF4228
C:\Users\CYMR90~1\AppData\Local\Temp\ccX1amHi.s:29114  .debug_str:000000000001ff0b .LASF4229
C:\Users\CYMR90~1\AppData\Local\Temp\ccX1amHi.s:25867  .debug_str:0000000000012e67 .LASF4230
C:\Users\CYMR90~1\AppData\Local\Temp\ccX1amHi.s:29776  .debug_str:0000000000022756 .LASF4231
C:\Users\CYMR90~1\AppData\Local\Temp\ccX1amHi.s:25711  .debug_str:00000000000123ad .LASF4232
C:\Users\CYMR90~1\AppData\Local\Temp\ccX1amHi.s:26417  .debug_str:0000000000015173 .LASF4233
C:\Users\CYMR90~1\AppData\Local\Temp\ccX1amHi.s:32302  .debug_str:000000000002c97f .LASF4234
C:\Users\CYMR90~1\AppData\Local\Temp\ccX1amHi.s:31032  .debug_str:00000000000277ec .LASF4235
C:\Users\CYMR90~1\AppData\Local\Temp\ccX1amHi.s:26791  .debug_str:00000000000168a2 .LASF4236
C:\Users\CYMR90~1\AppData\Local\Temp\ccX1amHi.s:25289  .debug_str:0000000000010924 .LASF4237
C:\Users\CYMR90~1\AppData\Local\Temp\ccX1amHi.s:23429  .debug_str:0000000000009272 .LASF4238
C:\Users\CYMR90~1\AppData\Local\Temp\ccX1amHi.s:31826  .debug_str:000000000002aa16 .LASF4239
C:\Users\CYMR90~1\AppData\Local\Temp\ccX1amHi.s:29708  .debug_str:00000000000223b6 .LASF4240
C:\Users\CYMR90~1\AppData\Local\Temp\ccX1amHi.s:26675  .debug_str:0000000000016184 .LASF4241
C:\Users\CYMR90~1\AppData\Local\Temp\ccX1amHi.s:29886  .debug_str:0000000000022e3a .LASF4242
C:\Users\CYMR90~1\AppData\Local\Temp\ccX1amHi.s:24993  .debug_str:000000000000f5dd .LASF4243
C:\Users\CYMR90~1\AppData\Local\Temp\ccX1amHi.s:22761  .debug_str:000000000000665b .LASF4244
C:\Users\CYMR90~1\AppData\Local\Temp\ccX1amHi.s:25577  .debug_str:0000000000011b85 .LASF4245
C:\Users\CYMR90~1\AppData\Local\Temp\ccX1amHi.s:30746  .debug_str:00000000000265b5 .LASF4246
C:\Users\CYMR90~1\AppData\Local\Temp\ccX1amHi.s:23371  .debug_str:0000000000008f32 .LASF4247
C:\Users\CYMR90~1\AppData\Local\Temp\ccX1amHi.s:27298  .debug_str:00000000000189e5 .LASF4248
C:\Users\CYMR90~1\AppData\Local\Temp\ccX1amHi.s:24389  .debug_str:000000000000d0a6 .LASF4249
C:\Users\CYMR90~1\AppData\Local\Temp\ccX1amHi.s:22213  .debug_str:0000000000004403 .LASF4250
C:\Users\CYMR90~1\AppData\Local\Temp\ccX1amHi.s:26177  .debug_str:000000000001421d .LASF4251
C:\Users\CYMR90~1\AppData\Local\Temp\ccX1amHi.s:24233  .debug_str:000000000000c5f6 .LASF4252
C:\Users\CYMR90~1\AppData\Local\Temp\ccX1amHi.s:22695  .debug_str:0000000000006292 .LASF4253
C:\Users\CYMR90~1\AppData\Local\Temp\ccX1amHi.s:21823  .debug_str:0000000000002a61 .LASF4254
C:\Users\CYMR90~1\AppData\Local\Temp\ccX1amHi.s:32308  .debug_str:000000000002c9ef .LASF4255
C:\Users\CYMR90~1\AppData\Local\Temp\ccX1amHi.s:23313  .debug_str:0000000000008b59 .LASF4256
C:\Users\CYMR90~1\AppData\Local\Temp\ccX1amHi.s:25663  .debug_str:00000000000120e1 .LASF4257
C:\Users\CYMR90~1\AppData\Local\Temp\ccX1amHi.s:21589  .debug_str:0000000000001c69 .LASF4258
C:\Users\CYMR90~1\AppData\Local\Temp\ccX1amHi.s:28240  .debug_str:000000000001c72f .LASF4259
C:\Users\CYMR90~1\AppData\Local\Temp\ccX1amHi.s:26113  .debug_str:0000000000013e1e .LASF4260
C:\Users\CYMR90~1\AppData\Local\Temp\ccX1amHi.s:30056  .debug_str:00000000000237f1 .LASF4261
C:\Users\CYMR90~1\AppData\Local\Temp\ccX1amHi.s:26519  .debug_str:000000000001573a .LASF4262
C:\Users\CYMR90~1\AppData\Local\Temp\ccX1amHi.s:31210  .debug_str:0000000000028472 .LASF4263
C:\Users\CYMR90~1\AppData\Local\Temp\ccX1amHi.s:24507  .debug_str:000000000000d893 .LASF4264
C:\Users\CYMR90~1\AppData\Local\Temp\ccX1amHi.s:30412  .debug_str:0000000000024ee8 .LASF4265
C:\Users\CYMR90~1\AppData\Local\Temp\ccX1amHi.s:29160  .debug_str:00000000000201f0 .LASF4266
C:\Users\CYMR90~1\AppData\Local\Temp\ccX1amHi.s:31092  .debug_str:0000000000027bda .LASF4267
C:\Users\CYMR90~1\AppData\Local\Temp\ccX1amHi.s:23713  .debug_str:000000000000a45f .LASF4268
C:\Users\CYMR90~1\AppData\Local\Temp\ccX1amHi.s:32116  .debug_str:000000000002bcc4 .LASF4269
C:\Users\CYMR90~1\AppData\Local\Temp\ccX1amHi.s:23003  .debug_str:000000000000764b .LASF4270
C:\Users\CYMR90~1\AppData\Local\Temp\ccX1amHi.s:22549  .debug_str:000000000000598d .LASF4271
C:\Users\CYMR90~1\AppData\Local\Temp\ccX1amHi.s:25691  .debug_str:000000000001229c .LASF4272
C:\Users\CYMR90~1\AppData\Local\Temp\ccX1amHi.s:26571  .debug_str:0000000000015a59 .LASF4273
C:\Users\CYMR90~1\AppData\Local\Temp\ccX1amHi.s:22013  .debug_str:00000000000036ab .LASF4274
C:\Users\CYMR90~1\AppData\Local\Temp\ccX1amHi.s:26761  .debug_str:00000000000166d4 .LASF4275
C:\Users\CYMR90~1\AppData\Local\Temp\ccX1amHi.s:23701  .debug_str:000000000000a39a .LASF4276
C:\Users\CYMR90~1\AppData\Local\Temp\ccX1amHi.s:21807  .debug_str:0000000000002957 .LASF4277
C:\Users\CYMR90~1\AppData\Local\Temp\ccX1amHi.s:29134  .debug_str:0000000000020071 .LASF4278
C:\Users\CYMR90~1\AppData\Local\Temp\ccX1amHi.s:24415  .debug_str:000000000000d272 .LASF4279
C:\Users\CYMR90~1\AppData\Local\Temp\ccX1amHi.s:22481  .debug_str:0000000000005587 .LASF4280
C:\Users\CYMR90~1\AppData\Local\Temp\ccX1amHi.s:23107  .debug_str:0000000000007d1a .LASF4281
C:\Users\CYMR90~1\AppData\Local\Temp\ccX1amHi.s:31524  .debug_str:000000000002987a .LASF4282
C:\Users\CYMR90~1\AppData\Local\Temp\ccX1amHi.s:23079  .debug_str:0000000000007b7b .LASF4283
C:\Users\CYMR90~1\AppData\Local\Temp\ccX1amHi.s:22657  .debug_str:0000000000006023 .LASF4284
C:\Users\CYMR90~1\AppData\Local\Temp\ccX1amHi.s:23443  .debug_str:0000000000009351 .LASF4285
C:\Users\CYMR90~1\AppData\Local\Temp\ccX1amHi.s:31330  .debug_str:0000000000028c72 .LASF4286
C:\Users\CYMR90~1\AppData\Local\Temp\ccX1amHi.s:22261  .debug_str:000000000000475b .LASF4287
C:\Users\CYMR90~1\AppData\Local\Temp\ccX1amHi.s:22855  .debug_str:0000000000006c57 .LASF4288
C:\Users\CYMR90~1\AppData\Local\Temp\ccX1amHi.s:31990  .debug_str:000000000002b478 .LASF4289
C:\Users\CYMR90~1\AppData\Local\Temp\ccX1amHi.s:22425  .debug_str:0000000000005218 .LASF4290
C:\Users\CYMR90~1\AppData\Local\Temp\ccX1amHi.s:23721  .debug_str:000000000000a50f .LASF4291
C:\Users\CYMR90~1\AppData\Local\Temp\ccX1amHi.s:23015  .debug_str:0000000000007723 .LASF4292
C:\Users\CYMR90~1\AppData\Local\Temp\ccX1amHi.s:28390  .debug_str:000000000001d28f .LASF4293
C:\Users\CYMR90~1\AppData\Local\Temp\ccX1amHi.s:30710  .debug_str:0000000000026386 .LASF4294
C:\Users\CYMR90~1\AppData\Local\Temp\ccX1amHi.s:27728  .debug_str:000000000001a72e .LASF4295
C:\Users\CYMR90~1\AppData\Local\Temp\ccX1amHi.s:24079  .debug_str:000000000000bc0d .LASF4296
C:\Users\CYMR90~1\AppData\Local\Temp\ccX1amHi.s:31468  .debug_str:00000000000294d9 .LASF4297
C:\Users\CYMR90~1\AppData\Local\Temp\ccX1amHi.s:23849  .debug_str:000000000000acdc .LASF4298
C:\Users\CYMR90~1\AppData\Local\Temp\ccX1amHi.s:21161  .debug_str:00000000000001ca .LASF4299
C:\Users\CYMR90~1\AppData\Local\Temp\ccX1amHi.s:30346  .debug_str:0000000000024aad .LASF4300
C:\Users\CYMR90~1\AppData\Local\Temp\ccX1amHi.s:29560  .debug_str:0000000000021ab8 .LASF4301
C:\Users\CYMR90~1\AppData\Local\Temp\ccX1amHi.s:26908  .debug_str:0000000000017240 .LASF4302
C:\Users\CYMR90~1\AppData\Local\Temp\ccX1amHi.s:30828  .debug_str:0000000000026b03 .LASF4303
C:\Users\CYMR90~1\AppData\Local\Temp\ccX1amHi.s:27040  .debug_str:0000000000017a6d .LASF4304
C:\Users\CYMR90~1\AppData\Local\Temp\ccX1amHi.s:27590  .debug_str:0000000000019d94 .LASF4305
C:\Users\CYMR90~1\AppData\Local\Temp\ccX1amHi.s:30792  .debug_str:00000000000268cf .LASF4306
C:\Users\CYMR90~1\AppData\Local\Temp\ccX1amHi.s:24027  .debug_str:000000000000b8c2 .LASF4307
C:\Users\CYMR90~1\AppData\Local\Temp\ccX1amHi.s:27956  .debug_str:000000000001b631 .LASF4308
C:\Users\CYMR90~1\AppData\Local\Temp\ccX1amHi.s:28330  .debug_str:000000000001cdbb .LASF4309
C:\Users\CYMR90~1\AppData\Local\Temp\ccX1amHi.s:22873  .debug_str:0000000000006da3 .LASF4310
C:\Users\CYMR90~1\AppData\Local\Temp\ccX1amHi.s:26839  .debug_str:0000000000016c6f .LASF4311
C:\Users\CYMR90~1\AppData\Local\Temp\ccX1amHi.s:30766  .debug_str:00000000000266f6 .LASF4312
C:\Users\CYMR90~1\AppData\Local\Temp\ccX1amHi.s:22203  .debug_str:0000000000004363 .LASF4313
C:\Users\CYMR90~1\AppData\Local\Temp\ccX1amHi.s:23561  .debug_str:0000000000009b37 .LASF4314
C:\Users\CYMR90~1\AppData\Local\Temp\ccX1amHi.s:25985  .debug_str:0000000000013660 .LASF4315
C:\Users\CYMR90~1\AppData\Local\Temp\ccX1amHi.s:28100  .debug_str:000000000001bed0 .LASF4316
C:\Users\CYMR90~1\AppData\Local\Temp\ccX1amHi.s:27906  .debug_str:000000000001b32a .LASF4317
C:\Users\CYMR90~1\AppData\Local\Temp\ccX1amHi.s:26343  .debug_str:0000000000014c56 .LASF4318
C:\Users\CYMR90~1\AppData\Local\Temp\ccX1amHi.s:21349  .debug_str:0000000000000d60 .LASF4319
C:\Users\CYMR90~1\AppData\Local\Temp\ccX1amHi.s:30734  .debug_str:00000000000264e8 .LASF4320
C:\Users\CYMR90~1\AppData\Local\Temp\ccX1amHi.s:25521  .debug_str:00000000000116f6 .LASF4321
C:\Users\CYMR90~1\AppData\Local\Temp\ccX1amHi.s:29450  .debug_str:0000000000021392 .LASF4322
C:\Users\CYMR90~1\AppData\Local\Temp\ccX1amHi.s:22021  .debug_str:000000000000374b .LASF4323
C:\Users\CYMR90~1\AppData\Local\Temp\ccX1amHi.s:26003  .debug_str:000000000001378b .LASF4324
C:\Users\CYMR90~1\AppData\Local\Temp\ccX1amHi.s:29356  .debug_str:0000000000020e29 .LASF4325
C:\Users\CYMR90~1\AppData\Local\Temp\ccX1amHi.s:30088  .debug_str:00000000000239e8 .LASF4326
C:\Users\CYMR90~1\AppData\Local\Temp\ccX1amHi.s:27364  .debug_str:0000000000018eb3 .LASF4327
C:\Users\CYMR90~1\AppData\Local\Temp\ccX1amHi.s:28938  .debug_str:000000000001f46f .LASF4328
C:\Users\CYMR90~1\AppData\Local\Temp\ccX1amHi.s:22201  .debug_str:000000000000433d .LASF4329
C:\Users\CYMR90~1\AppData\Local\Temp\ccX1amHi.s:22131  .debug_str:0000000000003e78 .LASF4330
C:\Users\CYMR90~1\AppData\Local\Temp\ccX1amHi.s:29380  .debug_str:0000000000020f9e .LASF4331
C:\Users\CYMR90~1\AppData\Local\Temp\ccX1amHi.s:27326  .debug_str:0000000000018ba0 .LASF4332
C:\Users\CYMR90~1\AppData\Local\Temp\ccX1amHi.s:26033  .debug_str:000000000001394f .LASF4333
C:\Users\CYMR90~1\AppData\Local\Temp\ccX1amHi.s:29880  .debug_str:0000000000022dd8 .LASF4334
C:\Users\CYMR90~1\AppData\Local\Temp\ccX1amHi.s:32406  .debug_str:000000000002d04d .LASF4335
C:\Users\CYMR90~1\AppData\Local\Temp\ccX1amHi.s:23825  .debug_str:000000000000ab32 .LASF4336
C:\Users\CYMR90~1\AppData\Local\Temp\ccX1amHi.s:24489  .debug_str:000000000000d7a4 .LASF4337
C:\Users\CYMR90~1\AppData\Local\Temp\ccX1amHi.s:30014  .debug_str:000000000002352b .LASF4338
C:\Users\CYMR90~1\AppData\Local\Temp\ccX1amHi.s:28560  .debug_str:000000000001dd15 .LASF4339
C:\Users\CYMR90~1\AppData\Local\Temp\ccX1amHi.s:21215  .debug_str:0000000000000500 .LASF4340
C:\Users\CYMR90~1\AppData\Local\Temp\ccX1amHi.s:22253  .debug_str:00000000000046c1 .LASF4341
C:\Users\CYMR90~1\AppData\Local\Temp\ccX1amHi.s:24675  .debug_str:000000000000e272 .LASF4342
C:\Users\CYMR90~1\AppData\Local\Temp\ccX1amHi.s:22823  .debug_str:0000000000006a76 .LASF4343
C:\Users\CYMR90~1\AppData\Local\Temp\ccX1amHi.s:26051  .debug_str:0000000000013a62 .LASF4344
C:\Users\CYMR90~1\AppData\Local\Temp\ccX1amHi.s:25689  .debug_str:0000000000012275 .LASF4345
C:\Users\CYMR90~1\AppData\Local\Temp\ccX1amHi.s:21883  .debug_str:0000000000002e05 .LASF4346
C:\Users\CYMR90~1\AppData\Local\Temp\ccX1amHi.s:22447  .debug_str:0000000000005350 .LASF4347
C:\Users\CYMR90~1\AppData\Local\Temp\ccX1amHi.s:21969  .debug_str:0000000000003397 .LASF4348
C:\Users\CYMR90~1\AppData\Local\Temp\ccX1amHi.s:21177  .debug_str:00000000000002b0 .LASF4349
C:\Users\CYMR90~1\AppData\Local\Temp\ccX1amHi.s:23437  .debug_str:00000000000092f1 .LASF4350
C:\Users\CYMR90~1\AppData\Local\Temp\ccX1amHi.s:26813  .debug_str:0000000000016a6d .LASF4351
C:\Users\CYMR90~1\AppData\Local\Temp\ccX1amHi.s:21873  .debug_str:0000000000002d7a .LASF4352
C:\Users\CYMR90~1\AppData\Local\Temp\ccX1amHi.s:30848  .debug_str:0000000000026c28 .LASF4353
C:\Users\CYMR90~1\AppData\Local\Temp\ccX1amHi.s:26679  .debug_str:00000000000161c5 .LASF4354
C:\Users\CYMR90~1\AppData\Local\Temp\ccX1amHi.s:27338  .debug_str:0000000000018cf9 .LASF4355
C:\Users\CYMR90~1\AppData\Local\Temp\ccX1amHi.s:30024  .debug_str:00000000000235c4 .LASF4356
C:\Users\CYMR90~1\AppData\Local\Temp\ccX1amHi.s:29806  .debug_str:000000000002292b .LASF4357
C:\Users\CYMR90~1\AppData\Local\Temp\ccX1amHi.s:25883  .debug_str:0000000000012f65 .LASF4358
C:\Users\CYMR90~1\AppData\Local\Temp\ccX1amHi.s:28486  .debug_str:000000000001d899 .LASF4359
C:\Users\CYMR90~1\AppData\Local\Temp\ccX1amHi.s:31744  .debug_str:000000000002a53b .LASF4360
C:\Users\CYMR90~1\AppData\Local\Temp\ccX1amHi.s:28460  .debug_str:000000000001d6db .LASF4361
C:\Users\CYMR90~1\AppData\Local\Temp\ccX1amHi.s:30616  .debug_str:0000000000025dab .LASF4362
C:\Users\CYMR90~1\AppData\Local\Temp\ccX1amHi.s:25421  .debug_str:00000000000110f0 .LASF4363
C:\Users\CYMR90~1\AppData\Local\Temp\ccX1amHi.s:28614  .debug_str:000000000001e0fa .LASF4364
C:\Users\CYMR90~1\AppData\Local\Temp\ccX1amHi.s:23611  .debug_str:0000000000009e45 .LASF4365
C:\Users\CYMR90~1\AppData\Local\Temp\ccX1amHi.s:27872  .debug_str:000000000001b0d5 .LASF4366
C:\Users\CYMR90~1\AppData\Local\Temp\ccX1amHi.s:28458  .debug_str:000000000001d6b6 .LASF4367
C:\Users\CYMR90~1\AppData\Local\Temp\ccX1amHi.s:24005  .debug_str:000000000000b725 .LASF4368
C:\Users\CYMR90~1\AppData\Local\Temp\ccX1amHi.s:27020  .debug_str:0000000000017905 .LASF4369
C:\Users\CYMR90~1\AppData\Local\Temp\ccX1amHi.s:28162  .debug_str:000000000001c2e1 .LASF4370
C:\Users\CYMR90~1\AppData\Local\Temp\ccX1amHi.s:25819  .debug_str:0000000000012b4a .LASF4371
C:\Users\CYMR90~1\AppData\Local\Temp\ccX1amHi.s:29334  .debug_str:0000000000020cb4 .LASF4372
C:\Users\CYMR90~1\AppData\Local\Temp\ccX1amHi.s:23935  .debug_str:000000000000b2b2 .LASF4373
C:\Users\CYMR90~1\AppData\Local\Temp\ccX1amHi.s:21557  .debug_str:0000000000001a84 .LASF4374
C:\Users\CYMR90~1\AppData\Local\Temp\ccX1amHi.s:26517  .debug_str:0000000000015715 .LASF4375
C:\Users\CYMR90~1\AppData\Local\Temp\ccX1amHi.s:25865  .debug_str:0000000000012e42 .LASF4376
C:\Users\CYMR90~1\AppData\Local\Temp\ccX1amHi.s:32114  .debug_str:000000000002bcad .LASF4377
C:\Users\CYMR90~1\AppData\Local\Temp\ccX1amHi.s:27468  .debug_str:000000000001957d .LASF4378
C:\Users\CYMR90~1\AppData\Local\Temp\ccX1amHi.s:27018  .debug_str:00000000000178ed .LASF4379
C:\Users\CYMR90~1\AppData\Local\Temp\ccX1amHi.s:28482  .debug_str:000000000001d878 .LASF4380
C:\Users\CYMR90~1\AppData\Local\Temp\ccX1amHi.s:30138  .debug_str:0000000000023cc7 .LASF4381
C:\Users\CYMR90~1\AppData\Local\Temp\ccX1amHi.s:22479  .debug_str:000000000000556e .LASF4382
C:\Users\CYMR90~1\AppData\Local\Temp\ccX1amHi.s:21453  .debug_str:00000000000013d2 .LASF4383
C:\Users\CYMR90~1\AppData\Local\Temp\ccX1amHi.s:28804  .debug_str:000000000001ec73 .LASF4384
C:\Users\CYMR90~1\AppData\Local\Temp\ccX1amHi.s:29520  .debug_str:0000000000021841 .LASF4385
C:\Users\CYMR90~1\AppData\Local\Temp\ccX1amHi.s:31692  .debug_str:000000000002a225 .LASF4386
C:\Users\CYMR90~1\AppData\Local\Temp\ccX1amHi.s:25537  .debug_str:00000000000117fb .LASF4387
C:\Users\CYMR90~1\AppData\Local\Temp\ccX1amHi.s:31342  .debug_str:0000000000028d27 .LASF4388
C:\Users\CYMR90~1\AppData\Local\Temp\ccX1amHi.s:26303  .debug_str:0000000000014a04 .LASF4389
C:\Users\CYMR90~1\AppData\Local\Temp\ccX1amHi.s:23897  .debug_str:000000000000b097 .LASF4390
C:\Users\CYMR90~1\AppData\Local\Temp\ccX1amHi.s:29294  .debug_str:0000000000020a3f .LASF4391
C:\Users\CYMR90~1\AppData\Local\Temp\ccX1amHi.s:23329  .debug_str:0000000000008c5f .LASF4392
C:\Users\CYMR90~1\AppData\Local\Temp\ccX1amHi.s:26932  .debug_str:00000000000173a0 .LASF4393
C:\Users\CYMR90~1\AppData\Local\Temp\ccX1amHi.s:27550  .debug_str:0000000000019b31 .LASF4394
C:\Users\CYMR90~1\AppData\Local\Temp\ccX1amHi.s:30918  .debug_str:0000000000027089 .LASF4395
C:\Users\CYMR90~1\AppData\Local\Temp\ccX1amHi.s:26341  .debug_str:0000000000014c42 .LASF4396
C:\Users\CYMR90~1\AppData\Local\Temp\ccX1amHi.s:28708  .debug_str:000000000001e691 .LASF4397
C:\Users\CYMR90~1\AppData\Local\Temp\ccX1amHi.s:24313  .debug_str:000000000000cc16 .LASF4398
C:\Users\CYMR90~1\AppData\Local\Temp\ccX1amHi.s:26119  .debug_str:0000000000013e87 .LASF4399
C:\Users\CYMR90~1\AppData\Local\Temp\ccX1amHi.s:28528  .debug_str:000000000001db4c .LASF4400
C:\Users\CYMR90~1\AppData\Local\Temp\ccX1amHi.s:25895  .debug_str:000000000001300f .LASF4401
C:\Users\CYMR90~1\AppData\Local\Temp\ccX1amHi.s:29370  .debug_str:0000000000020f1e .LASF4402
C:\Users\CYMR90~1\AppData\Local\Temp\ccX1amHi.s:24865  .debug_str:000000000000ee5d .LASF4403
C:\Users\CYMR90~1\AppData\Local\Temp\ccX1amHi.s:28480  .debug_str:000000000001d863 .LASF4404
C:\Users\CYMR90~1\AppData\Local\Temp\ccX1amHi.s:22259  .debug_str:0000000000004747 .LASF4405
C:\Users\CYMR90~1\AppData\Local\Temp\ccX1amHi.s:21639  .debug_str:0000000000001f7a .LASF4406
C:\Users\CYMR90~1\AppData\Local\Temp\ccX1amHi.s:28202  .debug_str:000000000001c533 .LASF4407
C:\Users\CYMR90~1\AppData\Local\Temp\ccX1amHi.s:23243  .debug_str:0000000000008733 .LASF4408
C:\Users\CYMR90~1\AppData\Local\Temp\ccX1amHi.s:31818  .debug_str:000000000002a9c5 .LASF4409
C:\Users\CYMR90~1\AppData\Local\Temp\ccX1amHi.s:23091  .debug_str:0000000000007c31 .LASF4410
C:\Users\CYMR90~1\AppData\Local\Temp\ccX1amHi.s:21225  .debug_str:00000000000005a2 .LASF4411
C:\Users\CYMR90~1\AppData\Local\Temp\ccX1amHi.s:30338  .debug_str:0000000000024a44 .LASF4412
C:\Users\CYMR90~1\AppData\Local\Temp\ccX1amHi.s:27246  .debug_str:00000000000186aa .LASF4413
C:\Users\CYMR90~1\AppData\Local\Temp\ccX1amHi.s:24973  .debug_str:000000000000f4c0 .LASF4414
C:\Users\CYMR90~1\AppData\Local\Temp\ccX1amHi.s:29954  .debug_str:00000000000231e2 .LASF4415
C:\Users\CYMR90~1\AppData\Local\Temp\ccX1amHi.s:31642  .debug_str:0000000000029f45 .LASF4416
C:\Users\CYMR90~1\AppData\Local\Temp\ccX1amHi.s:24163  .debug_str:000000000000c1e7 .LASF4417
C:\Users\CYMR90~1\AppData\Local\Temp\ccX1amHi.s:22679  .debug_str:00000000000061ba .LASF4418
C:\Users\CYMR90~1\AppData\Local\Temp\ccX1amHi.s:22309  .debug_str:0000000000004ae2 .LASF4419
C:\Users\CYMR90~1\AppData\Local\Temp\ccX1amHi.s:30688  .debug_str:0000000000026262 .LASF4420
C:\Users\CYMR90~1\AppData\Local\Temp\ccX1amHi.s:24563  .debug_str:000000000000dbc6 .LASF4421
C:\Users\CYMR90~1\AppData\Local\Temp\ccX1amHi.s:25977  .debug_str:00000000000135ca .LASF4422
C:\Users\CYMR90~1\AppData\Local\Temp\ccX1amHi.s:23303  .debug_str:0000000000008ad4 .LASF4423
C:\Users\CYMR90~1\AppData\Local\Temp\ccX1amHi.s:26525  .debug_str:000000000001578b .LASF4424
C:\Users\CYMR90~1\AppData\Local\Temp\ccX1amHi.s:30478  .debug_str:00000000000253f7 .LASF4425
C:\Users\CYMR90~1\AppData\Local\Temp\ccX1amHi.s:21739  .debug_str:00000000000024d6 .LASF4426
C:\Users\CYMR90~1\AppData\Local\Temp\ccX1amHi.s:26695  .debug_str:00000000000162bf .LASF4427
C:\Users\CYMR90~1\AppData\Local\Temp\ccX1amHi.s:21363  .debug_str:0000000000000e2c .LASF4428
C:\Users\CYMR90~1\AppData\Local\Temp\ccX1amHi.s:25371  .debug_str:0000000000010e64 .LASF4429
C:\Users\CYMR90~1\AppData\Local\Temp\ccX1amHi.s:24047  .debug_str:000000000000b9e5 .LASF4430
C:\Users\CYMR90~1\AppData\Local\Temp\ccX1amHi.s:29066  .debug_str:000000000001fc2c .LASF4431
C:\Users\CYMR90~1\AppData\Local\Temp\ccX1amHi.s:28032  .debug_str:000000000001babd .LASF4432
C:\Users\CYMR90~1\AppData\Local\Temp\ccX1amHi.s:25785  .debug_str:00000000000128e9 .LASF4433
C:\Users\CYMR90~1\AppData\Local\Temp\ccX1amHi.s:21733  .debug_str:0000000000002489 .LASF4434
C:\Users\CYMR90~1\AppData\Local\Temp\ccX1amHi.s:28432  .debug_str:000000000001d50f .LASF4435
C:\Users\CYMR90~1\AppData\Local\Temp\ccX1amHi.s:24287  .debug_str:000000000000c9f6 .LASF4436
C:\Users\CYMR90~1\AppData\Local\Temp\ccX1amHi.s:31802  .debug_str:000000000002a8e0 .LASF4437
C:\Users\CYMR90~1\AppData\Local\Temp\ccX1amHi.s:27694  .debug_str:000000000001a55a .LASF4438
C:\Users\CYMR90~1\AppData\Local\Temp\ccX1amHi.s:29920  .debug_str:0000000000023014 .LASF4439
C:\Users\CYMR90~1\AppData\Local\Temp\ccX1amHi.s:31476  .debug_str:0000000000029560 .LASF4440
C:\Users\CYMR90~1\AppData\Local\Temp\ccX1amHi.s:26777  .debug_str:00000000000167c5 .LASF4441
C:\Users\CYMR90~1\AppData\Local\Temp\ccX1amHi.s:27436  .debug_str:000000000001937a .LASF4442
C:\Users\CYMR90~1\AppData\Local\Temp\ccX1amHi.s:22477  .debug_str:0000000000005555 .LASF4443
C:\Users\CYMR90~1\AppData\Local\Temp\ccX1amHi.s:26193  .debug_str:000000000001431b .LASF4444
C:\Users\CYMR90~1\AppData\Local\Temp\ccX1amHi.s:25151  .debug_str:000000000001003e .LASF4445
C:\Users\CYMR90~1\AppData\Local\Temp\ccX1amHi.s:28332  .debug_str:000000000001cde1 .LASF4446
C:\Users\CYMR90~1\AppData\Local\Temp\ccX1amHi.s:29636  .debug_str:0000000000021f66 .LASF4447
C:\Users\CYMR90~1\AppData\Local\Temp\ccX1amHi.s:24519  .debug_str:000000000000d951 .LASF4448
C:\Users\CYMR90~1\AppData\Local\Temp\ccX1amHi.s:31964  .debug_str:000000000002b2aa .LASF4449
C:\Users\CYMR90~1\AppData\Local\Temp\ccX1amHi.s:24067  .debug_str:000000000000bb60 .LASF4450
C:\Users\CYMR90~1\AppData\Local\Temp\ccX1amHi.s:29246  .debug_str:000000000002078c .LASF4451
C:\Users\CYMR90~1\AppData\Local\Temp\ccX1amHi.s:26637  .debug_str:0000000000015ea9 .LASF4452
C:\Users\CYMR90~1\AppData\Local\Temp\ccX1amHi.s:30092  .debug_str:0000000000023a29 .LASF4453
C:\Users\CYMR90~1\AppData\Local\Temp\ccX1amHi.s:31934  .debug_str:000000000002b092 .LASF4454
C:\Users\CYMR90~1\AppData\Local\Temp\ccX1amHi.s:29446  .debug_str:000000000002134f .LASF4455
C:\Users\CYMR90~1\AppData\Local\Temp\ccX1amHi.s:29774  .debug_str:000000000002273e .LASF4456
C:\Users\CYMR90~1\AppData\Local\Temp\ccX1amHi.s:26765  .debug_str:0000000000016718 .LASF4457
C:\Users\CYMR90~1\AppData\Local\Temp\ccX1amHi.s:22909  .debug_str:0000000000007002 .LASF4458
C:\Users\CYMR90~1\AppData\Local\Temp\ccX1amHi.s:30514  .debug_str:00000000000256bd .LASF4459
C:\Users\CYMR90~1\AppData\Local\Temp\ccX1amHi.s:27750  .debug_str:000000000001a936 .LASF4460
C:\Users\CYMR90~1\AppData\Local\Temp\ccX1amHi.s:21359  .debug_str:0000000000000dfc .LASF4461
C:\Users\CYMR90~1\AppData\Local\Temp\ccX1amHi.s:29750  .debug_str:00000000000225da .LASF4462
C:\Users\CYMR90~1\AppData\Local\Temp\ccX1amHi.s:31460  .debug_str:000000000002946c .LASF4463
C:\Users\CYMR90~1\AppData\Local\Temp\ccX1amHi.s:21813  .debug_str:00000000000029ac .LASF4464
C:\Users\CYMR90~1\AppData\Local\Temp\ccX1amHi.s:24843  .debug_str:000000000000ed3f .LASF4465
C:\Users\CYMR90~1\AppData\Local\Temp\ccX1amHi.s:32376  .debug_str:000000000002ceb7 .LASF4466
C:\Users\CYMR90~1\AppData\Local\Temp\ccX1amHi.s:22039  .debug_str:0000000000003874 .LASF4467
C:\Users\CYMR90~1\AppData\Local\Temp\ccX1amHi.s:26093  .debug_str:0000000000013d2c .LASF4468
C:\Users\CYMR90~1\AppData\Local\Temp\ccX1amHi.s:30426  .debug_str:0000000000024fb5 .LASF4469
C:\Users\CYMR90~1\AppData\Local\Temp\ccX1amHi.s:31422  .debug_str:0000000000029243 .LASF4470
C:\Users\CYMR90~1\AppData\Local\Temp\ccX1amHi.s:26099  .debug_str:0000000000013d70 .LASF4471
C:\Users\CYMR90~1\AppData\Local\Temp\ccX1amHi.s:22601  .debug_str:0000000000005cd9 .LASF4472
C:\Users\CYMR90~1\AppData\Local\Temp\ccX1amHi.s:22193  .debug_str:00000000000042a9 .LASF4473
C:\Users\CYMR90~1\AppData\Local\Temp\ccX1amHi.s:29556  .debug_str:0000000000021a86 .LASF4474
C:\Users\CYMR90~1\AppData\Local\Temp\ccX1amHi.s:25451  .debug_str:00000000000112c4 .LASF4475
C:\Users\CYMR90~1\AppData\Local\Temp\ccX1amHi.s:22283  .debug_str:000000000000494d .LASF4476
C:\Users\CYMR90~1\AppData\Local\Temp\ccX1amHi.s:29348  .debug_str:0000000000020da9 .LASF4477
C:\Users\CYMR90~1\AppData\Local\Temp\ccX1amHi.s:30744  .debug_str:000000000002659e .LASF4478
C:\Users\CYMR90~1\AppData\Local\Temp\ccX1amHi.s:31922  .debug_str:000000000002afe8 .LASF4479
C:\Users\CYMR90~1\AppData\Local\Temp\ccX1amHi.s:30660  .debug_str:000000000002609d .LASF4480
C:\Users\CYMR90~1\AppData\Local\Temp\ccX1amHi.s:21501  .debug_str:0000000000001694 .LASF4481
C:\Users\CYMR90~1\AppData\Local\Temp\ccX1amHi.s:28670  .debug_str:000000000001e454 .LASF4482
C:\Users\CYMR90~1\AppData\Local\Temp\ccX1amHi.s:30962  .debug_str:00000000000273f0 .LASF4483
C:\Users\CYMR90~1\AppData\Local\Temp\ccX1amHi.s:23743  .debug_str:000000000000a665 .LASF4484
C:\Users\CYMR90~1\AppData\Local\Temp\ccX1amHi.s:32268  .debug_str:000000000002c73c .LASF4485
C:\Users\CYMR90~1\AppData\Local\Temp\ccX1amHi.s:31630  .debug_str:0000000000029e9f .LASF4486
C:\Users\CYMR90~1\AppData\Local\Temp\ccX1amHi.s:23097  .debug_str:0000000000007c8b .LASF4487
C:\Users\CYMR90~1\AppData\Local\Temp\ccX1amHi.s:22175  .debug_str:00000000000041b6 .LASF4488
C:\Users\CYMR90~1\AppData\Local\Temp\ccX1amHi.s:30824  .debug_str:0000000000026abb .LASF4489
C:\Users\CYMR90~1\AppData\Local\Temp\ccX1amHi.s:28216  .debug_str:000000000001c5e6 .LASF4490
C:\Users\CYMR90~1\AppData\Local\Temp\ccX1amHi.s:30800  .debug_str:000000000002694d .LASF4491
C:\Users\CYMR90~1\AppData\Local\Temp\ccX1amHi.s:26129  .debug_str:0000000000013f0f .LASF4492
C:\Users\CYMR90~1\AppData\Local\Temp\ccX1amHi.s:25043  .debug_str:000000000000f97c .LASF4493
C:\Users\CYMR90~1\AppData\Local\Temp\ccX1amHi.s:28776  .debug_str:000000000001eae3 .LASF4494
C:\Users\CYMR90~1\AppData\Local\Temp\ccX1amHi.s:22533  .debug_str:00000000000058c1 .LASF4495
C:\Users\CYMR90~1\AppData\Local\Temp\ccX1amHi.s:29974  .debug_str:00000000000232e5 .LASF4496
C:\Users\CYMR90~1\AppData\Local\Temp\ccX1amHi.s:27366  .debug_str:0000000000018ed9 .LASF4497
C:\Users\CYMR90~1\AppData\Local\Temp\ccX1amHi.s:21703  .debug_str:00000000000022ca .LASF4498
C:\Users\CYMR90~1\AppData\Local\Temp\ccX1amHi.s:21903  .debug_str:0000000000002f1e .LASF4499
C:\Users\CYMR90~1\AppData\Local\Temp\ccX1amHi.s:30624  .debug_str:0000000000025e40 .LASF4500
C:\Users\CYMR90~1\AppData\Local\Temp\ccX1amHi.s:26535  .debug_str:0000000000015812 .LASF4501
C:\Users\CYMR90~1\AppData\Local\Temp\ccX1amHi.s:32412  .debug_str:000000000002d0cf .LASF4502
C:\Users\CYMR90~1\AppData\Local\Temp\ccX1amHi.s:23415  .debug_str:0000000000009194 .LASF4503
C:\Users\CYMR90~1\AppData\Local\Temp\ccX1amHi.s:31216  .debug_str:00000000000284de .LASF4504
C:\Users\CYMR90~1\AppData\Local\Temp\ccX1amHi.s:32410  .debug_str:000000000002d096 .LASF4505
C:\Users\CYMR90~1\AppData\Local\Temp\ccX1amHi.s:28594  .debug_str:000000000001df9f .LASF4506
C:\Users\CYMR90~1\AppData\Local\Temp\ccX1amHi.s:22863  .debug_str:0000000000006cec .LASF4507
C:\Users\CYMR90~1\AppData\Local\Temp\ccX1amHi.s:22323  .debug_str:0000000000004bd3 .LASF4508
C:\Users\CYMR90~1\AppData\Local\Temp\ccX1amHi.s:26884  .debug_str:00000000000170e3 .LASF4509
C:\Users\CYMR90~1\AppData\Local\Temp\ccX1amHi.s:32062  .debug_str:000000000002b965 .LASF4510
C:\Users\CYMR90~1\AppData\Local\Temp\ccX1amHi.s:25917  .debug_str:0000000000013194 .LASF4511
C:\Users\CYMR90~1\AppData\Local\Temp\ccX1amHi.s:31694  .debug_str:000000000002a23e .LASF4512
C:\Users\CYMR90~1\AppData\Local\Temp\ccX1amHi.s:30774  .debug_str:0000000000026797 .LASF4513
C:\Users\CYMR90~1\AppData\Local\Temp\ccX1amHi.s:30984  .debug_str:000000000002753c .LASF4514
C:\Users\CYMR90~1\AppData\Local\Temp\ccX1amHi.s:31522  .debug_str:000000000002983f .LASF4515
C:\Users\CYMR90~1\AppData\Local\Temp\ccX1amHi.s:28126  .debug_str:000000000001c09c .LASF4516
C:\Users\CYMR90~1\AppData\Local\Temp\ccX1amHi.s:27580  .debug_str:0000000000019cf9 .LASF4517
C:\Users\CYMR90~1\AppData\Local\Temp\ccX1amHi.s:23155  .debug_str:0000000000008174 .LASF4518
C:\Users\CYMR90~1\AppData\Local\Temp\ccX1amHi.s:28300  .debug_str:000000000001cbbc .LASF4519
C:\Users\CYMR90~1\AppData\Local\Temp\ccX1amHi.s:27890  .debug_str:000000000001b1f1 .LASF4520
C:\Users\CYMR90~1\AppData\Local\Temp\ccX1amHi.s:29816  .debug_str:00000000000229a6 .LASF4521
C:\Users\CYMR90~1\AppData\Local\Temp\ccX1amHi.s:30728  .debug_str:000000000002648f .LASF4522
C:\Users\CYMR90~1\AppData\Local\Temp\ccX1amHi.s:21615  .debug_str:0000000000001e0c .LASF4523
C:\Users\CYMR90~1\AppData\Local\Temp\ccX1amHi.s:26713  .debug_str:00000000000163ae .LASF4524
C:\Users\CYMR90~1\AppData\Local\Temp\ccX1amHi.s:21915  .debug_str:0000000000003019 .LASF4525
C:\Users\CYMR90~1\AppData\Local\Temp\ccX1amHi.s:29080  .debug_str:000000000001fd13 .LASF4526
C:\Users\CYMR90~1\AppData\Local\Temp\ccX1amHi.s:28786  .debug_str:000000000001eb71 .LASF4527
C:\Users\CYMR90~1\AppData\Local\Temp\ccX1amHi.s:21413  .debug_str:0000000000001198 .LASF4528
C:\Users\CYMR90~1\AppData\Local\Temp\ccX1amHi.s:30458  .debug_str:000000000002520d .LASF4529
C:\Users\CYMR90~1\AppData\Local\Temp\ccX1amHi.s:23265  .debug_str:0000000000008865 .LASF4530
C:\Users\CYMR90~1\AppData\Local\Temp\ccX1amHi.s:28404  .debug_str:000000000001d381 .LASF4531
C:\Users\CYMR90~1\AppData\Local\Temp\ccX1amHi.s:28422  .debug_str:000000000001d478 .LASF4532
C:\Users\CYMR90~1\AppData\Local\Temp\ccX1amHi.s:29390  .debug_str:000000000002102a .LASF4533
C:\Users\CYMR90~1\AppData\Local\Temp\ccX1amHi.s:27826  .debug_str:000000000001adbd .LASF4534
C:\Users\CYMR90~1\AppData\Local\Temp\ccX1amHi.s:22571  .debug_str:0000000000005b19 .LASF4535
C:\Users\CYMR90~1\AppData\Local\Temp\ccX1amHi.s:31178  .debug_str:00000000000281f9 .LASF4536
C:\Users\CYMR90~1\AppData\Local\Temp\ccX1amHi.s:30100  .debug_str:0000000000023ac0 .LASF4537
C:\Users\CYMR90~1\AppData\Local\Temp\ccX1amHi.s:26425  .debug_str:00000000000151df .LASF4538
C:\Users\CYMR90~1\AppData\Local\Temp\ccX1amHi.s:32370  .debug_str:000000000002ce41 .LASF4539
C:\Users\CYMR90~1\AppData\Local\Temp\ccX1amHi.s:21879  .debug_str:0000000000002dc9 .LASF4540
C:\Users\CYMR90~1\AppData\Local\Temp\ccX1amHi.s:21165  .debug_str:000000000000021e .LASF4541
C:\Users\CYMR90~1\AppData\Local\Temp\ccX1amHi.s:27534  .debug_str:0000000000019a08 .LASF4542
C:\Users\CYMR90~1\AppData\Local\Temp\ccX1amHi.s:25317  .debug_str:0000000000010ad1 .LASF4543
C:\Users\CYMR90~1\AppData\Local\Temp\ccX1amHi.s:22189  .debug_str:000000000000426c .LASF4544
C:\Users\CYMR90~1\AppData\Local\Temp\ccX1amHi.s:24231  .debug_str:000000000000c5de .LASF4545
C:\Users\CYMR90~1\AppData\Local\Temp\ccX1amHi.s:30786  .debug_str:000000000002687c .LASF4546
C:\Users\CYMR90~1\AppData\Local\Temp\ccX1amHi.s:21189  .debug_str:00000000000003a3 .LASF4547
C:\Users\CYMR90~1\AppData\Local\Temp\ccX1amHi.s:31304  .debug_str:0000000000028af4 .LASF4548
C:\Users\CYMR90~1\AppData\Local\Temp\ccX1amHi.s:31442  .debug_str:000000000002937d .LASF4549
C:\Users\CYMR90~1\AppData\Local\Temp\ccX1amHi.s:22221  .debug_str:000000000000449c .LASF4550
C:\Users\CYMR90~1\AppData\Local\Temp\ccX1amHi.s:23889  .debug_str:000000000000af67 .LASF4551
C:\Users\CYMR90~1\AppData\Local\Temp\ccX1amHi.s:21207  .debug_str:000000000000049f .LASF4552
C:\Users\CYMR90~1\AppData\Local\Temp\ccX1amHi.s:28764  .debug_str:000000000001ea21 .LASF4553
C:\Users\CYMR90~1\AppData\Local\Temp\ccX1amHi.s:26894  .debug_str:000000000001718c .LASF4554
C:\Users\CYMR90~1\AppData\Local\Temp\ccX1amHi.s:21751  .debug_str:00000000000025b2 .LASF4555
C:\Users\CYMR90~1\AppData\Local\Temp\ccX1amHi.s:30888  .debug_str:0000000000026eab .LASF4556
C:\Users\CYMR90~1\AppData\Local\Temp\ccX1amHi.s:32224  .debug_str:000000000002c466 .LASF4557
C:\Users\CYMR90~1\AppData\Local\Temp\ccX1amHi.s:29212  .debug_str:00000000000204d5 .LASF4558
C:\Users\CYMR90~1\AppData\Local\Temp\ccX1amHi.s:24227  .debug_str:000000000000c594 .LASF4559
C:\Users\CYMR90~1\AppData\Local\Temp\ccX1amHi.s:29824  .debug_str:0000000000022a15 .LASF4560
C:\Users\CYMR90~1\AppData\Local\Temp\ccX1amHi.s:24127  .debug_str:000000000000bf92 .LASF4561
C:\Users\CYMR90~1\AppData\Local\Temp\ccX1amHi.s:29814  .debug_str:0000000000022988 .LASF4562
C:\Users\CYMR90~1\AppData\Local\Temp\ccX1amHi.s:27130  .debug_str:0000000000017ff5 .LASF4563
C:\Users\CYMR90~1\AppData\Local\Temp\ccX1amHi.s:24105  .debug_str:000000000000be2f .LASF4564
C:\Users\CYMR90~1\AppData\Local\Temp\ccX1amHi.s:25441  .debug_str:0000000000011225 .LASF4565
C:\Users\CYMR90~1\AppData\Local\Temp\ccX1amHi.s:24609  .debug_str:000000000000de67 .LASF4566
C:\Users\CYMR90~1\AppData\Local\Temp\ccX1amHi.s:22273  .debug_str:00000000000048b2 .LASF4567
C:\Users\CYMR90~1\AppData\Local\Temp\ccX1amHi.s:23559  .debug_str:0000000000009af6 .LASF4568
C:\Users\CYMR90~1\AppData\Local\Temp\ccX1amHi.s:26089  .debug_str:0000000000013ccc .LASF4569
C:\Users\CYMR90~1\AppData\Local\Temp\ccX1amHi.s:22093  .debug_str:0000000000003bc8 .LASF4570
C:\Users\CYMR90~1\AppData\Local\Temp\ccX1amHi.s:22857  .debug_str:0000000000006c7d .LASF4571
C:\Users\CYMR90~1\AppData\Local\Temp\ccX1amHi.s:21135  .debug_str:000000000000002e .LASF4572
C:\Users\CYMR90~1\AppData\Local\Temp\ccX1amHi.s:25423  .debug_str:0000000000011114 .LASF4573
C:\Users\CYMR90~1\AppData\Local\Temp\ccX1amHi.s:27784  .debug_str:000000000001ab2f .LASF4574
C:\Users\CYMR90~1\AppData\Local\Temp\ccX1amHi.s:26841  .debug_str:0000000000016c95 .LASF4575
C:\Users\CYMR90~1\AppData\Local\Temp\ccX1amHi.s:32164  .debug_str:000000000002c065 .LASF4576
C:\Users\CYMR90~1\AppData\Local\Temp\ccX1amHi.s:30320  .debug_str:0000000000024944 .LASF4577
C:\Users\CYMR90~1\AppData\Local\Temp\ccX1amHi.s:24713  .debug_str:000000000000e4b5 .LASF4578
C:\Users\CYMR90~1\AppData\Local\Temp\ccX1amHi.s:28888  .debug_str:000000000001f14a .LASF4579
C:\Users\CYMR90~1\AppData\Local\Temp\ccX1amHi.s:26355  .debug_str:0000000000014d2a .LASF4580
C:\Users\CYMR90~1\AppData\Local\Temp\ccX1amHi.s:23627  .debug_str:0000000000009f2d .LASF4581
C:\Users\CYMR90~1\AppData\Local\Temp\ccX1amHi.s:24661  .debug_str:000000000000e198 .LASF4582
C:\Users\CYMR90~1\AppData\Local\Temp\ccX1amHi.s:25945  .debug_str:000000000001335b .LASF4583
C:\Users\CYMR90~1\AppData\Local\Temp\ccX1amHi.s:21745  .debug_str:000000000000251c .LASF4584
C:\Users\CYMR90~1\AppData\Local\Temp\ccX1amHi.s:28868  .debug_str:000000000001f003 .LASF4585
C:\Users\CYMR90~1\AppData\Local\Temp\ccX1amHi.s:23735  .debug_str:000000000000a5cd .LASF4586
C:\Users\CYMR90~1\AppData\Local\Temp\ccX1amHi.s:21261  .debug_str:00000000000007d4 .LASF4587
C:\Users\CYMR90~1\AppData\Local\Temp\ccX1amHi.s:27800  .debug_str:000000000001ac2e .LASF4588
C:\Users\CYMR90~1\AppData\Local\Temp\ccX1amHi.s:31098  .debug_str:0000000000027c48 .LASF4589
C:\Users\CYMR90~1\AppData\Local\Temp\ccX1amHi.s:26501  .debug_str:0000000000015617 .LASF4590
C:\Users\CYMR90~1\AppData\Local\Temp\ccX1amHi.s:27458  .debug_str:00000000000194b0 .LASF4591
C:\Users\CYMR90~1\AppData\Local\Temp\ccX1amHi.s:24119  .debug_str:000000000000bf0a .LASF4592
C:\Users\CYMR90~1\AppData\Local\Temp\ccX1amHi.s:27512  .debug_str:000000000001983d .LASF4593
C:\Users\CYMR90~1\AppData\Local\Temp\ccX1amHi.s:29448  .debug_str:0000000000021367 .LASF4594
C:\Users\CYMR90~1\AppData\Local\Temp\ccX1amHi.s:27536  .debug_str:0000000000019a43 .LASF4595
C:\Users\CYMR90~1\AppData\Local\Temp\ccX1amHi.s:22171  .debug_str:000000000000416d .LASF4596
C:\Users\CYMR90~1\AppData\Local\Temp\ccX1amHi.s:23785  .debug_str:000000000000a892 .LASF4597
C:\Users\CYMR90~1\AppData\Local\Temp\ccX1amHi.s:26539  .debug_str:0000000000015842 .LASF4598
C:\Users\CYMR90~1\AppData\Local\Temp\ccX1amHi.s:29282  .debug_str:000000000002097c .LASF4599
C:\Users\CYMR90~1\AppData\Local\Temp\ccX1amHi.s:28882  .debug_str:000000000001f0e1 .LASF4600
C:\Users\CYMR90~1\AppData\Local\Temp\ccX1amHi.s:24607  .debug_str:000000000000de2b .LASF4601
C:\Users\CYMR90~1\AppData\Local\Temp\ccX1amHi.s:27908  .debug_str:000000000001b350 .LASF4602
C:\Users\CYMR90~1\AppData\Local\Temp\ccX1amHi.s:31740  .debug_str:000000000002a4e8 .LASF4603
C:\Users\CYMR90~1\AppData\Local\Temp\ccX1amHi.s:25339  .debug_str:0000000000010bf2 .LASF4604
C:\Users\CYMR90~1\AppData\Local\Temp\ccX1amHi.s:26057  .debug_str:0000000000013aaf .LASF4605
C:\Users\CYMR90~1\AppData\Local\Temp\ccX1amHi.s:29718  .debug_str:0000000000022451 .LASF4606
C:\Users\CYMR90~1\AppData\Local\Temp\ccX1amHi.s:31842  .debug_str:000000000002ab0f .LASF4607
C:\Users\CYMR90~1\AppData\Local\Temp\ccX1amHi.s:25119  .debug_str:000000000000fe0d .LASF4608
C:\Users\CYMR90~1\AppData\Local\Temp\ccX1amHi.s:29778  .debug_str:000000000002277c .LASF4609
C:\Users\CYMR90~1\AppData\Local\Temp\ccX1amHi.s:32076  .debug_str:000000000002ba34 .LASF4610
C:\Users\CYMR90~1\AppData\Local\Temp\ccX1amHi.s:30272  .debug_str:00000000000245eb .LASF4611
C:\Users\CYMR90~1\AppData\Local\Temp\ccX1amHi.s:26781  .debug_str:0000000000016807 .LASF4612
C:\Users\CYMR90~1\AppData\Local\Temp\ccX1amHi.s:28048  .debug_str:000000000001bb8b .LASF4613
C:\Users\CYMR90~1\AppData\Local\Temp\ccX1amHi.s:27560  .debug_str:0000000000019bbc .LASF4614
C:\Users\CYMR90~1\AppData\Local\Temp\ccX1amHi.s:25259  .debug_str:00000000000106b6 .LASF4615
C:\Users\CYMR90~1\AppData\Local\Temp\ccX1amHi.s:25699  .debug_str:0000000000012307 .LASF4616
C:\Users\CYMR90~1\AppData\Local\Temp\ccX1amHi.s:21971  .debug_str:00000000000033b9 .LASF4617
C:\Users\CYMR90~1\AppData\Local\Temp\ccX1amHi.s:22845  .debug_str:0000000000006bd6 .LASF4618
C:\Users\CYMR90~1\AppData\Local\Temp\ccX1amHi.s:25755  .debug_str:00000000000126fe .LASF4619
C:\Users\CYMR90~1\AppData\Local\Temp\ccX1amHi.s:31882  .debug_str:000000000002ad7d .LASF4620
C:\Users\CYMR90~1\AppData\Local\Temp\ccX1amHi.s:24731  .debug_str:000000000000e5da .LASF4621
C:\Users\CYMR90~1\AppData\Local\Temp\ccX1amHi.s:27658  .debug_str:000000000001a18d .LASF4622
C:\Users\CYMR90~1\AppData\Local\Temp\ccX1amHi.s:21347  .debug_str:0000000000000d49 .LASF4623
C:\Users\CYMR90~1\AppData\Local\Temp\ccX1amHi.s:31102  .debug_str:0000000000027c95 .LASF4624
C:\Users\CYMR90~1\AppData\Local\Temp\ccX1amHi.s:32330  .debug_str:000000000002cb5d .LASF4625
C:\Users\CYMR90~1\AppData\Local\Temp\ccX1amHi.s:24505  .debug_str:000000000000d874 .LASF4626
C:\Users\CYMR90~1\AppData\Local\Temp\ccX1amHi.s:27182  .debug_str:00000000000182fd .LASF4627
C:\Users\CYMR90~1\AppData\Local\Temp\ccX1amHi.s:21491  .debug_str:00000000000015fe .LASF4628
C:\Users\CYMR90~1\AppData\Local\Temp\ccX1amHi.s:22205  .debug_str:0000000000004389 .LASF4629
C:\Users\CYMR90~1\AppData\Local\Temp\ccX1amHi.s:26649  .debug_str:0000000000015f92 .LASF4630
C:\Users\CYMR90~1\AppData\Local\Temp\ccX1amHi.s:31808  .debug_str:000000000002a938 .LASF4631
C:\Users\CYMR90~1\AppData\Local\Temp\ccX1amHi.s:30758  .debug_str:0000000000026685 .LASF4632
C:\Users\CYMR90~1\AppData\Local\Temp\ccX1amHi.s:31810  .debug_str:000000000002a956 .LASF4633
C:\Users\CYMR90~1\AppData\Local\Temp\ccX1amHi.s:28206  .debug_str:000000000001c561 .LASF4634
C:\Users\CYMR90~1\AppData\Local\Temp\ccX1amHi.s:21441  .debug_str:00000000000012ff .LASF4635
C:\Users\CYMR90~1\AppData\Local\Temp\ccX1amHi.s:30532  .debug_str:00000000000257e1 .LASF4636
C:\Users\CYMR90~1\AppData\Local\Temp\ccX1amHi.s:28110  .debug_str:000000000001bf8f .LASF4637
C:\Users\CYMR90~1\AppData\Local\Temp\ccX1amHi.s:22609  .debug_str:0000000000005d4d .LASF4638
C:\Users\CYMR90~1\AppData\Local\Temp\ccX1amHi.s:24737  .debug_str:000000000000e628 .LASF4639
C:\Users\CYMR90~1\AppData\Local\Temp\ccX1amHi.s:29222  .debug_str:00000000000205ac .LASF4640
C:\Users\CYMR90~1\AppData\Local\Temp\ccX1amHi.s:25879  .debug_str:0000000000012f24 .LASF4641
C:\Users\CYMR90~1\AppData\Local\Temp\ccX1amHi.s:30900  .debug_str:0000000000026f8f .LASF4642
C:\Users\CYMR90~1\AppData\Local\Temp\ccX1amHi.s:26411  .debug_str:000000000001510a .LASF4643
C:\Users\CYMR90~1\AppData\Local\Temp\ccX1amHi.s:31876  .debug_str:000000000002ad02 .LASF4644
C:\Users\CYMR90~1\AppData\Local\Temp\ccX1amHi.s:25247  .debug_str:000000000001060c .LASF4645
C:\Users\CYMR90~1\AppData\Local\Temp\ccX1amHi.s:29092  .debug_str:000000000001fdd9 .LASF4646
C:\Users\CYMR90~1\AppData\Local\Temp\ccX1amHi.s:24833  .debug_str:000000000000ec90 .LASF4647
C:\Users\CYMR90~1\AppData\Local\Temp\ccX1amHi.s:22519  .debug_str:00000000000057c9 .LASF4648
C:\Users\CYMR90~1\AppData\Local\Temp\ccX1amHi.s:31650  .debug_str:0000000000029fab .LASF4649
C:\Users\CYMR90~1\AppData\Local\Temp\ccX1amHi.s:29402  .debug_str:00000000000210cc .LASF4650
C:\Users\CYMR90~1\AppData\Local\Temp\ccX1amHi.s:32160  .debug_str:000000000002c030 .LASF4651
C:\Users\CYMR90~1\AppData\Local\Temp\ccX1amHi.s:25037  .debug_str:000000000000f92d .LASF4652
C:\Users\CYMR90~1\AppData\Local\Temp\ccX1amHi.s:23447  .debug_str:000000000000938e .LASF4653
C:\Users\CYMR90~1\AppData\Local\Temp\ccX1amHi.s:31840  .debug_str:000000000002aaed .LASF4654
C:\Users\CYMR90~1\AppData\Local\Temp\ccX1amHi.s:29494  .debug_str:00000000000216cb .LASF4655
C:\Users\CYMR90~1\AppData\Local\Temp\ccX1amHi.s:31302  .debug_str:0000000000028ad0 .LASF4656
C:\Users\CYMR90~1\AppData\Local\Temp\ccX1amHi.s:22835  .debug_str:0000000000006b38 .LASF4657
C:\Users\CYMR90~1\AppData\Local\Temp\ccX1amHi.s:29638  .debug_str:0000000000021f7f .LASF4658
C:\Users\CYMR90~1\AppData\Local\Temp\ccX1amHi.s:31472  .debug_str:0000000000029516 .LASF4659
C:\Users\CYMR90~1\AppData\Local\Temp\ccX1amHi.s:31202  .debug_str:00000000000283fe .LASF4660
C:\Users\CYMR90~1\AppData\Local\Temp\ccX1amHi.s:30496  .debug_str:000000000002554d .LASF4661
C:\Users\CYMR90~1\AppData\Local\Temp\ccX1amHi.s:27632  .debug_str:000000000001a01a .LASF4662
C:\Users\CYMR90~1\AppData\Local\Temp\ccX1amHi.s:23621  .debug_str:0000000000009ed5 .LASF4663
C:\Users\CYMR90~1\AppData\Local\Temp\ccX1amHi.s:25039  .debug_str:000000000000f94f .LASF4664
C:\Users\CYMR90~1\AppData\Local\Temp\ccX1amHi.s:26635  .debug_str:0000000000015e8d .LASF4665
C:\Users\CYMR90~1\AppData\Local\Temp\ccX1amHi.s:23771  .debug_str:000000000000a7d1 .LASF4666
C:\Users\CYMR90~1\AppData\Local\Temp\ccX1amHi.s:28730  .debug_str:000000000001e7e7 .LASF4667
C:\Users\CYMR90~1\AppData\Local\Temp\ccX1amHi.s:26962  .debug_str:000000000001757e .LASF4668
C:\Users\CYMR90~1\AppData\Local\Temp\ccX1amHi.s:24429  .debug_str:000000000000d372 .LASF4669
C:\Users\CYMR90~1\AppData\Local\Temp\ccX1amHi.s:32212  .debug_str:000000000002c352 .LASF4670
C:\Users\CYMR90~1\AppData\Local\Temp\ccX1amHi.s:26799  .debug_str:000000000001690f .LASF4671
C:\Users\CYMR90~1\AppData\Local\Temp\ccX1amHi.s:31870  .debug_str:000000000002aca2 .LASF4672
C:\Users\CYMR90~1\AppData\Local\Temp\ccX1amHi.s:21907  .debug_str:0000000000002f9b .LASF4673
C:\Users\CYMR90~1\AppData\Local\Temp\ccX1amHi.s:30248  .debug_str:0000000000024480 .LASF4674
C:\Users\CYMR90~1\AppData\Local\Temp\ccX1amHi.s:26809  .debug_str:0000000000016a15 .LASF4675
C:\Users\CYMR90~1\AppData\Local\Temp\ccX1amHi.s:23335  .debug_str:0000000000008cbc .LASF4676
C:\Users\CYMR90~1\AppData\Local\Temp\ccX1amHi.s:30978  .debug_str:00000000000274f1 .LASF4677
C:\Users\CYMR90~1\AppData\Local\Temp\ccX1amHi.s:29926  .debug_str:000000000002307b .LASF4678
C:\Users\CYMR90~1\AppData\Local\Temp\ccX1amHi.s:21681  .debug_str:000000000000218d .LASF4679
C:\Users\CYMR90~1\AppData\Local\Temp\ccX1amHi.s:22795  .debug_str:00000000000068c8 .LASF4680
C:\Users\CYMR90~1\AppData\Local\Temp\ccX1amHi.s:28542  .debug_str:000000000001dc07 .LASF4681
C:\Users\CYMR90~1\AppData\Local\Temp\ccX1amHi.s:28660  .debug_str:000000000001e3cd .LASF4682
C:\Users\CYMR90~1\AppData\Local\Temp\ccX1amHi.s:23161  .debug_str:00000000000081cb .LASF4683
C:\Users\CYMR90~1\AppData\Local\Temp\ccX1amHi.s:31036  .debug_str:000000000002782c .LASF4684
C:\Users\CYMR90~1\AppData\Local\Temp\ccX1amHi.s:24897  .debug_str:000000000000f015 .LASF4685
C:\Users\CYMR90~1\AppData\Local\Temp\ccX1amHi.s:28338  .debug_str:000000000001ce44 .LASF4686
C:\Users\CYMR90~1\AppData\Local\Temp\ccX1amHi.s:28472  .debug_str:000000000001d77a .LASF4687
C:\Users\CYMR90~1\AppData\Local\Temp\ccX1amHi.s:29672  .debug_str:0000000000022177 .LASF4688
C:\Users\CYMR90~1\AppData\Local\Temp\ccX1amHi.s:25065  .debug_str:000000000000faa5 .LASF4689
C:\Users\CYMR90~1\AppData\Local\Temp\ccX1amHi.s:31628  .debug_str:0000000000029e80 .LASF4690
C:\Users\CYMR90~1\AppData\Local\Temp\ccX1amHi.s:24875  .debug_str:000000000000eece .LASF4691
C:\Users\CYMR90~1\AppData\Local\Temp\ccX1amHi.s:28258  .debug_str:000000000001c888 .LASF4692
C:\Users\CYMR90~1\AppData\Local\Temp\ccX1amHi.s:23951  .debug_str:000000000000b3a8 .LASF4693
C:\Users\CYMR90~1\AppData\Local\Temp\ccX1amHi.s:27110  .debug_str:0000000000017e92 .LASF4694
C:\Users\CYMR90~1\AppData\Local\Temp\ccX1amHi.s:23811  .debug_str:000000000000aa60 .LASF4695
C:\Users\CYMR90~1\AppData\Local\Temp\ccX1amHi.s:21749  .debug_str:0000000000002590 .LASF4696
C:\Users\CYMR90~1\AppData\Local\Temp\ccX1amHi.s:29908  .debug_str:0000000000022f79 .LASF4697
C:\Users\CYMR90~1\AppData\Local\Temp\ccX1amHi.s:21479  .debug_str:0000000000001521 .LASF4698
C:\Users\CYMR90~1\AppData\Local\Temp\ccX1amHi.s:21315  .debug_str:0000000000000b89 .LASF4699
C:\Users\CYMR90~1\AppData\Local\Temp\ccX1amHi.s:22373  .debug_str:0000000000004ee5 .LASF4700
C:\Users\CYMR90~1\AppData\Local\Temp\ccX1amHi.s:23021  .debug_str:0000000000007773 .LASF4701
C:\Users\CYMR90~1\AppData\Local\Temp\ccX1amHi.s:30712  .debug_str:00000000000263ac .LASF4702
C:\Users\CYMR90~1\AppData\Local\Temp\ccX1amHi.s:21667  .debug_str:00000000000020c9 .LASF4703
C:\Users\CYMR90~1\AppData\Local\Temp\ccX1amHi.s:29464  .debug_str:0000000000021464 .LASF4704
C:\Users\CYMR90~1\AppData\Local\Temp\ccX1amHi.s:24029  .debug_str:000000000000b8e8 .LASF4705
C:\Users\CYMR90~1\AppData\Local\Temp\ccX1amHi.s:30154  .debug_str:0000000000023dba .LASF4706
C:\Users\CYMR90~1\AppData\Local\Temp\ccX1amHi.s:23377  .debug_str:0000000000008f8d .LASF4707
C:\Users\CYMR90~1\AppData\Local\Temp\ccX1amHi.s:29078  .debug_str:000000000001fcfd .LASF4708
C:\Users\CYMR90~1\AppData\Local\Temp\ccX1amHi.s:29696  .debug_str:0000000000022308 .LASF4709
C:\Users\CYMR90~1\AppData\Local\Temp\ccX1amHi.s:27250  .debug_str:00000000000186e6 .LASF4710
C:\Users\CYMR90~1\AppData\Local\Temp\ccX1amHi.s:29782  .debug_str:00000000000227d5 .LASF4711
C:\Users\CYMR90~1\AppData\Local\Temp\ccX1amHi.s:26729  .debug_str:00000000000164b4 .LASF4712
C:\Users\CYMR90~1\AppData\Local\Temp\ccX1amHi.s:26631  .debug_str:0000000000015e54 .LASF4713
C:\Users\CYMR90~1\AppData\Local\Temp\ccX1amHi.s:26211  .debug_str:0000000000014424 .LASF4714
C:\Users\CYMR90~1\AppData\Local\Temp\ccX1amHi.s:28800  .debug_str:000000000001ec44 .LASF4715
C:\Users\CYMR90~1\AppData\Local\Temp\ccX1amHi.s:25463  .debug_str:0000000000011375 .LASF4716
C:\Users\CYMR90~1\AppData\Local\Temp\ccX1amHi.s:28512  .debug_str:000000000001da63 .LASF4717
C:\Users\CYMR90~1\AppData\Local\Temp\ccX1amHi.s:32386  .debug_str:000000000002cf63 .LASF4718
C:\Users\CYMR90~1\AppData\Local\Temp\ccX1amHi.s:24723  .debug_str:000000000000e558 .LASF4719
C:\Users\CYMR90~1\AppData\Local\Temp\ccX1amHi.s:27210  .debug_str:000000000001849c .LASF4720
C:\Users\CYMR90~1\AppData\Local\Temp\ccX1amHi.s:21531  .debug_str:0000000000001926 .LASF4721
C:\Users\CYMR90~1\AppData\Local\Temp\ccX1amHi.s:22157  .debug_str:000000000000400e .LASF4722
C:\Users\CYMR90~1\AppData\Local\Temp\ccX1amHi.s:22161  .debug_str:00000000000040de .LASF4723
C:\Users\CYMR90~1\AppData\Local\Temp\ccX1amHi.s:25369  .debug_str:0000000000010e50 .LASF4724
C:\Users\CYMR90~1\AppData\Local\Temp\ccX1amHi.s:30174  .debug_str:0000000000023edb .LASF4725
C:\Users\CYMR90~1\AppData\Local\Temp\ccX1amHi.s:24055  .debug_str:000000000000bac4 .LASF4726
C:\Users\CYMR90~1\AppData\Local\Temp\ccX1amHi.s:23767  .debug_str:000000000000a793 .LASF4727
C:\Users\CYMR90~1\AppData\Local\Temp\ccX1amHi.s:29338  .debug_str:0000000000020d13 .LASF4728
C:\Users\CYMR90~1\AppData\Local\Temp\ccX1amHi.s:30058  .debug_str:0000000000023817 .LASF4729
C:\Users\CYMR90~1\AppData\Local\Temp\ccX1amHi.s:30590  .debug_str:0000000000025c2c .LASF4730
C:\Users\CYMR90~1\AppData\Local\Temp\ccX1amHi.s:30232  .debug_str:0000000000024351 .LASF4731
C:\Users\CYMR90~1\AppData\Local\Temp\ccX1amHi.s:25199  .debug_str:0000000000010332 .LASF4732
C:\Users\CYMR90~1\AppData\Local\Temp\ccX1amHi.s:26507  .debug_str:000000000001566f .LASF4733
C:\Users\CYMR90~1\AppData\Local\Temp\ccX1amHi.s:32010  .debug_str:000000000002b5d6 .LASF4734
C:\Users\CYMR90~1\AppData\Local\Temp\ccX1amHi.s:30278  .debug_str:0000000000024663 .LASF4735
C:\Users\CYMR90~1\AppData\Local\Temp\ccX1amHi.s:27502  .debug_str:000000000001976f .LASF4736
C:\Users\CYMR90~1\AppData\Local\Temp\ccX1amHi.s:28536  .debug_str:000000000001dbb3 .LASF4737
C:\Users\CYMR90~1\AppData\Local\Temp\ccX1amHi.s:26717  .debug_str:00000000000163fa .LASF4738
C:\Users\CYMR90~1\AppData\Local\Temp\ccX1amHi.s:23389  .debug_str:0000000000009047 .LASF4739
C:\Users\CYMR90~1\AppData\Local\Temp\ccX1amHi.s:27506  .debug_str:00000000000197b7 .LASF4740
C:\Users\CYMR90~1\AppData\Local\Temp\ccX1amHi.s:27300  .debug_str:0000000000018a0b .LASF4741
C:\Users\CYMR90~1\AppData\Local\Temp\ccX1amHi.s:26970  .debug_str:00000000000175da .LASF4742
C:\Users\CYMR90~1\AppData\Local\Temp\ccX1amHi.s:26743  .debug_str:000000000001655f .LASF4743
C:\Users\CYMR90~1\AppData\Local\Temp\ccX1amHi.s:22107  .debug_str:0000000000003cd7 .LASF4744
C:\Users\CYMR90~1\AppData\Local\Temp\ccX1amHi.s:31000  .debug_str:000000000002762b .LASF4745
C:\Users\CYMR90~1\AppData\Local\Temp\ccX1amHi.s:24695  .debug_str:000000000000e3b5 .LASF4746
C:\Users\CYMR90~1\AppData\Local\Temp\ccX1amHi.s:22149  .debug_str:0000000000003f8b .LASF4747
C:\Users\CYMR90~1\AppData\Local\Temp\ccX1amHi.s:26345  .debug_str:0000000000014c7c .LASF4748
C:\Users\CYMR90~1\AppData\Local\Temp\ccX1amHi.s:24689  .debug_str:000000000000e350 .LASF4749
C:\Users\CYMR90~1\AppData\Local\Temp\ccX1amHi.s:21691  .debug_str:0000000000002222 .LASF4750
C:\Users\CYMR90~1\AppData\Local\Temp\ccX1amHi.s:31848  .debug_str:000000000002ab73 .LASF4751
C:\Users\CYMR90~1\AppData\Local\Temp\ccX1amHi.s:23977  .debug_str:000000000000b4e3 .LASF4752
C:\Users\CYMR90~1\AppData\Local\Temp\ccX1amHi.s:21865  .debug_str:0000000000002d06 .LASF4753
C:\Users\CYMR90~1\AppData\Local\Temp\ccX1amHi.s:31088  .debug_str:0000000000027b9f .LASF4754
C:\Users\CYMR90~1\AppData\Local\Temp\ccX1amHi.s:31586  .debug_str:0000000000029bec .LASF4755
C:\Users\CYMR90~1\AppData\Local\Temp\ccX1amHi.s:24131  .debug_str:000000000000bff6 .LASF4756
C:\Users\CYMR90~1\AppData\Local\Temp\ccX1amHi.s:27660  .debug_str:000000000001a1a4 .LASF4757
C:\Users\CYMR90~1\AppData\Local\Temp\ccX1amHi.s:30536  .debug_str:000000000002582f .LASF4758
C:\Users\CYMR90~1\AppData\Local\Temp\ccX1amHi.s:26445  .debug_str:0000000000015337 .LASF4759
C:\Users\CYMR90~1\AppData\Local\Temp\ccX1amHi.s:32362  .debug_str:000000000002cd27 .LASF4760
C:\Users\CYMR90~1\AppData\Local\Temp\ccX1amHi.s:32128  .debug_str:000000000002bdb0 .LASF4761
C:\Users\CYMR90~1\AppData\Local\Temp\ccX1amHi.s:30008  .debug_str:00000000000234c9 .LASF4762
C:\Users\CYMR90~1\AppData\Local\Temp\ccX1amHi.s:28830  .debug_str:000000000001eddf .LASF4763
C:\Users\CYMR90~1\AppData\Local\Temp\ccX1amHi.s:25261  .debug_str:00000000000106f4 .LASF4764
C:\Users\CYMR90~1\AppData\Local\Temp\ccX1amHi.s:32254  .debug_str:000000000002c67c .LASF4765
C:\Users\CYMR90~1\AppData\Local\Temp\ccX1amHi.s:30408  .debug_str:0000000000024eb3 .LASF4766
C:\Users\CYMR90~1\AppData\Local\Temp\ccX1amHi.s:30316  .debug_str:0000000000024867 .LASF4767
C:\Users\CYMR90~1\AppData\Local\Temp\ccX1amHi.s:22891  .debug_str:0000000000006ec9 .LASF4768
C:\Users\CYMR90~1\AppData\Local\Temp\ccX1amHi.s:26769  .debug_str:0000000000016747 .LASF4769
C:\Users\CYMR90~1\AppData\Local\Temp\ccX1amHi.s:31066  .debug_str:00000000000279f7 .LASF4770
C:\Users\CYMR90~1\AppData\Local\Temp\ccX1amHi.s:28320  .debug_str:000000000001ccf2 .LASF4771
C:\Users\CYMR90~1\AppData\Local\Temp\ccX1amHi.s:30864  .debug_str:0000000000026cf7 .LASF4772
C:\Users\CYMR90~1\AppData\Local\Temp\ccX1amHi.s:27076  .debug_str:0000000000017ca7 .LASF4773
C:\Users\CYMR90~1\AppData\Local\Temp\ccX1amHi.s:21853  .debug_str:0000000000002c49 .LASF4774
C:\Users\CYMR90~1\AppData\Local\Temp\ccX1amHi.s:23181  .debug_str:0000000000008332 .LASF4775
C:\Users\CYMR90~1\AppData\Local\Temp\ccX1amHi.s:28306  .debug_str:000000000001cc0f .LASF4776
C:\Users\CYMR90~1\AppData\Local\Temp\ccX1amHi.s:23815  .debug_str:000000000000aaa7 .LASF4777
C:\Users\CYMR90~1\AppData\Local\Temp\ccX1amHi.s:22763  .debug_str:0000000000006681 .LASF4778
C:\Users\CYMR90~1\AppData\Local\Temp\ccX1amHi.s:26763  .debug_str:00000000000166fa .LASF4779
C:\Users\CYMR90~1\AppData\Local\Temp\ccX1amHi.s:27922  .debug_str:000000000001b436 .LASF4780
C:\Users\CYMR90~1\AppData\Local\Temp\ccX1amHi.s:22141  .debug_str:0000000000003f30 .LASF4781
C:\Users\CYMR90~1\AppData\Local\Temp\ccX1amHi.s:30610  .debug_str:0000000000025d66 .LASF4782
C:\Users\CYMR90~1\AppData\Local\Temp\ccX1amHi.s:24775  .debug_str:000000000000e8c8 .LASF4783
C:\Users\CYMR90~1\AppData\Local\Temp\ccX1amHi.s:28394  .debug_str:000000000001d2c7 .LASF4784
C:\Users\CYMR90~1\AppData\Local\Temp\ccX1amHi.s:26249  .debug_str:000000000001465b .LASF4785
C:\Users\CYMR90~1\AppData\Local\Temp\ccX1amHi.s:23915  .debug_str:000000000000b1a7 .LASF4786
C:\Users\CYMR90~1\AppData\Local\Temp\ccX1amHi.s:29358  .debug_str:0000000000020e4f .LASF4787
C:\Users\CYMR90~1\AppData\Local\Temp\ccX1amHi.s:30724  .debug_str:000000000002643f .LASF4788
C:\Users\CYMR90~1\AppData\Local\Temp\ccX1amHi.s:29046  .debug_str:000000000001faeb .LASF4789
C:\Users\CYMR90~1\AppData\Local\Temp\ccX1amHi.s:29640  .debug_str:0000000000021fa3 .LASF4790
C:\Users\CYMR90~1\AppData\Local\Temp\ccX1amHi.s:27892  .debug_str:000000000001b20a .LASF4791
C:\Users\CYMR90~1\AppData\Local\Temp\ccX1amHi.s:26948  .debug_str:0000000000017498 .LASF4792
C:\Users\CYMR90~1\AppData\Local\Temp\ccX1amHi.s:30672  .debug_str:0000000000026146 .LASF4793
C:\Users\CYMR90~1\AppData\Local\Temp\ccX1amHi.s:30158  .debug_str:0000000000023df2 .LASF4794
C:\Users\CYMR90~1\AppData\Local\Temp\ccX1amHi.s:23357  .debug_str:0000000000008de0 .LASF4795
C:\Users\CYMR90~1\AppData\Local\Temp\ccX1amHi.s:32416  .debug_str:000000000002d0fc .LASF4796
C:\Users\CYMR90~1\AppData\Local\Temp\ccX1amHi.s:22757  .debug_str:0000000000006622 .LASF4797
C:\Users\CYMR90~1\AppData\Local\Temp\ccX1amHi.s:23037  .debug_str:000000000000788b .LASF4798
C:\Users\CYMR90~1\AppData\Local\Temp\ccX1amHi.s:29882  .debug_str:0000000000022dfa .LASF4799
C:\Users\CYMR90~1\AppData\Local\Temp\ccX1amHi.s:29832  .debug_str:0000000000022aad .LASF4800
C:\Users\CYMR90~1\AppData\Local\Temp\ccX1amHi.s:29138  .debug_str:00000000000200a9 .LASF4801
C:\Users\CYMR90~1\AppData\Local\Temp\ccX1amHi.s:21299  .debug_str:0000000000000a2f .LASF4802
C:\Users\CYMR90~1\AppData\Local\Temp\ccX1amHi.s:26037  .debug_str:000000000001398b .LASF4803
C:\Users\CYMR90~1\AppData\Local\Temp\ccX1amHi.s:27160  .debug_str:0000000000018175 .LASF4804
C:\Users\CYMR90~1\AppData\Local\Temp\ccX1amHi.s:24761  .debug_str:000000000000e7e8 .LASF4805
C:\Users\CYMR90~1\AppData\Local\Temp\ccX1amHi.s:28366  .debug_str:000000000001d0ae .LASF4806
C:\Users\CYMR90~1\AppData\Local\Temp\ccX1amHi.s:26381  .debug_str:0000000000014f19 .LASF4807
C:\Users\CYMR90~1\AppData\Local\Temp\ccX1amHi.s:21675  .debug_str:0000000000002122 .LASF4808
C:\Users\CYMR90~1\AppData\Local\Temp\ccX1amHi.s:23135  .debug_str:0000000000007f96 .LASF4809
C:\Users\CYMR90~1\AppData\Local\Temp\ccX1amHi.s:24187  .debug_str:000000000000c323 .LASF4810
C:\Users\CYMR90~1\AppData\Local\Temp\ccX1amHi.s:26531  .debug_str:00000000000157db .LASF4811
C:\Users\CYMR90~1\AppData\Local\Temp\ccX1amHi.s:28058  .debug_str:000000000001bc14 .LASF4812
C:\Users\CYMR90~1\AppData\Local\Temp\ccX1amHi.s:22227  .debug_str:00000000000044f1 .LASF4813
C:\Users\CYMR90~1\AppData\Local\Temp\ccX1amHi.s:23259  .debug_str:000000000000881d .LASF4814
C:\Users\CYMR90~1\AppData\Local\Temp\ccX1amHi.s:28188  .debug_str:000000000001c456 .LASF4815
C:\Users\CYMR90~1\AppData\Local\Temp\ccX1amHi.s:28638  .debug_str:000000000001e269 .LASF4816
C:\Users\CYMR90~1\AppData\Local\Temp\ccX1amHi.s:30250  .debug_str:000000000002449c .LASF4817
C:\Users\CYMR90~1\AppData\Local\Temp\ccX1amHi.s:31756  .debug_str:000000000002a620 .LASF4818
C:\Users\CYMR90~1\AppData\Local\Temp\ccX1amHi.s:25107  .debug_str:000000000000fd3e .LASF4819
C:\Users\CYMR90~1\AppData\Local\Temp\ccX1amHi.s:29664  .debug_str:000000000002210b .LASF4820
C:\Users\CYMR90~1\AppData\Local\Temp\ccX1amHi.s:31194  .debug_str:000000000002837a .LASF4821
C:\Users\CYMR90~1\AppData\Local\Temp\ccX1amHi.s:30046  .debug_str:000000000002373c .LASF4822
C:\Users\CYMR90~1\AppData\Local\Temp\ccX1amHi.s:26403  .debug_str:000000000001508d .LASF4823
C:\Users\CYMR90~1\AppData\Local\Temp\ccX1amHi.s:31956  .debug_str:000000000002b1e8 .LASF4824
C:\Users\CYMR90~1\AppData\Local\Temp\ccX1amHi.s:23949  .debug_str:000000000000b37f .LASF4825
C:\Users\CYMR90~1\AppData\Local\Temp\ccX1amHi.s:31458  .debug_str:0000000000029443 .LASF4826
C:\Users\CYMR90~1\AppData\Local\Temp\ccX1amHi.s:26483  .debug_str:0000000000015539 .LASF4827
C:\Users\CYMR90~1\AppData\Local\Temp\ccX1amHi.s:29548  .debug_str:00000000000219fe .LASF4828
C:\Users\CYMR90~1\AppData\Local\Temp\ccX1amHi.s:31858  .debug_str:000000000002ac11 .LASF4829
C:\Users\CYMR90~1\AppData\Local\Temp\ccX1amHi.s:21271  .debug_str:000000000000086b .LASF4830
C:\Users\CYMR90~1\AppData\Local\Temp\ccX1amHi.s:21219  .debug_str:000000000000053a .LASF4831
C:\Users\CYMR90~1\AppData\Local\Temp\ccX1amHi.s:28844  .debug_str:000000000001eeb9 .LASF4832
C:\Users\CYMR90~1\AppData\Local\Temp\ccX1amHi.s:23687  .debug_str:000000000000a2d3 .LASF4833
C:\Users\CYMR90~1\AppData\Local\Temp\ccX1amHi.s:22493  .debug_str:0000000000005649 .LASF4834
C:\Users\CYMR90~1\AppData\Local\Temp\ccX1amHi.s:25035  .debug_str:000000000000f903 .LASF4835
C:\Users\CYMR90~1\AppData\Local\Temp\ccX1amHi.s:27294  .debug_str:0000000000018999 .LASF4836
C:\Users\CYMR90~1\AppData\Local\Temp\ccX1amHi.s:21767  .debug_str:00000000000026cc .LASF4837
C:\Users\CYMR90~1\AppData\Local\Temp\ccX1amHi.s:27540  .debug_str:0000000000019a96 .LASF4838
C:\Users\CYMR90~1\AppData\Local\Temp\ccX1amHi.s:28900  .debug_str:000000000001f22a .LASF4839
C:\Users\CYMR90~1\AppData\Local\Temp\ccX1amHi.s:21307  .debug_str:0000000000000af5 .LASF4840
C:\Users\CYMR90~1\AppData\Local\Temp\ccX1amHi.s:22739  .debug_str:000000000000652f .LASF4841
C:\Users\CYMR90~1\AppData\Local\Temp\ccX1amHi.s:25793  .debug_str:000000000001296c .LASF4842
C:\Users\CYMR90~1\AppData\Local\Temp\ccX1amHi.s:28170  .debug_str:000000000001c36e .LASF4843
C:\Users\CYMR90~1\AppData\Local\Temp\ccX1amHi.s:28382  .debug_str:000000000001d21d .LASF4844
C:\Users\CYMR90~1\AppData\Local\Temp\ccX1amHi.s:31906  .debug_str:000000000002af07 .LASF4845
C:\Users\CYMR90~1\AppData\Local\Temp\ccX1amHi.s:26071  .debug_str:0000000000013b9c .LASF4846
C:\Users\CYMR90~1\AppData\Local\Temp\ccX1amHi.s:27128  .debug_str:0000000000017fd2 .LASF4847
C:\Users\CYMR90~1\AppData\Local\Temp\ccX1amHi.s:26135  .debug_str:0000000000013f6f .LASF4848
C:\Users\CYMR90~1\AppData\Local\Temp\ccX1amHi.s:28790  .debug_str:000000000001ebc2 .LASF4849
C:\Users\CYMR90~1\AppData\Local\Temp\ccX1amHi.s:29340  .debug_str:0000000000020d29 .LASF4850
C:\Users\CYMR90~1\AppData\Local\Temp\ccX1amHi.s:29346  .debug_str:0000000000020d87 .LASF4851
C:\Users\CYMR90~1\AppData\Local\Temp\ccX1amHi.s:21887  .debug_str:0000000000002e45 .LASF4852
C:\Users\CYMR90~1\AppData\Local\Temp\ccX1amHi.s:25207  .debug_str:00000000000103a7 .LASF4853
C:\Users\CYMR90~1\AppData\Local\Temp\ccX1amHi.s:31654  .debug_str:0000000000029fe8 .LASF4854
C:\Users\CYMR90~1\AppData\Local\Temp\ccX1amHi.s:23291  .debug_str:0000000000008a06 .LASF4855
C:\Users\CYMR90~1\AppData\Local\Temp\ccX1amHi.s:25073  .debug_str:000000000000fb1f .LASF4856
C:\Users\CYMR90~1\AppData\Local\Temp\ccX1amHi.s:21827  .debug_str:0000000000002aa6 .LASF4857
C:\Users\CYMR90~1\AppData\Local\Temp\ccX1amHi.s:25097  .debug_str:000000000000fcb3 .LASF4858
C:\Users\CYMR90~1\AppData\Local\Temp\ccX1amHi.s:26924  .debug_str:000000000001733f .LASF4859
C:\Users\CYMR90~1\AppData\Local\Temp\ccX1amHi.s:24547  .debug_str:000000000000dae7 .LASF4860
C:\Users\CYMR90~1\AppData\Local\Temp\ccX1amHi.s:27006  .debug_str:0000000000017823 .LASF4861
C:\Users\CYMR90~1\AppData\Local\Temp\ccX1amHi.s:26557  .debug_str:0000000000015983 .LASF4862
C:\Users\CYMR90~1\AppData\Local\Temp\ccX1amHi.s:26397  .debug_str:000000000001502f .LASF4863
C:\Users\CYMR90~1\AppData\Local\Temp\ccX1amHi.s:23315  .debug_str:0000000000008b7f .LASF4864
C:\Users\CYMR90~1\AppData\Local\Temp\ccX1amHi.s:22703  .debug_str:00000000000062f5 .LASF4865
C:\Users\CYMR90~1\AppData\Local\Temp\ccX1amHi.s:31904  .debug_str:000000000002aee2 .LASF4866
C:\Users\CYMR90~1\AppData\Local\Temp\ccX1amHi.s:30208  .debug_str:0000000000024183 .LASF4867
C:\Users\CYMR90~1\AppData\Local\Temp\ccX1amHi.s:31890  .debug_str:000000000002ae17 .LASF4868
C:\Users\CYMR90~1\AppData\Local\Temp\ccX1amHi.s:27192  .debug_str:000000000001837f .LASF4869
C:\Users\CYMR90~1\AppData\Local\Temp\ccX1amHi.s:31384  .debug_str:0000000000028fc6 .LASF4870
C:\Users\CYMR90~1\AppData\Local\Temp\ccX1amHi.s:31064  .debug_str:00000000000279d5 .LASF4871
C:\Users\CYMR90~1\AppData\Local\Temp\ccX1amHi.s:23545  .debug_str:0000000000009a08 .LASF4872
C:\Users\CYMR90~1\AppData\Local\Temp\ccX1amHi.s:30812  .debug_str:00000000000269eb .LASF4873
C:\Users\CYMR90~1\AppData\Local\Temp\ccX1amHi.s:27176  .debug_str:0000000000018294 .LASF4874
C:\Users\CYMR90~1\AppData\Local\Temp\ccX1amHi.s:27084  .debug_str:0000000000017d08 .LASF4875
C:\Users\CYMR90~1\AppData\Local\Temp\ccX1amHi.s:30938  .debug_str:000000000002718f .LASF4876
C:\Users\CYMR90~1\AppData\Local\Temp\ccX1amHi.s:24955  .debug_str:000000000000f38c .LASF4877
C:\Users\CYMR90~1\AppData\Local\Temp\ccX1amHi.s:28342  .debug_str:000000000001ce88 .LASF4878
C:\Users\CYMR90~1\AppData\Local\Temp\ccX1amHi.s:27368  .debug_str:0000000000018ef3 .LASF4879
C:\Users\CYMR90~1\AppData\Local\Temp\ccX1amHi.s:24267  .debug_str:000000000000c852 .LASF4880
C:\Users\CYMR90~1\AppData\Local\Temp\ccX1amHi.s:30466  .debug_str:0000000000025335 .LASF4881
C:\Users\CYMR90~1\AppData\Local\Temp\ccX1amHi.s:23679  .debug_str:000000000000a25d .LASF4882
C:\Users\CYMR90~1\AppData\Local\Temp\ccX1amHi.s:30286  .debug_str:00000000000246c8 .LASF4883
C:\Users\CYMR90~1\AppData\Local\Temp\ccX1amHi.s:28114  .debug_str:000000000001bfd9 .LASF4884
C:\Users\CYMR90~1\AppData\Local\Temp\ccX1amHi.s:22327  .debug_str:0000000000004c16 .LASF4885
C:\Users\CYMR90~1\AppData\Local\Temp\ccX1amHi.s:25277  .debug_str:0000000000010881 .LASF4886
C:\Users\CYMR90~1\AppData\Local\Temp\ccX1amHi.s:21617  .debug_str:0000000000001e25 .LASF4887
C:\Users\CYMR90~1\AppData\Local\Temp\ccX1amHi.s:26876  .debug_str:0000000000017077 .LASF4888
C:\Users\CYMR90~1\AppData\Local\Temp\ccX1amHi.s:28190  .debug_str:000000000001c478 .LASF4889
C:\Users\CYMR90~1\AppData\Local\Temp\ccX1amHi.s:26291  .debug_str:0000000000014955 .LASF4890
C:\Users\CYMR90~1\AppData\Local\Temp\ccX1amHi.s:22219  .debug_str:0000000000004470 .LASF4891
C:\Users\CYMR90~1\AppData\Local\Temp\ccX1amHi.s:27820  .debug_str:000000000001ad50 .LASF4892
C:\Users\CYMR90~1\AppData\Local\Temp\ccX1amHi.s:30560  .debug_str:0000000000025a23 .LASF4893
C:\Users\CYMR90~1\AppData\Local\Temp\ccX1amHi.s:25011  .debug_str:000000000000f6ec .LASF4894
C:\Users\CYMR90~1\AppData\Local\Temp\ccX1amHi.s:24099  .debug_str:000000000000bd9b .LASF4895
C:\Users\CYMR90~1\AppData\Local\Temp\ccX1amHi.s:21139  .debug_str:000000000000008c .LASF4896
C:\Users\CYMR90~1\AppData\Local\Temp\ccX1amHi.s:23113  .debug_str:0000000000007e25 .LASF4897
C:\Users\CYMR90~1\AppData\Local\Temp\ccX1amHi.s:22759  .debug_str:0000000000006645 .LASF4898
C:\Users\CYMR90~1\AppData\Local\Temp\ccX1amHi.s:22975  .debug_str:00000000000074a3 .LASF4899
C:\Users\CYMR90~1\AppData\Local\Temp\ccX1amHi.s:26537  .debug_str:000000000001582c .LASF4900
C:\Users\CYMR90~1\AppData\Local\Temp\ccX1amHi.s:24135  .debug_str:000000000000c029 .LASF4901
C:\Users\CYMR90~1\AppData\Local\Temp\ccX1amHi.s:26385  .debug_str:0000000000014f60 .LASF4902
C:\Users\CYMR90~1\AppData\Local\Temp\ccX1amHi.s:24017  .debug_str:000000000000b81d .LASF4903
C:\Users\CYMR90~1\AppData\Local\Temp\ccX1amHi.s:26585  .debug_str:0000000000015b32 .LASF4904
C:\Users\CYMR90~1\AppData\Local\Temp\ccX1amHi.s:25479  .debug_str:0000000000011435 .LASF4905
C:\Users\CYMR90~1\AppData\Local\Temp\ccX1amHi.s:25403  .debug_str:0000000000011014 .LASF4906
C:\Users\CYMR90~1\AppData\Local\Temp\ccX1amHi.s:22377  .debug_str:0000000000004f2a .LASF4907
C:\Users\CYMR90~1\AppData\Local\Temp\ccX1amHi.s:26457  .debug_str:00000000000153f9 .LASF4908
C:\Users\CYMR90~1\AppData\Local\Temp\ccX1amHi.s:25385  .debug_str:0000000000010f22 .LASF4909
C:\Users\CYMR90~1\AppData\Local\Temp\ccX1amHi.s:31254  .debug_str:00000000000287a7 .LASF4910
C:\Users\CYMR90~1\AppData\Local\Temp\ccX1amHi.s:23023  .debug_str:0000000000007795 .LASF4911
C:\Users\CYMR90~1\AppData\Local\Temp\ccX1amHi.s:32152  .debug_str:000000000002bf2d .LASF4912
C:\Users\CYMR90~1\AppData\Local\Temp\ccX1amHi.s:32168  .debug_str:000000000002c0bd .LASF4913
C:\Users\CYMR90~1\AppData\Local\Temp\ccX1amHi.s:25947  .debug_str:00000000000133b4 .LASF4914
C:\Users\CYMR90~1\AppData\Local\Temp\ccX1amHi.s:21333  .debug_str:0000000000000c7e .LASF4915
C:\Users\CYMR90~1\AppData\Local\Temp\ccX1amHi.s:24057  .debug_str:000000000000badc .LASF4916
C:\Users\CYMR90~1\AppData\Local\Temp\ccX1amHi.s:28826  .debug_str:000000000001eda3 .LASF4917
C:\Users\CYMR90~1\AppData\Local\Temp\ccX1amHi.s:22747  .debug_str:000000000000659a .LASF4918
C:\Users\CYMR90~1\AppData\Local\Temp\ccX1amHi.s:23217  .debug_str:00000000000085a4 .LASF4919
C:\Users\CYMR90~1\AppData\Local\Temp\ccX1amHi.s:28570  .debug_str:000000000001dd9e .LASF4920
C:\Users\CYMR90~1\AppData\Local\Temp\ccX1amHi.s:25321  .debug_str:0000000000010afd .LASF4921
C:\Users\CYMR90~1\AppData\Local\Temp\ccX1amHi.s:29652  .debug_str:0000000000022070 .LASF4922
C:\Users\CYMR90~1\AppData\Local\Temp\ccX1amHi.s:28704  .debug_str:000000000001e65e .LASF4923
C:\Users\CYMR90~1\AppData\Local\Temp\ccX1amHi.s:23911  .debug_str:000000000000b165 .LASF4924
C:\Users\CYMR90~1\AppData\Local\Temp\ccX1amHi.s:27344  .debug_str:0000000000018d86 .LASF4925
C:\Users\CYMR90~1\AppData\Local\Temp\ccX1amHi.s:26641  .debug_str:0000000000015ee5 .LASF4926
C:\Users\CYMR90~1\AppData\Local\Temp\ccX1amHi.s:22659  .debug_str:0000000000006049 .LASF4927
C:\Users\CYMR90~1\AppData\Local\Temp\ccX1amHi.s:27814  .debug_str:000000000001ad0e .LASF4928
C:\Users\CYMR90~1\AppData\Local\Temp\ccX1amHi.s:26469  .debug_str:000000000001547d .LASF4929
C:\Users\CYMR90~1\AppData\Local\Temp\ccX1amHi.s:29142  .debug_str:00000000000200f7 .LASF4930
C:\Users\CYMR90~1\AppData\Local\Temp\ccX1amHi.s:31284  .debug_str:0000000000028992 .LASF4931
C:\Users\CYMR90~1\AppData\Local\Temp\ccX1amHi.s:26115  .debug_str:0000000000013e44 .LASF4932
C:\Users\CYMR90~1\AppData\Local\Temp\ccX1amHi.s:26047  .debug_str:0000000000013a2d .LASF4933
C:\Users\CYMR90~1\AppData\Local\Temp\ccX1amHi.s:22783  .debug_str:000000000000680e .LASF4934
C:\Users\CYMR90~1\AppData\Local\Temp\ccX1amHi.s:28756  .debug_str:000000000001e98f .LASF4935
C:\Users\CYMR90~1\AppData\Local\Temp\ccX1amHi.s:28210  .debug_str:000000000001c595 .LASF4936
C:\Users\CYMR90~1\AppData\Local\Temp\ccX1amHi.s:30516  .debug_str:00000000000256d4 .LASF4937
C:\Users\CYMR90~1\AppData\Local\Temp\ccX1amHi.s:22803  .debug_str:000000000000693b .LASF4938
C:\Users\CYMR90~1\AppData\Local\Temp\ccX1amHi.s:21583  .debug_str:0000000000001c18 .LASF4939
C:\Users\CYMR90~1\AppData\Local\Temp\ccX1amHi.s:23409  .debug_str:0000000000009155 .LASF4940
C:\Users\CYMR90~1\AppData\Local\Temp\ccX1amHi.s:23571  .debug_str:0000000000009bd8 .LASF4941
C:\Users\CYMR90~1\AppData\Local\Temp\ccX1amHi.s:21595  .debug_str:0000000000001cb9 .LASF4942
C:\Users\CYMR90~1\AppData\Local\Temp\ccX1amHi.s:32192  .debug_str:000000000002c23c .LASF4943
C:\Users\CYMR90~1\AppData\Local\Temp\ccX1amHi.s:26337  .debug_str:0000000000014c04 .LASF4944
C:\Users\CYMR90~1\AppData\Local\Temp\ccX1amHi.s:26747  .debug_str:00000000000165a2 .LASF4945
C:\Users\CYMR90~1\AppData\Local\Temp\ccX1amHi.s:25837  .debug_str:0000000000012c6e .LASF4946
C:\Users\CYMR90~1\AppData\Local\Temp\ccX1amHi.s:23899  .debug_str:000000000000b0b0 .LASF4947
C:\Users\CYMR90~1\AppData\Local\Temp\ccX1amHi.s:26401  .debug_str:0000000000015074 .LASF4948
C:\Users\CYMR90~1\AppData\Local\Temp\ccX1amHi.s:22943  .debug_str:000000000000724c .LASF4949
C:\Users\CYMR90~1\AppData\Local\Temp\ccX1amHi.s:27172  .debug_str:0000000000018257 .LASF4950
C:\Users\CYMR90~1\AppData\Local\Temp\ccX1amHi.s:25055  .debug_str:000000000000fa17 .LASF4951
C:\Users\CYMR90~1\AppData\Local\Temp\ccX1amHi.s:26567  .debug_str:0000000000015a1f .LASF4952
C:\Users\CYMR90~1\AppData\Local\Temp\ccX1amHi.s:23087  .debug_str:0000000000007be4 .LASF4953
C:\Users\CYMR90~1\AppData\Local\Temp\ccX1amHi.s:27844  .debug_str:000000000001aebc .LASF4954
C:\Users\CYMR90~1\AppData\Local\Temp\ccX1amHi.s:32432  .debug_str:000000000002d1fa .LASF4955
C:\Users\CYMR90~1\AppData\Local\Temp\ccX1amHi.s:22853  .debug_str:0000000000006c3f .LASF4956
C:\Users\CYMR90~1\AppData\Local\Temp\ccX1amHi.s:25703  .debug_str:0000000000012337 .LASF4957
C:\Users\CYMR90~1\AppData\Local\Temp\ccX1amHi.s:22997  .debug_str:00000000000075ef .LASF4958
C:\Users\CYMR90~1\AppData\Local\Temp\ccX1amHi.s:30742  .debug_str:0000000000026580 .LASF4959
C:\Users\CYMR90~1\AppData\Local\Temp\ccX1amHi.s:23623  .debug_str:0000000000009ef4 .LASF4960
C:\Users\CYMR90~1\AppData\Local\Temp\ccX1amHi.s:23569  .debug_str:0000000000009bb7 .LASF4961
C:\Users\CYMR90~1\AppData\Local\Temp\ccX1amHi.s:24465  .debug_str:000000000000d608 .LASF4962
C:\Users\CYMR90~1\AppData\Local\Temp\ccX1amHi.s:21673  .debug_str:0000000000002105 .LASF4963
C:\Users\CYMR90~1\AppData\Local\Temp\ccX1amHi.s:31122  .debug_str:0000000000027e09 .LASF4964
C:\Users\CYMR90~1\AppData\Local\Temp\ccX1amHi.s:29258  .debug_str:0000000000020833 .LASF4965
C:\Users\CYMR90~1\AppData\Local\Temp\ccX1amHi.s:30948  .debug_str:000000000002726d .LASF4966
C:\Users\CYMR90~1\AppData\Local\Temp\ccX1amHi.s:21539  .debug_str:0000000000001986 .LASF4967
C:\Users\CYMR90~1\AppData\Local\Temp\ccX1amHi.s:25081  .debug_str:000000000000fba6 .LASF4968
C:\Users\CYMR90~1\AppData\Local\Temp\ccX1amHi.s:23453  .debug_str:00000000000093e6 .LASF4969
C:\Users\CYMR90~1\AppData\Local\Temp\ccX1amHi.s:30402  .debug_str:0000000000024e64 .LASF4970
C:\Users\CYMR90~1\AppData\Local\Temp\ccX1amHi.s:31872  .debug_str:000000000002acc8 .LASF4971
C:\Users\CYMR90~1\AppData\Local\Temp\ccX1amHi.s:26896  .debug_str:00000000000171ba .LASF4972
C:\Users\CYMR90~1\AppData\Local\Temp\ccX1amHi.s:27010  .debug_str:000000000001786a .LASF4973
C:\Users\CYMR90~1\AppData\Local\Temp\ccX1amHi.s:28562  .debug_str:000000000001dd39 .LASF4974
C:\Users\CYMR90~1\AppData\Local\Temp\ccX1amHi.s:23697  .debug_str:000000000000a369 .LASF4975
C:\Users\CYMR90~1\AppData\Local\Temp\ccX1amHi.s:29012  .debug_str:000000000001f8e3 .LASF4976
C:\Users\CYMR90~1\AppData\Local\Temp\ccX1amHi.s:30172  .debug_str:0000000000023ebe .LASF4977
C:\Users\CYMR90~1\AppData\Local\Temp\ccX1amHi.s:25829  .debug_str:0000000000012c01 .LASF4978
C:\Users\CYMR90~1\AppData\Local\Temp\ccX1amHi.s:22017  .debug_str:00000000000036f2 .LASF4979
C:\Users\CYMR90~1\AppData\Local\Temp\ccX1amHi.s:22199  .debug_str:000000000000431a .LASF4980
C:\Users\CYMR90~1\AppData\Local\Temp\ccX1amHi.s:31100  .debug_str:0000000000027c76 .LASF4981
C:\Users\CYMR90~1\AppData\Local\Temp\ccX1amHi.s:25495  .debug_str:0000000000011528 .LASF4982
C:\Users\CYMR90~1\AppData\Local\Temp\ccX1amHi.s:24069  .debug_str:000000000000bb7c .LASF4983
C:\Users\CYMR90~1\AppData\Local\Temp\ccX1amHi.s:30164  .debug_str:0000000000023e41 .LASF4984
C:\Users\CYMR90~1\AppData\Local\Temp\ccX1amHi.s:30264  .debug_str:000000000002458b .LASF4985
C:\Users\CYMR90~1\AppData\Local\Temp\ccX1amHi.s:21337  .debug_str:0000000000000cba .LASF4986
C:\Users\CYMR90~1\AppData\Local\Temp\ccX1amHi.s:22041  .debug_str:000000000000388b .LASF4987
C:\Users\CYMR90~1\AppData\Local\Temp\ccX1amHi.s:26878  .debug_str:00000000000170a1 .LASF4988
C:\Users\CYMR90~1\AppData\Local\Temp\ccX1amHi.s:21979  .debug_str:000000000000344a .LASF4989
C:\Users\CYMR90~1\AppData\Local\Temp\ccX1amHi.s:21655  .debug_str:0000000000002026 .LASF4990
C:\Users\CYMR90~1\AppData\Local\Temp\ccX1amHi.s:22711  .debug_str:0000000000006378 .LASF4991
C:\Users\CYMR90~1\AppData\Local\Temp\ccX1amHi.s:30748  .debug_str:00000000000265db .LASF4992
C:\Users\CYMR90~1\AppData\Local\Temp\ccX1amHi.s:31658  .debug_str:000000000002a021 .LASF4993
C:\Users\CYMR90~1\AppData\Local\Temp\ccX1amHi.s:26103  .debug_str:0000000000013da7 .LASF4994
C:\Users\CYMR90~1\AppData\Local\Temp\ccX1amHi.s:27754  .debug_str:000000000001a964 .LASF4995
C:\Users\CYMR90~1\AppData\Local\Temp\ccX1amHi.s:32126  .debug_str:000000000002bd94 .LASF4996
C:\Users\CYMR90~1\AppData\Local\Temp\ccX1amHi.s:23885  .debug_str:000000000000af2e .LASF4997
C:\Users\CYMR90~1\AppData\Local\Temp\ccX1amHi.s:22797  .debug_str:00000000000068e3 .LASF4998
C:\Users\CYMR90~1\AppData\Local\Temp\ccX1amHi.s:31052  .debug_str:0000000000027918 .LASF4999
C:\Users\CYMR90~1\AppData\Local\Temp\ccX1amHi.s:27780  .debug_str:000000000001aaed .LASF5000
C:\Users\CYMR90~1\AppData\Local\Temp\ccX1amHi.s:28916  .debug_str:000000000001f333 .LASF5001
C:\Users\CYMR90~1\AppData\Local\Temp\ccX1amHi.s:28050  .debug_str:000000000001bbaf .LASF5002
C:\Users\CYMR90~1\AppData\Local\Temp\ccX1amHi.s:22491  .debug_str:0000000000005630 .LASF5003
C:\Users\CYMR90~1\AppData\Local\Temp\ccX1amHi.s:29940  .debug_str:0000000000023136 .LASF5004
C:\Users\CYMR90~1\AppData\Local\Temp\ccX1amHi.s:29960  .debug_str:0000000000023220 .LASF5005
C:\Users\CYMR90~1\AppData\Local\Temp\ccX1amHi.s:30434  .debug_str:0000000000025027 .LASF5006
C:\Users\CYMR90~1\AppData\Local\Temp\ccX1amHi.s:31360  .debug_str:0000000000028e23 .LASF5007
C:\Users\CYMR90~1\AppData\Local\Temp\ccX1amHi.s:29998  .debug_str:0000000000023445 .LASF5008
C:\Users\CYMR90~1\AppData\Local\Temp\ccX1amHi.s:31484  .debug_str:00000000000295f8 .LASF5009
C:\Users\CYMR90~1\AppData\Local\Temp\ccX1amHi.s:25907  .debug_str:00000000000130e8 .LASF5010
C:\Users\CYMR90~1\AppData\Local\Temp\ccX1amHi.s:25743  .debug_str:0000000000012621 .LASF5011
C:\Users\CYMR90~1\AppData\Local\Temp\ccX1amHi.s:29534  .debug_str:0000000000021921 .LASF5012
C:\Users\CYMR90~1\AppData\Local\Temp\ccX1amHi.s:32404  .debug_str:000000000002d02d .LASF5013
C:\Users\CYMR90~1\AppData\Local\Temp\ccX1amHi.s:25911  .debug_str:000000000001312c .LASF5014
C:\Users\CYMR90~1\AppData\Local\Temp\ccX1amHi.s:27088  .debug_str:0000000000017d45 .LASF5015
C:\Users\CYMR90~1\AppData\Local\Temp\ccX1amHi.s:22371  .debug_str:0000000000004ecb .LASF5016
C:\Users\CYMR90~1\AppData\Local\Temp\ccX1amHi.s:29518  .debug_str:000000000002182a .LASF5017
C:\Users\CYMR90~1\AppData\Local\Temp\ccX1amHi.s:26817  .debug_str:0000000000016aa0 .LASF5018
C:\Users\CYMR90~1\AppData\Local\Temp\ccX1amHi.s:21885  .debug_str:0000000000002e2c .LASF5019
C:\Users\CYMR90~1\AppData\Local\Temp\ccX1amHi.s:28820  .debug_str:000000000001ed55 .LASF5020
C:\Users\CYMR90~1\AppData\Local\Temp\ccX1amHi.s:29748  .debug_str:00000000000225c2 .LASF5021
C:\Users\CYMR90~1\AppData\Local\Temp\ccX1amHi.s:22665  .debug_str:00000000000060bb .LASF5022
C:\Users\CYMR90~1\AppData\Local\Temp\ccX1amHi.s:30202  .debug_str:000000000002405c .LASF5023
C:\Users\CYMR90~1\AppData\Local\Temp\ccX1amHi.s:28448  .debug_str:000000000001d602 .LASF5024
C:\Users\CYMR90~1\AppData\Local\Temp\ccX1amHi.s:28428  .debug_str:000000000001d4cf .LASF5025
C:\Users\CYMR90~1\AppData\Local\Temp\ccX1amHi.s:29540  .debug_str:000000000002199f .LASF5026
C:\Users\CYMR90~1\AppData\Local\Temp\ccX1amHi.s:25787  .debug_str:00000000000128fe .LASF5027
C:\Users\CYMR90~1\AppData\Local\Temp\ccX1amHi.s:27188  .debug_str:0000000000018343 .LASF5028
C:\Users\CYMR90~1\AppData\Local\Temp\ccX1amHi.s:22969  .debug_str:0000000000007427 .LASF5029
C:\Users\CYMR90~1\AppData\Local\Temp\ccX1amHi.s:27760  .debug_str:000000000001a9ae .LASF5030
C:\Users\CYMR90~1\AppData\Local\Temp\ccX1amHi.s:25559  .debug_str:00000000000119f0 .LASF5031
C:\Users\CYMR90~1\AppData\Local\Temp\ccX1amHi.s:24247  .debug_str:000000000000c6c1 .LASF5032
C:\Users\CYMR90~1\AppData\Local\Temp\ccX1amHi.s:23585  .debug_str:0000000000009cd3 .LASF5033
C:\Users\CYMR90~1\AppData\Local\Temp\ccX1amHi.s:24885  .debug_str:000000000000ef4f .LASF5034
C:\Users\CYMR90~1\AppData\Local\Temp\ccX1amHi.s:22837  .debug_str:0000000000006b5c .LASF5035
C:\Users\CYMR90~1\AppData\Local\Temp\ccX1amHi.s:29184  .debug_str:0000000000020357 .LASF5036
C:\Users\CYMR90~1\AppData\Local\Temp\ccX1amHi.s:21727  .debug_str:0000000000002438 .LASF5037
C:\Users\CYMR90~1\AppData\Local\Temp\ccX1amHi.s:29988  .debug_str:00000000000233a3 .LASF5038
C:\Users\CYMR90~1\AppData\Local\Temp\ccX1amHi.s:26803  .debug_str:0000000000016976 .LASF5039
C:\Users\CYMR90~1\AppData\Local\Temp\ccX1amHi.s:27808  .debug_str:000000000001acb2 .LASF5040
C:\Users\CYMR90~1\AppData\Local\Temp\ccX1amHi.s:25079  .debug_str:000000000000fb86 .LASF5041
C:\Users\CYMR90~1\AppData\Local\Temp\ccX1amHi.s:31144  .debug_str:0000000000027f70 .LASF5042
C:\Users\CYMR90~1\AppData\Local\Temp\ccX1amHi.s:23045  .debug_str:0000000000007913 .LASF5043
C:\Users\CYMR90~1\AppData\Local\Temp\ccX1amHi.s:24483  .debug_str:000000000000d751 .LASF5044
C:\Users\CYMR90~1\AppData\Local\Temp\ccX1amHi.s:32318  .debug_str:000000000002ca87 .LASF5045
C:\Users\CYMR90~1\AppData\Local\Temp\ccX1amHi.s:24111  .debug_str:000000000000be85 .LASF5046
C:\Users\CYMR90~1\AppData\Local\Temp\ccX1amHi.s:23671  .debug_str:000000000000a1f0 .LASF5047
C:\Users\CYMR90~1\AppData\Local\Temp\ccX1amHi.s:31056  .debug_str:0000000000027970 .LASF5048
C:\Users\CYMR90~1\AppData\Local\Temp\ccX1amHi.s:25527  .debug_str:0000000000011742 .LASF5049
C:\Users\CYMR90~1\AppData\Local\Temp\ccX1amHi.s:22289  .debug_str:00000000000049ad .LASF5050
C:\Users\CYMR90~1\AppData\Local\Temp\ccX1amHi.s:23615  .debug_str:0000000000009e7e .LASF5051
C:\Users\CYMR90~1\AppData\Local\Temp\ccX1amHi.s:27410  .debug_str:000000000001920d .LASF5052
C:\Users\CYMR90~1\AppData\Local\Temp\ccX1amHi.s:28388  .debug_str:000000000001d26b .LASF5053
C:\Users\CYMR90~1\AppData\Local\Temp\ccX1amHi.s:28608  .debug_str:000000000001e0a6 .LASF5054
C:\Users\CYMR90~1\AppData\Local\Temp\ccX1amHi.s:24327  .debug_str:000000000000cce5 .LASF5055
C:\Users\CYMR90~1\AppData\Local\Temp\ccX1amHi.s:26599  .debug_str:0000000000015bf0 .LASF5056
C:\Users\CYMR90~1\AppData\Local\Temp\ccX1amHi.s:24725  .debug_str:000000000000e56d .LASF5057
C:\Users\CYMR90~1\AppData\Local\Temp\ccX1amHi.s:27582  .debug_str:0000000000019d12 .LASF5058
C:\Users\CYMR90~1\AppData\Local\Temp\ccX1amHi.s:27328  .debug_str:0000000000018bdc .LASF5059
C:\Users\CYMR90~1\AppData\Local\Temp\ccX1amHi.s:30060  .debug_str:000000000002382c .LASF5060
C:\Users\CYMR90~1\AppData\Local\Temp\ccX1amHi.s:22249  .debug_str:000000000000467a .LASF5061
C:\Users\CYMR90~1\AppData\Local\Temp\ccX1amHi.s:21313  .debug_str:0000000000000b58 .LASF5062
C:\Users\CYMR90~1\AppData\Local\Temp\ccX1amHi.s:25623  .debug_str:0000000000011e22 .LASF5063
C:\Users\CYMR90~1\AppData\Local\Temp\ccX1amHi.s:26359  .debug_str:0000000000014d66 .LASF5064
C:\Users\CYMR90~1\AppData\Local\Temp\ccX1amHi.s:22411  .debug_str:0000000000005113 .LASF5065
C:\Users\CYMR90~1\AppData\Local\Temp\ccX1amHi.s:23197  .debug_str:0000000000008448 .LASF5066
C:\Users\CYMR90~1\AppData\Local\Temp\ccX1amHi.s:23761  .debug_str:000000000000a738 .LASF5067
C:\Users\CYMR90~1\AppData\Local\Temp\ccX1amHi.s:27418  .debug_str:0000000000019285 .LASF5068
C:\Users\CYMR90~1\AppData\Local\Temp\ccX1amHi.s:24663  .debug_str:000000000000e1bf .LASF5069
C:\Users\CYMR90~1\AppData\Local\Temp\ccX1amHi.s:32242  .debug_str:000000000002c5c0 .LASF5070
C:\Users\CYMR90~1\AppData\Local\Temp\ccX1amHi.s:21543  .debug_str:00000000000019c4 .LASF5071
C:\Users\CYMR90~1\AppData\Local\Temp\ccX1amHi.s:31134  .debug_str:0000000000027ebf .LASF5072
C:\Users\CYMR90~1\AppData\Local\Temp\ccX1amHi.s:28506  .debug_str:000000000001da08 .LASF5073
C:\Users\CYMR90~1\AppData\Local\Temp\ccX1amHi.s:26860  .debug_str:0000000000016f55 .LASF5074
C:\Users\CYMR90~1\AppData\Local\Temp\ccX1amHi.s:23719  .debug_str:000000000000a4e8 .LASF5075
C:\Users\CYMR90~1\AppData\Local\Temp\ccX1amHi.s:29580  .debug_str:0000000000021bbd .LASF5076
C:\Users\CYMR90~1\AppData\Local\Temp\ccX1amHi.s:25913  .debug_str:000000000001314c .LASF5077
C:\Users\CYMR90~1\AppData\Local\Temp\ccX1amHi.s:27314  .debug_str:0000000000018aea .LASF5078
C:\Users\CYMR90~1\AppData\Local\Temp\ccX1amHi.s:26013  .debug_str:0000000000013816 .LASF5079
C:\Users\CYMR90~1\AppData\Local\Temp\ccX1amHi.s:30236  .debug_str:000000000002439e .LASF5080
C:\Users\CYMR90~1\AppData\Local\Temp\ccX1amHi.s:30750  .debug_str:00000000000265f6 .LASF5081
C:\Users\CYMR90~1\AppData\Local\Temp\ccX1amHi.s:21785  .debug_str:00000000000027fe .LASF5082
C:\Users\CYMR90~1\AppData\Local\Temp\ccX1amHi.s:25593  .debug_str:0000000000011c80 .LASF5083
C:\Users\CYMR90~1\AppData\Local\Temp\ccX1amHi.s:29140  .debug_str:00000000000200cc .LASF5084
C:\Users\CYMR90~1\AppData\Local\Temp\ccX1amHi.s:21927  .debug_str:00000000000030cd .LASF5085
C:\Users\CYMR90~1\AppData\Local\Temp\ccX1amHi.s:29072  .debug_str:000000000001fc86 .LASF5086
C:\Users\CYMR90~1\AppData\Local\Temp\ccX1amHi.s:26001  .debug_str:000000000001375e .LASF5087
C:\Users\CYMR90~1\AppData\Local\Temp\ccX1amHi.s:31478  .debug_str:000000000002957c .LASF5088
C:\Users\CYMR90~1\AppData\Local\Temp\ccX1amHi.s:23703  .debug_str:000000000000a3c0 .LASF5089
C:\Users\CYMR90~1\AppData\Local\Temp\ccX1amHi.s:27406  .debug_str:00000000000191ba .LASF5090
C:\Users\CYMR90~1\AppData\Local\Temp\ccX1amHi.s:31732  .debug_str:000000000002a45d .LASF5091
C:\Users\CYMR90~1\AppData\Local\Temp\ccX1amHi.s:22749  .debug_str:00000000000065b1 .LASF5092
C:\Users\CYMR90~1\AppData\Local\Temp\ccX1amHi.s:31726  .debug_str:000000000002a3f4 .LASF5093
C:\Users\CYMR90~1\AppData\Local\Temp\ccX1amHi.s:21863  .debug_str:0000000000002cd9 .LASF5094
C:\Users\CYMR90~1\AppData\Local\Temp\ccX1amHi.s:27846  .debug_str:000000000001aed4 .LASF5095
C:\Users\CYMR90~1\AppData\Local\Temp\ccX1amHi.s:24987  .debug_str:000000000000f57a .LASF5096
C:\Users\CYMR90~1\AppData\Local\Temp\ccX1amHi.s:24369  .debug_str:000000000000cf3b .LASF5097
C:\Users\CYMR90~1\AppData\Local\Temp\ccX1amHi.s:31366  .debug_str:0000000000028e89 .LASF5098
C:\Users\CYMR90~1\AppData\Local\Temp\ccX1amHi.s:23427  .debug_str:0000000000009243 .LASF5099
C:\Users\CYMR90~1\AppData\Local\Temp\ccX1amHi.s:28362  .debug_str:000000000001d052 .LASF5100
C:\Users\CYMR90~1\AppData\Local\Temp\ccX1amHi.s:26938  .debug_str:00000000000173fa .LASF5101
C:\Users\CYMR90~1\AppData\Local\Temp\ccX1amHi.s:22243  .debug_str:0000000000004602 .LASF5102
C:\Users\CYMR90~1\AppData\Local\Temp\ccX1amHi.s:30520  .debug_str:000000000002571b .LASF5103
C:\Users\CYMR90~1\AppData\Local\Temp\ccX1amHi.s:29034  .debug_str:000000000001fa00 .LASF5104
C:\Users\CYMR90~1\AppData\Local\Temp\ccX1amHi.s:22135  .debug_str:0000000000003ec4 .LASF5105
C:\Users\CYMR90~1\AppData\Local\Temp\ccX1amHi.s:29164  .debug_str:0000000000020229 .LASF5106
C:\Users\CYMR90~1\AppData\Local\Temp\ccX1amHi.s:32382  .debug_str:000000000002cf04 .LASF5107
C:\Users\CYMR90~1\AppData\Local\Temp\ccX1amHi.s:21983  .debug_str:0000000000003479 .LASF5108
C:\Users\CYMR90~1\AppData\Local\Temp\ccX1amHi.s:28780  .debug_str:000000000001eb15 .LASF5109
C:\Users\CYMR90~1\AppData\Local\Temp\ccX1amHi.s:29550  .debug_str:0000000000021a2a .LASF5110
C:\Users\CYMR90~1\AppData\Local\Temp\ccX1amHi.s:21569  .debug_str:0000000000001b45 .LASF5111
C:\Users\CYMR90~1\AppData\Local\Temp\ccX1amHi.s:25825  .debug_str:0000000000012bb4 .LASF5112
C:\Users\CYMR90~1\AppData\Local\Temp\ccX1amHi.s:27118  .debug_str:0000000000017f0e .LASF5113
C:\Users\CYMR90~1\AppData\Local\Temp\ccX1amHi.s:25329  .debug_str:0000000000010b4d .LASF5114
C:\Users\CYMR90~1\AppData\Local\Temp\ccX1amHi.s:27222  .debug_str:000000000001853a .LASF5115
C:\Users\CYMR90~1\AppData\Local\Temp\ccX1amHi.s:27802  .debug_str:000000000001ac6d .LASF5116
C:\Users\CYMR90~1\AppData\Local\Temp\ccX1amHi.s:29170  .debug_str:000000000002028a .LASF5117
C:\Users\CYMR90~1\AppData\Local\Temp\ccX1amHi.s:32418  .debug_str:000000000002d11e .LASF5118
C:\Users\CYMR90~1\AppData\Local\Temp\ccX1amHi.s:26285  .debug_str:00000000000148d3 .LASF5119
C:\Users\CYMR90~1\AppData\Local\Temp\ccX1amHi.s:27652  .debug_str:000000000001a132 .LASF5120
C:\Users\CYMR90~1\AppData\Local\Temp\ccX1amHi.s:22453  .debug_str:00000000000053c0 .LASF5121
C:\Users\CYMR90~1\AppData\Local\Temp\ccX1amHi.s:30258  .debug_str:0000000000024504 .LASF5122
C:\Users\CYMR90~1\AppData\Local\Temp\ccX1amHi.s:31138  .debug_str:0000000000027f02 .LASF5123
C:\Users\CYMR90~1\AppData\Local\Temp\ccX1amHi.s:23065  .debug_str:0000000000007a60 .LASF5124
C:\Users\CYMR90~1\AppData\Local\Temp\ccX1amHi.s:32202  .debug_str:000000000002c2d9 .LASF5125
C:\Users\CYMR90~1\AppData\Local\Temp\ccX1amHi.s:24839  .debug_str:000000000000ecf0 .LASF5126
C:\Users\CYMR90~1\AppData\Local\Temp\ccX1amHi.s:27042  .debug_str:0000000000017a93 .LASF5127
C:\Users\CYMR90~1\AppData\Local\Temp\ccX1amHi.s:23175  .debug_str:00000000000082d3 .LASF5128
C:\Users\CYMR90~1\AppData\Local\Temp\ccX1amHi.s:22765  .debug_str:00000000000066a3 .LASF5129
C:\Users\CYMR90~1\AppData\Local\Temp\ccX1amHi.s:22361  .debug_str:0000000000004e2d .LASF5130
C:\Users\CYMR90~1\AppData\Local\Temp\ccX1amHi.s:30958  .debug_str:00000000000273a6 .LASF5131
C:\Users\CYMR90~1\AppData\Local\Temp\ccX1amHi.s:27164  .debug_str:00000000000181bf .LASF5132
C:\Users\CYMR90~1\AppData\Local\Temp\ccX1amHi.s:23249  .debug_str:000000000000877a .LASF5133
C:\Users\CYMR90~1\AppData\Local\Temp\ccX1amHi.s:24275  .debug_str:000000000000c8e4 .LASF5134
C:\Users\CYMR90~1\AppData\Local\Temp\ccX1amHi.s:28762  .debug_str:000000000001e9eb .LASF5135
C:\Users\CYMR90~1\AppData\Local\Temp\ccX1amHi.s:23425  .debug_str:0000000000009212 .LASF5136
C:\Users\CYMR90~1\AppData\Local\Temp\ccX1amHi.s:31932  .debug_str:000000000002b068 .LASF5137
C:\Users\CYMR90~1\AppData\Local\Temp\ccX1amHi.s:28750  .debug_str:000000000001e8fb .LASF5138
C:\Users\CYMR90~1\AppData\Local\Temp\ccX1amHi.s:23269  .debug_str:00000000000088b8 .LASF5139
C:\Users\CYMR90~1\AppData\Local\Temp\ccX1amHi.s:31048  .debug_str:00000000000278e6 .LASF5140
C:\Users\CYMR90~1\AppData\Local\Temp\ccX1amHi.s:32424  .debug_str:000000000002d178 .LASF5141
C:\Users\CYMR90~1\AppData\Local\Temp\ccX1amHi.s:29082  .debug_str:000000000001fd2c .LASF5142
C:\Users\CYMR90~1\AppData\Local\Temp\ccX1amHi.s:31332  .debug_str:0000000000028c98 .LASF5143
C:\Users\CYMR90~1\AppData\Local\Temp\ccX1amHi.s:21843  .debug_str:0000000000002b93 .LASF5144
C:\Users\CYMR90~1\AppData\Local\Temp\ccX1amHi.s:22685  .debug_str:0000000000006204 .LASF5145
C:\Users\CYMR90~1\AppData\Local\Temp\ccX1amHi.s:27672  .debug_str:000000000001a249 .LASF5146
C:\Users\CYMR90~1\AppData\Local\Temp\ccX1amHi.s:26367  .debug_str:0000000000014e20 .LASF5147
C:\Users\CYMR90~1\AppData\Local\Temp\ccX1amHi.s:25127  .debug_str:000000000000fe90 .LASF5148
C:\Users\CYMR90~1\AppData\Local\Temp\ccX1amHi.s:22215  .debug_str:0000000000004429 .LASF5149
C:\Users\CYMR90~1\AppData\Local\Temp\ccX1amHi.s:21577  .debug_str:0000000000001bbf .LASF5150
C:\Users\CYMR90~1\AppData\Local\Temp\ccX1amHi.s:29614  .debug_str:0000000000021df6 .LASF5151
C:\Users\CYMR90~1\AppData\Local\Temp\ccX1amHi.s:27882  .debug_str:000000000001b165 .LASF5152
C:\Users\CYMR90~1\AppData\Local\Temp\ccX1amHi.s:23471  .debug_str:000000000000950b .LASF5153
C:\Users\CYMR90~1\AppData\Local\Temp\ccX1amHi.s:21193  .debug_str:00000000000003de .LASF5154
C:\Users\CYMR90~1\AppData\Local\Temp\ccX1amHi.s:25549  .debug_str:000000000001196a .LASF5155
C:\Users\CYMR90~1\AppData\Local\Temp\ccX1amHi.s:21769  .debug_str:00000000000026f4 .LASF5156
C:\Users\CYMR90~1\AppData\Local\Temp\ccX1amHi.s:28808  .debug_str:000000000001ecae .LASF5157
C:\Users\CYMR90~1\AppData\Local\Temp\ccX1amHi.s:26391  .debug_str:0000000000014fd9 .LASF5158
C:\Users\CYMR90~1\AppData\Local\Temp\ccX1amHi.s:21133  .debug_str:0000000000000000 .LASF5159
C:\Users\CYMR90~1\AppData\Local\Temp\ccX1amHi.s:23057  .debug_str:00000000000079d2 .LASF5160
C:\Users\CYMR90~1\AppData\Local\Temp\ccX1amHi.s:31480  .debug_str:00000000000295a9 .LASF5161
C:\Users\CYMR90~1\AppData\Local\Temp\ccX1amHi.s:30336  .debug_str:0000000000024a1b .LASF5162
C:\Users\CYMR90~1\AppData\Local\Temp\ccX1amHi.s:31108  .debug_str:0000000000027ced .LASF5163
C:\Users\CYMR90~1\AppData\Local\Temp\ccX1amHi.s:22457  .debug_str:000000000000540a .LASF5164
C:\Users\CYMR90~1\AppData\Local\Temp\ccX1amHi.s:26829  .debug_str:0000000000016b4c .LASF5165
C:\Users\CYMR90~1\AppData\Local\Temp\ccX1amHi.s:29118  .debug_str:000000000001ff46 .LASF5166
C:\Users\CYMR90~1\AppData\Local\Temp\ccX1amHi.s:27766  .debug_str:000000000001aa17 .LASF5167
C:\Users\CYMR90~1\AppData\Local\Temp\ccX1amHi.s:32408  .debug_str:000000000002d06f .LASF5168
C:\Users\CYMR90~1\AppData\Local\Temp\ccX1amHi.s:26954  .debug_str:00000000000174f9 .LASF5169
C:\Users\CYMR90~1\AppData\Local\Temp\ccX1amHi.s:22653  .debug_str:0000000000005fe2 .LASF5170
C:\Users\CYMR90~1\AppData\Local\Temp\ccX1amHi.s:24943  .debug_str:000000000000f2e7 .LASF5171
C:\Users\CYMR90~1\AppData\Local\Temp\ccX1amHi.s:25661  .debug_str:00000000000120b8 .LASF5172
C:\Users\CYMR90~1\AppData\Local\Temp\ccX1amHi.s:27276  .debug_str:0000000000018848 .LASF5173
C:\Users\CYMR90~1\AppData\Local\Temp\ccX1amHi.s:29624  .debug_str:0000000000021e86 .LASF5174
C:\Users\CYMR90~1\AppData\Local\Temp\ccX1amHi.s:30506  .debug_str:00000000000255f6 .LASF5175
C:\Users\CYMR90~1\AppData\Local\Temp\ccX1amHi.s:31288  .debug_str:00000000000289c7 .LASF5176
C:\Users\CYMR90~1\AppData\Local\Temp\ccX1amHi.s:30752  .debug_str:0000000000026620 .LASF5177
C:\Users\CYMR90~1\AppData\Local\Temp\ccX1amHi.s:25467  .debug_str:00000000000113b0 .LASF5178
C:\Users\CYMR90~1\AppData\Local\Temp\ccX1amHi.s:24367  .debug_str:000000000000cf0b .LASF5179
C:\Users\CYMR90~1\AppData\Local\Temp\ccX1amHi.s:29278  .debug_str:0000000000020920 .LASF5180
C:\Users\CYMR90~1\AppData\Local\Temp\ccX1amHi.s:25025  .debug_str:000000000000f846 .LASF5181
C:\Users\CYMR90~1\AppData\Local\Temp\ccX1amHi.s:24333  .debug_str:000000000000cd46 .LASF5182
C:\Users\CYMR90~1\AppData\Local\Temp\ccX1amHi.s:30726  .debug_str:0000000000026469 .LASF5183
C:\Users\CYMR90~1\AppData\Local\Temp\ccX1amHi.s:25925  .debug_str:0000000000013229 .LASF5184
C:\Users\CYMR90~1\AppData\Local\Temp\ccX1amHi.s:24143  .debug_str:000000000000c089 .LASF5185
C:\Users\CYMR90~1\AppData\Local\Temp\ccX1amHi.s:22029  .debug_str:00000000000037d6 .LASF5186
C:\Users\CYMR90~1\AppData\Local\Temp\ccX1amHi.s:22959  .debug_str:000000000000738c .LASF5187
C:\Users\CYMR90~1\AppData\Local\Temp\ccX1amHi.s:25029  .debug_str:000000000000f895 .LASF5188
C:\Users\CYMR90~1\AppData\Local\Temp\ccX1amHi.s:22521  .debug_str:00000000000057eb .LASF5189
C:\Users\CYMR90~1\AppData\Local\Temp\ccX1amHi.s:31170  .debug_str:000000000002816b .LASF5190
C:\Users\CYMR90~1\AppData\Local\Temp\ccX1amHi.s:25719  .debug_str:0000000000012451 .LASF5191
C:\Users\CYMR90~1\AppData\Local\Temp\ccX1amHi.s:21857  .debug_str:0000000000002c7d .LASF5192
C:\Users\CYMR90~1\AppData\Local\Temp\ccX1amHi.s:30582  .debug_str:0000000000025bb8 .LASF5193
C:\Users\CYMR90~1\AppData\Local\Temp\ccX1amHi.s:30970  .debug_str:000000000002746c .LASF5194
C:\Users\CYMR90~1\AppData\Local\Temp\ccX1amHi.s:25483  .debug_str:0000000000011475 .LASF5195
C:\Users\CYMR90~1\AppData\Local\Temp\ccX1amHi.s:26661  .debug_str:000000000001606f .LASF5196
C:\Users\CYMR90~1\AppData\Local\Temp\ccX1amHi.s:29992  .debug_str:00000000000233dc .LASF5197
C:\Users\CYMR90~1\AppData\Local\Temp\ccX1amHi.s:28742  .debug_str:000000000001e87b .LASF5198
C:\Users\CYMR90~1\AppData\Local\Temp\ccX1amHi.s:29642  .debug_str:0000000000021fcb .LASF5199
C:\Users\CYMR90~1\AppData\Local\Temp\ccX1amHi.s:32430  .debug_str:000000000002d1d4 .LASF5200
C:\Users\CYMR90~1\AppData\Local\Temp\ccX1amHi.s:29818  .debug_str:00000000000229bf .LASF5201
C:\Users\CYMR90~1\AppData\Local\Temp\ccX1amHi.s:21507  .debug_str:000000000000178b .LASF5202
C:\Users\CYMR90~1\AppData\Local\Temp\ccX1amHi.s:23049  .debug_str:0000000000007949 .LASF5203
C:\Users\CYMR90~1\AppData\Local\Temp\ccX1amHi.s:22395  .debug_str:0000000000005021 .LASF5204
C:\Users\CYMR90~1\AppData\Local\Temp\ccX1amHi.s:29850  .debug_str:0000000000022b8c .LASF5205
C:\Users\CYMR90~1\AppData\Local\Temp\ccX1amHi.s:25777  .debug_str:0000000000012853 .LASF5206
C:\Users\CYMR90~1\AppData\Local\Temp\ccX1amHi.s:30372  .debug_str:0000000000024c69 .LASF5207
C:\Users\CYMR90~1\AppData\Local\Temp\ccX1amHi.s:31622  .debug_str:0000000000029e18 .LASF5208
C:\Users\CYMR90~1\AppData\Local\Temp\ccX1amHi.s:29904  .debug_str:0000000000022f3b .LASF5209
C:\Users\CYMR90~1\AppData\Local\Temp\ccX1amHi.s:30548  .debug_str:000000000002596d .LASF5210
C:\Users\CYMR90~1\AppData\Local\Temp\ccX1amHi.s:30598  .debug_str:0000000000025cc6 .LASF5211
C:\Users\CYMR90~1\AppData\Local\Temp\ccX1amHi.s:29396  .debug_str:000000000002108a .LASF5212
C:\Users\CYMR90~1\AppData\Local\Temp\ccX1amHi.s:25123  .debug_str:000000000000fe4a .LASF5213
C:\Users\CYMR90~1\AppData\Local\Temp\ccX1amHi.s:25295  .debug_str:000000000001097d .LASF5214
C:\Users\CYMR90~1\AppData\Local\Temp\ccX1amHi.s:30430  .debug_str:0000000000024fe8 .LASF5215
C:\Users\CYMR90~1\AppData\Local\Temp\ccX1amHi.s:23823  .debug_str:000000000000ab1b .LASF5216
C:\Users\CYMR90~1\AppData\Local\Temp\ccX1amHi.s:22365  .debug_str:0000000000004e7c .LASF5217
C:\Users\CYMR90~1\AppData\Local\Temp\ccX1amHi.s:31878  .debug_str:000000000002ad45 .LASF5218
C:\Users\CYMR90~1\AppData\Local\Temp\ccX1amHi.s:23343  .debug_str:0000000000008d34 .LASF5219
C:\Users\CYMR90~1\AppData\Local\Temp\ccX1amHi.s:23929  .debug_str:000000000000b26b .LASF5220
C:\Users\CYMR90~1\AppData\Local\Temp\ccX1amHi.s:30606  .debug_str:0000000000025d37 .LASF5221
C:\Users\CYMR90~1\AppData\Local\Temp\ccX1amHi.s:21405  .debug_str:000000000000111c .LASF5222
C:\Users\CYMR90~1\AppData\Local\Temp\ccX1amHi.s:26739  .debug_str:0000000000016527 .LASF5223
C:\Users\CYMR90~1\AppData\Local\Temp\ccX1amHi.s:28822  .debug_str:000000000001ed6d .LASF5224
C:\Users\CYMR90~1\AppData\Local\Temp\ccX1amHi.s:31094  .debug_str:0000000000027c00 .LASF5225
C:\Users\CYMR90~1\AppData\Local\Temp\ccX1amHi.s:24789  .debug_str:000000000000e9aa .LASF5226
C:\Users\CYMR90~1\AppData\Local\Temp\ccX1amHi.s:31124  .debug_str:0000000000027e28 .LASF5227
C:\Users\CYMR90~1\AppData\Local\Temp\ccX1amHi.s:28766  .debug_str:000000000001ea3f .LASF5228
C:\Users\CYMR90~1\AppData\Local\Temp\ccX1amHi.s:25531  .debug_str:000000000001178d .LASF5229
C:\Users\CYMR90~1\AppData\Local\Temp\ccX1amHi.s:29070  .debug_str:000000000001fc55 .LASF5230
C:\Users\CYMR90~1\AppData\Local\Temp\ccX1amHi.s:22973  .debug_str:0000000000007472 .LASF5231
C:\Users\CYMR90~1\AppData\Local\Temp\ccX1amHi.s:26063  .debug_str:0000000000013b0e .LASF5232
C:\Users\CYMR90~1\AppData\Local\Temp\ccX1amHi.s:29112  .debug_str:000000000001fedc .LASF5233
C:\Users\CYMR90~1\AppData\Local\Temp\ccX1amHi.s:24645  .debug_str:000000000000e0a6 .LASF5234
C:\Users\CYMR90~1\AppData\Local\Temp\ccX1amHi.s:28322  .debug_str:000000000001cd18 .LASF5235
C:\Users\CYMR90~1\AppData\Local\Temp\ccX1amHi.s:24769  .debug_str:000000000000e864 .LASF5236
C:\Users\CYMR90~1\AppData\Local\Temp\ccX1amHi.s:22031  .debug_str:00000000000037fc .LASF5237
C:\Users\CYMR90~1\AppData\Local\Temp\ccX1amHi.s:32280  .debug_str:000000000002c7d6 .LASF5238
C:\Users\CYMR90~1\AppData\Local\Temp\ccX1amHi.s:24799  .debug_str:000000000000ea32 .LASF5239
C:\Users\CYMR90~1\AppData\Local\Temp\ccX1amHi.s:21483  .debug_str:0000000000001567 .LASF5240
C:\Users\CYMR90~1\AppData\Local\Temp\ccX1amHi.s:27928  .debug_str:000000000001b499 .LASF5241
C:\Users\CYMR90~1\AppData\Local\Temp\ccX1amHi.s:30924  .debug_str:00000000000270d6 .LASF5242
C:\Users\CYMR90~1\AppData\Local\Temp\ccX1amHi.s:27810  .debug_str:000000000001acd2 .LASF5243
C:\Users\CYMR90~1\AppData\Local\Temp\ccX1amHi.s:28816  .debug_str:000000000001ed26 .LASF5244
C:\Users\CYMR90~1\AppData\Local\Temp\ccX1amHi.s:23069  .debug_str:0000000000007af4 .LASF5245
C:\Users\CYMR90~1\AppData\Local\Temp\ccX1amHi.s:29414  .debug_str:0000000000021171 .LASF5246
C:\Users\CYMR90~1\AppData\Local\Temp\ccX1amHi.s:24279  .debug_str:000000000000c958 .LASF5247
C:\Users\CYMR90~1\AppData\Local\Temp\ccX1amHi.s:26605  .debug_str:0000000000015c5a .LASF5248
C:\Users\CYMR90~1\AppData\Local\Temp\ccX1amHi.s:25049  .debug_str:000000000000f9c6 .LASF5249
C:\Users\CYMR90~1\AppData\Local\Temp\ccX1amHi.s:27218  .debug_str:000000000001850a .LASF5250
C:\Users\CYMR90~1\AppData\Local\Temp\ccX1amHi.s:31780  .debug_str:000000000002a792 .LASF5251
C:\Users\CYMR90~1\AppData\Local\Temp\ccX1amHi.s:25997  .debug_str:0000000000013721 .LASF5252
C:\Users\CYMR90~1\AppData\Local\Temp\ccX1amHi.s:29002  .debug_str:000000000001f84f .LASF5253
C:\Users\CYMR90~1\AppData\Local\Temp\ccX1amHi.s:23027  .debug_str:00000000000077ee .LASF5254
C:\Users\CYMR90~1\AppData\Local\Temp\ccX1amHi.s:30468  .debug_str:0000000000025360 .LASF5255
C:\Users\CYMR90~1\AppData\Local\Temp\ccX1amHi.s:22899  .debug_str:0000000000006f41 .LASF5256
C:\Users\CYMR90~1\AppData\Local\Temp\ccX1amHi.s:31002  .debug_str:0000000000027650 .LASF5257
C:\Users\CYMR90~1\AppData\Local\Temp\ccX1amHi.s:31494  .debug_str:000000000002967d .LASF5258
C:\Users\CYMR90~1\AppData\Local\Temp\ccX1amHi.s:29736  .debug_str:0000000000022539 .LASF5259
C:\Users\CYMR90~1\AppData\Local\Temp\ccX1amHi.s:26511  .debug_str:00000000000156ae .LASF5260
C:\Users\CYMR90~1\AppData\Local\Temp\ccX1amHi.s:23349  .debug_str:0000000000008d7b .LASF5261
C:\Users\CYMR90~1\AppData\Local\Temp\ccX1amHi.s:21935  .debug_str:0000000000003157 .LASF5262
C:\Users\CYMR90~1\AppData\Local\Temp\ccX1amHi.s:32190  .debug_str:000000000002c224 .LASF5263
C:\Users\CYMR90~1\AppData\Local\Temp\ccX1amHi.s:23533  .debug_str:00000000000098f6 .LASF5264
C:\Users\CYMR90~1\AppData\Local\Temp\ccX1amHi.s:23355  .debug_str:0000000000008dca .LASF5265
C:\Users\CYMR90~1\AppData\Local\Temp\ccX1amHi.s:25327  .debug_str:0000000000010b36 .LASF5266
C:\Users\CYMR90~1\AppData\Local\Temp\ccX1amHi.s:24887  .debug_str:000000000000ef72 .LASF5267
C:\Users\CYMR90~1\AppData\Local\Temp\ccX1amHi.s:31378  .debug_str:0000000000028f78 .LASF5268
C:\Users\CYMR90~1\AppData\Local\Temp\ccX1amHi.s:23469  .debug_str:00000000000094f3 .LASF5269
C:\Users\CYMR90~1\AppData\Local\Temp\ccX1amHi.s:32078  .debug_str:000000000002ba77 .LASF5270
C:\Users\CYMR90~1\AppData\Local\Temp\ccX1amHi.s:30670  .debug_str:000000000002612e .LASF5271
C:\Users\CYMR90~1\AppData\Local\Temp\ccX1amHi.s:25033  .debug_str:000000000000f8eb .LASF5272
C:\Users\CYMR90~1\AppData\Local\Temp\ccX1amHi.s:22225  .debug_str:00000000000044d9 .LASF5273
C:\Users\CYMR90~1\AppData\Local\Temp\ccX1amHi.s:27768  .debug_str:000000000001aa3e .LASF5274
C:\Users\CYMR90~1\AppData\Local\Temp\ccX1amHi.s:30424  .debug_str:0000000000024f9d .LASF5275
C:\Users\CYMR90~1\AppData\Local\Temp\ccX1amHi.s:24971  .debug_str:000000000000f4a4 .LASF5276
C:\Users\CYMR90~1\AppData\Local\Temp\ccX1amHi.s:21243  .debug_str:00000000000006c4 .LASF5277
C:\Users\CYMR90~1\AppData\Local\Temp\ccX1amHi.s:21195  .debug_str:0000000000000408 .LASF5278
C:\Users\CYMR90~1\AppData\Local\Temp\ccX1amHi.s:26749  .debug_str:00000000000165ba .LASF5279
C:\Users\CYMR90~1\AppData\Local\Temp\ccX1amHi.s:30074  .debug_str:0000000000023932 .LASF5280
C:\Users\CYMR90~1\AppData\Local\Temp\ccX1amHi.s:30722  .debug_str:0000000000026428 .LASF5281
C:\Users\CYMR90~1\AppData\Local\Temp\ccX1amHi.s:25875  .debug_str:0000000000012ed6 .LASF5282
C:\Users\CYMR90~1\AppData\Local\Temp\ccX1amHi.s:27804  .debug_str:000000000001ac91 .LASF5283
C:\Users\CYMR90~1\AppData\Local\Temp\ccX1amHi.s:21811  .debug_str:0000000000002995 .LASF5284
C:\Users\CYMR90~1\AppData\Local\Temp\ccX1amHi.s:26613  .debug_str:0000000000015d28 .LASF5285
C:\Users\CYMR90~1\AppData\Local\Temp\ccX1amHi.s:29196  .debug_str:000000000002040d .LASF5286
C:\Users\CYMR90~1\AppData\Local\Temp\ccX1amHi.s:28508  .debug_str:000000000001da32 .LASF5287
C:\Users\CYMR90~1\AppData\Local\Temp\ccX1amHi.s:23257  .debug_str:0000000000008806 .LASF5288
C:\Users\CYMR90~1\AppData\Local\Temp\ccX1amHi.s:29876  .debug_str:0000000000022d9a .LASF5289
C:\Users\CYMR90~1\AppData\Local\Temp\ccX1amHi.s:29188  .debug_str:000000000002038c .LASF5290
C:\Users\CYMR90~1\AppData\Local\Temp\ccX1amHi.s:22281  .debug_str:0000000000004936 .LASF5291
C:\Users\CYMR90~1\AppData\Local\Temp\ccX1amHi.s:22709  .debug_str:0000000000006361 .LASF5292
C:\Users\CYMR90~1\AppData\Local\Temp\ccX1amHi.s:29830  .debug_str:0000000000022a8e .LASF5293
C:\Users\CYMR90~1\AppData\Local\Temp\ccX1amHi.s:31570  .debug_str:0000000000029b0e .LASF5294
C:\Users\CYMR90~1\AppData\Local\Temp\ccX1amHi.s:27394  .debug_str:0000000000019044 .LASF5295
C:\Users\CYMR90~1\AppData\Local\Temp\ccX1amHi.s:24179  .debug_str:000000000000c2ca .LASF5296
C:\Users\CYMR90~1\AppData\Local\Temp\ccX1amHi.s:25395  .debug_str:0000000000010fac .LASF5297
C:\Users\CYMR90~1\AppData\Local\Temp\ccX1amHi.s:24001  .debug_str:000000000000b701 .LASF5298
C:\Users\CYMR90~1\AppData\Local\Temp\ccX1amHi.s:29284  .debug_str:00000000000209b6 .LASF5299
C:\Users\CYMR90~1\AppData\Local\Temp\ccX1amHi.s:26067  .debug_str:0000000000013b61 .LASF5300
C:\Users\CYMR90~1\AppData\Local\Temp\ccX1amHi.s:31518  .debug_str:0000000000029822 .LASF5301
C:\Users\CYMR90~1\AppData\Local\Temp\ccX1amHi.s:25215  .debug_str:0000000000010422 .LASF5302
C:\Users\CYMR90~1\AppData\Local\Temp\ccX1amHi.s:24435  .debug_str:000000000000d3cf .LASF5303
C:\Users\CYMR90~1\AppData\Local\Temp\ccX1amHi.s:28908  .debug_str:000000000001f2c6 .LASF5304
C:\Users\CYMR90~1\AppData\Local\Temp\ccX1amHi.s:32102  .debug_str:000000000002bbff .LASF5305
C:\Users\CYMR90~1\AppData\Local\Temp\ccX1amHi.s:29856  .debug_str:0000000000022c83 .LASF5306
C:\Users\CYMR90~1\AppData\Local\Temp\ccX1amHi.s:30004  .debug_str:000000000002349b .LASF5307
C:\Users\CYMR90~1\AppData\Local\Temp\ccX1amHi.s:23975  .debug_str:000000000000b4cc .LASF5308
C:\Users\CYMR90~1\AppData\Local\Temp\ccX1amHi.s:30124  .debug_str:0000000000023c14 .LASF5309
C:\Users\CYMR90~1\AppData\Local\Temp\ccX1amHi.s:21361  .debug_str:0000000000000e14 .LASF5310
C:\Users\CYMR90~1\AppData\Local\Temp\ccX1amHi.s:27640  .debug_str:000000000001a092 .LASF5311
C:\Users\CYMR90~1\AppData\Local\Temp\ccX1amHi.s:27178  .debug_str:00000000000182b6 .LASF5312
C:\Users\CYMR90~1\AppData\Local\Temp\ccX1amHi.s:29616  .debug_str:0000000000021e1c .LASF5313
C:\Users\CYMR90~1\AppData\Local\Temp\ccX1amHi.s:28020  .debug_str:000000000001ba41 .LASF5314
C:\Users\CYMR90~1\AppData\Local\Temp\ccX1amHi.s:23099  .debug_str:0000000000007ca4 .LASF5315
C:\Users\CYMR90~1\AppData\Local\Temp\ccX1amHi.s:22531  .debug_str:00000000000058aa .LASF5316
C:\Users\CYMR90~1\AppData\Local\Temp\ccX1amHi.s:22847  .debug_str:0000000000006bef .LASF5317
C:\Users\CYMR90~1\AppData\Local\Temp\ccX1amHi.s:24321  .debug_str:000000000000cc8f .LASF5318
C:\Users\CYMR90~1\AppData\Local\Temp\ccX1amHi.s:25685  .debug_str:000000000001223b .LASF5319
C:\Users\CYMR90~1\AppData\Local\Temp\ccX1amHi.s:24071  .debug_str:000000000000bb9d .LASF5320
C:\Users\CYMR90~1\AppData\Local\Temp\ccX1amHi.s:31114  .debug_str:0000000000027d9e .LASF5321
C:\Users\CYMR90~1\AppData\Local\Temp\ccX1amHi.s:30706  .debug_str:000000000002634e .LASF5322
C:\Users\CYMR90~1\AppData\Local\Temp\ccX1amHi.s:26421  .debug_str:00000000000151af .LASF5323
C:\Users\CYMR90~1\AppData\Local\Temp\ccX1amHi.s:21919  .debug_str:0000000000003042 .LASF5324
C:\Users\CYMR90~1\AppData\Local\Temp\ccX1amHi.s:25987  .debug_str:0000000000013686 .LASF5325
C:\Users\CYMR90~1\AppData\Local\Temp\ccX1amHi.s:32258  .debug_str:000000000002c6ac .LASF5326
C:\Users\CYMR90~1\AppData\Local\Temp\ccX1amHi.s:28550  .debug_str:000000000001dc83 .LASF5327
C:\Users\CYMR90~1\AppData\Local\Temp\ccX1amHi.s:27414  .debug_str:0000000000019249 .LASF5328
C:\Users\CYMR90~1\AppData\Local\Temp\ccX1amHi.s:29466  .debug_str:000000000002147b .LASF5329
C:\Users\CYMR90~1\AppData\Local\Temp\ccX1amHi.s:24399  .debug_str:000000000000d134 .LASF5330
C:\Users\CYMR90~1\AppData\Local\Temp\ccX1amHi.s:31514  .debug_str:00000000000297e6 .LASF5331
C:\Users\CYMR90~1\AppData\Local\Temp\ccX1amHi.s:27064  .debug_str:0000000000017bed .LASF5332
C:\Users\CYMR90~1\AppData\Local\Temp\ccX1amHi.s:26227  .debug_str:00000000000144ee .LASF5333
C:\Users\CYMR90~1\AppData\Local\Temp\ccX1amHi.s:21881  .debug_str:0000000000002dee .LASF5334
C:\Users\CYMR90~1\AppData\Local\Temp\ccX1amHi.s:26429  .debug_str:000000000001522d .LASF5335
C:\Users\CYMR90~1\AppData\Local\Temp\ccX1amHi.s:24461  .debug_str:000000000000d5e1 .LASF5336
C:\Users\CYMR90~1\AppData\Local\Temp\ccX1amHi.s:26095  .debug_str:0000000000013d43 .LASF5337
C:\Users\CYMR90~1\AppData\Local\Temp\ccX1amHi.s:28384  .debug_str:000000000001d234 .LASF5338
C:\Users\CYMR90~1\AppData\Local\Temp\ccX1amHi.s:23653  .debug_str:000000000000a0d0 .LASF5339
C:\Users\CYMR90~1\AppData\Local\Temp\ccX1amHi.s:30446  .debug_str:000000000002515c .LASF5340
C:\Users\CYMR90~1\AppData\Local\Temp\ccX1amHi.s:28414  .debug_str:000000000001d41a .LASF5341
C:\Users\CYMR90~1\AppData\Local\Temp\ccX1amHi.s:32338  .debug_str:000000000002cbf5 .LASF5342
C:\Users\CYMR90~1\AppData\Local\Temp\ccX1amHi.s:31690  .debug_str:000000000002a20e .LASF5343
C:\Users\CYMR90~1\AppData\Local\Temp\ccX1amHi.s:23685  .debug_str:000000000000a2bb .LASF5344
C:\Users\CYMR90~1\AppData\Local\Temp\ccX1amHi.s:24495  .debug_str:000000000000d7e0 .LASF5345
C:\Users\CYMR90~1\AppData\Local\Temp\ccX1amHi.s:29186  .debug_str:0000000000020375 .LASF5346
C:\Users\CYMR90~1\AppData\Local\Temp\ccX1amHi.s:30542  .debug_str:00000000000258fc .LASF5347
C:\Users\CYMR90~1\AppData\Local\Temp\ccX1amHi.s:24297  .debug_str:000000000000ca79 .LASF5348
C:\Users\CYMR90~1\AppData\Local\Temp\ccX1amHi.s:23715  .debug_str:000000000000a485 .LASF5349
C:\Users\CYMR90~1\AppData\Local\Temp\ccX1amHi.s:27862  .debug_str:000000000001afff .LASF5350
C:\Users\CYMR90~1\AppData\Local\Temp\ccX1amHi.s:25109  .debug_str:000000000000fd62 .LASF5351
C:\Users\CYMR90~1\AppData\Local\Temp\ccX1amHi.s:27336  .debug_str:0000000000018c59 .LASF5352
C:\Users\CYMR90~1\AppData\Local\Temp\ccX1amHi.s:24265  .debug_str:000000000000c805 .LASF5353
C:\Users\CYMR90~1\AppData\Local\Temp\ccX1amHi.s:24401  .debug_str:000000000000d14c .LASF5354
C:\Users\CYMR90~1\AppData\Local\Temp\ccX1amHi.s:25487  .debug_str:00000000000114b9 .LASF5355
C:\Users\CYMR90~1\AppData\Local\Temp\ccX1amHi.s:28544  .debug_str:000000000001dc22 .LASF5356
C:\Users\CYMR90~1\AppData\Local\Temp\ccX1amHi.s:23439  .debug_str:0000000000009314 .LASF5357
C:\Users\CYMR90~1\AppData\Local\Temp\ccX1amHi.s:23503  .debug_str:000000000000974f .LASF5358
C:\Users\CYMR90~1\AppData\Local\Temp\ccX1amHi.s:28438  .debug_str:000000000001d587 .LASF5359
C:\Users\CYMR90~1\AppData\Local\Temp\ccX1amHi.s:27000  .debug_str:00000000000177a9 .LASF5360
C:\Users\CYMR90~1\AppData\Local\Temp\ccX1amHi.s:22343  .debug_str:0000000000004d0e .LASF5361
C:\Users\CYMR90~1\AppData\Local\Temp\ccX1amHi.s:21143  .debug_str:00000000000000c8 .LASF5362
C:\Users\CYMR90~1\AppData\Local\Temp\ccX1amHi.s:29150  .debug_str:000000000002015a .LASF5363
C:\Users\CYMR90~1\AppData\Local\Temp\ccX1amHi.s:32384  .debug_str:000000000002cf2d .LASF5364
C:\Users\CYMR90~1\AppData\Local\Temp\ccX1amHi.s:28574  .debug_str:000000000001de57 .LASF5365
C:\Users\CYMR90~1\AppData\Local\Temp\ccX1amHi.s:22585  .debug_str:0000000000005be1 .LASF5366
C:\Users\CYMR90~1\AppData\Local\Temp\ccX1amHi.s:29694  .debug_str:00000000000222cf .LASF5367
C:\Users\CYMR90~1\AppData\Local\Temp\ccX1amHi.s:29386  .debug_str:0000000000020fed .LASF5368
C:\Users\CYMR90~1\AppData\Local\Temp\ccX1amHi.s:27642  .debug_str:000000000001a0a9 .LASF5369
C:\Users\CYMR90~1\AppData\Local\Temp\ccX1amHi.s:21235  .debug_str:0000000000000630 .LASF5370
C:\Users\CYMR90~1\AppData\Local\Temp\ccX1amHi.s:25713  .debug_str:00000000000123d3 .LASF5371
C:\Users\CYMR90~1\AppData\Local\Temp\ccX1amHi.s:28640  .debug_str:000000000001e28b .LASF5372
C:\Users\CYMR90~1\AppData\Local\Temp\ccX1amHi.s:25683  .debug_str:0000000000012222 .LASF5373
C:\Users\CYMR90~1\AppData\Local\Temp\ccX1amHi.s:22715  .debug_str:00000000000063c3 .LASF5374
C:\Users\CYMR90~1\AppData\Local\Temp\ccX1amHi.s:28836  .debug_str:000000000001ee26 .LASF5375
C:\Users\CYMR90~1\AppData\Local\Temp\ccX1amHi.s:27014  .debug_str:00000000000178ae .LASF5376
C:\Users\CYMR90~1\AppData\Local\Temp\ccX1amHi.s:21487  .debug_str:00000000000015ad .LASF5377
C:\Users\CYMR90~1\AppData\Local\Temp\ccX1amHi.s:29104  .debug_str:000000000001fe7b .LASF5378
C:\Users\CYMR90~1\AppData\Local\Temp\ccX1amHi.s:21825  .debug_str:0000000000002a87 .LASF5379
C:\Users\CYMR90~1\AppData\Local\Temp\ccX1amHi.s:26161  .debug_str:00000000000140fd .LASF5380
C:\Users\CYMR90~1\AppData\Local\Temp\ccX1amHi.s:21445  .debug_str:0000000000001334 .LASF5381
C:\Users\CYMR90~1\AppData\Local\Temp\ccX1amHi.s:30866  .debug_str:0000000000026d1c .LASF5382
C:\Users\CYMR90~1\AppData\Local\Temp\ccX1amHi.s:26671  .debug_str:0000000000016125 .LASF5383
C:\Users\CYMR90~1\AppData\Local\Temp\ccX1amHi.s:22049  .debug_str:000000000000391c .LASF5384
C:\Users\CYMR90~1\AppData\Local\Temp\ccX1amHi.s:23937  .debug_str:000000000000b2d7 .LASF5385
C:\Users\CYMR90~1\AppData\Local\Temp\ccX1amHi.s:30170  .debug_str:0000000000023e87 .LASF5386
C:\Users\CYMR90~1\AppData\Local\Temp\ccX1amHi.s:22613  .debug_str:0000000000005d9d .LASF5387
C:\Users\CYMR90~1\AppData\Local\Temp\ccX1amHi.s:31012  .debug_str:00000000000276e1 .LASF5388
C:\Users\CYMR90~1\AppData\Local\Temp\ccX1amHi.s:23199  .debug_str:0000000000008470 .LASF5389
C:\Users\CYMR90~1\AppData\Local\Temp\ccX1amHi.s:31978  .debug_str:000000000002b3aa .LASF5390
C:\Users\CYMR90~1\AppData\Local\Temp\ccX1amHi.s:29180  .debug_str:000000000002032a .LASF5391
C:\Users\CYMR90~1\AppData\Local\Temp\ccX1amHi.s:27492  .debug_str:00000000000196ce .LASF5392
C:\Users\CYMR90~1\AppData\Local\Temp\ccX1amHi.s:21371  .debug_str:0000000000000f28 .LASF5393
C:\Users\CYMR90~1\AppData\Local\Temp\ccX1amHi.s:29016  .debug_str:000000000001f91e .LASF5394
C:\Users\CYMR90~1\AppData\Local\Temp\ccX1amHi.s:22559  .debug_str:0000000000005a4a .LASF5395
C:\Users\CYMR90~1\AppData\Local\Temp\ccX1amHi.s:31948  .debug_str:000000000002b16f .LASF5396
C:\Users\CYMR90~1\AppData\Local\Temp\ccX1amHi.s:26737  .debug_str:000000000001650a .LASF5397
C:\Users\CYMR90~1\AppData\Local\Temp\ccX1amHi.s:26533  .debug_str:00000000000157f7 .LASF5398
C:\Users\CYMR90~1\AppData\Local\Temp\ccX1amHi.s:27558  .debug_str:0000000000019b9f .LASF5399
C:\Users\CYMR90~1\AppData\Local\Temp\ccX1amHi.s:30768  .debug_str:000000000002671c .LASF5400
C:\Users\CYMR90~1\AppData\Local\Temp\ccX1amHi.s:30328  .debug_str:00000000000249ba .LASF5401
C:\Users\CYMR90~1\AppData\Local\Temp\ccX1amHi.s:31926  .debug_str:000000000002b01e .LASF5402
C:\Users\CYMR90~1\AppData\Local\Temp\ccX1amHi.s:22097  .debug_str:0000000000003c19 .LASF5403
C:\Users\CYMR90~1\AppData\Local\Temp\ccX1amHi.s:28810  .debug_str:000000000001ecda .LASF5404
C:\Users\CYMR90~1\AppData\Local\Temp\ccX1amHi.s:28082  .debug_str:000000000001bdc1 .LASF5405
C:\Users\CYMR90~1\AppData\Local\Temp\ccX1amHi.s:25901  .debug_str:0000000000013071 .LASF5406
C:\Users\CYMR90~1\AppData\Local\Temp\ccX1amHi.s:31682  .debug_str:000000000002a1a1 .LASF5407
C:\Users\CYMR90~1\AppData\Local\Temp\ccX1amHi.s:31562  .debug_str:0000000000029a7d .LASF5408
C:\Users\CYMR90~1\AppData\Local\Temp\ccX1amHi.s:23527  .debug_str:000000000000988b .LASF5409
C:\Users\CYMR90~1\AppData\Local\Temp\ccX1amHi.s:32322  .debug_str:000000000002cad8 .LASF5410
C:\Users\CYMR90~1\AppData\Local\Temp\ccX1amHi.s:31386  .debug_str:0000000000028fd9 .LASF5411
C:\Users\CYMR90~1\AppData\Local\Temp\ccX1amHi.s:23539  .debug_str:000000000000994d .LASF5412
C:\Users\CYMR90~1\AppData\Local\Temp\ccX1amHi.s:29542  .debug_str:00000000000219b7 .LASF5413
C:\Users\CYMR90~1\AppData\Local\Temp\ccX1amHi.s:32290  .debug_str:000000000002c885 .LASF5414
C:\Users\CYMR90~1\AppData\Local\Temp\ccX1amHi.s:28788  .debug_str:000000000001eb8a .LASF5415
C:\Users\CYMR90~1\AppData\Local\Temp\ccX1amHi.s:31640  .debug_str:0000000000029f26 .LASF5416
C:\Users\CYMR90~1\AppData\Local\Temp\ccX1amHi.s:26611  .debug_str:0000000000015d08 .LASF5417
C:\Users\CYMR90~1\AppData\Local\Temp\ccX1amHi.s:28720  .debug_str:000000000001e74c .LASF5418
C:\Users\CYMR90~1\AppData\Local\Temp\ccX1amHi.s:25003  .debug_str:000000000000f66f .LASF5419
C:\Users\CYMR90~1\AppData\Local\Temp\ccX1amHi.s:24991  .debug_str:000000000000f5c2 .LASF5420
C:\Users\CYMR90~1\AppData\Local\Temp\ccX1amHi.s:29084  .debug_str:000000000001fd4b .LASF5421
C:\Users\CYMR90~1\AppData\Local\Temp\ccX1amHi.s:30760  .debug_str:00000000000266a2 .LASF5422
C:\Users\CYMR90~1\AppData\Local\Temp\ccX1amHi.s:21517  .debug_str:0000000000001842 .LASF5423
C:\Users\CYMR90~1\AppData\Local\Temp\ccX1amHi.s:27736  .debug_str:000000000001a7be .LASF5424
C:\Users\CYMR90~1\AppData\Local\Temp\ccX1amHi.s:21325  .debug_str:0000000000000c17 .LASF5425
C:\Users\CYMR90~1\AppData\Local\Temp\ccX1amHi.s:26823  .debug_str:0000000000016ae5 .LASF5426
C:\Users\CYMR90~1\AppData\Local\Temp\ccX1amHi.s:21633  .debug_str:0000000000001f08 .LASF5427
C:\Users\CYMR90~1\AppData\Local\Temp\ccX1amHi.s:26607  .debug_str:0000000000015c72 .LASF5428
C:\Users\CYMR90~1\AppData\Local\Temp\ccX1amHi.s:24745  .debug_str:000000000000e6af .LASF5429
C:\Users\CYMR90~1\AppData\Local\Temp\ccX1amHi.s:25489  .debug_str:00000000000114db .LASF5430
C:\Users\CYMR90~1\AppData\Local\Temp\ccX1amHi.s:23871  .debug_str:000000000000ae14 .LASF5431
C:\Users\CYMR90~1\AppData\Local\Temp\ccX1amHi.s:22145  .debug_str:0000000000003f5c .LASF5432
C:\Users\CYMR90~1\AppData\Local\Temp\ccX1amHi.s:32036  .debug_str:000000000002b76b .LASF5433
C:\Users\CYMR90~1\AppData\Local\Temp\ccX1amHi.s:31428  .debug_str:0000000000029294 .LASF5434
C:\Users\CYMR90~1\AppData\Local\Temp\ccX1amHi.s:29328  .debug_str:0000000000020c3f .LASF5435
C:\Users\CYMR90~1\AppData\Local\Temp\ccX1amHi.s:30018  .debug_str:000000000002356e .LASF5436
C:\Users\CYMR90~1\AppData\Local\Temp\ccX1amHi.s:25167  .debug_str:000000000001010c .LASF5437
C:\Users\CYMR90~1\AppData\Local\Temp\ccX1amHi.s:21427  .debug_str:0000000000001240 .LASF5438
C:\Users\CYMR90~1\AppData\Local\Temp\ccX1amHi.s:31954  .debug_str:000000000002b1d0 .LASF5439
C:\Users\CYMR90~1\AppData\Local\Temp\ccX1amHi.s:29654  .debug_str:0000000000022088 .LASF5440
C:\Users\CYMR90~1\AppData\Local\Temp\ccX1amHi.s:28576  .debug_str:000000000001de79 .LASF5441
C:\Users\CYMR90~1\AppData\Local\Temp\ccX1amHi.s:25173  .debug_str:0000000000010162 .LASF5442
C:\Users\CYMR90~1\AppData\Local\Temp\ccX1amHi.s:21605  .debug_str:0000000000001d57 .LASF5443
C:\Users\CYMR90~1\AppData\Local\Temp\ccX1amHi.s:27842  .debug_str:000000000001ae92 .LASF5444
C:\Users\CYMR90~1\AppData\Local\Temp\ccX1amHi.s:24619  .debug_str:000000000000df1f .LASF5445
C:\Users\CYMR90~1\AppData\Local\Temp\ccX1amHi.s:26167  .debug_str:0000000000014172 .LASF5446
C:\Users\CYMR90~1\AppData\Local\Temp\ccX1amHi.s:31250  .debug_str:000000000002873f .LASF5447
C:\Users\CYMR90~1\AppData\Local\Temp\ccX1amHi.s:32188  .debug_str:000000000002c1eb .LASF5448
C:\Users\CYMR90~1\AppData\Local\Temp\ccX1amHi.s:22555  .debug_str:0000000000005a0b .LASF5449
C:\Users\CYMR90~1\AppData\Local\Temp\ccX1amHi.s:27214  .debug_str:00000000000184c8 .LASF5450
C:\Users\CYMR90~1\AppData\Local\Temp\ccX1amHi.s:26451  .debug_str:00000000000153b0 .LASF5451
C:\Users\CYMR90~1\AppData\Local\Temp\ccX1amHi.s:32022  .debug_str:000000000002b688 .LASF5452
C:\Users\CYMR90~1\AppData\Local\Temp\ccX1amHi.s:30628  .debug_str:0000000000025e7a .LASF5453
C:\Users\CYMR90~1\AppData\Local\Temp\ccX1amHi.s:22643  .debug_str:0000000000005f45 .LASF5454
C:\Users\CYMR90~1\AppData\Local\Temp\ccX1amHi.s:26393  .debug_str:0000000000015004 .LASF5455
C:\Users\CYMR90~1\AppData\Local\Temp\ccX1amHi.s:25633  .debug_str:0000000000011ef7 .LASF5456
C:\Users\CYMR90~1\AppData\Local\Temp\ccX1amHi.s:30456  .debug_str:00000000000251e9 .LASF5457
C:\Users\CYMR90~1\AppData\Local\Temp\ccX1amHi.s:26387  .debug_str:0000000000014f76 .LASF5458
C:\Users\CYMR90~1\AppData\Local\Temp\ccX1amHi.s:31364  .debug_str:0000000000028e65 .LASF5459
C:\Users\CYMR90~1\AppData\Local\Temp\ccX1amHi.s:21249  .debug_str:0000000000000710 .LASF5460
C:\Users\CYMR90~1\AppData\Local\Temp\ccX1amHi.s:28000  .debug_str:000000000001b8e9 .LASF5461
C:\Users\CYMR90~1\AppData\Local\Temp\ccX1amHi.s:26447  .debug_str:000000000001534f .LASF5462
C:\Users\CYMR90~1\AppData\Local\Temp\ccX1amHi.s:30522  .debug_str:000000000002574a .LASF5463
C:\Users\CYMR90~1\AppData\Local\Temp\ccX1amHi.s:26311  .debug_str:0000000000014a62 .LASF5464
C:\Users\CYMR90~1\AppData\Local\Temp\ccX1amHi.s:24419  .debug_str:000000000000d2a3 .LASF5465
C:\Users\CYMR90~1\AppData\Local\Temp\ccX1amHi.s:26569  .debug_str:0000000000015a37 .LASF5466
C:\Users\CYMR90~1\AppData\Local\Temp\ccX1amHi.s:31502  .debug_str:00000000000296e3 .LASF5467
C:\Users\CYMR90~1\AppData\Local\Temp\ccX1amHi.s:22077  .debug_str:0000000000003ad1 .LASF5468
C:\Users\CYMR90~1\AppData\Local\Temp\ccX1amHi.s:30676  .debug_str:00000000000261a3 .LASF5469
C:\Users\CYMR90~1\AppData\Local\Temp\ccX1amHi.s:30920  .debug_str:000000000002709b .LASF5470
C:\Users\CYMR90~1\AppData\Local\Temp\ccX1amHi.s:31582  .debug_str:0000000000029bc0 .LASF5471
C:\Users\CYMR90~1\AppData\Local\Temp\ccX1amHi.s:24841  .debug_str:000000000000ed1d .LASF5472
C:\Users\CYMR90~1\AppData\Local\Temp\ccX1amHi.s:28624  .debug_str:000000000001e188 .LASF5473
C:\Users\CYMR90~1\AppData\Local\Temp\ccX1amHi.s:26633  .debug_str:0000000000015e6b .LASF5474
C:\Users\CYMR90~1\AppData\Local\Temp\ccX1amHi.s:25503  .debug_str:00000000000115d0 .LASF5475
C:\Users\CYMR90~1\AppData\Local\Temp\ccX1amHi.s:29416  .debug_str:000000000002118a .LASF5476
C:\Users\CYMR90~1\AppData\Local\Temp\ccX1amHi.s:27912  .debug_str:000000000001b396 .LASF5477
C:\Users\CYMR90~1\AppData\Local\Temp\ccX1amHi.s:27778  .debug_str:000000000001aacb .LASF5478
C:\Users\CYMR90~1\AppData\Local\Temp\ccX1amHi.s:21137  .debug_str:000000000000006a .LASF5479
C:\Users\CYMR90~1\AppData\Local\Temp\ccX1amHi.s:25063  .debug_str:000000000000fa82 .LASF5480
C:\Users\CYMR90~1\AppData\Local\Temp\ccX1amHi.s:22849  .debug_str:0000000000006c06 .LASF5481
C:\Users\CYMR90~1\AppData\Local\Temp\ccX1amHi.s:23579  .debug_str:0000000000009c4d .LASF5482
C:\Users\CYMR90~1\AppData\Local\Temp\ccX1amHi.s:24539  .debug_str:000000000000da57 .LASF5483
C:\Users\CYMR90~1\AppData\Local\Temp\ccX1amHi.s:24533  .debug_str:000000000000d9fa .LASF5484
C:\Users\CYMR90~1\AppData\Local\Temp\ccX1amHi.s:28626  .debug_str:000000000001e1aa .LASF5485
C:\Users\CYMR90~1\AppData\Local\Temp\ccX1amHi.s:29790  .debug_str:000000000002283a .LASF5486
C:\Users\CYMR90~1\AppData\Local\Temp\ccX1amHi.s:23903  .debug_str:000000000000b0e8 .LASF5487
C:\Users\CYMR90~1\AppData\Local\Temp\ccX1amHi.s:25417  .debug_str:00000000000110c9 .LASF5488
C:\Users\CYMR90~1\AppData\Local\Temp\ccX1amHi.s:31912  .debug_str:000000000002af6e .LASF5489
C:\Users\CYMR90~1\AppData\Local\Temp\ccX1amHi.s:23749  .debug_str:000000000000a6a8 .LASF5490
C:\Users\CYMR90~1\AppData\Local\Temp\ccX1amHi.s:28392  .debug_str:000000000001d2b5 .LASF5491
C:\Users\CYMR90~1\AppData\Local\Temp\ccX1amHi.s:28046  .debug_str:000000000001bb78 .LASF5492
C:\Users\CYMR90~1\AppData\Local\Temp\ccX1amHi.s:24403  .debug_str:000000000000d188 .LASF5493
C:\Users\CYMR90~1\AppData\Local\Temp\ccX1amHi.s:28760  .debug_str:000000000001e9d7 .LASF5494
C:\Users\CYMR90~1\AppData\Local\Temp\ccX1amHi.s:22935  .debug_str:00000000000071c7 .LASF5495
C:\Users\CYMR90~1\AppData\Local\Temp\ccX1amHi.s:21387  .debug_str:0000000000000ffc .LASF5496
C:\Users\CYMR90~1\AppData\Local\Temp\ccX1amHi.s:29914  .debug_str:0000000000022fba .LASF5497
C:\Users\CYMR90~1\AppData\Local\Temp\ccX1amHi.s:24217  .debug_str:000000000000c501 .LASF5498
C:\Users\CYMR90~1\AppData\Local\Temp\ccX1amHi.s:26683  .debug_str:000000000001620d .LASF5499
C:\Users\CYMR90~1\AppData\Local\Temp\ccX1amHi.s:24121  .debug_str:000000000000bf34 .LASF5500
C:\Users\CYMR90~1\AppData\Local\Temp\ccX1amHi.s:24251  .debug_str:000000000000c700 .LASF5501
C:\Users\CYMR90~1\AppData\Local\Temp\ccX1amHi.s:30436  .debug_str:0000000000025041 .LASF5502
C:\Users\CYMR90~1\AppData\Local\Temp\ccX1amHi.s:22357  .debug_str:0000000000004df3 .LASF5503
C:\Users\CYMR90~1\AppData\Local\Temp\ccX1amHi.s:28066  .debug_str:000000000001bc88 .LASF5504
C:\Users\CYMR90~1\AppData\Local\Temp\ccX1amHi.s:23511  .debug_str:00000000000097ba .LASF5505
C:\Users\CYMR90~1\AppData\Local\Temp\ccX1amHi.s:27356  .debug_str:0000000000018e24 .LASF5506
C:\Users\CYMR90~1\AppData\Local\Temp\ccX1amHi.s:29842  .debug_str:0000000000022b27 .LASF5507
C:\Users\CYMR90~1\AppData\Local\Temp\ccX1amHi.s:22611  .debug_str:0000000000005d82 .LASF5508
C:\Users\CYMR90~1\AppData\Local\Temp\ccX1amHi.s:21399  .debug_str:00000000000010a3 .LASF5509
C:\Users\CYMR90~1\AppData\Local\Temp\ccX1amHi.s:26529  .debug_str:00000000000157c0 .LASF5510
C:\Users\CYMR90~1\AppData\Local\Temp\ccX1amHi.s:21343  .debug_str:0000000000000d0b .LASF5511
C:\Users\CYMR90~1\AppData\Local\Temp\ccX1amHi.s:28980  .debug_str:000000000001f704 .LASF5512
C:\Users\CYMR90~1\AppData\Local\Temp\ccX1amHi.s:24623  .debug_str:000000000000df5d .LASF5513
C:\Users\CYMR90~1\AppData\Local\Temp\ccX1amHi.s:32142  .debug_str:000000000002beb3 .LASF5514
C:\Users\CYMR90~1\AppData\Local\Temp\ccX1amHi.s:23597  .debug_str:0000000000009d86 .LASF5515
C:\Users\CYMR90~1\AppData\Local\Temp\ccX1amHi.s:25957  .debug_str:00000000000134ae .LASF5516
C:\Users\CYMR90~1\AppData\Local\Temp\ccX1amHi.s:28076  .debug_str:000000000001bd58 .LASF5517
C:\Users\CYMR90~1\AppData\Local\Temp\ccX1amHi.s:21679  .debug_str:0000000000002169 .LASF5518
C:\Users\CYMR90~1\AppData\Local\Temp\ccX1amHi.s:21613  .debug_str:0000000000001dea .LASF5519
C:\Users\CYMR90~1\AppData\Local\Temp\ccX1amHi.s:32350  .debug_str:000000000002cc8a .LASF5520
C:\Users\CYMR90~1\AppData\Local\Temp\ccX1amHi.s:25433  .debug_str:00000000000111ac .LASF5521
C:\Users\CYMR90~1\AppData\Local\Temp\ccX1amHi.s:28874  .debug_str:000000000001f058 .LASF5522
C:\Users\CYMR90~1\AppData\Local\Temp\ccX1amHi.s:26237  .debug_str:000000000001457b .LASF5523
C:\Users\CYMR90~1\AppData\Local\Temp\ccX1amHi.s:31790  .debug_str:000000000002a821 .LASF5524
C:\Users\CYMR90~1\AppData\Local\Temp\ccX1amHi.s:29802  .debug_str:00000000000228e8 .LASF5525
C:\Users\CYMR90~1\AppData\Local\Temp\ccX1amHi.s:31038  .debug_str:0000000000027849 .LASF5526
C:\Users\CYMR90~1\AppData\Local\Temp\ccX1amHi.s:31490  .debug_str:000000000002965a .LASF5527
C:\Users\CYMR90~1\AppData\Local\Temp\ccX1amHi.s:32148  .debug_str:000000000002befc .LASF5528
C:\Users\CYMR90~1\AppData\Local\Temp\ccX1amHi.s:26213  .debug_str:000000000001443b .LASF5529
C:\Users\CYMR90~1\AppData\Local\Temp\ccX1amHi.s:22291  .debug_str:00000000000049d1 .LASF5530
C:\Users\CYMR90~1\AppData\Local\Temp\ccX1amHi.s:32380  .debug_str:000000000002cee5 .LASF5531
C:\Users\CYMR90~1\AppData\Local\Temp\ccX1amHi.s:28958  .debug_str:000000000001f5b4 .LASF5532
C:\Users\CYMR90~1\AppData\Local\Temp\ccX1amHi.s:23215  .debug_str:0000000000008586 .LASF5533
C:\Users\CYMR90~1\AppData\Local\Temp\ccX1amHi.s:29952  .debug_str:00000000000231c7 .LASF5534
C:\Users\CYMR90~1\AppData\Local\Temp\ccX1amHi.s:32144  .debug_str:000000000002bed5 .LASF5535
C:\Users\CYMR90~1\AppData\Local\Temp\ccX1amHi.s:22637  .debug_str:0000000000005eea .LASF5536
C:\Users\CYMR90~1\AppData\Local\Temp\ccX1amHi.s:26703  .debug_str:000000000001632d .LASF5537
C:\Users\CYMR90~1\AppData\Local\Temp\ccX1amHi.s:25539  .debug_str:0000000000011811 .LASF5538
C:\Users\CYMR90~1\AppData\Local\Temp\ccX1amHi.s:28008  .debug_str:000000000001b96d .LASF5539
C:\Users\CYMR90~1\AppData\Local\Temp\ccX1amHi.s:29552  .debug_str:0000000000021a53 .LASF5540
C:\Users\CYMR90~1\AppData\Local\Temp\ccX1amHi.s:22191  .debug_str:0000000000004284 .LASF5541
C:\Users\CYMR90~1\AppData\Local\Temp\ccX1amHi.s:29342  .debug_str:0000000000020d4b .LASF5542
C:\Users\CYMR90~1\AppData\Local\Temp\ccX1amHi.s:26659  .debug_str:000000000001604a .LASF5543
C:\Users\CYMR90~1\AppData\Local\Temp\ccX1amHi.s:31426  .debug_str:000000000002926f .LASF5544
C:\Users\CYMR90~1\AppData\Local\Temp\ccX1amHi.s:23813  .debug_str:000000000000aa82 .LASF5545
C:\Users\CYMR90~1\AppData\Local\Temp\ccX1amHi.s:27696  .debug_str:000000000001a576 .LASF5546
C:\Users\CYMR90~1\AppData\Local\Temp\ccX1amHi.s:31232  .debug_str:00000000000285fe .LASF5547
C:\Users\CYMR90~1\AppData\Local\Temp\ccX1amHi.s:21529  .debug_str:000000000000190c .LASF5548
C:\Users\CYMR90~1\AppData\Local\Temp\ccX1amHi.s:23323  .debug_str:0000000000008c0e .LASF5549
C:\Users\CYMR90~1\AppData\Local\Temp\ccX1amHi.s:21339  .debug_str:0000000000000cd4 .LASF5550
C:\Users\CYMR90~1\AppData\Local\Temp\ccX1amHi.s:27838  .debug_str:000000000001ae5b .LASF5551
C:\Users\CYMR90~1\AppData\Local\Temp\ccX1amHi.s:30096  .debug_str:0000000000023a8c .LASF5552
C:\Users\CYMR90~1\AppData\Local\Temp\ccX1amHi.s:21625  .debug_str:0000000000001eaa .LASF5553
C:\Users\CYMR90~1\AppData\Local\Temp\ccX1amHi.s:22235  .debug_str:000000000000458f .LASF5554
C:\Users\CYMR90~1\AppData\Local\Temp\ccX1amHi.s:21439  .debug_str:00000000000012d5 .LASF5555
                           .group:0000000000000000 wm4.0.10abbef32179bc1260444192115bdf5e
                           .group:0000000000000000 wm4.stddef.h.39.144cf5ddcd53cbfdac30259dc1a6c87f
                           .group:0000000000000000 wm4._newlib_version.h.4.bfdf54b0af045d4a71376ae00f63a22c
                           .group:0000000000000000 wm4.newlib.h.18.08a2ecba46890ca2aa56bbe21686e6c3
                           .group:0000000000000000 wm4.ieeefp.h.202.4f2759f5758fd82153cfbf98692f2ced
                           .group:0000000000000000 wm4.features.h.22.fad1cec3bc7ff06488171438dbdcfd02
                           .group:0000000000000000 wm4.config.h.83.13bbc8852bfac55b724c9822481355b5
                           .group:0000000000000000 wm4._ansi.h.31.de524f58584151836e90d8620a16f8e8
                           .group:0000000000000000 wm4.stdio.h.31.7c0e28c411445f3f9c5b11accf882760
                           .group:0000000000000000 wm4._default_types.h.6.959254cf5f09734ea7516c89e8bb21bd
                           .group:0000000000000000 wm4.stddef.h.155.ba788add86a0e365f264484f110c3c29
                           .group:0000000000000000 wm4.cdefs.h.49.39045112216f6a021dbdffe3bf5accce
                           .group:0000000000000000 wm4.stdarg.h.34.3a23a216c0c293b3d2ea2e89281481e6
                           .group:0000000000000000 wm4._types.h.20.dd0d04dca3800a0d2a6129b87f3adbb2
                           .group:0000000000000000 wm4.stddef.h.155.3588ebfdd1e8c7ede80509bb9c3b8009
                           .group:0000000000000000 wm4._types.h.127.34941de1b2539d59d5cac00e0dd27a45
                           .group:0000000000000000 wm4.reent.h.17.e292bf8b0bec6c96e131a54347145a30
                           .group:0000000000000000 wm4.lock.h.2.c0958401bd0ce484d507ee19aacab817
                           .group:0000000000000000 wm4.reent.h.77.dcd6129ff07fe81bd5636db29abe53b2
                           .group:0000000000000000 wm4.types.h.40.8b6acba56cefbb11746718204edc8f5e
                           .group:0000000000000000 wm4._stdint.h.10.c24fa3af3bc1706662bb5593a907e841
                           .group:0000000000000000 wm4._endian.h.18.1bf9649e8e5bbc91042012680270b9ed
                           .group:0000000000000000 wm4.endian.h.9.49f3a4695c1b61e8a0808de3c4a106cb
                           .group:0000000000000000 wm4._timeval.h.32.bec3221fa7a9bb0bdde696c9c57e47d2
                           .group:0000000000000000 wm4.timespec.h.41.d855182eb0e690443ab8651bcedca6e1
                           .group:0000000000000000 wm4.select.h.19.40cd3f2bfc456b193b790c2754690ebf
                           .group:0000000000000000 wm4.types.h.51.5571ec98f267d17d3c670b7a3ba33afa
                           .group:0000000000000000 wm4.sched.h.22.c60982713a5c428609783c78f9c78d95
                           .group:0000000000000000 wm4._pthreadtypes.h.36.fcee9961c35163dde6267ef772ad1972
                           .group:0000000000000000 wm4.stdio.h.2.4aa87247282eca6c8f36f9de33d8df1a
                           .group:0000000000000000 wm4.stdio.h.81.932d0c162786b883f622b8d05c120c78
                           .group:0000000000000000 wm4.gd32vw55x.h.47.379378190858578060a317909b2c8d8a
                           .group:0000000000000000 wm4._intsup.h.10.48bafbb683905c4daa4565a85aeeb264
                           .group:0000000000000000 wm4.stdint.h.23.d53047a68f4a85177f80b422d52785ed
                           .group:0000000000000000 wm4.nmsis_version.h.19.ffa173da8efb17b1050904994d6f500e
                           .group:0000000000000000 wm4.riscv_bits.h.19.ee94eb3d39937793d4cd0a62363e5d00
                           .group:0000000000000000 wm4.riscv_encoding.h.35.f5d37fad7abbab8278b4bb6f1e32fa65
                           .group:0000000000000000 wm4.nmsis_gcc.h.61.5d70d7598ffc79c3c991d847a574cf23
                           .group:0000000000000000 wm4.core_feature_base.h.20.e99d3e75c26a8f3341d35bf20d0e1d20
                           .group:0000000000000000 wm4.core_feature_fpu.h.19.695f2200274659b530cb97cda749ff4f
                           .group:0000000000000000 wm4.core_feature_dsp.h.19.e8f8d7aa42f197807aefedb6584486cd
                           .group:0000000000000000 wm4.core_compatiable.h.19.5b8282d61b1f6889a82895616b730084
                           .group:0000000000000000 wm4.core_feature_eclic.h.19.e0c091d0cbda79e8b3b031b979ebd5a1
                           .group:0000000000000000 wm4.core_feature_timer.h.19.21a5151282de34c37dfa6d84e262aa54
                           .group:0000000000000000 wm4.system_gd32vw55x.h.32.f1fcb1212d387c35ac955b0e96ada468
                           .group:0000000000000000 wm4.gd32vw55x.h.231.3529c650aff38c9372f7e03177fd2c8a
                           .group:0000000000000000 wm4.gd32vw55x_adc.h.42.ae73acec1704ef509ccecb41a875b50e
                           .group:0000000000000000 wm4.gd32vw55x_cau.h.36.c98428fe1eae7edb4721da5c8078c974
                           .group:0000000000000000 wm4.gd32vw55x_crc.h.37.c58f296814c2300a4b067c08bd88d54e
                           .group:0000000000000000 wm4.gd32vw55x_dbg.h.36.311650c8545549d482ceca8befc5a232
                           .group:0000000000000000 wm4.gd32vw55x_dma.h.36.f4adc751172b2a7b1533dda72e948737
                           .group:0000000000000000 wm4.gd32vw55x_eclic.h.36.0411499f2b2493c67246e32ccae096c1
                           .group:0000000000000000 wm4.gd32vw55x_efuse.h.36.091404cecbab70359dfd93faec5fdb62
                           .group:0000000000000000 wm4.gd32vw55x_exti.h.36.de7508334dd12f1a6a673521a1a835f5
                           .group:0000000000000000 wm4.gd32vw55x_fwdgt.h.36.4846b6900fd24b5bfce4986c9a8ce677
                           .group:0000000000000000 wm4.gd32vw55x_gpio.h.36.adfee1371bb58d3d9043c47bdb25a90f
                           .group:0000000000000000 wm4.gd32vw55x_hau.h.36.f3cbcbd7b67c9e5bdc7a1100b1bf3458
                           .group:0000000000000000 wm4.gd32vw55x_i2c.h.36.3848990933925e084eb427083790c53f
                           .group:0000000000000000 wm4.gd32vw55x_pkcau.h.36.bb2235f4cf4967063a51bfa9aca5ef27
                           .group:0000000000000000 wm4.gd32vw55x_pmu.h.36.4c76091f1415551526d489ccf2c42052
                           .group:0000000000000000 wm4.gd32vw55x_qspi.h.36.2d2c181cfe19b935a9641008fc786613
                           .group:0000000000000000 wm4.gd32vw55x_rcu.h.36.780a8a45c00d563711cceb445027ef47
                           .group:0000000000000000 wm4.gd32vw55x_rtc.h.36.3172855e8715659e080e0eab46fdf175
                           .group:0000000000000000 wm4.gd32vw55x_spi.h.36.9fa1be2b09fb73e4b5886e97f0e96d58
                           .group:0000000000000000 wm4.gd32vw55x_syscfg.h.36.010551f05591f5e34051d2e15df0352b
                           .group:0000000000000000 wm4.gd32vw55x_timer.h.38.2cbee78ea60d47145be361b2d2c55070
                           .group:0000000000000000 wm4.gd32vw55x_trng.h.36.c9e7807af1b1ab68d3bbb54f4ed5cd73
                           .group:0000000000000000 wm4.gd32vw55x_usart.h.36.f5c497cca17945a34f154b0e17017d02
                           .group:0000000000000000 wm4.gd32vw55x_wwdgt.h.36.f7a443b7302efc0e5c335888582ee197
                           .group:0000000000000000 wm4.gd32vw55x_fmc.h.41.19f631b44741defa5abffa92dca975b8

NO UNDEFINED SYMBOLS
