   1              		.file	"gd32vw55x_gpio.c"
   2              		.option nopic
   3              		.attribute arch, "rv32i2p0_m2p0_a2p0_c2p0"
   4              		.attribute unaligned_access, 0
   5              		.attribute stack_align, 16
   6              		.text
   7              	.Ltext0:
   8              		.cfi_sections	.debug_frame
   9              		.section	.text.gpio_deinit,"ax",@progbits
  10              		.align	1
  11              		.globl	gpio_deinit
  13              	gpio_deinit:
  14              	.LFB347:
  15              		.file 1 "../Firmware/GD32VW55x_standard_peripheral/Source/gd32vw55x_gpio.c"
   1:../Firmware/GD32VW55x_standard_peripheral/Source/gd32vw55x_gpio.c **** /*!
   2:../Firmware/GD32VW55x_standard_peripheral/Source/gd32vw55x_gpio.c ****     \file    gd32vw55x_gpio.c
   3:../Firmware/GD32VW55x_standard_peripheral/Source/gd32vw55x_gpio.c ****     \brief   GPIO driver
   4:../Firmware/GD32VW55x_standard_peripheral/Source/gd32vw55x_gpio.c **** 
   5:../Firmware/GD32VW55x_standard_peripheral/Source/gd32vw55x_gpio.c ****     \version 2025-01-16, V1.4.0, firmware for GD32VW55x
   6:../Firmware/GD32VW55x_standard_peripheral/Source/gd32vw55x_gpio.c **** */
   7:../Firmware/GD32VW55x_standard_peripheral/Source/gd32vw55x_gpio.c **** 
   8:../Firmware/GD32VW55x_standard_peripheral/Source/gd32vw55x_gpio.c **** /*
   9:../Firmware/GD32VW55x_standard_peripheral/Source/gd32vw55x_gpio.c ****     Copyright (c) 2025, GigaDevice Semiconductor Inc.
  10:../Firmware/GD32VW55x_standard_peripheral/Source/gd32vw55x_gpio.c **** 
  11:../Firmware/GD32VW55x_standard_peripheral/Source/gd32vw55x_gpio.c ****     Redistribution and use in source and binary forms, with or without modification,
  12:../Firmware/GD32VW55x_standard_peripheral/Source/gd32vw55x_gpio.c **** are permitted provided that the following conditions are met:
  13:../Firmware/GD32VW55x_standard_peripheral/Source/gd32vw55x_gpio.c **** 
  14:../Firmware/GD32VW55x_standard_peripheral/Source/gd32vw55x_gpio.c ****     1. Redistributions of source code must retain the above copyright notice, this
  15:../Firmware/GD32VW55x_standard_peripheral/Source/gd32vw55x_gpio.c ****        list of conditions and the following disclaimer.
  16:../Firmware/GD32VW55x_standard_peripheral/Source/gd32vw55x_gpio.c ****     2. Redistributions in binary form must reproduce the above copyright notice,
  17:../Firmware/GD32VW55x_standard_peripheral/Source/gd32vw55x_gpio.c ****        this list of conditions and the following disclaimer in the documentation
  18:../Firmware/GD32VW55x_standard_peripheral/Source/gd32vw55x_gpio.c ****        and/or other materials provided with the distribution.
  19:../Firmware/GD32VW55x_standard_peripheral/Source/gd32vw55x_gpio.c ****     3. Neither the name of the copyright holder nor the names of its contributors
  20:../Firmware/GD32VW55x_standard_peripheral/Source/gd32vw55x_gpio.c ****        may be used to endorse or promote products derived from this software without
  21:../Firmware/GD32VW55x_standard_peripheral/Source/gd32vw55x_gpio.c ****        specific prior written permission.
  22:../Firmware/GD32VW55x_standard_peripheral/Source/gd32vw55x_gpio.c **** 
  23:../Firmware/GD32VW55x_standard_peripheral/Source/gd32vw55x_gpio.c ****     THIS SOFTWARE IS PROVIDED BY THE COPYRIGHT HOLDERS AND CONTRIBUTORS "AS IS"
  24:../Firmware/GD32VW55x_standard_peripheral/Source/gd32vw55x_gpio.c **** AND ANY EXPRESS OR IMPLIED WARRANTIES, INCLUDING, BUT NOT LIMITED TO, THE IMPLIED
  25:../Firmware/GD32VW55x_standard_peripheral/Source/gd32vw55x_gpio.c **** WARRANTIES OF MERCHANTABILITY AND FITNESS FOR A PARTICULAR PURPOSE ARE DISCLAIMED.
  26:../Firmware/GD32VW55x_standard_peripheral/Source/gd32vw55x_gpio.c **** IN NO EVENT SHALL THE COPYRIGHT HOLDER OR CONTRIBUTORS BE LIABLE FOR ANY DIRECT,
  27:../Firmware/GD32VW55x_standard_peripheral/Source/gd32vw55x_gpio.c **** INDIRECT, INCIDENTAL, SPECIAL, EXEMPLARY, OR CONSEQUENTIAL DAMAGES (INCLUDING, BUT
  28:../Firmware/GD32VW55x_standard_peripheral/Source/gd32vw55x_gpio.c **** NOT LIMITED TO, PROCUREMENT OF SUBSTITUTE GOODS OR SERVICES; LOSS OF USE, DATA, OR
  29:../Firmware/GD32VW55x_standard_peripheral/Source/gd32vw55x_gpio.c **** PROFITS; OR BUSINESS INTERRUPTION) HOWEVER CAUSED AND ON ANY THEORY OF LIABILITY,
  30:../Firmware/GD32VW55x_standard_peripheral/Source/gd32vw55x_gpio.c **** WHETHER IN CONTRACT, STRICT LIABILITY, OR TORT (INCLUDING NEGLIGENCE OR OTHERWISE)
  31:../Firmware/GD32VW55x_standard_peripheral/Source/gd32vw55x_gpio.c **** ARISING IN ANY WAY OUT OF THE USE OF THIS SOFTWARE, EVEN IF ADVISED OF THE POSSIBILITY
  32:../Firmware/GD32VW55x_standard_peripheral/Source/gd32vw55x_gpio.c **** OF SUCH DAMAGE.
  33:../Firmware/GD32VW55x_standard_peripheral/Source/gd32vw55x_gpio.c **** */
  34:../Firmware/GD32VW55x_standard_peripheral/Source/gd32vw55x_gpio.c **** 
  35:../Firmware/GD32VW55x_standard_peripheral/Source/gd32vw55x_gpio.c **** #include "gd32vw55x_gpio.h"
  36:../Firmware/GD32VW55x_standard_peripheral/Source/gd32vw55x_gpio.c **** 
  37:../Firmware/GD32VW55x_standard_peripheral/Source/gd32vw55x_gpio.c **** /*!
  38:../Firmware/GD32VW55x_standard_peripheral/Source/gd32vw55x_gpio.c ****     \brief      reset GPIO port
  39:../Firmware/GD32VW55x_standard_peripheral/Source/gd32vw55x_gpio.c ****     \param[in]  gpio_periph: GPIOx(x = A,B,C)
  40:../Firmware/GD32VW55x_standard_peripheral/Source/gd32vw55x_gpio.c ****                 only one parameter can be selected which is shown as below:
  41:../Firmware/GD32VW55x_standard_peripheral/Source/gd32vw55x_gpio.c ****       \arg        GPIOx(x = A,B,C)
  42:../Firmware/GD32VW55x_standard_peripheral/Source/gd32vw55x_gpio.c ****     \param[out] none
  43:../Firmware/GD32VW55x_standard_peripheral/Source/gd32vw55x_gpio.c ****     \retval     none
  44:../Firmware/GD32VW55x_standard_peripheral/Source/gd32vw55x_gpio.c **** */
  45:../Firmware/GD32VW55x_standard_peripheral/Source/gd32vw55x_gpio.c **** void gpio_deinit(uint32_t gpio_periph)
  46:../Firmware/GD32VW55x_standard_peripheral/Source/gd32vw55x_gpio.c **** {
  16              		.loc 1 46 1
  17              		.cfi_startproc
  18 0000 0111     		addi	sp,sp,-32
  19              		.cfi_def_cfa_offset 32
  20 0002 06CE     		sw	ra,28(sp)
  21 0004 22CC     		sw	s0,24(sp)
  22              		.cfi_offset 1, -4
  23              		.cfi_offset 8, -8
  24 0006 0010     		addi	s0,sp,32
  25              		.cfi_def_cfa 8, 0
  26 0008 2326A4FE 		sw	a0,-20(s0)
  47:../Firmware/GD32VW55x_standard_peripheral/Source/gd32vw55x_gpio.c ****     switch(gpio_periph) {
  27              		.loc 1 47 5
  28 000c 0327C4FE 		lw	a4,-20(s0)
  29 0010 B7170240 		li	a5,1073876992
  30 0014 93870780 		addi	a5,a5,-2048
  31 0018 6303F706 		beq	a4,a5,.L2
  32 001c 0327C4FE 		lw	a4,-20(s0)
  33 0020 B7170240 		li	a5,1073876992
  34 0024 93870780 		addi	a5,a5,-2048
  35 0028 63E8E706 		bgtu	a4,a5,.L7
  36 002c 0327C4FE 		lw	a4,-20(s0)
  37 0030 B7070240 		li	a5,1073872896
  38 0034 630BF700 		beq	a4,a5,.L4
  39 0038 0327C4FE 		lw	a4,-20(s0)
  40 003c B7070240 		li	a5,1073872896
  41 0040 93870740 		addi	a5,a5,1024
  42 0044 6300F702 		beq	a4,a5,.L5
  48:../Firmware/GD32VW55x_standard_peripheral/Source/gd32vw55x_gpio.c ****     case GPIOA:
  49:../Firmware/GD32VW55x_standard_peripheral/Source/gd32vw55x_gpio.c ****         /* reset GPIOA */
  50:../Firmware/GD32VW55x_standard_peripheral/Source/gd32vw55x_gpio.c ****         rcu_periph_reset_enable(RCU_GPIOARST);
  51:../Firmware/GD32VW55x_standard_peripheral/Source/gd32vw55x_gpio.c ****         rcu_periph_reset_disable(RCU_GPIOARST);
  52:../Firmware/GD32VW55x_standard_peripheral/Source/gd32vw55x_gpio.c ****         break;
  53:../Firmware/GD32VW55x_standard_peripheral/Source/gd32vw55x_gpio.c ****     case GPIOB:
  54:../Firmware/GD32VW55x_standard_peripheral/Source/gd32vw55x_gpio.c ****         /* reset GPIOB */
  55:../Firmware/GD32VW55x_standard_peripheral/Source/gd32vw55x_gpio.c ****         rcu_periph_reset_enable(RCU_GPIOBRST);
  56:../Firmware/GD32VW55x_standard_peripheral/Source/gd32vw55x_gpio.c ****         rcu_periph_reset_disable(RCU_GPIOBRST);
  57:../Firmware/GD32VW55x_standard_peripheral/Source/gd32vw55x_gpio.c ****         break;
  58:../Firmware/GD32VW55x_standard_peripheral/Source/gd32vw55x_gpio.c ****     case GPIOC:
  59:../Firmware/GD32VW55x_standard_peripheral/Source/gd32vw55x_gpio.c ****         /* reset GPIOC */
  60:../Firmware/GD32VW55x_standard_peripheral/Source/gd32vw55x_gpio.c ****         rcu_periph_reset_enable(RCU_GPIOCRST);
  61:../Firmware/GD32VW55x_standard_peripheral/Source/gd32vw55x_gpio.c ****         rcu_periph_reset_disable(RCU_GPIOCRST);
  62:../Firmware/GD32VW55x_standard_peripheral/Source/gd32vw55x_gpio.c ****         break;
  63:../Firmware/GD32VW55x_standard_peripheral/Source/gd32vw55x_gpio.c ****     default:
  64:../Firmware/GD32VW55x_standard_peripheral/Source/gd32vw55x_gpio.c ****         break;
  43              		.loc 1 64 9
  44 0048 81A8     		j	.L7
  45              	.L4:
  50:../Firmware/GD32VW55x_standard_peripheral/Source/gd32vw55x_gpio.c ****         rcu_periph_reset_disable(RCU_GPIOARST);
  46              		.loc 1 50 9
  47 004a 13050040 		li	a0,1024
  48 004e 97000000 		call	rcu_periph_reset_enable
  48      E7800000 
  51:../Firmware/GD32VW55x_standard_peripheral/Source/gd32vw55x_gpio.c ****         break;
  49              		.loc 1 51 9
  50 0056 13050040 		li	a0,1024
  51 005a 97000000 		call	rcu_periph_reset_disable
  51      E7800000 
  52:../Firmware/GD32VW55x_standard_peripheral/Source/gd32vw55x_gpio.c ****     case GPIOB:
  52              		.loc 1 52 9
  53 0062 25A8     		j	.L6
  54              	.L5:
  55:../Firmware/GD32VW55x_standard_peripheral/Source/gd32vw55x_gpio.c ****         rcu_periph_reset_disable(RCU_GPIOBRST);
  55              		.loc 1 55 9
  56 0064 13051040 		li	a0,1025
  57 0068 97000000 		call	rcu_periph_reset_enable
  57      E7800000 
  56:../Firmware/GD32VW55x_standard_peripheral/Source/gd32vw55x_gpio.c ****         break;
  58              		.loc 1 56 9
  59 0070 13051040 		li	a0,1025
  60 0074 97000000 		call	rcu_periph_reset_disable
  60      E7800000 
  57:../Firmware/GD32VW55x_standard_peripheral/Source/gd32vw55x_gpio.c ****     case GPIOC:
  61              		.loc 1 57 9
  62 007c 39A8     		j	.L6
  63              	.L2:
  60:../Firmware/GD32VW55x_standard_peripheral/Source/gd32vw55x_gpio.c ****         rcu_periph_reset_disable(RCU_GPIOCRST);
  64              		.loc 1 60 9
  65 007e 13052040 		li	a0,1026
  66 0082 97000000 		call	rcu_periph_reset_enable
  66      E7800000 
  61:../Firmware/GD32VW55x_standard_peripheral/Source/gd32vw55x_gpio.c ****         break;
  67              		.loc 1 61 9
  68 008a 13052040 		li	a0,1026
  69 008e 97000000 		call	rcu_periph_reset_disable
  69      E7800000 
  62:../Firmware/GD32VW55x_standard_peripheral/Source/gd32vw55x_gpio.c ****     default:
  70              		.loc 1 62 9
  71 0096 11A0     		j	.L6
  72              	.L7:
  73              		.loc 1 64 9
  74 0098 0100     		nop
  75              	.L6:
  65:../Firmware/GD32VW55x_standard_peripheral/Source/gd32vw55x_gpio.c ****     }
  66:../Firmware/GD32VW55x_standard_peripheral/Source/gd32vw55x_gpio.c **** }
  76              		.loc 1 66 1
  77 009a 0100     		nop
  78 009c F240     		lw	ra,28(sp)
  79              		.cfi_restore 1
  80 009e 6244     		lw	s0,24(sp)
  81              		.cfi_restore 8
  82              		.cfi_def_cfa 2, 32
  83 00a0 0561     		addi	sp,sp,32
  84              		.cfi_def_cfa_offset 0
  85 00a2 8280     		jr	ra
  86              		.cfi_endproc
  87              	.LFE347:
  89              		.section	.text.gpio_mode_set,"ax",@progbits
  90              		.align	1
  91              		.globl	gpio_mode_set
  93              	gpio_mode_set:
  94              	.LFB348:
  67:../Firmware/GD32VW55x_standard_peripheral/Source/gd32vw55x_gpio.c **** 
  68:../Firmware/GD32VW55x_standard_peripheral/Source/gd32vw55x_gpio.c **** /*!
  69:../Firmware/GD32VW55x_standard_peripheral/Source/gd32vw55x_gpio.c ****     \brief      set GPIO mode
  70:../Firmware/GD32VW55x_standard_peripheral/Source/gd32vw55x_gpio.c ****     \param[in]  gpio_periph: GPIOx(x = A,B,C)
  71:../Firmware/GD32VW55x_standard_peripheral/Source/gd32vw55x_gpio.c ****                 only one parameter can be selected which is shown as below:
  72:../Firmware/GD32VW55x_standard_peripheral/Source/gd32vw55x_gpio.c ****       \arg        GPIOx(x = A,B,C)
  73:../Firmware/GD32VW55x_standard_peripheral/Source/gd32vw55x_gpio.c ****     \param[in]  mode: gpio pin mode
  74:../Firmware/GD32VW55x_standard_peripheral/Source/gd32vw55x_gpio.c ****                 only one parameter can be selected which is shown as below:
  75:../Firmware/GD32VW55x_standard_peripheral/Source/gd32vw55x_gpio.c ****       \arg        GPIO_MODE_INPUT: input mode
  76:../Firmware/GD32VW55x_standard_peripheral/Source/gd32vw55x_gpio.c ****       \arg        GPIO_MODE_OUTPUT: output mode
  77:../Firmware/GD32VW55x_standard_peripheral/Source/gd32vw55x_gpio.c ****       \arg        GPIO_MODE_AF: alternate function mode
  78:../Firmware/GD32VW55x_standard_peripheral/Source/gd32vw55x_gpio.c ****       \arg        GPIO_MODE_ANALOG: analog mode
  79:../Firmware/GD32VW55x_standard_peripheral/Source/gd32vw55x_gpio.c ****     \param[in]  pull_up_down: gpio pin with pull-up or pull-down resistor
  80:../Firmware/GD32VW55x_standard_peripheral/Source/gd32vw55x_gpio.c ****                 only one parameter can be selected which is shown as below:
  81:../Firmware/GD32VW55x_standard_peripheral/Source/gd32vw55x_gpio.c ****       \arg        GPIO_PUPD_NONE: floating mode, no pull-up and pull-down resistors
  82:../Firmware/GD32VW55x_standard_peripheral/Source/gd32vw55x_gpio.c ****       \arg        GPIO_PUPD_PULLUP: with pull-up resistor
  83:../Firmware/GD32VW55x_standard_peripheral/Source/gd32vw55x_gpio.c ****       \arg        GPIO_PUPD_PULLDOWN:with pull-down resistor
  84:../Firmware/GD32VW55x_standard_peripheral/Source/gd32vw55x_gpio.c ****     \param[in]  pin: GPIO pin
  85:../Firmware/GD32VW55x_standard_peripheral/Source/gd32vw55x_gpio.c ****                 one or more parameters can be selected which are shown as below:
  86:../Firmware/GD32VW55x_standard_peripheral/Source/gd32vw55x_gpio.c ****       \arg        GPIO_PIN_x(x=0..15), GPIO_PIN_ALL
  87:../Firmware/GD32VW55x_standard_peripheral/Source/gd32vw55x_gpio.c ****     \param[out] none
  88:../Firmware/GD32VW55x_standard_peripheral/Source/gd32vw55x_gpio.c ****     \retval     none
  89:../Firmware/GD32VW55x_standard_peripheral/Source/gd32vw55x_gpio.c **** */
  90:../Firmware/GD32VW55x_standard_peripheral/Source/gd32vw55x_gpio.c **** void gpio_mode_set(uint32_t gpio_periph, uint32_t mode, uint32_t pull_up_down, uint32_t pin)
  91:../Firmware/GD32VW55x_standard_peripheral/Source/gd32vw55x_gpio.c **** {
  95              		.loc 1 91 1
  96              		.cfi_startproc
  97 0000 7971     		addi	sp,sp,-48
  98              		.cfi_def_cfa_offset 48
  99 0002 22D6     		sw	s0,44(sp)
 100              		.cfi_offset 8, -4
 101 0004 0018     		addi	s0,sp,48
 102              		.cfi_def_cfa 8, 0
 103 0006 232EA4FC 		sw	a0,-36(s0)
 104 000a 232CB4FC 		sw	a1,-40(s0)
 105 000e 232AC4FC 		sw	a2,-44(s0)
 106 0012 2328D4FC 		sw	a3,-48(s0)
  92:../Firmware/GD32VW55x_standard_peripheral/Source/gd32vw55x_gpio.c ****     uint16_t i;
  93:../Firmware/GD32VW55x_standard_peripheral/Source/gd32vw55x_gpio.c ****     uint32_t ctl, pupd;
  94:../Firmware/GD32VW55x_standard_peripheral/Source/gd32vw55x_gpio.c **** 
  95:../Firmware/GD32VW55x_standard_peripheral/Source/gd32vw55x_gpio.c ****     ctl = GPIO_CTL(gpio_periph);
 107              		.loc 1 95 11
 108 0016 8327C4FD 		lw	a5,-36(s0)
 109              		.loc 1 95 9
 110 001a 9C43     		lw	a5,0(a5)
 111 001c 2324F4FE 		sw	a5,-24(s0)
  96:../Firmware/GD32VW55x_standard_peripheral/Source/gd32vw55x_gpio.c ****     pupd = GPIO_PUD(gpio_periph);
 112              		.loc 1 96 12
 113 0020 8327C4FD 		lw	a5,-36(s0)
 114 0024 B107     		addi	a5,a5,12
 115              		.loc 1 96 10
 116 0026 9C43     		lw	a5,0(a5)
 117 0028 2322F4FE 		sw	a5,-28(s0)
  97:../Firmware/GD32VW55x_standard_peripheral/Source/gd32vw55x_gpio.c **** 
  98:../Firmware/GD32VW55x_standard_peripheral/Source/gd32vw55x_gpio.c ****     for(i = 0U; i < 16U; i++) {
 118              		.loc 1 98 11
 119 002c 231704FE 		sh	zero,-18(s0)
 120              		.loc 1 98 5
 121 0030 49A0     		j	.L9
 122              	.L11:
  99:../Firmware/GD32VW55x_standard_peripheral/Source/gd32vw55x_gpio.c ****         if((1U << i) & pin) {
 123              		.loc 1 99 16
 124 0032 8357E4FE 		lhu	a5,-18(s0)
 125 0036 0547     		li	a4,1
 126 0038 3317F700 		sll	a4,a4,a5
 127              		.loc 1 99 22
 128 003c 832704FD 		lw	a5,-48(s0)
 129 0040 F98F     		and	a5,a4,a5
 130              		.loc 1 99 11
 131 0042 BDC3     		beq	a5,zero,.L10
 100:../Firmware/GD32VW55x_standard_peripheral/Source/gd32vw55x_gpio.c ****             /* clear the specified pin mode bits */
 101:../Firmware/GD32VW55x_standard_peripheral/Source/gd32vw55x_gpio.c ****             ctl &= ~GPIO_MODE_MASK(i);
 132              		.loc 1 101 21
 133 0044 8357E4FE 		lhu	a5,-18(s0)
 134 0048 8607     		slli	a5,a5,1
 135 004a 0D47     		li	a4,3
 136 004c B317F700 		sll	a5,a4,a5
 137              		.loc 1 101 20
 138 0050 93C7F7FF 		not	a5,a5
 139              		.loc 1 101 17
 140 0054 032784FE 		lw	a4,-24(s0)
 141 0058 F98F     		and	a5,a4,a5
 142 005a 2324F4FE 		sw	a5,-24(s0)
 102:../Firmware/GD32VW55x_standard_peripheral/Source/gd32vw55x_gpio.c ****             /* set the specified pin mode bits */
 103:../Firmware/GD32VW55x_standard_peripheral/Source/gd32vw55x_gpio.c ****             ctl |= GPIO_MODE_SET(i, mode);
 143              		.loc 1 103 20
 144 005e 8357E4FE 		lhu	a5,-18(s0)
 145 0062 8607     		slli	a5,a5,1
 146 0064 032784FD 		lw	a4,-40(s0)
 147 0068 B317F700 		sll	a5,a4,a5
 148              		.loc 1 103 17
 149 006c 032784FE 		lw	a4,-24(s0)
 150 0070 D98F     		or	a5,a4,a5
 151 0072 2324F4FE 		sw	a5,-24(s0)
 104:../Firmware/GD32VW55x_standard_peripheral/Source/gd32vw55x_gpio.c **** 
 105:../Firmware/GD32VW55x_standard_peripheral/Source/gd32vw55x_gpio.c ****             /* clear the specified pin pupd bits */
 106:../Firmware/GD32VW55x_standard_peripheral/Source/gd32vw55x_gpio.c ****             pupd &= ~GPIO_PUPD_MASK(i);
 152              		.loc 1 106 22
 153 0076 8357E4FE 		lhu	a5,-18(s0)
 154 007a 8607     		slli	a5,a5,1
 155 007c 0D47     		li	a4,3
 156 007e B317F700 		sll	a5,a4,a5
 157              		.loc 1 106 21
 158 0082 93C7F7FF 		not	a5,a5
 159              		.loc 1 106 18
 160 0086 032744FE 		lw	a4,-28(s0)
 161 008a F98F     		and	a5,a4,a5
 162 008c 2322F4FE 		sw	a5,-28(s0)
 107:../Firmware/GD32VW55x_standard_peripheral/Source/gd32vw55x_gpio.c ****             /* set the specified pin pupd bits */
 108:../Firmware/GD32VW55x_standard_peripheral/Source/gd32vw55x_gpio.c ****             pupd |= GPIO_PUPD_SET(i, pull_up_down);
 163              		.loc 1 108 21
 164 0090 8357E4FE 		lhu	a5,-18(s0)
 165 0094 8607     		slli	a5,a5,1
 166 0096 032744FD 		lw	a4,-44(s0)
 167 009a B317F700 		sll	a5,a4,a5
 168              		.loc 1 108 18
 169 009e 032744FE 		lw	a4,-28(s0)
 170 00a2 D98F     		or	a5,a4,a5
 171 00a4 2322F4FE 		sw	a5,-28(s0)
 172              	.L10:
  98:../Firmware/GD32VW55x_standard_peripheral/Source/gd32vw55x_gpio.c ****         if((1U << i) & pin) {
 173              		.loc 1 98 27 discriminator 2
 174 00a8 8357E4FE 		lhu	a5,-18(s0)
 175 00ac 8507     		addi	a5,a5,1
 176 00ae 2317F4FE 		sh	a5,-18(s0)
 177              	.L9:
  98:../Firmware/GD32VW55x_standard_peripheral/Source/gd32vw55x_gpio.c ****         if((1U << i) & pin) {
 178              		.loc 1 98 5 discriminator 1
 179 00b2 0357E4FE 		lhu	a4,-18(s0)
 180 00b6 BD47     		li	a5,15
 181 00b8 E3FDE7F6 		bleu	a4,a5,.L11
 109:../Firmware/GD32VW55x_standard_peripheral/Source/gd32vw55x_gpio.c ****         }
 110:../Firmware/GD32VW55x_standard_peripheral/Source/gd32vw55x_gpio.c ****     }
 111:../Firmware/GD32VW55x_standard_peripheral/Source/gd32vw55x_gpio.c **** 
 112:../Firmware/GD32VW55x_standard_peripheral/Source/gd32vw55x_gpio.c ****     GPIO_CTL(gpio_periph) = ctl;
 182              		.loc 1 112 5
 183 00bc 8327C4FD 		lw	a5,-36(s0)
 184              		.loc 1 112 27
 185 00c0 032784FE 		lw	a4,-24(s0)
 186 00c4 98C3     		sw	a4,0(a5)
 113:../Firmware/GD32VW55x_standard_peripheral/Source/gd32vw55x_gpio.c ****     GPIO_PUD(gpio_periph) = pupd;
 187              		.loc 1 113 5
 188 00c6 8327C4FD 		lw	a5,-36(s0)
 189 00ca B107     		addi	a5,a5,12
 190 00cc 3E87     		mv	a4,a5
 191              		.loc 1 113 27
 192 00ce 832744FE 		lw	a5,-28(s0)
 193 00d2 1CC3     		sw	a5,0(a4)
 114:../Firmware/GD32VW55x_standard_peripheral/Source/gd32vw55x_gpio.c **** }
 194              		.loc 1 114 1
 195 00d4 0100     		nop
 196 00d6 3254     		lw	s0,44(sp)
 197              		.cfi_restore 8
 198              		.cfi_def_cfa 2, 48
 199 00d8 4561     		addi	sp,sp,48
 200              		.cfi_def_cfa_offset 0
 201 00da 8280     		jr	ra
 202              		.cfi_endproc
 203              	.LFE348:
 205              		.section	.text.gpio_output_options_set,"ax",@progbits
 206              		.align	1
 207              		.globl	gpio_output_options_set
 209              	gpio_output_options_set:
 210              	.LFB349:
 115:../Firmware/GD32VW55x_standard_peripheral/Source/gd32vw55x_gpio.c **** 
 116:../Firmware/GD32VW55x_standard_peripheral/Source/gd32vw55x_gpio.c **** /*!
 117:../Firmware/GD32VW55x_standard_peripheral/Source/gd32vw55x_gpio.c ****     \brief      set GPIO output type and speed
 118:../Firmware/GD32VW55x_standard_peripheral/Source/gd32vw55x_gpio.c ****     \param[in]  gpio_periph: GPIOx(x = A,B,C)
 119:../Firmware/GD32VW55x_standard_peripheral/Source/gd32vw55x_gpio.c ****                 only one parameter can be selected which is shown as below:
 120:../Firmware/GD32VW55x_standard_peripheral/Source/gd32vw55x_gpio.c ****       \arg        GPIOx(x = A,B,C)
 121:../Firmware/GD32VW55x_standard_peripheral/Source/gd32vw55x_gpio.c ****     \param[in]  otype: gpio pin output mode
 122:../Firmware/GD32VW55x_standard_peripheral/Source/gd32vw55x_gpio.c ****                 only one parameter can be selected which is shown as below:
 123:../Firmware/GD32VW55x_standard_peripheral/Source/gd32vw55x_gpio.c ****       \arg        GPIO_OTYPE_PP: push pull mode
 124:../Firmware/GD32VW55x_standard_peripheral/Source/gd32vw55x_gpio.c ****       \arg        GPIO_OTYPE_OD: open drain mode
 125:../Firmware/GD32VW55x_standard_peripheral/Source/gd32vw55x_gpio.c ****     \param[in]  speed: gpio pin output max speed
 126:../Firmware/GD32VW55x_standard_peripheral/Source/gd32vw55x_gpio.c ****                 only one parameter can be selected which is shown as below:
 127:../Firmware/GD32VW55x_standard_peripheral/Source/gd32vw55x_gpio.c ****       \arg        GPIO_OSPEED_2MHZ: output max speed 2MHz
 128:../Firmware/GD32VW55x_standard_peripheral/Source/gd32vw55x_gpio.c ****       \arg        GPIO_OSPEED_10MHZ: output max speed 10MHz
 129:../Firmware/GD32VW55x_standard_peripheral/Source/gd32vw55x_gpio.c ****       \arg        GPIO_OSPEED_25MHZ: output max speed 25MHz
 130:../Firmware/GD32VW55x_standard_peripheral/Source/gd32vw55x_gpio.c ****       \arg        GPIO_OSPEED_MAX: output max speed
 131:../Firmware/GD32VW55x_standard_peripheral/Source/gd32vw55x_gpio.c ****     \param[in]  pin: GPIO pin
 132:../Firmware/GD32VW55x_standard_peripheral/Source/gd32vw55x_gpio.c ****                 one or more parameters can be selected which are shown as below:
 133:../Firmware/GD32VW55x_standard_peripheral/Source/gd32vw55x_gpio.c ****       \arg        GPIO_PIN_x(x=0..15), GPIO_PIN_ALL
 134:../Firmware/GD32VW55x_standard_peripheral/Source/gd32vw55x_gpio.c ****     \param[out] none
 135:../Firmware/GD32VW55x_standard_peripheral/Source/gd32vw55x_gpio.c ****     \retval     none
 136:../Firmware/GD32VW55x_standard_peripheral/Source/gd32vw55x_gpio.c **** */
 137:../Firmware/GD32VW55x_standard_peripheral/Source/gd32vw55x_gpio.c **** void gpio_output_options_set(uint32_t gpio_periph, uint8_t otype, uint32_t speed, uint32_t pin)
 138:../Firmware/GD32VW55x_standard_peripheral/Source/gd32vw55x_gpio.c **** {
 211              		.loc 1 138 1
 212              		.cfi_startproc
 213 0000 7971     		addi	sp,sp,-48
 214              		.cfi_def_cfa_offset 48
 215 0002 22D6     		sw	s0,44(sp)
 216              		.cfi_offset 8, -4
 217 0004 0018     		addi	s0,sp,48
 218              		.cfi_def_cfa 8, 0
 219 0006 232EA4FC 		sw	a0,-36(s0)
 220 000a AE87     		mv	a5,a1
 221 000c 232AC4FC 		sw	a2,-44(s0)
 222 0010 2328D4FC 		sw	a3,-48(s0)
 223 0014 A30DF4FC 		sb	a5,-37(s0)
 139:../Firmware/GD32VW55x_standard_peripheral/Source/gd32vw55x_gpio.c ****     uint16_t i;
 140:../Firmware/GD32VW55x_standard_peripheral/Source/gd32vw55x_gpio.c ****     uint32_t ospeed;
 141:../Firmware/GD32VW55x_standard_peripheral/Source/gd32vw55x_gpio.c **** 
 142:../Firmware/GD32VW55x_standard_peripheral/Source/gd32vw55x_gpio.c ****     if(GPIO_OTYPE_OD == otype) {
 224              		.loc 1 142 7
 225 0018 0347B4FD 		lbu	a4,-37(s0)
 226 001c 8547     		li	a5,1
 227 001e 631FF700 		bne	a4,a5,.L13
 143:../Firmware/GD32VW55x_standard_peripheral/Source/gd32vw55x_gpio.c ****         GPIO_OMODE(gpio_periph) |= (uint32_t)pin;
 228              		.loc 1 143 33
 229 0022 8327C4FD 		lw	a5,-36(s0)
 230 0026 9107     		addi	a5,a5,4
 231 0028 9843     		lw	a4,0(a5)
 232 002a 8327C4FD 		lw	a5,-36(s0)
 233 002e 9107     		addi	a5,a5,4
 234 0030 BE86     		mv	a3,a5
 235 0032 832704FD 		lw	a5,-48(s0)
 236 0036 D98F     		or	a5,a4,a5
 237 0038 9CC2     		sw	a5,0(a3)
 238 003a 31A8     		j	.L14
 239              	.L13:
 144:../Firmware/GD32VW55x_standard_peripheral/Source/gd32vw55x_gpio.c ****     } else {
 145:../Firmware/GD32VW55x_standard_peripheral/Source/gd32vw55x_gpio.c ****         GPIO_OMODE(gpio_periph) &= (uint32_t)(~pin);
 240              		.loc 1 145 33
 241 003c 8327C4FD 		lw	a5,-36(s0)
 242 0040 9107     		addi	a5,a5,4
 243 0042 9843     		lw	a4,0(a5)
 244              		.loc 1 145 47
 245 0044 832704FD 		lw	a5,-48(s0)
 246 0048 93C7F7FF 		not	a5,a5
 247              		.loc 1 145 33
 248 004c 8326C4FD 		lw	a3,-36(s0)
 249 0050 9106     		addi	a3,a3,4
 250 0052 F98F     		and	a5,a4,a5
 251 0054 9CC2     		sw	a5,0(a3)
 252              	.L14:
 146:../Firmware/GD32VW55x_standard_peripheral/Source/gd32vw55x_gpio.c ****     }
 147:../Firmware/GD32VW55x_standard_peripheral/Source/gd32vw55x_gpio.c **** 
 148:../Firmware/GD32VW55x_standard_peripheral/Source/gd32vw55x_gpio.c ****     /* get the specified pin output speed bits value */
 149:../Firmware/GD32VW55x_standard_peripheral/Source/gd32vw55x_gpio.c ****     ospeed = GPIO_OSPD(gpio_periph);
 253              		.loc 1 149 14
 254 0056 8327C4FD 		lw	a5,-36(s0)
 255 005a A107     		addi	a5,a5,8
 256              		.loc 1 149 12
 257 005c 9C43     		lw	a5,0(a5)
 258 005e 2324F4FE 		sw	a5,-24(s0)
 150:../Firmware/GD32VW55x_standard_peripheral/Source/gd32vw55x_gpio.c **** 
 151:../Firmware/GD32VW55x_standard_peripheral/Source/gd32vw55x_gpio.c ****     for(i = 0U; i < 16U; i++) {
 259              		.loc 1 151 11
 260 0062 231704FE 		sh	zero,-18(s0)
 261              		.loc 1 151 5
 262 0066 81A8     		j	.L15
 263              	.L17:
 152:../Firmware/GD32VW55x_standard_peripheral/Source/gd32vw55x_gpio.c ****         if((1U << i) & pin) {
 264              		.loc 1 152 16
 265 0068 8357E4FE 		lhu	a5,-18(s0)
 266 006c 0547     		li	a4,1
 267 006e 3317F700 		sll	a4,a4,a5
 268              		.loc 1 152 22
 269 0072 832704FD 		lw	a5,-48(s0)
 270 0076 F98F     		and	a5,a4,a5
 271              		.loc 1 152 11
 272 0078 95CB     		beq	a5,zero,.L16
 153:../Firmware/GD32VW55x_standard_peripheral/Source/gd32vw55x_gpio.c ****             /* clear the specified pin output speed bits */
 154:../Firmware/GD32VW55x_standard_peripheral/Source/gd32vw55x_gpio.c ****             ospeed &= ~GPIO_OSPEED_MASK(i);
 273              		.loc 1 154 24
 274 007a 8357E4FE 		lhu	a5,-18(s0)
 275 007e 8607     		slli	a5,a5,1
 276 0080 0D47     		li	a4,3
 277 0082 B317F700 		sll	a5,a4,a5
 278              		.loc 1 154 23
 279 0086 93C7F7FF 		not	a5,a5
 280              		.loc 1 154 20
 281 008a 032784FE 		lw	a4,-24(s0)
 282 008e F98F     		and	a5,a4,a5
 283 0090 2324F4FE 		sw	a5,-24(s0)
 155:../Firmware/GD32VW55x_standard_peripheral/Source/gd32vw55x_gpio.c ****             /* set the specified pin output speed bits */
 156:../Firmware/GD32VW55x_standard_peripheral/Source/gd32vw55x_gpio.c ****             ospeed |= GPIO_OSPEED_SET(i, speed);
 284              		.loc 1 156 23
 285 0094 8357E4FE 		lhu	a5,-18(s0)
 286 0098 8607     		slli	a5,a5,1
 287 009a 032744FD 		lw	a4,-44(s0)
 288 009e B317F700 		sll	a5,a4,a5
 289              		.loc 1 156 20
 290 00a2 032784FE 		lw	a4,-24(s0)
 291 00a6 D98F     		or	a5,a4,a5
 292 00a8 2324F4FE 		sw	a5,-24(s0)
 293              	.L16:
 151:../Firmware/GD32VW55x_standard_peripheral/Source/gd32vw55x_gpio.c ****         if((1U << i) & pin) {
 294              		.loc 1 151 27 discriminator 2
 295 00ac 8357E4FE 		lhu	a5,-18(s0)
 296 00b0 8507     		addi	a5,a5,1
 297 00b2 2317F4FE 		sh	a5,-18(s0)
 298              	.L15:
 151:../Firmware/GD32VW55x_standard_peripheral/Source/gd32vw55x_gpio.c ****         if((1U << i) & pin) {
 299              		.loc 1 151 5 discriminator 1
 300 00b6 0357E4FE 		lhu	a4,-18(s0)
 301 00ba BD47     		li	a5,15
 302 00bc E3F6E7FA 		bleu	a4,a5,.L17
 157:../Firmware/GD32VW55x_standard_peripheral/Source/gd32vw55x_gpio.c ****         }
 158:../Firmware/GD32VW55x_standard_peripheral/Source/gd32vw55x_gpio.c ****     }
 159:../Firmware/GD32VW55x_standard_peripheral/Source/gd32vw55x_gpio.c **** 
 160:../Firmware/GD32VW55x_standard_peripheral/Source/gd32vw55x_gpio.c ****     GPIO_OSPD(gpio_periph) = ospeed;
 303              		.loc 1 160 5
 304 00c0 8327C4FD 		lw	a5,-36(s0)
 305 00c4 A107     		addi	a5,a5,8
 306 00c6 3E87     		mv	a4,a5
 307              		.loc 1 160 28
 308 00c8 832784FE 		lw	a5,-24(s0)
 309 00cc 1CC3     		sw	a5,0(a4)
 161:../Firmware/GD32VW55x_standard_peripheral/Source/gd32vw55x_gpio.c **** }
 310              		.loc 1 161 1
 311 00ce 0100     		nop
 312 00d0 3254     		lw	s0,44(sp)
 313              		.cfi_restore 8
 314              		.cfi_def_cfa 2, 48
 315 00d2 4561     		addi	sp,sp,48
 316              		.cfi_def_cfa_offset 0
 317 00d4 8280     		jr	ra
 318              		.cfi_endproc
 319              	.LFE349:
 321              		.section	.text.gpio_bit_set,"ax",@progbits
 322              		.align	1
 323              		.globl	gpio_bit_set
 325              	gpio_bit_set:
 326              	.LFB350:
 162:../Firmware/GD32VW55x_standard_peripheral/Source/gd32vw55x_gpio.c **** 
 163:../Firmware/GD32VW55x_standard_peripheral/Source/gd32vw55x_gpio.c **** /*!
 164:../Firmware/GD32VW55x_standard_peripheral/Source/gd32vw55x_gpio.c ****     \brief      set GPIO pin bit
 165:../Firmware/GD32VW55x_standard_peripheral/Source/gd32vw55x_gpio.c ****     \param[in]  gpio_periph: GPIOx(x = A,B,C)
 166:../Firmware/GD32VW55x_standard_peripheral/Source/gd32vw55x_gpio.c ****                 only one parameter can be selected which is shown as below:
 167:../Firmware/GD32VW55x_standard_peripheral/Source/gd32vw55x_gpio.c ****       \arg        GPIOx(x = A,B,C)
 168:../Firmware/GD32VW55x_standard_peripheral/Source/gd32vw55x_gpio.c ****     \param[in]  pin: GPIO pin
 169:../Firmware/GD32VW55x_standard_peripheral/Source/gd32vw55x_gpio.c ****                 one or more parameters can be selected which are shown as below:
 170:../Firmware/GD32VW55x_standard_peripheral/Source/gd32vw55x_gpio.c ****       \arg        GPIO_PIN_x(x=0..15), GPIO_PIN_ALL
 171:../Firmware/GD32VW55x_standard_peripheral/Source/gd32vw55x_gpio.c ****     \param[out] none
 172:../Firmware/GD32VW55x_standard_peripheral/Source/gd32vw55x_gpio.c ****     \retval     none
 173:../Firmware/GD32VW55x_standard_peripheral/Source/gd32vw55x_gpio.c **** */
 174:../Firmware/GD32VW55x_standard_peripheral/Source/gd32vw55x_gpio.c **** void gpio_bit_set(uint32_t gpio_periph, uint32_t pin)
 175:../Firmware/GD32VW55x_standard_peripheral/Source/gd32vw55x_gpio.c **** {
 327              		.loc 1 175 1
 328              		.cfi_startproc
 329 0000 0111     		addi	sp,sp,-32
 330              		.cfi_def_cfa_offset 32
 331 0002 22CE     		sw	s0,28(sp)
 332              		.cfi_offset 8, -4
 333 0004 0010     		addi	s0,sp,32
 334              		.cfi_def_cfa 8, 0
 335 0006 2326A4FE 		sw	a0,-20(s0)
 336 000a 2324B4FE 		sw	a1,-24(s0)
 176:../Firmware/GD32VW55x_standard_peripheral/Source/gd32vw55x_gpio.c ****     GPIO_BOP(gpio_periph) = (uint32_t)pin;
 337              		.loc 1 176 5
 338 000e 8327C4FE 		lw	a5,-20(s0)
 339 0012 E107     		addi	a5,a5,24
 340 0014 3E87     		mv	a4,a5
 341              		.loc 1 176 27
 342 0016 832784FE 		lw	a5,-24(s0)
 343 001a 1CC3     		sw	a5,0(a4)
 177:../Firmware/GD32VW55x_standard_peripheral/Source/gd32vw55x_gpio.c **** }
 344              		.loc 1 177 1
 345 001c 0100     		nop
 346 001e 7244     		lw	s0,28(sp)
 347              		.cfi_restore 8
 348              		.cfi_def_cfa 2, 32
 349 0020 0561     		addi	sp,sp,32
 350              		.cfi_def_cfa_offset 0
 351 0022 8280     		jr	ra
 352              		.cfi_endproc
 353              	.LFE350:
 355              		.section	.text.gpio_bit_reset,"ax",@progbits
 356              		.align	1
 357              		.globl	gpio_bit_reset
 359              	gpio_bit_reset:
 360              	.LFB351:
 178:../Firmware/GD32VW55x_standard_peripheral/Source/gd32vw55x_gpio.c **** 
 179:../Firmware/GD32VW55x_standard_peripheral/Source/gd32vw55x_gpio.c **** /*!
 180:../Firmware/GD32VW55x_standard_peripheral/Source/gd32vw55x_gpio.c ****     \brief      reset GPIO pin bit
 181:../Firmware/GD32VW55x_standard_peripheral/Source/gd32vw55x_gpio.c ****     \param[in]  gpio_periph: GPIOx(x = A,B,C)
 182:../Firmware/GD32VW55x_standard_peripheral/Source/gd32vw55x_gpio.c ****                 only one parameter can be selected which is shown as below:
 183:../Firmware/GD32VW55x_standard_peripheral/Source/gd32vw55x_gpio.c ****       \arg        GPIOx(x = A,B,C)
 184:../Firmware/GD32VW55x_standard_peripheral/Source/gd32vw55x_gpio.c ****     \param[in]  pin: GPIO pin
 185:../Firmware/GD32VW55x_standard_peripheral/Source/gd32vw55x_gpio.c ****                 one or more parameters can be selected which are shown as below:
 186:../Firmware/GD32VW55x_standard_peripheral/Source/gd32vw55x_gpio.c ****       \arg        GPIO_PIN_x(x=0..15), GPIO_PIN_ALL
 187:../Firmware/GD32VW55x_standard_peripheral/Source/gd32vw55x_gpio.c ****     \param[out] none
 188:../Firmware/GD32VW55x_standard_peripheral/Source/gd32vw55x_gpio.c ****     \retval     none
 189:../Firmware/GD32VW55x_standard_peripheral/Source/gd32vw55x_gpio.c **** */
 190:../Firmware/GD32VW55x_standard_peripheral/Source/gd32vw55x_gpio.c **** void gpio_bit_reset(uint32_t gpio_periph, uint32_t pin)
 191:../Firmware/GD32VW55x_standard_peripheral/Source/gd32vw55x_gpio.c **** {
 361              		.loc 1 191 1
 362              		.cfi_startproc
 363 0000 0111     		addi	sp,sp,-32
 364              		.cfi_def_cfa_offset 32
 365 0002 22CE     		sw	s0,28(sp)
 366              		.cfi_offset 8, -4
 367 0004 0010     		addi	s0,sp,32
 368              		.cfi_def_cfa 8, 0
 369 0006 2326A4FE 		sw	a0,-20(s0)
 370 000a 2324B4FE 		sw	a1,-24(s0)
 192:../Firmware/GD32VW55x_standard_peripheral/Source/gd32vw55x_gpio.c ****     GPIO_BC(gpio_periph) = (uint32_t)pin;
 371              		.loc 1 192 5
 372 000e 8327C4FE 		lw	a5,-20(s0)
 373 0012 93878702 		addi	a5,a5,40
 374 0016 3E87     		mv	a4,a5
 375              		.loc 1 192 26
 376 0018 832784FE 		lw	a5,-24(s0)
 377 001c 1CC3     		sw	a5,0(a4)
 193:../Firmware/GD32VW55x_standard_peripheral/Source/gd32vw55x_gpio.c **** }
 378              		.loc 1 193 1
 379 001e 0100     		nop
 380 0020 7244     		lw	s0,28(sp)
 381              		.cfi_restore 8
 382              		.cfi_def_cfa 2, 32
 383 0022 0561     		addi	sp,sp,32
 384              		.cfi_def_cfa_offset 0
 385 0024 8280     		jr	ra
 386              		.cfi_endproc
 387              	.LFE351:
 389              		.section	.text.gpio_bit_write,"ax",@progbits
 390              		.align	1
 391              		.globl	gpio_bit_write
 393              	gpio_bit_write:
 394              	.LFB352:
 194:../Firmware/GD32VW55x_standard_peripheral/Source/gd32vw55x_gpio.c **** 
 195:../Firmware/GD32VW55x_standard_peripheral/Source/gd32vw55x_gpio.c **** /*!
 196:../Firmware/GD32VW55x_standard_peripheral/Source/gd32vw55x_gpio.c ****     \brief      write data to the specified GPIO pin
 197:../Firmware/GD32VW55x_standard_peripheral/Source/gd32vw55x_gpio.c ****     \param[in]  gpio_periph: GPIOx(x = A,B,C)
 198:../Firmware/GD32VW55x_standard_peripheral/Source/gd32vw55x_gpio.c ****                 only one parameter can be selected which is shown as below:
 199:../Firmware/GD32VW55x_standard_peripheral/Source/gd32vw55x_gpio.c ****       \arg        GPIOx(x = A,B,C)
 200:../Firmware/GD32VW55x_standard_peripheral/Source/gd32vw55x_gpio.c ****     \param[in]  pin: GPIO pin
 201:../Firmware/GD32VW55x_standard_peripheral/Source/gd32vw55x_gpio.c ****                 one or more parameters can be selected which are shown as below:
 202:../Firmware/GD32VW55x_standard_peripheral/Source/gd32vw55x_gpio.c ****       \arg        GPIO_PIN_x(x=0..15), GPIO_PIN_ALL
 203:../Firmware/GD32VW55x_standard_peripheral/Source/gd32vw55x_gpio.c ****     \param[in]  bit_value: SET or RESET
 204:../Firmware/GD32VW55x_standard_peripheral/Source/gd32vw55x_gpio.c ****                 only one parameter can be selected which is shown as below:
 205:../Firmware/GD32VW55x_standard_peripheral/Source/gd32vw55x_gpio.c ****       \arg        RESET: clear the port pin
 206:../Firmware/GD32VW55x_standard_peripheral/Source/gd32vw55x_gpio.c ****       \arg        SET: set the port pin
 207:../Firmware/GD32VW55x_standard_peripheral/Source/gd32vw55x_gpio.c ****     \param[out] none
 208:../Firmware/GD32VW55x_standard_peripheral/Source/gd32vw55x_gpio.c ****     \retval     none
 209:../Firmware/GD32VW55x_standard_peripheral/Source/gd32vw55x_gpio.c **** */
 210:../Firmware/GD32VW55x_standard_peripheral/Source/gd32vw55x_gpio.c **** void gpio_bit_write(uint32_t gpio_periph, uint32_t pin, bit_status bit_value)
 211:../Firmware/GD32VW55x_standard_peripheral/Source/gd32vw55x_gpio.c **** {
 395              		.loc 1 211 1
 396              		.cfi_startproc
 397 0000 0111     		addi	sp,sp,-32
 398              		.cfi_def_cfa_offset 32
 399 0002 22CE     		sw	s0,28(sp)
 400              		.cfi_offset 8, -4
 401 0004 0010     		addi	s0,sp,32
 402              		.cfi_def_cfa 8, 0
 403 0006 2326A4FE 		sw	a0,-20(s0)
 404 000a 2324B4FE 		sw	a1,-24(s0)
 405 000e 2322C4FE 		sw	a2,-28(s0)
 212:../Firmware/GD32VW55x_standard_peripheral/Source/gd32vw55x_gpio.c ****     if(RESET != bit_value) {
 406              		.loc 1 212 7
 407 0012 832744FE 		lw	a5,-28(s0)
 408 0016 89CB     		beq	a5,zero,.L21
 213:../Firmware/GD32VW55x_standard_peripheral/Source/gd32vw55x_gpio.c ****         GPIO_BOP(gpio_periph) = (uint32_t)pin;
 409              		.loc 1 213 9
 410 0018 8327C4FE 		lw	a5,-20(s0)
 411 001c E107     		addi	a5,a5,24
 412 001e 3E87     		mv	a4,a5
 413              		.loc 1 213 31
 414 0020 832784FE 		lw	a5,-24(s0)
 415 0024 1CC3     		sw	a5,0(a4)
 214:../Firmware/GD32VW55x_standard_peripheral/Source/gd32vw55x_gpio.c ****     } else {
 215:../Firmware/GD32VW55x_standard_peripheral/Source/gd32vw55x_gpio.c ****         GPIO_BC(gpio_periph) = (uint32_t)pin;
 216:../Firmware/GD32VW55x_standard_peripheral/Source/gd32vw55x_gpio.c ****     }
 217:../Firmware/GD32VW55x_standard_peripheral/Source/gd32vw55x_gpio.c **** }
 416              		.loc 1 217 1
 417 0026 09A8     		j	.L23
 418              	.L21:
 215:../Firmware/GD32VW55x_standard_peripheral/Source/gd32vw55x_gpio.c ****     }
 419              		.loc 1 215 9
 420 0028 8327C4FE 		lw	a5,-20(s0)
 421 002c 93878702 		addi	a5,a5,40
 422 0030 3E87     		mv	a4,a5
 215:../Firmware/GD32VW55x_standard_peripheral/Source/gd32vw55x_gpio.c ****     }
 423              		.loc 1 215 30
 424 0032 832784FE 		lw	a5,-24(s0)
 425 0036 1CC3     		sw	a5,0(a4)
 426              	.L23:
 427              		.loc 1 217 1
 428 0038 0100     		nop
 429 003a 7244     		lw	s0,28(sp)
 430              		.cfi_restore 8
 431              		.cfi_def_cfa 2, 32
 432 003c 0561     		addi	sp,sp,32
 433              		.cfi_def_cfa_offset 0
 434 003e 8280     		jr	ra
 435              		.cfi_endproc
 436              	.LFE352:
 438              		.section	.text.gpio_port_write,"ax",@progbits
 439              		.align	1
 440              		.globl	gpio_port_write
 442              	gpio_port_write:
 443              	.LFB353:
 218:../Firmware/GD32VW55x_standard_peripheral/Source/gd32vw55x_gpio.c **** 
 219:../Firmware/GD32VW55x_standard_peripheral/Source/gd32vw55x_gpio.c **** /*!
 220:../Firmware/GD32VW55x_standard_peripheral/Source/gd32vw55x_gpio.c ****     \brief      write data to the specified GPIO port
 221:../Firmware/GD32VW55x_standard_peripheral/Source/gd32vw55x_gpio.c ****     \param[in]  gpio_periph: GPIOx(x = A,B,C)
 222:../Firmware/GD32VW55x_standard_peripheral/Source/gd32vw55x_gpio.c ****                 only one parameter can be selected which is shown as below:
 223:../Firmware/GD32VW55x_standard_peripheral/Source/gd32vw55x_gpio.c ****       \arg        GPIOx(x = A,B,C)
 224:../Firmware/GD32VW55x_standard_peripheral/Source/gd32vw55x_gpio.c ****     \param[in]  data: specify the value to be written to the port output control register
 225:../Firmware/GD32VW55x_standard_peripheral/Source/gd32vw55x_gpio.c ****     \param[out] none
 226:../Firmware/GD32VW55x_standard_peripheral/Source/gd32vw55x_gpio.c ****     \retval     none
 227:../Firmware/GD32VW55x_standard_peripheral/Source/gd32vw55x_gpio.c **** */
 228:../Firmware/GD32VW55x_standard_peripheral/Source/gd32vw55x_gpio.c **** void gpio_port_write(uint32_t gpio_periph, uint16_t data)
 229:../Firmware/GD32VW55x_standard_peripheral/Source/gd32vw55x_gpio.c **** {
 444              		.loc 1 229 1
 445              		.cfi_startproc
 446 0000 0111     		addi	sp,sp,-32
 447              		.cfi_def_cfa_offset 32
 448 0002 22CE     		sw	s0,28(sp)
 449              		.cfi_offset 8, -4
 450 0004 0010     		addi	s0,sp,32
 451              		.cfi_def_cfa 8, 0
 452 0006 2326A4FE 		sw	a0,-20(s0)
 453 000a AE87     		mv	a5,a1
 454 000c 2315F4FE 		sh	a5,-22(s0)
 230:../Firmware/GD32VW55x_standard_peripheral/Source/gd32vw55x_gpio.c ****     GPIO_OCTL(gpio_periph) = (uint32_t)data;
 455              		.loc 1 230 5
 456 0010 8327C4FE 		lw	a5,-20(s0)
 457 0014 D107     		addi	a5,a5,20
 458 0016 3E87     		mv	a4,a5
 459              		.loc 1 230 30
 460 0018 8357A4FE 		lhu	a5,-22(s0)
 461              		.loc 1 230 28
 462 001c 1CC3     		sw	a5,0(a4)
 231:../Firmware/GD32VW55x_standard_peripheral/Source/gd32vw55x_gpio.c **** }
 463              		.loc 1 231 1
 464 001e 0100     		nop
 465 0020 7244     		lw	s0,28(sp)
 466              		.cfi_restore 8
 467              		.cfi_def_cfa 2, 32
 468 0022 0561     		addi	sp,sp,32
 469              		.cfi_def_cfa_offset 0
 470 0024 8280     		jr	ra
 471              		.cfi_endproc
 472              	.LFE353:
 474              		.section	.text.gpio_input_bit_get,"ax",@progbits
 475              		.align	1
 476              		.globl	gpio_input_bit_get
 478              	gpio_input_bit_get:
 479              	.LFB354:
 232:../Firmware/GD32VW55x_standard_peripheral/Source/gd32vw55x_gpio.c **** 
 233:../Firmware/GD32VW55x_standard_peripheral/Source/gd32vw55x_gpio.c **** /*!
 234:../Firmware/GD32VW55x_standard_peripheral/Source/gd32vw55x_gpio.c ****     \brief      get GPIO pin input status
 235:../Firmware/GD32VW55x_standard_peripheral/Source/gd32vw55x_gpio.c ****     \param[in]  gpio_periph: GPIOx(x = A,B,C)
 236:../Firmware/GD32VW55x_standard_peripheral/Source/gd32vw55x_gpio.c ****                 only one parameter can be selected which is shown as below:
 237:../Firmware/GD32VW55x_standard_peripheral/Source/gd32vw55x_gpio.c ****       \arg        GPIOx(x = A,B,C)
 238:../Firmware/GD32VW55x_standard_peripheral/Source/gd32vw55x_gpio.c ****     \param[in]  pin: GPIO pin
 239:../Firmware/GD32VW55x_standard_peripheral/Source/gd32vw55x_gpio.c ****                 one or more parameters can be selected which are shown as below:
 240:../Firmware/GD32VW55x_standard_peripheral/Source/gd32vw55x_gpio.c ****       \arg        GPIO_PIN_x(x=0..15), GPIO_PIN_ALL
 241:../Firmware/GD32VW55x_standard_peripheral/Source/gd32vw55x_gpio.c ****     \param[out] none
 242:../Firmware/GD32VW55x_standard_peripheral/Source/gd32vw55x_gpio.c ****     \retval     SET or RESET
 243:../Firmware/GD32VW55x_standard_peripheral/Source/gd32vw55x_gpio.c **** */
 244:../Firmware/GD32VW55x_standard_peripheral/Source/gd32vw55x_gpio.c **** FlagStatus gpio_input_bit_get(uint32_t gpio_periph, uint32_t pin)
 245:../Firmware/GD32VW55x_standard_peripheral/Source/gd32vw55x_gpio.c **** {
 480              		.loc 1 245 1
 481              		.cfi_startproc
 482 0000 0111     		addi	sp,sp,-32
 483              		.cfi_def_cfa_offset 32
 484 0002 22CE     		sw	s0,28(sp)
 485              		.cfi_offset 8, -4
 486 0004 0010     		addi	s0,sp,32
 487              		.cfi_def_cfa 8, 0
 488 0006 2326A4FE 		sw	a0,-20(s0)
 489 000a 2324B4FE 		sw	a1,-24(s0)
 246:../Firmware/GD32VW55x_standard_peripheral/Source/gd32vw55x_gpio.c ****     if((uint32_t)RESET != (GPIO_ISTAT(gpio_periph) & (pin))) {
 490              		.loc 1 246 28
 491 000e 8327C4FE 		lw	a5,-20(s0)
 492 0012 C107     		addi	a5,a5,16
 493 0014 9843     		lw	a4,0(a5)
 494              		.loc 1 246 52
 495 0016 832784FE 		lw	a5,-24(s0)
 496 001a F98F     		and	a5,a4,a5
 497              		.loc 1 246 7
 498 001c 99C3     		beq	a5,zero,.L26
 247:../Firmware/GD32VW55x_standard_peripheral/Source/gd32vw55x_gpio.c ****         return SET;
 499              		.loc 1 247 16
 500 001e 8547     		li	a5,1
 501 0020 11A0     		j	.L27
 502              	.L26:
 248:../Firmware/GD32VW55x_standard_peripheral/Source/gd32vw55x_gpio.c ****     } else {
 249:../Firmware/GD32VW55x_standard_peripheral/Source/gd32vw55x_gpio.c ****         return RESET;
 503              		.loc 1 249 16
 504 0022 8147     		li	a5,0
 505              	.L27:
 250:../Firmware/GD32VW55x_standard_peripheral/Source/gd32vw55x_gpio.c ****     }
 251:../Firmware/GD32VW55x_standard_peripheral/Source/gd32vw55x_gpio.c **** }
 506              		.loc 1 251 1
 507 0024 3E85     		mv	a0,a5
 508 0026 7244     		lw	s0,28(sp)
 509              		.cfi_restore 8
 510              		.cfi_def_cfa 2, 32
 511 0028 0561     		addi	sp,sp,32
 512              		.cfi_def_cfa_offset 0
 513 002a 8280     		jr	ra
 514              		.cfi_endproc
 515              	.LFE354:
 517              		.section	.text.gpio_input_port_get,"ax",@progbits
 518              		.align	1
 519              		.globl	gpio_input_port_get
 521              	gpio_input_port_get:
 522              	.LFB355:
 252:../Firmware/GD32VW55x_standard_peripheral/Source/gd32vw55x_gpio.c **** 
 253:../Firmware/GD32VW55x_standard_peripheral/Source/gd32vw55x_gpio.c **** /*!
 254:../Firmware/GD32VW55x_standard_peripheral/Source/gd32vw55x_gpio.c ****     \brief      get GPIO port input status
 255:../Firmware/GD32VW55x_standard_peripheral/Source/gd32vw55x_gpio.c ****     \param[in]  gpio_periph: GPIOx(x = A,B,C)
 256:../Firmware/GD32VW55x_standard_peripheral/Source/gd32vw55x_gpio.c ****                 only one parameter can be selected which is shown as below:
 257:../Firmware/GD32VW55x_standard_peripheral/Source/gd32vw55x_gpio.c ****       \arg        GPIOx(x = A,B,C)
 258:../Firmware/GD32VW55x_standard_peripheral/Source/gd32vw55x_gpio.c ****     \param[out] none
 259:../Firmware/GD32VW55x_standard_peripheral/Source/gd32vw55x_gpio.c ****     \retval     state of GPIO all pins:0x0000-0xFFFF
 260:../Firmware/GD32VW55x_standard_peripheral/Source/gd32vw55x_gpio.c **** */
 261:../Firmware/GD32VW55x_standard_peripheral/Source/gd32vw55x_gpio.c **** uint16_t gpio_input_port_get(uint32_t gpio_periph)
 262:../Firmware/GD32VW55x_standard_peripheral/Source/gd32vw55x_gpio.c **** {
 523              		.loc 1 262 1
 524              		.cfi_startproc
 525 0000 0111     		addi	sp,sp,-32
 526              		.cfi_def_cfa_offset 32
 527 0002 22CE     		sw	s0,28(sp)
 528              		.cfi_offset 8, -4
 529 0004 0010     		addi	s0,sp,32
 530              		.cfi_def_cfa 8, 0
 531 0006 2326A4FE 		sw	a0,-20(s0)
 263:../Firmware/GD32VW55x_standard_peripheral/Source/gd32vw55x_gpio.c ****     return ((uint16_t)GPIO_ISTAT(gpio_periph));
 532              		.loc 1 263 23
 533 000a 8327C4FE 		lw	a5,-20(s0)
 534 000e C107     		addi	a5,a5,16
 535 0010 9C43     		lw	a5,0(a5)
 536              		.loc 1 263 13
 537 0012 C207     		slli	a5,a5,16
 538 0014 C183     		srli	a5,a5,16
 264:../Firmware/GD32VW55x_standard_peripheral/Source/gd32vw55x_gpio.c **** }
 539              		.loc 1 264 1
 540 0016 3E85     		mv	a0,a5
 541 0018 7244     		lw	s0,28(sp)
 542              		.cfi_restore 8
 543              		.cfi_def_cfa 2, 32
 544 001a 0561     		addi	sp,sp,32
 545              		.cfi_def_cfa_offset 0
 546 001c 8280     		jr	ra
 547              		.cfi_endproc
 548              	.LFE355:
 550              		.section	.text.gpio_output_bit_get,"ax",@progbits
 551              		.align	1
 552              		.globl	gpio_output_bit_get
 554              	gpio_output_bit_get:
 555              	.LFB356:
 265:../Firmware/GD32VW55x_standard_peripheral/Source/gd32vw55x_gpio.c **** 
 266:../Firmware/GD32VW55x_standard_peripheral/Source/gd32vw55x_gpio.c **** /*!
 267:../Firmware/GD32VW55x_standard_peripheral/Source/gd32vw55x_gpio.c ****     \brief      get GPIO pin output status
 268:../Firmware/GD32VW55x_standard_peripheral/Source/gd32vw55x_gpio.c ****     \param[in]  gpio_periph: GPIOx(x = A,B,C)
 269:../Firmware/GD32VW55x_standard_peripheral/Source/gd32vw55x_gpio.c ****                 only one parameter can be selected which is shown as below:
 270:../Firmware/GD32VW55x_standard_peripheral/Source/gd32vw55x_gpio.c ****       \arg        GPIOx(x = A,B,C)
 271:../Firmware/GD32VW55x_standard_peripheral/Source/gd32vw55x_gpio.c ****     \param[in]  pin: GPIO pin
 272:../Firmware/GD32VW55x_standard_peripheral/Source/gd32vw55x_gpio.c ****                 one or more parameters can be selected which are shown as below:
 273:../Firmware/GD32VW55x_standard_peripheral/Source/gd32vw55x_gpio.c ****       \arg        GPIO_PIN_x(x=0..15), GPIO_PIN_ALL
 274:../Firmware/GD32VW55x_standard_peripheral/Source/gd32vw55x_gpio.c ****     \param[out] none
 275:../Firmware/GD32VW55x_standard_peripheral/Source/gd32vw55x_gpio.c ****     \retval     SET or RESET
 276:../Firmware/GD32VW55x_standard_peripheral/Source/gd32vw55x_gpio.c **** */
 277:../Firmware/GD32VW55x_standard_peripheral/Source/gd32vw55x_gpio.c **** FlagStatus gpio_output_bit_get(uint32_t gpio_periph, uint32_t pin)
 278:../Firmware/GD32VW55x_standard_peripheral/Source/gd32vw55x_gpio.c **** {
 556              		.loc 1 278 1
 557              		.cfi_startproc
 558 0000 0111     		addi	sp,sp,-32
 559              		.cfi_def_cfa_offset 32
 560 0002 22CE     		sw	s0,28(sp)
 561              		.cfi_offset 8, -4
 562 0004 0010     		addi	s0,sp,32
 563              		.cfi_def_cfa 8, 0
 564 0006 2326A4FE 		sw	a0,-20(s0)
 565 000a 2324B4FE 		sw	a1,-24(s0)
 279:../Firmware/GD32VW55x_standard_peripheral/Source/gd32vw55x_gpio.c ****     if((uint32_t)RESET != (GPIO_OCTL(gpio_periph) & (pin))) {
 566              		.loc 1 279 28
 567 000e 8327C4FE 		lw	a5,-20(s0)
 568 0012 D107     		addi	a5,a5,20
 569 0014 9843     		lw	a4,0(a5)
 570              		.loc 1 279 51
 571 0016 832784FE 		lw	a5,-24(s0)
 572 001a F98F     		and	a5,a4,a5
 573              		.loc 1 279 7
 574 001c 99C3     		beq	a5,zero,.L31
 280:../Firmware/GD32VW55x_standard_peripheral/Source/gd32vw55x_gpio.c ****         return SET;
 575              		.loc 1 280 16
 576 001e 8547     		li	a5,1
 577 0020 11A0     		j	.L32
 578              	.L31:
 281:../Firmware/GD32VW55x_standard_peripheral/Source/gd32vw55x_gpio.c ****     } else {
 282:../Firmware/GD32VW55x_standard_peripheral/Source/gd32vw55x_gpio.c ****         return RESET;
 579              		.loc 1 282 16
 580 0022 8147     		li	a5,0
 581              	.L32:
 283:../Firmware/GD32VW55x_standard_peripheral/Source/gd32vw55x_gpio.c ****     }
 284:../Firmware/GD32VW55x_standard_peripheral/Source/gd32vw55x_gpio.c **** }
 582              		.loc 1 284 1
 583 0024 3E85     		mv	a0,a5
 584 0026 7244     		lw	s0,28(sp)
 585              		.cfi_restore 8
 586              		.cfi_def_cfa 2, 32
 587 0028 0561     		addi	sp,sp,32
 588              		.cfi_def_cfa_offset 0
 589 002a 8280     		jr	ra
 590              		.cfi_endproc
 591              	.LFE356:
 593              		.section	.text.gpio_output_port_get,"ax",@progbits
 594              		.align	1
 595              		.globl	gpio_output_port_get
 597              	gpio_output_port_get:
 598              	.LFB357:
 285:../Firmware/GD32VW55x_standard_peripheral/Source/gd32vw55x_gpio.c **** 
 286:../Firmware/GD32VW55x_standard_peripheral/Source/gd32vw55x_gpio.c **** /*!
 287:../Firmware/GD32VW55x_standard_peripheral/Source/gd32vw55x_gpio.c ****     \brief      get GPIO port output status
 288:../Firmware/GD32VW55x_standard_peripheral/Source/gd32vw55x_gpio.c ****     \param[in]  gpio_periph: GPIOx(x = A,B,C)
 289:../Firmware/GD32VW55x_standard_peripheral/Source/gd32vw55x_gpio.c ****                 only one parameter can be selected which is shown as below:
 290:../Firmware/GD32VW55x_standard_peripheral/Source/gd32vw55x_gpio.c ****       \arg        GPIOx(x = A,B,C)
 291:../Firmware/GD32VW55x_standard_peripheral/Source/gd32vw55x_gpio.c ****     \param[out] none
 292:../Firmware/GD32VW55x_standard_peripheral/Source/gd32vw55x_gpio.c ****     \retval     state of GPIO all pins:0x0000-0xFFFF
 293:../Firmware/GD32VW55x_standard_peripheral/Source/gd32vw55x_gpio.c **** */
 294:../Firmware/GD32VW55x_standard_peripheral/Source/gd32vw55x_gpio.c **** uint16_t gpio_output_port_get(uint32_t gpio_periph)
 295:../Firmware/GD32VW55x_standard_peripheral/Source/gd32vw55x_gpio.c **** {
 599              		.loc 1 295 1
 600              		.cfi_startproc
 601 0000 0111     		addi	sp,sp,-32
 602              		.cfi_def_cfa_offset 32
 603 0002 22CE     		sw	s0,28(sp)
 604              		.cfi_offset 8, -4
 605 0004 0010     		addi	s0,sp,32
 606              		.cfi_def_cfa 8, 0
 607 0006 2326A4FE 		sw	a0,-20(s0)
 296:../Firmware/GD32VW55x_standard_peripheral/Source/gd32vw55x_gpio.c ****     return ((uint16_t)GPIO_OCTL(gpio_periph));
 608              		.loc 1 296 23
 609 000a 8327C4FE 		lw	a5,-20(s0)
 610 000e D107     		addi	a5,a5,20
 611 0010 9C43     		lw	a5,0(a5)
 612              		.loc 1 296 13
 613 0012 C207     		slli	a5,a5,16
 614 0014 C183     		srli	a5,a5,16
 297:../Firmware/GD32VW55x_standard_peripheral/Source/gd32vw55x_gpio.c **** }
 615              		.loc 1 297 1
 616 0016 3E85     		mv	a0,a5
 617 0018 7244     		lw	s0,28(sp)
 618              		.cfi_restore 8
 619              		.cfi_def_cfa 2, 32
 620 001a 0561     		addi	sp,sp,32
 621              		.cfi_def_cfa_offset 0
 622 001c 8280     		jr	ra
 623              		.cfi_endproc
 624              	.LFE357:
 626              		.section	.text.gpio_af_set,"ax",@progbits
 627              		.align	1
 628              		.globl	gpio_af_set
 630              	gpio_af_set:
 631              	.LFB358:
 298:../Firmware/GD32VW55x_standard_peripheral/Source/gd32vw55x_gpio.c **** 
 299:../Firmware/GD32VW55x_standard_peripheral/Source/gd32vw55x_gpio.c **** /*!
 300:../Firmware/GD32VW55x_standard_peripheral/Source/gd32vw55x_gpio.c ****     \brief      set GPIO alternate function
 301:../Firmware/GD32VW55x_standard_peripheral/Source/gd32vw55x_gpio.c ****     \param[in]  gpio_periph: GPIOx(x = A,B,C)
 302:../Firmware/GD32VW55x_standard_peripheral/Source/gd32vw55x_gpio.c ****                 only one parameter can be selected which is shown as below:
 303:../Firmware/GD32VW55x_standard_peripheral/Source/gd32vw55x_gpio.c ****       \arg        GPIOx(x = A,B,C)
 304:../Firmware/GD32VW55x_standard_peripheral/Source/gd32vw55x_gpio.c ****     \param[in]  alt_func_num: gpio pin af function
 305:../Firmware/GD32VW55x_standard_peripheral/Source/gd32vw55x_gpio.c ****                 only one parameter can be selected which is shown as below:
 306:../Firmware/GD32VW55x_standard_peripheral/Source/gd32vw55x_gpio.c ****       \arg        GPIO_AF_0: USART0, UART1, I2C1, CK_OUT0, SPI, JTAG, CK_OUT1, RTC_REF, IFRP_OUT
 307:../Firmware/GD32VW55x_standard_peripheral/Source/gd32vw55x_gpio.c ****       \arg        GPIO_AF_1: TIMER0, TIMER1
 308:../Firmware/GD32VW55x_standard_peripheral/Source/gd32vw55x_gpio.c ****       \arg        GPIO_AF_2: USART0, TIMER0, TIMER2, SPI
 309:../Firmware/GD32VW55x_standard_peripheral/Source/gd32vw55x_gpio.c ****       \arg        GPIO_AF_3: QSPI, USART1, TIMER0, TIMER1, TIMER2
 310:../Firmware/GD32VW55x_standard_peripheral/Source/gd32vw55x_gpio.c ****       \arg        GPIO_AF_4: UART1, SPI, I2C0, QSPI, I2C1
 311:../Firmware/GD32VW55x_standard_peripheral/Source/gd32vw55x_gpio.c ****       \arg        GPIO_AF_5: SPI, I2C0
 312:../Firmware/GD32VW55x_standard_peripheral/Source/gd32vw55x_gpio.c ****       \arg        GPIO_AF_6: TIMER0, I2C0, SPI, I2C1
 313:../Firmware/GD32VW55x_standard_peripheral/Source/gd32vw55x_gpio.c ****       \arg        GPIO_AF_7: USART0, UART1, TIMER16, SPI
 314:../Firmware/GD32VW55x_standard_peripheral/Source/gd32vw55x_gpio.c ****       \arg        GPIO_AF_8: USART0, UART1, UART2, TIMER0, TIMER2, TIMER15
 315:../Firmware/GD32VW55x_standard_peripheral/Source/gd32vw55x_gpio.c ****       \arg        GPIO_AF_9: RTC, TIMER0, TIMER1, TIMER16, IFRP_OUT
 316:../Firmware/GD32VW55x_standard_peripheral/Source/gd32vw55x_gpio.c ****       \arg        GPIO_AF_10: UART2, TIMER2, TIMER16
 317:../Firmware/GD32VW55x_standard_peripheral/Source/gd32vw55x_gpio.c ****       \arg        GPIO_AF_11: TIMER0, TIMER15
 318:../Firmware/GD32VW55x_standard_peripheral/Source/gd32vw55x_gpio.c ****     \param[in]  pin: GPIO pin
 319:../Firmware/GD32VW55x_standard_peripheral/Source/gd32vw55x_gpio.c ****                 one or more parameters can be selected which are shown as below:
 320:../Firmware/GD32VW55x_standard_peripheral/Source/gd32vw55x_gpio.c ****       \arg        GPIO_PIN_x(x=0..15), GPIO_PIN_ALL
 321:../Firmware/GD32VW55x_standard_peripheral/Source/gd32vw55x_gpio.c ****     \param[out] none
 322:../Firmware/GD32VW55x_standard_peripheral/Source/gd32vw55x_gpio.c ****     \retval     none
 323:../Firmware/GD32VW55x_standard_peripheral/Source/gd32vw55x_gpio.c **** */
 324:../Firmware/GD32VW55x_standard_peripheral/Source/gd32vw55x_gpio.c **** void gpio_af_set(uint32_t gpio_periph, uint32_t alt_func_num, uint32_t pin)
 325:../Firmware/GD32VW55x_standard_peripheral/Source/gd32vw55x_gpio.c **** {
 632              		.loc 1 325 1
 633              		.cfi_startproc
 634 0000 7971     		addi	sp,sp,-48
 635              		.cfi_def_cfa_offset 48
 636 0002 22D6     		sw	s0,44(sp)
 637              		.cfi_offset 8, -4
 638 0004 0018     		addi	s0,sp,48
 639              		.cfi_def_cfa 8, 0
 640 0006 232EA4FC 		sw	a0,-36(s0)
 641 000a 232CB4FC 		sw	a1,-40(s0)
 642 000e 232AC4FC 		sw	a2,-44(s0)
 326:../Firmware/GD32VW55x_standard_peripheral/Source/gd32vw55x_gpio.c ****     uint16_t i;
 327:../Firmware/GD32VW55x_standard_peripheral/Source/gd32vw55x_gpio.c ****     uint32_t afrl, afrh;
 328:../Firmware/GD32VW55x_standard_peripheral/Source/gd32vw55x_gpio.c **** 
 329:../Firmware/GD32VW55x_standard_peripheral/Source/gd32vw55x_gpio.c ****     afrl = GPIO_AFSEL0(gpio_periph);
 643              		.loc 1 329 12
 644 0012 8327C4FD 		lw	a5,-36(s0)
 645 0016 93870702 		addi	a5,a5,32
 646              		.loc 1 329 10
 647 001a 9C43     		lw	a5,0(a5)
 648 001c 2324F4FE 		sw	a5,-24(s0)
 330:../Firmware/GD32VW55x_standard_peripheral/Source/gd32vw55x_gpio.c ****     afrh = GPIO_AFSEL1(gpio_periph);
 649              		.loc 1 330 12
 650 0020 8327C4FD 		lw	a5,-36(s0)
 651 0024 93874702 		addi	a5,a5,36
 652              		.loc 1 330 10
 653 0028 9C43     		lw	a5,0(a5)
 654 002a 2322F4FE 		sw	a5,-28(s0)
 331:../Firmware/GD32VW55x_standard_peripheral/Source/gd32vw55x_gpio.c **** 
 332:../Firmware/GD32VW55x_standard_peripheral/Source/gd32vw55x_gpio.c ****     for(i = 0U; i < 8U; i++) {
 655              		.loc 1 332 11
 656 002e 231704FE 		sh	zero,-18(s0)
 657              		.loc 1 332 5
 658 0032 81A8     		j	.L36
 659              	.L38:
 333:../Firmware/GD32VW55x_standard_peripheral/Source/gd32vw55x_gpio.c ****         if((1U << i) & pin) {
 660              		.loc 1 333 16
 661 0034 8357E4FE 		lhu	a5,-18(s0)
 662 0038 0547     		li	a4,1
 663 003a 3317F700 		sll	a4,a4,a5
 664              		.loc 1 333 22
 665 003e 832744FD 		lw	a5,-44(s0)
 666 0042 F98F     		and	a5,a4,a5
 667              		.loc 1 333 11
 668 0044 95CB     		beq	a5,zero,.L37
 334:../Firmware/GD32VW55x_standard_peripheral/Source/gd32vw55x_gpio.c ****             /* clear the specified pin alternate function bits */
 335:../Firmware/GD32VW55x_standard_peripheral/Source/gd32vw55x_gpio.c ****             afrl &= ~GPIO_AFR_MASK(i);
 669              		.loc 1 335 22
 670 0046 8357E4FE 		lhu	a5,-18(s0)
 671 004a 8A07     		slli	a5,a5,2
 672 004c 3D47     		li	a4,15
 673 004e B317F700 		sll	a5,a4,a5
 674              		.loc 1 335 21
 675 0052 93C7F7FF 		not	a5,a5
 676              		.loc 1 335 18
 677 0056 032784FE 		lw	a4,-24(s0)
 678 005a F98F     		and	a5,a4,a5
 679 005c 2324F4FE 		sw	a5,-24(s0)
 336:../Firmware/GD32VW55x_standard_peripheral/Source/gd32vw55x_gpio.c ****             afrl |= GPIO_AFR_SET(i, alt_func_num);
 680              		.loc 1 336 21
 681 0060 8357E4FE 		lhu	a5,-18(s0)
 682 0064 8A07     		slli	a5,a5,2
 683 0066 032784FD 		lw	a4,-40(s0)
 684 006a B317F700 		sll	a5,a4,a5
 685              		.loc 1 336 18
 686 006e 032784FE 		lw	a4,-24(s0)
 687 0072 D98F     		or	a5,a4,a5
 688 0074 2324F4FE 		sw	a5,-24(s0)
 689              	.L37:
 332:../Firmware/GD32VW55x_standard_peripheral/Source/gd32vw55x_gpio.c ****         if((1U << i) & pin) {
 690              		.loc 1 332 26 discriminator 2
 691 0078 8357E4FE 		lhu	a5,-18(s0)
 692 007c 8507     		addi	a5,a5,1
 693 007e 2317F4FE 		sh	a5,-18(s0)
 694              	.L36:
 332:../Firmware/GD32VW55x_standard_peripheral/Source/gd32vw55x_gpio.c ****         if((1U << i) & pin) {
 695              		.loc 1 332 5 discriminator 1
 696 0082 0357E4FE 		lhu	a4,-18(s0)
 697 0086 9D47     		li	a5,7
 698 0088 E3F6E7FA 		bleu	a4,a5,.L38
 337:../Firmware/GD32VW55x_standard_peripheral/Source/gd32vw55x_gpio.c ****         }
 338:../Firmware/GD32VW55x_standard_peripheral/Source/gd32vw55x_gpio.c ****     }
 339:../Firmware/GD32VW55x_standard_peripheral/Source/gd32vw55x_gpio.c **** 
 340:../Firmware/GD32VW55x_standard_peripheral/Source/gd32vw55x_gpio.c ****     for(i = 8U; i < 16U; i++) {
 699              		.loc 1 340 11
 700 008c A147     		li	a5,8
 701 008e 2317F4FE 		sh	a5,-18(s0)
 702              		.loc 1 340 5
 703 0092 91A8     		j	.L39
 704              	.L41:
 341:../Firmware/GD32VW55x_standard_peripheral/Source/gd32vw55x_gpio.c ****         if((1U << i) & pin) {
 705              		.loc 1 341 16
 706 0094 8357E4FE 		lhu	a5,-18(s0)
 707 0098 0547     		li	a4,1
 708 009a 3317F700 		sll	a4,a4,a5
 709              		.loc 1 341 22
 710 009e 832744FD 		lw	a5,-44(s0)
 711 00a2 F98F     		and	a5,a4,a5
 712              		.loc 1 341 11
 713 00a4 85CF     		beq	a5,zero,.L40
 342:../Firmware/GD32VW55x_standard_peripheral/Source/gd32vw55x_gpio.c ****             /* clear the specified pin alternate function bits */
 343:../Firmware/GD32VW55x_standard_peripheral/Source/gd32vw55x_gpio.c ****             afrh &= ~GPIO_AFR_MASK(i - 8U);
 714              		.loc 1 343 22
 715 00a6 8357E4FE 		lhu	a5,-18(s0)
 716 00aa E117     		addi	a5,a5,-8
 717 00ac 8A07     		slli	a5,a5,2
 718 00ae 3D47     		li	a4,15
 719 00b0 B317F700 		sll	a5,a4,a5
 720              		.loc 1 343 21
 721 00b4 93C7F7FF 		not	a5,a5
 722              		.loc 1 343 18
 723 00b8 032744FE 		lw	a4,-28(s0)
 724 00bc F98F     		and	a5,a4,a5
 725 00be 2322F4FE 		sw	a5,-28(s0)
 344:../Firmware/GD32VW55x_standard_peripheral/Source/gd32vw55x_gpio.c ****             afrh |= GPIO_AFR_SET(i - 8U, alt_func_num);
 726              		.loc 1 344 21
 727 00c2 8357E4FE 		lhu	a5,-18(s0)
 728 00c6 E117     		addi	a5,a5,-8
 729 00c8 8A07     		slli	a5,a5,2
 730 00ca 032784FD 		lw	a4,-40(s0)
 731 00ce B317F700 		sll	a5,a4,a5
 732              		.loc 1 344 18
 733 00d2 032744FE 		lw	a4,-28(s0)
 734 00d6 D98F     		or	a5,a4,a5
 735 00d8 2322F4FE 		sw	a5,-28(s0)
 736              	.L40:
 340:../Firmware/GD32VW55x_standard_peripheral/Source/gd32vw55x_gpio.c ****         if((1U << i) & pin) {
 737              		.loc 1 340 27 discriminator 2
 738 00dc 8357E4FE 		lhu	a5,-18(s0)
 739 00e0 8507     		addi	a5,a5,1
 740 00e2 2317F4FE 		sh	a5,-18(s0)
 741              	.L39:
 340:../Firmware/GD32VW55x_standard_peripheral/Source/gd32vw55x_gpio.c ****         if((1U << i) & pin) {
 742              		.loc 1 340 5 discriminator 1
 743 00e6 0357E4FE 		lhu	a4,-18(s0)
 744 00ea BD47     		li	a5,15
 745 00ec E3F4E7FA 		bleu	a4,a5,.L41
 345:../Firmware/GD32VW55x_standard_peripheral/Source/gd32vw55x_gpio.c ****         }
 346:../Firmware/GD32VW55x_standard_peripheral/Source/gd32vw55x_gpio.c ****     }
 347:../Firmware/GD32VW55x_standard_peripheral/Source/gd32vw55x_gpio.c **** 
 348:../Firmware/GD32VW55x_standard_peripheral/Source/gd32vw55x_gpio.c ****     GPIO_AFSEL0(gpio_periph) = afrl;
 746              		.loc 1 348 5
 747 00f0 8327C4FD 		lw	a5,-36(s0)
 748 00f4 93870702 		addi	a5,a5,32
 749 00f8 3E87     		mv	a4,a5
 750              		.loc 1 348 30
 751 00fa 832784FE 		lw	a5,-24(s0)
 752 00fe 1CC3     		sw	a5,0(a4)
 349:../Firmware/GD32VW55x_standard_peripheral/Source/gd32vw55x_gpio.c ****     GPIO_AFSEL1(gpio_periph) = afrh;
 753              		.loc 1 349 5
 754 0100 8327C4FD 		lw	a5,-36(s0)
 755 0104 93874702 		addi	a5,a5,36
 756 0108 3E87     		mv	a4,a5
 757              		.loc 1 349 30
 758 010a 832744FE 		lw	a5,-28(s0)
 759 010e 1CC3     		sw	a5,0(a4)
 350:../Firmware/GD32VW55x_standard_peripheral/Source/gd32vw55x_gpio.c **** }
 760              		.loc 1 350 1
 761 0110 0100     		nop
 762 0112 3254     		lw	s0,44(sp)
 763              		.cfi_restore 8
 764              		.cfi_def_cfa 2, 48
 765 0114 4561     		addi	sp,sp,48
 766              		.cfi_def_cfa_offset 0
 767 0116 8280     		jr	ra
 768              		.cfi_endproc
 769              	.LFE358:
 771              		.section	.text.gpio_pin_lock,"ax",@progbits
 772              		.align	1
 773              		.globl	gpio_pin_lock
 775              	gpio_pin_lock:
 776              	.LFB359:
 351:../Firmware/GD32VW55x_standard_peripheral/Source/gd32vw55x_gpio.c **** 
 352:../Firmware/GD32VW55x_standard_peripheral/Source/gd32vw55x_gpio.c **** /*!
 353:../Firmware/GD32VW55x_standard_peripheral/Source/gd32vw55x_gpio.c ****     \brief      lock GPIO pin bit
 354:../Firmware/GD32VW55x_standard_peripheral/Source/gd32vw55x_gpio.c ****     \param[in]  gpio_periph: GPIOx(x = A,B,C)
 355:../Firmware/GD32VW55x_standard_peripheral/Source/gd32vw55x_gpio.c ****                 only one parameter can be selected which is shown as below:
 356:../Firmware/GD32VW55x_standard_peripheral/Source/gd32vw55x_gpio.c ****       \arg        GPIOx(x = A,B,C)
 357:../Firmware/GD32VW55x_standard_peripheral/Source/gd32vw55x_gpio.c ****     \param[in]  pin: GPIO pin
 358:../Firmware/GD32VW55x_standard_peripheral/Source/gd32vw55x_gpio.c ****                 one or more parameters can be selected which are shown as below:
 359:../Firmware/GD32VW55x_standard_peripheral/Source/gd32vw55x_gpio.c ****       \arg        GPIO_PIN_x(x=0..15), GPIO_PIN_ALL
 360:../Firmware/GD32VW55x_standard_peripheral/Source/gd32vw55x_gpio.c ****     \param[out] none
 361:../Firmware/GD32VW55x_standard_peripheral/Source/gd32vw55x_gpio.c ****     \retval     none
 362:../Firmware/GD32VW55x_standard_peripheral/Source/gd32vw55x_gpio.c **** */
 363:../Firmware/GD32VW55x_standard_peripheral/Source/gd32vw55x_gpio.c **** void gpio_pin_lock(uint32_t gpio_periph, uint32_t pin)
 364:../Firmware/GD32VW55x_standard_peripheral/Source/gd32vw55x_gpio.c **** {
 777              		.loc 1 364 1
 778              		.cfi_startproc
 779 0000 7971     		addi	sp,sp,-48
 780              		.cfi_def_cfa_offset 48
 781 0002 22D6     		sw	s0,44(sp)
 782              		.cfi_offset 8, -4
 783 0004 0018     		addi	s0,sp,48
 784              		.cfi_def_cfa 8, 0
 785 0006 232EA4FC 		sw	a0,-36(s0)
 786 000a 232CB4FC 		sw	a1,-40(s0)
 365:../Firmware/GD32VW55x_standard_peripheral/Source/gd32vw55x_gpio.c ****     uint32_t lock = 0x00010000U;
 787              		.loc 1 365 14
 788 000e C167     		li	a5,65536
 789 0010 2326F4FE 		sw	a5,-20(s0)
 366:../Firmware/GD32VW55x_standard_peripheral/Source/gd32vw55x_gpio.c ****     lock |= pin;
 790              		.loc 1 366 10
 791 0014 0327C4FE 		lw	a4,-20(s0)
 792 0018 832784FD 		lw	a5,-40(s0)
 793 001c D98F     		or	a5,a4,a5
 794 001e 2326F4FE 		sw	a5,-20(s0)
 367:../Firmware/GD32VW55x_standard_peripheral/Source/gd32vw55x_gpio.c ****     /* lock key writing sequence: write 1->write 0->write 1->read 0->read 1 */
 368:../Firmware/GD32VW55x_standard_peripheral/Source/gd32vw55x_gpio.c ****     GPIO_LOCK(gpio_periph) = (uint32_t)lock;
 795              		.loc 1 368 5
 796 0022 8327C4FD 		lw	a5,-36(s0)
 797 0026 F107     		addi	a5,a5,28
 798 0028 3E87     		mv	a4,a5
 799              		.loc 1 368 28
 800 002a 8327C4FE 		lw	a5,-20(s0)
 801 002e 1CC3     		sw	a5,0(a4)
 369:../Firmware/GD32VW55x_standard_peripheral/Source/gd32vw55x_gpio.c ****     GPIO_LOCK(gpio_periph) = (uint32_t)pin;
 802              		.loc 1 369 5
 803 0030 8327C4FD 		lw	a5,-36(s0)
 804 0034 F107     		addi	a5,a5,28
 805 0036 3E87     		mv	a4,a5
 806              		.loc 1 369 28
 807 0038 832784FD 		lw	a5,-40(s0)
 808 003c 1CC3     		sw	a5,0(a4)
 370:../Firmware/GD32VW55x_standard_peripheral/Source/gd32vw55x_gpio.c ****     GPIO_LOCK(gpio_periph) = (uint32_t)lock;
 809              		.loc 1 370 5
 810 003e 8327C4FD 		lw	a5,-36(s0)
 811 0042 F107     		addi	a5,a5,28
 812 0044 3E87     		mv	a4,a5
 813              		.loc 1 370 28
 814 0046 8327C4FE 		lw	a5,-20(s0)
 815 004a 1CC3     		sw	a5,0(a4)
 371:../Firmware/GD32VW55x_standard_peripheral/Source/gd32vw55x_gpio.c ****     lock = GPIO_LOCK(gpio_periph);
 816              		.loc 1 371 12
 817 004c 8327C4FD 		lw	a5,-36(s0)
 818 0050 F107     		addi	a5,a5,28
 819              		.loc 1 371 10
 820 0052 9C43     		lw	a5,0(a5)
 821 0054 2326F4FE 		sw	a5,-20(s0)
 372:../Firmware/GD32VW55x_standard_peripheral/Source/gd32vw55x_gpio.c ****     lock = GPIO_LOCK(gpio_periph);
 822              		.loc 1 372 12
 823 0058 8327C4FD 		lw	a5,-36(s0)
 824 005c F107     		addi	a5,a5,28
 825              		.loc 1 372 10
 826 005e 9C43     		lw	a5,0(a5)
 827 0060 2326F4FE 		sw	a5,-20(s0)
 373:../Firmware/GD32VW55x_standard_peripheral/Source/gd32vw55x_gpio.c **** }
 828              		.loc 1 373 1
 829 0064 0100     		nop
 830 0066 3254     		lw	s0,44(sp)
 831              		.cfi_restore 8
 832              		.cfi_def_cfa 2, 48
 833 0068 4561     		addi	sp,sp,48
 834              		.cfi_def_cfa_offset 0
 835 006a 8280     		jr	ra
 836              		.cfi_endproc
 837              	.LFE359:
 839              		.section	.text.gpio_bit_toggle,"ax",@progbits
 840              		.align	1
 841              		.globl	gpio_bit_toggle
 843              	gpio_bit_toggle:
 844              	.LFB360:
 374:../Firmware/GD32VW55x_standard_peripheral/Source/gd32vw55x_gpio.c **** 
 375:../Firmware/GD32VW55x_standard_peripheral/Source/gd32vw55x_gpio.c **** /*!
 376:../Firmware/GD32VW55x_standard_peripheral/Source/gd32vw55x_gpio.c ****     \brief      toggle GPIO pin status
 377:../Firmware/GD32VW55x_standard_peripheral/Source/gd32vw55x_gpio.c ****     \param[in]  gpio_periph: GPIOx(x = A,B,C)
 378:../Firmware/GD32VW55x_standard_peripheral/Source/gd32vw55x_gpio.c ****                 only one parameter can be selected which is shown as below:
 379:../Firmware/GD32VW55x_standard_peripheral/Source/gd32vw55x_gpio.c ****       \arg        GPIOx(x = A,B,C)
 380:../Firmware/GD32VW55x_standard_peripheral/Source/gd32vw55x_gpio.c ****     \param[in]  pin: GPIO pin
 381:../Firmware/GD32VW55x_standard_peripheral/Source/gd32vw55x_gpio.c ****                 one or more parameters can be selected which are shown as below:
 382:../Firmware/GD32VW55x_standard_peripheral/Source/gd32vw55x_gpio.c ****       \arg        GPIO_PIN_x(x=0..15), GPIO_PIN_ALL
 383:../Firmware/GD32VW55x_standard_peripheral/Source/gd32vw55x_gpio.c ****     \param[out] none
 384:../Firmware/GD32VW55x_standard_peripheral/Source/gd32vw55x_gpio.c ****     \retval     none
 385:../Firmware/GD32VW55x_standard_peripheral/Source/gd32vw55x_gpio.c **** */
 386:../Firmware/GD32VW55x_standard_peripheral/Source/gd32vw55x_gpio.c **** void gpio_bit_toggle(uint32_t gpio_periph, uint32_t pin)
 387:../Firmware/GD32VW55x_standard_peripheral/Source/gd32vw55x_gpio.c **** {
 845              		.loc 1 387 1
 846              		.cfi_startproc
 847 0000 0111     		addi	sp,sp,-32
 848              		.cfi_def_cfa_offset 32
 849 0002 22CE     		sw	s0,28(sp)
 850              		.cfi_offset 8, -4
 851 0004 0010     		addi	s0,sp,32
 852              		.cfi_def_cfa 8, 0
 853 0006 2326A4FE 		sw	a0,-20(s0)
 854 000a 2324B4FE 		sw	a1,-24(s0)
 388:../Firmware/GD32VW55x_standard_peripheral/Source/gd32vw55x_gpio.c ****     GPIO_TG(gpio_periph) = (uint32_t)pin;
 855              		.loc 1 388 5
 856 000e 8327C4FE 		lw	a5,-20(s0)
 857 0012 9387C702 		addi	a5,a5,44
 858 0016 3E87     		mv	a4,a5
 859              		.loc 1 388 26
 860 0018 832784FE 		lw	a5,-24(s0)
 861 001c 1CC3     		sw	a5,0(a4)
 389:../Firmware/GD32VW55x_standard_peripheral/Source/gd32vw55x_gpio.c **** }
 862              		.loc 1 389 1
 863 001e 0100     		nop
 864 0020 7244     		lw	s0,28(sp)
 865              		.cfi_restore 8
 866              		.cfi_def_cfa 2, 32
 867 0022 0561     		addi	sp,sp,32
 868              		.cfi_def_cfa_offset 0
 869 0024 8280     		jr	ra
 870              		.cfi_endproc
 871              	.LFE360:
 873              		.section	.text.gpio_port_toggle,"ax",@progbits
 874              		.align	1
 875              		.globl	gpio_port_toggle
 877              	gpio_port_toggle:
 878              	.LFB361:
 390:../Firmware/GD32VW55x_standard_peripheral/Source/gd32vw55x_gpio.c **** 
 391:../Firmware/GD32VW55x_standard_peripheral/Source/gd32vw55x_gpio.c **** /*!
 392:../Firmware/GD32VW55x_standard_peripheral/Source/gd32vw55x_gpio.c ****     \brief      toggle GPIO port status
 393:../Firmware/GD32VW55x_standard_peripheral/Source/gd32vw55x_gpio.c ****     \param[in]  gpio_periph: GPIOx(x = A,B,C)
 394:../Firmware/GD32VW55x_standard_peripheral/Source/gd32vw55x_gpio.c ****                 only one parameter can be selected which is shown as below:
 395:../Firmware/GD32VW55x_standard_peripheral/Source/gd32vw55x_gpio.c ****       \arg        GPIOx(x = A,B,C)
 396:../Firmware/GD32VW55x_standard_peripheral/Source/gd32vw55x_gpio.c ****     \param[out] none
 397:../Firmware/GD32VW55x_standard_peripheral/Source/gd32vw55x_gpio.c ****     \retval     none
 398:../Firmware/GD32VW55x_standard_peripheral/Source/gd32vw55x_gpio.c **** */
 399:../Firmware/GD32VW55x_standard_peripheral/Source/gd32vw55x_gpio.c **** void gpio_port_toggle(uint32_t gpio_periph)
 400:../Firmware/GD32VW55x_standard_peripheral/Source/gd32vw55x_gpio.c **** {
 879              		.loc 1 400 1
 880              		.cfi_startproc
 881 0000 0111     		addi	sp,sp,-32
 882              		.cfi_def_cfa_offset 32
 883 0002 22CE     		sw	s0,28(sp)
 884              		.cfi_offset 8, -4
 885 0004 0010     		addi	s0,sp,32
 886              		.cfi_def_cfa 8, 0
 887 0006 2326A4FE 		sw	a0,-20(s0)
 401:../Firmware/GD32VW55x_standard_peripheral/Source/gd32vw55x_gpio.c ****     GPIO_TG(gpio_periph) = 0x0000FFFFU;
 888              		.loc 1 401 5
 889 000a 8327C4FE 		lw	a5,-20(s0)
 890 000e 9387C702 		addi	a5,a5,44
 891 0012 3E87     		mv	a4,a5
 892              		.loc 1 401 26
 893 0014 C167     		li	a5,65536
 894 0016 FD17     		addi	a5,a5,-1
 895 0018 1CC3     		sw	a5,0(a4)
 402:../Firmware/GD32VW55x_standard_peripheral/Source/gd32vw55x_gpio.c **** }
 896              		.loc 1 402 1
 897 001a 0100     		nop
 898 001c 7244     		lw	s0,28(sp)
 899              		.cfi_restore 8
 900              		.cfi_def_cfa 2, 32
 901 001e 0561     		addi	sp,sp,32
 902              		.cfi_def_cfa_offset 0
 903 0020 8280     		jr	ra
 904              		.cfi_endproc
 905              	.LFE361:
 907              		.text
 908              	.Letext0:
 909              		.file 2 "e:\\gd32\\gd32embeddedbuilder_v1.5.2.30854\\tools\\nuclei_riscv_newlibc_prebuilt_win32_20
 910              		.file 3 "e:\\gd32\\gd32embeddedbuilder_v1.5.2.30854\\tools\\nuclei_riscv_newlibc_prebuilt_win32_20
 911              		.file 4 "../Firmware/GD32VW55x_standard_peripheral/gd32vw55x.h"
 912              		.file 5 "../Firmware/GD32VW55x_standard_peripheral/Include/gd32vw55x_rcu.h"
 913              		.file 6 "../Firmware/GD32VW55x_standard_peripheral/Include/gd32vw55x_gpio.h"
DEFINED SYMBOLS
                            *ABS*:0000000000000000 gd32vw55x_gpio.c
C:\Users\CYMR90~1\AppData\Local\Temp\cc3o48Uk.s:13     .text.gpio_deinit:0000000000000000 gpio_deinit
C:\Users\CYMR90~1\AppData\Local\Temp\cc3o48Uk.s:17     .text.gpio_deinit:0000000000000000 .L0 
C:\Users\CYMR90~1\AppData\Local\Temp\cc3o48Uk.s:18     .text.gpio_deinit:0000000000000000 .L0 
C:\Users\CYMR90~1\AppData\Local\Temp\cc3o48Uk.s:19     .text.gpio_deinit:0000000000000002 .L0 
C:\Users\CYMR90~1\AppData\Local\Temp\cc3o48Uk.s:22     .text.gpio_deinit:0000000000000006 .L0 
C:\Users\CYMR90~1\AppData\Local\Temp\cc3o48Uk.s:23     .text.gpio_deinit:0000000000000006 .L0 
C:\Users\CYMR90~1\AppData\Local\Temp\cc3o48Uk.s:25     .text.gpio_deinit:0000000000000008 .L0 
C:\Users\CYMR90~1\AppData\Local\Temp\cc3o48Uk.s:28     .text.gpio_deinit:000000000000000c .L0 
C:\Users\CYMR90~1\AppData\Local\Temp\cc3o48Uk.s:44     .text.gpio_deinit:0000000000000048 .L0 
C:\Users\CYMR90~1\AppData\Local\Temp\cc3o48Uk.s:47     .text.gpio_deinit:000000000000004a .L0 
C:\Users\CYMR90~1\AppData\Local\Temp\cc3o48Uk.s:50     .text.gpio_deinit:0000000000000056 .L0 
C:\Users\CYMR90~1\AppData\Local\Temp\cc3o48Uk.s:53     .text.gpio_deinit:0000000000000062 .L0 
C:\Users\CYMR90~1\AppData\Local\Temp\cc3o48Uk.s:56     .text.gpio_deinit:0000000000000064 .L0 
C:\Users\CYMR90~1\AppData\Local\Temp\cc3o48Uk.s:59     .text.gpio_deinit:0000000000000070 .L0 
C:\Users\CYMR90~1\AppData\Local\Temp\cc3o48Uk.s:62     .text.gpio_deinit:000000000000007c .L0 
C:\Users\CYMR90~1\AppData\Local\Temp\cc3o48Uk.s:65     .text.gpio_deinit:000000000000007e .L0 
C:\Users\CYMR90~1\AppData\Local\Temp\cc3o48Uk.s:68     .text.gpio_deinit:000000000000008a .L0 
C:\Users\CYMR90~1\AppData\Local\Temp\cc3o48Uk.s:71     .text.gpio_deinit:0000000000000096 .L0 
C:\Users\CYMR90~1\AppData\Local\Temp\cc3o48Uk.s:74     .text.gpio_deinit:0000000000000098 .L0 
C:\Users\CYMR90~1\AppData\Local\Temp\cc3o48Uk.s:77     .text.gpio_deinit:000000000000009a .L0 
C:\Users\CYMR90~1\AppData\Local\Temp\cc3o48Uk.s:79     .text.gpio_deinit:000000000000009e .L0 
C:\Users\CYMR90~1\AppData\Local\Temp\cc3o48Uk.s:81     .text.gpio_deinit:00000000000000a0 .L0 
C:\Users\CYMR90~1\AppData\Local\Temp\cc3o48Uk.s:82     .text.gpio_deinit:00000000000000a0 .L0 
C:\Users\CYMR90~1\AppData\Local\Temp\cc3o48Uk.s:84     .text.gpio_deinit:00000000000000a2 .L0 
C:\Users\CYMR90~1\AppData\Local\Temp\cc3o48Uk.s:86     .text.gpio_deinit:00000000000000a4 .L0 
C:\Users\CYMR90~1\AppData\Local\Temp\cc3o48Uk.s:93     .text.gpio_mode_set:0000000000000000 gpio_mode_set
C:\Users\CYMR90~1\AppData\Local\Temp\cc3o48Uk.s:96     .text.gpio_mode_set:0000000000000000 .L0 
C:\Users\CYMR90~1\AppData\Local\Temp\cc3o48Uk.s:97     .text.gpio_mode_set:0000000000000000 .L0 
C:\Users\CYMR90~1\AppData\Local\Temp\cc3o48Uk.s:98     .text.gpio_mode_set:0000000000000002 .L0 
C:\Users\CYMR90~1\AppData\Local\Temp\cc3o48Uk.s:100    .text.gpio_mode_set:0000000000000004 .L0 
C:\Users\CYMR90~1\AppData\Local\Temp\cc3o48Uk.s:102    .text.gpio_mode_set:0000000000000006 .L0 
C:\Users\CYMR90~1\AppData\Local\Temp\cc3o48Uk.s:108    .text.gpio_mode_set:0000000000000016 .L0 
C:\Users\CYMR90~1\AppData\Local\Temp\cc3o48Uk.s:110    .text.gpio_mode_set:000000000000001a .L0 
C:\Users\CYMR90~1\AppData\Local\Temp\cc3o48Uk.s:113    .text.gpio_mode_set:0000000000000020 .L0 
C:\Users\CYMR90~1\AppData\Local\Temp\cc3o48Uk.s:116    .text.gpio_mode_set:0000000000000026 .L0 
C:\Users\CYMR90~1\AppData\Local\Temp\cc3o48Uk.s:119    .text.gpio_mode_set:000000000000002c .L0 
C:\Users\CYMR90~1\AppData\Local\Temp\cc3o48Uk.s:121    .text.gpio_mode_set:0000000000000030 .L0 
C:\Users\CYMR90~1\AppData\Local\Temp\cc3o48Uk.s:124    .text.gpio_mode_set:0000000000000032 .L0 
C:\Users\CYMR90~1\AppData\Local\Temp\cc3o48Uk.s:128    .text.gpio_mode_set:000000000000003c .L0 
C:\Users\CYMR90~1\AppData\Local\Temp\cc3o48Uk.s:131    .text.gpio_mode_set:0000000000000042 .L0 
C:\Users\CYMR90~1\AppData\Local\Temp\cc3o48Uk.s:133    .text.gpio_mode_set:0000000000000044 .L0 
C:\Users\CYMR90~1\AppData\Local\Temp\cc3o48Uk.s:138    .text.gpio_mode_set:0000000000000050 .L0 
C:\Users\CYMR90~1\AppData\Local\Temp\cc3o48Uk.s:140    .text.gpio_mode_set:0000000000000054 .L0 
C:\Users\CYMR90~1\AppData\Local\Temp\cc3o48Uk.s:144    .text.gpio_mode_set:000000000000005e .L0 
C:\Users\CYMR90~1\AppData\Local\Temp\cc3o48Uk.s:149    .text.gpio_mode_set:000000000000006c .L0 
C:\Users\CYMR90~1\AppData\Local\Temp\cc3o48Uk.s:153    .text.gpio_mode_set:0000000000000076 .L0 
C:\Users\CYMR90~1\AppData\Local\Temp\cc3o48Uk.s:158    .text.gpio_mode_set:0000000000000082 .L0 
C:\Users\CYMR90~1\AppData\Local\Temp\cc3o48Uk.s:160    .text.gpio_mode_set:0000000000000086 .L0 
C:\Users\CYMR90~1\AppData\Local\Temp\cc3o48Uk.s:164    .text.gpio_mode_set:0000000000000090 .L0 
C:\Users\CYMR90~1\AppData\Local\Temp\cc3o48Uk.s:169    .text.gpio_mode_set:000000000000009e .L0 
C:\Users\CYMR90~1\AppData\Local\Temp\cc3o48Uk.s:174    .text.gpio_mode_set:00000000000000a8 .L0 
C:\Users\CYMR90~1\AppData\Local\Temp\cc3o48Uk.s:179    .text.gpio_mode_set:00000000000000b2 .L0 
C:\Users\CYMR90~1\AppData\Local\Temp\cc3o48Uk.s:183    .text.gpio_mode_set:00000000000000bc .L0 
C:\Users\CYMR90~1\AppData\Local\Temp\cc3o48Uk.s:185    .text.gpio_mode_set:00000000000000c0 .L0 
C:\Users\CYMR90~1\AppData\Local\Temp\cc3o48Uk.s:188    .text.gpio_mode_set:00000000000000c6 .L0 
C:\Users\CYMR90~1\AppData\Local\Temp\cc3o48Uk.s:192    .text.gpio_mode_set:00000000000000ce .L0 
C:\Users\CYMR90~1\AppData\Local\Temp\cc3o48Uk.s:195    .text.gpio_mode_set:00000000000000d4 .L0 
C:\Users\CYMR90~1\AppData\Local\Temp\cc3o48Uk.s:197    .text.gpio_mode_set:00000000000000d8 .L0 
C:\Users\CYMR90~1\AppData\Local\Temp\cc3o48Uk.s:198    .text.gpio_mode_set:00000000000000d8 .L0 
C:\Users\CYMR90~1\AppData\Local\Temp\cc3o48Uk.s:200    .text.gpio_mode_set:00000000000000da .L0 
C:\Users\CYMR90~1\AppData\Local\Temp\cc3o48Uk.s:202    .text.gpio_mode_set:00000000000000dc .L0 
C:\Users\CYMR90~1\AppData\Local\Temp\cc3o48Uk.s:209    .text.gpio_output_options_set:0000000000000000 gpio_output_options_set
C:\Users\CYMR90~1\AppData\Local\Temp\cc3o48Uk.s:212    .text.gpio_output_options_set:0000000000000000 .L0 
C:\Users\CYMR90~1\AppData\Local\Temp\cc3o48Uk.s:213    .text.gpio_output_options_set:0000000000000000 .L0 
C:\Users\CYMR90~1\AppData\Local\Temp\cc3o48Uk.s:214    .text.gpio_output_options_set:0000000000000002 .L0 
C:\Users\CYMR90~1\AppData\Local\Temp\cc3o48Uk.s:216    .text.gpio_output_options_set:0000000000000004 .L0 
C:\Users\CYMR90~1\AppData\Local\Temp\cc3o48Uk.s:218    .text.gpio_output_options_set:0000000000000006 .L0 
C:\Users\CYMR90~1\AppData\Local\Temp\cc3o48Uk.s:225    .text.gpio_output_options_set:0000000000000018 .L0 
C:\Users\CYMR90~1\AppData\Local\Temp\cc3o48Uk.s:229    .text.gpio_output_options_set:0000000000000022 .L0 
C:\Users\CYMR90~1\AppData\Local\Temp\cc3o48Uk.s:241    .text.gpio_output_options_set:000000000000003c .L0 
C:\Users\CYMR90~1\AppData\Local\Temp\cc3o48Uk.s:245    .text.gpio_output_options_set:0000000000000044 .L0 
C:\Users\CYMR90~1\AppData\Local\Temp\cc3o48Uk.s:248    .text.gpio_output_options_set:000000000000004c .L0 
C:\Users\CYMR90~1\AppData\Local\Temp\cc3o48Uk.s:254    .text.gpio_output_options_set:0000000000000056 .L0 
C:\Users\CYMR90~1\AppData\Local\Temp\cc3o48Uk.s:257    .text.gpio_output_options_set:000000000000005c .L0 
C:\Users\CYMR90~1\AppData\Local\Temp\cc3o48Uk.s:260    .text.gpio_output_options_set:0000000000000062 .L0 
C:\Users\CYMR90~1\AppData\Local\Temp\cc3o48Uk.s:262    .text.gpio_output_options_set:0000000000000066 .L0 
C:\Users\CYMR90~1\AppData\Local\Temp\cc3o48Uk.s:265    .text.gpio_output_options_set:0000000000000068 .L0 
C:\Users\CYMR90~1\AppData\Local\Temp\cc3o48Uk.s:269    .text.gpio_output_options_set:0000000000000072 .L0 
C:\Users\CYMR90~1\AppData\Local\Temp\cc3o48Uk.s:272    .text.gpio_output_options_set:0000000000000078 .L0 
C:\Users\CYMR90~1\AppData\Local\Temp\cc3o48Uk.s:274    .text.gpio_output_options_set:000000000000007a .L0 
C:\Users\CYMR90~1\AppData\Local\Temp\cc3o48Uk.s:279    .text.gpio_output_options_set:0000000000000086 .L0 
C:\Users\CYMR90~1\AppData\Local\Temp\cc3o48Uk.s:281    .text.gpio_output_options_set:000000000000008a .L0 
C:\Users\CYMR90~1\AppData\Local\Temp\cc3o48Uk.s:285    .text.gpio_output_options_set:0000000000000094 .L0 
C:\Users\CYMR90~1\AppData\Local\Temp\cc3o48Uk.s:290    .text.gpio_output_options_set:00000000000000a2 .L0 
C:\Users\CYMR90~1\AppData\Local\Temp\cc3o48Uk.s:295    .text.gpio_output_options_set:00000000000000ac .L0 
C:\Users\CYMR90~1\AppData\Local\Temp\cc3o48Uk.s:300    .text.gpio_output_options_set:00000000000000b6 .L0 
C:\Users\CYMR90~1\AppData\Local\Temp\cc3o48Uk.s:304    .text.gpio_output_options_set:00000000000000c0 .L0 
C:\Users\CYMR90~1\AppData\Local\Temp\cc3o48Uk.s:308    .text.gpio_output_options_set:00000000000000c8 .L0 
C:\Users\CYMR90~1\AppData\Local\Temp\cc3o48Uk.s:311    .text.gpio_output_options_set:00000000000000ce .L0 
C:\Users\CYMR90~1\AppData\Local\Temp\cc3o48Uk.s:313    .text.gpio_output_options_set:00000000000000d2 .L0 
C:\Users\CYMR90~1\AppData\Local\Temp\cc3o48Uk.s:314    .text.gpio_output_options_set:00000000000000d2 .L0 
C:\Users\CYMR90~1\AppData\Local\Temp\cc3o48Uk.s:316    .text.gpio_output_options_set:00000000000000d4 .L0 
C:\Users\CYMR90~1\AppData\Local\Temp\cc3o48Uk.s:318    .text.gpio_output_options_set:00000000000000d6 .L0 
C:\Users\CYMR90~1\AppData\Local\Temp\cc3o48Uk.s:325    .text.gpio_bit_set:0000000000000000 gpio_bit_set
C:\Users\CYMR90~1\AppData\Local\Temp\cc3o48Uk.s:328    .text.gpio_bit_set:0000000000000000 .L0 
C:\Users\CYMR90~1\AppData\Local\Temp\cc3o48Uk.s:329    .text.gpio_bit_set:0000000000000000 .L0 
C:\Users\CYMR90~1\AppData\Local\Temp\cc3o48Uk.s:330    .text.gpio_bit_set:0000000000000002 .L0 
C:\Users\CYMR90~1\AppData\Local\Temp\cc3o48Uk.s:332    .text.gpio_bit_set:0000000000000004 .L0 
C:\Users\CYMR90~1\AppData\Local\Temp\cc3o48Uk.s:334    .text.gpio_bit_set:0000000000000006 .L0 
C:\Users\CYMR90~1\AppData\Local\Temp\cc3o48Uk.s:338    .text.gpio_bit_set:000000000000000e .L0 
C:\Users\CYMR90~1\AppData\Local\Temp\cc3o48Uk.s:342    .text.gpio_bit_set:0000000000000016 .L0 
C:\Users\CYMR90~1\AppData\Local\Temp\cc3o48Uk.s:345    .text.gpio_bit_set:000000000000001c .L0 
C:\Users\CYMR90~1\AppData\Local\Temp\cc3o48Uk.s:347    .text.gpio_bit_set:0000000000000020 .L0 
C:\Users\CYMR90~1\AppData\Local\Temp\cc3o48Uk.s:348    .text.gpio_bit_set:0000000000000020 .L0 
C:\Users\CYMR90~1\AppData\Local\Temp\cc3o48Uk.s:350    .text.gpio_bit_set:0000000000000022 .L0 
C:\Users\CYMR90~1\AppData\Local\Temp\cc3o48Uk.s:352    .text.gpio_bit_set:0000000000000024 .L0 
C:\Users\CYMR90~1\AppData\Local\Temp\cc3o48Uk.s:359    .text.gpio_bit_reset:0000000000000000 gpio_bit_reset
C:\Users\CYMR90~1\AppData\Local\Temp\cc3o48Uk.s:362    .text.gpio_bit_reset:0000000000000000 .L0 
C:\Users\CYMR90~1\AppData\Local\Temp\cc3o48Uk.s:363    .text.gpio_bit_reset:0000000000000000 .L0 
C:\Users\CYMR90~1\AppData\Local\Temp\cc3o48Uk.s:364    .text.gpio_bit_reset:0000000000000002 .L0 
C:\Users\CYMR90~1\AppData\Local\Temp\cc3o48Uk.s:366    .text.gpio_bit_reset:0000000000000004 .L0 
C:\Users\CYMR90~1\AppData\Local\Temp\cc3o48Uk.s:368    .text.gpio_bit_reset:0000000000000006 .L0 
C:\Users\CYMR90~1\AppData\Local\Temp\cc3o48Uk.s:372    .text.gpio_bit_reset:000000000000000e .L0 
C:\Users\CYMR90~1\AppData\Local\Temp\cc3o48Uk.s:376    .text.gpio_bit_reset:0000000000000018 .L0 
C:\Users\CYMR90~1\AppData\Local\Temp\cc3o48Uk.s:379    .text.gpio_bit_reset:000000000000001e .L0 
C:\Users\CYMR90~1\AppData\Local\Temp\cc3o48Uk.s:381    .text.gpio_bit_reset:0000000000000022 .L0 
C:\Users\CYMR90~1\AppData\Local\Temp\cc3o48Uk.s:382    .text.gpio_bit_reset:0000000000000022 .L0 
C:\Users\CYMR90~1\AppData\Local\Temp\cc3o48Uk.s:384    .text.gpio_bit_reset:0000000000000024 .L0 
C:\Users\CYMR90~1\AppData\Local\Temp\cc3o48Uk.s:386    .text.gpio_bit_reset:0000000000000026 .L0 
C:\Users\CYMR90~1\AppData\Local\Temp\cc3o48Uk.s:393    .text.gpio_bit_write:0000000000000000 gpio_bit_write
C:\Users\CYMR90~1\AppData\Local\Temp\cc3o48Uk.s:396    .text.gpio_bit_write:0000000000000000 .L0 
C:\Users\CYMR90~1\AppData\Local\Temp\cc3o48Uk.s:397    .text.gpio_bit_write:0000000000000000 .L0 
C:\Users\CYMR90~1\AppData\Local\Temp\cc3o48Uk.s:398    .text.gpio_bit_write:0000000000000002 .L0 
C:\Users\CYMR90~1\AppData\Local\Temp\cc3o48Uk.s:400    .text.gpio_bit_write:0000000000000004 .L0 
C:\Users\CYMR90~1\AppData\Local\Temp\cc3o48Uk.s:402    .text.gpio_bit_write:0000000000000006 .L0 
C:\Users\CYMR90~1\AppData\Local\Temp\cc3o48Uk.s:407    .text.gpio_bit_write:0000000000000012 .L0 
C:\Users\CYMR90~1\AppData\Local\Temp\cc3o48Uk.s:410    .text.gpio_bit_write:0000000000000018 .L0 
C:\Users\CYMR90~1\AppData\Local\Temp\cc3o48Uk.s:414    .text.gpio_bit_write:0000000000000020 .L0 
C:\Users\CYMR90~1\AppData\Local\Temp\cc3o48Uk.s:417    .text.gpio_bit_write:0000000000000026 .L0 
C:\Users\CYMR90~1\AppData\Local\Temp\cc3o48Uk.s:420    .text.gpio_bit_write:0000000000000028 .L0 
C:\Users\CYMR90~1\AppData\Local\Temp\cc3o48Uk.s:424    .text.gpio_bit_write:0000000000000032 .L0 
C:\Users\CYMR90~1\AppData\Local\Temp\cc3o48Uk.s:428    .text.gpio_bit_write:0000000000000038 .L0 
C:\Users\CYMR90~1\AppData\Local\Temp\cc3o48Uk.s:430    .text.gpio_bit_write:000000000000003c .L0 
C:\Users\CYMR90~1\AppData\Local\Temp\cc3o48Uk.s:431    .text.gpio_bit_write:000000000000003c .L0 
C:\Users\CYMR90~1\AppData\Local\Temp\cc3o48Uk.s:433    .text.gpio_bit_write:000000000000003e .L0 
C:\Users\CYMR90~1\AppData\Local\Temp\cc3o48Uk.s:435    .text.gpio_bit_write:0000000000000040 .L0 
C:\Users\CYMR90~1\AppData\Local\Temp\cc3o48Uk.s:442    .text.gpio_port_write:0000000000000000 gpio_port_write
C:\Users\CYMR90~1\AppData\Local\Temp\cc3o48Uk.s:445    .text.gpio_port_write:0000000000000000 .L0 
C:\Users\CYMR90~1\AppData\Local\Temp\cc3o48Uk.s:446    .text.gpio_port_write:0000000000000000 .L0 
C:\Users\CYMR90~1\AppData\Local\Temp\cc3o48Uk.s:447    .text.gpio_port_write:0000000000000002 .L0 
C:\Users\CYMR90~1\AppData\Local\Temp\cc3o48Uk.s:449    .text.gpio_port_write:0000000000000004 .L0 
C:\Users\CYMR90~1\AppData\Local\Temp\cc3o48Uk.s:451    .text.gpio_port_write:0000000000000006 .L0 
C:\Users\CYMR90~1\AppData\Local\Temp\cc3o48Uk.s:456    .text.gpio_port_write:0000000000000010 .L0 
C:\Users\CYMR90~1\AppData\Local\Temp\cc3o48Uk.s:460    .text.gpio_port_write:0000000000000018 .L0 
C:\Users\CYMR90~1\AppData\Local\Temp\cc3o48Uk.s:462    .text.gpio_port_write:000000000000001c .L0 
C:\Users\CYMR90~1\AppData\Local\Temp\cc3o48Uk.s:464    .text.gpio_port_write:000000000000001e .L0 
C:\Users\CYMR90~1\AppData\Local\Temp\cc3o48Uk.s:466    .text.gpio_port_write:0000000000000022 .L0 
C:\Users\CYMR90~1\AppData\Local\Temp\cc3o48Uk.s:467    .text.gpio_port_write:0000000000000022 .L0 
C:\Users\CYMR90~1\AppData\Local\Temp\cc3o48Uk.s:469    .text.gpio_port_write:0000000000000024 .L0 
C:\Users\CYMR90~1\AppData\Local\Temp\cc3o48Uk.s:471    .text.gpio_port_write:0000000000000026 .L0 
C:\Users\CYMR90~1\AppData\Local\Temp\cc3o48Uk.s:478    .text.gpio_input_bit_get:0000000000000000 gpio_input_bit_get
C:\Users\CYMR90~1\AppData\Local\Temp\cc3o48Uk.s:481    .text.gpio_input_bit_get:0000000000000000 .L0 
C:\Users\CYMR90~1\AppData\Local\Temp\cc3o48Uk.s:482    .text.gpio_input_bit_get:0000000000000000 .L0 
C:\Users\CYMR90~1\AppData\Local\Temp\cc3o48Uk.s:483    .text.gpio_input_bit_get:0000000000000002 .L0 
C:\Users\CYMR90~1\AppData\Local\Temp\cc3o48Uk.s:485    .text.gpio_input_bit_get:0000000000000004 .L0 
C:\Users\CYMR90~1\AppData\Local\Temp\cc3o48Uk.s:487    .text.gpio_input_bit_get:0000000000000006 .L0 
C:\Users\CYMR90~1\AppData\Local\Temp\cc3o48Uk.s:491    .text.gpio_input_bit_get:000000000000000e .L0 
C:\Users\CYMR90~1\AppData\Local\Temp\cc3o48Uk.s:495    .text.gpio_input_bit_get:0000000000000016 .L0 
C:\Users\CYMR90~1\AppData\Local\Temp\cc3o48Uk.s:498    .text.gpio_input_bit_get:000000000000001c .L0 
C:\Users\CYMR90~1\AppData\Local\Temp\cc3o48Uk.s:500    .text.gpio_input_bit_get:000000000000001e .L0 
C:\Users\CYMR90~1\AppData\Local\Temp\cc3o48Uk.s:504    .text.gpio_input_bit_get:0000000000000022 .L0 
C:\Users\CYMR90~1\AppData\Local\Temp\cc3o48Uk.s:507    .text.gpio_input_bit_get:0000000000000024 .L0 
C:\Users\CYMR90~1\AppData\Local\Temp\cc3o48Uk.s:509    .text.gpio_input_bit_get:0000000000000028 .L0 
C:\Users\CYMR90~1\AppData\Local\Temp\cc3o48Uk.s:510    .text.gpio_input_bit_get:0000000000000028 .L0 
C:\Users\CYMR90~1\AppData\Local\Temp\cc3o48Uk.s:512    .text.gpio_input_bit_get:000000000000002a .L0 
C:\Users\CYMR90~1\AppData\Local\Temp\cc3o48Uk.s:514    .text.gpio_input_bit_get:000000000000002c .L0 
C:\Users\CYMR90~1\AppData\Local\Temp\cc3o48Uk.s:521    .text.gpio_input_port_get:0000000000000000 gpio_input_port_get
C:\Users\CYMR90~1\AppData\Local\Temp\cc3o48Uk.s:524    .text.gpio_input_port_get:0000000000000000 .L0 
C:\Users\CYMR90~1\AppData\Local\Temp\cc3o48Uk.s:525    .text.gpio_input_port_get:0000000000000000 .L0 
C:\Users\CYMR90~1\AppData\Local\Temp\cc3o48Uk.s:526    .text.gpio_input_port_get:0000000000000002 .L0 
C:\Users\CYMR90~1\AppData\Local\Temp\cc3o48Uk.s:528    .text.gpio_input_port_get:0000000000000004 .L0 
C:\Users\CYMR90~1\AppData\Local\Temp\cc3o48Uk.s:530    .text.gpio_input_port_get:0000000000000006 .L0 
C:\Users\CYMR90~1\AppData\Local\Temp\cc3o48Uk.s:533    .text.gpio_input_port_get:000000000000000a .L0 
C:\Users\CYMR90~1\AppData\Local\Temp\cc3o48Uk.s:537    .text.gpio_input_port_get:0000000000000012 .L0 
C:\Users\CYMR90~1\AppData\Local\Temp\cc3o48Uk.s:540    .text.gpio_input_port_get:0000000000000016 .L0 
C:\Users\CYMR90~1\AppData\Local\Temp\cc3o48Uk.s:542    .text.gpio_input_port_get:000000000000001a .L0 
C:\Users\CYMR90~1\AppData\Local\Temp\cc3o48Uk.s:543    .text.gpio_input_port_get:000000000000001a .L0 
C:\Users\CYMR90~1\AppData\Local\Temp\cc3o48Uk.s:545    .text.gpio_input_port_get:000000000000001c .L0 
C:\Users\CYMR90~1\AppData\Local\Temp\cc3o48Uk.s:547    .text.gpio_input_port_get:000000000000001e .L0 
C:\Users\CYMR90~1\AppData\Local\Temp\cc3o48Uk.s:554    .text.gpio_output_bit_get:0000000000000000 gpio_output_bit_get
C:\Users\CYMR90~1\AppData\Local\Temp\cc3o48Uk.s:557    .text.gpio_output_bit_get:0000000000000000 .L0 
C:\Users\CYMR90~1\AppData\Local\Temp\cc3o48Uk.s:558    .text.gpio_output_bit_get:0000000000000000 .L0 
C:\Users\CYMR90~1\AppData\Local\Temp\cc3o48Uk.s:559    .text.gpio_output_bit_get:0000000000000002 .L0 
C:\Users\CYMR90~1\AppData\Local\Temp\cc3o48Uk.s:561    .text.gpio_output_bit_get:0000000000000004 .L0 
C:\Users\CYMR90~1\AppData\Local\Temp\cc3o48Uk.s:563    .text.gpio_output_bit_get:0000000000000006 .L0 
C:\Users\CYMR90~1\AppData\Local\Temp\cc3o48Uk.s:567    .text.gpio_output_bit_get:000000000000000e .L0 
C:\Users\CYMR90~1\AppData\Local\Temp\cc3o48Uk.s:571    .text.gpio_output_bit_get:0000000000000016 .L0 
C:\Users\CYMR90~1\AppData\Local\Temp\cc3o48Uk.s:574    .text.gpio_output_bit_get:000000000000001c .L0 
C:\Users\CYMR90~1\AppData\Local\Temp\cc3o48Uk.s:576    .text.gpio_output_bit_get:000000000000001e .L0 
C:\Users\CYMR90~1\AppData\Local\Temp\cc3o48Uk.s:580    .text.gpio_output_bit_get:0000000000000022 .L0 
C:\Users\CYMR90~1\AppData\Local\Temp\cc3o48Uk.s:583    .text.gpio_output_bit_get:0000000000000024 .L0 
C:\Users\CYMR90~1\AppData\Local\Temp\cc3o48Uk.s:585    .text.gpio_output_bit_get:0000000000000028 .L0 
C:\Users\CYMR90~1\AppData\Local\Temp\cc3o48Uk.s:586    .text.gpio_output_bit_get:0000000000000028 .L0 
C:\Users\CYMR90~1\AppData\Local\Temp\cc3o48Uk.s:588    .text.gpio_output_bit_get:000000000000002a .L0 
C:\Users\CYMR90~1\AppData\Local\Temp\cc3o48Uk.s:590    .text.gpio_output_bit_get:000000000000002c .L0 
C:\Users\CYMR90~1\AppData\Local\Temp\cc3o48Uk.s:597    .text.gpio_output_port_get:0000000000000000 gpio_output_port_get
C:\Users\CYMR90~1\AppData\Local\Temp\cc3o48Uk.s:600    .text.gpio_output_port_get:0000000000000000 .L0 
C:\Users\CYMR90~1\AppData\Local\Temp\cc3o48Uk.s:601    .text.gpio_output_port_get:0000000000000000 .L0 
C:\Users\CYMR90~1\AppData\Local\Temp\cc3o48Uk.s:602    .text.gpio_output_port_get:0000000000000002 .L0 
C:\Users\CYMR90~1\AppData\Local\Temp\cc3o48Uk.s:604    .text.gpio_output_port_get:0000000000000004 .L0 
C:\Users\CYMR90~1\AppData\Local\Temp\cc3o48Uk.s:606    .text.gpio_output_port_get:0000000000000006 .L0 
C:\Users\CYMR90~1\AppData\Local\Temp\cc3o48Uk.s:609    .text.gpio_output_port_get:000000000000000a .L0 
C:\Users\CYMR90~1\AppData\Local\Temp\cc3o48Uk.s:613    .text.gpio_output_port_get:0000000000000012 .L0 
C:\Users\CYMR90~1\AppData\Local\Temp\cc3o48Uk.s:616    .text.gpio_output_port_get:0000000000000016 .L0 
C:\Users\CYMR90~1\AppData\Local\Temp\cc3o48Uk.s:618    .text.gpio_output_port_get:000000000000001a .L0 
C:\Users\CYMR90~1\AppData\Local\Temp\cc3o48Uk.s:619    .text.gpio_output_port_get:000000000000001a .L0 
C:\Users\CYMR90~1\AppData\Local\Temp\cc3o48Uk.s:621    .text.gpio_output_port_get:000000000000001c .L0 
C:\Users\CYMR90~1\AppData\Local\Temp\cc3o48Uk.s:623    .text.gpio_output_port_get:000000000000001e .L0 
C:\Users\CYMR90~1\AppData\Local\Temp\cc3o48Uk.s:630    .text.gpio_af_set:0000000000000000 gpio_af_set
C:\Users\CYMR90~1\AppData\Local\Temp\cc3o48Uk.s:633    .text.gpio_af_set:0000000000000000 .L0 
C:\Users\CYMR90~1\AppData\Local\Temp\cc3o48Uk.s:634    .text.gpio_af_set:0000000000000000 .L0 
C:\Users\CYMR90~1\AppData\Local\Temp\cc3o48Uk.s:635    .text.gpio_af_set:0000000000000002 .L0 
C:\Users\CYMR90~1\AppData\Local\Temp\cc3o48Uk.s:637    .text.gpio_af_set:0000000000000004 .L0 
C:\Users\CYMR90~1\AppData\Local\Temp\cc3o48Uk.s:639    .text.gpio_af_set:0000000000000006 .L0 
C:\Users\CYMR90~1\AppData\Local\Temp\cc3o48Uk.s:644    .text.gpio_af_set:0000000000000012 .L0 
C:\Users\CYMR90~1\AppData\Local\Temp\cc3o48Uk.s:647    .text.gpio_af_set:000000000000001a .L0 
C:\Users\CYMR90~1\AppData\Local\Temp\cc3o48Uk.s:650    .text.gpio_af_set:0000000000000020 .L0 
C:\Users\CYMR90~1\AppData\Local\Temp\cc3o48Uk.s:653    .text.gpio_af_set:0000000000000028 .L0 
C:\Users\CYMR90~1\AppData\Local\Temp\cc3o48Uk.s:656    .text.gpio_af_set:000000000000002e .L0 
C:\Users\CYMR90~1\AppData\Local\Temp\cc3o48Uk.s:658    .text.gpio_af_set:0000000000000032 .L0 
C:\Users\CYMR90~1\AppData\Local\Temp\cc3o48Uk.s:661    .text.gpio_af_set:0000000000000034 .L0 
C:\Users\CYMR90~1\AppData\Local\Temp\cc3o48Uk.s:665    .text.gpio_af_set:000000000000003e .L0 
C:\Users\CYMR90~1\AppData\Local\Temp\cc3o48Uk.s:668    .text.gpio_af_set:0000000000000044 .L0 
C:\Users\CYMR90~1\AppData\Local\Temp\cc3o48Uk.s:670    .text.gpio_af_set:0000000000000046 .L0 
C:\Users\CYMR90~1\AppData\Local\Temp\cc3o48Uk.s:675    .text.gpio_af_set:0000000000000052 .L0 
C:\Users\CYMR90~1\AppData\Local\Temp\cc3o48Uk.s:677    .text.gpio_af_set:0000000000000056 .L0 
C:\Users\CYMR90~1\AppData\Local\Temp\cc3o48Uk.s:681    .text.gpio_af_set:0000000000000060 .L0 
C:\Users\CYMR90~1\AppData\Local\Temp\cc3o48Uk.s:686    .text.gpio_af_set:000000000000006e .L0 
C:\Users\CYMR90~1\AppData\Local\Temp\cc3o48Uk.s:691    .text.gpio_af_set:0000000000000078 .L0 
C:\Users\CYMR90~1\AppData\Local\Temp\cc3o48Uk.s:696    .text.gpio_af_set:0000000000000082 .L0 
C:\Users\CYMR90~1\AppData\Local\Temp\cc3o48Uk.s:700    .text.gpio_af_set:000000000000008c .L0 
C:\Users\CYMR90~1\AppData\Local\Temp\cc3o48Uk.s:703    .text.gpio_af_set:0000000000000092 .L0 
C:\Users\CYMR90~1\AppData\Local\Temp\cc3o48Uk.s:706    .text.gpio_af_set:0000000000000094 .L0 
C:\Users\CYMR90~1\AppData\Local\Temp\cc3o48Uk.s:710    .text.gpio_af_set:000000000000009e .L0 
C:\Users\CYMR90~1\AppData\Local\Temp\cc3o48Uk.s:713    .text.gpio_af_set:00000000000000a4 .L0 
C:\Users\CYMR90~1\AppData\Local\Temp\cc3o48Uk.s:715    .text.gpio_af_set:00000000000000a6 .L0 
C:\Users\CYMR90~1\AppData\Local\Temp\cc3o48Uk.s:721    .text.gpio_af_set:00000000000000b4 .L0 
C:\Users\CYMR90~1\AppData\Local\Temp\cc3o48Uk.s:723    .text.gpio_af_set:00000000000000b8 .L0 
C:\Users\CYMR90~1\AppData\Local\Temp\cc3o48Uk.s:727    .text.gpio_af_set:00000000000000c2 .L0 
C:\Users\CYMR90~1\AppData\Local\Temp\cc3o48Uk.s:733    .text.gpio_af_set:00000000000000d2 .L0 
C:\Users\CYMR90~1\AppData\Local\Temp\cc3o48Uk.s:738    .text.gpio_af_set:00000000000000dc .L0 
C:\Users\CYMR90~1\AppData\Local\Temp\cc3o48Uk.s:743    .text.gpio_af_set:00000000000000e6 .L0 
C:\Users\CYMR90~1\AppData\Local\Temp\cc3o48Uk.s:747    .text.gpio_af_set:00000000000000f0 .L0 
C:\Users\CYMR90~1\AppData\Local\Temp\cc3o48Uk.s:751    .text.gpio_af_set:00000000000000fa .L0 
C:\Users\CYMR90~1\AppData\Local\Temp\cc3o48Uk.s:754    .text.gpio_af_set:0000000000000100 .L0 
C:\Users\CYMR90~1\AppData\Local\Temp\cc3o48Uk.s:758    .text.gpio_af_set:000000000000010a .L0 
C:\Users\CYMR90~1\AppData\Local\Temp\cc3o48Uk.s:761    .text.gpio_af_set:0000000000000110 .L0 
C:\Users\CYMR90~1\AppData\Local\Temp\cc3o48Uk.s:763    .text.gpio_af_set:0000000000000114 .L0 
C:\Users\CYMR90~1\AppData\Local\Temp\cc3o48Uk.s:764    .text.gpio_af_set:0000000000000114 .L0 
C:\Users\CYMR90~1\AppData\Local\Temp\cc3o48Uk.s:766    .text.gpio_af_set:0000000000000116 .L0 
C:\Users\CYMR90~1\AppData\Local\Temp\cc3o48Uk.s:768    .text.gpio_af_set:0000000000000118 .L0 
C:\Users\CYMR90~1\AppData\Local\Temp\cc3o48Uk.s:775    .text.gpio_pin_lock:0000000000000000 gpio_pin_lock
C:\Users\CYMR90~1\AppData\Local\Temp\cc3o48Uk.s:778    .text.gpio_pin_lock:0000000000000000 .L0 
C:\Users\CYMR90~1\AppData\Local\Temp\cc3o48Uk.s:779    .text.gpio_pin_lock:0000000000000000 .L0 
C:\Users\CYMR90~1\AppData\Local\Temp\cc3o48Uk.s:780    .text.gpio_pin_lock:0000000000000002 .L0 
C:\Users\CYMR90~1\AppData\Local\Temp\cc3o48Uk.s:782    .text.gpio_pin_lock:0000000000000004 .L0 
C:\Users\CYMR90~1\AppData\Local\Temp\cc3o48Uk.s:784    .text.gpio_pin_lock:0000000000000006 .L0 
C:\Users\CYMR90~1\AppData\Local\Temp\cc3o48Uk.s:788    .text.gpio_pin_lock:000000000000000e .L0 
C:\Users\CYMR90~1\AppData\Local\Temp\cc3o48Uk.s:791    .text.gpio_pin_lock:0000000000000014 .L0 
C:\Users\CYMR90~1\AppData\Local\Temp\cc3o48Uk.s:796    .text.gpio_pin_lock:0000000000000022 .L0 
C:\Users\CYMR90~1\AppData\Local\Temp\cc3o48Uk.s:800    .text.gpio_pin_lock:000000000000002a .L0 
C:\Users\CYMR90~1\AppData\Local\Temp\cc3o48Uk.s:803    .text.gpio_pin_lock:0000000000000030 .L0 
C:\Users\CYMR90~1\AppData\Local\Temp\cc3o48Uk.s:807    .text.gpio_pin_lock:0000000000000038 .L0 
C:\Users\CYMR90~1\AppData\Local\Temp\cc3o48Uk.s:810    .text.gpio_pin_lock:000000000000003e .L0 
C:\Users\CYMR90~1\AppData\Local\Temp\cc3o48Uk.s:814    .text.gpio_pin_lock:0000000000000046 .L0 
C:\Users\CYMR90~1\AppData\Local\Temp\cc3o48Uk.s:817    .text.gpio_pin_lock:000000000000004c .L0 
C:\Users\CYMR90~1\AppData\Local\Temp\cc3o48Uk.s:820    .text.gpio_pin_lock:0000000000000052 .L0 
C:\Users\CYMR90~1\AppData\Local\Temp\cc3o48Uk.s:823    .text.gpio_pin_lock:0000000000000058 .L0 
C:\Users\CYMR90~1\AppData\Local\Temp\cc3o48Uk.s:826    .text.gpio_pin_lock:000000000000005e .L0 
C:\Users\CYMR90~1\AppData\Local\Temp\cc3o48Uk.s:829    .text.gpio_pin_lock:0000000000000064 .L0 
C:\Users\CYMR90~1\AppData\Local\Temp\cc3o48Uk.s:831    .text.gpio_pin_lock:0000000000000068 .L0 
C:\Users\CYMR90~1\AppData\Local\Temp\cc3o48Uk.s:832    .text.gpio_pin_lock:0000000000000068 .L0 
C:\Users\CYMR90~1\AppData\Local\Temp\cc3o48Uk.s:834    .text.gpio_pin_lock:000000000000006a .L0 
C:\Users\CYMR90~1\AppData\Local\Temp\cc3o48Uk.s:836    .text.gpio_pin_lock:000000000000006c .L0 
C:\Users\CYMR90~1\AppData\Local\Temp\cc3o48Uk.s:843    .text.gpio_bit_toggle:0000000000000000 gpio_bit_toggle
C:\Users\CYMR90~1\AppData\Local\Temp\cc3o48Uk.s:846    .text.gpio_bit_toggle:0000000000000000 .L0 
C:\Users\CYMR90~1\AppData\Local\Temp\cc3o48Uk.s:847    .text.gpio_bit_toggle:0000000000000000 .L0 
C:\Users\CYMR90~1\AppData\Local\Temp\cc3o48Uk.s:848    .text.gpio_bit_toggle:0000000000000002 .L0 
C:\Users\CYMR90~1\AppData\Local\Temp\cc3o48Uk.s:850    .text.gpio_bit_toggle:0000000000000004 .L0 
C:\Users\CYMR90~1\AppData\Local\Temp\cc3o48Uk.s:852    .text.gpio_bit_toggle:0000000000000006 .L0 
C:\Users\CYMR90~1\AppData\Local\Temp\cc3o48Uk.s:856    .text.gpio_bit_toggle:000000000000000e .L0 
C:\Users\CYMR90~1\AppData\Local\Temp\cc3o48Uk.s:860    .text.gpio_bit_toggle:0000000000000018 .L0 
C:\Users\CYMR90~1\AppData\Local\Temp\cc3o48Uk.s:863    .text.gpio_bit_toggle:000000000000001e .L0 
C:\Users\CYMR90~1\AppData\Local\Temp\cc3o48Uk.s:865    .text.gpio_bit_toggle:0000000000000022 .L0 
C:\Users\CYMR90~1\AppData\Local\Temp\cc3o48Uk.s:866    .text.gpio_bit_toggle:0000000000000022 .L0 
C:\Users\CYMR90~1\AppData\Local\Temp\cc3o48Uk.s:868    .text.gpio_bit_toggle:0000000000000024 .L0 
C:\Users\CYMR90~1\AppData\Local\Temp\cc3o48Uk.s:870    .text.gpio_bit_toggle:0000000000000026 .L0 
C:\Users\CYMR90~1\AppData\Local\Temp\cc3o48Uk.s:877    .text.gpio_port_toggle:0000000000000000 gpio_port_toggle
C:\Users\CYMR90~1\AppData\Local\Temp\cc3o48Uk.s:880    .text.gpio_port_toggle:0000000000000000 .L0 
C:\Users\CYMR90~1\AppData\Local\Temp\cc3o48Uk.s:881    .text.gpio_port_toggle:0000000000000000 .L0 
C:\Users\CYMR90~1\AppData\Local\Temp\cc3o48Uk.s:882    .text.gpio_port_toggle:0000000000000002 .L0 
C:\Users\CYMR90~1\AppData\Local\Temp\cc3o48Uk.s:884    .text.gpio_port_toggle:0000000000000004 .L0 
C:\Users\CYMR90~1\AppData\Local\Temp\cc3o48Uk.s:886    .text.gpio_port_toggle:0000000000000006 .L0 
C:\Users\CYMR90~1\AppData\Local\Temp\cc3o48Uk.s:889    .text.gpio_port_toggle:000000000000000a .L0 
C:\Users\CYMR90~1\AppData\Local\Temp\cc3o48Uk.s:893    .text.gpio_port_toggle:0000000000000014 .L0 
C:\Users\CYMR90~1\AppData\Local\Temp\cc3o48Uk.s:897    .text.gpio_port_toggle:000000000000001a .L0 
C:\Users\CYMR90~1\AppData\Local\Temp\cc3o48Uk.s:899    .text.gpio_port_toggle:000000000000001e .L0 
C:\Users\CYMR90~1\AppData\Local\Temp\cc3o48Uk.s:900    .text.gpio_port_toggle:000000000000001e .L0 
C:\Users\CYMR90~1\AppData\Local\Temp\cc3o48Uk.s:902    .text.gpio_port_toggle:0000000000000020 .L0 
C:\Users\CYMR90~1\AppData\Local\Temp\cc3o48Uk.s:904    .text.gpio_port_toggle:0000000000000022 .L0 
C:\Users\CYMR90~1\AppData\Local\Temp\cc3o48Uk.s:89     .text.gpio_deinit:00000000000000a4 .L0 
C:\Users\CYMR90~1\AppData\Local\Temp\cc3o48Uk.s:205    .text.gpio_mode_set:00000000000000dc .L0 
C:\Users\CYMR90~1\AppData\Local\Temp\cc3o48Uk.s:321    .text.gpio_output_options_set:00000000000000d6 .L0 
C:\Users\CYMR90~1\AppData\Local\Temp\cc3o48Uk.s:355    .text.gpio_bit_set:0000000000000024 .L0 
C:\Users\CYMR90~1\AppData\Local\Temp\cc3o48Uk.s:389    .text.gpio_bit_reset:0000000000000026 .L0 
C:\Users\CYMR90~1\AppData\Local\Temp\cc3o48Uk.s:438    .text.gpio_bit_write:0000000000000040 .L0 
C:\Users\CYMR90~1\AppData\Local\Temp\cc3o48Uk.s:474    .text.gpio_port_write:0000000000000026 .L0 
C:\Users\CYMR90~1\AppData\Local\Temp\cc3o48Uk.s:517    .text.gpio_input_bit_get:000000000000002c .L0 
C:\Users\CYMR90~1\AppData\Local\Temp\cc3o48Uk.s:550    .text.gpio_input_port_get:000000000000001e .L0 
C:\Users\CYMR90~1\AppData\Local\Temp\cc3o48Uk.s:593    .text.gpio_output_bit_get:000000000000002c .L0 
C:\Users\CYMR90~1\AppData\Local\Temp\cc3o48Uk.s:626    .text.gpio_output_port_get:000000000000001e .L0 
C:\Users\CYMR90~1\AppData\Local\Temp\cc3o48Uk.s:771    .text.gpio_af_set:0000000000000118 .L0 
C:\Users\CYMR90~1\AppData\Local\Temp\cc3o48Uk.s:839    .text.gpio_pin_lock:000000000000006c .L0 
C:\Users\CYMR90~1\AppData\Local\Temp\cc3o48Uk.s:873    .text.gpio_bit_toggle:0000000000000026 .L0 
C:\Users\CYMR90~1\AppData\Local\Temp\cc3o48Uk.s:907    .text.gpio_port_toggle:0000000000000022 .L0 
                     .debug_frame:0000000000000000 .L0 
C:\Users\CYMR90~1\AppData\Local\Temp\cc3o48Uk.s:63     .text.gpio_deinit:000000000000007e .L2
C:\Users\CYMR90~1\AppData\Local\Temp\cc3o48Uk.s:72     .text.gpio_deinit:0000000000000098 .L7
C:\Users\CYMR90~1\AppData\Local\Temp\cc3o48Uk.s:45     .text.gpio_deinit:000000000000004a .L4
C:\Users\CYMR90~1\AppData\Local\Temp\cc3o48Uk.s:54     .text.gpio_deinit:0000000000000064 .L5
C:\Users\CYMR90~1\AppData\Local\Temp\cc3o48Uk.s:75     .text.gpio_deinit:000000000000009a .L6
C:\Users\CYMR90~1\AppData\Local\Temp\cc3o48Uk.s:177    .text.gpio_mode_set:00000000000000b2 .L9
C:\Users\CYMR90~1\AppData\Local\Temp\cc3o48Uk.s:172    .text.gpio_mode_set:00000000000000a8 .L10
C:\Users\CYMR90~1\AppData\Local\Temp\cc3o48Uk.s:122    .text.gpio_mode_set:0000000000000032 .L11
C:\Users\CYMR90~1\AppData\Local\Temp\cc3o48Uk.s:239    .text.gpio_output_options_set:000000000000003c .L13
C:\Users\CYMR90~1\AppData\Local\Temp\cc3o48Uk.s:252    .text.gpio_output_options_set:0000000000000056 .L14
C:\Users\CYMR90~1\AppData\Local\Temp\cc3o48Uk.s:298    .text.gpio_output_options_set:00000000000000b6 .L15
C:\Users\CYMR90~1\AppData\Local\Temp\cc3o48Uk.s:293    .text.gpio_output_options_set:00000000000000ac .L16
C:\Users\CYMR90~1\AppData\Local\Temp\cc3o48Uk.s:263    .text.gpio_output_options_set:0000000000000068 .L17
C:\Users\CYMR90~1\AppData\Local\Temp\cc3o48Uk.s:418    .text.gpio_bit_write:0000000000000028 .L21
C:\Users\CYMR90~1\AppData\Local\Temp\cc3o48Uk.s:426    .text.gpio_bit_write:0000000000000038 .L23
C:\Users\CYMR90~1\AppData\Local\Temp\cc3o48Uk.s:502    .text.gpio_input_bit_get:0000000000000022 .L26
C:\Users\CYMR90~1\AppData\Local\Temp\cc3o48Uk.s:505    .text.gpio_input_bit_get:0000000000000024 .L27
C:\Users\CYMR90~1\AppData\Local\Temp\cc3o48Uk.s:578    .text.gpio_output_bit_get:0000000000000022 .L31
C:\Users\CYMR90~1\AppData\Local\Temp\cc3o48Uk.s:581    .text.gpio_output_bit_get:0000000000000024 .L32
C:\Users\CYMR90~1\AppData\Local\Temp\cc3o48Uk.s:694    .text.gpio_af_set:0000000000000082 .L36
C:\Users\CYMR90~1\AppData\Local\Temp\cc3o48Uk.s:689    .text.gpio_af_set:0000000000000078 .L37
C:\Users\CYMR90~1\AppData\Local\Temp\cc3o48Uk.s:659    .text.gpio_af_set:0000000000000034 .L38
C:\Users\CYMR90~1\AppData\Local\Temp\cc3o48Uk.s:741    .text.gpio_af_set:00000000000000e6 .L39
C:\Users\CYMR90~1\AppData\Local\Temp\cc3o48Uk.s:736    .text.gpio_af_set:00000000000000dc .L40
C:\Users\CYMR90~1\AppData\Local\Temp\cc3o48Uk.s:704    .text.gpio_af_set:0000000000000094 .L41
C:\Users\CYMR90~1\AppData\Local\Temp\cc3o48Uk.s:1678   .debug_abbrev:0000000000000000 .Ldebug_abbrev0
C:\Users\CYMR90~1\AppData\Local\Temp\cc3o48Uk.s:22539  .debug_str:000000000000af4e .LASF5632
C:\Users\CYMR90~1\AppData\Local\Temp\cc3o48Uk.s:28848  .debug_str:0000000000024102 .LASF5633
C:\Users\CYMR90~1\AppData\Local\Temp\cc3o48Uk.s:22835  .debug_str:000000000000c39b .LASF5634
C:\Users\CYMR90~1\AppData\Local\Temp\cc3o48Uk.s:2132   .debug_ranges:0000000000000000 .Ldebug_ranges0
C:\Users\CYMR90~1\AppData\Local\Temp\cc3o48Uk.s:19801  .debug_line:0000000000000000 .Ldebug_line0
C:\Users\CYMR90~1\AppData\Local\Temp\cc3o48Uk.s:2166   .debug_macro:0000000000000000 .Ldebug_macro0
C:\Users\CYMR90~1\AppData\Local\Temp\cc3o48Uk.s:31036  .debug_str:000000000002ce1e .LASF5556
C:\Users\CYMR90~1\AppData\Local\Temp\cc3o48Uk.s:19819  .debug_str:0000000000000123 .LASF5557
C:\Users\CYMR90~1\AppData\Local\Temp\cc3o48Uk.s:20719  .debug_str:00000000000039c5 .LASF5558
C:\Users\CYMR90~1\AppData\Local\Temp\cc3o48Uk.s:25900  .debug_str:00000000000187cc .LASF5559
C:\Users\CYMR90~1\AppData\Local\Temp\cc3o48Uk.s:22017  .debug_str:0000000000008d95 .LASF5562
C:\Users\CYMR90~1\AppData\Local\Temp\cc3o48Uk.s:25349  .debug_str:00000000000162d9 .LASF5560
C:\Users\CYMR90~1\AppData\Local\Temp\cc3o48Uk.s:27234  .debug_str:000000000001dfb2 .LASF5561
C:\Users\CYMR90~1\AppData\Local\Temp\cc3o48Uk.s:23337  .debug_str:000000000000e341 .LASF5563
C:\Users\CYMR90~1\AppData\Local\Temp\cc3o48Uk.s:28844  .debug_str:00000000000240bd .LASF5564
C:\Users\CYMR90~1\AppData\Local\Temp\cc3o48Uk.s:27644  .debug_str:000000000001f82e .LASF5565
C:\Users\CYMR90~1\AppData\Local\Temp\cc3o48Uk.s:26114  .debug_str:000000000001963f .LASF5566
C:\Users\CYMR90~1\AppData\Local\Temp\cc3o48Uk.s:19937  .debug_str:0000000000000836 .LASF5567
C:\Users\CYMR90~1\AppData\Local\Temp\cc3o48Uk.s:29192  .debug_str:000000000002590b .LASF5568
C:\Users\CYMR90~1\AppData\Local\Temp\cc3o48Uk.s:27666  .debug_str:000000000001f998 .LASF855
C:\Users\CYMR90~1\AppData\Local\Temp\cc3o48Uk.s:25111  .debug_str:00000000000153e0 .LASF5569
C:\Users\CYMR90~1\AppData\Local\Temp\cc3o48Uk.s:29124  .debug_str:0000000000025411 .LASF5570
C:\Users\CYMR90~1\AppData\Local\Temp\cc3o48Uk.s:20597  .debug_str:00000000000031d3 .LASF5571
C:\Users\CYMR90~1\AppData\Local\Temp\cc3o48Uk.s:28884  .debug_str:000000000002438c .LASF5572
C:\Users\CYMR90~1\AppData\Local\Temp\cc3o48Uk.s:22389  .debug_str:000000000000a503 .LASF5573
C:\Users\CYMR90~1\AppData\Local\Temp\cc3o48Uk.s:22549  .debug_str:000000000000b093 .LASF5574
C:\Users\CYMR90~1\AppData\Local\Temp\cc3o48Uk.s:30048  .debug_str:0000000000028fc1 .LASF5575
C:\Users\CYMR90~1\AppData\Local\Temp\cc3o48Uk.s:27430  .debug_str:000000000001eb7e .LASF5576
C:\Users\CYMR90~1\AppData\Local\Temp\cc3o48Uk.s:28252  .debug_str:0000000000021dac .LASF5577
C:\Users\CYMR90~1\AppData\Local\Temp\cc3o48Uk.s:31016  .debug_str:000000000002ccec .LASF5578
C:\Users\CYMR90~1\AppData\Local\Temp\cc3o48Uk.s:29474  .debug_str:0000000000026a45 .LASF5579
C:\Users\CYMR90~1\AppData\Local\Temp\cc3o48Uk.s:21723  .debug_str:00000000000079a2 .LASF5580
C:\Users\CYMR90~1\AppData\Local\Temp\cc3o48Uk.s:25261  .debug_str:0000000000015d73 .LASF5581
C:\Users\CYMR90~1\AppData\Local\Temp\cc3o48Uk.s:20571  .debug_str:0000000000002ffd .LASF5582
C:\Users\CYMR90~1\AppData\Local\Temp\cc3o48Uk.s:23909  .debug_str:0000000000010757 .LASF5583
C:\Users\CYMR90~1\AppData\Local\Temp\cc3o48Uk.s:29376  .debug_str:000000000002645f .LASF5584
C:\Users\CYMR90~1\AppData\Local\Temp\cc3o48Uk.s:21625  .debug_str:000000000000732e .LASF5585
C:\Users\CYMR90~1\AppData\Local\Temp\cc3o48Uk.s:22873  .debug_str:000000000000c5f4 .LASF5586
C:\Users\CYMR90~1\AppData\Local\Temp\cc3o48Uk.s:31006  .debug_str:000000000002cbaf .LASF5587
C:\Users\CYMR90~1\AppData\Local\Temp\cc3o48Uk.s:21423  .debug_str:00000000000065f4 .LASF5588
C:\Users\CYMR90~1\AppData\Local\Temp\cc3o48Uk.s:29976  .debug_str:0000000000028b24 .LASF5589
C:\Users\CYMR90~1\AppData\Local\Temp\cc3o48Uk.s:29906  .debug_str:0000000000028715 .LASF5590
C:\Users\CYMR90~1\AppData\Local\Temp\cc3o48Uk.s:24805  .debug_str:00000000000140e1 .LASF5591
C:\Users\CYMR90~1\AppData\Local\Temp\cc3o48Uk.s:20915  .debug_str:00000000000046d5 .LASF5592
C:\Users\CYMR90~1\AppData\Local\Temp\cc3o48Uk.s:26332  .debug_str:000000000001a51a .LASF5593
C:\Users\CYMR90~1\AppData\Local\Temp\cc3o48Uk.s:23157  .debug_str:000000000000d889 .LASF5594
C:\Users\CYMR90~1\AppData\Local\Temp\cc3o48Uk.s:30850  .debug_str:000000000002c1b6 .LASF5595
C:\Users\CYMR90~1\AppData\Local\Temp\cc3o48Uk.s:26050  .debug_str:00000000000192b8 .LASF5596
C:\Users\CYMR90~1\AppData\Local\Temp\cc3o48Uk.s:21647  .debug_str:000000000000746a .LASF5597
C:\Users\CYMR90~1\AppData\Local\Temp\cc3o48Uk.s:30822  .debug_str:000000000002bffc .LASF5598
C:\Users\CYMR90~1\AppData\Local\Temp\cc3o48Uk.s:28240  .debug_str:0000000000021ce2 .LASF5599
C:\Users\CYMR90~1\AppData\Local\Temp\cc3o48Uk.s:20805  .debug_str:0000000000003f16 .LASF5600
C:\Users\CYMR90~1\AppData\Local\Temp\cc3o48Uk.s:28840  .debug_str:0000000000024093 .LASF5601
C:\Users\CYMR90~1\AppData\Local\Temp\cc3o48Uk.s:24117  .debug_str:0000000000011419 .LASF5602
C:\Users\CYMR90~1\AppData\Local\Temp\cc3o48Uk.s:26522  .debug_str:000000000001b1f0 .LASF5603
C:\Users\CYMR90~1\AppData\Local\Temp\cc3o48Uk.s:20285  .debug_str:0000000000001ea0 .LASF5604
C:\Users\CYMR90~1\AppData\Local\Temp\cc3o48Uk.s:29556  .debug_str:0000000000026f23 .LASF5605
C:\Users\CYMR90~1\AppData\Local\Temp\cc3o48Uk.s:878    .text.gpio_port_toggle:0000000000000000 .LFB361
C:\Users\CYMR90~1\AppData\Local\Temp\cc3o48Uk.s:905    .text.gpio_port_toggle:0000000000000022 .LFE361
C:\Users\CYMR90~1\AppData\Local\Temp\cc3o48Uk.s:25776  .debug_str:0000000000018014 .LASF5607
C:\Users\CYMR90~1\AppData\Local\Temp\cc3o48Uk.s:20787  .debug_str:0000000000003e24 .LASF5606
C:\Users\CYMR90~1\AppData\Local\Temp\cc3o48Uk.s:844    .text.gpio_bit_toggle:0000000000000000 .LFB360
C:\Users\CYMR90~1\AppData\Local\Temp\cc3o48Uk.s:871    .text.gpio_bit_toggle:0000000000000026 .LFE360
C:\Users\CYMR90~1\AppData\Local\Temp\cc3o48Uk.s:26102  .debug_str:00000000000195bf .LASF5608
C:\Users\CYMR90~1\AppData\Local\Temp\cc3o48Uk.s:776    .text.gpio_pin_lock:0000000000000000 .LFB359
C:\Users\CYMR90~1\AppData\Local\Temp\cc3o48Uk.s:837    .text.gpio_pin_lock:000000000000006c .LFE359
C:\Users\CYMR90~1\AppData\Local\Temp\cc3o48Uk.s:22071  .debug_str:0000000000009086 .LASF5611
C:\Users\CYMR90~1\AppData\Local\Temp\cc3o48Uk.s:28152  .debug_str:00000000000217c1 .LASF5609
C:\Users\CYMR90~1\AppData\Local\Temp\cc3o48Uk.s:631    .text.gpio_af_set:0000000000000000 .LFB358
C:\Users\CYMR90~1\AppData\Local\Temp\cc3o48Uk.s:769    .text.gpio_af_set:0000000000000118 .LFE358
C:\Users\CYMR90~1\AppData\Local\Temp\cc3o48Uk.s:21683  .debug_str:00000000000076af .LASF5610
C:\Users\CYMR90~1\AppData\Local\Temp\cc3o48Uk.s:23145  .debug_str:000000000000d7e3 .LASF5612
C:\Users\CYMR90~1\AppData\Local\Temp\cc3o48Uk.s:23131  .debug_str:000000000000d741 .LASF5613
C:\Users\CYMR90~1\AppData\Local\Temp\cc3o48Uk.s:22111  .debug_str:00000000000092e1 .LASF5614
C:\Users\CYMR90~1\AppData\Local\Temp\cc3o48Uk.s:598    .text.gpio_output_port_get:0000000000000000 .LFB357
C:\Users\CYMR90~1\AppData\Local\Temp\cc3o48Uk.s:624    .text.gpio_output_port_get:000000000000001e .LFE357
C:\Users\CYMR90~1\AppData\Local\Temp\cc3o48Uk.s:25401  .debug_str:000000000001662d .LASF5615
C:\Users\CYMR90~1\AppData\Local\Temp\cc3o48Uk.s:555    .text.gpio_output_bit_get:0000000000000000 .LFB356
C:\Users\CYMR90~1\AppData\Local\Temp\cc3o48Uk.s:591    .text.gpio_output_bit_get:000000000000002c .LFE356
C:\Users\CYMR90~1\AppData\Local\Temp\cc3o48Uk.s:25059  .debug_str:000000000001511e .LASF5616
C:\Users\CYMR90~1\AppData\Local\Temp\cc3o48Uk.s:522    .text.gpio_input_port_get:0000000000000000 .LFB355
C:\Users\CYMR90~1\AppData\Local\Temp\cc3o48Uk.s:548    .text.gpio_input_port_get:000000000000001e .LFE355
C:\Users\CYMR90~1\AppData\Local\Temp\cc3o48Uk.s:31046  .debug_str:000000000002ce9d .LASF5617
C:\Users\CYMR90~1\AppData\Local\Temp\cc3o48Uk.s:479    .text.gpio_input_bit_get:0000000000000000 .LFB354
C:\Users\CYMR90~1\AppData\Local\Temp\cc3o48Uk.s:515    .text.gpio_input_bit_get:000000000000002c .LFE354
C:\Users\CYMR90~1\AppData\Local\Temp\cc3o48Uk.s:30796  .debug_str:000000000002be78 .LASF5618
C:\Users\CYMR90~1\AppData\Local\Temp\cc3o48Uk.s:443    .text.gpio_port_write:0000000000000000 .LFB353
C:\Users\CYMR90~1\AppData\Local\Temp\cc3o48Uk.s:472    .text.gpio_port_write:0000000000000026 .LFE353
C:\Users\CYMR90~1\AppData\Local\Temp\cc3o48Uk.s:30148  .debug_str:00000000000295c8 .LASF5619
C:\Users\CYMR90~1\AppData\Local\Temp\cc3o48Uk.s:20987  .debug_str:0000000000004bbe .LASF5620
C:\Users\CYMR90~1\AppData\Local\Temp\cc3o48Uk.s:394    .text.gpio_bit_write:0000000000000000 .LFB352
C:\Users\CYMR90~1\AppData\Local\Temp\cc3o48Uk.s:436    .text.gpio_bit_write:0000000000000040 .LFE352
C:\Users\CYMR90~1\AppData\Local\Temp\cc3o48Uk.s:21971  .debug_str:0000000000008a56 .LASF5621
C:\Users\CYMR90~1\AppData\Local\Temp\cc3o48Uk.s:27586  .debug_str:000000000001f4fb .LASF5622
C:\Users\CYMR90~1\AppData\Local\Temp\cc3o48Uk.s:360    .text.gpio_bit_reset:0000000000000000 .LFB351
C:\Users\CYMR90~1\AppData\Local\Temp\cc3o48Uk.s:387    .text.gpio_bit_reset:0000000000000026 .LFE351
C:\Users\CYMR90~1\AppData\Local\Temp\cc3o48Uk.s:28816  .debug_str:0000000000023e6e .LASF5623
C:\Users\CYMR90~1\AppData\Local\Temp\cc3o48Uk.s:326    .text.gpio_bit_set:0000000000000000 .LFB350
C:\Users\CYMR90~1\AppData\Local\Temp\cc3o48Uk.s:353    .text.gpio_bit_set:0000000000000024 .LFE350
C:\Users\CYMR90~1\AppData\Local\Temp\cc3o48Uk.s:27084  .debug_str:000000000001d5b9 .LASF5624
C:\Users\CYMR90~1\AppData\Local\Temp\cc3o48Uk.s:210    .text.gpio_output_options_set:0000000000000000 .LFB349
C:\Users\CYMR90~1\AppData\Local\Temp\cc3o48Uk.s:319    .text.gpio_output_options_set:00000000000000d6 .LFE349
C:\Users\CYMR90~1\AppData\Local\Temp\cc3o48Uk.s:22395  .debug_str:000000000000a540 .LASF5625
C:\Users\CYMR90~1\AppData\Local\Temp\cc3o48Uk.s:30086  .debug_str:00000000000291da .LASF5626
C:\Users\CYMR90~1\AppData\Local\Temp\cc3o48Uk.s:23075  .debug_str:000000000000d339 .LASF5627
C:\Users\CYMR90~1\AppData\Local\Temp\cc3o48Uk.s:28334  .debug_str:000000000002226c .LASF5628
C:\Users\CYMR90~1\AppData\Local\Temp\cc3o48Uk.s:94     .text.gpio_mode_set:0000000000000000 .LFB348
C:\Users\CYMR90~1\AppData\Local\Temp\cc3o48Uk.s:203    .text.gpio_mode_set:00000000000000dc .LFE348
C:\Users\CYMR90~1\AppData\Local\Temp\cc3o48Uk.s:30274  .debug_str:0000000000029cfe .LASF5629
C:\Users\CYMR90~1\AppData\Local\Temp\cc3o48Uk.s:24095  .debug_str:00000000000112ae .LASF5630
C:\Users\CYMR90~1\AppData\Local\Temp\cc3o48Uk.s:25061  .debug_str:0000000000015132 .LASF5631
C:\Users\CYMR90~1\AppData\Local\Temp\cc3o48Uk.s:19853  .debug_str:000000000000035b .LASF5635
C:\Users\CYMR90~1\AppData\Local\Temp\cc3o48Uk.s:14     .text.gpio_deinit:0000000000000000 .LFB347
C:\Users\CYMR90~1\AppData\Local\Temp\cc3o48Uk.s:87     .text.gpio_deinit:00000000000000a4 .LFE347
C:\Users\CYMR90~1\AppData\Local\Temp\cc3o48Uk.s:915    .debug_info:0000000000000000 .Ldebug_info0
C:\Users\CYMR90~1\AppData\Local\Temp\cc3o48Uk.s:2786   .debug_macro:0000000000000000 .Ldebug_macro2
C:\Users\CYMR90~1\AppData\Local\Temp\cc3o48Uk.s:29130  .debug_str:0000000000025458 .LASF314
C:\Users\CYMR90~1\AppData\Local\Temp\cc3o48Uk.s:28908  .debug_str:0000000000024518 .LASF315
C:\Users\CYMR90~1\AppData\Local\Temp\cc3o48Uk.s:3733   .debug_macro:0000000000000000 .Ldebug_macro3
C:\Users\CYMR90~1\AppData\Local\Temp\cc3o48Uk.s:21967  .debug_str:0000000000008a08 .LASF369
C:\Users\CYMR90~1\AppData\Local\Temp\cc3o48Uk.s:21531  .debug_str:0000000000006cee .LASF370
C:\Users\CYMR90~1\AppData\Local\Temp\cc3o48Uk.s:25768  .debug_str:0000000000017fc8 .LASF371
C:\Users\CYMR90~1\AppData\Local\Temp\cc3o48Uk.s:3897   .debug_macro:0000000000000000 .Ldebug_macro4
C:\Users\CYMR90~1\AppData\Local\Temp\cc3o48Uk.s:3917   .debug_macro:0000000000000000 .Ldebug_macro5
C:\Users\CYMR90~1\AppData\Local\Temp\cc3o48Uk.s:24399  .debug_str:00000000000126fd .LASF390
C:\Users\CYMR90~1\AppData\Local\Temp\cc3o48Uk.s:3961   .debug_macro:0000000000000000 .Ldebug_macro6
C:\Users\CYMR90~1\AppData\Local\Temp\cc3o48Uk.s:3975   .debug_macro:0000000000000000 .Ldebug_macro7
C:\Users\CYMR90~1\AppData\Local\Temp\cc3o48Uk.s:4043   .debug_macro:0000000000000000 .Ldebug_macro8
C:\Users\CYMR90~1\AppData\Local\Temp\cc3o48Uk.s:4069   .debug_macro:0000000000000000 .Ldebug_macro9
C:\Users\CYMR90~1\AppData\Local\Temp\cc3o48Uk.s:4098   .debug_macro:0000000000000000 .Ldebug_macro10
C:\Users\CYMR90~1\AppData\Local\Temp\cc3o48Uk.s:25912  .debug_str:00000000000188b9 .LASF433
C:\Users\CYMR90~1\AppData\Local\Temp\cc3o48Uk.s:4112   .debug_macro:0000000000000000 .Ldebug_macro11
C:\Users\CYMR90~1\AppData\Local\Temp\cc3o48Uk.s:4156   .debug_macro:0000000000000000 .Ldebug_macro12
C:\Users\CYMR90~1\AppData\Local\Temp\cc3o48Uk.s:4182   .debug_macro:0000000000000000 .Ldebug_macro13
C:\Users\CYMR90~1\AppData\Local\Temp\cc3o48Uk.s:29464  .debug_str:00000000000269c3 .LASF569
C:\Users\CYMR90~1\AppData\Local\Temp\cc3o48Uk.s:4553   .debug_macro:0000000000000000 .Ldebug_macro14
C:\Users\CYMR90~1\AppData\Local\Temp\cc3o48Uk.s:23931  .debug_str:0000000000010878 .LASF572
C:\Users\CYMR90~1\AppData\Local\Temp\cc3o48Uk.s:28806  .debug_str:0000000000023df4 .LASF573
C:\Users\CYMR90~1\AppData\Local\Temp\cc3o48Uk.s:4564   .debug_macro:0000000000000000 .Ldebug_macro15
C:\Users\CYMR90~1\AppData\Local\Temp\cc3o48Uk.s:4578   .debug_macro:0000000000000000 .Ldebug_macro16
C:\Users\CYMR90~1\AppData\Local\Temp\cc3o48Uk.s:30610  .debug_str:000000000002b17f .LASF578
C:\Users\CYMR90~1\AppData\Local\Temp\cc3o48Uk.s:4610   .debug_macro:0000000000000000 .Ldebug_macro17
C:\Users\CYMR90~1\AppData\Local\Temp\cc3o48Uk.s:4636   .debug_macro:0000000000000000 .Ldebug_macro18
C:\Users\CYMR90~1\AppData\Local\Temp\cc3o48Uk.s:4647   .debug_macro:0000000000000000 .Ldebug_macro19
C:\Users\CYMR90~1\AppData\Local\Temp\cc3o48Uk.s:4691   .debug_macro:0000000000000000 .Ldebug_macro20
C:\Users\CYMR90~1\AppData\Local\Temp\cc3o48Uk.s:4861   .debug_macro:0000000000000000 .Ldebug_macro21
C:\Users\CYMR90~1\AppData\Local\Temp\cc3o48Uk.s:4872   .debug_macro:0000000000000000 .Ldebug_macro22
C:\Users\CYMR90~1\AppData\Local\Temp\cc3o48Uk.s:24649  .debug_str:0000000000013718 .LASF675
C:\Users\CYMR90~1\AppData\Local\Temp\cc3o48Uk.s:4928   .debug_macro:0000000000000000 .Ldebug_macro23
C:\Users\CYMR90~1\AppData\Local\Temp\cc3o48Uk.s:4945   .debug_macro:0000000000000000 .Ldebug_macro24
C:\Users\CYMR90~1\AppData\Local\Temp\cc3o48Uk.s:27636  .debug_str:000000000001f7be .LASF693
C:\Users\CYMR90~1\AppData\Local\Temp\cc3o48Uk.s:30122  .debug_str:00000000000293fc .LASF694
C:\Users\CYMR90~1\AppData\Local\Temp\cc3o48Uk.s:4989   .debug_macro:0000000000000000 .Ldebug_macro25
C:\Users\CYMR90~1\AppData\Local\Temp\cc3o48Uk.s:20989  .debug_str:0000000000004bcd .LASF700
C:\Users\CYMR90~1\AppData\Local\Temp\cc3o48Uk.s:22109  .debug_str:00000000000092ce .LASF701
C:\Users\CYMR90~1\AppData\Local\Temp\cc3o48Uk.s:5009   .debug_macro:0000000000000000 .Ldebug_macro26
C:\Users\CYMR90~1\AppData\Local\Temp\cc3o48Uk.s:5020   .debug_macro:0000000000000000 .Ldebug_macro27
C:\Users\CYMR90~1\AppData\Local\Temp\cc3o48Uk.s:5064   .debug_macro:0000000000000000 .Ldebug_macro28
C:\Users\CYMR90~1\AppData\Local\Temp\cc3o48Uk.s:28236  .debug_str:0000000000021cbd .LASF749
C:\Users\CYMR90~1\AppData\Local\Temp\cc3o48Uk.s:5165   .debug_macro:0000000000000000 .Ldebug_macro29
C:\Users\CYMR90~1\AppData\Local\Temp\cc3o48Uk.s:5182   .debug_macro:0000000000000000 .Ldebug_macro30
C:\Users\CYMR90~1\AppData\Local\Temp\cc3o48Uk.s:19869  .debug_str:000000000000043d .LASF763
C:\Users\CYMR90~1\AppData\Local\Temp\cc3o48Uk.s:21167  .debug_str:000000000000566f .LASF764
C:\Users\CYMR90~1\AppData\Local\Temp\cc3o48Uk.s:5214   .debug_macro:0000000000000000 .Ldebug_macro31
C:\Users\CYMR90~1\AppData\Local\Temp\cc3o48Uk.s:5228   .debug_macro:0000000000000000 .Ldebug_macro32
C:\Users\CYMR90~1\AppData\Local\Temp\cc3o48Uk.s:5398   .debug_macro:0000000000000000 .Ldebug_macro33
C:\Users\CYMR90~1\AppData\Local\Temp\cc3o48Uk.s:23605  .debug_str:000000000000f3e4 .LASF850
C:\Users\CYMR90~1\AppData\Local\Temp\cc3o48Uk.s:26002  .debug_str:0000000000018f01 .LASF851
C:\Users\CYMR90~1\AppData\Local\Temp\cc3o48Uk.s:5484   .debug_macro:0000000000000000 .Ldebug_macro34
C:\Users\CYMR90~1\AppData\Local\Temp\cc3o48Uk.s:5609   .debug_macro:0000000000000000 .Ldebug_macro35
C:\Users\CYMR90~1\AppData\Local\Temp\cc3o48Uk.s:20151  .debug_str:00000000000015b3 .LASF951
C:\Users\CYMR90~1\AppData\Local\Temp\cc3o48Uk.s:5821   .debug_macro:0000000000000000 .Ldebug_macro36
C:\Users\CYMR90~1\AppData\Local\Temp\cc3o48Uk.s:21857  .debug_str:0000000000008350 .LASF957
C:\Users\CYMR90~1\AppData\Local\Temp\cc3o48Uk.s:21407  .debug_str:00000000000064ff .LASF958
C:\Users\CYMR90~1\AppData\Local\Temp\cc3o48Uk.s:20305  .debug_str:0000000000001fc2 .LASF959
C:\Users\CYMR90~1\AppData\Local\Temp\cc3o48Uk.s:5841   .debug_macro:0000000000000000 .Ldebug_macro37
C:\Users\CYMR90~1\AppData\Local\Temp\cc3o48Uk.s:5933   .debug_macro:0000000000000000 .Ldebug_macro38
C:\Users\CYMR90~1\AppData\Local\Temp\cc3o48Uk.s:7579   .debug_macro:0000000000000000 .Ldebug_macro39
C:\Users\CYMR90~1\AppData\Local\Temp\cc3o48Uk.s:7671   .debug_macro:0000000000000000 .Ldebug_macro40
C:\Users\CYMR90~1\AppData\Local\Temp\cc3o48Uk.s:7727   .debug_macro:0000000000000000 .Ldebug_macro41
C:\Users\CYMR90~1\AppData\Local\Temp\cc3o48Uk.s:7741   .debug_macro:0000000000000000 .Ldebug_macro42
C:\Users\CYMR90~1\AppData\Local\Temp\cc3o48Uk.s:25307  .debug_str:0000000000016082 .LASF1655
C:\Users\CYMR90~1\AppData\Local\Temp\cc3o48Uk.s:22237  .debug_str:0000000000009b32 .LASF1656
C:\Users\CYMR90~1\AppData\Local\Temp\cc3o48Uk.s:7965   .debug_macro:0000000000000000 .Ldebug_macro43
C:\Users\CYMR90~1\AppData\Local\Temp\cc3o48Uk.s:8012   .debug_macro:0000000000000000 .Ldebug_macro44
C:\Users\CYMR90~1\AppData\Local\Temp\cc3o48Uk.s:8167   .debug_macro:0000000000000000 .Ldebug_macro45
C:\Users\CYMR90~1\AppData\Local\Temp\cc3o48Uk.s:8223   .debug_macro:0000000000000000 .Ldebug_macro46
C:\Users\CYMR90~1\AppData\Local\Temp\cc3o48Uk.s:8234   .debug_macro:0000000000000000 .Ldebug_macro47
C:\Users\CYMR90~1\AppData\Local\Temp\cc3o48Uk.s:30254  .debug_str:0000000000029c09 .LASF1782
C:\Users\CYMR90~1\AppData\Local\Temp\cc3o48Uk.s:25067  .debug_str:0000000000015197 .LASF1783
C:\Users\CYMR90~1\AppData\Local\Temp\cc3o48Uk.s:8365   .debug_macro:0000000000000000 .Ldebug_macro48
C:\Users\CYMR90~1\AppData\Local\Temp\cc3o48Uk.s:8937   .debug_macro:0000000000000000 .Ldebug_macro49
C:\Users\CYMR90~1\AppData\Local\Temp\cc3o48Uk.s:9224   .debug_macro:0000000000000000 .Ldebug_macro50
C:\Users\CYMR90~1\AppData\Local\Temp\cc3o48Uk.s:9253   .debug_macro:0000000000000000 .Ldebug_macro51
C:\Users\CYMR90~1\AppData\Local\Temp\cc3o48Uk.s:9330   .debug_macro:0000000000000000 .Ldebug_macro52
C:\Users\CYMR90~1\AppData\Local\Temp\cc3o48Uk.s:9863   .debug_macro:0000000000000000 .Ldebug_macro53
C:\Users\CYMR90~1\AppData\Local\Temp\cc3o48Uk.s:9886   .debug_macro:0000000000000000 .Ldebug_macro54
C:\Users\CYMR90~1\AppData\Local\Temp\cc3o48Uk.s:10152  .debug_macro:0000000000000000 .Ldebug_macro55
C:\Users\CYMR90~1\AppData\Local\Temp\cc3o48Uk.s:10631  .debug_macro:0000000000000000 .Ldebug_macro56
C:\Users\CYMR90~1\AppData\Local\Temp\cc3o48Uk.s:10960  .debug_macro:0000000000000000 .Ldebug_macro57
C:\Users\CYMR90~1\AppData\Local\Temp\cc3o48Uk.s:11049  .debug_macro:0000000000000000 .Ldebug_macro58
C:\Users\CYMR90~1\AppData\Local\Temp\cc3o48Uk.s:11240  .debug_macro:0000000000000000 .Ldebug_macro59
C:\Users\CYMR90~1\AppData\Local\Temp\cc3o48Uk.s:11743  .debug_macro:0000000000000000 .Ldebug_macro60
C:\Users\CYMR90~1\AppData\Local\Temp\cc3o48Uk.s:11889  .debug_macro:0000000000000000 .Ldebug_macro61
C:\Users\CYMR90~1\AppData\Local\Temp\cc3o48Uk.s:12419  .debug_macro:0000000000000000 .Ldebug_macro62
C:\Users\CYMR90~1\AppData\Local\Temp\cc3o48Uk.s:12841  .debug_macro:0000000000000000 .Ldebug_macro63
C:\Users\CYMR90~1\AppData\Local\Temp\cc3o48Uk.s:15615  .debug_macro:0000000000000000 .Ldebug_macro64
C:\Users\CYMR90~1\AppData\Local\Temp\cc3o48Uk.s:16691  .debug_macro:0000000000000000 .Ldebug_macro65
C:\Users\CYMR90~1\AppData\Local\Temp\cc3o48Uk.s:16960  .debug_macro:0000000000000000 .Ldebug_macro66
C:\Users\CYMR90~1\AppData\Local\Temp\cc3o48Uk.s:17232  .debug_macro:0000000000000000 .Ldebug_macro67
C:\Users\CYMR90~1\AppData\Local\Temp\cc3o48Uk.s:18260  .debug_macro:0000000000000000 .Ldebug_macro68
C:\Users\CYMR90~1\AppData\Local\Temp\cc3o48Uk.s:18304  .debug_macro:0000000000000000 .Ldebug_macro69
C:\Users\CYMR90~1\AppData\Local\Temp\cc3o48Uk.s:18930  .debug_macro:0000000000000000 .Ldebug_macro70
C:\Users\CYMR90~1\AppData\Local\Temp\cc3o48Uk.s:18989  .debug_macro:0000000000000000 .Ldebug_macro71
C:\Users\CYMR90~1\AppData\Local\Temp\cc3o48Uk.s:21149  .debug_str:000000000000553e .LASF0
C:\Users\CYMR90~1\AppData\Local\Temp\cc3o48Uk.s:25508  .debug_str:0000000000016f36 .LASF1
C:\Users\CYMR90~1\AppData\Local\Temp\cc3o48Uk.s:23763  .debug_str:000000000000fe30 .LASF2
C:\Users\CYMR90~1\AppData\Local\Temp\cc3o48Uk.s:23815  .debug_str:0000000000010138 .LASF3
C:\Users\CYMR90~1\AppData\Local\Temp\cc3o48Uk.s:25115  .debug_str:00000000000153fe .LASF4
C:\Users\CYMR90~1\AppData\Local\Temp\cc3o48Uk.s:30654  .debug_str:000000000002b49f .LASF5
C:\Users\CYMR90~1\AppData\Local\Temp\cc3o48Uk.s:21381  .debug_str:0000000000006383 .LASF6
C:\Users\CYMR90~1\AppData\Local\Temp\cc3o48Uk.s:29968  .debug_str:0000000000028ab9 .LASF7
C:\Users\CYMR90~1\AppData\Local\Temp\cc3o48Uk.s:28926  .debug_str:000000000002462c .LASF8
C:\Users\CYMR90~1\AppData\Local\Temp\cc3o48Uk.s:26848  .debug_str:000000000001c577 .LASF9
C:\Users\CYMR90~1\AppData\Local\Temp\cc3o48Uk.s:26194  .debug_str:0000000000019bc8 .LASF10
C:\Users\CYMR90~1\AppData\Local\Temp\cc3o48Uk.s:26056  .debug_str:00000000000192f0 .LASF11
C:\Users\CYMR90~1\AppData\Local\Temp\cc3o48Uk.s:30494  .debug_str:000000000002aa16 .LASF12
C:\Users\CYMR90~1\AppData\Local\Temp\cc3o48Uk.s:26068  .debug_str:00000000000193a4 .LASF13
C:\Users\CYMR90~1\AppData\Local\Temp\cc3o48Uk.s:22393  .debug_str:000000000000a52d .LASF14
C:\Users\CYMR90~1\AppData\Local\Temp\cc3o48Uk.s:27428  .debug_str:000000000001eb67 .LASF15
C:\Users\CYMR90~1\AppData\Local\Temp\cc3o48Uk.s:28176  .debug_str:000000000002190f .LASF16
C:\Users\CYMR90~1\AppData\Local\Temp\cc3o48Uk.s:22439  .debug_str:000000000000a803 .LASF17
C:\Users\CYMR90~1\AppData\Local\Temp\cc3o48Uk.s:29206  .debug_str:00000000000259e8 .LASF18
C:\Users\CYMR90~1\AppData\Local\Temp\cc3o48Uk.s:23391  .debug_str:000000000000e6ac .LASF19
C:\Users\CYMR90~1\AppData\Local\Temp\cc3o48Uk.s:29016  .debug_str:0000000000024c7f .LASF20
C:\Users\CYMR90~1\AppData\Local\Temp\cc3o48Uk.s:25864  .debug_str:00000000000185de .LASF21
C:\Users\CYMR90~1\AppData\Local\Temp\cc3o48Uk.s:25862  .debug_str:00000000000185c4 .LASF22
C:\Users\CYMR90~1\AppData\Local\Temp\cc3o48Uk.s:28478  .debug_str:0000000000022b41 .LASF23
C:\Users\CYMR90~1\AppData\Local\Temp\cc3o48Uk.s:26798  .debug_str:000000000001c2cf .LASF24
C:\Users\CYMR90~1\AppData\Local\Temp\cc3o48Uk.s:20693  .debug_str:000000000000380a .LASF25
C:\Users\CYMR90~1\AppData\Local\Temp\cc3o48Uk.s:25241  .debug_str:0000000000015c06 .LASF26
C:\Users\CYMR90~1\AppData\Local\Temp\cc3o48Uk.s:28482  .debug_str:0000000000022b6d .LASF27
C:\Users\CYMR90~1\AppData\Local\Temp\cc3o48Uk.s:28184  .debug_str:0000000000021967 .LASF28
C:\Users\CYMR90~1\AppData\Local\Temp\cc3o48Uk.s:21101  .debug_str:0000000000005282 .LASF29
C:\Users\CYMR90~1\AppData\Local\Temp\cc3o48Uk.s:27210  .debug_str:000000000001ddfb .LASF30
C:\Users\CYMR90~1\AppData\Local\Temp\cc3o48Uk.s:20101  .debug_str:00000000000012d5 .LASF31
C:\Users\CYMR90~1\AppData\Local\Temp\cc3o48Uk.s:27670  .debug_str:000000000001f9b7 .LASF32
C:\Users\CYMR90~1\AppData\Local\Temp\cc3o48Uk.s:24659  .debug_str:00000000000137b1 .LASF33
C:\Users\CYMR90~1\AppData\Local\Temp\cc3o48Uk.s:22127  .debug_str:00000000000093ce .LASF34
C:\Users\CYMR90~1\AppData\Local\Temp\cc3o48Uk.s:23423  .debug_str:000000000000e890 .LASF35
C:\Users\CYMR90~1\AppData\Local\Temp\cc3o48Uk.s:26304  .debug_str:000000000001a1fa .LASF36
C:\Users\CYMR90~1\AppData\Local\Temp\cc3o48Uk.s:21623  .debug_str:0000000000007306 .LASF37
C:\Users\CYMR90~1\AppData\Local\Temp\cc3o48Uk.s:23761  .debug_str:000000000000fe0d .LASF38
C:\Users\CYMR90~1\AppData\Local\Temp\cc3o48Uk.s:20659  .debug_str:00000000000035b2 .LASF39
C:\Users\CYMR90~1\AppData\Local\Temp\cc3o48Uk.s:20465  .debug_str:0000000000002955 .LASF40
C:\Users\CYMR90~1\AppData\Local\Temp\cc3o48Uk.s:23923  .debug_str:0000000000010811 .LASF41
C:\Users\CYMR90~1\AppData\Local\Temp\cc3o48Uk.s:24337  .debug_str:00000000000122fd .LASF42
C:\Users\CYMR90~1\AppData\Local\Temp\cc3o48Uk.s:24601  .debug_str:000000000001345f .LASF43
C:\Users\CYMR90~1\AppData\Local\Temp\cc3o48Uk.s:26294  .debug_str:000000000001a168 .LASF44
C:\Users\CYMR90~1\AppData\Local\Temp\cc3o48Uk.s:24203  .debug_str:0000000000011a75 .LASF45
C:\Users\CYMR90~1\AppData\Local\Temp\cc3o48Uk.s:20921  .debug_str:000000000000472f .LASF46
C:\Users\CYMR90~1\AppData\Local\Temp\cc3o48Uk.s:27216  .debug_str:000000000001de60 .LASF47
C:\Users\CYMR90~1\AppData\Local\Temp\cc3o48Uk.s:28928  .debug_str:0000000000024641 .LASF48
C:\Users\CYMR90~1\AppData\Local\Temp\cc3o48Uk.s:23171  .debug_str:000000000000d932 .LASF49
C:\Users\CYMR90~1\AppData\Local\Temp\cc3o48Uk.s:20303  .debug_str:0000000000001fa3 .LASF50
C:\Users\CYMR90~1\AppData\Local\Temp\cc3o48Uk.s:19821  .debug_str:0000000000000131 .LASF51
C:\Users\CYMR90~1\AppData\Local\Temp\cc3o48Uk.s:30266  .debug_str:0000000000029c9d .LASF52
C:\Users\CYMR90~1\AppData\Local\Temp\cc3o48Uk.s:22981  .debug_str:000000000000cd12 .LASF53
C:\Users\CYMR90~1\AppData\Local\Temp\cc3o48Uk.s:24685  .debug_str:000000000001395f .LASF54
C:\Users\CYMR90~1\AppData\Local\Temp\cc3o48Uk.s:23725  .debug_str:000000000000fb8c .LASF55
C:\Users\CYMR90~1\AppData\Local\Temp\cc3o48Uk.s:21713  .debug_str:00000000000078ad .LASF56
C:\Users\CYMR90~1\AppData\Local\Temp\cc3o48Uk.s:25093  .debug_str:00000000000152d3 .LASF57
C:\Users\CYMR90~1\AppData\Local\Temp\cc3o48Uk.s:25359  .debug_str:0000000000016355 .LASF58
C:\Users\CYMR90~1\AppData\Local\Temp\cc3o48Uk.s:29210  .debug_str:0000000000025a28 .LASF59
C:\Users\CYMR90~1\AppData\Local\Temp\cc3o48Uk.s:24609  .debug_str:00000000000134ba .LASF60
C:\Users\CYMR90~1\AppData\Local\Temp\cc3o48Uk.s:26584  .debug_str:000000000001b5af .LASF61
C:\Users\CYMR90~1\AppData\Local\Temp\cc3o48Uk.s:20527  .debug_str:0000000000002d59 .LASF62
C:\Users\CYMR90~1\AppData\Local\Temp\cc3o48Uk.s:23161  .debug_str:000000000000d8ab .LASF63
C:\Users\CYMR90~1\AppData\Local\Temp\cc3o48Uk.s:22899  .debug_str:000000000000c793 .LASF64
C:\Users\CYMR90~1\AppData\Local\Temp\cc3o48Uk.s:26280  .debug_str:000000000001a09f .LASF65
C:\Users\CYMR90~1\AppData\Local\Temp\cc3o48Uk.s:24919  .debug_str:00000000000147fc .LASF66
C:\Users\CYMR90~1\AppData\Local\Temp\cc3o48Uk.s:30038  .debug_str:0000000000028f01 .LASF67
C:\Users\CYMR90~1\AppData\Local\Temp\cc3o48Uk.s:30496  .debug_str:000000000002aa29 .LASF68
C:\Users\CYMR90~1\AppData\Local\Temp\cc3o48Uk.s:24159  .debug_str:000000000001175f .LASF69
C:\Users\CYMR90~1\AppData\Local\Temp\cc3o48Uk.s:23319  .debug_str:000000000000e237 .LASF70
C:\Users\CYMR90~1\AppData\Local\Temp\cc3o48Uk.s:20933  .debug_str:0000000000004882 .LASF71
C:\Users\CYMR90~1\AppData\Local\Temp\cc3o48Uk.s:24193  .debug_str:00000000000119d9 .LASF72
C:\Users\CYMR90~1\AppData\Local\Temp\cc3o48Uk.s:23825  .debug_str:00000000000101c2 .LASF73
C:\Users\CYMR90~1\AppData\Local\Temp\cc3o48Uk.s:24417  .debug_str:0000000000012848 .LASF74
C:\Users\CYMR90~1\AppData\Local\Temp\cc3o48Uk.s:24259  .debug_str:0000000000011e05 .LASF75
C:\Users\CYMR90~1\AppData\Local\Temp\cc3o48Uk.s:24359  .debug_str:000000000001247c .LASF76
C:\Users\CYMR90~1\AppData\Local\Temp\cc3o48Uk.s:28842  .debug_str:00000000000240a2 .LASF77
C:\Users\CYMR90~1\AppData\Local\Temp\cc3o48Uk.s:26774  .debug_str:000000000001c146 .LASF78
C:\Users\CYMR90~1\AppData\Local\Temp\cc3o48Uk.s:27174  .debug_str:000000000001db5e .LASF79
C:\Users\CYMR90~1\AppData\Local\Temp\cc3o48Uk.s:30018  .debug_str:0000000000028db2 .LASF80
C:\Users\CYMR90~1\AppData\Local\Temp\cc3o48Uk.s:22229  .debug_str:0000000000009aa5 .LASF81
C:\Users\CYMR90~1\AppData\Local\Temp\cc3o48Uk.s:22425  .debug_str:000000000000a6d7 .LASF82
C:\Users\CYMR90~1\AppData\Local\Temp\cc3o48Uk.s:30154  .debug_str:000000000002960e .LASF83
C:\Users\CYMR90~1\AppData\Local\Temp\cc3o48Uk.s:22169  .debug_str:000000000000968a .LASF84
C:\Users\CYMR90~1\AppData\Local\Temp\cc3o48Uk.s:21443  .debug_str:000000000000674f .LASF85
C:\Users\CYMR90~1\AppData\Local\Temp\cc3o48Uk.s:26482  .debug_str:000000000001af14 .LASF86
C:\Users\CYMR90~1\AppData\Local\Temp\cc3o48Uk.s:30186  .debug_str:00000000000297db .LASF87
C:\Users\CYMR90~1\AppData\Local\Temp\cc3o48Uk.s:27612  .debug_str:000000000001f648 .LASF88
C:\Users\CYMR90~1\AppData\Local\Temp\cc3o48Uk.s:26398  .debug_str:000000000001a9b7 .LASF89
C:\Users\CYMR90~1\AppData\Local\Temp\cc3o48Uk.s:27640  .debug_str:000000000001f7f1 .LASF90
C:\Users\CYMR90~1\AppData\Local\Temp\cc3o48Uk.s:30396  .debug_str:000000000002a466 .LASF91
C:\Users\CYMR90~1\AppData\Local\Temp\cc3o48Uk.s:29218  .debug_str:0000000000025aa0 .LASF92
C:\Users\CYMR90~1\AppData\Local\Temp\cc3o48Uk.s:22309  .debug_str:0000000000009f97 .LASF93
C:\Users\CYMR90~1\AppData\Local\Temp\cc3o48Uk.s:27052  .debug_str:000000000001d3e2 .LASF94
C:\Users\CYMR90~1\AppData\Local\Temp\cc3o48Uk.s:24641  .debug_str:00000000000136a0 .LASF95
C:\Users\CYMR90~1\AppData\Local\Temp\cc3o48Uk.s:24623  .debug_str:000000000001359a .LASF96
C:\Users\CYMR90~1\AppData\Local\Temp\cc3o48Uk.s:30704  .debug_str:000000000002b815 .LASF97
C:\Users\CYMR90~1\AppData\Local\Temp\cc3o48Uk.s:24271  .debug_str:0000000000011ee2 .LASF98
C:\Users\CYMR90~1\AppData\Local\Temp\cc3o48Uk.s:28202  .debug_str:0000000000021a8e .LASF99
C:\Users\CYMR90~1\AppData\Local\Temp\cc3o48Uk.s:21655  .debug_str:00000000000074dc .LASF100
C:\Users\CYMR90~1\AppData\Local\Temp\cc3o48Uk.s:23775  .debug_str:000000000000febb .LASF101
C:\Users\CYMR90~1\AppData\Local\Temp\cc3o48Uk.s:25155  .debug_str:000000000001562a .LASF102
C:\Users\CYMR90~1\AppData\Local\Temp\cc3o48Uk.s:24051  .debug_str:0000000000011010 .LASF103
C:\Users\CYMR90~1\AppData\Local\Temp\cc3o48Uk.s:23077  .debug_str:000000000000d340 .LASF104
C:\Users\CYMR90~1\AppData\Local\Temp\cc3o48Uk.s:24213  .debug_str:0000000000011b0c .LASF105
C:\Users\CYMR90~1\AppData\Local\Temp\cc3o48Uk.s:26872  .debug_str:000000000001c6f7 .LASF106
C:\Users\CYMR90~1\AppData\Local\Temp\cc3o48Uk.s:24045  .debug_str:0000000000010fab .LASF107
C:\Users\CYMR90~1\AppData\Local\Temp\cc3o48Uk.s:23071  .debug_str:000000000000d304 .LASF108
C:\Users\CYMR90~1\AppData\Local\Temp\cc3o48Uk.s:24469  .debug_str:0000000000012ba3 .LASF109
C:\Users\CYMR90~1\AppData\Local\Temp\cc3o48Uk.s:23449  .debug_str:000000000000ea41 .LASF110
C:\Users\CYMR90~1\AppData\Local\Temp\cc3o48Uk.s:25920  .debug_str:0000000000018928 .LASF111
C:\Users\CYMR90~1\AppData\Local\Temp\cc3o48Uk.s:22567  .debug_str:000000000000b1a6 .LASF112
C:\Users\CYMR90~1\AppData\Local\Temp\cc3o48Uk.s:22307  .debug_str:0000000000009f6e .LASF113
C:\Users\CYMR90~1\AppData\Local\Temp\cc3o48Uk.s:25191  .debug_str:000000000001587c .LASF114
C:\Users\CYMR90~1\AppData\Local\Temp\cc3o48Uk.s:30080  .debug_str:0000000000029180 .LASF115
C:\Users\CYMR90~1\AppData\Local\Temp\cc3o48Uk.s:26746  .debug_str:000000000001bf88 .LASF116
C:\Users\CYMR90~1\AppData\Local\Temp\cc3o48Uk.s:22055  .debug_str:0000000000008fcd .LASF117
C:\Users\CYMR90~1\AppData\Local\Temp\cc3o48Uk.s:26640  .debug_str:000000000001b903 .LASF118
C:\Users\CYMR90~1\AppData\Local\Temp\cc3o48Uk.s:30816  .debug_str:000000000002bfb3 .LASF119
C:\Users\CYMR90~1\AppData\Local\Temp\cc3o48Uk.s:23365  .debug_str:000000000000e4cb .LASF120
C:\Users\CYMR90~1\AppData\Local\Temp\cc3o48Uk.s:28822  .debug_str:0000000000023ec0 .LASF121
C:\Users\CYMR90~1\AppData\Local\Temp\cc3o48Uk.s:22861  .debug_str:000000000000c52d .LASF122
C:\Users\CYMR90~1\AppData\Local\Temp\cc3o48Uk.s:22967  .debug_str:000000000000cc65 .LASF123
C:\Users\CYMR90~1\AppData\Local\Temp\cc3o48Uk.s:20629  .debug_str:00000000000033e0 .LASF124
C:\Users\CYMR90~1\AppData\Local\Temp\cc3o48Uk.s:20897  .debug_str:0000000000004579 .LASF125
C:\Users\CYMR90~1\AppData\Local\Temp\cc3o48Uk.s:29752  .debug_str:0000000000027be9 .LASF126
C:\Users\CYMR90~1\AppData\Local\Temp\cc3o48Uk.s:24219  .debug_str:0000000000011b4a .LASF127
C:\Users\CYMR90~1\AppData\Local\Temp\cc3o48Uk.s:27028  .debug_str:000000000001d284 .LASF128
C:\Users\CYMR90~1\AppData\Local\Temp\cc3o48Uk.s:22135  .debug_str:0000000000009446 .LASF129
C:\Users\CYMR90~1\AppData\Local\Temp\cc3o48Uk.s:29332  .debug_str:00000000000261bc .LASF130
C:\Users\CYMR90~1\AppData\Local\Temp\cc3o48Uk.s:29630  .debug_str:0000000000027417 .LASF131
C:\Users\CYMR90~1\AppData\Local\Temp\cc3o48Uk.s:29444  .debug_str:0000000000026879 .LASF132
C:\Users\CYMR90~1\AppData\Local\Temp\cc3o48Uk.s:23343  .debug_str:000000000000e37c .LASF133
C:\Users\CYMR90~1\AppData\Local\Temp\cc3o48Uk.s:28740  .debug_str:0000000000023a6d .LASF134
C:\Users\CYMR90~1\AppData\Local\Temp\cc3o48Uk.s:20891  .debug_str:0000000000004512 .LASF135
C:\Users\CYMR90~1\AppData\Local\Temp\cc3o48Uk.s:21755  .debug_str:0000000000007b6e .LASF136
C:\Users\CYMR90~1\AppData\Local\Temp\cc3o48Uk.s:30488  .debug_str:000000000002a9bf .LASF137
C:\Users\CYMR90~1\AppData\Local\Temp\cc3o48Uk.s:24465  .debug_str:0000000000012b73 .LASF138
C:\Users\CYMR90~1\AppData\Local\Temp\cc3o48Uk.s:29966  .debug_str:0000000000028aa9 .LASF139
C:\Users\CYMR90~1\AppData\Local\Temp\cc3o48Uk.s:29102  .debug_str:00000000000252a9 .LASF140
C:\Users\CYMR90~1\AppData\Local\Temp\cc3o48Uk.s:26730  .debug_str:000000000001be9f .LASF141
C:\Users\CYMR90~1\AppData\Local\Temp\cc3o48Uk.s:22267  .debug_str:0000000000009cf4 .LASF142
C:\Users\CYMR90~1\AppData\Local\Temp\cc3o48Uk.s:30560  .debug_str:000000000002ae0c .LASF143
C:\Users\CYMR90~1\AppData\Local\Temp\cc3o48Uk.s:25886  .debug_str:00000000000186f8 .LASF144
C:\Users\CYMR90~1\AppData\Local\Temp\cc3o48Uk.s:24931  .debug_str:00000000000148e2 .LASF145
C:\Users\CYMR90~1\AppData\Local\Temp\cc3o48Uk.s:22931  .debug_str:000000000000ca32 .LASF146
C:\Users\CYMR90~1\AppData\Local\Temp\cc3o48Uk.s:20931  .debug_str:000000000000486b .LASF147
C:\Users\CYMR90~1\AppData\Local\Temp\cc3o48Uk.s:23487  .debug_str:000000000000ecc1 .LASF148
C:\Users\CYMR90~1\AppData\Local\Temp\cc3o48Uk.s:25866  .debug_str:00000000000185f2 .LASF149
C:\Users\CYMR90~1\AppData\Local\Temp\cc3o48Uk.s:19897  .debug_str:00000000000005aa .LASF150
C:\Users\CYMR90~1\AppData\Local\Temp\cc3o48Uk.s:28186  .debug_str:0000000000021981 .LASF151
C:\Users\CYMR90~1\AppData\Local\Temp\cc3o48Uk.s:24459  .debug_str:0000000000012af1 .LASF152
C:\Users\CYMR90~1\AppData\Local\Temp\cc3o48Uk.s:25157  .debug_str:0000000000015646 .LASF153
C:\Users\CYMR90~1\AppData\Local\Temp\cc3o48Uk.s:26934  .debug_str:000000000001cb45 .LASF154
C:\Users\CYMR90~1\AppData\Local\Temp\cc3o48Uk.s:23887  .debug_str:000000000001061b .LASF155
C:\Users\CYMR90~1\AppData\Local\Temp\cc3o48Uk.s:26946  .debug_str:000000000001cc2b .LASF156
C:\Users\CYMR90~1\AppData\Local\Temp\cc3o48Uk.s:27058  .debug_str:000000000001d44a .LASF157
C:\Users\CYMR90~1\AppData\Local\Temp\cc3o48Uk.s:22789  .debug_str:000000000000c0b4 .LASF158
C:\Users\CYMR90~1\AppData\Local\Temp\cc3o48Uk.s:21861  .debug_str:0000000000008372 .LASF159
C:\Users\CYMR90~1\AppData\Local\Temp\cc3o48Uk.s:26590  .debug_str:000000000001b603 .LASF160
C:\Users\CYMR90~1\AppData\Local\Temp\cc3o48Uk.s:28006  .debug_str:0000000000020e7e .LASF161
C:\Users\CYMR90~1\AppData\Local\Temp\cc3o48Uk.s:26186  .debug_str:0000000000019b36 .LASF162
C:\Users\CYMR90~1\AppData\Local\Temp\cc3o48Uk.s:28732  .debug_str:00000000000239fb .LASF163
C:\Users\CYMR90~1\AppData\Local\Temp\cc3o48Uk.s:30382  .debug_str:000000000002a38a .LASF164
C:\Users\CYMR90~1\AppData\Local\Temp\cc3o48Uk.s:21613  .debug_str:0000000000007284 .LASF165
C:\Users\CYMR90~1\AppData\Local\Temp\cc3o48Uk.s:30068  .debug_str:00000000000290f1 .LASF166
C:\Users\CYMR90~1\AppData\Local\Temp\cc3o48Uk.s:29886  .debug_str:00000000000285ae .LASF167
C:\Users\CYMR90~1\AppData\Local\Temp\cc3o48Uk.s:28652  .debug_str:00000000000234fe .LASF168
C:\Users\CYMR90~1\AppData\Local\Temp\cc3o48Uk.s:25654  .debug_str:000000000001787e .LASF169
C:\Users\CYMR90~1\AppData\Local\Temp\cc3o48Uk.s:29504  .debug_str:0000000000026bef .LASF170
C:\Users\CYMR90~1\AppData\Local\Temp\cc3o48Uk.s:25269  .debug_str:0000000000015dd1 .LASF171
C:\Users\CYMR90~1\AppData\Local\Temp\cc3o48Uk.s:26852  .debug_str:000000000001c5b0 .LASF172
C:\Users\CYMR90~1\AppData\Local\Temp\cc3o48Uk.s:22259  .debug_str:0000000000009c80 .LASF173
C:\Users\CYMR90~1\AppData\Local\Temp\cc3o48Uk.s:28540  .debug_str:0000000000022eb2 .LASF174
C:\Users\CYMR90~1\AppData\Local\Temp\cc3o48Uk.s:21275  .debug_str:0000000000005d13 .LASF175
C:\Users\CYMR90~1\AppData\Local\Temp\cc3o48Uk.s:22101  .debug_str:0000000000009265 .LASF176
C:\Users\CYMR90~1\AppData\Local\Temp\cc3o48Uk.s:20769  .debug_str:0000000000003cd7 .LASF177
C:\Users\CYMR90~1\AppData\Local\Temp\cc3o48Uk.s:26064  .debug_str:0000000000019362 .LASF178
C:\Users\CYMR90~1\AppData\Local\Temp\cc3o48Uk.s:23019  .debug_str:000000000000cfa3 .LASF179
C:\Users\CYMR90~1\AppData\Local\Temp\cc3o48Uk.s:20297  .debug_str:0000000000001f37 .LASF180
C:\Users\CYMR90~1\AppData\Local\Temp\cc3o48Uk.s:30700  .debug_str:000000000002b7dc .LASF181
C:\Users\CYMR90~1\AppData\Local\Temp\cc3o48Uk.s:20087  .debug_str:000000000000122a .LASF182
C:\Users\CYMR90~1\AppData\Local\Temp\cc3o48Uk.s:24577  .debug_str:00000000000132c7 .LASF183
C:\Users\CYMR90~1\AppData\Local\Temp\cc3o48Uk.s:24999  .debug_str:0000000000014d47 .LASF184
C:\Users\CYMR90~1\AppData\Local\Temp\cc3o48Uk.s:29896  .debug_str:000000000002865d .LASF185
C:\Users\CYMR90~1\AppData\Local\Temp\cc3o48Uk.s:23117  .debug_str:000000000000d673 .LASF186
C:\Users\CYMR90~1\AppData\Local\Temp\cc3o48Uk.s:21597  .debug_str:000000000000714f .LASF187
C:\Users\CYMR90~1\AppData\Local\Temp\cc3o48Uk.s:27590  .debug_str:000000000001f52e .LASF188
C:\Users\CYMR90~1\AppData\Local\Temp\cc3o48Uk.s:23385  .debug_str:000000000000e65c .LASF189
C:\Users\CYMR90~1\AppData\Local\Temp\cc3o48Uk.s:24691  .debug_str:00000000000139be .LASF190
C:\Users\CYMR90~1\AppData\Local\Temp\cc3o48Uk.s:25880  .debug_str:00000000000186a9 .LASF191
C:\Users\CYMR90~1\AppData\Local\Temp\cc3o48Uk.s:25433  .debug_str:000000000001687f .LASF192
C:\Users\CYMR90~1\AppData\Local\Temp\cc3o48Uk.s:28296  .debug_str:000000000002203e .LASF193
C:\Users\CYMR90~1\AppData\Local\Temp\cc3o48Uk.s:21227  .debug_str:0000000000005a3b .LASF194
C:\Users\CYMR90~1\AppData\Local\Temp\cc3o48Uk.s:20599  .debug_str:00000000000031dc .LASF195
C:\Users\CYMR90~1\AppData\Local\Temp\cc3o48Uk.s:23219  .debug_str:000000000000dc0d .LASF196
C:\Users\CYMR90~1\AppData\Local\Temp\cc3o48Uk.s:24111  .debug_str:00000000000113ca .LASF197
C:\Users\CYMR90~1\AppData\Local\Temp\cc3o48Uk.s:21087  .debug_str:000000000000519d .LASF198
C:\Users\CYMR90~1\AppData\Local\Temp\cc3o48Uk.s:29784  .debug_str:0000000000027e30 .LASF199
C:\Users\CYMR90~1\AppData\Local\Temp\cc3o48Uk.s:27948  .debug_str:0000000000020ae9 .LASF200
C:\Users\CYMR90~1\AppData\Local\Temp\cc3o48Uk.s:27066  .debug_str:000000000001d4a8 .LASF201
C:\Users\CYMR90~1\AppData\Local\Temp\cc3o48Uk.s:22235  .debug_str:0000000000009af1 .LASF202
C:\Users\CYMR90~1\AppData\Local\Temp\cc3o48Uk.s:30246  .debug_str:0000000000029b78 .LASF203
C:\Users\CYMR90~1\AppData\Local\Temp\cc3o48Uk.s:22705  .debug_str:000000000000bafd .LASF204
C:\Users\CYMR90~1\AppData\Local\Temp\cc3o48Uk.s:23611  .debug_str:000000000000f43e .LASF205
C:\Users\CYMR90~1\AppData\Local\Temp\cc3o48Uk.s:29974  .debug_str:0000000000028b0e .LASF206
C:\Users\CYMR90~1\AppData\Local\Temp\cc3o48Uk.s:24813  .debug_str:000000000001415c .LASF207
C:\Users\CYMR90~1\AppData\Local\Temp\cc3o48Uk.s:27630  .debug_str:000000000001f763 .LASF208
C:\Users\CYMR90~1\AppData\Local\Temp\cc3o48Uk.s:22855  .debug_str:000000000000c4dc .LASF209
C:\Users\CYMR90~1\AppData\Local\Temp\cc3o48Uk.s:30916  .debug_str:000000000002c617 .LASF210
C:\Users\CYMR90~1\AppData\Local\Temp\cc3o48Uk.s:24783  .debug_str:0000000000013f8b .LASF211
C:\Users\CYMR90~1\AppData\Local\Temp\cc3o48Uk.s:27468  .debug_str:000000000001ed8f .LASF212
C:\Users\CYMR90~1\AppData\Local\Temp\cc3o48Uk.s:26084  .debug_str:0000000000019490 .LASF213
C:\Users\CYMR90~1\AppData\Local\Temp\cc3o48Uk.s:21315  .debug_str:0000000000005f4a .LASF214
C:\Users\CYMR90~1\AppData\Local\Temp\cc3o48Uk.s:24791  .debug_str:0000000000013ff7 .LASF215
C:\Users\CYMR90~1\AppData\Local\Temp\cc3o48Uk.s:26770  .debug_str:000000000001c0f6 .LASF216
C:\Users\CYMR90~1\AppData\Local\Temp\cc3o48Uk.s:27736  .debug_str:000000000001fd87 .LASF217
C:\Users\CYMR90~1\AppData\Local\Temp\cc3o48Uk.s:23681  .debug_str:000000000000f8ca .LASF218
C:\Users\CYMR90~1\AppData\Local\Temp\cc3o48Uk.s:29110  .debug_str:000000000002530f .LASF219
C:\Users\CYMR90~1\AppData\Local\Temp\cc3o48Uk.s:28920  .debug_str:00000000000245d3 .LASF220
C:\Users\CYMR90~1\AppData\Local\Temp\cc3o48Uk.s:28442  .debug_str:00000000000228a4 .LASF221
C:\Users\CYMR90~1\AppData\Local\Temp\cc3o48Uk.s:25077  .debug_str:000000000001520d .LASF222
C:\Users\CYMR90~1\AppData\Local\Temp\cc3o48Uk.s:21285  .debug_str:0000000000005d95 .LASF223
C:\Users\CYMR90~1\AppData\Local\Temp\cc3o48Uk.s:21959  .debug_str:000000000000897f .LASF224
C:\Users\CYMR90~1\AppData\Local\Temp\cc3o48Uk.s:30572  .debug_str:000000000002aeb6 .LASF225
C:\Users\CYMR90~1\AppData\Local\Temp\cc3o48Uk.s:23279  .debug_str:000000000000dfec .LASF226
C:\Users\CYMR90~1\AppData\Local\Temp\cc3o48Uk.s:26930  .debug_str:000000000001cb17 .LASF227
C:\Users\CYMR90~1\AppData\Local\Temp\cc3o48Uk.s:26780  .debug_str:000000000001c19c .LASF228
C:\Users\CYMR90~1\AppData\Local\Temp\cc3o48Uk.s:23233  .debug_str:000000000000dcea .LASF229
C:\Users\CYMR90~1\AppData\Local\Temp\cc3o48Uk.s:27510  .debug_str:000000000001f026 .LASF230
C:\Users\CYMR90~1\AppData\Local\Temp\cc3o48Uk.s:22011  .debug_str:0000000000008cf4 .LASF231
C:\Users\CYMR90~1\AppData\Local\Temp\cc3o48Uk.s:21327  .debug_str:0000000000006011 .LASF232
C:\Users\CYMR90~1\AppData\Local\Temp\cc3o48Uk.s:21913  .debug_str:000000000000867f .LASF233
C:\Users\CYMR90~1\AppData\Local\Temp\cc3o48Uk.s:23877  .debug_str:00000000000104dc .LASF234
C:\Users\CYMR90~1\AppData\Local\Temp\cc3o48Uk.s:23607  .debug_str:000000000000f3f6 .LASF235
C:\Users\CYMR90~1\AppData\Local\Temp\cc3o48Uk.s:28660  .debug_str:00000000000235aa .LASF236
C:\Users\CYMR90~1\AppData\Local\Temp\cc3o48Uk.s:23627  .debug_str:000000000000f527 .LASF237
C:\Users\CYMR90~1\AppData\Local\Temp\cc3o48Uk.s:29328  .debug_str:0000000000026180 .LASF238
C:\Users\CYMR90~1\AppData\Local\Temp\cc3o48Uk.s:28644  .debug_str:000000000002347f .LASF239
C:\Users\CYMR90~1\AppData\Local\Temp\cc3o48Uk.s:28882  .debug_str:0000000000024373 .LASF240
C:\Users\CYMR90~1\AppData\Local\Temp\cc3o48Uk.s:21727  .debug_str:00000000000079c3 .LASF241
C:\Users\CYMR90~1\AppData\Local\Temp\cc3o48Uk.s:23303  .debug_str:000000000000e13b .LASF242
C:\Users\CYMR90~1\AppData\Local\Temp\cc3o48Uk.s:24255  .debug_str:0000000000011d9d .LASF243
C:\Users\CYMR90~1\AppData\Local\Temp\cc3o48Uk.s:28672  .debug_str:0000000000023634 .LASF244
C:\Users\CYMR90~1\AppData\Local\Temp\cc3o48Uk.s:24443  .debug_str:00000000000129c6 .LASF245
C:\Users\CYMR90~1\AppData\Local\Temp\cc3o48Uk.s:27520  .debug_str:000000000001f0e7 .LASF246
C:\Users\CYMR90~1\AppData\Local\Temp\cc3o48Uk.s:25848  .debug_str:0000000000018497 .LASF247
C:\Users\CYMR90~1\AppData\Local\Temp\cc3o48Uk.s:25361  .debug_str:000000000001636d .LASF248
C:\Users\CYMR90~1\AppData\Local\Temp\cc3o48Uk.s:26868  .debug_str:000000000001c6c7 .LASF249
C:\Users\CYMR90~1\AppData\Local\Temp\cc3o48Uk.s:26242  .debug_str:0000000000019e7b .LASF250
C:\Users\CYMR90~1\AppData\Local\Temp\cc3o48Uk.s:26800  .debug_str:000000000001c2de .LASF251
C:\Users\CYMR90~1\AppData\Local\Temp\cc3o48Uk.s:28490  .debug_str:0000000000022bf2 .LASF252
C:\Users\CYMR90~1\AppData\Local\Temp\cc3o48Uk.s:23201  .debug_str:000000000000db29 .LASF253
C:\Users\CYMR90~1\AppData\Local\Temp\cc3o48Uk.s:29184  .debug_str:00000000000258a4 .LASF254
C:\Users\CYMR90~1\AppData\Local\Temp\cc3o48Uk.s:23057  .debug_str:000000000000d1fa .LASF255
C:\Users\CYMR90~1\AppData\Local\Temp\cc3o48Uk.s:26154  .debug_str:000000000001990f .LASF256
C:\Users\CYMR90~1\AppData\Local\Temp\cc3o48Uk.s:23299  .debug_str:000000000000e109 .LASF257
C:\Users\CYMR90~1\AppData\Local\Temp\cc3o48Uk.s:20029  .debug_str:0000000000000e0c .LASF258
C:\Users\CYMR90~1\AppData\Local\Temp\cc3o48Uk.s:22527  .debug_str:000000000000ae4f .LASF259
C:\Users\CYMR90~1\AppData\Local\Temp\cc3o48Uk.s:19975  .debug_str:0000000000000a82 .LASF260
C:\Users\CYMR90~1\AppData\Local\Temp\cc3o48Uk.s:30304  .debug_str:0000000000029ec0 .LASF261
C:\Users\CYMR90~1\AppData\Local\Temp\cc3o48Uk.s:29764  .debug_str:0000000000027c8f .LASF262
C:\Users\CYMR90~1\AppData\Local\Temp\cc3o48Uk.s:24761  .debug_str:0000000000013dea .LASF263
C:\Users\CYMR90~1\AppData\Local\Temp\cc3o48Uk.s:26752  .debug_str:000000000001bffb .LASF264
C:\Users\CYMR90~1\AppData\Local\Temp\cc3o48Uk.s:23729  .debug_str:000000000000fbd3 .LASF265
C:\Users\CYMR90~1\AppData\Local\Temp\cc3o48Uk.s:23235  .debug_str:000000000000dd2b .LASF266
C:\Users\CYMR90~1\AppData\Local\Temp\cc3o48Uk.s:22579  .debug_str:000000000000b26b .LASF267
C:\Users\CYMR90~1\AppData\Local\Temp\cc3o48Uk.s:26854  .debug_str:000000000001c5c5 .LASF268
C:\Users\CYMR90~1\AppData\Local\Temp\cc3o48Uk.s:22879  .debug_str:000000000000c66f .LASF269
C:\Users\CYMR90~1\AppData\Local\Temp\cc3o48Uk.s:23793  .debug_str:000000000000ffef .LASF270
C:\Users\CYMR90~1\AppData\Local\Temp\cc3o48Uk.s:24547  .debug_str:00000000000130a4 .LASF271
C:\Users\CYMR90~1\AppData\Local\Temp\cc3o48Uk.s:29428  .debug_str:0000000000026792 .LASF272
C:\Users\CYMR90~1\AppData\Local\Temp\cc3o48Uk.s:21489  .debug_str:0000000000006a12 .LASF273
C:\Users\CYMR90~1\AppData\Local\Temp\cc3o48Uk.s:20419  .debug_str:0000000000002624 .LASF274
C:\Users\CYMR90~1\AppData\Local\Temp\cc3o48Uk.s:21581  .debug_str:0000000000007038 .LASF275
C:\Users\CYMR90~1\AppData\Local\Temp\cc3o48Uk.s:22937  .debug_str:000000000000ca7b .LASF276
C:\Users\CYMR90~1\AppData\Local\Temp\cc3o48Uk.s:22771  .debug_str:000000000000bf99 .LASF277
C:\Users\CYMR90~1\AppData\Local\Temp\cc3o48Uk.s:20111  .debug_str:0000000000001349 .LASF278
C:\Users\CYMR90~1\AppData\Local\Temp\cc3o48Uk.s:21411  .debug_str:0000000000006529 .LASF279
C:\Users\CYMR90~1\AppData\Local\Temp\cc3o48Uk.s:30092  .debug_str:000000000002921a .LASF280
C:\Users\CYMR90~1\AppData\Local\Temp\cc3o48Uk.s:22285  .debug_str:0000000000009e08 .LASF281
C:\Users\CYMR90~1\AppData\Local\Temp\cc3o48Uk.s:21377  .debug_str:0000000000006346 .LASF282
C:\Users\CYMR90~1\AppData\Local\Temp\cc3o48Uk.s:21279  .debug_str:0000000000005d43 .LASF283
C:\Users\CYMR90~1\AppData\Local\Temp\cc3o48Uk.s:21041  .debug_str:0000000000004efb .LASF284
C:\Users\CYMR90~1\AppData\Local\Temp\cc3o48Uk.s:28986  .debug_str:0000000000024a63 .LASF285
C:\Users\CYMR90~1\AppData\Local\Temp\cc3o48Uk.s:29796  .debug_str:0000000000027f2d .LASF286
C:\Users\CYMR90~1\AppData\Local\Temp\cc3o48Uk.s:30076  .debug_str:000000000002914e .LASF287
C:\Users\CYMR90~1\AppData\Local\Temp\cc3o48Uk.s:29988  .debug_str:0000000000028bc6 .LASF288
C:\Users\CYMR90~1\AppData\Local\Temp\cc3o48Uk.s:30844  .debug_str:000000000002c162 .LASF289
C:\Users\CYMR90~1\AppData\Local\Temp\cc3o48Uk.s:25790  .debug_str:0000000000018108 .LASF290
C:\Users\CYMR90~1\AppData\Local\Temp\cc3o48Uk.s:24817  .debug_str:0000000000014182 .LASF291
C:\Users\CYMR90~1\AppData\Local\Temp\cc3o48Uk.s:29022  .debug_str:0000000000024cae .LASF292
C:\Users\CYMR90~1\AppData\Local\Temp\cc3o48Uk.s:20687  .debug_str:00000000000037a2 .LASF293
C:\Users\CYMR90~1\AppData\Local\Temp\cc3o48Uk.s:27960  .debug_str:0000000000020bb1 .LASF294
C:\Users\CYMR90~1\AppData\Local\Temp\cc3o48Uk.s:20959  .debug_str:00000000000049f3 .LASF295
C:\Users\CYMR90~1\AppData\Local\Temp\cc3o48Uk.s:30426  .debug_str:000000000002a635 .LASF296
C:\Users\CYMR90~1\AppData\Local\Temp\cc3o48Uk.s:24869  .debug_str:00000000000144f5 .LASF297
C:\Users\CYMR90~1\AppData\Local\Temp\cc3o48Uk.s:25676  .debug_str:0000000000017a1f .LASF298
C:\Users\CYMR90~1\AppData\Local\Temp\cc3o48Uk.s:19957  .debug_str:0000000000000968 .LASF299
C:\Users\CYMR90~1\AppData\Local\Temp\cc3o48Uk.s:23699  .debug_str:000000000000f9eb .LASF300
C:\Users\CYMR90~1\AppData\Local\Temp\cc3o48Uk.s:26424  .debug_str:000000000001ab4c .LASF301
C:\Users\CYMR90~1\AppData\Local\Temp\cc3o48Uk.s:24925  .debug_str:0000000000014854 .LASF302
C:\Users\CYMR90~1\AppData\Local\Temp\cc3o48Uk.s:24395  .debug_str:00000000000126d7 .LASF303
C:\Users\CYMR90~1\AppData\Local\Temp\cc3o48Uk.s:20337  .debug_str:0000000000002169 .LASF304
C:\Users\CYMR90~1\AppData\Local\Temp\cc3o48Uk.s:22887  .debug_str:000000000000c6f3 .LASF305
C:\Users\CYMR90~1\AppData\Local\Temp\cc3o48Uk.s:28168  .debug_str:00000000000218a4 .LASF306
C:\Users\CYMR90~1\AppData\Local\Temp\cc3o48Uk.s:23715  .debug_str:000000000000faf4 .LASF307
C:\Users\CYMR90~1\AppData\Local\Temp\cc3o48Uk.s:29006  .debug_str:0000000000024ba7 .LASF308
C:\Users\CYMR90~1\AppData\Local\Temp\cc3o48Uk.s:28608  .debug_str:000000000002325f .LASF309
C:\Users\CYMR90~1\AppData\Local\Temp\cc3o48Uk.s:23281  .debug_str:000000000000e005 .LASF310
C:\Users\CYMR90~1\AppData\Local\Temp\cc3o48Uk.s:29324  .debug_str:0000000000026155 .LASF311
C:\Users\CYMR90~1\AppData\Local\Temp\cc3o48Uk.s:28836  .debug_str:000000000002406b .LASF312
C:\Users\CYMR90~1\AppData\Local\Temp\cc3o48Uk.s:23001  .debug_str:000000000000ce30 .LASF313
C:\Users\CYMR90~1\AppData\Local\Temp\cc3o48Uk.s:25940  .debug_str:0000000000018a82 .LASF316
C:\Users\CYMR90~1\AppData\Local\Temp\cc3o48Uk.s:26296  .debug_str:000000000001a185 .LASF317
C:\Users\CYMR90~1\AppData\Local\Temp\cc3o48Uk.s:26646  .debug_str:000000000001b941 .LASF318
C:\Users\CYMR90~1\AppData\Local\Temp\cc3o48Uk.s:23707  .debug_str:000000000000fa88 .LASF319
C:\Users\CYMR90~1\AppData\Local\Temp\cc3o48Uk.s:22645  .debug_str:000000000000b6c5 .LASF320
C:\Users\CYMR90~1\AppData\Local\Temp\cc3o48Uk.s:30036  .debug_str:0000000000028ef5 .LASF321
C:\Users\CYMR90~1\AppData\Local\Temp\cc3o48Uk.s:23199  .debug_str:000000000000db1c .LASF322
C:\Users\CYMR90~1\AppData\Local\Temp\cc3o48Uk.s:29278  .debug_str:0000000000025e3f .LASF323
C:\Users\CYMR90~1\AppData\Local\Temp\cc3o48Uk.s:19839  .debug_str:000000000000025f .LASF324
C:\Users\CYMR90~1\AppData\Local\Temp\cc3o48Uk.s:30452  .debug_str:000000000002a797 .LASF325
C:\Users\CYMR90~1\AppData\Local\Temp\cc3o48Uk.s:20741  .debug_str:0000000000003aee .LASF326
C:\Users\CYMR90~1\AppData\Local\Temp\cc3o48Uk.s:24749  .debug_str:0000000000013d1a .LASF327
C:\Users\CYMR90~1\AppData\Local\Temp\cc3o48Uk.s:24397  .debug_str:00000000000126ec .LASF328
C:\Users\CYMR90~1\AppData\Local\Temp\cc3o48Uk.s:27304  .debug_str:000000000001e3a3 .LASF329
C:\Users\CYMR90~1\AppData\Local\Temp\cc3o48Uk.s:27296  .debug_str:000000000001e352 .LASF330
C:\Users\CYMR90~1\AppData\Local\Temp\cc3o48Uk.s:29466  .debug_str:00000000000269d5 .LASF331
C:\Users\CYMR90~1\AppData\Local\Temp\cc3o48Uk.s:30016  .debug_str:0000000000028da3 .LASF332
C:\Users\CYMR90~1\AppData\Local\Temp\cc3o48Uk.s:30208  .debug_str:000000000002992f .LASF333
C:\Users\CYMR90~1\AppData\Local\Temp\cc3o48Uk.s:26272  .debug_str:000000000001a02f .LASF334
C:\Users\CYMR90~1\AppData\Local\Temp\cc3o48Uk.s:25720  .debug_str:0000000000017cc3 .LASF335
C:\Users\CYMR90~1\AppData\Local\Temp\cc3o48Uk.s:30056  .debug_str:0000000000029035 .LASF336
C:\Users\CYMR90~1\AppData\Local\Temp\cc3o48Uk.s:24319  .debug_str:00000000000121df .LASF337
C:\Users\CYMR90~1\AppData\Local\Temp\cc3o48Uk.s:28014  .debug_str:0000000000020eea .LASF338
C:\Users\CYMR90~1\AppData\Local\Temp\cc3o48Uk.s:22397  .debug_str:000000000000a546 .LASF339
C:\Users\CYMR90~1\AppData\Local\Temp\cc3o48Uk.s:24529  .debug_str:0000000000012f96 .LASF340
C:\Users\CYMR90~1\AppData\Local\Temp\cc3o48Uk.s:26474  .debug_str:000000000001ae5d .LASF341
C:\Users\CYMR90~1\AppData\Local\Temp\cc3o48Uk.s:22709  .debug_str:000000000000bb3a .LASF342
C:\Users\CYMR90~1\AppData\Local\Temp\cc3o48Uk.s:20093  .debug_str:0000000000001275 .LASF343
C:\Users\CYMR90~1\AppData\Local\Temp\cc3o48Uk.s:30176  .debug_str:000000000002974a .LASF344
C:\Users\CYMR90~1\AppData\Local\Temp\cc3o48Uk.s:30782  .debug_str:000000000002bd33 .LASF345
C:\Users\CYMR90~1\AppData\Local\Temp\cc3o48Uk.s:23597  .debug_str:000000000000f36e .LASF346
C:\Users\CYMR90~1\AppData\Local\Temp\cc3o48Uk.s:19945  .debug_str:00000000000008b1 .LASF347
C:\Users\CYMR90~1\AppData\Local\Temp\cc3o48Uk.s:27814  .debug_str:0000000000020256 .LASF348
C:\Users\CYMR90~1\AppData\Local\Temp\cc3o48Uk.s:29774  .debug_str:0000000000027d5e .LASF349
C:\Users\CYMR90~1\AppData\Local\Temp\cc3o48Uk.s:27298  .debug_str:000000000001e35e .LASF350
C:\Users\CYMR90~1\AppData\Local\Temp\cc3o48Uk.s:19875  .debug_str:0000000000000491 .LASF351
C:\Users\CYMR90~1\AppData\Local\Temp\cc3o48Uk.s:27594  .debug_str:000000000001f55e .LASF352
C:\Users\CYMR90~1\AppData\Local\Temp\cc3o48Uk.s:29270  .debug_str:0000000000025dbc .LASF353
C:\Users\CYMR90~1\AppData\Local\Temp\cc3o48Uk.s:26916  .debug_str:000000000001ca66 .LASF354
C:\Users\CYMR90~1\AppData\Local\Temp\cc3o48Uk.s:27082  .debug_str:000000000001d5a6 .LASF355
C:\Users\CYMR90~1\AppData\Local\Temp\cc3o48Uk.s:23083  .debug_str:000000000000d436 .LASF356
C:\Users\CYMR90~1\AppData\Local\Temp\cc3o48Uk.s:24013  .debug_str:0000000000010dd4 .LASF357
C:\Users\CYMR90~1\AppData\Local\Temp\cc3o48Uk.s:29688  .debug_str:000000000002778d .LASF358
C:\Users\CYMR90~1\AppData\Local\Temp\cc3o48Uk.s:24387  .debug_str:000000000001262c .LASF359
C:\Users\CYMR90~1\AppData\Local\Temp\cc3o48Uk.s:22291  .debug_str:0000000000009e5c .LASF360
C:\Users\CYMR90~1\AppData\Local\Temp\cc3o48Uk.s:27470  .debug_str:000000000001eda7 .LASF361
C:\Users\CYMR90~1\AppData\Local\Temp\cc3o48Uk.s:24135  .debug_str:000000000001153b .LASF362
C:\Users\CYMR90~1\AppData\Local\Temp\cc3o48Uk.s:29954  .debug_str:0000000000028a03 .LASF363
C:\Users\CYMR90~1\AppData\Local\Temp\cc3o48Uk.s:22039  .debug_str:0000000000008ef7 .LASF364
C:\Users\CYMR90~1\AppData\Local\Temp\cc3o48Uk.s:29850  .debug_str:0000000000028306 .LASF365
C:\Users\CYMR90~1\AppData\Local\Temp\cc3o48Uk.s:21447  .debug_str:00000000000067b4 .LASF366
C:\Users\CYMR90~1\AppData\Local\Temp\cc3o48Uk.s:24521  .debug_str:0000000000012ef6 .LASF367
C:\Users\CYMR90~1\AppData\Local\Temp\cc3o48Uk.s:21733  .debug_str:0000000000007a2d .LASF368
C:\Users\CYMR90~1\AppData\Local\Temp\cc3o48Uk.s:25760  .debug_str:0000000000017f5b .LASF372
C:\Users\CYMR90~1\AppData\Local\Temp\cc3o48Uk.s:29506  .debug_str:0000000000026c34 .LASF373
C:\Users\CYMR90~1\AppData\Local\Temp\cc3o48Uk.s:22475  .debug_str:000000000000ab06 .LASF374
C:\Users\CYMR90~1\AppData\Local\Temp\cc3o48Uk.s:25548  .debug_str:00000000000171ab .LASF375
C:\Users\CYMR90~1\AppData\Local\Temp\cc3o48Uk.s:25748  .debug_str:0000000000017e9e .LASF376
C:\Users\CYMR90~1\AppData\Local\Temp\cc3o48Uk.s:28262  .debug_str:0000000000021e50 .LASF377
C:\Users\CYMR90~1\AppData\Local\Temp\cc3o48Uk.s:26932  .debug_str:000000000001cb30 .LASF378
C:\Users\CYMR90~1\AppData\Local\Temp\cc3o48Uk.s:30612  .debug_str:000000000002b192 .LASF379
C:\Users\CYMR90~1\AppData\Local\Temp\cc3o48Uk.s:20433  .debug_str:000000000000271f .LASF380
C:\Users\CYMR90~1\AppData\Local\Temp\cc3o48Uk.s:30552  .debug_str:000000000002ada4 .LASF381
C:\Users\CYMR90~1\AppData\Local\Temp\cc3o48Uk.s:26654  .debug_str:000000000001b9ab .LASF382
C:\Users\CYMR90~1\AppData\Local\Temp\cc3o48Uk.s:21505  .debug_str:0000000000006b1f .LASF383
C:\Users\CYMR90~1\AppData\Local\Temp\cc3o48Uk.s:22857  .debug_str:000000000000c4f7 .LASF384
C:\Users\CYMR90~1\AppData\Local\Temp\cc3o48Uk.s:26170  .debug_str:0000000000019a2c .LASF385
C:\Users\CYMR90~1\AppData\Local\Temp\cc3o48Uk.s:23821  .debug_str:0000000000010193 .LASF386
C:\Users\CYMR90~1\AppData\Local\Temp\cc3o48Uk.s:20365  .debug_str:0000000000002316 .LASF387
C:\Users\CYMR90~1\AppData\Local\Temp\cc3o48Uk.s:23451  .debug_str:000000000000ea61 .LASF388
C:\Users\CYMR90~1\AppData\Local\Temp\cc3o48Uk.s:22009  .debug_str:0000000000008ce0 .LASF389
C:\Users\CYMR90~1\AppData\Local\Temp\cc3o48Uk.s:20829  .debug_str:0000000000004129 .LASF391
C:\Users\CYMR90~1\AppData\Local\Temp\cc3o48Uk.s:23829  .debug_str:00000000000101ff .LASF392
C:\Users\CYMR90~1\AppData\Local\Temp\cc3o48Uk.s:27910  .debug_str:0000000000020869 .LASF393
C:\Users\CYMR90~1\AppData\Local\Temp\cc3o48Uk.s:29644  .debug_str:00000000000274e3 .LASF394
C:\Users\CYMR90~1\AppData\Local\Temp\cc3o48Uk.s:20393  .debug_str:0000000000002486 .LASF395
C:\Users\CYMR90~1\AppData\Local\Temp\cc3o48Uk.s:22521  .debug_str:000000000000adeb .LASF396
C:\Users\CYMR90~1\AppData\Local\Temp\cc3o48Uk.s:26278  .debug_str:000000000001a08f .LASF397
C:\Users\CYMR90~1\AppData\Local\Temp\cc3o48Uk.s:30424  .debug_str:000000000002a623 .LASF398
C:\Users\CYMR90~1\AppData\Local\Temp\cc3o48Uk.s:25105  .debug_str:000000000001539c .LASF399
C:\Users\CYMR90~1\AppData\Local\Temp\cc3o48Uk.s:27552  .debug_str:000000000001f2c7 .LASF400
C:\Users\CYMR90~1\AppData\Local\Temp\cc3o48Uk.s:22001  .debug_str:0000000000008be8 .LASF401
C:\Users\CYMR90~1\AppData\Local\Temp\cc3o48Uk.s:25604  .debug_str:000000000001754c .LASF402
C:\Users\CYMR90~1\AppData\Local\Temp\cc3o48Uk.s:21343  .debug_str:0000000000006112 .LASF403
C:\Users\CYMR90~1\AppData\Local\Temp\cc3o48Uk.s:22455  .debug_str:000000000000a99a .LASF404
C:\Users\CYMR90~1\AppData\Local\Temp\cc3o48Uk.s:23503  .debug_str:000000000000edb4 .LASF405
C:\Users\CYMR90~1\AppData\Local\Temp\cc3o48Uk.s:26840  .debug_str:000000000001c50b .LASF406
C:\Users\CYMR90~1\AppData\Local\Temp\cc3o48Uk.s:25023  .debug_str:0000000000014ee2 .LASF407
C:\Users\CYMR90~1\AppData\Local\Temp\cc3o48Uk.s:26016  .debug_str:0000000000018fac .LASF408
C:\Users\CYMR90~1\AppData\Local\Temp\cc3o48Uk.s:28210  .debug_str:0000000000021b2c .LASF409
C:\Users\CYMR90~1\AppData\Local\Temp\cc3o48Uk.s:21297  .debug_str:0000000000005e50 .LASF410
C:\Users\CYMR90~1\AppData\Local\Temp\cc3o48Uk.s:25215  .debug_str:0000000000015a17 .LASF411
C:\Users\CYMR90~1\AppData\Local\Temp\cc3o48Uk.s:28330  .debug_str:0000000000022240 .LASF412
C:\Users\CYMR90~1\AppData\Local\Temp\cc3o48Uk.s:21481  .debug_str:00000000000069b9 .LASF413
C:\Users\CYMR90~1\AppData\Local\Temp\cc3o48Uk.s:30050  .debug_str:0000000000028fce .LASF414
C:\Users\CYMR90~1\AppData\Local\Temp\cc3o48Uk.s:23599  .debug_str:000000000000f37c .LASF415
C:\Users\CYMR90~1\AppData\Local\Temp\cc3o48Uk.s:29384  .debug_str:00000000000264e2 .LASF416
C:\Users\CYMR90~1\AppData\Local\Temp\cc3o48Uk.s:21537  .debug_str:0000000000006d71 .LASF417
C:\Users\CYMR90~1\AppData\Local\Temp\cc3o48Uk.s:21931  .debug_str:0000000000008799 .LASF418
C:\Users\CYMR90~1\AppData\Local\Temp\cc3o48Uk.s:30272  .debug_str:0000000000029cf4 .LASF419
C:\Users\CYMR90~1\AppData\Local\Temp\cc3o48Uk.s:21549  .debug_str:0000000000006e19 .LASF420
C:\Users\CYMR90~1\AppData\Local\Temp\cc3o48Uk.s:30472  .debug_str:000000000002a8ac .LASF421
C:\Users\CYMR90~1\AppData\Local\Temp\cc3o48Uk.s:22783  .debug_str:000000000000c064 .LASF422
C:\Users\CYMR90~1\AppData\Local\Temp\cc3o48Uk.s:22979  .debug_str:000000000000cd06 .LASF423
C:\Users\CYMR90~1\AppData\Local\Temp\cc3o48Uk.s:27450  .debug_str:000000000001ec97 .LASF424
C:\Users\CYMR90~1\AppData\Local\Temp\cc3o48Uk.s:26054  .debug_str:00000000000192d7 .LASF425
C:\Users\CYMR90~1\AppData\Local\Temp\cc3o48Uk.s:19849  .debug_str:000000000000030d .LASF426
C:\Users\CYMR90~1\AppData\Local\Temp\cc3o48Uk.s:29964  .debug_str:0000000000028a86 .LASF427
C:\Users\CYMR90~1\AppData\Local\Temp\cc3o48Uk.s:25299  .debug_str:0000000000015ffe .LASF428
C:\Users\CYMR90~1\AppData\Local\Temp\cc3o48Uk.s:27228  .debug_str:000000000001df4d .LASF429
C:\Users\CYMR90~1\AppData\Local\Temp\cc3o48Uk.s:23773  .debug_str:000000000000feb2 .LASF430
C:\Users\CYMR90~1\AppData\Local\Temp\cc3o48Uk.s:25502  .debug_str:0000000000016ed3 .LASF431
C:\Users\CYMR90~1\AppData\Local\Temp\cc3o48Uk.s:28282  .debug_str:0000000000021f64 .LASF432
C:\Users\CYMR90~1\AppData\Local\Temp\cc3o48Uk.s:22963  .debug_str:000000000000cc26 .LASF434
C:\Users\CYMR90~1\AppData\Local\Temp\cc3o48Uk.s:21015  .debug_str:0000000000004d5a .LASF435
C:\Users\CYMR90~1\AppData\Local\Temp\cc3o48Uk.s:25694  .debug_str:0000000000017b31 .LASF436
C:\Users\CYMR90~1\AppData\Local\Temp\cc3o48Uk.s:21569  .debug_str:0000000000006f5d .LASF437
C:\Users\CYMR90~1\AppData\Local\Temp\cc3o48Uk.s:29978  .debug_str:0000000000028b31 .LASF438
C:\Users\CYMR90~1\AppData\Local\Temp\cc3o48Uk.s:19813  .debug_str:00000000000000c7 .LASF439
C:\Users\CYMR90~1\AppData\Local\Temp\cc3o48Uk.s:27488  .debug_str:000000000001eed4 .LASF440
C:\Users\CYMR90~1\AppData\Local\Temp\cc3o48Uk.s:23209  .debug_str:000000000000db96 .LASF441
C:\Users\CYMR90~1\AppData\Local\Temp\cc3o48Uk.s:28518  .debug_str:0000000000022d80 .LASF442
C:\Users\CYMR90~1\AppData\Local\Temp\cc3o48Uk.s:27422  .debug_str:000000000001eb04 .LASF443
C:\Users\CYMR90~1\AppData\Local\Temp\cc3o48Uk.s:23907  .debug_str:000000000001073c .LASF444
C:\Users\CYMR90~1\AppData\Local\Temp\cc3o48Uk.s:30908  .debug_str:000000000002c5b3 .LASF445
C:\Users\CYMR90~1\AppData\Local\Temp\cc3o48Uk.s:30842  .debug_str:000000000002c15c .LASF446
C:\Users\CYMR90~1\AppData\Local\Temp\cc3o48Uk.s:30456  .debug_str:000000000002a7c1 .LASF447
C:\Users\CYMR90~1\AppData\Local\Temp\cc3o48Uk.s:28492  .debug_str:0000000000022c04 .LASF448
C:\Users\CYMR90~1\AppData\Local\Temp\cc3o48Uk.s:20841  .debug_str:00000000000041da .LASF449
C:\Users\CYMR90~1\AppData\Local\Temp\cc3o48Uk.s:21589  .debug_str:00000000000070c6 .LASF450
C:\Users\CYMR90~1\AppData\Local\Temp\cc3o48Uk.s:20319  .debug_str:000000000000208d .LASF451
C:\Users\CYMR90~1\AppData\Local\Temp\cc3o48Uk.s:24933  .debug_str:00000000000148f6 .LASF452
C:\Users\CYMR90~1\AppData\Local\Temp\cc3o48Uk.s:20307  .debug_str:0000000000001fd8 .LASF453
C:\Users\CYMR90~1\AppData\Local\Temp\cc3o48Uk.s:30848  .debug_str:000000000002c1a2 .LASF454
C:\Users\CYMR90~1\AppData\Local\Temp\cc3o48Uk.s:23371  .debug_str:000000000000e532 .LASF455
C:\Users\CYMR90~1\AppData\Local\Temp\cc3o48Uk.s:28110  .debug_str:0000000000021522 .LASF456
C:\Users\CYMR90~1\AppData\Local\Temp\cc3o48Uk.s:23053  .debug_str:000000000000d1d8 .LASF457
C:\Users\CYMR90~1\AppData\Local\Temp\cc3o48Uk.s:21355  .debug_str:00000000000061d5 .LASF458
C:\Users\CYMR90~1\AppData\Local\Temp\cc3o48Uk.s:23969  .debug_str:0000000000010b9b .LASF459
C:\Users\CYMR90~1\AppData\Local\Temp\cc3o48Uk.s:27864  .debug_str:00000000000205a4 .LASF460
C:\Users\CYMR90~1\AppData\Local\Temp\cc3o48Uk.s:29010  .debug_str:0000000000024bdd .LASF461
C:\Users\CYMR90~1\AppData\Local\Temp\cc3o48Uk.s:25465  .debug_str:0000000000016ad7 .LASF462
C:\Users\CYMR90~1\AppData\Local\Temp\cc3o48Uk.s:26326  .debug_str:000000000001a4e1 .LASF463
C:\Users\CYMR90~1\AppData\Local\Temp\cc3o48Uk.s:23225  .debug_str:000000000000dc6f .LASF464
C:\Users\CYMR90~1\AppData\Local\Temp\cc3o48Uk.s:24331  .debug_str:00000000000122a2 .LASF465
C:\Users\CYMR90~1\AppData\Local\Temp\cc3o48Uk.s:21499  .debug_str:0000000000006ad9 .LASF466
C:\Users\CYMR90~1\AppData\Local\Temp\cc3o48Uk.s:22057  .debug_str:0000000000008fdc .LASF467
C:\Users\CYMR90~1\AppData\Local\Temp\cc3o48Uk.s:24109  .debug_str:00000000000113b3 .LASF468
C:\Users\CYMR90~1\AppData\Local\Temp\cc3o48Uk.s:20643  .debug_str:00000000000034cd .LASF469
C:\Users\CYMR90~1\AppData\Local\Temp\cc3o48Uk.s:23867  .debug_str:0000000000010442 .LASF470
C:\Users\CYMR90~1\AppData\Local\Temp\cc3o48Uk.s:23751  .debug_str:000000000000fd4b .LASF471
C:\Users\CYMR90~1\AppData\Local\Temp\cc3o48Uk.s:23347  .debug_str:000000000000e3c8 .LASF472
C:\Users\CYMR90~1\AppData\Local\Temp\cc3o48Uk.s:20031  .debug_str:0000000000000e4a .LASF473
C:\Users\CYMR90~1\AppData\Local\Temp\cc3o48Uk.s:25427  .debug_str:0000000000016801 .LASF474
C:\Users\CYMR90~1\AppData\Local\Temp\cc3o48Uk.s:19977  .debug_str:0000000000000ac0 .LASF475
C:\Users\CYMR90~1\AppData\Local\Temp\cc3o48Uk.s:20807  .debug_str:0000000000003f24 .LASF476
C:\Users\CYMR90~1\AppData\Local\Temp\cc3o48Uk.s:20195  .debug_str:000000000000192a .LASF477
C:\Users\CYMR90~1\AppData\Local\Temp\cc3o48Uk.s:25243  .debug_str:0000000000015c23 .LASF478
C:\Users\CYMR90~1\AppData\Local\Temp\cc3o48Uk.s:22663  .debug_str:000000000000b810 .LASF479
C:\Users\CYMR90~1\AppData\Local\Temp\cc3o48Uk.s:30468  .debug_str:000000000002a87c .LASF480
C:\Users\CYMR90~1\AppData\Local\Temp\cc3o48Uk.s:28326  .debug_str:000000000002220b .LASF481
C:\Users\CYMR90~1\AppData\Local\Temp\cc3o48Uk.s:22589  .debug_str:000000000000b300 .LASF482
C:\Users\CYMR90~1\AppData\Local\Temp\cc3o48Uk.s:21397  .debug_str:0000000000006465 .LASF483
C:\Users\CYMR90~1\AppData\Local\Temp\cc3o48Uk.s:19941  .debug_str:000000000000086a .LASF484
C:\Users\CYMR90~1\AppData\Local\Temp\cc3o48Uk.s:25788  .debug_str:00000000000180e5 .LASF485
C:\Users\CYMR90~1\AppData\Local\Temp\cc3o48Uk.s:21025  .debug_str:0000000000004dff .LASF486
C:\Users\CYMR90~1\AppData\Local\Temp\cc3o48Uk.s:24689  .debug_str:00000000000139a8 .LASF487
C:\Users\CYMR90~1\AppData\Local\Temp\cc3o48Uk.s:23895  .debug_str:00000000000106a5 .LASF488
C:\Users\CYMR90~1\AppData\Local\Temp\cc3o48Uk.s:24447  .debug_str:0000000000012a28 .LASF489
C:\Users\CYMR90~1\AppData\Local\Temp\cc3o48Uk.s:22939  .debug_str:000000000000cabc .LASF490
C:\Users\CYMR90~1\AppData\Local\Temp\cc3o48Uk.s:21929  .debug_str:000000000000878b .LASF491
C:\Users\CYMR90~1\AppData\Local\Temp\cc3o48Uk.s:23557  .debug_str:000000000000f0f1 .LASF492
C:\Users\CYMR90~1\AppData\Local\Temp\cc3o48Uk.s:23857  .debug_str:00000000000103bc .LASF493
C:\Users\CYMR90~1\AppData\Local\Temp\cc3o48Uk.s:23755  .debug_str:000000000000fd9b .LASF494
C:\Users\CYMR90~1\AppData\Local\Temp\cc3o48Uk.s:26044  .debug_str:0000000000019254 .LASF495
C:\Users\CYMR90~1\AppData\Local\Temp\cc3o48Uk.s:30930  .debug_str:000000000002c6e7 .LASF496
C:\Users\CYMR90~1\AppData\Local\Temp\cc3o48Uk.s:30868  .debug_str:000000000002c322 .LASF497
C:\Users\CYMR90~1\AppData\Local\Temp\cc3o48Uk.s:23603  .debug_str:000000000000f3c3 .LASF498
C:\Users\CYMR90~1\AppData\Local\Temp\cc3o48Uk.s:30074  .debug_str:0000000000029129 .LASF499
C:\Users\CYMR90~1\AppData\Local\Temp\cc3o48Uk.s:30180  .debug_str:000000000002976d .LASF500
C:\Users\CYMR90~1\AppData\Local\Temp\cc3o48Uk.s:24897  .debug_str:00000000000146a1 .LASF501
C:\Users\CYMR90~1\AppData\Local\Temp\cc3o48Uk.s:30130  .debug_str:000000000002949f .LASF502
C:\Users\CYMR90~1\AppData\Local\Temp\cc3o48Uk.s:24845  .debug_str:0000000000014302 .LASF503
C:\Users\CYMR90~1\AppData\Local\Temp\cc3o48Uk.s:20513  .debug_str:0000000000002c7a .LASF504
C:\Users\CYMR90~1\AppData\Local\Temp\cc3o48Uk.s:22035  .debug_str:0000000000008ea5 .LASF505
C:\Users\CYMR90~1\AppData\Local\Temp\cc3o48Uk.s:29640  .debug_str:00000000000274a8 .LASF506
C:\Users\CYMR90~1\AppData\Local\Temp\cc3o48Uk.s:23881  .debug_str:0000000000010510 .LASF507
C:\Users\CYMR90~1\AppData\Local\Temp\cc3o48Uk.s:25962  .debug_str:0000000000018bdb .LASF508
C:\Users\CYMR90~1\AppData\Local\Temp\cc3o48Uk.s:28200  .debug_str:0000000000021a50 .LASF509
C:\Users\CYMR90~1\AppData\Local\Temp\cc3o48Uk.s:29868  .debug_str:0000000000028451 .LASF510
C:\Users\CYMR90~1\AppData\Local\Temp\cc3o48Uk.s:25736  .debug_str:0000000000017da8 .LASF511
C:\Users\CYMR90~1\AppData\Local\Temp\cc3o48Uk.s:29494  .debug_str:0000000000026b3f .LASF512
C:\Users\CYMR90~1\AppData\Local\Temp\cc3o48Uk.s:29610  .debug_str:000000000002730b .LASF513
C:\Users\CYMR90~1\AppData\Local\Temp\cc3o48Uk.s:30054  .debug_str:0000000000028ffa .LASF514
C:\Users\CYMR90~1\AppData\Local\Temp\cc3o48Uk.s:24613  .debug_str:0000000000013506 .LASF515
C:\Users\CYMR90~1\AppData\Local\Temp\cc3o48Uk.s:29930  .debug_str:0000000000028893 .LASF516
C:\Users\CYMR90~1\AppData\Local\Temp\cc3o48Uk.s:26112  .debug_str:000000000001962b .LASF517
C:\Users\CYMR90~1\AppData\Local\Temp\cc3o48Uk.s:29876  .debug_str:0000000000028505 .LASF518
C:\Users\CYMR90~1\AppData\Local\Temp\cc3o48Uk.s:26762  .debug_str:000000000001c071 .LASF519
C:\Users\CYMR90~1\AppData\Local\Temp\cc3o48Uk.s:30836  .debug_str:000000000002c0fa .LASF520
C:\Users\CYMR90~1\AppData\Local\Temp\cc3o48Uk.s:27024  .debug_str:000000000001d23b .LASF521
C:\Users\CYMR90~1\AppData\Local\Temp\cc3o48Uk.s:29132  .debug_str:000000000002546a .LASF522
C:\Users\CYMR90~1\AppData\Local\Temp\cc3o48Uk.s:24493  .debug_str:0000000000012d00 .LASF523
C:\Users\CYMR90~1\AppData\Local\Temp\cc3o48Uk.s:28684  .debug_str:0000000000023725 .LASF524
C:\Users\CYMR90~1\AppData\Local\Temp\cc3o48Uk.s:22143  .debug_str:00000000000094b2 .LASF525
C:\Users\CYMR90~1\AppData\Local\Temp\cc3o48Uk.s:30858  .debug_str:000000000002c21b .LASF526
C:\Users\CYMR90~1\AppData\Local\Temp\cc3o48Uk.s:23379  .debug_str:000000000000e5b0 .LASF527
C:\Users\CYMR90~1\AppData\Local\Temp\cc3o48Uk.s:24357  .debug_str:000000000001243e .LASF528
C:\Users\CYMR90~1\AppData\Local\Temp\cc3o48Uk.s:25221  .debug_str:0000000000015a7b .LASF529
C:\Users\CYMR90~1\AppData\Local\Temp\cc3o48Uk.s:25253  .debug_str:0000000000015cb4 .LASF530
C:\Users\CYMR90~1\AppData\Local\Temp\cc3o48Uk.s:24279  .debug_str:0000000000011f67 .LASF531
C:\Users\CYMR90~1\AppData\Local\Temp\cc3o48Uk.s:20573  .debug_str:0000000000003008 .LASF532
C:\Users\CYMR90~1\AppData\Local\Temp\cc3o48Uk.s:23059  .debug_str:000000000000d212 .LASF533
C:\Users\CYMR90~1\AppData\Local\Temp\cc3o48Uk.s:30694  .debug_str:000000000002b71f .LASF534
C:\Users\CYMR90~1\AppData\Local\Temp\cc3o48Uk.s:23555  .debug_str:000000000000f0a5 .LASF535
C:\Users\CYMR90~1\AppData\Local\Temp\cc3o48Uk.s:28870  .debug_str:0000000000024293 .LASF536
C:\Users\CYMR90~1\AppData\Local\Temp\cc3o48Uk.s:30338  .debug_str:000000000002a095 .LASF537
C:\Users\CYMR90~1\AppData\Local\Temp\cc3o48Uk.s:24123  .debug_str:000000000001145c .LASF538
C:\Users\CYMR90~1\AppData\Local\Temp\cc3o48Uk.s:24693  .debug_str:00000000000139d7 .LASF539
C:\Users\CYMR90~1\AppData\Local\Temp\cc3o48Uk.s:26820  .debug_str:000000000001c408 .LASF540
C:\Users\CYMR90~1\AppData\Local\Temp\cc3o48Uk.s:28400  .debug_str:0000000000022650 .LASF541
C:\Users\CYMR90~1\AppData\Local\Temp\cc3o48Uk.s:27116  .debug_str:000000000001d7c7 .LASF542
C:\Users\CYMR90~1\AppData\Local\Temp\cc3o48Uk.s:20911  .debug_str:0000000000004673 .LASF543
C:\Users\CYMR90~1\AppData\Local\Temp\cc3o48Uk.s:23313  .debug_str:000000000000e1be .LASF544
C:\Users\CYMR90~1\AppData\Local\Temp\cc3o48Uk.s:30116  .debug_str:00000000000293b6 .LASF545
C:\Users\CYMR90~1\AppData\Local\Temp\cc3o48Uk.s:24625  .debug_str:00000000000135ac .LASF546
C:\Users\CYMR90~1\AppData\Local\Temp\cc3o48Uk.s:28382  .debug_str:000000000002251f .LASF547
C:\Users\CYMR90~1\AppData\Local\Temp\cc3o48Uk.s:30608  .debug_str:000000000002b164 .LASF548
C:\Users\CYMR90~1\AppData\Local\Temp\cc3o48Uk.s:20617  .debug_str:000000000000330b .LASF549
C:\Users\CYMR90~1\AppData\Local\Temp\cc3o48Uk.s:21759  .debug_str:0000000000007bae .LASF550
C:\Users\CYMR90~1\AppData\Local\Temp\cc3o48Uk.s:29392  .debug_str:0000000000026545 .LASF551
C:\Users\CYMR90~1\AppData\Local\Temp\cc3o48Uk.s:21323  .debug_str:0000000000005fd6 .LASF552
C:\Users\CYMR90~1\AppData\Local\Temp\cc3o48Uk.s:30356  .debug_str:000000000002a19a .LASF553
C:\Users\CYMR90~1\AppData\Local\Temp\cc3o48Uk.s:22737  .debug_str:000000000000bcf6 .LASF554
C:\Users\CYMR90~1\AppData\Local\Temp\cc3o48Uk.s:22917  .debug_str:000000000000c913 .LASF555
C:\Users\CYMR90~1\AppData\Local\Temp\cc3o48Uk.s:21445  .debug_str:0000000000006761 .LASF556
C:\Users\CYMR90~1\AppData\Local\Temp\cc3o48Uk.s:21155  .debug_str:000000000000558a .LASF557
C:\Users\CYMR90~1\AppData\Local\Temp\cc3o48Uk.s:24229  .debug_str:0000000000011bef .LASF558
C:\Users\CYMR90~1\AppData\Local\Temp\cc3o48Uk.s:25988  .debug_str:0000000000018e06 .LASF559
C:\Users\CYMR90~1\AppData\Local\Temp\cc3o48Uk.s:29920  .debug_str:00000000000287eb .LASF560
C:\Users\CYMR90~1\AppData\Local\Temp\cc3o48Uk.s:22733  .debug_str:000000000000bc92 .LASF561
C:\Users\CYMR90~1\AppData\Local\Temp\cc3o48Uk.s:23705  .debug_str:000000000000fa3d .LASF562
C:\Users\CYMR90~1\AppData\Local\Temp\cc3o48Uk.s:23105  .debug_str:000000000000d57b .LASF563
C:\Users\CYMR90~1\AppData\Local\Temp\cc3o48Uk.s:22435  .debug_str:000000000000a786 .LASF564
C:\Users\CYMR90~1\AppData\Local\Temp\cc3o48Uk.s:28138  .debug_str:00000000000216bd .LASF565
C:\Users\CYMR90~1\AppData\Local\Temp\cc3o48Uk.s:27364  .debug_str:000000000001e76a .LASF566
C:\Users\CYMR90~1\AppData\Local\Temp\cc3o48Uk.s:24661  .debug_str:00000000000137c6 .LASF567
C:\Users\CYMR90~1\AppData\Local\Temp\cc3o48Uk.s:29224  .debug_str:0000000000025b0a .LASF568
C:\Users\CYMR90~1\AppData\Local\Temp\cc3o48Uk.s:20001  .debug_str:0000000000000c6b .LASF570
C:\Users\CYMR90~1\AppData\Local\Temp\cc3o48Uk.s:24597  .debug_str:0000000000013429 .LASF571
C:\Users\CYMR90~1\AppData\Local\Temp\cc3o48Uk.s:26756  .debug_str:000000000001c03d .LASF574
C:\Users\CYMR90~1\AppData\Local\Temp\cc3o48Uk.s:20881  .debug_str:0000000000004477 .LASF575
C:\Users\CYMR90~1\AppData\Local\Temp\cc3o48Uk.s:24851  .debug_str:000000000001439a .LASF576
C:\Users\CYMR90~1\AppData\Local\Temp\cc3o48Uk.s:21859  .debug_str:0000000000008364 .LASF577
C:\Users\CYMR90~1\AppData\Local\Temp\cc3o48Uk.s:28036  .debug_str:0000000000021021 .LASF579
C:\Users\CYMR90~1\AppData\Local\Temp\cc3o48Uk.s:27240  .debug_str:000000000001e006 .LASF580
C:\Users\CYMR90~1\AppData\Local\Temp\cc3o48Uk.s:28770  .debug_str:0000000000023bfe .LASF581
C:\Users\CYMR90~1\AppData\Local\Temp\cc3o48Uk.s:21281  .debug_str:0000000000005d5a .LASF582
C:\Users\CYMR90~1\AppData\Local\Temp\cc3o48Uk.s:23849  .debug_str:0000000000010339 .LASF583
C:\Users\CYMR90~1\AppData\Local\Temp\cc3o48Uk.s:20471  .debug_str:00000000000029cd .LASF584
C:\Users\CYMR90~1\AppData\Local\Temp\cc3o48Uk.s:30214  .debug_str:000000000002998e .LASF585
C:\Users\CYMR90~1\AppData\Local\Temp\cc3o48Uk.s:28430  .debug_str:000000000002280d .LASF586
C:\Users\CYMR90~1\AppData\Local\Temp\cc3o48Uk.s:26642  .debug_str:000000000001b91f .LASF587
C:\Users\CYMR90~1\AppData\Local\Temp\cc3o48Uk.s:22433  .debug_str:000000000000a776 .LASF588
C:\Users\CYMR90~1\AppData\Local\Temp\cc3o48Uk.s:25896  .debug_str:000000000001878c .LASF589
C:\Users\CYMR90~1\AppData\Local\Temp\cc3o48Uk.s:26274  .debug_str:000000000001a038 .LASF590
C:\Users\CYMR90~1\AppData\Local\Temp\cc3o48Uk.s:27108  .debug_str:000000000001d767 .LASF591
C:\Users\CYMR90~1\AppData\Local\Temp\cc3o48Uk.s:29520  .debug_str:0000000000026d23 .LASF592
C:\Users\CYMR90~1\AppData\Local\Temp\cc3o48Uk.s:28758  .debug_str:0000000000023b5b .LASF593
C:\Users\CYMR90~1\AppData\Local\Temp\cc3o48Uk.s:23809  .debug_str:00000000000100e0 .LASF594
C:\Users\CYMR90~1\AppData\Local\Temp\cc3o48Uk.s:24687  .debug_str:0000000000013988 .LASF595
C:\Users\CYMR90~1\AppData\Local\Temp\cc3o48Uk.s:24409  .debug_str:000000000001279a .LASF596
C:\Users\CYMR90~1\AppData\Local\Temp\cc3o48Uk.s:21617  .debug_str:00000000000072b8 .LASF597
C:\Users\CYMR90~1\AppData\Local\Temp\cc3o48Uk.s:29736  .debug_str:0000000000027afc .LASF598
C:\Users\CYMR90~1\AppData\Local\Temp\cc3o48Uk.s:24569  .debug_str:000000000001324b .LASF599
C:\Users\CYMR90~1\AppData\Local\Temp\cc3o48Uk.s:27572  .debug_str:000000000001f3fb .LASF600
C:\Users\CYMR90~1\AppData\Local\Temp\cc3o48Uk.s:26828  .debug_str:000000000001c474 .LASF601
C:\Users\CYMR90~1\AppData\Local\Temp\cc3o48Uk.s:29232  .debug_str:0000000000025b7f .LASF602
C:\Users\CYMR90~1\AppData\Local\Temp\cc3o48Uk.s:29934  .debug_str:00000000000288df .LASF603
C:\Users\CYMR90~1\AppData\Local\Temp\cc3o48Uk.s:29826  .debug_str:0000000000028189 .LASF604
C:\Users\CYMR90~1\AppData\Local\Temp\cc3o48Uk.s:24519  .debug_str:0000000000012ede .LASF605
C:\Users\CYMR90~1\AppData\Local\Temp\cc3o48Uk.s:28568  .debug_str:000000000002301c .LASF606
C:\Users\CYMR90~1\AppData\Local\Temp\cc3o48Uk.s:22213  .debug_str:00000000000099a3 .LASF607
C:\Users\CYMR90~1\AppData\Local\Temp\cc3o48Uk.s:21717  .debug_str:00000000000078f6 .LASF608
C:\Users\CYMR90~1\AppData\Local\Temp\cc3o48Uk.s:22499  .debug_str:000000000000ac95 .LASF609
C:\Users\CYMR90~1\AppData\Local\Temp\cc3o48Uk.s:26680  .debug_str:000000000001bb28 .LASF610
C:\Users\CYMR90~1\AppData\Local\Temp\cc3o48Uk.s:21247  .debug_str:0000000000005b66 .LASF611
C:\Users\CYMR90~1\AppData\Local\Temp\cc3o48Uk.s:28354  .debug_str:000000000002238d .LASF612
C:\Users\CYMR90~1\AppData\Local\Temp\cc3o48Uk.s:25087  .debug_str:000000000001527b .LASF613
C:\Users\CYMR90~1\AppData\Local\Temp\cc3o48Uk.s:21779  .debug_str:0000000000007da8 .LASF614
C:\Users\CYMR90~1\AppData\Local\Temp\cc3o48Uk.s:19901  .debug_str:00000000000005d7 .LASF615
C:\Users\CYMR90~1\AppData\Local\Temp\cc3o48Uk.s:25327  .debug_str:000000000001618b .LASF616
C:\Users\CYMR90~1\AppData\Local\Temp\cc3o48Uk.s:26308  .debug_str:000000000001a241 .LASF617
C:\Users\CYMR90~1\AppData\Local\Temp\cc3o48Uk.s:25467  .debug_str:0000000000016ae6 .LASF618
C:\Users\CYMR90~1\AppData\Local\Temp\cc3o48Uk.s:28440  .debug_str:000000000002288a .LASF619
C:\Users\CYMR90~1\AppData\Local\Temp\cc3o48Uk.s:25017  .debug_str:0000000000014e7b .LASF620
C:\Users\CYMR90~1\AppData\Local\Temp\cc3o48Uk.s:21529  .debug_str:0000000000006cd8 .LASF621
C:\Users\CYMR90~1\AppData\Local\Temp\cc3o48Uk.s:28630  .debug_str:0000000000023390 .LASF622
C:\Users\CYMR90~1\AppData\Local\Temp\cc3o48Uk.s:27750  .debug_str:000000000001fe8d .LASF623
C:\Users\CYMR90~1\AppData\Local\Temp\cc3o48Uk.s:29696  .debug_str:0000000000027802 .LASF624
C:\Users\CYMR90~1\AppData\Local\Temp\cc3o48Uk.s:30312  .debug_str:0000000000029f45 .LASF625
C:\Users\CYMR90~1\AppData\Local\Temp\cc3o48Uk.s:24757  .debug_str:0000000000013d89 .LASF626
C:\Users\CYMR90~1\AppData\Local\Temp\cc3o48Uk.s:30574  .debug_str:000000000002aecd .LASF627
C:\Users\CYMR90~1\AppData\Local\Temp\cc3o48Uk.s:25179  .debug_str:00000000000157be .LASF628
C:\Users\CYMR90~1\AppData\Local\Temp\cc3o48Uk.s:28380  .debug_str:00000000000224e7 .LASF629
C:\Users\CYMR90~1\AppData\Local\Temp\cc3o48Uk.s:21937  .debug_str:0000000000008810 .LASF630
C:\Users\CYMR90~1\AppData\Local\Temp\cc3o48Uk.s:23143  .debug_str:000000000000d7bc .LASF631
C:\Users\CYMR90~1\AppData\Local\Temp\cc3o48Uk.s:28344  .debug_str:00000000000222ed .LASF632
C:\Users\CYMR90~1\AppData\Local\Temp\cc3o48Uk.s:22863  .debug_str:000000000000c558 .LASF633
C:\Users\CYMR90~1\AppData\Local\Temp\cc3o48Uk.s:19993  .debug_str:0000000000000bf3 .LASF634
C:\Users\CYMR90~1\AppData\Local\Temp\cc3o48Uk.s:26216  .debug_str:0000000000019d0a .LASF635
C:\Users\CYMR90~1\AppData\Local\Temp\cc3o48Uk.s:25385  .debug_str:0000000000016536 .LASF636
C:\Users\CYMR90~1\AppData\Local\Temp\cc3o48Uk.s:26992  .debug_str:000000000001d04a .LASF637
C:\Users\CYMR90~1\AppData\Local\Temp\cc3o48Uk.s:20679  .debug_str:00000000000036fb .LASF638
C:\Users\CYMR90~1\AppData\Local\Temp\cc3o48Uk.s:24181  .debug_str:000000000001192b .LASF639
C:\Users\CYMR90~1\AppData\Local\Temp\cc3o48Uk.s:21791  .debug_str:0000000000007e50 .LASF640
C:\Users\CYMR90~1\AppData\Local\Temp\cc3o48Uk.s:24393  .debug_str:000000000001269b .LASF641
C:\Users\CYMR90~1\AppData\Local\Temp\cc3o48Uk.s:22653  .debug_str:000000000000b73f .LASF642
C:\Users\CYMR90~1\AppData\Local\Temp\cc3o48Uk.s:29678  .debug_str:00000000000276b8 .LASF643
C:\Users\CYMR90~1\AppData\Local\Temp\cc3o48Uk.s:23017  .debug_str:000000000000cf61 .LASF644
C:\Users\CYMR90~1\AppData\Local\Temp\cc3o48Uk.s:20853  .debug_str:0000000000004272 .LASF645
C:\Users\CYMR90~1\AppData\Local\Temp\cc3o48Uk.s:21675  .debug_str:000000000000760d .LASF646
C:\Users\CYMR90~1\AppData\Local\Temp\cc3o48Uk.s:20609  .debug_str:0000000000003279 .LASF647
C:\Users\CYMR90~1\AppData\Local\Temp\cc3o48Uk.s:20969  .debug_str:0000000000004a7a .LASF648
C:\Users\CYMR90~1\AppData\Local\Temp\cc3o48Uk.s:30212  .debug_str:000000000002994f .LASF649
C:\Users\CYMR90~1\AppData\Local\Temp\cc3o48Uk.s:24105  .debug_str:0000000000011340 .LASF650
C:\Users\CYMR90~1\AppData\Local\Temp\cc3o48Uk.s:30328  .debug_str:000000000002a02c .LASF651
C:\Users\CYMR90~1\AppData\Local\Temp\cc3o48Uk.s:23713  .debug_str:000000000000fada .LASF652
C:\Users\CYMR90~1\AppData\Local\Temp\cc3o48Uk.s:19879  .debug_str:00000000000004b1 .LASF653
C:\Users\CYMR90~1\AppData\Local\Temp\cc3o48Uk.s:30556  .debug_str:000000000002adcf .LASF654
C:\Users\CYMR90~1\AppData\Local\Temp\cc3o48Uk.s:22027  .debug_str:0000000000008e24 .LASF655
C:\Users\CYMR90~1\AppData\Local\Temp\cc3o48Uk.s:29750  .debug_str:0000000000027bd1 .LASF656
C:\Users\CYMR90~1\AppData\Local\Temp\cc3o48Uk.s:19935  .debug_str:0000000000000828 .LASF657
C:\Users\CYMR90~1\AppData\Local\Temp\cc3o48Uk.s:30378  .debug_str:000000000002a312 .LASF658
C:\Users\CYMR90~1\AppData\Local\Temp\cc3o48Uk.s:24487  .debug_str:0000000000012cb2 .LASF659
C:\Users\CYMR90~1\AppData\Local\Temp\cc3o48Uk.s:26928  .debug_str:000000000001cb04 .LASF660
C:\Users\CYMR90~1\AppData\Local\Temp\cc3o48Uk.s:23415  .debug_str:000000000000e827 .LASF661
C:\Users\CYMR90~1\AppData\Local\Temp\cc3o48Uk.s:27600  .debug_str:000000000001f5a9 .LASF662
C:\Users\CYMR90~1\AppData\Local\Temp\cc3o48Uk.s:29534  .debug_str:0000000000026df1 .LASF663
C:\Users\CYMR90~1\AppData\Local\Temp\cc3o48Uk.s:24081  .debug_str:00000000000111dc .LASF664
C:\Users\CYMR90~1\AppData\Local\Temp\cc3o48Uk.s:24073  .debug_str:000000000001117e .LASF665
C:\Users\CYMR90~1\AppData\Local\Temp\cc3o48Uk.s:26000  .debug_str:0000000000018eed .LASF666
C:\Users\CYMR90~1\AppData\Local\Temp\cc3o48Uk.s:21259  .debug_str:0000000000005c27 .LASF667
C:\Users\CYMR90~1\AppData\Local\Temp\cc3o48Uk.s:31058  .debug_str:000000000002cf5c .LASF668
C:\Users\CYMR90~1\AppData\Local\Temp\cc3o48Uk.s:21641  .debug_str:0000000000007412 .LASF669
C:\Users\CYMR90~1\AppData\Local\Temp\cc3o48Uk.s:28232  .debug_str:0000000000021c77 .LASF670
C:\Users\CYMR90~1\AppData\Local\Temp\cc3o48Uk.s:24467  .debug_str:0000000000012b8f .LASF671
C:\Users\CYMR90~1\AppData\Local\Temp\cc3o48Uk.s:27650  .debug_str:000000000001f870 .LASF672
C:\Users\CYMR90~1\AppData\Local\Temp\cc3o48Uk.s:28358  .debug_str:00000000000223be .LASF673
C:\Users\CYMR90~1\AppData\Local\Temp\cc3o48Uk.s:20261  .debug_str:0000000000001d2b .LASF674
C:\Users\CYMR90~1\AppData\Local\Temp\cc3o48Uk.s:25163  .debug_str:00000000000156cc .LASF676
C:\Users\CYMR90~1\AppData\Local\Temp\cc3o48Uk.s:28788  .debug_str:0000000000023ceb .LASF677
C:\Users\CYMR90~1\AppData\Local\Temp\cc3o48Uk.s:26230  .debug_str:0000000000019de8 .LASF678
C:\Users\CYMR90~1\AppData\Local\Temp\cc3o48Uk.s:28892  .debug_str:0000000000024425 .LASF679
C:\Users\CYMR90~1\AppData\Local\Temp\cc3o48Uk.s:27360  .debug_str:000000000001e73e .LASF680
C:\Users\CYMR90~1\AppData\Local\Temp\cc3o48Uk.s:30230  .debug_str:0000000000029a7b .LASF681
C:\Users\CYMR90~1\AppData\Local\Temp\cc3o48Uk.s:20855  .debug_str:00000000000042b0 .LASF682
C:\Users\CYMR90~1\AppData\Local\Temp\cc3o48Uk.s:20777  .debug_str:0000000000003d37 .LASF683
C:\Users\CYMR90~1\AppData\Local\Temp\cc3o48Uk.s:22171  .debug_str:000000000000969d .LASF684
C:\Users\CYMR90~1\AppData\Local\Temp\cc3o48Uk.s:26684  .debug_str:000000000001bb55 .LASF685
C:\Users\CYMR90~1\AppData\Local\Temp\cc3o48Uk.s:28094  .debug_str:000000000002141a .LASF686
C:\Users\CYMR90~1\AppData\Local\Temp\cc3o48Uk.s:25445  .debug_str:0000000000016917 .LASF687
C:\Users\CYMR90~1\AppData\Local\Temp\cc3o48Uk.s:24005  .debug_str:0000000000010d67 .LASF688
C:\Users\CYMR90~1\AppData\Local\Temp\cc3o48Uk.s:20663  .debug_str:00000000000035e9 .LASF689
C:\Users\CYMR90~1\AppData\Local\Temp\cc3o48Uk.s:21535  .debug_str:0000000000006d57 .LASF690
C:\Users\CYMR90~1\AppData\Local\Temp\cc3o48Uk.s:24341  .debug_str:000000000001232b .LASF691
C:\Users\CYMR90~1\AppData\Local\Temp\cc3o48Uk.s:25203  .debug_str:000000000001594f .LASF692
C:\Users\CYMR90~1\AppData\Local\Temp\cc3o48Uk.s:21225  .debug_str:0000000000005a29 .LASF695
C:\Users\CYMR90~1\AppData\Local\Temp\cc3o48Uk.s:25618  .debug_str:0000000000017626 .LASF696
C:\Users\CYMR90~1\AppData\Local\Temp\cc3o48Uk.s:23043  .debug_str:000000000000d110 .LASF697
C:\Users\CYMR90~1\AppData\Local\Temp\cc3o48Uk.s:26652  .debug_str:000000000001b999 .LASF698
C:\Users\CYMR90~1\AppData\Local\Temp\cc3o48Uk.s:28828  .debug_str:0000000000023f0a .LASF699
C:\Users\CYMR90~1\AppData\Local\Temp\cc3o48Uk.s:24929  .debug_str:0000000000014873 .LASF702
C:\Users\CYMR90~1\AppData\Local\Temp\cc3o48Uk.s:22193  .debug_str:00000000000097f4 .LASF703
C:\Users\CYMR90~1\AppData\Local\Temp\cc3o48Uk.s:27540  .debug_str:000000000001f222 .LASF704
C:\Users\CYMR90~1\AppData\Local\Temp\cc3o48Uk.s:21049  .debug_str:0000000000004f58 .LASF705
C:\Users\CYMR90~1\AppData\Local\Temp\cc3o48Uk.s:25267  .debug_str:0000000000015dc3 .LASF706
C:\Users\CYMR90~1\AppData\Local\Temp\cc3o48Uk.s:23601  .debug_str:000000000000f39d .LASF707
C:\Users\CYMR90~1\AppData\Local\Temp\cc3o48Uk.s:29950  .debug_str:00000000000289d7 .LASF708
C:\Users\CYMR90~1\AppData\Local\Temp\cc3o48Uk.s:29200  .debug_str:000000000002597d .LASF709
C:\Users\CYMR90~1\AppData\Local\Temp\cc3o48Uk.s:23255  .debug_str:000000000000de8f .LASF710
C:\Users\CYMR90~1\AppData\Local\Temp\cc3o48Uk.s:23753  .debug_str:000000000000fd68 .LASF711
C:\Users\CYMR90~1\AppData\Local\Temp\cc3o48Uk.s:25417  .debug_str:0000000000016706 .LASF712
C:\Users\CYMR90~1\AppData\Local\Temp\cc3o48Uk.s:22429  .debug_str:000000000000a71c .LASF713
C:\Users\CYMR90~1\AppData\Local\Temp\cc3o48Uk.s:30776  .debug_str:000000000002bcb4 .LASF714
C:\Users\CYMR90~1\AppData\Local\Temp\cc3o48Uk.s:21775  .debug_str:0000000000007d43 .LASF715
C:\Users\CYMR90~1\AppData\Local\Temp\cc3o48Uk.s:22695  .debug_str:000000000000ba15 .LASF716
C:\Users\CYMR90~1\AppData\Local\Temp\cc3o48Uk.s:27766  .debug_str:000000000001ffb2 .LASF717
C:\Users\CYMR90~1\AppData\Local\Temp\cc3o48Uk.s:29160  .debug_str:00000000000256a5 .LASF718
C:\Users\CYMR90~1\AppData\Local\Temp\cc3o48Uk.s:28936  .debug_str:00000000000246c6 .LASF719
C:\Users\CYMR90~1\AppData\Local\Temp\cc3o48Uk.s:25934  .debug_str:0000000000018a30 .LASF720
C:\Users\CYMR90~1\AppData\Local\Temp\cc3o48Uk.s:20313  .debug_str:0000000000002038 .LASF721
C:\Users\CYMR90~1\AppData\Local\Temp\cc3o48Uk.s:27868  .debug_str:00000000000205d8 .LASF722
C:\Users\CYMR90~1\AppData\Local\Temp\cc3o48Uk.s:26842  .debug_str:000000000001c51b .LASF723
C:\Users\CYMR90~1\AppData\Local\Temp\cc3o48Uk.s:27414  .debug_str:000000000001eaab .LASF724
C:\Users\CYMR90~1\AppData\Local\Temp\cc3o48Uk.s:28336  .debug_str:000000000002227a .LASF725
C:\Users\CYMR90~1\AppData\Local\Temp\cc3o48Uk.s:24585  .debug_str:000000000001335e .LASF726
C:\Users\CYMR90~1\AppData\Local\Temp\cc3o48Uk.s:22423  .debug_str:000000000000a6c2 .LASF727
C:\Users\CYMR90~1\AppData\Local\Temp\cc3o48Uk.s:29296  .debug_str:0000000000025f91 .LASF728
C:\Users\CYMR90~1\AppData\Local\Temp\cc3o48Uk.s:20229  .debug_str:0000000000001b2d .LASF729
C:\Users\CYMR90~1\AppData\Local\Temp\cc3o48Uk.s:26120  .debug_str:000000000001968e .LASF730
C:\Users\CYMR90~1\AppData\Local\Temp\cc3o48Uk.s:24557  .debug_str:00000000000131ac .LASF731
C:\Users\CYMR90~1\AppData\Local\Temp\cc3o48Uk.s:29234  .debug_str:0000000000025bba .LASF732
C:\Users\CYMR90~1\AppData\Local\Temp\cc3o48Uk.s:30988  .debug_str:000000000002cadd .LASF733
C:\Users\CYMR90~1\AppData\Local\Temp\cc3o48Uk.s:24059  .debug_str:0000000000011097 .LASF734
C:\Users\CYMR90~1\AppData\Local\Temp\cc3o48Uk.s:23167  .debug_str:000000000000d906 .LASF735
C:\Users\CYMR90~1\AppData\Local\Temp\cc3o48Uk.s:30918  .debug_str:000000000002c62d .LASF736
C:\Users\CYMR90~1\AppData\Local\Temp\cc3o48Uk.s:22987  .debug_str:000000000000cd65 .LASF737
C:\Users\CYMR90~1\AppData\Local\Temp\cc3o48Uk.s:26990  .debug_str:000000000001d039 .LASF738
C:\Users\CYMR90~1\AppData\Local\Temp\cc3o48Uk.s:30660  .debug_str:000000000002b4e4 .LASF739
C:\Users\CYMR90~1\AppData\Local\Temp\cc3o48Uk.s:20231  .debug_str:0000000000001b40 .LASF740
C:\Users\CYMR90~1\AppData\Local\Temp\cc3o48Uk.s:22923  .debug_str:000000000000c983 .LASF741
C:\Users\CYMR90~1\AppData\Local\Temp\cc3o48Uk.s:20205  .debug_str:00000000000019cb .LASF742
C:\Users\CYMR90~1\AppData\Local\Temp\cc3o48Uk.s:24015  .debug_str:0000000000010de0 .LASF743
C:\Users\CYMR90~1\AppData\Local\Temp\cc3o48Uk.s:29626  .debug_str:00000000000273e7 .LASF744
C:\Users\CYMR90~1\AppData\Local\Temp\cc3o48Uk.s:22037  .debug_str:0000000000008ee2 .LASF745
C:\Users\CYMR90~1\AppData\Local\Temp\cc3o48Uk.s:28348  .debug_str:000000000002233c .LASF746
C:\Users\CYMR90~1\AppData\Local\Temp\cc3o48Uk.s:20107  .debug_str:000000000000131a .LASF747
C:\Users\CYMR90~1\AppData\Local\Temp\cc3o48Uk.s:20097  .debug_str:0000000000001298 .LASF748
C:\Users\CYMR90~1\AppData\Local\Temp\cc3o48Uk.s:21205  .debug_str:00000000000058b0 .LASF750
C:\Users\CYMR90~1\AppData\Local\Temp\cc3o48Uk.s:23933  .debug_str:000000000001088a .LASF751
C:\Users\CYMR90~1\AppData\Local\Temp\cc3o48Uk.s:30112  .debug_str:0000000000029374 .LASF752
C:\Users\CYMR90~1\AppData\Local\Temp\cc3o48Uk.s:23875  .debug_str:00000000000104d1 .LASF753
C:\Users\CYMR90~1\AppData\Local\Temp\cc3o48Uk.s:21091  .debug_str:00000000000051e9 .LASF754
C:\Users\CYMR90~1\AppData\Local\Temp\cc3o48Uk.s:22675  .debug_str:000000000000b8cb .LASF755
C:\Users\CYMR90~1\AppData\Local\Temp\cc3o48Uk.s:26192  .debug_str:0000000000019bb0 .LASF756
C:\Users\CYMR90~1\AppData\Local\Temp\cc3o48Uk.s:22181  .debug_str:000000000000974c .LASF757
C:\Users\CYMR90~1\AppData\Local\Temp\cc3o48Uk.s:29186  .debug_str:00000000000258c1 .LASF758
C:\Users\CYMR90~1\AppData\Local\Temp\cc3o48Uk.s:31022  .debug_str:000000000002cd47 .LASF759
C:\Users\CYMR90~1\AppData\Local\Temp\cc3o48Uk.s:26568  .debug_str:000000000001b4a7 .LASF760
C:\Users\CYMR90~1\AppData\Local\Temp\cc3o48Uk.s:30758  .debug_str:000000000002bb72 .LASF761
C:\Users\CYMR90~1\AppData\Local\Temp\cc3o48Uk.s:22607  .debug_str:000000000000b3e1 .LASF762
C:\Users\CYMR90~1\AppData\Local\Temp\cc3o48Uk.s:26576  .debug_str:000000000001b53b .LASF765
C:\Users\CYMR90~1\AppData\Local\Temp\cc3o48Uk.s:25237  .debug_str:0000000000015b84 .LASF766
C:\Users\CYMR90~1\AppData\Local\Temp\cc3o48Uk.s:28242  .debug_str:0000000000021ced .LASF767
C:\Users\CYMR90~1\AppData\Local\Temp\cc3o48Uk.s:25227  .debug_str:0000000000015b14 .LASF768
C:\Users\CYMR90~1\AppData\Local\Temp\cc3o48Uk.s:20461  .debug_str:0000000000002928 .LASF769
C:\Users\CYMR90~1\AppData\Local\Temp\cc3o48Uk.s:26698  .debug_str:000000000001bc79 .LASF770
C:\Users\CYMR90~1\AppData\Local\Temp\cc3o48Uk.s:25323  .debug_str:0000000000016165 .LASF771
C:\Users\CYMR90~1\AppData\Local\Temp\cc3o48Uk.s:28900  .debug_str:0000000000024493 .LASF772
C:\Users\CYMR90~1\AppData\Local\Temp\cc3o48Uk.s:28526  .debug_str:0000000000022dd9 .LASF773
C:\Users\CYMR90~1\AppData\Local\Temp\cc3o48Uk.s:27010  .debug_str:000000000001d174 .LASF774
C:\Users\CYMR90~1\AppData\Local\Temp\cc3o48Uk.s:29236  .debug_str:0000000000025bd0 .LASF775
C:\Users\CYMR90~1\AppData\Local\Temp\cc3o48Uk.s:23333  .debug_str:000000000000e31b .LASF776
C:\Users\CYMR90~1\AppData\Local\Temp\cc3o48Uk.s:22339  .debug_str:000000000000a198 .LASF777
C:\Users\CYMR90~1\AppData\Local\Temp\cc3o48Uk.s:27350  .debug_str:000000000001e69d .LASF778
C:\Users\CYMR90~1\AppData\Local\Temp\cc3o48Uk.s:23811  .debug_str:0000000000010108 .LASF779
C:\Users\CYMR90~1\AppData\Local\Temp\cc3o48Uk.s:27608  .debug_str:000000000001f61e .LASF780
C:\Users\CYMR90~1\AppData\Local\Temp\cc3o48Uk.s:28238  .debug_str:0000000000021cd4 .LASF781
C:\Users\CYMR90~1\AppData\Local\Temp\cc3o48Uk.s:24289  .debug_str:000000000001200e .LASF782
C:\Users\CYMR90~1\AppData\Local\Temp\cc3o48Uk.s:25453  .debug_str:0000000000016a3a .LASF783
C:\Users\CYMR90~1\AppData\Local\Temp\cc3o48Uk.s:24197  .debug_str:0000000000011a29 .LASF784
C:\Users\CYMR90~1\AppData\Local\Temp\cc3o48Uk.s:23511  .debug_str:000000000000ee25 .LASF785
C:\Users\CYMR90~1\AppData\Local\Temp\cc3o48Uk.s:28596  .debug_str:00000000000231a6 .LASF786
C:\Users\CYMR90~1\AppData\Local\Temp\cc3o48Uk.s:24943  .debug_str:0000000000014998 .LASF787
C:\Users\CYMR90~1\AppData\Local\Temp\cc3o48Uk.s:27284  .debug_str:000000000001e299 .LASF788
C:\Users\CYMR90~1\AppData\Local\Temp\cc3o48Uk.s:23675  .debug_str:000000000000f878 .LASF789
C:\Users\CYMR90~1\AppData\Local\Temp\cc3o48Uk.s:21141  .debug_str:00000000000054d9 .LASF790
C:\Users\CYMR90~1\AppData\Local\Temp\cc3o48Uk.s:29582  .debug_str:0000000000027179 .LASF791
C:\Users\CYMR90~1\AppData\Local\Temp\cc3o48Uk.s:21903  .debug_str:00000000000085ed .LASF792
C:\Users\CYMR90~1\AppData\Local\Temp\cc3o48Uk.s:30994  .debug_str:000000000002cb2d .LASF793
C:\Users\CYMR90~1\AppData\Local\Temp\cc3o48Uk.s:21687  .debug_str:00000000000076f9 .LASF794
C:\Users\CYMR90~1\AppData\Local\Temp\cc3o48Uk.s:29832  .debug_str:00000000000281e8 .LASF795
C:\Users\CYMR90~1\AppData\Local\Temp\cc3o48Uk.s:27842  .debug_str:00000000000203e4 .LASF796
C:\Users\CYMR90~1\AppData\Local\Temp\cc3o48Uk.s:30548  .debug_str:000000000002ad7e .LASF797
C:\Users\CYMR90~1\AppData\Local\Temp\cc3o48Uk.s:21519  .debug_str:0000000000006c3e .LASF798
C:\Users\CYMR90~1\AppData\Local\Temp\cc3o48Uk.s:29892  .debug_str:000000000002862d .LASF799
C:\Users\CYMR90~1\AppData\Local\Temp\cc3o48Uk.s:21107  .debug_str:00000000000052e0 .LASF800
C:\Users\CYMR90~1\AppData\Local\Temp\cc3o48Uk.s:26328  .debug_str:000000000001a4ee .LASF801
C:\Users\CYMR90~1\AppData\Local\Temp\cc3o48Uk.s:26358  .debug_str:000000000001a6a9 .LASF802
C:\Users\CYMR90~1\AppData\Local\Temp\cc3o48Uk.s:22245  .debug_str:0000000000009ba6 .LASF803
C:\Users\CYMR90~1\AppData\Local\Temp\cc3o48Uk.s:24695  .debug_str:00000000000139f7 .LASF804
C:\Users\CYMR90~1\AppData\Local\Temp\cc3o48Uk.s:21533  .debug_str:0000000000006cfc .LASF805
C:\Users\CYMR90~1\AppData\Local\Temp\cc3o48Uk.s:24153  .debug_str:00000000000116c7 .LASF806
C:\Users\CYMR90~1\AppData\Local\Temp\cc3o48Uk.s:27306  .debug_str:000000000001e3af .LASF807
C:\Users\CYMR90~1\AppData\Local\Temp\cc3o48Uk.s:26892  .debug_str:000000000001c8dd .LASF808
C:\Users\CYMR90~1\AppData\Local\Temp\cc3o48Uk.s:29306  .debug_str:0000000000026028 .LASF809
C:\Users\CYMR90~1\AppData\Local\Temp\cc3o48Uk.s:30764  .debug_str:000000000002bbe0 .LASF810
C:\Users\CYMR90~1\AppData\Local\Temp\cc3o48Uk.s:21927  .debug_str:0000000000008752 .LASF811
C:\Users\CYMR90~1\AppData\Local\Temp\cc3o48Uk.s:20837  .debug_str:000000000000419a .LASF812
C:\Users\CYMR90~1\AppData\Local\Temp\cc3o48Uk.s:30798  .debug_str:000000000002be88 .LASF813
C:\Users\CYMR90~1\AppData\Local\Temp\cc3o48Uk.s:21201  .debug_str:0000000000005889 .LASF814
C:\Users\CYMR90~1\AppData\Local\Temp\cc3o48Uk.s:21427  .debug_str:0000000000006626 .LASF815
C:\Users\CYMR90~1\AppData\Local\Temp\cc3o48Uk.s:26668  .debug_str:000000000001ba82 .LASF816
C:\Users\CYMR90~1\AppData\Local\Temp\cc3o48Uk.s:22105  .debug_str:0000000000009296 .LASF817
C:\Users\CYMR90~1\AppData\Local\Temp\cc3o48Uk.s:26808  .debug_str:000000000001c364 .LASF818
C:\Users\CYMR90~1\AppData\Local\Temp\cc3o48Uk.s:26702  .debug_str:000000000001bc91 .LASF819
C:\Users\CYMR90~1\AppData\Local\Temp\cc3o48Uk.s:19979  .debug_str:0000000000000af9 .LASF820
C:\Users\CYMR90~1\AppData\Local\Temp\cc3o48Uk.s:30380  .debug_str:000000000002a322 .LASF821
C:\Users\CYMR90~1\AppData\Local\Temp\cc3o48Uk.s:28896  .debug_str:0000000000024463 .LASF822
C:\Users\CYMR90~1\AppData\Local\Temp\cc3o48Uk.s:22069  .debug_str:0000000000009073 .LASF823
C:\Users\CYMR90~1\AppData\Local\Temp\cc3o48Uk.s:25373  .debug_str:0000000000016493 .LASF824
C:\Users\CYMR90~1\AppData\Local\Temp\cc3o48Uk.s:26760  .debug_str:000000000001c063 .LASF825
C:\Users\CYMR90~1\AppData\Local\Temp\cc3o48Uk.s:25161  .debug_str:00000000000156ab .LASF826
C:\Users\CYMR90~1\AppData\Local\Temp\cc3o48Uk.s:20727  .debug_str:0000000000003a20 .LASF827
C:\Users\CYMR90~1\AppData\Local\Temp\cc3o48Uk.s:23491  .debug_str:000000000000ecf4 .LASF828
C:\Users\CYMR90~1\AppData\Local\Temp\cc3o48Uk.s:22253  .debug_str:0000000000009c09 .LASF829
C:\Users\CYMR90~1\AppData\Local\Temp\cc3o48Uk.s:29176  .debug_str:0000000000025801 .LASF830
C:\Users\CYMR90~1\AppData\Local\Temp\cc3o48Uk.s:22681  .debug_str:000000000000b926 .LASF831
C:\Users\CYMR90~1\AppData\Local\Temp\cc3o48Uk.s:23441  .debug_str:000000000000e9c8 .LASF832
C:\Users\CYMR90~1\AppData\Local\Temp\cc3o48Uk.s:21289  .debug_str:0000000000005dc6 .LASF833
C:\Users\CYMR90~1\AppData\Local\Temp\cc3o48Uk.s:24061  .debug_str:00000000000110a8 .LASF834
C:\Users\CYMR90~1\AppData\Local\Temp\cc3o48Uk.s:25852  .debug_str:0000000000018503 .LASF835
C:\Users\CYMR90~1\AppData\Local\Temp\cc3o48Uk.s:23963  .debug_str:0000000000010ab6 .LASF836
C:\Users\CYMR90~1\AppData\Local\Temp\cc3o48Uk.s:27758  .debug_str:000000000001ff2f .LASF837
C:\Users\CYMR90~1\AppData\Local\Temp\cc3o48Uk.s:21973  .debug_str:0000000000008a60 .LASF838
C:\Users\CYMR90~1\AppData\Local\Temp\cc3o48Uk.s:21129  .debug_str:000000000000543a .LASF839
C:\Users\CYMR90~1\AppData\Local\Temp\cc3o48Uk.s:23863  .debug_str:000000000001040b .LASF840
C:\Users\CYMR90~1\AppData\Local\Temp\cc3o48Uk.s:22811  .debug_str:000000000000c222 .LASF841
C:\Users\CYMR90~1\AppData\Local\Temp\cc3o48Uk.s:26910  .debug_str:000000000001c9ff .LASF842
C:\Users\CYMR90~1\AppData\Local\Temp\cc3o48Uk.s:20049  .debug_str:0000000000000ff0 .LASF843
C:\Users\CYMR90~1\AppData\Local\Temp\cc3o48Uk.s:20401  .debug_str:0000000000002530 .LASF844
C:\Users\CYMR90~1\AppData\Local\Temp\cc3o48Uk.s:28748  .debug_str:0000000000023adf .LASF845
C:\Users\CYMR90~1\AppData\Local\Temp\cc3o48Uk.s:19809  .debug_str:0000000000000096 .LASF846
C:\Users\CYMR90~1\AppData\Local\Temp\cc3o48Uk.s:21765  .debug_str:0000000000007cb6 .LASF847
C:\Users\CYMR90~1\AppData\Local\Temp\cc3o48Uk.s:27614  .debug_str:000000000001f66c .LASF848
C:\Users\CYMR90~1\AppData\Local\Temp\cc3o48Uk.s:30410  .debug_str:000000000002a53d .LASF849
C:\Users\CYMR90~1\AppData\Local\Temp\cc3o48Uk.s:23101  .debug_str:000000000000d54d .LASF852
C:\Users\CYMR90~1\AppData\Local\Temp\cc3o48Uk.s:29944  .debug_str:000000000002897f .LASF853
C:\Users\CYMR90~1\AppData\Local\Temp\cc3o48Uk.s:25005  .debug_str:0000000000014dd5 .LASF854
C:\Users\CYMR90~1\AppData\Local\Temp\cc3o48Uk.s:28248  .debug_str:0000000000021d8c .LASF856
C:\Users\CYMR90~1\AppData\Local\Temp\cc3o48Uk.s:27136  .debug_str:000000000001d92d .LASF857
C:\Users\CYMR90~1\AppData\Local\Temp\cc3o48Uk.s:29762  .debug_str:0000000000027c85 .LASF858
C:\Users\CYMR90~1\AppData\Local\Temp\cc3o48Uk.s:23087  .debug_str:000000000000d45f .LASF859
C:\Users\CYMR90~1\AppData\Local\Temp\cc3o48Uk.s:24949  .debug_str:00000000000149df .LASF860
C:\Users\CYMR90~1\AppData\Local\Temp\cc3o48Uk.s:28180  .debug_str:0000000000021938 .LASF861
C:\Users\CYMR90~1\AppData\Local\Temp\cc3o48Uk.s:27342  .debug_str:000000000001e64d .LASF862
C:\Users\CYMR90~1\AppData\Local\Temp\cc3o48Uk.s:20145  .debug_str:0000000000001572 .LASF863
C:\Users\CYMR90~1\AppData\Local\Temp\cc3o48Uk.s:20781  .debug_str:0000000000003d65 .LASF864
C:\Users\CYMR90~1\AppData\Local\Temp\cc3o48Uk.s:21175  .debug_str:0000000000005703 .LASF865
C:\Users\CYMR90~1\AppData\Local\Temp\cc3o48Uk.s:22373  .debug_str:000000000000a3ec .LASF866
C:\Users\CYMR90~1\AppData\Local\Temp\cc3o48Uk.s:21839  .debug_str:0000000000008207 .LASF867
C:\Users\CYMR90~1\AppData\Local\Temp\cc3o48Uk.s:27062  .debug_str:000000000001d47a .LASF868
C:\Users\CYMR90~1\AppData\Local\Temp\cc3o48Uk.s:27698  .debug_str:000000000001fb76 .LASF869
C:\Users\CYMR90~1\AppData\Local\Temp\cc3o48Uk.s:28764  .debug_str:0000000000023bb7 .LASF870
C:\Users\CYMR90~1\AppData\Local\Temp\cc3o48Uk.s:22007  .debug_str:0000000000008cd4 .LASF871
C:\Users\CYMR90~1\AppData\Local\Temp\cc3o48Uk.s:22451  .debug_str:000000000000a978 .LASF872
C:\Users\CYMR90~1\AppData\Local\Temp\cc3o48Uk.s:26900  .debug_str:000000000001c976 .LASF873
C:\Users\CYMR90~1\AppData\Local\Temp\cc3o48Uk.s:29468  .debug_str:00000000000269de .LASF874
C:\Users\CYMR90~1\AppData\Local\Temp\cc3o48Uk.s:24215  .debug_str:0000000000011b1a .LASF875
C:\Users\CYMR90~1\AppData\Local\Temp\cc3o48Uk.s:24909  .debug_str:0000000000014781 .LASF876
C:\Users\CYMR90~1\AppData\Local\Temp\cc3o48Uk.s:22251  .debug_str:0000000000009bfb .LASF877
C:\Users\CYMR90~1\AppData\Local\Temp\cc3o48Uk.s:26608  .debug_str:000000000001b72a .LASF878
C:\Users\CYMR90~1\AppData\Local\Temp\cc3o48Uk.s:24009  .debug_str:0000000000010da4 .LASF879
C:\Users\CYMR90~1\AppData\Local\Temp\cc3o48Uk.s:25562  .debug_str:0000000000017277 .LASF880
C:\Users\CYMR90~1\AppData\Local\Temp\cc3o48Uk.s:21109  .debug_str:00000000000052f9 .LASF881
C:\Users\CYMR90~1\AppData\Local\Temp\cc3o48Uk.s:24427  .debug_str:00000000000128e9 .LASF882
C:\Users\CYMR90~1\AppData\Local\Temp\cc3o48Uk.s:24719  .debug_str:0000000000013b40 .LASF883
C:\Users\CYMR90~1\AppData\Local\Temp\cc3o48Uk.s:20271  .debug_str:0000000000001dc6 .LASF884
C:\Users\CYMR90~1\AppData\Local\Temp\cc3o48Uk.s:23387  .debug_str:000000000000e674 .LASF885
C:\Users\CYMR90~1\AppData\Local\Temp\cc3o48Uk.s:26614  .debug_str:000000000001b776 .LASF886
C:\Users\CYMR90~1\AppData\Local\Temp\cc3o48Uk.s:22119  .debug_str:0000000000009352 .LASF887
C:\Users\CYMR90~1\AppData\Local\Temp\cc3o48Uk.s:28716  .debug_str:0000000000023922 .LASF888
C:\Users\CYMR90~1\AppData\Local\Temp\cc3o48Uk.s:24367  .debug_str:00000000000124ff .LASF889
C:\Users\CYMR90~1\AppData\Local\Temp\cc3o48Uk.s:28648  .debug_str:00000000000234b6 .LASF890
C:\Users\CYMR90~1\AppData\Local\Temp\cc3o48Uk.s:20927  .debug_str:000000000000481e .LASF891
C:\Users\CYMR90~1\AppData\Local\Temp\cc3o48Uk.s:23389  .debug_str:000000000000e68e .LASF892
C:\Users\CYMR90~1\AppData\Local\Temp\cc3o48Uk.s:29416  .debug_str:00000000000266de .LASF893
C:\Users\CYMR90~1\AppData\Local\Temp\cc3o48Uk.s:28808  .debug_str:0000000000023e03 .LASF894
C:\Users\CYMR90~1\AppData\Local\Temp\cc3o48Uk.s:20119  .debug_str:00000000000013cc .LASF895
C:\Users\CYMR90~1\AppData\Local\Temp\cc3o48Uk.s:24759  .debug_str:0000000000013dc1 .LASF896
C:\Users\CYMR90~1\AppData\Local\Temp\cc3o48Uk.s:21019  .debug_str:0000000000004d85 .LASF897
C:\Users\CYMR90~1\AppData\Local\Temp\cc3o48Uk.s:22241  .debug_str:0000000000009b67 .LASF898
C:\Users\CYMR90~1\AppData\Local\Temp\cc3o48Uk.s:29708  .debug_str:000000000002790a .LASF899
C:\Users\CYMR90~1\AppData\Local\Temp\cc3o48Uk.s:22565  .debug_str:000000000000b18c .LASF900
C:\Users\CYMR90~1\AppData\Local\Temp\cc3o48Uk.s:26658  .debug_str:000000000001b9cf .LASF901
C:\Users\CYMR90~1\AppData\Local\Temp\cc3o48Uk.s:30252  .debug_str:0000000000029bde .LASF902
C:\Users\CYMR90~1\AppData\Local\Temp\cc3o48Uk.s:29002  .debug_str:0000000000024b68 .LASF903
C:\Users\CYMR90~1\AppData\Local\Temp\cc3o48Uk.s:29854  .debug_str:0000000000028353 .LASF904
C:\Users\CYMR90~1\AppData\Local\Temp\cc3o48Uk.s:24413  .debug_str:0000000000012804 .LASF905
C:\Users\CYMR90~1\AppData\Local\Temp\cc3o48Uk.s:21891  .debug_str:0000000000008553 .LASF906
C:\Users\CYMR90~1\AppData\Local\Temp\cc3o48Uk.s:30422  .debug_str:000000000002a607 .LASF907
C:\Users\CYMR90~1\AppData\Local\Temp\cc3o48Uk.s:23383  .debug_str:000000000000e631 .LASF908
C:\Users\CYMR90~1\AppData\Local\Temp\cc3o48Uk.s:29682  .debug_str:0000000000027718 .LASF909
C:\Users\CYMR90~1\AppData\Local\Temp\cc3o48Uk.s:23983  .debug_str:0000000000010c48 .LASF910
C:\Users\CYMR90~1\AppData\Local\Temp\cc3o48Uk.s:20489  .debug_str:0000000000002b12 .LASF911
C:\Users\CYMR90~1\AppData\Local\Temp\cc3o48Uk.s:20091  .debug_str:000000000000125b .LASF912
C:\Users\CYMR90~1\AppData\Local\Temp\cc3o48Uk.s:28096  .debug_str:000000000002143e .LASF913
C:\Users\CYMR90~1\AppData\Local\Temp\cc3o48Uk.s:28984  .debug_str:0000000000024a38 .LASF914
C:\Users\CYMR90~1\AppData\Local\Temp\cc3o48Uk.s:22935  .debug_str:000000000000ca55 .LASF915
C:\Users\CYMR90~1\AppData\Local\Temp\cc3o48Uk.s:23247  .debug_str:000000000000ddf1 .LASF916
C:\Users\CYMR90~1\AppData\Local\Temp\cc3o48Uk.s:23797  .debug_str:0000000000010019 .LASF917
C:\Users\CYMR90~1\AppData\Local\Temp\cc3o48Uk.s:30500  .debug_str:000000000002aa52 .LASF918
C:\Users\CYMR90~1\AppData\Local\Temp\cc3o48Uk.s:20077  .debug_str:0000000000001167 .LASF919
C:\Users\CYMR90~1\AppData\Local\Temp\cc3o48Uk.s:22551  .debug_str:000000000000b0a0 .LASF920
C:\Users\CYMR90~1\AppData\Local\Temp\cc3o48Uk.s:28938  .debug_str:00000000000246db .LASF921
C:\Users\CYMR90~1\AppData\Local\Temp\cc3o48Uk.s:26352  .debug_str:000000000001a637 .LASF922
C:\Users\CYMR90~1\AppData\Local\Temp\cc3o48Uk.s:29448  .debug_str:00000000000268c0 .LASF923
C:\Users\CYMR90~1\AppData\Local\Temp\cc3o48Uk.s:25492  .debug_str:0000000000016e41 .LASF924
C:\Users\CYMR90~1\AppData\Local\Temp\cc3o48Uk.s:20453  .debug_str:0000000000002895 .LASF925
C:\Users\CYMR90~1\AppData\Local\Temp\cc3o48Uk.s:26570  .debug_str:000000000001b4e1 .LASF926
C:\Users\CYMR90~1\AppData\Local\Temp\cc3o48Uk.s:20185  .debug_str:000000000000187f .LASF927
C:\Users\CYMR90~1\AppData\Local\Temp\cc3o48Uk.s:24935  .debug_str:0000000000014912 .LASF928
C:\Users\CYMR90~1\AppData\Local\Temp\cc3o48Uk.s:27646  .debug_str:000000000001f837 .LASF929
C:\Users\CYMR90~1\AppData\Local\Temp\cc3o48Uk.s:30760  .debug_str:000000000002bbaa .LASF930
C:\Users\CYMR90~1\AppData\Local\Temp\cc3o48Uk.s:30986  .debug_str:000000000002cabf .LASF931
C:\Users\CYMR90~1\AppData\Local\Temp\cc3o48Uk.s:27542  .debug_str:000000000001f236 .LASF932
C:\Users\CYMR90~1\AppData\Local\Temp\cc3o48Uk.s:30232  .debug_str:0000000000029a8b .LASF933
C:\Users\CYMR90~1\AppData\Local\Temp\cc3o48Uk.s:25287  .debug_str:0000000000015f4b .LASF934
C:\Users\CYMR90~1\AppData\Local\Temp\cc3o48Uk.s:26128  .debug_str:0000000000019708 .LASF935
C:\Users\CYMR90~1\AppData\Local\Temp\cc3o48Uk.s:25165  .debug_str:00000000000156e0 .LASF936
C:\Users\CYMR90~1\AppData\Local\Temp\cc3o48Uk.s:29074  .debug_str:0000000000025053 .LASF937
C:\Users\CYMR90~1\AppData\Local\Temp\cc3o48Uk.s:19997  .debug_str:0000000000000c2c .LASF938
C:\Users\CYMR90~1\AppData\Local\Temp\cc3o48Uk.s:27906  .debug_str:000000000002083a .LASF939
C:\Users\CYMR90~1\AppData\Local\Temp\cc3o48Uk.s:29162  .debug_str:00000000000256b1 .LASF940
C:\Users\CYMR90~1\AppData\Local\Temp\cc3o48Uk.s:22683  .debug_str:000000000000b944 .LASF941
C:\Users\CYMR90~1\AppData\Local\Temp\cc3o48Uk.s:26340  .debug_str:000000000001a57e .LASF942
C:\Users\CYMR90~1\AppData\Local\Temp\cc3o48Uk.s:23427  .debug_str:000000000000e8bf .LASF943
C:\Users\CYMR90~1\AppData\Local\Temp\cc3o48Uk.s:29100  .debug_str:000000000002528f .LASF944
C:\Users\CYMR90~1\AppData\Local\Temp\cc3o48Uk.s:26750  .debug_str:000000000001bfe3 .LASF945
C:\Users\CYMR90~1\AppData\Local\Temp\cc3o48Uk.s:23621  .debug_str:000000000000f4cb .LASF946
C:\Users\CYMR90~1\AppData\Local\Temp\cc3o48Uk.s:25646  .debug_str:00000000000177fc .LASF947
C:\Users\CYMR90~1\AppData\Local\Temp\cc3o48Uk.s:29790  .debug_str:0000000000027ebc .LASF948
C:\Users\CYMR90~1\AppData\Local\Temp\cc3o48Uk.s:23959  .debug_str:0000000000010a78 .LASF949
C:\Users\CYMR90~1\AppData\Local\Temp\cc3o48Uk.s:22993  .debug_str:000000000000cdbb .LASF950
C:\Users\CYMR90~1\AppData\Local\Temp\cc3o48Uk.s:21593  .debug_str:0000000000007123 .LASF952
C:\Users\CYMR90~1\AppData\Local\Temp\cc3o48Uk.s:25089  .debug_str:0000000000015292 .LASF953
C:\Users\CYMR90~1\AppData\Local\Temp\cc3o48Uk.s:23027  .debug_str:000000000000d019 .LASF954
C:\Users\CYMR90~1\AppData\Local\Temp\cc3o48Uk.s:30978  .debug_str:000000000002ca4a .LASF955
C:\Users\CYMR90~1\AppData\Local\Temp\cc3o48Uk.s:30126  .debug_str:0000000000029422 .LASF956
C:\Users\CYMR90~1\AppData\Local\Temp\cc3o48Uk.s:30218  .debug_str:00000000000299c6 .LASF960
C:\Users\CYMR90~1\AppData\Local\Temp\cc3o48Uk.s:22147  .debug_str:0000000000009569 .LASF961
C:\Users\CYMR90~1\AppData\Local\Temp\cc3o48Uk.s:29478  .debug_str:0000000000026a74 .LASF962
C:\Users\CYMR90~1\AppData\Local\Temp\cc3o48Uk.s:24189  .debug_str:00000000000119ad .LASF963
C:\Users\CYMR90~1\AppData\Local\Temp\cc3o48Uk.s:21619  .debug_str:00000000000072dc .LASF964
C:\Users\CYMR90~1\AppData\Local\Temp\cc3o48Uk.s:28276  .debug_str:0000000000021f1a .LASF965
C:\Users\CYMR90~1\AppData\Local\Temp\cc3o48Uk.s:26564  .debug_str:000000000001b475 .LASF966
C:\Users\CYMR90~1\AppData\Local\Temp\cc3o48Uk.s:29422  .debug_str:000000000002673a .LASF967
C:\Users\CYMR90~1\AppData\Local\Temp\cc3o48Uk.s:30542  .debug_str:000000000002ad10 .LASF968
C:\Users\CYMR90~1\AppData\Local\Temp\cc3o48Uk.s:21347  .debug_str:0000000000006141 .LASF969
C:\Users\CYMR90~1\AppData\Local\Temp\cc3o48Uk.s:24801  .debug_str:00000000000140a2 .LASF970
C:\Users\CYMR90~1\AppData\Local\Temp\cc3o48Uk.s:30632  .debug_str:000000000002b2fe .LASF971
C:\Users\CYMR90~1\AppData\Local\Temp\cc3o48Uk.s:23437  .debug_str:000000000000e98b .LASF972
C:\Users\CYMR90~1\AppData\Local\Temp\cc3o48Uk.s:23405  .debug_str:000000000000e790 .LASF973
C:\Users\CYMR90~1\AppData\Local\Temp\cc3o48Uk.s:23049  .debug_str:000000000000d169 .LASF974
C:\Users\CYMR90~1\AppData\Local\Temp\cc3o48Uk.s:25423  .debug_str:0000000000016780 .LASF975
C:\Users\CYMR90~1\AppData\Local\Temp\cc3o48Uk.s:31008  .debug_str:000000000002cbbd .LASF976
C:\Users\CYMR90~1\AppData\Local\Temp\cc3o48Uk.s:22989  .debug_str:000000000000cd76 .LASF977
C:\Users\CYMR90~1\AppData\Local\Temp\cc3o48Uk.s:31034  .debug_str:000000000002ce0c .LASF978
C:\Users\CYMR90~1\AppData\Local\Temp\cc3o48Uk.s:29266  .debug_str:0000000000025d80 .LASF979
C:\Users\CYMR90~1\AppData\Local\Temp\cc3o48Uk.s:29322  .debug_str:000000000002613f .LASF980
C:\Users\CYMR90~1\AppData\Local\Temp\cc3o48Uk.s:23489  .debug_str:000000000000ecda .LASF981
C:\Users\CYMR90~1\AppData\Local\Temp\cc3o48Uk.s:21059  .debug_str:0000000000005002 .LASF982
C:\Users\CYMR90~1\AppData\Local\Temp\cc3o48Uk.s:24211  .debug_str:0000000000011afd .LASF983
C:\Users\CYMR90~1\AppData\Local\Temp\cc3o48Uk.s:26970  .debug_str:000000000001ce6a .LASF984
C:\Users\CYMR90~1\AppData\Local\Temp\cc3o48Uk.s:26984  .debug_str:000000000001cf51 .LASF985
C:\Users\CYMR90~1\AppData\Local\Temp\cc3o48Uk.s:28560  .debug_str:0000000000022fca .LASF986
C:\Users\CYMR90~1\AppData\Local\Temp\cc3o48Uk.s:25233  .debug_str:0000000000015b60 .LASF987
C:\Users\CYMR90~1\AppData\Local\Temp\cc3o48Uk.s:20833  .debug_str:000000000000416b .LASF988
C:\Users\CYMR90~1\AppData\Local\Temp\cc3o48Uk.s:28476  .debug_str:0000000000022b2a .LASF989
C:\Users\CYMR90~1\AppData\Local\Temp\cc3o48Uk.s:25948  .debug_str:0000000000018af1 .LASF990
C:\Users\CYMR90~1\AppData\Local\Temp\cc3o48Uk.s:22985  .debug_str:000000000000cd4e .LASF991
C:\Users\CYMR90~1\AppData\Local\Temp\cc3o48Uk.s:29424  .debug_str:0000000000026762 .LASF992
C:\Users\CYMR90~1\AppData\Local\Temp\cc3o48Uk.s:21637  .debug_str:00000000000073d9 .LASF993
C:\Users\CYMR90~1\AppData\Local\Temp\cc3o48Uk.s:29246  .debug_str:0000000000025c35 .LASF994
C:\Users\CYMR90~1\AppData\Local\Temp\cc3o48Uk.s:26032  .debug_str:0000000000019193 .LASF995
C:\Users\CYMR90~1\AppData\Local\Temp\cc3o48Uk.s:30030  .debug_str:0000000000028ea0 .LASF996
C:\Users\CYMR90~1\AppData\Local\Temp\cc3o48Uk.s:27176  .debug_str:000000000001db70 .LASF997
C:\Users\CYMR90~1\AppData\Local\Temp\cc3o48Uk.s:27250  .debug_str:000000000001e087 .LASF998
C:\Users\CYMR90~1\AppData\Local\Temp\cc3o48Uk.s:20413  .debug_str:00000000000025c4 .LASF999
C:\Users\CYMR90~1\AppData\Local\Temp\cc3o48Uk.s:20733  .debug_str:0000000000003a78 .LASF1000
C:\Users\CYMR90~1\AppData\Local\Temp\cc3o48Uk.s:24953  .debug_str:0000000000014a0f .LASF1001
C:\Users\CYMR90~1\AppData\Local\Temp\cc3o48Uk.s:23805  .debug_str:00000000000100a1 .LASF1002
C:\Users\CYMR90~1\AppData\Local\Temp\cc3o48Uk.s:21011  .debug_str:0000000000004d2c .LASF1003
C:\Users\CYMR90~1\AppData\Local\Temp\cc3o48Uk.s:26794  .debug_str:000000000001c295 .LASF1004
C:\Users\CYMR90~1\AppData\Local\Temp\cc3o48Uk.s:24167  .debug_str:00000000000117c8 .LASF1005
C:\Users\CYMR90~1\AppData\Local\Temp\cc3o48Uk.s:22949  .debug_str:000000000000cb5e .LASF1006
C:\Users\CYMR90~1\AppData\Local\Temp\cc3o48Uk.s:21321  .debug_str:0000000000005fb8 .LASF1007
C:\Users\CYMR90~1\AppData\Local\Temp\cc3o48Uk.s:28272  .debug_str:0000000000021ee2 .LASF1008
C:\Users\CYMR90~1\AppData\Local\Temp\cc3o48Uk.s:25724  .debug_str:0000000000017ce5 .LASF1009
C:\Users\CYMR90~1\AppData\Local\Temp\cc3o48Uk.s:25878  .debug_str:0000000000018692 .LASF1010
C:\Users\CYMR90~1\AppData\Local\Temp\cc3o48Uk.s:23261  .debug_str:000000000000dedd .LASF1011
C:\Users\CYMR90~1\AppData\Local\Temp\cc3o48Uk.s:27032  .debug_str:000000000001d2b9 .LASF1012
C:\Users\CYMR90~1\AppData\Local\Temp\cc3o48Uk.s:28480  .debug_str:0000000000022b55 .LASF1013
C:\Users\CYMR90~1\AppData\Local\Temp\cc3o48Uk.s:26146  .debug_str:000000000001983c .LASF1014
C:\Users\CYMR90~1\AppData\Local\Temp\cc3o48Uk.s:20731  .debug_str:0000000000003a62 .LASF1015
C:\Users\CYMR90~1\AppData\Local\Temp\cc3o48Uk.s:21209  .debug_str:00000000000058e6 .LASF1016
C:\Users\CYMR90~1\AppData\Local\Temp\cc3o48Uk.s:21165  .debug_str:0000000000005658 .LASF1017
C:\Users\CYMR90~1\AppData\Local\Temp\cc3o48Uk.s:29572  .debug_str:0000000000027039 .LASF1018
C:\Users\CYMR90~1\AppData\Local\Temp\cc3o48Uk.s:23499  .debug_str:000000000000ed80 .LASF1019
C:\Users\CYMR90~1\AppData\Local\Temp\cc3o48Uk.s:20407  .debug_str:000000000000257b .LASF1020
C:\Users\CYMR90~1\AppData\Local\Temp\cc3o48Uk.s:25758  .debug_str:0000000000017f3e .LASF1021
C:\Users\CYMR90~1\AppData\Local\Temp\cc3o48Uk.s:22809  .debug_str:000000000000c20a .LASF1022
C:\Users\CYMR90~1\AppData\Local\Temp\cc3o48Uk.s:29496  .debug_str:0000000000026b6a .LASF1023
C:\Users\CYMR90~1\AppData\Local\Temp\cc3o48Uk.s:22049  .debug_str:0000000000008f87 .LASF1024
C:\Users\CYMR90~1\AppData\Local\Temp\cc3o48Uk.s:24481  .debug_str:0000000000012c60 .LASF1025
C:\Users\CYMR90~1\AppData\Local\Temp\cc3o48Uk.s:23987  .debug_str:0000000000010c89 .LASF1026
C:\Users\CYMR90~1\AppData\Local\Temp\cc3o48Uk.s:24927  .debug_str:000000000001485e .LASF1027
C:\Users\CYMR90~1\AppData\Local\Temp\cc3o48Uk.s:27114  .debug_str:000000000001d7b2 .LASF1028
C:\Users\CYMR90~1\AppData\Local\Temp\cc3o48Uk.s:27502  .debug_str:000000000001efb4 .LASF1029
C:\Users\CYMR90~1\AppData\Local\Temp\cc3o48Uk.s:28782  .debug_str:0000000000023c9b .LASF1030
C:\Users\CYMR90~1\AppData\Local\Temp\cc3o48Uk.s:27862  .debug_str:0000000000020592 .LASF1031
C:\Users\CYMR90~1\AppData\Local\Temp\cc3o48Uk.s:30128  .debug_str:000000000002948a .LASF1032
C:\Users\CYMR90~1\AppData\Local\Temp\cc3o48Uk.s:22201  .debug_str:00000000000098cb .LASF1033
C:\Users\CYMR90~1\AppData\Local\Temp\cc3o48Uk.s:21069  .debug_str:0000000000005097 .LASF1034
C:\Users\CYMR90~1\AppData\Local\Temp\cc3o48Uk.s:26076  .debug_str:000000000001941a .LASF1035
C:\Users\CYMR90~1\AppData\Local\Temp\cc3o48Uk.s:26330  .debug_str:000000000001a508 .LASF1036
C:\Users\CYMR90~1\AppData\Local\Temp\cc3o48Uk.s:28574  .debug_str:0000000000023061 .LASF1037
C:\Users\CYMR90~1\AppData\Local\Temp\cc3o48Uk.s:23657  .debug_str:000000000000f79b .LASF1038
C:\Users\CYMR90~1\AppData\Local\Temp\cc3o48Uk.s:27224  .debug_str:000000000001defd .LASF1039
C:\Users\CYMR90~1\AppData\Local\Temp\cc3o48Uk.s:25103  .debug_str:000000000001538a .LASF1040
C:\Users\CYMR90~1\AppData\Local\Temp\cc3o48Uk.s:23571  .debug_str:000000000000f1cc .LASF1041
C:\Users\CYMR90~1\AppData\Local\Temp\cc3o48Uk.s:29316  .debug_str:00000000000260f1 .LASF1042
C:\Users\CYMR90~1\AppData\Local\Temp\cc3o48Uk.s:23807  .debug_str:00000000000100b8 .LASF1043
C:\Users\CYMR90~1\AppData\Local\Temp\cc3o48Uk.s:19827  .debug_str:000000000000019a .LASF1044
C:\Users\CYMR90~1\AppData\Local\Temp\cc3o48Uk.s:22061  .debug_str:000000000000900e .LASF1045
C:\Users\CYMR90~1\AppData\Local\Temp\cc3o48Uk.s:26558  .debug_str:000000000001b41e .LASF1046
C:\Users\CYMR90~1\AppData\Local\Temp\cc3o48Uk.s:25357  .debug_str:000000000001633a .LASF1047
C:\Users\CYMR90~1\AppData\Local\Temp\cc3o48Uk.s:28620  .debug_str:00000000000232f3 .LASF1048
C:\Users\CYMR90~1\AppData\Local\Temp\cc3o48Uk.s:27466  .debug_str:000000000001ed77 .LASF1049
C:\Users\CYMR90~1\AppData\Local\Temp\cc3o48Uk.s:20579  .debug_str:00000000000030ba .LASF1050
C:\Users\CYMR90~1\AppData\Local\Temp\cc3o48Uk.s:27478  .debug_str:000000000001ee2e .LASF1051
C:\Users\CYMR90~1\AppData\Local\Temp\cc3o48Uk.s:27680  .debug_str:000000000001fa73 .LASF1052
C:\Users\CYMR90~1\AppData\Local\Temp\cc3o48Uk.s:22563  .debug_str:000000000000b17a .LASF1053
C:\Users\CYMR90~1\AppData\Local\Temp\cc3o48Uk.s:28520  .debug_str:0000000000022d9a .LASF1054
C:\Users\CYMR90~1\AppData\Local\Temp\cc3o48Uk.s:24453  .debug_str:0000000000012a91 .LASF1055
C:\Users\CYMR90~1\AppData\Local\Temp\cc3o48Uk.s:23433  .debug_str:000000000000e939 .LASF1056
C:\Users\CYMR90~1\AppData\Local\Temp\cc3o48Uk.s:29742  .debug_str:0000000000027b5c .LASF1057
C:\Users\CYMR90~1\AppData\Local\Temp\cc3o48Uk.s:30342  .debug_str:000000000002a0ba .LASF1058
C:\Users\CYMR90~1\AppData\Local\Temp\cc3o48Uk.s:29072  .debug_str:0000000000025031 .LASF1059
C:\Users\CYMR90~1\AppData\Local\Temp\cc3o48Uk.s:20267  .debug_str:0000000000001d96 .LASF1060
C:\Users\CYMR90~1\AppData\Local\Temp\cc3o48Uk.s:21871  .debug_str:0000000000008410 .LASF1061
C:\Users\CYMR90~1\AppData\Local\Temp\cc3o48Uk.s:19959  .debug_str:000000000000097d .LASF1062
C:\Users\CYMR90~1\AppData\Local\Temp\cc3o48Uk.s:24839  .debug_str:00000000000142a4 .LASF1063
C:\Users\CYMR90~1\AppData\Local\Temp\cc3o48Uk.s:20779  .debug_str:0000000000003d4e .LASF1064
C:\Users\CYMR90~1\AppData\Local\Temp\cc3o48Uk.s:19899  .debug_str:00000000000005c0 .LASF1065
C:\Users\CYMR90~1\AppData\Local\Temp\cc3o48Uk.s:31040  .debug_str:000000000002ce55 .LASF1066
C:\Users\CYMR90~1\AppData\Local\Temp\cc3o48Uk.s:22063  .debug_str:0000000000009026 .LASF1067
C:\Users\CYMR90~1\AppData\Local\Temp\cc3o48Uk.s:25421  .debug_str:0000000000016766 .LASF1068
C:\Users\CYMR90~1\AppData\Local\Temp\cc3o48Uk.s:27002  .debug_str:000000000001d0e2 .LASF1069
C:\Users\CYMR90~1\AppData\Local\Temp\cc3o48Uk.s:20013  .debug_str:0000000000000d03 .LASF1070
C:\Users\CYMR90~1\AppData\Local\Temp\cc3o48Uk.s:22329  .debug_str:000000000000a0e8 .LASF1071
C:\Users\CYMR90~1\AppData\Local\Temp\cc3o48Uk.s:28426  .debug_str:00000000000227dc .LASF1072
C:\Users\CYMR90~1\AppData\Local\Temp\cc3o48Uk.s:26968  .debug_str:000000000001ce4e .LASF1073
C:\Users\CYMR90~1\AppData\Local\Temp\cc3o48Uk.s:29994  .debug_str:0000000000028c3b .LASF1074
C:\Users\CYMR90~1\AppData\Local\Temp\cc3o48Uk.s:25568  .debug_str:00000000000172c0 .LASF1075
C:\Users\CYMR90~1\AppData\Local\Temp\cc3o48Uk.s:20447  .debug_str:0000000000002845 .LASF1076
C:\Users\CYMR90~1\AppData\Local\Temp\cc3o48Uk.s:30428  .debug_str:000000000002a656 .LASF1077
C:\Users\CYMR90~1\AppData\Local\Temp\cc3o48Uk.s:21385  .debug_str:00000000000063bb .LASF1078
C:\Users\CYMR90~1\AppData\Local\Temp\cc3o48Uk.s:27904  .debug_str:0000000000020828 .LASF1079
C:\Users\CYMR90~1\AppData\Local\Temp\cc3o48Uk.s:23271  .debug_str:000000000000df6d .LASF1080
C:\Users\CYMR90~1\AppData\Local\Temp\cc3o48Uk.s:26772  .debug_str:000000000001c134 .LASF1081
C:\Users\CYMR90~1\AppData\Local\Temp\cc3o48Uk.s:22447  .debug_str:000000000000a94e .LASF1082
C:\Users\CYMR90~1\AppData\Local\Temp\cc3o48Uk.s:25039  .debug_str:0000000000014feb .LASF1083
C:\Users\CYMR90~1\AppData\Local\Temp\cc3o48Uk.s:28120  .debug_str:00000000000215c9 .LASF1084
C:\Users\CYMR90~1\AppData\Local\Temp\cc3o48Uk.s:21089  .debug_str:00000000000051d7 .LASF1085
C:\Users\CYMR90~1\AppData\Local\Temp\cc3o48Uk.s:20217  .debug_str:0000000000001a7d .LASF1086
C:\Users\CYMR90~1\AppData\Local\Temp\cc3o48Uk.s:23307  .debug_str:000000000000e178 .LASF1087
C:\Users\CYMR90~1\AppData\Local\Temp\cc3o48Uk.s:29320  .debug_str:0000000000026130 .LASF1088
C:\Users\CYMR90~1\AppData\Local\Temp\cc3o48Uk.s:28420  .debug_str:0000000000022784 .LASF1089
C:\Users\CYMR90~1\AppData\Local\Temp\cc3o48Uk.s:20069  .debug_str:00000000000010f1 .LASF1090
C:\Users\CYMR90~1\AppData\Local\Temp\cc3o48Uk.s:30974  .debug_str:000000000002c9f2 .LASF1091
C:\Users\CYMR90~1\AppData\Local\Temp\cc3o48Uk.s:29706  .debug_str:00000000000278f2 .LASF1092
C:\Users\CYMR90~1\AppData\Local\Temp\cc3o48Uk.s:23639  .debug_str:000000000000f5cf .LASF1093
C:\Users\CYMR90~1\AppData\Local\Temp\cc3o48Uk.s:29364  .debug_str:0000000000026395 .LASF1094
C:\Users\CYMR90~1\AppData\Local\Temp\cc3o48Uk.s:25119  .debug_str:0000000000015435 .LASF1095
C:\Users\CYMR90~1\AppData\Local\Temp\cc3o48Uk.s:26588  .debug_str:000000000001b5e3 .LASF1096
C:\Users\CYMR90~1\AppData\Local\Temp\cc3o48Uk.s:27118  .debug_str:000000000001d804 .LASF1097
C:\Users\CYMR90~1\AppData\Local\Temp\cc3o48Uk.s:21373  .debug_str:0000000000006308 .LASF1098
C:\Users\CYMR90~1\AppData\Local\Temp\cc3o48Uk.s:24473  .debug_str:0000000000012bd3 .LASF1099
C:\Users\CYMR90~1\AppData\Local\Temp\cc3o48Uk.s:23801  .debug_str:0000000000010070 .LASF1100
C:\Users\CYMR90~1\AppData\Local\Temp\cc3o48Uk.s:28698  .debug_str:000000000002380b .LASF1101
C:\Users\CYMR90~1\AppData\Local\Temp\cc3o48Uk.s:22999  .debug_str:000000000000ce15 .LASF1102
C:\Users\CYMR90~1\AppData\Local\Temp\cc3o48Uk.s:28362  .debug_str:00000000000223e2 .LASF1103
C:\Users\CYMR90~1\AppData\Local\Temp\cc3o48Uk.s:29938  .debug_str:000000000002892d .LASF1104
C:\Users\CYMR90~1\AppData\Local\Temp\cc3o48Uk.s:27802  .debug_str:00000000000201be .LASF1105
C:\Users\CYMR90~1\AppData\Local\Temp\cc3o48Uk.s:24663  .debug_str:00000000000137f5 .LASF1106
C:\Users\CYMR90~1\AppData\Local\Temp\cc3o48Uk.s:24701  .debug_str:0000000000013a5e .LASF1107
C:\Users\CYMR90~1\AppData\Local\Temp\cc3o48Uk.s:26500  .debug_str:000000000001b061 .LASF1108
C:\Users\CYMR90~1\AppData\Local\Temp\cc3o48Uk.s:21389  .debug_str:00000000000063f7 .LASF1109
C:\Users\CYMR90~1\AppData\Local\Temp\cc3o48Uk.s:22359  .debug_str:000000000000a2cf .LASF1110
C:\Users\CYMR90~1\AppData\Local\Temp\cc3o48Uk.s:20277  .debug_str:0000000000001e3c .LASF1111
C:\Users\CYMR90~1\AppData\Local\Temp\cc3o48Uk.s:21475  .debug_str:0000000000006962 .LASF1112
C:\Users\CYMR90~1\AppData\Local\Temp\cc3o48Uk.s:22587  .debug_str:000000000000b2df .LASF1113
C:\Users\CYMR90~1\AppData\Local\Temp\cc3o48Uk.s:21133  .debug_str:0000000000005462 .LASF1114
C:\Users\CYMR90~1\AppData\Local\Temp\cc3o48Uk.s:22151  .debug_str:000000000000958c .LASF1115
C:\Users\CYMR90~1\AppData\Local\Temp\cc3o48Uk.s:29782  .debug_str:0000000000027e17 .LASF1116
C:\Users\CYMR90~1\AppData\Local\Temp\cc3o48Uk.s:30292  .debug_str:0000000000029ded .LASF1117
C:\Users\CYMR90~1\AppData\Local\Temp\cc3o48Uk.s:21291  .debug_str:0000000000005df0 .LASF1118
C:\Users\CYMR90~1\AppData\Local\Temp\cc3o48Uk.s:25738  .debug_str:0000000000017dd4 .LASF1119
C:\Users\CYMR90~1\AppData\Local\Temp\cc3o48Uk.s:21837  .debug_str:00000000000081ea .LASF1120
C:\Users\CYMR90~1\AppData\Local\Temp\cc3o48Uk.s:22043  .debug_str:0000000000008f24 .LASF1121
C:\Users\CYMR90~1\AppData\Local\Temp\cc3o48Uk.s:24591  .debug_str:00000000000133b0 .LASF1122
C:\Users\CYMR90~1\AppData\Local\Temp\cc3o48Uk.s:24235  .debug_str:0000000000011c59 .LASF1123
C:\Users\CYMR90~1\AppData\Local\Temp\cc3o48Uk.s:27880  .debug_str:000000000002069a .LASF1124
C:\Users\CYMR90~1\AppData\Local\Temp\cc3o48Uk.s:25043  .debug_str:0000000000015014 .LASF1125
C:\Users\CYMR90~1\AppData\Local\Temp\cc3o48Uk.s:25137  .debug_str:0000000000015549 .LASF1126
C:\Users\CYMR90~1\AppData\Local\Temp\cc3o48Uk.s:28510  .debug_str:0000000000022cfc .LASF1127
C:\Users\CYMR90~1\AppData\Local\Temp\cc3o48Uk.s:29598  .debug_str:0000000000027281 .LASF1128
C:\Users\CYMR90~1\AppData\Local\Temp\cc3o48Uk.s:21177  .debug_str:0000000000005710 .LASF1129
C:\Users\CYMR90~1\AppData\Local\Temp\cc3o48Uk.s:25135  .debug_str:0000000000015534 .LASF1130
C:\Users\CYMR90~1\AppData\Local\Temp\cc3o48Uk.s:30124  .debug_str:000000000002940d .LASF1131
C:\Users\CYMR90~1\AppData\Local\Temp\cc3o48Uk.s:30532  .debug_str:000000000002ac82 .LASF1132
C:\Users\CYMR90~1\AppData\Local\Temp\cc3o48Uk.s:25846  .debug_str:000000000001847e .LASF1133
C:\Users\CYMR90~1\AppData\Local\Temp\cc3o48Uk.s:28670  .debug_str:000000000002361e .LASF1134
C:\Users\CYMR90~1\AppData\Local\Temp\cc3o48Uk.s:21725  .debug_str:00000000000079ad .LASF1135
C:\Users\CYMR90~1\AppData\Local\Temp\cc3o48Uk.s:20953  .debug_str:00000000000049a1 .LASF1136
C:\Users\CYMR90~1\AppData\Local\Temp\cc3o48Uk.s:20783  .debug_str:0000000000003d70 .LASF1137
C:\Users\CYMR90~1\AppData\Local\Temp\cc3o48Uk.s:30134  .debug_str:00000000000294e9 .LASF1138
C:\Users\CYMR90~1\AppData\Local\Temp\cc3o48Uk.s:27254  .debug_str:000000000001e0c0 .LASF1139
C:\Users\CYMR90~1\AppData\Local\Temp\cc3o48Uk.s:27154  .debug_str:000000000001da3a .LASF1140
C:\Users\CYMR90~1\AppData\Local\Temp\cc3o48Uk.s:19871  .debug_str:000000000000044d .LASF1141
C:\Users\CYMR90~1\AppData\Local\Temp\cc3o48Uk.s:24035  .debug_str:0000000000010f13 .LASF1142
C:\Users\CYMR90~1\AppData\Local\Temp\cc3o48Uk.s:23315  .debug_str:000000000000e206 .LASF1143
C:\Users\CYMR90~1\AppData\Local\Temp\cc3o48Uk.s:29652  .debug_str:0000000000027541 .LASF1144
C:\Users\CYMR90~1\AppData\Local\Temp\cc3o48Uk.s:27840  .debug_str:00000000000203ca .LASF1145
C:\Users\CYMR90~1\AppData\Local\Temp\cc3o48Uk.s:22845  .debug_str:000000000000c446 .LASF1146
C:\Users\CYMR90~1\AppData\Local\Temp\cc3o48Uk.s:30970  .debug_str:000000000002c9b0 .LASF1147
C:\Users\CYMR90~1\AppData\Local\Temp\cc3o48Uk.s:25598  .debug_str:00000000000174d4 .LASF1148
C:\Users\CYMR90~1\AppData\Local\Temp\cc3o48Uk.s:25856  .debug_str:0000000000018565 .LASF1149
C:\Users\CYMR90~1\AppData\Local\Temp\cc3o48Uk.s:26606  .debug_str:000000000001b6ef .LASF1150
C:\Users\CYMR90~1\AppData\Local\Temp\cc3o48Uk.s:20279  .debug_str:0000000000001e5a .LASF1151
C:\Users\CYMR90~1\AppData\Local\Temp\cc3o48Uk.s:27022  .debug_str:000000000001d224 .LASF1152
C:\Users\CYMR90~1\AppData\Local\Temp\cc3o48Uk.s:22175  .debug_str:00000000000096be .LASF1153
C:\Users\CYMR90~1\AppData\Local\Temp\cc3o48Uk.s:28134  .debug_str:000000000002167b .LASF1154
C:\Users\CYMR90~1\AppData\Local\Temp\cc3o48Uk.s:27382  .debug_str:000000000001e8f1 .LASF1155
C:\Users\CYMR90~1\AppData\Local\Temp\cc3o48Uk.s:24957  .debug_str:0000000000014a56 .LASF1156
C:\Users\CYMR90~1\AppData\Local\Temp\cc3o48Uk.s:27218  .debug_str:000000000001de82 .LASF1157
C:\Users\CYMR90~1\AppData\Local\Temp\cc3o48Uk.s:22605  .debug_str:000000000000b3cf .LASF1158
C:\Users\CYMR90~1\AppData\Local\Temp\cc3o48Uk.s:30310  .debug_str:0000000000029f33 .LASF1159
C:\Users\CYMR90~1\AppData\Local\Temp\cc3o48Uk.s:27078  .debug_str:000000000001d587 .LASF1160
C:\Users\CYMR90~1\AppData\Local\Temp\cc3o48Uk.s:30390  .debug_str:000000000002a40f .LASF1161
C:\Users\CYMR90~1\AppData\Local\Temp\cc3o48Uk.s:30072  .debug_str:0000000000029121 .LASF1162
C:\Users\CYMR90~1\AppData\Local\Temp\cc3o48Uk.s:27104  .debug_str:000000000001d739 .LASF1163
C:\Users\CYMR90~1\AppData\Local\Temp\cc3o48Uk.s:26232  .debug_str:0000000000019df9 .LASF1164
C:\Users\CYMR90~1\AppData\Local\Temp\cc3o48Uk.s:23133  .debug_str:000000000000d746 .LASF1165
C:\Users\CYMR90~1\AppData\Local\Temp\cc3o48Uk.s:27772  .debug_str:000000000002001f .LASF1166
C:\Users\CYMR90~1\AppData\Local\Temp\cc3o48Uk.s:23995  .debug_str:0000000000010cf2 .LASF1167
C:\Users\CYMR90~1\AppData\Local\Temp\cc3o48Uk.s:22173  .debug_str:00000000000096b4 .LASF1168
C:\Users\CYMR90~1\AppData\Local\Temp\cc3o48Uk.s:25079  .debug_str:000000000001521e .LASF1169
C:\Users\CYMR90~1\AppData\Local\Temp\cc3o48Uk.s:26444  .debug_str:000000000001ac7a .LASF1170
C:\Users\CYMR90~1\AppData\Local\Temp\cc3o48Uk.s:26148  .debug_str:0000000000019853 .LASF1171
C:\Users\CYMR90~1\AppData\Local\Temp\cc3o48Uk.s:30336  .debug_str:000000000002a088 .LASF1172
C:\Users\CYMR90~1\AppData\Local\Temp\cc3o48Uk.s:25367  .debug_str:00000000000163b0 .LASF1173
C:\Users\CYMR90~1\AppData\Local\Temp\cc3o48Uk.s:19995  .debug_str:0000000000000c1e .LASF1174
C:\Users\CYMR90~1\AppData\Local\Temp\cc3o48Uk.s:20385  .debug_str:000000000000242a .LASF1175
C:\Users\CYMR90~1\AppData\Local\Temp\cc3o48Uk.s:24561  .debug_str:00000000000131d6 .LASF1176
C:\Users\CYMR90~1\AppData\Local\Temp\cc3o48Uk.s:22945  .debug_str:000000000000cb2e .LASF1177
C:\Users\CYMR90~1\AppData\Local\Temp\cc3o48Uk.s:27162  .debug_str:000000000001dabc .LASF1178
C:\Users\CYMR90~1\AppData\Local\Temp\cc3o48Uk.s:23541  .debug_str:000000000000efe5 .LASF1179
C:\Users\CYMR90~1\AppData\Local\Temp\cc3o48Uk.s:23119  .debug_str:000000000000d6af .LASF1180
C:\Users\CYMR90~1\AppData\Local\Temp\cc3o48Uk.s:28874  .debug_str:00000000000242fa .LASF1181
C:\Users\CYMR90~1\AppData\Local\Temp\cc3o48Uk.s:30078  .debug_str:000000000002916c .LASF1182
C:\Users\CYMR90~1\AppData\Local\Temp\cc3o48Uk.s:20545  .debug_str:0000000000002e6c .LASF1183
C:\Users\CYMR90~1\AppData\Local\Temp\cc3o48Uk.s:27490  .debug_str:000000000001eee9 .LASF1184
C:\Users\CYMR90~1\AppData\Local\Temp\cc3o48Uk.s:27934  .debug_str:0000000000020a10 .LASF1185
C:\Users\CYMR90~1\AppData\Local\Temp\cc3o48Uk.s:29112  .debug_str:0000000000025328 .LASF1186
C:\Users\CYMR90~1\AppData\Local\Temp\cc3o48Uk.s:20281  .debug_str:0000000000001e73 .LASF1187
C:\Users\CYMR90~1\AppData\Local\Temp\cc3o48Uk.s:21187  .debug_str:00000000000057a0 .LASF1188
C:\Users\CYMR90~1\AppData\Local\Temp\cc3o48Uk.s:28408  .debug_str:00000000000226cc .LASF1189
C:\Users\CYMR90~1\AppData\Local\Temp\cc3o48Uk.s:28616  .debug_str:00000000000232c8 .LASF1190
C:\Users\CYMR90~1\AppData\Local\Temp\cc3o48Uk.s:28456  .debug_str:000000000002298b .LASF1191
C:\Users\CYMR90~1\AppData\Local\Temp\cc3o48Uk.s:22921  .debug_str:000000000000c971 .LASF1192
C:\Users\CYMR90~1\AppData\Local\Temp\cc3o48Uk.s:28122  .debug_str:00000000000215db .LASF1193
C:\Users\CYMR90~1\AppData\Local\Temp\cc3o48Uk.s:23165  .debug_str:000000000000d8fb .LASF1194
C:\Users\CYMR90~1\AppData\Local\Temp\cc3o48Uk.s:26700  .debug_str:000000000001bc86 .LASF1195
C:\Users\CYMR90~1\AppData\Local\Temp\cc3o48Uk.s:24715  .debug_str:0000000000013b19 .LASF1196
C:\Users\CYMR90~1\AppData\Local\Temp\cc3o48Uk.s:28158  .debug_str:0000000000021802 .LASF1197
C:\Users\CYMR90~1\AppData\Local\Temp\cc3o48Uk.s:30334  .debug_str:000000000002a079 .LASF1198
C:\Users\CYMR90~1\AppData\Local\Temp\cc3o48Uk.s:25389  .debug_str:0000000000016580 .LASF1199
C:\Users\CYMR90~1\AppData\Local\Temp\cc3o48Uk.s:30340  .debug_str:000000000002a0af .LASF1200
C:\Users\CYMR90~1\AppData\Local\Temp\cc3o48Uk.s:22421  .debug_str:000000000000a6b6 .LASF1201
C:\Users\CYMR90~1\AppData\Local\Temp\cc3o48Uk.s:22081  .debug_str:0000000000009137 .LASF1202
C:\Users\CYMR90~1\AppData\Local\Temp\cc3o48Uk.s:25584  .debug_str:00000000000173d5 .LASF1203
C:\Users\CYMR90~1\AppData\Local\Temp\cc3o48Uk.s:29436  .debug_str:000000000002680d .LASF1204
C:\Users\CYMR90~1\AppData\Local\Temp\cc3o48Uk.s:24619  .debug_str:000000000001356a .LASF1205
C:\Users\CYMR90~1\AppData\Local\Temp\cc3o48Uk.s:23697  .debug_str:000000000000f9df .LASF1206
C:\Users\CYMR90~1\AppData\Local\Temp\cc3o48Uk.s:30306  .debug_str:0000000000029f01 .LASF1207
C:\Users\CYMR90~1\AppData\Local\Temp\cc3o48Uk.s:28968  .debug_str:000000000002494c .LASF1208
C:\Users\CYMR90~1\AppData\Local\Temp\cc3o48Uk.s:23633  .debug_str:000000000000f58d .LASF1209
C:\Users\CYMR90~1\AppData\Local\Temp\cc3o48Uk.s:21083  .debug_str:000000000000516f .LASF1210
C:\Users\CYMR90~1\AppData\Local\Temp\cc3o48Uk.s:21179  .debug_str:0000000000005726 .LASF1211
C:\Users\CYMR90~1\AppData\Local\Temp\cc3o48Uk.s:21875  .debug_str:0000000000008454 .LASF1212
C:\Users\CYMR90~1\AppData\Local\Temp\cc3o48Uk.s:21469  .debug_str:00000000000068e2 .LASF1213
C:\Users\CYMR90~1\AppData\Local\Temp\cc3o48Uk.s:20397  .debug_str:00000000000024f8 .LASF1214
C:\Users\CYMR90~1\AppData\Local\Temp\cc3o48Uk.s:22217  .debug_str:00000000000099e5 .LASF1215
C:\Users\CYMR90~1\AppData\Local\Temp\cc3o48Uk.s:20335  .debug_str:0000000000002153 .LASF1216
C:\Users\CYMR90~1\AppData\Local\Temp\cc3o48Uk.s:28570  .debug_str:0000000000023034 .LASF1217
C:\Users\CYMR90~1\AppData\Local\Temp\cc3o48Uk.s:28584  .debug_str:00000000000230e8 .LASF1218
C:\Users\CYMR90~1\AppData\Local\Temp\cc3o48Uk.s:29020  .debug_str:0000000000024c9e .LASF1219
C:\Users\CYMR90~1\AppData\Local\Temp\cc3o48Uk.s:26592  .debug_str:000000000001b617 .LASF1220
C:\Users\CYMR90~1\AppData\Local\Temp\cc3o48Uk.s:23211  .debug_str:000000000000dbab .LASF1221
C:\Users\CYMR90~1\AppData\Local\Temp\cc3o48Uk.s:24891  .debug_str:0000000000014638 .LASF1222
C:\Users\CYMR90~1\AppData\Local\Temp\cc3o48Uk.s:20563  .debug_str:0000000000002f92 .LASF1223
C:\Users\CYMR90~1\AppData\Local\Temp\cc3o48Uk.s:26324  .debug_str:000000000001a4d2 .LASF1224
C:\Users\CYMR90~1\AppData\Local\Temp\cc3o48Uk.s:29614  .debug_str:000000000002734d .LASF1225
C:\Users\CYMR90~1\AppData\Local\Temp\cc3o48Uk.s:22691  .debug_str:000000000000b9e2 .LASF1226
C:\Users\CYMR90~1\AppData\Local\Temp\cc3o48Uk.s:21609  .debug_str:0000000000007234 .LASF1227
C:\Users\CYMR90~1\AppData\Local\Temp\cc3o48Uk.s:20655  .debug_str:0000000000003583 .LASF1228
C:\Users\CYMR90~1\AppData\Local\Temp\cc3o48Uk.s:31024  .debug_str:000000000002cd61 .LASF1229
C:\Users\CYMR90~1\AppData\Local\Temp\cc3o48Uk.s:30052  .debug_str:0000000000028fe4 .LASF1230
C:\Users\CYMR90~1\AppData\Local\Temp\cc3o48Uk.s:29080  .debug_str:00000000000250a8 .LASF1231
C:\Users\CYMR90~1\AppData\Local\Temp\cc3o48Uk.s:28108  .debug_str:000000000002150c .LASF1232
C:\Users\CYMR90~1\AppData\Local\Temp\cc3o48Uk.s:27992  .debug_str:0000000000020da5 .LASF1233
C:\Users\CYMR90~1\AppData\Local\Temp\cc3o48Uk.s:27040  .debug_str:000000000001d31c .LASF1234
C:\Users\CYMR90~1\AppData\Local\Temp\cc3o48Uk.s:26106  .debug_str:00000000000195ea .LASF1235
C:\Users\CYMR90~1\AppData\Local\Temp\cc3o48Uk.s:24785  .debug_str:0000000000013fa3 .LASF1236
C:\Users\CYMR90~1\AppData\Local\Temp\cc3o48Uk.s:24157  .debug_str:0000000000011748 .LASF1237
C:\Users\CYMR90~1\AppData\Local\Temp\cc3o48Uk.s:25484  .debug_str:0000000000016dbc .LASF1238
C:\Users\CYMR90~1\AppData\Local\Temp\cc3o48Uk.s:22293  .debug_str:0000000000009e6a .LASF1239
C:\Users\CYMR90~1\AppData\Local\Temp\cc3o48Uk.s:21287  .debug_str:0000000000005daf .LASF1240
C:\Users\CYMR90~1\AppData\Local\Temp\cc3o48Uk.s:20355  .debug_str:0000000000002266 .LASF1241
C:\Users\CYMR90~1\AppData\Local\Temp\cc3o48Uk.s:30730  .debug_str:000000000002b9de .LASF1242
C:\Users\CYMR90~1\AppData\Local\Temp\cc3o48Uk.s:19885  .debug_str:0000000000000501 .LASF1243
C:\Users\CYMR90~1\AppData\Local\Temp\cc3o48Uk.s:30202  .debug_str:00000000000298db .LASF1244
C:\Users\CYMR90~1\AppData\Local\Temp\cc3o48Uk.s:29226  .debug_str:0000000000025b3f .LASF1245
C:\Users\CYMR90~1\AppData\Local\Temp\cc3o48Uk.s:28264  .debug_str:0000000000021e67 .LASF1246
C:\Users\CYMR90~1\AppData\Local\Temp\cc3o48Uk.s:27290  .debug_str:000000000001e2e1 .LASF1247
C:\Users\CYMR90~1\AppData\Local\Temp\cc3o48Uk.s:26384  .debug_str:000000000001a8d1 .LASF1248
C:\Users\CYMR90~1\AppData\Local\Temp\cc3o48Uk.s:25437  .debug_str:00000000000168a6 .LASF1249
C:\Users\CYMR90~1\AppData\Local\Temp\cc3o48Uk.s:25602  .debug_str:0000000000017535 .LASF1250
C:\Users\CYMR90~1\AppData\Local\Temp\cc3o48Uk.s:23547  .debug_str:000000000000f02a .LASF1251
C:\Users\CYMR90~1\AppData\Local\Temp\cc3o48Uk.s:25704  .debug_str:0000000000017be0 .LASF1252
C:\Users\CYMR90~1\AppData\Local\Temp\cc3o48Uk.s:23055  .debug_str:000000000000d1e3 .LASF1253
C:\Users\CYMR90~1\AppData\Local\Temp\cc3o48Uk.s:22095  .debug_str:0000000000009206 .LASF1254
C:\Users\CYMR90~1\AppData\Local\Temp\cc3o48Uk.s:20133  .debug_str:00000000000014ca .LASF1255
C:\Users\CYMR90~1\AppData\Local\Temp\cc3o48Uk.s:22977  .debug_str:000000000000ccf8 .LASF1256
C:\Users\CYMR90~1\AppData\Local\Temp\cc3o48Uk.s:21241  .debug_str:0000000000005b1b .LASF1257
C:\Users\CYMR90~1\AppData\Local\Temp\cc3o48Uk.s:25976  .debug_str:0000000000018d70 .LASF1258
C:\Users\CYMR90~1\AppData\Local\Temp\cc3o48Uk.s:25978  .debug_str:0000000000018d83 .LASF1259
C:\Users\CYMR90~1\AppData\Local\Temp\cc3o48Uk.s:28460  .debug_str:00000000000229bb .LASF1260
C:\Users\CYMR90~1\AppData\Local\Temp\cc3o48Uk.s:26586  .debug_str:000000000001b5d0 .LASF1261
C:\Users\CYMR90~1\AppData\Local\Temp\cc3o48Uk.s:23965  .debug_str:0000000000010b7c .LASF1262
C:\Users\CYMR90~1\AppData\Local\Temp\cc3o48Uk.s:21137  .debug_str:00000000000054a5 .LASF1263
C:\Users\CYMR90~1\AppData\Local\Temp\cc3o48Uk.s:23287  .debug_str:000000000000e053 .LASF1264
C:\Users\CYMR90~1\AppData\Local\Temp\cc3o48Uk.s:25461  .debug_str:0000000000016ab3 .LASF1265
C:\Users\CYMR90~1\AppData\Local\Temp\cc3o48Uk.s:23341  .debug_str:000000000000e36a .LASF1266
C:\Users\CYMR90~1\AppData\Local\Temp\cc3o48Uk.s:28486  .debug_str:0000000000022bb9 .LASF1267
C:\Users\CYMR90~1\AppData\Local\Temp\cc3o48Uk.s:28662  .debug_str:00000000000235c2 .LASF1268
C:\Users\CYMR90~1\AppData\Local\Temp\cc3o48Uk.s:24101  .debug_str:000000000001130f .LASF1269
C:\Users\CYMR90~1\AppData\Local\Temp\cc3o48Uk.s:30784  .debug_str:000000000002bd3d .LASF1270
C:\Users\CYMR90~1\AppData\Local\Temp\cc3o48Uk.s:25706  .debug_str:0000000000017bf7 .LASF1271
C:\Users\CYMR90~1\AppData\Local\Temp\cc3o48Uk.s:30162  .debug_str:000000000002968e .LASF1272
C:\Users\CYMR90~1\AppData\Local\Temp\cc3o48Uk.s:27164  .debug_str:000000000001dac9 .LASF1273
C:\Users\CYMR90~1\AppData\Local\Temp\cc3o48Uk.s:19949  .debug_str:00000000000008ef .LASF1274
C:\Users\CYMR90~1\AppData\Local\Temp\cc3o48Uk.s:25984  .debug_str:0000000000018dd2 .LASF1275
C:\Users\CYMR90~1\AppData\Local\Temp\cc3o48Uk.s:20059  .debug_str:000000000000106c .LASF1276
C:\Users\CYMR90~1\AppData\Local\Temp\cc3o48Uk.s:22313  .debug_str:0000000000009fcc .LASF1277
C:\Users\CYMR90~1\AppData\Local\Temp\cc3o48Uk.s:21305  .debug_str:0000000000005eb5 .LASF1278
C:\Users\CYMR90~1\AppData\Local\Temp\cc3o48Uk.s:20383  .debug_str:0000000000002418 .LASF1279
C:\Users\CYMR90~1\AppData\Local\Temp\cc3o48Uk.s:30752  .debug_str:000000000002bb23 .LASF1280
C:\Users\CYMR90~1\AppData\Local\Temp\cc3o48Uk.s:21197  .debug_str:000000000000584a .LASF1281
C:\Users\CYMR90~1\AppData\Local\Temp\cc3o48Uk.s:20269  .debug_str:0000000000001db3 .LASF1282
C:\Users\CYMR90~1\AppData\Local\Temp\cc3o48Uk.s:27332  .debug_str:000000000001e5a7 .LASF1283
C:\Users\CYMR90~1\AppData\Local\Temp\cc3o48Uk.s:29648  .debug_str:0000000000027508 .LASF1284
C:\Users\CYMR90~1\AppData\Local\Temp\cc3o48Uk.s:28688  .debug_str:0000000000023785 .LASF1285
C:\Users\CYMR90~1\AppData\Local\Temp\cc3o48Uk.s:27724  .debug_str:000000000001fced .LASF1286
C:\Users\CYMR90~1\AppData\Local\Temp\cc3o48Uk.s:26766  .debug_str:000000000001c0b5 .LASF1287
C:\Users\CYMR90~1\AppData\Local\Temp\cc3o48Uk.s:25806  .debug_str:0000000000018202 .LASF1288
C:\Users\CYMR90~1\AppData\Local\Temp\cc3o48Uk.s:24827  .debug_str:0000000000014216 .LASF1289
C:\Users\CYMR90~1\AppData\Local\Temp\cc3o48Uk.s:23899  .debug_str:00000000000106d6 .LASF1290
C:\Users\CYMR90~1\AppData\Local\Temp\cc3o48Uk.s:28214  .debug_str:0000000000021b69 .LASF1291
C:\Users\CYMR90~1\AppData\Local\Temp\cc3o48Uk.s:27242  .debug_str:000000000001e016 .LASF1292
C:\Users\CYMR90~1\AppData\Local\Temp\cc3o48Uk.s:26322  .debug_str:000000000001a4be .LASF1293
C:\Users\CYMR90~1\AppData\Local\Temp\cc3o48Uk.s:25319  .debug_str:0000000000016139 .LASF1294
C:\Users\CYMR90~1\AppData\Local\Temp\cc3o48Uk.s:24375  .debug_str:0000000000012581 .LASF1295
C:\Users\CYMR90~1\AppData\Local\Temp\cc3o48Uk.s:23447  .debug_str:000000000000ea2d .LASF1296
C:\Users\CYMR90~1\AppData\Local\Temp\cc3o48Uk.s:22823  .debug_str:000000000000c2f2 .LASF1297
C:\Users\CYMR90~1\AppData\Local\Temp\cc3o48Uk.s:27690  .debug_str:000000000001fafe .LASF1298
C:\Users\CYMR90~1\AppData\Local\Temp\cc3o48Uk.s:26738  .debug_str:000000000001bf24 .LASF1299
C:\Users\CYMR90~1\AppData\Local\Temp\cc3o48Uk.s:25772  .debug_str:0000000000017fe8 .LASF1300
C:\Users\CYMR90~1\AppData\Local\Temp\cc3o48Uk.s:26712  .debug_str:000000000001bd5a .LASF1301
C:\Users\CYMR90~1\AppData\Local\Temp\cc3o48Uk.s:20507  .debug_str:0000000000002c25 .LASF1302
C:\Users\CYMR90~1\AppData\Local\Temp\cc3o48Uk.s:25365  .debug_str:000000000001639d .LASF1303
C:\Users\CYMR90~1\AppData\Local\Temp\cc3o48Uk.s:26240  .debug_str:0000000000019e6a .LASF1304
C:\Users\CYMR90~1\AppData\Local\Temp\cc3o48Uk.s:26212  .debug_str:0000000000019cdb .LASF1305
C:\Users\CYMR90~1\AppData\Local\Temp\cc3o48Uk.s:21987  .debug_str:0000000000008b32 .LASF1306
C:\Users\CYMR90~1\AppData\Local\Temp\cc3o48Uk.s:20983  .debug_str:0000000000004b8c .LASF1307
C:\Users\CYMR90~1\AppData\Local\Temp\cc3o48Uk.s:20071  .debug_str:0000000000001103 .LASF1308
C:\Users\CYMR90~1\AppData\Local\Temp\cc3o48Uk.s:30406  .debug_str:000000000002a50e .LASF1309
C:\Users\CYMR90~1\AppData\Local\Temp\cc3o48Uk.s:29432  .debug_str:00000000000267d0 .LASF1310
C:\Users\CYMR90~1\AppData\Local\Temp\cc3o48Uk.s:28464  .debug_str:00000000000229e9 .LASF1311
C:\Users\CYMR90~1\AppData\Local\Temp\cc3o48Uk.s:21941  .debug_str:000000000000886d .LASF1312
C:\Users\CYMR90~1\AppData\Local\Temp\cc3o48Uk.s:23301  .debug_str:000000000000e123 .LASF1313
C:\Users\CYMR90~1\AppData\Local\Temp\cc3o48Uk.s:24533  .debug_str:0000000000012fc5 .LASF1314
C:\Users\CYMR90~1\AppData\Local\Temp\cc3o48Uk.s:30630  .debug_str:000000000002b2e6 .LASF1315
C:\Users\CYMR90~1\AppData\Local\Temp\cc3o48Uk.s:29156  .debug_str:0000000000025656 .LASF1316
C:\Users\CYMR90~1\AppData\Local\Temp\cc3o48Uk.s:28680  .debug_str:00000000000236e9 .LASF1317
C:\Users\CYMR90~1\AppData\Local\Temp\cc3o48Uk.s:27716  .debug_str:000000000001fc80 .LASF1318
C:\Users\CYMR90~1\AppData\Local\Temp\cc3o48Uk.s:26776  .debug_str:000000000001c15f .LASF1319
C:\Users\CYMR90~1\AppData\Local\Temp\cc3o48Uk.s:25816  .debug_str:00000000000182b0 .LASF1320
C:\Users\CYMR90~1\AppData\Local\Temp\cc3o48Uk.s:24837  .debug_str:000000000001428c .LASF1321
C:\Users\CYMR90~1\AppData\Local\Temp\cc3o48Uk.s:23905  .debug_str:0000000000010724 .LASF1322
C:\Users\CYMR90~1\AppData\Local\Temp\cc3o48Uk.s:24349  .debug_str:00000000000123c4 .LASF1323
C:\Users\CYMR90~1\AppData\Local\Temp\cc3o48Uk.s:22827  .debug_str:000000000000c317 .LASF1324
C:\Users\CYMR90~1\AppData\Local\Temp\cc3o48Uk.s:22471  .debug_str:000000000000aab9 .LASF1325
C:\Users\CYMR90~1\AppData\Local\Temp\cc3o48Uk.s:21477  .debug_str:000000000000697e .LASF1326
C:\Users\CYMR90~1\AppData\Local\Temp\cc3o48Uk.s:20523  .debug_str:0000000000002d1c .LASF1327
C:\Users\CYMR90~1\AppData\Local\Temp\cc3o48Uk.s:30910  .debug_str:000000000002c5ce .LASF1328
C:\Users\CYMR90~1\AppData\Local\Temp\cc3o48Uk.s:28784  .debug_str:0000000000023cb0 .LASF1329
C:\Users\CYMR90~1\AppData\Local\Temp\cc3o48Uk.s:29000  .debug_str:0000000000024b50 .LASF1330
C:\Users\CYMR90~1\AppData\Local\Temp\cc3o48Uk.s:28030  .debug_str:0000000000020fcb .LASF1331
C:\Users\CYMR90~1\AppData\Local\Temp\cc3o48Uk.s:27074  .debug_str:000000000001d54a .LASF1332
C:\Users\CYMR90~1\AppData\Local\Temp\cc3o48Uk.s:27512  .debug_str:000000000001f062 .LASF1333
C:\Users\CYMR90~1\AppData\Local\Temp\cc3o48Uk.s:26600  .debug_str:000000000001b693 .LASF1334
C:\Users\CYMR90~1\AppData\Local\Temp\cc3o48Uk.s:25281  .debug_str:0000000000015ee1 .LASF1335
C:\Users\CYMR90~1\AppData\Local\Temp\cc3o48Uk.s:22973  .debug_str:000000000000cccd .LASF1336
C:\Users\CYMR90~1\AppData\Local\Temp\cc3o48Uk.s:27732  .debug_str:000000000001fd4c .LASF1337
C:\Users\CYMR90~1\AppData\Local\Temp\cc3o48Uk.s:24233  .debug_str:0000000000011c44 .LASF1338
C:\Users\CYMR90~1\AppData\Local\Temp\cc3o48Uk.s:20173  .debug_str:000000000000172d .LASF1339
C:\Users\CYMR90~1\AppData\Local\Temp\cc3o48Uk.s:22263  .debug_str:0000000000009cbb .LASF1340
C:\Users\CYMR90~1\AppData\Local\Temp\cc3o48Uk.s:21257  .debug_str:0000000000005c12 .LASF1341
C:\Users\CYMR90~1\AppData\Local\Temp\cc3o48Uk.s:20321  .debug_str:000000000000209c .LASF1342
C:\Users\CYMR90~1\AppData\Local\Temp\cc3o48Uk.s:30710  .debug_str:000000000002b86b .LASF1343
C:\Users\CYMR90~1\AppData\Local\Temp\cc3o48Uk.s:30498  .debug_str:000000000002aa3c .LASF1344
C:\Users\CYMR90~1\AppData\Local\Temp\cc3o48Uk.s:29512  .debug_str:0000000000026c98 .LASF1345
C:\Users\CYMR90~1\AppData\Local\Temp\cc3o48Uk.s:28548  .debug_str:0000000000022f2a .LASF1346
C:\Users\CYMR90~1\AppData\Local\Temp\cc3o48Uk.s:29924  .debug_str:000000000002884e .LASF1347
C:\Users\CYMR90~1\AppData\Local\Temp\cc3o48Uk.s:26644  .debug_str:000000000001b92b .LASF1348
C:\Users\CYMR90~1\AppData\Local\Temp\cc3o48Uk.s:20761  .debug_str:0000000000003c62 .LASF1349
C:\Users\CYMR90~1\AppData\Local\Temp\cc3o48Uk.s:24707  .debug_str:0000000000013aab .LASF1350
C:\Users\CYMR90~1\AppData\Local\Temp\cc3o48Uk.s:27866  .debug_str:00000000000205c2 .LASF1351
C:\Users\CYMR90~1\AppData\Local\Temp\cc3o48Uk.s:22841  .debug_str:000000000000c41b .LASF1352
C:\Users\CYMR90~1\AppData\Local\Temp\cc3o48Uk.s:21767  .debug_str:0000000000007cc8 .LASF1353
C:\Users\CYMR90~1\AppData\Local\Temp\cc3o48Uk.s:22343  .debug_str:000000000000a1cd .LASF1354
C:\Users\CYMR90~1\AppData\Local\Temp\cc3o48Uk.s:21337  .debug_str:00000000000060c5 .LASF1355
C:\Users\CYMR90~1\AppData\Local\Temp\cc3o48Uk.s:20409  .debug_str:0000000000002598 .LASF1356
C:\Users\CYMR90~1\AppData\Local\Temp\cc3o48Uk.s:30780  .debug_str:000000000002bd1d .LASF1357
C:\Users\CYMR90~1\AppData\Local\Temp\cc3o48Uk.s:24797  .debug_str:0000000000014067 .LASF1358
C:\Users\CYMR90~1\AppData\Local\Temp\cc3o48Uk.s:21471  .debug_str:0000000000006926 .LASF1359
C:\Users\CYMR90~1\AppData\Local\Temp\cc3o48Uk.s:27912  .debug_str:0000000000020891 .LASF1360
C:\Users\CYMR90~1\AppData\Local\Temp\cc3o48Uk.s:26870  .debug_str:000000000001c6e1 .LASF1361
C:\Users\CYMR90~1\AppData\Local\Temp\cc3o48Uk.s:25918  .debug_str:0000000000018912 .LASF1362
C:\Users\CYMR90~1\AppData\Local\Temp\cc3o48Uk.s:24921  .debug_str:000000000001481a .LASF1363
C:\Users\CYMR90~1\AppData\Local\Temp\cc3o48Uk.s:25205  .debug_str:0000000000015969 .LASF1364
C:\Users\CYMR90~1\AppData\Local\Temp\cc3o48Uk.s:21893  .debug_str:000000000000856d .LASF1365
C:\Users\CYMR90~1\AppData\Local\Temp\cc3o48Uk.s:29540  .debug_str:0000000000026e4a .LASF1366
C:\Users\CYMR90~1\AppData\Local\Temp\cc3o48Uk.s:28790  .debug_str:0000000000023cfc .LASF1367
C:\Users\CYMR90~1\AppData\Local\Temp\cc3o48Uk.s:27810  .debug_str:000000000002022d .LASF1368
C:\Users\CYMR90~1\AppData\Local\Temp\cc3o48Uk.s:26080  .debug_str:0000000000019446 .LASF1369
C:\Users\CYMR90~1\AppData\Local\Temp\cc3o48Uk.s:23945  .debug_str:0000000000010990 .LASF1370
C:\Users\CYMR90~1\AppData\Local\Temp\cc3o48Uk.s:27086  .debug_str:000000000001d5d1 .LASF1371
C:\Users\CYMR90~1\AppData\Local\Temp\cc3o48Uk.s:20451  .debug_str:0000000000002882 .LASF1372
C:\Users\CYMR90~1\AppData\Local\Temp\cc3o48Uk.s:23015  .debug_str:000000000000cf4a .LASF1373
C:\Users\CYMR90~1\AppData\Local\Temp\cc3o48Uk.s:26124  .debug_str:00000000000196c7 .LASF1374
C:\Users\CYMR90~1\AppData\Local\Temp\cc3o48Uk.s:29216  .debug_str:0000000000025a89 .LASF1375
C:\Users\CYMR90~1\AppData\Local\Temp\cc3o48Uk.s:21013  .debug_str:0000000000004d43 .LASF1376
C:\Users\CYMR90~1\AppData\Local\Temp\cc3o48Uk.s:24145  .debug_str:00000000000115dc .LASF1377
C:\Users\CYMR90~1\AppData\Local\Temp\cc3o48Uk.s:27248  .debug_str:000000000001e070 .LASF1378
C:\Users\CYMR90~1\AppData\Local\Temp\cc3o48Uk.s:30402  .debug_str:000000000002a4d1 .LASF1379
C:\Users\CYMR90~1\AppData\Local\Temp\cc3o48Uk.s:30370  .debug_str:000000000002a2a2 .LASF1380
C:\Users\CYMR90~1\AppData\Local\Temp\cc3o48Uk.s:22107  .debug_str:00000000000092b6 .LASF1381
C:\Users\CYMR90~1\AppData\Local\Temp\cc3o48Uk.s:25177  .debug_str:00000000000157a6 .LASF1382
C:\Users\CYMR90~1\AppData\Local\Temp\cc3o48Uk.s:28308  .debug_str:0000000000022106 .LASF1383
C:\Users\CYMR90~1\AppData\Local\Temp\cc3o48Uk.s:20147  .debug_str:000000000000157b .LASF1384
C:\Users\CYMR90~1\AppData\Local\Temp\cc3o48Uk.s:24603  .debug_str:0000000000013477 .LASF1385
C:\Users\CYMR90~1\AppData\Local\Temp\cc3o48Uk.s:26420  .debug_str:000000000001ab18 .LASF1386
C:\Users\CYMR90~1\AppData\Local\Temp\cc3o48Uk.s:29502  .debug_str:0000000000026bd7 .LASF1387
C:\Users\CYMR90~1\AppData\Local\Temp\cc3o48Uk.s:21293  .debug_str:0000000000005e12 .LASF1388
C:\Users\CYMR90~1\AppData\Local\Temp\cc3o48Uk.s:24333  .debug_str:00000000000122c5 .LASF1389
C:\Users\CYMR90~1\AppData\Local\Temp\cc3o48Uk.s:23703  .debug_str:000000000000fa25 .LASF1390
C:\Users\CYMR90~1\AppData\Local\Temp\cc3o48Uk.s:26722  .debug_str:000000000001be10 .LASF1391
C:\Users\CYMR90~1\AppData\Local\Temp\cc3o48Uk.s:29840  .debug_str:000000000002826f .LASF1392
C:\Users\CYMR90~1\AppData\Local\Temp\cc3o48Uk.s:21645  .debug_str:0000000000007452 .LASF1393
C:\Users\CYMR90~1\AppData\Local\Temp\cc3o48Uk.s:24735  .debug_str:0000000000013c35 .LASF1394
C:\Users\CYMR90~1\AppData\Local\Temp\cc3o48Uk.s:24889  .debug_str:0000000000014620 .LASF1395
C:\Users\CYMR90~1\AppData\Local\Temp\cc3o48Uk.s:31080  .debug_str:000000000002d0a7 .LASF1396
C:\Users\CYMR90~1\AppData\Local\Temp\cc3o48Uk.s:22897  .debug_str:000000000000c77b .LASF1397
C:\Users\CYMR90~1\AppData\Local\Temp\cc3o48Uk.s:27460  .debug_str:000000000001ed22 .LASF1398
C:\Users\CYMR90~1\AppData\Local\Temp\cc3o48Uk.s:24053  .debug_str:0000000000011035 .LASF1399
C:\Users\CYMR90~1\AppData\Local\Temp\cc3o48Uk.s:25347  .debug_str:00000000000162c1 .LASF1400
C:\Users\CYMR90~1\AppData\Local\Temp\cc3o48Uk.s:20105  .debug_str:0000000000001302 .LASF1401
C:\Users\CYMR90~1\AppData\Local\Temp\cc3o48Uk.s:27794  .debug_str:0000000000020167 .LASF1402
C:\Users\CYMR90~1\AppData\Local\Temp\cc3o48Uk.s:22727  .debug_str:000000000000bc44 .LASF1403
C:\Users\CYMR90~1\AppData\Local\Temp\cc3o48Uk.s:27562  .debug_str:000000000001f370 .LASF1404
C:\Users\CYMR90~1\AppData\Local\Temp\cc3o48Uk.s:20797  .debug_str:0000000000003ec1 .LASF1405
C:\Users\CYMR90~1\AppData\Local\Temp\cc3o48Uk.s:30330  .debug_str:000000000002a049 .LASF1406
C:\Users\CYMR90~1\AppData\Local\Temp\cc3o48Uk.s:28508  .debug_str:0000000000022ce4 .LASF1407
C:\Users\CYMR90~1\AppData\Local\Temp\cc3o48Uk.s:28668  .debug_str:0000000000023606 .LASF1408
C:\Users\CYMR90~1\AppData\Local\Temp\cc3o48Uk.s:20479  .debug_str:0000000000002a4e .LASF1409
C:\Users\CYMR90~1\AppData\Local\Temp\cc3o48Uk.s:23617  .debug_str:000000000000f499 .LASF1410
C:\Users\CYMR90~1\AppData\Local\Temp\cc3o48Uk.s:30070  .debug_str:0000000000029108 .LASF1411
C:\Users\CYMR90~1\AppData\Local\Temp\cc3o48Uk.s:21881  .debug_str:00000000000084a9 .LASF1412
C:\Users\CYMR90~1\AppData\Local\Temp\cc3o48Uk.s:26238  .debug_str:0000000000019e51 .LASF1413
C:\Users\CYMR90~1\AppData\Local\Temp\cc3o48Uk.s:28090  .debug_str:00000000000213e3 .LASF1414
C:\Users\CYMR90~1\AppData\Local\Temp\cc3o48Uk.s:19951  .debug_str:0000000000000902 .LASF1415
C:\Users\CYMR90~1\AppData\Local\Temp\cc3o48Uk.s:22983  .debug_str:000000000000cd35 .LASF1416
C:\Users\CYMR90~1\AppData\Local\Temp\cc3o48Uk.s:29454  .debug_str:000000000002692d .LASF1417
C:\Users\CYMR90~1\AppData\Local\Temp\cc3o48Uk.s:27626  .debug_str:000000000001f71e .LASF1418
C:\Users\CYMR90~1\AppData\Local\Temp\cc3o48Uk.s:20993  .debug_str:0000000000004c05 .LASF1419
C:\Users\CYMR90~1\AppData\Local\Temp\cc3o48Uk.s:24037  .debug_str:0000000000010f29 .LASF1420
C:\Users\CYMR90~1\AppData\Local\Temp\cc3o48Uk.s:23401  .debug_str:000000000000e74f .LASF1421
C:\Users\CYMR90~1\AppData\Local\Temp\cc3o48Uk.s:26532  .debug_str:000000000001b297 .LASF1422
C:\Users\CYMR90~1\AppData\Local\Temp\cc3o48Uk.s:29612  .debug_str:0000000000027334 .LASF1423
C:\Users\CYMR90~1\AppData\Local\Temp\cc3o48Uk.s:20549  .debug_str:0000000000002ea5 .LASF1424
C:\Users\CYMR90~1\AppData\Local\Temp\cc3o48Uk.s:24537  .debug_str:0000000000012ff3 .LASF1425
C:\Users\CYMR90~1\AppData\Local\Temp\cc3o48Uk.s:27554  .debug_str:000000000001f2d7 .LASF1426
C:\Users\CYMR90~1\AppData\Local\Temp\cc3o48Uk.s:30790  .debug_str:000000000002be11 .LASF1427
C:\Users\CYMR90~1\AppData\Local\Temp\cc3o48Uk.s:22603  .debug_str:000000000000b3b6 .LASF1428
C:\Users\CYMR90~1\AppData\Local\Temp\cc3o48Uk.s:25682  .debug_str:0000000000017a8e .LASF1429
C:\Users\CYMR90~1\AppData\Local\Temp\cc3o48Uk.s:28800  .debug_str:0000000000023d92 .LASF1430
C:\Users\CYMR90~1\AppData\Local\Temp\cc3o48Uk.s:27564  .debug_str:000000000001f388 .LASF1431
C:\Users\CYMR90~1\AppData\Local\Temp\cc3o48Uk.s:19913  .debug_str:00000000000006b8 .LASF1432
C:\Users\CYMR90~1\AppData\Local\Temp\cc3o48Uk.s:24079  .debug_str:00000000000111c9 .LASF1433
C:\Users\CYMR90~1\AppData\Local\Temp\cc3o48Uk.s:27798  .debug_str:0000000000020191 .LASF1434
C:\Users\CYMR90~1\AppData\Local\Temp\cc3o48Uk.s:26834  .debug_str:000000000001c4c0 .LASF1435
C:\Users\CYMR90~1\AppData\Local\Temp\cc3o48Uk.s:25882  .debug_str:00000000000186bf .LASF1436
C:\Users\CYMR90~1\AppData\Local\Temp\cc3o48Uk.s:25303  .debug_str:0000000000016050 .LASF1437
C:\Users\CYMR90~1\AppData\Local\Temp\cc3o48Uk.s:29646  .debug_str:00000000000274f4 .LASF1438
C:\Users\CYMR90~1\AppData\Local\Temp\cc3o48Uk.s:28686  .debug_str:0000000000023771 .LASF1439
C:\Users\CYMR90~1\AppData\Local\Temp\cc3o48Uk.s:27722  .debug_str:000000000001fcd9 .LASF1440
C:\Users\CYMR90~1\AppData\Local\Temp\cc3o48Uk.s:26764  .debug_str:000000000001c0a1 .LASF1441
C:\Users\CYMR90~1\AppData\Local\Temp\cc3o48Uk.s:25804  .debug_str:00000000000181ee .LASF1442
C:\Users\CYMR90~1\AppData\Local\Temp\cc3o48Uk.s:24825  .debug_str:0000000000014202 .LASF1443
C:\Users\CYMR90~1\AppData\Local\Temp\cc3o48Uk.s:23897  .debug_str:00000000000106c2 .LASF1444
C:\Users\CYMR90~1\AppData\Local\Temp\cc3o48Uk.s:30748  .debug_str:000000000002baeb .LASF1445
C:\Users\CYMR90~1\AppData\Local\Temp\cc3o48Uk.s:21995  .debug_str:0000000000008ba0 .LASF1446
C:\Users\CYMR90~1\AppData\Local\Temp\cc3o48Uk.s:30000  .debug_str:0000000000028cbd .LASF1447
C:\Users\CYMR90~1\AppData\Local\Temp\cc3o48Uk.s:29036  .debug_str:0000000000024d97 .LASF1448
C:\Users\CYMR90~1\AppData\Local\Temp\cc3o48Uk.s:28066  .debug_str:00000000000211d0 .LASF1449
C:\Users\CYMR90~1\AppData\Local\Temp\cc3o48Uk.s:27096  .debug_str:000000000001d6d0 .LASF1450
C:\Users\CYMR90~1\AppData\Local\Temp\cc3o48Uk.s:26168  .debug_str:0000000000019a17 .LASF1451
C:\Users\CYMR90~1\AppData\Local\Temp\cc3o48Uk.s:25173  .debug_str:000000000001577e .LASF1452
C:\Users\CYMR90~1\AppData\Local\Temp\cc3o48Uk.s:22601  .debug_str:000000000000b3a3 .LASF1453
C:\Users\CYMR90~1\AppData\Local\Temp\cc3o48Uk.s:21203  .debug_str:00000000000058a0 .LASF1454
C:\Users\CYMR90~1\AppData\Local\Temp\cc3o48Uk.s:22403  .debug_str:000000000000a596 .LASF1455
C:\Users\CYMR90~1\AppData\Local\Temp\cc3o48Uk.s:27464  .debug_str:000000000001ed64 .LASF1456
C:\Users\CYMR90~1\AppData\Local\Temp\cc3o48Uk.s:29088  .debug_str:0000000000025137 .LASF1457
C:\Users\CYMR90~1\AppData\Local\Temp\cc3o48Uk.s:20957  .debug_str:00000000000049e3 .LASF1458
C:\Users\CYMR90~1\AppData\Local\Temp\cc3o48Uk.s:27548  .debug_str:000000000001f289 .LASF1459
C:\Users\CYMR90~1\AppData\Local\Temp\cc3o48Uk.s:24355  .debug_str:0000000000012428 .LASF1460
C:\Users\CYMR90~1\AppData\Local\Temp\cc3o48Uk.s:22511  .debug_str:000000000000ad56 .LASF1461
C:\Users\CYMR90~1\AppData\Local\Temp\cc3o48Uk.s:23663  .debug_str:000000000000f7e3 .LASF1462
C:\Users\CYMR90~1\AppData\Local\Temp\cc3o48Uk.s:24151  .debug_str:00000000000116b7 .LASF1463
C:\Users\CYMR90~1\AppData\Local\Temp\cc3o48Uk.s:25235  .debug_str:0000000000015b6c .LASF1464
C:\Users\CYMR90~1\AppData\Local\Temp\cc3o48Uk.s:30522  .debug_str:000000000002abec .LASF1465
C:\Users\CYMR90~1\AppData\Local\Temp\cc3o48Uk.s:26434  .debug_str:000000000001abf0 .LASF1466
C:\Users\CYMR90~1\AppData\Local\Temp\cc3o48Uk.s:24829  .debug_str:0000000000014229 .LASF1467
C:\Users\CYMR90~1\AppData\Local\Temp\cc3o48Uk.s:29530  .debug_str:0000000000026dbb .LASF1468
C:\Users\CYMR90~1\AppData\Local\Temp\cc3o48Uk.s:23833  .debug_str:0000000000010233 .LASF1469
C:\Users\CYMR90~1\AppData\Local\Temp\cc3o48Uk.s:21953  .debug_str:000000000000892f .LASF1470
C:\Users\CYMR90~1\AppData\Local\Temp\cc3o48Uk.s:24127  .debug_str:00000000000114b4 .LASF1471
C:\Users\CYMR90~1\AppData\Local\Temp\cc3o48Uk.s:25708  .debug_str:0000000000017c0a .LASF1472
C:\Users\CYMR90~1\AppData\Local\Temp\cc3o48Uk.s:28990  .debug_str:0000000000024aae .LASF1473
C:\Users\CYMR90~1\AppData\Local\Temp\cc3o48Uk.s:29618  .debug_str:0000000000027379 .LASF1474
C:\Users\CYMR90~1\AppData\Local\Temp\cc3o48Uk.s:20003  .debug_str:0000000000000c7c .LASF1475
C:\Users\CYMR90~1\AppData\Local\Temp\cc3o48Uk.s:21883  .debug_str:00000000000084c2 .LASF1476
C:\Users\CYMR90~1\AppData\Local\Temp\cc3o48Uk.s:20503  .debug_str:0000000000002bf5 .LASF1477
C:\Users\CYMR90~1\AppData\Local\Temp\cc3o48Uk.s:29802  .debug_str:0000000000027f81 .LASF1478
C:\Users\CYMR90~1\AppData\Local\Temp\cc3o48Uk.s:28838  .debug_str:000000000002407c .LASF1479
C:\Users\CYMR90~1\AppData\Local\Temp\cc3o48Uk.s:20621  .debug_str:0000000000003350 .LASF1480
C:\Users\CYMR90~1\AppData\Local\Temp\cc3o48Uk.s:22849  .debug_str:000000000000c477 .LASF1481
C:\Users\CYMR90~1\AppData\Local\Temp\cc3o48Uk.s:28960  .debug_str:00000000000248e3 .LASF1482
C:\Users\CYMR90~1\AppData\Local\Temp\cc3o48Uk.s:22195  .debug_str:0000000000009863 .LASF1483
C:\Users\CYMR90~1\AppData\Local\Temp\cc3o48Uk.s:20999  .debug_str:0000000000004c5e .LASF1484
C:\Users\CYMR90~1\AppData\Local\Temp\cc3o48Uk.s:23411  .debug_str:000000000000e7f1 .LASF1485
C:\Users\CYMR90~1\AppData\Local\Temp\cc3o48Uk.s:24795  .debug_str:0000000000014054 .LASF1486
C:\Users\CYMR90~1\AppData\Local\Temp\cc3o48Uk.s:26416  .debug_str:000000000001aae9 .LASF1487
C:\Users\CYMR90~1\AppData\Local\Temp\cc3o48Uk.s:19837  .debug_str:000000000000024c .LASF1488
C:\Users\CYMR90~1\AppData\Local\Temp\cc3o48Uk.s:25193  .debug_str:0000000000015891 .LASF1489
C:\Users\CYMR90~1\AppData\Local\Temp\cc3o48Uk.s:23217  .debug_str:000000000000dbf6 .LASF1490
C:\Users\CYMR90~1\AppData\Local\Temp\cc3o48Uk.s:30034  .debug_str:0000000000028ede .LASF1491
C:\Users\CYMR90~1\AppData\Local\Temp\cc3o48Uk.s:20473  .debug_str:00000000000029e7 .LASF1492
C:\Users\CYMR90~1\AppData\Local\Temp\cc3o48Uk.s:28020  .debug_str:0000000000020f46 .LASF1493
C:\Users\CYMR90~1\AppData\Local\Temp\cc3o48Uk.s:30260  .debug_str:0000000000029c55 .LASF1494
C:\Users\CYMR90~1\AppData\Local\Temp\cc3o48Uk.s:21633  .debug_str:00000000000073ae .LASF1495
C:\Users\CYMR90~1\AppData\Local\Temp\cc3o48Uk.s:22611  .debug_str:000000000000b40e .LASF1496
C:\Users\CYMR90~1\AppData\Local\Temp\cc3o48Uk.s:30006  .debug_str:0000000000028d11 .LASF1497
C:\Users\CYMR90~1\AppData\Local\Temp\cc3o48Uk.s:21429  .debug_str:0000000000006641 .LASF1498
C:\Users\CYMR90~1\AppData\Local\Temp\cc3o48Uk.s:22289  .debug_str:0000000000009e43 .LASF1499
C:\Users\CYMR90~1\AppData\Local\Temp\cc3o48Uk.s:30956  .debug_str:000000000002c8d5 .LASF1500
C:\Users\CYMR90~1\AppData\Local\Temp\cc3o48Uk.s:30174  .debug_str:0000000000029736 .LASF1501
C:\Users\CYMR90~1\AppData\Local\Temp\cc3o48Uk.s:27922  .debug_str:000000000002095b .LASF1502
C:\Users\CYMR90~1\AppData\Local\Temp\cc3o48Uk.s:21409  .debug_str:0000000000006510 .LASF1503
C:\Users\CYMR90~1\AppData\Local\Temp\cc3o48Uk.s:22955  .debug_str:000000000000cbb0 .LASF1504
C:\Users\CYMR90~1\AppData\Local\Temp\cc3o48Uk.s:27302  .debug_str:000000000001e38f .LASF1505
C:\Users\CYMR90~1\AppData\Local\Temp\cc3o48Uk.s:26622  .debug_str:000000000001b7ec .LASF1506
C:\Users\CYMR90~1\AppData\Local\Temp\cc3o48Uk.s:23529  .debug_str:000000000000ef27 .LASF1507
C:\Users\CYMR90~1\AppData\Local\Temp\cc3o48Uk.s:28124  .debug_str:00000000000215e6 .LASF1508
C:\Users\CYMR90~1\AppData\Local\Temp\cc3o48Uk.s:24297  .debug_str:0000000000012064 .LASF1509
C:\Users\CYMR90~1\AppData\Local\Temp\cc3o48Uk.s:29910  .debug_str:0000000000028732 .LASF1510
C:\Users\CYMR90~1\AppData\Local\Temp\cc3o48Uk.s:28700  .debug_str:000000000002382b .LASF1511
C:\Users\CYMR90~1\AppData\Local\Temp\cc3o48Uk.s:20665  .debug_str:0000000000003603 .LASF1512
C:\Users\CYMR90~1\AppData\Local\Temp\cc3o48Uk.s:25257  .debug_str:0000000000015d45 .LASF1513
C:\Users\CYMR90~1\AppData\Local\Temp\cc3o48Uk.s:29114  .debug_str:000000000002533c .LASF1514
C:\Users\CYMR90~1\AppData\Local\Temp\cc3o48Uk.s:27522  .debug_str:000000000001f128 .LASF1515
C:\Users\CYMR90~1\AppData\Local\Temp\cc3o48Uk.s:30688  .debug_str:000000000002b6c5 .LASF1516
C:\Users\CYMR90~1\AppData\Local\Temp\cc3o48Uk.s:27352  .debug_str:000000000001e6ab .LASF1517
C:\Users\CYMR90~1\AppData\Local\Temp\cc3o48Uk.s:29344  .debug_str:000000000002626f .LASF1518
C:\Users\CYMR90~1\AppData\Local\Temp\cc3o48Uk.s:24287  .debug_str:0000000000011ff3 .LASF1519
C:\Users\CYMR90~1\AppData\Local\Temp\cc3o48Uk.s:27748  .debug_str:000000000001fe72 .LASF1520
C:\Users\CYMR90~1\AppData\Local\Temp\cc3o48Uk.s:29198  .debug_str:0000000000025965 .LASF1521
C:\Users\CYMR90~1\AppData\Local\Temp\cc3o48Uk.s:28058  .debug_str:000000000002115c .LASF1522
C:\Users\CYMR90~1\AppData\Local\Temp\cc3o48Uk.s:26078  .debug_str:000000000001942a .LASF1523
C:\Users\CYMR90~1\AppData\Local\Temp\cc3o48Uk.s:28702  .debug_str:0000000000023841 .LASF1524
C:\Users\CYMR90~1\AppData\Local\Temp\cc3o48Uk.s:21073  .debug_str:00000000000050c3 .LASF1525
C:\Users\CYMR90~1\AppData\Local\Temp\cc3o48Uk.s:26736  .debug_str:000000000001bf09 .LASF1526
C:\Users\CYMR90~1\AppData\Local\Temp\cc3o48Uk.s:22871  .debug_str:000000000000c5d9 .LASF1527
C:\Users\CYMR90~1\AppData\Local\Temp\cc3o48Uk.s:28458  .debug_str:000000000002299f .LASF1528
C:\Users\CYMR90~1\AppData\Local\Temp\cc3o48Uk.s:29702  .debug_str:000000000002786a .LASF1529
C:\Users\CYMR90~1\AppData\Local\Temp\cc3o48Uk.s:28952  .debug_str:00000000000247c1 .LASF1530
C:\Users\CYMR90~1\AppData\Local\Temp\cc3o48Uk.s:29014  .debug_str:0000000000024c20 .LASF1531
C:\Users\CYMR90~1\AppData\Local\Temp\cc3o48Uk.s:20819  .debug_str:0000000000003fdb .LASF1532
C:\Users\CYMR90~1\AppData\Local\Temp\cc3o48Uk.s:26028  .debug_str:000000000001907f .LASF1533
C:\Users\CYMR90~1\AppData\Local\Temp\cc3o48Uk.s:28832  .debug_str:0000000000023f3c .LASF1534
C:\Users\CYMR90~1\AppData\Local\Temp\cc3o48Uk.s:22441  .debug_str:000000000000a815 .LASF1535
C:\Users\CYMR90~1\AppData\Local\Temp\cc3o48Uk.s:29018  .debug_str:0000000000024c92 .LASF1536
C:\Users\CYMR90~1\AppData\Local\Temp\cc3o48Uk.s:28360  .debug_str:00000000000223d2 .LASF1537
C:\Users\CYMR90~1\AppData\Local\Temp\cc3o48Uk.s:29578  .debug_str:000000000002709b .LASF1538
C:\Users\CYMR90~1\AppData\Local\Temp\cc3o48Uk.s:29470  .debug_str:00000000000269e7 .LASF1539
C:\Users\CYMR90~1\AppData\Local\Temp\cc3o48Uk.s:24175  .debug_str:00000000000118c4 .LASF1540
C:\Users\CYMR90~1\AppData\Local\Temp\cc3o48Uk.s:30200  .debug_str:00000000000298be .LASF1541
C:\Users\CYMR90~1\AppData\Local\Temp\cc3o48Uk.s:23193  .debug_str:000000000000dac0 .LASF1542
C:\Users\CYMR90~1\AppData\Local\Temp\cc3o48Uk.s:20587  .debug_str:000000000000310c .LASF1543
C:\Users\CYMR90~1\AppData\Local\Temp\cc3o48Uk.s:23749  .debug_str:000000000000fd1e .LASF1544
C:\Users\CYMR90~1\AppData\Local\Temp\cc3o48Uk.s:21811  .debug_str:0000000000008020 .LASF1545
C:\Users\CYMR90~1\AppData\Local\Temp\cc3o48Uk.s:22297  .debug_str:0000000000009ea4 .LASF1546
C:\Users\CYMR90~1\AppData\Local\Temp\cc3o48Uk.s:22925  .debug_str:000000000000c996 .LASF1547
C:\Users\CYMR90~1\AppData\Local\Temp\cc3o48Uk.s:29778  .debug_str:0000000000027d99 .LASF1548
C:\Users\CYMR90~1\AppData\Local\Temp\cc3o48Uk.s:29282  .debug_str:0000000000025e70 .LASF1549
C:\Users\CYMR90~1\AppData\Local\Temp\cc3o48Uk.s:26688  .debug_str:000000000001bb92 .LASF1550
C:\Users\CYMR90~1\AppData\Local\Temp\cc3o48Uk.s:24049  .debug_str:0000000000010fe7 .LASF1551
C:\Users\CYMR90~1\AppData\Local\Temp\cc3o48Uk.s:26656  .debug_str:000000000001b9b9 .LASF1552
C:\Users\CYMR90~1\AppData\Local\Temp\cc3o48Uk.s:20073  .debug_str:000000000000111a .LASF1553
C:\Users\CYMR90~1\AppData\Local\Temp\cc3o48Uk.s:20377  .debug_str:00000000000023ad .LASF1554
C:\Users\CYMR90~1\AppData\Local\Temp\cc3o48Uk.s:27388  .debug_str:000000000001e93b .LASF1555
C:\Users\CYMR90~1\AppData\Local\Temp\cc3o48Uk.s:25980  .debug_str:0000000000018d92 .LASF1556
C:\Users\CYMR90~1\AppData\Local\Temp\cc3o48Uk.s:23585  .debug_str:000000000000f2c3 .LASF1557
C:\Users\CYMR90~1\AppData\Local\Temp\cc3o48Uk.s:30286  .debug_str:0000000000029d9e .LASF1558
C:\Users\CYMR90~1\AppData\Local\Temp\cc3o48Uk.s:23893  .debug_str:0000000000010696 .LASF1559
C:\Users\CYMR90~1\AppData\Local\Temp\cc3o48Uk.s:28712  .debug_str:00000000000238ba .LASF1560
C:\Users\CYMR90~1\AppData\Local\Temp\cc3o48Uk.s:29144  .debug_str:0000000000025558 .LASF1561
C:\Users\CYMR90~1\AppData\Local\Temp\cc3o48Uk.s:23999  .debug_str:0000000000010d20 .LASF1562
C:\Users\CYMR90~1\AppData\Local\Temp\cc3o48Uk.s:20667  .debug_str:0000000000003621 .LASF1563
C:\Users\CYMR90~1\AppData\Local\Temp\cc3o48Uk.s:30788  .debug_str:000000000002bd6b .LASF1564
C:\Users\CYMR90~1\AppData\Local\Temp\cc3o48Uk.s:21437  .debug_str:00000000000066aa .LASF1565
C:\Users\CYMR90~1\AppData\Local\Temp\cc3o48Uk.s:27094  .debug_str:000000000001d642 .LASF1566
C:\Users\CYMR90~1\AppData\Local\Temp\cc3o48Uk.s:26370  .debug_str:000000000001a784 .LASF1567
C:\Users\CYMR90~1\AppData\Local\Temp\cc3o48Uk.s:27858  .debug_str:00000000000204ed .LASF1568
C:\Users\CYMR90~1\AppData\Local\Temp\cc3o48Uk.s:24173  .debug_str:000000000001181d .LASF1569
C:\Users\CYMR90~1\AppData\Local\Temp\cc3o48Uk.s:29170  .debug_str:000000000002572e .LASF1570
C:\Users\CYMR90~1\AppData\Local\Temp\cc3o48Uk.s:19903  .debug_str:00000000000005e3 .LASF1571
C:\Users\CYMR90~1\AppData\Local\Temp\cc3o48Uk.s:21123  .debug_str:00000000000053dd .LASF1572
C:\Users\CYMR90~1\AppData\Local\Temp\cc3o48Uk.s:24991  .debug_str:0000000000014cd3 .LASF1573
C:\Users\CYMR90~1\AppData\Local\Temp\cc3o48Uk.s:29894  .debug_str:0000000000028646 .LASF1574
C:\Users\CYMR90~1\AppData\Local\Temp\cc3o48Uk.s:25474  .debug_str:0000000000016d10 .LASF1575
C:\Users\CYMR90~1\AppData\Local\Temp\cc3o48Uk.s:23559  .debug_str:000000000000f101 .LASF1576
C:\Users\CYMR90~1\AppData\Local\Temp\cc3o48Uk.s:23181  .debug_str:000000000000d9df .LASF1577
C:\Users\CYMR90~1\AppData\Local\Temp\cc3o48Uk.s:30394  .debug_str:000000000002a435 .LASF1578
C:\Users\CYMR90~1\AppData\Local\Temp\cc3o48Uk.s:20389  .debug_str:000000000000244a .LASF1579
C:\Users\CYMR90~1\AppData\Local\Temp\cc3o48Uk.s:26938  .debug_str:000000000001cbb3 .LASF1580
C:\Users\CYMR90~1\AppData\Local\Temp\cc3o48Uk.s:22409  .debug_str:000000000000a5e9 .LASF1581
C:\Users\CYMR90~1\AppData\Local\Temp\cc3o48Uk.s:23107  .debug_str:000000000000d5c1 .LASF1582
C:\Users\CYMR90~1\AppData\Local\Temp\cc3o48Uk.s:21801  .debug_str:0000000000007ef4 .LASF1583
C:\Users\CYMR90~1\AppData\Local\Temp\cc3o48Uk.s:29580  .debug_str:00000000000270b9 .LASF1584
C:\Users\CYMR90~1\AppData\Local\Temp\cc3o48Uk.s:27196  .debug_str:000000000001dcb1 .LASF1585
C:\Users\CYMR90~1\AppData\Local\Temp\cc3o48Uk.s:31010  .debug_str:000000000002cbcf .LASF1586
C:\Users\CYMR90~1\AppData\Local\Temp\cc3o48Uk.s:23079  .debug_str:000000000000d358 .LASF1587
C:\Users\CYMR90~1\AppData\Local\Temp\cc3o48Uk.s:21761  .debug_str:0000000000007bdd .LASF1588
C:\Users\CYMR90~1\AppData\Local\Temp\cc3o48Uk.s:25449  .debug_str:0000000000016961 .LASF1589
C:\Users\CYMR90~1\AppData\Local\Temp\cc3o48Uk.s:22629  .debug_str:000000000000b537 .LASF1590
C:\Users\CYMR90~1\AppData\Local\Temp\cc3o48Uk.s:25371  .debug_str:00000000000163df .LASF1591
C:\Users\CYMR90~1\AppData\Local\Temp\cc3o48Uk.s:22003  .debug_str:0000000000008bf8 .LASF1592
C:\Users\CYMR90~1\AppData\Local\Temp\cc3o48Uk.s:24551  .debug_str:00000000000130da .LASF1593
C:\Users\CYMR90~1\AppData\Local\Temp\cc3o48Uk.s:23885  .debug_str:0000000000010567 .LASF1594
C:\Users\CYMR90~1\AppData\Local\Temp\cc3o48Uk.s:29812  .debug_str:0000000000028019 .LASF1595
C:\Users\CYMR90~1\AppData\Local\Temp\cc3o48Uk.s:20039  .debug_str:0000000000000ebb .LASF1596
C:\Users\CYMR90~1\AppData\Local\Temp\cc3o48Uk.s:26964  .debug_str:000000000001cd7b .LASF1597
C:\Users\CYMR90~1\AppData\Local\Temp\cc3o48Uk.s:20925  .debug_str:000000000000476a .LASF1598
C:\Users\CYMR90~1\AppData\Local\Temp\cc3o48Uk.s:29090  .debug_str:0000000000025146 .LASF1599
C:\Users\CYMR90~1\AppData\Local\Temp\cc3o48Uk.s:20179  .debug_str:0000000000001787 .LASF1600
C:\Users\CYMR90~1\AppData\Local\Temp\cc3o48Uk.s:23641  .debug_str:000000000000f5e7 .LASF1601
C:\Users\CYMR90~1\AppData\Local\Temp\cc3o48Uk.s:28082  .debug_str:00000000000212c8 .LASF1602
C:\Users\CYMR90~1\AppData\Local\Temp\cc3o48Uk.s:26986  .debug_str:000000000001cf60 .LASF1603
C:\Users\CYMR90~1\AppData\Local\Temp\cc3o48Uk.s:26882  .debug_str:000000000001c798 .LASF1604
C:\Users\CYMR90~1\AppData\Local\Temp\cc3o48Uk.s:29070  .debug_str:0000000000024f85 .LASF1605
C:\Users\CYMR90~1\AppData\Local\Temp\cc3o48Uk.s:28992  .debug_str:0000000000024ac4 .LASF1606
C:\Users\CYMR90~1\AppData\Local\Temp\cc3o48Uk.s:28946  .debug_str:000000000002476d .LASF1607
C:\Users\CYMR90~1\AppData\Local\Temp\cc3o48Uk.s:25924  .debug_str:0000000000018964 .LASF1608
C:\Users\CYMR90~1\AppData\Local\Temp\cc3o48Uk.s:20903  .debug_str:00000000000045e3 .LASF1609
C:\Users\CYMR90~1\AppData\Local\Temp\cc3o48Uk.s:28292  .debug_str:0000000000022002 .LASF1610
C:\Users\CYMR90~1\AppData\Local\Temp\cc3o48Uk.s:30920  .debug_str:000000000002c63e .LASF1611
C:\Users\CYMR90~1\AppData\Local\Temp\cc3o48Uk.s:26830  .debug_str:000000000001c484 .LASF1612
C:\Users\CYMR90~1\AppData\Local\Temp\cc3o48Uk.s:24873  .debug_str:0000000000014534 .LASF1613
C:\Users\CYMR90~1\AppData\Local\Temp\cc3o48Uk.s:22283  .debug_str:0000000000009de5 .LASF1614
C:\Users\CYMR90~1\AppData\Local\Temp\cc3o48Uk.s:26516  .debug_str:000000000001b16c .LASF1615
C:\Users\CYMR90~1\AppData\Local\Temp\cc3o48Uk.s:28182  .debug_str:0000000000021944 .LASF1616
C:\Users\CYMR90~1\AppData\Local\Temp\cc3o48Uk.s:24963  .debug_str:0000000000014ab4 .LASF1617
C:\Users\CYMR90~1\AppData\Local\Temp\cc3o48Uk.s:26894  .debug_str:000000000001c90c .LASF1618
C:\Users\CYMR90~1\AppData\Local\Temp\cc3o48Uk.s:20951  .debug_str:0000000000004983 .LASF1619
C:\Users\CYMR90~1\AppData\Local\Temp\cc3o48Uk.s:22661  .debug_str:000000000000b7ca .LASF1620
C:\Users\CYMR90~1\AppData\Local\Temp\cc3o48Uk.s:23483  .debug_str:000000000000ec8a .LASF1621
C:\Users\CYMR90~1\AppData\Local\Temp\cc3o48Uk.s:20529  .debug_str:0000000000002d7b .LASF1622
C:\Users\CYMR90~1\AppData\Local\Temp\cc3o48Uk.s:27888  .debug_str:0000000000020703 .LASF1623
C:\Users\CYMR90~1\AppData\Local\Temp\cc3o48Uk.s:24553  .debug_str:0000000000013175 .LASF1624
C:\Users\CYMR90~1\AppData\Local\Temp\cc3o48Uk.s:22757  .debug_str:000000000000beba .LASF1625
C:\Users\CYMR90~1\AppData\Local\Temp\cc3o48Uk.s:28578  .debug_str:0000000000023090 .LASF1626
C:\Users\CYMR90~1\AppData\Local\Temp\cc3o48Uk.s:21433  .debug_str:000000000000667c .LASF1627
C:\Users\CYMR90~1\AppData\Local\Temp\cc3o48Uk.s:27642  .debug_str:000000000001f817 .LASF1628
C:\Users\CYMR90~1\AppData\Local\Temp\cc3o48Uk.s:22523  .debug_str:000000000000ae18 .LASF1629
C:\Users\CYMR90~1\AppData\Local\Temp\cc3o48Uk.s:28370  .debug_str:000000000002243e .LASF1630
C:\Users\CYMR90~1\AppData\Local\Temp\cc3o48Uk.s:21989  .debug_str:0000000000008b49 .LASF1631
C:\Users\CYMR90~1\AppData\Local\Temp\cc3o48Uk.s:20139  .debug_str:0000000000001526 .LASF1632
C:\Users\CYMR90~1\AppData\Local\Temp\cc3o48Uk.s:26634  .debug_str:000000000001b8b8 .LASF1633
C:\Users\CYMR90~1\AppData\Local\Temp\cc3o48Uk.s:25614  .debug_str:00000000000175eb .LASF1634
C:\Users\CYMR90~1\AppData\Local\Temp\cc3o48Uk.s:22739  .debug_str:000000000000bd43 .LASF1635
C:\Users\CYMR90~1\AppData\Local\Temp\cc3o48Uk.s:22843  .debug_str:000000000000c431 .LASF1636
C:\Users\CYMR90~1\AppData\Local\Temp\cc3o48Uk.s:26488  .debug_str:000000000001afb0 .LASF1637
C:\Users\CYMR90~1\AppData\Local\Temp\cc3o48Uk.s:28794  .debug_str:0000000000023d45 .LASF1638
C:\Users\CYMR90~1\AppData\Local\Temp\cc3o48Uk.s:22639  .debug_str:000000000000b65c .LASF1639
C:\Users\CYMR90~1\AppData\Local\Temp\cc3o48Uk.s:25822  .debug_str:0000000000018301 .LASF1640
C:\Users\CYMR90~1\AppData\Local\Temp\cc3o48Uk.s:23839  .debug_str:000000000001028f .LASF1641
C:\Users\CYMR90~1\AppData\Local\Temp\cc3o48Uk.s:23861  .debug_str:00000000000103f6 .LASF1642
C:\Users\CYMR90~1\AppData\Local\Temp\cc3o48Uk.s:24183  .debug_str:0000000000011965 .LASF1643
C:\Users\CYMR90~1\AppData\Local\Temp\cc3o48Uk.s:27782  .debug_str:00000000000200b9 .LASF1644
C:\Users\CYMR90~1\AppData\Local\Temp\cc3o48Uk.s:30888  .debug_str:000000000002c48c .LASF1645
C:\Users\CYMR90~1\AppData\Local\Temp\cc3o48Uk.s:20519  .debug_str:0000000000002cf3 .LASF1646
C:\Users\CYMR90~1\AppData\Local\Temp\cc3o48Uk.s:25409  .debug_str:0000000000016698 .LASF1647
C:\Users\CYMR90~1\AppData\Local\Temp\cc3o48Uk.s:25518  .debug_str:0000000000016fdc .LASF1648
C:\Users\CYMR90~1\AppData\Local\Temp\cc3o48Uk.s:20325  .debug_str:00000000000020d0 .LASF1649
C:\Users\CYMR90~1\AppData\Local\Temp\cc3o48Uk.s:21829  .debug_str:000000000000816e .LASF1650
C:\Users\CYMR90~1\AppData\Local\Temp\cc3o48Uk.s:28594  .debug_str:0000000000023190 .LASF1651
C:\Users\CYMR90~1\AppData\Local\Temp\cc3o48Uk.s:23935  .debug_str:0000000000010898 .LASF1652
C:\Users\CYMR90~1\AppData\Local\Temp\cc3o48Uk.s:21721  .debug_str:000000000000792d .LASF1653
C:\Users\CYMR90~1\AppData\Local\Temp\cc3o48Uk.s:20079  .debug_str:000000000000118b .LASF1654
C:\Users\CYMR90~1\AppData\Local\Temp\cc3o48Uk.s:25722  .debug_str:0000000000017ccd .LASF1657
C:\Users\CYMR90~1\AppData\Local\Temp\cc3o48Uk.s:30448  .debug_str:000000000002a771 .LASF1658
C:\Users\CYMR90~1\AppData\Local\Temp\cc3o48Uk.s:23967  .debug_str:0000000000010b8a .LASF1659
C:\Users\CYMR90~1\AppData\Local\Temp\cc3o48Uk.s:26052  .debug_str:00000000000192c6 .LASF1660
C:\Users\CYMR90~1\AppData\Local\Temp\cc3o48Uk.s:30684  .debug_str:000000000002b686 .LASF1661
C:\Users\CYMR90~1\AppData\Local\Temp\cc3o48Uk.s:30718  .debug_str:000000000002b8ff .LASF1662
C:\Users\CYMR90~1\AppData\Local\Temp\cc3o48Uk.s:27972  .debug_str:0000000000020c83 .LASF1663
C:\Users\CYMR90~1\AppData\Local\Temp\cc3o48Uk.s:24923  .debug_str:0000000000014830 .LASF1664
C:\Users\CYMR90~1\AppData\Local\Temp\cc3o48Uk.s:27142  .debug_str:000000000001d97d .LASF1665
C:\Users\CYMR90~1\AppData\Local\Temp\cc3o48Uk.s:28060  .debug_str:0000000000021177 .LASF1666
C:\Users\CYMR90~1\AppData\Local\Temp\cc3o48Uk.s:23677  .debug_str:000000000000f884 .LASF1667
C:\Users\CYMR90~1\AppData\Local\Temp\cc3o48Uk.s:23395  .debug_str:000000000000e6d9 .LASF1668
C:\Users\CYMR90~1\AppData\Local\Temp\cc3o48Uk.s:20747  .debug_str:0000000000003b3b .LASF1669
C:\Users\CYMR90~1\AppData\Local\Temp\cc3o48Uk.s:22023  .debug_str:0000000000008ddd .LASF1670
C:\Users\CYMR90~1\AppData\Local\Temp\cc3o48Uk.s:20965  .debug_str:0000000000004a4c .LASF1671
C:\Users\CYMR90~1\AppData\Local\Temp\cc3o48Uk.s:19883  .debug_str:00000000000004e7 .LASF1672
C:\Users\CYMR90~1\AppData\Local\Temp\cc3o48Uk.s:24849  .debug_str:0000000000014361 .LASF1673
C:\Users\CYMR90~1\AppData\Local\Temp\cc3o48Uk.s:24249  .debug_str:0000000000011d27 .LASF1674
C:\Users\CYMR90~1\AppData\Local\Temp\cc3o48Uk.s:23435  .debug_str:000000000000e94e .LASF1675
C:\Users\CYMR90~1\AppData\Local\Temp\cc3o48Uk.s:28958  .debug_str:00000000000248c9 .LASF1676
C:\Users\CYMR90~1\AppData\Local\Temp\cc3o48Uk.s:24379  .debug_str:00000000000125aa .LASF1677
C:\Users\CYMR90~1\AppData\Local\Temp\cc3o48Uk.s:30890  .debug_str:000000000002c4a1 .LASF1678
C:\Users\CYMR90~1\AppData\Local\Temp\cc3o48Uk.s:20435  .debug_str:0000000000002736 .LASF1679
C:\Users\CYMR90~1\AppData\Local\Temp\cc3o48Uk.s:23919  .debug_str:00000000000107e5 .LASF1680
C:\Users\CYMR90~1\AppData\Local\Temp\cc3o48Uk.s:25101  .debug_str:000000000001535b .LASF1681
C:\Users\CYMR90~1\AppData\Local\Temp\cc3o48Uk.s:23767  .debug_str:000000000000fe5f .LASF1682
C:\Users\CYMR90~1\AppData\Local\Temp\cc3o48Uk.s:26472  .debug_str:000000000001ae2e .LASF1683
C:\Users\CYMR90~1\AppData\Local\Temp\cc3o48Uk.s:28542  .debug_str:0000000000022eca .LASF1684
C:\Users\CYMR90~1\AppData\Local\Temp\cc3o48Uk.s:29462  .debug_str:000000000002698c .LASF1685
C:\Users\CYMR90~1\AppData\Local\Temp\cc3o48Uk.s:23917  .debug_str:00000000000107cd .LASF1686
C:\Users\CYMR90~1\AppData\Local\Temp\cc3o48Uk.s:25025  .debug_str:0000000000014ef2 .LASF1687
C:\Users\CYMR90~1\AppData\Local\Temp\cc3o48Uk.s:30190  .debug_str:0000000000029813 .LASF1688
C:\Users\CYMR90~1\AppData\Local\Temp\cc3o48Uk.s:28728  .debug_str:00000000000239c6 .LASF1689
C:\Users\CYMR90~1\AppData\Local\Temp\cc3o48Uk.s:26596  .debug_str:000000000001b645 .LASF1690
C:\Users\CYMR90~1\AppData\Local\Temp\cc3o48Uk.s:24645  .debug_str:00000000000136e7 .LASF1691
C:\Users\CYMR90~1\AppData\Local\Temp\cc3o48Uk.s:28274  .debug_str:0000000000021efe .LASF1692
C:\Users\CYMR90~1\AppData\Local\Temp\cc3o48Uk.s:25910  .debug_str:0000000000018898 .LASF1693
C:\Users\CYMR90~1\AppData\Local\Temp\cc3o48Uk.s:21823  .debug_str:00000000000080fa .LASF1694
C:\Users\CYMR90~1\AppData\Local\Temp\cc3o48Uk.s:23835  .debug_str:0000000000010243 .LASF1695
C:\Users\CYMR90~1\AppData\Local\Temp\cc3o48Uk.s:25692  .debug_str:0000000000017b0d .LASF1696
C:\Users\CYMR90~1\AppData\Local\Temp\cc3o48Uk.s:24971  .debug_str:0000000000014b47 .LASF1697
C:\Users\CYMR90~1\AppData\Local\Temp\cc3o48Uk.s:27536  .debug_str:000000000001f1e1 .LASF1698
C:\Users\CYMR90~1\AppData\Local\Temp\cc3o48Uk.s:26088  .debug_str:00000000000194f1 .LASF1699
C:\Users\CYMR90~1\AppData\Local\Temp\cc3o48Uk.s:27984  .debug_str:0000000000020d37 .LASF1700
C:\Users\CYMR90~1\AppData\Local\Temp\cc3o48Uk.s:27532  .debug_str:000000000001f1a4 .LASF1701
C:\Users\CYMR90~1\AppData\Local\Temp\cc3o48Uk.s:28774  .debug_str:0000000000023c1b .LASF1702
C:\Users\CYMR90~1\AppData\Local\Temp\cc3o48Uk.s:28734  .debug_str:0000000000023a15 .LASF1703
C:\Users\CYMR90~1\AppData\Local\Temp\cc3o48Uk.s:28266  .debug_str:0000000000021e7e .LASF1704
C:\Users\CYMR90~1\AppData\Local\Temp\cc3o48Uk.s:26718  .debug_str:000000000001bdb5 .LASF1705
C:\Users\CYMR90~1\AppData\Local\Temp\cc3o48Uk.s:28126  .debug_str:00000000000215fa .LASF1706
C:\Users\CYMR90~1\AppData\Local\Temp\cc3o48Uk.s:25596  .debug_str:00000000000174b0 .LASF1707
C:\Users\CYMR90~1\AppData\Local\Temp\cc3o48Uk.s:24555  .debug_str:0000000000013188 .LASF1708
C:\Users\CYMR90~1\AppData\Local\Temp\cc3o48Uk.s:27282  .debug_str:000000000001e277 .LASF1709
C:\Users\CYMR90~1\AppData\Local\Temp\cc3o48Uk.s:25824  .debug_str:0000000000018316 .LASF1710
C:\Users\CYMR90~1\AppData\Local\Temp\cc3o48Uk.s:22741  .debug_str:000000000000bd58 .LASF1711
C:\Users\CYMR90~1\AppData\Local\Temp\cc3o48Uk.s:24201  .debug_str:0000000000011a51 .LASF1712
C:\Users\CYMR90~1\AppData\Local\Temp\cc3o48Uk.s:21359  .debug_str:0000000000006209 .LASF1713
C:\Users\CYMR90~1\AppData\Local\Temp\cc3o48Uk.s:23683  .debug_str:000000000000f8e1 .LASF1714
C:\Users\CYMR90~1\AppData\Local\Temp\cc3o48Uk.s:20641  .debug_str:00000000000034a1 .LASF1715
C:\Users\CYMR90~1\AppData\Local\Temp\cc3o48Uk.s:23915  .debug_str:00000000000107a1 .LASF1716
C:\Users\CYMR90~1\AppData\Local\Temp\cc3o48Uk.s:27252  .debug_str:000000000001e09e .LASF1717
C:\Users\CYMR90~1\AppData\Local\Temp\cc3o48Uk.s:25786  .debug_str:00000000000180c3 .LASF1718
C:\Users\CYMR90~1\AppData\Local\Temp\cc3o48Uk.s:24149  .debug_str:0000000000011609 .LASF1719
C:\Users\CYMR90~1\AppData\Local\Temp\cc3o48Uk.s:26150  .debug_str:0000000000019860 .LASF1720
C:\Users\CYMR90~1\AppData\Local\Temp\cc3o48Uk.s:24637  .debug_str:0000000000013664 .LASF1721
C:\Users\CYMR90~1\AppData\Local\Temp\cc3o48Uk.s:20363  .debug_str:00000000000022f4 .LASF1722
C:\Users\CYMR90~1\AppData\Local\Temp\cc3o48Uk.s:26480  .debug_str:000000000001aecd .LASF1723
C:\Users\CYMR90~1\AppData\Local\Temp\cc3o48Uk.s:20427  .debug_str:00000000000026c0 .LASF1724
C:\Users\CYMR90~1\AppData\Local\Temp\cc3o48Uk.s:25169  .debug_str:0000000000015721 .LASF1725
C:\Users\CYMR90~1\AppData\Local\Temp\cc3o48Uk.s:29982  .debug_str:0000000000028b6b .LASF1726
C:\Users\CYMR90~1\AppData\Local\Temp\cc3o48Uk.s:21251  .debug_str:0000000000005b99 .LASF1727
C:\Users\CYMR90~1\AppData\Local\Temp\cc3o48Uk.s:29620  .debug_str:000000000002738d .LASF1728
C:\Users\CYMR90~1\AppData\Local\Temp\cc3o48Uk.s:26936  .debug_str:000000000001cb7c .LASF1729
C:\Users\CYMR90~1\AppData\Local\Temp\cc3o48Uk.s:30792  .debug_str:000000000002be2a .LASF1730
C:\Users\CYMR90~1\AppData\Local\Temp\cc3o48Uk.s:28914  .debug_str:0000000000024559 .LASF1731
C:\Users\CYMR90~1\AppData\Local\Temp\cc3o48Uk.s:24085  .debug_str:000000000001120b .LASF1732
C:\Users\CYMR90~1\AppData\Local\Temp\cc3o48Uk.s:22139  .debug_str:000000000000946d .LASF1733
C:\Users\CYMR90~1\AppData\Local\Temp\cc3o48Uk.s:20141  .debug_str:0000000000001539 .LASF1734
C:\Users\CYMR90~1\AppData\Local\Temp\cc3o48Uk.s:25550  .debug_str:00000000000171be .LASF1735
C:\Users\CYMR90~1\AppData\Local\Temp\cc3o48Uk.s:27710  .debug_str:000000000001fc24 .LASF1736
C:\Users\CYMR90~1\AppData\Local\Temp\cc3o48Uk.s:22131  .debug_str:00000000000093f7 .LASF1737
C:\Users\CYMR90~1\AppData\Local\Temp\cc3o48Uk.s:21847  .debug_str:000000000000827a .LASF1738
C:\Users\CYMR90~1\AppData\Local\Temp\cc3o48Uk.s:29458  .debug_str:000000000002695d .LASF1739
C:\Users\CYMR90~1\AppData\Local\Temp\cc3o48Uk.s:23459  .debug_str:000000000000eb0e .LASF1740
C:\Users\CYMR90~1\AppData\Local\Temp\cc3o48Uk.s:22473  .debug_str:000000000000aad1 .LASF1741
C:\Users\CYMR90~1\AppData\Local\Temp\cc3o48Uk.s:27560  .debug_str:000000000001f33d .LASF1742
C:\Users\CYMR90~1\AppData\Local\Temp\cc3o48Uk.s:27206  .debug_str:000000000001ddb6 .LASF1743
C:\Users\CYMR90~1\AppData\Local\Temp\cc3o48Uk.s:29734  .debug_str:0000000000027aa4 .LASF1744
C:\Users\CYMR90~1\AppData\Local\Temp\cc3o48Uk.s:21853  .debug_str:00000000000082ec .LASF1745
C:\Users\CYMR90~1\AppData\Local\Temp\cc3o48Uk.s:23741  .debug_str:000000000000fc95 .LASF1746
C:\Users\CYMR90~1\AppData\Local\Temp\cc3o48Uk.s:28778  .debug_str:0000000000023c59 .LASF1747
C:\Users\CYMR90~1\AppData\Local\Temp\cc3o48Uk.s:28378  .debug_str:00000000000224c4 .LASF1748
C:\Users\CYMR90~1\AppData\Local\Temp\cc3o48Uk.s:23913  .debug_str:000000000001077e .LASF1749
C:\Users\CYMR90~1\AppData\Local\Temp\cc3o48Uk.s:22635  .debug_str:000000000000b613 .LASF1750
C:\Users\CYMR90~1\AppData\Local\Temp\cc3o48Uk.s:25726  .debug_str:0000000000017d01 .LASF1751
C:\Users\CYMR90~1\AppData\Local\Temp\cc3o48Uk.s:21001  .debug_str:0000000000004c72 .LASF1752
C:\Users\CYMR90~1\AppData\Local\Temp\cc3o48Uk.s:26460  .debug_str:000000000001ad6a .LASF1753
C:\Users\CYMR90~1\AppData\Local\Temp\cc3o48Uk.s:26350  .debug_str:000000000001a611 .LASF1754
C:\Users\CYMR90~1\AppData\Local\Temp\cc3o48Uk.s:22901  .debug_str:000000000000c7bf .LASF1755
C:\Users\CYMR90~1\AppData\Local\Temp\cc3o48Uk.s:24445  .debug_str:0000000000012a05 .LASF1756
C:\Users\CYMR90~1\AppData\Local\Temp\cc3o48Uk.s:26552  .debug_str:000000000001b3b8 .LASF1757
C:\Users\CYMR90~1\AppData\Local\Temp\cc3o48Uk.s:23549  .debug_str:000000000000f041 .LASF1758
C:\Users\CYMR90~1\AppData\Local\Temp\cc3o48Uk.s:21661  .debug_str:0000000000007543 .LASF1759
C:\Users\CYMR90~1\AppData\Local\Temp\cc3o48Uk.s:26292  .debug_str:000000000001a13f .LASF1760
C:\Users\CYMR90~1\AppData\Local\Temp\cc3o48Uk.s:21955  .debug_str:0000000000008941 .LASF1761
C:\Users\CYMR90~1\AppData\Local\Temp\cc3o48Uk.s:20199  .debug_str:0000000000001972 .LASF1762
C:\Users\CYMR90~1\AppData\Local\Temp\cc3o48Uk.s:28972  .debug_str:000000000002496f .LASF1763
C:\Users\CYMR90~1\AppData\Local\Temp\cc3o48Uk.s:21693  .debug_str:000000000000774e .LASF1764
C:\Users\CYMR90~1\AppData\Local\Temp\cc3o48Uk.s:21375  .debug_str:000000000000631f .LASF1765
C:\Users\CYMR90~1\AppData\Local\Temp\cc3o48Uk.s:20181  .debug_str:000000000000183d .LASF1766
C:\Users\CYMR90~1\AppData\Local\Temp\cc3o48Uk.s:26662  .debug_str:000000000001ba12 .LASF1767
C:\Users\CYMR90~1\AppData\Local\Temp\cc3o48Uk.s:20239  .debug_str:0000000000001bce .LASF1768
C:\Users\CYMR90~1\AppData\Local\Temp\cc3o48Uk.s:29172  .debug_str:00000000000257bc .LASF1769
C:\Users\CYMR90~1\AppData\Local\Temp\cc3o48Uk.s:30872  .debug_str:000000000002c381 .LASF1770
C:\Users\CYMR90~1\AppData\Local\Temp\cc3o48Uk.s:22791  .debug_str:000000000000c0cb .LASF1771
C:\Users\CYMR90~1\AppData\Local\Temp\cc3o48Uk.s:21383  .debug_str:0000000000006394 .LASF1772
C:\Users\CYMR90~1\AppData\Local\Temp\cc3o48Uk.s:19919  .debug_str:0000000000000703 .LASF1773
C:\Users\CYMR90~1\AppData\Local\Temp\cc3o48Uk.s:19969  .debug_str:0000000000000a00 .LASF1774
C:\Users\CYMR90~1\AppData\Local\Temp\cc3o48Uk.s:29884  .debug_str:0000000000028587 .LASF1775
C:\Users\CYMR90~1\AppData\Local\Temp\cc3o48Uk.s:24865  .debug_str:00000000000144a6 .LASF1776
C:\Users\CYMR90~1\AppData\Local\Temp\cc3o48Uk.s:23625  .debug_str:000000000000f500 .LASF1777
C:\Users\CYMR90~1\AppData\Local\Temp\cc3o48Uk.s:25718  .debug_str:0000000000017c9c .LASF1778
C:\Users\CYMR90~1\AppData\Local\Temp\cc3o48Uk.s:21097  .debug_str:0000000000005245 .LASF1779
C:\Users\CYMR90~1\AppData\Local\Temp\cc3o48Uk.s:29208  .debug_str:00000000000259ff .LASF1780
C:\Users\CYMR90~1\AppData\Local\Temp\cc3o48Uk.s:28414  .debug_str:0000000000022721 .LASF1781
C:\Users\CYMR90~1\AppData\Local\Temp\cc3o48Uk.s:26944  .debug_str:000000000001cc1e .LASF1784
C:\Users\CYMR90~1\AppData\Local\Temp\cc3o48Uk.s:26100  .debug_str:000000000001959d .LASF1785
C:\Users\CYMR90~1\AppData\Local\Temp\cc3o48Uk.s:25946  .debug_str:0000000000018acf .LASF1786
C:\Users\CYMR90~1\AppData\Local\Temp\cc3o48Uk.s:24911  .debug_str:000000000001478b .LASF1787
C:\Users\CYMR90~1\AppData\Local\Temp\cc3o48Uk.s:30322  .debug_str:0000000000029fbd .LASF1788
C:\Users\CYMR90~1\AppData\Local\Temp\cc3o48Uk.s:30634  .debug_str:000000000002b324 .LASF1789
C:\Users\CYMR90~1\AppData\Local\Temp\cc3o48Uk.s:20685  .debug_str:000000000000377f .LASF1790
C:\Users\CYMR90~1\AppData\Local\Temp\cc3o48Uk.s:19833  .debug_str:00000000000001fc .LASF1791
C:\Users\CYMR90~1\AppData\Local\Temp\cc3o48Uk.s:29542  .debug_str:0000000000026e5e .LASF1792
C:\Users\CYMR90~1\AppData\Local\Temp\cc3o48Uk.s:28626  .debug_str:0000000000023349 .LASF1793
C:\Users\CYMR90~1\AppData\Local\Temp\cc3o48Uk.s:30514  .debug_str:000000000002ab43 .LASF1794
C:\Users\CYMR90~1\AppData\Local\Temp\cc3o48Uk.s:29816  .debug_str:00000000000280ea .LASF1795
C:\Users\CYMR90~1\AppData\Local\Temp\cc3o48Uk.s:24567  .debug_str:0000000000013229 .LASF1796
C:\Users\CYMR90~1\AppData\Local\Temp\cc3o48Uk.s:24853  .debug_str:00000000000143a3 .LASF1797
C:\Users\CYMR90~1\AppData\Local\Temp\cc3o48Uk.s:23971  .debug_str:0000000000010ba7 .LASF1798
C:\Users\CYMR90~1\AppData\Local\Temp\cc3o48Uk.s:22817  .debug_str:000000000000c28b .LASF1799
C:\Users\CYMR90~1\AppData\Local\Temp\cc3o48Uk.s:25630  .debug_str:0000000000017703 .LASF1800
C:\Users\CYMR90~1\AppData\Local\Temp\cc3o48Uk.s:25938  .debug_str:0000000000018a5e .LASF1801
C:\Users\CYMR90~1\AppData\Local\Temp\cc3o48Uk.s:24995  .debug_str:0000000000014d0d .LASF1802
C:\Users\CYMR90~1\AppData\Local\Temp\cc3o48Uk.s:24031  .debug_str:0000000000010ed8 .LASF1803
C:\Users\CYMR90~1\AppData\Local\Temp\cc3o48Uk.s:21679  .debug_str:0000000000007666 .LASF1804
C:\Users\CYMR90~1\AppData\Local\Temp\cc3o48Uk.s:28212  .debug_str:0000000000021b42 .LASF1805
C:\Users\CYMR90~1\AppData\Local\Temp\cc3o48Uk.s:24875  .debug_str:0000000000014558 .LASF1806
C:\Users\CYMR90~1\AppData\Local\Temp\cc3o48Uk.s:27818  .debug_str:000000000002027d .LASF1807
C:\Users\CYMR90~1\AppData\Local\Temp\cc3o48Uk.s:25019  .debug_str:0000000000014e91 .LASF1808
C:\Users\CYMR90~1\AppData\Local\Temp\cc3o48Uk.s:29808  .debug_str:0000000000027fd8 .LASF1809
C:\Users\CYMR90~1\AppData\Local\Temp\cc3o48Uk.s:27036  .debug_str:000000000001d2eb .LASF1810
C:\Users\CYMR90~1\AppData\Local\Temp\cc3o48Uk.s:25732  .debug_str:0000000000017d76 .LASF1811
C:\Users\CYMR90~1\AppData\Local\Temp\cc3o48Uk.s:20159  .debug_str:0000000000001634 .LASF1812
C:\Users\CYMR90~1\AppData\Local\Temp\cc3o48Uk.s:23925  .debug_str:000000000001082b .LASF1813
C:\Users\CYMR90~1\AppData\Local\Temp\cc3o48Uk.s:24187  .debug_str:0000000000011997 .LASF1814
C:\Users\CYMR90~1\AppData\Local\Temp\cc3o48Uk.s:27018  .debug_str:000000000001d1f3 .LASF1815
C:\Users\CYMR90~1\AppData\Local\Temp\cc3o48Uk.s:25698  .debug_str:0000000000017b7f .LASF1816
C:\Users\CYMR90~1\AppData\Local\Temp\cc3o48Uk.s:27026  .debug_str:000000000001d271 .LASF1817
C:\Users\CYMR90~1\AppData\Local\Temp\cc3o48Uk.s:27482  .debug_str:000000000001ee7c .LASF1818
C:\Users\CYMR90~1\AppData\Local\Temp\cc3o48Uk.s:23737  .debug_str:000000000000fc5d .LASF1819
C:\Users\CYMR90~1\AppData\Local\Temp\cc3o48Uk.s:27954  .debug_str:0000000000020b5e .LASF1820
C:\Users\CYMR90~1\AppData\Local\Temp\cc3o48Uk.s:21401  .debug_str:00000000000064a0 .LASF1821
C:\Users\CYMR90~1\AppData\Local\Temp\cc3o48Uk.s:21781  .debug_str:0000000000007dbe .LASF1822
C:\Users\CYMR90~1\AppData\Local\Temp\cc3o48Uk.s:27412  .debug_str:000000000001ea94 .LASF1823
C:\Users\CYMR90~1\AppData\Local\Temp\cc3o48Uk.s:30096  .debug_str:000000000002925b .LASF1824
C:\Users\CYMR90~1\AppData\Local\Temp\cc3o48Uk.s:22699  .debug_str:000000000000babd .LASF1825
C:\Users\CYMR90~1\AppData\Local\Temp\cc3o48Uk.s:28048  .debug_str:00000000000210c5 .LASF1826
C:\Users\CYMR90~1\AppData\Local\Temp\cc3o48Uk.s:30454  .debug_str:000000000002a7ab .LASF1827
C:\Users\CYMR90~1\AppData\Local\Temp\cc3o48Uk.s:23501  .debug_str:000000000000eda0 .LASF1828
C:\Users\CYMR90~1\AppData\Local\Temp\cc3o48Uk.s:23567  .debug_str:000000000000f190 .LASF1829
C:\Users\CYMR90~1\AppData\Local\Temp\cc3o48Uk.s:24325  .debug_str:000000000001223a .LASF1830
C:\Users\CYMR90~1\AppData\Local\Temp\cc3o48Uk.s:22161  .debug_str:000000000000961e .LASF1831
C:\Users\CYMR90~1\AppData\Local\Temp\cc3o48Uk.s:29488  .debug_str:0000000000026ae6 .LASF1832
C:\Users\CYMR90~1\AppData\Local\Temp\cc3o48Uk.s:22953  .debug_str:000000000000cb95 .LASF1833
C:\Users\CYMR90~1\AppData\Local\Temp\cc3o48Uk.s:21605  .debug_str:00000000000071f5 .LASF1834
C:\Users\CYMR90~1\AppData\Local\Temp\cc3o48Uk.s:25321  .debug_str:000000000001614d .LASF1835
C:\Users\CYMR90~1\AppData\Local\Temp\cc3o48Uk.s:29358  .debug_str:000000000002633e .LASF1836
C:\Users\CYMR90~1\AppData\Local\Temp\cc3o48Uk.s:25289  .debug_str:0000000000015f72 .LASF1837
C:\Users\CYMR90~1\AppData\Local\Temp\cc3o48Uk.s:26026  .debug_str:0000000000019067 .LASF1838
C:\Users\CYMR90~1\AppData\Local\Temp\cc3o48Uk.s:23975  .debug_str:0000000000010bdf .LASF1839
C:\Users\CYMR90~1\AppData\Local\Temp\cc3o48Uk.s:26972  .debug_str:000000000001ce7b .LASF1840
C:\Users\CYMR90~1\AppData\Local\Temp\cc3o48Uk.s:26256  .debug_str:0000000000019f48 .LASF1841
C:\Users\CYMR90~1\AppData\Local\Temp\cc3o48Uk.s:29050  .debug_str:0000000000024e71 .LASF1842
C:\Users\CYMR90~1\AppData\Local\Temp\cc3o48Uk.s:29442  .debug_str:0000000000026861 .LASF1843
C:\Users\CYMR90~1\AppData\Local\Temp\cc3o48Uk.s:30652  .debug_str:000000000002b487 .LASF1844
C:\Users\CYMR90~1\AppData\Local\Temp\cc3o48Uk.s:30508  .debug_str:000000000002aaf0 .LASF1845
C:\Users\CYMR90~1\AppData\Local\Temp\cc3o48Uk.s:21889  .debug_str:000000000000853c .LASF1846
C:\Users\CYMR90~1\AppData\Local\Temp\cc3o48Uk.s:27178  .debug_str:000000000001db87 .LASF1847
C:\Users\CYMR90~1\AppData\Local\Temp\cc3o48Uk.s:28318  .debug_str:0000000000022194 .LASF1848
C:\Users\CYMR90~1\AppData\Local\Temp\cc3o48Uk.s:28332  .debug_str:0000000000022251 .LASF1849
C:\Users\CYMR90~1\AppData\Local\Temp\cc3o48Uk.s:27570  .debug_str:000000000001f3de .LASF1850
C:\Users\CYMR90~1\AppData\Local\Temp\cc3o48Uk.s:21947  .debug_str:00000000000088be .LASF1851
C:\Users\CYMR90~1\AppData\Local\Temp\cc3o48Uk.s:29398  .debug_str:00000000000265b3 .LASF1852
C:\Users\CYMR90~1\AppData\Local\Temp\cc3o48Uk.s:23195  .debug_str:000000000000dadd .LASF1853
C:\Users\CYMR90~1\AppData\Local\Temp\cc3o48Uk.s:20593  .debug_str:0000000000003191 .LASF1854
C:\Users\CYMR90~1\AppData\Local\Temp\cc3o48Uk.s:27056  .debug_str:000000000001d430 .LASF1855
C:\Users\CYMR90~1\AppData\Local\Temp\cc3o48Uk.s:29660  .debug_str:00000000000275c8 .LASF1856
C:\Users\CYMR90~1\AppData\Local\Temp\cc3o48Uk.s:22029  .debug_str:0000000000008e4c .LASF1857
C:\Users\CYMR90~1\AppData\Local\Temp\cc3o48Uk.s:22883  .debug_str:000000000000c6b3 .LASF1858
C:\Users\CYMR90~1\AppData\Local\Temp\cc3o48Uk.s:29754  .debug_str:0000000000027c07 .LASF1859
C:\Users\CYMR90~1\AppData\Local\Temp\cc3o48Uk.s:25027  .debug_str:0000000000014f27 .LASF1860
C:\Users\CYMR90~1\AppData\Local\Temp\cc3o48Uk.s:25968  .debug_str:0000000000018cc3 .LASF1861
C:\Users\CYMR90~1\AppData\Local\Temp\cc3o48Uk.s:23785  .debug_str:000000000000ff57 .LASF1862
C:\Users\CYMR90~1\AppData\Local\Temp\cc3o48Uk.s:21557  .debug_str:0000000000006e7c .LASF1863
C:\Users\CYMR90~1\AppData\Local\Temp\cc3o48Uk.s:25876  .debug_str:0000000000018671 .LASF1864
C:\Users\CYMR90~1\AppData\Local\Temp\cc3o48Uk.s:21199  .debug_str:000000000000585d .LASF1865
C:\Users\CYMR90~1\AppData\Local\Temp\cc3o48Uk.s:28516  .debug_str:0000000000022d60 .LASF1866
C:\Users\CYMR90~1\AppData\Local\Temp\cc3o48Uk.s:27754  .debug_str:000000000001fed8 .LASF1867
C:\Users\CYMR90~1\AppData\Local\Temp\cc3o48Uk.s:22815  .debug_str:000000000000c25b .LASF1868
C:\Users\CYMR90~1\AppData\Local\Temp\cc3o48Uk.s:19947  .debug_str:00000000000008be .LASF1869
C:\Users\CYMR90~1\AppData\Local\Temp\cc3o48Uk.s:20301  .debug_str:0000000000001f6b .LASF1870
C:\Users\CYMR90~1\AppData\Local\Temp\cc3o48Uk.s:30042  .debug_str:0000000000028f31 .LASF1871
C:\Users\CYMR90~1\AppData\Local\Temp\cc3o48Uk.s:29150  .debug_str:00000000000255da .LASF1872
C:\Users\CYMR90~1\AppData\Local\Temp\cc3o48Uk.s:25159  .debug_str:0000000000015682 .LASF1873
C:\Users\CYMR90~1\AppData\Local\Temp\cc3o48Uk.s:21729  .debug_str:00000000000079de .LASF1874
C:\Users\CYMR90~1\AppData\Local\Temp\cc3o48Uk.s:22615  .debug_str:000000000000b445 .LASF1875
C:\Users\CYMR90~1\AppData\Local\Temp\cc3o48Uk.s:30228  .debug_str:0000000000029a52 .LASF1876
C:\Users\CYMR90~1\AppData\Local\Temp\cc3o48Uk.s:26490  .debug_str:000000000001afc5 .LASF1877
C:\Users\CYMR90~1\AppData\Local\Temp\cc3o48Uk.s:27244  .debug_str:000000000001e02a .LASF1878
C:\Users\CYMR90~1\AppData\Local\Temp\cc3o48Uk.s:23629  .debug_str:000000000000f539 .LASF1879
C:\Users\CYMR90~1\AppData\Local\Temp\cc3o48Uk.s:21991  .debug_str:0000000000008b60 .LASF1880
C:\Users\CYMR90~1\AppData\Local\Temp\cc3o48Uk.s:27550  .debug_str:000000000001f29e .LASF1881
C:\Users\CYMR90~1\AppData\Local\Temp\cc3o48Uk.s:20061  .debug_str:000000000000107a .LASF1882
C:\Users\CYMR90~1\AppData\Local\Temp\cc3o48Uk.s:27944  .debug_str:0000000000020a99 .LASF1883
C:\Users\CYMR90~1\AppData\Local\Temp\cc3o48Uk.s:30648  .debug_str:000000000002b43f .LASF1884
C:\Users\CYMR90~1\AppData\Local\Temp\cc3o48Uk.s:27660  .debug_str:000000000001f928 .LASF1885
C:\Users\CYMR90~1\AppData\Local\Temp\cc3o48Uk.s:29770  .debug_str:0000000000027d07 .LASF1886
C:\Users\CYMR90~1\AppData\Local\Temp\cc3o48Uk.s:22215  .debug_str:00000000000099bb .LASF1887
C:\Users\CYMR90~1\AppData\Local\Temp\cc3o48Uk.s:22019  .debug_str:0000000000008d9f .LASF1888
C:\Users\CYMR90~1\AppData\Local\Temp\cc3o48Uk.s:30680  .debug_str:000000000002b644 .LASF1889
C:\Users\CYMR90~1\AppData\Local\Temp\cc3o48Uk.s:26116  .debug_str:000000000001964a .LASF1890
C:\Users\CYMR90~1\AppData\Local\Temp\cc3o48Uk.s:22207  .debug_str:0000000000009915 .LASF1891
C:\Users\CYMR90~1\AppData\Local\Temp\cc3o48Uk.s:22303  .debug_str:0000000000009f28 .LASF1892
C:\Users\CYMR90~1\AppData\Local\Temp\cc3o48Uk.s:26862  .debug_str:000000000001c64c .LASF1893
C:\Users\CYMR90~1\AppData\Local\Temp\cc3o48Uk.s:22013  .debug_str:0000000000008d33 .LASF1894
C:\Users\CYMR90~1\AppData\Local\Temp\cc3o48Uk.s:23257  .debug_str:000000000000dea3 .LASF1895
C:\Users\CYMR90~1\AppData\Local\Temp\cc3o48Uk.s:25560  .debug_str:0000000000017252 .LASF1896
C:\Users\CYMR90~1\AppData\Local\Temp\cc3o48Uk.s:20257  .debug_str:0000000000001cdf .LASF1897
C:\Users\CYMR90~1\AppData\Local\Temp\cc3o48Uk.s:29510  .debug_str:0000000000026c72 .LASF1898
C:\Users\CYMR90~1\AppData\Local\Temp\cc3o48Uk.s:26356  .debug_str:000000000001a683 .LASF1899
C:\Users\CYMR90~1\AppData\Local\Temp\cc3o48Uk.s:23081  .debug_str:000000000000d410 .LASF1900
C:\Users\CYMR90~1\AppData\Local\Temp\cc3o48Uk.s:19867  .debug_str:0000000000000416 .LASF1901
C:\Users\CYMR90~1\AppData\Local\Temp\cc3o48Uk.s:20671  .debug_str:000000000000366f .LASF1902
C:\Users\CYMR90~1\AppData\Local\Temp\cc3o48Uk.s:22721  .debug_str:000000000000bbd1 .LASF1903
C:\Users\CYMR90~1\AppData\Local\Temp\cc3o48Uk.s:30934  .debug_str:000000000002c72a .LASF1904
C:\Users\CYMR90~1\AppData\Local\Temp\cc3o48Uk.s:25429  .debug_str:0000000000016820 .LASF1905
C:\Users\CYMR90~1\AppData\Local\Temp\cc3o48Uk.s:22177  .debug_str:00000000000096d9 .LASF1906
C:\Users\CYMR90~1\AppData\Local\Temp\cc3o48Uk.s:29852  .debug_str:0000000000028317 .LASF1907
C:\Users\CYMR90~1\AppData\Local\Temp\cc3o48Uk.s:26902  .debug_str:000000000001c983 .LASF1908
C:\Users\CYMR90~1\AppData\Local\Temp\cc3o48Uk.s:21189  .debug_str:00000000000057b4 .LASF1909
C:\Users\CYMR90~1\AppData\Local\Temp\cc3o48Uk.s:30216  .debug_str:00000000000299a6 .LASF1910
C:\Users\CYMR90~1\AppData\Local\Temp\cc3o48Uk.s:26536  .debug_str:000000000001b2c6 .LASF1911
C:\Users\CYMR90~1\AppData\Local\Temp\cc3o48Uk.s:26210  .debug_str:0000000000019cbc .LASF1912
C:\Users\CYMR90~1\AppData\Local\Temp\cc3o48Uk.s:22633  .debug_str:000000000000b5f4 .LASF1913
C:\Users\CYMR90~1\AppData\Local\Temp\cc3o48Uk.s:22469  .debug_str:000000000000aa79 .LASF1914
C:\Users\CYMR90~1\AppData\Local\Temp\cc3o48Uk.s:27848  .debug_str:0000000000020434 .LASF1915
C:\Users\CYMR90~1\AppData\Local\Temp\cc3o48Uk.s:29122  .debug_str:00000000000253e5 .LASF1916
C:\Users\CYMR90~1\AppData\Local\Temp\cc3o48Uk.s:25730  .debug_str:0000000000017d4a .LASF1917
C:\Users\CYMR90~1\AppData\Local\Temp\cc3o48Uk.s:22375  .debug_str:000000000000a3f3 .LASF1918
C:\Users\CYMR90~1\AppData\Local\Temp\cc3o48Uk.s:30276  .debug_str:0000000000029d03 .LASF1919
C:\Users\CYMR90~1\AppData\Local\Temp\cc3o48Uk.s:26874  .debug_str:000000000001c70e .LASF1920
C:\Users\CYMR90~1\AppData\Local\Temp\cc3o48Uk.s:22669  .debug_str:000000000000b856 .LASF1921
C:\Users\CYMR90~1\AppData\Local\Temp\cc3o48Uk.s:21579  .debug_str:000000000000700c .LASF1922
C:\Users\CYMR90~1\AppData\Local\Temp\cc3o48Uk.s:27916  .debug_str:00000000000208df .LASF1923
C:\Users\CYMR90~1\AppData\Local\Temp\cc3o48Uk.s:29996  .debug_str:0000000000028c57 .LASF1924
C:\Users\CYMR90~1\AppData\Local\Temp\cc3o48Uk.s:22493  .debug_str:000000000000ac25 .LASF1925
C:\Users\CYMR90~1\AppData\Local\Temp\cc3o48Uk.s:27752  .debug_str:000000000001feaa .LASF1926
C:\Users\CYMR90~1\AppData\Local\Temp\cc3o48Uk.s:26768  .debug_str:000000000001c0c8 .LASF1927
C:\Users\CYMR90~1\AppData\Local\Temp\cc3o48Uk.s:20707  .debug_str:00000000000038c9 .LASF1928
C:\Users\CYMR90~1\AppData\Local\Temp\cc3o48Uk.s:21629  .debug_str:0000000000007352 .LASF1929
C:\Users\CYMR90~1\AppData\Local\Temp\cc3o48Uk.s:27678  .debug_str:000000000001fa44 .LASF1930
C:\Users\CYMR90~1\AppData\Local\Temp\cc3o48Uk.s:30966  .debug_str:000000000002c959 .LASF1931
C:\Users\CYMR90~1\AppData\Local\Temp\cc3o48Uk.s:30640  .debug_str:000000000002b392 .LASF1932
C:\Users\CYMR90~1\AppData\Local\Temp\cc3o48Uk.s:21741  .debug_str:0000000000007a9a .LASF1933
C:\Users\CYMR90~1\AppData\Local\Temp\cc3o48Uk.s:22795  .debug_str:000000000000c126 .LASF1934
C:\Users\CYMR90~1\AppData\Local\Temp\cc3o48Uk.s:26846  .debug_str:000000000001c552 .LASF1935
C:\Users\CYMR90~1\AppData\Local\Temp\cc3o48Uk.s:21229  .debug_str:0000000000005a55 .LASF1936
C:\Users\CYMR90~1\AppData\Local\Temp\cc3o48Uk.s:26704  .debug_str:000000000001bcb8 .LASF1937
C:\Users\CYMR90~1\AppData\Local\Temp\cc3o48Uk.s:25680  .debug_str:0000000000017a62 .LASF1938
C:\Users\CYMR90~1\AppData\Local\Temp\cc3o48Uk.s:24973  .debug_str:0000000000014b73 .LASF1939
C:\Users\CYMR90~1\AppData\Local\Temp\cc3o48Uk.s:21933  .debug_str:00000000000087af .LASF1940
C:\Users\CYMR90~1\AppData\Local\Temp\cc3o48Uk.s:30060  .debug_str:0000000000029065 .LASF1941
C:\Users\CYMR90~1\AppData\Local\Temp\cc3o48Uk.s:26956  .debug_str:000000000001cce4 .LASF1942
C:\Users\CYMR90~1\AppData\Local\Temp\cc3o48Uk.s:22853  .debug_str:000000000000c4bd .LASF1943
C:\Users\CYMR90~1\AppData\Local\Temp\cc3o48Uk.s:23957  .debug_str:0000000000010a59 .LASF1944
C:\Users\CYMR90~1\AppData\Local\Temp\cc3o48Uk.s:27786  .debug_str:00000000000200f5 .LASF1945
C:\Users\CYMR90~1\AppData\Local\Temp\cc3o48Uk.s:24683  .debug_str:0000000000013940 .LASF1946
C:\Users\CYMR90~1\AppData\Local\Temp\cc3o48Uk.s:21525  .debug_str:0000000000006c93 .LASF1947
C:\Users\CYMR90~1\AppData\Local\Temp\cc3o48Uk.s:20457  .debug_str:00000000000028df .LASF1948
C:\Users\CYMR90~1\AppData\Local\Temp\cc3o48Uk.s:26594  .debug_str:000000000001b626 .LASF1949
C:\Users\CYMR90~1\AppData\Local\Temp\cc3o48Uk.s:23519  .debug_str:000000000000ee83 .LASF1950
C:\Users\CYMR90~1\AppData\Local\Temp\cc3o48Uk.s:20323  .debug_str:00000000000020b1 .LASF1951
C:\Users\CYMR90~1\AppData\Local\Temp\cc3o48Uk.s:28530  .debug_str:0000000000022dfd .LASF1952
C:\Users\CYMR90~1\AppData\Local\Temp\cc3o48Uk.s:29258  .debug_str:0000000000025cfc .LASF1953
C:\Users\CYMR90~1\AppData\Local\Temp\cc3o48Uk.s:24811  .debug_str:0000000000014141 .LASF1954
C:\Users\CYMR90~1\AppData\Local\Temp\cc3o48Uk.s:28062  .debug_str:000000000002119a .LASF1955
C:\Users\CYMR90~1\AppData\Local\Temp\cc3o48Uk.s:28730  .debug_str:00000000000239de .LASF1956
C:\Users\CYMR90~1\AppData\Local\Temp\cc3o48Uk.s:20379  .debug_str:00000000000023d7 .LASF1957
C:\Users\CYMR90~1\AppData\Local\Temp\cc3o48Uk.s:30480  .debug_str:000000000002a931 .LASF1958
C:\Users\CYMR90~1\AppData\Local\Temp\cc3o48Uk.s:21747  .debug_str:0000000000007b0b .LASF1959
C:\Users\CYMR90~1\AppData\Local\Temp\cc3o48Uk.s:30044  .debug_str:0000000000028f70 .LASF1960
C:\Users\CYMR90~1\AppData\Local\Temp\cc3o48Uk.s:26912  .debug_str:000000000001ca20 .LASF1961
C:\Users\CYMR90~1\AppData\Local\Temp\cc3o48Uk.s:19909  .debug_str:000000000000065f .LASF1962
C:\Users\CYMR90~1\AppData\Local\Temp\cc3o48Uk.s:25207  .debug_str:000000000001597f .LASF1963
C:\Users\CYMR90~1\AppData\Local\Temp\cc3o48Uk.s:29104  .debug_str:00000000000252c1 .LASF1964
C:\Users\CYMR90~1\AppData\Local\Temp\cc3o48Uk.s:21583  .debug_str:0000000000007077 .LASF1965
C:\Users\CYMR90~1\AppData\Local\Temp\cc3o48Uk.s:27046  .debug_str:000000000001d374 .LASF1966
C:\Users\CYMR90~1\AppData\Local\Temp\cc3o48Uk.s:30580  .debug_str:000000000002af41 .LASF1967
C:\Users\CYMR90~1\AppData\Local\Temp\cc3o48Uk.s:26888  .debug_str:000000000001c89d .LASF1968
C:\Users\CYMR90~1\AppData\Local\Temp\cc3o48Uk.s:28418  .debug_str:0000000000022761 .LASF1969
C:\Users\CYMR90~1\AppData\Local\Temp\cc3o48Uk.s:21567  .debug_str:0000000000006f3a .LASF1970
C:\Users\CYMR90~1\AppData\Local\Temp\cc3o48Uk.s:28422  .debug_str:0000000000022792 .LASF1971
C:\Users\CYMR90~1\AppData\Local\Temp\cc3o48Uk.s:29142  .debug_str:0000000000025530 .LASF1972
C:\Users\CYMR90~1\AppData\Local\Temp\cc3o48Uk.s:26198  .debug_str:0000000000019c01 .LASF1973
C:\Users\CYMR90~1\AppData\Local\Temp\cc3o48Uk.s:26010  .debug_str:0000000000018f71 .LASF1974
C:\Users\CYMR90~1\AppData\Local\Temp\cc3o48Uk.s:30528  .debug_str:000000000002ac3b .LASF1975
C:\Users\CYMR90~1\AppData\Local\Temp\cc3o48Uk.s:21763  .debug_str:0000000000007c93 .LASF1976
C:\Users\CYMR90~1\AppData\Local\Temp\cc3o48Uk.s:22125  .debug_str:00000000000093ae .LASF1977
C:\Users\CYMR90~1\AppData\Local\Temp\cc3o48Uk.s:30294  .debug_str:0000000000029e0a .LASF1978
C:\Users\CYMR90~1\AppData\Local\Temp\cc3o48Uk.s:21055  .debug_str:0000000000004fb6 .LASF1979
C:\Users\CYMR90~1\AppData\Local\Temp\cc3o48Uk.s:29040  .debug_str:0000000000024dca .LASF1980
C:\Users\CYMR90~1\AppData\Local\Temp\cc3o48Uk.s:28898  .debug_str:0000000000024470 .LASF1981
C:\Users\CYMR90~1\AppData\Local\Temp\cc3o48Uk.s:28736  .debug_str:0000000000023a39 .LASF1982
C:\Users\CYMR90~1\AppData\Local\Temp\cc3o48Uk.s:30242  .debug_str:0000000000029b2f .LASF1983
C:\Users\CYMR90~1\AppData\Local\Temp\cc3o48Uk.s:30484  .debug_str:000000000002a987 .LASF1984
C:\Users\CYMR90~1\AppData\Local\Temp\cc3o48Uk.s:27440  .debug_str:000000000001ebe5 .LASF1985
C:\Users\CYMR90~1\AppData\Local\Temp\cc3o48Uk.s:26624  .debug_str:000000000001b805 .LASF1986
C:\Users\CYMR90~1\AppData\Local\Temp\cc3o48Uk.s:24887  .debug_str:00000000000145fd .LASF1987
C:\Users\CYMR90~1\AppData\Local\Temp\cc3o48Uk.s:25906  .debug_str:0000000000018826 .LASF1988
C:\Users\CYMR90~1\AppData\Local\Temp\cc3o48Uk.s:22947  .debug_str:000000000000cb3b .LASF1989
C:\Users\CYMR90~1\AppData\Local\Temp\cc3o48Uk.s:21983  .debug_str:0000000000008aef .LASF1990
C:\Users\CYMR90~1\AppData\Local\Temp\cc3o48Uk.s:23007  .debug_str:000000000000ce97 .LASF1991
C:\Users\CYMR90~1\AppData\Local\Temp\cc3o48Uk.s:26250  .debug_str:0000000000019ef4 .LASF1992
C:\Users\CYMR90~1\AppData\Local\Temp\cc3o48Uk.s:26628  .debug_str:000000000001b84c .LASF1993
C:\Users\CYMR90~1\AppData\Local\Temp\cc3o48Uk.s:20057  .debug_str:000000000000104a .LASF1994
C:\Users\CYMR90~1\AppData\Local\Temp\cc3o48Uk.s:29158  .debug_str:000000000002566e .LASF1995
C:\Users\CYMR90~1\AppData\Local\Temp\cc3o48Uk.s:20669  .debug_str:000000000000363b .LASF1996
C:\Users\CYMR90~1\AppData\Local\Temp\cc3o48Uk.s:29608  .debug_str:00000000000272f5 .LASF1997
C:\Users\CYMR90~1\AppData\Local\Temp\cc3o48Uk.s:21905  .debug_str:0000000000008603 .LASF1998
C:\Users\CYMR90~1\AppData\Local\Temp\cc3o48Uk.s:25830  .debug_str:0000000000018380 .LASF1999
C:\Users\CYMR90~1\AppData\Local\Temp\cc3o48Uk.s:28222  .debug_str:0000000000021bd4 .LASF2000
C:\Users\CYMR90~1\AppData\Local\Temp\cc3o48Uk.s:24121  .debug_str:0000000000011445 .LASF2001
C:\Users\CYMR90~1\AppData\Local\Temp\cc3o48Uk.s:28428  .debug_str:00000000000227f7 .LASF2002
C:\Users\CYMR90~1\AppData\Local\Temp\cc3o48Uk.s:29830  .debug_str:00000000000281ca .LASF2003
C:\Users\CYMR90~1\AppData\Local\Temp\cc3o48Uk.s:24841  .debug_str:00000000000142c1 .LASF2004
C:\Users\CYMR90~1\AppData\Local\Temp\cc3o48Uk.s:28320  .debug_str:00000000000221af .LASF2005
C:\Users\CYMR90~1\AppData\Local\Temp\cc3o48Uk.s:25520  .debug_str:0000000000016ff0 .LASF2006
C:\Users\CYMR90~1\AppData\Local\Temp\cc3o48Uk.s:30732  .debug_str:000000000002b9f5 .LASF2007
C:\Users\CYMR90~1\AppData\Local\Temp\cc3o48Uk.s:21099  .debug_str:000000000000526d .LASF2008
C:\Users\CYMR90~1\AppData\Local\Temp\cc3o48Uk.s:24605  .debug_str:000000000001348f .LASF2009
C:\Users\CYMR90~1\AppData\Local\Temp\cc3o48Uk.s:27334  .debug_str:000000000001e5ba .LASF2010
C:\Users\CYMR90~1\AppData\Local\Temp\cc3o48Uk.s:22975  .debug_str:000000000000cce3 .LASF2011
C:\Users\CYMR90~1\AppData\Local\Temp\cc3o48Uk.s:20241  .debug_str:0000000000001bf9 .LASF2012
C:\Users\CYMR90~1\AppData\Local\Temp\cc3o48Uk.s:28610  .debug_str:0000000000023278 .LASF2013
C:\Users\CYMR90~1\AppData\Local\Temp\cc3o48Uk.s:28368  .debug_str:0000000000022426 .LASF2014
C:\Users\CYMR90~1\AppData\Local\Temp\cc3o48Uk.s:26334  .debug_str:000000000001a526 .LASF2015
C:\Users\CYMR90~1\AppData\Local\Temp\cc3o48Uk.s:30204  .debug_str:00000000000298f2 .LASF2016
C:\Users\CYMR90~1\AppData\Local\Temp\cc3o48Uk.s:28522  .debug_str:0000000000022db2 .LASF2017
C:\Users\CYMR90~1\AppData\Local\Temp\cc3o48Uk.s:28154  .debug_str:00000000000217cd .LASF2018
C:\Users\CYMR90~1\AppData\Local\Temp\cc3o48Uk.s:27090  .debug_str:000000000001d60c .LASF2019
C:\Users\CYMR90~1\AppData\Local\Temp\cc3o48Uk.s:21463  .debug_str:0000000000006896 .LASF2020
C:\Users\CYMR90~1\AppData\Local\Temp\cc3o48Uk.s:28564  .debug_str:0000000000022fec .LASF2021
C:\Users\CYMR90~1\AppData\Local\Temp\cc3o48Uk.s:29550  .debug_str:0000000000026ed0 .LASF2022
C:\Users\CYMR90~1\AppData\Local\Temp\cc3o48Uk.s:24001  .debug_str:0000000000010d37 .LASF2023
C:\Users\CYMR90~1\AppData\Local\Temp\cc3o48Uk.s:29490  .debug_str:0000000000026afb .LASF2024
C:\Users\CYMR90~1\AppData\Local\Temp\cc3o48Uk.s:22697  .debug_str:000000000000baa2 .LASF2025
C:\Users\CYMR90~1\AppData\Local\Temp\cc3o48Uk.s:30594  .debug_str:000000000002b01f .LASF2026
C:\Users\CYMR90~1\AppData\Local\Temp\cc3o48Uk.s:20633  .debug_str:000000000000341f .LASF2027
C:\Users\CYMR90~1\AppData\Local\Temp\cc3o48Uk.s:28624  .debug_str:000000000002332b .LASF2028
C:\Users\CYMR90~1\AppData\Local\Temp\cc3o48Uk.s:27648  .debug_str:000000000001f853 .LASF2029
C:\Users\CYMR90~1\AppData\Local\Temp\cc3o48Uk.s:30160  .debug_str:0000000000029671 .LASF2030
C:\Users\CYMR90~1\AppData\Local\Temp\cc3o48Uk.s:25734  .debug_str:0000000000017d8b .LASF2031
C:\Users\CYMR90~1\AppData\Local\Temp\cc3o48Uk.s:22465  .debug_str:000000000000aa4b .LASF2032
C:\Users\CYMR90~1\AppData\Local\Temp\cc3o48Uk.s:23645  .debug_str:000000000000f6d3 .LASF2033
C:\Users\CYMR90~1\AppData\Local\Temp\cc3o48Uk.s:22673  .debug_str:000000000000b8ae .LASF2034
C:\Users\CYMR90~1\AppData\Local\Temp\cc3o48Uk.s:24185  .debug_str:000000000001197a .LASF2035
C:\Users\CYMR90~1\AppData\Local\Temp\cc3o48Uk.s:28098  .debug_str:000000000002145a .LASF2036
C:\Users\CYMR90~1\AppData\Local\Temp\cc3o48Uk.s:28502  .debug_str:0000000000022c93 .LASF2037
C:\Users\CYMR90~1\AppData\Local\Temp\cc3o48Uk.s:29084  .debug_str:00000000000250dc .LASF2038
C:\Users\CYMR90~1\AppData\Local\Temp\cc3o48Uk.s:24273  .debug_str:0000000000011efc .LASF2039
C:\Users\CYMR90~1\AppData\Local\Temp\cc3o48Uk.s:26276  .debug_str:000000000001a06f .LASF2040
C:\Users\CYMR90~1\AppData\Local\Temp\cc3o48Uk.s:23003  .debug_str:000000000000ce47 .LASF2041
C:\Users\CYMR90~1\AppData\Local\Temp\cc3o48Uk.s:20463  .debug_str:0000000000002936 .LASF2042
C:\Users\CYMR90~1\AppData\Local\Temp\cc3o48Uk.s:21191  .debug_str:00000000000057f2 .LASF2043
C:\Users\CYMR90~1\AppData\Local\Temp\cc3o48Uk.s:31012  .debug_str:000000000002cc85 .LASF2044
C:\Users\CYMR90~1\AppData\Local\Temp\cc3o48Uk.s:24573  .debug_str:0000000000013282 .LASF2045
C:\Users\CYMR90~1\AppData\Local\Temp\cc3o48Uk.s:28384  .debug_str:0000000000022532 .LASF2046
C:\Users\CYMR90~1\AppData\Local\Temp\cc3o48Uk.s:30008  .debug_str:0000000000028d25 .LASF2047
C:\Users\CYMR90~1\AppData\Local\Temp\cc3o48Uk.s:26748  .debug_str:000000000001bfa1 .LASF2048
C:\Users\CYMR90~1\AppData\Local\Temp\cc3o48Uk.s:27292  .debug_str:000000000001e2f8 .LASF2049
C:\Users\CYMR90~1\AppData\Local\Temp\cc3o48Uk.s:21253  .debug_str:0000000000005bdc .LASF2050
C:\Users\CYMR90~1\AppData\Local\Temp\cc3o48Uk.s:20619  .debug_str:0000000000003325 .LASF2051
C:\Users\CYMR90~1\AppData\Local\Temp\cc3o48Uk.s:22581  .debug_str:000000000000b27d .LASF2052
C:\Users\CYMR90~1\AppData\Local\Temp\cc3o48Uk.s:29120  .debug_str:000000000002539e .LASF2053
C:\Users\CYMR90~1\AppData\Local\Temp\cc3o48Uk.s:30434  .debug_str:000000000002a6a4 .LASF2054
C:\Users\CYMR90~1\AppData\Local\Temp\cc3o48Uk.s:21067  .debug_str:0000000000005071 .LASF2055
C:\Users\CYMR90~1\AppData\Local\Temp\cc3o48Uk.s:29446  .debug_str:0000000000026898 .LASF2056
C:\Users\CYMR90~1\AppData\Local\Temp\cc3o48Uk.s:27458  .debug_str:000000000001ecfe .LASF2057
C:\Users\CYMR90~1\AppData\Local\Temp\cc3o48Uk.s:25580  .debug_str:000000000001739a .LASF2058
C:\Users\CYMR90~1\AppData\Local\Temp\cc3o48Uk.s:23553  .debug_str:000000000000f085 .LASF2059
C:\Users\CYMR90~1\AppData\Local\Temp\cc3o48Uk.s:23251  .debug_str:000000000000de44 .LASF2060
C:\Users\CYMR90~1\AppData\Local\Temp\cc3o48Uk.s:27902  .debug_str:0000000000020808 .LASF2061
C:\Users\CYMR90~1\AppData\Local\Temp\cc3o48Uk.s:24713  .debug_str:0000000000013af8 .LASF2062
C:\Users\CYMR90~1\AppData\Local\Temp\cc3o48Uk.s:20437  .debug_str:000000000000276f .LASF2063
C:\Users\CYMR90~1\AppData\Local\Temp\cc3o48Uk.s:26478  .debug_str:000000000001aea1 .LASF2064
C:\Users\CYMR90~1\AppData\Local\Temp\cc3o48Uk.s:25341  .debug_str:0000000000016277 .LASF2065
C:\Users\CYMR90~1\AppData\Local\Temp\cc3o48Uk.s:22141  .debug_str:000000000000948e .LASF2066
C:\Users\CYMR90~1\AppData\Local\Temp\cc3o48Uk.s:22609  .debug_str:000000000000b3fd .LASF2067
C:\Users\CYMR90~1\AppData\Local\Temp\cc3o48Uk.s:25686  .debug_str:0000000000017ac3 .LASF2068
C:\Users\CYMR90~1\AppData\Local\Temp\cc3o48Uk.s:25283  .debug_str:0000000000015ef7 .LASF2069
C:\Users\CYMR90~1\AppData\Local\Temp\cc3o48Uk.s:23139  .debug_str:000000000000d779 .LASF2070
C:\Users\CYMR90~1\AppData\Local\Temp\cc3o48Uk.s:21223  .debug_str:0000000000005a0e .LASF2071
C:\Users\CYMR90~1\AppData\Local\Temp\cc3o48Uk.s:24429  .debug_str:0000000000012902 .LASF2072
C:\Users\CYMR90~1\AppData\Local\Temp\cc3o48Uk.s:23479  .debug_str:000000000000ec57 .LASF2073
C:\Users\CYMR90~1\AppData\Local\Temp\cc3o48Uk.s:22735  .debug_str:000000000000bce3 .LASF2074
C:\Users\CYMR90~1\AppData\Local\Temp\cc3o48Uk.s:30818  .debug_str:000000000002bfc3 .LASF2075
C:\Users\CYMR90~1\AppData\Local\Temp\cc3o48Uk.s:22703  .debug_str:000000000000baf0 .LASF2076
C:\Users\CYMR90~1\AppData\Local\Temp\cc3o48Uk.s:30088  .debug_str:00000000000291e0 .LASF2077
C:\Users\CYMR90~1\AppData\Local\Temp\cc3o48Uk.s:21079  .debug_str:0000000000005131 .LASF2078
C:\Users\CYMR90~1\AppData\Local\Temp\cc3o48Uk.s:20209  .debug_str:00000000000019f4 .LASF2079
C:\Users\CYMR90~1\AppData\Local\Temp\cc3o48Uk.s:28654  .debug_str:0000000000023545 .LASF2080
C:\Users\CYMR90~1\AppData\Local\Temp\cc3o48Uk.s:29972  .debug_str:0000000000028af4 .LASF2081
C:\Users\CYMR90~1\AppData\Local\Temp\cc3o48Uk.s:30062  .debug_str:000000000002908d .LASF2082
C:\Users\CYMR90~1\AppData\Local\Temp\cc3o48Uk.s:24299  .debug_str:0000000000012078 .LASF2083
C:\Users\CYMR90~1\AppData\Local\Temp\cc3o48Uk.s:21785  .debug_str:0000000000007dfe .LASF2084
C:\Users\CYMR90~1\AppData\Local\Temp\cc3o48Uk.s:28534  .debug_str:0000000000022e42 .LASF2085
C:\Users\CYMR90~1\AppData\Local\Temp\cc3o48Uk.s:20109  .debug_str:000000000000132d .LASF2086
C:\Users\CYMR90~1\AppData\Local\Temp\cc3o48Uk.s:19961  .debug_str:000000000000099a .LASF2087
C:\Users\CYMR90~1\AppData\Local\Temp\cc3o48Uk.s:26542  .debug_str:000000000001b331 .LASF2088
C:\Users\CYMR90~1\AppData\Local\Temp\cc3o48Uk.s:27620  .debug_str:000000000001f6c6 .LASF2089
C:\Users\CYMR90~1\AppData\Local\Temp\cc3o48Uk.s:25510  .debug_str:0000000000016f4f .LASF2090
C:\Users\CYMR90~1\AppData\Local\Temp\cc3o48Uk.s:24237  .debug_str:0000000000011c6e .LASF2091
C:\Users\CYMR90~1\AppData\Local\Temp\cc3o48Uk.s:25610  .debug_str:00000000000175ac .LASF2092
C:\Users\CYMR90~1\AppData\Local\Temp\cc3o48Uk.s:24743  .debug_str:0000000000013cba .LASF2093
C:\Users\CYMR90~1\AppData\Local\Temp\cc3o48Uk.s:20613  .debug_str:00000000000032d5 .LASF2094
C:\Users\CYMR90~1\AppData\Local\Temp\cc3o48Uk.s:20827  .debug_str:000000000000410b .LASF2095
C:\Users\CYMR90~1\AppData\Local\Temp\cc3o48Uk.s:22255  .debug_str:0000000000009c34 .LASF2096
C:\Users\CYMR90~1\AppData\Local\Temp\cc3o48Uk.s:24765  .debug_str:0000000000013e15 .LASF2097
C:\Users\CYMR90~1\AppData\Local\Temp\cc3o48Uk.s:29268  .debug_str:0000000000025d94 .LASF2098
C:\Users\CYMR90~1\AppData\Local\Temp\cc3o48Uk.s:23795  .debug_str:0000000000010008 .LASF2099
C:\Users\CYMR90~1\AppData\Local\Temp\cc3o48Uk.s:22617  .debug_str:000000000000b46e .LASF2100
C:\Users\CYMR90~1\AppData\Local\Temp\cc3o48Uk.s:21399  .debug_str:000000000000647d .LASF2101
C:\Users\CYMR90~1\AppData\Local\Temp\cc3o48Uk.s:20509  .debug_str:0000000000002c33 .LASF2102
C:\Users\CYMR90~1\AppData\Local\Temp\cc3o48Uk.s:22295  .debug_str:0000000000009e81 .LASF2103
C:\Users\CYMR90~1\AppData\Local\Temp\cc3o48Uk.s:30766  .debug_str:000000000002bc12 .LASF2104
C:\Users\CYMR90~1\AppData\Local\Temp\cc3o48Uk.s:25608  .debug_str:0000000000017588 .LASF2105
C:\Users\CYMR90~1\AppData\Local\Temp\cc3o48Uk.s:20607  .debug_str:0000000000003255 .LASF2106
C:\Users\CYMR90~1\AppData\Local\Temp\cc3o48Uk.s:30032  .debug_str:0000000000028eb8 .LASF2107
C:\Users\CYMR90~1\AppData\Local\Temp\cc3o48Uk.s:24267  .debug_str:0000000000011e82 .LASF2108
C:\Users\CYMR90~1\AppData\Local\Temp\cc3o48Uk.s:20623  .debug_str:0000000000003363 .LASF2109
C:\Users\CYMR90~1\AppData\Local\Temp\cc3o48Uk.s:23045  .debug_str:000000000000d122 .LASF2110
C:\Users\CYMR90~1\AppData\Local\Temp\cc3o48Uk.s:25554  .debug_str:00000000000171f6 .LASF2111
C:\Users\CYMR90~1\AppData\Local\Temp\cc3o48Uk.s:27638  .debug_str:000000000001f7cd .LASF2112
C:\Users\CYMR90~1\AppData\Local\Temp\cc3o48Uk.s:30198  .debug_str:0000000000029898 .LASF2113
C:\Users\CYMR90~1\AppData\Local\Temp\cc3o48Uk.s:23535  .debug_str:000000000000ef77 .LASF2114
C:\Users\CYMR90~1\AppData\Local\Temp\cc3o48Uk.s:24631  .debug_str:00000000000135f4 .LASF2115
C:\Users\CYMR90~1\AppData\Local\Temp\cc3o48Uk.s:26468  .debug_str:000000000001addc .LASF2116
C:\Users\CYMR90~1\AppData\Local\Temp\cc3o48Uk.s:24823  .debug_str:00000000000141de .LASF2117
C:\Users\CYMR90~1\AppData\Local\Temp\cc3o48Uk.s:28890  .debug_str:0000000000024401 .LASF2118
C:\Users\CYMR90~1\AppData\Local\Temp\cc3o48Uk.s:27582  .debug_str:000000000001f495 .LASF2119
C:\Users\CYMR90~1\AppData\Local\Temp\cc3o48Uk.s:20467  .debug_str:000000000000296d .LASF2120
C:\Users\CYMR90~1\AppData\Local\Temp\cc3o48Uk.s:28004  .debug_str:0000000000020e57 .LASF2121
C:\Users\CYMR90~1\AppData\Local\Temp\cc3o48Uk.s:21863  .debug_str:000000000000838a .LASF2122
C:\Users\CYMR90~1\AppData\Local\Temp\cc3o48Uk.s:24681  .debug_str:000000000001391c .LASF2123
C:\Users\CYMR90~1\AppData\Local\Temp\cc3o48Uk.s:27318  .debug_str:000000000001e48a .LASF2124
C:\Users\CYMR90~1\AppData\Local\Temp\cc3o48Uk.s:24527  .debug_str:0000000000012f70 .LASF2125
C:\Users\CYMR90~1\AppData\Local\Temp\cc3o48Uk.s:25678  .debug_str:0000000000017a3b .LASF2126
C:\Users\CYMR90~1\AppData\Local\Temp\cc3o48Uk.s:29574  .debug_str:0000000000027051 .LASF2127
C:\Users\CYMR90~1\AppData\Local\Temp\cc3o48Uk.s:28112  .debug_str:0000000000021530 .LASF2128
C:\Users\CYMR90~1\AppData\Local\Temp\cc3o48Uk.s:23997  .debug_str:0000000000010cfc .LASF2129
C:\Users\CYMR90~1\AppData\Local\Temp\cc3o48Uk.s:28018  .debug_str:0000000000020f22 .LASF2130
C:\Users\CYMR90~1\AppData\Local\Temp\cc3o48Uk.s:25894  .debug_str:0000000000018766 .LASF2131
C:\Users\CYMR90~1\AppData\Local\Temp\cc3o48Uk.s:27844  .debug_str:00000000000203ef .LASF2132
C:\Users\CYMR90~1\AppData\Local\Temp\cc3o48Uk.s:24179  .debug_str:0000000000011904 .LASF2133
C:\Users\CYMR90~1\AppData\Local\Temp\cc3o48Uk.s:26898  .debug_str:000000000001c951 .LASF2134
C:\Users\CYMR90~1\AppData\Local\Temp\cc3o48Uk.s:20351  .debug_str:000000000000222e .LASF2135
C:\Users\CYMR90~1\AppData\Local\Temp\cc3o48Uk.s:26058  .debug_str:0000000000019303 .LASF2136
C:\Users\CYMR90~1\AppData\Local\Temp\cc3o48Uk.s:30302  .debug_str:0000000000029e9a .LASF2137
C:\Users\CYMR90~1\AppData\Local\Temp\cc3o48Uk.s:21865  .debug_str:00000000000083af .LASF2138
C:\Users\CYMR90~1\AppData\Local\Temp\cc3o48Uk.s:28208  .debug_str:0000000000021b05 .LASF2139
C:\Users\CYMR90~1\AppData\Local\Temp\cc3o48Uk.s:24099  .debug_str:00000000000112ea .LASF2140
C:\Users\CYMR90~1\AppData\Local\Temp\cc3o48Uk.s:23591  .debug_str:000000000000f316 .LASF2141
C:\Users\CYMR90~1\AppData\Local\Temp\cc3o48Uk.s:27598  .debug_str:000000000001f585 .LASF2142
C:\Users\CYMR90~1\AppData\Local\Temp\cc3o48Uk.s:28136  .debug_str:0000000000021697 .LASF2143
C:\Users\CYMR90~1\AppData\Local\Temp\cc3o48Uk.s:24365  .debug_str:00000000000124d8 .LASF2144
C:\Users\CYMR90~1\AppData\Local\Temp\cc3o48Uk.s:20625  .debug_str:000000000000338a .LASF2145
C:\Users\CYMR90~1\AppData\Local\Temp\cc3o48Uk.s:19823  .debug_str:000000000000014f .LASF2146
C:\Users\CYMR90~1\AppData\Local\Temp\cc3o48Uk.s:23455  .debug_str:000000000000ea95 .LASF2147
C:\Users\CYMR90~1\AppData\Local\Temp\cc3o48Uk.s:25616  .debug_str:0000000000017602 .LASF2148
C:\Users\CYMR90~1\AppData\Local\Temp\cc3o48Uk.s:29998  .debug_str:0000000000028c97 .LASF2149
C:\Users\CYMR90~1\AppData\Local\Temp\cc3o48Uk.s:29594  .debug_str:0000000000027235 .LASF2150
C:\Users\CYMR90~1\AppData\Local\Temp\cc3o48Uk.s:24633  .debug_str:000000000001361b .LASF2151
C:\Users\CYMR90~1\AppData\Local\Temp\cc3o48Uk.s:23223  .debug_str:000000000000dc4a .LASF2152
C:\Users\CYMR90~1\AppData\Local\Temp\cc3o48Uk.s:21235  .debug_str:0000000000005ac0 .LASF2153
C:\Users\CYMR90~1\AppData\Local\Temp\cc3o48Uk.s:25387  .debug_str:000000000001656a .LASF2154
C:\Users\CYMR90~1\AppData\Local\Temp\cc3o48Uk.s:20163  .debug_str:0000000000001684 .LASF2155
C:\Users\CYMR90~1\AppData\Local\Temp\cc3o48Uk.s:20695  .debug_str:0000000000003823 .LASF2156
C:\Users\CYMR90~1\AppData\Local\Temp\cc3o48Uk.s:29562  .debug_str:0000000000026f69 .LASF2157
C:\Users\CYMR90~1\AppData\Local\Temp\cc3o48Uk.s:24033  .debug_str:0000000000010efc .LASF2158
C:\Users\CYMR90~1\AppData\Local\Temp\cc3o48Uk.s:25960  .debug_str:0000000000018bc4 .LASF2159
C:\Users\CYMR90~1\AppData\Local\Temp\cc3o48Uk.s:29368  .debug_str:00000000000263f0 .LASF2160
C:\Users\CYMR90~1\AppData\Local\Temp\cc3o48Uk.s:22033  .debug_str:0000000000008e8e .LASF2161
C:\Users\CYMR90~1\AppData\Local\Temp\cc3o48Uk.s:30284  .debug_str:0000000000029d87 .LASF2162
C:\Users\CYMR90~1\AppData\Local\Temp\cc3o48Uk.s:31002  .debug_str:000000000002cb80 .LASF2163
C:\Users\CYMR90~1\AppData\Local\Temp\cc3o48Uk.s:20729  .debug_str:0000000000003a4a .LASF2164
C:\Users\CYMR90~1\AppData\Local\Temp\cc3o48Uk.s:28634  .debug_str:00000000000233c7 .LASF2165
C:\Users\CYMR90~1\AppData\Local\Temp\cc3o48Uk.s:26042  .debug_str:000000000001923c .LASF2166
C:\Users\CYMR90~1\AppData\Local\Temp\cc3o48Uk.s:29592  .debug_str:000000000002721d .LASF2167
C:\Users\CYMR90~1\AppData\Local\Temp\cc3o48Uk.s:21897  .debug_str:0000000000008597 .LASF2168
C:\Users\CYMR90~1\AppData\Local\Temp\cc3o48Uk.s:27144  .debug_str:000000000001d9a1 .LASF2169
C:\Users\CYMR90~1\AppData\Local\Temp\cc3o48Uk.s:25331  .debug_str:00000000000161ef .LASF2170
C:\Users\CYMR90~1\AppData\Local\Temp\cc3o48Uk.s:23369  .debug_str:000000000000e51a .LASF2171
C:\Users\CYMR90~1\AppData\Local\Temp\cc3o48Uk.s:23507  .debug_str:000000000000ede2 .LASF2172
C:\Users\CYMR90~1\AppData\Local\Temp\cc3o48Uk.s:27602  .debug_str:000000000001f5bc .LASF2173
C:\Users\CYMR90~1\AppData\Local\Temp\cc3o48Uk.s:25271  .debug_str:0000000000015e1a .LASF2174
C:\Users\CYMR90~1\AppData\Local\Temp\cc3o48Uk.s:24231  .debug_str:0000000000011c2c .LASF2175
C:\Users\CYMR90~1\AppData\Local\Temp\cc3o48Uk.s:27386  .debug_str:000000000001e91f .LASF2176
C:\Users\CYMR90~1\AppData\Local\Temp\cc3o48Uk.s:22619  .debug_str:000000000000b47d .LASF2177
C:\Users\CYMR90~1\AppData\Local\Temp\cc3o48Uk.s:28280  .debug_str:0000000000021f4d .LASF2178
C:\Users\CYMR90~1\AppData\Local\Temp\cc3o48Uk.s:23237  .debug_str:000000000000dd43 .LASF2179
C:\Users\CYMR90~1\AppData\Local\Temp\cc3o48Uk.s:21737  .debug_str:0000000000007a64 .LASF2180
C:\Users\CYMR90~1\AppData\Local\Temp\cc3o48Uk.s:29288  .debug_str:0000000000025f10 .LASF2181
C:\Users\CYMR90~1\AppData\Local\Temp\cc3o48Uk.s:23399  .debug_str:000000000000e735 .LASF2182
C:\Users\CYMR90~1\AppData\Local\Temp\cc3o48Uk.s:25305  .debug_str:0000000000016064 .LASF2183
C:\Users\CYMR90~1\AppData\Local\Temp\cc3o48Uk.s:20847  .debug_str:0000000000004224 .LASF2184
C:\Users\CYMR90~1\AppData\Local\Temp\cc3o48Uk.s:23667  .debug_str:000000000000f810 .LASF2185
C:\Users\CYMR90~1\AppData\Local\Temp\cc3o48Uk.s:30550  .debug_str:000000000002ad89 .LASF2186
C:\Users\CYMR90~1\AppData\Local\Temp\cc3o48Uk.s:27398  .debug_str:000000000001e9d8 .LASF2187
C:\Users\CYMR90~1\AppData\Local\Temp\cc3o48Uk.s:22239  .debug_str:0000000000009b4c .LASF2188
C:\Users\CYMR90~1\AppData\Local\Temp\cc3o48Uk.s:26374  .debug_str:000000000001a83e .LASF2189
C:\Users\CYMR90~1\AppData\Local\Temp\cc3o48Uk.s:20785  .debug_str:0000000000003d87 .LASF2190
C:\Users\CYMR90~1\AppData\Local\Temp\cc3o48Uk.s:22337  .debug_str:000000000000a15c .LASF2191
C:\Users\CYMR90~1\AppData\Local\Temp\cc3o48Uk.s:27480  .debug_str:000000000001ee40 .LASF2192
C:\Users\CYMR90~1\AppData\Local\Temp\cc3o48Uk.s:20711  .debug_str:0000000000003916 .LASF2193
C:\Users\CYMR90~1\AppData\Local\Temp\cc3o48Uk.s:24125  .debug_str:0000000000011475 .LASF2194
C:\Users\CYMR90~1\AppData\Local\Temp\cc3o48Uk.s:20487  .debug_str:0000000000002ad3 .LASF2195
C:\Users\CYMR90~1\AppData\Local\Temp\cc3o48Uk.s:21685  .debug_str:00000000000076bc .LASF2196
C:\Users\CYMR90~1\AppData\Local\Temp\cc3o48Uk.s:24989  .debug_str:0000000000014c92 .LASF2197
C:\Users\CYMR90~1\AppData\Local\Temp\cc3o48Uk.s:21961  .debug_str:000000000000899b .LASF2198
C:\Users\CYMR90~1\AppData\Local\Temp\cc3o48Uk.s:27838  .debug_str:00000000000203a6 .LASF2199
C:\Users\CYMR90~1\AppData\Local\Temp\cc3o48Uk.s:22477  .debug_str:000000000000ab13 .LASF2200
C:\Users\CYMR90~1\AppData\Local\Temp\cc3o48Uk.s:28346  .debug_str:0000000000022318 .LASF2201
C:\Users\CYMR90~1\AppData\Local\Temp\cc3o48Uk.s:27682  .debug_str:000000000001fa85 .LASF2202
C:\Users\CYMR90~1\AppData\Local\Temp\cc3o48Uk.s:28856  .debug_str:0000000000024198 .LASF2203
C:\Users\CYMR90~1\AppData\Local\Temp\cc3o48Uk.s:23475  .debug_str:000000000000ec1d .LASF2204
C:\Users\CYMR90~1\AppData\Local\Temp\cc3o48Uk.s:29272  .debug_str:0000000000025dc7 .LASF2205
C:\Users\CYMR90~1\AppData\Local\Temp\cc3o48Uk.s:28906  .debug_str:00000000000244d7 .LASF2206
C:\Users\CYMR90~1\AppData\Local\Temp\cc3o48Uk.s:27968  .debug_str:0000000000020c42 .LASF2207
C:\Users\CYMR90~1\AppData\Local\Temp\cc3o48Uk.s:23841  .debug_str:00000000000102a4 .LASF2208
C:\Users\CYMR90~1\AppData\Local\Temp\cc3o48Uk.s:26006  .debug_str:0000000000018f23 .LASF2209
C:\Users\CYMR90~1\AppData\Local\Temp\cc3o48Uk.s:27820  .debug_str:0000000000020291 .LASF2210
C:\Users\CYMR90~1\AppData\Local\Temp\cc3o48Uk.s:22745  .debug_str:000000000000bda9 .LASF2211
C:\Users\CYMR90~1\AppData\Local\Temp\cc3o48Uk.s:21459  .debug_str:0000000000006855 .LASF2212
C:\Users\CYMR90~1\AppData\Local\Temp\cc3o48Uk.s:30736  .debug_str:000000000002ba23 .LASF2213
C:\Users\CYMR90~1\AppData\Local\Temp\cc3o48Uk.s:30820  .debug_str:000000000002bfd4 .LASF2214
C:\Users\CYMR90~1\AppData\Local\Temp\cc3o48Uk.s:24729  .debug_str:0000000000013bd8 .LASF2215
C:\Users\CYMR90~1\AppData\Local\Temp\cc3o48Uk.s:22437  .debug_str:000000000000a7c4 .LASF2216
C:\Users\CYMR90~1\AppData\Local\Temp\cc3o48Uk.s:26620  .debug_str:000000000001b7cd .LASF2217
C:\Users\CYMR90~1\AppData\Local\Temp\cc3o48Uk.s:25932  .debug_str:0000000000018a0e .LASF2218
C:\Users\CYMR90~1\AppData\Local\Temp\cc3o48Uk.s:30584  .debug_str:000000000002af7e .LASF2219
C:\Users\CYMR90~1\AppData\Local\Temp\cc3o48Uk.s:27168  .debug_str:000000000001dafc .LASF2220
C:\Users\CYMR90~1\AppData\Local\Temp\cc3o48Uk.s:26020  .debug_str:0000000000018fe8 .LASF2221
C:\Users\CYMR90~1\AppData\Local\Temp\cc3o48Uk.s:24401  .debug_str:000000000001270f .LASF2222
C:\Users\CYMR90~1\AppData\Local\Temp\cc3o48Uk.s:26660  .debug_str:000000000001b9eb .LASF2223
C:\Users\CYMR90~1\AppData\Local\Temp\cc3o48Uk.s:21393  .debug_str:0000000000006425 .LASF2224
C:\Users\CYMR90~1\AppData\Local\Temp\cc3o48Uk.s:19845  .debug_str:00000000000002b1 .LASF2225
C:\Users\CYMR90~1\AppData\Local\Temp\cc3o48Uk.s:20919  .debug_str:0000000000004709 .LASF2226
C:\Users\CYMR90~1\AppData\Local\Temp\cc3o48Uk.s:26200  .debug_str:0000000000019c12 .LASF2227
C:\Users\CYMR90~1\AppData\Local\Temp\cc3o48Uk.s:25480  .debug_str:0000000000016d71 .LASF2228
C:\Users\CYMR90~1\AppData\Local\Temp\cc3o48Uk.s:27226  .debug_str:000000000001df13 .LASF2229
C:\Users\CYMR90~1\AppData\Local\Temp\cc3o48Uk.s:20889  .debug_str:00000000000044f1 .LASF2230
C:\Users\CYMR90~1\AppData\Local\Temp\cc3o48Uk.s:27452  .debug_str:000000000001eca1 .LASF2231
C:\Users\CYMR90~1\AppData\Local\Temp\cc3o48Uk.s:20219  .debug_str:0000000000001a8f .LASF2232
C:\Users\CYMR90~1\AppData\Local\Temp\cc3o48Uk.s:26188  .debug_str:0000000000019b4e .LASF2233
C:\Users\CYMR90~1\AppData\Local\Temp\cc3o48Uk.s:22913  .debug_str:000000000000c8c7 .LASF2234
C:\Users\CYMR90~1\AppData\Local\Temp\cc3o48Uk.s:23981  .debug_str:0000000000010c29 .LASF2235
C:\Users\CYMR90~1\AppData\Local\Temp\cc3o48Uk.s:30772  .debug_str:000000000002bc6f .LASF2236
C:\Users\CYMR90~1\AppData\Local\Temp\cc3o48Uk.s:23373  .debug_str:000000000000e555 .LASF2237
C:\Users\CYMR90~1\AppData\Local\Temp\cc3o48Uk.s:28088  .debug_str:00000000000213be .LASF2238
C:\Users\CYMR90~1\AppData\Local\Temp\cc3o48Uk.s:27122  .debug_str:000000000001d841 .LASF2239
C:\Users\CYMR90~1\AppData\Local\Temp\cc3o48Uk.s:27050  .debug_str:000000000001d3b1 .LASF2240
C:\Users\CYMR90~1\AppData\Local\Temp\cc3o48Uk.s:20275  .debug_str:0000000000001e0a .LASF2241
C:\Users\CYMR90~1\AppData\Local\Temp\cc3o48Uk.s:28106  .debug_str:00000000000214dc .LASF2242
C:\Users\CYMR90~1\AppData\Local\Temp\cc3o48Uk.s:29636  .debug_str:000000000002745c .LASF2243
C:\Users\CYMR90~1\AppData\Local\Temp\cc3o48Uk.s:24251  .debug_str:0000000000011d44 .LASF2244
C:\Users\CYMR90~1\AppData\Local\Temp\cc3o48Uk.s:25490  .debug_str:0000000000016e0d .LASF2245
C:\Users\CYMR90~1\AppData\Local\Temp\cc3o48Uk.s:22427  .debug_str:000000000000a6e9 .LASF2246
C:\Users\CYMR90~1\AppData\Local\Temp\cc3o48Uk.s:25055  .debug_str:00000000000150d2 .LASF2247
C:\Users\CYMR90~1\AppData\Local\Temp\cc3o48Uk.s:20627  .debug_str:00000000000033b1 .LASF2248
C:\Users\CYMR90~1\AppData\Local\Temp\cc3o48Uk.s:27472  .debug_str:000000000001edba .LASF2249
C:\Users\CYMR90~1\AppData\Local\Temp\cc3o48Uk.s:26598  .debug_str:000000000001b664 .LASF2250
C:\Users\CYMR90~1\AppData\Local\Temp\cc3o48Uk.s:25652  .debug_str:000000000001784f .LASF2251
C:\Users\CYMR90~1\AppData\Local\Temp\cc3o48Uk.s:28862  .debug_str:0000000000024201 .LASF2252
C:\Users\CYMR90~1\AppData\Local\Temp\cc3o48Uk.s:24407  .debug_str:000000000001276d .LASF2253
C:\Users\CYMR90~1\AppData\Local\Temp\cc3o48Uk.s:23185  .debug_str:000000000000da1f .LASF2254
C:\Users\CYMR90~1\AppData\Local\Temp\cc3o48Uk.s:21949  .debug_str:00000000000088db .LASF2255
C:\Users\CYMR90~1\AppData\Local\Temp\cc3o48Uk.s:23817  .debug_str:000000000001014a .LASF2256
C:\Users\CYMR90~1\AppData\Local\Temp\cc3o48Uk.s:26866  .debug_str:000000000001c697 .LASF2257
C:\Users\CYMR90~1\AppData\Local\Temp\cc3o48Uk.s:28338  .debug_str:000000000002228d .LASF2258
C:\Users\CYMR90~1\AppData\Local\Temp\cc3o48Uk.s:24327  .debug_str:000000000001224e .LASF2259
C:\Users\CYMR90~1\AppData\Local\Temp\cc3o48Uk.s:24017  .debug_str:0000000000010df3 .LASF2260
C:\Users\CYMR90~1\AppData\Local\Temp\cc3o48Uk.s:25109  .debug_str:00000000000153c4 .LASF2261
C:\Users\CYMR90~1\AppData\Local\Temp\cc3o48Uk.s:20331  .debug_str:0000000000002122 .LASF2262
C:\Users\CYMR90~1\AppData\Local\Temp\cc3o48Uk.s:23421  .debug_str:000000000000e874 .LASF2263
C:\Users\CYMR90~1\AppData\Local\Temp\cc3o48Uk.s:27246  .debug_str:000000000001e054 .LASF2264
C:\Users\CYMR90~1\AppData\Local\Temp\cc3o48Uk.s:26288  .debug_str:000000000001a103 .LASF2265
C:\Users\CYMR90~1\AppData\Local\Temp\cc3o48Uk.s:23265  .debug_str:000000000000df12 .LASF2266
C:\Users\CYMR90~1\AppData\Local\Temp\cc3o48Uk.s:22631  .debug_str:000000000000b5d4 .LASF2267
C:\Users\CYMR90~1\AppData\Local\Temp\cc3o48Uk.s:25660  .debug_str:000000000001790b .LASF2268
C:\Users\CYMR90~1\AppData\Local\Temp\cc3o48Uk.s:30502  .debug_str:000000000002aa74 .LASF2269
C:\Users\CYMR90~1\AppData\Local\Temp\cc3o48Uk.s:20943  .debug_str:00000000000048fd .LASF2270
C:\Users\CYMR90~1\AppData\Local\Temp\cc3o48Uk.s:26744  .debug_str:000000000001bf6b .LASF2271
C:\Users\CYMR90~1\AppData\Local\Temp\cc3o48Uk.s:27146  .debug_str:000000000001d9b9 .LASF2272
C:\Users\CYMR90~1\AppData\Local\Temp\cc3o48Uk.s:24941  .debug_str:000000000001497b .LASF2273
C:\Users\CYMR90~1\AppData\Local\Temp\cc3o48Uk.s:29846  .debug_str:00000000000282c7 .LASF2274
C:\Users\CYMR90~1\AppData\Local\Temp\cc3o48Uk.s:26496  .debug_str:000000000001b028 .LASF2275
C:\Users\CYMR90~1\AppData\Local\Temp\cc3o48Uk.s:23191  .debug_str:000000000000daa2 .LASF2276
C:\Users\CYMR90~1\AppData\Local\Temp\cc3o48Uk.s:21565  .debug_str:0000000000006f1c .LASF2277
C:\Users\CYMR90~1\AppData\Local\Temp\cc3o48Uk.s:20017  .debug_str:0000000000000d3e .LASF2278
C:\Users\CYMR90~1\AppData\Local\Temp\cc3o48Uk.s:29700  .debug_str:000000000002784c .LASF2279
C:\Users\CYMR90~1\AppData\Local\Temp\cc3o48Uk.s:28092  .debug_str:00000000000213fc .LASF2280
C:\Users\CYMR90~1\AppData\Local\Temp\cc3o48Uk.s:21131  .debug_str:000000000000544f .LASF2281
C:\Users\CYMR90~1\AppData\Local\Temp\cc3o48Uk.s:26222  .debug_str:0000000000019d85 .LASF2282
C:\Users\CYMR90~1\AppData\Local\Temp\cc3o48Uk.s:25542  .debug_str:000000000001713f .LASF2283
C:\Users\CYMR90~1\AppData\Local\Temp\cc3o48Uk.s:26924  .debug_str:000000000001cac8 .LASF2284
C:\Users\CYMR90~1\AppData\Local\Temp\cc3o48Uk.s:26458  .debug_str:000000000001ad44 .LASF2285
C:\Users\CYMR90~1\AppData\Local\Temp\cc3o48Uk.s:29654  .debug_str:0000000000027558 .LASF2286
C:\Users\CYMR90~1\AppData\Local\Temp\cc3o48Uk.s:24023  .debug_str:0000000000010e4d .LASF2287
C:\Users\CYMR90~1\AppData\Local\Temp\cc3o48Uk.s:28246  .debug_str:0000000000021d63 .LASF2288
C:\Users\CYMR90~1\AppData\Local\Temp\cc3o48Uk.s:30164  .debug_str:000000000002969d .LASF2289
C:\Users\CYMR90~1\AppData\Local\Temp\cc3o48Uk.s:24225  .debug_str:0000000000011bb0 .LASF2290
C:\Users\CYMR90~1\AppData\Local\Temp\cc3o48Uk.s:30636  .debug_str:000000000002b348 .LASF2291
C:\Users\CYMR90~1\AppData\Local\Temp\cc3o48Uk.s:27338  .debug_str:000000000001e607 .LASF2292
C:\Users\CYMR90~1\AppData\Local\Temp\cc3o48Uk.s:21027  .debug_str:0000000000004e12 .LASF2293
C:\Users\CYMR90~1\AppData\Local\Temp\cc3o48Uk.s:30022  .debug_str:0000000000028df6 .LASF2294
C:\Users\CYMR90~1\AppData\Local\Temp\cc3o48Uk.s:30600  .debug_str:000000000002b0b6 .LASF2295
C:\Users\CYMR90~1\AppData\Local\Temp\cc3o48Uk.s:23249  .debug_str:000000000000de19 .LASF2296
C:\Users\CYMR90~1\AppData\Local\Temp\cc3o48Uk.s:23227  .debug_str:000000000000dc80 .LASF2297
C:\Users\CYMR90~1\AppData\Local\Temp\cc3o48Uk.s:26664  .debug_str:000000000001ba3c .LASF2298
C:\Users\CYMR90~1\AppData\Local\Temp\cc3o48Uk.s:24741  .debug_str:0000000000013c8f .LASF2299
C:\Users\CYMR90~1\AppData\Local\Temp\cc3o48Uk.s:29860  .debug_str:00000000000283bc .LASF2300
C:\Users\CYMR90~1\AppData\Local\Temp\cc3o48Uk.s:23563  .debug_str:000000000000f13d .LASF2301
C:\Users\CYMR90~1\AppData\Local\Temp\cc3o48Uk.s:26694  .debug_str:000000000001bc32 .LASF2302
C:\Users\CYMR90~1\AppData\Local\Temp\cc3o48Uk.s:28996  .debug_str:0000000000024b08 .LASF2303
C:\Users\CYMR90~1\AppData\Local\Temp\cc3o48Uk.s:23183  .debug_str:000000000000d9f8 .LASF2304
C:\Users\CYMR90~1\AppData\Local\Temp\cc3o48Uk.s:28140  .debug_str:00000000000216d2 .LASF2305
C:\Users\CYMR90~1\AppData\Local\Temp\cc3o48Uk.s:20099  .debug_str:00000000000012ae .LASF2306
C:\Users\CYMR90~1\AppData\Local\Temp\cc3o48Uk.s:26396  .debug_str:000000000001a990 .LASF2307
C:\Users\CYMR90~1\AppData\Local\Temp\cc3o48Uk.s:26886  .debug_str:000000000001c874 .LASF2308
C:\Users\CYMR90~1\AppData\Local\Temp\cc3o48Uk.s:20577  .debug_str:0000000000003091 .LASF2309
C:\Users\CYMR90~1\AppData\Local\Temp\cc3o48Uk.s:29286  .debug_str:0000000000025ee7 .LASF2310
C:\Users\CYMR90~1\AppData\Local\Temp\cc3o48Uk.s:30100  .debug_str:0000000000029293 .LASF2311
C:\Users\CYMR90~1\AppData\Local\Temp\cc3o48Uk.s:24779  .debug_str:0000000000013f30 .LASF2312
C:\Users\CYMR90~1\AppData\Local\Temp\cc3o48Uk.s:29810  .debug_str:0000000000027fed .LASF2313
C:\Users\CYMR90~1\AppData\Local\Temp\cc3o48Uk.s:21643  .debug_str:0000000000007426 .LASF2314
C:\Users\CYMR90~1\AppData\Local\Temp\cc3o48Uk.s:27920  .debug_str:000000000002092f .LASF2315
C:\Users\CYMR90~1\AppData\Local\Temp\cc3o48Uk.s:21705  .debug_str:000000000000780d .LASF2316
C:\Users\CYMR90~1\AppData\Local\Temp\cc3o48Uk.s:26710  .debug_str:000000000001bd2e .LASF2317
C:\Users\CYMR90~1\AppData\Local\Temp\cc3o48Uk.s:29856  .debug_str:000000000002837b .LASF2318
C:\Users\CYMR90~1\AppData\Local\Temp\cc3o48Uk.s:24893  .debug_str:0000000000014645 .LASF2319
C:\Users\CYMR90~1\AppData\Local\Temp\cc3o48Uk.s:20955  .debug_str:00000000000049b9 .LASF2320
C:\Users\CYMR90~1\AppData\Local\Temp\cc3o48Uk.s:20501  .debug_str:0000000000002bdf .LASF2321
C:\Users\CYMR90~1\AppData\Local\Temp\cc3o48Uk.s:31082  .debug_str:000000000002d0bf .LASF2322
C:\Users\CYMR90~1\AppData\Local\Temp\cc3o48Uk.s:21317  .debug_str:0000000000005f8a .LASF2323
C:\Users\CYMR90~1\AppData\Local\Temp\cc3o48Uk.s:24903  .debug_str:000000000001471f .LASF2324
C:\Users\CYMR90~1\AppData\Local\Temp\cc3o48Uk.s:30662  .debug_str:000000000002b4f5 .LASF2325
C:\Users\CYMR90~1\AppData\Local\Temp\cc3o48Uk.s:22405  .debug_str:000000000000a5ab .LASF2326
C:\Users\CYMR90~1\AppData\Local\Temp\cc3o48Uk.s:25888  .debug_str:0000000000018708 .LASF2327
C:\Users\CYMR90~1\AppData\Local\Temp\cc3o48Uk.s:20367  .debug_str:000000000000232c .LASF2328
C:\Users\CYMR90~1\AppData\Local\Temp\cc3o48Uk.s:24815  .debug_str:000000000001416c .LASF2329
C:\Users\CYMR90~1\AppData\Local\Temp\cc3o48Uk.s:21699  .debug_str:00000000000077ac .LASF2330
C:\Users\CYMR90~1\AppData\Local\Temp\cc3o48Uk.s:22847  .debug_str:000000000000c45e .LASF2331
C:\Users\CYMR90~1\AppData\Local\Temp\cc3o48Uk.s:23865  .debug_str:0000000000010426 .LASF2332
C:\Users\CYMR90~1\AppData\Local\Temp\cc3o48Uk.s:28046  .debug_str:00000000000210a8 .LASF2333
C:\Users\CYMR90~1\AppData\Local\Temp\cc3o48Uk.s:29456  .debug_str:0000000000026946 .LASF2334
C:\Users\CYMR90~1\AppData\Local\Temp\cc3o48Uk.s:23879  .debug_str:00000000000104f5 .LASF2335
C:\Users\CYMR90~1\AppData\Local\Temp\cc3o48Uk.s:24261  .debug_str:0000000000011e1e .LASF2336
C:\Users\CYMR90~1\AppData\Local\Temp\cc3o48Uk.s:23351  .debug_str:000000000000e409 .LASF2337
C:\Users\CYMR90~1\AppData\Local\Temp\cc3o48Uk.s:21331  .debug_str:0000000000006077 .LASF2338
C:\Users\CYMR90~1\AppData\Local\Temp\cc3o48Uk.s:20415  .debug_str:00000000000025da .LASF2339
C:\Users\CYMR90~1\AppData\Local\Temp\cc3o48Uk.s:27110  .debug_str:000000000001d784 .LASF2340
C:\Users\CYMR90~1\AppData\Local\Temp\cc3o48Uk.s:29342  .debug_str:0000000000026257 .LASF2341
C:\Users\CYMR90~1\AppData\Local\Temp\cc3o48Uk.s:27712  .debug_str:000000000001fc46 .LASF2342
C:\Users\CYMR90~1\AppData\Local\Temp\cc3o48Uk.s:27728  .debug_str:000000000001fd1e .LASF2343
C:\Users\CYMR90~1\AppData\Local\Temp\cc3o48Uk.s:28756  .debug_str:0000000000023b42 .LASF2344
C:\Users\CYMR90~1\AppData\Local\Temp\cc3o48Uk.s:29564  .debug_str:0000000000026f7f .LASF2345
C:\Users\CYMR90~1\AppData\Local\Temp\cc3o48Uk.s:26810  .debug_str:000000000001c388 .LASF2346
C:\Users\CYMR90~1\AppData\Local\Temp\cc3o48Uk.s:26976  .debug_str:000000000001ceb9 .LASF2347
C:\Users\CYMR90~1\AppData\Local\Temp\cc3o48Uk.s:21919  .debug_str:00000000000086e4 .LASF2348
C:\Users\CYMR90~1\AppData\Local\Temp\cc3o48Uk.s:24615  .debug_str:0000000000013539 .LASF2349
C:\Users\CYMR90~1\AppData\Local\Temp\cc3o48Uk.s:28192  .debug_str:00000000000219d3 .LASF2350
C:\Users\CYMR90~1\AppData\Local\Temp\cc3o48Uk.s:30466  .debug_str:000000000002a85d .LASF2351
C:\Users\CYMR90~1\AppData\Local\Temp\cc3o48Uk.s:28982  .debug_str:0000000000024a19 .LASF2352
C:\Users\CYMR90~1\AppData\Local\Temp\cc3o48Uk.s:21487  .debug_str:00000000000069f8 .LASF2353
C:\Users\CYMR90~1\AppData\Local\Temp\cc3o48Uk.s:23777  .debug_str:000000000000fed1 .LASF2354
C:\Users\CYMR90~1\AppData\Local\Temp\cc3o48Uk.s:21431  .debug_str:0000000000006658 .LASF2355
C:\Users\CYMR90~1\AppData\Local\Temp\cc3o48Uk.s:30880  .debug_str:000000000002c3ff .LASF2356
C:\Users\CYMR90~1\AppData\Local\Temp\cc3o48Uk.s:30288  .debug_str:0000000000029dac .LASF2357
C:\Users\CYMR90~1\AppData\Local\Temp\cc3o48Uk.s:23097  .debug_str:000000000000d50e .LASF2358
C:\Users\CYMR90~1\AppData\Local\Temp\cc3o48Uk.s:22153  .debug_str:00000000000095a8 .LASF2359
C:\Users\CYMR90~1\AppData\Local\Temp\cc3o48Uk.s:20717  .debug_str:000000000000399f .LASF2360
C:\Users\CYMR90~1\AppData\Local\Temp\cc3o48Uk.s:23787  .debug_str:000000000000ff71 .LASF2361
C:\Users\CYMR90~1\AppData\Local\Temp\cc3o48Uk.s:22591  .debug_str:000000000000b319 .LASF2362
C:\Users\CYMR90~1\AppData\Local\Temp\cc3o48Uk.s:21363  .debug_str:000000000000624c .LASF2363
C:\Users\CYMR90~1\AppData\Local\Temp\cc3o48Uk.s:28762  .debug_str:0000000000023b92 .LASF2364
C:\Users\CYMR90~1\AppData\Local\Temp\cc3o48Uk.s:27930  .debug_str:00000000000209da .LASF2365
C:\Users\CYMR90~1\AppData\Local\Temp\cc3o48Uk.s:24321  .debug_str:00000000000121ed .LASF2366
C:\Users\CYMR90~1\AppData\Local\Temp\cc3o48Uk.s:22687  .debug_str:000000000000b99d .LASF2367
C:\Users\CYMR90~1\AppData\Local\Temp\cc3o48Uk.s:29632  .debug_str:000000000002742f .LASF2368
C:\Users\CYMR90~1\AppData\Local\Temp\cc3o48Uk.s:22137  .debug_str:000000000000945e .LASF2369
C:\Users\CYMR90~1\AppData\Local\Temp\cc3o48Uk.s:23453  .debug_str:000000000000ea70 .LASF2370
C:\Users\CYMR90~1\AppData\Local\Temp\cc3o48Uk.s:21497  .debug_str:0000000000006ab5 .LASF2371
C:\Users\CYMR90~1\AppData\Local\Temp\cc3o48Uk.s:23837  .debug_str:000000000001026b .LASF2372
C:\Users\CYMR90~1\AppData\Local\Temp\cc3o48Uk.s:30750  .debug_str:000000000002baff .LASF2373
C:\Users\CYMR90~1\AppData\Local\Temp\cc3o48Uk.s:29410  .debug_str:0000000000026683 .LASF2374
C:\Users\CYMR90~1\AppData\Local\Temp\cc3o48Uk.s:19955  .debug_str:0000000000000946 .LASF2375
C:\Users\CYMR90~1\AppData\Local\Temp\cc3o48Uk.s:24227  .debug_str:0000000000011bd6 .LASF2376
C:\Users\CYMR90~1\AppData\Local\Temp\cc3o48Uk.s:27418  .debug_str:000000000001ead3 .LASF2377
C:\Users\CYMR90~1\AppData\Local\Temp\cc3o48Uk.s:30696  .debug_str:000000000002b796 .LASF2378
C:\Users\CYMR90~1\AppData\Local\Temp\cc3o48Uk.s:22593  .debug_str:000000000000b33e .LASF2379
C:\Users\CYMR90~1\AppData\Local\Temp\cc3o48Uk.s:25754  .debug_str:0000000000017f08 .LASF2380
C:\Users\CYMR90~1\AppData\Local\Temp\cc3o48Uk.s:28974  .debug_str:0000000000024996 .LASF2381
C:\Users\CYMR90~1\AppData\Local\Temp\cc3o48Uk.s:28720  .debug_str:0000000000023956 .LASF2382
C:\Users\CYMR90~1\AppData\Local\Temp\cc3o48Uk.s:24007  .debug_str:0000000000010d8b .LASF2383
C:\Users\CYMR90~1\AppData\Local\Temp\cc3o48Uk.s:27188  .debug_str:000000000001dc48 .LASF2384
C:\Users\CYMR90~1\AppData\Local\Temp\cc3o48Uk.s:30432  .debug_str:000000000002a68b .LASF2385
C:\Users\CYMR90~1\AppData\Local\Temp\cc3o48Uk.s:20253  .debug_str:0000000000001cb1 .LASF2386
C:\Users\CYMR90~1\AppData\Local\Temp\cc3o48Uk.s:24913  .debug_str:00000000000147ad .LASF2387
C:\Users\CYMR90~1\AppData\Local\Temp\cc3o48Uk.s:29634  .debug_str:0000000000027441 .LASF2388
C:\Users\CYMR90~1\AppData\Local\Temp\cc3o48Uk.s:26556  .debug_str:000000000001b403 .LASF2389
C:\Users\CYMR90~1\AppData\Local\Temp\cc3o48Uk.s:27720  .debug_str:000000000001fcbe .LASF2390
C:\Users\CYMR90~1\AppData\Local\Temp\cc3o48Uk.s:21103  .debug_str:00000000000052a9 .LASF2391
C:\Users\CYMR90~1\AppData\Local\Temp\cc3o48Uk.s:25810  .debug_str:0000000000018236 .LASF2392
C:\Users\CYMR90~1\AppData\Local\Temp\cc3o48Uk.s:30536  .debug_str:000000000002acaf .LASF2393
C:\Users\CYMR90~1\AppData\Local\Temp\cc3o48Uk.s:26670  .debug_str:000000000001ba9e .LASF2394
C:\Users\CYMR90~1\AppData\Local\Temp\cc3o48Uk.s:29694  .debug_str:00000000000277e7 .LASF2395
C:\Users\CYMR90~1\AppData\Local\Temp\cc3o48Uk.s:23109  .debug_str:000000000000d5d7 .LASF2396
C:\Users\CYMR90~1\AppData\Local\Temp\cc3o48Uk.s:27774  .debug_str:000000000002002a .LASF2397
C:\Users\CYMR90~1\AppData\Local\Temp\cc3o48Uk.s:21151  .debug_str:0000000000005549 .LASF2398
C:\Users\CYMR90~1\AppData\Local\Temp\cc3o48Uk.s:25868  .debug_str:0000000000018606 .LASF2399
C:\Users\CYMR90~1\AppData\Local\Temp\cc3o48Uk.s:30596  .debug_str:000000000002b085 .LASF2400
C:\Users\CYMR90~1\AppData\Local\Temp\cc3o48Uk.s:30470  .debug_str:000000000002a895 .LASF2401
C:\Users\CYMR90~1\AppData\Local\Temp\cc3o48Uk.s:22379  .debug_str:000000000000a445 .LASF2402
C:\Users\CYMR90~1\AppData\Local\Temp\cc3o48Uk.s:25558  .debug_str:000000000001723b .LASF2403
C:\Users\CYMR90~1\AppData\Local\Temp\cc3o48Uk.s:28766  .debug_str:0000000000023bc3 .LASF2404
C:\Users\CYMR90~1\AppData\Local\Temp\cc3o48Uk.s:20745  .debug_str:0000000000003b24 .LASF2405
C:\Users\CYMR90~1\AppData\Local\Temp\cc3o48Uk.s:23889  .debug_str:0000000000010655 .LASF2406
C:\Users\CYMR90~1\AppData\Local\Temp\cc3o48Uk.s:27080  .debug_str:000000000001d58f .LASF2407
C:\Users\CYMR90~1\AppData\Local\Temp\cc3o48Uk.s:30314  .debug_str:0000000000029f63 .LASF2408
C:\Users\CYMR90~1\AppData\Local\Temp\cc3o48Uk.s:24669  .debug_str:0000000000013853 .LASF2409
C:\Users\CYMR90~1\AppData\Local\Temp\cc3o48Uk.s:23085  .debug_str:000000000000d448 .LASF2410
C:\Users\CYMR90~1\AppData\Local\Temp\cc3o48Uk.s:26446  .debug_str:000000000001ac87 .LASF2411
C:\Users\CYMR90~1\AppData\Local\Temp\cc3o48Uk.s:19841  .debug_str:0000000000000270 .LASF2412
C:\Users\CYMR90~1\AppData\Local\Temp\cc3o48Uk.s:24485  .debug_str:0000000000012c99 .LASF2413
C:\Users\CYMR90~1\AppData\Local\Temp\cc3o48Uk.s:29188  .debug_str:00000000000258db .LASF2414
C:\Users\CYMR90~1\AppData\Local\Temp\cc3o48Uk.s:22627  .debug_str:000000000000b51e .LASF2415
C:\Users\CYMR90~1\AppData\Local\Temp\cc3o48Uk.s:27262  .debug_str:000000000001e147 .LASF2416
C:\Users\CYMR90~1\AppData\Local\Temp\cc3o48Uk.s:22941  .debug_str:000000000000cad5 .LASF2417
C:\Users\CYMR90~1\AppData\Local\Temp\cc3o48Uk.s:25351  .debug_str:00000000000162e7 .LASF2418
C:\Users\CYMR90~1\AppData\Local\Temp\cc3o48Uk.s:23481  .debug_str:000000000000ec71 .LASF2419
C:\Users\CYMR90~1\AppData\Local\Temp\cc3o48Uk.s:24531  .debug_str:0000000000012fac .LASF2420
C:\Users\CYMR90~1\AppData\Local\Temp\cc3o48Uk.s:29240  .debug_str:0000000000025bf4 .LASF2421
C:\Users\CYMR90~1\AppData\Local\Temp\cc3o48Uk.s:22665  .debug_str:000000000000b827 .LASF2422
C:\Users\CYMR90~1\AppData\Local\Temp\cc3o48Uk.s:27310  .debug_str:000000000001e421 .LASF2423
C:\Users\CYMR90~1\AppData\Local\Temp\cc3o48Uk.s:20713  .debug_str:0000000000003954 .LASF2424
C:\Users\CYMR90~1\AppData\Local\Temp\cc3o48Uk.s:25411  .debug_str:00000000000166ad .LASF2425
C:\Users\CYMR90~1\AppData\Local\Temp\cc3o48Uk.s:22507  .debug_str:000000000000ad1d .LASF2426
C:\Users\CYMR90~1\AppData\Local\Temp\cc3o48Uk.s:25586  .debug_str:00000000000173e1 .LASF2427
C:\Users\CYMR90~1\AppData\Local\Temp\cc3o48Uk.s:28804  .debug_str:0000000000023ddd .LASF2428
C:\Users\CYMR90~1\AppData\Local\Temp\cc3o48Uk.s:20697  .debug_str:0000000000003839 .LASF2429
C:\Users\CYMR90~1\AppData\Local\Temp\cc3o48Uk.s:23921  .debug_str:00000000000107fa .LASF2430
C:\Users\CYMR90~1\AppData\Local\Temp\cc3o48Uk.s:24161  .debug_str:0000000000011773 .LASF2431
C:\Users\CYMR90~1\AppData\Local\Temp\cc3o48Uk.s:30354  .debug_str:000000000002a183 .LASF2432
C:\Users\CYMR90~1\AppData\Local\Temp\cc3o48Uk.s:20895  .debug_str:0000000000004562 .LASF2433
C:\Users\CYMR90~1\AppData\Local\Temp\cc3o48Uk.s:29602  .debug_str:00000000000272a9 .LASF2434
C:\Users\CYMR90~1\AppData\Local\Temp\cc3o48Uk.s:28562  .debug_str:0000000000022fd5 .LASF2435
C:\Users\CYMR90~1\AppData\Local\Temp\cc3o48Uk.s:29916  .debug_str:00000000000287a3 .LASF2436
C:\Users\CYMR90~1\AppData\Local\Temp\cc3o48Uk.s:23325  .debug_str:000000000000e291 .LASF2437
C:\Users\CYMR90~1\AppData\Local\Temp\cc3o48Uk.s:27988  .debug_str:0000000000020d66 .LASF2438
C:\Users\CYMR90~1\AppData\Local\Temp\cc3o48Uk.s:23903  .debug_str:000000000001070b .LASF2439
C:\Users\CYMR90~1\AppData\Local\Temp\cc3o48Uk.s:26110  .debug_str:0000000000019612 .LASF2440
C:\Users\CYMR90~1\AppData\Local\Temp\cc3o48Uk.s:22155  .debug_str:00000000000095c8 .LASF2441
C:\Users\CYMR90~1\AppData\Local\Temp\cc3o48Uk.s:24169  .debug_str:00000000000117e0 .LASF2442
C:\Users\CYMR90~1\AppData\Local\Temp\cc3o48Uk.s:28872  .debug_str:00000000000242e1 .LASF2443
C:\Users\CYMR90~1\AppData\Local\Temp\cc3o48Uk.s:22797  .debug_str:000000000000c156 .LASF2444
C:\Users\CYMR90~1\AppData\Local\Temp\cc3o48Uk.s:28040  .debug_str:000000000002103d .LASF2445
C:\Users\CYMR90~1\AppData\Local\Temp\cc3o48Uk.s:21435  .debug_str:0000000000006691 .LASF2446
C:\Users\CYMR90~1\AppData\Local\Temp\cc3o48Uk.s:26156  .debug_str:0000000000019929 .LASF2447
C:\Users\CYMR90~1\AppData\Local\Temp\cc3o48Uk.s:30876  .debug_str:000000000002c3c0 .LASF2448
C:\Users\CYMR90~1\AppData\Local\Temp\cc3o48Uk.s:24221  .debug_str:0000000000011b62 .LASF2449
C:\Users\CYMR90~1\AppData\Local\Temp\cc3o48Uk.s:28924  .debug_str:0000000000024613 .LASF2450
C:\Users\CYMR90~1\AppData\Local\Temp\cc3o48Uk.s:27742  .debug_str:000000000001fe05 .LASF2451
C:\Users\CYMR90~1\AppData\Local\Temp\cc3o48Uk.s:29034  .debug_str:0000000000024d80 .LASF2452
C:\Users\CYMR90~1\AppData\Local\Temp\cc3o48Uk.s:27384  .debug_str:000000000001e908 .LASF2453
C:\Users\CYMR90~1\AppData\Local\Temp\cc3o48Uk.s:26004  .debug_str:0000000000018f0c .LASF2454
C:\Users\CYMR90~1\AppData\Local\Temp\cc3o48Uk.s:29190  .debug_str:00000000000258f4 .LASF2455
C:\Users\CYMR90~1\AppData\Local\Temp\cc3o48Uk.s:22571  .debug_str:000000000000b201 .LASF2456
C:\Users\CYMR90~1\AppData\Local\Temp\cc3o48Uk.s:24293  .debug_str:0000000000012035 .LASF2457
C:\Users\CYMR90~1\AppData\Local\Temp\cc3o48Uk.s:27484  .debug_str:000000000001ee91 .LASF2458
C:\Users\CYMR90~1\AppData\Local\Temp\cc3o48Uk.s:28966  .debug_str:0000000000024935 .LASF2459
C:\Users\CYMR90~1\AppData\Local\Temp\cc3o48Uk.s:22575  .debug_str:000000000000b23e .LASF2460
C:\Users\CYMR90~1\AppData\Local\Temp\cc3o48Uk.s:28598  .debug_str:00000000000231af .LASF2461
C:\Users\CYMR90~1\AppData\Local\Temp\cc3o48Uk.s:30692  .debug_str:000000000002b706 .LASF2462
C:\Users\CYMR90~1\AppData\Local\Temp\cc3o48Uk.s:26966  .debug_str:000000000001ce35 .LASF2463
C:\Users\CYMR90~1\AppData\Local\Temp\cc3o48Uk.s:20373  .debug_str:0000000000002378 .LASF2464
C:\Users\CYMR90~1\AppData\Local\Temp\cc3o48Uk.s:25035  .debug_str:0000000000014f96 .LASF2465
C:\Users\CYMR90~1\AppData\Local\Temp\cc3o48Uk.s:29758  .debug_str:0000000000027c4d .LASF2466
C:\Users\CYMR90~1\AppData\Local\Temp\cc3o48Uk.s:23173  .debug_str:000000000000d952 .LASF2467
C:\Users\CYMR90~1\AppData\Local\Temp\cc3o48Uk.s:22445  .debug_str:000000000000a935 .LASF2468
C:\Users\CYMR90~1\AppData\Local\Temp\cc3o48Uk.s:25944  .debug_str:0000000000018ab6 .LASF2469
C:\Users\CYMR90~1\AppData\Local\Temp\cc3o48Uk.s:20773  .debug_str:0000000000003d0b .LASF2470
C:\Users\CYMR90~1\AppData\Local\Temp\cc3o48Uk.s:20429  .debug_str:00000000000026e2 .LASF2471
C:\Users\CYMR90~1\AppData\Local\Temp\cc3o48Uk.s:25085  .debug_str:0000000000015262 .LASF2472
C:\Users\CYMR90~1\AppData\Local\Temp\cc3o48Uk.s:29814  .debug_str:00000000000280d1 .LASF2473
C:\Users\CYMR90~1\AppData\Local\Temp\cc3o48Uk.s:23231  .debug_str:000000000000dcd1 .LASF2474
C:\Users\CYMR90~1\AppData\Local\Temp\cc3o48Uk.s:27890  .debug_str:000000000002071a .LASF2475
C:\Users\CYMR90~1\AppData\Local\Temp\cc3o48Uk.s:30040  .debug_str:0000000000028f18 .LASF2476
C:\Users\CYMR90~1\AppData\Local\Temp\cc3o48Uk.s:21127  .debug_str:0000000000005421 .LASF2477
C:\Users\CYMR90~1\AppData\Local\Temp\cc3o48Uk.s:25121  .debug_str:000000000001544f .LASF2478
C:\Users\CYMR90~1\AppData\Local\Temp\cc3o48Uk.s:29798  .debug_str:0000000000027f4b .LASF2479
C:\Users\CYMR90~1\AppData\Local\Temp\cc3o48Uk.s:28160  .debug_str:0000000000021811 .LASF2480
C:\Users\CYMR90~1\AppData\Local\Temp\cc3o48Uk.s:26562  .debug_str:000000000001b45c .LASF2481
C:\Users\CYMR90~1\AppData\Local\Temp\cc3o48Uk.s:26676  .debug_str:000000000001bae9 .LASF2482
C:\Users\CYMR90~1\AppData\Local\Temp\cc3o48Uk.s:29888  .debug_str:00000000000285f0 .LASF2483
C:\Users\CYMR90~1\AppData\Local\Temp\cc3o48Uk.s:21789  .debug_str:0000000000007e37 .LASF2484
C:\Users\CYMR90~1\AppData\Local\Temp\cc3o48Uk.s:24881  .debug_str:00000000000145b1 .LASF2485
C:\Users\CYMR90~1\AppData\Local\Temp\cc3o48Uk.s:24587  .debug_str:0000000000013372 .LASF2486
C:\Users\CYMR90~1\AppData\Local\Temp\cc3o48Uk.s:29300  .debug_str:0000000000025fc8 .LASF2487
C:\Users\CYMR90~1\AppData\Local\Temp\cc3o48Uk.s:22717  .debug_str:000000000000bb9f .LASF2488
C:\Users\CYMR90~1\AppData\Local\Temp\cc3o48Uk.s:27362  .debug_str:000000000001e74f .LASF2489
C:\Users\CYMR90~1\AppData\Local\Temp\cc3o48Uk.s:20763  .debug_str:0000000000003c78 .LASF2490
C:\Users\CYMR90~1\AppData\Local\Temp\cc3o48Uk.s:25476  .debug_str:0000000000016d2c .LASF2491
C:\Users\CYMR90~1\AppData\Local\Temp\cc3o48Uk.s:30184  .debug_str:00000000000297c0 .LASF2492
C:\Users\CYMR90~1\AppData\Local\Temp\cc3o48Uk.s:23575  .debug_str:000000000000f1f3 .LASF2493
C:\Users\CYMR90~1\AppData\Local\Temp\cc3o48Uk.s:21649  .debug_str:0000000000007477 .LASF2494
C:\Users\CYMR90~1\AppData\Local\Temp\cc3o48Uk.s:22767  .debug_str:000000000000bf60 .LASF2495
C:\Users\CYMR90~1\AppData\Local\Temp\cc3o48Uk.s:27408  .debug_str:000000000001ea5e .LASF2496
C:\Users\CYMR90~1\AppData\Local\Temp\cc3o48Uk.s:20811  .debug_str:0000000000003f5d .LASF2497
C:\Users\CYMR90~1\AppData\Local\Temp\cc3o48Uk.s:25526  .debug_str:0000000000017038 .LASF2498
C:\Users\CYMR90~1\AppData\Local\Temp\cc3o48Uk.s:30240  .debug_str:0000000000029b14 .LASF2499
C:\Users\CYMR90~1\AppData\Local\Temp\cc3o48Uk.s:23635  .debug_str:000000000000f599 .LASF2500
C:\Users\CYMR90~1\AppData\Local\Temp\cc3o48Uk.s:23363  .debug_str:000000000000e4b8 .LASF2501
C:\Users\CYMR90~1\AppData\Local\Temp\cc3o48Uk.s:26572  .debug_str:000000000001b50a .LASF2502
C:\Users\CYMR90~1\AppData\Local\Temp\cc3o48Uk.s:29768  .debug_str:0000000000027cf4 .LASF2503
C:\Users\CYMR90~1\AppData\Local\Temp\cc3o48Uk.s:21667  .debug_str:00000000000075aa .LASF2504
C:\Users\CYMR90~1\AppData\Local\Temp\cc3o48Uk.s:24763  .debug_str:0000000000013e02 .LASF2505
C:\Users\CYMR90~1\AppData\Local\Temp\cc3o48Uk.s:27986  .debug_str:0000000000020d53 .LASF2506
C:\Users\CYMR90~1\AppData\Local\Temp\cc3o48Uk.s:30170  .debug_str:00000000000296fd .LASF2507
C:\Users\CYMR90~1\AppData\Local\Temp\cc3o48Uk.s:23137  .debug_str:000000000000d766 .LASF2508
C:\Users\CYMR90~1\AppData\Local\Temp\cc3o48Uk.s:26346  .debug_str:000000000001a5d8 .LASF2509
C:\Users\CYMR90~1\AppData\Local\Temp\cc3o48Uk.s:29528  .debug_str:0000000000026da8 .LASF2510
C:\Users\CYMR90~1\AppData\Local\Temp\cc3o48Uk.s:29858  .debug_str:00000000000283a7 .LASF2511
C:\Users\CYMR90~1\AppData\Local\Temp\cc3o48Uk.s:23267  .debug_str:000000000000df32 .LASF2512
C:\Users\CYMR90~1\AppData\Local\Temp\cc3o48Uk.s:27932  .debug_str:00000000000209fb .LASF2513
C:\Users\CYMR90~1\AppData\Local\Temp\cc3o48Uk.s:21309  .debug_str:0000000000005ef3 .LASF2514
C:\Users\CYMR90~1\AppData\Local\Temp\cc3o48Uk.s:26048  .debug_str:00000000000192a3 .LASF2515
C:\Users\CYMR90~1\AppData\Local\Temp\cc3o48Uk.s:26814  .debug_str:000000000001c3c4 .LASF2516
C:\Users\CYMR90~1\AppData\Local\Temp\cc3o48Uk.s:24115  .debug_str:0000000000011404 .LASF2517
C:\Users\CYMR90~1\AppData\Local\Temp\cc3o48Uk.s:28814  .debug_str:0000000000023e59 .LASF2518
C:\Users\CYMR90~1\AppData\Local\Temp\cc3o48Uk.s:26904  .debug_str:000000000001c9be .LASF2519
C:\Users\CYMR90~1\AppData\Local\Temp\cc3o48Uk.s:28074  .debug_str:0000000000021245 .LASF2520
C:\Users\CYMR90~1\AppData\Local\Temp\cc3o48Uk.s:21467  .debug_str:00000000000068cd .LASF2521
C:\Users\CYMR90~1\AppData\Local\Temp\cc3o48Uk.s:26178  .debug_str:0000000000019ab6 .LASF2522
C:\Users\CYMR90~1\AppData\Local\Temp\cc3o48Uk.s:30906  .debug_str:000000000002c59e .LASF2523
C:\Users\CYMR90~1\AppData\Local\Temp\cc3o48Uk.s:24243  .debug_str:0000000000011cc9 .LASF2524
C:\Users\CYMR90~1\AppData\Local\Temp\cc3o48Uk.s:28948  .debug_str:000000000002478f .LASF2525
C:\Users\CYMR90~1\AppData\Local\Temp\cc3o48Uk.s:24439  .debug_str:000000000001298f .LASF2526
C:\Users\CYMR90~1\AppData\Local\Temp\cc3o48Uk.s:20651  .debug_str:0000000000003550 .LASF2527
C:\Users\CYMR90~1\AppData\Local\Temp\cc3o48Uk.s:25836  .debug_str:00000000000183c4 .LASF2528
C:\Users\CYMR90~1\AppData\Local\Temp\cc3o48Uk.s:22211  .debug_str:0000000000009980 .LASF2529
C:\Users\CYMR90~1\AppData\Local\Temp\cc3o48Uk.s:20979  .debug_str:0000000000004b3e .LASF2530
C:\Users\CYMR90~1\AppData\Local\Temp\cc3o48Uk.s:29260  .debug_str:0000000000025d1c .LASF2531
C:\Users\CYMR90~1\AppData\Local\Temp\cc3o48Uk.s:25247  .debug_str:0000000000015c56 .LASF2532
C:\Users\CYMR90~1\AppData\Local\Temp\cc3o48Uk.s:25003  .debug_str:0000000000014db1 .LASF2533
C:\Users\CYMR90~1\AppData\Local\Temp\cc3o48Uk.s:25393  .debug_str:00000000000165ad .LASF2534
C:\Users\CYMR90~1\AppData\Local\Temp\cc3o48Uk.s:22277  .debug_str:0000000000009d8f .LASF2535
C:\Users\CYMR90~1\AppData\Local\Temp\cc3o48Uk.s:21515  .debug_str:0000000000006be0 .LASF2536
C:\Users\CYMR90~1\AppData\Local\Temp\cc3o48Uk.s:29990  .debug_str:0000000000028be8 .LASF2537
C:\Users\CYMR90~1\AppData\Local\Temp\cc3o48Uk.s:19921  .debug_str:000000000000072a .LASF2538
C:\Users\CYMR90~1\AppData\Local\Temp\cc3o48Uk.s:21689  .debug_str:0000000000007704 .LASF2539
C:\Users\CYMR90~1\AppData\Local\Temp\cc3o48Uk.s:20691  .debug_str:00000000000037e6 .LASF2540
C:\Users\CYMR90~1\AppData\Local\Temp\cc3o48Uk.s:29154  .debug_str:0000000000025632 .LASF2541
C:\Users\CYMR90~1\AppData\Local\Temp\cc3o48Uk.s:24245  .debug_str:0000000000011cde .LASF2542
C:\Users\CYMR90~1\AppData\Local\Temp\cc3o48Uk.s:23047  .debug_str:000000000000d147 .LASF2543
C:\Users\CYMR90~1\AppData\Local\Temp\cc3o48Uk.s:27674  .debug_str:000000000001f9fc .LASF2544
C:\Users\CYMR90~1\AppData\Local\Temp\cc3o48Uk.s:26784  .debug_str:000000000001c1fe .LASF2545
C:\Users\CYMR90~1\AppData\Local\Temp\cc3o48Uk.s:20737  .debug_str:0000000000003aa5 .LASF2546
C:\Users\CYMR90~1\AppData\Local\Temp\cc3o48Uk.s:29308  .debug_str:0000000000026058 .LASF2547
C:\Users\CYMR90~1\AppData\Local\Temp\cc3o48Uk.s:23023  .debug_str:000000000000cfd1 .LASF2548
C:\Users\CYMR90~1\AppData\Local\Temp\cc3o48Uk.s:22115  .debug_str:0000000000009316 .LASF2549
C:\Users\CYMR90~1\AppData\Local\Temp\cc3o48Uk.s:21075  .debug_str:00000000000050de .LASF2550
C:\Users\CYMR90~1\AppData\Local\Temp\cc3o48Uk.s:29642  .debug_str:00000000000274c1 .LASF2551
C:\Users\CYMR90~1\AppData\Local\Temp\cc3o48Uk.s:29942  .debug_str:000000000002895d .LASF2552
C:\Users\CYMR90~1\AppData\Local\Temp\cc3o48Uk.s:24113  .debug_str:00000000000113e2 .LASF2553
C:\Users\CYMR90~1\AppData\Local\Temp\cc3o48Uk.s:28024  .debug_str:0000000000020f6f .LASF2554
C:\Users\CYMR90~1\AppData\Local\Temp\cc3o48Uk.s:25167  .debug_str:00000000000156ff .LASF2555
C:\Users\CYMR90~1\AppData\Local\Temp\cc3o48Uk.s:25658  .debug_str:00000000000178e9 .LASF2556
C:\Users\CYMR90~1\AppData\Local\Temp\cc3o48Uk.s:24565  .debug_str:0000000000013207 .LASF2557
C:\Users\CYMR90~1\AppData\Local\Temp\cc3o48Uk.s:25065  .debug_str:0000000000015174 .LASF2558
C:\Users\CYMR90~1\AppData\Local\Temp\cc3o48Uk.s:23781  .debug_str:000000000000ff10 .LASF2559
C:\Users\CYMR90~1\AppData\Local\Temp\cc3o48Uk.s:24063  .debug_str:00000000000110d2 .LASF2560
C:\Users\CYMR90~1\AppData\Local\Temp\cc3o48Uk.s:23179  .debug_str:000000000000d9bc .LASF2561
C:\Users\CYMR90~1\AppData\Local\Temp\cc3o48Uk.s:22191  .debug_str:00000000000097d1 .LASF2562
C:\Users\CYMR90~1\AppData\Local\Temp\cc3o48Uk.s:30656  .debug_str:000000000002b4ab .LASF2563
C:\Users\CYMR90~1\AppData\Local\Temp\cc3o48Uk.s:23803  .debug_str:000000000001008a .LASF2564
C:\Users\CYMR90~1\AppData\Local\Temp\cc3o48Uk.s:29984  .debug_str:0000000000028b8b .LASF2565
C:\Users\CYMR90~1\AppData\Local\Temp\cc3o48Uk.s:28706  .debug_str:0000000000023874 .LASF2566
C:\Users\CYMR90~1\AppData\Local\Temp\cc3o48Uk.s:25566  .debug_str:00000000000172aa .LASF2567
C:\Users\CYMR90~1\AppData\Local\Temp\cc3o48Uk.s:30486  .debug_str:000000000002a9aa .LASF2568
C:\Users\CYMR90~1\AppData\Local\Temp\cc3o48Uk.s:25317  .debug_str:0000000000016127 .LASF2569
C:\Users\CYMR90~1\AppData\Local\Temp\cc3o48Uk.s:29666  .debug_str:0000000000027616 .LASF2570
C:\Users\CYMR90~1\AppData\Local\Temp\cc3o48Uk.s:23039  .debug_str:000000000000d0e5 .LASF2571
C:\Users\CYMR90~1\AppData\Local\Temp\cc3o48Uk.s:27454  .debug_str:000000000001ecc2 .LASF2572
C:\Users\CYMR90~1\AppData\Local\Temp\cc3o48Uk.s:21587  .debug_str:00000000000070b1 .LASF2573
C:\Users\CYMR90~1\AppData\Local\Temp\cc3o48Uk.s:20063  .debug_str:00000000000010a5 .LASF2574
C:\Users\CYMR90~1\AppData\Local\Temp\cc3o48Uk.s:26436  .debug_str:000000000001ac03 .LASF2575
C:\Users\CYMR90~1\AppData\Local\Temp\cc3o48Uk.s:22453  .debug_str:000000000000a984 .LASF2576
C:\Users\CYMR90~1\AppData\Local\Temp\cc3o48Uk.s:25297  .debug_str:0000000000015fe8 .LASF2577
C:\Users\CYMR90~1\AppData\Local\Temp\cc3o48Uk.s:22765  .debug_str:000000000000bf48 .LASF2578
C:\Users\CYMR90~1\AppData\Local\Temp\cc3o48Uk.s:22893  .debug_str:000000000000c73f .LASF2579
C:\Users\CYMR90~1\AppData\Local\Temp\cc3o48Uk.s:26824  .debug_str:000000000001c43d .LASF2580
C:\Users\CYMR90~1\AppData\Local\Temp\cc3o48Uk.s:21017  .debug_str:0000000000004d6f .LASF2581
C:\Users\CYMR90~1\AppData\Local\Temp\cc3o48Uk.s:26682  .debug_str:000000000001bb40 .LASF2582
C:\Users\CYMR90~1\AppData\Local\Temp\cc3o48Uk.s:25171  .debug_str:0000000000015768 .LASF2583
C:\Users\CYMR90~1\AppData\Local\Temp\cc3o48Uk.s:30132  .debug_str:00000000000294d2 .LASF2584
C:\Users\CYMR90~1\AppData\Local\Temp\cc3o48Uk.s:28310  .debug_str:000000000002211e .LASF2585
C:\Users\CYMR90~1\AppData\Local\Temp\cc3o48Uk.s:20985  .debug_str:0000000000004ba3 .LASF2586
C:\Users\CYMR90~1\AppData\Local\Temp\cc3o48Uk.s:20075  .debug_str:000000000000114d .LASF2587
C:\Users\CYMR90~1\AppData\Local\Temp\cc3o48Uk.s:30412  .debug_str:000000000002a550 .LASF2588
C:\Users\CYMR90~1\AppData\Local\Temp\cc3o48Uk.s:20015  .debug_str:0000000000000d1e .LASF2589
C:\Users\CYMR90~1\AppData\Local\Temp\cc3o48Uk.s:21711  .debug_str:000000000000788b .LASF2590
C:\Users\CYMR90~1\AppData\Local\Temp\cc3o48Uk.s:22189  .debug_str:00000000000097b1 .LASF2591
C:\Users\CYMR90~1\AppData\Local\Temp\cc3o48Uk.s:24421  .debug_str:0000000000012884 .LASF2592
C:\Users\CYMR90~1\AppData\Local\Temp\cc3o48Uk.s:22247  .debug_str:0000000000009bc2 .LASF2593
C:\Users\CYMR90~1\AppData\Local\Temp\cc3o48Uk.s:28324  .debug_str:00000000000221e7 .LASF2594
C:\Users\CYMR90~1\AppData\Local\Temp\cc3o48Uk.s:26692  .debug_str:000000000001bc10 .LASF2595
C:\Users\CYMR90~1\AppData\Local\Temp\cc3o48Uk.s:25828  .debug_str:000000000001835c .LASF2596
C:\Users\CYMR90~1\AppData\Local\Temp\cc3o48Uk.s:27406  .debug_str:000000000001ea3c .LASF2597
C:\Users\CYMR90~1\AppData\Local\Temp\cc3o48Uk.s:30996  .debug_str:000000000002cb3d .LASF2598
C:\Users\CYMR90~1\AppData\Local\Temp\cc3o48Uk.s:20249  .debug_str:0000000000001c77 .LASF2599
C:\Users\CYMR90~1\AppData\Local\Temp\cc3o48Uk.s:24679  .debug_str:00000000000138f8 .LASF2600
C:\Users\CYMR90~1\AppData\Local\Temp\cc3o48Uk.s:28286  .debug_str:0000000000021f95 .LASF2601
C:\Users\CYMR90~1\AppData\Local\Temp\cc3o48Uk.s:30770  .debug_str:000000000002bc51 .LASF2602
C:\Users\CYMR90~1\AppData\Local\Temp\cc3o48Uk.s:24119  .debug_str:0000000000011428 .LASF2603
C:\Users\CYMR90~1\AppData\Local\Temp\cc3o48Uk.s:23471  .debug_str:000000000000ebec .LASF2604
C:\Users\CYMR90~1\AppData\Local\Temp\cc3o48Uk.s:26950  .debug_str:000000000001cc90 .LASF2605
C:\Users\CYMR90~1\AppData\Local\Temp\cc3o48Uk.s:26214  .debug_str:0000000000019cee .LASF2606
C:\Users\CYMR90~1\AppData\Local\Temp\cc3o48Uk.s:21033  .debug_str:0000000000004e78 .LASF2607
C:\Users\CYMR90~1\AppData\Local\Temp\cc3o48Uk.s:20949  .debug_str:0000000000004968 .LASF2608
C:\Users\CYMR90~1\AppData\Local\Temp\cc3o48Uk.s:31026  .debug_str:000000000002cd77 .LASF2609
C:\Users\CYMR90~1\AppData\Local\Temp\cc3o48Uk.s:27580  .debug_str:000000000001f477 .LASF2610
C:\Users\CYMR90~1\AppData\Local\Temp\cc3o48Uk.s:21867  .debug_str:00000000000083d6 .LASF2611
C:\Users\CYMR90~1\AppData\Local\Temp\cc3o48Uk.s:21855  .debug_str:0000000000008335 .LASF2612
C:\Users\CYMR90~1\AppData\Local\Temp\cc3o48Uk.s:29194  .debug_str:0000000000025922 .LASF2613
C:\Users\CYMR90~1\AppData\Local\Temp\cc3o48Uk.s:24075  .debug_str:0000000000011191 .LASF2614
C:\Users\CYMR90~1\AppData\Local\Temp\cc3o48Uk.s:28304  .debug_str:00000000000220cb .LASF2615
C:\Users\CYMR90~1\AppData\Local\Temp\cc3o48Uk.s:26638  .debug_str:000000000001b8e9 .LASF2616
C:\Users\CYMR90~1\AppData\Local\Temp\cc3o48Uk.s:29922  .debug_str:0000000000028832 .LASF2617
C:\Users\CYMR90~1\AppData\Local\Temp\cc3o48Uk.s:28166  .debug_str:000000000002187f .LASF2618
C:\Users\CYMR90~1\AppData\Local\Temp\cc3o48Uk.s:27192  .debug_str:000000000001dc79 .LASF2619
C:\Users\CYMR90~1\AppData\Local\Temp\cc3o48Uk.s:26190  .debug_str:0000000000019b8b .LASF2620
C:\Users\CYMR90~1\AppData\Local\Temp\cc3o48Uk.s:25273  .debug_str:0000000000015e38 .LASF2621
C:\Users\CYMR90~1\AppData\Local\Temp\cc3o48Uk.s:24329  .debug_str:000000000001227d .LASF2622
C:\Users\CYMR90~1\AppData\Local\Temp\cc3o48Uk.s:28546  .debug_str:0000000000022f05 .LASF2623
C:\Users\CYMR90~1\AppData\Local\Temp\cc3o48Uk.s:25099  .debug_str:0000000000015336 .LASF2624
C:\Users\CYMR90~1\AppData\Local\Temp\cc3o48Uk.s:20873  .debug_str:00000000000043df .LASF2625
C:\Users\CYMR90~1\AppData\Local\Temp\cc3o48Uk.s:20585  .debug_str:00000000000030f2 .LASF2626
C:\Users\CYMR90~1\AppData\Local\Temp\cc3o48Uk.s:22117  .debug_str:0000000000009338 .LASF2627
C:\Users\CYMR90~1\AppData\Local\Temp\cc3o48Uk.s:20011  .debug_str:0000000000000ce7 .LASF2628
C:\Users\CYMR90~1\AppData\Local\Temp\cc3o48Uk.s:23263  .debug_str:000000000000def4 .LASF2629
C:\Users\CYMR90~1\AppData\Local\Temp\cc3o48Uk.s:28714  .debug_str:0000000000023907 .LASF2630
C:\Users\CYMR90~1\AppData\Local\Temp\cc3o48Uk.s:20291  .debug_str:0000000000001ef2 .LASF2631
C:\Users\CYMR90~1\AppData\Local\Temp\cc3o48Uk.s:22731  .debug_str:000000000000bc73 .LASF2632
C:\Users\CYMR90~1\AppData\Local\Temp\cc3o48Uk.s:20115  .debug_str:0000000000001387 .LASF2633
C:\Users\CYMR90~1\AppData\Local\Temp\cc3o48Uk.s:26316  .debug_str:000000000001a469 .LASF2634
C:\Users\CYMR90~1\AppData\Local\Temp\cc3o48Uk.s:26108  .debug_str:0000000000019601 .LASF2635
C:\Users\CYMR90~1\AppData\Local\Temp\cc3o48Uk.s:24595  .debug_str:0000000000013402 .LASF2636
C:\Users\CYMR90~1\AppData\Local\Temp\cc3o48Uk.s:29824  .debug_str:0000000000028162 .LASF2637
C:\Users\CYMR90~1\AppData\Local\Temp\cc3o48Uk.s:22317  .debug_str:000000000000a016 .LASF2638
C:\Users\CYMR90~1\AppData\Local\Temp\cc3o48Uk.s:26360  .debug_str:000000000001a6c5 .LASF2639
C:\Users\CYMR90~1\AppData\Local\Temp\cc3o48Uk.s:26996  .debug_str:000000000001d096 .LASF2640
C:\Users\CYMR90~1\AppData\Local\Temp\cc3o48Uk.s:25504  .debug_str:0000000000016ee2 .LASF2641
C:\Users\CYMR90~1\AppData\Local\Temp\cc3o48Uk.s:29420  .debug_str:0000000000026721 .LASF2642
C:\Users\CYMR90~1\AppData\Local\Temp\cc3o48Uk.s:24535  .debug_str:0000000000012fdd .LASF2643
C:\Users\CYMR90~1\AppData\Local\Temp\cc3o48Uk.s:19877  .debug_str:000000000000049b .LASF2644
C:\Users\CYMR90~1\AppData\Local\Temp\cc3o48Uk.s:20357  .debug_str:000000000000227d .LASF2645
C:\Users\CYMR90~1\AppData\Local\Temp\cc3o48Uk.s:25129  .debug_str:00000000000154bf .LASF2646
C:\Users\CYMR90~1\AppData\Local\Temp\cc3o48Uk.s:19999  .debug_str:0000000000000c46 .LASF2647
C:\Users\CYMR90~1\AppData\Local\Temp\cc3o48Uk.s:27098  .debug_str:000000000001d6e5 .LASF2648
C:\Users\CYMR90~1\AppData\Local\Temp\cc3o48Uk.s:27676  .debug_str:000000000001fa1e .LASF2649
C:\Users\CYMR90~1\AppData\Local\Temp\cc3o48Uk.s:28994  .debug_str:0000000000024ae2 .LASF2650
C:\Users\CYMR90~1\AppData\Local\Temp\cc3o48Uk.s:21135  .debug_str:000000000000547e .LASF2651
C:\Users\CYMR90~1\AppData\Local\Temp\cc3o48Uk.s:20739  .debug_str:0000000000003ac7 .LASF2652
C:\Users\CYMR90~1\AppData\Local\Temp\cc3o48Uk.s:24809  .debug_str:0000000000014114 .LASF2653
C:\Users\CYMR90~1\AppData\Local\Temp\cc3o48Uk.s:22801  .debug_str:000000000000c18a .LASF2654
C:\Users\CYMR90~1\AppData\Local\Temp\cc3o48Uk.s:27566  .debug_str:000000000001f3a1 .LASF2655
C:\Users\CYMR90~1\AppData\Local\Temp\cc3o48Uk.s:23349  .debug_str:000000000000e3e4 .LASF2656
C:\Users\CYMR90~1\AppData\Local\Temp\cc3o48Uk.s:27374  .debug_str:000000000001e842 .LASF2657
C:\Users\CYMR90~1\AppData\Local\Temp\cc3o48Uk.s:30980  .debug_str:000000000002ca65 .LASF2658
C:\Users\CYMR90~1\AppData\Local\Temp\cc3o48Uk.s:21249  .debug_str:0000000000005b7b .LASF2659
C:\Users\CYMR90~1\AppData\Local\Temp\cc3o48Uk.s:26344  .debug_str:000000000001a5ba .LASF2660
C:\Users\CYMR90~1\AppData\Local\Temp\cc3o48Uk.s:22529  .debug_str:000000000000ae92 .LASF2661
C:\Users\CYMR90~1\AppData\Local\Temp\cc3o48Uk.s:28524  .debug_str:0000000000022dc8 .LASF2662
C:\Users\CYMR90~1\AppData\Local\Temp\cc3o48Uk.s:31000  .debug_str:000000000002cb73 .LASF2663
C:\Users\CYMR90~1\AppData\Local\Temp\cc3o48Uk.s:24265  .debug_str:0000000000011e61 .LASF2664
C:\Users\CYMR90~1\AppData\Local\Temp\cc3o48Uk.s:25141  .debug_str:0000000000015574 .LASF2665
C:\Users\CYMR90~1\AppData\Local\Temp\cc3o48Uk.s:20403  .debug_str:0000000000002540 .LASF2666
C:\Users\CYMR90~1\AppData\Local\Temp\cc3o48Uk.s:26988  .debug_str:000000000001d018 .LASF2667
C:\Users\CYMR90~1\AppData\Local\Temp\cc3o48Uk.s:26376  .debug_str:000000000001a857 .LASF2668
C:\Users\CYMR90~1\AppData\Local\Temp\cc3o48Uk.s:26414  .debug_str:000000000001aac8 .LASF2669
C:\Users\CYMR90~1\AppData\Local\Temp\cc3o48Uk.s:25369  .debug_str:00000000000163be .LASF2670
C:\Users\CYMR90~1\AppData\Local\Temp\cc3o48Uk.s:22657  .debug_str:000000000000b790 .LASF2671
C:\Users\CYMR90~1\AppData\Local\Temp\cc3o48Uk.s:24747  .debug_str:0000000000013cf9 .LASF2672
C:\Users\CYMR90~1\AppData\Local\Temp\cc3o48Uk.s:29326  .debug_str:000000000002615f .LASF2673
C:\Users\CYMR90~1\AppData\Local\Temp\cc3o48Uk.s:26580  .debug_str:000000000001b568 .LASF2674
C:\Users\CYMR90~1\AppData\Local\Temp\cc3o48Uk.s:21283  .debug_str:0000000000005d72 .LASF2675
C:\Users\CYMR90~1\AppData\Local\Temp\cc3o48Uk.s:22837  .debug_str:000000000000c3d5 .LASF2676
C:\Users\CYMR90~1\AppData\Local\Temp\cc3o48Uk.s:25063  .debug_str:0000000000015137 .LASF2677
C:\Users\CYMR90~1\AppData\Local\Temp\cc3o48Uk.s:29684  .debug_str:000000000002773e .LASF2678
C:\Users\CYMR90~1\AppData\Local\Temp\cc3o48Uk.s:22781  .debug_str:000000000000c050 .LASF2679
C:\Users\CYMR90~1\AppData\Local\Temp\cc3o48Uk.s:23335  .debug_str:000000000000e329 .LASF2680
C:\Users\CYMR90~1\AppData\Local\Temp\cc3o48Uk.s:27316  .debug_str:000000000001e477 .LASF2681
C:\Users\CYMR90~1\AppData\Local\Temp\cc3o48Uk.s:21045  .debug_str:0000000000004f2a .LASF2682
C:\Users\CYMR90~1\AppData\Local\Temp\cc3o48Uk.s:30562  .debug_str:000000000002ae22 .LASF2683
C:\Users\CYMR90~1\AppData\Local\Temp\cc3o48Uk.s:28752  .debug_str:0000000000023b1b .LASF2684
C:\Users\CYMR90~1\AppData\Local\Temp\cc3o48Uk.s:29558  .debug_str:0000000000026f34 .LASF2685
C:\Users\CYMR90~1\AppData\Local\Temp\cc3o48Uk.s:21483  .debug_str:00000000000069c9 .LASF2686
C:\Users\CYMR90~1\AppData\Local\Temp\cc3o48Uk.s:31070  .debug_str:000000000002d006 .LASF2687
C:\Users\CYMR90~1\AppData\Local\Temp\cc3o48Uk.s:20557  .debug_str:0000000000002f33 .LASF2688
C:\Users\CYMR90~1\AppData\Local\Temp\cc3o48Uk.s:20293  .debug_str:0000000000001f14 .LASF2689
C:\Users\CYMR90~1\AppData\Local\Temp\cc3o48Uk.s:27344  .debug_str:000000000001e655 .LASF2690
C:\Users\CYMR90~1\AppData\Local\Temp\cc3o48Uk.s:20535  .debug_str:0000000000002dd3 .LASF2691
C:\Users\CYMR90~1\AppData\Local\Temp\cc3o48Uk.s:24647  .debug_str:0000000000013702 .LASF2692
C:\Users\CYMR90~1\AppData\Local\Temp\cc3o48Uk.s:30856  .debug_str:000000000002c205 .LASF2693
C:\Users\CYMR90~1\AppData\Local\Temp\cc3o48Uk.s:29460  .debug_str:0000000000026978 .LASF2694
C:\Users\CYMR90~1\AppData\Local\Temp\cc3o48Uk.s:21269  .debug_str:0000000000005cad .LASF2695
C:\Users\CYMR90~1\AppData\Local\Temp\cc3o48Uk.s:30534  .debug_str:000000000002ac9a .LASF2696
C:\Users\CYMR90~1\AppData\Local\Temp\cc3o48Uk.s:26906  .debug_str:000000000001c9d3 .LASF2697
C:\Users\CYMR90~1\AppData\Local\Temp\cc3o48Uk.s:27900  .debug_str:00000000000207e2 .LASF2698
C:\Users\CYMR90~1\AppData\Local\Temp\cc3o48Uk.s:23689  .debug_str:000000000000f94f .LASF2699
C:\Users\CYMR90~1\AppData\Local\Temp\cc3o48Uk.s:22851  .debug_str:000000000000c48b .LASF2700
C:\Users\CYMR90~1\AppData\Local\Temp\cc3o48Uk.s:26636  .debug_str:000000000001b8cd .LASF2701
C:\Users\CYMR90~1\AppData\Local\Temp\cc3o48Uk.s:29864  .debug_str:0000000000028407 .LASF2702
C:\Users\CYMR90~1\AppData\Local\Temp\cc3o48Uk.s:28298  .debug_str:0000000000022056 .LASF2703
C:\Users\CYMR90~1\AppData\Local\Temp\cc3o48Uk.s:29222  .debug_str:0000000000025acd .LASF2704
C:\Users\CYMR90~1\AppData\Local\Temp\cc3o48Uk.s:20875  .debug_str:00000000000043fb .LASF2705
C:\Users\CYMR90~1\AppData\Local\Temp\cc3o48Uk.s:26954  .debug_str:000000000001ccc2 .LASF2706
C:\Users\CYMR90~1\AppData\Local\Temp\cc3o48Uk.s:30120  .debug_str:00000000000293db .LASF2707
C:\Users\CYMR90~1\AppData\Local\Temp\cc3o48Uk.s:29264  .debug_str:0000000000025d5f .LASF2708
C:\Users\CYMR90~1\AppData\Local\Temp\cc3o48Uk.s:27088  .debug_str:000000000001d5e1 .LASF2709
C:\Users\CYMR90~1\AppData\Local\Temp\cc3o48Uk.s:23151  .debug_str:000000000000d827 .LASF2710
C:\Users\CYMR90~1\AppData\Local\Temp\cc3o48Uk.s:30628  .debug_str:000000000002b2b9 .LASF2711
C:\Users\CYMR90~1\AppData\Local\Temp\cc3o48Uk.s:25750  .debug_str:0000000000017eb6 .LASF2712
C:\Users\CYMR90~1\AppData\Local\Temp\cc3o48Uk.s:20749  .debug_str:0000000000003b63 .LASF2713
C:\Users\CYMR90~1\AppData\Local\Temp\cc3o48Uk.s:30668  .debug_str:000000000002b55a .LASF2714
C:\Users\CYMR90~1\AppData\Local\Temp\cc3o48Uk.s:26994  .debug_str:000000000001d074 .LASF2715
C:\Users\CYMR90~1\AppData\Local\Temp\cc3o48Uk.s:23523  .debug_str:000000000000eeba .LASF2716
C:\Users\CYMR90~1\AppData\Local\Temp\cc3o48Uk.s:24961  .debug_str:0000000000014a93 .LASF2717
C:\Users\CYMR90~1\AppData\Local\Temp\cc3o48Uk.s:24861  .debug_str:0000000000014464 .LASF2718
C:\Users\CYMR90~1\AppData\Local\Temp\cc3o48Uk.s:23545  .debug_str:000000000000f00f .LASF2719
C:\Users\CYMR90~1\AppData\Local\Temp\cc3o48Uk.s:23239  .debug_str:000000000000dd61 .LASF2720
C:\Users\CYMR90~1\AppData\Local\Temp\cc3o48Uk.s:28690  .debug_str:0000000000023798 .LASF2721
C:\Users\CYMR90~1\AppData\Local\Temp\cc3o48Uk.s:25564  .debug_str:0000000000017285 .LASF2722
C:\Users\CYMR90~1\AppData\Local\Temp\cc3o48Uk.s:24643  .debug_str:00000000000136b8 .LASF2723
C:\Users\CYMR90~1\AppData\Local\Temp\cc3o48Uk.s:21975  .debug_str:0000000000008a7e .LASF2724
C:\Users\CYMR90~1\AppData\Local\Temp\cc3o48Uk.s:30374  .debug_str:000000000002a2de .LASF2725
C:\Users\CYMR90~1\AppData\Local\Temp\cc3o48Uk.s:30846  .debug_str:000000000002c184 .LASF2726
C:\Users\CYMR90~1\AppData\Local\Temp\cc3o48Uk.s:25051  .debug_str:000000000001508e .LASF2727
C:\Users\CYMR90~1\AppData\Local\Temp\cc3o48Uk.s:21117  .debug_str:000000000000536b .LASF2728
C:\Users\CYMR90~1\AppData\Local\Temp\cc3o48Uk.s:25239  .debug_str:0000000000015bd9 .LASF2729
C:\Users\CYMR90~1\AppData\Local\Temp\cc3o48Uk.s:30812  .debug_str:000000000002bf60 .LASF2730
C:\Users\CYMR90~1\AppData\Local\Temp\cc3o48Uk.s:23883  .debug_str:000000000001053a .LASF2731
C:\Users\CYMR90~1\AppData\Local\Temp\cc3o48Uk.s:22387  .debug_str:000000000000a4d5 .LASF2732
C:\Users\CYMR90~1\AppData\Local\Temp\cc3o48Uk.s:19953  .debug_str:000000000000091b .LASF2733
C:\Users\CYMR90~1\AppData\Local\Temp\cc3o48Uk.s:27894  .debug_str:0000000000020763 .LASF2734
C:\Users\CYMR90~1\AppData\Local\Temp\cc3o48Uk.s:30922  .debug_str:000000000002c663 .LASF2735
C:\Users\CYMR90~1\AppData\Local\Temp\cc3o48Uk.s:22671  .debug_str:000000000000b882 .LASF2736
C:\Users\CYMR90~1\AppData\Local\Temp\cc3o48Uk.s:20175  .debug_str:0000000000001742 .LASF2737
C:\Users\CYMR90~1\AppData\Local\Temp\cc3o48Uk.s:29452  .debug_str:0000000000026902 .LASF2738
C:\Users\CYMR90~1\AppData\Local\Temp\cc3o48Uk.s:31048  .debug_str:000000000002ceb0 .LASF2739
C:\Users\CYMR90~1\AppData\Local\Temp\cc3o48Uk.s:23425  .debug_str:000000000000e8ab .LASF2740
C:\Users\CYMR90~1\AppData\Local\Temp\cc3o48Uk.s:26758  .debug_str:000000000001c04c .LASF2741
C:\Users\CYMR90~1\AppData\Local\Temp\cc3o48Uk.s:28454  .debug_str:0000000000022974 .LASF2742
C:\Users\CYMR90~1\AppData\Local\Temp\cc3o48Uk.s:24003  .debug_str:0000000000010d50 .LASF2743
C:\Users\CYMR90~1\AppData\Local\Temp\cc3o48Uk.s:23149  .debug_str:000000000000d80e .LASF2744
C:\Users\CYMR90~1\AppData\Local\Temp\cc3o48Uk.s:27884  .debug_str:00000000000206d1 .LASF2745
C:\Users\CYMR90~1\AppData\Local\Temp\cc3o48Uk.s:30238  .debug_str:0000000000029afe .LASF2746
C:\Users\CYMR90~1\AppData\Local\Temp\cc3o48Uk.s:22803  .debug_str:000000000000c1b8 .LASF2747
C:\Users\CYMR90~1\AppData\Local\Temp\cc3o48Uk.s:21585  .debug_str:000000000000709a .LASF2748
C:\Users\CYMR90~1\AppData\Local\Temp\cc3o48Uk.s:28050  .debug_str:00000000000210dd .LASF2749
C:\Users\CYMR90~1\AppData\Local\Temp\cc3o48Uk.s:30262  .debug_str:0000000000029c63 .LASF2750
C:\Users\CYMR90~1\AppData\Local\Temp\cc3o48Uk.s:20543  .debug_str:0000000000002e55 .LASF2751
C:\Users\CYMR90~1\AppData\Local\Temp\cc3o48Uk.s:22865  .debug_str:000000000000c579 .LASF2752
C:\Users\CYMR90~1\AppData\Local\Temp\cc3o48Uk.s:23359  .debug_str:000000000000e489 .LASF2753
C:\Users\CYMR90~1\AppData\Local\Temp\cc3o48Uk.s:30658  .debug_str:000000000002b4ce .LASF2754
C:\Users\CYMR90~1\AppData\Local\Temp\cc3o48Uk.s:21553  .debug_str:0000000000006e3d .LASF2755
C:\Users\CYMR90~1\AppData\Local\Temp\cc3o48Uk.s:27788  .debug_str:0000000000020114 .LASF2756
C:\Users\CYMR90~1\AppData\Local\Temp\cc3o48Uk.s:23719  .debug_str:000000000000fb1b .LASF2757
C:\Users\CYMR90~1\AppData\Local\Temp\cc3o48Uk.s:29822  .debug_str:000000000002814b .LASF2758
C:\Users\CYMR90~1\AppData\Local\Temp\cc3o48Uk.s:22203  .debug_str:00000000000098dc .LASF2759
C:\Users\CYMR90~1\AppData\Local\Temp\cc3o48Uk.s:22311  .debug_str:0000000000009fb5 .LASF2760
C:\Users\CYMR90~1\AppData\Local\Temp\cc3o48Uk.s:23311  .debug_str:000000000000e1a5 .LASF2761
C:\Users\CYMR90~1\AppData\Local\Temp\cc3o48Uk.s:22419  .debug_str:000000000000a69d .LASF2762
C:\Users\CYMR90~1\AppData\Local\Temp\cc3o48Uk.s:26224  .debug_str:0000000000019d98 .LASF2763
C:\Users\CYMR90~1\AppData\Local\Temp\cc3o48Uk.s:23477  .debug_str:000000000000ec41 .LASF2764
C:\Users\CYMR90~1\AppData\Local\Temp\cc3o48Uk.s:24021  .debug_str:0000000000010e35 .LASF2765
C:\Users\CYMR90~1\AppData\Local\Temp\cc3o48Uk.s:29786  .debug_str:0000000000027e6f .LASF2766
C:\Users\CYMR90~1\AppData\Local\Temp\cc3o48Uk.s:21943  .debug_str:0000000000008884 .LASF2767
C:\Users\CYMR90~1\AppData\Local\Temp\cc3o48Uk.s:30734  .debug_str:000000000002ba0a .LASF2768
C:\Users\CYMR90~1\AppData\Local\Temp\cc3o48Uk.s:29882  .debug_str:000000000002856d .LASF2769
C:\Users\CYMR90~1\AppData\Local\Temp\cc3o48Uk.s:30152  .debug_str:00000000000295f3 .LASF2770
C:\Users\CYMR90~1\AppData\Local\Temp\cc3o48Uk.s:20795  .debug_str:0000000000003ea4 .LASF2771
C:\Users\CYMR90~1\AppData\Local\Temp\cc3o48Uk.s:26812  .debug_str:000000000001c3a5 .LASF2772
C:\Users\CYMR90~1\AppData\Local\Temp\cc3o48Uk.s:26618  .debug_str:000000000001b7b0 .LASF2773
C:\Users\CYMR90~1\AppData\Local\Temp\cc3o48Uk.s:29060  .debug_str:0000000000024ef5 .LASF2774
C:\Users\CYMR90~1\AppData\Local\Temp\cc3o48Uk.s:23155  .debug_str:000000000000d86b .LASF2775
C:\Users\CYMR90~1\AppData\Local\Temp\cc3o48Uk.s:26226  .debug_str:0000000000019daf .LASF2776
C:\Users\CYMR90~1\AppData\Local\Temp\cc3o48Uk.s:20085  .debug_str:000000000000120c .LASF2777
C:\Users\CYMR90~1\AppData\Local\Temp\cc3o48Uk.s:20183  .debug_str:0000000000001865 .LASF2778
C:\Users\CYMR90~1\AppData\Local\Temp\cc3o48Uk.s:26816  .debug_str:000000000001c3d9 .LASF2779
C:\Users\CYMR90~1\AppData\Local\Temp\cc3o48Uk.s:30168  .debug_str:00000000000296de .LASF2780
C:\Users\CYMR90~1\AppData\Local\Temp\cc3o48Uk.s:20213  .debug_str:0000000000001a35 .LASF2781
C:\Users\CYMR90~1\AppData\Local\Temp\cc3o48Uk.s:22275  .debug_str:0000000000009d74 .LASF2782
C:\Users\CYMR90~1\AppData\Local\Temp\cc3o48Uk.s:29588  .debug_str:00000000000271dd .LASF2783
C:\Users\CYMR90~1\AppData\Local\Temp\cc3o48Uk.s:21827  .debug_str:0000000000008153 .LASF2784
C:\Users\CYMR90~1\AppData\Local\Temp\cc3o48Uk.s:23317  .debug_str:000000000000e21e .LASF2785
C:\Users\CYMR90~1\AppData\Local\Temp\cc3o48Uk.s:28818  .debug_str:0000000000023e7b .LASF2786
C:\Users\CYMR90~1\AppData\Local\Temp\cc3o48Uk.s:26158  .debug_str:0000000000019942 .LASF2787
C:\Users\CYMR90~1\AppData\Local\Temp\cc3o48Uk.s:27656  .debug_str:000000000001f8ee .LASF2788
C:\Users\CYMR90~1\AppData\Local\Temp\cc3o48Uk.s:27578  .debug_str:000000000001f464 .LASF2789
C:\Users\CYMR90~1\AppData\Local\Temp\cc3o48Uk.s:21799  .debug_str:0000000000007edf .LASF2790
C:\Users\CYMR90~1\AppData\Local\Temp\cc3o48Uk.s:29772  .debug_str:0000000000027d46 .LASF2791
C:\Users\CYMR90~1\AppData\Local\Temp\cc3o48Uk.s:29284  .debug_str:0000000000025ed2 .LASF2792
C:\Users\CYMR90~1\AppData\Local\Temp\cc3o48Uk.s:29052  .debug_str:0000000000024e8a .LASF2793
C:\Users\CYMR90~1\AppData\Local\Temp\cc3o48Uk.s:20775  .debug_str:0000000000003d24 .LASF2794
C:\Users\CYMR90~1\AppData\Local\Temp\cc3o48Uk.s:28028  .debug_str:0000000000020fb7 .LASF2795
C:\Users\CYMR90~1\AppData\Local\Temp\cc3o48Uk.s:23989  .debug_str:0000000000010c9e .LASF2796
C:\Users\CYMR90~1\AppData\Local\Temp\cc3o48Uk.s:29526  .debug_str:0000000000026d90 .LASF2797
C:\Users\CYMR90~1\AppData\Local\Temp\cc3o48Uk.s:28694  .debug_str:00000000000237d5 .LASF2798
C:\Users\CYMR90~1\AppData\Local\Temp\cc3o48Uk.s:25524  .debug_str:0000000000017020 .LASF2799
C:\Users\CYMR90~1\AppData\Local\Temp\cc3o48Uk.s:25259  .debug_str:0000000000015d5a .LASF2800
C:\Users\CYMR90~1\AppData\Local\Temp\cc3o48Uk.s:27530  .debug_str:000000000001f18c .LASF2801
C:\Users\CYMR90~1\AppData\Local\Temp\cc3o48Uk.s:23949  .debug_str:00000000000109dc .LASF2802
C:\Users\CYMR90~1\AppData\Local\Temp\cc3o48Uk.s:24077  .debug_str:00000000000111b5 .LASF2803
C:\Users\CYMR90~1\AppData\Local\Temp\cc3o48Uk.s:23493  .debug_str:000000000000ed16 .LASF2804
C:\Users\CYMR90~1\AppData\Local\Temp\cc3o48Uk.s:23619  .debug_str:000000000000f4b1 .LASF2805
C:\Users\CYMR90~1\AppData\Local\Temp\cc3o48Uk.s:24559  .debug_str:00000000000131bf .LASF2806
C:\Users\CYMR90~1\AppData\Local\Temp\cc3o48Uk.s:29900  .debug_str:00000000000286ac .LASF2807
C:\Users\CYMR90~1\AppData\Local\Temp\cc3o48Uk.s:25381  .debug_str:00000000000164fc .LASF2808
C:\Users\CYMR90~1\AppData\Local\Temp\cc3o48Uk.s:28812  .debug_str:0000000000023e3f .LASF2809
C:\Users\CYMR90~1\AppData\Local\Temp\cc3o48Uk.s:26264  .debug_str:0000000000019fc0 .LASF2810
C:\Users\CYMR90~1\AppData\Local\Temp\cc3o48Uk.s:21577  .debug_str:0000000000006ff2 .LASF2811
C:\Users\CYMR90~1\AppData\Local\Temp\cc3o48Uk.s:29952  .debug_str:00000000000289e8 .LASF2812
C:\Users\CYMR90~1\AppData\Local\Temp\cc3o48Uk.s:22325  .debug_str:000000000000a0a2 .LASF2813
C:\Users\CYMR90~1\AppData\Local\Temp\cc3o48Uk.s:24751  .debug_str:0000000000013d2f .LASF2814
C:\Users\CYMR90~1\AppData\Local\Temp\cc3o48Uk.s:25045  .debug_str:000000000001502a .LASF2815
C:\Users\CYMR90~1\AppData\Local\Temp\cc3o48Uk.s:25107  .debug_str:00000000000153aa .LASF2816
C:\Users\CYMR90~1\AppData\Local\Temp\cc3o48Uk.s:27970  .debug_str:0000000000020c6a .LASF2817
C:\Users\CYMR90~1\AppData\Local\Temp\cc3o48Uk.s:25908  .debug_str:0000000000018849 .LASF2818
C:\Users\CYMR90~1\AppData\Local\Temp\cc3o48Uk.s:23457  .debug_str:000000000000eab9 .LASF2819
C:\Users\CYMR90~1\AppData\Local\Temp\cc3o48Uk.s:30046  .debug_str:0000000000028f90 .LASF2820
C:\Users\CYMR90~1\AppData\Local\Temp\cc3o48Uk.s:28474  .debug_str:0000000000022a8c .LASF2821
C:\Users\CYMR90~1\AppData\Local\Temp\cc3o48Uk.s:22877  .debug_str:000000000000c628 .LASF2822
C:\Users\CYMR90~1\AppData\Local\Temp\cc3o48Uk.s:30870  .debug_str:000000000002c347 .LASF2823
C:\Users\CYMR90~1\AppData\Local\Temp\cc3o48Uk.s:27628  .debug_str:000000000001f737 .LASF2824
C:\Users\CYMR90~1\AppData\Local\Temp\cc3o48Uk.s:29570  .debug_str:000000000002700d .LASF2825
C:\Users\CYMR90~1\AppData\Local\Temp\cc3o48Uk.s:25620  .debug_str:000000000001763d .LASF2826
C:\Users\CYMR90~1\AppData\Local\Temp\cc3o48Uk.s:22779  .debug_str:000000000000c028 .LASF2827
C:\Users\CYMR90~1\AppData\Local\Temp\cc3o48Uk.s:26228  .debug_str:0000000000019dcd .LASF2828
C:\Users\CYMR90~1\AppData\Local\Temp\cc3o48Uk.s:25053  .debug_str:00000000000150b9 .LASF2829
C:\Users\CYMR90~1\AppData\Local\Temp\cc3o48Uk.s:25974  .debug_str:0000000000018d4f .LASF2830
C:\Users\CYMR90~1\AppData\Local\Temp\cc3o48Uk.s:27662  .debug_str:000000000001f953 .LASF2831
C:\Users\CYMR90~1\AppData\Local\Temp\cc3o48Uk.s:28912  .debug_str:000000000002453c .LASF2832
C:\Users\CYMR90~1\AppData\Local\Temp\cc3o48Uk.s:26104  .debug_str:00000000000195cd .LASF2833
C:\Users\CYMR90~1\AppData\Local\Temp\cc3o48Uk.s:23669  .debug_str:000000000000f830 .LASF2834
C:\Users\CYMR90~1\AppData\Local\Temp\cc3o48Uk.s:20555  .debug_str:0000000000002f07 .LASF2835
C:\Users\CYMR90~1\AppData\Local\Temp\cc3o48Uk.s:23537  .debug_str:000000000000ef9e .LASF2836
C:\Users\CYMR90~1\AppData\Local\Temp\cc3o48Uk.s:27852  .debug_str:0000000000020487 .LASF2837
C:\Users\CYMR90~1\AppData\Local\Temp\cc3o48Uk.s:25131  .debug_str:00000000000154e4 .LASF2838
C:\Users\CYMR90~1\AppData\Local\Temp\cc3o48Uk.s:21325  .debug_str:0000000000005fea .LASF2839
C:\Users\CYMR90~1\AppData\Local\Temp\cc3o48Uk.s:26754  .debug_str:000000000001c015 .LASF2840
C:\Users\CYMR90~1\AppData\Local\Temp\cc3o48Uk.s:25782  .debug_str:0000000000018069 .LASF2841
C:\Users\CYMR90~1\AppData\Local\Temp\cc3o48Uk.s:20611  .debug_str:00000000000032ad .LASF2842
C:\Users\CYMR90~1\AppData\Local\Temp\cc3o48Uk.s:23951  .debug_str:00000000000109f4 .LASF2843
C:\Users\CYMR90~1\AppData\Local\Temp\cc3o48Uk.s:29834  .debug_str:00000000000281f3 .LASF2844
C:\Users\CYMR90~1\AppData\Local\Temp\cc3o48Uk.s:22041  .debug_str:0000000000008efc .LASF2845
C:\Users\CYMR90~1\AppData\Local\Temp\cc3o48Uk.s:21125  .debug_str:00000000000053f9 .LASF2846
C:\Users\CYMR90~1\AppData\Local\Temp\cc3o48Uk.s:20197  .debug_str:000000000000194a .LASF2847
C:\Users\CYMR90~1\AppData\Local\Temp\cc3o48Uk.s:30546  .debug_str:000000000002ad56 .LASF2848
C:\Users\CYMR90~1\AppData\Local\Temp\cc3o48Uk.s:28118  .debug_str:00000000000215a0 .LASF2849
C:\Users\CYMR90~1\AppData\Local\Temp\cc3o48Uk.s:27150  .debug_str:000000000001d9fd .LASF2850
C:\Users\CYMR90~1\AppData\Local\Temp\cc3o48Uk.s:26306  .debug_str:000000000001a218 .LASF2851
C:\Users\CYMR90~1\AppData\Local\Temp\cc3o48Uk.s:25301  .debug_str:0000000000016027 .LASF2852
C:\Users\CYMR90~1\AppData\Local\Temp\cc3o48Uk.s:24351  .debug_str:00000000000123dc .LASF2853
C:\Users\CYMR90~1\AppData\Local\Temp\cc3o48Uk.s:23417  .debug_str:000000000000e83a .LASF2854
C:\Users\CYMR90~1\AppData\Local\Temp\cc3o48Uk.s:27870  .debug_str:00000000000205eb .LASF2855
C:\Users\CYMR90~1\AppData\Local\Temp\cc3o48Uk.s:29518  .debug_str:0000000000026cf6 .LASF2856
C:\Users\CYMR90~1\AppData\Local\Temp\cc3o48Uk.s:29314  .debug_str:00000000000260c4 .LASF2857
C:\Users\CYMR90~1\AppData\Local\Temp\cc3o48Uk.s:23855  .debug_str:000000000001038f .LASF2858
C:\Users\CYMR90~1\AppData\Local\Temp\cc3o48Uk.s:22463  .debug_str:000000000000aa1e .LASF2859
C:\Users\CYMR90~1\AppData\Local\Temp\cc3o48Uk.s:21631  .debug_str:0000000000007381 .LASF2860
C:\Users\CYMR90~1\AppData\Local\Temp\cc3o48Uk.s:28206  .debug_str:0000000000021ad8 .LASF2861
C:\Users\CYMR90~1\AppData\Local\Temp\cc3o48Uk.s:28588  .debug_str:0000000000023124 .LASF2862
C:\Users\CYMR90~1\AppData\Local\Temp\cc3o48Uk.s:22911  .debug_str:000000000000c896 .LASF2863
C:\Users\CYMR90~1\AppData\Local\Temp\cc3o48Uk.s:30642  .debug_str:000000000002b3c2 .LASF2864
C:\Users\CYMR90~1\AppData\Local\Temp\cc3o48Uk.s:20975  .debug_str:0000000000004af1 .LASF2865
C:\Users\CYMR90~1\AppData\Local\Temp\cc3o48Uk.s:20165  .debug_str:000000000000169a .LASF2866
C:\Users\CYMR90~1\AppData\Local\Temp\cc3o48Uk.s:21353  .debug_str:00000000000061a8 .LASF2867
C:\Users\CYMR90~1\AppData\Local\Temp\cc3o48Uk.s:20491  .debug_str:0000000000002b31 .LASF2868
C:\Users\CYMR90~1\AppData\Local\Temp\cc3o48Uk.s:30942  .debug_str:000000000002c7d7 .LASF2869
C:\Users\CYMR90~1\AppData\Local\Temp\cc3o48Uk.s:29872  .debug_str:000000000002849f .LASF2870
C:\Users\CYMR90~1\AppData\Local\Temp\cc3o48Uk.s:20945  .debug_str:000000000000491a .LASF2871
C:\Users\CYMR90~1\AppData\Local\Temp\cc3o48Uk.s:26734  .debug_str:000000000001bedb .LASF2872
C:\Users\CYMR90~1\AppData\Local\Temp\cc3o48Uk.s:30690  .debug_str:000000000002b6e0 .LASF2873
C:\Users\CYMR90~1\AppData\Local\Temp\cc3o48Uk.s:27034  .debug_str:000000000001d2d1 .LASF2874
C:\Users\CYMR90~1\AppData\Local\Temp\cc3o48Uk.s:19893  .debug_str:000000000000057d .LASF2875
C:\Users\CYMR90~1\AppData\Local\Temp\cc3o48Uk.s:24525  .debug_str:0000000000012f54 .LASF2876
C:\Users\CYMR90~1\AppData\Local\Temp\cc3o48Uk.s:29262  .debug_str:0000000000025d3d .LASF2877
C:\Users\CYMR90~1\AppData\Local\Temp\cc3o48Uk.s:24431  .debug_str:000000000001291b .LASF2878
C:\Users\CYMR90~1\AppData\Local\Temp\cc3o48Uk.s:21345  .debug_str:0000000000006121 .LASF2879
C:\Users\CYMR90~1\AppData\Local\Temp\cc3o48Uk.s:21925  .debug_str:000000000000873a .LASF2880
C:\Users\CYMR90~1\AppData\Local\Temp\cc3o48Uk.s:24199  .debug_str:0000000000011a37 .LASF2881
C:\Users\CYMR90~1\AppData\Local\Temp\cc3o48Uk.s:22775  .debug_str:000000000000bff6 .LASF2882
C:\Users\CYMR90~1\AppData\Local\Temp\cc3o48Uk.s:26604  .debug_str:000000000001b6cd .LASF2883
C:\Users\CYMR90~1\AppData\Local\Temp\cc3o48Uk.s:23123  .debug_str:000000000000d6dc .LASF2884
C:\Users\CYMR90~1\AppData\Local\Temp\cc3o48Uk.s:22113  .debug_str:00000000000092f6 .LASF2885
C:\Users\CYMR90~1\AppData\Local\Temp\cc3o48Uk.s:28964  .debug_str:0000000000024913 .LASF2886
C:\Users\CYMR90~1\AppData\Local\Temp\cc3o48Uk.s:24239  .debug_str:0000000000011c89 .LASF2887
C:\Users\CYMR90~1\AppData\Local\Temp\cc3o48Uk.s:28558  .debug_str:0000000000022faa .LASF2888
C:\Users\CYMR90~1\AppData\Local\Temp\cc3o48Uk.s:22449  .debug_str:000000000000a960 .LASF2889
C:\Users\CYMR90~1\AppData\Local\Temp\cc3o48Uk.s:29108  .debug_str:00000000000252fc .LASF2890
C:\Users\CYMR90~1\AppData\Local\Temp\cc3o48Uk.s:29484  .debug_str:0000000000026ab6 .LASF2891
C:\Users\CYMR90~1\AppData\Local\Temp\cc3o48Uk.s:23153  .debug_str:000000000000d846 .LASF2892
C:\Users\CYMR90~1\AppData\Local\Temp\cc3o48Uk.s:25576  .debug_str:0000000000017346 .LASF2893
C:\Users\CYMR90~1\AppData\Local\Temp\cc3o48Uk.s:22761  .debug_str:000000000000bef7 .LASF2894
C:\Users\CYMR90~1\AppData\Local\Temp\cc3o48Uk.s:27834  .debug_str:000000000002035e .LASF2895
C:\Users\CYMR90~1\AppData\Local\Temp\cc3o48Uk.s:23445  .debug_str:000000000000ea16 .LASF2896
C:\Users\CYMR90~1\AppData\Local\Temp\cc3o48Uk.s:20041  .debug_str:0000000000000f71 .LASF2897
C:\Users\CYMR90~1\AppData\Local\Temp\cc3o48Uk.s:30682  .debug_str:000000000002b66e .LASF2898
C:\Users\CYMR90~1\AppData\Local\Temp\cc3o48Uk.s:30278  .debug_str:0000000000029d2f .LASF2899
C:\Users\CYMR90~1\AppData\Local\Temp\cc3o48Uk.s:20589  .debug_str:000000000000313d .LASF2900
C:\Users\CYMR90~1\AppData\Local\Temp\cc3o48Uk.s:20169  .debug_str:00000000000016e5 .LASF2901
C:\Users\CYMR90~1\AppData\Local\Temp\cc3o48Uk.s:27276  .debug_str:000000000001e229 .LASF2902
C:\Users\CYMR90~1\AppData\Local\Temp\cc3o48Uk.s:27668  .debug_str:000000000001f99d .LASF2903
C:\Users\CYMR90~1\AppData\Local\Temp\cc3o48Uk.s:29622  .debug_str:00000000000273a7 .LASF2904
C:\Users\CYMR90~1\AppData\Local\Temp\cc3o48Uk.s:24831  .debug_str:000000000001423d .LASF2905
C:\Users\CYMR90~1\AppData\Local\Temp\cc3o48Uk.s:25405  .debug_str:0000000000016656 .LASF2906
C:\Users\CYMR90~1\AppData\Local\Temp\cc3o48Uk.s:21615  .debug_str:000000000000729b .LASF2907
C:\Users\CYMR90~1\AppData\Local\Temp\cc3o48Uk.s:27654  .debug_str:000000000001f8b4 .LASF2908
C:\Users\CYMR90~1\AppData\Local\Temp\cc3o48Uk.s:27604  .debug_str:000000000001f5da .LASF2909
C:\Users\CYMR90~1\AppData\Local\Temp\cc3o48Uk.s:26708  .debug_str:000000000001bd0c .LASF2910
C:\Users\CYMR90~1\AppData\Local\Temp\cc3o48Uk.s:20455  .debug_str:00000000000028bb .LASF2911
C:\Users\CYMR90~1\AppData\Local\Temp\cc3o48Uk.s:29128  .debug_str:0000000000025439 .LASF2912
C:\Users\CYMR90~1\AppData\Local\Temp\cc3o48Uk.s:21735  .debug_str:0000000000007a3f .LASF2913
C:\Users\CYMR90~1\AppData\Local\Temp\cc3o48Uk.s:20793  .debug_str:0000000000003e7e .LASF2914
C:\Users\CYMR90~1\AppData\Local\Temp\cc3o48Uk.s:20539  .debug_str:0000000000002e0a .LASF2915
C:\Users\CYMR90~1\AppData\Local\Temp\cc3o48Uk.s:21939  .debug_str:0000000000008846 .LASF2916
C:\Users\CYMR90~1\AppData\Local\Temp\cc3o48Uk.s:27266  .debug_str:000000000001e17b .LASF2917
C:\Users\CYMR90~1\AppData\Local\Temp\cc3o48Uk.s:22751  .debug_str:000000000000be4d .LASF2918
C:\Users\CYMR90~1\AppData\Local\Temp\cc3o48Uk.s:22319  .debug_str:000000000000a03d .LASF2919
C:\Users\CYMR90~1\AppData\Local\Temp\cc3o48Uk.s:23955  .debug_str:0000000000010a39 .LASF2920
C:\Users\CYMR90~1\AppData\Local\Temp\cc3o48Uk.s:29560  .debug_str:0000000000026f48 .LASF2921
C:\Users\CYMR90~1\AppData\Local\Temp\cc3o48Uk.s:23277  .debug_str:000000000000dfc5 .LASF2922
C:\Users\CYMR90~1\AppData\Local\Temp\cc3o48Uk.s:26486  .debug_str:000000000001af84 .LASF2923
C:\Users\CYMR90~1\AppData\Local\Temp\cc3o48Uk.s:26132  .debug_str:000000000001974c .LASF2924
C:\Users\CYMR90~1\AppData\Local\Temp\cc3o48Uk.s:26408  .debug_str:000000000001aa39 .LASF2925
C:\Users\CYMR90~1\AppData\Local\Temp\cc3o48Uk.s:27856  .debug_str:00000000000204c9 .LASF2926
C:\Users\CYMR90~1\AppData\Local\Temp\cc3o48Uk.s:25688  .debug_str:0000000000017ad0 .LASF2927
C:\Users\CYMR90~1\AppData\Local\Temp\cc3o48Uk.s:29866  .debug_str:000000000002842d .LASF2928
C:\Users\CYMR90~1\AppData\Local\Temp\cc3o48Uk.s:27370  .debug_str:000000000001e806 .LASF2929
C:\Users\CYMR90~1\AppData\Local\Temp\cc3o48Uk.s:26686  .debug_str:000000000001bb6c .LASF2930
C:\Users\CYMR90~1\AppData\Local\Temp\cc3o48Uk.s:23213  .debug_str:000000000000dbb7 .LASF2931
C:\Users\CYMR90~1\AppData\Local\Temp\cc3o48Uk.s:20311  .debug_str:0000000000002019 .LASF2932
C:\Users\CYMR90~1\AppData\Local\Temp\cc3o48Uk.s:22279  .debug_str:0000000000009db3 .LASF2933
C:\Users\CYMR90~1\AppData\Local\Temp\cc3o48Uk.s:23509  .debug_str:000000000000edfb .LASF2934
C:\Users\CYMR90~1\AppData\Local\Temp\cc3o48Uk.s:29396  .debug_str:000000000002658b .LASF2935
C:\Users\CYMR90~1\AppData\Local\Temp\cc3o48Uk.s:29748  .debug_str:0000000000027bad .LASF2936
C:\Users\CYMR90~1\AppData\Local\Temp\cc3o48Uk.s:25770  .debug_str:0000000000017fd7 .LASF2937
C:\Users\CYMR90~1\AppData\Local\Temp\cc3o48Uk.s:28506  .debug_str:0000000000022cd7 .LASF2938
C:\Users\CYMR90~1\AppData\Local\Temp\cc3o48Uk.s:20155  .debug_str:00000000000015df .LASF2939
C:\Users\CYMR90~1\AppData\Local\Temp\cc3o48Uk.s:20449  .debug_str:000000000000285f .LASF2940
C:\Users\CYMR90~1\AppData\Local\Temp\cc3o48Uk.s:30350  .debug_str:000000000002a132 .LASF2941
C:\Users\CYMR90~1\AppData\Local\Temp\cc3o48Uk.s:21329  .debug_str:0000000000006054 .LASF2942
C:\Users\CYMR90~1\AppData\Local\Temp\cc3o48Uk.s:29312  .debug_str:00000000000260a0 .LASF2943
C:\Users\CYMR90~1\AppData\Local\Temp\cc3o48Uk.s:23113  .debug_str:000000000000d624 .LASF2944
C:\Users\CYMR90~1\AppData\Local\Temp\cc3o48Uk.s:28076  .debug_str:000000000002125a .LASF2945
C:\Users\CYMR90~1\AppData\Local\Temp\cc3o48Uk.s:28116  .debug_str:000000000002157b .LASF2946
C:\Users\CYMR90~1\AppData\Local\Temp\cc3o48Uk.s:22299  .debug_str:0000000000009edd .LASF2947
C:\Users\CYMR90~1\AppData\Local\Temp\cc3o48Uk.s:22957  .debug_str:000000000000cbc7 .LASF2948
C:\Users\CYMR90~1\AppData\Local\Temp\cc3o48Uk.s:29970  .debug_str:0000000000028acf .LASF2949
C:\Users\CYMR90~1\AppData\Local\Temp\cc3o48Uk.s:20869  .debug_str:0000000000004395 .LASF2950
C:\Users\CYMR90~1\AppData\Local\Temp\cc3o48Uk.s:23973  .debug_str:0000000000010bc9 .LASF2951
C:\Users\CYMR90~1\AppData\Local\Temp\cc3o48Uk.s:22909  .debug_str:000000000000c87f .LASF2952
C:\Users\CYMR90~1\AppData\Local\Temp\cc3o48Uk.s:21915  .debug_str:0000000000008696 .LASF2953
C:\Users\CYMR90~1\AppData\Local\Temp\cc3o48Uk.s:22719  .debug_str:000000000000bbba .LASF2954
C:\Users\CYMR90~1\AppData\Local\Temp\cc3o48Uk.s:22667  .debug_str:000000000000b840 .LASF2955
C:\Users\CYMR90~1\AppData\Local\Temp\cc3o48Uk.s:23521  .debug_str:000000000000eea2 .LASF2956
C:\Users\CYMR90~1\AppData\Local\Temp\cc3o48Uk.s:29480  .debug_str:0000000000026a7d .LASF2957
C:\Users\CYMR90~1\AppData\Local\Temp\cc3o48Uk.s:26144  .debug_str:0000000000019826 .LASF2958
C:\Users\CYMR90~1\AppData\Local\Temp\cc3o48Uk.s:29044  .debug_str:0000000000024e13 .LASF2959
C:\Users\CYMR90~1\AppData\Local\Temp\cc3o48Uk.s:27402  .debug_str:000000000001ea09 .LASF2960
C:\Users\CYMR90~1\AppData\Local\Temp\cc3o48Uk.s:29600  .debug_str:0000000000027296 .LASF2961
C:\Users\CYMR90~1\AppData\Local\Temp\cc3o48Uk.s:25958  .debug_str:0000000000018bb0 .LASF2962
C:\Users\CYMR90~1\AppData\Local\Temp\cc3o48Uk.s:28772  .debug_str:0000000000023c07 .LASF2963
C:\Users\CYMR90~1\AppData\Local\Temp\cc3o48Uk.s:30954  .debug_str:000000000002c8bf .LASF2964
C:\Users\CYMR90~1\AppData\Local\Temp\cc3o48Uk.s:25113  .debug_str:00000000000153e8 .LASF2965
C:\Users\CYMR90~1\AppData\Local\Temp\cc3o48Uk.s:28910  .debug_str:0000000000024525 .LASF2966
C:\Users\CYMR90~1\AppData\Local\Temp\cc3o48Uk.s:22331  .debug_str:000000000000a103 .LASF2967
C:\Users\CYMR90~1\AppData\Local\Temp\cc3o48Uk.s:20251  .debug_str:0000000000001c99 .LASF2968
C:\Users\CYMR90~1\AppData\Local\Temp\cc3o48Uk.s:21351  .debug_str:000000000000618f .LASF2969
C:\Users\CYMR90~1\AppData\Local\Temp\cc3o48Uk.s:26566  .debug_str:000000000001b492 .LASF2970
C:\Users\CYMR90~1\AppData\Local\Temp\cc3o48Uk.s:20801  .debug_str:0000000000003eed .LASF2971
C:\Users\CYMR90~1\AppData\Local\Temp\cc3o48Uk.s:22051  .debug_str:0000000000008f9e .LASF2972
C:\Users\CYMR90~1\AppData\Local\Temp\cc3o48Uk.s:21105  .debug_str:00000000000052c4 .LASF2973
C:\Users\CYMR90~1\AppData\Local\Temp\cc3o48Uk.s:30442  .debug_str:000000000002a719 .LASF2974
C:\Users\CYMR90~1\AppData\Local\Temp\cc3o48Uk.s:22787  .debug_str:000000000000c098 .LASF2975
C:\Users\CYMR90~1\AppData\Local\Temp\cc3o48Uk.s:20721  .debug_str:00000000000039d1 .LASF2976
C:\Users\CYMR90~1\AppData\Local\Temp\cc3o48Uk.s:20053  .debug_str:0000000000001015 .LASF2977
C:\Users\CYMR90~1\AppData\Local\Temp\cc3o48Uk.s:22497  .debug_str:000000000000ac79 .LASF2978
C:\Users\CYMR90~1\AppData\Local\Temp\cc3o48Uk.s:21627  .debug_str:000000000000733a .LASF2979
C:\Users\CYMR90~1\AppData\Local\Temp\cc3o48Uk.s:26544  .debug_str:000000000001b34b .LASF2980
C:\Users\CYMR90~1\AppData\Local\Temp\cc3o48Uk.s:21237  .debug_str:0000000000005ad6 .LASF2981
C:\Users\CYMR90~1\AppData\Local\Temp\cc3o48Uk.s:20647  .debug_str:000000000000350a .LASF2982
C:\Users\CYMR90~1\AppData\Local\Temp\cc3o48Uk.s:24369  .debug_str:0000000000012518 .LASF2983
C:\Users\CYMR90~1\AppData\Local\Temp\cc3o48Uk.s:28376  .debug_str:00000000000224a6 .LASF2984
C:\Users\CYMR90~1\AppData\Local\Temp\cc3o48Uk.s:29732  .debug_str:0000000000027a89 .LASF2985
C:\Users\CYMR90~1\AppData\Local\Temp\cc3o48Uk.s:25762  .debug_str:0000000000017f71 .LASF2986
C:\Users\CYMR90~1\AppData\Local\Temp\cc3o48Uk.s:24583  .debug_str:000000000001333e .LASF2987
C:\Users\CYMR90~1\AppData\Local\Temp\cc3o48Uk.s:28374  .debug_str:000000000002248d .LASF2988
C:\Users\CYMR90~1\AppData\Local\Temp\cc3o48Uk.s:30178  .debug_str:0000000000029753 .LASF2989
C:\Users\CYMR90~1\AppData\Local\Temp\cc3o48Uk.s:26400  .debug_str:000000000001a9cd .LASF2990
C:\Users\CYMR90~1\AppData\Local\Temp\cc3o48Uk.s:21495  .debug_str:0000000000006a98 .LASF2991
C:\Users\CYMR90~1\AppData\Local\Temp\cc3o48Uk.s:21111  .debug_str:0000000000005308 .LASF2992
C:\Users\CYMR90~1\AppData\Local\Temp\cc3o48Uk.s:27314  .debug_str:000000000001e45a .LASF2993
C:\Users\CYMR90~1\AppData\Local\Temp\cc3o48Uk.s:23339  .debug_str:000000000000e34c .LASF2994
C:\Users\CYMR90~1\AppData\Local\Temp\cc3o48Uk.s:28576  .debug_str:0000000000023073 .LASF2995
C:\Users\CYMR90~1\AppData\Local\Temp\cc3o48Uk.s:25626  .debug_str:00000000000176c1 .LASF2996
C:\Users\CYMR90~1\AppData\Local\Temp\cc3o48Uk.s:29026  .debug_str:0000000000024ce7 .LASF2997
C:\Users\CYMR90~1\AppData\Local\Temp\cc3o48Uk.s:28416  .debug_str:0000000000022742 .LASF2998
C:\Users\CYMR90~1\AppData\Local\Temp\cc3o48Uk.s:25684  .debug_str:0000000000017aa7 .LASF2999
C:\Users\CYMR90~1\AppData\Local\Temp\cc3o48Uk.s:30618  .debug_str:000000000002b1fb .LASF3000
C:\Users\CYMR90~1\AppData\Local\Temp\cc3o48Uk.s:30924  .debug_str:000000000002c68d .LASF3001
C:\Users\CYMR90~1\AppData\Local\Temp\cc3o48Uk.s:29330  .debug_str:000000000002619c .LASF3002
C:\Users\CYMR90~1\AppData\Local\Temp\cc3o48Uk.s:20755  .debug_str:0000000000003be7 .LASF3003
C:\Users\CYMR90~1\AppData\Local\Temp\cc3o48Uk.s:23551  .debug_str:000000000000f068 .LASF3004
C:\Users\CYMR90~1\AppData\Local\Temp\cc3o48Uk.s:20725  .debug_str:0000000000003a02 .LASF3005
C:\Users\CYMR90~1\AppData\Local\Temp\cc3o48Uk.s:24089  .debug_str:0000000000011255 .LASF3006
C:\Users\CYMR90~1\AppData\Local\Temp\cc3o48Uk.s:23911  .debug_str:0000000000010762 .LASF3007
C:\Users\CYMR90~1\AppData\Local\Temp\cc3o48Uk.s:21465  .debug_str:00000000000068b1 .LASF3008
C:\Users\CYMR90~1\AppData\Local\Temp\cc3o48Uk.s:24285  .debug_str:0000000000011fd7 .LASF3009
C:\Users\CYMR90~1\AppData\Local\Temp\cc3o48Uk.s:23953  .debug_str:0000000000010a1c .LASF3010
C:\Users\CYMR90~1\AppData\Local\Temp\cc3o48Uk.s:21715  .debug_str:00000000000078da .LASF3011
C:\Users\CYMR90~1\AppData\Local\Temp\cc3o48Uk.s:22401  .debug_str:000000000000a57a .LASF3012
C:\Users\CYMR90~1\AppData\Local\Temp\cc3o48Uk.s:24771  .debug_str:0000000000013eb5 .LASF3013
C:\Users\CYMR90~1\AppData\Local\Temp\cc3o48Uk.s:27322  .debug_str:000000000001e4c9 .LASF3014
C:\Users\CYMR90~1\AppData\Local\Temp\cc3o48Uk.s:20907  .debug_str:0000000000004639 .LASF3015
C:\Users\CYMR90~1\AppData\Local\Temp\cc3o48Uk.s:27854  .debug_str:00000000000204b3 .LASF3016
C:\Users\CYMR90~1\AppData\Local\Temp\cc3o48Uk.s:28216  .debug_str:0000000000021b7d .LASF3017
C:\Users\CYMR90~1\AppData\Local\Temp\cc3o48Uk.s:22205  .debug_str:00000000000098f8 .LASF3018
C:\Users\CYMR90~1\AppData\Local\Temp\cc3o48Uk.s:21541  .debug_str:0000000000006d92 .LASF3019
C:\Users\CYMR90~1\AppData\Local\Temp\cc3o48Uk.s:22065  .debug_str:000000000000903a .LASF3020
C:\Users\CYMR90~1\AppData\Local\Temp\cc3o48Uk.s:20517  .debug_str:0000000000002cd3 .LASF3021
C:\Users\CYMR90~1\AppData\Local\Temp\cc3o48Uk.s:20317  .debug_str:0000000000002070 .LASF3022
C:\Users\CYMR90~1\AppData\Local\Temp\cc3o48Uk.s:21335  .debug_str:00000000000060a7 .LASF3023
C:\Users\CYMR90~1\AppData\Local\Temp\cc3o48Uk.s:19927  .debug_str:000000000000078e .LASF3024
C:\Users\CYMR90~1\AppData\Local\Temp\cc3o48Uk.s:20913  .debug_str:00000000000046b6 .LASF3025
C:\Users\CYMR90~1\AppData\Local\Temp\cc3o48Uk.s:28316  .debug_str:0000000000022175 .LASF3026
C:\Users\CYMR90~1\AppData\Local\Temp\cc3o48Uk.s:24361  .debug_str:000000000001248c .LASF3027
C:\Users\CYMR90~1\AppData\Local\Temp\cc3o48Uk.s:27938  .debug_str:0000000000020a3d .LASF3028
C:\Users\CYMR90~1\AppData\Local\Temp\cc3o48Uk.s:19863  .debug_str:00000000000003e3 .LASF3029
C:\Users\CYMR90~1\AppData\Local\Temp\cc3o48Uk.s:27538  .debug_str:000000000001f205 .LASF3030
C:\Users\CYMR90~1\AppData\Local\Temp\cc3o48Uk.s:26388  .debug_str:000000000001a90b .LASF3031
C:\Users\CYMR90~1\AppData\Local\Temp\cc3o48Uk.s:27312  .debug_str:000000000001e43a .LASF3032
C:\Users\CYMR90~1\AppData\Local\Temp\cc3o48Uk.s:26890  .debug_str:000000000001c8bf .LASF3033
C:\Users\CYMR90~1\AppData\Local\Temp\cc3o48Uk.s:25746  .debug_str:0000000000017e80 .LASF3034
C:\Users\CYMR90~1\AppData\Local\Temp\cc3o48Uk.s:24247  .debug_str:0000000000011d00 .LASF3035
C:\Users\CYMR90~1\AppData\Local\Temp\cc3o48Uk.s:24241  .debug_str:0000000000011ca9 .LASF3036
C:\Users\CYMR90~1\AppData\Local\Temp\cc3o48Uk.s:27180  .debug_str:000000000001dba4 .LASF3037
C:\Users\CYMR90~1\AppData\Local\Temp\cc3o48Uk.s:30874  .debug_str:000000000002c3a8 .LASF3038
C:\Users\CYMR90~1\AppData\Local\Temp\cc3o48Uk.s:26152  .debug_str:00000000000198f7 .LASF3039
C:\Users\CYMR90~1\AppData\Local\Temp\cc3o48Uk.s:27568  .debug_str:000000000001f3c6 .LASF3040
C:\Users\CYMR90~1\AppData\Local\Temp\cc3o48Uk.s:28956  .debug_str:00000000000248b1 .LASF3041
C:\Users\CYMR90~1\AppData\Local\Temp\cc3o48Uk.s:30346  .debug_str:000000000002a0f6 .LASF3042
C:\Users\CYMR90~1\AppData\Local\Temp\cc3o48Uk.s:24137  .debug_str:0000000000011549 .LASF3043
C:\Users\CYMR90~1\AppData\Local\Temp\cc3o48Uk.s:27132  .debug_str:000000000001d8fe .LASF3044
C:\Users\CYMR90~1\AppData\Local\Temp\cc3o48Uk.s:23243  .debug_str:000000000000dd9a .LASF3045
C:\Users\CYMR90~1\AppData\Local\Temp\cc3o48Uk.s:30114  .debug_str:0000000000029381 .LASF3046
C:\Users\CYMR90~1\AppData\Local\Temp\cc3o48Uk.s:21639  .debug_str:00000000000073f1 .LASF3047
C:\Users\CYMR90~1\AppData\Local\Temp\cc3o48Uk.s:30392  .debug_str:000000000002a417 .LASF3048
C:\Users\CYMR90~1\AppData\Local\Temp\cc3o48Uk.s:29178  .debug_str:0000000000025820 .LASF3049
C:\Users\CYMR90~1\AppData\Local\Temp\cc3o48Uk.s:20683  .debug_str:000000000000375b .LASF3050
C:\Users\CYMR90~1\AppData\Local\Temp\cc3o48Uk.s:23847  .debug_str:0000000000010318 .LASF3051
C:\Users\CYMR90~1\AppData\Local\Temp\cc3o48Uk.s:29838  .debug_str:0000000000028241 .LASF3052
C:\Users\CYMR90~1\AppData\Local\Temp\cc3o48Uk.s:24309  .debug_str:0000000000012143 .LASF3053
C:\Users\CYMR90~1\AppData\Local\Temp\cc3o48Uk.s:22461  .debug_str:000000000000a9ff .LASF3054
C:\Users\CYMR90~1\AppData\Local\Temp\cc3o48Uk.s:30674  .debug_str:000000000002b5da .LASF3055
C:\Users\CYMR90~1\AppData\Local\Temp\cc3o48Uk.s:22547  .debug_str:000000000000b074 .LASF3056
C:\Users\CYMR90~1\AppData\Local\Temp\cc3o48Uk.s:28244  .debug_str:0000000000021d44 .LASF3057
C:\Users\CYMR90~1\AppData\Local\Temp\cc3o48Uk.s:30420  .debug_str:000000000002a5cf .LASF3058
C:\Users\CYMR90~1\AppData\Local\Temp\cc3o48Uk.s:25952  .debug_str:0000000000018b27 .LASF3059
C:\Users\CYMR90~1\AppData\Local\Temp\cc3o48Uk.s:30464  .debug_str:000000000002a83e .LASF3060
C:\Users\CYMR90~1\AppData\Local\Temp\cc3o48Uk.s:28042  .debug_str:0000000000021056 .LASF3061
C:\Users\CYMR90~1\AppData\Local\Temp\cc3o48Uk.s:29414  .debug_str:00000000000266c0 .LASF3062
C:\Users\CYMR90~1\AppData\Local\Temp\cc3o48Uk.s:23089  .debug_str:000000000000d464 .LASF3063
C:\Users\CYMR90~1\AppData\Local\Temp\cc3o48Uk.s:28798  .debug_str:0000000000023d6f .LASF3064
C:\Users\CYMR90~1\AppData\Local\Temp\cc3o48Uk.s:24899  .debug_str:00000000000146ce .LASF3065
C:\Users\CYMR90~1\AppData\Local\Temp\cc3o48Uk.s:23745  .debug_str:000000000000fcd7 .LASF3066
C:\Users\CYMR90~1\AppData\Local\Temp\cc3o48Uk.s:26878  .debug_str:000000000001c755 .LASF3067
C:\Users\CYMR90~1\AppData\Local\Temp\cc3o48Uk.s:29670  .debug_str:000000000002763f .LASF3068
C:\Users\CYMR90~1\AppData\Local\Temp\cc3o48Uk.s:20705  .debug_str:00000000000038a4 .LASF3069
C:\Users\CYMR90~1\AppData\Local\Temp\cc3o48Uk.s:28406  .debug_str:00000000000226a9 .LASF3070
C:\Users\CYMR90~1\AppData\Local\Temp\cc3o48Uk.s:29848  .debug_str:00000000000282e5 .LASF3071
C:\Users\CYMR90~1\AppData\Local\Temp\cc3o48Uk.s:20125  .debug_str:0000000000001450 .LASF3072
C:\Users\CYMR90~1\AppData\Local\Temp\cc3o48Uk.s:28288  .debug_str:0000000000021fb2 .LASF3073
C:\Users\CYMR90~1\AppData\Local\Temp\cc3o48Uk.s:25091  .debug_str:00000000000152ad .LASF3074
C:\Users\CYMR90~1\AppData\Local\Temp\cc3o48Uk.s:22047  .debug_str:0000000000008f5f .LASF3075
C:\Users\CYMR90~1\AppData\Local\Temp\cc3o48Uk.s:27016  .debug_str:000000000001d1d2 .LASF3076
C:\Users\CYMR90~1\AppData\Local\Temp\cc3o48Uk.s:24451  .debug_str:0000000000012a70 .LASF3077
C:\Users\CYMR90~1\AppData\Local\Temp\cc3o48Uk.s:22525  .debug_str:000000000000ae2d .LASF3078
C:\Users\CYMR90~1\AppData\Local\Temp\cc3o48Uk.s:26948  .debug_str:000000000001cc69 .LASF3079
C:\Users\CYMR90~1\AppData\Local\Temp\cc3o48Uk.s:29048  .debug_str:0000000000024e47 .LASF3080
C:\Users\CYMR90~1\AppData\Local\Temp\cc3o48Uk.s:20995  .debug_str:0000000000004c1e .LASF3081
C:\Users\CYMR90~1\AppData\Local\Temp\cc3o48Uk.s:30360  .debug_str:000000000002a1ec .LASF3082
C:\Users\CYMR90~1\AppData\Local\Temp\cc3o48Uk.s:26202  .debug_str:0000000000019c39 .LASF3083
C:\Users\CYMR90~1\AppData\Local\Temp\cc3o48Uk.s:26244  .debug_str:0000000000019e96 .LASF3084
C:\Users\CYMR90~1\AppData\Local\Temp\cc3o48Uk.s:26254  .debug_str:0000000000019f2d .LASF3085
C:\Users\CYMR90~1\AppData\Local\Temp\cc3o48Uk.s:23189  .debug_str:000000000000da70 .LASF3086
C:\Users\CYMR90~1\AppData\Local\Temp\cc3o48Uk.s:24343  .debug_str:0000000000012345 .LASF3087
C:\Users\CYMR90~1\AppData\Local\Temp\cc3o48Uk.s:25201  .debug_str:0000000000015917 .LASF3088
C:\Users\CYMR90~1\AppData\Local\Temp\cc3o48Uk.s:25916  .debug_str:00000000000188db .LASF3089
C:\Users\CYMR90~1\AppData\Local\Temp\cc3o48Uk.s:27768  .debug_str:000000000001ffc4 .LASF3090
C:\Users\CYMR90~1\AppData\Local\Temp\cc3o48Uk.s:20887  .debug_str:00000000000044ba .LASF3091
C:\Users\CYMR90~1\AppData\Local\Temp\cc3o48Uk.s:23943  .debug_str:0000000000010957 .LASF3092
C:\Users\CYMR90~1\AppData\Local\Temp\cc3o48Uk.s:27294  .debug_str:000000000001e31b .LASF3093
C:\Users\CYMR90~1\AppData\Local\Temp\cc3o48Uk.s:24269  .debug_str:0000000000011ea9 .LASF3094
C:\Users\CYMR90~1\AppData\Local\Temp\cc3o48Uk.s:23695  .debug_str:000000000000f9a8 .LASF3095
C:\Users\CYMR90~1\AppData\Local\Temp\cc3o48Uk.s:24449  .debug_str:0000000000012a37 .LASF3096
C:\Users\CYMR90~1\AppData\Local\Temp\cc3o48Uk.s:28514  .debug_str:0000000000022d2d .LASF3097
C:\Users\CYMR90~1\AppData\Local\Temp\cc3o48Uk.s:25279  .debug_str:0000000000015eac .LASF3098
C:\Users\CYMR90~1\AppData\Local\Temp\cc3o48Uk.s:29912  .debug_str:000000000002874d .LASF3099
C:\Users\CYMR90~1\AppData\Local\Temp\cc3o48Uk.s:29686  .debug_str:0000000000027753 .LASF3100
C:\Users\CYMR90~1\AppData\Local\Temp\cc3o48Uk.s:21745  .debug_str:0000000000007ae6 .LASF3101
C:\Users\CYMR90~1\AppData\Local\Temp\cc3o48Uk.s:21051  .debug_str:0000000000004f6b .LASF3102
C:\Users\CYMR90~1\AppData\Local\Temp\cc3o48Uk.s:24403  .debug_str:0000000000012735 .LASF3103
C:\Users\CYMR90~1\AppData\Local\Temp\cc3o48Uk.s:20083  .debug_str:00000000000011dc .LASF3104
C:\Users\CYMR90~1\AppData\Local\Temp\cc3o48Uk.s:20171  .debug_str:00000000000016fd .LASF3105
C:\Users\CYMR90~1\AppData\Local\Temp\cc3o48Uk.s:29794  .debug_str:0000000000027efb .LASF3106
C:\Users\CYMR90~1\AppData\Local\Temp\cc3o48Uk.s:26526  .debug_str:000000000001b212 .LASF3107
C:\Users\CYMR90~1\AppData\Local\Temp\cc3o48Uk.s:23009  .debug_str:000000000000ceb9 .LASF3108
C:\Users\CYMR90~1\AppData\Local\Temp\cc3o48Uk.s:24859  .debug_str:000000000001442b .LASF3109
C:\Users\CYMR90~1\AppData\Local\Temp\cc3o48Uk.s:20221  .debug_str:0000000000001ab0 .LASF3110
C:\Users\CYMR90~1\AppData\Local\Temp\cc3o48Uk.s:23693  .debug_str:000000000000f98f .LASF3111
C:\Users\CYMR90~1\AppData\Local\Temp\cc3o48Uk.s:27348  .debug_str:000000000001e68b .LASF3112
C:\Users\CYMR90~1\AppData\Local\Temp\cc3o48Uk.s:22825  .debug_str:000000000000c304 .LASF3113
C:\Users\CYMR90~1\AppData\Local\Temp\cc3o48Uk.s:22399  .debug_str:000000000000a557 .LASF3114
C:\Users\CYMR90~1\AppData\Local\Temp\cc3o48Uk.s:30348  .debug_str:000000000002a10e .LASF3115
C:\Users\CYMR90~1\AppData\Local\Temp\cc3o48Uk.s:26302  .debug_str:000000000001a1d6 .LASF3116
C:\Users\CYMR90~1\AppData\Local\Temp\cc3o48Uk.s:27606  .debug_str:000000000001f5f9 .LASF3117
C:\Users\CYMR90~1\AppData\Local\Temp\cc3o48Uk.s:23771  .debug_str:000000000000fe8d .LASF3118
C:\Users\CYMR90~1\AppData\Local\Temp\cc3o48Uk.s:30948  .debug_str:000000000002c859 .LASF3119
C:\Users\CYMR90~1\AppData\Local\Temp\cc3o48Uk.s:25674  .debug_str:00000000000179fb .LASF3120
C:\Users\CYMR90~1\AppData\Local\Temp\cc3o48Uk.s:28314  .debug_str:0000000000022151 .LASF3121
C:\Users\CYMR90~1\AppData\Local\Temp\cc3o48Uk.s:22707  .debug_str:000000000000bb16 .LASF3122
C:\Users\CYMR90~1\AppData\Local\Temp\cc3o48Uk.s:28590  .debug_str:0000000000023151 .LASF3123
C:\Users\CYMR90~1\AppData\Local\Temp\cc3o48Uk.s:24737  .debug_str:0000000000013c4d .LASF3124
C:\Users\CYMR90~1\AppData\Local\Temp\cc3o48Uk.s:27496  .debug_str:000000000001ef3a .LASF3125
C:\Users\CYMR90~1\AppData\Local\Temp\cc3o48Uk.s:23539  .debug_str:000000000000efc0 .LASF3126
C:\Users\CYMR90~1\AppData\Local\Temp\cc3o48Uk.s:30326  .debug_str:000000000002a007 .LASF3127
C:\Users\CYMR90~1\AppData\Local\Temp\cc3o48Uk.s:27112  .debug_str:000000000001d79b .LASF3128
C:\Users\CYMR90~1\AppData\Local\Temp\cc3o48Uk.s:29928  .debug_str:000000000002887d .LASF3129
C:\Users\CYMR90~1\AppData\Local\Temp\cc3o48Uk.s:21539  .debug_str:0000000000006d7c .LASF3130
C:\Users\CYMR90~1\AppData\Local\Temp\cc3o48Uk.s:24163  .debug_str:000000000001178a .LASF3131
C:\Users\CYMR90~1\AppData\Local\Temp\cc3o48Uk.s:22091  .debug_str:00000000000091c5 .LASF3132
C:\Users\CYMR90~1\AppData\Local\Temp\cc3o48Uk.s:21669  .debug_str:00000000000075bd .LASF3133
C:\Users\CYMR90~1\AppData\Local\Temp\cc3o48Uk.s:31064  .debug_str:000000000002cfba .LASF3134
C:\Users\CYMR90~1\AppData\Local\Temp\cc3o48Uk.s:20843  .debug_str:00000000000041e3 .LASF3135
C:\Users\CYMR90~1\AppData\Local\Temp\cc3o48Uk.s:30592  .debug_str:000000000002b007 .LASF3136
C:\Users\CYMR90~1\AppData\Local\Temp\cc3o48Uk.s:23159  .debug_str:000000000000d895 .LASF3137
C:\Users\CYMR90~1\AppData\Local\Temp\cc3o48Uk.s:25834  .debug_str:00000000000183ae .LASF3138
C:\Users\CYMR90~1\AppData\Local\Temp\cc3o48Uk.s:25277  .debug_str:0000000000015e94 .LASF3139
C:\Users\CYMR90~1\AppData\Local\Temp\cc3o48Uk.s:28602  .debug_str:00000000000231e8 .LASF3140
C:\Users\CYMR90~1\AppData\Local\Temp\cc3o48Uk.s:20095  .debug_str:0000000000001282 .LASF3141
C:\Users\CYMR90~1\AppData\Local\Temp\cc3o48Uk.s:21009  .debug_str:0000000000004d16 .LASF3142
C:\Users\CYMR90~1\AppData\Local\Temp\cc3o48Uk.s:28468  .debug_str:0000000000022a1a .LASF3143
C:\Users\CYMR90~1\AppData\Local\Temp\cc3o48Uk.s:21255  .debug_str:0000000000005bfb .LASF3144
C:\Users\CYMR90~1\AppData\Local\Temp\cc3o48Uk.s:27160  .debug_str:000000000001daa2 .LASF3145
C:\Users\CYMR90~1\AppData\Local\Temp\cc3o48Uk.s:29204  .debug_str:00000000000259cd .LASF3146
C:\Users\CYMR90~1\AppData\Local\Temp\cc3o48Uk.s:27926  .debug_str:0000000000020994 .LASF3147
C:\Users\CYMR90~1\AppData\Local\Temp\cc3o48Uk.s:25181  .debug_str:00000000000157f6 .LASF3148
C:\Users\CYMR90~1\AppData\Local\Temp\cc3o48Uk.s:24917  .debug_str:00000000000147e8 .LASF3149
C:\Users\CYMR90~1\AppData\Local\Temp\cc3o48Uk.s:25662  .debug_str:000000000001792b .LASF3150
C:\Users\CYMR90~1\AppData\Local\Temp\cc3o48Uk.s:27824  .debug_str:00000000000202cf .LASF3151
C:\Users\CYMR90~1\AppData\Local\Temp\cc3o48Uk.s:21635  .debug_str:00000000000073c3 .LASF3152
C:\Users\CYMR90~1\AppData\Local\Temp\cc3o48Uk.s:19857  .debug_str:000000000000038a .LASF3153
C:\Users\CYMR90~1\AppData\Local\Temp\cc3o48Uk.s:29948  .debug_str:00000000000289bf .LASF3154
C:\Users\CYMR90~1\AppData\Local\Temp\cc3o48Uk.s:19991  .debug_str:0000000000000bdd .LASF3155
C:\Users\CYMR90~1\AppData\Local\Temp\cc3o48Uk.s:28294  .debug_str:0000000000022026 .LASF3156
C:\Users\CYMR90~1\AppData\Local\Temp\cc3o48Uk.s:25073  .debug_str:00000000000151d7 .LASF3157
C:\Users\CYMR90~1\AppData\Local\Temp\cc3o48Uk.s:24717  .debug_str:0000000000013b24 .LASF3158
C:\Users\CYMR90~1\AppData\Local\Temp\cc3o48Uk.s:24915  .debug_str:00000000000147c8 .LASF3159
C:\Users\CYMR90~1\AppData\Local\Temp\cc3o48Uk.s:28592  .debug_str:0000000000023177 .LASF3160
C:\Users\CYMR90~1\AppData\Local\Temp\cc3o48Uk.s:26574  .debug_str:000000000001b51d .LASF3161
C:\Users\CYMR90~1\AppData\Local\Temp\cc3o48Uk.s:25756  .debug_str:0000000000017f21 .LASF3162
C:\Users\CYMR90~1\AppData\Local\Temp\cc3o48Uk.s:29046  .debug_str:0000000000024e29 .LASF3163
C:\Users\CYMR90~1\AppData\Local\Temp\cc3o48Uk.s:23661  .debug_str:000000000000f7c6 .LASF3164
C:\Users\CYMR90~1\AppData\Local\Temp\cc3o48Uk.s:28512  .debug_str:0000000000022d11 .LASF3165
C:\Users\CYMR90~1\AppData\Local\Temp\cc3o48Uk.s:24545  .debug_str:0000000000013086 .LASF3166
C:\Users\CYMR90~1\AppData\Local\Temp\cc3o48Uk.s:27060  .debug_str:000000000001d45f .LASF3167
C:\Users\CYMR90~1\AppData\Local\Temp\cc3o48Uk.s:29716  .debug_str:000000000002797b .LASF3168
C:\Users\CYMR90~1\AppData\Local\Temp\cc3o48Uk.s:30990  .debug_str:000000000002caed .LASF3169
C:\Users\CYMR90~1\AppData\Local\Temp\cc3o48Uk.s:28674  .debug_str:0000000000023678 .LASF3170
C:\Users\CYMR90~1\AppData\Local\Temp\cc3o48Uk.s:20771  .debug_str:0000000000003cf1 .LASF3171
C:\Users\CYMR90~1\AppData\Local\Temp\cc3o48Uk.s:30664  .debug_str:000000000002b50e .LASF3172
C:\Users\CYMR90~1\AppData\Local\Temp\cc3o48Uk.s:22555  .debug_str:000000000000b0e2 .LASF3173
C:\Users\CYMR90~1\AppData\Local\Temp\cc3o48Uk.s:24711  .debug_str:0000000000013ad6 .LASF3174
C:\Users\CYMR90~1\AppData\Local\Temp\cc3o48Uk.s:21043  .debug_str:0000000000004f0b .LASF3175
C:\Users\CYMR90~1\AppData\Local\Temp\cc3o48Uk.s:29538  .debug_str:0000000000026e32 .LASF3176
C:\Users\CYMR90~1\AppData\Local\Temp\cc3o48Uk.s:21233  .debug_str:0000000000005a96 .LASF3177
C:\Users\CYMR90~1\AppData\Local\Temp\cc3o48Uk.s:22649  .debug_str:000000000000b6f7 .LASF3178
C:\Users\CYMR90~1\AppData\Local\Temp\cc3o48Uk.s:21171  .debug_str:00000000000056a3 .LASF3179
C:\Users\CYMR90~1\AppData\Local\Temp\cc3o48Uk.s:24263  .debug_str:0000000000011e38 .LASF3180
C:\Users\CYMR90~1\AppData\Local\Temp\cc3o48Uk.s:29274  .debug_str:0000000000025deb .LASF3181
C:\Users\CYMR90~1\AppData\Local\Temp\cc3o48Uk.s:24753  .debug_str:0000000000013d46 .LASF3182
C:\Users\CYMR90~1\AppData\Local\Temp\cc3o48Uk.s:24857  .debug_str:00000000000143f0 .LASF3183
C:\Users\CYMR90~1\AppData\Local\Temp\cc3o48Uk.s:31018  .debug_str:000000000002ccf8 .LASF3184
C:\Users\CYMR90~1\AppData\Local\Temp\cc3o48Uk.s:27576  .debug_str:000000000001f43d .LASF3185
C:\Users\CYMR90~1\AppData\Local\Temp\cc3o48Uk.s:22557  .debug_str:000000000000b102 .LASF3186
C:\Users\CYMR90~1\AppData\Local\Temp\cc3o48Uk.s:21357  .debug_str:00000000000061e2 .LASF3187
C:\Users\CYMR90~1\AppData\Local\Temp\cc3o48Uk.s:28650  .debug_str:00000000000234d7 .LASF3188
C:\Users\CYMR90~1\AppData\Local\Temp\cc3o48Uk.s:25231  .debug_str:0000000000015b39 .LASF3189
C:\Users\CYMR90~1\AppData\Local\Temp\cc3o48Uk.s:21877  .debug_str:0000000000008465 .LASF3190
C:\Users\CYMR90~1\AppData\Local\Temp\cc3o48Uk.s:25778  .debug_str:0000000000018020 .LASF3191
C:\Users\CYMR90~1\AppData\Local\Temp\cc3o48Uk.s:30726  .debug_str:000000000002b97d .LASF3192
C:\Users\CYMR90~1\AppData\Local\Temp\cc3o48Uk.s:29280  .debug_str:0000000000025e4c .LASF3193
C:\Users\CYMR90~1\AppData\Local\Temp\cc3o48Uk.s:20189  .debug_str:00000000000018c4 .LASF3194
C:\Users\CYMR90~1\AppData\Local\Temp\cc3o48Uk.s:21207  .debug_str:00000000000058bf .LASF3195
C:\Users\CYMR90~1\AppData\Local\Temp\cc3o48Uk.s:27356  .debug_str:000000000001e6d7 .LASF3196
C:\Users\CYMR90~1\AppData\Local\Temp\cc3o48Uk.s:27584  .debug_str:000000000001f4bb .LASF3197
C:\Users\CYMR90~1\AppData\Local\Temp\cc3o48Uk.s:28696  .debug_str:00000000000237ec .LASF3198
C:\Users\CYMR90~1\AppData\Local\Temp\cc3o48Uk.s:20187  .debug_str:00000000000018a3 .LASF3199
C:\Users\CYMR90~1\AppData\Local\Temp\cc3o48Uk.s:25892  .debug_str:0000000000018744 .LASF3200
C:\Users\CYMR90~1\AppData\Local\Temp\cc3o48Uk.s:30972  .debug_str:000000000002c9d0 .LASF3201
C:\Users\CYMR90~1\AppData\Local\Temp\cc3o48Uk.s:22625  .debug_str:000000000000b4df .LASF3202
C:\Users\CYMR90~1\AppData\Local\Temp\cc3o48Uk.s:22353  .debug_str:000000000000a267 .LASF3203
C:\Users\CYMR90~1\AppData\Local\Temp\cc3o48Uk.s:20127  .debug_str:000000000000146f .LASF3204
C:\Users\CYMR90~1\AppData\Local\Temp\cc3o48Uk.s:26836  .debug_str:000000000001c4d3 .LASF3205
C:\Users\CYMR90~1\AppData\Local\Temp\cc3o48Uk.s:22833  .debug_str:000000000000c37a .LASF3206
C:\Users\CYMR90~1\AppData\Local\Temp\cc3o48Uk.s:23095  .debug_str:000000000000d4ce .LASF3207
C:\Users\CYMR90~1\AppData\Local\Temp\cc3o48Uk.s:30722  .debug_str:000000000002b932 .LASF3208
C:\Users\CYMR90~1\AppData\Local\Temp\cc3o48Uk.s:27778  .debug_str:000000000002006c .LASF3209
C:\Users\CYMR90~1\AppData\Local\Temp\cc3o48Uk.s:23565  .debug_str:000000000000f168 .LASF3210
C:\Users\CYMR90~1\AppData\Local\Temp\cc3o48Uk.s:29202  .debug_str:00000000000259a5 .LASF3211
C:\Users\CYMR90~1\AppData\Local\Temp\cc3o48Uk.s:28148  .debug_str:0000000000021763 .LASF3212
C:\Users\CYMR90~1\AppData\Local\Temp\cc3o48Uk.s:23859  .debug_str:00000000000103d0 .LASF3213
C:\Users\CYMR90~1\AppData\Local\Temp\cc3o48Uk.s:27776  .debug_str:0000000000020045 .LASF3214
C:\Users\CYMR90~1\AppData\Local\Temp\cc3o48Uk.s:24867  .debug_str:00000000000144ce .LASF3215
C:\Users\CYMR90~1\AppData\Local\Temp\cc3o48Uk.s:30602  .debug_str:000000000002b0df .LASF3216
C:\Users\CYMR90~1\AppData\Local\Temp\cc3o48Uk.s:21887  .debug_str:00000000000084fc .LASF3217
C:\Users\CYMR90~1\AppData\Local\Temp\cc3o48Uk.s:27806  .debug_str:00000000000201e8 .LASF3218
C:\Users\CYMR90~1\AppData\Local\Temp\cc3o48Uk.s:29336  .debug_str:00000000000261fb .LASF3219
C:\Users\CYMR90~1\AppData\Local\Temp\cc3o48Uk.s:27882  .debug_str:00000000000206af .LASF3220
C:\Users\CYMR90~1\AppData\Local\Temp\cc3o48Uk.s:22269  .debug_str:0000000000009d15 .LASF3221
C:\Users\CYMR90~1\AppData\Local\Temp\cc3o48Uk.s:26134  .debug_str:000000000001976f .LASF3222
C:\Users\CYMR90~1\AppData\Local\Temp\cc3o48Uk.s:23543  .debug_str:000000000000eff0 .LASF3223
C:\Users\CYMR90~1\AppData\Local\Temp\cc3o48Uk.s:27494  .debug_str:000000000001ef1c .LASF3224
C:\Users\CYMR90~1\AppData\Local\Temp\cc3o48Uk.s:25950  .debug_str:0000000000018b08 .LASF3225
C:\Users\CYMR90~1\AppData\Local\Temp\cc3o48Uk.s:30526  .debug_str:000000000002ac1b .LASF3226
C:\Users\CYMR90~1\AppData\Local\Temp\cc3o48Uk.s:26720  .debug_str:000000000001bddf .LASF3227
C:\Users\CYMR90~1\AppData\Local\Temp\cc3o48Uk.s:20759  .debug_str:0000000000003c35 .LASF3228
C:\Users\CYMR90~1\AppData\Local\Temp\cc3o48Uk.s:22537  .debug_str:000000000000af23 .LASF3229
C:\Users\CYMR90~1\AppData\Local\Temp\cc3o48Uk.s:23561  .debug_str:000000000000f11a .LASF3230
C:\Users\CYMR90~1\AppData\Local\Temp\cc3o48Uk.s:28226  .debug_str:0000000000021c0f .LASF3231
C:\Users\CYMR90~1\AppData\Local\Temp\cc3o48Uk.s:25451  .debug_str:0000000000016a19 .LASF3232
C:\Users\CYMR90~1\AppData\Local\Temp\cc3o48Uk.s:27256  .debug_str:000000000001e0da .LASF3233
C:\Users\CYMR90~1\AppData\Local\Temp\cc3o48Uk.s:27148  .debug_str:000000000001d9d6 .LASF3234
C:\Users\CYMR90~1\AppData\Local\Temp\cc3o48Uk.s:28250  .debug_str:0000000000021d92 .LASF3235
C:\Users\CYMR90~1\AppData\Local\Temp\cc3o48Uk.s:22503  .debug_str:000000000000acdf .LASF3236
C:\Users\CYMR90~1\AppData\Local\Temp\cc3o48Uk.s:24833  .debug_str:0000000000014257 .LASF3237
C:\Users\CYMR90~1\AppData\Local\Temp\cc3o48Uk.s:21303  .debug_str:0000000000005e97 .LASF3238
C:\Users\CYMR90~1\AppData\Local\Temp\cc3o48Uk.s:27982  .debug_str:0000000000020d17 .LASF3239
C:\Users\CYMR90~1\AppData\Local\Temp\cc3o48Uk.s:24437  .debug_str:0000000000012971 .LASF3240
C:\Users\CYMR90~1\AppData\Local\Temp\cc3o48Uk.s:26550  .debug_str:000000000001b39a .LASF3241
C:\Users\CYMR90~1\AppData\Local\Temp\cc3o48Uk.s:26418  .debug_str:000000000001aafe .LASF3242
C:\Users\CYMR90~1\AppData\Local\Temp\cc3o48Uk.s:21065  .debug_str:0000000000005057 .LASF3243
C:\Users\CYMR90~1\AppData\Local\Temp\cc3o48Uk.s:27846  .debug_str:0000000000020416 .LASF3244
C:\Users\CYMR90~1\AppData\Local\Temp\cc3o48Uk.s:24513  .debug_str:0000000000012e79 .LASF3245
C:\Users\CYMR90~1\AppData\Local\Temp\cc3o48Uk.s:28544  .debug_str:0000000000022ee3 .LASF3246
C:\Users\CYMR90~1\AppData\Local\Temp\cc3o48Uk.s:26880  .debug_str:000000000001c77a .LASF3247
C:\Users\CYMR90~1\AppData\Local\Temp\cc3o48Uk.s:21573  .debug_str:0000000000006f91 .LASF3248
C:\Users\CYMR90~1\AppData\Local\Temp\cc3o48Uk.s:29516  .debug_str:0000000000026cd4 .LASF3249
C:\Users\CYMR90~1\AppData\Local\Temp\cc3o48Uk.s:20973  .debug_str:0000000000004acd .LASF3250
C:\Users\CYMR90~1\AppData\Local\Temp\cc3o48Uk.s:21301  .debug_str:0000000000005e86 .LASF3251
C:\Users\CYMR90~1\AppData\Local\Temp\cc3o48Uk.s:20295  .debug_str:0000000000001f2a .LASF3252
C:\Users\CYMR90~1\AppData\Local\Temp\cc3o48Uk.s:25838  .debug_str:00000000000183e5 .LASF3253
C:\Users\CYMR90~1\AppData\Local\Temp\cc3o48Uk.s:25556  .debug_str:000000000001721a .LASF3254
C:\Users\CYMR90~1\AppData\Local\Temp\cc3o48Uk.s:26602  .debug_str:000000000001b6ab .LASF3255
C:\Users\CYMR90~1\AppData\Local\Temp\cc3o48Uk.s:26790  .debug_str:000000000001c24e .LASF3256
C:\Users\CYMR90~1\AppData\Local\Temp\cc3o48Uk.s:27976  .debug_str:0000000000020cc1 .LASF3257
C:\Users\CYMR90~1\AppData\Local\Temp\cc3o48Uk.s:28850  .debug_str:0000000000024144 .LASF3258
C:\Users\CYMR90~1\AppData\Local\Temp\cc3o48Uk.s:29718  .debug_str:0000000000027992 .LASF3259
C:\Users\CYMR90~1\AppData\Local\Temp\cc3o48Uk.s:28100  .debug_str:0000000000021477 .LASF3260
C:\Users\CYMR90~1\AppData\Local\Temp\cc3o48Uk.s:29360  .debug_str:0000000000026359 .LASF3261
C:\Users\CYMR90~1\AppData\Local\Temp\cc3o48Uk.s:21591  .debug_str:00000000000070ff .LASF3262
C:\Users\CYMR90~1\AppData\Local\Temp\cc3o48Uk.s:26610  .debug_str:000000000001b738 .LASF3263
C:\Users\CYMR90~1\AppData\Local\Temp\cc3o48Uk.s:20391  .debug_str:0000000000002462 .LASF3264
C:\Users\CYMR90~1\AppData\Local\Temp\cc3o48Uk.s:29118  .debug_str:000000000002537a .LASF3265
C:\Users\CYMR90~1\AppData\Local\Temp\cc3o48Uk.s:22839  .debug_str:000000000000c3f7 .LASF3266
C:\Users\CYMR90~1\AppData\Local\Temp\cc3o48Uk.s:25311  .debug_str:00000000000160b0 .LASF3267
C:\Users\CYMR90~1\AppData\Local\Temp\cc3o48Uk.s:29554  .debug_str:0000000000026f00 .LASF3268
C:\Users\CYMR90~1\AppData\Local\Temp\cc3o48Uk.s:22491  .debug_str:000000000000ac01 .LASF3269
C:\Users\CYMR90~1\AppData\Local\Temp\cc3o48Uk.s:23329  .debug_str:000000000000e2d1 .LASF3270
C:\Users\CYMR90~1\AppData\Local\Temp\cc3o48Uk.s:20977  .debug_str:0000000000004b1c .LASF3271
C:\Users\CYMR90~1\AppData\Local\Temp\cc3o48Uk.s:19985  .debug_str:0000000000000b63 .LASF3272
C:\Users\CYMR90~1\AppData\Local\Temp\cc3o48Uk.s:28260  .debug_str:0000000000021e28 .LASF3273
C:\Users\CYMR90~1\AppData\Local\Temp\cc3o48Uk.s:22509  .debug_str:000000000000ad34 .LASF3274
C:\Users\CYMR90~1\AppData\Local\Temp\cc3o48Uk.s:20675  .debug_str:00000000000036bb .LASF3275
C:\Users\CYMR90~1\AppData\Local\Temp\cc3o48Uk.s:20153  .debug_str:00000000000015c7 .LASF3276
C:\Users\CYMR90~1\AppData\Local\Temp\cc3o48Uk.s:25860  .debug_str:00000000000185ab .LASF3277
C:\Users\CYMR90~1\AppData\Local\Temp\cc3o48Uk.s:25333  .debug_str:0000000000016206 .LASF3278
C:\Users\CYMR90~1\AppData\Local\Temp\cc3o48Uk.s:24501  .debug_str:0000000000012d9f .LASF3279
C:\Users\CYMR90~1\AppData\Local\Temp\cc3o48Uk.s:26208  .debug_str:0000000000019c9d .LASF3280
C:\Users\CYMR90~1\AppData\Local\Temp\cc3o48Uk.s:30490  .debug_str:000000000002a9d3 .LASF3281
C:\Users\CYMR90~1\AppData\Local\Temp\cc3o48Uk.s:23851  .debug_str:0000000000010352 .LASF3282
C:\Users\CYMR90~1\AppData\Local\Temp\cc3o48Uk.s:24419  .debug_str:000000000001286b .LASF3283
C:\Users\CYMR90~1\AppData\Local\Temp\cc3o48Uk.s:26502  .debug_str:000000000001b07b .LASF3284
C:\Users\CYMR90~1\AppData\Local\Temp\cc3o48Uk.s:29390  .debug_str:000000000002652c .LASF3285
C:\Users\CYMR90~1\AppData\Local\Temp\cc3o48Uk.s:21807  .debug_str:0000000000007feb .LASF3286
C:\Users\CYMR90~1\AppData\Local\Temp\cc3o48Uk.s:20505  .debug_str:0000000000002c0b .LASF3287
C:\Users\CYMR90~1\AppData\Local\Temp\cc3o48Uk.s:28188  .debug_str:0000000000021997 .LASF3288
C:\Users\CYMR90~1\AppData\Local\Temp\cc3o48Uk.s:27528  .debug_str:000000000001f171 .LASF3289
C:\Users\CYMR90~1\AppData\Local\Temp\cc3o48Uk.s:27816  .debug_str:0000000000020263 .LASF3290
C:\Users\CYMR90~1\AppData\Local\Temp\cc3o48Uk.s:28342  .debug_str:00000000000222d6 .LASF3291
C:\Users\CYMR90~1\AppData\Local\Temp\cc3o48Uk.s:23941  .debug_str:000000000001093f .LASF3292
C:\Users\CYMR90~1\AppData\Local\Temp\cc3o48Uk.s:21521  .debug_str:0000000000006c55 .LASF3293
C:\Users\CYMR90~1\AppData\Local\Temp\cc3o48Uk.s:30650  .debug_str:000000000002b46a .LASF3294
C:\Users\CYMR90~1\AppData\Local\Temp\cc3o48Uk.s:30478  .debug_str:000000000002a914 .LASF3295
C:\Users\CYMR90~1\AppData\Local\Temp\cc3o48Uk.s:24383  .debug_str:00000000000125f8 .LASF3296
C:\Users\CYMR90~1\AppData\Local\Temp\cc3o48Uk.s:19967  .debug_str:00000000000009e1 .LASF3297
C:\Users\CYMR90~1\AppData\Local\Temp\cc3o48Uk.s:29486  .debug_str:0000000000026ac7 .LASF3298
C:\Users\CYMR90~1\AppData\Local\Temp\cc3o48Uk.s:23727  .debug_str:000000000000fbb4 .LASF3299
C:\Users\CYMR90~1\AppData\Local\Temp\cc3o48Uk.s:30958  .debug_str:000000000002c8ec .LASF3300
C:\Users\CYMR90~1\AppData\Local\Temp\cc3o48Uk.s:26030  .debug_str:0000000000019178 .LASF3301
C:\Users\CYMR90~1\AppData\Local\Temp\cc3o48Uk.s:30588  .debug_str:000000000002afc4 .LASF3302
C:\Users\CYMR90~1\AppData\Local\Temp\cc3o48Uk.s:26072  .debug_str:00000000000193d9 .LASF3303
C:\Users\CYMR90~1\AppData\Local\Temp\cc3o48Uk.s:28328  .debug_str:0000000000022226 .LASF3304
C:\Users\CYMR90~1\AppData\Local\Temp\cc3o48Uk.s:27940  .debug_str:0000000000020a5c .LASF3305
C:\Users\CYMR90~1\AppData\Local\Temp\cc3o48Uk.s:22933  .debug_str:000000000000ca40 .LASF3306
C:\Users\CYMR90~1\AppData\Local\Temp\cc3o48Uk.s:20565  .debug_str:0000000000002fa2 .LASF3307
C:\Users\CYMR90~1\AppData\Local\Temp\cc3o48Uk.s:26382  .debug_str:000000000001a8b7 .LASF3308
C:\Users\CYMR90~1\AppData\Local\Temp\cc3o48Uk.s:27610  .debug_str:000000000001f62c .LASF3309
C:\Users\CYMR90~1\AppData\Local\Temp\cc3o48Uk.s:30282  .debug_str:0000000000029d6c .LASF3310
C:\Users\CYMR90~1\AppData\Local\Temp\cc3o48Uk.s:29472  .debug_str:0000000000026a29 .LASF3311
C:\Users\CYMR90~1\AppData\Local\Temp\cc3o48Uk.s:28388  .debug_str:0000000000022576 .LASF3312
C:\Users\CYMR90~1\AppData\Local\Temp\cc3o48Uk.s:29064  .debug_str:0000000000024f36 .LASF3313
C:\Users\CYMR90~1\AppData\Local\Temp\cc3o48Uk.s:27204  .debug_str:000000000001dd9a .LASF3314
C:\Users\CYMR90~1\AppData\Local\Temp\cc3o48Uk.s:27264  .debug_str:000000000001e160 .LASF3315
C:\Users\CYMR90~1\AppData\Local\Temp\cc3o48Uk.s:26290  .debug_str:000000000001a123 .LASF3316
C:\Users\CYMR90~1\AppData\Local\Temp\cc3o48Uk.s:19865  .debug_str:0000000000000400 .LASF3317
C:\Users\CYMR90~1\AppData\Local\Temp\cc3o48Uk.s:25650  .debug_str:0000000000017836 .LASF3318
C:\Users\CYMR90~1\AppData\Local\Temp\cc3o48Uk.s:29250  .debug_str:0000000000025c71 .LASF3319
C:\Users\CYMR90~1\AppData\Local\Temp\cc3o48Uk.s:21093  .debug_str:0000000000005201 .LASF3320
C:\Users\CYMR90~1\AppData\Local\Temp\cc3o48Uk.s:20201  .debug_str:0000000000001999 .LASF3321
C:\Users\CYMR90~1\AppData\Local\Temp\cc3o48Uk.s:25189  .debug_str:0000000000015860 .LASF3322
C:\Users\CYMR90~1\AppData\Local\Temp\cc3o48Uk.s:26218  .debug_str:0000000000019d44 .LASF3323
C:\Users\CYMR90~1\AppData\Local\Temp\cc3o48Uk.s:22183  .debug_str:0000000000009765 .LASF3324
C:\Users\CYMR90~1\AppData\Local\Temp\cc3o48Uk.s:27280  .debug_str:000000000001e25b .LASF3325
C:\Users\CYMR90~1\AppData\Local\Temp\cc3o48Uk.s:20287  .debug_str:0000000000001eab .LASF3326
C:\Users\CYMR90~1\AppData\Local\Temp\cc3o48Uk.s:27592  .debug_str:000000000001f544 .LASF3327
C:\Users\CYMR90~1\AppData\Local\Temp\cc3o48Uk.s:22159  .debug_str:0000000000009603 .LASF3328
C:\Users\CYMR90~1\AppData\Local\Temp\cc3o48Uk.s:25766  .debug_str:0000000000017fad .LASF3329
C:\Users\CYMR90~1\AppData\Local\Temp\cc3o48Uk.s:29348  .debug_str:00000000000262a1 .LASF3330
C:\Users\CYMR90~1\AppData\Local\Temp\cc3o48Uk.s:23285  .debug_str:000000000000e036 .LASF3331
C:\Users\CYMR90~1\AppData\Local\Temp\cc3o48Uk.s:27340  .debug_str:000000000001e630 .LASF3332
C:\Users\CYMR90~1\AppData\Local\Temp\cc3o48Uk.s:30854  .debug_str:000000000002c1e8 .LASF3333
C:\Users\CYMR90~1\AppData\Local\Temp\cc3o48Uk.s:23589  .debug_str:000000000000f2fb .LASF3334
C:\Users\CYMR90~1\AppData\Local\Temp\cc3o48Uk.s:23033  .debug_str:000000000000d074 .LASF3335
C:\Users\CYMR90~1\AppData\Local\Temp\cc3o48Uk.s:20961  .debug_str:0000000000004a17 .LASF3336
C:\Users\CYMR90~1\AppData\Local\Temp\cc3o48Uk.s:27524  .debug_str:000000000001f13d .LASF3337
C:\Users\CYMR90~1\AppData\Local\Temp\cc3o48Uk.s:23297  .debug_str:000000000000e0ed .LASF3338
C:\Users\CYMR90~1\AppData\Local\Temp\cc3o48Uk.s:30604  .debug_str:000000000002b106 .LASF3339
C:\Users\CYMR90~1\AppData\Local\Temp\cc3o48Uk.s:29674  .debug_str:0000000000027681 .LASF3340
C:\Users\CYMR90~1\AppData\Local\Temp\cc3o48Uk.s:25538  .debug_str:00000000000170fd .LASF3341
C:\Users\CYMR90~1\AppData\Local\Temp\cc3o48Uk.s:27070  .debug_str:000000000001d50c .LASF3342
C:\Users\CYMR90~1\AppData\Local\Temp\cc3o48Uk.s:25590  .debug_str:0000000000017437 .LASF3343
C:\Users\CYMR90~1\AppData\Local\Temp\cc3o48Uk.s:29082  .debug_str:00000000000250be .LASF3344
C:\Users\CYMR90~1\AppData\Local\Temp\cc3o48Uk.s:27230  .debug_str:000000000001df6f .LASF3345
C:\Users\CYMR90~1\AppData\Local\Temp\cc3o48Uk.s:28150  .debug_str:00000000000217a2 .LASF3346
C:\Users\CYMR90~1\AppData\Local\Temp\cc3o48Uk.s:23831  .debug_str:0000000000010219 .LASF3347
C:\Users\CYMR90~1\AppData\Local\Temp\cc3o48Uk.s:24967  .debug_str:0000000000014afa .LASF3348
C:\Users\CYMR90~1\AppData\Local\Temp\cc3o48Uk.s:30982  .debug_str:000000000002ca8f .LASF3349
C:\Users\CYMR90~1\AppData\Local\Temp\cc3o48Uk.s:23021  .debug_str:000000000000cfba .LASF3350
C:\Users\CYMR90~1\AppData\Local\Temp\cc3o48Uk.s:25818  .debug_str:00000000000182c8 .LASF3351
C:\Users\CYMR90~1\AppData\Local\Temp\cc3o48Uk.s:22187  .debug_str:0000000000009797 .LASF3352
C:\Users\CYMR90~1\AppData\Local\Temp\cc3o48Uk.s:29346  .debug_str:0000000000026284 .LASF3353
C:\Users\CYMR90~1\AppData\Local\Temp\cc3o48Uk.s:30416  .debug_str:000000000002a58f .LASF3354
C:\Users\CYMR90~1\AppData\Local\Temp\cc3o48Uk.s:22729  .debug_str:000000000000bc58 .LASF3355
C:\Users\CYMR90~1\AppData\Local\Temp\cc3o48Uk.s:29820  .debug_str:0000000000028130 .LASF3356
C:\Users\CYMR90~1\AppData\Local\Temp\cc3o48Uk.s:26726  .debug_str:000000000001be57 .LASF3357
C:\Users\CYMR90~1\AppData\Local\Temp\cc3o48Uk.s:30290  .debug_str:0000000000029dd4 .LASF3358
C:\Users\CYMR90~1\AppData\Local\Temp\cc3o48Uk.s:20361  .debug_str:00000000000022db .LASF3359
C:\Users\CYMR90~1\AppData\Local\Temp\cc3o48Uk.s:29402  .debug_str:0000000000026607 .LASF3360
C:\Users\CYMR90~1\AppData\Local\Temp\cc3o48Uk.s:26164  .debug_str:00000000000199d3 .LASF3361
C:\Users\CYMR90~1\AppData\Local\Temp\cc3o48Uk.s:26090  .debug_str:000000000001950d .LASF3362
C:\Users\CYMR90~1\AppData\Local\Temp\cc3o48Uk.s:26506  .debug_str:000000000001b0bb .LASF3363
C:\Users\CYMR90~1\AppData\Local\Temp\cc3o48Uk.s:20369  .debug_str:0000000000002345 .LASF3364
C:\Users\CYMR90~1\AppData\Local\Temp\cc3o48Uk.s:29740  .debug_str:0000000000027b41 .LASF3365
C:\Users\CYMR90~1\AppData\Local\Temp\cc3o48Uk.s:27394  .debug_str:000000000001e994 .LASF3366
C:\Users\CYMR90~1\AppData\Local\Temp\cc3o48Uk.s:20971  .debug_str:0000000000004ab2 .LASF3367
C:\Users\CYMR90~1\AppData\Local\Temp\cc3o48Uk.s:28390  .debug_str:0000000000022592 .LASF3368
C:\Users\CYMR90~1\AppData\Local\Temp\cc3o48Uk.s:27936  .debug_str:0000000000020a24 .LASF3369
C:\Users\CYMR90~1\AppData\Local\Temp\cc3o48Uk.s:30808  .debug_str:000000000002bf25 .LASF3370
C:\Users\CYMR90~1\AppData\Local\Temp\cc3o48Uk.s:30544  .debug_str:000000000002ad3a .LASF3371
C:\Users\CYMR90~1\AppData\Local\Temp\cc3o48Uk.s:19925  .debug_str:0000000000000774 .LASF3372
C:\Users\CYMR90~1\AppData\Local\Temp\cc3o48Uk.s:23513  .debug_str:000000000000ee2e .LASF3373
C:\Users\CYMR90~1\AppData\Local\Temp\cc3o48Uk.s:29004  .debug_str:0000000000024b8e .LASF3374
C:\Users\CYMR90~1\AppData\Local\Temp\cc3o48Uk.s:28708  .debug_str:0000000000023889 .LASF3375
C:\Users\CYMR90~1\AppData\Local\Temp\cc3o48Uk.s:26336  .debug_str:000000000001a53e .LASF3376
C:\Users\CYMR90~1\AppData\Local\Temp\cc3o48Uk.s:25486  .debug_str:0000000000016dd3 .LASF3377
C:\Users\CYMR90~1\AppData\Local\Temp\cc3o48Uk.s:25936  .debug_str:0000000000018a45 .LASF3378
C:\Users\CYMR90~1\AppData\Local\Temp\cc3o48Uk.s:30362  .debug_str:000000000002a20a .LASF3379
C:\Users\CYMR90~1\AppData\Local\Temp\cc3o48Uk.s:23067  .debug_str:000000000000d2d0 .LASF3380
C:\Users\CYMR90~1\AppData\Local\Temp\cc3o48Uk.s:26648  .debug_str:000000000001b951 .LASF3381
C:\Users\CYMR90~1\AppData\Local\Temp\cc3o48Uk.s:25187  .debug_str:0000000000015848 .LASF3382
C:\Users\CYMR90~1\AppData\Local\Temp\cc3o48Uk.s:24939  .debug_str:000000000001495e .LASF3383
C:\Users\CYMR90~1\AppData\Local\Temp\cc3o48Uk.s:27308  .debug_str:000000000001e408 .LASF3384
C:\Users\CYMR90~1\AppData\Local\Temp\cc3o48Uk.s:30158  .debug_str:0000000000029657 .LASF3385
C:\Users\CYMR90~1\AppData\Local\Temp\cc3o48Uk.s:20499  .debug_str:0000000000002bc5 .LASF3386
C:\Users\CYMR90~1\AppData\Local\Temp\cc3o48Uk.s:27508  .debug_str:000000000001f009 .LASF3387
C:\Users\CYMR90~1\AppData\Local\Temp\cc3o48Uk.s:28064  .debug_str:00000000000211b5 .LASF3388
C:\Users\CYMR90~1\AppData\Local\Temp\cc3o48Uk.s:20615  .debug_str:00000000000032f3 .LASF3389
C:\Users\CYMR90~1\AppData\Local\Temp\cc3o48Uk.s:22553  .debug_str:000000000000b0c9 .LASF3390
C:\Users\CYMR90~1\AppData\Local\Temp\cc3o48Uk.s:21485  .debug_str:00000000000069dd .LASF3391
C:\Users\CYMR90~1\AppData\Local\Temp\cc3o48Uk.s:29024  .debug_str:0000000000024ccb .LASF3392
C:\Users\CYMR90~1\AppData\Local\Temp\cc3o48Uk.s:26402  .debug_str:000000000001a9ec .LASF3393
C:\Users\CYMR90~1\AppData\Local\Temp\cc3o48Uk.s:26262  .debug_str:0000000000019fa6 .LASF3394
C:\Users\CYMR90~1\AppData\Local\Temp\cc3o48Uk.s:21441  .debug_str:0000000000006734 .LASF3395
C:\Users\CYMR90~1\AppData\Local\Temp\cc3o48Uk.s:23393  .debug_str:000000000000e6bf .LASF3396
C:\Users\CYMR90~1\AppData\Local\Temp\cc3o48Uk.s:23241  .debug_str:000000000000dd7d .LASF3397
C:\Users\CYMR90~1\AppData\Local\Temp\cc3o48Uk.s:21879  .debug_str:000000000000848c .LASF3398
C:\Users\CYMR90~1\AppData\Local\Temp\cc3o48Uk.s:22067  .debug_str:0000000000009059 .LASF3399
C:\Users\CYMR90~1\AppData\Local\Temp\cc3o48Uk.s:22651  .debug_str:000000000000b719 .LASF3400
C:\Users\CYMR90~1\AppData\Local\Temp\cc3o48Uk.s:20639  .debug_str:0000000000003478 .LASF3401
C:\Users\CYMR90~1\AppData\Local\Temp\cc3o48Uk.s:21997  .debug_str:0000000000008bb4 .LASF3402
C:\Users\CYMR90~1\AppData\Local\Temp\cc3o48Uk.s:19847  .debug_str:00000000000002f2 .LASF3403
C:\Users\CYMR90~1\AppData\Local\Temp\cc3o48Uk.s:25532  .debug_str:0000000000017092 .LASF3404
C:\Users\CYMR90~1\AppData\Local\Temp\cc3o48Uk.s:22799  .debug_str:000000000000c16f .LASF3405
C:\Users\CYMR90~1\AppData\Local\Temp\cc3o48Uk.s:28646  .debug_str:000000000002349d .LASF3406
C:\Users\CYMR90~1\AppData\Local\Temp\cc3o48Uk.s:30720  .debug_str:000000000002b918 .LASF3407
C:\Users\CYMR90~1\AppData\Local\Temp\cc3o48Uk.s:24315  .debug_str:000000000001219f .LASF3408
C:\Users\CYMR90~1\AppData\Local\Temp\cc3o48Uk.s:24177  .debug_str:00000000000118ee .LASF3409
C:\Users\CYMR90~1\AppData\Local\Temp\cc3o48Uk.s:26520  .debug_str:000000000001b1d3 .LASF3410
C:\Users\CYMR90~1\AppData\Local\Temp\cc3o48Uk.s:28658  .debug_str:000000000002358d .LASF3411
C:\Users\CYMR90~1\AppData\Local\Temp\cc3o48Uk.s:30090  .debug_str:0000000000029200 .LASF3412
C:\Users\CYMR90~1\AppData\Local\Temp\cc3o48Uk.s:26176  .debug_str:0000000000019a99 .LASF3413
C:\Users\CYMR90~1\AppData\Local\Temp\cc3o48Uk.s:27492  .debug_str:000000000001eefd .LASF3414
C:\Users\CYMR90~1\AppData\Local\Temp\cc3o48Uk.s:28580  .debug_str:00000000000230a5 .LASF3415
C:\Users\CYMR90~1\AppData\Local\Temp\cc3o48Uk.s:29430  .debug_str:00000000000267ac .LASF3416
C:\Users\CYMR90~1\AppData\Local\Temp\cc3o48Uk.s:20027  .debug_str:0000000000000de8 .LASF3417
C:\Users\CYMR90~1\AppData\Local\Temp\cc3o48Uk.s:23461  .debug_str:000000000000eb43 .LASF3418
C:\Users\CYMR90~1\AppData\Local\Temp\cc3o48Uk.s:30802  .debug_str:000000000002beda .LASF3419
C:\Users\CYMR90~1\AppData\Local\Temp\cc3o48Uk.s:29568  .debug_str:0000000000026fbd .LASF3420
C:\Users\CYMR90~1\AppData\Local\Temp\cc3o48Uk.s:20485  .debug_str:0000000000002a95 .LASF3421
C:\Users\CYMR90~1\AppData\Local\Temp\cc3o48Uk.s:26650  .debug_str:000000000001b96e .LASF3422
C:\Users\CYMR90~1\AppData\Local\Temp\cc3o48Uk.s:21601  .debug_str:00000000000071a7 .LASF3423
C:\Users\CYMR90~1\AppData\Local\Temp\cc3o48Uk.s:22995  .debug_str:000000000000cdd7 .LASF3424
C:\Users\CYMR90~1\AppData\Local\Temp\cc3o48Uk.s:21341  .debug_str:00000000000060fa .LASF3425
C:\Users\CYMR90~1\AppData\Local\Temp\cc3o48Uk.s:28034  .debug_str:0000000000021009 .LASF3426
C:\Users\CYMR90~1\AppData\Local\Temp\cc3o48Uk.s:28300  .debug_str:0000000000022070 .LASF3427
C:\Users\CYMR90~1\AppData\Local\Temp\cc3o48Uk.s:22165  .debug_str:000000000000965a .LASF3428
C:\Users\CYMR90~1\AppData\Local\Temp\cc3o48Uk.s:28704  .debug_str:000000000002385b .LASF3429
C:\Users\CYMR90~1\AppData\Local\Temp\cc3o48Uk.s:30928  .debug_str:000000000002c6ce .LASF3430
C:\Users\CYMR90~1\AppData\Local\Temp\cc3o48Uk.s:23769  .debug_str:000000000000fe74 .LASF3431
C:\Users\CYMR90~1\AppData\Local\Temp\cc3o48Uk.s:23283  .debug_str:000000000000e01d .LASF3432
C:\Users\CYMR90~1\AppData\Local\Temp\cc3o48Uk.s:27432  .debug_str:000000000001eb8b .LASF3433
C:\Users\CYMR90~1\AppData\Local\Temp\cc3o48Uk.s:20923  .debug_str:0000000000004752 .LASF3434
C:\Users\CYMR90~1\AppData\Local\Temp\cc3o48Uk.s:20245  .debug_str:0000000000001c35 .LASF3435
C:\Users\CYMR90~1\AppData\Local\Temp\cc3o48Uk.s:22249  .debug_str:0000000000009be4 .LASF3436
C:\Users\CYMR90~1\AppData\Local\Temp\cc3o48Uk.s:28556  .debug_str:0000000000022f92 .LASF3437
C:\Users\CYMR90~1\AppData\Local\Temp\cc3o48Uk.s:24207  .debug_str:0000000000011ac4 .LASF3438
C:\Users\CYMR90~1\AppData\Local\Temp\cc3o48Uk.s:22655  .debug_str:000000000000b77b .LASF3439
C:\Users\CYMR90~1\AppData\Local\Temp\cc3o48Uk.s:22129  .debug_str:00000000000093e1 .LASF3440
C:\Users\CYMR90~1\AppData\Local\Temp\cc3o48Uk.s:26422  .debug_str:000000000001ab30 .LASF3441
C:\Users\CYMR90~1\AppData\Local\Temp\cc3o48Uk.s:26012  .debug_str:0000000000018f7e .LASF3442
C:\Users\CYMR90~1\AppData\Local\Temp\cc3o48Uk.s:29940  .debug_str:0000000000028941 .LASF3443
C:\Users\CYMR90~1\AppData\Local\Temp\cc3o48Uk.s:25696  .debug_str:0000000000017b45 .LASF3444
C:\Users\CYMR90~1\AppData\Local\Temp\cc3o48Uk.s:29862  .debug_str:00000000000283e7 .LASF3445
C:\Users\CYMR90~1\AppData\Local\Temp\cc3o48Uk.s:23295  .debug_str:000000000000e0ce .LASF3446
C:\Users\CYMR90~1\AppData\Local\Temp\cc3o48Uk.s:21787  .debug_str:0000000000007e17 .LASF3447
C:\Users\CYMR90~1\AppData\Local\Temp\cc3o48Uk.s:30864  .debug_str:000000000002c2b5 .LASF3448
C:\Users\CYMR90~1\AppData\Local\Temp\cc3o48Uk.s:25075  .debug_str:00000000000151f0 .LASF3449
C:\Users\CYMR90~1\AppData\Local\Temp\cc3o48Uk.s:26802  .debug_str:000000000001c2f5 .LASF3450
C:\Users\CYMR90~1\AppData\Local\Temp\cc3o48Uk.s:26236  .debug_str:0000000000019e34 .LASF3451
C:\Users\CYMR90~1\AppData\Local\Temp\cc3o48Uk.s:25842  .debug_str:000000000001841b .LASF3452
C:\Users\CYMR90~1\AppData\Local\Temp\cc3o48Uk.s:28084  .debug_str:000000000002137e .LASF3453
C:\Users\CYMR90~1\AppData\Local\Temp\cc3o48Uk.s:22679  .debug_str:000000000000b904 .LASF3454
C:\Users\CYMR90~1\AppData\Local\Temp\cc3o48Uk.s:26282  .debug_str:000000000001a0b3 .LASF3455
C:\Users\CYMR90~1\AppData\Local\Temp\cc3o48Uk.s:19815  .debug_str:00000000000000dc .LASF3456
C:\Users\CYMR90~1\AppData\Local\Temp\cc3o48Uk.s:24171  .debug_str:00000000000117f9 .LASF3457
C:\Users\CYMR90~1\AppData\Local\Temp\cc3o48Uk.s:28128  .debug_str:0000000000021628 .LASF3458
C:\Users\CYMR90~1\AppData\Local\Temp\cc3o48Uk.s:28386  .debug_str:0000000000022551 .LASF3459
C:\Users\CYMR90~1\AppData\Local\Temp\cc3o48Uk.s:25265  .debug_str:0000000000015d9e .LASF3460
C:\Users\CYMR90~1\AppData\Local\Temp\cc3o48Uk.s:30224  .debug_str:0000000000029a1d .LASF3461
C:\Users\CYMR90~1\AppData\Local\Temp\cc3o48Uk.s:27368  .debug_str:000000000001e7c5 .LASF3462
C:\Users\CYMR90~1\AppData\Local\Temp\cc3o48Uk.s:31044  .debug_str:000000000002ce79 .LASF3463
C:\Users\CYMR90~1\AppData\Local\Temp\cc3o48Uk.s:28682  .debug_str:0000000000023701 .LASF3464
C:\Users\CYMR90~1\AppData\Local\Temp\cc3o48Uk.s:29116  .debug_str:0000000000025356 .LASF3465
C:\Users\CYMR90~1\AppData\Local\Temp\cc3o48Uk.s:24209  .debug_str:0000000000011ad9 .LASF3466
C:\Users\CYMR90~1\AppData\Local\Temp\cc3o48Uk.s:24563  .debug_str:00000000000131e2 .LASF3467
C:\Users\CYMR90~1\AppData\Local\Temp\cc3o48Uk.s:20265  .debug_str:0000000000001d55 .LASF3468
C:\Users\CYMR90~1\AppData\Local\Temp\cc3o48Uk.s:21571  .debug_str:0000000000006f6d .LASF3469
C:\Users\CYMR90~1\AppData\Local\Temp\cc3o48Uk.s:30676  .debug_str:000000000002b5f9 .LASF3470
C:\Users\CYMR90~1\AppData\Local\Temp\cc3o48Uk.s:25295  .debug_str:0000000000015fc4 .LASF3471
C:\Users\CYMR90~1\AppData\Local\Temp\cc3o48Uk.s:27634  .debug_str:000000000001f79a .LASF3472
C:\Users\CYMR90~1\AppData\Local\Temp\cc3o48Uk.s:23177  .debug_str:000000000000d997 .LASF3473
C:\Users\CYMR90~1\AppData\Local\Temp\cc3o48Uk.s:24411  .debug_str:00000000000127c4 .LASF3474
C:\Users\CYMR90~1\AppData\Local\Temp\cc3o48Uk.s:20047  .debug_str:0000000000000fce .LASF3475
C:\Users\CYMR90~1\AppData\Local\Temp\cc3o48Uk.s:26368  .debug_str:000000000001a762 .LASF3476
C:\Users\CYMR90~1\AppData\Local\Temp\cc3o48Uk.s:20845  .debug_str:0000000000004202 .LASF3477
C:\Users\CYMR90~1\AppData\Local\Temp\cc3o48Uk.s:26616  .debug_str:000000000001b78e .LASF3478
C:\Users\CYMR90~1\AppData\Local\Temp\cc3o48Uk.s:21115  .debug_str:0000000000005349 .LASF3479
C:\Users\CYMR90~1\AppData\Local\Temp\cc3o48Uk.s:22233  .debug_str:0000000000009acf .LASF3480
C:\Users\CYMR90~1\AppData\Local\Temp\cc3o48Uk.s:21387  .debug_str:00000000000063d5 .LASF3481
C:\Users\CYMR90~1\AppData\Local\Temp\cc3o48Uk.s:27120  .debug_str:000000000001d81f .LASF3482
C:\Users\CYMR90~1\AppData\Local\Temp\cc3o48Uk.s:29590  .debug_str:00000000000271fb .LASF3483
C:\Users\CYMR90~1\AppData\Local\Temp\cc3o48Uk.s:28322  .debug_str:00000000000221c4 .LASF3484
C:\Users\CYMR90~1\AppData\Local\Temp\cc3o48Uk.s:21425  .debug_str:0000000000006602 .LASF3485
C:\Users\CYMR90~1\AppData\Local\Temp\cc3o48Uk.s:30236  .debug_str:0000000000029ada .LASF3486
C:\Users\CYMR90~1\AppData\Local\Temp\cc3o48Uk.s:27588  .debug_str:000000000001f50a .LASF3487
C:\Users\CYMR90~1\AppData\Local\Temp\cc3o48Uk.s:23485  .debug_str:000000000000ec9d .LASF3488
C:\Users\CYMR90~1\AppData\Local\Temp\cc3o48Uk.s:22505  .debug_str:000000000000acf9 .LASF3489
C:\Users\CYMR90~1\AppData\Local\Temp\cc3o48Uk.s:19907  .debug_str:000000000000063b .LASF3490
C:\Users\CYMR90~1\AppData\Local\Temp\cc3o48Uk.s:23711  .debug_str:000000000000fab6 .LASF3491
C:\Users\CYMR90~1\AppData\Local\Temp\cc3o48Uk.s:22689  .debug_str:000000000000b9be .LASF3492
C:\Users\CYMR90~1\AppData\Local\Temp\cc3o48Uk.s:23443  .debug_str:000000000000e9f2 .LASF3493
C:\Users\CYMR90~1\AppData\Local\Temp\cc3o48Uk.s:21607  .debug_str:0000000000007210 .LASF3494
C:\Users\CYMR90~1\AppData\Local\Temp\cc3o48Uk.s:29656  .debug_str:000000000002757e .LASF3495
C:\Users\CYMR90~1\AppData\Local\Temp\cc3o48Uk.s:27042  .debug_str:000000000001d333 .LASF3496
C:\Users\CYMR90~1\AppData\Local\Temp\cc3o48Uk.s:24507  .debug_str:0000000000012e0d .LASF3497
C:\Users\CYMR90~1\AppData\Local\Temp\cc3o48Uk.s:26630  .debug_str:000000000001b86e .LASF3498
C:\Users\CYMR90~1\AppData\Local\Temp\cc3o48Uk.s:30638  .debug_str:000000000002b36e .LASF3499
C:\Users\CYMR90~1\AppData\Local\Temp\cc3o48Uk.s:23853  .debug_str:000000000001036b .LASF3500
C:\Users\CYMR90~1\AppData\Local\Temp\cc3o48Uk.s:29890  .debug_str:0000000000028609 .LASF3501
C:\Users\CYMR90~1\AppData\Local\Temp\cc3o48Uk.s:22885  .debug_str:000000000000c6cf .LASF3502
C:\Users\CYMR90~1\AppData\Local\Temp\cc3o48Uk.s:20345  .debug_str:00000000000021cf .LASF3503
C:\Users\CYMR90~1\AppData\Local\Temp\cc3o48Uk.s:23827  .debug_str:00000000000101db .LASF3504
C:\Users\CYMR90~1\AppData\Local\Temp\cc3o48Uk.s:28810  .debug_str:0000000000023e1b .LASF3505
C:\Users\CYMR90~1\AppData\Local\Temp\cc3o48Uk.s:23961  .debug_str:0000000000010a92 .LASF3506
C:\Users\CYMR90~1\AppData\Local\Temp\cc3o48Uk.s:28302  .debug_str:0000000000022088 .LASF3507
C:\Users\CYMR90~1\AppData\Local\Temp\cc3o48Uk.s:24627  .debug_str:00000000000135b7 .LASF3508
C:\Users\CYMR90~1\AppData\Local\Temp\cc3o48Uk.s:21777  .debug_str:0000000000007d82 .LASF3509
C:\Users\CYMR90~1\AppData\Local\Temp\cc3o48Uk.s:28532  .debug_str:0000000000022e1c .LASF3510
C:\Users\CYMR90~1\AppData\Local\Temp\cc3o48Uk.s:30678  .debug_str:000000000002b61d .LASF3511
C:\Users\CYMR90~1\AppData\Local\Temp\cc3o48Uk.s:30206  .debug_str:0000000000029908 .LASF3512
C:\Users\CYMR90~1\AppData\Local\Temp\cc3o48Uk.s:26716  .debug_str:000000000001bd8f .LASF3513
C:\Users\CYMR90~1\AppData\Local\Temp\cc3o48Uk.s:21575  .debug_str:0000000000006faf .LASF3514
C:\Users\CYMR90~1\AppData\Local\Temp\cc3o48Uk.s:21161  .debug_str:000000000000561a .LASF3515
C:\Users\CYMR90~1\AppData\Local\Temp\cc3o48Uk.s:21659  .debug_str:0000000000007521 .LASF3516
C:\Users\CYMR90~1\AppData\Local\Temp\cc3o48Uk.s:20631  .debug_str:00000000000033fd .LASF3517
C:\Users\CYMR90~1\AppData\Local\Temp\cc3o48Uk.s:28930  .debug_str:0000000000024668 .LASF3518
C:\Users\CYMR90~1\AppData\Local\Temp\cc3o48Uk.s:23779  .debug_str:000000000000feee .LASF3519
C:\Users\CYMR90~1\AppData\Local\Temp\cc3o48Uk.s:21969  .debug_str:0000000000008a13 .LASF3520
C:\Users\CYMR90~1\AppData\Local\Temp\cc3o48Uk.s:22079  .debug_str:0000000000009111 .LASF3521
C:\Users\CYMR90~1\AppData\Local\Temp\cc3o48Uk.s:28198  .debug_str:0000000000021a29 .LASF3522
C:\Users\CYMR90~1\AppData\Local\Temp\cc3o48Uk.s:30138  .debug_str:0000000000029519 .LASF3523
C:\Users\CYMR90~1\AppData\Local\Temp\cc3o48Uk.s:28446  .debug_str:00000000000228d9 .LASF3524
C:\Users\CYMR90~1\AppData\Local\Temp\cc3o48Uk.s:30028  .debug_str:0000000000028e5d .LASF3525
C:\Users\CYMR90~1\AppData\Local\Temp\cc3o48Uk.s:19939  .debug_str:0000000000000848 .LASF3526
C:\Users\CYMR90~1\AppData\Local\Temp\cc3o48Uk.s:28270  .debug_str:0000000000021ec0 .LASF3527
C:\Users\CYMR90~1\AppData\Local\Temp\cc3o48Uk.s:25488  .debug_str:0000000000016deb .LASF3528
C:\Users\CYMR90~1\AppData\Local\Temp\cc3o48Uk.s:22513  .debug_str:000000000000ad6d .LASF3529
C:\Users\CYMR90~1\AppData\Local\Temp\cc3o48Uk.s:23051  .debug_str:000000000000d1b6 .LASF3530
C:\Users\CYMR90~1\AppData\Local\Temp\cc3o48Uk.s:21559  .debug_str:0000000000006ea3 .LASF3531
C:\Users\CYMR90~1\AppData\Local\Temp\cc3o48Uk.s:25095  .debug_str:00000000000152ea .LASF3532
C:\Users\CYMR90~1\AppData\Local\Temp\cc3o48Uk.s:22929  .debug_str:000000000000ca10 .LASF3533
C:\Users\CYMR90~1\AppData\Local\Temp\cc3o48Uk.s:28550  .debug_str:0000000000022f40 .LASF3534
C:\Users\CYMR90~1\AppData\Local\Temp\cc3o48Uk.s:26518  .debug_str:000000000001b190 .LASF3535
C:\Users\CYMR90~1\AppData\Local\Temp\cc3o48Uk.s:28488  .debug_str:0000000000022bcb .LASF3536
C:\Users\CYMR90~1\AppData\Local\Temp\cc3o48Uk.s:25634  .debug_str:0000000000017745 .LASF3537
C:\Users\CYMR90~1\AppData\Local\Temp\cc3o48Uk.s:28026  .debug_str:0000000000020f91 .LASF3538
C:\Users\CYMR90~1\AppData\Local\Temp\cc3o48Uk.s:27556  .debug_str:000000000001f2f0 .LASF3539
C:\Users\CYMR90~1\AppData\Local\Temp\cc3o48Uk.s:22569  .debug_str:000000000000b1bf .LASF3540
C:\Users\CYMR90~1\AppData\Local\Temp\cc3o48Uk.s:24793  .debug_str:0000000000014032 .LASF3541
C:\Users\CYMR90~1\AppData\Local\Temp\cc3o48Uk.s:25764  .debug_str:0000000000017f8b .LASF3542
C:\Users\CYMR90~1\AppData\Local\Temp\cc3o48Uk.s:29482  .debug_str:0000000000026a94 .LASF3543
C:\Users\CYMR90~1\AppData\Local\Temp\cc3o48Uk.s:22355  .debug_str:000000000000a287 .LASF3544
C:\Users\CYMR90~1\AppData\Local\Temp\cc3o48Uk.s:21085  .debug_str:000000000000517b .LASF3545
C:\Users\CYMR90~1\AppData\Local\Temp\cc3o48Uk.s:26070  .debug_str:00000000000193b7 .LASF3546
C:\Users\CYMR90~1\AppData\Local\Temp\cc3o48Uk.s:22613  .debug_str:000000000000b423 .LASF3547
C:\Users\CYMR90~1\AppData\Local\Temp\cc3o48Uk.s:23331  .debug_str:000000000000e2f9 .LASF3548
C:\Users\CYMR90~1\AppData\Local\Temp\cc3o48Uk.s:30778  .debug_str:000000000002bcfb .LASF3549
C:\Users\CYMR90~1\AppData\Local\Temp\cc3o48Uk.s:30624  .debug_str:000000000002b270 .LASF3550
C:\Users\CYMR90~1\AppData\Local\Temp\cc3o48Uk.s:23197  .debug_str:000000000000daf8 .LASF3551
C:\Users\CYMR90~1\AppData\Local\Temp\cc3o48Uk.s:21169  .debug_str:000000000000567f .LASF3552
C:\Users\CYMR90~1\AppData\Local\Temp\cc3o48Uk.s:30264  .debug_str:0000000000029c79 .LASF3553
C:\Users\CYMR90~1\AppData\Local\Temp\cc3o48Uk.s:27998  .debug_str:0000000000020dea .LASF3554
C:\Users\CYMR90~1\AppData\Local\Temp\cc3o48Uk.s:21173  .debug_str:00000000000056df .LASF3555
C:\Users\CYMR90~1\AppData\Local\Temp\cc3o48Uk.s:25213  .debug_str:00000000000159f3 .LASF3556
C:\Users\CYMR90~1\AppData\Local\Temp\cc3o48Uk.s:21267  .debug_str:0000000000005c89 .LASF3557
C:\Users\CYMR90~1\AppData\Local\Temp\cc3o48Uk.s:24677  .debug_str:00000000000138d4 .LASF3558
C:\Users\CYMR90~1\AppData\Local\Temp\cc3o48Uk.s:28190  .debug_str:00000000000219af .LASF3559
C:\Users\CYMR90~1\AppData\Local\Temp\cc3o48Uk.s:29298  .debug_str:0000000000025fa4 .LASF3560
C:\Users\CYMR90~1\AppData\Local\Temp\cc3o48Uk.s:20997  .debug_str:0000000000004c3a .LASF3561
C:\Users\CYMR90~1\AppData\Local\Temp\cc3o48Uk.s:28768  .debug_str:0000000000023bda .LASF3562
C:\Users\CYMR90~1\AppData\Local\Temp\cc3o48Uk.s:27918  .debug_str:000000000002090b .LASF3563
C:\Users\CYMR90~1\AppData\Local\Temp\cc3o48Uk.s:30414  .debug_str:000000000002a56b .LASF3564
C:\Users\CYMR90~1\AppData\Local\Temp\cc3o48Uk.s:23463  .debug_str:000000000000eb5b .LASF3565
C:\Users\CYMR90~1\AppData\Local\Temp\cc3o48Uk.s:21181  .debug_str:0000000000005735 .LASF3566
C:\Users\CYMR90~1\AppData\Local\Temp\cc3o48Uk.s:21523  .debug_str:0000000000006c6f .LASF3567
C:\Users\CYMR90~1\AppData\Local\Temp\cc3o48Uk.s:28008  .debug_str:0000000000020e8d .LASF3568
C:\Users\CYMR90~1\AppData\Local\Temp\cc3o48Uk.s:25872  .debug_str:0000000000018639 .LASF3569
C:\Users\CYMR90~1\AppData\Local\Temp\cc3o48Uk.s:26960  .debug_str:000000000001cd2c .LASF3570
C:\Users\CYMR90~1\AppData\Local\Temp\cc3o48Uk.s:30002  .debug_str:0000000000028cd2 .LASF3571
C:\Users\CYMR90~1\AppData\Local\Temp\cc3o48Uk.s:27832  .debug_str:000000000002033a .LASF3572
C:\Users\CYMR90~1\AppData\Local\Temp\cc3o48Uk.s:30952  .debug_str:000000000002c899 .LASF3573
C:\Users\CYMR90~1\AppData\Local\Temp\cc3o48Uk.s:20673  .debug_str:0000000000003696 .LASF3574
C:\Users\CYMR90~1\AppData\Local\Temp\cc3o48Uk.s:29098  .debug_str:0000000000025265 .LASF3575
C:\Users\CYMR90~1\AppData\Local\Temp\cc3o48Uk.s:20067  .debug_str:00000000000010ce .LASF3576
C:\Users\CYMR90~1\AppData\Local\Temp\cc3o48Uk.s:27124  .debug_str:000000000001d866 .LASF3577
C:\Users\CYMR90~1\AppData\Local\Temp\cc3o48Uk.s:24539  .debug_str:000000000001300c .LASF3578
C:\Users\CYMR90~1\AppData\Local\Temp\cc3o48Uk.s:31038  .debug_str:000000000002ce2b .LASF3579
C:\Users\CYMR90~1\AppData\Local\Temp\cc3o48Uk.s:20475  .debug_str:00000000000029fc .LASF3580
C:\Users\CYMR90~1\AppData\Local\Temp\cc3o48Uk.s:29536  .debug_str:0000000000026e05 .LASF3581
C:\Users\CYMR90~1\AppData\Local\Temp\cc3o48Uk.s:22411  .debug_str:000000000000a600 .LASF3582
C:\Users\CYMR90~1\AppData\Local\Temp\cc3o48Uk.s:27826  .debug_str:00000000000202e6 .LASF3583
C:\Users\CYMR90~1\AppData\Local\Temp\cc3o48Uk.s:27962  .debug_str:0000000000020bd0 .LASF3584
C:\Users\CYMR90~1\AppData\Local\Temp\cc3o48Uk.s:20023  .debug_str:0000000000000d99 .LASF3585
C:\Users\CYMR90~1\AppData\Local\Temp\cc3o48Uk.s:27186  .debug_str:000000000001dc1c .LASF3586
C:\Users\CYMR90~1\AppData\Local\Temp\cc3o48Uk.s:20123  .debug_str:0000000000001403 .LASF3587
C:\Users\CYMR90~1\AppData\Local\Temp\cc3o48Uk.s:29788  .debug_str:0000000000027e8c .LASF3588
C:\Users\CYMR90~1\AppData\Local\Temp\cc3o48Uk.s:24301  .debug_str:0000000000012092 .LASF3589
C:\Users\CYMR90~1\AppData\Local\Temp\cc3o48Uk.s:27328  .debug_str:000000000001e551 .LASF3590
C:\Users\CYMR90~1\AppData\Local\Temp\cc3o48Uk.s:26234  .debug_str:0000000000019e04 .LASF3591
C:\Users\CYMR90~1\AppData\Local\Temp\cc3o48Uk.s:24977  .debug_str:0000000000014bc1 .LASF3592
C:\Users\CYMR90~1\AppData\Local\Temp\cc3o48Uk.s:23799  .debug_str:0000000000010040 .LASF3593
C:\Users\CYMR90~1\AppData\Local\Temp\cc3o48Uk.s:30666  .debug_str:000000000002b52a .LASF3594
C:\Users\CYMR90~1\AppData\Local\Temp\cc3o48Uk.s:29012  .debug_str:0000000000024bf0 .LASF3595
C:\Users\CYMR90~1\AppData\Local\Temp\cc3o48Uk.s:20233  .debug_str:0000000000001b51 .LASF3596
C:\Users\CYMR90~1\AppData\Local\Temp\cc3o48Uk.s:29776  .debug_str:0000000000027d68 .LASF3597
C:\Users\CYMR90~1\AppData\Local\Temp\cc3o48Uk.s:30020  .debug_str:0000000000028dc4 .LASF3598
C:\Users\CYMR90~1\AppData\Local\Temp\cc3o48Uk.s:23011  .debug_str:000000000000cef2 .LASF3599
C:\Users\CYMR90~1\AppData\Local\Temp\cc3o48Uk.s:30904  .debug_str:000000000002c56c .LASF3600
C:\Users\CYMR90~1\AppData\Local\Temp\cc3o48Uk.s:22457  .debug_str:000000000000a9ab .LASF3601
C:\Users\CYMR90~1\AppData\Local\Temp\cc3o48Uk.s:29028  .debug_str:0000000000024d05 .LASF3602
C:\Users\CYMR90~1\AppData\Local\Temp\cc3o48Uk.s:28398  .debug_str:000000000002261e .LASF3603
C:\Users\CYMR90~1\AppData\Local\Temp\cc3o48Uk.s:28068  .debug_str:00000000000211e5 .LASF3604
C:\Users\CYMR90~1\AppData\Local\Temp\cc3o48Uk.s:24503  .debug_str:0000000000012dbb .LASF3605
C:\Users\CYMR90~1\AppData\Local\Temp\cc3o48Uk.s:30156  .debug_str:0000000000029625 .LASF3606
C:\Users\CYMR90~1\AppData\Local\Temp\cc3o48Uk.s:23111  .debug_str:000000000000d5f2 .LASF3607
C:\Users\CYMR90~1\AppData\Local\Temp\cc3o48Uk.s:21217  .debug_str:000000000000597a .LASF3608
C:\Users\CYMR90~1\AppData\Local\Temp\cc3o48Uk.s:29698  .debug_str:000000000002781a .LASF3609
C:\Users\CYMR90~1\AppData\Local\Temp\cc3o48Uk.s:23583  .debug_str:000000000000f291 .LASF3610
C:\Users\CYMR90~1\AppData\Local\Temp\cc3o48Uk.s:22793  .debug_str:000000000000c0f4 .LASF3611
C:\Users\CYMR90~1\AppData\Local\Temp\cc3o48Uk.s:22623  .debug_str:000000000000b4ad .LASF3612
C:\Users\CYMR90~1\AppData\Local\Temp\cc3o48Uk.s:19971  .debug_str:0000000000000a2c .LASF3613
C:\Users\CYMR90~1\AppData\Local\Temp\cc3o48Uk.s:24205  .debug_str:0000000000011a92 .LASF3614
C:\Users\CYMR90~1\AppData\Local\Temp\cc3o48Uk.s:28484  .debug_str:0000000000022b87 .LASF3615
C:\Users\CYMR90~1\AppData\Local\Temp\cc3o48Uk.s:21369  .debug_str:000000000000629f .LASF3616
C:\Users\CYMR90~1\AppData\Local\Temp\cc3o48Uk.s:25534  .debug_str:00000000000170ae .LASF3617
C:\Users\CYMR90~1\AppData\Local\Temp\cc3o48Uk.s:23789  .debug_str:000000000000ff97 .LASF3618
C:\Users\CYMR90~1\AppData\Local\Temp\cc3o48Uk.s:28044  .debug_str:0000000000021076 .LASF3619
C:\Users\CYMR90~1\AppData\Local\Temp\cc3o48Uk.s:21007  .debug_str:0000000000004ce4 .LASF3620
C:\Users\CYMR90~1\AppData\Local\Temp\cc3o48Uk.s:25195  .debug_str:00000000000158a8 .LASF3621
C:\Users\CYMR90~1\AppData\Local\Temp\cc3o48Uk.s:29498  .debug_str:0000000000026b7f .LASF3622
C:\Users\CYMR90~1\AppData\Local\Temp\cc3o48Uk.s:22501  .debug_str:000000000000acad .LASF3623
C:\Users\CYMR90~1\AppData\Local\Temp\cc3o48Uk.s:24767  .debug_str:0000000000013e40 .LASF3624
C:\Users\CYMR90~1\AppData\Local\Temp\cc3o48Uk.s:27220  .debug_str:000000000001dea0 .LASF3625
C:\Users\CYMR90~1\AppData\Local\Temp\cc3o48Uk.s:22991  .debug_str:000000000000cd89 .LASF3626
C:\Users\CYMR90~1\AppData\Local\Temp\cc3o48Uk.s:28234  .debug_str:0000000000021c8b .LASF3627
C:\Users\CYMR90~1\AppData\Local\Temp\cc3o48Uk.s:21213  .debug_str:0000000000005922 .LASF3628
C:\Users\CYMR90~1\AppData\Local\Temp\cc3o48Uk.s:30622  .debug_str:000000000002b23e .LASF3629
C:\Users\CYMR90~1\AppData\Local\Temp\cc3o48Uk.s:23577  .debug_str:000000000000f20e .LASF3630
C:\Users\CYMR90~1\AppData\Local\Temp\cc3o48Uk.s:27744  .debug_str:000000000001fe1c .LASF3631
C:\Users\CYMR90~1\AppData\Local\Temp\cc3o48Uk.s:20715  .debug_str:000000000000396d .LASF3632
C:\Users\CYMR90~1\AppData\Local\Temp\cc3o48Uk.s:23649  .debug_str:000000000000f714 .LASF3633
C:\Users\CYMR90~1\AppData\Local\Temp\cc3o48Uk.s:28802  .debug_str:0000000000023dab .LASF3634
C:\Users\CYMR90~1\AppData\Local\Temp\cc3o48Uk.s:22199  .debug_str:0000000000009899 .LASF3635
C:\Users\CYMR90~1\AppData\Local\Temp\cc3o48Uk.s:26476  .debug_str:000000000001ae6f .LASF3636
C:\Users\CYMR90~1\AppData\Local\Temp\cc3o48Uk.s:20815  .debug_str:0000000000003f93 .LASF3637
C:\Users\CYMR90~1\AppData\Local\Temp\cc3o48Uk.s:28846  .debug_str:00000000000240d0 .LASF3638
C:\Users\CYMR90~1\AppData\Local\Temp\cc3o48Uk.s:21833  .debug_str:000000000000819b .LASF3639
C:\Users\CYMR90~1\AppData\Local\Temp\cc3o48Uk.s:23431  .debug_str:000000000000e907 .LASF3640
C:\Users\CYMR90~1\AppData\Local\Temp\cc3o48Uk.s:30296  .debug_str:0000000000029e2a .LASF3641
C:\Users\CYMR90~1\AppData\Local\Temp\cc3o48Uk.s:21657  .debug_str:00000000000074ef .LASF3642
C:\Users\CYMR90~1\AppData\Local\Temp\cc3o48Uk.s:27618  .debug_str:000000000001f694 .LASF3643
C:\Users\CYMR90~1\AppData\Local\Temp\cc3o48Uk.s:20439  .debug_str:000000000000279a .LASF3644
C:\Users\CYMR90~1\AppData\Local\Temp\cc3o48Uk.s:25800  .debug_str:000000000001819d .LASF3645
C:\Users\CYMR90~1\AppData\Local\Temp\cc3o48Uk.s:28980  .debug_str:00000000000249e7 .LASF3646
C:\Users\CYMR90~1\AppData\Local\Temp\cc3o48Uk.s:21845  .debug_str:0000000000008248 .LASF3647
C:\Users\CYMR90~1\AppData\Local\Temp\cc3o48Uk.s:29254  .debug_str:0000000000025cb0 .LASF3648
C:\Users\CYMR90~1\AppData\Local\Temp\cc3o48Uk.s:24345  .debug_str:0000000000012379 .LASF3649
C:\Users\CYMR90~1\AppData\Local\Temp\cc3o48Uk.s:28536  .debug_str:0000000000022e5e .LASF3650
C:\Users\CYMR90~1\AppData\Local\Temp\cc3o48Uk.s:21513  .debug_str:0000000000006bae .LASF3651
C:\Users\CYMR90~1\AppData\Local\Temp\cc3o48Uk.s:24389  .debug_str:000000000001263d .LASF3652
C:\Users\CYMR90~1\AppData\Local\Temp\cc3o48Uk.s:27746  .debug_str:000000000001fe4e .LASF3653
C:\Users\CYMR90~1\AppData\Local\Temp\cc3o48Uk.s:24307  .debug_str:000000000001211f .LASF3654
C:\Users\CYMR90~1\AppData\Local\Temp\cc3o48Uk.s:29290  .debug_str:0000000000025f2e .LASF3655
C:\Users\CYMR90~1\AppData\Local\Temp\cc3o48Uk.s:20701  .debug_str:0000000000003867 .LASF3656
C:\Users\CYMR90~1\AppData\Local\Temp\cc3o48Uk.s:22943  .debug_str:000000000000caee .LASF3657
C:\Users\CYMR90~1\AppData\Local\Temp\cc3o48Uk.s:23377  .debug_str:000000000000e58e .LASF3658
C:\Users\CYMR90~1\AppData\Local\Temp\cc3o48Uk.s:28854  .debug_str:0000000000024176 .LASF3659
C:\Users\CYMR90~1\AppData\Local\Temp\cc3o48Uk.s:25209  .debug_str:00000000000159a2 .LASF3660
C:\Users\CYMR90~1\AppData\Local\Temp\cc3o48Uk.s:25648  .debug_str:0000000000017814 .LASF3661
C:\Users\CYMR90~1\AppData\Local\Temp\cc3o48Uk.s:22677  .debug_str:000000000000b8e2 .LASF3662
C:\Users\CYMR90~1\AppData\Local\Temp\cc3o48Uk.s:24985  .debug_str:0000000000014c4a .LASF3663
C:\Users\CYMR90~1\AppData\Local\Temp\cc3o48Uk.s:27942  .debug_str:0000000000020a77 .LASF3664
C:\Users\CYMR90~1\AppData\Local\Temp\cc3o48Uk.s:25009  .debug_str:0000000000014dff .LASF3665
C:\Users\CYMR90~1\AppData\Local\Temp\cc3o48Uk.s:25672  .debug_str:00000000000179d9 .LASF3666
C:\Users\CYMR90~1\AppData\Local\Temp\cc3o48Uk.s:26094  .debug_str:000000000001953c .LASF3667
C:\Users\CYMR90~1\AppData\Local\Temp\cc3o48Uk.s:26896  .debug_str:000000000001c92d .LASF3668
C:\Users\CYMR90~1\AppData\Local\Temp\cc3o48Uk.s:23531  .debug_str:000000000000ef3e .LASF3669
C:\Users\CYMR90~1\AppData\Local\Temp\cc3o48Uk.s:20135  .debug_str:00000000000014dc .LASF3670
C:\Users\CYMR90~1\AppData\Local\Temp\cc3o48Uk.s:19817  .debug_str:00000000000000ff .LASF3671
C:\Users\CYMR90~1\AppData\Local\Temp\cc3o48Uk.s:24621  .debug_str:0000000000013576 .LASF3672
C:\Users\CYMR90~1\AppData\Local\Temp\cc3o48Uk.s:21139  .debug_str:00000000000054b5 .LASF3673
C:\Users\CYMR90~1\AppData\Local\Temp\cc3o48Uk.s:25904  .debug_str:0000000000018802 .LASF3674
C:\Users\CYMR90~1\AppData\Local\Temp\cc3o48Uk.s:24457  .debug_str:0000000000012acd .LASF3675
C:\Users\CYMR90~1\AppData\Local\Temp\cc3o48Uk.s:22323  .debug_str:000000000000a07e .LASF3676
C:\Users\CYMR90~1\AppData\Local\Temp\cc3o48Uk.s:23747  .debug_str:000000000000fcfa .LASF3677
C:\Users\CYMR90~1\AppData\Local\Temp\cc3o48Uk.s:25612  .debug_str:00000000000175c7 .LASF3678
C:\Users\CYMR90~1\AppData\Local\Temp\cc3o48Uk.s:25047  .debug_str:0000000000015044 .LASF3679
C:\Users\CYMR90~1\AppData\Local\Temp\cc3o48Uk.s:24423  .debug_str:00000000000128a6 .LASF3680
C:\Users\CYMR90~1\AppData\Local\Temp\cc3o48Uk.s:26796  .debug_str:000000000001c2ab .LASF3681
C:\Users\CYMR90~1\AppData\Local\Temp\cc3o48Uk.s:23381  .debug_str:000000000000e60d .LASF3682
C:\Users\CYMR90~1\AppData\Local\Temp\cc3o48Uk.s:20007  .debug_str:0000000000000caa .LASF3683
C:\Users\CYMR90~1\AppData\Local\Temp\cc3o48Uk.s:30026  .debug_str:0000000000028e39 .LASF3684
C:\Users\CYMR90~1\AppData\Local\Temp\cc3o48Uk.s:24489  .debug_str:0000000000012cc4 .LASF3685
C:\Users\CYMR90~1\AppData\Local\Temp\cc3o48Uk.s:27138  .debug_str:000000000001d935 .LASF3686
C:\Users\CYMR90~1\AppData\Local\Temp\cc3o48Uk.s:20381  .debug_str:00000000000023f4 .LASF3687
C:\Users\CYMR90~1\AppData\Local\Temp\cc3o48Uk.s:25397  .debug_str:00000000000165f2 .LASF3688
C:\Users\CYMR90~1\AppData\Local\Temp\cc3o48Uk.s:29092  .debug_str:00000000000251fe .LASF3689
C:\Users\CYMR90~1\AppData\Local\Temp\cc3o48Uk.s:28866  .debug_str:0000000000024259 .LASF3690
C:\Users\CYMR90~1\AppData\Local\Temp\cc3o48Uk.s:25482  .debug_str:0000000000016d98 .LASF3691
C:\Users\CYMR90~1\AppData\Local\Temp\cc3o48Uk.s:24775  .debug_str:0000000000013ee2 .LASF3692
C:\Users\CYMR90~1\AppData\Local\Temp\cc3o48Uk.s:30014  .debug_str:0000000000028d7f .LASF3693
C:\Users\CYMR90~1\AppData\Local\Temp\cc3o48Uk.s:26626  .debug_str:000000000001b828 .LASF3694
C:\Users\CYMR90~1\AppData\Local\Temp\cc3o48Uk.s:20511  .debug_str:0000000000002c56 .LASF3695
C:\Users\CYMR90~1\AppData\Local\Temp\cc3o48Uk.s:30398  .debug_str:000000000002a47e .LASF3696
C:\Users\CYMR90~1\AppData\Local\Temp\cc3o48Uk.s:30712  .debug_str:000000000002b880 .LASF3697
C:\Users\CYMR90~1\AppData\Local\Temp\cc3o48Uk.s:22483  .debug_str:000000000000ab79 .LASF3698
C:\Users\CYMR90~1\AppData\Local\Temp\cc3o48Uk.s:21005  .debug_str:0000000000004cc0 .LASF3699
C:\Users\CYMR90~1\AppData\Local\Temp\cc3o48Uk.s:30936  .debug_str:000000000002c767 .LASF3700
C:\Users\CYMR90~1\AppData\Local\Temp\cc3o48Uk.s:24191  .debug_str:00000000000119b5 .LASF3701
C:\Users\CYMR90~1\AppData\Local\Temp\cc3o48Uk.s:20789  .debug_str:0000000000003e34 .LASF3702
C:\Users\CYMR90~1\AppData\Local\Temp\cc3o48Uk.s:28726  .debug_str:00000000000239a2 .LASF3703
C:\Users\CYMR90~1\AppData\Local\Temp\cc3o48Uk.s:25313  .debug_str:00000000000160d6 .LASF3704
C:\Users\CYMR90~1\AppData\Local\Temp\cc3o48Uk.s:23759  .debug_str:000000000000fde9 .LASF3705
C:\Users\CYMR90~1\AppData\Local\Temp\cc3o48Uk.s:29870  .debug_str:000000000002847b .LASF3706
C:\Users\CYMR90~1\AppData\Local\Temp\cc3o48Uk.s:27878  .debug_str:0000000000020676 .LASF3707
C:\Users\CYMR90~1\AppData\Local\Temp\cc3o48Uk.s:21797  .debug_str:0000000000007ebb .LASF3708
C:\Users\CYMR90~1\AppData\Local\Temp\cc3o48Uk.s:29712  .debug_str:000000000002793d .LASF3709
C:\Users\CYMR90~1\AppData\Local\Temp\cc3o48Uk.s:26342  .debug_str:000000000001a596 .LASF3710
C:\Users\CYMR90~1\AppData\Local\Temp\cc3o48Uk.s:22961  .debug_str:000000000000cc02 .LASF3711
C:\Users\CYMR90~1\AppData\Local\Temp\cc3o48Uk.s:30882  .debug_str:000000000002c426 .LASF3712
C:\Users\CYMR90~1\AppData\Local\Temp\cc3o48Uk.s:20901  .debug_str:00000000000045bf .LASF3713
C:\Users\CYMR90~1\AppData\Local\Temp\cc3o48Uk.s:24069  .debug_str:000000000001112c .LASF3714
C:\Users\CYMR90~1\AppData\Local\Temp\cc3o48Uk.s:26974  .debug_str:000000000001ce95 .LASF3715
C:\Users\CYMR90~1\AppData\Local\Temp\cc3o48Uk.s:28582  .debug_str:00000000000230c4 .LASF3716
C:\Users\CYMR90~1\AppData\Local\Temp\cc3o48Uk.s:29946  .debug_str:000000000002899b .LASF3717
C:\Users\CYMR90~1\AppData\Local\Temp\cc3o48Uk.s:20515  .debug_str:0000000000002caf .LASF3718
C:\Users\CYMR90~1\AppData\Local\Temp\cc3o48Uk.s:25606  .debug_str:0000000000017564 .LASF3719
C:\Users\CYMR90~1\AppData\Local\Temp\cc3o48Uk.s:27072  .debug_str:000000000001d526 .LASF3720
C:\Users\CYMR90~1\AppData\Local\Temp\cc3o48Uk.s:21651  .debug_str:0000000000007492 .LASF3721
C:\Users\CYMR90~1\AppData\Local\Temp\cc3o48Uk.s:21773  .debug_str:0000000000007d1f .LASF3722
C:\Users\CYMR90~1\AppData\Local\Temp\cc3o48Uk.s:21769  .debug_str:0000000000007cde .LASF3723
C:\Users\CYMR90~1\AppData\Local\Temp\cc3o48Uk.s:22813  .debug_str:000000000000c237 .LASF3724
C:\Users\CYMR90~1\AppData\Local\Temp\cc3o48Uk.s:30740  .debug_str:000000000002ba63 .LASF3725
C:\Users\CYMR90~1\AppData\Local\Temp\cc3o48Uk.s:20431  .debug_str:00000000000026fb .LASF3726
C:\Users\CYMR90~1\AppData\Local\Temp\cc3o48Uk.s:28746  .debug_str:0000000000023abb .LASF3727
C:\Users\CYMR90~1\AppData\Local\Temp\cc3o48Uk.s:30672  .debug_str:000000000002b5b6 .LASF3728
C:\Users\CYMR90~1\AppData\Local\Temp\cc3o48Uk.s:27140  .debug_str:000000000001d959 .LASF3729
C:\Users\CYMR90~1\AppData\Local\Temp\cc3o48Uk.s:23783  .debug_str:000000000000ff33 .LASF3730
C:\Users\CYMR90~1\AppData\Local\Temp\cc3o48Uk.s:20235  .debug_str:0000000000001b81 .LASF3731
C:\Users\CYMR90~1\AppData\Local\Temp\cc3o48Uk.s:28284  .debug_str:0000000000021f71 .LASF3732
C:\Users\CYMR90~1\AppData\Local\Temp\cc3o48Uk.s:24879  .debug_str:000000000001458d .LASF3733
C:\Users\CYMR90~1\AppData\Local\Temp\cc3o48Uk.s:23587  .debug_str:000000000000f2d7 .LASF3734
C:\Users\CYMR90~1\AppData\Local\Temp\cc3o48Uk.s:26172  .debug_str:0000000000019a4f .LASF3735
C:\Users\CYMR90~1\AppData\Local\Temp\cc3o48Uk.s:26060  .debug_str:0000000000019327 .LASF3736
C:\Users\CYMR90~1\AppData\Local\Temp\cc3o48Uk.s:27446  .debug_str:000000000001ec57 .LASF3737
C:\Users\CYMR90~1\AppData\Local\Temp\cc3o48Uk.s:29366  .debug_str:00000000000263cc .LASF3738
C:\Users\CYMR90~1\AppData\Local\Temp\cc3o48Uk.s:25986  .debug_str:0000000000018de2 .LASF3739
C:\Users\CYMR90~1\AppData\Local\Temp\cc3o48Uk.s:22133  .debug_str:0000000000009422 .LASF3740
C:\Users\CYMR90~1\AppData\Local\Temp\cc3o48Uk.s:30520  .debug_str:000000000002abc8 .LASF3741
C:\Users\CYMR90~1\AppData\Local\Temp\cc3o48Uk.s:27014  .debug_str:000000000001d1ae .LASF3742
C:\Users\CYMR90~1\AppData\Local\Temp\cc3o48Uk.s:28224  .debug_str:0000000000021beb .LASF3743
C:\Users\CYMR90~1\AppData\Local\Temp\cc3o48Uk.s:20243  .debug_str:0000000000001c11 .LASF3744
C:\Users\CYMR90~1\AppData\Local\Temp\cc3o48Uk.s:28142  .debug_str:00000000000216f9 .LASF3745
C:\Users\CYMR90~1\AppData\Local\Temp\cc3o48Uk.s:24733  .debug_str:0000000000013c11 .LASF3746
C:\Users\CYMR90~1\AppData\Local\Temp\cc3o48Uk.s:27444  .debug_str:000000000001ec33 .LASF3747
C:\Users\CYMR90~1\AppData\Local\Temp\cc3o48Uk.s:28078  .debug_str:000000000002127e .LASF3748
C:\Users\CYMR90~1\AppData\Local\Temp\cc3o48Uk.s:24673  .debug_str:0000000000013899 .LASF3749
C:\Users\CYMR90~1\AppData\Local\Temp\cc3o48Uk.s:29382  .debug_str:00000000000264be .LASF3750
C:\Users\CYMR90~1\AppData\Local\Temp\cc3o48Uk.s:29214  .debug_str:0000000000025a65 .LASF3751
C:\Users\CYMR90~1\AppData\Local\Temp\cc3o48Uk.s:25826  .debug_str:0000000000018338 .LASF3752
C:\Users\CYMR90~1\AppData\Local\Temp\cc3o48Uk.s:21023  .debug_str:0000000000004ddb .LASF3753
C:\Users\CYMR90~1\AppData\Local\Temp\cc3o48Uk.s:30366  .debug_str:000000000002a243 .LASF3754
C:\Users\CYMR90~1\AppData\Local\Temp\cc3o48Uk.s:28290  .debug_str:0000000000021fde .LASF3755
C:\Users\CYMR90~1\AppData\Local\Temp\cc3o48Uk.s:27156  .debug_str:000000000001da52 .LASF3756
C:\Users\CYMR90~1\AppData\Local\Temp\cc3o48Uk.s:21563  .debug_str:0000000000006ef7 .LASF3757
C:\Users\CYMR90~1\AppData\Local\Temp\cc3o48Uk.s:21707  .debug_str:0000000000007839 .LASF3758
C:\Users\CYMR90~1\AppData\Local\Temp\cc3o48Uk.s:25716  .debug_str:0000000000017c76 .LASF3759
C:\Users\CYMR90~1\AppData\Local\Temp\cc3o48Uk.s:29650  .debug_str:000000000002751b .LASF3760
C:\Users\CYMR90~1\AppData\Local\Temp\cc3o48Uk.s:22301  .debug_str:0000000000009f02 .LASF3761
C:\Users\CYMR90~1\AppData\Local\Temp\cc3o48Uk.s:30814  .debug_str:000000000002bf8d .LASF3762
C:\Users\CYMR90~1\AppData\Local\Temp\cc3o48Uk.s:21813  .debug_str:000000000000805b .LASF3763
C:\Users\CYMR90~1\AppData\Local\Temp\cc3o48Uk.s:24131  .debug_str:00000000000114ef .LASF3764
C:\Users\CYMR90~1\AppData\Local\Temp\cc3o48Uk.s:26678  .debug_str:000000000001bb02 .LASF3765
C:\Users\CYMR90~1\AppData\Local\Temp\cc3o48Uk.s:30728  .debug_str:000000000002b9b8 .LASF3766
C:\Users\CYMR90~1\AppData\Local\Temp\cc3o48Uk.s:24819  .debug_str:00000000000141a1 .LASF3767
C:\Users\CYMR90~1\AppData\Local\Temp\cc3o48Uk.s:27274  .debug_str:000000000001e203 .LASF3768
C:\Users\CYMR90~1\AppData\Local\Temp\cc3o48Uk.s:29584  .debug_str:000000000002718b .LASF3769
C:\Users\CYMR90~1\AppData\Local\Temp\cc3o48Uk.s:20653  .debug_str:000000000000355d .LASF3770
C:\Users\CYMR90~1\AppData\Local\Temp\cc3o48Uk.s:27974  .debug_str:0000000000020c9b .LASF3771
C:\Users\CYMR90~1\AppData\Local\Temp\cc3o48Uk.s:20567  .debug_str:0000000000002fbd .LASF3772
C:\Users\CYMR90~1\AppData\Local\Temp\cc3o48Uk.s:27624  .debug_str:000000000001f6f8 .LASF3773
C:\Users\CYMR90~1\AppData\Local\Temp\cc3o48Uk.s:29980  .debug_str:0000000000028b45 .LASF3774
C:\Users\CYMR90~1\AppData\Local\Temp\cc3o48Uk.s:24441  .debug_str:00000000000129a0 .LASF3775
C:\Users\CYMR90~1\AppData\Local\Temp\cc3o48Uk.s:23269  .debug_str:000000000000df47 .LASF3776
C:\Users\CYMR90~1\AppData\Local\Temp\cc3o48Uk.s:20327  .debug_str:00000000000020e3 .LASF3777
C:\Users\CYMR90~1\AppData\Local\Temp\cc3o48Uk.s:21843  .debug_str:0000000000008222 .LASF3778
C:\Users\CYMR90~1\AppData\Local\Temp\cc3o48Uk.s:24155  .debug_str:0000000000011722 .LASF3779
C:\Users\CYMR90~1\AppData\Local\Temp\cc3o48Uk.s:26086  .debug_str:00000000000194cb .LASF3780
C:\Users\CYMR90~1\AppData\Local\Temp\cc3o48Uk.s:28820  .debug_str:0000000000023e9a .LASF3781
C:\Users\CYMR90~1\AppData\Local\Temp\cc3o48Uk.s:19889  .debug_str:0000000000000542 .LASF3782
C:\Users\CYMR90~1\AppData\Local\Temp\cc3o48Uk.s:26560  .debug_str:000000000001b436 .LASF3783
C:\Users\CYMR90~1\AppData\Local\Temp\cc3o48Uk.s:30586  .debug_str:000000000002af9e .LASF3784
C:\Users\CYMR90~1\AppData\Local\Temp\cc3o48Uk.s:23207  .debug_str:000000000000db70 .LASF3785
C:\Users\CYMR90~1\AppData\Local\Temp\cc3o48Uk.s:30578  .debug_str:000000000002af1b .LASF3786
C:\Users\CYMR90~1\AppData\Local\Temp\cc3o48Uk.s:26122  .debug_str:00000000000196a1 .LASF3787
C:\Users\CYMR90~1\AppData\Local\Temp\cc3o48Uk.s:22099  .debug_str:000000000000923f .LASF3788
C:\Users\CYMR90~1\AppData\Local\Temp\cc3o48Uk.s:26022  .debug_str:0000000000019029 .LASF3789
C:\Users\CYMR90~1\AppData\Local\Temp\cc3o48Uk.s:29936  .debug_str:0000000000028907 .LASF3790
C:\Users\CYMR90~1\AppData\Local\Temp\cc3o48Uk.s:24947  .debug_str:00000000000149b9 .LASF3791
C:\Users\CYMR90~1\AppData\Local\Temp\cc3o48Uk.s:26510  .debug_str:000000000001b100 .LASF3792
C:\Users\CYMR90~1\AppData\Local\Temp\cc3o48Uk.s:30518  .debug_str:000000000002aba2 .LASF3793
C:\Users\CYMR90~1\AppData\Local\Temp\cc3o48Uk.s:23141  .debug_str:000000000000d796 .LASF3794
C:\Users\CYMR90~1\AppData\Local\Temp\cc3o48Uk.s:22287  .debug_str:0000000000009e1d .LASF3795
C:\Users\CYMR90~1\AppData\Local\Temp\cc3o48Uk.s:24575  .debug_str:00000000000132a1 .LASF3796
C:\Users\CYMR90~1\AppData\Local\Temp\cc3o48Uk.s:28032  .debug_str:0000000000020fe3 .LASF3797
C:\Users\CYMR90~1\AppData\Local\Temp\cc3o48Uk.s:29780  .debug_str:0000000000027df1 .LASF3798
C:\Users\CYMR90~1\AppData\Local\Temp\cc3o48Uk.s:27106  .debug_str:000000000001d741 .LASF3799
C:\Users\CYMR90~1\AppData\Local\Temp\cc3o48Uk.s:22519  .debug_str:000000000000adc5 .LASF3800
C:\Users\CYMR90~1\AppData\Local\Temp\cc3o48Uk.s:26450  .debug_str:000000000001accc .LASF3801
C:\Users\CYMR90~1\AppData\Local\Temp\cc3o48Uk.s:30446  .debug_str:000000000002a74b .LASF3802
C:\Users\CYMR90~1\AppData\Local\Temp\cc3o48Uk.s:23073  .debug_str:000000000000d313 .LASF3803
C:\Users\CYMR90~1\AppData\Local\Temp\cc3o48Uk.s:24543  .debug_str:0000000000013060 .LASF3804
C:\Users\CYMR90~1\AppData\Local\Temp\cc3o48Uk.s:30938  .debug_str:000000000002c78b .LASF3805
C:\Users\CYMR90~1\AppData\Local\Temp\cc3o48Uk.s:24129  .debug_str:00000000000114c9 .LASF3806
C:\Users\CYMR90~1\AppData\Local\Temp\cc3o48Uk.s:20601  .debug_str:00000000000031f1 .LASF3807
C:\Users\CYMR90~1\AppData\Local\Temp\cc3o48Uk.s:29806  .debug_str:0000000000027fb2 .LASF3808
C:\Users\CYMR90~1\AppData\Local\Temp\cc3o48Uk.s:30386  .debug_str:000000000002a3c3 .LASF3809
C:\Users\CYMR90~1\AppData\Local\Temp\cc3o48Uk.s:26378  .debug_str:000000000001a878 .LASF3810
C:\Users\CYMR90~1\AppData\Local\Temp\cc3o48Uk.s:30376  .debug_str:000000000002a2ec .LASF3811
C:\Users\CYMR90~1\AppData\Local\Temp\cc3o48Uk.s:23013  .debug_str:000000000000cf24 .LASF3812
C:\Users\CYMR90~1\AppData\Local\Temp\cc3o48Uk.s:26914  .debug_str:000000000001ca40 .LASF3813
C:\Users\CYMR90~1\AppData\Local\Temp\cc3o48Uk.s:30878  .debug_str:000000000002c3d9 .LASF3814
C:\Users\CYMR90~1\AppData\Local\Temp\cc3o48Uk.s:21815  .debug_str:0000000000008081 .LASF3815
C:\Users\CYMR90~1\AppData\Local\Temp\cc3o48Uk.s:24937  .debug_str:0000000000014938 .LASF3816
C:\Users\CYMR90~1\AppData\Local\Temp\cc3o48Uk.s:24455  .debug_str:0000000000012aa7 .LASF3817
C:\Users\CYMR90~1\AppData\Local\Temp\cc3o48Uk.s:22385  .debug_str:000000000000a4af .LASF3818
C:\Users\CYMR90~1\AppData\Local\Temp\cc3o48Uk.s:26300  .debug_str:000000000001a1b0 .LASF3819
C:\Users\CYMR90~1\AppData\Local\Temp\cc3o48Uk.s:23791  .debug_str:000000000000ffc9 .LASF3820
C:\Users\CYMR90~1\AppData\Local\Temp\cc3o48Uk.s:26690  .debug_str:000000000001bbea .LASF3821
C:\Users\CYMR90~1\AppData\Local\Temp\cc3o48Uk.s:26844  .debug_str:000000000001c52c .LASF3822
C:\Users\CYMR90~1\AppData\Local\Temp\cc3o48Uk.s:28144  .debug_str:000000000002171d .LASF3823
C:\Users\CYMR90~1\AppData\Local\Temp\cc3o48Uk.s:23413  .debug_str:000000000000e801 .LASF3824
C:\Users\CYMR90~1\AppData\Local\Temp\cc3o48Uk.s:27300  .debug_str:000000000001e369 .LASF3825
C:\Users\CYMR90~1\AppData\Local\Temp\cc3o48Uk.s:19983  .debug_str:0000000000000b3d .LASF3826
C:\Users\CYMR90~1\AppData\Local\Temp\cc3o48Uk.s:26850  .debug_str:000000000001c58a .LASF3827
C:\Users\CYMR90~1\AppData\Local\Temp\cc3o48Uk.s:28412  .debug_str:00000000000226fb .LASF3828
C:\Users\CYMR90~1\AppData\Local\Temp\cc3o48Uk.s:30248  .debug_str:0000000000029b8f .LASF3829
C:\Users\CYMR90~1\AppData\Local\Temp\cc3o48Uk.s:22881  .debug_str:000000000000c68d .LASF3830
C:\Users\CYMR90~1\AppData\Local\Temp\cc3o48Uk.s:24959  .debug_str:0000000000014a6d .LASF3831
C:\Users\CYMR90~1\AppData\Local\Temp\cc3o48Uk.s:30744  .debug_str:000000000002ba9f .LASF3832
C:\Users\CYMR90~1\AppData\Local\Temp\cc3o48Uk.s:24653  .debug_str:000000000001374c .LASF3833
C:\Users\CYMR90~1\AppData\Local\Temp\cc3o48Uk.s:27236  .debug_str:000000000001dfbc .LASF3834
C:\Users\CYMR90~1\AppData\Local\Temp\cc3o48Uk.s:19923  .debug_str:000000000000074e .LASF3835
C:\Users\CYMR90~1\AppData\Local\Temp\cc3o48Uk.s:30926  .debug_str:000000000002c6a8 .LASF3836
C:\Users\CYMR90~1\AppData\Local\Temp\cc3o48Uk.s:20867  .debug_str:000000000000436f .LASF3837
C:\Users\CYMR90~1\AppData\Local\Temp\cc3o48Uk.s:30182  .debug_str:000000000002979a .LASF3838
C:\Users\CYMR90~1\AppData\Local\Temp\cc3o48Uk.s:26180  .debug_str:0000000000019acb .LASF3839
C:\Users\CYMR90~1\AppData\Local\Temp\cc3o48Uk.s:28496  .debug_str:0000000000022c29 .LASF3840
C:\Users\CYMR90~1\AppData\Local\Temp\cc3o48Uk.s:30686  .debug_str:000000000002b69f .LASF3841
C:\Users\CYMR90~1\AppData\Local\Temp\cc3o48Uk.s:23291  .debug_str:000000000000e07c .LASF3842
C:\Users\CYMR90~1\AppData\Local\Temp\cc3o48Uk.s:27170  .debug_str:000000000001db22 .LASF3843
C:\Users\CYMR90~1\AppData\Local\Temp\cc3o48Uk.s:19851  .debug_str:0000000000000335 .LASF3844
C:\Users\CYMR90~1\AppData\Local\Temp\cc3o48Uk.s:24323  .debug_str:0000000000012214 .LASF3845
C:\Users\CYMR90~1\AppData\Local\Temp\cc3o48Uk.s:20743  .debug_str:0000000000003afe .LASF3846
C:\Users\CYMR90~1\AppData\Local\Temp\cc3o48Uk.s:24807  .debug_str:00000000000140ee .LASF3847
C:\Users\CYMR90~1\AppData\Local\Temp\cc3o48Uk.s:22753  .debug_str:000000000000be73 .LASF3848
C:\Users\CYMR90~1\AppData\Local\Temp\cc3o48Uk.s:20137  .debug_str:0000000000001500 .LASF3849
C:\Users\CYMR90~1\AppData\Local\Temp\cc3o48Uk.s:23061  .debug_str:000000000000d26a .LASF3850
C:\Users\CYMR90~1\AppData\Local\Temp\cc3o48Uk.s:27500  .debug_str:000000000001ef8e .LASF3851
C:\Users\CYMR90~1\AppData\Local\Temp\cc3o48Uk.s:27684  .debug_str:000000000001faa9 .LASF3852
C:\Users\CYMR90~1\AppData\Local\Temp\cc3o48Uk.s:31078  .debug_str:000000000002d081 .LASF3853
C:\Users\CYMR90~1\AppData\Local\Temp\cc3o48Uk.s:20131  .debug_str:00000000000014a4 .LASF3854
C:\Users\CYMR90~1\AppData\Local\Temp\cc3o48Uk.s:24253  .debug_str:0000000000011d77 .LASF3855
C:\Users\CYMR90~1\AppData\Local\Temp\cc3o48Uk.s:20315  .debug_str:000000000000204a .LASF3856
C:\Users\CYMR90~1\AppData\Local\Temp\cc3o48Uk.s:29276  .debug_str:0000000000025e19 .LASF3857
C:\Users\CYMR90~1\AppData\Local\Temp\cc3o48Uk.s:24987  .debug_str:0000000000014c6c .LASF3858
C:\Users\CYMR90~1\AppData\Local\Temp\cc3o48Uk.s:28220  .debug_str:0000000000021bae .LASF3859
C:\Users\CYMR90~1\AppData\Local\Temp\cc3o48Uk.s:20559  .debug_str:0000000000002f48 .LASF3860
C:\Users\CYMR90~1\AppData\Local\Temp\cc3o48Uk.s:21885  .debug_str:00000000000084d6 .LASF3861
C:\Users\CYMR90~1\AppData\Local\Temp\cc3o48Uk.s:25794  .debug_str:0000000000018140 .LASF3862
C:\Users\CYMR90~1\AppData\Local\Temp\cc3o48Uk.s:29730  .debug_str:0000000000027a63 .LASF3863
C:\Users\CYMR90~1\AppData\Local\Temp\cc3o48Uk.s:22377  .debug_str:000000000000a41f .LASF3864
C:\Users\CYMR90~1\AppData\Local\Temp\cc3o48Uk.s:30940  .debug_str:000000000002c7b1 .LASF3865
C:\Users\CYMR90~1\AppData\Local\Temp\cc3o48Uk.s:30300  .debug_str:0000000000029e74 .LASF3866
C:\Users\CYMR90~1\AppData\Local\Temp\cc3o48Uk.s:22005  .debug_str:0000000000008cae .LASF3867
C:\Users\CYMR90~1\AppData\Local\Temp\cc3o48Uk.s:20445  .debug_str:000000000000281f .LASF3868
C:\Users\CYMR90~1\AppData\Local\Temp\cc3o48Uk.s:29182  .debug_str:000000000002587e .LASF3869
C:\Users\CYMR90~1\AppData\Local\Temp\cc3o48Uk.s:21821  .debug_str:00000000000080d4 .LASF3870
C:\Users\CYMR90~1\AppData\Local\Temp\cc3o48Uk.s:25728  .debug_str:0000000000017d24 .LASF3871
C:\Users\CYMR90~1\AppData\Local\Temp\cc3o48Uk.s:30510  .debug_str:000000000002ab07 .LASF3872
C:\Users\CYMR90~1\AppData\Local\Temp\cc3o48Uk.s:20765  .debug_str:0000000000003c93 .LASF3873
C:\Users\CYMR90~1\AppData\Local\Temp\cc3o48Uk.s:26220  .debug_str:0000000000019d5f .LASF3874
C:\Users\CYMR90~1\AppData\Local\Temp\cc3o48Uk.s:30244  .debug_str:0000000000029b52 .LASF3875
C:\Users\CYMR90~1\AppData\Local\Temp\cc3o48Uk.s:28656  .debug_str:0000000000023567 .LASF3876
C:\Users\CYMR90~1\AppData\Local\Temp\cc3o48Uk.s:27718  .debug_str:000000000001fc98 .LASF3877
C:\Users\CYMR90~1\AppData\Local\Temp\cc3o48Uk.s:29008  .debug_str:0000000000024bb7 .LASF3878
C:\Users\CYMR90~1\AppData\Local\Temp\cc3o48Uk.s:24143  .debug_str:00000000000115b6 .LASF3879
C:\Users\CYMR90~1\AppData\Local\Temp\cc3o48Uk.s:25670  .debug_str:00000000000179b3 .LASF3880
C:\Users\CYMR90~1\AppData\Local\Temp\cc3o48Uk.s:21977  .debug_str:0000000000008a8f .LASF3881
C:\Users\CYMR90~1\AppData\Local\Temp\cc3o48Uk.s:26390  .debug_str:000000000001a92b .LASF3882
C:\Users\CYMR90~1\AppData\Local\Temp\cc3o48Uk.s:26632  .debug_str:000000000001b892 .LASF3883
C:\Users\CYMR90~1\AppData\Local\Temp\cc3o48Uk.s:30172  .debug_str:0000000000029710 .LASF3884
C:\Users\CYMR90~1\AppData\Local\Temp\cc3o48Uk.s:22807  .debug_str:000000000000c1e4 .LASF3885
C:\Users\CYMR90~1\AppData\Local\Temp\cc3o48Uk.s:23221  .debug_str:000000000000dc24 .LASF3886
C:\Users\CYMR90~1\AppData\Local\Temp\cc3o48Uk.s:30568  .debug_str:000000000002ae7b .LASF3887
C:\Users\CYMR90~1\AppData\Local\Temp\cc3o48Uk.s:21681  .debug_str:0000000000007689 .LASF3888
C:\Users\CYMR90~1\AppData\Local\Temp\cc3o48Uk.s:25600  .debug_str:000000000001750f .LASF3889
C:\Users\CYMR90~1\AppData\Local\Temp\cc3o48Uk.s:28636  .debug_str:00000000000233df .LASF3890
C:\Users\CYMR90~1\AppData\Local\Temp\cc3o48Uk.s:22163  .debug_str:0000000000009634 .LASF3891
C:\Users\CYMR90~1\AppData\Local\Temp\cc3o48Uk.s:26918  .debug_str:000000000001ca75 .LASF3892
C:\Users\CYMR90~1\AppData\Local\Temp\cc3o48Uk.s:30108  .debug_str:000000000002932e .LASF3893
C:\Users\CYMR90~1\AppData\Local\Temp\cc3o48Uk.s:22747  .debug_str:000000000000bdea .LASF3894
C:\Users\CYMR90~1\AppData\Local\Temp\cc3o48Uk.s:26706  .debug_str:000000000001bce6 .LASF3895
C:\Users\CYMR90~1\AppData\Local\Temp\cc3o48Uk.s:29030  .debug_str:0000000000024d37 .LASF3896
C:\Users\CYMR90~1\AppData\Local\Temp\cc3o48Uk.s:25049  .debug_str:0000000000015068 .LASF3897
C:\Users\CYMR90~1\AppData\Local\Temp\cc3o48Uk.s:25540  .debug_str:0000000000017119 .LASF3898
C:\Users\CYMR90~1\AppData\Local\Temp\cc3o48Uk.s:28472  .debug_str:0000000000022a66 .LASF3899
C:\Users\CYMR90~1\AppData\Local\Temp\cc3o48Uk.s:20035  .debug_str:0000000000000e7f .LASF3900
C:\Users\CYMR90~1\AppData\Local\Temp\cc3o48Uk.s:26038  .debug_str:00000000000191f2 .LASF3901
C:\Users\CYMR90~1\AppData\Local\Temp\cc3o48Uk.s:25546  .debug_str:0000000000017185 .LASF3902
C:\Users\CYMR90~1\AppData\Local\Temp\cc3o48Uk.s:27874  .debug_str:0000000000020639 .LASF3903
C:\Users\CYMR90~1\AppData\Local\Temp\cc3o48Uk.s:30222  .debug_str:00000000000299f7 .LASF3904
C:\Users\CYMR90~1\AppData\Local\Temp\cc3o48Uk.s:30530  .debug_str:000000000002ac5c .LASF3905
C:\Users\CYMR90~1\AppData\Local\Temp\cc3o48Uk.s:23581  .debug_str:000000000000f26b .LASF3906
C:\Users\CYMR90~1\AppData\Local\Temp\cc3o48Uk.s:30946  .debug_str:000000000002c833 .LASF3907
C:\Users\CYMR90~1\AppData\Local\Temp\cc3o48Uk.s:29404  .debug_str:0000000000026621 .LASF3908
C:\Users\CYMR90~1\AppData\Local\Temp\cc3o48Uk.s:22045  .debug_str:0000000000008f39 .LASF3909
C:\Users\CYMR90~1\AppData\Local\Temp\cc3o48Uk.s:25970  .debug_str:0000000000018d03 .LASF3910
C:\Users\CYMR90~1\AppData\Local\Temp\cc3o48Uk.s:29054  .debug_str:0000000000024ea1 .LASF3911
C:\Users\CYMR90~1\AppData\Local\Temp\cc3o48Uk.s:28880  .debug_str:000000000002434d .LASF3912
C:\Users\CYMR90~1\AppData\Local\Temp\cc3o48Uk.s:26540  .debug_str:000000000001b30b .LASF3913
C:\Users\CYMR90~1\AppData\Local\Temp\cc3o48Uk.s:30460  .debug_str:000000000002a7f8 .LASF3914
C:\Users\CYMR90~1\AppData\Local\Temp\cc3o48Uk.s:23091  .debug_str:000000000000d489 .LASF3915
C:\Users\CYMR90~1\AppData\Local\Temp\cc3o48Uk.s:29406  .debug_str:0000000000026647 .LASF3916
C:\Users\CYMR90~1\AppData\Local\Temp\cc3o48Uk.s:25443  .debug_str:00000000000168f1 .LASF3917
C:\Users\CYMR90~1\AppData\Local\Temp\cc3o48Uk.s:21981  .debug_str:0000000000008ac9 .LASF3918
C:\Users\CYMR90~1\AppData\Local\Temp\cc3o48Uk.s:25890  .debug_str:000000000001871e .LASF3919
C:\Users\CYMR90~1\AppData\Local\Temp\cc3o48Uk.s:21239  .debug_str:0000000000005af5 .LASF3920
C:\Users\CYMR90~1\AppData\Local\Temp\cc3o48Uk.s:22559  .debug_str:000000000000b129 .LASF3921
C:\Users\CYMR90~1\AppData\Local\Temp\cc3o48Uk.s:25930  .debug_str:00000000000189e8 .LASF3922
C:\Users\CYMR90~1\AppData\Local\Temp\cc3o48Uk.s:30388  .debug_str:000000000002a3e9 .LASF3923
C:\Users\CYMR90~1\AppData\Local\Temp\cc3o48Uk.s:23029  .debug_str:000000000000d034 .LASF3924
C:\Users\CYMR90~1\AppData\Local\Temp\cc3o48Uk.s:21603  .debug_str:00000000000071cf .LASF3925
C:\Users\CYMR90~1\AppData\Local\Temp\cc3o48Uk.s:30894  .debug_str:000000000002c4d4 .LASF3926
C:\Users\CYMR90~1\AppData\Local\Temp\cc3o48Uk.s:27924  .debug_str:000000000002096e .LASF3927
C:\Users\CYMR90~1\AppData\Local\Temp\cc3o48Uk.s:21545  .debug_str:0000000000006dcd .LASF3928
C:\Users\CYMR90~1\AppData\Local\Temp\cc3o48Uk.s:29844  .debug_str:00000000000282a1 .LASF3929
C:\Users\CYMR90~1\AppData\Local\Temp\cc3o48Uk.s:22489  .debug_str:000000000000abdb .LASF3930
C:\Users\CYMR90~1\AppData\Local\Temp\cc3o48Uk.s:21153  .debug_str:0000000000005564 .LASF3931
C:\Users\CYMR90~1\AppData\Local\Temp\cc3o48Uk.s:30324  .debug_str:0000000000029fe1 .LASF3932
C:\Users\CYMR90~1\AppData\Local\Temp\cc3o48Uk.s:22969  .debug_str:000000000000cc7c .LASF3933
C:\Users\CYMR90~1\AppData\Local\Temp\cc3o48Uk.s:26860  .debug_str:000000000001c626 .LASF3934
C:\Users\CYMR90~1\AppData\Local\Temp\cc3o48Uk.s:30824  .debug_str:000000000002c007 .LASF3935
C:\Users\CYMR90~1\AppData\Local\Temp\cc3o48Uk.s:23525  .debug_str:000000000000eee6 .LASF3936
C:\Users\CYMR90~1\AppData\Local\Temp\cc3o48Uk.s:27658  .debug_str:000000000001f902 .LASF3937
C:\Users\CYMR90~1\AppData\Local\Temp\cc3o48Uk.s:26782  .debug_str:000000000001c1d8 .LASF3938
C:\Users\CYMR90~1\AppData\Local\Temp\cc3o48Uk.s:30644  .debug_str:000000000002b3eb .LASF3939
C:\Users\CYMR90~1\AppData\Local\Temp\cc3o48Uk.s:26348  .debug_str:000000000001a5eb .LASF3940
C:\Users\CYMR90~1\AppData\Local\Temp\cc3o48Uk.s:28988  .debug_str:0000000000024a88 .LASF3941
C:\Users\CYMR90~1\AppData\Local\Temp\cc3o48Uk.s:26318  .debug_str:000000000001a47c .LASF3942
C:\Users\CYMR90~1\AppData\Local\Temp\cc3o48Uk.s:26792  .debug_str:000000000001c26f .LASF3943
C:\Users\CYMR90~1\AppData\Local\Temp\cc3o48Uk.s:30992  .debug_str:000000000002cb07 .LASF3944
C:\Users\CYMR90~1\AppData\Local\Temp\cc3o48Uk.s:22895  .debug_str:000000000000c755 .LASF3945
C:\Users\CYMR90~1\AppData\Local\Temp\cc3o48Uk.s:20857  .debug_str:00000000000042cd .LASF3946
C:\Users\CYMR90~1\AppData\Local\Temp\cc3o48Uk.s:21221  .debug_str:00000000000059e8 .LASF3947
C:\Users\CYMR90~1\AppData\Local\Temp\cc3o48Uk.s:22357  .debug_str:000000000000a2a9 .LASF3948
C:\Users\CYMR90~1\AppData\Local\Temp\cc3o48Uk.s:26266  .debug_str:0000000000019fd9 .LASF3949
C:\Users\CYMR90~1\AppData\Local\Temp\cc3o48Uk.s:30194  .debug_str:0000000000029857 .LASF3950
C:\Users\CYMR90~1\AppData\Local\Temp\cc3o48Uk.s:22831  .debug_str:000000000000c354 .LASF3951
C:\Users\CYMR90~1\AppData\Local\Temp\cc3o48Uk.s:26732  .debug_str:000000000001beb5 .LASF3952
C:\Users\CYMR90~1\AppData\Local\Temp\cc3o48Uk.s:30702  .debug_str:000000000002b7ef .LASF3953
C:\Users\CYMR90~1\AppData\Local\Temp\cc3o48Uk.s:26412  .debug_str:000000000001aaa2 .LASF3954
C:\Users\CYMR90~1\AppData\Local\Temp\cc3o48Uk.s:27270  .debug_str:000000000001e1cd .LASF3955
C:\Users\CYMR90~1\AppData\Local\Temp\cc3o48Uk.s:30896  .debug_str:000000000002c4fa .LASF3956
C:\Users\CYMR90~1\AppData\Local\Temp\cc3o48Uk.s:22443  .debug_str:000000000000a90f .LASF3957
C:\Users\CYMR90~1\AppData\Local\Temp\cc3o48Uk.s:20893  .debug_str:000000000000453c .LASF3958
C:\Users\CYMR90~1\AppData\Local\Temp\cc3o48Uk.s:24905  .debug_str:0000000000014735 .LASF3959
C:\Users\CYMR90~1\AppData\Local\Temp\cc3o48Uk.s:28858  .debug_str:00000000000241bc .LASF3960
C:\Users\CYMR90~1\AppData\Local\Temp\cc3o48Uk.s:21473  .debug_str:000000000000693c .LASF3961
C:\Users\CYMR90~1\AppData\Local\Temp\cc3o48Uk.s:28350  .debug_str:000000000002234f .LASF3962
C:\Users\CYMR90~1\AppData\Local\Temp\cc3o48Uk.s:30724  .debug_str:000000000002b957 .LASF3963
C:\Users\CYMR90~1\AppData\Local\Temp\cc3o48Uk.s:21455  .debug_str:0000000000006818 .LASF3964
C:\Users\CYMR90~1\AppData\Local\Temp\cc3o48Uk.s:25884  .debug_str:00000000000186d2 .LASF3965
C:\Users\CYMR90~1\AppData\Local\Temp\cc3o48Uk.s:29904  .debug_str:00000000000286ef .LASF3966
C:\Users\CYMR90~1\AppData\Local\Temp\cc3o48Uk.s:29252  .debug_str:0000000000025c8a .LASF3967
C:\Users\CYMR90~1\AppData\Local\Temp\cc3o48Uk.s:24843  .debug_str:00000000000142dc .LASF3968
C:\Users\CYMR90~1\AppData\Local\Temp\cc3o48Uk.s:28944  .debug_str:0000000000024747 .LASF3969
C:\Users\CYMR90~1\AppData\Local\Temp\cc3o48Uk.s:29532  .debug_str:0000000000026dcb .LASF3970
C:\Users\CYMR90~1\AppData\Local\Temp\cc3o48Uk.s:27068  .debug_str:000000000001d4e6 .LASF3971
C:\Users\CYMR90~1\AppData\Local\Temp\cc3o48Uk.s:27808  .debug_str:0000000000020207 .LASF3972
C:\Users\CYMR90~1\AppData\Local\Temp\cc3o48Uk.s:25197  .debug_str:00000000000158da .LASF3973
C:\Users\CYMR90~1\AppData\Local\Temp\cc3o48Uk.s:27514  .debug_str:000000000001f07a .LASF3974
C:\Users\CYMR90~1\AppData\Local\Temp\cc3o48Uk.s:23229  .debug_str:000000000000dcab .LASF3975
C:\Users\CYMR90~1\AppData\Local\Temp\cc3o48Uk.s:22481  .debug_str:000000000000ab53 .LASF3976
C:\Users\CYMR90~1\AppData\Local\Temp\cc3o48Uk.s:29138  .debug_str:00000000000254ef .LASF3977
C:\Users\CYMR90~1\AppData\Local\Temp\cc3o48Uk.s:30746  .debug_str:000000000002bac5 .LASF3978
C:\Users\CYMR90~1\AppData\Local\Temp\cc3o48Uk.s:22545  .debug_str:000000000000b04e .LASF3979
C:\Users\CYMR90~1\AppData\Local\Temp\cc3o48Uk.s:25251  .debug_str:0000000000015c8e .LASF3980
C:\Users\CYMR90~1\AppData\Local\Temp\cc3o48Uk.s:29196  .debug_str:000000000002593f .LASF3981
C:\Users\CYMR90~1\AppData\Local\Temp\cc3o48Uk.s:24317  .debug_str:00000000000121b9 .LASF3982
C:\Users\CYMR90~1\AppData\Local\Temp\cc3o48Uk.s:25742  .debug_str:0000000000017e14 .LASF3983
C:\Users\CYMR90~1\AppData\Local\Temp\cc3o48Uk.s:22997  .debug_str:000000000000cdef .LASF3984
C:\Users\CYMR90~1\AppData\Local\Temp\cc3o48Uk.s:22415  .debug_str:000000000000a656 .LASF3985
C:\Users\CYMR90~1\AppData\Local\Temp\cc3o48Uk.s:26338  .debug_str:000000000001a558 .LASF3986
C:\Users\CYMR90~1\AppData\Local\Temp\cc3o48Uk.s:23409  .debug_str:000000000000e7cb .LASF3987
C:\Users\CYMR90~1\AppData\Local\Temp\cc3o48Uk.s:21265  .debug_str:0000000000005c63 .LASF3988
C:\Users\CYMR90~1\AppData\Local\Temp\cc3o48Uk.s:27546  .debug_str:000000000001f263 .LASF3989
C:\Users\CYMR90~1\AppData\Local\Temp\cc3o48Uk.s:29134  .debug_str:000000000002549d .LASF3990
C:\Users\CYMR90~1\AppData\Local\Temp\cc3o48Uk.s:28922  .debug_str:00000000000245ed .LASF3991
C:\Users\CYMR90~1\AppData\Local\Temp\cc3o48Uk.s:20825  .debug_str:00000000000040e5 .LASF3992
C:\Users\CYMR90~1\AppData\Local\Temp\cc3o48Uk.s:29704  .debug_str:00000000000278cc .LASF3993
C:\Users\CYMR90~1\AppData\Local\Temp\cc3o48Uk.s:23991  .debug_str:0000000000010cb3 .LASF3994
C:\Users\CYMR90~1\AppData\Local\Temp\cc3o48Uk.s:26258  .debug_str:0000000000019f61 .LASF3995
C:\Users\CYMR90~1\AppData\Local\Temp\cc3o48Uk.s:30188  .debug_str:00000000000297ed .LASF3996
C:\Users\CYMR90~1\AppData\Local\Temp\cc3o48Uk.s:29514  .debug_str:0000000000026cae .LASF3997
C:\Users\CYMR90~1\AppData\Local\Temp\cc3o48Uk.s:25125  .debug_str:0000000000015481 .LASF3998
C:\Users\CYMR90~1\AppData\Local\Temp\cc3o48Uk.s:30834  .debug_str:000000000002c0d4 .LASF3999
C:\Users\CYMR90~1\AppData\Local\Temp\cc3o48Uk.s:21691  .debug_str:0000000000007728 .LASF4000
C:\Users\CYMR90~1\AppData\Local\Temp\cc3o48Uk.s:29078  .debug_str:0000000000025082 .LASF4001
C:\Users\CYMR90~1\AppData\Local\Temp\cc3o48Uk.s:31072  .debug_str:000000000002d01d .LASF4002
C:\Users\CYMR90~1\AppData\Local\Temp\cc3o48Uk.s:20991  .debug_str:0000000000004bdf .LASF4003
C:\Users\CYMR90~1\AppData\Local\Temp\cc3o48Uk.s:26196  .debug_str:0000000000019bdb .LASF4004
C:\Users\CYMR90~1\AppData\Local\Temp\cc3o48Uk.s:21215  .debug_str:0000000000005954 .LASF4005
C:\Users\CYMR90~1\AppData\Local\Temp\cc3o48Uk.s:22759  .debug_str:000000000000bed1 .LASF4006
C:\Users\CYMR90~1\AppData\Local\Temp\cc3o48Uk.s:24057  .debug_str:0000000000011071 .LASF4007
C:\Users\CYMR90~1\AppData\Local\Temp\cc3o48Uk.s:22257  .debug_str:0000000000009c5a .LASF4008
C:\Users\CYMR90~1\AppData\Local\Temp\cc3o48Uk.s:29294  .debug_str:0000000000025f6b .LASF4009
C:\Users\CYMR90~1\AppData\Local\Temp\cc3o48Uk.s:25640  .debug_str:0000000000017799 .LASF4010
C:\Users\CYMR90~1\AppData\Local\Temp\cc3o48Uk.s:22225  .debug_str:0000000000009a59 .LASF4011
C:\Users\CYMR90~1\AppData\Local\Temp\cc3o48Uk.s:22227  .debug_str:0000000000009a7f .LASF4012
C:\Users\CYMR90~1\AppData\Local\Temp\cc3o48Uk.s:26140  .debug_str:00000000000197ea .LASF4013
C:\Users\CYMR90~1\AppData\Local\Temp\cc3o48Uk.s:30058  .debug_str:000000000002903f .LASF4014
C:\Users\CYMR90~1\AppData\Local\Temp\cc3o48Uk.s:20223  .debug_str:0000000000001ac9 .LASF4015
C:\Users\CYMR90~1\AppData\Local\Temp\cc3o48Uk.s:22573  .debug_str:000000000000b218 .LASF4016
C:\Users\CYMR90~1\AppData\Local\Temp\cc3o48Uk.s:23687  .debug_str:000000000000f929 .LASF4017
C:\Users\CYMR90~1\AppData\Local\Temp\cc3o48Uk.s:21555  .debug_str:0000000000006e56 .LASF4018
C:\Users\CYMR90~1\AppData\Local\Temp\cc3o48Uk.s:25572  .debug_str:0000000000017307 .LASF4019
C:\Users\CYMR90~1\AppData\Local\Temp\cc3o48Uk.s:29508  .debug_str:0000000000026c4c .LASF4020
C:\Users\CYMR90~1\AppData\Local\Temp\cc3o48Uk.s:28016  .debug_str:0000000000020efc .LASF4021
C:\Users\CYMR90~1\AppData\Local\Temp\cc3o48Uk.s:26074  .debug_str:00000000000193f4 .LASF4022
C:\Users\CYMR90~1\AppData\Local\Temp\cc3o48Uk.s:21379  .debug_str:000000000000635d .LASF4023
C:\Users\CYMR90~1\AppData\Local\Temp\cc3o48Uk.s:22637  .debug_str:000000000000b636 .LASF4024
C:\Users\CYMR90~1\AppData\Local\Temp\cc3o48Uk.s:26066  .debug_str:000000000001937e .LASF4025
C:\Users\CYMR90~1\AppData\Local\Temp\cc3o48Uk.s:24217  .debug_str:0000000000011b24 .LASF4026
C:\Users\CYMR90~1\AppData\Local\Temp\cc3o48Uk.s:21295  .debug_str:0000000000005e2a .LASF4027
C:\Users\CYMR90~1\AppData\Local\Temp\cc3o48Uk.s:25512  .debug_str:0000000000016f6b .LASF4028
C:\Users\CYMR90~1\AppData\Local\Temp\cc3o48Uk.s:29440  .debug_str:000000000002683b .LASF4029
C:\Users\CYMR90~1\AppData\Local\Temp\cc3o48Uk.s:22085  .debug_str:000000000000915a .LASF4030
C:\Users\CYMR90~1\AppData\Local\Temp\cc3o48Uk.s:26008  .debug_str:0000000000018f4b .LASF4031
C:\Users\CYMR90~1\AppData\Local\Temp\cc3o48Uk.s:26174  .debug_str:0000000000019a73 .LASF4032
C:\Users\CYMR90~1\AppData\Local\Temp\cc3o48Uk.s:27212  .debug_str:000000000001de28 .LASF4033
C:\Users\CYMR90~1\AppData\Local\Temp\cc3o48Uk.s:26498  .debug_str:000000000001b03b .LASF4034
C:\Users\CYMR90~1\AppData\Local\Temp\cc3o48Uk.s:30404  .debug_str:000000000002a4e8 .LASF4035
C:\Users\CYMR90~1\AppData\Local\Temp\cc3o48Uk.s:23129  .debug_str:000000000000d71b .LASF4036
C:\Users\CYMR90~1\AppData\Local\Temp\cc3o48Uk.s:20193  .debug_str:0000000000001904 .LASF4037
C:\Users\CYMR90~1\AppData\Local\Temp\cc3o48Uk.s:29380  .debug_str:0000000000026498 .LASF4038
C:\Users\CYMR90~1\AppData\Local\Temp\cc3o48Uk.s:23757  .debug_str:000000000000fdc3 .LASF4039
C:\Users\CYMR90~1\AppData\Local\Temp\cc3o48Uk.s:26096  .debug_str:000000000001955f .LASF4040
C:\Users\CYMR90~1\AppData\Local\Temp\cc3o48Uk.s:28404  .debug_str:0000000000022683 .LASF4041
C:\Users\CYMR90~1\AppData\Local\Temp\cc3o48Uk.s:30774  .debug_str:000000000002bc8e .LASF4042
C:\Users\CYMR90~1\AppData\Local\Temp\cc3o48Uk.s:26440  .debug_str:000000000001ac2e .LASF4043
C:\Users\CYMR90~1\AppData\Local\Temp\cc3o48Uk.s:30344  .debug_str:000000000002a0d0 .LASF4044
C:\Users\CYMR90~1\AppData\Local\Temp\cc3o48Uk.s:27286  .debug_str:000000000001e2a2 .LASF4045
C:\Users\CYMR90~1\AppData\Local\Temp\cc3o48Uk.s:23701  .debug_str:000000000000f9ff .LASF4046
C:\Users\CYMR90~1\AppData\Local\Temp\cc3o48Uk.s:24043  .debug_str:0000000000010f85 .LASF4047
C:\Users\CYMR90~1\AppData\Local\Temp\cc3o48Uk.s:21951  .debug_str:0000000000008909 .LASF4048
C:\Users\CYMR90~1\AppData\Local\Temp\cc3o48Uk.s:25858  .debug_str:0000000000018585 .LASF4049
C:\Users\CYMR90~1\AppData\Local\Temp\cc3o48Uk.s:24847  .debug_str:000000000001433b .LASF4050
C:\Users\CYMR90~1\AppData\Local\Temp\cc3o48Uk.s:24019  .debug_str:0000000000010e0f .LASF4051
C:\Users\CYMR90~1\AppData\Local\Temp\cc3o48Uk.s:26364  .debug_str:000000000001a729 .LASF4052
C:\Users\CYMR90~1\AppData\Local\Temp\cc3o48Uk.s:24725  .debug_str:0000000000013b9d .LASF4053
C:\Users\CYMR90~1\AppData\Local\Temp\cc3o48Uk.s:27330  .debug_str:000000000001e581 .LASF4054
C:\Users\CYMR90~1\AppData\Local\Temp\cc3o48Uk.s:28080  .debug_str:00000000000212a2 .LASF4055
C:\Users\CYMR90~1\AppData\Local\Temp\cc3o48Uk.s:24165  .debug_str:00000000000117a2 .LASF4056
C:\Users\CYMR90~1\AppData\Local\Temp\cc3o48Uk.s:22487  .debug_str:000000000000abb5 .LASF4057
C:\Users\CYMR90~1\AppData\Local\Temp\cc3o48Uk.s:20605  .debug_str:000000000000322f .LASF4058
C:\Users\CYMR90~1\AppData\Local\Temp\cc3o48Uk.s:24517  .debug_str:0000000000012eb8 .LASF4059
C:\Users\CYMR90~1\AppData\Local\Temp\cc3o48Uk.s:28114  .debug_str:0000000000021555 .LASF4060
C:\Users\CYMR90~1\AppData\Local\Temp\cc3o48Uk.s:21063  .debug_str:0000000000005031 .LASF4061
C:\Users\CYMR90~1\AppData\Local\Temp\cc3o48Uk.s:24983  .debug_str:0000000000014c24 .LASF4062
C:\Users\CYMR90~1\AppData\Local\Temp\cc3o48Uk.s:28932  .debug_str:000000000002468a .LASF4063
C:\Users\CYMR90~1\AppData\Local\Temp\cc3o48Uk.s:21547  .debug_str:0000000000006df3 .LASF4064
C:\Users\CYMR90~1\AppData\Local\Temp\cc3o48Uk.s:20839  .debug_str:00000000000041b4 .LASF4065
C:\Users\CYMR90~1\AppData\Local\Temp\cc3o48Uk.s:29500  .debug_str:0000000000026bb1 .LASF4066
C:\Users\CYMR90~1\AppData\Local\Temp\cc3o48Uk.s:27734  .debug_str:000000000001fd61 .LASF4067
C:\Users\CYMR90~1\AppData\Local\Temp\cc3o48Uk.s:24463  .debug_str:0000000000012b4d .LASF4068
C:\Users\CYMR90~1\AppData\Local\Temp\cc3o48Uk.s:28394  .debug_str:00000000000225c5 .LASF4069
C:\Users\CYMR90~1\AppData\Local\Temp\cc3o48Uk.s:24303  .debug_str:00000000000120c2 .LASF4070
C:\Users\CYMR90~1\AppData\Local\Temp\cc3o48Uk.s:25029  .debug_str:0000000000014f43 .LASF4071
C:\Users\CYMR90~1\AppData\Local\Temp\cc3o48Uk.s:22725  .debug_str:000000000000bc1e .LASF4072
C:\Users\CYMR90~1\AppData\Local\Temp\cc3o48Uk.s:29658  .debug_str:00000000000275a2 .LASF4073
C:\Users\CYMR90~1\AppData\Local\Temp\cc3o48Uk.s:25407  .debug_str:0000000000016672 .LASF4074
C:\Users\CYMR90~1\AppData\Local\Temp\cc3o48Uk.s:29434  .debug_str:00000000000267e7 .LASF4075
C:\Users\CYMR90~1\AppData\Local\Temp\cc3o48Uk.s:22077  .debug_str:00000000000090eb .LASF4076
C:\Users\CYMR90~1\AppData\Local\Temp\cc3o48Uk.s:30458  .debug_str:000000000002a7d2 .LASF4077
C:\Users\CYMR90~1\AppData\Local\Temp\cc3o48Uk.s:23845  .debug_str:00000000000102f2 .LASF4078
C:\Users\CYMR90~1\AppData\Local\Temp\cc3o48Uk.s:20113  .debug_str:0000000000001361 .LASF4079
C:\Users\CYMR90~1\AppData\Local\Temp\cc3o48Uk.s:28504  .debug_str:0000000000022cb1 .LASF4080
C:\Users\CYMR90~1\AppData\Local\Temp\cc3o48Uk.s:23615  .debug_str:000000000000f473 .LASF4081
C:\Users\CYMR90~1\AppData\Local\Temp\cc3o48Uk.s:21417  .debug_str:000000000000657c .LASF4082
C:\Users\CYMR90~1\AppData\Local\Temp\cc3o48Uk.s:25335  .debug_str:0000000000016220 .LASF4083
C:\Users\CYMR90~1\AppData\Local\Temp\cc3o48Uk.s:29372  .debug_str:000000000002641e .LASF4084
C:\Users\CYMR90~1\AppData\Local\Temp\cc3o48Uk.s:22015  .debug_str:0000000000008d6f .LASF4085
C:\Users\CYMR90~1\AppData\Local\Temp\cc3o48Uk.s:25926  .debug_str:0000000000018988 .LASF4086
C:\Users\CYMR90~1\AppData\Local\Temp\cc3o48Uk.s:23025  .debug_str:000000000000cff3 .LASF4087
C:\Users\CYMR90~1\AppData\Local\Temp\cc3o48Uk.s:20871  .debug_str:00000000000043b9 .LASF4088
C:\Users\CYMR90~1\AppData\Local\Temp\cc3o48Uk.s:24787  .debug_str:0000000000013fba .LASF4089
C:\Users\CYMR90~1\AppData\Local\Temp\cc3o48Uk.s:22875  .debug_str:000000000000c602 .LASF4090
C:\Users\CYMR90~1\AppData\Local\Temp\cc3o48Uk.s:21349  .debug_str:0000000000006169 .LASF4091
C:\Users\CYMR90~1\AppData\Local\Temp\cc3o48Uk.s:20493  .debug_str:0000000000002b5e .LASF4092
C:\Users\CYMR90~1\AppData\Local\Temp\cc3o48Uk.s:29310  .debug_str:000000000002607a .LASF4093
C:\Users\CYMR90~1\AppData\Local\Temp\cc3o48Uk.s:21963  .debug_str:00000000000089bf .LASF4094
C:\Users\CYMR90~1\AppData\Local\Temp\cc3o48Uk.s:25850  .debug_str:00000000000184dd .LASF4095
C:\Users\CYMR90~1\AppData\Local\Temp\cc3o48Uk.s:20259  .debug_str:0000000000001d05 .LASF4096
C:\Users\CYMR90~1\AppData\Local\Temp\cc3o48Uk.s:26856  .debug_str:000000000001c5e1 .LASF4097
C:\Users\CYMR90~1\AppData\Local\Temp\cc3o48Uk.s:24721  .debug_str:0000000000013b5a .LASF4098
C:\Users\CYMR90~1\AppData\Local\Temp\cc3o48Uk.s:28676  .debug_str:0000000000023692 .LASF4099
C:\Users\CYMR90~1\AppData\Local\Temp\cc3o48Uk.s:25133  .debug_str:000000000001550e .LASF4100
C:\Users\CYMR90~1\AppData\Local\Temp\cc3o48Uk.s:29836  .debug_str:000000000002821b .LASF4101
C:\Users\CYMR90~1\AppData\Local\Temp\cc3o48Uk.s:23147  .debug_str:000000000000d7e8 .LASF4102
C:\Users\CYMR90~1\AppData\Local\Temp\cc3o48Uk.s:21873  .debug_str:000000000000842e .LASF4103
C:\Users\CYMR90~1\AppData\Local\Temp\cc3o48Uk.s:27780  .debug_str:0000000000020093 .LASF4104
C:\Users\CYMR90~1\AppData\Local\Temp\cc3o48Uk.s:29720  .debug_str:00000000000279b7 .LASF4105
C:\Users\CYMR90~1\AppData\Local\Temp\cc3o48Uk.s:22363  .debug_str:000000000000a316 .LASF4106
C:\Users\CYMR90~1\AppData\Local\Temp\cc3o48Uk.s:30756  .debug_str:000000000002bb4c .LASF4107
C:\Users\CYMR90~1\AppData\Local\Temp\cc3o48Uk.s:21653  .debug_str:00000000000074b6 .LASF4108
C:\Users\CYMR90~1\AppData\Local\Temp\cc3o48Uk.s:21211  .debug_str:00000000000058fc .LASF4109
C:\Users\CYMR90~1\AppData\Local\Temp\cc3o48Uk.s:24283  .debug_str:0000000000011fb1 .LASF4110
C:\Users\CYMR90~1\AppData\Local\Temp\cc3o48Uk.s:25185  .debug_str:0000000000015822 .LASF4111
C:\Users\CYMR90~1\AppData\Local\Temp\cc3o48Uk.s:21805  .debug_str:0000000000007fc5 .LASF4112
C:\Users\CYMR90~1\AppData\Local\Temp\cc3o48Uk.s:25375  .debug_str:00000000000164a0 .LASF4113
C:\Users\CYMR90~1\AppData\Local\Temp\cc3o48Uk.s:22349  .debug_str:000000000000a214 .LASF4114
C:\Users\CYMR90~1\AppData\Local\Temp\cc3o48Uk.s:20477  .debug_str:0000000000002a28 .LASF4115
C:\Users\CYMR90~1\AppData\Local\Temp\cc3o48Uk.s:27756  .debug_str:000000000001ff09 .LASF4116
C:\Users\CYMR90~1\AppData\Local\Temp\cc3o48Uk.s:21511  .debug_str:0000000000006b88 .LASF4117
C:\Users\CYMR90~1\AppData\Local\Temp\cc3o48Uk.s:21147  .debug_str:0000000000005518 .LASF4118
C:\Users\CYMR90~1\AppData\Local\Temp\cc3o48Uk.s:21757  .debug_str:0000000000007b88 .LASF4119
C:\Users\CYMR90~1\AppData\Local\Temp\cc3o48Uk.s:30150  .debug_str:00000000000295cd .LASF4120
C:\Users\CYMR90~1\AppData\Local\Temp\cc3o48Uk.s:21731  .debug_str:0000000000007a07 .LASF4121
C:\Users\CYMR90~1\AppData\Local\Temp\cc3o48Uk.s:21311  .debug_str:0000000000005f08 .LASF4122
C:\Users\CYMR90~1\AppData\Local\Temp\cc3o48Uk.s:22093  .debug_str:00000000000091e0 .LASF4123
C:\Users\CYMR90~1\AppData\Local\Temp\cc3o48Uk.s:28750  .debug_str:0000000000023af5 .LASF4124
C:\Users\CYMR90~1\AppData\Local\Temp\cc3o48Uk.s:20917  .debug_str:00000000000046e3 .LASF4125
C:\Users\CYMR90~1\AppData\Local\Temp\cc3o48Uk.s:21507  .debug_str:0000000000006b35 .LASF4126
C:\Users\CYMR90~1\AppData\Local\Temp\cc3o48Uk.s:30626  .debug_str:000000000002b293 .LASF4127
C:\Users\CYMR90~1\AppData\Local\Temp\cc3o48Uk.s:20043  .debug_str:0000000000000f8e .LASF4128
C:\Users\CYMR90~1\AppData\Local\Temp\cc3o48Uk.s:22371  .debug_str:000000000000a3c6 .LASF4129
C:\Users\CYMR90~1\AppData\Local\Temp\cc3o48Uk.s:21665  .debug_str:0000000000007584 .LASF4130
C:\Users\CYMR90~1\AppData\Local\Temp\cc3o48Uk.s:27008  .debug_str:000000000001d14e .LASF4131
C:\Users\CYMR90~1\AppData\Local\Temp\cc3o48Uk.s:29338  .debug_str:000000000002621c .LASF4132
C:\Users\CYMR90~1\AppData\Local\Temp\cc3o48Uk.s:26354  .debug_str:000000000001a65d .LASF4133
C:\Users\CYMR90~1\AppData\Local\Temp\cc3o48Uk.s:22723  .debug_str:000000000000bbf8 .LASF4134
C:\Users\CYMR90~1\AppData\Local\Temp\cc3o48Uk.s:30094  .debug_str:0000000000029235 .LASF4135
C:\Users\CYMR90~1\AppData\Local\Temp\cc3o48Uk.s:22495  .debug_str:000000000000ac53 .LASF4136
C:\Users\CYMR90~1\AppData\Local\Temp\cc3o48Uk.s:19825  .debug_str:0000000000000174 .LASF4137
C:\Users\CYMR90~1\AppData\Local\Temp\cc3o48Uk.s:28978  .debug_str:00000000000249c1 .LASF4138
C:\Users\CYMR90~1\AppData\Local\Temp\cc3o48Uk.s:28174  .debug_str:00000000000218e9 .LASF4139
C:\Users\CYMR90~1\AppData\Local\Temp\cc3o48Uk.s:25530  .debug_str:000000000001706c .LASF4140
C:\Users\CYMR90~1\AppData\Local\Temp\cc3o48Uk.s:24907  .debug_str:000000000001475b .LASF4141
C:\Users\CYMR90~1\AppData\Local\Temp\cc3o48Uk.s:25664  .debug_str:0000000000017941 .LASF4142
C:\Users\CYMR90~1\AppData\Local\Temp\cc3o48Uk.s:26442  .debug_str:000000000001ac54 .LASF4143
C:\Users\CYMR90~1\AppData\Local\Temp\cc3o48Uk.s:29418  .debug_str:00000000000266fb .LASF4144
C:\Users\CYMR90~1\AppData\Local\Temp\cc3o48Uk.s:29548  .debug_str:0000000000026eaa .LASF4145
C:\Users\CYMR90~1\AppData\Local\Temp\cc3o48Uk.s:26582  .debug_str:000000000001b589 .LASF4146
C:\Users\CYMR90~1\AppData\Local\Temp\cc3o48Uk.s:28606  .debug_str:0000000000023239 .LASF4147
C:\Users\CYMR90~1\AppData\Local\Temp\cc3o48Uk.s:21527  .debug_str:0000000000006cb2 .LASF4148
C:\Users\CYMR90~1\AppData\Local\Temp\cc3o48Uk.s:25457  .debug_str:0000000000016a5e .LASF4149
C:\Users\CYMR90~1\AppData\Local\Temp\cc3o48Uk.s:29394  .debug_str:0000000000026565 .LASF4150
C:\Users\CYMR90~1\AppData\Local\Temp\cc3o48Uk.s:20861  .debug_str:0000000000004319 .LASF4151
C:\Users\CYMR90~1\AppData\Local\Temp\cc3o48Uk.s:25972  .debug_str:0000000000018d29 .LASF4152
C:\Users\CYMR90~1\AppData\Local\Temp\cc3o48Uk.s:24579  .debug_str:0000000000013301 .LASF4153
C:\Users\CYMR90~1\AppData\Local\Temp\cc3o48Uk.s:26714  .debug_str:000000000001bd69 .LASF4154
C:\Users\CYMR90~1\AppData\Local\Temp\cc3o48Uk.s:26528  .debug_str:000000000001b244 .LASF4155
C:\Users\CYMR90~1\AppData\Local\Temp\cc3o48Uk.s:24951  .debug_str:00000000000149e9 .LASF4156
C:\Users\CYMR90~1\AppData\Local\Temp\cc3o48Uk.s:20021  .debug_str:0000000000000d73 .LASF4157
C:\Users\CYMR90~1\AppData\Local\Temp\cc3o48Uk.s:20227  .debug_str:0000000000001b07 .LASF4158
C:\Users\CYMR90~1\AppData\Local\Temp\cc3o48Uk.s:24133  .debug_str:0000000000011515 .LASF4159
C:\Users\CYMR90~1\AppData\Local\Temp\cc3o48Uk.s:28056  .debug_str:0000000000021136 .LASF4160
C:\Users\CYMR90~1\AppData\Local\Temp\cc3o48Uk.s:20681  .debug_str:0000000000003735 .LASF4161
C:\Users\CYMR90~1\AppData\Local\Temp\cc3o48Uk.s:24599  .debug_str:0000000000013439 .LASF4162
C:\Users\CYMR90~1\AppData\Local\Temp\cc3o48Uk.s:27964  .debug_str:0000000000020bf1 .LASF4163
C:\Users\CYMR90~1\AppData\Local\Temp\cc3o48Uk.s:30620  .debug_str:000000000002b218 .LASF4164
C:\Users\CYMR90~1\AppData\Local\Temp\cc3o48Uk.s:25990  .debug_str:0000000000018e53 .LASF4165
C:\Users\CYMR90~1\AppData\Local\Temp\cc3o48Uk.s:27558  .debug_str:000000000001f317 .LASF4166
C:\Users\CYMR90~1\AppData\Local\Temp\cc3o48Uk.s:20859  .debug_str:00000000000042f3 .LASF4167
C:\Users\CYMR90~1\AppData\Local\Temp\cc3o48Uk.s:20791  .debug_str:0000000000003e58 .LASF4168
C:\Users\CYMR90~1\AppData\Local\Temp\cc3o48Uk.s:27990  .debug_str:0000000000020d7f .LASF4169
C:\Users\CYMR90~1\AppData\Local\Temp\cc3o48Uk.s:25954  .debug_str:0000000000018b43 .LASF4170
C:\Users\CYMR90~1\AppData\Local\Temp\cc3o48Uk.s:24635  .debug_str:0000000000013642 .LASF4171
C:\Users\CYMR90~1\AppData\Local\Temp\cc3o48Uk.s:28498  .debug_str:0000000000022c4f .LASF4172
C:\Users\CYMR90~1\AppData\Local\Temp\cc3o48Uk.s:31052  .debug_str:000000000002cee6 .LASF4173
C:\Users\CYMR90~1\AppData\Local\Temp\cc3o48Uk.s:22467  .debug_str:000000000000aa68 .LASF4174
C:\Users\CYMR90~1\AppData\Local\Temp\cc3o48Uk.s:23127  .debug_str:000000000000d70e .LASF4175
C:\Users\CYMR90~1\AppData\Local\Temp\cc3o48Uk.s:28628  .debug_str:000000000002336c .LASF4176
C:\Users\CYMR90~1\AppData\Local\Temp\cc3o48Uk.s:27182  .debug_str:000000000001dbda .LASF4177
C:\Users\CYMR90~1\AppData\Local\Temp\cc3o48Uk.s:19881  .debug_str:00000000000004c4 .LASF4178
C:\Users\CYMR90~1\AppData\Local\Temp\cc3o48Uk.s:20909  .debug_str:000000000000464f .LASF4179
C:\Users\CYMR90~1\AppData\Local\Temp\cc3o48Uk.s:23305  .debug_str:000000000000e155 .LASF4180
C:\Users\CYMR90~1\AppData\Local\Temp\cc3o48Uk.s:21479  .debug_str:0000000000006996 .LASF4181
C:\Users\CYMR90~1\AppData\Local\Temp\cc3o48Uk.s:24655  .debug_str:0000000000013772 .LASF4182
C:\Users\CYMR90~1\AppData\Local\Temp\cc3o48Uk.s:24281  .debug_str:0000000000011f8a .LASF4183
C:\Users\CYMR90~1\AppData\Local\Temp\cc3o48Uk.s:20551  .debug_str:0000000000002ebe .LASF4184
C:\Users\CYMR90~1\AppData\Local\Temp\cc3o48Uk.s:21113  .debug_str:0000000000005326 .LASF4185
C:\Users\CYMR90~1\AppData\Local\Temp\cc3o48Uk.s:20635  .debug_str:000000000000343d .LASF4186
C:\Users\CYMR90~1\AppData\Local\Temp\cc3o48Uk.s:19843  .debug_str:0000000000000289 .LASF4187
C:\Users\CYMR90~1\AppData\Local\Temp\cc3o48Uk.s:22087  .debug_str:0000000000009180 .LASF4188
C:\Users\CYMR90~1\AppData\Local\Temp\cc3o48Uk.s:25431  .debug_str:000000000001685c .LASF4189
C:\Users\CYMR90~1\AppData\Local\Temp\cc3o48Uk.s:20541  .debug_str:0000000000002e31 .LASF4190
C:\Users\CYMR90~1\AppData\Local\Temp\cc3o48Uk.s:29476  .debug_str:0000000000026a50 .LASF4191
C:\Users\CYMR90~1\AppData\Local\Temp\cc3o48Uk.s:25293  .debug_str:0000000000015fa0 .LASF4192
C:\Users\CYMR90~1\AppData\Local\Temp\cc3o48Uk.s:25966  .debug_str:0000000000018c9c .LASF4193
C:\Users\CYMR90~1\AppData\Local\Temp\cc3o48Uk.s:28640  .debug_str:000000000002343c .LASF4194
C:\Users\CYMR90~1\AppData\Local\Temp\cc3o48Uk.s:28424  .debug_str:00000000000227b8 .LASF4195
C:\Users\CYMR90~1\AppData\Local\Temp\cc3o48Uk.s:24483  .debug_str:0000000000012c75 .LASF4196
C:\Users\CYMR90~1\AppData\Local\Temp\cc3o48Uk.s:30142  .debug_str:0000000000029571 .LASF4197
C:\Users\CYMR90~1\AppData\Local\Temp\cc3o48Uk.s:30372  .debug_str:000000000002a2ba .LASF4198
C:\Users\CYMR90~1\AppData\Local\Temp\cc3o48Uk.s:20561  .debug_str:0000000000002f6e .LASF4199
C:\Users\CYMR90~1\AppData\Local\Temp\cc3o48Uk.s:29248  .debug_str:0000000000025c4d .LASF4200
C:\Users\CYMR90~1\AppData\Local\Temp\cc3o48Uk.s:24027  .debug_str:0000000000010e86 .LASF4201
C:\Users\CYMR90~1\AppData\Local\Temp\cc3o48Uk.s:27238  .debug_str:000000000001dfe2 .LASF4202
C:\Users\CYMR90~1\AppData\Local\Temp\cc3o48Uk.s:22261  .debug_str:0000000000009c97 .LASF4203
C:\Users\CYMR90~1\AppData\Local\Temp\cc3o48Uk.s:26494  .debug_str:000000000001b004 .LASF4204
C:\Users\CYMR90~1\AppData\Local\Temp\cc3o48Uk.s:27076  .debug_str:000000000001d562 .LASF4205
C:\Users\CYMR90~1\AppData\Local\Temp\cc3o48Uk.s:22647  .debug_str:000000000000b6d2 .LASF4206
C:\Users\CYMR90~1\AppData\Local\Temp\cc3o48Uk.s:25644  .debug_str:00000000000177d7 .LASF4207
C:\Users\CYMR90~1\AppData\Local\Temp\cc3o48Uk.s:26778  .debug_str:000000000001c177 .LASF4208
C:\Users\CYMR90~1\AppData\Local\Temp\cc3o48Uk.s:24415  .debug_str:0000000000012823 .LASF4209
C:\Users\CYMR90~1\AppData\Local\Temp\cc3o48Uk.s:27946  .debug_str:0000000000020ac4 .LASF4210
C:\Users\CYMR90~1\AppData\Local\Temp\cc3o48Uk.s:22583  .debug_str:000000000000b29c .LASF4211
C:\Users\CYMR90~1\AppData\Local\Temp\cc3o48Uk.s:26464  .debug_str:000000000001ad9f .LASF4212
C:\Users\CYMR90~1\AppData\Local\Temp\cc3o48Uk.s:21299  .debug_str:0000000000005e61 .LASF4213
C:\Users\CYMR90~1\AppData\Local\Temp\cc3o48Uk.s:24461  .debug_str:0000000000012b28 .LASF4214
C:\Users\CYMR90~1\AppData\Local\Temp\cc3o48Uk.s:30754  .debug_str:000000000002bb35 .LASF4215
C:\Users\CYMR90~1\AppData\Local\Temp\cc3o48Uk.s:26092  .debug_str:0000000000019525 .LASF4216
C:\Users\CYMR90~1\AppData\Local\Temp\cc3o48Uk.s:25642  .debug_str:00000000000177bf .LASF4217
C:\Users\CYMR90~1\AppData\Local\Temp\cc3o48Uk.s:27102  .debug_str:000000000001d720 .LASF4218
C:\Users\CYMR90~1\AppData\Local\Temp\cc3o48Uk.s:28760  .debug_str:0000000000023b79 .LASF4219
C:\Users\CYMR90~1\AppData\Local\Temp\cc3o48Uk.s:21145  .debug_str:00000000000054ff .LASF4220
C:\Users\CYMR90~1\AppData\Local\Temp\cc3o48Uk.s:20129  .debug_str:0000000000001490 .LASF4221
C:\Users\CYMR90~1\AppData\Local\Temp\cc3o48Uk.s:27420  .debug_str:000000000001eaec .LASF4222
C:\Users\CYMR90~1\AppData\Local\Temp\cc3o48Uk.s:28132  .debug_str:0000000000021663 .LASF4223
C:\Users\CYMR90~1\AppData\Local\Temp\cc3o48Uk.s:30318  .debug_str:0000000000029f91 .LASF4224
C:\Users\CYMR90~1\AppData\Local\Temp\cc3o48Uk.s:24147  .debug_str:00000000000115f3 .LASF4225
C:\Users\CYMR90~1\AppData\Local\Temp\cc3o48Uk.s:23361  .debug_str:000000000000e49f .LASF4226
C:\Users\CYMR90~1\AppData\Local\Temp\cc3o48Uk.s:20657  .debug_str:0000000000003599 .LASF4227
C:\Users\CYMR90~1\AppData\Local\Temp\cc3o48Uk.s:22543  .debug_str:000000000000b035 .LASF4228
C:\Users\CYMR90~1\AppData\Local\Temp\cc3o48Uk.s:27908  .debug_str:0000000000020852 .LASF4229
C:\Users\CYMR90~1\AppData\Local\Temp\cc3o48Uk.s:21979  .debug_str:0000000000008ab5 .LASF4230
C:\Users\CYMR90~1\AppData\Local\Temp\cc3o48Uk.s:25552  .debug_str:00000000000171e1 .LASF4231
C:\Users\CYMR90~1\AppData\Local\Temp\cc3o48Uk.s:28724  .debug_str:000000000002398c .LASF4232
C:\Users\CYMR90~1\AppData\Local\Temp\cc3o48Uk.s:29546  .debug_str:0000000000026e98 .LASF4233
C:\Users\CYMR90~1\AppData\Local\Temp\cc3o48Uk.s:20353  .debug_str:0000000000002252 .LASF4234
C:\Users\CYMR90~1\AppData\Local\Temp\cc3o48Uk.s:27324  .debug_str:000000000001e4e1 .LASF4235
C:\Users\CYMR90~1\AppData\Local\Temp\cc3o48Uk.s:22951  .debug_str:000000000000cb7e .LASF4236
C:\Users\CYMR90~1\AppData\Local\Temp\cc3o48Uk.s:24727  .debug_str:0000000000013bc3 .LASF4237
C:\Users\CYMR90~1\AppData\Local\Temp\cc3o48Uk.s:23573  .debug_str:000000000000f1de .LASF4238
C:\Users\CYMR90~1\AppData\Local\Temp\cc3o48Uk.s:24491  .debug_str:0000000000012ce8 .LASF4239
C:\Users\CYMR90~1\AppData\Local\Temp\cc3o48Uk.s:27978  .debug_str:0000000000020ce6 .LASF4240
C:\Users\CYMR90~1\AppData\Local\Temp\cc3o48Uk.s:23495  .debug_str:000000000000ed32 .LASF4241
C:\Users\CYMR90~1\AppData\Local\Temp\cc3o48Uk.s:27100  .debug_str:000000000001d70b .LASF4242
C:\Users\CYMR90~1\AppData\Local\Temp\cc3o48Uk.s:20521  .debug_str:0000000000002d08 .LASF4243
C:\Users\CYMR90~1\AppData\Local\Temp\cc3o48Uk.s:27152  .debug_str:000000000001da26 .LASF4244
C:\Users\CYMR90~1\AppData\Local\Temp\cc3o48Uk.s:26818  .debug_str:000000000001c3f4 .LASF4245
C:\Users\CYMR90~1\AppData\Local\Temp\cc3o48Uk.s:21895  .debug_str:0000000000008583 .LASF4246
C:\Users\CYMR90~1\AppData\Local\Temp\cc3o48Uk.s:30450  .debug_str:000000000002a782 .LASF4247
C:\Users\CYMR90~1\AppData\Local\Temp\cc3o48Uk.s:21743  .debug_str:0000000000007acf .LASF4248
C:\Users\CYMR90~1\AppData\Local\Temp\cc3o48Uk.s:19895  .debug_str:0000000000000595 .LASF4249
C:\Users\CYMR90~1\AppData\Local\Temp\cc3o48Uk.s:28970  .debug_str:0000000000024958 .LASF4250
C:\Users\CYMR90~1\AppData\Local\Temp\cc3o48Uk.s:25870  .debug_str:0000000000018621 .LASF4251
C:\Users\CYMR90~1\AppData\Local\Temp\cc3o48Uk.s:23595  .debug_str:000000000000f356 .LASF4252
C:\Users\CYMR90~1\AppData\Local\Temp\cc3o48Uk.s:28566  .debug_str:0000000000023007 .LASF4253
C:\Users\CYMR90~1\AppData\Local\Temp\cc3o48Uk.s:30270  .debug_str:0000000000029cdf .LASF4254
C:\Users\CYMR90~1\AppData\Local\Temp\cc3o48Uk.s:22805  .debug_str:000000000000c1d0 .LASF4255
C:\Users\CYMR90~1\AppData\Local\Temp\cc3o48Uk.s:21333  .debug_str:0000000000006091 .LASF4256
C:\Users\CYMR90~1\AppData\Local\Temp\cc3o48Uk.s:20967  .debug_str:0000000000004a64 .LASF4257
C:\Users\CYMR90~1\AppData\Local\Temp\cc3o48Uk.s:29318  .debug_str:000000000002611a .LASF4258
C:\Users\CYMR90~1\AppData\Local\Temp\cc3o48Uk.s:23203  .debug_str:000000000000db44 .LASF4259
C:\Users\CYMR90~1\AppData\Local\Temp\cc3o48Uk.s:24571  .debug_str:000000000001326b .LASF4260
C:\Users\CYMR90~1\AppData\Local\Temp\cc3o48Uk.s:21957  .debug_str:000000000000896a .LASF4261
C:\Users\CYMR90~1\AppData\Local\Temp\cc3o48Uk.s:25139  .debug_str:000000000001555f .LASF4262
C:\Users\CYMR90~1\AppData\Local\Temp\cc3o48Uk.s:29106  .debug_str:00000000000252e4 .LASF4263
C:\Users\CYMR90~1\AppData\Local\Temp\cc3o48Uk.s:20411  .debug_str:00000000000025ae .LASF4264
C:\Users\CYMR90~1\AppData\Local\Temp\cc3o48Uk.s:25309  .debug_str:000000000001609a .LASF4265
C:\Users\CYMR90~1\AppData\Local\Temp\cc3o48Uk.s:20037  .debug_str:0000000000000ea5 .LASF4266
C:\Users\CYMR90~1\AppData\Local\Temp\cc3o48Uk.s:23979  .debug_str:0000000000010c0d .LASF4267
C:\Users\CYMR90~1\AppData\Local\Temp\cc3o48Uk.s:22693  .debug_str:000000000000b9f8 .LASF4268
C:\Users\CYMR90~1\AppData\Local\Temp\cc3o48Uk.s:27686  .debug_str:000000000001facf .LASF4269
C:\Users\CYMR90~1\AppData\Local\Temp\cc3o48Uk.s:22485  .debug_str:000000000000ab9d .LASF4270
C:\Users\CYMR90~1\AppData\Local\Temp\cc3o48Uk.s:24381  .debug_str:00000000000125e3 .LASF4271
C:\Users\CYMR90~1\AppData\Local\Temp\cc3o48Uk.s:20405  .debug_str:0000000000002561 .LASF4272
C:\Users\CYMR90~1\AppData\Local\Temp\cc3o48Uk.s:27048  .debug_str:000000000001d397 .LASF4273
C:\Users\CYMR90~1\AppData\Local\Temp\cc3o48Uk.s:22927  .debug_str:000000000000c9f8 .LASF4274
C:\Users\CYMR90~1\AppData\Local\Temp\cc3o48Uk.s:30430  .debug_str:000000000002a670 .LASF4275
C:\Users\CYMR90~1\AppData\Local\Temp\cc3o48Uk.s:26320  .debug_str:000000000001a4a2 .LASF4276
C:\Users\CYMR90~1\AppData\Local\Temp\cc3o48Uk.s:19929  .debug_str:00000000000007ad .LASF4277
C:\Users\CYMR90~1\AppData\Local\Temp\cc3o48Uk.s:30102  .debug_str:00000000000292bc .LASF4278
C:\Users\CYMR90~1\AppData\Local\Temp\cc3o48Uk.s:25391  .debug_str:0000000000016591 .LASF4279
C:\Users\CYMR90~1\AppData\Local\Temp\cc3o48Uk.s:26062  .debug_str:000000000001934b .LASF4280
C:\Users\CYMR90~1\AppData\Local\Temp\cc3o48Uk.s:21143  .debug_str:00000000000054e6 .LASF4281
C:\Users\CYMR90~1\AppData\Local\Temp\cc3o48Uk.s:24803  .debug_str:00000000000140c4 .LASF4282
C:\Users\CYMR90~1\AppData\Local\Temp\cc3o48Uk.s:23765  .debug_str:000000000000fe42 .LASF4283
C:\Users\CYMR90~1\AppData\Local\Temp\cc3o48Uk.s:26952  .debug_str:000000000001cca9 .LASF4284
C:\Users\CYMR90~1\AppData\Local\Temp\cc3o48Uk.s:25528  .debug_str:0000000000017053 .LASF4285
C:\Users\CYMR90~1\AppData\Local\Temp\cc3o48Uk.s:29408  .debug_str:000000000002666d .LASF4286
C:\Users\CYMR90~1\AppData\Local\Temp\cc3o48Uk.s:30598  .debug_str:000000000002b0a0 .LASF4287
C:\Users\CYMR90~1\AppData\Local\Temp\cc3o48Uk.s:22711  .debug_str:000000000000bb4b .LASF4288
C:\Users\CYMR90~1\AppData\Local\Temp\cc3o48Uk.s:27860  .debug_str:0000000000020579 .LASF4289
C:\Users\CYMR90~1\AppData\Local\Temp\cc3o48Uk.s:25249  .debug_str:0000000000015c78 .LASF4290
C:\Users\CYMR90~1\AppData\Local\Temp\cc3o48Uk.s:28710  .debug_str:00000000000238a4 .LASF4291
C:\Users\CYMR90~1\AppData\Local\Temp\cc3o48Uk.s:30566  .debug_str:000000000002ae64 .LASF4292
C:\Users\CYMR90~1\AppData\Local\Temp\cc3o48Uk.s:28052  .debug_str:00000000000210f3 .LASF4293
C:\Users\CYMR90~1\AppData\Local\Temp\cc3o48Uk.s:28392  .debug_str:00000000000225ad .LASF4294
C:\Users\CYMR90~1\AppData\Local\Temp\cc3o48Uk.s:25379  .debug_str:00000000000164e4 .LASF4295
C:\Users\CYMR90~1\AppData\Local\Temp\cc3o48Uk.s:21561  .debug_str:0000000000006ee4 .LASF4296
C:\Users\CYMR90~1\AppData\Local\Temp\cc3o48Uk.s:29146  .debug_str:00000000000255a5 .LASF4297
C:\Users\CYMR90~1\AppData\Local\Temp\cc3o48Uk.s:24405  .debug_str:0000000000012756 .LASF4298
C:\Users\CYMR90~1\AppData\Local\Temp\cc3o48Uk.s:20033  .debug_str:0000000000000e67 .LASF4299
C:\Users\CYMR90~1\AppData\Local\Temp\cc3o48Uk.s:28366  .debug_str:0000000000022411 .LASF4300
C:\Users\CYMR90~1\AppData\Local\Temp\cc3o48Uk.s:30084  .debug_str:00000000000291c2 .LASF4301
C:\Users\CYMR90~1\AppData\Local\Temp\cc3o48Uk.s:20483  .debug_str:0000000000002a7d .LASF4302
C:\Users\CYMR90~1\AppData\Local\Temp\cc3o48Uk.s:23473  .debug_str:000000000000ec05 .LASF4303
C:\Users\CYMR90~1\AppData\Local\Temp\cc3o48Uk.s:27400  .debug_str:000000000001e9f1 .LASF4304
C:\Users\CYMR90~1\AppData\Local\Temp\cc3o48Uk.s:20699  .debug_str:0000000000003850 .LASF4305
C:\Users\CYMR90~1\AppData\Local\Temp\cc3o48Uk.s:24703  .debug_str:0000000000013a7d .LASF4306
C:\Users\CYMR90~1\AppData\Local\Temp\cc3o48Uk.s:29058  .debug_str:0000000000024edf .LASF4307
C:\Users\CYMR90~1\AppData\Local\Temp\cc3o48Uk.s:23717  .debug_str:000000000000fb05 .LASF4308
C:\Users\CYMR90~1\AppData\Local\Temp\cc3o48Uk.s:24709  .debug_str:0000000000013ac1 .LASF4309
C:\Users\CYMR90~1\AppData\Local\Temp\cc3o48Uk.s:21261  .debug_str:0000000000005c3b .LASF4310
C:\Users\CYMR90~1\AppData\Local\Temp\cc3o48Uk.s:20851  .debug_str:000000000000425c .LASF4311
C:\Users\CYMR90~1\AppData\Local\Temp\cc3o48Uk.s:28170  .debug_str:00000000000218b2 .LASF4312
C:\Users\CYMR90~1\AppData\Local\Temp\cc3o48Uk.s:24371  .debug_str:0000000000012534 .LASF4313
C:\Users\CYMR90~1\AppData\Local\Temp\cc3o48Uk.s:20941  .debug_str:00000000000048e4 .LASF4314
C:\Users\CYMR90~1\AppData\Local\Temp\cc3o48Uk.s:27958  .debug_str:0000000000020b97 .LASF4315
C:\Users\CYMR90~1\AppData\Local\Temp\cc3o48Uk.s:29370  .debug_str:0000000000026407 .LASF4316
C:\Users\CYMR90~1\AppData\Local\Temp\cc3o48Uk.s:30554  .debug_str:000000000002adba .LASF4317
C:\Users\CYMR90~1\AppData\Local\Temp\cc3o48Uk.s:29292  .debug_str:0000000000025f52 .LASF4318
C:\Users\CYMR90~1\AppData\Local\Temp\cc3o48Uk.s:20177  .debug_str:000000000000176e .LASF4319
C:\Users\CYMR90~1\AppData\Local\Temp\cc3o48Uk.s:27288  .debug_str:000000000001e2c8 .LASF4320
C:\Users\CYMR90~1\AppData\Local\Temp\cc3o48Uk.s:22891  .debug_str:000000000000c724 .LASF4321
C:\Users\CYMR90~1\AppData\Local\Temp\cc3o48Uk.s:22391  .debug_str:000000000000a50e .LASF4322
C:\Users\CYMR90~1\AppData\Local\Temp\cc3o48Uk.s:30912  .debug_str:000000000002c5e6 .LASF4323
C:\Users\CYMR90~1\AppData\Local\Temp\cc3o48Uk.s:30258  .debug_str:0000000000029c3c .LASF4324
C:\Users\CYMR90~1\AppData\Local\Temp\cc3o48Uk.s:21749  .debug_str:0000000000007b29 .LASF4325
C:\Users\CYMR90~1\AppData\Local\Temp\cc3o48Uk.s:20835  .debug_str:0000000000004181 .LASF4326
C:\Users\CYMR90~1\AppData\Local\Temp\cc3o48Uk.s:29450  .debug_str:00000000000268e9 .LASF4327
C:\Users\CYMR90~1\AppData\Local\Temp\cc3o48Uk.s:26832  .debug_str:000000000001c4a7 .LASF4328
C:\Users\CYMR90~1\AppData\Local\Temp\cc3o48Uk.s:29426  .debug_str:0000000000026779 .LASF4329
C:\Users\CYMR90~1\AppData\Local\Temp\cc3o48Uk.s:24739  .debug_str:0000000000013c76 .LASF4330
C:\Users\CYMR90~1\AppData\Local\Temp\cc3o48Uk.s:23659  .debug_str:000000000000f7ad .LASF4331
C:\Users\CYMR90~1\AppData\Local\Temp\cc3o48Uk.s:27390  .debug_str:000000000001e964 .LASF4332
C:\Users\CYMR90~1\AppData\Local\Temp\cc3o48Uk.s:28340  .debug_str:00000000000222bc .LASF4333
C:\Users\CYMR90~1\AppData\Local\Temp\cc3o48Uk.s:28586  .debug_str:000000000002310a .LASF4334
C:\Users\CYMR90~1\AppData\Local\Temp\cc3o48Uk.s:25992  .debug_str:0000000000018e79 .LASF4335
C:\Users\CYMR90~1\AppData\Local\Temp\cc3o48Uk.s:20371  .debug_str:000000000000235e .LASF4336
C:\Users\CYMR90~1\AppData\Local\Temp\cc3o48Uk.s:20569  .debug_str:0000000000002fe3 .LASF4337
C:\Users\CYMR90~1\AppData\Local\Temp\cc3o48Uk.s:29256  .debug_str:0000000000025ce2 .LASF4338
C:\Users\CYMR90~1\AppData\Local\Temp\cc3o48Uk.s:25149  .debug_str:00000000000155e0 .LASF4339
C:\Users\CYMR90~1\AppData\Local\Temp\cc3o48Uk.s:21793  .debug_str:0000000000007e8c .LASF4340
C:\Users\CYMR90~1\AppData\Local\Temp\cc3o48Uk.s:22059  .debug_str:0000000000008ff4 .LASF4341
C:\Users\CYMR90~1\AppData\Local\Temp\cc3o48Uk.s:29842  .debug_str:0000000000028287 .LASF4342
C:\Users\CYMR90~1\AppData\Local\Temp\cc3o48Uk.s:31054  .debug_str:000000000002cf08 .LASF4343
C:\Users\CYMR90~1\AppData\Local\Temp\cc3o48Uk.s:27222  .debug_str:000000000001ded2 .LASF4344
C:\Users\CYMR90~1\AppData\Local\Temp\cc3o48Uk.s:21517  .debug_str:0000000000006c04 .LASF4345
C:\Users\CYMR90~1\AppData\Local\Temp\cc3o48Uk.s:20981  .debug_str:0000000000004b60 .LASF4346
C:\Users\CYMR90~1\AppData\Local\Temp\cc3o48Uk.s:25506  .debug_str:0000000000016efa .LASF4347
C:\Users\CYMR90~1\AppData\Local\Temp\cc3o48Uk.s:30698  .debug_str:000000000002b7af .LASF4348
C:\Users\CYMR90~1\AppData\Local\Temp\cc3o48Uk.s:24515  .debug_str:0000000000012e99 .LASF4349
C:\Users\CYMR90~1\AppData\Local\Temp\cc3o48Uk.s:30320  .debug_str:0000000000029faa .LASF4350
C:\Users\CYMR90~1\AppData\Local\Temp\cc3o48Uk.s:29400  .debug_str:00000000000265cd .LASF4351
C:\Users\CYMR90~1\AppData\Local\Temp\cc3o48Uk.s:23733  .debug_str:000000000000fc09 .LASF4352
C:\Users\CYMR90~1\AppData\Local\Temp\cc3o48Uk.s:20823  .debug_str:00000000000040aa .LASF4353
C:\Users\CYMR90~1\AppData\Local\Temp\cc3o48Uk.s:20289  .debug_str:0000000000001ec5 .LASF4354
C:\Users\CYMR90~1\AppData\Local\Temp\cc3o48Uk.s:26204  .debug_str:0000000000019c53 .LASF4355
C:\Users\CYMR90~1\AppData\Local\Temp\cc3o48Uk.s:21803  .debug_str:0000000000007fac .LASF4356
C:\Users\CYMR90~1\AppData\Local\Temp\cc3o48Uk.s:26920  .debug_str:000000000001ca9b .LASF4357
C:\Users\CYMR90~1\AppData\Local\Temp\cc3o48Uk.s:26512  .debug_str:000000000001b126 .LASF4358
C:\Users\CYMR90~1\AppData\Local\Temp\cc3o48Uk.s:28434  .debug_str:0000000000022833 .LASF4359
C:\Users\CYMR90~1\AppData\Local\Temp\cc3o48Uk.s:29356  .debug_str:0000000000026325 .LASF4360
C:\Users\CYMR90~1\AppData\Local\Temp\cc3o48Uk.s:20283  .debug_str:0000000000001e87 .LASF4361
C:\Users\CYMR90~1\AppData\Local\Temp\cc3o48Uk.s:25325  .debug_str:0000000000016172 .LASF4362
C:\Users\CYMR90~1\AppData\Local\Temp\cc3o48Uk.s:30900  .debug_str:000000000002c53d .LASF4363
C:\Users\CYMR90~1\AppData\Local\Temp\cc3o48Uk.s:27702  .debug_str:000000000001fb9c .LASF4364
C:\Users\CYMR90~1\AppData\Local\Temp\cc3o48Uk.s:27404  .debug_str:000000000001ea23 .LASF4365
C:\Users\CYMR90~1\AppData\Local\Temp\cc3o48Uk.s:20089  .debug_str:0000000000001242 .LASF4366
C:\Users\CYMR90~1\AppData\Local\Temp\cc3o48Uk.s:29086  .debug_str:00000000000250fa .LASF4367
C:\Users\CYMR90~1\AppData\Local\Temp\cc3o48Uk.s:21917  .debug_str:00000000000086ac .LASF4368
C:\Users\CYMR90~1\AppData\Local\Temp\cc3o48Uk.s:27020  .debug_str:000000000001d209 .LASF4369
C:\Users\CYMR90~1\AppData\Local\Temp\cc3o48Uk.s:27038  .debug_str:000000000001d300 .LASF4370
C:\Users\CYMR90~1\AppData\Local\Temp\cc3o48Uk.s:28000  .debug_str:0000000000020e0e .LASF4371
C:\Users\CYMR90~1\AppData\Local\Temp\cc3o48Uk.s:26456  .debug_str:000000000001ad27 .LASF4372
C:\Users\CYMR90~1\AppData\Local\Temp\cc3o48Uk.s:21231  .debug_str:0000000000005a7b .LASF4373
C:\Users\CYMR90~1\AppData\Local\Temp\cc3o48Uk.s:29800  .debug_str:0000000000027f64 .LASF4374
C:\Users\CYMR90~1\AppData\Local\Temp\cc3o48Uk.s:28718  .debug_str:000000000002393b .LASF4375
C:\Users\CYMR90~1\AppData\Local\Temp\cc3o48Uk.s:25037  .debug_str:0000000000014faf .LASF4376
C:\Users\CYMR90~1\AppData\Local\Temp\cc3o48Uk.s:31014  .debug_str:000000000002ccbf .LASF4377
C:\Users\CYMR90~1\AppData\Local\Temp\cc3o48Uk.s:20547  .debug_str:0000000000002e80 .LASF4378
C:\Users\CYMR90~1\AppData\Local\Temp\cc3o48Uk.s:19831  .debug_str:00000000000001dd .LASF4379
C:\Users\CYMR90~1\AppData\Local\Temp\cc3o48Uk.s:26160  .debug_str:000000000001995d .LASF4380
C:\Users\CYMR90~1\AppData\Local\Temp\cc3o48Uk.s:23927  .debug_str:0000000000010846 .LASF4381
C:\Users\CYMR90~1\AppData\Local\Temp\cc3o48Uk.s:20849  .debug_str:0000000000004244 .LASF4382
C:\Users\CYMR90~1\AppData\Local\Temp\cc3o48Uk.s:26098  .debug_str:0000000000019585 .LASF4383
C:\Users\CYMR90~1\AppData\Local\Temp\cc3o48Uk.s:29412  .debug_str:00000000000266a8 .LASF4384
C:\Users\CYMR90~1\AppData\Local\Temp\cc3o48Uk.s:19855  .debug_str:0000000000000367 .LASF4385
C:\Users\CYMR90~1\AppData\Local\Temp\cc3o48Uk.s:21077  .debug_str:0000000000005100 .LASF4386
C:\Users\CYMR90~1\AppData\Local\Temp\cc3o48Uk.s:30066  .debug_str:00000000000290d3 .LASF4387
C:\Users\CYMR90~1\AppData\Local\Temp\cc3o48Uk.s:20879  .debug_str:0000000000004449 .LASF4388
C:\Users\CYMR90~1\AppData\Local\Temp\cc3o48Uk.s:22535  .debug_str:000000000000af05 .LASF4389
C:\Users\CYMR90~1\AppData\Local\Temp\cc3o48Uk.s:19873  .debug_str:0000000000000463 .LASF4390
C:\Users\CYMR90~1\AppData\Local\Temp\cc3o48Uk.s:27378  .debug_str:000000000001e8a2 .LASF4391
C:\Users\CYMR90~1\AppData\Local\Temp\cc3o48Uk.s:25514  .debug_str:0000000000016f91 .LASF4392
C:\Users\CYMR90~1\AppData\Local\Temp\cc3o48Uk.s:20425  .debug_str:000000000000269d .LASF4393
C:\Users\CYMR90~1\AppData\Local\Temp\cc3o48Uk.s:28742  .debug_str:0000000000023a8d .LASF4394
C:\Users\CYMR90~1\AppData\Local\Temp\cc3o48Uk.s:30866  .debug_str:000000000002c2f0 .LASF4395
C:\Users\CYMR90~1\AppData\Local\Temp\cc3o48Uk.s:27456  .debug_str:000000000001ecd6 .LASF4396
C:\Users\CYMR90~1\AppData\Local\Temp\cc3o48Uk.s:22869  .debug_str:000000000000c5aa .LASF4397
C:\Users\CYMR90~1\AppData\Local\Temp\cc3o48Uk.s:28444  .debug_str:00000000000228ba .LASF4398
C:\Users\CYMR90~1\AppData\Local\Temp\cc3o48Uk.s:22769  .debug_str:000000000000bf7b .LASF4399
C:\Users\CYMR90~1\AppData\Local\Temp\cc3o48Uk.s:28432  .debug_str:0000000000022815 .LASF4400
C:\Users\CYMR90~1\AppData\Local\Temp\cc3o48Uk.s:29960  .debug_str:0000000000028a38 .LASF4401
C:\Users\CYMR90~1\AppData\Local\Temp\cc3o48Uk.s:21277  .debug_str:0000000000005d29 .LASF4402
C:\Users\CYMR90~1\AppData\Local\Temp\cc3o48Uk.s:24047  .debug_str:0000000000010fc6 .LASF4403
C:\Users\CYMR90~1\AppData\Local\Temp\cc3o48Uk.s:23245  .debug_str:000000000000ddb2 .LASF4404
C:\Users\CYMR90~1\AppData\Local\Temp\cc3o48Uk.s:20929  .debug_str:000000000000483a .LASF4405
C:\Users\CYMR90~1\AppData\Local\Temp\cc3o48Uk.s:22209  .debug_str:000000000000993f .LASF4406
C:\Users\CYMR90~1\AppData\Local\Temp\cc3o48Uk.s:24697  .debug_str:0000000000013a0f .LASF4407
C:\Users\CYMR90~1\AppData\Local\Temp\cc3o48Uk.s:20753  .debug_str:0000000000003bad .LASF4408
C:\Users\CYMR90~1\AppData\Local\Temp\cc3o48Uk.s:21509  .debug_str:0000000000006b5b .LASF4409
C:\Users\CYMR90~1\AppData\Local\Temp\cc3o48Uk.s:19805  .debug_str:000000000000002e .LASF4410
C:\Users\CYMR90~1\AppData\Local\Temp\cc3o48Uk.s:24029  .debug_str:0000000000010eaa .LASF4411
C:\Users\CYMR90~1\AppData\Local\Temp\cc3o48Uk.s:26410  .debug_str:000000000001aa64 .LASF4412
C:\Users\CYMR90~1\AppData\Local\Temp\cc3o48Uk.s:25459  .debug_str:0000000000016a84 .LASF4413
C:\Users\CYMR90~1\AppData\Local\Temp\cc3o48Uk.s:30800  .debug_str:000000000002be9b .LASF4414
C:\Users\CYMR90~1\AppData\Local\Temp\cc3o48Uk.s:28954  .debug_str:0000000000024881 .LASF4415
C:\Users\CYMR90~1\AppData\Local\Temp\cc3o48Uk.s:23345  .debug_str:000000000000e39c .LASF4416
C:\Users\CYMR90~1\AppData\Local\Temp\cc3o48Uk.s:27504  .debug_str:000000000001efcb .LASF4417
C:\Users\CYMR90~1\AppData\Local\Temp\cc3o48Uk.s:24965  .debug_str:0000000000014ad5 .LASF4418
C:\Users\CYMR90~1\AppData\Local\Temp\cc3o48Uk.s:20751  .debug_str:0000000000003b86 .LASF4419
C:\Users\CYMR90~1\AppData\Local\Temp\cc3o48Uk.s:26018  .debug_str:0000000000018fc1 .LASF4420
C:\Users\CYMR90~1\AppData\Local\Temp\cc3o48Uk.s:27326  .debug_str:000000000001e4f8 .LASF4421
C:\Users\CYMR90~1\AppData\Local\Temp\cc3o48Uk.s:20417  .debug_str:00000000000025f4 .LASF4422
C:\Users\CYMR90~1\AppData\Local\Temp\cc3o48Uk.s:27486  .debug_str:000000000001eea8 .LASF4423
C:\Users\CYMR90~1\AppData\Local\Temp\cc3o48Uk.s:22383  .debug_str:000000000000a476 .LASF4424
C:\Users\CYMR90~1\AppData\Local\Temp\cc3o48Uk.s:19933  .debug_str:00000000000007ef .LASF4425
C:\Users\CYMR90~1\AppData\Local\Temp\cc3o48Uk.s:26426  .debug_str:000000000001ab63 .LASF4426
C:\Users\CYMR90~1\AppData\Local\Temp\cc3o48Uk.s:29724  .debug_str:00000000000279ff .LASF4427
C:\Users\CYMR90~1\AppData\Local\Temp\cc3o48Uk.s:25117  .debug_str:0000000000015410 .LASF4428
C:\Users\CYMR90~1\AppData\Local\Temp\cc3o48Uk.s:26082  .debug_str:0000000000019458 .LASF4429
C:\Users\CYMR90~1\AppData\Local\Temp\cc3o48Uk.s:22763  .debug_str:000000000000bf1e .LASF4430
C:\Users\CYMR90~1\AppData\Local\Temp\cc3o48Uk.s:23497  .debug_str:000000000000ed47 .LASF4431
C:\Users\CYMR90~1\AppData\Local\Temp\cc3o48Uk.s:28054  .debug_str:000000000002110b .LASF4432
C:\Users\CYMR90~1\AppData\Local\Temp\cc3o48Uk.s:26162  .debug_str:0000000000019998 .LASF4433
C:\Users\CYMR90~1\AppData\Local\Temp\cc3o48Uk.s:20831  .debug_str:000000000000413f .LASF4434
C:\Users\CYMR90~1\AppData\Local\Temp\cc3o48Uk.s:22431  .debug_str:000000000000a73d .LASF4435
C:\Users\CYMR90~1\AppData\Local\Temp\cc3o48Uk.s:23115  .debug_str:000000000000d648 .LASF4436
C:\Users\CYMR90~1\AppData\Local\Temp\cc3o48Uk.s:27896  .debug_str:000000000002078f .LASF4437
C:\Users\CYMR90~1\AppData\Local\Temp\cc3o48Uk.s:27498  .debug_str:000000000001ef62 .LASF4438
C:\Users\CYMR90~1\AppData\Local\Temp\cc3o48Uk.s:25594  .debug_str:0000000000017474 .LASF4439
C:\Users\CYMR90~1\AppData\Local\Temp\cc3o48Uk.s:26530  .debug_str:000000000001b26a .LASF4440
C:\Users\CYMR90~1\AppData\Local\Temp\cc3o48Uk.s:30368  .debug_str:000000000002a267 .LASF4441
C:\Users\CYMR90~1\AppData\Local\Temp\cc3o48Uk.s:23947  .debug_str:00000000000109a1 .LASF4442
C:\Users\CYMR90~1\AppData\Local\Temp\cc3o48Uk.s:24665  .debug_str:000000000001380b .LASF4443
C:\Users\CYMR90~1\AppData\Local\Temp\cc3o48Uk.s:28002  .debug_str:0000000000020e2c .LASF4444
C:\Users\CYMR90~1\AppData\Local\Temp\cc3o48Uk.s:30476  .debug_str:000000000002a8eb .LASF4445
C:\Users\CYMR90~1\AppData\Local\Temp\cc3o48Uk.s:23735  .debug_str:000000000000fc35 .LASF4446
C:\Users\CYMR90~1\AppData\Local\Temp\cc3o48Uk.s:28396  .debug_str:00000000000225eb .LASF4447
C:\Users\CYMR90~1\AppData\Local\Temp\cc3o48Uk.s:30714  .debug_str:000000000002b8a4 .LASF4448
C:\Users\CYMR90~1\AppData\Local\Temp\cc3o48Uk.s:28902  .debug_str:00000000000244a0 .LASF4449
C:\Users\CYMR90~1\AppData\Local\Temp\cc3o48Uk.s:25395  .debug_str:00000000000165ce .LASF4450
C:\Users\CYMR90~1\AppData\Local\Temp\cc3o48Uk.s:26884  .debug_str:000000000001c850 .LASF4451
C:\Users\CYMR90~1\AppData\Local\Temp\cc3o48Uk.s:26184  .debug_str:0000000000019b0e .LASF4452
C:\Users\CYMR90~1\AppData\Local\Temp\cc3o48Uk.s:23869  .debug_str:0000000000010462 .LASF4453
C:\Users\CYMR90~1\AppData\Local\Temp\cc3o48Uk.s:24291  .debug_str:000000000001201c .LASF4454
C:\Users\CYMR90~1\AppData\Local\Temp\cc3o48Uk.s:20637  .debug_str:000000000000345f .LASF4455
C:\Users\CYMR90~1\AppData\Local\Temp\cc3o48Uk.s:21501  .debug_str:0000000000006aef .LASF4456
C:\Users\CYMR90~1\AppData\Local\Temp\cc3o48Uk.s:24347  .debug_str:00000000000123ab .LASF4457
C:\Users\CYMR90~1\AppData\Local\Temp\cc3o48Uk.s:30516  .debug_str:000000000002ab65 .LASF4458
C:\Users\CYMR90~1\AppData\Local\Temp\cc3o48Uk.s:25982  .debug_str:0000000000018db9 .LASF4459
C:\Users\CYMR90~1\AppData\Local\Temp\cc3o48Uk.s:26284  .debug_str:000000000001a0d5 .LASF4460
C:\Users\CYMR90~1\AppData\Local\Temp\cc3o48Uk.s:20019  .debug_str:0000000000000d5c .LASF4461
C:\Users\CYMR90~1\AppData\Local\Temp\cc3o48Uk.s:29728  .debug_str:0000000000027a4c .LASF4462
C:\Users\CYMR90~1\AppData\Local\Temp\cc3o48Uk.s:30976  .debug_str:000000000002ca0e .LASF4463
C:\Users\CYMR90~1\AppData\Local\Temp\cc3o48Uk.s:26864  .debug_str:000000000001c678 .LASF4464
C:\Users\CYMR90~1\AppData\Local\Temp\cc3o48Uk.s:25802  .debug_str:00000000000181cf .LASF4465
C:\Users\CYMR90~1\AppData\Local\Temp\cc3o48Uk.s:20167  .debug_str:00000000000016c7 .LASF4466
C:\Users\CYMR90~1\AppData\Local\Temp\cc3o48Uk.s:20863  .debug_str:000000000000433f .LASF4467
C:\Users\CYMR90~1\AppData\Local\Temp\cc3o48Uk.s:25263  .debug_str:0000000000015d80 .LASF4468
C:\Users\CYMR90~1\AppData\Local\Temp\cc3o48Uk.s:30436  .debug_str:000000000002a6c8 .LASF4469
C:\Users\CYMR90~1\AppData\Local\Temp\cc3o48Uk.s:29386  .debug_str:00000000000264f4 .LASF4470
C:\Users\CYMR90~1\AppData\Local\Temp\cc3o48Uk.s:30440  .debug_str:000000000002a6fc .LASF4471
C:\Users\CYMR90~1\AppData\Local\Temp\cc3o48Uk.s:26822  .debug_str:000000000001c422 .LASF4472
C:\Users\CYMR90~1\AppData\Local\Temp\cc3o48Uk.s:20117  .debug_str:00000000000013b1 .LASF4473
C:\Users\CYMR90~1\AppData\Local\Temp\cc3o48Uk.s:29164  .debug_str:00000000000256c9 .LASF4474
C:\Users\CYMR90~1\AppData\Local\Temp\cc3o48Uk.s:26724  .debug_str:000000000001be28 .LASF4475
C:\Users\CYMR90~1\AppData\Local\Temp\cc3o48Uk.s:21271  .debug_str:0000000000005cc1 .LASF4476
C:\Users\CYMR90~1\AppData\Local\Temp\cc3o48Uk.s:23367  .debug_str:000000000000e4ed .LASF4477
C:\Users\CYMR90~1\AppData\Local\Temp\cc3o48Uk.s:27836  .debug_str:0000000000020377 .LASF4478
C:\Users\CYMR90~1\AppData\Local\Temp\cc3o48Uk.s:24477  .debug_str:0000000000012c20 .LASF4479
C:\Users\CYMR90~1\AppData\Local\Temp\cc3o48Uk.s:29524  .debug_str:0000000000026d6f .LASF4480
C:\Users\CYMR90~1\AppData\Local\Temp\cc3o48Uk.s:25021  .debug_str:0000000000014ea5 .LASF4481
C:\Users\CYMR90~1\AppData\Local\Temp\cc3o48Uk.s:24769  .debug_str:0000000000013e72 .LASF4482
C:\Users\CYMR90~1\AppData\Local\Temp\cc3o48Uk.s:22859  .debug_str:000000000000c50b .LASF4483
C:\Users\CYMR90~1\AppData\Local\Temp\cc3o48Uk.s:27714  .debug_str:000000000001fc5e .LASF4484
C:\Users\CYMR90~1\AppData\Local\Temp\cc3o48Uk.s:23465  .debug_str:000000000000eb7f .LASF4485
C:\Users\CYMR90~1\AppData\Local\Temp\cc3o48Uk.s:21183  .debug_str:0000000000005759 .LASF4486
C:\Users\CYMR90~1\AppData\Local\Temp\cc3o48Uk.s:30280  .debug_str:0000000000029d4a .LASF4487
C:\Users\CYMR90~1\AppData\Local\Temp\cc3o48Uk.s:28010  .debug_str:0000000000020eb1 .LASF4488
C:\Users\CYMR90~1\AppData\Local\Temp\cc3o48Uk.s:30794  .debug_str:000000000002be56 .LASF4489
C:\Users\CYMR90~1\AppData\Local\Temp\cc3o48Uk.s:23653  .debug_str:000000000000f75e .LASF4490
C:\Users\CYMR90~1\AppData\Local\Temp\cc3o48Uk.s:22097  .debug_str:000000000000921d .LASF4491
C:\Users\CYMR90~1\AppData\Local\Temp\cc3o48Uk.s:30474  .debug_str:000000000002a8c9 .LASF4492
C:\Users\CYMR90~1\AppData\Local\Temp\cc3o48Uk.s:28102  .debug_str:000000000002149c .LASF4493
C:\Users\CYMR90~1\AppData\Local\Temp\cc3o48Uk.s:29932  .debug_str:00000000000288bb .LASF4494
C:\Users\CYMR90~1\AppData\Local\Temp\cc3o48Uk.s:21491  .debug_str:0000000000006a51 .LASF4495
C:\Users\CYMR90~1\AppData\Local\Temp\cc3o48Uk.s:28254  .debug_str:0000000000021db7 .LASF4496
C:\Users\CYMR90~1\AppData\Local\Temp\cc3o48Uk.s:30098  .debug_str:0000000000029272 .LASF4497
C:\Users\CYMR90~1\AppData\Local\Temp\cc3o48Uk.s:29828  .debug_str:00000000000281a7 .LASF4498
C:\Users\CYMR90~1\AppData\Local\Temp\cc3o48Uk.s:29126  .debug_str:000000000002541a .LASF4499
C:\Users\CYMR90~1\AppData\Local\Temp\cc3o48Uk.s:26260  .debug_str:0000000000019f87 .LASF4500
C:\Users\CYMR90~1\AppData\Local\Temp\cc3o48Uk.s:22271  .debug_str:0000000000009d37 .LASF4501
C:\Users\CYMR90~1\AppData\Local\Temp\cc3o48Uk.s:23655  .debug_str:000000000000f780 .LASF4502
C:\Users\CYMR90~1\AppData\Local\Temp\cc3o48Uk.s:20375  .debug_str:0000000000002391 .LASF4503
C:\Users\CYMR90~1\AppData\Local\Temp\cc3o48Uk.s:22417  .debug_str:000000000000a67c .LASF4504
C:\Users\CYMR90~1\AppData\Local\Temp\cc3o48Uk.s:27346  .debug_str:000000000001e66a .LASF4505
C:\Users\CYMR90~1\AppData\Local\Temp\cc3o48Uk.s:25582  .debug_str:00000000000173b7 .LASF4506
C:\Users\CYMR90~1\AppData\Local\Temp\cc3o48Uk.s:23063  .debug_str:000000000000d290 .LASF4507
C:\Users\CYMR90~1\AppData\Local\Temp\cc3o48Uk.s:30852  .debug_str:000000000002c1c1 .LASF4508
C:\Users\CYMR90~1\AppData\Local\Temp\cc3o48Uk.s:25415  .debug_str:00000000000166df .LASF4509
C:\Users\CYMR90~1\AppData\Local\Temp\cc3o48Uk.s:23843  .debug_str:00000000000102cc .LASF4510
C:\Users\CYMR90~1\AppData\Local\Temp\cc3o48Uk.s:20575  .debug_str:000000000000306b .LASF4511
C:\Users\CYMR90~1\AppData\Local\Temp\cc3o48Uk.s:28876  .debug_str:000000000002430e .LASF4512
C:\Users\CYMR90~1\AppData\Local\Temp\cc3o48Uk.s:25425  .debug_str:00000000000167e5 .LASF4513
C:\Users\CYMR90~1\AppData\Local\Temp\cc3o48Uk.s:21985  .debug_str:0000000000008b12 .LASF4514
C:\Users\CYMR90~1\AppData\Local\Temp\cc3o48Uk.s:29604  .debug_str:00000000000272c0 .LASF4515
C:\Users\CYMR90~1\AppData\Local\Temp\cc3o48Uk.s:28538  .debug_str:0000000000022e90 .LASF4516
C:\Users\CYMR90~1\AppData\Local\Temp\cc3o48Uk.s:20349  .debug_str:000000000000220c .LASF4517
C:\Users\CYMR90~1\AppData\Local\Temp\cc3o48Uk.s:21449  .debug_str:00000000000067c0 .LASF4518
C:\Users\CYMR90~1\AppData\Local\Temp\cc3o48Uk.s:29744  .debug_str:0000000000027b71 .LASF4519
C:\Users\CYMR90~1\AppData\Local\Temp\cc3o48Uk.s:27278  .debug_str:000000000001e241 .LASF4520
C:\Users\CYMR90~1\AppData\Local\Temp\cc3o48Uk.s:21809  .debug_str:0000000000008003 .LASF4521
C:\Users\CYMR90~1\AppData\Local\Temp\cc3o48Uk.s:29662  .debug_str:00000000000275e2 .LASF4522
C:\Users\CYMR90~1\AppData\Local\Temp\cc3o48Uk.s:23527  .debug_str:000000000000ef0c .LASF4523
C:\Users\CYMR90~1\AppData\Local\Temp\cc3o48Uk.s:26958  .debug_str:000000000001cd0c .LASF4524
C:\Users\CYMR90~1\AppData\Local\Temp\cc3o48Uk.s:27092  .debug_str:000000000001d622 .LASF4525
C:\Users\CYMR90~1\AppData\Local\Temp\cc3o48Uk.s:20329  .debug_str:0000000000002109 .LASF4526
C:\Users\CYMR90~1\AppData\Local\Temp\cc3o48Uk.s:23679  .debug_str:000000000000f8b1 .LASF4527
C:\Users\CYMR90~1\AppData\Local\Temp\cc3o48Uk.s:30256  .debug_str:0000000000029c1d .LASF4528
C:\Users\CYMR90~1\AppData\Local\Temp\cc3o48Uk.s:23505  .debug_str:000000000000edc7 .LASF4529
C:\Users\CYMR90~1\AppData\Local\Temp\cc3o48Uk.s:26876  .debug_str:000000000001c73a .LASF4530
C:\Users\CYMR90~1\AppData\Local\Temp\cc3o48Uk.s:22599  .debug_str:000000000000b392 .LASF4531
C:\Users\CYMR90~1\AppData\Local\Temp\cc3o48Uk.s:28852  .debug_str:0000000000024169 .LASF4532
C:\Users\CYMR90~1\AppData\Local\Temp\cc3o48Uk.s:23901  .debug_str:00000000000106e9 .LASF4533
C:\Users\CYMR90~1\AppData\Local\Temp\cc3o48Uk.s:20423  .debug_str:000000000000267b .LASF4534
C:\Users\CYMR90~1\AppData\Local\Temp\cc3o48Uk.s:26554  .debug_str:000000000001b3e1 .LASF4535
C:\Users\CYMR90~1\AppData\Local\Temp\cc3o48Uk.s:21195  .debug_str:0000000000005828 .LASF4536
C:\Users\CYMR90~1\AppData\Local\Temp\cc3o48Uk.s:19989  .debug_str:0000000000000bb8 .LASF4537
C:\Users\CYMR90~1\AppData\Local\Temp\cc3o48Uk.s:21031  .debug_str:0000000000004e56 .LASF4538
C:\Users\CYMR90~1\AppData\Local\Temp\cc3o48Uk.s:21671  .debug_str:00000000000075d4 .LASF4539
C:\Users\CYMR90~1\AppData\Local\Temp\cc3o48Uk.s:29340  .debug_str:0000000000026242 .LASF4540
C:\Users\CYMR90~1\AppData\Local\Temp\cc3o48Uk.s:20333  .debug_str:000000000000213e .LASF4541
C:\Users\CYMR90~1\AppData\Local\Temp\cc3o48Uk.s:28070  .debug_str:0000000000021217 .LASF4542
C:\Users\CYMR90~1\AppData\Local\Temp\cc3o48Uk.s:26252  .debug_str:0000000000019f16 .LASF4543
C:\Users\CYMR90~1\AppData\Local\Temp\cc3o48Uk.s:28776  .debug_str:0000000000023c43 .LASF4544
C:\Users\CYMR90~1\AppData\Local\Temp\cc3o48Uk.s:22021  .debug_str:0000000000008dca .LASF4545
C:\Users\CYMR90~1\AppData\Local\Temp\cc3o48Uk.s:27700  .debug_str:000000000001fb86 .LASF4546
C:\Users\CYMR90~1\AppData\Local\Temp\cc3o48Uk.s:28312  .debug_str:0000000000022139 .LASF4547
C:\Users\CYMR90~1\AppData\Local\Temp\cc3o48Uk.s:25874  .debug_str:000000000001865d .LASF4548
C:\Users\CYMR90~1\AppData\Local\Temp\cc3o48Uk.s:28402  .debug_str:000000000002266d .LASF4549
C:\Users\CYMR90~1\AppData\Local\Temp\cc3o48Uk.s:25345  .debug_str:00000000000162aa .LASF4550
C:\Users\CYMR90~1\AppData\Local\Temp\cc3o48Uk.s:25245  .debug_str:0000000000015c3f .LASF4551
C:\Users\CYMR90~1\AppData\Local\Temp\cc3o48Uk.s:24821  .debug_str:00000000000141c7 .LASF4552
C:\Users\CYMR90~1\AppData\Local\Temp\cc3o48Uk.s:27416  .debug_str:000000000001eabd .LASF4553
C:\Users\CYMR90~1\AppData\Local\Temp\cc3o48Uk.s:24067  .debug_str:0000000000011115 .LASF4554
C:\Users\CYMR90~1\AppData\Local\Temp\cc3o48Uk.s:27134  .debug_str:000000000001d916 .LASF4555
C:\Users\CYMR90~1\AppData\Local\Temp\cc3o48Uk.s:31032  .debug_str:000000000002cdf5 .LASF4556
C:\Users\CYMR90~1\AppData\Local\Temp\cc3o48Uk.s:23355  .debug_str:000000000000e443 .LASF4557
C:\Users\CYMR90~1\AppData\Local\Temp\cc3o48Uk.s:25832  .debug_str:0000000000018398 .LASF4558
C:\Users\CYMR90~1\AppData\Local\Temp\cc3o48Uk.s:20203  .debug_str:00000000000019b4 .LASF4559
C:\Users\CYMR90~1\AppData\Local\Temp\cc3o48Uk.s:20817  .debug_str:0000000000003fc5 .LASF4560
C:\Users\CYMR90~1\AppData\Local\Temp\cc3o48Uk.s:20821  .debug_str:0000000000004095 .LASF4561
C:\Users\CYMR90~1\AppData\Local\Temp\cc3o48Uk.s:23977  .debug_str:0000000000010bf9 .LASF4562
C:\Users\CYMR90~1\AppData\Local\Temp\cc3o48Uk.s:28796  .debug_str:0000000000023d58 .LASF4563
C:\Users\CYMR90~1\AppData\Local\Temp\cc3o48Uk.s:25339  .debug_str:000000000001625f .LASF4564
C:\Users\CYMR90~1\AppData\Local\Temp\cc3o48Uk.s:22413  .debug_str:000000000000a63e .LASF4565
C:\Users\CYMR90~1\AppData\Local\Temp\cc3o48Uk.s:19965  .debug_str:00000000000009cb .LASF4566
C:\Users\CYMR90~1\AppData\Local\Temp\cc3o48Uk.s:21753  .debug_str:0000000000007b59 .LASF4567
C:\Users\CYMR90~1\AppData\Local\Temp\cc3o48Uk.s:29220  .debug_str:0000000000025ab4 .LASF4568
C:\Users\CYMR90~1\AppData\Local\Temp\cc3o48Uk.s:28860  .debug_str:00000000000241e2 .LASF4569
C:\Users\CYMR90~1\AppData\Local\Temp\cc3o48Uk.s:22149  .debug_str:0000000000009573 .LASF4570
C:\Users\CYMR90~1\AppData\Local\Temp\cc3o48Uk.s:25123  .debug_str:0000000000015468 .LASF4571
C:\Users\CYMR90~1\AppData\Local\Temp\cc3o48Uk.s:30646  .debug_str:000000000002b411 .LASF4572
C:\Users\CYMR90~1\AppData\Local\Temp\cc3o48Uk.s:24011  .debug_str:0000000000010db2 .LASF4573
C:\Users\CYMR90~1\AppData\Local\Temp\cc3o48Uk.s:26126  .debug_str:00000000000196de .LASF4574
C:\Users\CYMR90~1\AppData\Local\Temp\cc3o48Uk.s:27158  .debug_str:000000000001da76 .LASF4575
C:\Users\CYMR90~1\AppData\Local\Temp\cc3o48Uk.s:25329  .debug_str:00000000000161be .LASF4576
C:\Users\CYMR90~1\AppData\Local\Temp\cc3o48Uk.s:22031  .debug_str:0000000000008e68 .LASF4577
C:\Users\CYMR90~1\AppData\Local\Temp\cc3o48Uk.s:26130  .debug_str:0000000000019726 .LASF4578
C:\Users\CYMR90~1\AppData\Local\Temp\cc3o48Uk.s:25928  .debug_str:00000000000189ae .LASF4579
C:\Users\CYMR90~1\AppData\Local\Temp\cc3o48Uk.s:25592  .debug_str:0000000000017452 .LASF4580
C:\Users\CYMR90~1\AppData\Local\Temp\cc3o48Uk.s:22145  .debug_str:000000000000953e .LASF4581
C:\Users\CYMR90~1\AppData\Local\Temp\cc3o48Uk.s:20767  .debug_str:0000000000003cb9 .LASF4582
C:\Users\CYMR90~1\AppData\Local\Temp\cc3o48Uk.s:29624  .debug_str:00000000000273c2 .LASF4583
C:\Users\CYMR90~1\AppData\Local\Temp\cc3o48Uk.s:23327  .debug_str:000000000000e2aa .LASF4584
C:\Users\CYMR90~1\AppData\Local\Temp\cc3o48Uk.s:20809  .debug_str:0000000000003f42 .LASF4585
C:\Users\CYMR90~1\AppData\Local\Temp\cc3o48Uk.s:24955  .debug_str:0000000000014a27 .LASF4586
C:\Users\CYMR90~1\AppData\Local\Temp\cc3o48Uk.s:23321  .debug_str:000000000000e24e .LASF4587
C:\Users\CYMR90~1\AppData\Local\Temp\cc3o48Uk.s:20359  .debug_str:00000000000022b6 .LASF4588
C:\Users\CYMR90~1\AppData\Local\Temp\cc3o48Uk.s:30482  .debug_str:000000000002a94f .LASF4589
C:\Users\CYMR90~1\AppData\Local\Temp\cc3o48Uk.s:21935  .debug_str:00000000000087d7 .LASF4590
C:\Users\CYMR90~1\AppData\Local\Temp\cc3o48Uk.s:20533  .debug_str:0000000000002dbd .LASF4591
C:\Users\CYMR90~1\AppData\Local\Temp\cc3o48Uk.s:24475  .debug_str:0000000000012c0a .LASF4592
C:\Users\CYMR90~1\AppData\Local\Temp\cc3o48Uk.s:30210  .debug_str:0000000000029939 .LASF4593
C:\Users\CYMR90~1\AppData\Local\Temp\cc3o48Uk.s:22773  .debug_str:000000000000bfdf .LASF4594
C:\Users\CYMR90~1\AppData\Local\Temp\cc3o48Uk.s:26286  .debug_str:000000000001a0ec .LASF4595
C:\Users\CYMR90~1\AppData\Local\Temp\cc3o48Uk.s:29168  .debug_str:0000000000025717 .LASF4596
C:\Users\CYMR90~1\AppData\Local\Temp\cc3o48Uk.s:25057  .debug_str:0000000000015106 .LASF4597
C:\Users\CYMR90~1\AppData\Local\Temp\cc3o48Uk.s:31004  .debug_str:000000000002cb97 .LASF4598
C:\Users\CYMR90~1\AppData\Local\Temp\cc3o48Uk.s:29878  .debug_str:0000000000028534 .LASF4599
C:\Users\CYMR90~1\AppData\Local\Temp\cc3o48Uk.s:28622  .debug_str:000000000002330a .LASF4600
C:\Users\CYMR90~1\AppData\Local\Temp\cc3o48Uk.s:27448  .debug_str:000000000001ec7b .LASF4601
C:\Users\CYMR90~1\AppData\Local\Temp\cc3o48Uk.s:23871  .debug_str:00000000000104a0 .LASF4602
C:\Users\CYMR90~1\AppData\Local\Temp\cc3o48Uk.s:30898  .debug_str:000000000002c520 .LASF4603
C:\Users\CYMR90~1\AppData\Local\Temp\cc3o48Uk.s:29038  .debug_str:0000000000024dac .LASF4604
C:\Users\CYMR90~1\AppData\Local\Temp\cc3o48Uk.s:28950  .debug_str:00000000000247a4 .LASF4605
C:\Users\CYMR90~1\AppData\Local\Temp\cc3o48Uk.s:21543  .debug_str:0000000000006dab .LASF4606
C:\Users\CYMR90~1\AppData\Local\Temp\cc3o48Uk.s:25383  .debug_str:0000000000016513 .LASF4607
C:\Users\CYMR90~1\AppData\Local\Temp\cc3o48Uk.s:29692  .debug_str:00000000000277c1 .LASF4608
C:\Users\CYMR90~1\AppData\Local\Temp\cc3o48Uk.s:26940  .debug_str:000000000001cbc7 .LASF4609
C:\Users\CYMR90~1\AppData\Local\Temp\cc3o48Uk.s:29522  .debug_str:0000000000026d4a .LASF4610
C:\Users\CYMR90~1\AppData\Local\Temp\cc3o48Uk.s:25702  .debug_str:0000000000017bbd .LASF4611
C:\Users\CYMR90~1\AppData\Local\Temp\cc3o48Uk.s:28642  .debug_str:0000000000023463 .LASF4612
C:\Users\CYMR90~1\AppData\Local\Temp\cc3o48Uk.s:21831  .debug_str:0000000000008181 .LASF4613
C:\Users\CYMR90~1\AppData\Local\Temp\cc3o48Uk.s:24065  .debug_str:00000000000110f5 .LASF4614
C:\Users\CYMR90~1\AppData\Local\Temp\cc3o48Uk.s:22459  .debug_str:000000000000a9dd .LASF4615
C:\Users\CYMR90~1\AppData\Local\Temp\cc3o48Uk.s:21419  .debug_str:00000000000065a2 .LASF4616
C:\Users\CYMR90~1\AppData\Local\Temp\cc3o48Uk.s:25377  .debug_str:00000000000164c6 .LASF4617
C:\Users\CYMR90~1\AppData\Local\Temp\cc3o48Uk.s:26548  .debug_str:000000000001b37e .LASF4618
C:\Users\CYMR90~1\AppData\Local\Temp\cc3o48Uk.s:20799  .debug_str:0000000000003ed9 .LASF4619
C:\Users\CYMR90~1\AppData\Local\Temp\cc3o48Uk.s:29242  .debug_str:0000000000025c0d .LASF4620
C:\Users\CYMR90~1\AppData\Local\Temp\cc3o48Uk.s:23403  .debug_str:000000000000e768 .LASF4621
C:\Users\CYMR90~1\AppData\Local\Temp\cc3o48Uk.s:20309  .debug_str:0000000000001fee .LASF4622
C:\Users\CYMR90~1\AppData\Local\Temp\cc3o48Uk.s:24855  .debug_str:00000000000143c5 .LASF4623
C:\Users\CYMR90~1\AppData\Local\Temp\cc3o48Uk.s:22561  .debug_str:000000000000b14f .LASF4624
C:\Users\CYMR90~1\AppData\Local\Temp\cc3o48Uk.s:27966  .debug_str:0000000000020c17 .LASF4625
C:\Users\CYMR90~1\AppData\Local\Temp\cc3o48Uk.s:29352  .debug_str:00000000000262d5 .LASF4626
C:\Users\CYMR90~1\AppData\Local\Temp\cc3o48Uk.s:27664  .debug_str:000000000001f970 .LASF4627
C:\Users\CYMR90~1\AppData\Local\Temp\cc3o48Uk.s:28256  .debug_str:0000000000021ddb .LASF4628
C:\Users\CYMR90~1\AppData\Local\Temp\cc3o48Uk.s:26514  .debug_str:000000000001b13f .LASF4629
C:\Users\CYMR90~1\AppData\Local\Temp\cc3o48Uk.s:19835  .debug_str:000000000000021f .LASF4630
C:\Users\CYMR90~1\AppData\Local\Temp\cc3o48Uk.s:29304  .debug_str:0000000000025ffb .LASF4631
C:\Users\CYMR90~1\AppData\Local\Temp\cc3o48Uk.s:28780  .debug_str:0000000000023c7b .LASF4632
C:\Users\CYMR90~1\AppData\Local\Temp\cc3o48Uk.s:21453  .debug_str:00000000000067f6 .LASF4633
C:\Users\CYMR90~1\AppData\Local\Temp\cc3o48Uk.s:28172  .debug_str:00000000000218c7 .LASF4634
C:\Users\CYMR90~1\AppData\Local\Temp\cc3o48Uk.s:21413  .debug_str:0000000000006543 .LASF4635
C:\Users\CYMR90~1\AppData\Local\Temp\cc3o48Uk.s:21053  .debug_str:0000000000004f92 .LASF4636
C:\Users\CYMR90~1\AppData\Local\Temp\cc3o48Uk.s:28500  .debug_str:0000000000022c71 .LASF4637
C:\Users\CYMR90~1\AppData\Local\Temp\cc3o48Uk.s:28452  .debug_str:0000000000022952 .LASF4638
C:\Users\CYMR90~1\AppData\Local\Temp\cc3o48Uk.s:24871  .debug_str:0000000000014511 .LASF4639
C:\Users\CYMR90~1\AppData\Local\Temp\cc3o48Uk.s:19973  .debug_str:0000000000000a5e .LASF4640
C:\Users\CYMR90~1\AppData\Local\Temp\cc3o48Uk.s:24639  .debug_str:000000000001367e .LASF4641
C:\Users\CYMR90~1\AppData\Local\Temp\cc3o48Uk.s:25780  .debug_str:0000000000018047 .LASF4642
C:\Users\CYMR90~1\AppData\Local\Temp\cc3o48Uk.s:24541  .debug_str:000000000001303c .LASF4643
C:\Users\CYMR90~1\AppData\Local\Temp\cc3o48Uk.s:26982  .debug_str:000000000001cf2c .LASF4644
C:\Users\CYMR90~1\AppData\Local\Temp\cc3o48Uk.s:24993  .debug_str:0000000000014cea .LASF4645
C:\Users\CYMR90~1\AppData\Local\Temp\cc3o48Uk.s:20343  .debug_str:00000000000021ac .LASF4646
C:\Users\CYMR90~1\AppData\Local\Temp\cc3o48Uk.s:21783  .debug_str:0000000000007dda .LASF4647
C:\Users\CYMR90~1\AppData\Local\Temp\cc3o48Uk.s:22829  .debug_str:000000000000c32f .LASF4648
C:\Users\CYMR90~1\AppData\Local\Temp\cc3o48Uk.s:25145  .debug_str:00000000000155a9 .LASF4649
C:\Users\CYMR90~1\AppData\Local\Temp\cc3o48Uk.s:26674  .debug_str:000000000001bacc .LASF4650
C:\Users\CYMR90~1\AppData\Local\Temp\cc3o48Uk.s:20885  .debug_str:000000000000449e .LASF4651
C:\Users\CYMR90~1\AppData\Local\Temp\cc3o48Uk.s:21911  .debug_str:0000000000008664 .LASF4652
C:\Users\CYMR90~1\AppData\Local\Temp\cc3o48Uk.s:20935  .debug_str:000000000000489b .LASF4653
C:\Users\CYMR90~1\AppData\Local\Temp\cc3o48Uk.s:27258  .debug_str:000000000001e10c .LASF4654
C:\Users\CYMR90~1\AppData\Local\Temp\cc3o48Uk.s:28878  .debug_str:000000000002432a .LASF4655
C:\Users\CYMR90~1\AppData\Local\Temp\cc3o48Uk.s:30384  .debug_str:000000000002a39f .LASF4656
C:\Users\CYMR90~1\AppData\Local\Temp\cc3o48Uk.s:23721  .debug_str:000000000000fb35 .LASF4657
C:\Users\CYMR90~1\AppData\Local\Temp\cc3o48Uk.s:28278  .debug_str:0000000000021f29 .LASF4658
C:\Users\CYMR90~1\AppData\Local\Temp\cc3o48Uk.s:29818  .debug_str:000000000002810c .LASF4659
C:\Users\CYMR90~1\AppData\Local\Temp\cc3o48Uk.s:28666  .debug_str:00000000000235e2 .LASF4660
C:\Users\CYMR90~1\AppData\Local\Temp\cc3o48Uk.s:25013  .debug_str:0000000000014e3a .LASF4661
C:\Users\CYMR90~1\AppData\Local\Temp\cc3o48Uk.s:30590  .debug_str:000000000002afde .LASF4662
C:\Users\CYMR90~1\AppData\Local\Temp\cc3o48Uk.s:22597  .debug_str:000000000000b369 .LASF4663
C:\Users\CYMR90~1\AppData\Local\Temp\cc3o48Uk.s:30082  .debug_str:0000000000029199 .LASF4664
C:\Users\CYMR90~1\AppData\Local\Temp\cc3o48Uk.s:25097  .debug_str:000000000001530d .LASF4665
C:\Users\CYMR90~1\AppData\Local\Temp\cc3o48Uk.s:28162  .debug_str:000000000002182a .LASF4666
C:\Users\CYMR90~1\AppData\Local\Temp\cc3o48Uk.s:30492  .debug_str:000000000002a9eb .LASF4667
C:\Users\CYMR90~1\AppData\Local\Temp\cc3o48Uk.s:19943  .debug_str:0000000000000886 .LASF4668
C:\Users\CYMR90~1\AppData\Local\Temp\cc3o48Uk.s:19887  .debug_str:0000000000000518 .LASF4669
C:\Users\CYMR90~1\AppData\Local\Temp\cc3o48Uk.s:27462  .debug_str:000000000001ed3a .LASF4670
C:\Users\CYMR90~1\AppData\Local\Temp\cc3o48Uk.s:22335  .debug_str:000000000000a132 .LASF4671
C:\Users\CYMR90~1\AppData\Local\Temp\cc3o48Uk.s:21159  .debug_str:00000000000055f0 .LASF4672
C:\Users\CYMR90~1\AppData\Local\Temp\cc3o48Uk.s:29902  .debug_str:00000000000286c5 .LASF4673
C:\Users\CYMR90~1\AppData\Local\Temp\cc3o48Uk.s:25922  .debug_str:000000000001893c .LASF4674
C:\Users\CYMR90~1\AppData\Local\Temp\cc3o48Uk.s:20441  .debug_str:00000000000027cc .LASF4675
C:\Users\CYMR90~1\AppData\Local\Temp\cc3o48Uk.s:26166  .debug_str:00000000000199eb .LASF4676
C:\Users\CYMR90~1\AppData\Local\Temp\cc3o48Uk.s:27518  .debug_str:000000000001f0bd .LASF4677
C:\Users\CYMR90~1\AppData\Local\Temp\cc3o48Uk.s:19981  .debug_str:0000000000000b24 .LASF4678
C:\Users\CYMR90~1\AppData\Local\Temp\cc3o48Uk.s:21395  .debug_str:000000000000644c .LASF4679
C:\Users\CYMR90~1\AppData\Local\Temp\cc3o48Uk.s:24391  .debug_str:0000000000012682 .LASF4680
C:\Users\CYMR90~1\AppData\Local\Temp\cc3o48Uk.s:26788  .debug_str:000000000001c235 .LASF4681
C:\Users\CYMR90~1\AppData\Local\Temp\cc3o48Uk.s:26998  .debug_str:000000000001d0af .LASF4682
C:\Users\CYMR90~1\AppData\Local\Temp\cc3o48Uk.s:30540  .debug_str:000000000002acef .LASF4683
C:\Users\CYMR90~1\AppData\Local\Temp\cc3o48Uk.s:22749  .debug_str:000000000000be10 .LASF4684
C:\Users\CYMR90~1\AppData\Local\Temp\cc3o48Uk.s:25752  .debug_str:0000000000017ee5 .LASF4685
C:\Users\CYMR90~1\AppData\Local\Temp\cc3o48Uk.s:24745  .debug_str:0000000000013cd6 .LASF4686
C:\Users\CYMR90~1\AppData\Local\Temp\cc3o48Uk.s:25740  .debug_str:0000000000017df1 .LASF4687
C:\Users\CYMR90~1\AppData\Local\Temp\cc3o48Uk.s:27952  .debug_str:0000000000020b3c .LASF4688
C:\Users\CYMR90~1\AppData\Local\Temp\cc3o48Uk.s:27956  .debug_str:0000000000020b75 .LASF4689
C:\Users\CYMR90~1\AppData\Local\Temp\cc3o48Uk.s:20553  .debug_str:0000000000002ee5 .LASF4690
C:\Users\CYMR90~1\AppData\Local\Temp\cc3o48Uk.s:23813  .debug_str:0000000000010116 .LASF4691
C:\Users\CYMR90~1\AppData\Local\Temp\cc3o48Uk.s:24435  .debug_str:000000000001294f .LASF4692
C:\Users\CYMR90~1\AppData\Local\Temp\cc3o48Uk.s:21945  .debug_str:000000000000889c .LASF4693
C:\Users\CYMR90~1\AppData\Local\Temp\cc3o48Uk.s:23685  .debug_str:000000000000f907 .LASF4694
C:\Users\CYMR90~1\AppData\Local\Temp\cc3o48Uk.s:20497  .debug_str:0000000000002ba3 .LASF4695
C:\Users\CYMR90~1\AppData\Local\Temp\cc3o48Uk.s:23709  .debug_str:000000000000fa94 .LASF4696
C:\Users\CYMR90~1\AppData\Local\Temp\cc3o48Uk.s:25544  .debug_str:0000000000017163 .LASF4697
C:\Users\CYMR90~1\AppData\Local\Temp\cc3o48Uk.s:23187  .debug_str:000000000000da4d .LASF4698
C:\Users\CYMR90~1\AppData\Local\Temp\cc3o48Uk.s:25628  .debug_str:00000000000176e0 .LASF4699
C:\Users\CYMR90~1\AppData\Local\Temp\cc3o48Uk.s:22221  .debug_str:0000000000009a1e .LASF4700
C:\Users\CYMR90~1\AppData\Local\Temp\cc3o48Uk.s:25007  .debug_str:0000000000014ddc .LASF4701
C:\Users\CYMR90~1\AppData\Local\Temp\cc3o48Uk.s:21965  .debug_str:00000000000089e5 .LASF4702
C:\Users\CYMR90~1\AppData\Local\Temp\cc3o48Uk.s:21901  .debug_str:00000000000085ca .LASF4703
C:\Users\CYMR90~1\AppData\Local\Temp\cc3o48Uk.s:30538  .debug_str:000000000002acca .LASF4704
C:\Users\CYMR90~1\AppData\Local\Temp\cc3o48Uk.s:28834  .debug_str:0000000000024034 .LASF4705
C:\Users\CYMR90~1\AppData\Local\Temp\cc3o48Uk.s:30524  .debug_str:000000000002abff .LASF4706
C:\Users\CYMR90~1\AppData\Local\Temp\cc3o48Uk.s:25812  .debug_str:0000000000018251 .LASF4707
C:\Users\CYMR90~1\AppData\Local\Temp\cc3o48Uk.s:30010  .debug_str:0000000000028d44 .LASF4708
C:\Users\CYMR90~1\AppData\Local\Temp\cc3o48Uk.s:29690  .debug_str:000000000002779f .LASF4709
C:\Users\CYMR90~1\AppData\Local\Temp\cc3o48Uk.s:22197  .debug_str:0000000000009877 .LASF4710
C:\Users\CYMR90~1\AppData\Local\Temp\cc3o48Uk.s:29438  .debug_str:0000000000026819 .LASF4711
C:\Users\CYMR90~1\AppData\Local\Temp\cc3o48Uk.s:25796  .debug_str:0000000000018166 .LASF4712
C:\Users\CYMR90~1\AppData\Local\Temp\cc3o48Uk.s:25710  .debug_str:0000000000017c1e .LASF4713
C:\Users\CYMR90~1\AppData\Local\Temp\cc3o48Uk.s:29566  .debug_str:0000000000026f9a .LASF4714
C:\Users\CYMR90~1\AppData\Local\Temp\cc3o48Uk.s:23579  .debug_str:000000000000f240 .LASF4715
C:\Users\CYMR90~1\AppData\Local\Temp\cc3o48Uk.s:26962  .debug_str:000000000001cd50 .LASF4716
C:\Users\CYMR90~1\AppData\Local\Temp\cc3o48Uk.s:25996  .debug_str:0000000000018eab .LASF4717
C:\Users\CYMR90~1\AppData\Local\Temp\cc3o48Uk.s:22907  .debug_str:000000000000c850 .LASF4718
C:\Users\CYMR90~1\AppData\Local\Temp\cc3o48Uk.s:29094  .debug_str:0000000000025222 .LASF4719
C:\Users\CYMR90~1\AppData\Local\Temp\cc3o48Uk.s:22327  .debug_str:000000000000a0bc .LASF4720
C:\Users\CYMR90~1\AppData\Local\Temp\cc3o48Uk.s:28916  .debug_str:0000000000024588 .LASF4721
C:\Users\CYMR90~1\AppData\Local\Temp\cc3o48Uk.s:26728  .debug_str:000000000001be72 .LASF4722
C:\Users\CYMR90~1\AppData\Local\Temp\cc3o48Uk.s:25315  .debug_str:00000000000160fa .LASF4723
C:\Users\CYMR90~1\AppData\Local\Temp\cc3o48Uk.s:23891  .debug_str:000000000001066c .LASF4724
C:\Users\CYMR90~1\AppData\Local\Temp\cc3o48Uk.s:27760  .debug_str:000000000001ff41 .LASF4725
C:\Users\CYMR90~1\AppData\Local\Temp\cc3o48Uk.s:27268  .debug_str:000000000001e1a3 .LASF4726
C:\Users\CYMR90~1\AppData\Local\Temp\cc3o48Uk.s:26806  .debug_str:000000000001c339 .LASF4727
C:\Users\CYMR90~1\AppData\Local\Temp\cc3o48Uk.s:24901  .debug_str:00000000000146f3 .LASF4728
C:\Users\CYMR90~1\AppData\Local\Temp\cc3o48Uk.s:20877  .debug_str:000000000000441d .LASF4729
C:\Users\CYMR90~1\AppData\Local\Temp\cc3o48Uk.s:26448  .debug_str:000000000001aca0 .LASF4730
C:\Users\CYMR90~1\AppData\Local\Temp\cc3o48Uk.s:26508  .debug_str:000000000001b0d4 .LASF4731
C:\Users\CYMR90~1\AppData\Local\Temp\cc3o48Uk.s:23631  .debug_str:000000000000f562 .LASF4732
C:\Users\CYMR90~1\AppData\Local\Temp\cc3o48Uk.s:22743  .debug_str:000000000000bd7c .LASF4733
C:\Users\CYMR90~1\AppData\Local\Temp\cc3o48Uk.s:19807  .debug_str:000000000000006a .LASF4734
C:\Users\CYMR90~1\AppData\Local\Temp\cc3o48Uk.s:22819  .debug_str:000000000000c2ac .LASF4735
C:\Users\CYMR90~1\AppData\Local\Temp\cc3o48Uk.s:21415  .debug_str:0000000000006566 .LASF4736
C:\Users\CYMR90~1\AppData\Local\Temp\cc3o48Uk.s:30738  .debug_str:000000000002ba4b .LASF4737
C:\Users\CYMR90~1\AppData\Local\Temp\cc3o48Uk.s:25151  .debug_str:00000000000155fa .LASF4738
C:\Users\CYMR90~1\AppData\Local\Temp\cc3o48Uk.s:22777  .debug_str:000000000000c012 .LASF4739
C:\Users\CYMR90~1\AppData\Local\Temp\cc3o48Uk.s:24997  .debug_str:0000000000014d31 .LASF4740
C:\Users\CYMR90~1\AppData\Local\Temp\cc3o48Uk.s:22659  .debug_str:000000000000b7b1 .LASF4741
C:\Users\CYMR90~1\AppData\Local\Temp\cc3o48Uk.s:25199  .debug_str:0000000000015900 .LASF4742
C:\Users\CYMR90~1\AppData\Local\Temp\cc3o48Uk.s:24083  .debug_str:00000000000111f0 .LASF4743
C:\Users\CYMR90~1\AppData\Local\Temp\cc3o48Uk.s:29362  .debug_str:000000000002637e .LASF4744
C:\Users\CYMR90~1\AppData\Local\Temp\cc3o48Uk.s:24313  .debug_str:0000000000012188 .LASF4745
C:\Users\CYMR90~1\AppData\Local\Temp\cc3o48Uk.s:25069  .debug_str:00000000000151a8 .LASF4746
C:\Users\CYMR90~1\AppData\Local\Temp\cc3o48Uk.s:23993  .debug_str:0000000000010cd9 .LASF4747
C:\Users\CYMR90~1\AppData\Local\Temp\cc3o48Uk.s:29880  .debug_str:0000000000028556 .LASF4748
C:\Users\CYMR90~1\AppData\Local\Temp\cc3o48Uk.s:21673  .debug_str:00000000000075f6 .LASF4749
C:\Users\CYMR90~1\AppData\Local\Temp\cc3o48Uk.s:25015  .debug_str:0000000000014e63 .LASF4750
C:\Users\CYMR90~1\AppData\Local\Temp\cc3o48Uk.s:30806  .debug_str:000000000002bf0d .LASF4751
C:\Users\CYMR90~1\AppData\Local\Temp\cc3o48Uk.s:27980  .debug_str:0000000000020cfe .LASF4752
C:\Users\CYMR90~1\AppData\Local\Temp\cc3o48Uk.s:20005  .debug_str:0000000000000c92 .LASF4753
C:\Users\CYMR90~1\AppData\Local\Temp\cc3o48Uk.s:22701  .debug_str:000000000000bad7 .LASF4754
C:\Users\CYMR90~1\AppData\Local\Temp\cc3o48Uk.s:27708  .debug_str:000000000001fc0c .LASF4755
C:\Users\CYMR90~1\AppData\Local\Temp\cc3o48Uk.s:20963  .debug_str:0000000000004a35 .LASF4756
C:\Users\CYMR90~1\AppData\Local\Temp\cc3o48Uk.s:21869  .debug_str:00000000000083f4 .LASF4757
C:\Users\CYMR90~1\AppData\Local\Temp\cc3o48Uk.s:24499  .debug_str:0000000000012d81 .LASF4758
C:\Users\CYMR90~1\AppData\Local\Temp\cc3o48Uk.s:23929  .debug_str:000000000001085f .LASF4759
C:\Users\CYMR90~1\AppData\Local\Temp\cc3o48Uk.s:28268  .debug_str:0000000000021ea8 .LASF4760
C:\Users\CYMR90~1\AppData\Local\Temp\cc3o48Uk.s:27320  .debug_str:000000000001e4ae .LASF4761
C:\Users\CYMR90~1\AppData\Local\Temp\cc3o48Uk.s:21081  .debug_str:0000000000005153 .LASF4762
C:\Users\CYMR90~1\AppData\Local\Temp\cc3o48Uk.s:28104  .debug_str:00000000000214c0 .LASF4763
C:\Users\CYMR90~1\AppData\Local\Temp\cc3o48Uk.s:30950  .debug_str:000000000002c87d .LASF4764
C:\Users\CYMR90~1\AppData\Local\Temp\cc3o48Uk.s:21313  .debug_str:0000000000005f2e .LASF4765
C:\Users\CYMR90~1\AppData\Local\Temp\cc3o48Uk.s:26246  .debug_str:0000000000019eb7 .LASF4766
C:\Users\CYMR90~1\AppData\Local\Temp\cc3o48Uk.s:25083  .debug_str:0000000000015246 .LASF4767
C:\Users\CYMR90~1\AppData\Local\Temp\cc3o48Uk.s:27764  .debug_str:000000000001ff96 .LASF4768
C:\Users\CYMR90~1\AppData\Local\Temp\cc3o48Uk.s:29914  .debug_str:0000000000028787 .LASF4769
C:\Users\CYMR90~1\AppData\Local\Temp\cc3o48Uk.s:24723  .debug_str:0000000000013b80 .LASF4770
C:\Users\CYMR90~1\AppData\Local\Temp\cc3o48Uk.s:24651  .debug_str:000000000001372e .LASF4771
C:\Users\CYMR90~1\AppData\Local\Temp\cc3o48Uk.s:20395  .debug_str:00000000000024da .LASF4772
C:\Users\CYMR90~1\AppData\Local\Temp\cc3o48Uk.s:27372  .debug_str:000000000001e824 .LASF4773
C:\Users\CYMR90~1\AppData\Local\Temp\cc3o48Uk.s:26826  .debug_str:000000000001c456 .LASF4774
C:\Users\CYMR90~1\AppData\Local\Temp\cc3o48Uk.s:29148  .debug_str:00000000000255bc .LASF4775
C:\Users\CYMR90~1\AppData\Local\Temp\cc3o48Uk.s:21457  .debug_str:000000000000683e .LASF4776
C:\Users\CYMR90~1\AppData\Local\Temp\cc3o48Uk.s:27190  .debug_str:000000000001dc61 .LASF4777
C:\Users\CYMR90~1\AppData\Local\Temp\cc3o48Uk.s:22053  .debug_str:0000000000008fb5 .LASF4778
C:\Users\CYMR90~1\AppData\Local\Temp\cc3o48Uk.s:22223  .debug_str:0000000000009a41 .LASF4779
C:\Users\CYMR90~1\AppData\Local\Temp\cc3o48Uk.s:30298  .debug_str:0000000000029e5c .LASF4780
C:\Users\CYMR90~1\AppData\Local\Temp\cc3o48Uk.s:30830  .debug_str:000000000002c07e .LASF4781
C:\Users\CYMR90~1\AppData\Local\Temp\cc3o48Uk.s:24945  .debug_str:00000000000149a1 .LASF4782
C:\Users\CYMR90~1\AppData\Local\Temp\cc3o48Uk.s:25363  .debug_str:0000000000016385 .LASF4783
C:\Users\CYMR90~1\AppData\Local\Temp\cc3o48Uk.s:24433  .debug_str:0000000000012937 .LASF4784
C:\Users\CYMR90~1\AppData\Local\Temp\cc3o48Uk.s:25337  .debug_str:0000000000016246 .LASF4785
C:\Users\CYMR90~1\AppData\Local\Temp\cc3o48Uk.s:25011  .debug_str:0000000000014e21 .LASF4786
C:\Users\CYMR90~1\AppData\Local\Temp\cc3o48Uk.s:21595  .debug_str:0000000000007136 .LASF4787
C:\Users\CYMR90~1\AppData\Local\Temp\cc3o48Uk.s:25792  .debug_str:0000000000018129 .LASF4788
C:\Users\CYMR90~1\AppData\Local\Temp\cc3o48Uk.s:23671  .debug_str:000000000000f848 .LASF4789
C:\Users\CYMR90~1\AppData\Local\Temp\cc3o48Uk.s:25183  .debug_str:000000000001580a .LASF4790
C:\Users\CYMR90~1\AppData\Local\Temp\cc3o48Uk.s:21739  .debug_str:0000000000007a82 .LASF4791
C:\Users\CYMR90~1\AppData\Local\Temp\cc3o48Uk.s:26466  .debug_str:000000000001adc4 .LASF4792
C:\Users\CYMR90~1\AppData\Local\Temp\cc3o48Uk.s:31076  .debug_str:000000000002d069 .LASF4793
C:\Users\CYMR90~1\AppData\Local\Temp\cc3o48Uk.s:30332  .debug_str:000000000002a061 .LASF4794
C:\Users\CYMR90~1\AppData\Local\Temp\cc3o48Uk.s:24295  .debug_str:000000000001204c .LASF4795
C:\Users\CYMR90~1\AppData\Local\Temp\cc3o48Uk.s:28462  .debug_str:00000000000229cc .LASF4796
C:\Users\CYMR90~1\AppData\Local\Temp\cc3o48Uk.s:21035  .debug_str:0000000000004e94 .LASF4797
C:\Users\CYMR90~1\AppData\Local\Temp\cc3o48Uk.s:22273  .debug_str:0000000000009d56 .LASF4798
C:\Users\CYMR90~1\AppData\Local\Temp\cc3o48Uk.s:22219  .debug_str:00000000000099fd .LASF4799
C:\Users\CYMR90~1\AppData\Local\Temp\cc3o48Uk.s:23103  .debug_str:000000000000d55d .LASF4800
C:\Users\CYMR90~1\AppData\Local\Temp\cc3o48Uk.s:20339  .debug_str:000000000000217a .LASF4801
C:\Users\CYMR90~1\AppData\Local\Temp\cc3o48Uk.s:30220  .debug_str:00000000000299d8 .LASF4802
C:\Users\CYMR90~1\AppData\Local\Temp\cc3o48Uk.s:27872  .debug_str:000000000002061a .LASF4803
C:\Users\CYMR90~1\AppData\Local\Temp\cc3o48Uk.s:29576  .debug_str:0000000000027078 .LASF4804
C:\Users\CYMR90~1\AppData\Local\Temp\cc3o48Uk.s:20211  .debug_str:0000000000001a16 .LASF4805
C:\Users\CYMR90~1\AppData\Local\Temp\cc3o48Uk.s:23691  .debug_str:000000000000f96e .LASF4806
C:\Users\CYMR90~1\AppData\Local\Temp\cc3o48Uk.s:22103  .debug_str:0000000000009275 .LASF4807
C:\Users\CYMR90~1\AppData\Local\Temp\cc3o48Uk.s:29032  .debug_str:0000000000024d5d .LASF4808
C:\Users\CYMR90~1\AppData\Local\Temp\cc3o48Uk.s:30506  .debug_str:000000000002aacd .LASF4809
C:\Users\CYMR90~1\AppData\Local\Temp\cc3o48Uk.s:25516  .debug_str:0000000000016fbf .LASF4810
C:\Users\CYMR90~1\AppData\Local\Temp\cc3o48Uk.s:25632  .debug_str:0000000000017727 .LASF4811
C:\Users\CYMR90~1\AppData\Local\Temp\cc3o48Uk.s:27184  .debug_str:000000000001dbfe .LASF4812
C:\Users\CYMR90~1\AppData\Local\Temp\cc3o48Uk.s:22345  .debug_str:000000000000a1e3 .LASF4813
C:\Users\CYMR90~1\AppData\Local\Temp\cc3o48Uk.s:27632  .debug_str:000000000001f77c .LASF4814
C:\Users\CYMR90~1\AppData\Local\Temp\cc3o48Uk.s:27694  .debug_str:000000000001fb40 .LASF4815
C:\Users\CYMR90~1\AppData\Local\Temp\cc3o48Uk.s:24425  .debug_str:00000000000128ca .LASF4816
C:\Users\CYMR90~1\AppData\Local\Temp\cc3o48Uk.s:20677  .debug_str:00000000000036dc .LASF4817
C:\Users\CYMR90~1\AppData\Local\Temp\cc3o48Uk.s:24589  .debug_str:000000000001338d .LASF4818
C:\Users\CYMR90~1\AppData\Local\Temp\cc3o48Uk.s:29726  .debug_str:0000000000027a2d .LASF4819
C:\Users\CYMR90~1\AppData\Local\Temp\cc3o48Uk.s:24103  .debug_str:000000000001131f .LASF4820
C:\Users\CYMR90~1\AppData\Local\Temp\cc3o48Uk.s:22713  .debug_str:000000000000bb67 .LASF4821
C:\Users\CYMR90~1\AppData\Local\Temp\cc3o48Uk.s:28786  .debug_str:0000000000023cc8 .LASF4822
C:\Users\CYMR90~1\AppData\Local\Temp\cc3o48Uk.s:28894  .debug_str:0000000000024440 .LASF4823
C:\Users\CYMR90~1\AppData\Local\Temp\cc3o48Uk.s:25153  .debug_str:0000000000015610 .LASF4824
C:\Users\CYMR90~1\AppData\Local\Temp\cc3o48Uk.s:27696  .debug_str:000000000001fb5d .LASF4825
C:\Users\CYMR90~1\AppData\Local\Temp\cc3o48Uk.s:25500  .debug_str:0000000000016eb8 .LASF4826
C:\Users\CYMR90~1\AppData\Local\Temp\cc3o48Uk.s:20645  .debug_str:00000000000034f0 .LASF4827
C:\Users\CYMR90~1\AppData\Local\Temp\cc3o48Uk.s:22381  .debug_str:000000000000a45c .LASF4828
C:\Users\CYMR90~1\AppData\Local\Temp\cc3o48Uk.s:21367  .debug_str:0000000000006286 .LASF4829
C:\Users\CYMR90~1\AppData\Local\Temp\cc3o48Uk.s:29374  .debug_str:0000000000026444 .LASF4830
C:\Users\CYMR90~1\AppData\Local\Temp\cc3o48Uk.s:29616  .debug_str:000000000002735f .LASF4831
C:\Users\CYMR90~1\AppData\Local\Temp\cc3o48Uk.s:19917  .debug_str:00000000000006e9 .LASF4832
C:\Users\CYMR90~1\AppData\Local\Temp\cc3o48Uk.s:26380  .debug_str:000000000001a89e .LASF4833
C:\Users\CYMR90~1\AppData\Local\Temp\cc3o48Uk.s:30768  .debug_str:000000000002bc35 .LASF4834
C:\Users\CYMR90~1\AppData\Local\Temp\cc3o48Uk.s:22531  .debug_str:000000000000aecc .LASF4835
C:\Users\CYMR90~1\AppData\Local\Temp\cc3o48Uk.s:21451  .debug_str:00000000000067db .LASF4836
C:\Users\CYMR90~1\AppData\Local\Temp\cc3o48Uk.s:29676  .debug_str:000000000002769e .LASF4837
C:\Users\CYMR90~1\AppData\Local\Temp\cc3o48Uk.s:26406  .debug_str:000000000001aa1e .LASF4838
C:\Users\CYMR90~1\AppData\Local\Temp\cc3o48Uk.s:27534  .debug_str:000000000001f1c6 .LASF4839
C:\Users\CYMR90~1\AppData\Local\Temp\cc3o48Uk.s:26666  .debug_str:000000000001ba67 .LASF4840
C:\Users\CYMR90~1\AppData\Local\Temp\cc3o48Uk.s:21157  .debug_str:00000000000055d7 .LASF4841
C:\Users\CYMR90~1\AppData\Local\Temp\cc3o48Uk.s:28552  .debug_str:0000000000022f63 .LASF4842
C:\Users\CYMR90~1\AppData\Local\Temp\cc3o48Uk.s:28572  .debug_str:0000000000023045 .LASF4843
C:\Users\CYMR90~1\AppData\Local\Temp\cc3o48Uk.s:29066  .debug_str:0000000000024f51 .LASF4844
C:\Users\CYMR90~1\AppData\Local\Temp\cc3o48Uk.s:29986  .debug_str:0000000000028ba6 .LASF4845
C:\Users\CYMR90~1\AppData\Local\Temp\cc3o48Uk.s:28612  .debug_str:0000000000023290 .LASF4846
C:\Users\CYMR90~1\AppData\Local\Temp\cc3o48Uk.s:30110  .debug_str:0000000000029354 .LASF4847
C:\Users\CYMR90~1\AppData\Local\Temp\cc3o48Uk.s:24505  .debug_str:0000000000012ded .LASF4848
C:\Users\CYMR90~1\AppData\Local\Temp\cc3o48Uk.s:24335  .debug_str:00000000000122dd .LASF4849
C:\Users\CYMR90~1\AppData\Local\Temp\cc3o48Uk.s:28146  .debug_str:0000000000021743 .LASF4850
C:\Users\CYMR90~1\AppData\Local\Temp\cc3o48Uk.s:31050  .debug_str:000000000002cec6 .LASF4851
C:\Users\CYMR90~1\AppData\Local\Temp\cc3o48Uk.s:24509  .debug_str:0000000000012e31 .LASF4852
C:\Users\CYMR90~1\AppData\Local\Temp\cc3o48Uk.s:25714  .debug_str:0000000000017c5b .LASF4853
C:\Users\CYMR90~1\AppData\Local\Temp\cc3o48Uk.s:26612  .debug_str:000000000001b75c .LASF4854
C:\Users\CYMR90~1\AppData\Local\Temp\cc3o48Uk.s:28130  .debug_str:000000000002164c .LASF4855
C:\Users\CYMR90~1\AppData\Local\Temp\cc3o48Uk.s:25435  .debug_str:000000000001688f .LASF4856
C:\Users\CYMR90~1\AppData\Local\Temp\cc3o48Uk.s:27950  .debug_str:0000000000020b23 .LASF4857
C:\Users\CYMR90~1\AppData\Local\Temp\cc3o48Uk.s:27436  .debug_str:000000000001ebba .LASF4858
C:\Users\CYMR90~1\AppData\Local\Temp\cc3o48Uk.s:28364  .debug_str:00000000000223f9 .LASF4859
C:\Users\CYMR90~1\AppData\Local\Temp\cc3o48Uk.s:21319  .debug_str:0000000000005fa0 .LASF4860
C:\Users\CYMR90~1\AppData\Local\Temp\cc3o48Uk.s:28826  .debug_str:0000000000023eed .LASF4861
C:\Users\CYMR90~1\AppData\Local\Temp\cc3o48Uk.s:27064  .debug_str:000000000001d48a .LASF4862
C:\Users\CYMR90~1\AppData\Local\Temp\cc3o48Uk.s:27044  .debug_str:000000000001d357 .LASF4863
C:\Users\CYMR90~1\AppData\Local\Temp\cc3o48Uk.s:20055  .debug_str:0000000000001032 .LASF4864
C:\Users\CYMR90~1\AppData\Local\Temp\cc3o48Uk.s:24385  .debug_str:0000000000012614 .LASF4865
C:\Users\CYMR90~1\AppData\Local\Temp\cc3o48Uk.s:25808  .debug_str:0000000000018215 .LASF4866
C:\Users\CYMR90~1\AppData\Local\Temp\cc3o48Uk.s:21621  .debug_str:00000000000072e3 .LASF4867
C:\Users\CYMR90~1\AppData\Local\Temp\cc3o48Uk.s:26386  .debug_str:000000000001a8e8 .LASF4868
C:\Users\CYMR90~1\AppData\Local\Temp\cc3o48Uk.s:30234  .debug_str:0000000000029ab7 .LASF4869
C:\Users\CYMR90~1\AppData\Local\Temp\cc3o48Uk.s:22889  .debug_str:000000000000c701 .LASF4870
C:\Users\CYMR90~1\AppData\Local\Temp\cc3o48Uk.s:22515  .debug_str:000000000000ad8f .LASF4871
C:\Users\CYMR90~1\AppData\Local\Temp\cc3o48Uk.s:23515  .debug_str:000000000000ee48 .LASF4872
C:\Users\CYMR90~1\AppData\Local\Temp\cc3o48Uk.s:21493  .debug_str:0000000000006a75 .LASF4873
C:\Users\CYMR90~1\AppData\Local\Temp\cc3o48Uk.s:31060  .debug_str:000000000002cf6f .LASF4874
C:\Users\CYMR90~1\AppData\Local\Temp\cc3o48Uk.s:20399  .debug_str:0000000000002510 .LASF4875
C:\Users\CYMR90~1\AppData\Local\Temp\cc3o48Uk.s:28600  .debug_str:00000000000231c8 .LASF4876
C:\Users\CYMR90~1\AppData\Local\Temp\cc3o48Uk.s:25419  .debug_str:0000000000016746 .LASF4877
C:\Users\CYMR90~1\AppData\Local\Temp\cc3o48Uk.s:30462  .debug_str:000000000002a81e .LASF4878
C:\Users\CYMR90~1\AppData\Local\Temp\cc3o48Uk.s:23353  .debug_str:000000000000e423 .LASF4879
C:\Users\CYMR90~1\AppData\Local\Temp\cc3o48Uk.s:29766  .debug_str:0000000000027cd4 .LASF4880
C:\Users\CYMR90~1\AppData\Local\Temp\cc3o48Uk.s:21697  .debug_str:000000000000778c .LASF4881
C:\Users\CYMR90~1\AppData\Local\Temp\cc3o48Uk.s:23121  .debug_str:000000000000d6bb .LASF4882
C:\Users\CYMR90~1\AppData\Local\Temp\cc3o48Uk.s:30962  .debug_str:000000000002c91d .LASF4883
C:\Users\CYMR90~1\AppData\Local\Temp\cc3o48Uk.s:22755  .debug_str:000000000000be99 .LASF4884
C:\Users\CYMR90~1\AppData\Local\Temp\cc3o48Uk.s:22321  .debug_str:000000000000a05d .LASF4885
C:\Users\CYMR90~1\AppData\Local\Temp\cc3o48Uk.s:29680  .debug_str:00000000000276f6 .LASF4886
C:\Users\CYMR90~1\AppData\Local\Temp\cc3o48Uk.s:24139  .debug_str:0000000000011561 .LASF4887
C:\Users\CYMR90~1\AppData\Local\Temp\cc3o48Uk.s:20947  .debug_str:0000000000004944 .LASF4888
C:\Users\CYMR90~1\AppData\Local\Temp\cc3o48Uk.s:22265  .debug_str:0000000000009cd0 .LASF4889
C:\Users\CYMR90~1\AppData\Local\Temp\cc3o48Uk.s:26040  .debug_str:0000000000019218 .LASF4890
C:\Users\CYMR90~1\AppData\Local\Temp\cc3o48Uk.s:27004  .debug_str:000000000001d0fd .LASF4891
C:\Users\CYMR90~1\AppData\Local\Temp\cc3o48Uk.s:27232  .debug_str:000000000001df8e .LASF4892
C:\Users\CYMR90~1\AppData\Local\Temp\cc3o48Uk.s:22965  .debug_str:000000000000cc41 .LASF4893
C:\Users\CYMR90~1\AppData\Local\Temp\cc3o48Uk.s:25211  .debug_str:00000000000159c4 .LASF4894
C:\Users\CYMR90~1\AppData\Local\Temp\cc3o48Uk.s:23357  .debug_str:000000000000e458 .LASF4895
C:\Users\CYMR90~1\AppData\Local\Temp\cc3o48Uk.s:26206  .debug_str:0000000000019c6c .LASF4896
C:\Users\CYMR90~1\AppData\Local\Temp\cc3o48Uk.s:25956  .debug_str:0000000000018b7f .LASF4897
C:\Users\CYMR90~1\AppData\Local\Temp\cc3o48Uk.s:28678  .debug_str:00000000000236b8 .LASF4898
C:\Users\CYMR90~1\AppData\Local\Temp\cc3o48Uk.s:20905  .debug_str:0000000000004608 .LASF4899
C:\Users\CYMR90~1\AppData\Local\Temp\cc3o48Uk.s:19987  .debug_str:0000000000000b87 .LASF4900
C:\Users\CYMR90~1\AppData\Local\Temp\cc3o48Uk.s:24223  .debug_str:0000000000011b7b .LASF4901
C:\Users\CYMR90~1\AppData\Local\Temp\cc3o48Uk.s:24969  .debug_str:0000000000014b11 .LASF4902
C:\Users\CYMR90~1\AppData\Local\Temp\cc3o48Uk.s:30832  .debug_str:000000000002c096 .LASF4903
C:\Users\CYMR90~1\AppData\Local\Temp\cc3o48Uk.s:21849  .debug_str:000000000000828e .LASF4904
C:\Users\CYMR90~1\AppData\Local\Temp\cc3o48Uk.s:22407  .debug_str:000000000000a5c1 .LASF4905
C:\Users\CYMR90~1\AppData\Local\Temp\cc3o48Uk.s:26046  .debug_str:000000000001927a .LASF4906
C:\Users\CYMR90~1\AppData\Local\Temp\cc3o48Uk.s:23293  .debug_str:000000000000e0a2 .LASF4907
C:\Users\CYMR90~1\AppData\Local\Temp\cc3o48Uk.s:30884  .debug_str:000000000002c44a .LASF4908
C:\Users\CYMR90~1\AppData\Local\Temp\cc3o48Uk.s:20215  .debug_str:0000000000001a54 .LASF4909
C:\Users\CYMR90~1\AppData\Local\Temp\cc3o48Uk.s:29756  .debug_str:0000000000027c23 .LASF4910
C:\Users\CYMR90~1\AppData\Local\Temp\cc3o48Uk.s:27126  .debug_str:000000000001d8a6 .LASF4911
C:\Users\CYMR90~1\AppData\Local\Temp\cc3o48Uk.s:25478  .debug_str:0000000000016d47 .LASF4912
C:\Users\CYMR90~1\AppData\Local\Temp\cc3o48Uk.s:22369  .debug_str:000000000000a39f .LASF4913
C:\Users\CYMR90~1\AppData\Local\Temp\cc3o48Uk.s:28194  .debug_str:00000000000219ec .LASF4914
C:\Users\CYMR90~1\AppData\Local\Temp\cc3o48Uk.s:24511  .debug_str:0000000000012e51 .LASF4915
C:\Users\CYMR90~1\AppData\Local\Temp\cc3o48Uk.s:25942  .debug_str:0000000000018a8d .LASF4916
C:\Users\CYMR90~1\AppData\Local\Temp\cc3o48Uk.s:24611  .debug_str:00000000000134dc .LASF4917
C:\Users\CYMR90~1\AppData\Local\Temp\cc3o48Uk.s:28864  .debug_str:000000000002422f .LASF4918
C:\Users\CYMR90~1\AppData\Local\Temp\cc3o48Uk.s:22025  .debug_str:0000000000008dfa .LASF4919
C:\Users\CYMR90~1\AppData\Local\Temp\cc3o48Uk.s:20459  .debug_str:00000000000028fe .LASF4920
C:\Users\CYMR90~1\AppData\Local\Temp\cc3o48Uk.s:24195  .debug_str:0000000000011a00 .LASF4921
C:\Users\CYMR90~1\AppData\Local\Temp\cc3o48Uk.s:27762  .debug_str:000000000001ff6b .LASF4922
C:\Users\CYMR90~1\AppData\Local\Temp\cc3o48Uk.s:20595  .debug_str:00000000000031a9 .LASF4923
C:\Users\CYMR90~1\AppData\Local\Temp\cc3o48Uk.s:25588  .debug_str:00000000000173f8 .LASF4924
C:\Users\CYMR90~1\AppData\Local\Temp\cc3o48Uk.s:30064  .debug_str:00000000000290a6 .LASF4925
C:\Users\CYMR90~1\AppData\Local\Temp\cc3o48Uk.s:30104  .debug_str:00000000000292d8 .LASF4926
C:\Users\CYMR90~1\AppData\Local\Temp\cc3o48Uk.s:22351  .debug_str:000000000000a23a .LASF4927
C:\Users\CYMR90~1\AppData\Local\Temp\cc3o48Uk.s:26036  .debug_str:00000000000191c5 .LASF4928
C:\Users\CYMR90~1\AppData\Local\Temp\cc3o48Uk.s:30358  .debug_str:000000000002a1bf .LASF4929
C:\Users\CYMR90~1\AppData\Local\Temp\cc3o48Uk.s:21405  .debug_str:00000000000064d2 .LASF4930
C:\Users\CYMR90~1\AppData\Local\Temp\cc3o48Uk.s:30352  .debug_str:000000000002a156 .LASF4931
C:\Users\CYMR90~1\AppData\Local\Temp\cc3o48Uk.s:20531  .debug_str:0000000000002d90 .LASF4932
C:\Users\CYMR90~1\AppData\Local\Temp\cc3o48Uk.s:26470  .debug_str:000000000001ae01 .LASF4933
C:\Users\CYMR90~1\AppData\Local\Temp\cc3o48Uk.s:23609  .debug_str:000000000000f410 .LASF4934
C:\Users\CYMR90~1\AppData\Local\Temp\cc3o48Uk.s:24781  .debug_str:0000000000013f5c .LASF4935
C:\Users\CYMR90~1\AppData\Local\Temp\cc3o48Uk.s:29992  .debug_str:0000000000028c0c .LASF4936
C:\Users\CYMR90~1\AppData\Local\Temp\cc3o48Uk.s:22075  .debug_str:00000000000090bc .LASF4937
C:\Users\CYMR90~1\AppData\Local\Temp\cc3o48Uk.s:26978  .debug_str:000000000001ced5 .LASF4938
C:\Users\CYMR90~1\AppData\Local\Temp\cc3o48Uk.s:30400  .debug_str:000000000002a4a2 .LASF4939
C:\Users\CYMR90~1\AppData\Local\Temp\cc3o48Uk.s:20899  .debug_str:0000000000004590 .LASF4940
C:\Users\CYMR90~1\AppData\Local\Temp\cc3o48Uk.s:29152  .debug_str:0000000000025603 .LASF4941
C:\Users\CYMR90~1\AppData\Local\Temp\cc3o48Uk.s:27652  .debug_str:000000000001f885 .LASF4942
C:\Users\CYMR90~1\AppData\Local\Temp\cc3o48Uk.s:26804  .debug_str:000000000001c311 .LASF4943
C:\Users\CYMR90~1\AppData\Local\Temp\cc3o48Uk.s:27784  .debug_str:00000000000200cc .LASF4944
C:\Users\CYMR90~1\AppData\Local\Temp\cc3o48Uk.s:31028  .debug_str:000000000002cd96 .LASF4945
C:\Users\CYMR90~1\AppData\Local\Temp\cc3o48Uk.s:20649  .debug_str:0000000000003527 .LASF4946
C:\Users\CYMR90~1\AppData\Local\Temp\cc3o48Uk.s:27396  .debug_str:000000000001e9af .LASF4947
C:\Users\CYMR90~1\AppData\Local\Temp\cc3o48Uk.s:28164  .debug_str:0000000000021856 .LASF4948
C:\Users\CYMR90~1\AppData\Local\Temp\cc3o48Uk.s:20237  .debug_str:0000000000001ba5 .LASF4949
C:\Users\CYMR90~1\AppData\Local\Temp\cc3o48Uk.s:21703  .debug_str:00000000000077e4 .LASF4950
C:\Users\CYMR90~1\AppData\Local\Temp\cc3o48Uk.s:25744  .debug_str:0000000000017e3a .LASF4951
C:\Users\CYMR90~1\AppData\Local\Temp\cc3o48Uk.s:23937  .debug_str:000000000001090d .LASF4952
C:\Users\CYMR90~1\AppData\Local\Temp\cc3o48Uk.s:25844  .debug_str:0000000000018458 .LASF4953
C:\Users\CYMR90~1\AppData\Local\Temp\cc3o48Uk.s:26428  .debug_str:000000000001aba2 .LASF4954
C:\Users\CYMR90~1\AppData\Local\Temp\cc3o48Uk.s:27790  .debug_str:000000000002012d .LASF4955
C:\Users\CYMR90~1\AppData\Local\Temp\cc3o48Uk.s:31062  .debug_str:000000000002cf8d .LASF4956
C:\Users\CYMR90~1\AppData\Local\Temp\cc3o48Uk.s:24895  .debug_str:0000000000014671 .LASF4957
C:\Users\CYMR90~1\AppData\Local\Temp\cc3o48Uk.s:24799  .debug_str:000000000001407d .LASF4958
C:\Users\CYMR90~1\AppData\Local\Temp\cc3o48Uk.s:21121  .debug_str:00000000000053af .LASF4959
C:\Users\CYMR90~1\AppData\Local\Temp\cc3o48Uk.s:28888  .debug_str:00000000000243b9 .LASF4960
C:\Users\CYMR90~1\AppData\Local\Temp\cc3o48Uk.s:29760  .debug_str:0000000000027c66 .LASF4961
C:\Users\CYMR90~1\AppData\Local\Temp\cc3o48Uk.s:21719  .debug_str:000000000000790e .LASF4962
C:\Users\CYMR90~1\AppData\Local\Temp\cc3o48Uk.s:30840  .debug_str:000000000002c13d .LASF4963
C:\Users\CYMR90~1\AppData\Local\Temp\cc3o48Uk.s:23469  .debug_str:000000000000ebbf .LASF4964
C:\Users\CYMR90~1\AppData\Local\Temp\cc3o48Uk.s:25668  .debug_str:0000000000017982 .LASF4965
C:\Users\CYMR90~1\AppData\Local\Temp\cc3o48Uk.s:21825  .debug_str:0000000000008122 .LASF4966
C:\Users\CYMR90~1\AppData\Local\Temp\cc3o48Uk.s:21421  .debug_str:00000000000065c4 .LASF4967
C:\Users\CYMR90~1\AppData\Local\Temp\cc3o48Uk.s:21021  .debug_str:0000000000004da9 .LASF4968
C:\Users\CYMR90~1\AppData\Local\Temp\cc3o48Uk.s:29586  .debug_str:00000000000271b1 .LASF4969
C:\Users\CYMR90~1\AppData\Local\Temp\cc3o48Uk.s:25784  .debug_str:0000000000018091 .LASF4970
C:\Users\CYMR90~1\AppData\Local\Temp\cc3o48Uk.s:24363  .debug_str:00000000000124ac .LASF4971
C:\Users\CYMR90~1\AppData\Local\Temp\cc3o48Uk.s:22915  .debug_str:000000000000c8e6 .LASF4972
C:\Users\CYMR90~1\AppData\Local\Temp\cc3o48Uk.s:27376  .debug_str:000000000001e86c .LASF4973
C:\Users\CYMR90~1\AppData\Local\Temp\cc3o48Uk.s:22073  .debug_str:000000000000908b .LASF4974
C:\Users\CYMR90~1\AppData\Local\Temp\cc3o48Uk.s:30564  .debug_str:000000000002ae3a .LASF4975
C:\Users\CYMR90~1\AppData\Local\Temp\cc3o48Uk.s:27366  .debug_str:000000000001e77e .LASF4976
C:\Users\CYMR90~1\AppData\Local\Temp\cc3o48Uk.s:21921  .debug_str:00000000000086ff .LASF4977
C:\Users\CYMR90~1\AppData\Local\Temp\cc3o48Uk.s:29672  .debug_str:0000000000027662 .LASF4978
C:\Users\CYMR90~1\AppData\Local\Temp\cc3o48Uk.s:31068  .debug_str:000000000002cfe7 .LASF4979
C:\Users\CYMR90~1\AppData\Local\Temp\cc3o48Uk.s:27704  .debug_str:000000000001fbb5 .LASF4980
C:\Users\CYMR90~1\AppData\Local\Temp\cc3o48Uk.s:29962  .debug_str:0000000000028a56 .LASF4981
C:\Users\CYMR90~1\AppData\Local\Temp\cc3o48Uk.s:21003  .debug_str:0000000000004c98 .LASF4982
C:\Users\CYMR90~1\AppData\Local\Temp\cc3o48Uk.s:21339  .debug_str:00000000000060db .LASF4983
C:\Users\CYMR90~1\AppData\Local\Temp\cc3o48Uk.s:26298  .debug_str:000000000001a191 .LASF4984
C:\Users\CYMR90~1\AppData\Local\Temp\cc3o48Uk.s:24979  .debug_str:0000000000014bf1 .LASF4985
C:\Users\CYMR90~1\AppData\Local\Temp\cc3o48Uk.s:23743  .debug_str:000000000000fcb8 .LASF4986
C:\Users\CYMR90~1\AppData\Local\Temp\cc3o48Uk.s:30418  .debug_str:000000000002a5aa .LASF4987
C:\Users\CYMR90~1\AppData\Local\Temp\cc3o48Uk.s:26742  .debug_str:000000000001bf45 .LASF4988
C:\Users\CYMR90~1\AppData\Local\Temp\cc3o48Uk.s:28228  .debug_str:0000000000021c3b .LASF4989
C:\Users\CYMR90~1\AppData\Local\Temp\cc3o48Uk.s:26504  .debug_str:000000000001b094 .LASF4990
C:\Users\CYMR90~1\AppData\Local\Temp\cc3o48Uk.s:22123  .debug_str:0000000000009383 .LASF4991
C:\Users\CYMR90~1\AppData\Local\Temp\cc3o48Uk.s:19859  .debug_str:00000000000003a2 .LASF4992
C:\Users\CYMR90~1\AppData\Local\Temp\cc3o48Uk.s:23175  .debug_str:000000000000d96b .LASF4993
C:\Users\CYMR90~1\AppData\Local\Temp\cc3o48Uk.s:20443  .debug_str:00000000000027f4 .LASF4994
C:\Users\CYMR90~1\AppData\Local\Temp\cc3o48Uk.s:27424  .debug_str:000000000001eb1f .LASF4995
C:\Users\CYMR90~1\AppData\Local\Temp\cc3o48Uk.s:25001  .debug_str:0000000000014d86 .LASF4996
C:\Users\CYMR90~1\AppData\Local\Temp\cc3o48Uk.s:19803  .debug_str:0000000000000000 .LASF4997
C:\Users\CYMR90~1\AppData\Local\Temp\cc3o48Uk.s:20247  .debug_str:0000000000001c4a .LASF4998
C:\Users\CYMR90~1\AppData\Local\Temp\cc3o48Uk.s:30106  .debug_str:0000000000029305 .LASF4999
C:\Users\CYMR90~1\AppData\Local\Temp\cc3o48Uk.s:25656  .debug_str:00000000000178c0 .LASF5000
C:\Users\CYMR90~1\AppData\Local\Temp\cc3o48Uk.s:27442  .debug_str:000000000001ec08 .LASF5001
C:\Users\CYMR90~1\AppData\Local\Temp\cc3o48Uk.s:19931  .debug_str:00000000000007c6 .LASF5002
C:\Users\CYMR90~1\AppData\Local\Temp\cc3o48Uk.s:25447  .debug_str:000000000001693b .LASF5003
C:\Users\CYMR90~1\AppData\Local\Temp\cc3o48Uk.s:27738  .debug_str:000000000001fdc9 .LASF5004
C:\Users\CYMR90~1\AppData\Local\Temp\cc3o48Uk.s:26392  .debug_str:000000000001a951 .LASF5005
C:\Users\CYMR90~1\AppData\Local\Temp\cc3o48Uk.s:25700  .debug_str:0000000000017b96 .LASF5006
C:\Users\CYMR90~1\AppData\Local\Temp\cc3o48Uk.s:25570  .debug_str:00000000000172dc .LASF5007
C:\Users\CYMR90~1\AppData\Local\Temp\cc3o48Uk.s:21307  .debug_str:0000000000005ec7 .LASF5008
C:\Users\CYMR90~1\AppData\Local\Temp\cc3o48Uk.s:23569  .debug_str:000000000000f1a4 .LASF5009
C:\Users\CYMR90~1\AppData\Local\Temp\cc3o48Uk.s:24257  .debug_str:0000000000011ddc .LASF5010
C:\Users\CYMR90~1\AppData\Local\Temp\cc3o48Uk.s:25902  .debug_str:00000000000187d8 .LASF5011
C:\Users\CYMR90~1\AppData\Local\Temp\cc3o48Uk.s:21095  .debug_str:000000000000521a .LASF5012
C:\Users\CYMR90~1\AppData\Local\Temp\cc3o48Uk.s:29136  .debug_str:00000000000254c3 .LASF5013
C:\Users\CYMR90~1\AppData\Local\Temp\cc3o48Uk.s:29918  .debug_str:00000000000287bc .LASF5014
C:\Users\CYMR90~1\AppData\Local\Temp\cc3o48Uk.s:29378  .debug_str:000000000002646b .LASF5015
C:\Users\CYMR90~1\AppData\Local\Temp\cc3o48Uk.s:24071  .debug_str:0000000000011150 .LASF5016
C:\Users\CYMR90~1\AppData\Local\Temp\cc3o48Uk.s:23005  .debug_str:000000000000ce67 .LASF5017
C:\Users\CYMR90~1\AppData\Local\Temp\cc3o48Uk.s:27892  .debug_str:0000000000020733 .LASF5018
C:\Users\CYMR90~1\AppData\Local\Temp\cc3o48Uk.s:23643  .debug_str:000000000000f6a1 .LASF5019
C:\Users\CYMR90~1\AppData\Local\Temp\cc3o48Uk.s:22971  .debug_str:000000000000cca2 .LASF5020
C:\Users\CYMR90~1\AppData\Local\Temp\cc3o48Uk.s:29354  .debug_str:00000000000262ff .LASF5021
C:\Users\CYMR90~1\AppData\Local\Temp\cc3o48Uk.s:24523  .debug_str:0000000000012f2e .LASF5022
C:\Users\CYMR90~1\AppData\Local\Temp\cc3o48Uk.s:22785  .debug_str:000000000000c072 .LASF5023
C:\Users\CYMR90~1\AppData\Local\Temp\cc3o48Uk.s:20689  .debug_str:00000000000037c0 .LASF5024
C:\Users\CYMR90~1\AppData\Local\Temp\cc3o48Uk.s:21611  .debug_str:000000000000724a .LASF5025
C:\Users\CYMR90~1\AppData\Local\Temp\cc3o48Uk.s:23647  .debug_str:000000000000f6f0 .LASF5026
C:\Users\CYMR90~1\AppData\Local\Temp\cc3o48Uk.s:21185  .debug_str:000000000000577b .LASF5027
C:\Users\CYMR90~1\AppData\Local\Temp\cc3o48Uk.s:29792  .debug_str:0000000000027ed6 .LASF5028
C:\Users\CYMR90~1\AppData\Local\Temp\cc3o48Uk.s:24311  .debug_str:0000000000012166 .LASF5029
C:\Users\CYMR90~1\AppData\Local\Temp\cc3o48Uk.s:20525  .debug_str:0000000000002d34 .LASF5030
C:\Users\CYMR90~1\AppData\Local\Temp\cc3o48Uk.s:29212  .debug_str:0000000000025a40 .LASF5031
C:\Users\CYMR90~1\AppData\Local\Temp\cc3o48Uk.s:29596  .debug_str:000000000002725c .LASF5032
C:\Users\CYMR90~1\AppData\Local\Temp\cc3o48Uk.s:24087  .debug_str:0000000000011230 .LASF5033
C:\Users\CYMR90~1\AppData\Local\Temp\cc3o48Uk.s:25275  .debug_str:0000000000015e5d .LASF5034
C:\Users\CYMR90~1\AppData\Local\Temp\cc3o48Uk.s:28604  .debug_str:0000000000023201 .LASF5035
C:\Users\CYMR90~1\AppData\Local\Temp\cc3o48Uk.s:27358  .debug_str:000000000001e6fe .LASF5036
C:\Users\CYMR90~1\AppData\Local\Temp\cc3o48Uk.s:28258  .debug_str:0000000000021e03 .LASF5037
C:\Users\CYMR90~1\AppData\Local\Temp\cc3o48Uk.s:31074  .debug_str:000000000002d043 .LASF5038
C:\Users\CYMR90~1\AppData\Local\Temp\cc3o48Uk.s:28438  .debug_str:0000000000022864 .LASF5039
C:\Users\CYMR90~1\AppData\Local\Temp\cc3o48Uk.s:29042  .debug_str:0000000000024ded .LASF5040
C:\Users\CYMR90~1\AppData\Local\Temp\cc3o48Uk.s:21701  .debug_str:00000000000077c2 .LASF5041
C:\Users\CYMR90~1\AppData\Local\Temp\cc3o48Uk.s:21057  .debug_str:0000000000004fd9 .LASF5042
C:\Users\CYMR90~1\AppData\Local\Temp\cc3o48Uk.s:28470  .debug_str:0000000000022a33 .LASF5043
C:\Users\CYMR90~1\AppData\Local\Temp\cc3o48Uk.s:24373  .debug_str:000000000001254d .LASF5044
C:\Users\CYMR90~1\AppData\Local\Temp\cc3o48Uk.s:28942  .debug_str:000000000002471f .LASF5045
C:\Users\CYMR90~1\AppData\Local\Temp\cc3o48Uk.s:30250  .debug_str:0000000000029bb5 .LASF5046
C:\Users\CYMR90~1\AppData\Local\Temp\cc3o48Uk.s:26980  .debug_str:000000000001cf04 .LASF5047
C:\Users\CYMR90~1\AppData\Local\Temp\cc3o48Uk.s:29180  .debug_str:0000000000025855 .LASF5048
C:\Users\CYMR90~1\AppData\Local\Temp\cc3o48Uk.s:29228  .debug_str:0000000000025b56 .LASF5049
C:\Users\CYMR90~1\AppData\Local\Temp\cc3o48Uk.s:26462  .debug_str:000000000001ad90 .LASF5050
C:\Users\CYMR90~1\AppData\Local\Temp\cc3o48Uk.s:23739  .debug_str:000000000000fc72 .LASF5051
C:\Users\CYMR90~1\AppData\Local\Temp\cc3o48Uk.s:24055  .debug_str:000000000001104d .LASF5052
C:\Users\CYMR90~1\AppData\Local\Temp\cc3o48Uk.s:29062  .debug_str:0000000000024f12 .LASF5053
C:\Users\CYMR90~1\AppData\Local\Temp\cc3o48Uk.s:24789  .debug_str:0000000000013fe0 .LASF5054
C:\Users\CYMR90~1\AppData\Local\Temp\cc3o48Uk.s:23939  .debug_str:000000000001092c .LASF5055
C:\Users\CYMR90~1\AppData\Local\Temp\cc3o48Uk.s:30512  .debug_str:000000000002ab2d .LASF5056
C:\Users\CYMR90~1\AppData\Local\Temp\cc3o48Uk.s:21993  .debug_str:0000000000008b8a .LASF5057
C:\Users\CYMR90~1\AppData\Local\Temp\cc3o48Uk.s:22577  .debug_str:000000000000b255 .LASF5058
C:\Users\CYMR90~1\AppData\Local\Temp\cc3o48Uk.s:29238  .debug_str:0000000000025bde .LASF5059
C:\Users\CYMR90~1\AppData\Local\Temp\cc3o48Uk.s:20081  .debug_str:00000000000011c6 .LASF5060
C:\Users\CYMR90~1\AppData\Local\Temp\cc3o48Uk.s:25355  .debug_str:000000000001631d .LASF5061
C:\Users\CYMR90~1\AppData\Local\Temp\cc3o48Uk.s:27438  .debug_str:000000000001ebd2 .LASF5062
C:\Users\CYMR90~1\AppData\Local\Temp\cc3o48Uk.s:29722  .debug_str:00000000000279dd .LASF5063
C:\Users\CYMR90~1\AppData\Local\Temp\cc3o48Uk.s:23419  .debug_str:000000000000e863 .LASF5064
C:\Users\CYMR90~1\AppData\Local\Temp\cc3o48Uk.s:29746  .debug_str:0000000000027b8c .LASF5065
C:\Users\CYMR90~1\AppData\Local\Temp\cc3o48Uk.s:27380  .debug_str:000000000001e8c0 .LASF5066
C:\Users\CYMR90~1\AppData\Local\Temp\cc3o48Uk.s:24141  .debug_str:0000000000011585 .LASF5067
C:\Users\CYMR90~1\AppData\Local\Temp\cc3o48Uk.s:27692  .debug_str:000000000001fb0f .LASF5068
C:\Users\CYMR90~1\AppData\Local\Temp\cc3o48Uk.s:21037  .debug_str:0000000000004eb2 .LASF5069
C:\Users\CYMR90~1\AppData\Local\Temp\cc3o48Uk.s:24671  .debug_str:000000000001386a .LASF5070
C:\Users\CYMR90~1\AppData\Local\Temp\cc3o48Uk.s:30944  .debug_str:000000000002c804 .LASF5071
C:\Users\CYMR90~1\AppData\Local\Temp\cc3o48Uk.s:23275  .debug_str:000000000000df95 .LASF5072
C:\Users\CYMR90~1\AppData\Local\Temp\cc3o48Uk.s:26942  .debug_str:000000000001cbed .LASF5073
C:\Users\CYMR90~1\AppData\Local\Temp\cc3o48Uk.s:23397  .debug_str:000000000000e704 .LASF5074
C:\Users\CYMR90~1\AppData\Local\Temp\cc3o48Uk.s:30140  .debug_str:000000000002953f .LASF5075
C:\Users\CYMR90~1\AppData\Local\Temp\cc3o48Uk.s:27474  .debug_str:000000000001ede9 .LASF5076
C:\Users\CYMR90~1\AppData\Local\Temp\cc3o48Uk.s:23429  .debug_str:000000000000e8d7 .LASF5077
C:\Users\CYMR90~1\AppData\Local\Temp\cc3o48Uk.s:20157  .debug_str:0000000000001603 .LASF5078
C:\Users\CYMR90~1\AppData\Local\Temp\cc3o48Uk.s:26926  .debug_str:000000000001caee .LASF5079
C:\Users\CYMR90~1\AppData\Local\Temp\cc3o48Uk.s:29552  .debug_str:0000000000026ee9 .LASF5080
C:\Users\CYMR90~1\AppData\Local\Temp\cc3o48Uk.s:26438  .debug_str:000000000001ac18 .LASF5081
C:\Users\CYMR90~1\AppData\Local\Temp\cc3o48Uk.s:27434  .debug_str:000000000001eba4 .LASF5082
C:\Users\CYMR90~1\AppData\Local\Temp\cc3o48Uk.s:20009  .debug_str:0000000000000cce .LASF5083
C:\Users\CYMR90~1\AppData\Local\Temp\cc3o48Uk.s:28022  .debug_str:0000000000020f56 .LASF5084
C:\Users\CYMR90~1\AppData\Local\Temp\cc3o48Uk.s:22919  .debug_str:000000000000c95a .LASF5085
C:\Users\CYMR90~1\AppData\Local\Temp\cc3o48Uk.s:25217  .debug_str:0000000000015a2e .LASF5086
C:\Users\CYMR90~1\AppData\Local\Temp\cc3o48Uk.s:23665  .debug_str:000000000000f7f7 .LASF5087
C:\Users\CYMR90~1\AppData\Local\Temp\cc3o48Uk.s:25840  .debug_str:0000000000018406 .LASF5088
C:\Users\CYMR90~1\AppData\Local\Temp\cc3o48Uk.s:30408  .debug_str:000000000002a525 .LASF5089
C:\Users\CYMR90~1\AppData\Local\Temp\cc3o48Uk.s:24593  .debug_str:00000000000133ec .LASF5090
C:\Users\CYMR90~1\AppData\Local\Temp\cc3o48Uk.s:27622  .debug_str:000000000001f6e2 .LASF5091
C:\Users\CYMR90~1\AppData\Local\Temp\cc3o48Uk.s:21677  .debug_str:000000000000764f .LASF5092
C:\Users\CYMR90~1\AppData\Local\Temp\cc3o48Uk.s:29096  .debug_str:000000000002524d .LASF5093
C:\Users\CYMR90~1\AppData\Local\Temp\cc3o48Uk.s:21551  .debug_str:0000000000006e23 .LASF5094
C:\Users\CYMR90~1\AppData\Local\Temp\cc3o48Uk.s:29628  .debug_str:00000000000273fc .LASF5095
C:\Users\CYMR90~1\AppData\Local\Temp\cc3o48Uk.s:30118  .debug_str:00000000000293c0 .LASF5096
C:\Users\CYMR90~1\AppData\Local\Temp\cc3o48Uk.s:28352  .debug_str:0000000000022375 .LASF5097
C:\Users\CYMR90~1\AppData\Local\Temp\cc3o48Uk.s:25127  .debug_str:00000000000154a7 .LASF5098
C:\Users\CYMR90~1\AppData\Local\Temp\cc3o48Uk.s:21999  .debug_str:0000000000008bd1 .LASF5099
C:\Users\CYMR90~1\AppData\Local\Temp\cc3o48Uk.s:20603  .debug_str:0000000000003217 .LASF5100
C:\Users\CYMR90~1\AppData\Local\Temp\cc3o48Uk.s:30828  .debug_str:000000000002c066 .LASF5101
C:\Users\CYMR90~1\AppData\Local\Temp\cc3o48Uk.s:22185  .debug_str:0000000000009780 .LASF5102
C:\Users\CYMR90~1\AppData\Local\Temp\cc3o48Uk.s:28934  .debug_str:00000000000246b0 .LASF5103
C:\Users\CYMR90~1\AppData\Local\Temp\cc3o48Uk.s:30316  .debug_str:0000000000029f7a .LASF5104
C:\Users\CYMR90~1\AppData\Local\Temp\cc3o48Uk.s:23517  .debug_str:000000000000ee6b .LASF5105
C:\Users\CYMR90~1\AppData\Local\Temp\cc3o48Uk.s:30004  .debug_str:0000000000028cf6 .LASF5106
C:\Users\CYMR90~1\AppData\Local\Temp\cc3o48Uk.s:22121  .debug_str:000000000000936b .LASF5107
C:\Users\CYMR90~1\AppData\Local\Temp\cc3o48Uk.s:30716  .debug_str:000000000002b8e7 .LASF5108
C:\Users\CYMR90~1\AppData\Local\Temp\cc3o48Uk.s:28178  .debug_str:0000000000021920 .LASF5109
C:\Users\CYMR90~1\AppData\Local\Temp\cc3o48Uk.s:23651  .debug_str:000000000000f746 .LASF5110
C:\Users\CYMR90~1\AppData\Local\Temp\cc3o48Uk.s:20883  .debug_str:0000000000004486 .LASF5111
C:\Users\CYMR90~1\AppData\Local\Temp\cc3o48Uk.s:26394  .debug_str:000000000001a978 .LASF5112
C:\Users\CYMR90~1\AppData\Local\Temp\cc3o48Uk.s:29056  .debug_str:0000000000024ec7 .LASF5113
C:\Users\CYMR90~1\AppData\Local\Temp\cc3o48Uk.s:23593  .debug_str:000000000000f33a .LASF5114
C:\Users\CYMR90~1\AppData\Local\Temp\cc3o48Uk.s:19915  .debug_str:00000000000006d1 .LASF5115
C:\Users\CYMR90~1\AppData\Local\Temp\cc3o48Uk.s:19861  .debug_str:00000000000003cc .LASF5116
C:\Users\CYMR90~1\AppData\Local\Temp\cc3o48Uk.s:20207  .debug_str:00000000000019dd .LASF5117
C:\Users\CYMR90~1\AppData\Local\Temp\cc3o48Uk.s:28692  .debug_str:00000000000237be .LASF5118
C:\Users\CYMR90~1\AppData\Local\Temp\cc3o48Uk.s:29350  .debug_str:00000000000262be .LASF5119
C:\Users\CYMR90~1\AppData\Local\Temp\cc3o48Uk.s:24471  .debug_str:0000000000012bbc .LASF5120
C:\Users\CYMR90~1\AppData\Local\Temp\cc3o48Uk.s:26432  .debug_str:000000000001abd9 .LASF5121
C:\Users\CYMR90~1\AppData\Local\Temp\cc3o48Uk.s:20481  .debug_str:0000000000002a66 .LASF5122
C:\Users\CYMR90~1\AppData\Local\Temp\cc3o48Uk.s:25225  .debug_str:0000000000015afc .LASF5123
C:\Users\CYMR90~1\AppData\Local\Temp\cc3o48Uk.s:27812  .debug_str:000000000002023e .LASF5124
C:\Users\CYMR90~1\AppData\Local\Temp\cc3o48Uk.s:27128  .debug_str:000000000001d8d0 .LASF5125
C:\Users\CYMR90~1\AppData\Local\Temp\cc3o48Uk.s:21909  .debug_str:000000000000864d .LASF5126
C:\Users\CYMR90~1\AppData\Local\Temp\cc3o48Uk.s:28494  .debug_str:0000000000022c11 .LASF5127
C:\Users\CYMR90~1\AppData\Local\Temp\cc3o48Uk.s:27796  .debug_str:0000000000020179 .LASF5128
C:\Users\CYMR90~1\AppData\Local\Temp\cc3o48Uk.s:20937  .debug_str:00000000000048bd .LASF5129
C:\Users\CYMR90~1\AppData\Local\Temp\cc3o48Uk.s:21365  .debug_str:000000000000626f .LASF5130
C:\Users\CYMR90~1\AppData\Local\Temp\cc3o48Uk.s:28450  .debug_str:0000000000022933 .LASF5131
C:\Users\CYMR90~1\AppData\Local\Temp\cc3o48Uk.s:30196  .debug_str:000000000002987d .LASF5132
C:\Users\CYMR90~1\AppData\Local\Temp\cc3o48Uk.s:26024  .debug_str:000000000001904f .LASF5133
C:\Users\CYMR90~1\AppData\Local\Temp\cc3o48Uk.s:22821  .debug_str:000000000000c2d6 .LASF5134
C:\Users\CYMR90~1\AppData\Local\Temp\cc3o48Uk.s:27516  .debug_str:000000000001f0a0 .LASF5135
C:\Users\CYMR90~1\AppData\Local\Temp\cc3o48Uk.s:20065  .debug_str:00000000000010b7 .LASF5136
C:\Users\CYMR90~1\AppData\Local\Temp\cc3o48Uk.s:27898  .debug_str:00000000000207c9 .LASF5137
C:\Users\CYMR90~1\AppData\Local\Temp\cc3o48Uk.s:24675  .debug_str:00000000000138bd .LASF5138
C:\Users\CYMR90~1\AppData\Local\Temp\cc3o48Uk.s:30144  .debug_str:0000000000029595 .LASF5139
C:\Users\CYMR90~1\AppData\Local\Temp\cc3o48Uk.s:23823  .debug_str:00000000000101aa .LASF5140
C:\Users\CYMR90~1\AppData\Local\Temp\cc3o48Uk.s:23069  .debug_str:000000000000d2ed .LASF5141
C:\Users\CYMR90~1\AppData\Local\Temp\cc3o48Uk.s:27526  .debug_str:000000000001f159 .LASF5142
C:\Users\CYMR90~1\AppData\Local\Temp\cc3o48Uk.s:30742  .debug_str:000000000002ba87 .LASF5143
C:\Users\CYMR90~1\AppData\Local\Temp\cc3o48Uk.s:27392  .debug_str:000000000001e97d .LASF5144
C:\Users\CYMR90~1\AppData\Local\Temp\cc3o48Uk.s:28618  .debug_str:00000000000232dc .LASF5145
C:\Users\CYMR90~1\AppData\Local\Temp\cc3o48Uk.s:22621  .debug_str:000000000000b496 .LASF5146
C:\Users\CYMR90~1\AppData\Local\Temp\cc3o48Uk.s:28744  .debug_str:0000000000023aa3 .LASF5147
C:\Users\CYMR90~1\AppData\Local\Temp\cc3o48Uk.s:28356  .debug_str:00000000000223a6 .LASF5148
C:\Users\CYMR90~1\AppData\Local\Temp\cc3o48Uk.s:26268  .debug_str:0000000000019fff .LASF5149
C:\Users\CYMR90~1\AppData\Local\Temp\cc3o48Uk.s:25798  .debug_str:0000000000018188 .LASF5150
C:\Users\CYMR90~1\AppData\Local\Temp\cc3o48Uk.s:28230  .debug_str:0000000000021c61 .LASF5151
C:\Users\CYMR90~1\AppData\Local\Temp\cc3o48Uk.s:27828  .debug_str:0000000000020306 .LASF5152
C:\Users\CYMR90~1\AppData\Local\Temp\cc3o48Uk.s:21751  .debug_str:0000000000007b42 .LASF5153
C:\Users\CYMR90~1\AppData\Local\Temp\cc3o48Uk.s:21193  .debug_str:0000000000005811 .LASF5154
C:\Users\CYMR90~1\AppData\Local\Temp\cc3o48Uk.s:21503  .debug_str:0000000000006b08 .LASF5155
C:\Users\CYMR90~1\AppData\Local\Temp\cc3o48Uk.s:22959  .debug_str:000000000000cbeb .LASF5156
C:\Users\CYMR90~1\AppData\Local\Temp\cc3o48Uk.s:24277  .debug_str:0000000000011f50 .LASF5157
C:\Users\CYMR90~1\AppData\Local\Temp\cc3o48Uk.s:22715  .debug_str:000000000000bb88 .LASF5158
C:\Users\CYMR90~1\AppData\Local\Temp\cc3o48Uk.s:29738  .debug_str:0000000000027b2a .LASF5159
C:\Users\CYMR90~1\AppData\Local\Temp\cc3o48Uk.s:29334  .debug_str:00000000000261e4 .LASF5160
C:\Users\CYMR90~1\AppData\Local\Temp\cc3o48Uk.s:25033  .debug_str:0000000000014f7f .LASF5161
C:\Users\CYMR90~1\AppData\Local\Temp\cc3o48Uk.s:27688  .debug_str:000000000001fae7 .LASF5162
C:\Users\CYMR90~1\AppData\Local\Temp\cc3o48Uk.s:24581  .debug_str:0000000000013327 .LASF5163
C:\Users\CYMR90~1\AppData\Local\Temp\cc3o48Uk.s:30902  .debug_str:000000000002c556 .LASF5164
C:\Users\CYMR90~1\AppData\Local\Temp\cc3o48Uk.s:27172  .debug_str:000000000001db48 .LASF5165
C:\Users\CYMR90~1\AppData\Local\Temp\cc3o48Uk.s:28868  .debug_str:000000000002427d .LASF5166
C:\Users\CYMR90~1\AppData\Local\Temp\cc3o48Uk.s:28072  .debug_str:000000000002122e .LASF5167
C:\Users\CYMR90~1\AppData\Local\Temp\cc3o48Uk.s:23035  .debug_str:000000000000d091 .LASF5168
C:\Users\CYMR90~1\AppData\Local\Temp\cc3o48Uk.s:30136  .debug_str:0000000000029503 .LASF5169
C:\Users\CYMR90~1\AppData\Local\Temp\cc3o48Uk.s:25690  .debug_str:0000000000017af6 .LASF5170
C:\Users\CYMR90~1\AppData\Local\Temp\cc3o48Uk.s:24835  .debug_str:0000000000014275 .LASF5171
C:\Users\CYMR90~1\AppData\Local\Temp\cc3o48Uk.s:24863  .debug_str:000000000001448f .LASF5172
C:\Users\CYMR90~1\AppData\Local\Temp\cc3o48Uk.s:25041  .debug_str:0000000000014ffd .LASF5173
C:\Users\CYMR90~1\AppData\Local\Temp\cc3o48Uk.s:23099  .debug_str:000000000000d536 .LASF5174
C:\Users\CYMR90~1\AppData\Local\Temp\cc3o48Uk.s:24705  .debug_str:0000000000013a94 .LASF5175
C:\Users\CYMR90~1\AppData\Local\Temp\cc3o48Uk.s:27000  .debug_str:000000000001d0c6 .LASF5176
C:\Users\CYMR90~1\AppData\Local\Temp\cc3o48Uk.s:22305  .debug_str:0000000000009f52 .LASF5177
C:\Users\CYMR90~1\AppData\Local\Temp\cc3o48Uk.s:29076  .debug_str:000000000002506d .LASF5178
C:\Users\CYMR90~1\AppData\Local\Temp\cc3o48Uk.s:27030  .debug_str:000000000001d2a2 .LASF5179
C:\Users\CYMR90~1\AppData\Local\Temp\cc3o48Uk.s:30984  .debug_str:000000000002caa6 .LASF5180
C:\Users\CYMR90~1\AppData\Local\Temp\cc3o48Uk.s:25229  .debug_str:0000000000015b22 .LASF5181
C:\Users\CYMR90~1\AppData\Local\Temp\cc3o48Uk.s:22333  .debug_str:000000000000a11a .LASF5182
C:\Users\CYMR90~1\AppData\Local\Temp\cc3o48Uk.s:23135  .debug_str:000000000000d74f .LASF5183
C:\Users\CYMR90~1\AppData\Local\Temp\cc3o48Uk.s:27804  .debug_str:00000000000201d1 .LASF5184
C:\Users\CYMR90~1\AppData\Local\Temp\cc3o48Uk.s:29174  .debug_str:00000000000257e4 .LASF5185
C:\Users\CYMR90~1\AppData\Local\Temp\cc3o48Uk.s:21923  .debug_str:0000000000008720 .LASF5186
C:\Users\CYMR90~1\AppData\Local\Temp\cc3o48Uk.s:22365  .debug_str:000000000000a33c .LASF5187
C:\Users\CYMR90~1\AppData\Local\Temp\cc3o48Uk.s:26484  .debug_str:000000000001af29 .LASF5188
C:\Users\CYMR90~1\AppData\Local\Temp\cc3o48Uk.s:23723  .debug_str:000000000000fb59 .LASF5189
C:\Users\CYMR90~1\AppData\Local\Temp\cc3o48Uk.s:25964  .debug_str:0000000000018bfc .LASF5190
C:\Users\CYMR90~1\AppData\Local\Temp\cc3o48Uk.s:22905  .debug_str:000000000000c803 .LASF5191
C:\Users\CYMR90~1\AppData\Local\Temp\cc3o48Uk.s:23037  .debug_str:000000000000d0a9 .LASF5192
C:\Users\CYMR90~1\AppData\Local\Temp\cc3o48Uk.s:24091  .debug_str:0000000000011274 .LASF5193
C:\Users\CYMR90~1\AppData\Local\Temp\cc3o48Uk.s:27166  .debug_str:000000000001dada .LASF5194
C:\Users\CYMR90~1\AppData\Local\Temp\cc3o48Uk.s:22089  .debug_str:00000000000091a3 .LASF5195
C:\Users\CYMR90~1\AppData\Local\Temp\cc3o48Uk.s:22157  .debug_str:00000000000095e1 .LASF5196
C:\Users\CYMR90~1\AppData\Local\Temp\cc3o48Uk.s:27054  .debug_str:000000000001d40f .LASF5197
C:\Users\CYMR90~1\AppData\Local\Temp\cc3o48Uk.s:25622  .debug_str:0000000000017666 .LASF5198
C:\Users\CYMR90~1\AppData\Local\Temp\cc3o48Uk.s:28372  .debug_str:0000000000022457 .LASF5199
C:\Users\CYMR90~1\AppData\Local\Temp\cc3o48Uk.s:19811  .debug_str:00000000000000a6 .LASF5200
C:\Users\CYMR90~1\AppData\Local\Temp\cc3o48Uk.s:27770  .debug_str:000000000001fffd .LASF5201
C:\Users\CYMR90~1\AppData\Local\Temp\cc3o48Uk.s:31030  .debug_str:000000000002cdbf .LASF5202
C:\Users\CYMR90~1\AppData\Local\Temp\cc3o48Uk.s:27198  .debug_str:000000000001dd4c .LASF5203
C:\Users\CYMR90~1\AppData\Local\Temp\cc3o48Uk.s:21245  .debug_str:0000000000005b43 .LASF5204
C:\Users\CYMR90~1\AppData\Local\Temp\cc3o48Uk.s:30616  .debug_str:000000000002b1c2 .LASF5205
C:\Users\CYMR90~1\AppData\Local\Temp\cc3o48Uk.s:27996  .debug_str:0000000000020dd1 .LASF5206
C:\Users\CYMR90~1\AppData\Local\Temp\cc3o48Uk.s:26270  .debug_str:000000000001a016 .LASF5207
C:\Users\CYMR90~1\AppData\Local\Temp\cc3o48Uk.s:19905  .debug_str:0000000000000623 .LASF5208
C:\Users\CYMR90~1\AppData\Local\Temp\cc3o48Uk.s:24305  .debug_str:00000000000120e8 .LASF5209
C:\Users\CYMR90~1\AppData\Local\Temp\cc3o48Uk.s:27260  .debug_str:000000000001e12e .LASF5210
C:\Users\CYMR90~1\AppData\Local\Temp\cc3o48Uk.s:24275  .debug_str:0000000000011f37 .LASF5211
C:\Users\CYMR90~1\AppData\Local\Temp\cc3o48Uk.s:21371  .debug_str:00000000000062d1 .LASF5212
C:\Users\CYMR90~1\AppData\Local\Temp\cc3o48Uk.s:27506  .debug_str:000000000001eff0 .LASF5213
C:\Users\CYMR90~1\AppData\Local\Temp\cc3o48Uk.s:25636  .debug_str:000000000001776b .LASF5214
C:\Users\CYMR90~1\AppData\Local\Temp\cc3o48Uk.s:20161  .debug_str:0000000000001649 .LASF5215
C:\Users\CYMR90~1\AppData\Local\Temp\cc3o48Uk.s:27726  .debug_str:000000000001fd00 .LASF5216
C:\Users\CYMR90~1\AppData\Local\Temp\cc3o48Uk.s:20495  .debug_str:0000000000002b84 .LASF5217
C:\Users\CYMR90~1\AppData\Local\Temp\cc3o48Uk.s:28638  .debug_str:0000000000023405 .LASF5218
C:\Users\CYMR90~1\AppData\Local\Temp\cc3o48Uk.s:20121  .debug_str:00000000000013e6 .LASF5219
C:\Users\CYMR90~1\AppData\Local\Temp\cc3o48Uk.s:29492  .debug_str:0000000000026b1f .LASF5220
C:\Users\CYMR90~1\AppData\Local\Temp\cc3o48Uk.s:25285  .debug_str:0000000000015f13 .LASF5221
C:\Users\CYMR90~1\AppData\Local\Temp\cc3o48Uk.s:20709  .debug_str:00000000000038f8 .LASF5222
C:\Users\CYMR90~1\AppData\Local\Temp\cc3o48Uk.s:22585  .debug_str:000000000000b2c1 .LASF5223
C:\Users\CYMR90~1\AppData\Local\Temp\cc3o48Uk.s:28792  .debug_str:0000000000023d0e .LASF5224
C:\Users\CYMR90~1\AppData\Local\Temp\cc3o48Uk.s:21273  .debug_str:0000000000005cf6 .LASF5225
C:\Users\CYMR90~1\AppData\Local\Temp\cc3o48Uk.s:29638  .debug_str:000000000002748d .LASF5226
C:\Users\CYMR90~1\AppData\Local\Temp\cc3o48Uk.s:21851  .debug_str:00000000000082b6 .LASF5227
C:\Users\CYMR90~1\AppData\Local\Temp\cc3o48Uk.s:30614  .debug_str:000000000002b1a8 .LASF5228
C:\Users\CYMR90~1\AppData\Local\Temp\cc3o48Uk.s:27800  .debug_str:00000000000201a4 .LASF5229
C:\Users\CYMR90~1\AppData\Local\Temp\cc3o48Uk.s:22315  .debug_str:0000000000009fde .LASF5230
C:\Users\CYMR90~1\AppData\Local\Temp\cc3o48Uk.s:20045  .debug_str:0000000000000fb4 .LASF5231
C:\Users\CYMR90~1\AppData\Local\Temp\cc3o48Uk.s:29140  .debug_str:0000000000025515 .LASF5232
C:\Users\CYMR90~1\AppData\Local\Temp\cc3o48Uk.s:21219  .debug_str:00000000000059ac .LASF5233
C:\Users\CYMR90~1\AppData\Local\Temp\cc3o48Uk.s:30582  .debug_str:000000000002af63 .LASF5234
C:\Users\CYMR90~1\AppData\Local\Temp\cc3o48Uk.s:25353  .debug_str:0000000000016300 .LASF5235
C:\Users\CYMR90~1\AppData\Local\Temp\cc3o48Uk.s:25147  .debug_str:00000000000155c5 .LASF5236
C:\Users\CYMR90~1\AppData\Local\Temp\cc3o48Uk.s:26182  .debug_str:0000000000019af1 .LASF5237
C:\Users\CYMR90~1\AppData\Local\Temp\cc3o48Uk.s:22643  .debug_str:000000000000b68c .LASF5238
C:\Users\CYMR90~1\AppData\Local\Temp\cc3o48Uk.s:28962  .debug_str:00000000000248f7 .LASF5239
C:\Users\CYMR90~1\AppData\Local\Temp\cc3o48Uk.s:30558  .debug_str:000000000002adf0 .LASF5240
C:\Users\CYMR90~1\AppData\Local\Temp\cc3o48Uk.s:20757  .debug_str:0000000000003bfe .LASF5241
C:\Users\CYMR90~1\AppData\Local\Temp\cc3o48Uk.s:27426  .debug_str:000000000001eb4b .LASF5242
C:\Users\CYMR90~1\AppData\Local\Temp\cc3o48Uk.s:26858  .debug_str:000000000001c607 .LASF5243
C:\Users\CYMR90~1\AppData\Local\Temp\cc3o48Uk.s:24497  .debug_str:0000000000012d4a .LASF5244
C:\Users\CYMR90~1\AppData\Local\Temp\cc3o48Uk.s:30308  .debug_str:0000000000029f0d .LASF5245
C:\Users\CYMR90~1\AppData\Local\Temp\cc3o48Uk.s:28204  .debug_str:0000000000021ab1 .LASF5246
C:\Users\CYMR90~1\AppData\Local\Temp\cc3o48Uk.s:22179  .debug_str:0000000000009715 .LASF5247
C:\Users\CYMR90~1\AppData\Local\Temp\cc3o48Uk.s:30968  .debug_str:000000000002c989 .LASF5248
C:\Users\CYMR90~1\AppData\Local\Temp\cc3o48Uk.s:30012  .debug_str:0000000000028d57 .LASF5249
C:\Users\CYMR90~1\AppData\Local\Temp\cc3o48Uk.s:20591  .debug_str:0000000000003159 .LASF5250
C:\Users\CYMR90~1\AppData\Local\Temp\cc3o48Uk.s:28156  .debug_str:00000000000217e3 .LASF5251
C:\Users\CYMR90~1\AppData\Local\Temp\cc3o48Uk.s:30932  .debug_str:000000000002c70a .LASF5252
C:\Users\CYMR90~1\AppData\Local\Temp\cc3o48Uk.s:27914  .debug_str:00000000000208a7 .LASF5253
C:\Users\CYMR90~1\AppData\Local\Temp\cc3o48Uk.s:30268  .debug_str:0000000000029cc0 .LASF5254
C:\Users\CYMR90~1\AppData\Local\Temp\cc3o48Uk.s:25223  .debug_str:0000000000015adc .LASF5255
C:\Users\CYMR90~1\AppData\Local\Temp\cc3o48Uk.s:27336  .debug_str:000000000001e5cf .LASF5256
C:\Users\CYMR90~1\AppData\Local\Temp\cc3o48Uk.s:23623  .debug_str:000000000000f4e5 .LASF5257
C:\Users\CYMR90~1\AppData\Local\Temp\cc3o48Uk.s:23613  .debug_str:000000000000f458 .LASF5258
C:\Users\CYMR90~1\AppData\Local\Temp\cc3o48Uk.s:27706  .debug_str:000000000001fbd4 .LASF5259
C:\Users\CYMR90~1\AppData\Local\Temp\cc3o48Uk.s:29388  .debug_str:0000000000026511 .LASF5260
C:\Users\CYMR90~1\AppData\Local\Temp\cc3o48Uk.s:20191  .debug_str:00000000000018ea .LASF5261
C:\Users\CYMR90~1\AppData\Local\Temp\cc3o48Uk.s:26362  .debug_str:000000000001a6ed .LASF5262
C:\Users\CYMR90~1\AppData\Local\Temp\cc3o48Uk.s:21029  .debug_str:0000000000004e3b .LASF5263
C:\Users\CYMR90~1\AppData\Local\Temp\cc3o48Uk.s:25441  .debug_str:00000000000168d4 .LASF5264
C:\Users\CYMR90~1\AppData\Local\Temp\cc3o48Uk.s:20299  .debug_str:0000000000001f50 .LASF5265
C:\Users\CYMR90~1\AppData\Local\Temp\cc3o48Uk.s:25219  .debug_str:0000000000015a46 .LASF5266
C:\Users\CYMR90~1\AppData\Local\Temp\cc3o48Uk.s:23375  .debug_str:000000000000e574 .LASF5267
C:\Users\CYMR90~1\AppData\Local\Temp\cc3o48Uk.s:24093  .debug_str:0000000000011296 .LASF5268
C:\Users\CYMR90~1\AppData\Local\Temp\cc3o48Uk.s:22517  .debug_str:000000000000adb2 .LASF5269
C:\Users\CYMR90~1\AppData\Local\Temp\cc3o48Uk.s:20803  .debug_str:0000000000003f05 .LASF5270
C:\Users\CYMR90~1\AppData\Local\Temp\cc3o48Uk.s:30670  .debug_str:000000000002b58f .LASF5271
C:\Users\CYMR90~1\AppData\Local\Temp\cc3o48Uk.s:22341  .debug_str:000000000000a1a6 .LASF5272
C:\Users\CYMR90~1\AppData\Local\Temp\cc3o48Uk.s:31020  .debug_str:000000000002cd1f .LASF5273
C:\Users\CYMR90~1\AppData\Local\Temp\cc3o48Uk.s:28632  .debug_str:00000000000233af .LASF5274
C:\Users\CYMR90~1\AppData\Local\Temp\cc3o48Uk.s:30708  .debug_str:000000000002b853 .LASF5275
C:\Users\CYMR90~1\AppData\Local\Temp\cc3o48Uk.s:20103  .debug_str:00000000000012ea .LASF5276
C:\Users\CYMR90~1\AppData\Local\Temp\cc3o48Uk.s:29302  .debug_str:0000000000025fe3 .LASF5277
C:\Users\CYMR90~1\AppData\Local\Temp\cc3o48Uk.s:20581  .debug_str:00000000000030cc .LASF5278
C:\Users\CYMR90~1\AppData\Local\Temp\cc3o48Uk.s:27200  .debug_str:000000000001dd6e .LASF5279
C:\Users\CYMR90~1\AppData\Local\Temp\cc3o48Uk.s:30504  .debug_str:000000000002aa94 .LASF5280
C:\Users\CYMR90~1\AppData\Local\Temp\cc3o48Uk.s:20273  .debug_str:0000000000001de0 .LASF5281
C:\Users\CYMR90~1\AppData\Local\Temp\cc3o48Uk.s:27672  .debug_str:000000000001f9d2 .LASF5282
C:\Users\CYMR90~1\AppData\Local\Temp\cc3o48Uk.s:23253  .debug_str:000000000000de65 .LASF5283
C:\Users\CYMR90~1\AppData\Local\Temp\cc3o48Uk.s:24777  .debug_str:0000000000013f06 .LASF5284
C:\Users\CYMR90~1\AppData\Local\Temp\cc3o48Uk.s:29874  .debug_str:00000000000284cc .LASF5285
C:\Users\CYMR90~1\AppData\Local\Temp\cc3o48Uk.s:30826  .debug_str:000000000002c02d .LASF5286
C:\Users\CYMR90~1\AppData\Local\Temp\cc3o48Uk.s:20537  .debug_str:0000000000002dea .LASF5287
C:\Users\CYMR90~1\AppData\Local\Temp\cc3o48Uk.s:30860  .debug_str:000000000002c27a .LASF5288
C:\Users\CYMR90~1\AppData\Local\Temp\cc3o48Uk.s:20149  .debug_str:0000000000001593 .LASF5289
C:\Users\CYMR90~1\AppData\Local\Temp\cc3o48Uk.s:24041  .debug_str:0000000000010f58 .LASF5290
C:\Users\CYMR90~1\AppData\Local\Temp\cc3o48Uk.s:24097  .debug_str:00000000000112bb .LASF5291
C:\Users\CYMR90~1\AppData\Local\Temp\cc3o48Uk.s:25578  .debug_str:000000000001736c .LASF5292
C:\Users\CYMR90~1\AppData\Local\Temp\cc3o48Uk.s:27006  .debug_str:000000000001d121 .LASF5293
C:\Users\CYMR90~1\AppData\Local\Temp\cc3o48Uk.s:22361  .debug_str:000000000000a2e7 .LASF5294
C:\Users\CYMR90~1\AppData\Local\Temp\cc3o48Uk.s:25255  .debug_str:0000000000015d17 .LASF5295
C:\Users\CYMR90~1\AppData\Local\Temp\cc3o48Uk.s:20025  .debug_str:0000000000000dbb .LASF5296
C:\Users\CYMR90~1\AppData\Local\Temp\cc3o48Uk.s:23163  .debug_str:000000000000d8cd .LASF5297
C:\Users\CYMR90~1\AppData\Local\Temp\cc3o48Uk.s:30192  .debug_str:0000000000029827 .LASF5298
C:\Users\CYMR90~1\AppData\Local\Temp\cc3o48Uk.s:27928  .debug_str:00000000000209aa .LASF5299
C:\Users\CYMR90~1\AppData\Local\Temp\cc3o48Uk.s:27012  .debug_str:000000000001d182 .LASF5300
C:\Users\CYMR90~1\AppData\Local\Temp\cc3o48Uk.s:21709  .debug_str:000000000000785f .LASF5301
C:\Users\CYMR90~1\AppData\Local\Temp\cc3o48Uk.s:28436  .debug_str:000000000002284c .LASF5302
C:\Users\CYMR90~1\AppData\Local\Temp\cc3o48Uk.s:26524  .debug_str:000000000001b1fa .LASF5303
C:\Users\CYMR90~1\AppData\Local\Temp\cc3o48Uk.s:30576  .debug_str:000000000002af03 .LASF5304
C:\Users\CYMR90~1\AppData\Local\Temp\cc3o48Uk.s:21047  .debug_str:0000000000004f40 .LASF5305
C:\Users\CYMR90~1\AppData\Local\Temp\cc3o48Uk.s:20225  .debug_str:0000000000001aef .LASF5306
C:\Users\CYMR90~1\AppData\Local\Temp\cc3o48Uk.s:19911  .debug_str:000000000000069e .LASF5307
C:\Users\CYMR90~1\AppData\Local\Temp\cc3o48Uk.s:26034  .debug_str:00000000000191ab .LASF5308
C:\Users\CYMR90~1\AppData\Local\Temp\cc3o48Uk.s:29068  .debug_str:0000000000024f6b .LASF5309
C:\Users\CYMR90~1\AppData\Local\Temp\cc3o48Uk.s:23031  .debug_str:000000000000d05a .LASF5310
C:\Users\CYMR90~1\AppData\Local\Temp\cc3o48Uk.s:29714  .debug_str:0000000000027961 .LASF5311
C:\Users\CYMR90~1\AppData\Local\Temp\cc3o48Uk.s:30862  .debug_str:000000000002c29a .LASF5312
C:\Users\CYMR90~1\AppData\Local\Temp\cc3o48Uk.s:24107  .debug_str:0000000000011398 .LASF5313
C:\Users\CYMR90~1\AppData\Local\Temp\cc3o48Uk.s:30166  .debug_str:00000000000296c3 .LASF5314
C:\Users\CYMR90~1\AppData\Local\Temp\cc3o48Uk.s:25774  .debug_str:0000000000017ff9 .LASF5315
C:\Users\CYMR90~1\AppData\Local\Temp\cc3o48Uk.s:21403  .debug_str:00000000000064b7 .LASF5316
C:\Users\CYMR90~1\AppData\Local\Temp\cc3o48Uk.s:25666  .debug_str:0000000000017967 .LASF5317
C:\Users\CYMR90~1\AppData\Local\Temp\cc3o48Uk.s:28528  .debug_str:0000000000022de7 .LASF5318
C:\Users\CYMR90~1\AppData\Local\Temp\cc3o48Uk.s:21817  .debug_str:00000000000080a7 .LASF5319
C:\Users\CYMR90~1\AppData\Local\Temp\cc3o48Uk.s:25998  .debug_str:0000000000018ed7 .LASF5320
C:\Users\CYMR90~1\AppData\Local\Temp\cc3o48Uk.s:28218  .debug_str:0000000000021b98 .LASF5321
C:\Users\CYMR90~1\AppData\Local\Temp\cc3o48Uk.s:26142  .debug_str:0000000000019810 .LASF5322
C:\Users\CYMR90~1\AppData\Local\Temp\cc3o48Uk.s:23273  .debug_str:000000000000df7f .LASF5323
C:\Users\CYMR90~1\AppData\Local\Temp\cc3o48Uk.s:26492  .debug_str:000000000001afee .LASF5324
C:\Users\CYMR90~1\AppData\Local\Temp\cc3o48Uk.s:29668  .debug_str:0000000000027629 .LASF5325
C:\Users\CYMR90~1\AppData\Local\Temp\cc3o48Uk.s:24629  .debug_str:00000000000135de .LASF5326
C:\Users\CYMR90~1\AppData\Local\Temp\cc3o48Uk.s:24755  .debug_str:0000000000013d73 .LASF5327
C:\Users\CYMR90~1\AppData\Local\Temp\cc3o48Uk.s:21243  .debug_str:0000000000005b2b .LASF5328
C:\Users\CYMR90~1\AppData\Local\Temp\cc3o48Uk.s:21663  .debug_str:000000000000756c .LASF5329
C:\Users\CYMR90~1\AppData\Local\Temp\cc3o48Uk.s:25994  .debug_str:0000000000018e93 .LASF5330
C:\Users\CYMR90~1\AppData\Local\Temp\cc3o48Uk.s:25071  .debug_str:00000000000151bf .LASF5331
C:\Users\CYMR90~1\AppData\Local\Temp\cc3o48Uk.s:27574  .debug_str:000000000001f425 .LASF5332
C:\Users\CYMR90~1\AppData\Local\Temp\cc3o48Uk.s:22167  .debug_str:0000000000009672 .LASF5333
C:\Users\CYMR90~1\AppData\Local\Temp\cc3o48Uk.s:22541  .debug_str:000000000000b01b .LASF5334
C:\Users\CYMR90~1\AppData\Local\Temp\cc3o48Uk.s:29804  .debug_str:0000000000027f98 .LASF5335
C:\Users\CYMR90~1\AppData\Local\Temp\cc3o48Uk.s:28466  .debug_str:0000000000022a00 .LASF5336
C:\Users\CYMR90~1\AppData\Local\Temp\cc3o48Uk.s:25712  .debug_str:0000000000017c41 .LASF5337
C:\Users\CYMR90~1\AppData\Local\Temp\cc3o48Uk.s:26138  .debug_str:00000000000197d0 .LASF5338
C:\Users\CYMR90~1\AppData\Local\Temp\cc3o48Uk.s:22479  .debug_str:000000000000ab37 .LASF5339
C:\Users\CYMR90~1\AppData\Local\Temp\cc3o48Uk.s:27596  .debug_str:000000000001f569 .LASF5340
C:\Users\CYMR90~1\AppData\Local\Temp\cc3o48Uk.s:21163  .debug_str:000000000000563c .LASF5341
C:\Users\CYMR90~1\AppData\Local\Temp\cc3o48Uk.s:26696  .debug_str:000000000001bc5d .LASF5342
C:\Users\CYMR90~1\AppData\Local\Temp\cc3o48Uk.s:24885  .debug_str:00000000000145e1 .LASF5343
C:\Users\CYMR90~1\AppData\Local\Temp\cc3o48Uk.s:22641  .debug_str:000000000000b66f .LASF5344
C:\Users\CYMR90~1\AppData\Local\Temp\cc3o48Uk.s:27830  .debug_str:000000000002031d .LASF5345
C:\Users\CYMR90~1\AppData\Local\Temp\cc3o48Uk.s:21771  .debug_str:0000000000007d02 .LASF5346
C:\Users\CYMR90~1\AppData\Local\Temp\cc3o48Uk.s:23323  .debug_str:000000000000e274 .LASF5347
C:\Users\CYMR90~1\AppData\Local\Temp\cc3o48Uk.s:25081  .debug_str:0000000000015229 .LASF5348
C:\Users\CYMR90~1\AppData\Local\Temp\cc3o48Uk.s:28722  .debug_str:000000000002396f .LASF5349
C:\Users\CYMR90~1\AppData\Local\Temp\cc3o48Uk.s:26014  .debug_str:0000000000018f94 .LASF5350
C:\Users\CYMR90~1\AppData\Local\Temp\cc3o48Uk.s:30914  .debug_str:000000000002c5ff .LASF5351
C:\Users\CYMR90~1\AppData\Local\Temp\cc3o48Uk.s:23673  .debug_str:000000000000f860 .LASF5352
C:\Users\CYMR90~1\AppData\Local\Temp\cc3o48Uk.s:23041  .debug_str:000000000000d0f8 .LASF5353
C:\Users\CYMR90~1\AppData\Local\Temp\cc3o48Uk.s:21039  .debug_str:0000000000004ee3 .LASF5354
C:\Users\CYMR90~1\AppData\Local\Temp\cc3o48Uk.s:30886  .debug_str:000000000002c472 .LASF5355
C:\Users\CYMR90~1\AppData\Local\Temp\cc3o48Uk.s:30892  .debug_str:000000000002c4ba .LASF5356
C:\Users\CYMR90~1\AppData\Local\Temp\cc3o48Uk.s:26454  .debug_str:000000000001ad0d .LASF5357
C:\Users\CYMR90~1\AppData\Local\Temp\cc3o48Uk.s:30024  .debug_str:0000000000028e1f .LASF5358
C:\Users\CYMR90~1\AppData\Local\Temp\cc3o48Uk.s:30804  .debug_str:000000000002bef3 .LASF5359
C:\Users\CYMR90~1\AppData\Local\Temp\cc3o48Uk.s:26452  .debug_str:000000000001acf2 .LASF5360
C:\Users\CYMR90~1\AppData\Local\Temp\cc3o48Uk.s:23169  .debug_str:000000000000d917 .LASF5361
C:\Users\CYMR90~1\AppData\Local\Temp\cc3o48Uk.s:25496  .debug_str:0000000000016e7c .LASF5362
C:\Users\CYMR90~1\AppData\Local\Temp\cc3o48Uk.s:23309  .debug_str:000000000000e18a .LASF5363
C:\Users\CYMR90~1\AppData\Local\Temp\cc3o48Uk.s:24549  .debug_str:00000000000130bf .LASF5364
C:\Users\CYMR90~1\AppData\Local\Temp\cc3o48Uk.s:30146  .debug_str:00000000000295ad .LASF5365
C:\Users\CYMR90~1\AppData\Local\Temp\cc3o48Uk.s:30762  .debug_str:000000000002bbc7 .LASF5366
C:\Users\CYMR90~1\AppData\Local\Temp\cc3o48Uk.s:22231  .debug_str:0000000000009ab6 .LASF5367
C:\Users\CYMR90~1\AppData\Local\Temp\cc3o48Uk.s:30786  .debug_str:000000000002bd52 .LASF5368
C:\Users\CYMR90~1\AppData\Local\Temp\cc3o48Uk.s:26404  .debug_str:000000000001aa05 .LASF5369
C:\Users\CYMR90~1\AppData\Local\Temp\cc3o48Uk.s:20347  .debug_str:00000000000021f3 .LASF5370
C:\Users\CYMR90~1\AppData\Local\Temp\cc3o48Uk.s:23985  .debug_str:0000000000010c70 .LASF5371
C:\Users\CYMR90~1\AppData\Local\Temp\cc3o48Uk.s:20703  .debug_str:000000000000388b .LASF5372
C:\Users\CYMR90~1\AppData\Local\Temp\cc3o48Uk.s:21461  .debug_str:000000000000687d .LASF5373
C:\Users\CYMR90~1\AppData\Local\Temp\cc3o48Uk.s:22243  .debug_str:0000000000009b8d .LASF5374
C:\Users\CYMR90~1\AppData\Local\Temp\cc3o48Uk.s:25413  .debug_str:00000000000166c6 .LASF5375
C:\Users\CYMR90~1\AppData\Local\Temp\cc3o48Uk.s:27410  .debug_str:000000000001ea79 .LASF5376
C:\Users\CYMR90~1\AppData\Local\Temp\cc3o48Uk.s:20813  .debug_str:0000000000003f78 .LASF5377
C:\Users\CYMR90~1\AppData\Local\Temp\cc3o48Uk.s:25522  .debug_str:0000000000017005 .LASF5378
C:\Users\CYMR90~1\AppData\Local\Temp\cc3o48Uk.s:24657  .debug_str:0000000000013796 .LASF5379
C:\Users\CYMR90~1\AppData\Local\Temp\cc3o48Uk.s:23637  .debug_str:000000000000f5b4 .LASF5380
C:\Users\CYMR90~1\AppData\Local\Temp\cc3o48Uk.s:28410  .debug_str:00000000000226e0 .LASF5381
C:\Users\CYMR90~1\AppData\Local\Temp\cc3o48Uk.s:21695  .debug_str:0000000000007775 .LASF5382
C:\Users\CYMR90~1\AppData\Local\Temp\cc3o48Uk.s:24883  .debug_str:00000000000145ca .LASF5383
C:\Users\CYMR90~1\AppData\Local\Temp\cc3o48Uk.s:28012  .debug_str:0000000000020ed3 .LASF5384
C:\Users\CYMR90~1\AppData\Local\Temp\cc3o48Uk.s:25399  .debug_str:0000000000016616 .LASF5385
C:\Users\CYMR90~1\AppData\Local\Temp\cc3o48Uk.s:23439  .debug_str:000000000000e9b1 .LASF5386
C:\Users\CYMR90~1\AppData\Local\Temp\cc3o48Uk.s:21599  .debug_str:0000000000007190 .LASF5387
C:\Users\CYMR90~1\AppData\Local\Temp\cc3o48Uk.s:26908  .debug_str:000000000001c9e8 .LASF5388
C:\Users\CYMR90~1\AppData\Local\Temp\cc3o48Uk.s:29664  .debug_str:00000000000275ff .LASF5389
C:\Users\CYMR90~1\AppData\Local\Temp\cc3o48Uk.s:26838  .debug_str:000000000001c4f4 .LASF5390
C:\Users\CYMR90~1\AppData\Local\Temp\cc3o48Uk.s:27876  .debug_str:000000000002065f .LASF5391
C:\Users\CYMR90~1\AppData\Local\Temp\cc3o48Uk.s:21119  .debug_str:0000000000005396 .LASF5392
C:\Users\CYMR90~1\AppData\Local\Temp\cc3o48Uk.s:29926  .debug_str:0000000000028864 .LASF5393
C:\Users\CYMR90~1\AppData\Local\Temp\cc3o48Uk.s:25574  .debug_str:000000000001732d .LASF5394
C:\Users\CYMR90~1\AppData\Local\Temp\cc3o48Uk.s:21391  .debug_str:000000000000640c .LASF5395
C:\Users\CYMR90~1\AppData\Local\Temp\cc3o48Uk.s:26118  .debug_str:0000000000019675 .LASF5396
C:\Users\CYMR90~1\AppData\Local\Temp\cc3o48Uk.s:24607  .debug_str:00000000000134a5 .LASF5397
C:\Users\CYMR90~1\AppData\Local\Temp\cc3o48Uk.s:27822  .debug_str:00000000000202ba .LASF5398
C:\Users\CYMR90~1\AppData\Local\Temp\cc3o48Uk.s:31066  .debug_str:000000000002cfd2 .LASF5399
C:\Users\CYMR90~1\AppData\Local\Temp\cc3o48Uk.s:26786  .debug_str:000000000001c220 .LASF5400
C:\Users\CYMR90~1\AppData\Local\Temp\cc3o48Uk.s:20341  .debug_str:0000000000002197 .LASF5401
C:\Users\CYMR90~1\AppData\Local\Temp\cc3o48Uk.s:27208  .debug_str:000000000001dde6 .LASF5402
C:\Users\CYMR90~1\AppData\Local\Temp\cc3o48Uk.s:27544  .debug_str:000000000001f24e .LASF5403
C:\Users\CYMR90~1\AppData\Local\Temp\cc3o48Uk.s:24377  .debug_str:0000000000012595 .LASF5404
C:\Users\CYMR90~1\AppData\Local\Temp\cc3o48Uk.s:23205  .debug_str:000000000000db5b .LASF5405
C:\Users\CYMR90~1\AppData\Local\Temp\cc3o48Uk.s:30838  .debug_str:000000000002c128 .LASF5406
C:\Users\CYMR90~1\AppData\Local\Temp\cc3o48Uk.s:28306  .debug_str:00000000000220ef .LASF5407
C:\Users\CYMR90~1\AppData\Local\Temp\cc3o48Uk.s:30444  .debug_str:000000000002a734 .LASF5408
C:\Users\CYMR90~1\AppData\Local\Temp\cc3o48Uk.s:20735  .debug_str:0000000000003a8e .LASF5409
C:\Users\CYMR90~1\AppData\Local\Temp\cc3o48Uk.s:25439  .debug_str:00000000000168bd .LASF5410
C:\Users\CYMR90~1\AppData\Local\Temp\cc3o48Uk.s:24617  .debug_str:0000000000013553 .LASF5411
C:\Users\CYMR90~1\AppData\Local\Temp\cc3o48Uk.s:29544  .debug_str:0000000000026e81 .LASF5412
C:\Users\CYMR90~1\AppData\Local\Temp\cc3o48Uk.s:25403  .debug_str:0000000000016641 .LASF5413
C:\Users\CYMR90~1\AppData\Local\Temp\cc3o48Uk.s:27202  .debug_str:000000000001dd85 .LASF5414
C:\Users\CYMR90~1\AppData\Local\Temp\cc3o48Uk.s:23533  .debug_str:000000000000ef62 .LASF5415
C:\Users\CYMR90~1\AppData\Local\Temp\cc3o48Uk.s:28196  .debug_str:0000000000021a14 .LASF5416
C:\Users\CYMR90~1\AppData\Local\Temp\cc3o48Uk.s:24667  .debug_str:000000000001383e .LASF5417
C:\Users\CYMR90~1\AppData\Local\Temp\cc3o48Uk.s:20263  .debug_str:0000000000001d40 .LASF5418
C:\Users\CYMR90~1\AppData\Local\Temp\cc3o48Uk.s:20723  .debug_str:00000000000039ed .LASF5419
C:\Users\CYMR90~1\AppData\Local\Temp\cc3o48Uk.s:19891  .debug_str:0000000000000568 .LASF5420
C:\Users\CYMR90~1\AppData\Local\Temp\cc3o48Uk.s:23065  .debug_str:000000000000d2bb .LASF5421
C:\Users\CYMR90~1\AppData\Local\Temp\cc3o48Uk.s:27730  .debug_str:000000000001fd37 .LASF5422
C:\Users\CYMR90~1\AppData\Local\Temp\cc3o48Uk.s:26534  .debug_str:000000000001b2b0 .LASF5423
C:\Users\CYMR90~1\AppData\Local\Temp\cc3o48Uk.s:27354  .debug_str:000000000001e6c1 .LASF5424
C:\Users\CYMR90~1\AppData\Local\Temp\cc3o48Uk.s:25031  .debug_str:0000000000014f69 .LASF5425
C:\Users\CYMR90~1\AppData\Local\Temp\cc3o48Uk.s:25455  .debug_str:0000000000016a48 .LASF5426
C:\Users\CYMR90~1\AppData\Local\Temp\cc3o48Uk.s:22083  .debug_str:0000000000009144 .LASF5427
C:\Users\CYMR90~1\AppData\Local\Temp\cc3o48Uk.s:30438  .debug_str:000000000002a6e6 .LASF5428
C:\Users\CYMR90~1\AppData\Local\Temp\cc3o48Uk.s:27994  .debug_str:0000000000020dbc .LASF5429
C:\Users\CYMR90~1\AppData\Local\Temp\cc3o48Uk.s:19963  .debug_str:00000000000009b6 .LASF5430
C:\Users\CYMR90~1\AppData\Local\Temp\cc3o48Uk.s:29606  .debug_str:00000000000272e0 .LASF5431
C:\Users\CYMR90~1\AppData\Local\Temp\cc3o48Uk.s:29898  .debug_str:0000000000028697 .LASF5432
C:\Users\CYMR90~1\AppData\Local\Temp\cc3o48Uk.s:29244  .debug_str:0000000000025c20 .LASF5433
C:\Users\CYMR90~1\AppData\Local\Temp\cc3o48Uk.s:20661  .debug_str:00000000000035d4 .LASF5434
C:\Users\CYMR90~1\AppData\Local\Temp\cc3o48Uk.s:27616  .debug_str:000000000001f67f .LASF5435
C:\Users\CYMR90~1\AppData\Local\Temp\cc3o48Uk.s:20051  .debug_str:0000000000001000 .LASF5436
C:\Users\CYMR90~1\AppData\Local\Temp\cc3o48Uk.s:23259  .debug_str:000000000000dec8 .LASF5437
C:\Users\CYMR90~1\AppData\Local\Temp\cc3o48Uk.s:21795  .debug_str:0000000000007ea6 .LASF5438
C:\Users\CYMR90~1\AppData\Local\Temp\cc3o48Uk.s:29230  .debug_str:0000000000025b68 .LASF5439
C:\Users\CYMR90~1\AppData\Local\Temp\cc3o48Uk.s:25494  .debug_str:0000000000016e65 .LASF5440
C:\Users\CYMR90~1\AppData\Local\Temp\cc3o48Uk.s:28824  .debug_str:0000000000023ed6 .LASF5441
C:\Users\CYMR90~1\AppData\Local\Temp\cc3o48Uk.s:23289  .debug_str:000000000000e065 .LASF5442
C:\Users\CYMR90~1\AppData\Local\Temp\cc3o48Uk.s:29166  .debug_str:0000000000025700 .LASF5443
C:\Users\CYMR90~1\AppData\Local\Temp\cc3o48Uk.s:21819  .debug_str:00000000000080bd .LASF5444
C:\Users\CYMR90~1\AppData\Local\Temp\cc3o48Uk.s:24039  .debug_str:0000000000010f42 .LASF5445
C:\Users\CYMR90~1\AppData\Local\Temp\cc3o48Uk.s:23731  .debug_str:000000000000fbee .LASF5446
C:\Users\CYMR90~1\AppData\Local\Temp\cc3o48Uk.s:31056  .debug_str:000000000002cf41 .LASF5447
C:\Users\CYMR90~1\AppData\Local\Temp\cc3o48Uk.s:21899  .debug_str:00000000000085ae .LASF5448
C:\Users\CYMR90~1\AppData\Local\Temp\cc3o48Uk.s:22867  .debug_str:000000000000c58d .LASF5449
C:\Users\CYMR90~1\AppData\Local\Temp\cc3o48Uk.s:30364  .debug_str:000000000002a226 .LASF5450
C:\Users\CYMR90~1\AppData\Local\Temp\cc3o48Uk.s:21835  .debug_str:00000000000081cd .LASF5451
C:\Users\CYMR90~1\AppData\Local\Temp\cc3o48Uk.s:21361  .debug_str:000000000000622f .LASF5452
C:\Users\CYMR90~1\AppData\Local\Temp\cc3o48Uk.s:25536  .debug_str:00000000000170e0 .LASF5453
C:\Users\CYMR90~1\AppData\Local\Temp\cc3o48Uk.s:30964  .debug_str:000000000002c93e .LASF5454
C:\Users\CYMR90~1\AppData\Local\Temp\cc3o48Uk.s:21071  .debug_str:00000000000050a8 .LASF5455
C:\Users\CYMR90~1\AppData\Local\Temp\cc3o48Uk.s:27886  .debug_str:00000000000206e6 .LASF5456
C:\Users\CYMR90~1\AppData\Local\Temp\cc3o48Uk.s:28918  .debug_str:00000000000245b5 .LASF5457
C:\Users\CYMR90~1\AppData\Local\Temp\cc3o48Uk.s:23467  .debug_str:000000000000eba1 .LASF5458
C:\Users\CYMR90~1\AppData\Local\Temp\cc3o48Uk.s:22533  .debug_str:000000000000aee7 .LASF5459
C:\Users\CYMR90~1\AppData\Local\Temp\cc3o48Uk.s:28086  .debug_str:00000000000213a0 .LASF5460
C:\Users\CYMR90~1\AppData\Local\Temp\cc3o48Uk.s:22903  .debug_str:000000000000c7e5 .LASF5461
C:\Users\CYMR90~1\AppData\Local\Temp\cc3o48Uk.s:26366  .debug_str:000000000001a74f .LASF5462
C:\Users\CYMR90~1\AppData\Local\Temp\cc3o48Uk.s:25291  .debug_str:0000000000015f8d .LASF5463
C:\Users\CYMR90~1\AppData\Local\Temp\cc3o48Uk.s:20421  .debug_str:0000000000002668 .LASF5464
C:\Users\CYMR90~1\AppData\Local\Temp\cc3o48Uk.s:27476  .debug_str:000000000001ee1b .LASF5465
C:\Users\CYMR90~1\AppData\Local\Temp\cc3o48Uk.s:26430  .debug_str:000000000001abc6 .LASF5466
C:\Users\CYMR90~1\AppData\Local\Temp\cc3o48Uk.s:25914  .debug_str:00000000000188c8 .LASF5467
C:\Users\CYMR90~1\AppData\Local\Temp\cc3o48Uk.s:21061  .debug_str:000000000000501e .LASF5468
C:\Users\CYMR90~1\AppData\Local\Temp\cc3o48Uk.s:28038  .debug_str:000000000002102a .LASF5469
C:\Users\CYMR90~1\AppData\Local\Temp\cc3o48Uk.s:25175  .debug_str:0000000000015793 .LASF5470
C:\Users\CYMR90~1\AppData\Local\Temp\cc3o48Uk.s:24773  .debug_str:0000000000013ecf .LASF5471
C:\Users\CYMR90~1\AppData\Local\Temp\cc3o48Uk.s:20143  .debug_str:000000000000155d .LASF5472
C:\Users\CYMR90~1\AppData\Local\Temp\cc3o48Uk.s:30570  .debug_str:000000000002aea1 .LASF5473
C:\Users\CYMR90~1\AppData\Local\Temp\cc3o48Uk.s:27740  .debug_str:000000000001fdf0 .LASF5474
C:\Users\CYMR90~1\AppData\Local\Temp\cc3o48Uk.s:19829  .debug_str:00000000000001c8 .LASF5475
C:\Users\CYMR90~1\AppData\Local\Temp\cc3o48Uk.s:24339  .debug_str:0000000000012316 .LASF5476
C:\Users\CYMR90~1\AppData\Local\Temp\cc3o48Uk.s:27130  .debug_str:000000000001d8e9 .LASF5477
C:\Users\CYMR90~1\AppData\Local\Temp\cc3o48Uk.s:25898  .debug_str:00000000000187b9 .LASF5478
C:\Users\CYMR90~1\AppData\Local\Temp\cc3o48Uk.s:20255  .debug_str:0000000000001ccc .LASF5479
C:\Users\CYMR90~1\AppData\Local\Temp\cc3o48Uk.s:21841  .debug_str:000000000000820f .LASF5480
C:\Users\CYMR90~1\AppData\Local\Temp\cc3o48Uk.s:26672  .debug_str:000000000001bab9 .LASF5481
C:\Users\CYMR90~1\AppData\Local\Temp\cc3o48Uk.s:29956  .debug_str:0000000000028a12 .LASF5482
C:\Users\CYMR90~1\AppData\Local\Temp\cc3o48Uk.s:23407  .debug_str:000000000000e7b8 .LASF5483
C:\Users\CYMR90~1\AppData\Local\Temp\cc3o48Uk.s:24877  .debug_str:000000000001457a .LASF5484
C:\Users\CYMR90~1\AppData\Local\Temp\cc3o48Uk.s:27194  .debug_str:000000000001dc9e .LASF5485
C:\Users\CYMR90~1\AppData\Local\Temp\cc3o48Uk.s:28554  .debug_str:0000000000022f7f .LASF5486
C:\Users\CYMR90~1\AppData\Local\Temp\cc3o48Uk.s:29958  .debug_str:0000000000028a25 .LASF5487
C:\Users\CYMR90~1\AppData\Local\Temp\cc3o48Uk.s:25463  .debug_str:0000000000016ac2 .LASF5488
C:\Users\CYMR90~1\AppData\Local\Temp\cc3o48Uk.s:26546  .debug_str:000000000001b369 .LASF5489
C:\Users\CYMR90~1\AppData\Local\Temp\cc3o48Uk.s:25638  .debug_str:0000000000017784 .LASF5490
C:\Users\CYMR90~1\AppData\Local\Temp\cc3o48Uk.s:25143  .debug_str:0000000000015594 .LASF5491
C:\Users\CYMR90~1\AppData\Local\Temp\cc3o48Uk.s:23873  .debug_str:00000000000104bc .LASF5492
C:\Users\CYMR90~1\AppData\Local\Temp\cc3o48Uk.s:26372  .debug_str:000000000001a829 .LASF5493
C:\Users\CYMR90~1\AppData\Local\Temp\cc3o48Uk.s:25624  .debug_str:0000000000017688 .LASF5494
C:\Users\CYMR90~1\AppData\Local\Temp\cc3o48Uk.s:26578  .debug_str:000000000001b54c .LASF5495
C:\Users\CYMR90~1\AppData\Local\Temp\cc3o48Uk.s:24495  .debug_str:0000000000012d2d .LASF5496
C:\Users\CYMR90~1\AppData\Local\Temp\cc3o48Uk.s:23819  .debug_str:000000000001017a .LASF5497
C:\Users\CYMR90~1\AppData\Local\Temp\cc3o48Uk.s:24699  .debug_str:0000000000013a41 .LASF5498
C:\Users\CYMR90~1\AppData\Local\Temp\cc3o48Uk.s:20469  .debug_str:0000000000002994 .LASF5499
C:\Users\CYMR90~1\AppData\Local\Temp\cc3o48Uk.s:23215  .debug_str:000000000000dbdb .LASF5500
C:\Users\CYMR90~1\AppData\Local\Temp\cc3o48Uk.s:28998  .debug_str:0000000000024b33 .LASF5501
C:\Users\CYMR90~1\AppData\Local\Temp\cc3o48Uk.s:23093  .debug_str:000000000000d4af .LASF5502
C:\Users\CYMR90~1\AppData\Local\Temp\cc3o48Uk.s:22595  .debug_str:000000000000b357 .LASF5503
C:\Users\CYMR90~1\AppData\Local\Temp\cc3o48Uk.s:28664  .debug_str:00000000000235d0 .LASF5504
C:\Users\CYMR90~1\AppData\Local\Temp\cc3o48Uk.s:28976  .debug_str:00000000000249af .LASF5505
C:\Users\CYMR90~1\AppData\Local\Temp\cc3o48Uk.s:20865  .debug_str:000000000000435d .LASF5506
C:\Users\CYMR90~1\AppData\Local\Temp\cc3o48Uk.s:30960  .debug_str:000000000002c90b .LASF5507
C:\Users\CYMR90~1\AppData\Local\Temp\cc3o48Uk.s:21263  .debug_str:0000000000005c51 .LASF5508
C:\Users\CYMR90~1\AppData\Local\Temp\cc3o48Uk.s:30998  .debug_str:000000000002cb61 .LASF5509
C:\Users\CYMR90~1\AppData\Local\Temp\cc3o48Uk.s:20387  .debug_str:0000000000002438 .LASF5510
C:\Users\CYMR90~1\AppData\Local\Temp\cc3o48Uk.s:29908  .debug_str:0000000000028720 .LASF5511
C:\Users\CYMR90~1\AppData\Local\Temp\cc3o48Uk.s:28738  .debug_str:0000000000023a5b .LASF5512
C:\Users\CYMR90~1\AppData\Local\Temp\cc3o48Uk.s:26922  .debug_str:000000000001cab4 .LASF5513
C:\Users\CYMR90~1\AppData\Local\Temp\cc3o48Uk.s:24479  .debug_str:0000000000012c4c .LASF5514
C:\Users\CYMR90~1\AppData\Local\Temp\cc3o48Uk.s:24981  .debug_str:0000000000014c10 .LASF5515
C:\Users\CYMR90~1\AppData\Local\Temp\cc3o48Uk.s:29710  .debug_str:0000000000027929 .LASF5516
C:\Users\CYMR90~1\AppData\Local\Temp\cc3o48Uk.s:23125  .debug_str:000000000000d6fa .LASF5517
C:\Users\CYMR90~1\AppData\Local\Temp\cc3o48Uk.s:27792  .debug_str:0000000000020153 .LASF5518
C:\Users\CYMR90~1\AppData\Local\Temp\cc3o48Uk.s:28614  .debug_str:00000000000232b0 .LASF5519
C:\Users\CYMR90~1\AppData\Local\Temp\cc3o48Uk.s:30606  .debug_str:000000000002b121 .LASF5520
C:\Users\CYMR90~1\AppData\Local\Temp\cc3o48Uk.s:28886  .debug_str:0000000000024392 .LASF5521
C:\Users\CYMR90~1\AppData\Local\Temp\cc3o48Uk.s:22685  .debug_str:000000000000b95a .LASF5522
C:\Users\CYMR90~1\AppData\Local\Temp\cc3o48Uk.s:21907  .debug_str:0000000000008626 .LASF5523
C:\Users\CYMR90~1\AppData\Local\Temp\cc3o48Uk.s:25814  .debug_str:0000000000018269 .LASF5524
C:\Users\CYMR90~1\AppData\Local\Temp\cc3o48Uk.s:30706  .debug_str:000000000002b82a .LASF5525
C:\Users\CYMR90~1\AppData\Local\Temp\cc3o48Uk.s:26248  .debug_str:0000000000019ed3 .LASF5526
C:\Users\CYMR90~1\AppData\Local\Temp\cc3o48Uk.s:25498  .debug_str:0000000000016e97 .LASF5527
C:\Users\CYMR90~1\AppData\Local\Temp\cc3o48Uk.s:25854  .debug_str:000000000001852b .LASF5528
C:\Users\CYMR90~1\AppData\Local\Temp\cc3o48Uk.s:25820  .debug_str:00000000000182e1 .LASF5529
C:\Users\CYMR90~1\AppData\Local\Temp\cc3o48Uk.s:28830  .debug_str:0000000000023f1c .LASF5530
C:\Users\CYMR90~1\AppData\Local\Temp\cc3o48Uk.s:30810  .debug_str:000000000002bf40 .LASF5531
C:\Users\CYMR90~1\AppData\Local\Temp\cc3o48Uk.s:28940  .debug_str:00000000000246ff .LASF5532
C:\Users\CYMR90~1\AppData\Local\Temp\cc3o48Uk.s:26136  .debug_str:00000000000197ac .LASF5533
C:\Users\CYMR90~1\AppData\Local\Temp\cc3o48Uk.s:26538  .debug_str:000000000001b2e6 .LASF5534
C:\Users\CYMR90~1\AppData\Local\Temp\cc3o48Uk.s:27850  .debug_str:0000000000020462 .LASF5535
C:\Users\CYMR90~1\AppData\Local\Temp\cc3o48Uk.s:24353  .debug_str:0000000000012405 .LASF5536
C:\Users\CYMR90~1\AppData\Local\Temp\cc3o48Uk.s:26314  .debug_str:000000000001a42b .LASF5537
C:\Users\CYMR90~1\AppData\Local\Temp\cc3o48Uk.s:24975  .debug_str:0000000000014b9b .LASF5538
C:\Users\CYMR90~1\AppData\Local\Temp\cc3o48Uk.s:28448  .debug_str:0000000000022900 .LASF5539
C:\Users\CYMR90~1\AppData\Local\Temp\cc3o48Uk.s:26740  .debug_str:000000000001bf35 .LASF5540
C:\Users\CYMR90~1\AppData\Local\Temp\cc3o48Uk.s:30226  .debug_str:0000000000029a42 .LASF5541
C:\Users\CYMR90~1\AppData\Local\Temp\cc3o48Uk.s:27272  .debug_str:000000000001e1f3 .LASF5542
C:\Users\CYMR90~1\AppData\Local\Temp\cc3o48Uk.s:24731  .debug_str:0000000000013c01 .LASF5543
C:\Users\CYMR90~1\AppData\Local\Temp\cc3o48Uk.s:20939  .debug_str:00000000000048d4 .LASF5544
C:\Users\CYMR90~1\AppData\Local\Temp\cc3o48Uk.s:22347  .debug_str:000000000000a204 .LASF5545
C:\Users\CYMR90~1\AppData\Local\Temp\cc3o48Uk.s:21439  .debug_str:0000000000006724 .LASF5546
C:\Users\CYMR90~1\AppData\Local\Temp\cc3o48Uk.s:20583  .debug_str:00000000000030e2 .LASF5547
C:\Users\CYMR90~1\AppData\Local\Temp\cc3o48Uk.s:31042  .debug_str:000000000002ce69 .LASF5548
C:\Users\CYMR90~1\AppData\Local\Temp\cc3o48Uk.s:25343  .debug_str:000000000001629a .LASF5549
C:\Users\CYMR90~1\AppData\Local\Temp\cc3o48Uk.s:28904  .debug_str:00000000000244c5 .LASF5550
C:\Users\CYMR90~1\AppData\Local\Temp\cc3o48Uk.s:28754  .debug_str:0000000000023b30 .LASF5551
C:\Users\CYMR90~1\AppData\Local\Temp\cc3o48Uk.s:24025  .debug_str:0000000000010e74 .LASF5552
C:\Users\CYMR90~1\AppData\Local\Temp\cc3o48Uk.s:27214  .debug_str:000000000001de4e .LASF5553
C:\Users\CYMR90~1\AppData\Local\Temp\cc3o48Uk.s:22281  .debug_str:0000000000009dd3 .LASF5554
C:\Users\CYMR90~1\AppData\Local\Temp\cc3o48Uk.s:22367  .debug_str:000000000000a38d .LASF5555
                           .group:0000000000000000 wm4.0.10abbef32179bc1260444192115bdf5e
                           .group:0000000000000000 wm4.stddef.h.39.144cf5ddcd53cbfdac30259dc1a6c87f
                           .group:0000000000000000 wm4._newlib_version.h.4.bfdf54b0af045d4a71376ae00f63a22c
                           .group:0000000000000000 wm4.newlib.h.18.08a2ecba46890ca2aa56bbe21686e6c3
                           .group:0000000000000000 wm4.ieeefp.h.202.4f2759f5758fd82153cfbf98692f2ced
                           .group:0000000000000000 wm4.features.h.22.fad1cec3bc7ff06488171438dbdcfd02
                           .group:0000000000000000 wm4.config.h.83.13bbc8852bfac55b724c9822481355b5
                           .group:0000000000000000 wm4._ansi.h.31.de524f58584151836e90d8620a16f8e8
                           .group:0000000000000000 wm4.stdio.h.31.7c0e28c411445f3f9c5b11accf882760
                           .group:0000000000000000 wm4._default_types.h.6.959254cf5f09734ea7516c89e8bb21bd
                           .group:0000000000000000 wm4.stddef.h.155.ba788add86a0e365f264484f110c3c29
                           .group:0000000000000000 wm4.cdefs.h.49.39045112216f6a021dbdffe3bf5accce
                           .group:0000000000000000 wm4.stdarg.h.34.3a23a216c0c293b3d2ea2e89281481e6
                           .group:0000000000000000 wm4._types.h.20.dd0d04dca3800a0d2a6129b87f3adbb2
                           .group:0000000000000000 wm4.stddef.h.155.3588ebfdd1e8c7ede80509bb9c3b8009
                           .group:0000000000000000 wm4._types.h.127.34941de1b2539d59d5cac00e0dd27a45
                           .group:0000000000000000 wm4.reent.h.17.e292bf8b0bec6c96e131a54347145a30
                           .group:0000000000000000 wm4.lock.h.2.c0958401bd0ce484d507ee19aacab817
                           .group:0000000000000000 wm4.reent.h.77.dcd6129ff07fe81bd5636db29abe53b2
                           .group:0000000000000000 wm4.types.h.40.8b6acba56cefbb11746718204edc8f5e
                           .group:0000000000000000 wm4._stdint.h.10.c24fa3af3bc1706662bb5593a907e841
                           .group:0000000000000000 wm4._endian.h.18.1bf9649e8e5bbc91042012680270b9ed
                           .group:0000000000000000 wm4.endian.h.9.49f3a4695c1b61e8a0808de3c4a106cb
                           .group:0000000000000000 wm4._timeval.h.32.bec3221fa7a9bb0bdde696c9c57e47d2
                           .group:0000000000000000 wm4.timespec.h.41.d855182eb0e690443ab8651bcedca6e1
                           .group:0000000000000000 wm4.select.h.19.40cd3f2bfc456b193b790c2754690ebf
                           .group:0000000000000000 wm4.types.h.51.5571ec98f267d17d3c670b7a3ba33afa
                           .group:0000000000000000 wm4.sched.h.22.c60982713a5c428609783c78f9c78d95
                           .group:0000000000000000 wm4._pthreadtypes.h.36.fcee9961c35163dde6267ef772ad1972
                           .group:0000000000000000 wm4.stdio.h.2.4aa87247282eca6c8f36f9de33d8df1a
                           .group:0000000000000000 wm4.stdio.h.81.932d0c162786b883f622b8d05c120c78
                           .group:0000000000000000 wm4.gd32vw55x.h.47.379378190858578060a317909b2c8d8a
                           .group:0000000000000000 wm4._intsup.h.10.48bafbb683905c4daa4565a85aeeb264
                           .group:0000000000000000 wm4.stdint.h.23.d53047a68f4a85177f80b422d52785ed
                           .group:0000000000000000 wm4.nmsis_version.h.19.ffa173da8efb17b1050904994d6f500e
                           .group:0000000000000000 wm4.riscv_bits.h.19.ee94eb3d39937793d4cd0a62363e5d00
                           .group:0000000000000000 wm4.riscv_encoding.h.35.f5d37fad7abbab8278b4bb6f1e32fa65
                           .group:0000000000000000 wm4.nmsis_gcc.h.61.5d70d7598ffc79c3c991d847a574cf23
                           .group:0000000000000000 wm4.core_feature_base.h.20.e99d3e75c26a8f3341d35bf20d0e1d20
                           .group:0000000000000000 wm4.core_feature_fpu.h.19.695f2200274659b530cb97cda749ff4f
                           .group:0000000000000000 wm4.core_feature_dsp.h.19.e8f8d7aa42f197807aefedb6584486cd
                           .group:0000000000000000 wm4.core_compatiable.h.19.5b8282d61b1f6889a82895616b730084
                           .group:0000000000000000 wm4.core_feature_eclic.h.19.e0c091d0cbda79e8b3b031b979ebd5a1
                           .group:0000000000000000 wm4.core_feature_timer.h.19.21a5151282de34c37dfa6d84e262aa54
                           .group:0000000000000000 wm4.system_gd32vw55x.h.32.f1fcb1212d387c35ac955b0e96ada468
                           .group:0000000000000000 wm4.gd32vw55x.h.231.3529c650aff38c9372f7e03177fd2c8a
                           .group:0000000000000000 wm4.gd32vw55x_adc.h.42.ae73acec1704ef509ccecb41a875b50e
                           .group:0000000000000000 wm4.gd32vw55x_cau.h.36.c98428fe1eae7edb4721da5c8078c974
                           .group:0000000000000000 wm4.gd32vw55x_crc.h.37.c58f296814c2300a4b067c08bd88d54e
                           .group:0000000000000000 wm4.gd32vw55x_dbg.h.36.311650c8545549d482ceca8befc5a232
                           .group:0000000000000000 wm4.gd32vw55x_dma.h.36.f4adc751172b2a7b1533dda72e948737
                           .group:0000000000000000 wm4.gd32vw55x_eclic.h.36.0411499f2b2493c67246e32ccae096c1
                           .group:0000000000000000 wm4.gd32vw55x_efuse.h.36.091404cecbab70359dfd93faec5fdb62
                           .group:0000000000000000 wm4.gd32vw55x_exti.h.36.de7508334dd12f1a6a673521a1a835f5
                           .group:0000000000000000 wm4.gd32vw55x_fmc.h.36.a4b0b94c47ffe23a2fa09260c5ed4850
                           .group:0000000000000000 wm4.gd32vw55x_fwdgt.h.36.4846b6900fd24b5bfce4986c9a8ce677
                           .group:0000000000000000 wm4.gd32vw55x_hau.h.36.f3cbcbd7b67c9e5bdc7a1100b1bf3458
                           .group:0000000000000000 wm4.gd32vw55x_i2c.h.36.3848990933925e084eb427083790c53f
                           .group:0000000000000000 wm4.gd32vw55x_pkcau.h.36.bb2235f4cf4967063a51bfa9aca5ef27
                           .group:0000000000000000 wm4.gd32vw55x_pmu.h.36.4c76091f1415551526d489ccf2c42052
                           .group:0000000000000000 wm4.gd32vw55x_qspi.h.36.2d2c181cfe19b935a9641008fc786613
                           .group:0000000000000000 wm4.gd32vw55x_rcu.h.36.780a8a45c00d563711cceb445027ef47
                           .group:0000000000000000 wm4.gd32vw55x_rtc.h.36.3172855e8715659e080e0eab46fdf175
                           .group:0000000000000000 wm4.gd32vw55x_spi.h.36.9fa1be2b09fb73e4b5886e97f0e96d58
                           .group:0000000000000000 wm4.gd32vw55x_syscfg.h.36.010551f05591f5e34051d2e15df0352b
                           .group:0000000000000000 wm4.gd32vw55x_timer.h.38.2cbee78ea60d47145be361b2d2c55070
                           .group:0000000000000000 wm4.gd32vw55x_trng.h.36.c9e7807af1b1ab68d3bbb54f4ed5cd73
                           .group:0000000000000000 wm4.gd32vw55x_usart.h.36.f5c497cca17945a34f154b0e17017d02
                           .group:0000000000000000 wm4.gd32vw55x_wwdgt.h.36.f7a443b7302efc0e5c335888582ee197
                           .group:0000000000000000 wm4.gd32vw55x_gpio.h.41.de438b46b63e8d7b1287bd1de819aab6

UNDEFINED SYMBOLS
rcu_periph_reset_enable
rcu_periph_reset_disable
