   1              		.file	"gd32vw55x_efuse.c"
   2              		.option nopic
   3              		.attribute arch, "rv32i2p0_m2p0_a2p0_c2p0"
   4              		.attribute unaligned_access, 0
   5              		.attribute stack_align, 16
   6              		.text
   7              	.Ltext0:
   8              		.cfi_sections	.debug_frame
   9              		.section	.text.efuse_read,"ax",@progbits
  10              		.align	1
  11              		.globl	efuse_read
  13              	efuse_read:
  14              	.LFB347:
  15              		.file 1 "../Firmware/GD32VW55x_standard_peripheral/Source/gd32vw55x_efuse.c"
   1:../Firmware/GD32VW55x_standard_peripheral/Source/gd32vw55x_efuse.c **** /*!
   2:../Firmware/GD32VW55x_standard_peripheral/Source/gd32vw55x_efuse.c ****     \file    gd32vw55x_efuse.c
   3:../Firmware/GD32VW55x_standard_peripheral/Source/gd32vw55x_efuse.c ****     \brief   EFUSE driver
   4:../Firmware/GD32VW55x_standard_peripheral/Source/gd32vw55x_efuse.c **** 
   5:../Firmware/GD32VW55x_standard_peripheral/Source/gd32vw55x_efuse.c ****     \version 2025-01-16, V1.4.0, firmware for GD32VW55x
   6:../Firmware/GD32VW55x_standard_peripheral/Source/gd32vw55x_efuse.c **** */
   7:../Firmware/GD32VW55x_standard_peripheral/Source/gd32vw55x_efuse.c **** 
   8:../Firmware/GD32VW55x_standard_peripheral/Source/gd32vw55x_efuse.c **** /*
   9:../Firmware/GD32VW55x_standard_peripheral/Source/gd32vw55x_efuse.c ****     Copyright (c) 2025, GigaDevice Semiconductor Inc.
  10:../Firmware/GD32VW55x_standard_peripheral/Source/gd32vw55x_efuse.c **** 
  11:../Firmware/GD32VW55x_standard_peripheral/Source/gd32vw55x_efuse.c ****     Redistribution and use in source and binary forms, with or without modification,
  12:../Firmware/GD32VW55x_standard_peripheral/Source/gd32vw55x_efuse.c **** are permitted provided that the following conditions are met:
  13:../Firmware/GD32VW55x_standard_peripheral/Source/gd32vw55x_efuse.c **** 
  14:../Firmware/GD32VW55x_standard_peripheral/Source/gd32vw55x_efuse.c ****     1. Redistributions of source code must retain the above copyright notice, this
  15:../Firmware/GD32VW55x_standard_peripheral/Source/gd32vw55x_efuse.c ****        list of conditions and the following disclaimer.
  16:../Firmware/GD32VW55x_standard_peripheral/Source/gd32vw55x_efuse.c ****     2. Redistributions in binary form must reproduce the above copyright notice,
  17:../Firmware/GD32VW55x_standard_peripheral/Source/gd32vw55x_efuse.c ****        this list of conditions and the following disclaimer in the documentation
  18:../Firmware/GD32VW55x_standard_peripheral/Source/gd32vw55x_efuse.c ****        and/or other materials provided with the distribution.
  19:../Firmware/GD32VW55x_standard_peripheral/Source/gd32vw55x_efuse.c ****     3. Neither the name of the copyright holder nor the names of its contributors
  20:../Firmware/GD32VW55x_standard_peripheral/Source/gd32vw55x_efuse.c ****        may be used to endorse or promote products derived from this software without
  21:../Firmware/GD32VW55x_standard_peripheral/Source/gd32vw55x_efuse.c ****        specific prior written permission.
  22:../Firmware/GD32VW55x_standard_peripheral/Source/gd32vw55x_efuse.c **** 
  23:../Firmware/GD32VW55x_standard_peripheral/Source/gd32vw55x_efuse.c ****     THIS SOFTWARE IS PROVIDED BY THE COPYRIGHT HOLDERS AND CONTRIBUTORS "AS IS"
  24:../Firmware/GD32VW55x_standard_peripheral/Source/gd32vw55x_efuse.c **** AND ANY EXPRESS OR IMPLIED WARRANTIES, INCLUDING, BUT NOT LIMITED TO, THE IMPLIED
  25:../Firmware/GD32VW55x_standard_peripheral/Source/gd32vw55x_efuse.c **** WARRANTIES OF MERCHANTABILITY AND FITNESS FOR A PARTICULAR PURPOSE ARE DISCLAIMED.
  26:../Firmware/GD32VW55x_standard_peripheral/Source/gd32vw55x_efuse.c **** IN NO EVENT SHALL THE COPYRIGHT HOLDER OR CONTRIBUTORS BE LIABLE FOR ANY DIRECT,
  27:../Firmware/GD32VW55x_standard_peripheral/Source/gd32vw55x_efuse.c **** INDIRECT, INCIDENTAL, SPECIAL, EXEMPLARY, OR CONSEQUENTIAL DAMAGES (INCLUDING, BUT
  28:../Firmware/GD32VW55x_standard_peripheral/Source/gd32vw55x_efuse.c **** NOT LIMITED TO, PROCUREMENT OF SUBSTITUTE GOODS OR SERVICES; LOSS OF USE, DATA, OR
  29:../Firmware/GD32VW55x_standard_peripheral/Source/gd32vw55x_efuse.c **** PROFITS; OR BUSINESS INTERRUPTION) HOWEVER CAUSED AND ON ANY THEORY OF LIABILITY,
  30:../Firmware/GD32VW55x_standard_peripheral/Source/gd32vw55x_efuse.c **** WHETHER IN CONTRACT, STRICT LIABILITY, OR TORT (INCLUDING NEGLIGENCE OR OTHERWISE)
  31:../Firmware/GD32VW55x_standard_peripheral/Source/gd32vw55x_efuse.c **** ARISING IN ANY WAY OUT OF THE USE OF THIS SOFTWARE, EVEN IF ADVISED OF THE POSSIBILITY
  32:../Firmware/GD32VW55x_standard_peripheral/Source/gd32vw55x_efuse.c **** OF SUCH DAMAGE.
  33:../Firmware/GD32VW55x_standard_peripheral/Source/gd32vw55x_efuse.c **** */
  34:../Firmware/GD32VW55x_standard_peripheral/Source/gd32vw55x_efuse.c **** 
  35:../Firmware/GD32VW55x_standard_peripheral/Source/gd32vw55x_efuse.c **** #include "gd32vw55x_efuse.h"
  36:../Firmware/GD32VW55x_standard_peripheral/Source/gd32vw55x_efuse.c **** 
  37:../Firmware/GD32VW55x_standard_peripheral/Source/gd32vw55x_efuse.c **** /*!
  38:../Firmware/GD32VW55x_standard_peripheral/Source/gd32vw55x_efuse.c ****     \brief      read EFUSE value
  39:../Firmware/GD32VW55x_standard_peripheral/Source/gd32vw55x_efuse.c ****     \param[in]  ef_addr: EFUSE address, the starting address of each parameter segment, in bytes
  40:../Firmware/GD32VW55x_standard_peripheral/Source/gd32vw55x_efuse.c ****       \arg        0~0x60
  41:../Firmware/GD32VW55x_standard_peripheral/Source/gd32vw55x_efuse.c ****     \param[in]  size: size of EFUSE, in bytes
  42:../Firmware/GD32VW55x_standard_peripheral/Source/gd32vw55x_efuse.c ****       \arg        1~0x20
  43:../Firmware/GD32VW55x_standard_peripheral/Source/gd32vw55x_efuse.c ****     \param[out] buf: the buffer for storing read-out EFUSE register value
  44:../Firmware/GD32VW55x_standard_peripheral/Source/gd32vw55x_efuse.c ****     \retval     ErrStatus: ERROR or SUCCESS
  45:../Firmware/GD32VW55x_standard_peripheral/Source/gd32vw55x_efuse.c **** */
  46:../Firmware/GD32VW55x_standard_peripheral/Source/gd32vw55x_efuse.c **** ErrStatus efuse_read(uint32_t ef_addr, uint32_t size, uint32_t buf[])
  47:../Firmware/GD32VW55x_standard_peripheral/Source/gd32vw55x_efuse.c **** {
  16              		.loc 1 47 1
  17              		.cfi_startproc
  18 0000 7971     		addi	sp,sp,-48
  19              		.cfi_def_cfa_offset 48
  20 0002 06D6     		sw	ra,44(sp)
  21 0004 22D4     		sw	s0,40(sp)
  22              		.cfi_offset 1, -4
  23              		.cfi_offset 8, -8
  24 0006 0018     		addi	s0,sp,48
  25              		.cfi_def_cfa 8, 0
  26 0008 232EA4FC 		sw	a0,-36(s0)
  27 000c 232CB4FC 		sw	a1,-40(s0)
  28 0010 232AC4FC 		sw	a2,-44(s0)
  48:../Firmware/GD32VW55x_standard_peripheral/Source/gd32vw55x_efuse.c ****     uint32_t i = 0U;
  29              		.loc 1 48 14
  30 0014 232604FE 		sw	zero,-20(s0)
  49:../Firmware/GD32VW55x_standard_peripheral/Source/gd32vw55x_efuse.c ****     uint32_t timeout = 0xFFU;
  31              		.loc 1 49 14
  32 0018 9307F00F 		li	a5,255
  33 001c 2324F4FE 		sw	a5,-24(s0)
  50:../Firmware/GD32VW55x_standard_peripheral/Source/gd32vw55x_efuse.c ****     uint32_t reg_addr = 0U;
  34              		.loc 1 50 14
  35 0020 232204FE 		sw	zero,-28(s0)
  51:../Firmware/GD32VW55x_standard_peripheral/Source/gd32vw55x_efuse.c ****     uint32_t number = size / 4U;
  36              		.loc 1 51 14
  37 0024 832784FD 		lw	a5,-40(s0)
  38 0028 8983     		srli	a5,a5,2
  39 002a 2320F4FE 		sw	a5,-32(s0)
  52:../Firmware/GD32VW55x_standard_peripheral/Source/gd32vw55x_efuse.c **** 
  53:../Firmware/GD32VW55x_standard_peripheral/Source/gd32vw55x_efuse.c ****     if(0U == number) {
  40              		.loc 1 53 7
  41 002e 832704FE 		lw	a5,-32(s0)
  42 0032 81E7     		bne	a5,zero,.L2
  54:../Firmware/GD32VW55x_standard_peripheral/Source/gd32vw55x_efuse.c ****         number = 1U;
  43              		.loc 1 54 16
  44 0034 8547     		li	a5,1
  45 0036 2320F4FE 		sw	a5,-32(s0)
  46              	.L2:
  55:../Firmware/GD32VW55x_standard_peripheral/Source/gd32vw55x_efuse.c ****     }
  56:../Firmware/GD32VW55x_standard_peripheral/Source/gd32vw55x_efuse.c **** 
  57:../Firmware/GD32VW55x_standard_peripheral/Source/gd32vw55x_efuse.c ****     /* assert EFUSE address and size parameter */
  58:../Firmware/GD32VW55x_standard_peripheral/Source/gd32vw55x_efuse.c ****     if((END_ADDR < ef_addr) || (size > EFUSE_MAX_SIZE)) {
  47              		.loc 1 58 7
  48 003a 0327C4FD 		lw	a4,-36(s0)
  49 003e 93070008 		li	a5,128
  50 0042 63E8E700 		bgtu	a4,a5,.L3
  51              		.loc 1 58 29 discriminator 1
  52 0046 032784FD 		lw	a4,-40(s0)
  53 004a 93070002 		li	a5,32
  54 004e 63F4E700 		bleu	a4,a5,.L4
  55              	.L3:
  59:../Firmware/GD32VW55x_standard_peripheral/Source/gd32vw55x_efuse.c ****         return ERROR;
  56              		.loc 1 59 16
  57 0052 8147     		li	a5,0
  58 0054 29A2     		j	.L5
  59              	.L4:
  60:../Firmware/GD32VW55x_standard_peripheral/Source/gd32vw55x_efuse.c ****     }
  61:../Firmware/GD32VW55x_standard_peripheral/Source/gd32vw55x_efuse.c **** 
  62:../Firmware/GD32VW55x_standard_peripheral/Source/gd32vw55x_efuse.c ****     /* get the register address corresponding to EFUSE */
  63:../Firmware/GD32VW55x_standard_peripheral/Source/gd32vw55x_efuse.c ****     if(0x4U > ef_addr) {
  60              		.loc 1 63 7
  61 0056 0327C4FD 		lw	a4,-36(s0)
  62 005a 8D47     		li	a5,3
  63 005c 63EDE700 		bgtu	a4,a5,.L6
  64:../Firmware/GD32VW55x_standard_peripheral/Source/gd32vw55x_efuse.c ****         reg_addr = (uint32_t)(EFUSE + 0x08U + (ef_addr * 4U));
  64              		.loc 1 64 20
  65 0060 0327C4FD 		lw	a4,-36(s0)
  66 0064 B7970010 		li	a5,268472320
  67 0068 938727A0 		addi	a5,a5,-1534
  68 006c BA97     		add	a5,a4,a5
  69              		.loc 1 64 18
  70 006e 8A07     		slli	a5,a5,2
  71 0070 2322F4FE 		sw	a5,-28(s0)
  72 0074 0DA0     		j	.L7
  73              	.L6:
  65:../Firmware/GD32VW55x_standard_peripheral/Source/gd32vw55x_efuse.c ****     } else {
  66:../Firmware/GD32VW55x_standard_peripheral/Source/gd32vw55x_efuse.c ****         /* when EFUSE address is greater than 4, it must be an integral multiple of 4 */
  67:../Firmware/GD32VW55x_standard_peripheral/Source/gd32vw55x_efuse.c ****         if(0U == (ef_addr % 4U)) {
  74              		.loc 1 67 27
  75 0076 8327C4FD 		lw	a5,-36(s0)
  76 007a 8D8B     		andi	a5,a5,3
  77              		.loc 1 67 11
  78 007c 99EB     		bne	a5,zero,.L8
  68:../Firmware/GD32VW55x_standard_peripheral/Source/gd32vw55x_efuse.c ****             reg_addr = (uint32_t)(EFUSE + 0x14U + ef_addr);
  79              		.loc 1 68 22
  80 007e 0327C4FD 		lw	a4,-36(s0)
  81 0082 B7370240 		li	a5,1073885184
  82 0086 93874781 		addi	a5,a5,-2028
  83 008a BA97     		add	a5,a4,a5
  84 008c 2322F4FE 		sw	a5,-28(s0)
  85 0090 19A0     		j	.L7
  86              	.L8:
  69:../Firmware/GD32VW55x_standard_peripheral/Source/gd32vw55x_efuse.c ****         } else {
  70:../Firmware/GD32VW55x_standard_peripheral/Source/gd32vw55x_efuse.c ****             return ERROR;
  87              		.loc 1 70 20
  88 0092 8147     		li	a5,0
  89 0094 E9A0     		j	.L5
  90              	.L7:
  71:../Firmware/GD32VW55x_standard_peripheral/Source/gd32vw55x_efuse.c ****         }
  72:../Firmware/GD32VW55x_standard_peripheral/Source/gd32vw55x_efuse.c ****     }
  73:../Firmware/GD32VW55x_standard_peripheral/Source/gd32vw55x_efuse.c **** 
  74:../Firmware/GD32VW55x_standard_peripheral/Source/gd32vw55x_efuse.c ****     /* EFUSE read operation */
  75:../Firmware/GD32VW55x_standard_peripheral/Source/gd32vw55x_efuse.c ****     EFUSE_CS &= (~EFUSE_CS_EFRW);
  91              		.loc 1 75 14
  92 0096 B7370240 		li	a5,1073885184
  93 009a 93870780 		addi	a5,a5,-2048
  94 009e 9843     		lw	a4,0(a5)
  95 00a0 B7370240 		li	a5,1073885184
  96 00a4 93870780 		addi	a5,a5,-2048
  97 00a8 759B     		andi	a4,a4,-3
  98 00aa 98C3     		sw	a4,0(a5)
  76:../Firmware/GD32VW55x_standard_peripheral/Source/gd32vw55x_efuse.c ****     /* write EFUSE address and size */
  77:../Firmware/GD32VW55x_standard_peripheral/Source/gd32vw55x_efuse.c ****     EFUSE_ADDR = (uint32_t)((size << 8U) | ef_addr);
  99              		.loc 1 77 35
 100 00ac 832784FD 		lw	a5,-40(s0)
 101 00b0 93968700 		slli	a3,a5,8
 102              		.loc 1 77 5
 103 00b4 B7370240 		li	a5,1073885184
 104 00b8 93874780 		addi	a5,a5,-2044
 105              		.loc 1 77 42
 106 00bc 0327C4FD 		lw	a4,-36(s0)
 107 00c0 558F     		or	a4,a3,a4
 108              		.loc 1 77 16
 109 00c2 98C3     		sw	a4,0(a5)
  78:../Firmware/GD32VW55x_standard_peripheral/Source/gd32vw55x_efuse.c ****     /* start read EFUSE operation */
  79:../Firmware/GD32VW55x_standard_peripheral/Source/gd32vw55x_efuse.c ****     EFUSE_CS |= EFUSE_CS_EFSTR;
 110              		.loc 1 79 14
 111 00c4 B7370240 		li	a5,1073885184
 112 00c8 93870780 		addi	a5,a5,-2048
 113 00cc 9843     		lw	a4,0(a5)
 114 00ce B7370240 		li	a5,1073885184
 115 00d2 93870780 		addi	a5,a5,-2048
 116 00d6 13671700 		ori	a4,a4,1
 117 00da 98C3     		sw	a4,0(a5)
 118              	.L10:
  80:../Firmware/GD32VW55x_standard_peripheral/Source/gd32vw55x_efuse.c **** 
  81:../Firmware/GD32VW55x_standard_peripheral/Source/gd32vw55x_efuse.c ****     /* wait for the operation to complete */
  82:../Firmware/GD32VW55x_standard_peripheral/Source/gd32vw55x_efuse.c ****     do {
  83:../Firmware/GD32VW55x_standard_peripheral/Source/gd32vw55x_efuse.c ****         timeout--;
 119              		.loc 1 83 16 discriminator 2
 120 00dc 832784FE 		lw	a5,-24(s0)
 121 00e0 FD17     		addi	a5,a5,-1
 122 00e2 2324F4FE 		sw	a5,-24(s0)
  84:../Firmware/GD32VW55x_standard_peripheral/Source/gd32vw55x_efuse.c ****     } while((RESET == efuse_flag_get(EFUSE_RDIF)) && (0x00U != timeout));
 123              		.loc 1 84 23 discriminator 2
 124 00e6 37050200 		li	a0,131072
 125 00ea 97000000 		call	efuse_flag_get
 125      E7800000 
 126 00f2 AA87     		mv	a5,a0
 127              		.loc 1 84 5 discriminator 2
 128 00f4 81E7     		bne	a5,zero,.L9
 129              		.loc 1 84 51 discriminator 1
 130 00f6 832784FE 		lw	a5,-24(s0)
 131 00fa EDF3     		bne	a5,zero,.L10
 132              	.L9:
  85:../Firmware/GD32VW55x_standard_peripheral/Source/gd32vw55x_efuse.c ****     if(0x00U == timeout) {
 133              		.loc 1 85 7
 134 00fc 832784FE 		lw	a5,-24(s0)
 135 0100 99E3     		bne	a5,zero,.L11
  86:../Firmware/GD32VW55x_standard_peripheral/Source/gd32vw55x_efuse.c ****         return ERROR;
 136              		.loc 1 86 16
 137 0102 8147     		li	a5,0
 138 0104 A9A8     		j	.L5
 139              	.L11:
  87:../Firmware/GD32VW55x_standard_peripheral/Source/gd32vw55x_efuse.c ****     }
  88:../Firmware/GD32VW55x_standard_peripheral/Source/gd32vw55x_efuse.c **** 
  89:../Firmware/GD32VW55x_standard_peripheral/Source/gd32vw55x_efuse.c ****     /* read EFUSE */
  90:../Firmware/GD32VW55x_standard_peripheral/Source/gd32vw55x_efuse.c ****     for(i = 0U; i < number; i++) {
 140              		.loc 1 90 11
 141 0106 232604FE 		sw	zero,-20(s0)
 142              		.loc 1 90 5
 143 010a 35A0     		j	.L12
 144              	.L13:
  91:../Firmware/GD32VW55x_standard_peripheral/Source/gd32vw55x_efuse.c ****         buf[i] = REG32(reg_addr + (4U * i));
 145              		.loc 1 91 18 discriminator 3
 146 010c 8327C4FE 		lw	a5,-20(s0)
 147 0110 13972700 		slli	a4,a5,2
 148 0114 832744FE 		lw	a5,-28(s0)
 149 0118 BA97     		add	a5,a4,a5
 150 011a BE86     		mv	a3,a5
 151              		.loc 1 91 12 discriminator 3
 152 011c 8327C4FE 		lw	a5,-20(s0)
 153 0120 8A07     		slli	a5,a5,2
 154 0122 032744FD 		lw	a4,-44(s0)
 155 0126 BA97     		add	a5,a4,a5
 156              		.loc 1 91 18 discriminator 3
 157 0128 9842     		lw	a4,0(a3)
 158              		.loc 1 91 16 discriminator 3
 159 012a 98C3     		sw	a4,0(a5)
  90:../Firmware/GD32VW55x_standard_peripheral/Source/gd32vw55x_efuse.c ****         buf[i] = REG32(reg_addr + (4U * i));
 160              		.loc 1 90 30 discriminator 3
 161 012c 8327C4FE 		lw	a5,-20(s0)
 162 0130 8507     		addi	a5,a5,1
 163 0132 2326F4FE 		sw	a5,-20(s0)
 164              	.L12:
  90:../Firmware/GD32VW55x_standard_peripheral/Source/gd32vw55x_efuse.c ****         buf[i] = REG32(reg_addr + (4U * i));
 165              		.loc 1 90 5 discriminator 1
 166 0136 0327C4FE 		lw	a4,-20(s0)
 167 013a 832704FE 		lw	a5,-32(s0)
 168 013e E367F7FC 		bltu	a4,a5,.L13
  92:../Firmware/GD32VW55x_standard_peripheral/Source/gd32vw55x_efuse.c ****     }
  93:../Firmware/GD32VW55x_standard_peripheral/Source/gd32vw55x_efuse.c **** 
  94:../Firmware/GD32VW55x_standard_peripheral/Source/gd32vw55x_efuse.c ****     /* clear EFUSE read completed flag */
  95:../Firmware/GD32VW55x_standard_peripheral/Source/gd32vw55x_efuse.c ****     EFUSE_CS |= (uint32_t)EFUSE_CS_RDIC;
 169              		.loc 1 95 14
 170 0142 B7370240 		li	a5,1073885184
 171 0146 93870780 		addi	a5,a5,-2048
 172 014a 9443     		lw	a3,0(a5)
 173 014c B7370240 		li	a5,1073885184
 174 0150 93870780 		addi	a5,a5,-2048
 175 0154 37070002 		li	a4,33554432
 176 0158 558F     		or	a4,a3,a4
 177 015a 98C3     		sw	a4,0(a5)
  96:../Firmware/GD32VW55x_standard_peripheral/Source/gd32vw55x_efuse.c **** 
  97:../Firmware/GD32VW55x_standard_peripheral/Source/gd32vw55x_efuse.c ****     return SUCCESS;
 178              		.loc 1 97 12
 179 015c 8547     		li	a5,1
 180              	.L5:
  98:../Firmware/GD32VW55x_standard_peripheral/Source/gd32vw55x_efuse.c **** }
 181              		.loc 1 98 1
 182 015e 3E85     		mv	a0,a5
 183 0160 B250     		lw	ra,44(sp)
 184              		.cfi_restore 1
 185 0162 2254     		lw	s0,40(sp)
 186              		.cfi_restore 8
 187              		.cfi_def_cfa 2, 48
 188 0164 4561     		addi	sp,sp,48
 189              		.cfi_def_cfa_offset 0
 190 0166 8280     		jr	ra
 191              		.cfi_endproc
 192              	.LFE347:
 194              		.section	.text.efuse_write,"ax",@progbits
 195              		.align	1
 196              		.globl	efuse_write
 198              	efuse_write:
 199              	.LFB348:
  99:../Firmware/GD32VW55x_standard_peripheral/Source/gd32vw55x_efuse.c **** 
 100:../Firmware/GD32VW55x_standard_peripheral/Source/gd32vw55x_efuse.c **** /*!
 101:../Firmware/GD32VW55x_standard_peripheral/Source/gd32vw55x_efuse.c ****     \brief      write EFUSE
 102:../Firmware/GD32VW55x_standard_peripheral/Source/gd32vw55x_efuse.c ****     \param[in]  ef_addr: EFUSE address, the starting address of each parameter segment, in bytes.
 103:../Firmware/GD32VW55x_standard_peripheral/Source/gd32vw55x_efuse.c ****                          When ef_addr is greater than 4, the ef_addr must be an integral multiple o
 104:../Firmware/GD32VW55x_standard_peripheral/Source/gd32vw55x_efuse.c ****       \arg        0~0x60
 105:../Firmware/GD32VW55x_standard_peripheral/Source/gd32vw55x_efuse.c ****     \param[in]  size: size of EFUSE, in bytes
 106:../Firmware/GD32VW55x_standard_peripheral/Source/gd32vw55x_efuse.c ****       \arg        1~0x20
 107:../Firmware/GD32VW55x_standard_peripheral/Source/gd32vw55x_efuse.c ****     \param[in]  buf: the buffer of data written to EFUSE
 108:../Firmware/GD32VW55x_standard_peripheral/Source/gd32vw55x_efuse.c ****     \param[out] none
 109:../Firmware/GD32VW55x_standard_peripheral/Source/gd32vw55x_efuse.c ****     \retval     ErrStatus: ERROR or SUCCESS
 110:../Firmware/GD32VW55x_standard_peripheral/Source/gd32vw55x_efuse.c **** */
 111:../Firmware/GD32VW55x_standard_peripheral/Source/gd32vw55x_efuse.c **** ErrStatus efuse_write(uint32_t ef_addr, uint32_t size, uint32_t buf[])
 112:../Firmware/GD32VW55x_standard_peripheral/Source/gd32vw55x_efuse.c **** {
 200              		.loc 1 112 1
 201              		.cfi_startproc
 202 0000 7971     		addi	sp,sp,-48
 203              		.cfi_def_cfa_offset 48
 204 0002 06D6     		sw	ra,44(sp)
 205 0004 22D4     		sw	s0,40(sp)
 206              		.cfi_offset 1, -4
 207              		.cfi_offset 8, -8
 208 0006 0018     		addi	s0,sp,48
 209              		.cfi_def_cfa 8, 0
 210 0008 232EA4FC 		sw	a0,-36(s0)
 211 000c 232CB4FC 		sw	a1,-40(s0)
 212 0010 232AC4FC 		sw	a2,-44(s0)
 113:../Firmware/GD32VW55x_standard_peripheral/Source/gd32vw55x_efuse.c ****     uint32_t i = 0U;
 213              		.loc 1 113 14
 214 0014 232604FE 		sw	zero,-20(s0)
 114:../Firmware/GD32VW55x_standard_peripheral/Source/gd32vw55x_efuse.c ****     uint32_t timeout = 0xFFFFU;
 215              		.loc 1 114 14
 216 0018 C167     		li	a5,65536
 217 001a FD17     		addi	a5,a5,-1
 218 001c 2324F4FE 		sw	a5,-24(s0)
 115:../Firmware/GD32VW55x_standard_peripheral/Source/gd32vw55x_efuse.c ****     uint32_t reg_addr = 0U;
 219              		.loc 1 115 14
 220 0020 232204FE 		sw	zero,-28(s0)
 116:../Firmware/GD32VW55x_standard_peripheral/Source/gd32vw55x_efuse.c ****     uint32_t number = size / 4U;
 221              		.loc 1 116 14
 222 0024 832784FD 		lw	a5,-40(s0)
 223 0028 8983     		srli	a5,a5,2
 224 002a 2320F4FE 		sw	a5,-32(s0)
 117:../Firmware/GD32VW55x_standard_peripheral/Source/gd32vw55x_efuse.c **** 
 118:../Firmware/GD32VW55x_standard_peripheral/Source/gd32vw55x_efuse.c ****     if(0U == number) {
 225              		.loc 1 118 7
 226 002e 832704FE 		lw	a5,-32(s0)
 227 0032 81E7     		bne	a5,zero,.L15
 119:../Firmware/GD32VW55x_standard_peripheral/Source/gd32vw55x_efuse.c ****         number = 1U;
 228              		.loc 1 119 16
 229 0034 8547     		li	a5,1
 230 0036 2320F4FE 		sw	a5,-32(s0)
 231              	.L15:
 120:../Firmware/GD32VW55x_standard_peripheral/Source/gd32vw55x_efuse.c ****     }
 121:../Firmware/GD32VW55x_standard_peripheral/Source/gd32vw55x_efuse.c **** 
 122:../Firmware/GD32VW55x_standard_peripheral/Source/gd32vw55x_efuse.c ****     /* assert EFUSE address and size parameter */
 123:../Firmware/GD32VW55x_standard_peripheral/Source/gd32vw55x_efuse.c ****     if((END_ADDR < ef_addr) || (size > EFUSE_MAX_SIZE)) {
 232              		.loc 1 123 7
 233 003a 0327C4FD 		lw	a4,-36(s0)
 234 003e 93070008 		li	a5,128
 235 0042 63E8E700 		bgtu	a4,a5,.L16
 236              		.loc 1 123 29 discriminator 1
 237 0046 032784FD 		lw	a4,-40(s0)
 238 004a 93070002 		li	a5,32
 239 004e 63F4E700 		bleu	a4,a5,.L17
 240              	.L16:
 124:../Firmware/GD32VW55x_standard_peripheral/Source/gd32vw55x_efuse.c ****         return ERROR;
 241              		.loc 1 124 16
 242 0052 8147     		li	a5,0
 243 0054 BDA2     		j	.L18
 244              	.L17:
 125:../Firmware/GD32VW55x_standard_peripheral/Source/gd32vw55x_efuse.c ****     }
 126:../Firmware/GD32VW55x_standard_peripheral/Source/gd32vw55x_efuse.c **** 
 127:../Firmware/GD32VW55x_standard_peripheral/Source/gd32vw55x_efuse.c ****     /* PUID and HUK are not modifiable */
 128:../Firmware/GD32VW55x_standard_peripheral/Source/gd32vw55x_efuse.c ****     if((MCU_UID_ADDR <= ef_addr) && (ef_addr < USER_DATA_ADDR)) {
 245              		.loc 1 128 7
 246 0056 0327C4FD 		lw	a4,-36(s0)
 247 005a 9307F003 		li	a5,63
 248 005e 63FAE700 		bleu	a4,a5,.L19
 249              		.loc 1 128 34 discriminator 1
 250 0062 0327C4FD 		lw	a4,-36(s0)
 251 0066 9307F005 		li	a5,95
 252 006a 63E4E700 		bgtu	a4,a5,.L19
 129:../Firmware/GD32VW55x_standard_peripheral/Source/gd32vw55x_efuse.c ****         return ERROR;
 253              		.loc 1 129 16
 254 006e 8147     		li	a5,0
 255 0070 89AA     		j	.L18
 256              	.L19:
 130:../Firmware/GD32VW55x_standard_peripheral/Source/gd32vw55x_efuse.c ****     }
 131:../Firmware/GD32VW55x_standard_peripheral/Source/gd32vw55x_efuse.c **** 
 132:../Firmware/GD32VW55x_standard_peripheral/Source/gd32vw55x_efuse.c ****     /* get the register address corresponding to EFUSE */
 133:../Firmware/GD32VW55x_standard_peripheral/Source/gd32vw55x_efuse.c ****     if(0x4U > ef_addr) {
 257              		.loc 1 133 7
 258 0072 0327C4FD 		lw	a4,-36(s0)
 259 0076 8D47     		li	a5,3
 260 0078 63EDE700 		bgtu	a4,a5,.L20
 134:../Firmware/GD32VW55x_standard_peripheral/Source/gd32vw55x_efuse.c ****         reg_addr = (uint32_t)(EFUSE + 0x08U + (ef_addr * 4U));
 261              		.loc 1 134 20
 262 007c 0327C4FD 		lw	a4,-36(s0)
 263 0080 B7970010 		li	a5,268472320
 264 0084 938727A0 		addi	a5,a5,-1534
 265 0088 BA97     		add	a5,a4,a5
 266              		.loc 1 134 18
 267 008a 8A07     		slli	a5,a5,2
 268 008c 2322F4FE 		sw	a5,-28(s0)
 269 0090 05A0     		j	.L21
 270              	.L20:
 135:../Firmware/GD32VW55x_standard_peripheral/Source/gd32vw55x_efuse.c ****     } else {
 136:../Firmware/GD32VW55x_standard_peripheral/Source/gd32vw55x_efuse.c ****         /* when EFUSE address is greater than 4, it must be an integral multiple of 4 */
 137:../Firmware/GD32VW55x_standard_peripheral/Source/gd32vw55x_efuse.c ****         if(ef_addr % 4U) {
 271              		.loc 1 137 20
 272 0092 8327C4FD 		lw	a5,-36(s0)
 273 0096 8D8B     		andi	a5,a5,3
 274              		.loc 1 137 11
 275 0098 99C3     		beq	a5,zero,.L22
 138:../Firmware/GD32VW55x_standard_peripheral/Source/gd32vw55x_efuse.c ****             return ERROR;
 276              		.loc 1 138 20
 277 009a 8147     		li	a5,0
 278 009c 1DA2     		j	.L18
 279              	.L22:
 139:../Firmware/GD32VW55x_standard_peripheral/Source/gd32vw55x_efuse.c ****         } else {
 140:../Firmware/GD32VW55x_standard_peripheral/Source/gd32vw55x_efuse.c ****             reg_addr = (uint32_t)(EFUSE + 0x14U + ef_addr);
 280              		.loc 1 140 22
 281 009e 0327C4FD 		lw	a4,-36(s0)
 282 00a2 B7370240 		li	a5,1073885184
 283 00a6 93874781 		addi	a5,a5,-2028
 284 00aa BA97     		add	a5,a4,a5
 285 00ac 2322F4FE 		sw	a5,-28(s0)
 286              	.L21:
 141:../Firmware/GD32VW55x_standard_peripheral/Source/gd32vw55x_efuse.c ****         }
 142:../Firmware/GD32VW55x_standard_peripheral/Source/gd32vw55x_efuse.c ****     }
 143:../Firmware/GD32VW55x_standard_peripheral/Source/gd32vw55x_efuse.c **** 
 144:../Firmware/GD32VW55x_standard_peripheral/Source/gd32vw55x_efuse.c ****     /* EFUSE power on */
 145:../Firmware/GD32VW55x_standard_peripheral/Source/gd32vw55x_efuse.c ****     RCU_CFG1 |= RCU_CFG1_BGPU;
 287              		.loc 1 145 14
 288 00b0 B7470240 		li	a5,1073889280
 289 00b4 9387C788 		addi	a5,a5,-1908
 290 00b8 9443     		lw	a3,0(a5)
 291 00ba B7470240 		li	a5,1073889280
 292 00be 9387C788 		addi	a5,a5,-1908
 293 00c2 37070800 		li	a4,524288
 294 00c6 558F     		or	a4,a3,a4
 295 00c8 98C3     		sw	a4,0(a5)
 146:../Firmware/GD32VW55x_standard_peripheral/Source/gd32vw55x_efuse.c ****     /* EFUSE write operation */
 147:../Firmware/GD32VW55x_standard_peripheral/Source/gd32vw55x_efuse.c ****     EFUSE_CS |= EFUSE_CS_EFRW;
 296              		.loc 1 147 14
 297 00ca B7370240 		li	a5,1073885184
 298 00ce 93870780 		addi	a5,a5,-2048
 299 00d2 9843     		lw	a4,0(a5)
 300 00d4 B7370240 		li	a5,1073885184
 301 00d8 93870780 		addi	a5,a5,-2048
 302 00dc 13672700 		ori	a4,a4,2
 303 00e0 98C3     		sw	a4,0(a5)
 148:../Firmware/GD32VW55x_standard_peripheral/Source/gd32vw55x_efuse.c ****     /* write EFUSE address and size */
 149:../Firmware/GD32VW55x_standard_peripheral/Source/gd32vw55x_efuse.c ****     EFUSE_ADDR = (uint32_t)((size << 8U) | ef_addr);
 304              		.loc 1 149 35
 305 00e2 832784FD 		lw	a5,-40(s0)
 306 00e6 93968700 		slli	a3,a5,8
 307              		.loc 1 149 5
 308 00ea B7370240 		li	a5,1073885184
 309 00ee 93874780 		addi	a5,a5,-2044
 310              		.loc 1 149 42
 311 00f2 0327C4FD 		lw	a4,-36(s0)
 312 00f6 558F     		or	a4,a3,a4
 313              		.loc 1 149 16
 314 00f8 98C3     		sw	a4,0(a5)
 150:../Firmware/GD32VW55x_standard_peripheral/Source/gd32vw55x_efuse.c ****     /* write EFUSE */
 151:../Firmware/GD32VW55x_standard_peripheral/Source/gd32vw55x_efuse.c ****     for(i = 0U; i < number; i++) {
 315              		.loc 1 151 11
 316 00fa 232604FE 		sw	zero,-20(s0)
 317              		.loc 1 151 5
 318 00fe 2DA0     		j	.L23
 319              	.L24:
 152:../Firmware/GD32VW55x_standard_peripheral/Source/gd32vw55x_efuse.c ****         REG32(reg_addr + (4U * i)) = buf[i];
 320              		.loc 1 152 41 discriminator 3
 321 0100 8327C4FE 		lw	a5,-20(s0)
 322 0104 8A07     		slli	a5,a5,2
 323 0106 032744FD 		lw	a4,-44(s0)
 324 010a BA97     		add	a5,a4,a5
 325              		.loc 1 152 9 discriminator 3
 326 010c 0327C4FE 		lw	a4,-20(s0)
 327 0110 93162700 		slli	a3,a4,2
 328 0114 032744FE 		lw	a4,-28(s0)
 329 0118 3697     		add	a4,a3,a4
 330              		.loc 1 152 41 discriminator 3
 331 011a 9C43     		lw	a5,0(a5)
 332              		.loc 1 152 36 discriminator 3
 333 011c 1CC3     		sw	a5,0(a4)
 151:../Firmware/GD32VW55x_standard_peripheral/Source/gd32vw55x_efuse.c ****         REG32(reg_addr + (4U * i)) = buf[i];
 334              		.loc 1 151 30 discriminator 3
 335 011e 8327C4FE 		lw	a5,-20(s0)
 336 0122 8507     		addi	a5,a5,1
 337 0124 2326F4FE 		sw	a5,-20(s0)
 338              	.L23:
 151:../Firmware/GD32VW55x_standard_peripheral/Source/gd32vw55x_efuse.c ****         REG32(reg_addr + (4U * i)) = buf[i];
 339              		.loc 1 151 5 discriminator 1
 340 0128 0327C4FE 		lw	a4,-20(s0)
 341 012c 832704FE 		lw	a5,-32(s0)
 342 0130 E368F7FC 		bltu	a4,a5,.L24
 153:../Firmware/GD32VW55x_standard_peripheral/Source/gd32vw55x_efuse.c ****     }
 154:../Firmware/GD32VW55x_standard_peripheral/Source/gd32vw55x_efuse.c ****     /* start write EFUSE operation */
 155:../Firmware/GD32VW55x_standard_peripheral/Source/gd32vw55x_efuse.c ****     EFUSE_CS |= EFUSE_CS_EFSTR;
 343              		.loc 1 155 14
 344 0134 B7370240 		li	a5,1073885184
 345 0138 93870780 		addi	a5,a5,-2048
 346 013c 9843     		lw	a4,0(a5)
 347 013e B7370240 		li	a5,1073885184
 348 0142 93870780 		addi	a5,a5,-2048
 349 0146 13671700 		ori	a4,a4,1
 350 014a 98C3     		sw	a4,0(a5)
 351              	.L26:
 156:../Firmware/GD32VW55x_standard_peripheral/Source/gd32vw55x_efuse.c **** 
 157:../Firmware/GD32VW55x_standard_peripheral/Source/gd32vw55x_efuse.c ****     /* wait for the operation to complete */
 158:../Firmware/GD32VW55x_standard_peripheral/Source/gd32vw55x_efuse.c ****     do {
 159:../Firmware/GD32VW55x_standard_peripheral/Source/gd32vw55x_efuse.c ****         timeout--;
 352              		.loc 1 159 16 discriminator 2
 353 014c 832784FE 		lw	a5,-24(s0)
 354 0150 FD17     		addi	a5,a5,-1
 355 0152 2324F4FE 		sw	a5,-24(s0)
 160:../Firmware/GD32VW55x_standard_peripheral/Source/gd32vw55x_efuse.c ****     } while((RESET == efuse_flag_get(EFUSE_PGIF)) && (0x00U != timeout));
 356              		.loc 1 160 23 discriminator 2
 357 0156 4165     		li	a0,65536
 358 0158 97000000 		call	efuse_flag_get
 358      E7800000 
 359 0160 AA87     		mv	a5,a0
 360              		.loc 1 160 5 discriminator 2
 361 0162 81E7     		bne	a5,zero,.L25
 362              		.loc 1 160 51 discriminator 1
 363 0164 832784FE 		lw	a5,-24(s0)
 364 0168 F5F3     		bne	a5,zero,.L26
 365              	.L25:
 161:../Firmware/GD32VW55x_standard_peripheral/Source/gd32vw55x_efuse.c ****     if(0x00U == timeout) {
 366              		.loc 1 161 7
 367 016a 832784FE 		lw	a5,-24(s0)
 368 016e 99E3     		bne	a5,zero,.L27
 162:../Firmware/GD32VW55x_standard_peripheral/Source/gd32vw55x_efuse.c ****         return ERROR;
 369              		.loc 1 162 16
 370 0170 8147     		li	a5,0
 371 0172 81A8     		j	.L18
 372              	.L27:
 163:../Firmware/GD32VW55x_standard_peripheral/Source/gd32vw55x_efuse.c ****     }
 164:../Firmware/GD32VW55x_standard_peripheral/Source/gd32vw55x_efuse.c **** 
 165:../Firmware/GD32VW55x_standard_peripheral/Source/gd32vw55x_efuse.c ****     /* clear EFUSE write operation flag */
 166:../Firmware/GD32VW55x_standard_peripheral/Source/gd32vw55x_efuse.c ****     EFUSE_CS &= (~EFUSE_CS_EFRW);
 373              		.loc 1 166 14
 374 0174 B7370240 		li	a5,1073885184
 375 0178 93870780 		addi	a5,a5,-2048
 376 017c 9843     		lw	a4,0(a5)
 377 017e B7370240 		li	a5,1073885184
 378 0182 93870780 		addi	a5,a5,-2048
 379 0186 759B     		andi	a4,a4,-3
 380 0188 98C3     		sw	a4,0(a5)
 167:../Firmware/GD32VW55x_standard_peripheral/Source/gd32vw55x_efuse.c ****     /* clear EFUSE write completed flag*/
 168:../Firmware/GD32VW55x_standard_peripheral/Source/gd32vw55x_efuse.c ****     EFUSE_CS |= (uint32_t)EFUSE_CS_PGIC;
 381              		.loc 1 168 14
 382 018a B7370240 		li	a5,1073885184
 383 018e 93870780 		addi	a5,a5,-2048
 384 0192 9443     		lw	a3,0(a5)
 385 0194 B7370240 		li	a5,1073885184
 386 0198 93870780 		addi	a5,a5,-2048
 387 019c 37070001 		li	a4,16777216
 388 01a0 558F     		or	a4,a3,a4
 389 01a2 98C3     		sw	a4,0(a5)
 169:../Firmware/GD32VW55x_standard_peripheral/Source/gd32vw55x_efuse.c ****     /* EFUSE power off */
 170:../Firmware/GD32VW55x_standard_peripheral/Source/gd32vw55x_efuse.c ****     RCU_CFG1 &= (~RCU_CFG1_BGPU);
 390              		.loc 1 170 14
 391 01a4 B7470240 		li	a5,1073889280
 392 01a8 9387C788 		addi	a5,a5,-1908
 393 01ac 9443     		lw	a3,0(a5)
 394 01ae B7470240 		li	a5,1073889280
 395 01b2 9387C788 		addi	a5,a5,-1908
 396 01b6 3707F8FF 		li	a4,-524288
 397 01ba 7D17     		addi	a4,a4,-1
 398 01bc 758F     		and	a4,a3,a4
 399 01be 98C3     		sw	a4,0(a5)
 171:../Firmware/GD32VW55x_standard_peripheral/Source/gd32vw55x_efuse.c **** 
 172:../Firmware/GD32VW55x_standard_peripheral/Source/gd32vw55x_efuse.c ****     return SUCCESS;
 400              		.loc 1 172 12
 401 01c0 8547     		li	a5,1
 402              	.L18:
 173:../Firmware/GD32VW55x_standard_peripheral/Source/gd32vw55x_efuse.c **** }
 403              		.loc 1 173 1
 404 01c2 3E85     		mv	a0,a5
 405 01c4 B250     		lw	ra,44(sp)
 406              		.cfi_restore 1
 407 01c6 2254     		lw	s0,40(sp)
 408              		.cfi_restore 8
 409              		.cfi_def_cfa 2, 48
 410 01c8 4561     		addi	sp,sp,48
 411              		.cfi_def_cfa_offset 0
 412 01ca 8280     		jr	ra
 413              		.cfi_endproc
 414              	.LFE348:
 416              		.section	.text.efuse_boot_config,"ax",@progbits
 417              		.align	1
 418              		.globl	efuse_boot_config
 420              	efuse_boot_config:
 421              	.LFB349:
 174:../Firmware/GD32VW55x_standard_peripheral/Source/gd32vw55x_efuse.c **** 
 175:../Firmware/GD32VW55x_standard_peripheral/Source/gd32vw55x_efuse.c **** /*!
 176:../Firmware/GD32VW55x_standard_peripheral/Source/gd32vw55x_efuse.c ****     \brief      configure boot
 177:../Firmware/GD32VW55x_standard_peripheral/Source/gd32vw55x_efuse.c ****     \param[in]  size: size of data(byte)
 178:../Firmware/GD32VW55x_standard_peripheral/Source/gd32vw55x_efuse.c ****       \arg        the size must be 1
 179:../Firmware/GD32VW55x_standard_peripheral/Source/gd32vw55x_efuse.c ****     \param[in]  bt_value: the value of boot configuration
 180:../Firmware/GD32VW55x_standard_peripheral/Source/gd32vw55x_efuse.c ****     \param[out] none
 181:../Firmware/GD32VW55x_standard_peripheral/Source/gd32vw55x_efuse.c ****     \retval     ErrStatus: ERROR or SUCCESS
 182:../Firmware/GD32VW55x_standard_peripheral/Source/gd32vw55x_efuse.c **** */
 183:../Firmware/GD32VW55x_standard_peripheral/Source/gd32vw55x_efuse.c **** ErrStatus efuse_boot_config(uint32_t size, uint8_t bt_value[])
 184:../Firmware/GD32VW55x_standard_peripheral/Source/gd32vw55x_efuse.c **** {
 422              		.loc 1 184 1
 423              		.cfi_startproc
 424 0000 0111     		addi	sp,sp,-32
 425              		.cfi_def_cfa_offset 32
 426 0002 06CE     		sw	ra,28(sp)
 427 0004 22CC     		sw	s0,24(sp)
 428              		.cfi_offset 1, -4
 429              		.cfi_offset 8, -8
 430 0006 0010     		addi	s0,sp,32
 431              		.cfi_def_cfa 8, 0
 432 0008 2326A4FE 		sw	a0,-20(s0)
 433 000c 2324B4FE 		sw	a1,-24(s0)
 185:../Firmware/GD32VW55x_standard_peripheral/Source/gd32vw55x_efuse.c ****     if(size != 1U) {
 434              		.loc 1 185 7
 435 0010 0327C4FE 		lw	a4,-20(s0)
 436 0014 8547     		li	a5,1
 437 0016 6304F700 		beq	a4,a5,.L29
 186:../Firmware/GD32VW55x_standard_peripheral/Source/gd32vw55x_efuse.c ****         return ERROR;
 438              		.loc 1 186 16
 439 001a 8147     		li	a5,0
 440 001c 19A8     		j	.L30
 441              	.L29:
 187:../Firmware/GD32VW55x_standard_peripheral/Source/gd32vw55x_efuse.c ****     }
 188:../Firmware/GD32VW55x_standard_peripheral/Source/gd32vw55x_efuse.c ****     return efuse_write(EFUSE_CTL0_ADDR, size, (uint32_t *)bt_value);
 442              		.loc 1 188 12
 443 001e 032684FE 		lw	a2,-24(s0)
 444 0022 8325C4FE 		lw	a1,-20(s0)
 445 0026 0145     		li	a0,0
 446 0028 97000000 		call	efuse_write
 446      E7800000 
 447 0030 AA87     		mv	a5,a0
 448              	.L30:
 189:../Firmware/GD32VW55x_standard_peripheral/Source/gd32vw55x_efuse.c **** }
 449              		.loc 1 189 1
 450 0032 3E85     		mv	a0,a5
 451 0034 F240     		lw	ra,28(sp)
 452              		.cfi_restore 1
 453 0036 6244     		lw	s0,24(sp)
 454              		.cfi_restore 8
 455              		.cfi_def_cfa 2, 32
 456 0038 0561     		addi	sp,sp,32
 457              		.cfi_def_cfa_offset 0
 458 003a 8280     		jr	ra
 459              		.cfi_endproc
 460              	.LFE349:
 462              		.section	.text.efuse_control1_config,"ax",@progbits
 463              		.align	1
 464              		.globl	efuse_control1_config
 466              	efuse_control1_config:
 467              	.LFB350:
 190:../Firmware/GD32VW55x_standard_peripheral/Source/gd32vw55x_efuse.c **** 
 191:../Firmware/GD32VW55x_standard_peripheral/Source/gd32vw55x_efuse.c **** /*!
 192:../Firmware/GD32VW55x_standard_peripheral/Source/gd32vw55x_efuse.c ****     \brief      configure efuse control1
 193:../Firmware/GD32VW55x_standard_peripheral/Source/gd32vw55x_efuse.c ****     \param[in]  size: size of data(byte)
 194:../Firmware/GD32VW55x_standard_peripheral/Source/gd32vw55x_efuse.c ****       \arg      the size must be 1
 195:../Firmware/GD32VW55x_standard_peripheral/Source/gd32vw55x_efuse.c ****     \param[in]  ctl: control value
 196:../Firmware/GD32VW55x_standard_peripheral/Source/gd32vw55x_efuse.c ****     \param[out] none
 197:../Firmware/GD32VW55x_standard_peripheral/Source/gd32vw55x_efuse.c ****     \retval     ErrStatus: ERROR or SUCCESS
 198:../Firmware/GD32VW55x_standard_peripheral/Source/gd32vw55x_efuse.c **** */
 199:../Firmware/GD32VW55x_standard_peripheral/Source/gd32vw55x_efuse.c **** ErrStatus efuse_control1_config(uint32_t size, uint8_t ctl[])
 200:../Firmware/GD32VW55x_standard_peripheral/Source/gd32vw55x_efuse.c **** {
 468              		.loc 1 200 1
 469              		.cfi_startproc
 470 0000 0111     		addi	sp,sp,-32
 471              		.cfi_def_cfa_offset 32
 472 0002 06CE     		sw	ra,28(sp)
 473 0004 22CC     		sw	s0,24(sp)
 474              		.cfi_offset 1, -4
 475              		.cfi_offset 8, -8
 476 0006 0010     		addi	s0,sp,32
 477              		.cfi_def_cfa 8, 0
 478 0008 2326A4FE 		sw	a0,-20(s0)
 479 000c 2324B4FE 		sw	a1,-24(s0)
 201:../Firmware/GD32VW55x_standard_peripheral/Source/gd32vw55x_efuse.c ****     if(size != 1U) {
 480              		.loc 1 201 7
 481 0010 0327C4FE 		lw	a4,-20(s0)
 482 0014 8547     		li	a5,1
 483 0016 6304F700 		beq	a4,a5,.L32
 202:../Firmware/GD32VW55x_standard_peripheral/Source/gd32vw55x_efuse.c ****         return ERROR;
 484              		.loc 1 202 16
 485 001a 8147     		li	a5,0
 486 001c 19A8     		j	.L33
 487              	.L32:
 203:../Firmware/GD32VW55x_standard_peripheral/Source/gd32vw55x_efuse.c ****     }
 204:../Firmware/GD32VW55x_standard_peripheral/Source/gd32vw55x_efuse.c ****     return efuse_write(EFUSE_CTL1_ADDR, size, (uint32_t *)ctl);
 488              		.loc 1 204 12
 489 001e 032684FE 		lw	a2,-24(s0)
 490 0022 8325C4FE 		lw	a1,-20(s0)
 491 0026 0545     		li	a0,1
 492 0028 97000000 		call	efuse_write
 492      E7800000 
 493 0030 AA87     		mv	a5,a0
 494              	.L33:
 205:../Firmware/GD32VW55x_standard_peripheral/Source/gd32vw55x_efuse.c **** }
 495              		.loc 1 205 1
 496 0032 3E85     		mv	a0,a5
 497 0034 F240     		lw	ra,28(sp)
 498              		.cfi_restore 1
 499 0036 6244     		lw	s0,24(sp)
 500              		.cfi_restore 8
 501              		.cfi_def_cfa 2, 32
 502 0038 0561     		addi	sp,sp,32
 503              		.cfi_def_cfa_offset 0
 504 003a 8280     		jr	ra
 505              		.cfi_endproc
 506              	.LFE350:
 508              		.section	.text.efuse_fp_config,"ax",@progbits
 509              		.align	1
 510              		.globl	efuse_fp_config
 512              	efuse_fp_config:
 513              	.LFB351:
 206:../Firmware/GD32VW55x_standard_peripheral/Source/gd32vw55x_efuse.c **** 
 207:../Firmware/GD32VW55x_standard_peripheral/Source/gd32vw55x_efuse.c **** /*!
 208:../Firmware/GD32VW55x_standard_peripheral/Source/gd32vw55x_efuse.c ****     \brief      configure flash protection
 209:../Firmware/GD32VW55x_standard_peripheral/Source/gd32vw55x_efuse.c ****     \param[in]  size: size of data(byte)
 210:../Firmware/GD32VW55x_standard_peripheral/Source/gd32vw55x_efuse.c ****       \arg        the size must be 1
 211:../Firmware/GD32VW55x_standard_peripheral/Source/gd32vw55x_efuse.c ****     \param[in]  fp_value: flash protection value
 212:../Firmware/GD32VW55x_standard_peripheral/Source/gd32vw55x_efuse.c ****     \param[out] none
 213:../Firmware/GD32VW55x_standard_peripheral/Source/gd32vw55x_efuse.c ****     \retval     ErrStatus: ERROR or SUCCESS
 214:../Firmware/GD32VW55x_standard_peripheral/Source/gd32vw55x_efuse.c **** */
 215:../Firmware/GD32VW55x_standard_peripheral/Source/gd32vw55x_efuse.c **** ErrStatus efuse_fp_config(uint32_t size, uint8_t fp_value[])
 216:../Firmware/GD32VW55x_standard_peripheral/Source/gd32vw55x_efuse.c **** {
 514              		.loc 1 216 1
 515              		.cfi_startproc
 516 0000 0111     		addi	sp,sp,-32
 517              		.cfi_def_cfa_offset 32
 518 0002 06CE     		sw	ra,28(sp)
 519 0004 22CC     		sw	s0,24(sp)
 520              		.cfi_offset 1, -4
 521              		.cfi_offset 8, -8
 522 0006 0010     		addi	s0,sp,32
 523              		.cfi_def_cfa 8, 0
 524 0008 2326A4FE 		sw	a0,-20(s0)
 525 000c 2324B4FE 		sw	a1,-24(s0)
 217:../Firmware/GD32VW55x_standard_peripheral/Source/gd32vw55x_efuse.c ****     if(size != 1U) {
 526              		.loc 1 217 7
 527 0010 0327C4FE 		lw	a4,-20(s0)
 528 0014 8547     		li	a5,1
 529 0016 6304F700 		beq	a4,a5,.L35
 218:../Firmware/GD32VW55x_standard_peripheral/Source/gd32vw55x_efuse.c ****         return ERROR;
 530              		.loc 1 218 16
 531 001a 8147     		li	a5,0
 532 001c 19A8     		j	.L36
 533              	.L35:
 219:../Firmware/GD32VW55x_standard_peripheral/Source/gd32vw55x_efuse.c ****     }
 220:../Firmware/GD32VW55x_standard_peripheral/Source/gd32vw55x_efuse.c ****     return efuse_write(FP_ADDR, size, (uint32_t *)fp_value);
 534              		.loc 1 220 12
 535 001e 032684FE 		lw	a2,-24(s0)
 536 0022 8325C4FE 		lw	a1,-20(s0)
 537 0026 0945     		li	a0,2
 538 0028 97000000 		call	efuse_write
 538      E7800000 
 539 0030 AA87     		mv	a5,a0
 540              	.L36:
 221:../Firmware/GD32VW55x_standard_peripheral/Source/gd32vw55x_efuse.c **** }
 541              		.loc 1 221 1
 542 0032 3E85     		mv	a0,a5
 543 0034 F240     		lw	ra,28(sp)
 544              		.cfi_restore 1
 545 0036 6244     		lw	s0,24(sp)
 546              		.cfi_restore 8
 547              		.cfi_def_cfa 2, 32
 548 0038 0561     		addi	sp,sp,32
 549              		.cfi_def_cfa_offset 0
 550 003a 8280     		jr	ra
 551              		.cfi_endproc
 552              	.LFE351:
 554              		.section	.text.efuse_user_control_config,"ax",@progbits
 555              		.align	1
 556              		.globl	efuse_user_control_config
 558              	efuse_user_control_config:
 559              	.LFB352:
 222:../Firmware/GD32VW55x_standard_peripheral/Source/gd32vw55x_efuse.c **** 
 223:../Firmware/GD32VW55x_standard_peripheral/Source/gd32vw55x_efuse.c **** /*!
 224:../Firmware/GD32VW55x_standard_peripheral/Source/gd32vw55x_efuse.c ****     \brief      configure user control
 225:../Firmware/GD32VW55x_standard_peripheral/Source/gd32vw55x_efuse.c ****     \param[in]  size: size of data(byte)
 226:../Firmware/GD32VW55x_standard_peripheral/Source/gd32vw55x_efuse.c ****       \arg        the size must be 1
 227:../Firmware/GD32VW55x_standard_peripheral/Source/gd32vw55x_efuse.c ****     \param[in]  user_ctl: user control value
 228:../Firmware/GD32VW55x_standard_peripheral/Source/gd32vw55x_efuse.c ****     \param[out] none
 229:../Firmware/GD32VW55x_standard_peripheral/Source/gd32vw55x_efuse.c ****     \retval     ErrStatus: ERROR or SUCCESS
 230:../Firmware/GD32VW55x_standard_peripheral/Source/gd32vw55x_efuse.c **** */
 231:../Firmware/GD32VW55x_standard_peripheral/Source/gd32vw55x_efuse.c **** ErrStatus efuse_user_control_config(uint32_t size, uint8_t user_ctl[])
 232:../Firmware/GD32VW55x_standard_peripheral/Source/gd32vw55x_efuse.c **** {
 560              		.loc 1 232 1
 561              		.cfi_startproc
 562 0000 0111     		addi	sp,sp,-32
 563              		.cfi_def_cfa_offset 32
 564 0002 06CE     		sw	ra,28(sp)
 565 0004 22CC     		sw	s0,24(sp)
 566              		.cfi_offset 1, -4
 567              		.cfi_offset 8, -8
 568 0006 0010     		addi	s0,sp,32
 569              		.cfi_def_cfa 8, 0
 570 0008 2326A4FE 		sw	a0,-20(s0)
 571 000c 2324B4FE 		sw	a1,-24(s0)
 233:../Firmware/GD32VW55x_standard_peripheral/Source/gd32vw55x_efuse.c ****     if(size != 1U) {
 572              		.loc 1 233 7
 573 0010 0327C4FE 		lw	a4,-20(s0)
 574 0014 8547     		li	a5,1
 575 0016 6304F700 		beq	a4,a5,.L38
 234:../Firmware/GD32VW55x_standard_peripheral/Source/gd32vw55x_efuse.c ****         return ERROR;
 576              		.loc 1 234 16
 577 001a 8147     		li	a5,0
 578 001c 19A8     		j	.L39
 579              	.L38:
 235:../Firmware/GD32VW55x_standard_peripheral/Source/gd32vw55x_efuse.c ****     }
 236:../Firmware/GD32VW55x_standard_peripheral/Source/gd32vw55x_efuse.c ****     return efuse_write(USER_CTL_ADDR, size, (uint32_t *)user_ctl);
 580              		.loc 1 236 12
 581 001e 032684FE 		lw	a2,-24(s0)
 582 0022 8325C4FE 		lw	a1,-20(s0)
 583 0026 0D45     		li	a0,3
 584 0028 97000000 		call	efuse_write
 584      E7800000 
 585 0030 AA87     		mv	a5,a0
 586              	.L39:
 237:../Firmware/GD32VW55x_standard_peripheral/Source/gd32vw55x_efuse.c **** }
 587              		.loc 1 237 1
 588 0032 3E85     		mv	a0,a5
 589 0034 F240     		lw	ra,28(sp)
 590              		.cfi_restore 1
 591 0036 6244     		lw	s0,24(sp)
 592              		.cfi_restore 8
 593              		.cfi_def_cfa 2, 32
 594 0038 0561     		addi	sp,sp,32
 595              		.cfi_def_cfa_offset 0
 596 003a 8280     		jr	ra
 597              		.cfi_endproc
 598              	.LFE352:
 600              		.section	.text.efuse_res_write,"ax",@progbits
 601              		.align	1
 602              		.globl	efuse_res_write
 604              	efuse_res_write:
 605              	.LFB353:
 238:../Firmware/GD32VW55x_standard_peripheral/Source/gd32vw55x_efuse.c **** 
 239:../Firmware/GD32VW55x_standard_peripheral/Source/gd32vw55x_efuse.c **** /*!
 240:../Firmware/GD32VW55x_standard_peripheral/Source/gd32vw55x_efuse.c ****     \brief      write MCU reserved value
 241:../Firmware/GD32VW55x_standard_peripheral/Source/gd32vw55x_efuse.c ****     \param[in]  size: size of data(byte)
 242:../Firmware/GD32VW55x_standard_peripheral/Source/gd32vw55x_efuse.c ****       \arg        the size must be 12
 243:../Firmware/GD32VW55x_standard_peripheral/Source/gd32vw55x_efuse.c ****     \param[in]  buf: MCU reserved value
 244:../Firmware/GD32VW55x_standard_peripheral/Source/gd32vw55x_efuse.c ****     \param[out] none
 245:../Firmware/GD32VW55x_standard_peripheral/Source/gd32vw55x_efuse.c ****     \retval     ErrStatus: ERROR or SUCCESS
 246:../Firmware/GD32VW55x_standard_peripheral/Source/gd32vw55x_efuse.c **** */
 247:../Firmware/GD32VW55x_standard_peripheral/Source/gd32vw55x_efuse.c **** ErrStatus efuse_res_write(uint32_t size, uint8_t buf[])
 248:../Firmware/GD32VW55x_standard_peripheral/Source/gd32vw55x_efuse.c **** {
 606              		.loc 1 248 1
 607              		.cfi_startproc
 608 0000 0111     		addi	sp,sp,-32
 609              		.cfi_def_cfa_offset 32
 610 0002 06CE     		sw	ra,28(sp)
 611 0004 22CC     		sw	s0,24(sp)
 612              		.cfi_offset 1, -4
 613              		.cfi_offset 8, -8
 614 0006 0010     		addi	s0,sp,32
 615              		.cfi_def_cfa 8, 0
 616 0008 2326A4FE 		sw	a0,-20(s0)
 617 000c 2324B4FE 		sw	a1,-24(s0)
 249:../Firmware/GD32VW55x_standard_peripheral/Source/gd32vw55x_efuse.c ****     if(size != 12U) {
 618              		.loc 1 249 7
 619 0010 0327C4FE 		lw	a4,-20(s0)
 620 0014 B147     		li	a5,12
 621 0016 6304F700 		beq	a4,a5,.L41
 250:../Firmware/GD32VW55x_standard_peripheral/Source/gd32vw55x_efuse.c ****         return ERROR;
 622              		.loc 1 250 16
 623 001a 8147     		li	a5,0
 624 001c 19A8     		j	.L42
 625              	.L41:
 251:../Firmware/GD32VW55x_standard_peripheral/Source/gd32vw55x_efuse.c ****     }
 252:../Firmware/GD32VW55x_standard_peripheral/Source/gd32vw55x_efuse.c ****     return efuse_write(RESERVED_ADDR, size, (uint32_t *)buf);
 626              		.loc 1 252 12
 627 001e 032684FE 		lw	a2,-24(s0)
 628 0022 8325C4FE 		lw	a1,-20(s0)
 629 0026 1145     		li	a0,4
 630 0028 97000000 		call	efuse_write
 630      E7800000 
 631 0030 AA87     		mv	a5,a0
 632              	.L42:
 253:../Firmware/GD32VW55x_standard_peripheral/Source/gd32vw55x_efuse.c **** }
 633              		.loc 1 253 1
 634 0032 3E85     		mv	a0,a5
 635 0034 F240     		lw	ra,28(sp)
 636              		.cfi_restore 1
 637 0036 6244     		lw	s0,24(sp)
 638              		.cfi_restore 8
 639              		.cfi_def_cfa 2, 32
 640 0038 0561     		addi	sp,sp,32
 641              		.cfi_def_cfa_offset 0
 642 003a 8280     		jr	ra
 643              		.cfi_endproc
 644              	.LFE353:
 646              		.section	.text.efuse_aes_key_write,"ax",@progbits
 647              		.align	1
 648              		.globl	efuse_aes_key_write
 650              	efuse_aes_key_write:
 651              	.LFB354:
 254:../Firmware/GD32VW55x_standard_peripheral/Source/gd32vw55x_efuse.c **** 
 255:../Firmware/GD32VW55x_standard_peripheral/Source/gd32vw55x_efuse.c **** /*!
 256:../Firmware/GD32VW55x_standard_peripheral/Source/gd32vw55x_efuse.c ****     \brief      write AES key
 257:../Firmware/GD32VW55x_standard_peripheral/Source/gd32vw55x_efuse.c ****     \param[in]  size: size of data(byte)
 258:../Firmware/GD32VW55x_standard_peripheral/Source/gd32vw55x_efuse.c ****       \arg        the size must be 16
 259:../Firmware/GD32VW55x_standard_peripheral/Source/gd32vw55x_efuse.c ****     \param[in]  buf: the buffer of data written to efuse
 260:../Firmware/GD32VW55x_standard_peripheral/Source/gd32vw55x_efuse.c ****     \param[out] none
 261:../Firmware/GD32VW55x_standard_peripheral/Source/gd32vw55x_efuse.c ****     \retval     ErrStatus: ERROR or SUCCESS
 262:../Firmware/GD32VW55x_standard_peripheral/Source/gd32vw55x_efuse.c **** */
 263:../Firmware/GD32VW55x_standard_peripheral/Source/gd32vw55x_efuse.c **** ErrStatus efuse_aes_key_write(uint32_t size, uint8_t buf[])
 264:../Firmware/GD32VW55x_standard_peripheral/Source/gd32vw55x_efuse.c **** {
 652              		.loc 1 264 1
 653              		.cfi_startproc
 654 0000 0111     		addi	sp,sp,-32
 655              		.cfi_def_cfa_offset 32
 656 0002 06CE     		sw	ra,28(sp)
 657 0004 22CC     		sw	s0,24(sp)
 658              		.cfi_offset 1, -4
 659              		.cfi_offset 8, -8
 660 0006 0010     		addi	s0,sp,32
 661              		.cfi_def_cfa 8, 0
 662 0008 2326A4FE 		sw	a0,-20(s0)
 663 000c 2324B4FE 		sw	a1,-24(s0)
 265:../Firmware/GD32VW55x_standard_peripheral/Source/gd32vw55x_efuse.c ****     if(size != 16U) {
 664              		.loc 1 265 7
 665 0010 0327C4FE 		lw	a4,-20(s0)
 666 0014 C147     		li	a5,16
 667 0016 6304F700 		beq	a4,a5,.L44
 266:../Firmware/GD32VW55x_standard_peripheral/Source/gd32vw55x_efuse.c ****         return ERROR;
 668              		.loc 1 266 16
 669 001a 8147     		li	a5,0
 670 001c 19A8     		j	.L45
 671              	.L44:
 267:../Firmware/GD32VW55x_standard_peripheral/Source/gd32vw55x_efuse.c ****     }
 268:../Firmware/GD32VW55x_standard_peripheral/Source/gd32vw55x_efuse.c ****     return efuse_write(AES_KEY_ADDR, size, (uint32_t *)buf);
 672              		.loc 1 268 12
 673 001e 032684FE 		lw	a2,-24(s0)
 674 0022 8325C4FE 		lw	a1,-20(s0)
 675 0026 4145     		li	a0,16
 676 0028 97000000 		call	efuse_write
 676      E7800000 
 677 0030 AA87     		mv	a5,a0
 678              	.L45:
 269:../Firmware/GD32VW55x_standard_peripheral/Source/gd32vw55x_efuse.c **** }
 679              		.loc 1 269 1
 680 0032 3E85     		mv	a0,a5
 681 0034 F240     		lw	ra,28(sp)
 682              		.cfi_restore 1
 683 0036 6244     		lw	s0,24(sp)
 684              		.cfi_restore 8
 685              		.cfi_def_cfa 2, 32
 686 0038 0561     		addi	sp,sp,32
 687              		.cfi_def_cfa_offset 0
 688 003a 8280     		jr	ra
 689              		.cfi_endproc
 690              	.LFE354:
 692              		.section	.text.efuse_rotpk_key_write,"ax",@progbits
 693              		.align	1
 694              		.globl	efuse_rotpk_key_write
 696              	efuse_rotpk_key_write:
 697              	.LFB355:
 270:../Firmware/GD32VW55x_standard_peripheral/Source/gd32vw55x_efuse.c **** 
 271:../Firmware/GD32VW55x_standard_peripheral/Source/gd32vw55x_efuse.c **** /*!
 272:../Firmware/GD32VW55x_standard_peripheral/Source/gd32vw55x_efuse.c ****     \brief      write ROTPK key
 273:../Firmware/GD32VW55x_standard_peripheral/Source/gd32vw55x_efuse.c ****     \param[in]  size: size of data(byte)
 274:../Firmware/GD32VW55x_standard_peripheral/Source/gd32vw55x_efuse.c ****       \arg        the size must be 32
 275:../Firmware/GD32VW55x_standard_peripheral/Source/gd32vw55x_efuse.c ****     \param[in]  buf: the buffer of data written to efuse
 276:../Firmware/GD32VW55x_standard_peripheral/Source/gd32vw55x_efuse.c ****     \param[out] none
 277:../Firmware/GD32VW55x_standard_peripheral/Source/gd32vw55x_efuse.c ****     \retval     ErrStatus: ERROR or SUCCESS
 278:../Firmware/GD32VW55x_standard_peripheral/Source/gd32vw55x_efuse.c **** */
 279:../Firmware/GD32VW55x_standard_peripheral/Source/gd32vw55x_efuse.c **** ErrStatus efuse_rotpk_key_write(uint32_t size, uint8_t buf[])
 280:../Firmware/GD32VW55x_standard_peripheral/Source/gd32vw55x_efuse.c **** {
 698              		.loc 1 280 1
 699              		.cfi_startproc
 700 0000 0111     		addi	sp,sp,-32
 701              		.cfi_def_cfa_offset 32
 702 0002 06CE     		sw	ra,28(sp)
 703 0004 22CC     		sw	s0,24(sp)
 704              		.cfi_offset 1, -4
 705              		.cfi_offset 8, -8
 706 0006 0010     		addi	s0,sp,32
 707              		.cfi_def_cfa 8, 0
 708 0008 2326A4FE 		sw	a0,-20(s0)
 709 000c 2324B4FE 		sw	a1,-24(s0)
 281:../Firmware/GD32VW55x_standard_peripheral/Source/gd32vw55x_efuse.c ****     if(size != 32U) {
 710              		.loc 1 281 7
 711 0010 0327C4FE 		lw	a4,-20(s0)
 712 0014 93070002 		li	a5,32
 713 0018 6304F700 		beq	a4,a5,.L47
 282:../Firmware/GD32VW55x_standard_peripheral/Source/gd32vw55x_efuse.c ****         return ERROR;
 714              		.loc 1 282 16
 715 001c 8147     		li	a5,0
 716 001e 21A8     		j	.L48
 717              	.L47:
 283:../Firmware/GD32VW55x_standard_peripheral/Source/gd32vw55x_efuse.c ****     }
 284:../Firmware/GD32VW55x_standard_peripheral/Source/gd32vw55x_efuse.c ****     return efuse_write(ROTPK_ADDR, size, (uint32_t *)buf);
 718              		.loc 1 284 12
 719 0020 032684FE 		lw	a2,-24(s0)
 720 0024 8325C4FE 		lw	a1,-20(s0)
 721 0028 13050002 		li	a0,32
 722 002c 97000000 		call	efuse_write
 722      E7800000 
 723 0034 AA87     		mv	a5,a0
 724              	.L48:
 285:../Firmware/GD32VW55x_standard_peripheral/Source/gd32vw55x_efuse.c **** }
 725              		.loc 1 285 1
 726 0036 3E85     		mv	a0,a5
 727 0038 F240     		lw	ra,28(sp)
 728              		.cfi_restore 1
 729 003a 6244     		lw	s0,24(sp)
 730              		.cfi_restore 8
 731              		.cfi_def_cfa 2, 32
 732 003c 0561     		addi	sp,sp,32
 733              		.cfi_def_cfa_offset 0
 734 003e 8280     		jr	ra
 735              		.cfi_endproc
 736              	.LFE355:
 738              		.section	.text.efuse_user_data_write,"ax",@progbits
 739              		.align	1
 740              		.globl	efuse_user_data_write
 742              	efuse_user_data_write:
 743              	.LFB356:
 286:../Firmware/GD32VW55x_standard_peripheral/Source/gd32vw55x_efuse.c **** 
 287:../Firmware/GD32VW55x_standard_peripheral/Source/gd32vw55x_efuse.c **** /*!
 288:../Firmware/GD32VW55x_standard_peripheral/Source/gd32vw55x_efuse.c ****     \brief      write user data
 289:../Firmware/GD32VW55x_standard_peripheral/Source/gd32vw55x_efuse.c ****     \param[in]  size: size of data(byte)
 290:../Firmware/GD32VW55x_standard_peripheral/Source/gd32vw55x_efuse.c ****       \arg        the size must be 32
 291:../Firmware/GD32VW55x_standard_peripheral/Source/gd32vw55x_efuse.c ****     \param[in]  buf: the buffer of data written to efuse
 292:../Firmware/GD32VW55x_standard_peripheral/Source/gd32vw55x_efuse.c ****     \param[out] none
 293:../Firmware/GD32VW55x_standard_peripheral/Source/gd32vw55x_efuse.c ****     \retval     ErrStatus: ERROR or SUCCESS
 294:../Firmware/GD32VW55x_standard_peripheral/Source/gd32vw55x_efuse.c **** */
 295:../Firmware/GD32VW55x_standard_peripheral/Source/gd32vw55x_efuse.c **** ErrStatus efuse_user_data_write(uint32_t size, uint8_t buf[])
 296:../Firmware/GD32VW55x_standard_peripheral/Source/gd32vw55x_efuse.c **** {
 744              		.loc 1 296 1
 745              		.cfi_startproc
 746 0000 0111     		addi	sp,sp,-32
 747              		.cfi_def_cfa_offset 32
 748 0002 06CE     		sw	ra,28(sp)
 749 0004 22CC     		sw	s0,24(sp)
 750              		.cfi_offset 1, -4
 751              		.cfi_offset 8, -8
 752 0006 0010     		addi	s0,sp,32
 753              		.cfi_def_cfa 8, 0
 754 0008 2326A4FE 		sw	a0,-20(s0)
 755 000c 2324B4FE 		sw	a1,-24(s0)
 297:../Firmware/GD32VW55x_standard_peripheral/Source/gd32vw55x_efuse.c ****     if(size != 32U) {
 756              		.loc 1 297 7
 757 0010 0327C4FE 		lw	a4,-20(s0)
 758 0014 93070002 		li	a5,32
 759 0018 6304F700 		beq	a4,a5,.L50
 298:../Firmware/GD32VW55x_standard_peripheral/Source/gd32vw55x_efuse.c ****         return ERROR;
 760              		.loc 1 298 16
 761 001c 8147     		li	a5,0
 762 001e 21A8     		j	.L51
 763              	.L50:
 299:../Firmware/GD32VW55x_standard_peripheral/Source/gd32vw55x_efuse.c ****     }
 300:../Firmware/GD32VW55x_standard_peripheral/Source/gd32vw55x_efuse.c ****     return efuse_write(USER_DATA_ADDR, size, (uint32_t *)buf);
 764              		.loc 1 300 12
 765 0020 032684FE 		lw	a2,-24(s0)
 766 0024 8325C4FE 		lw	a1,-20(s0)
 767 0028 13050006 		li	a0,96
 768 002c 97000000 		call	efuse_write
 768      E7800000 
 769 0034 AA87     		mv	a5,a0
 770              	.L51:
 301:../Firmware/GD32VW55x_standard_peripheral/Source/gd32vw55x_efuse.c **** }
 771              		.loc 1 301 1
 772 0036 3E85     		mv	a0,a5
 773 0038 F240     		lw	ra,28(sp)
 774              		.cfi_restore 1
 775 003a 6244     		lw	s0,24(sp)
 776              		.cfi_restore 8
 777              		.cfi_def_cfa 2, 32
 778 003c 0561     		addi	sp,sp,32
 779              		.cfi_def_cfa_offset 0
 780 003e 8280     		jr	ra
 781              		.cfi_endproc
 782              	.LFE356:
 784              		.section	.text.efuse_res_read,"ax",@progbits
 785              		.align	1
 786              		.globl	efuse_res_read
 788              	efuse_res_read:
 789              	.LFB357:
 302:../Firmware/GD32VW55x_standard_peripheral/Source/gd32vw55x_efuse.c **** 
 303:../Firmware/GD32VW55x_standard_peripheral/Source/gd32vw55x_efuse.c **** /*!
 304:../Firmware/GD32VW55x_standard_peripheral/Source/gd32vw55x_efuse.c ****     \brief      read MCU reserved value
 305:../Firmware/GD32VW55x_standard_peripheral/Source/gd32vw55x_efuse.c ****     \param[in]  none
 306:../Firmware/GD32VW55x_standard_peripheral/Source/gd32vw55x_efuse.c ****     \param[out] buf: MCU reserved value after system reset
 307:../Firmware/GD32VW55x_standard_peripheral/Source/gd32vw55x_efuse.c ****     \retval     none
 308:../Firmware/GD32VW55x_standard_peripheral/Source/gd32vw55x_efuse.c **** */
 309:../Firmware/GD32VW55x_standard_peripheral/Source/gd32vw55x_efuse.c **** void efuse_res_read(uint32_t buf[])
 310:../Firmware/GD32VW55x_standard_peripheral/Source/gd32vw55x_efuse.c **** {
 790              		.loc 1 310 1
 791              		.cfi_startproc
 792 0000 7971     		addi	sp,sp,-48
 793              		.cfi_def_cfa_offset 48
 794 0002 22D6     		sw	s0,44(sp)
 795              		.cfi_offset 8, -4
 796 0004 0018     		addi	s0,sp,48
 797              		.cfi_def_cfa 8, 0
 798 0006 232EA4FC 		sw	a0,-36(s0)
 311:../Firmware/GD32VW55x_standard_peripheral/Source/gd32vw55x_efuse.c ****     uint8_t i = 0U;
 799              		.loc 1 311 13
 800 000a A30704FE 		sb	zero,-17(s0)
 312:../Firmware/GD32VW55x_standard_peripheral/Source/gd32vw55x_efuse.c ****     for(i = 0U; i < 3U; i++) {
 801              		.loc 1 312 11
 802 000e A30704FE 		sb	zero,-17(s0)
 803              		.loc 1 312 5
 804 0012 3DA0     		j	.L53
 805              	.L54:
 313:../Firmware/GD32VW55x_standard_peripheral/Source/gd32vw55x_efuse.c ****         buf[i] = REG32(EFUSE + 0x18U + 0x04U * i);
 806              		.loc 1 313 18 discriminator 3
 807 0014 0347F4FE 		lbu	a4,-17(s0)
 808 0018 B7970010 		li	a5,268472320
 809 001c 938767A0 		addi	a5,a5,-1530
 810 0020 BA97     		add	a5,a4,a5
 811 0022 8A07     		slli	a5,a5,2
 812 0024 BE86     		mv	a3,a5
 813              		.loc 1 313 12 discriminator 3
 814 0026 8347F4FE 		lbu	a5,-17(s0)
 815 002a 8A07     		slli	a5,a5,2
 816 002c 0327C4FD 		lw	a4,-36(s0)
 817 0030 BA97     		add	a5,a4,a5
 818              		.loc 1 313 18 discriminator 3
 819 0032 9842     		lw	a4,0(a3)
 820              		.loc 1 313 16 discriminator 3
 821 0034 98C3     		sw	a4,0(a5)
 312:../Firmware/GD32VW55x_standard_peripheral/Source/gd32vw55x_efuse.c ****     for(i = 0U; i < 3U; i++) {
 822              		.loc 1 312 26 discriminator 3
 823 0036 8347F4FE 		lbu	a5,-17(s0)
 824 003a 8507     		addi	a5,a5,1
 825 003c A307F4FE 		sb	a5,-17(s0)
 826              	.L53:
 312:../Firmware/GD32VW55x_standard_peripheral/Source/gd32vw55x_efuse.c ****     for(i = 0U; i < 3U; i++) {
 827              		.loc 1 312 5 discriminator 1
 828 0040 0347F4FE 		lbu	a4,-17(s0)
 829 0044 8947     		li	a5,2
 830 0046 E3F7E7FC 		bleu	a4,a5,.L54
 314:../Firmware/GD32VW55x_standard_peripheral/Source/gd32vw55x_efuse.c ****     }
 315:../Firmware/GD32VW55x_standard_peripheral/Source/gd32vw55x_efuse.c **** }
 831              		.loc 1 315 1
 832 004a 0100     		nop
 833 004c 0100     		nop
 834 004e 3254     		lw	s0,44(sp)
 835              		.cfi_restore 8
 836              		.cfi_def_cfa 2, 48
 837 0050 4561     		addi	sp,sp,48
 838              		.cfi_def_cfa_offset 0
 839 0052 8280     		jr	ra
 840              		.cfi_endproc
 841              	.LFE357:
 843              		.section	.text.efuse_aes_key_read,"ax",@progbits
 844              		.align	1
 845              		.globl	efuse_aes_key_read
 847              	efuse_aes_key_read:
 848              	.LFB358:
 316:../Firmware/GD32VW55x_standard_peripheral/Source/gd32vw55x_efuse.c **** 
 317:../Firmware/GD32VW55x_standard_peripheral/Source/gd32vw55x_efuse.c **** /*!
 318:../Firmware/GD32VW55x_standard_peripheral/Source/gd32vw55x_efuse.c ****     \brief      read AES key
 319:../Firmware/GD32VW55x_standard_peripheral/Source/gd32vw55x_efuse.c ****     \param[in]  none
 320:../Firmware/GD32VW55x_standard_peripheral/Source/gd32vw55x_efuse.c ****     \param[out] buf: AES_KEY data after system reset
 321:../Firmware/GD32VW55x_standard_peripheral/Source/gd32vw55x_efuse.c ****     \retval     none
 322:../Firmware/GD32VW55x_standard_peripheral/Source/gd32vw55x_efuse.c **** */
 323:../Firmware/GD32VW55x_standard_peripheral/Source/gd32vw55x_efuse.c **** void efuse_aes_key_read(uint32_t buf[])
 324:../Firmware/GD32VW55x_standard_peripheral/Source/gd32vw55x_efuse.c **** {
 849              		.loc 1 324 1
 850              		.cfi_startproc
 851 0000 7971     		addi	sp,sp,-48
 852              		.cfi_def_cfa_offset 48
 853 0002 22D6     		sw	s0,44(sp)
 854              		.cfi_offset 8, -4
 855 0004 0018     		addi	s0,sp,48
 856              		.cfi_def_cfa 8, 0
 857 0006 232EA4FC 		sw	a0,-36(s0)
 325:../Firmware/GD32VW55x_standard_peripheral/Source/gd32vw55x_efuse.c ****     uint8_t i = 0U;
 858              		.loc 1 325 13
 859 000a A30704FE 		sb	zero,-17(s0)
 326:../Firmware/GD32VW55x_standard_peripheral/Source/gd32vw55x_efuse.c ****     for(i = 0U; i < 4U; i++) {
 860              		.loc 1 326 11
 861 000e A30704FE 		sb	zero,-17(s0)
 862              		.loc 1 326 5
 863 0012 3DA0     		j	.L56
 864              	.L57:
 327:../Firmware/GD32VW55x_standard_peripheral/Source/gd32vw55x_efuse.c ****         buf[i] = REG32(EFUSE + 0x24U + 0x04U * i);
 865              		.loc 1 327 18 discriminator 3
 866 0014 0347F4FE 		lbu	a4,-17(s0)
 867 0018 B7970010 		li	a5,268472320
 868 001c 938797A0 		addi	a5,a5,-1527
 869 0020 BA97     		add	a5,a4,a5
 870 0022 8A07     		slli	a5,a5,2
 871 0024 BE86     		mv	a3,a5
 872              		.loc 1 327 12 discriminator 3
 873 0026 8347F4FE 		lbu	a5,-17(s0)
 874 002a 8A07     		slli	a5,a5,2
 875 002c 0327C4FD 		lw	a4,-36(s0)
 876 0030 BA97     		add	a5,a4,a5
 877              		.loc 1 327 18 discriminator 3
 878 0032 9842     		lw	a4,0(a3)
 879              		.loc 1 327 16 discriminator 3
 880 0034 98C3     		sw	a4,0(a5)
 326:../Firmware/GD32VW55x_standard_peripheral/Source/gd32vw55x_efuse.c ****     for(i = 0U; i < 4U; i++) {
 881              		.loc 1 326 26 discriminator 3
 882 0036 8347F4FE 		lbu	a5,-17(s0)
 883 003a 8507     		addi	a5,a5,1
 884 003c A307F4FE 		sb	a5,-17(s0)
 885              	.L56:
 326:../Firmware/GD32VW55x_standard_peripheral/Source/gd32vw55x_efuse.c ****     for(i = 0U; i < 4U; i++) {
 886              		.loc 1 326 5 discriminator 1
 887 0040 0347F4FE 		lbu	a4,-17(s0)
 888 0044 8D47     		li	a5,3
 889 0046 E3F7E7FC 		bleu	a4,a5,.L57
 328:../Firmware/GD32VW55x_standard_peripheral/Source/gd32vw55x_efuse.c ****     }
 329:../Firmware/GD32VW55x_standard_peripheral/Source/gd32vw55x_efuse.c **** }
 890              		.loc 1 329 1
 891 004a 0100     		nop
 892 004c 0100     		nop
 893 004e 3254     		lw	s0,44(sp)
 894              		.cfi_restore 8
 895              		.cfi_def_cfa 2, 48
 896 0050 4561     		addi	sp,sp,48
 897              		.cfi_def_cfa_offset 0
 898 0052 8280     		jr	ra
 899              		.cfi_endproc
 900              	.LFE358:
 902              		.section	.text.efuse_rotpk_key_read,"ax",@progbits
 903              		.align	1
 904              		.globl	efuse_rotpk_key_read
 906              	efuse_rotpk_key_read:
 907              	.LFB359:
 330:../Firmware/GD32VW55x_standard_peripheral/Source/gd32vw55x_efuse.c **** 
 331:../Firmware/GD32VW55x_standard_peripheral/Source/gd32vw55x_efuse.c **** /*!
 332:../Firmware/GD32VW55x_standard_peripheral/Source/gd32vw55x_efuse.c ****     \brief      read ROTPK key
 333:../Firmware/GD32VW55x_standard_peripheral/Source/gd32vw55x_efuse.c ****     \param[in]  none
 334:../Firmware/GD32VW55x_standard_peripheral/Source/gd32vw55x_efuse.c ****     \param[out] buf: rotpk_key data after system reset
 335:../Firmware/GD32VW55x_standard_peripheral/Source/gd32vw55x_efuse.c ****     \retval     none
 336:../Firmware/GD32VW55x_standard_peripheral/Source/gd32vw55x_efuse.c **** */
 337:../Firmware/GD32VW55x_standard_peripheral/Source/gd32vw55x_efuse.c **** void efuse_rotpk_key_read(uint32_t buf[])
 338:../Firmware/GD32VW55x_standard_peripheral/Source/gd32vw55x_efuse.c **** {
 908              		.loc 1 338 1
 909              		.cfi_startproc
 910 0000 7971     		addi	sp,sp,-48
 911              		.cfi_def_cfa_offset 48
 912 0002 22D6     		sw	s0,44(sp)
 913              		.cfi_offset 8, -4
 914 0004 0018     		addi	s0,sp,48
 915              		.cfi_def_cfa 8, 0
 916 0006 232EA4FC 		sw	a0,-36(s0)
 339:../Firmware/GD32VW55x_standard_peripheral/Source/gd32vw55x_efuse.c ****     uint8_t i = 0U;
 917              		.loc 1 339 13
 918 000a A30704FE 		sb	zero,-17(s0)
 340:../Firmware/GD32VW55x_standard_peripheral/Source/gd32vw55x_efuse.c ****     for(i = 0U; i < 8U; i++) {
 919              		.loc 1 340 11
 920 000e A30704FE 		sb	zero,-17(s0)
 921              		.loc 1 340 5
 922 0012 3DA0     		j	.L59
 923              	.L60:
 341:../Firmware/GD32VW55x_standard_peripheral/Source/gd32vw55x_efuse.c ****         buf[i] = REG32(EFUSE + 0x34U + 0x04U * i);
 924              		.loc 1 341 18 discriminator 3
 925 0014 0347F4FE 		lbu	a4,-17(s0)
 926 0018 B7970010 		li	a5,268472320
 927 001c 9387D7A0 		addi	a5,a5,-1523
 928 0020 BA97     		add	a5,a4,a5
 929 0022 8A07     		slli	a5,a5,2
 930 0024 BE86     		mv	a3,a5
 931              		.loc 1 341 12 discriminator 3
 932 0026 8347F4FE 		lbu	a5,-17(s0)
 933 002a 8A07     		slli	a5,a5,2
 934 002c 0327C4FD 		lw	a4,-36(s0)
 935 0030 BA97     		add	a5,a4,a5
 936              		.loc 1 341 18 discriminator 3
 937 0032 9842     		lw	a4,0(a3)
 938              		.loc 1 341 16 discriminator 3
 939 0034 98C3     		sw	a4,0(a5)
 340:../Firmware/GD32VW55x_standard_peripheral/Source/gd32vw55x_efuse.c ****     for(i = 0U; i < 8U; i++) {
 940              		.loc 1 340 26 discriminator 3
 941 0036 8347F4FE 		lbu	a5,-17(s0)
 942 003a 8507     		addi	a5,a5,1
 943 003c A307F4FE 		sb	a5,-17(s0)
 944              	.L59:
 340:../Firmware/GD32VW55x_standard_peripheral/Source/gd32vw55x_efuse.c ****     for(i = 0U; i < 8U; i++) {
 945              		.loc 1 340 5 discriminator 1
 946 0040 0347F4FE 		lbu	a4,-17(s0)
 947 0044 9D47     		li	a5,7
 948 0046 E3F7E7FC 		bleu	a4,a5,.L60
 342:../Firmware/GD32VW55x_standard_peripheral/Source/gd32vw55x_efuse.c ****     }
 343:../Firmware/GD32VW55x_standard_peripheral/Source/gd32vw55x_efuse.c **** }
 949              		.loc 1 343 1
 950 004a 0100     		nop
 951 004c 0100     		nop
 952 004e 3254     		lw	s0,44(sp)
 953              		.cfi_restore 8
 954              		.cfi_def_cfa 2, 48
 955 0050 4561     		addi	sp,sp,48
 956              		.cfi_def_cfa_offset 0
 957 0052 8280     		jr	ra
 958              		.cfi_endproc
 959              	.LFE359:
 961              		.section	.text.efuse_puid_read,"ax",@progbits
 962              		.align	1
 963              		.globl	efuse_puid_read
 965              	efuse_puid_read:
 966              	.LFB360:
 344:../Firmware/GD32VW55x_standard_peripheral/Source/gd32vw55x_efuse.c **** 
 345:../Firmware/GD32VW55x_standard_peripheral/Source/gd32vw55x_efuse.c **** /*!
 346:../Firmware/GD32VW55x_standard_peripheral/Source/gd32vw55x_efuse.c ****     \brief      read puid
 347:../Firmware/GD32VW55x_standard_peripheral/Source/gd32vw55x_efuse.c ****     \param[in]  none
 348:../Firmware/GD32VW55x_standard_peripheral/Source/gd32vw55x_efuse.c ****     \param[out] buf: puid data after system reset
 349:../Firmware/GD32VW55x_standard_peripheral/Source/gd32vw55x_efuse.c ****     \retval     none
 350:../Firmware/GD32VW55x_standard_peripheral/Source/gd32vw55x_efuse.c **** */
 351:../Firmware/GD32VW55x_standard_peripheral/Source/gd32vw55x_efuse.c **** void efuse_puid_read(uint32_t buf[])
 352:../Firmware/GD32VW55x_standard_peripheral/Source/gd32vw55x_efuse.c **** {
 967              		.loc 1 352 1
 968              		.cfi_startproc
 969 0000 7971     		addi	sp,sp,-48
 970              		.cfi_def_cfa_offset 48
 971 0002 22D6     		sw	s0,44(sp)
 972              		.cfi_offset 8, -4
 973 0004 0018     		addi	s0,sp,48
 974              		.cfi_def_cfa 8, 0
 975 0006 232EA4FC 		sw	a0,-36(s0)
 353:../Firmware/GD32VW55x_standard_peripheral/Source/gd32vw55x_efuse.c ****     uint8_t i = 0U;
 976              		.loc 1 353 13
 977 000a A30704FE 		sb	zero,-17(s0)
 354:../Firmware/GD32VW55x_standard_peripheral/Source/gd32vw55x_efuse.c ****     for(i = 0U; i < 4U; i++) {
 978              		.loc 1 354 11
 979 000e A30704FE 		sb	zero,-17(s0)
 980              		.loc 1 354 5
 981 0012 3DA0     		j	.L62
 982              	.L63:
 355:../Firmware/GD32VW55x_standard_peripheral/Source/gd32vw55x_efuse.c ****         buf[i] = REG32(EFUSE + 0x54U  + 0x04U * i);
 983              		.loc 1 355 18 discriminator 3
 984 0014 0347F4FE 		lbu	a4,-17(s0)
 985 0018 B7970010 		li	a5,268472320
 986 001c 938757A1 		addi	a5,a5,-1515
 987 0020 BA97     		add	a5,a4,a5
 988 0022 8A07     		slli	a5,a5,2
 989 0024 BE86     		mv	a3,a5
 990              		.loc 1 355 12 discriminator 3
 991 0026 8347F4FE 		lbu	a5,-17(s0)
 992 002a 8A07     		slli	a5,a5,2
 993 002c 0327C4FD 		lw	a4,-36(s0)
 994 0030 BA97     		add	a5,a4,a5
 995              		.loc 1 355 18 discriminator 3
 996 0032 9842     		lw	a4,0(a3)
 997              		.loc 1 355 16 discriminator 3
 998 0034 98C3     		sw	a4,0(a5)
 354:../Firmware/GD32VW55x_standard_peripheral/Source/gd32vw55x_efuse.c ****     for(i = 0U; i < 4U; i++) {
 999              		.loc 1 354 26 discriminator 3
 1000 0036 8347F4FE 		lbu	a5,-17(s0)
 1001 003a 8507     		addi	a5,a5,1
 1002 003c A307F4FE 		sb	a5,-17(s0)
 1003              	.L62:
 354:../Firmware/GD32VW55x_standard_peripheral/Source/gd32vw55x_efuse.c ****     for(i = 0U; i < 4U; i++) {
 1004              		.loc 1 354 5 discriminator 1
 1005 0040 0347F4FE 		lbu	a4,-17(s0)
 1006 0044 8D47     		li	a5,3
 1007 0046 E3F7E7FC 		bleu	a4,a5,.L63
 356:../Firmware/GD32VW55x_standard_peripheral/Source/gd32vw55x_efuse.c ****     }
 357:../Firmware/GD32VW55x_standard_peripheral/Source/gd32vw55x_efuse.c **** }
 1008              		.loc 1 357 1
 1009 004a 0100     		nop
 1010 004c 0100     		nop
 1011 004e 3254     		lw	s0,44(sp)
 1012              		.cfi_restore 8
 1013              		.cfi_def_cfa 2, 48
 1014 0050 4561     		addi	sp,sp,48
 1015              		.cfi_def_cfa_offset 0
 1016 0052 8280     		jr	ra
 1017              		.cfi_endproc
 1018              	.LFE360:
 1020              		.section	.text.efuse_huk_key_read,"ax",@progbits
 1021              		.align	1
 1022              		.globl	efuse_huk_key_read
 1024              	efuse_huk_key_read:
 1025              	.LFB361:
 358:../Firmware/GD32VW55x_standard_peripheral/Source/gd32vw55x_efuse.c **** 
 359:../Firmware/GD32VW55x_standard_peripheral/Source/gd32vw55x_efuse.c **** /*!
 360:../Firmware/GD32VW55x_standard_peripheral/Source/gd32vw55x_efuse.c ****     \brief      read huk key
 361:../Firmware/GD32VW55x_standard_peripheral/Source/gd32vw55x_efuse.c ****     \param[in]  none
 362:../Firmware/GD32VW55x_standard_peripheral/Source/gd32vw55x_efuse.c ****     \param[out] buf: huk key data after system reset
 363:../Firmware/GD32VW55x_standard_peripheral/Source/gd32vw55x_efuse.c ****     \retval     none
 364:../Firmware/GD32VW55x_standard_peripheral/Source/gd32vw55x_efuse.c **** */
 365:../Firmware/GD32VW55x_standard_peripheral/Source/gd32vw55x_efuse.c **** void efuse_huk_key_read(uint32_t buf[])
 366:../Firmware/GD32VW55x_standard_peripheral/Source/gd32vw55x_efuse.c **** {
 1026              		.loc 1 366 1
 1027              		.cfi_startproc
 1028 0000 7971     		addi	sp,sp,-48
 1029              		.cfi_def_cfa_offset 48
 1030 0002 22D6     		sw	s0,44(sp)
 1031              		.cfi_offset 8, -4
 1032 0004 0018     		addi	s0,sp,48
 1033              		.cfi_def_cfa 8, 0
 1034 0006 232EA4FC 		sw	a0,-36(s0)
 367:../Firmware/GD32VW55x_standard_peripheral/Source/gd32vw55x_efuse.c ****     uint8_t i = 0U;
 1035              		.loc 1 367 13
 1036 000a A30704FE 		sb	zero,-17(s0)
 368:../Firmware/GD32VW55x_standard_peripheral/Source/gd32vw55x_efuse.c ****     for(i = 0U; i < 4U; i++) {
 1037              		.loc 1 368 11
 1038 000e A30704FE 		sb	zero,-17(s0)
 1039              		.loc 1 368 5
 1040 0012 3DA0     		j	.L65
 1041              	.L66:
 369:../Firmware/GD32VW55x_standard_peripheral/Source/gd32vw55x_efuse.c ****         buf[i] = REG32(EFUSE + 0x64U + 0x04U * i);
 1042              		.loc 1 369 18 discriminator 3
 1043 0014 0347F4FE 		lbu	a4,-17(s0)
 1044 0018 B7970010 		li	a5,268472320
 1045 001c 938797A1 		addi	a5,a5,-1511
 1046 0020 BA97     		add	a5,a4,a5
 1047 0022 8A07     		slli	a5,a5,2
 1048 0024 BE86     		mv	a3,a5
 1049              		.loc 1 369 12 discriminator 3
 1050 0026 8347F4FE 		lbu	a5,-17(s0)
 1051 002a 8A07     		slli	a5,a5,2
 1052 002c 0327C4FD 		lw	a4,-36(s0)
 1053 0030 BA97     		add	a5,a4,a5
 1054              		.loc 1 369 18 discriminator 3
 1055 0032 9842     		lw	a4,0(a3)
 1056              		.loc 1 369 16 discriminator 3
 1057 0034 98C3     		sw	a4,0(a5)
 368:../Firmware/GD32VW55x_standard_peripheral/Source/gd32vw55x_efuse.c ****     for(i = 0U; i < 4U; i++) {
 1058              		.loc 1 368 26 discriminator 3
 1059 0036 8347F4FE 		lbu	a5,-17(s0)
 1060 003a 8507     		addi	a5,a5,1
 1061 003c A307F4FE 		sb	a5,-17(s0)
 1062              	.L65:
 368:../Firmware/GD32VW55x_standard_peripheral/Source/gd32vw55x_efuse.c ****     for(i = 0U; i < 4U; i++) {
 1063              		.loc 1 368 5 discriminator 1
 1064 0040 0347F4FE 		lbu	a4,-17(s0)
 1065 0044 8D47     		li	a5,3
 1066 0046 E3F7E7FC 		bleu	a4,a5,.L66
 370:../Firmware/GD32VW55x_standard_peripheral/Source/gd32vw55x_efuse.c ****     }
 371:../Firmware/GD32VW55x_standard_peripheral/Source/gd32vw55x_efuse.c **** }
 1067              		.loc 1 371 1
 1068 004a 0100     		nop
 1069 004c 0100     		nop
 1070 004e 3254     		lw	s0,44(sp)
 1071              		.cfi_restore 8
 1072              		.cfi_def_cfa 2, 48
 1073 0050 4561     		addi	sp,sp,48
 1074              		.cfi_def_cfa_offset 0
 1075 0052 8280     		jr	ra
 1076              		.cfi_endproc
 1077              	.LFE361:
 1079              		.section	.text.efuse_user_data_read,"ax",@progbits
 1080              		.align	1
 1081              		.globl	efuse_user_data_read
 1083              	efuse_user_data_read:
 1084              	.LFB362:
 372:../Firmware/GD32VW55x_standard_peripheral/Source/gd32vw55x_efuse.c **** 
 373:../Firmware/GD32VW55x_standard_peripheral/Source/gd32vw55x_efuse.c **** /*!
 374:../Firmware/GD32VW55x_standard_peripheral/Source/gd32vw55x_efuse.c ****     \brief      read user data
 375:../Firmware/GD32VW55x_standard_peripheral/Source/gd32vw55x_efuse.c ****     \param[in]  none
 376:../Firmware/GD32VW55x_standard_peripheral/Source/gd32vw55x_efuse.c ****     \param[out] buf: user data after system reset
 377:../Firmware/GD32VW55x_standard_peripheral/Source/gd32vw55x_efuse.c ****     \retval     none
 378:../Firmware/GD32VW55x_standard_peripheral/Source/gd32vw55x_efuse.c **** */
 379:../Firmware/GD32VW55x_standard_peripheral/Source/gd32vw55x_efuse.c **** void efuse_user_data_read(uint32_t buf[])
 380:../Firmware/GD32VW55x_standard_peripheral/Source/gd32vw55x_efuse.c **** {
 1085              		.loc 1 380 1
 1086              		.cfi_startproc
 1087 0000 7971     		addi	sp,sp,-48
 1088              		.cfi_def_cfa_offset 48
 1089 0002 22D6     		sw	s0,44(sp)
 1090              		.cfi_offset 8, -4
 1091 0004 0018     		addi	s0,sp,48
 1092              		.cfi_def_cfa 8, 0
 1093 0006 232EA4FC 		sw	a0,-36(s0)
 381:../Firmware/GD32VW55x_standard_peripheral/Source/gd32vw55x_efuse.c ****     uint8_t i = 0U;
 1094              		.loc 1 381 13
 1095 000a A30704FE 		sb	zero,-17(s0)
 382:../Firmware/GD32VW55x_standard_peripheral/Source/gd32vw55x_efuse.c ****     for(i = 0U; i < 8U; i++) {
 1096              		.loc 1 382 11
 1097 000e A30704FE 		sb	zero,-17(s0)
 1098              		.loc 1 382 5
 1099 0012 3DA0     		j	.L68
 1100              	.L69:
 383:../Firmware/GD32VW55x_standard_peripheral/Source/gd32vw55x_efuse.c ****         buf[i] = REG32(EFUSE + 0x74U + 0x04U * i);
 1101              		.loc 1 383 18 discriminator 3
 1102 0014 0347F4FE 		lbu	a4,-17(s0)
 1103 0018 B7970010 		li	a5,268472320
 1104 001c 9387D7A1 		addi	a5,a5,-1507
 1105 0020 BA97     		add	a5,a4,a5
 1106 0022 8A07     		slli	a5,a5,2
 1107 0024 BE86     		mv	a3,a5
 1108              		.loc 1 383 12 discriminator 3
 1109 0026 8347F4FE 		lbu	a5,-17(s0)
 1110 002a 8A07     		slli	a5,a5,2
 1111 002c 0327C4FD 		lw	a4,-36(s0)
 1112 0030 BA97     		add	a5,a4,a5
 1113              		.loc 1 383 18 discriminator 3
 1114 0032 9842     		lw	a4,0(a3)
 1115              		.loc 1 383 16 discriminator 3
 1116 0034 98C3     		sw	a4,0(a5)
 382:../Firmware/GD32VW55x_standard_peripheral/Source/gd32vw55x_efuse.c ****     for(i = 0U; i < 8U; i++) {
 1117              		.loc 1 382 26 discriminator 3
 1118 0036 8347F4FE 		lbu	a5,-17(s0)
 1119 003a 8507     		addi	a5,a5,1
 1120 003c A307F4FE 		sb	a5,-17(s0)
 1121              	.L68:
 382:../Firmware/GD32VW55x_standard_peripheral/Source/gd32vw55x_efuse.c ****     for(i = 0U; i < 8U; i++) {
 1122              		.loc 1 382 5 discriminator 1
 1123 0040 0347F4FE 		lbu	a4,-17(s0)
 1124 0044 9D47     		li	a5,7
 1125 0046 E3F7E7FC 		bleu	a4,a5,.L69
 384:../Firmware/GD32VW55x_standard_peripheral/Source/gd32vw55x_efuse.c ****     }
 385:../Firmware/GD32VW55x_standard_peripheral/Source/gd32vw55x_efuse.c **** }
 1126              		.loc 1 385 1
 1127 004a 0100     		nop
 1128 004c 0100     		nop
 1129 004e 3254     		lw	s0,44(sp)
 1130              		.cfi_restore 8
 1131              		.cfi_def_cfa 2, 48
 1132 0050 4561     		addi	sp,sp,48
 1133              		.cfi_def_cfa_offset 0
 1134 0052 8280     		jr	ra
 1135              		.cfi_endproc
 1136              	.LFE362:
 1138              		.section	.text.efuse_boot_address_get,"ax",@progbits
 1139              		.align	1
 1140              		.globl	efuse_boot_address_get
 1142              	efuse_boot_address_get:
 1143              	.LFB363:
 386:../Firmware/GD32VW55x_standard_peripheral/Source/gd32vw55x_efuse.c **** 
 387:../Firmware/GD32VW55x_standard_peripheral/Source/gd32vw55x_efuse.c **** /*!
 388:../Firmware/GD32VW55x_standard_peripheral/Source/gd32vw55x_efuse.c ****     \brief      get boot address information
 389:../Firmware/GD32VW55x_standard_peripheral/Source/gd32vw55x_efuse.c ****     \param[in]  none
 390:../Firmware/GD32VW55x_standard_peripheral/Source/gd32vw55x_efuse.c ****     \param[out] none
 391:../Firmware/GD32VW55x_standard_peripheral/Source/gd32vw55x_efuse.c ****     \retval     current boot address
 392:../Firmware/GD32VW55x_standard_peripheral/Source/gd32vw55x_efuse.c **** */
 393:../Firmware/GD32VW55x_standard_peripheral/Source/gd32vw55x_efuse.c **** uint32_t efuse_boot_address_get(void)
 394:../Firmware/GD32VW55x_standard_peripheral/Source/gd32vw55x_efuse.c **** {
 1144              		.loc 1 394 1
 1145              		.cfi_startproc
 1146 0000 4111     		addi	sp,sp,-16
 1147              		.cfi_def_cfa_offset 16
 1148 0002 22C6     		sw	s0,12(sp)
 1149              		.cfi_offset 8, -4
 1150 0004 0008     		addi	s0,sp,16
 1151              		.cfi_def_cfa 8, 0
 395:../Firmware/GD32VW55x_standard_peripheral/Source/gd32vw55x_efuse.c ****     return EFUSE_BOOTADDR;
 1152              		.loc 1 395 12
 1153 0006 B7370240 		li	a5,1073885184
 1154 000a 93874792 		addi	a5,a5,-1756
 1155 000e 9C43     		lw	a5,0(a5)
 396:../Firmware/GD32VW55x_standard_peripheral/Source/gd32vw55x_efuse.c **** }
 1156              		.loc 1 396 1
 1157 0010 3E85     		mv	a0,a5
 1158 0012 3244     		lw	s0,12(sp)
 1159              		.cfi_restore 8
 1160              		.cfi_def_cfa 2, 16
 1161 0014 4101     		addi	sp,sp,16
 1162              		.cfi_def_cfa_offset 0
 1163 0016 8280     		jr	ra
 1164              		.cfi_endproc
 1165              	.LFE363:
 1167              		.section	.text.efuse_lock_config,"ax",@progbits
 1168              		.align	1
 1169              		.globl	efuse_lock_config
 1171              	efuse_lock_config:
 1172              	.LFB364:
 397:../Firmware/GD32VW55x_standard_peripheral/Source/gd32vw55x_efuse.c **** 
 398:../Firmware/GD32VW55x_standard_peripheral/Source/gd32vw55x_efuse.c **** /*!
 399:../Firmware/GD32VW55x_standard_peripheral/Source/gd32vw55x_efuse.c ****     \brief      lock efuse filed
 400:../Firmware/GD32VW55x_standard_peripheral/Source/gd32vw55x_efuse.c ****     \param[in]  source: specifies filed to lock
 401:../Firmware/GD32VW55x_standard_peripheral/Source/gd32vw55x_efuse.c ****                 one parameter can be selected which is shown as below:
 402:../Firmware/GD32VW55x_standard_peripheral/Source/gd32vw55x_efuse.c ****       \arg        EFUSE_BOOT_LOCK: EFUSE boot bits lock bit
 403:../Firmware/GD32VW55x_standard_peripheral/Source/gd32vw55x_efuse.c ****       \arg        EFUSE_OPTION_BYTE_LOCK: option byte lock bit
 404:../Firmware/GD32VW55x_standard_peripheral/Source/gd32vw55x_efuse.c ****       \arg        EFUSE_ROTPKKEY_LOCK: EFUSE_ROTPK_KEY register lock bit
 405:../Firmware/GD32VW55x_standard_peripheral/Source/gd32vw55x_efuse.c ****       \arg        EFUSE_USER_DATA_LOCK: EFUSE_USER_DATA register lock bit
 406:../Firmware/GD32VW55x_standard_peripheral/Source/gd32vw55x_efuse.c ****       \arg        EFUSE_AESKEY_LOCK: lock EFUSE_AES_KEY register and enable AES decrypt function
 407:../Firmware/GD32VW55x_standard_peripheral/Source/gd32vw55x_efuse.c ****       \arg        EFUSE_FPCTL_USERCTL_LOCK: EFUSE_FPCTL and EFUSE_USER_CTL register lock bit
 408:../Firmware/GD32VW55x_standard_peripheral/Source/gd32vw55x_efuse.c ****     \param[out] none
 409:../Firmware/GD32VW55x_standard_peripheral/Source/gd32vw55x_efuse.c ****     \retval     none
 410:../Firmware/GD32VW55x_standard_peripheral/Source/gd32vw55x_efuse.c **** */
 411:../Firmware/GD32VW55x_standard_peripheral/Source/gd32vw55x_efuse.c **** void efuse_lock_config(efuse_reg_lock_enum source)
 412:../Firmware/GD32VW55x_standard_peripheral/Source/gd32vw55x_efuse.c **** {
 1173              		.loc 1 412 1
 1174              		.cfi_startproc
 1175 0000 7971     		addi	sp,sp,-48
 1176              		.cfi_def_cfa_offset 48
 1177 0002 06D6     		sw	ra,44(sp)
 1178 0004 22D4     		sw	s0,40(sp)
 1179              		.cfi_offset 1, -4
 1180              		.cfi_offset 8, -8
 1181 0006 0018     		addi	s0,sp,48
 1182              		.cfi_def_cfa 8, 0
 1183 0008 232EA4FC 		sw	a0,-36(s0)
 413:../Firmware/GD32VW55x_standard_peripheral/Source/gd32vw55x_efuse.c ****     uint32_t temp;
 414:../Firmware/GD32VW55x_standard_peripheral/Source/gd32vw55x_efuse.c ****     temp = source;
 1184              		.loc 1 414 10
 1185 000c 8327C4FD 		lw	a5,-36(s0)
 1186 0010 2326F4FE 		sw	a5,-20(s0)
 415:../Firmware/GD32VW55x_standard_peripheral/Source/gd32vw55x_efuse.c ****     if(source == EFUSE_BOOT_LOCK) {
 1187              		.loc 1 415 7
 1188 0014 0327C4FD 		lw	a4,-36(s0)
 1189 0018 8947     		li	a5,2
 1190 001a 631CF700 		bne	a4,a5,.L73
 416:../Firmware/GD32VW55x_standard_peripheral/Source/gd32vw55x_efuse.c ****         efuse_write(EFUSE_CTL0_ADDR, 1U, &temp);
 1191              		.loc 1 416 9
 1192 001e 9307C4FE 		addi	a5,s0,-20
 1193 0022 3E86     		mv	a2,a5
 1194 0024 8545     		li	a1,1
 1195 0026 0145     		li	a0,0
 1196 0028 97000000 		call	efuse_write
 1196      E7800000 
 417:../Firmware/GD32VW55x_standard_peripheral/Source/gd32vw55x_efuse.c ****     } else if(source == EFUSE_ROTPKKEY_LOCK) {
 418:../Firmware/GD32VW55x_standard_peripheral/Source/gd32vw55x_efuse.c ****         efuse_write(EFUSE_CTL1_ADDR, 1U, &temp);
 419:../Firmware/GD32VW55x_standard_peripheral/Source/gd32vw55x_efuse.c ****     } else if(source == EFUSE_USER_DATA_LOCK) {
 420:../Firmware/GD32VW55x_standard_peripheral/Source/gd32vw55x_efuse.c ****         efuse_write(USER_CTL_ADDR, 1U, &temp);
 421:../Firmware/GD32VW55x_standard_peripheral/Source/gd32vw55x_efuse.c ****     } else if(source == EFUSE_AESKEY_LOCK) {
 422:../Firmware/GD32VW55x_standard_peripheral/Source/gd32vw55x_efuse.c ****         efuse_write(USER_CTL_ADDR, 1U, &temp);
 423:../Firmware/GD32VW55x_standard_peripheral/Source/gd32vw55x_efuse.c ****     } else if(source == EFUSE_FPCTL_USERCTL_LOCK) {
 424:../Firmware/GD32VW55x_standard_peripheral/Source/gd32vw55x_efuse.c ****         efuse_write(USER_CTL_ADDR, 1U, &temp);
 425:../Firmware/GD32VW55x_standard_peripheral/Source/gd32vw55x_efuse.c ****     }
 426:../Firmware/GD32VW55x_standard_peripheral/Source/gd32vw55x_efuse.c **** }
 1197              		.loc 1 426 1
 1198 0030 B5A8     		j	.L78
 1199              	.L73:
 417:../Firmware/GD32VW55x_standard_peripheral/Source/gd32vw55x_efuse.c ****     } else if(source == EFUSE_ROTPKKEY_LOCK) {
 1200              		.loc 1 417 14
 1201 0032 0327C4FD 		lw	a4,-36(s0)
 1202 0036 9147     		li	a5,4
 1203 0038 631CF700 		bne	a4,a5,.L75
 418:../Firmware/GD32VW55x_standard_peripheral/Source/gd32vw55x_efuse.c ****     } else if(source == EFUSE_USER_DATA_LOCK) {
 1204              		.loc 1 418 9
 1205 003c 9307C4FE 		addi	a5,s0,-20
 1206 0040 3E86     		mv	a2,a5
 1207 0042 8545     		li	a1,1
 1208 0044 0545     		li	a0,1
 1209 0046 97000000 		call	efuse_write
 1209      E7800000 
 1210              		.loc 1 426 1
 1211 004e B9A8     		j	.L78
 1212              	.L75:
 419:../Firmware/GD32VW55x_standard_peripheral/Source/gd32vw55x_efuse.c ****         efuse_write(USER_CTL_ADDR, 1U, &temp);
 1213              		.loc 1 419 14
 1214 0050 0327C4FD 		lw	a4,-36(s0)
 1215 0054 93070004 		li	a5,64
 1216 0058 631CF700 		bne	a4,a5,.L76
 420:../Firmware/GD32VW55x_standard_peripheral/Source/gd32vw55x_efuse.c ****     } else if(source == EFUSE_AESKEY_LOCK) {
 1217              		.loc 1 420 9
 1218 005c 9307C4FE 		addi	a5,s0,-20
 1219 0060 3E86     		mv	a2,a5
 1220 0062 8545     		li	a1,1
 1221 0064 0D45     		li	a0,3
 1222 0066 97000000 		call	efuse_write
 1222      E7800000 
 1223              		.loc 1 426 1
 1224 006e 3DA8     		j	.L78
 1225              	.L76:
 421:../Firmware/GD32VW55x_standard_peripheral/Source/gd32vw55x_efuse.c ****         efuse_write(USER_CTL_ADDR, 1U, &temp);
 1226              		.loc 1 421 14
 1227 0070 0327C4FD 		lw	a4,-36(s0)
 1228 0074 93070002 		li	a5,32
 1229 0078 631CF700 		bne	a4,a5,.L77
 422:../Firmware/GD32VW55x_standard_peripheral/Source/gd32vw55x_efuse.c ****     } else if(source == EFUSE_FPCTL_USERCTL_LOCK) {
 1230              		.loc 1 422 9
 1231 007c 9307C4FE 		addi	a5,s0,-20
 1232 0080 3E86     		mv	a2,a5
 1233 0082 8545     		li	a1,1
 1234 0084 0D45     		li	a0,3
 1235 0086 97000000 		call	efuse_write
 1235      E7800000 
 1236              		.loc 1 426 1
 1237 008e 39A8     		j	.L78
 1238              	.L77:
 423:../Firmware/GD32VW55x_standard_peripheral/Source/gd32vw55x_efuse.c ****         efuse_write(USER_CTL_ADDR, 1U, &temp);
 1239              		.loc 1 423 14
 1240 0090 0327C4FD 		lw	a4,-36(s0)
 1241 0094 A147     		li	a5,8
 1242 0096 631BF700 		bne	a4,a5,.L78
 424:../Firmware/GD32VW55x_standard_peripheral/Source/gd32vw55x_efuse.c ****     }
 1243              		.loc 1 424 9
 1244 009a 9307C4FE 		addi	a5,s0,-20
 1245 009e 3E86     		mv	a2,a5
 1246 00a0 8545     		li	a1,1
 1247 00a2 0D45     		li	a0,3
 1248 00a4 97000000 		call	efuse_write
 1248      E7800000 
 1249              	.L78:
 1250              		.loc 1 426 1
 1251 00ac 0100     		nop
 1252 00ae B250     		lw	ra,44(sp)
 1253              		.cfi_restore 1
 1254 00b0 2254     		lw	s0,40(sp)
 1255              		.cfi_restore 8
 1256              		.cfi_def_cfa 2, 48
 1257 00b2 4561     		addi	sp,sp,48
 1258              		.cfi_def_cfa_offset 0
 1259 00b4 8280     		jr	ra
 1260              		.cfi_endproc
 1261              	.LFE364:
 1263              		.section	.text.efuse_flag_get,"ax",@progbits
 1264              		.align	1
 1265              		.globl	efuse_flag_get
 1267              	efuse_flag_get:
 1268              	.LFB365:
 427:../Firmware/GD32VW55x_standard_peripheral/Source/gd32vw55x_efuse.c **** 
 428:../Firmware/GD32VW55x_standard_peripheral/Source/gd32vw55x_efuse.c **** /*!
 429:../Firmware/GD32VW55x_standard_peripheral/Source/gd32vw55x_efuse.c ****     \brief      check EFUSE flag is set or not
 430:../Firmware/GD32VW55x_standard_peripheral/Source/gd32vw55x_efuse.c ****     \param[in]  flag: specifies to get a flag
 431:../Firmware/GD32VW55x_standard_peripheral/Source/gd32vw55x_efuse.c ****                 only one parameter can be selected which is shown as below:
 432:../Firmware/GD32VW55x_standard_peripheral/Source/gd32vw55x_efuse.c ****       \arg        EFUSE_PGIF: programming operation completion flag
 433:../Firmware/GD32VW55x_standard_peripheral/Source/gd32vw55x_efuse.c ****       \arg        EFUSE_RDIF: read operation completion flag
 434:../Firmware/GD32VW55x_standard_peripheral/Source/gd32vw55x_efuse.c ****       \arg        EFUSE_OVBERIF: overstep boundary error flag
 435:../Firmware/GD32VW55x_standard_peripheral/Source/gd32vw55x_efuse.c ****     \param[out] none
 436:../Firmware/GD32VW55x_standard_peripheral/Source/gd32vw55x_efuse.c ****     \retval     FlagStatus: SET or RESET
 437:../Firmware/GD32VW55x_standard_peripheral/Source/gd32vw55x_efuse.c **** */
 438:../Firmware/GD32VW55x_standard_peripheral/Source/gd32vw55x_efuse.c **** FlagStatus efuse_flag_get(efuse_flag_enum flag)
 439:../Firmware/GD32VW55x_standard_peripheral/Source/gd32vw55x_efuse.c **** {
 1269              		.loc 1 439 1
 1270              		.cfi_startproc
 1271 0000 0111     		addi	sp,sp,-32
 1272              		.cfi_def_cfa_offset 32
 1273 0002 22CE     		sw	s0,28(sp)
 1274              		.cfi_offset 8, -4
 1275 0004 0010     		addi	s0,sp,32
 1276              		.cfi_def_cfa 8, 0
 1277 0006 2326A4FE 		sw	a0,-20(s0)
 440:../Firmware/GD32VW55x_standard_peripheral/Source/gd32vw55x_efuse.c ****     if(EFUSE_CS & (uint32_t)flag) {
 1278              		.loc 1 440 8
 1279 000a B7370240 		li	a5,1073885184
 1280 000e 93870780 		addi	a5,a5,-2048
 1281 0012 9843     		lw	a4,0(a5)
 1282              		.loc 1 440 17
 1283 0014 8327C4FE 		lw	a5,-20(s0)
 1284 0018 F98F     		and	a5,a4,a5
 1285              		.loc 1 440 7
 1286 001a 99C3     		beq	a5,zero,.L80
 441:../Firmware/GD32VW55x_standard_peripheral/Source/gd32vw55x_efuse.c ****         return SET;
 1287              		.loc 1 441 16
 1288 001c 8547     		li	a5,1
 1289 001e 11A0     		j	.L81
 1290              	.L80:
 442:../Firmware/GD32VW55x_standard_peripheral/Source/gd32vw55x_efuse.c ****     } else {
 443:../Firmware/GD32VW55x_standard_peripheral/Source/gd32vw55x_efuse.c ****         return RESET;
 1291              		.loc 1 443 16
 1292 0020 8147     		li	a5,0
 1293              	.L81:
 444:../Firmware/GD32VW55x_standard_peripheral/Source/gd32vw55x_efuse.c ****     }
 445:../Firmware/GD32VW55x_standard_peripheral/Source/gd32vw55x_efuse.c **** }
 1294              		.loc 1 445 1
 1295 0022 3E85     		mv	a0,a5
 1296 0024 7244     		lw	s0,28(sp)
 1297              		.cfi_restore 8
 1298              		.cfi_def_cfa 2, 32
 1299 0026 0561     		addi	sp,sp,32
 1300              		.cfi_def_cfa_offset 0
 1301 0028 8280     		jr	ra
 1302              		.cfi_endproc
 1303              	.LFE365:
 1305              		.section	.text.efuse_flag_clear,"ax",@progbits
 1306              		.align	1
 1307              		.globl	efuse_flag_clear
 1309              	efuse_flag_clear:
 1310              	.LFB366:
 446:../Firmware/GD32VW55x_standard_peripheral/Source/gd32vw55x_efuse.c **** 
 447:../Firmware/GD32VW55x_standard_peripheral/Source/gd32vw55x_efuse.c **** /*!
 448:../Firmware/GD32VW55x_standard_peripheral/Source/gd32vw55x_efuse.c ****     \brief      clear EFUSE pending flag
 449:../Firmware/GD32VW55x_standard_peripheral/Source/gd32vw55x_efuse.c ****     \param[in]  flag: specifies to clear a flag
 450:../Firmware/GD32VW55x_standard_peripheral/Source/gd32vw55x_efuse.c ****                 only one parameter can be selected which is shown as below:
 451:../Firmware/GD32VW55x_standard_peripheral/Source/gd32vw55x_efuse.c ****       \arg        EFUSE_PGIC: clear programming operation completion flag
 452:../Firmware/GD32VW55x_standard_peripheral/Source/gd32vw55x_efuse.c ****       \arg        EFUSE_RDIC: clear read operation completion flag
 453:../Firmware/GD32VW55x_standard_peripheral/Source/gd32vw55x_efuse.c ****       \arg        EFUSE_OVBERIC: clear overstep boundary error flag
 454:../Firmware/GD32VW55x_standard_peripheral/Source/gd32vw55x_efuse.c ****     \param[out] none
 455:../Firmware/GD32VW55x_standard_peripheral/Source/gd32vw55x_efuse.c ****     \retval     none
 456:../Firmware/GD32VW55x_standard_peripheral/Source/gd32vw55x_efuse.c **** */
 457:../Firmware/GD32VW55x_standard_peripheral/Source/gd32vw55x_efuse.c **** void efuse_flag_clear(efuse_clear_flag_enum flag)
 458:../Firmware/GD32VW55x_standard_peripheral/Source/gd32vw55x_efuse.c **** {
 1311              		.loc 1 458 1
 1312              		.cfi_startproc
 1313 0000 0111     		addi	sp,sp,-32
 1314              		.cfi_def_cfa_offset 32
 1315 0002 22CE     		sw	s0,28(sp)
 1316              		.cfi_offset 8, -4
 1317 0004 0010     		addi	s0,sp,32
 1318              		.cfi_def_cfa 8, 0
 1319 0006 2326A4FE 		sw	a0,-20(s0)
 459:../Firmware/GD32VW55x_standard_peripheral/Source/gd32vw55x_efuse.c ****     EFUSE_CS |= (uint32_t)flag;
 1320              		.loc 1 459 14
 1321 000a B7370240 		li	a5,1073885184
 1322 000e 93870780 		addi	a5,a5,-2048
 1323 0012 9443     		lw	a3,0(a5)
 1324 0014 B7370240 		li	a5,1073885184
 1325 0018 93870780 		addi	a5,a5,-2048
 1326 001c 0327C4FE 		lw	a4,-20(s0)
 1327 0020 558F     		or	a4,a3,a4
 1328 0022 98C3     		sw	a4,0(a5)
 460:../Firmware/GD32VW55x_standard_peripheral/Source/gd32vw55x_efuse.c **** }
 1329              		.loc 1 460 1
 1330 0024 0100     		nop
 1331 0026 7244     		lw	s0,28(sp)
 1332              		.cfi_restore 8
 1333              		.cfi_def_cfa 2, 32
 1334 0028 0561     		addi	sp,sp,32
 1335              		.cfi_def_cfa_offset 0
 1336 002a 8280     		jr	ra
 1337              		.cfi_endproc
 1338              	.LFE366:
 1340              		.section	.text.efuse_interrupt_enable,"ax",@progbits
 1341              		.align	1
 1342              		.globl	efuse_interrupt_enable
 1344              	efuse_interrupt_enable:
 1345              	.LFB367:
 461:../Firmware/GD32VW55x_standard_peripheral/Source/gd32vw55x_efuse.c **** 
 462:../Firmware/GD32VW55x_standard_peripheral/Source/gd32vw55x_efuse.c **** /*!
 463:../Firmware/GD32VW55x_standard_peripheral/Source/gd32vw55x_efuse.c ****     \brief      enable EFUSE interrupt
 464:../Firmware/GD32VW55x_standard_peripheral/Source/gd32vw55x_efuse.c ****     \param[in]  source: specifies an interrupt to enbale
 465:../Firmware/GD32VW55x_standard_peripheral/Source/gd32vw55x_efuse.c ****                 one or more parameters can be selected which are shown as below:
 466:../Firmware/GD32VW55x_standard_peripheral/Source/gd32vw55x_efuse.c ****       \arg        EFUSE_INTEN_PG: programming operation completion interrupt
 467:../Firmware/GD32VW55x_standard_peripheral/Source/gd32vw55x_efuse.c ****       \arg        EFUSE_INTEN_RD: read operation completion interrupt
 468:../Firmware/GD32VW55x_standard_peripheral/Source/gd32vw55x_efuse.c ****       \arg        EFUSE_INTEN_OVBER: overstep boundary error interrupt
 469:../Firmware/GD32VW55x_standard_peripheral/Source/gd32vw55x_efuse.c ****     \param[out] none
 470:../Firmware/GD32VW55x_standard_peripheral/Source/gd32vw55x_efuse.c ****     \retval     none
 471:../Firmware/GD32VW55x_standard_peripheral/Source/gd32vw55x_efuse.c **** */
 472:../Firmware/GD32VW55x_standard_peripheral/Source/gd32vw55x_efuse.c **** void efuse_interrupt_enable(efuse_int_enum source)
 473:../Firmware/GD32VW55x_standard_peripheral/Source/gd32vw55x_efuse.c **** {
 1346              		.loc 1 473 1
 1347              		.cfi_startproc
 1348 0000 0111     		addi	sp,sp,-32
 1349              		.cfi_def_cfa_offset 32
 1350 0002 22CE     		sw	s0,28(sp)
 1351              		.cfi_offset 8, -4
 1352 0004 0010     		addi	s0,sp,32
 1353              		.cfi_def_cfa 8, 0
 1354 0006 2326A4FE 		sw	a0,-20(s0)
 474:../Firmware/GD32VW55x_standard_peripheral/Source/gd32vw55x_efuse.c ****     EFUSE_CS |= (uint32_t)source;
 1355              		.loc 1 474 14
 1356 000a B7370240 		li	a5,1073885184
 1357 000e 93870780 		addi	a5,a5,-2048
 1358 0012 9443     		lw	a3,0(a5)
 1359 0014 B7370240 		li	a5,1073885184
 1360 0018 93870780 		addi	a5,a5,-2048
 1361 001c 0327C4FE 		lw	a4,-20(s0)
 1362 0020 558F     		or	a4,a3,a4
 1363 0022 98C3     		sw	a4,0(a5)
 475:../Firmware/GD32VW55x_standard_peripheral/Source/gd32vw55x_efuse.c **** }
 1364              		.loc 1 475 1
 1365 0024 0100     		nop
 1366 0026 7244     		lw	s0,28(sp)
 1367              		.cfi_restore 8
 1368              		.cfi_def_cfa 2, 32
 1369 0028 0561     		addi	sp,sp,32
 1370              		.cfi_def_cfa_offset 0
 1371 002a 8280     		jr	ra
 1372              		.cfi_endproc
 1373              	.LFE367:
 1375              		.section	.text.efuse_interrupt_disable,"ax",@progbits
 1376              		.align	1
 1377              		.globl	efuse_interrupt_disable
 1379              	efuse_interrupt_disable:
 1380              	.LFB368:
 476:../Firmware/GD32VW55x_standard_peripheral/Source/gd32vw55x_efuse.c **** 
 477:../Firmware/GD32VW55x_standard_peripheral/Source/gd32vw55x_efuse.c **** /*!
 478:../Firmware/GD32VW55x_standard_peripheral/Source/gd32vw55x_efuse.c ****     \brief      disable EFUSE interrupt
 479:../Firmware/GD32VW55x_standard_peripheral/Source/gd32vw55x_efuse.c ****     \param[in]  source: specifies an interrupt to disbale
 480:../Firmware/GD32VW55x_standard_peripheral/Source/gd32vw55x_efuse.c ****                 one or more parameters can be selected which are shown as below:
 481:../Firmware/GD32VW55x_standard_peripheral/Source/gd32vw55x_efuse.c ****       \arg        EFUSE_INTEN_PG: programming operation completion interrupt
 482:../Firmware/GD32VW55x_standard_peripheral/Source/gd32vw55x_efuse.c ****       \arg        EFUSE_INTEN_RD: read operation completion interrupt
 483:../Firmware/GD32VW55x_standard_peripheral/Source/gd32vw55x_efuse.c ****       \arg        EFUSE_INTEN_OVBER: overstep boundary error interrupt
 484:../Firmware/GD32VW55x_standard_peripheral/Source/gd32vw55x_efuse.c ****     \param[out] none
 485:../Firmware/GD32VW55x_standard_peripheral/Source/gd32vw55x_efuse.c ****     \retval     none
 486:../Firmware/GD32VW55x_standard_peripheral/Source/gd32vw55x_efuse.c **** */
 487:../Firmware/GD32VW55x_standard_peripheral/Source/gd32vw55x_efuse.c **** void efuse_interrupt_disable(efuse_int_enum source)
 488:../Firmware/GD32VW55x_standard_peripheral/Source/gd32vw55x_efuse.c **** {
 1381              		.loc 1 488 1
 1382              		.cfi_startproc
 1383 0000 0111     		addi	sp,sp,-32
 1384              		.cfi_def_cfa_offset 32
 1385 0002 22CE     		sw	s0,28(sp)
 1386              		.cfi_offset 8, -4
 1387 0004 0010     		addi	s0,sp,32
 1388              		.cfi_def_cfa 8, 0
 1389 0006 2326A4FE 		sw	a0,-20(s0)
 489:../Firmware/GD32VW55x_standard_peripheral/Source/gd32vw55x_efuse.c ****     EFUSE_CS &= (~(uint32_t)source);
 1390              		.loc 1 489 14
 1391 000a B7370240 		li	a5,1073885184
 1392 000e 93870780 		addi	a5,a5,-2048
 1393 0012 9443     		lw	a3,0(a5)
 1394              		.loc 1 489 18
 1395 0014 8327C4FE 		lw	a5,-20(s0)
 1396 0018 13C7F7FF 		not	a4,a5
 1397              		.loc 1 489 14
 1398 001c B7370240 		li	a5,1073885184
 1399 0020 93870780 		addi	a5,a5,-2048
 1400 0024 758F     		and	a4,a3,a4
 1401 0026 98C3     		sw	a4,0(a5)
 490:../Firmware/GD32VW55x_standard_peripheral/Source/gd32vw55x_efuse.c **** }
 1402              		.loc 1 490 1
 1403 0028 0100     		nop
 1404 002a 7244     		lw	s0,28(sp)
 1405              		.cfi_restore 8
 1406              		.cfi_def_cfa 2, 32
 1407 002c 0561     		addi	sp,sp,32
 1408              		.cfi_def_cfa_offset 0
 1409 002e 8280     		jr	ra
 1410              		.cfi_endproc
 1411              	.LFE368:
 1413              		.section	.text.efuse_interrupt_flag_get,"ax",@progbits
 1414              		.align	1
 1415              		.globl	efuse_interrupt_flag_get
 1417              	efuse_interrupt_flag_get:
 1418              	.LFB369:
 491:../Firmware/GD32VW55x_standard_peripheral/Source/gd32vw55x_efuse.c **** 
 492:../Firmware/GD32VW55x_standard_peripheral/Source/gd32vw55x_efuse.c **** /*!
 493:../Firmware/GD32VW55x_standard_peripheral/Source/gd32vw55x_efuse.c ****     \brief      get EFUSE interrupt flag is set or not
 494:../Firmware/GD32VW55x_standard_peripheral/Source/gd32vw55x_efuse.c ****     \param[in]  int_flag: specifies to get a flag
 495:../Firmware/GD32VW55x_standard_peripheral/Source/gd32vw55x_efuse.c ****                 only one parameter can be selected which is shown as below:
 496:../Firmware/GD32VW55x_standard_peripheral/Source/gd32vw55x_efuse.c ****       \arg        EFUSE_INT_PGIF: programming operation completion interrupt flag
 497:../Firmware/GD32VW55x_standard_peripheral/Source/gd32vw55x_efuse.c ****       \arg        EFUSE_INT_RDIF: read operation completion interrupt flag
 498:../Firmware/GD32VW55x_standard_peripheral/Source/gd32vw55x_efuse.c ****       \arg        EFUSE_INT_OVBERIF: overstep boundary error interrupt flag
 499:../Firmware/GD32VW55x_standard_peripheral/Source/gd32vw55x_efuse.c ****     \param[out] none
 500:../Firmware/GD32VW55x_standard_peripheral/Source/gd32vw55x_efuse.c ****     \retval     FlagStatus: SET or RESET
 501:../Firmware/GD32VW55x_standard_peripheral/Source/gd32vw55x_efuse.c **** */
 502:../Firmware/GD32VW55x_standard_peripheral/Source/gd32vw55x_efuse.c **** FlagStatus efuse_interrupt_flag_get(efuse_int_flag_enum int_flag)
 503:../Firmware/GD32VW55x_standard_peripheral/Source/gd32vw55x_efuse.c **** {
 1419              		.loc 1 503 1
 1420              		.cfi_startproc
 1421 0000 0111     		addi	sp,sp,-32
 1422              		.cfi_def_cfa_offset 32
 1423 0002 22CE     		sw	s0,28(sp)
 1424              		.cfi_offset 8, -4
 1425 0004 0010     		addi	s0,sp,32
 1426              		.cfi_def_cfa 8, 0
 1427 0006 2326A4FE 		sw	a0,-20(s0)
 504:../Firmware/GD32VW55x_standard_peripheral/Source/gd32vw55x_efuse.c ****     if(EFUSE_CS & (uint32_t)int_flag) {
 1428              		.loc 1 504 8
 1429 000a B7370240 		li	a5,1073885184
 1430 000e 93870780 		addi	a5,a5,-2048
 1431 0012 9843     		lw	a4,0(a5)
 1432              		.loc 1 504 17
 1433 0014 8327C4FE 		lw	a5,-20(s0)
 1434 0018 F98F     		and	a5,a4,a5
 1435              		.loc 1 504 7
 1436 001a 99C3     		beq	a5,zero,.L86
 505:../Firmware/GD32VW55x_standard_peripheral/Source/gd32vw55x_efuse.c ****         return SET;
 1437              		.loc 1 505 16
 1438 001c 8547     		li	a5,1
 1439 001e 11A0     		j	.L87
 1440              	.L86:
 506:../Firmware/GD32VW55x_standard_peripheral/Source/gd32vw55x_efuse.c ****     } else {
 507:../Firmware/GD32VW55x_standard_peripheral/Source/gd32vw55x_efuse.c ****         return RESET;
 1441              		.loc 1 507 16
 1442 0020 8147     		li	a5,0
 1443              	.L87:
 508:../Firmware/GD32VW55x_standard_peripheral/Source/gd32vw55x_efuse.c ****     }
 509:../Firmware/GD32VW55x_standard_peripheral/Source/gd32vw55x_efuse.c **** }
 1444              		.loc 1 509 1
 1445 0022 3E85     		mv	a0,a5
 1446 0024 7244     		lw	s0,28(sp)
 1447              		.cfi_restore 8
 1448              		.cfi_def_cfa 2, 32
 1449 0026 0561     		addi	sp,sp,32
 1450              		.cfi_def_cfa_offset 0
 1451 0028 8280     		jr	ra
 1452              		.cfi_endproc
 1453              	.LFE369:
 1455              		.section	.text.efuse_interrupt_flag_clear,"ax",@progbits
 1456              		.align	1
 1457              		.globl	efuse_interrupt_flag_clear
 1459              	efuse_interrupt_flag_clear:
 1460              	.LFB370:
 510:../Firmware/GD32VW55x_standard_peripheral/Source/gd32vw55x_efuse.c **** 
 511:../Firmware/GD32VW55x_standard_peripheral/Source/gd32vw55x_efuse.c **** /*!
 512:../Firmware/GD32VW55x_standard_peripheral/Source/gd32vw55x_efuse.c ****     \brief      clear EFUSE pending interrupt flag
 513:../Firmware/GD32VW55x_standard_peripheral/Source/gd32vw55x_efuse.c ****     \param[in]  int_flag: specifies to clear a flag
 514:../Firmware/GD32VW55x_standard_peripheral/Source/gd32vw55x_efuse.c ****                 only one parameter can be selected which is shown as below:
 515:../Firmware/GD32VW55x_standard_peripheral/Source/gd32vw55x_efuse.c ****       \arg        EFUSE_INT_PGIC: clear programming operation completion interrupt flag
 516:../Firmware/GD32VW55x_standard_peripheral/Source/gd32vw55x_efuse.c ****       \arg        EFUSE_INT_RDIC: clear operation completion interrupt flag
 517:../Firmware/GD32VW55x_standard_peripheral/Source/gd32vw55x_efuse.c ****       \arg        EFUSE_INT_OVBERIC: clear overstep boundary error interrupt flag
 518:../Firmware/GD32VW55x_standard_peripheral/Source/gd32vw55x_efuse.c ****     \param[out] none
 519:../Firmware/GD32VW55x_standard_peripheral/Source/gd32vw55x_efuse.c ****     \retval     none
 520:../Firmware/GD32VW55x_standard_peripheral/Source/gd32vw55x_efuse.c **** */
 521:../Firmware/GD32VW55x_standard_peripheral/Source/gd32vw55x_efuse.c **** void efuse_interrupt_flag_clear(efuse_clear_int_flag_enum int_flag)
 522:../Firmware/GD32VW55x_standard_peripheral/Source/gd32vw55x_efuse.c **** {
 1461              		.loc 1 522 1
 1462              		.cfi_startproc
 1463 0000 0111     		addi	sp,sp,-32
 1464              		.cfi_def_cfa_offset 32
 1465 0002 22CE     		sw	s0,28(sp)
 1466              		.cfi_offset 8, -4
 1467 0004 0010     		addi	s0,sp,32
 1468              		.cfi_def_cfa 8, 0
 1469 0006 2326A4FE 		sw	a0,-20(s0)
 523:../Firmware/GD32VW55x_standard_peripheral/Source/gd32vw55x_efuse.c ****     EFUSE_CS |= ((uint32_t)int_flag);
 1470              		.loc 1 523 14
 1471 000a B7370240 		li	a5,1073885184
 1472 000e 93870780 		addi	a5,a5,-2048
 1473 0012 9443     		lw	a3,0(a5)
 1474 0014 B7370240 		li	a5,1073885184
 1475 0018 93870780 		addi	a5,a5,-2048
 1476 001c 0327C4FE 		lw	a4,-20(s0)
 1477 0020 558F     		or	a4,a3,a4
 1478 0022 98C3     		sw	a4,0(a5)
 524:../Firmware/GD32VW55x_standard_peripheral/Source/gd32vw55x_efuse.c **** }
 1479              		.loc 1 524 1
 1480 0024 0100     		nop
 1481 0026 7244     		lw	s0,28(sp)
 1482              		.cfi_restore 8
 1483              		.cfi_def_cfa 2, 32
 1484 0028 0561     		addi	sp,sp,32
 1485              		.cfi_def_cfa_offset 0
 1486 002a 8280     		jr	ra
 1487              		.cfi_endproc
 1488              	.LFE370:
 1490              		.text
 1491              	.Letext0:
 1492              		.file 2 "e:\\gd32\\gd32embeddedbuilder_v1.5.2.30854\\tools\\nuclei_riscv_newlibc_prebuilt_win32_20
 1493              		.file 3 "e:\\gd32\\gd32embeddedbuilder_v1.5.2.30854\\tools\\nuclei_riscv_newlibc_prebuilt_win32_20
 1494              		.file 4 "../Firmware/GD32VW55x_standard_peripheral/gd32vw55x.h"
 1495              		.file 5 "../Firmware/GD32VW55x_standard_peripheral/Include/gd32vw55x_efuse.h"