   1              		.file	"gd32vw55x_cau_tdes.c"
   2              		.option nopic
   3              		.attribute arch, "rv32i2p0_m2p0_a2p0_c2p0"
   4              		.attribute unaligned_access, 0
   5              		.attribute stack_align, 16
   6              		.text
   7              	.Ltext0:
   8              		.cfi_sections	.debug_frame
   9              		.section	.text.cau_tdes_ecb,"ax",@progbits
  10              		.align	1
  11              		.globl	cau_tdes_ecb
  13              	cau_tdes_ecb:
  14              	.LFB347:
  15              		.file 1 "../Firmware/GD32VW55x_standard_peripheral/Source/gd32vw55x_cau_tdes.c"
   1:../Firmware/GD32VW55x_standard_peripheral/Source/gd32vw55x_cau_tdes.c **** /*!
   2:../Firmware/GD32VW55x_standard_peripheral/Source/gd32vw55x_cau_tdes.c ****     \file    gd32vw55x_cau_tdes.c
   3:../Firmware/GD32VW55x_standard_peripheral/Source/gd32vw55x_cau_tdes.c ****     \brief   CAU TDES driver
   4:../Firmware/GD32VW55x_standard_peripheral/Source/gd32vw55x_cau_tdes.c **** 
   5:../Firmware/GD32VW55x_standard_peripheral/Source/gd32vw55x_cau_tdes.c ****     \version 2025-01-16, V1.4.0, firmware for GD32VW55x
   6:../Firmware/GD32VW55x_standard_peripheral/Source/gd32vw55x_cau_tdes.c **** */
   7:../Firmware/GD32VW55x_standard_peripheral/Source/gd32vw55x_cau_tdes.c **** 
   8:../Firmware/GD32VW55x_standard_peripheral/Source/gd32vw55x_cau_tdes.c **** /*
   9:../Firmware/GD32VW55x_standard_peripheral/Source/gd32vw55x_cau_tdes.c ****     Copyright (c) 2025, GigaDevice Semiconductor Inc.
  10:../Firmware/GD32VW55x_standard_peripheral/Source/gd32vw55x_cau_tdes.c **** 
  11:../Firmware/GD32VW55x_standard_peripheral/Source/gd32vw55x_cau_tdes.c ****     Redistribution and use in source and binary forms, with or without modification,
  12:../Firmware/GD32VW55x_standard_peripheral/Source/gd32vw55x_cau_tdes.c **** are permitted provided that the following conditions are met:
  13:../Firmware/GD32VW55x_standard_peripheral/Source/gd32vw55x_cau_tdes.c **** 
  14:../Firmware/GD32VW55x_standard_peripheral/Source/gd32vw55x_cau_tdes.c ****     1. Redistributions of source code must retain the above copyright notice, this
  15:../Firmware/GD32VW55x_standard_peripheral/Source/gd32vw55x_cau_tdes.c ****        list of conditions and the following disclaimer.
  16:../Firmware/GD32VW55x_standard_peripheral/Source/gd32vw55x_cau_tdes.c ****     2. Redistributions in binary form must reproduce the above copyright notice,
  17:../Firmware/GD32VW55x_standard_peripheral/Source/gd32vw55x_cau_tdes.c ****        this list of conditions and the following disclaimer in the documentation
  18:../Firmware/GD32VW55x_standard_peripheral/Source/gd32vw55x_cau_tdes.c ****        and/or other materials provided with the distribution.
  19:../Firmware/GD32VW55x_standard_peripheral/Source/gd32vw55x_cau_tdes.c ****     3. Neither the name of the copyright holder nor the names of its contributors
  20:../Firmware/GD32VW55x_standard_peripheral/Source/gd32vw55x_cau_tdes.c ****        may be used to endorse or promote products derived from this software without
  21:../Firmware/GD32VW55x_standard_peripheral/Source/gd32vw55x_cau_tdes.c ****        specific prior written permission.
  22:../Firmware/GD32VW55x_standard_peripheral/Source/gd32vw55x_cau_tdes.c **** 
  23:../Firmware/GD32VW55x_standard_peripheral/Source/gd32vw55x_cau_tdes.c ****     THIS SOFTWARE IS PROVIDED BY THE COPYRIGHT HOLDERS AND CONTRIBUTORS "AS IS"
  24:../Firmware/GD32VW55x_standard_peripheral/Source/gd32vw55x_cau_tdes.c **** AND ANY EXPRESS OR IMPLIED WARRANTIES, INCLUDING, BUT NOT LIMITED TO, THE IMPLIED
  25:../Firmware/GD32VW55x_standard_peripheral/Source/gd32vw55x_cau_tdes.c **** WARRANTIES OF MERCHANTABILITY AND FITNESS FOR A PARTICULAR PURPOSE ARE DISCLAIMED.
  26:../Firmware/GD32VW55x_standard_peripheral/Source/gd32vw55x_cau_tdes.c **** IN NO EVENT SHALL THE COPYRIGHT HOLDER OR CONTRIBUTORS BE LIABLE FOR ANY DIRECT,
  27:../Firmware/GD32VW55x_standard_peripheral/Source/gd32vw55x_cau_tdes.c **** INDIRECT, INCIDENTAL, SPECIAL, EXEMPLARY, OR CONSEQUENTIAL DAMAGES (INCLUDING, BUT
  28:../Firmware/GD32VW55x_standard_peripheral/Source/gd32vw55x_cau_tdes.c **** NOT LIMITED TO, PROCUREMENT OF SUBSTITUTE GOODS OR SERVICES; LOSS OF USE, DATA, OR
  29:../Firmware/GD32VW55x_standard_peripheral/Source/gd32vw55x_cau_tdes.c **** PROFITS; OR BUSINESS INTERRUPTION) HOWEVER CAUSED AND ON ANY THEORY OF LIABILITY,
  30:../Firmware/GD32VW55x_standard_peripheral/Source/gd32vw55x_cau_tdes.c **** WHETHER IN CONTRACT, STRICT LIABILITY, OR TORT (INCLUDING NEGLIGENCE OR OTHERWISE)
  31:../Firmware/GD32VW55x_standard_peripheral/Source/gd32vw55x_cau_tdes.c **** ARISING IN ANY WAY OUT OF THE USE OF THIS SOFTWARE, EVEN IF ADVISED OF THE POSSIBILITY
  32:../Firmware/GD32VW55x_standard_peripheral/Source/gd32vw55x_cau_tdes.c **** OF SUCH DAMAGE.
  33:../Firmware/GD32VW55x_standard_peripheral/Source/gd32vw55x_cau_tdes.c **** */
  34:../Firmware/GD32VW55x_standard_peripheral/Source/gd32vw55x_cau_tdes.c **** 
  35:../Firmware/GD32VW55x_standard_peripheral/Source/gd32vw55x_cau_tdes.c **** #include "gd32vw55x_cau.h"
  36:../Firmware/GD32VW55x_standard_peripheral/Source/gd32vw55x_cau_tdes.c **** 
  37:../Firmware/GD32VW55x_standard_peripheral/Source/gd32vw55x_cau_tdes.c **** #define TDESBSY_TIMEOUT    ((uint32_t)0x00010000U)
  38:../Firmware/GD32VW55x_standard_peripheral/Source/gd32vw55x_cau_tdes.c **** 
  39:../Firmware/GD32VW55x_standard_peripheral/Source/gd32vw55x_cau_tdes.c **** /* TDES calculate process */
  40:../Firmware/GD32VW55x_standard_peripheral/Source/gd32vw55x_cau_tdes.c **** static ErrStatus cau_tdes_calculate(uint8_t *input, uint32_t in_length, uint8_t *output);
  41:../Firmware/GD32VW55x_standard_peripheral/Source/gd32vw55x_cau_tdes.c **** 
  42:../Firmware/GD32VW55x_standard_peripheral/Source/gd32vw55x_cau_tdes.c **** /*!
  43:../Firmware/GD32VW55x_standard_peripheral/Source/gd32vw55x_cau_tdes.c ****     \brief      encrypt and decrypt using TDES in ECB mode
  44:../Firmware/GD32VW55x_standard_peripheral/Source/gd32vw55x_cau_tdes.c ****     \param[in]  cau_parameter: pointer to the input structure
  45:../Firmware/GD32VW55x_standard_peripheral/Source/gd32vw55x_cau_tdes.c ****                   alg_dir: algorithm direction
  46:../Firmware/GD32VW55x_standard_peripheral/Source/gd32vw55x_cau_tdes.c ****                     CAU_ENCRYPT, CAU_DECRYPT
  47:../Firmware/GD32VW55x_standard_peripheral/Source/gd32vw55x_cau_tdes.c ****                   key: key, 24 bytes
  48:../Firmware/GD32VW55x_standard_peripheral/Source/gd32vw55x_cau_tdes.c ****                   input: input data
  49:../Firmware/GD32VW55x_standard_peripheral/Source/gd32vw55x_cau_tdes.c ****                   in_length: input data length in bytes, must be a multiple of 8 bytes
  50:../Firmware/GD32VW55x_standard_peripheral/Source/gd32vw55x_cau_tdes.c ****     \param[out] output: pointer to the output structure
  51:../Firmware/GD32VW55x_standard_peripheral/Source/gd32vw55x_cau_tdes.c ****     \retval     ErrStatus: SUCCESS or ERROR
  52:../Firmware/GD32VW55x_standard_peripheral/Source/gd32vw55x_cau_tdes.c **** */
  53:../Firmware/GD32VW55x_standard_peripheral/Source/gd32vw55x_cau_tdes.c **** ErrStatus cau_tdes_ecb(cau_parameter_struct *cau_parameter, uint8_t *output)
  54:../Firmware/GD32VW55x_standard_peripheral/Source/gd32vw55x_cau_tdes.c **** {
  16              		.loc 1 54 1
  17              		.cfi_startproc
  18 0000 1971     		addi	sp,sp,-128
  19              		.cfi_def_cfa_offset 128
  20 0002 86DE     		sw	ra,124(sp)
  21 0004 A2DC     		sw	s0,120(sp)
  22              		.cfi_offset 1, -4
  23              		.cfi_offset 8, -8
  24 0006 0001     		addi	s0,sp,128
  25              		.cfi_def_cfa 8, 0
  26 0008 2326A4F8 		sw	a0,-116(s0)
  27 000c 2324B4F8 		sw	a1,-120(s0)
  55:../Firmware/GD32VW55x_standard_peripheral/Source/gd32vw55x_cau_tdes.c ****     ErrStatus ret = ERROR;
  28              		.loc 1 55 15
  29 0010 232604FE 		sw	zero,-20(s0)
  56:../Firmware/GD32VW55x_standard_peripheral/Source/gd32vw55x_cau_tdes.c ****     cau_key_parameter_struct key_initpara;
  57:../Firmware/GD32VW55x_standard_peripheral/Source/gd32vw55x_cau_tdes.c ****     uint32_t keyaddr    = (uint32_t)(cau_parameter->key);
  30              		.loc 1 57 51
  31 0014 8327C4F8 		lw	a5,-116(s0)
  32 0018 DC43     		lw	a5,4(a5)
  33              		.loc 1 57 14
  34 001a 2324F4FE 		sw	a5,-24(s0)
  58:../Firmware/GD32VW55x_standard_peripheral/Source/gd32vw55x_cau_tdes.c ****     uint32_t inputaddr  = (uint32_t)(cau_parameter->input);
  35              		.loc 1 58 51
  36 001e 8327C4F8 		lw	a5,-116(s0)
  37 0022 DC4B     		lw	a5,20(a5)
  38              		.loc 1 58 14
  39 0024 2322F4FE 		sw	a5,-28(s0)
  59:../Firmware/GD32VW55x_standard_peripheral/Source/gd32vw55x_cau_tdes.c ****     uint32_t outputaddr = (uint32_t)output;
  40              		.loc 1 59 14
  41 0028 832784F8 		lw	a5,-120(s0)
  42 002c 2320F4FE 		sw	a5,-32(s0)
  60:../Firmware/GD32VW55x_standard_peripheral/Source/gd32vw55x_cau_tdes.c **** 
  61:../Firmware/GD32VW55x_standard_peripheral/Source/gd32vw55x_cau_tdes.c ****     /* key structure initialization */
  62:../Firmware/GD32VW55x_standard_peripheral/Source/gd32vw55x_cau_tdes.c ****     cau_key_struct_para_init(&key_initpara);
  43              		.loc 1 62 5
  44 0030 930704F9 		addi	a5,s0,-112
  45 0034 3E85     		mv	a0,a5
  46 0036 97000000 		call	cau_key_struct_para_init
  46      E7800000 
  63:../Firmware/GD32VW55x_standard_peripheral/Source/gd32vw55x_cau_tdes.c ****     /* initialize the CAU peripheral */
  64:../Firmware/GD32VW55x_standard_peripheral/Source/gd32vw55x_cau_tdes.c ****     cau_init(cau_parameter->alg_dir, CAU_MODE_TDES_ECB, CAU_SWAPPING_8BIT);
  47              		.loc 1 64 5
  48 003e 8327C4F8 		lw	a5,-116(s0)
  49 0042 9C43     		lw	a5,0(a5)
  50 0044 13060008 		li	a2,128
  51 0048 8145     		li	a1,0
  52 004a 3E85     		mv	a0,a5
  53 004c 97000000 		call	cau_init
  53      E7800000 
  65:../Firmware/GD32VW55x_standard_peripheral/Source/gd32vw55x_cau_tdes.c **** 
  66:../Firmware/GD32VW55x_standard_peripheral/Source/gd32vw55x_cau_tdes.c ****     /* key initialization */
  67:../Firmware/GD32VW55x_standard_peripheral/Source/gd32vw55x_cau_tdes.c ****     key_initpara.key_1_high = __REV(*(uint32_t *)(keyaddr));
  54              		.loc 1 67 38
  55 0054 832784FE 		lw	a5,-24(s0)
  56              		.loc 1 67 31
  57 0058 9C43     		lw	a5,0(a5)
  58 005a 232AF4FA 		sw	a5,-76(s0)
  59              	.LBB30:
  60              	.LBB31:
  61              		.file 2 "../Firmware/RISCV/drivers/core_compatiable.h"
   1:../Firmware/RISCV/drivers/core_compatiable.h **** /*
   2:../Firmware/RISCV/drivers/core_compatiable.h ****  * Copyright (c) 2019 Nuclei Limited. All rights reserved.
   3:../Firmware/RISCV/drivers/core_compatiable.h ****  *
   4:../Firmware/RISCV/drivers/core_compatiable.h ****  * SPDX-License-Identifier: Apache-2.0
   5:../Firmware/RISCV/drivers/core_compatiable.h ****  *
   6:../Firmware/RISCV/drivers/core_compatiable.h ****  * Licensed under the Apache License, Version 2.0 (the License); you may
   7:../Firmware/RISCV/drivers/core_compatiable.h ****  * not use this file except in compliance with the License.
   8:../Firmware/RISCV/drivers/core_compatiable.h ****  * You may obtain a copy of the License at
   9:../Firmware/RISCV/drivers/core_compatiable.h ****  *
  10:../Firmware/RISCV/drivers/core_compatiable.h ****  * www.apache.org/licenses/LICENSE-2.0
  11:../Firmware/RISCV/drivers/core_compatiable.h ****  *
  12:../Firmware/RISCV/drivers/core_compatiable.h ****  * Unless required by applicable law or agreed to in writing, software
  13:../Firmware/RISCV/drivers/core_compatiable.h ****  * distributed under the License is distributed on an AS IS BASIS, WITHOUT
  14:../Firmware/RISCV/drivers/core_compatiable.h ****  * WARRANTIES OR CONDITIONS OF ANY KIND, either express or implied.
  15:../Firmware/RISCV/drivers/core_compatiable.h ****  * See the License for the specific language governing permissions and
  16:../Firmware/RISCV/drivers/core_compatiable.h ****  * limitations under the License.
  17:../Firmware/RISCV/drivers/core_compatiable.h ****  */
  18:../Firmware/RISCV/drivers/core_compatiable.h **** #ifndef __CORE_COMPATIABLE_H__
  19:../Firmware/RISCV/drivers/core_compatiable.h **** #define __CORE_COMPATIABLE_H__
  20:../Firmware/RISCV/drivers/core_compatiable.h **** /*!
  21:../Firmware/RISCV/drivers/core_compatiable.h ****  * @file     core_compatiable.h
  22:../Firmware/RISCV/drivers/core_compatiable.h ****  * @brief    ARM compatiable function definitions header file
  23:../Firmware/RISCV/drivers/core_compatiable.h ****  */
  24:../Firmware/RISCV/drivers/core_compatiable.h **** #ifdef __cplusplus
  25:../Firmware/RISCV/drivers/core_compatiable.h ****  extern "C" {
  26:../Firmware/RISCV/drivers/core_compatiable.h **** #endif
  27:../Firmware/RISCV/drivers/core_compatiable.h **** 
  28:../Firmware/RISCV/drivers/core_compatiable.h **** /* ===== ARM Compatiable Functions ===== */
  29:../Firmware/RISCV/drivers/core_compatiable.h **** /**
  30:../Firmware/RISCV/drivers/core_compatiable.h ****  * \defgroup NMSIS_Core_ARMCompatiable_Functions   ARM Compatiable Functions
  31:../Firmware/RISCV/drivers/core_compatiable.h ****  * \ingroup  NMSIS_Core
  32:../Firmware/RISCV/drivers/core_compatiable.h ****  * \brief    A few functions that compatiable with ARM CMSIS-Core.
  33:../Firmware/RISCV/drivers/core_compatiable.h ****  * \details
  34:../Firmware/RISCV/drivers/core_compatiable.h ****  *
  35:../Firmware/RISCV/drivers/core_compatiable.h ****  * Here we provided a few functions that compatiable with ARM CMSIS-Core,
  36:../Firmware/RISCV/drivers/core_compatiable.h ****  * mostly used in the DSP and NN library.
  37:../Firmware/RISCV/drivers/core_compatiable.h ****  * @{
  38:../Firmware/RISCV/drivers/core_compatiable.h ****  */
  39:../Firmware/RISCV/drivers/core_compatiable.h **** /** \brief Instruction Synchronization Barrier, compatiable with ARM */
  40:../Firmware/RISCV/drivers/core_compatiable.h **** #define __ISB()                             __RWMB()
  41:../Firmware/RISCV/drivers/core_compatiable.h **** 
  42:../Firmware/RISCV/drivers/core_compatiable.h **** /** \brief Data Synchronization Barrier, compatiable with ARM */
  43:../Firmware/RISCV/drivers/core_compatiable.h **** #define __DSB()                             __RWMB()
  44:../Firmware/RISCV/drivers/core_compatiable.h **** 
  45:../Firmware/RISCV/drivers/core_compatiable.h **** /** \brief Data Memory Barrier, compatiable with ARM */
  46:../Firmware/RISCV/drivers/core_compatiable.h **** #define __DMB()                             __RWMB()
  47:../Firmware/RISCV/drivers/core_compatiable.h **** 
  48:../Firmware/RISCV/drivers/core_compatiable.h **** /** \brief LDRT Unprivileged (8 bit), ARM Compatiable */
  49:../Firmware/RISCV/drivers/core_compatiable.h **** #define __LDRBT(ptr)                        __LB((ptr))
  50:../Firmware/RISCV/drivers/core_compatiable.h **** /** \brief LDRT Unprivileged (16 bit), ARM Compatiable */
  51:../Firmware/RISCV/drivers/core_compatiable.h **** #define __LDRHT(ptr)                        __LH((ptr))
  52:../Firmware/RISCV/drivers/core_compatiable.h **** /** \brief LDRT Unprivileged (32 bit), ARM Compatiable */
  53:../Firmware/RISCV/drivers/core_compatiable.h **** #define __LDRT(ptr)                         __LW((ptr))
  54:../Firmware/RISCV/drivers/core_compatiable.h **** 
  55:../Firmware/RISCV/drivers/core_compatiable.h **** /** \brief STRT Unprivileged (8 bit), ARM Compatiable */
  56:../Firmware/RISCV/drivers/core_compatiable.h **** #define __STRBT(val, ptr)                   __SB((ptr), (val))
  57:../Firmware/RISCV/drivers/core_compatiable.h **** /** \brief STRT Unprivileged (16 bit), ARM Compatiable */
  58:../Firmware/RISCV/drivers/core_compatiable.h **** #define __STRHT(val, ptr)                   __SH((ptr), (val))
  59:../Firmware/RISCV/drivers/core_compatiable.h **** /** \brief STRT Unprivileged (32 bit), ARM Compatiable */
  60:../Firmware/RISCV/drivers/core_compatiable.h **** #define __STRT(val, ptr)                    __SW((ptr), (val))
  61:../Firmware/RISCV/drivers/core_compatiable.h **** 
  62:../Firmware/RISCV/drivers/core_compatiable.h **** /* ===== Saturation Operations ===== */
  63:../Firmware/RISCV/drivers/core_compatiable.h **** /**
  64:../Firmware/RISCV/drivers/core_compatiable.h ****  * \brief   Signed Saturate
  65:../Firmware/RISCV/drivers/core_compatiable.h ****  * \details Saturates a signed value.
  66:../Firmware/RISCV/drivers/core_compatiable.h ****  * \param [in]  value  Value to be saturated
  67:../Firmware/RISCV/drivers/core_compatiable.h ****  * \param [in]    sat  Bit position to saturate to (1..32)
  68:../Firmware/RISCV/drivers/core_compatiable.h ****  * \return             Saturated value
  69:../Firmware/RISCV/drivers/core_compatiable.h ****  */
  70:../Firmware/RISCV/drivers/core_compatiable.h **** #if defined(__DSP_PRESENT) && (__DSP_PRESENT == 1)
  71:../Firmware/RISCV/drivers/core_compatiable.h **** #define __SSAT(val, sat)          __RV_SCLIP32((val), (sat-1))
  72:../Firmware/RISCV/drivers/core_compatiable.h **** #else
  73:../Firmware/RISCV/drivers/core_compatiable.h **** __STATIC_FORCEINLINE int32_t __SSAT(int32_t val, uint32_t sat)
  74:../Firmware/RISCV/drivers/core_compatiable.h **** {
  75:../Firmware/RISCV/drivers/core_compatiable.h ****     if ((sat >= 1U) && (sat <= 32U)) {
  76:../Firmware/RISCV/drivers/core_compatiable.h ****         const int32_t max = (int32_t)((1U << (sat - 1U)) - 1U);
  77:../Firmware/RISCV/drivers/core_compatiable.h ****         const int32_t min = -1 - max ;
  78:../Firmware/RISCV/drivers/core_compatiable.h ****         if (val > max) {
  79:../Firmware/RISCV/drivers/core_compatiable.h ****             return max;
  80:../Firmware/RISCV/drivers/core_compatiable.h ****         } else if (val < min) {
  81:../Firmware/RISCV/drivers/core_compatiable.h ****             return min;
  82:../Firmware/RISCV/drivers/core_compatiable.h ****         }
  83:../Firmware/RISCV/drivers/core_compatiable.h ****     }
  84:../Firmware/RISCV/drivers/core_compatiable.h ****     return val;
  85:../Firmware/RISCV/drivers/core_compatiable.h **** }
  86:../Firmware/RISCV/drivers/core_compatiable.h **** #endif
  87:../Firmware/RISCV/drivers/core_compatiable.h **** 
  88:../Firmware/RISCV/drivers/core_compatiable.h **** /**
  89:../Firmware/RISCV/drivers/core_compatiable.h ****  * \brief   Unsigned Saturate
  90:../Firmware/RISCV/drivers/core_compatiable.h ****  * \details Saturates an unsigned value.
  91:../Firmware/RISCV/drivers/core_compatiable.h ****  * \param [in]  value  Value to be saturated
  92:../Firmware/RISCV/drivers/core_compatiable.h ****  * \param [in]    sat  Bit position to saturate to (0..31)
  93:../Firmware/RISCV/drivers/core_compatiable.h ****  * \return             Saturated value
  94:../Firmware/RISCV/drivers/core_compatiable.h ****  */
  95:../Firmware/RISCV/drivers/core_compatiable.h **** #if defined(__DSP_PRESENT) && (__DSP_PRESENT == 1)
  96:../Firmware/RISCV/drivers/core_compatiable.h **** #define __USAT(val, sat)        __RV_UCLIP32((val), (sat))
  97:../Firmware/RISCV/drivers/core_compatiable.h **** #else
  98:../Firmware/RISCV/drivers/core_compatiable.h **** __STATIC_FORCEINLINE uint32_t __USAT(int32_t val, uint32_t sat)
  99:../Firmware/RISCV/drivers/core_compatiable.h **** {
 100:../Firmware/RISCV/drivers/core_compatiable.h ****     if (sat <= 31U) {
 101:../Firmware/RISCV/drivers/core_compatiable.h ****         const uint32_t max = ((1U << sat) - 1U);
 102:../Firmware/RISCV/drivers/core_compatiable.h ****         if (val > (int32_t)max) {
 103:../Firmware/RISCV/drivers/core_compatiable.h ****             return max;
 104:../Firmware/RISCV/drivers/core_compatiable.h ****         } else if (val < 0) {
 105:../Firmware/RISCV/drivers/core_compatiable.h ****             return 0U;
 106:../Firmware/RISCV/drivers/core_compatiable.h ****         }
 107:../Firmware/RISCV/drivers/core_compatiable.h ****     }
 108:../Firmware/RISCV/drivers/core_compatiable.h ****     return (uint32_t)val;
 109:../Firmware/RISCV/drivers/core_compatiable.h **** }
 110:../Firmware/RISCV/drivers/core_compatiable.h **** #endif
 111:../Firmware/RISCV/drivers/core_compatiable.h **** 
 112:../Firmware/RISCV/drivers/core_compatiable.h **** /* ===== Data Processing Operations ===== */
 113:../Firmware/RISCV/drivers/core_compatiable.h **** /**
 114:../Firmware/RISCV/drivers/core_compatiable.h ****  * \brief   Reverse byte order (32 bit)
 115:../Firmware/RISCV/drivers/core_compatiable.h ****  * \details Reverses the byte order in unsigned integer value.
 116:../Firmware/RISCV/drivers/core_compatiable.h ****  * For example, 0x12345678 becomes 0x78563412.
 117:../Firmware/RISCV/drivers/core_compatiable.h ****  * \param [in]    value  Value to reverse
 118:../Firmware/RISCV/drivers/core_compatiable.h ****  * \return               Reversed value
 119:../Firmware/RISCV/drivers/core_compatiable.h ****  */
 120:../Firmware/RISCV/drivers/core_compatiable.h **** __STATIC_FORCEINLINE uint32_t __REV(uint32_t value)
 121:../Firmware/RISCV/drivers/core_compatiable.h **** {
 122:../Firmware/RISCV/drivers/core_compatiable.h ****     uint32_t result;
 123:../Firmware/RISCV/drivers/core_compatiable.h **** 
 124:../Firmware/RISCV/drivers/core_compatiable.h ****     result =  ((value & 0xff000000) >> 24)
  62              		.loc 2 124 37
  63 005e 832744FB 		lw	a5,-76(s0)
  64 0062 13D78701 		srli	a4,a5,24
 125:../Firmware/RISCV/drivers/core_compatiable.h ****         | ((value & 0x00ff0000) >> 8 )
  65              		.loc 2 125 33
  66 0066 832744FB 		lw	a5,-76(s0)
  67 006a 93D68700 		srli	a3,a5,8
  68 006e C167     		li	a5,65536
  69 0070 938707F0 		addi	a5,a5,-256
  70 0074 F58F     		and	a5,a3,a5
  71              		.loc 2 125 9
  72 0076 5D8F     		or	a4,a4,a5
 126:../Firmware/RISCV/drivers/core_compatiable.h ****         | ((value & 0x0000ff00) << 8 )
  73              		.loc 2 126 33
  74 0078 832744FB 		lw	a5,-76(s0)
  75 007c 93968700 		slli	a3,a5,8
  76 0080 B707FF00 		li	a5,16711680
  77 0084 F58F     		and	a5,a3,a5
  78              		.loc 2 126 9
  79 0086 5D8F     		or	a4,a4,a5
 127:../Firmware/RISCV/drivers/core_compatiable.h ****         | ((value & 0x000000ff) << 24);
  80              		.loc 2 127 33
  81 0088 832744FB 		lw	a5,-76(s0)
  82 008c E207     		slli	a5,a5,24
 124:../Firmware/RISCV/drivers/core_compatiable.h ****         | ((value & 0x00ff0000) >> 8 )
  83              		.loc 2 124 12
  84 008e D98F     		or	a5,a4,a5
  85 0090 2328F4FA 		sw	a5,-80(s0)
 128:../Firmware/RISCV/drivers/core_compatiable.h ****     return result;
  86              		.loc 2 128 12
  87 0094 832704FB 		lw	a5,-80(s0)
  88              	.LBE31:
  89              	.LBE30:
  90              		.loc 1 67 29
  91 0098 232CF4F8 		sw	a5,-104(s0)
  68:../Firmware/GD32VW55x_standard_peripheral/Source/gd32vw55x_cau_tdes.c ****     keyaddr += 4U;
  92              		.loc 1 68 13
  93 009c 832784FE 		lw	a5,-24(s0)
  94 00a0 9107     		addi	a5,a5,4
  95 00a2 2324F4FE 		sw	a5,-24(s0)
  69:../Firmware/GD32VW55x_standard_peripheral/Source/gd32vw55x_cau_tdes.c ****     key_initpara.key_1_low  = __REV(*(uint32_t *)(keyaddr));
  96              		.loc 1 69 38
  97 00a6 832784FE 		lw	a5,-24(s0)
  98              		.loc 1 69 31
  99 00aa 9C43     		lw	a5,0(a5)
 100 00ac 232EF4FA 		sw	a5,-68(s0)
 101              	.LBB32:
 102              	.LBB33:
 124:../Firmware/RISCV/drivers/core_compatiable.h ****         | ((value & 0x00ff0000) >> 8 )
 103              		.loc 2 124 37
 104 00b0 8327C4FB 		lw	a5,-68(s0)
 105 00b4 13D78701 		srli	a4,a5,24
 125:../Firmware/RISCV/drivers/core_compatiable.h ****         | ((value & 0x0000ff00) << 8 )
 106              		.loc 2 125 33
 107 00b8 8327C4FB 		lw	a5,-68(s0)
 108 00bc 93D68700 		srli	a3,a5,8
 109 00c0 C167     		li	a5,65536
 110 00c2 938707F0 		addi	a5,a5,-256
 111 00c6 F58F     		and	a5,a3,a5
 125:../Firmware/RISCV/drivers/core_compatiable.h ****         | ((value & 0x0000ff00) << 8 )
 112              		.loc 2 125 9
 113 00c8 5D8F     		or	a4,a4,a5
 126:../Firmware/RISCV/drivers/core_compatiable.h ****         | ((value & 0x000000ff) << 24);
 114              		.loc 2 126 33
 115 00ca 8327C4FB 		lw	a5,-68(s0)
 116 00ce 93968700 		slli	a3,a5,8
 117 00d2 B707FF00 		li	a5,16711680
 118 00d6 F58F     		and	a5,a3,a5
 126:../Firmware/RISCV/drivers/core_compatiable.h ****         | ((value & 0x000000ff) << 24);
 119              		.loc 2 126 9
 120 00d8 5D8F     		or	a4,a4,a5
 127:../Firmware/RISCV/drivers/core_compatiable.h ****     return result;
 121              		.loc 2 127 33
 122 00da 8327C4FB 		lw	a5,-68(s0)
 123 00de E207     		slli	a5,a5,24
 124:../Firmware/RISCV/drivers/core_compatiable.h ****         | ((value & 0x00ff0000) >> 8 )
 124              		.loc 2 124 12
 125 00e0 D98F     		or	a5,a4,a5
 126 00e2 232CF4FA 		sw	a5,-72(s0)
 127              		.loc 2 128 12
 128 00e6 832784FB 		lw	a5,-72(s0)
 129              	.LBE33:
 130              	.LBE32:
 131              		.loc 1 69 29
 132 00ea 232EF4F8 		sw	a5,-100(s0)
  70:../Firmware/GD32VW55x_standard_peripheral/Source/gd32vw55x_cau_tdes.c ****     keyaddr += 4U;
 133              		.loc 1 70 13
 134 00ee 832784FE 		lw	a5,-24(s0)
 135 00f2 9107     		addi	a5,a5,4
 136 00f4 2324F4FE 		sw	a5,-24(s0)
  71:../Firmware/GD32VW55x_standard_peripheral/Source/gd32vw55x_cau_tdes.c ****     key_initpara.key_2_high = __REV(*(uint32_t *)(keyaddr));
 137              		.loc 1 71 38
 138 00f8 832784FE 		lw	a5,-24(s0)
 139              		.loc 1 71 31
 140 00fc 9C43     		lw	a5,0(a5)
 141 00fe 2322F4FC 		sw	a5,-60(s0)
 142              	.LBB34:
 143              	.LBB35:
 124:../Firmware/RISCV/drivers/core_compatiable.h ****         | ((value & 0x00ff0000) >> 8 )
 144              		.loc 2 124 37
 145 0102 832744FC 		lw	a5,-60(s0)
 146 0106 13D78701 		srli	a4,a5,24
 125:../Firmware/RISCV/drivers/core_compatiable.h ****         | ((value & 0x0000ff00) << 8 )
 147              		.loc 2 125 33
 148 010a 832744FC 		lw	a5,-60(s0)
 149 010e 93D68700 		srli	a3,a5,8
 150 0112 C167     		li	a5,65536
 151 0114 938707F0 		addi	a5,a5,-256
 152 0118 F58F     		and	a5,a3,a5
 125:../Firmware/RISCV/drivers/core_compatiable.h ****         | ((value & 0x0000ff00) << 8 )
 153              		.loc 2 125 9
 154 011a 5D8F     		or	a4,a4,a5
 126:../Firmware/RISCV/drivers/core_compatiable.h ****         | ((value & 0x000000ff) << 24);
 155              		.loc 2 126 33
 156 011c 832744FC 		lw	a5,-60(s0)
 157 0120 93968700 		slli	a3,a5,8
 158 0124 B707FF00 		li	a5,16711680
 159 0128 F58F     		and	a5,a3,a5
 126:../Firmware/RISCV/drivers/core_compatiable.h ****         | ((value & 0x000000ff) << 24);
 160              		.loc 2 126 9
 161 012a 5D8F     		or	a4,a4,a5
 127:../Firmware/RISCV/drivers/core_compatiable.h ****     return result;
 162              		.loc 2 127 33
 163 012c 832744FC 		lw	a5,-60(s0)
 164 0130 E207     		slli	a5,a5,24
 124:../Firmware/RISCV/drivers/core_compatiable.h ****         | ((value & 0x00ff0000) >> 8 )
 165              		.loc 2 124 12
 166 0132 D98F     		or	a5,a4,a5
 167 0134 2320F4FC 		sw	a5,-64(s0)
 168              		.loc 2 128 12
 169 0138 832704FC 		lw	a5,-64(s0)
 170              	.LBE35:
 171              	.LBE34:
 172              		.loc 1 71 29
 173 013c 2320F4FA 		sw	a5,-96(s0)
  72:../Firmware/GD32VW55x_standard_peripheral/Source/gd32vw55x_cau_tdes.c ****     keyaddr += 4U;
 174              		.loc 1 72 13
 175 0140 832784FE 		lw	a5,-24(s0)
 176 0144 9107     		addi	a5,a5,4
 177 0146 2324F4FE 		sw	a5,-24(s0)
  73:../Firmware/GD32VW55x_standard_peripheral/Source/gd32vw55x_cau_tdes.c ****     key_initpara.key_2_low  = __REV(*(uint32_t *)(keyaddr));
 178              		.loc 1 73 38
 179 014a 832784FE 		lw	a5,-24(s0)
 180              		.loc 1 73 31
 181 014e 9C43     		lw	a5,0(a5)
 182 0150 2326F4FC 		sw	a5,-52(s0)
 183              	.LBB36:
 184              	.LBB37:
 124:../Firmware/RISCV/drivers/core_compatiable.h ****         | ((value & 0x00ff0000) >> 8 )
 185              		.loc 2 124 37
 186 0154 8327C4FC 		lw	a5,-52(s0)
 187 0158 13D78701 		srli	a4,a5,24
 125:../Firmware/RISCV/drivers/core_compatiable.h ****         | ((value & 0x0000ff00) << 8 )
 188              		.loc 2 125 33
 189 015c 8327C4FC 		lw	a5,-52(s0)
 190 0160 93D68700 		srli	a3,a5,8
 191 0164 C167     		li	a5,65536
 192 0166 938707F0 		addi	a5,a5,-256
 193 016a F58F     		and	a5,a3,a5
 125:../Firmware/RISCV/drivers/core_compatiable.h ****         | ((value & 0x0000ff00) << 8 )
 194              		.loc 2 125 9
 195 016c 5D8F     		or	a4,a4,a5
 126:../Firmware/RISCV/drivers/core_compatiable.h ****         | ((value & 0x000000ff) << 24);
 196              		.loc 2 126 33
 197 016e 8327C4FC 		lw	a5,-52(s0)
 198 0172 93968700 		slli	a3,a5,8
 199 0176 B707FF00 		li	a5,16711680
 200 017a F58F     		and	a5,a3,a5
 126:../Firmware/RISCV/drivers/core_compatiable.h ****         | ((value & 0x000000ff) << 24);
 201              		.loc 2 126 9
 202 017c 5D8F     		or	a4,a4,a5
 127:../Firmware/RISCV/drivers/core_compatiable.h ****     return result;
 203              		.loc 2 127 33
 204 017e 8327C4FC 		lw	a5,-52(s0)
 205 0182 E207     		slli	a5,a5,24
 124:../Firmware/RISCV/drivers/core_compatiable.h ****         | ((value & 0x00ff0000) >> 8 )
 206              		.loc 2 124 12
 207 0184 D98F     		or	a5,a4,a5
 208 0186 2324F4FC 		sw	a5,-56(s0)
 209              		.loc 2 128 12
 210 018a 832784FC 		lw	a5,-56(s0)
 211              	.LBE37:
 212              	.LBE36:
 213              		.loc 1 73 29
 214 018e 2322F4FA 		sw	a5,-92(s0)
  74:../Firmware/GD32VW55x_standard_peripheral/Source/gd32vw55x_cau_tdes.c ****     keyaddr += 4U;
 215              		.loc 1 74 13
 216 0192 832784FE 		lw	a5,-24(s0)
 217 0196 9107     		addi	a5,a5,4
 218 0198 2324F4FE 		sw	a5,-24(s0)
  75:../Firmware/GD32VW55x_standard_peripheral/Source/gd32vw55x_cau_tdes.c ****     key_initpara.key_3_high = __REV(*(uint32_t *)(keyaddr));
 219              		.loc 1 75 38
 220 019c 832784FE 		lw	a5,-24(s0)
 221              		.loc 1 75 31
 222 01a0 9C43     		lw	a5,0(a5)
 223 01a2 232AF4FC 		sw	a5,-44(s0)
 224              	.LBB38:
 225              	.LBB39:
 124:../Firmware/RISCV/drivers/core_compatiable.h ****         | ((value & 0x00ff0000) >> 8 )
 226              		.loc 2 124 37
 227 01a6 832744FD 		lw	a5,-44(s0)
 228 01aa 13D78701 		srli	a4,a5,24
 125:../Firmware/RISCV/drivers/core_compatiable.h ****         | ((value & 0x0000ff00) << 8 )
 229              		.loc 2 125 33
 230 01ae 832744FD 		lw	a5,-44(s0)
 231 01b2 93D68700 		srli	a3,a5,8
 232 01b6 C167     		li	a5,65536
 233 01b8 938707F0 		addi	a5,a5,-256
 234 01bc F58F     		and	a5,a3,a5
 125:../Firmware/RISCV/drivers/core_compatiable.h ****         | ((value & 0x0000ff00) << 8 )
 235              		.loc 2 125 9
 236 01be 5D8F     		or	a4,a4,a5
 126:../Firmware/RISCV/drivers/core_compatiable.h ****         | ((value & 0x000000ff) << 24);
 237              		.loc 2 126 33
 238 01c0 832744FD 		lw	a5,-44(s0)
 239 01c4 93968700 		slli	a3,a5,8
 240 01c8 B707FF00 		li	a5,16711680
 241 01cc F58F     		and	a5,a3,a5
 126:../Firmware/RISCV/drivers/core_compatiable.h ****         | ((value & 0x000000ff) << 24);
 242              		.loc 2 126 9
 243 01ce 5D8F     		or	a4,a4,a5
 127:../Firmware/RISCV/drivers/core_compatiable.h ****     return result;
 244              		.loc 2 127 33
 245 01d0 832744FD 		lw	a5,-44(s0)
 246 01d4 E207     		slli	a5,a5,24
 124:../Firmware/RISCV/drivers/core_compatiable.h ****         | ((value & 0x00ff0000) >> 8 )
 247              		.loc 2 124 12
 248 01d6 D98F     		or	a5,a4,a5
 249 01d8 2328F4FC 		sw	a5,-48(s0)
 250              		.loc 2 128 12
 251 01dc 832704FD 		lw	a5,-48(s0)
 252              	.LBE39:
 253              	.LBE38:
 254              		.loc 1 75 29
 255 01e0 2324F4FA 		sw	a5,-88(s0)
  76:../Firmware/GD32VW55x_standard_peripheral/Source/gd32vw55x_cau_tdes.c ****     keyaddr += 4U;
 256              		.loc 1 76 13
 257 01e4 832784FE 		lw	a5,-24(s0)
 258 01e8 9107     		addi	a5,a5,4
 259 01ea 2324F4FE 		sw	a5,-24(s0)
  77:../Firmware/GD32VW55x_standard_peripheral/Source/gd32vw55x_cau_tdes.c ****     key_initpara.key_3_low  = __REV(*(uint32_t *)(keyaddr));
 260              		.loc 1 77 38
 261 01ee 832784FE 		lw	a5,-24(s0)
 262              		.loc 1 77 31
 263 01f2 9C43     		lw	a5,0(a5)
 264 01f4 232EF4FC 		sw	a5,-36(s0)
 265              	.LBB40:
 266              	.LBB41:
 124:../Firmware/RISCV/drivers/core_compatiable.h ****         | ((value & 0x00ff0000) >> 8 )
 267              		.loc 2 124 37
 268 01f8 8327C4FD 		lw	a5,-36(s0)
 269 01fc 13D78701 		srli	a4,a5,24
 125:../Firmware/RISCV/drivers/core_compatiable.h ****         | ((value & 0x0000ff00) << 8 )
 270              		.loc 2 125 33
 271 0200 8327C4FD 		lw	a5,-36(s0)
 272 0204 93D68700 		srli	a3,a5,8
 273 0208 C167     		li	a5,65536
 274 020a 938707F0 		addi	a5,a5,-256
 275 020e F58F     		and	a5,a3,a5
 125:../Firmware/RISCV/drivers/core_compatiable.h ****         | ((value & 0x0000ff00) << 8 )
 276              		.loc 2 125 9
 277 0210 5D8F     		or	a4,a4,a5
 126:../Firmware/RISCV/drivers/core_compatiable.h ****         | ((value & 0x000000ff) << 24);
 278              		.loc 2 126 33
 279 0212 8327C4FD 		lw	a5,-36(s0)
 280 0216 93968700 		slli	a3,a5,8
 281 021a B707FF00 		li	a5,16711680
 282 021e F58F     		and	a5,a3,a5
 126:../Firmware/RISCV/drivers/core_compatiable.h ****         | ((value & 0x000000ff) << 24);
 283              		.loc 2 126 9
 284 0220 5D8F     		or	a4,a4,a5
 127:../Firmware/RISCV/drivers/core_compatiable.h ****     return result;
 285              		.loc 2 127 33
 286 0222 8327C4FD 		lw	a5,-36(s0)
 287 0226 E207     		slli	a5,a5,24
 124:../Firmware/RISCV/drivers/core_compatiable.h ****         | ((value & 0x00ff0000) >> 8 )
 288              		.loc 2 124 12
 289 0228 D98F     		or	a5,a4,a5
 290 022a 232CF4FC 		sw	a5,-40(s0)
 291              		.loc 2 128 12
 292 022e 832784FD 		lw	a5,-40(s0)
 293              	.LBE41:
 294              	.LBE40:
 295              		.loc 1 77 29
 296 0232 2326F4FA 		sw	a5,-84(s0)
  78:../Firmware/GD32VW55x_standard_peripheral/Source/gd32vw55x_cau_tdes.c ****     cau_key_init(&key_initpara);
 297              		.loc 1 78 5
 298 0236 930704F9 		addi	a5,s0,-112
 299 023a 3E85     		mv	a0,a5
 300 023c 97000000 		call	cau_key_init
 300      E7800000 
  79:../Firmware/GD32VW55x_standard_peripheral/Source/gd32vw55x_cau_tdes.c **** 
  80:../Firmware/GD32VW55x_standard_peripheral/Source/gd32vw55x_cau_tdes.c ****     /* flush the IN and OUT FIFOs */
  81:../Firmware/GD32VW55x_standard_peripheral/Source/gd32vw55x_cau_tdes.c ****     cau_fifo_flush();
 301              		.loc 1 81 5
 302 0244 97000000 		call	cau_fifo_flush
 302      E7800000 
  82:../Firmware/GD32VW55x_standard_peripheral/Source/gd32vw55x_cau_tdes.c **** 
  83:../Firmware/GD32VW55x_standard_peripheral/Source/gd32vw55x_cau_tdes.c ****     /* enable the CAU peripheral */
  84:../Firmware/GD32VW55x_standard_peripheral/Source/gd32vw55x_cau_tdes.c ****     cau_enable();
 303              		.loc 1 84 5
 304 024c 97000000 		call	cau_enable
 304      E7800000 
  85:../Firmware/GD32VW55x_standard_peripheral/Source/gd32vw55x_cau_tdes.c ****     /* TDES calculate process */
  86:../Firmware/GD32VW55x_standard_peripheral/Source/gd32vw55x_cau_tdes.c ****     ret = cau_tdes_calculate((uint8_t *)inputaddr, cau_parameter->in_length, (uint8_t *)outputaddr)
 305              		.loc 1 86 11
 306 0254 032744FE 		lw	a4,-28(s0)
 307 0258 8327C4F8 		lw	a5,-116(s0)
 308 025c 9C4F     		lw	a5,24(a5)
 309 025e 832604FE 		lw	a3,-32(s0)
 310 0262 3686     		mv	a2,a3
 311 0264 BE85     		mv	a1,a5
 312 0266 3A85     		mv	a0,a4
 313 0268 97000000 		call	cau_tdes_calculate
 313      E7800000 
 314 0270 2326A4FE 		sw	a0,-20(s0)
  87:../Firmware/GD32VW55x_standard_peripheral/Source/gd32vw55x_cau_tdes.c ****     /* disable the CAU peripheral */
  88:../Firmware/GD32VW55x_standard_peripheral/Source/gd32vw55x_cau_tdes.c ****     cau_disable();
 315              		.loc 1 88 5
 316 0274 97000000 		call	cau_disable
 316      E7800000 
  89:../Firmware/GD32VW55x_standard_peripheral/Source/gd32vw55x_cau_tdes.c **** 
  90:../Firmware/GD32VW55x_standard_peripheral/Source/gd32vw55x_cau_tdes.c ****     return ret;
 317              		.loc 1 90 12
 318 027c 8327C4FE 		lw	a5,-20(s0)
  91:../Firmware/GD32VW55x_standard_peripheral/Source/gd32vw55x_cau_tdes.c **** }
 319              		.loc 1 91 1
 320 0280 3E85     		mv	a0,a5
 321 0282 F650     		lw	ra,124(sp)
 322              		.cfi_restore 1
 323 0284 6654     		lw	s0,120(sp)
 324              		.cfi_restore 8
 325              		.cfi_def_cfa 2, 128
 326 0286 0961     		addi	sp,sp,128
 327              		.cfi_def_cfa_offset 0
 328 0288 8280     		jr	ra
 329              		.cfi_endproc
 330              	.LFE347:
 332              		.section	.text.cau_tdes_cbc,"ax",@progbits
 333              		.align	1
 334              		.globl	cau_tdes_cbc
 336              	cau_tdes_cbc:
 337              	.LFB348:
  92:../Firmware/GD32VW55x_standard_peripheral/Source/gd32vw55x_cau_tdes.c **** 
  93:../Firmware/GD32VW55x_standard_peripheral/Source/gd32vw55x_cau_tdes.c **** /*!
  94:../Firmware/GD32VW55x_standard_peripheral/Source/gd32vw55x_cau_tdes.c ****     \brief      encrypt and decrypt using TDES in CBC mode
  95:../Firmware/GD32VW55x_standard_peripheral/Source/gd32vw55x_cau_tdes.c ****     \param[in]  cau_parameter: pointer to the input structure
  96:../Firmware/GD32VW55x_standard_peripheral/Source/gd32vw55x_cau_tdes.c ****                   alg_dir: algorithm direction
  97:../Firmware/GD32VW55x_standard_peripheral/Source/gd32vw55x_cau_tdes.c ****                     CAU_ENCRYPT, CAU_DECRYPT
  98:../Firmware/GD32VW55x_standard_peripheral/Source/gd32vw55x_cau_tdes.c ****                   key: key, 24 bytes
  99:../Firmware/GD32VW55x_standard_peripheral/Source/gd32vw55x_cau_tdes.c ****                   iv: initialization vector, 8 bytes
 100:../Firmware/GD32VW55x_standard_peripheral/Source/gd32vw55x_cau_tdes.c ****                   input: input data
 101:../Firmware/GD32VW55x_standard_peripheral/Source/gd32vw55x_cau_tdes.c ****                   in_length: input data length in bytes, must be a multiple of 8 bytes
 102:../Firmware/GD32VW55x_standard_peripheral/Source/gd32vw55x_cau_tdes.c ****     \param[out] output: pointer to the output structure
 103:../Firmware/GD32VW55x_standard_peripheral/Source/gd32vw55x_cau_tdes.c ****     \retval     ErrStatus: SUCCESS or ERROR
 104:../Firmware/GD32VW55x_standard_peripheral/Source/gd32vw55x_cau_tdes.c **** */
 105:../Firmware/GD32VW55x_standard_peripheral/Source/gd32vw55x_cau_tdes.c **** ErrStatus cau_tdes_cbc(cau_parameter_struct *cau_parameter, uint8_t *output)
 106:../Firmware/GD32VW55x_standard_peripheral/Source/gd32vw55x_cau_tdes.c **** {
 338              		.loc 1 106 1
 339              		.cfi_startproc
 340 0000 7171     		addi	sp,sp,-176
 341              		.cfi_def_cfa_offset 176
 342 0002 06D7     		sw	ra,172(sp)
 343 0004 22D5     		sw	s0,168(sp)
 344              		.cfi_offset 1, -4
 345              		.cfi_offset 8, -8
 346 0006 0019     		addi	s0,sp,176
 347              		.cfi_def_cfa 8, 0
 348 0008 232EA4F4 		sw	a0,-164(s0)
 349 000c 232CB4F4 		sw	a1,-168(s0)
 107:../Firmware/GD32VW55x_standard_peripheral/Source/gd32vw55x_cau_tdes.c ****     ErrStatus ret = ERROR;
 350              		.loc 1 107 15
 351 0010 232604FE 		sw	zero,-20(s0)
 108:../Firmware/GD32VW55x_standard_peripheral/Source/gd32vw55x_cau_tdes.c ****     cau_key_parameter_struct key_initpara;
 109:../Firmware/GD32VW55x_standard_peripheral/Source/gd32vw55x_cau_tdes.c ****     cau_iv_parameter_struct iv_initpara;
 110:../Firmware/GD32VW55x_standard_peripheral/Source/gd32vw55x_cau_tdes.c ****     uint32_t keyaddr    = (uint32_t)(cau_parameter->key);
 352              		.loc 1 110 51
 353 0014 8327C4F5 		lw	a5,-164(s0)
 354 0018 DC43     		lw	a5,4(a5)
 355              		.loc 1 110 14
 356 001a 2324F4FE 		sw	a5,-24(s0)
 111:../Firmware/GD32VW55x_standard_peripheral/Source/gd32vw55x_cau_tdes.c ****     uint32_t inputaddr  = (uint32_t)(cau_parameter->input);
 357              		.loc 1 111 51
 358 001e 8327C4F5 		lw	a5,-164(s0)
 359 0022 DC4B     		lw	a5,20(a5)
 360              		.loc 1 111 14
 361 0024 2322F4FE 		sw	a5,-28(s0)
 112:../Firmware/GD32VW55x_standard_peripheral/Source/gd32vw55x_cau_tdes.c ****     uint32_t outputaddr = (uint32_t)output;
 362              		.loc 1 112 14
 363 0028 832784F5 		lw	a5,-168(s0)
 364 002c 2320F4FE 		sw	a5,-32(s0)
 113:../Firmware/GD32VW55x_standard_peripheral/Source/gd32vw55x_cau_tdes.c ****     uint32_t ivaddr     = (uint32_t)(cau_parameter->iv);
 365              		.loc 1 113 51
 366 0030 8327C4F5 		lw	a5,-164(s0)
 367 0034 DC47     		lw	a5,12(a5)
 368              		.loc 1 113 14
 369 0036 232EF4FC 		sw	a5,-36(s0)
 114:../Firmware/GD32VW55x_standard_peripheral/Source/gd32vw55x_cau_tdes.c **** 
 115:../Firmware/GD32VW55x_standard_peripheral/Source/gd32vw55x_cau_tdes.c ****     /* key structure initialization */
 116:../Firmware/GD32VW55x_standard_peripheral/Source/gd32vw55x_cau_tdes.c ****     cau_key_struct_para_init(&key_initpara);
 370              		.loc 1 116 5
 371 003a 9307C4F7 		addi	a5,s0,-132
 372 003e 3E85     		mv	a0,a5
 373 0040 97000000 		call	cau_key_struct_para_init
 373      E7800000 
 117:../Firmware/GD32VW55x_standard_peripheral/Source/gd32vw55x_cau_tdes.c ****     /* initialize the CAU peripheral */
 118:../Firmware/GD32VW55x_standard_peripheral/Source/gd32vw55x_cau_tdes.c ****     cau_init(cau_parameter->alg_dir, CAU_MODE_TDES_CBC, CAU_SWAPPING_8BIT);
 374              		.loc 1 118 5
 375 0048 8327C4F5 		lw	a5,-164(s0)
 376 004c 9C43     		lw	a5,0(a5)
 377 004e 13060008 		li	a2,128
 378 0052 A145     		li	a1,8
 379 0054 3E85     		mv	a0,a5
 380 0056 97000000 		call	cau_init
 380      E7800000 
 119:../Firmware/GD32VW55x_standard_peripheral/Source/gd32vw55x_cau_tdes.c **** 
 120:../Firmware/GD32VW55x_standard_peripheral/Source/gd32vw55x_cau_tdes.c ****     /* key initialization */
 121:../Firmware/GD32VW55x_standard_peripheral/Source/gd32vw55x_cau_tdes.c ****     key_initpara.key_1_high = __REV(*(uint32_t *)(keyaddr));
 381              		.loc 1 121 38
 382 005e 832784FE 		lw	a5,-24(s0)
 383              		.loc 1 121 31
 384 0062 9C43     		lw	a5,0(a5)
 385 0064 2320F4FA 		sw	a5,-96(s0)
 386              	.LBB42:
 387              	.LBB43:
 124:../Firmware/RISCV/drivers/core_compatiable.h ****         | ((value & 0x00ff0000) >> 8 )
 388              		.loc 2 124 37
 389 0068 832704FA 		lw	a5,-96(s0)
 390 006c 13D78701 		srli	a4,a5,24
 125:../Firmware/RISCV/drivers/core_compatiable.h ****         | ((value & 0x0000ff00) << 8 )
 391              		.loc 2 125 33
 392 0070 832704FA 		lw	a5,-96(s0)
 393 0074 93D68700 		srli	a3,a5,8
 394 0078 C167     		li	a5,65536
 395 007a 938707F0 		addi	a5,a5,-256
 396 007e F58F     		and	a5,a3,a5
 125:../Firmware/RISCV/drivers/core_compatiable.h ****         | ((value & 0x0000ff00) << 8 )
 397              		.loc 2 125 9
 398 0080 5D8F     		or	a4,a4,a5
 126:../Firmware/RISCV/drivers/core_compatiable.h ****         | ((value & 0x000000ff) << 24);
 399              		.loc 2 126 33
 400 0082 832704FA 		lw	a5,-96(s0)
 401 0086 93968700 		slli	a3,a5,8
 402 008a B707FF00 		li	a5,16711680
 403 008e F58F     		and	a5,a3,a5
 126:../Firmware/RISCV/drivers/core_compatiable.h ****         | ((value & 0x000000ff) << 24);
 404              		.loc 2 126 9
 405 0090 5D8F     		or	a4,a4,a5
 127:../Firmware/RISCV/drivers/core_compatiable.h ****     return result;
 406              		.loc 2 127 33
 407 0092 832704FA 		lw	a5,-96(s0)
 408 0096 E207     		slli	a5,a5,24
 124:../Firmware/RISCV/drivers/core_compatiable.h ****         | ((value & 0x00ff0000) >> 8 )
 409              		.loc 2 124 12
 410 0098 D98F     		or	a5,a4,a5
 411 009a 232EF4F8 		sw	a5,-100(s0)
 412              		.loc 2 128 12
 413 009e 8327C4F9 		lw	a5,-100(s0)
 414              	.LBE43:
 415              	.LBE42:
 416              		.loc 1 121 29
 417 00a2 2322F4F8 		sw	a5,-124(s0)
 122:../Firmware/GD32VW55x_standard_peripheral/Source/gd32vw55x_cau_tdes.c ****     keyaddr += 4U;
 418              		.loc 1 122 13
 419 00a6 832784FE 		lw	a5,-24(s0)
 420 00aa 9107     		addi	a5,a5,4
 421 00ac 2324F4FE 		sw	a5,-24(s0)
 123:../Firmware/GD32VW55x_standard_peripheral/Source/gd32vw55x_cau_tdes.c ****     key_initpara.key_1_low  = __REV(*(uint32_t *)(keyaddr));
 422              		.loc 1 123 38
 423 00b0 832784FE 		lw	a5,-24(s0)
 424              		.loc 1 123 31
 425 00b4 9C43     		lw	a5,0(a5)
 426 00b6 2324F4FA 		sw	a5,-88(s0)
 427              	.LBB44:
 428              	.LBB45:
 124:../Firmware/RISCV/drivers/core_compatiable.h ****         | ((value & 0x00ff0000) >> 8 )
 429              		.loc 2 124 37
 430 00ba 832784FA 		lw	a5,-88(s0)
 431 00be 13D78701 		srli	a4,a5,24
 125:../Firmware/RISCV/drivers/core_compatiable.h ****         | ((value & 0x0000ff00) << 8 )
 432              		.loc 2 125 33
 433 00c2 832784FA 		lw	a5,-88(s0)
 434 00c6 93D68700 		srli	a3,a5,8
 435 00ca C167     		li	a5,65536
 436 00cc 938707F0 		addi	a5,a5,-256
 437 00d0 F58F     		and	a5,a3,a5
 125:../Firmware/RISCV/drivers/core_compatiable.h ****         | ((value & 0x0000ff00) << 8 )
 438              		.loc 2 125 9
 439 00d2 5D8F     		or	a4,a4,a5
 126:../Firmware/RISCV/drivers/core_compatiable.h ****         | ((value & 0x000000ff) << 24);
 440              		.loc 2 126 33
 441 00d4 832784FA 		lw	a5,-88(s0)
 442 00d8 93968700 		slli	a3,a5,8
 443 00dc B707FF00 		li	a5,16711680
 444 00e0 F58F     		and	a5,a3,a5
 126:../Firmware/RISCV/drivers/core_compatiable.h ****         | ((value & 0x000000ff) << 24);
 445              		.loc 2 126 9
 446 00e2 5D8F     		or	a4,a4,a5
 127:../Firmware/RISCV/drivers/core_compatiable.h ****     return result;
 447              		.loc 2 127 33
 448 00e4 832784FA 		lw	a5,-88(s0)
 449 00e8 E207     		slli	a5,a5,24
 124:../Firmware/RISCV/drivers/core_compatiable.h ****         | ((value & 0x00ff0000) >> 8 )
 450              		.loc 2 124 12
 451 00ea D98F     		or	a5,a4,a5
 452 00ec 2322F4FA 		sw	a5,-92(s0)
 453              		.loc 2 128 12
 454 00f0 832744FA 		lw	a5,-92(s0)
 455              	.LBE45:
 456              	.LBE44:
 457              		.loc 1 123 29
 458 00f4 2324F4F8 		sw	a5,-120(s0)
 124:../Firmware/GD32VW55x_standard_peripheral/Source/gd32vw55x_cau_tdes.c ****     keyaddr += 4U;
 459              		.loc 1 124 13
 460 00f8 832784FE 		lw	a5,-24(s0)
 461 00fc 9107     		addi	a5,a5,4
 462 00fe 2324F4FE 		sw	a5,-24(s0)
 125:../Firmware/GD32VW55x_standard_peripheral/Source/gd32vw55x_cau_tdes.c ****     key_initpara.key_2_high = __REV(*(uint32_t *)(keyaddr));
 463              		.loc 1 125 38
 464 0102 832784FE 		lw	a5,-24(s0)
 465              		.loc 1 125 31
 466 0106 9C43     		lw	a5,0(a5)
 467 0108 2328F4FA 		sw	a5,-80(s0)
 468              	.LBB46:
 469              	.LBB47:
 124:../Firmware/RISCV/drivers/core_compatiable.h ****         | ((value & 0x00ff0000) >> 8 )
 470              		.loc 2 124 37
 471 010c 832704FB 		lw	a5,-80(s0)
 472 0110 13D78701 		srli	a4,a5,24
 125:../Firmware/RISCV/drivers/core_compatiable.h ****         | ((value & 0x0000ff00) << 8 )
 473              		.loc 2 125 33
 474 0114 832704FB 		lw	a5,-80(s0)
 475 0118 93D68700 		srli	a3,a5,8
 476 011c C167     		li	a5,65536
 477 011e 938707F0 		addi	a5,a5,-256
 478 0122 F58F     		and	a5,a3,a5
 125:../Firmware/RISCV/drivers/core_compatiable.h ****         | ((value & 0x0000ff00) << 8 )
 479              		.loc 2 125 9
 480 0124 5D8F     		or	a4,a4,a5
 126:../Firmware/RISCV/drivers/core_compatiable.h ****         | ((value & 0x000000ff) << 24);
 481              		.loc 2 126 33
 482 0126 832704FB 		lw	a5,-80(s0)
 483 012a 93968700 		slli	a3,a5,8
 484 012e B707FF00 		li	a5,16711680
 485 0132 F58F     		and	a5,a3,a5
 126:../Firmware/RISCV/drivers/core_compatiable.h ****         | ((value & 0x000000ff) << 24);
 486              		.loc 2 126 9
 487 0134 5D8F     		or	a4,a4,a5
 127:../Firmware/RISCV/drivers/core_compatiable.h ****     return result;
 488              		.loc 2 127 33
 489 0136 832704FB 		lw	a5,-80(s0)
 490 013a E207     		slli	a5,a5,24
 124:../Firmware/RISCV/drivers/core_compatiable.h ****         | ((value & 0x00ff0000) >> 8 )
 491              		.loc 2 124 12
 492 013c D98F     		or	a5,a4,a5
 493 013e 2326F4FA 		sw	a5,-84(s0)
 494              		.loc 2 128 12
 495 0142 8327C4FA 		lw	a5,-84(s0)
 496              	.LBE47:
 497              	.LBE46:
 498              		.loc 1 125 29
 499 0146 2326F4F8 		sw	a5,-116(s0)
 126:../Firmware/GD32VW55x_standard_peripheral/Source/gd32vw55x_cau_tdes.c ****     keyaddr += 4U;
 500              		.loc 1 126 13
 501 014a 832784FE 		lw	a5,-24(s0)
 502 014e 9107     		addi	a5,a5,4
 503 0150 2324F4FE 		sw	a5,-24(s0)
 127:../Firmware/GD32VW55x_standard_peripheral/Source/gd32vw55x_cau_tdes.c ****     key_initpara.key_2_low  = __REV(*(uint32_t *)(keyaddr));
 504              		.loc 1 127 38
 505 0154 832784FE 		lw	a5,-24(s0)
 506              		.loc 1 127 31
 507 0158 9C43     		lw	a5,0(a5)
 508 015a 232CF4FA 		sw	a5,-72(s0)
 509              	.LBB48:
 510              	.LBB49:
 124:../Firmware/RISCV/drivers/core_compatiable.h ****         | ((value & 0x00ff0000) >> 8 )
 511              		.loc 2 124 37
 512 015e 832784FB 		lw	a5,-72(s0)
 513 0162 13D78701 		srli	a4,a5,24
 125:../Firmware/RISCV/drivers/core_compatiable.h ****         | ((value & 0x0000ff00) << 8 )
 514              		.loc 2 125 33
 515 0166 832784FB 		lw	a5,-72(s0)
 516 016a 93D68700 		srli	a3,a5,8
 517 016e C167     		li	a5,65536
 518 0170 938707F0 		addi	a5,a5,-256
 519 0174 F58F     		and	a5,a3,a5
 125:../Firmware/RISCV/drivers/core_compatiable.h ****         | ((value & 0x0000ff00) << 8 )
 520              		.loc 2 125 9
 521 0176 5D8F     		or	a4,a4,a5
 126:../Firmware/RISCV/drivers/core_compatiable.h ****         | ((value & 0x000000ff) << 24);
 522              		.loc 2 126 33
 523 0178 832784FB 		lw	a5,-72(s0)
 524 017c 93968700 		slli	a3,a5,8
 525 0180 B707FF00 		li	a5,16711680
 526 0184 F58F     		and	a5,a3,a5
 126:../Firmware/RISCV/drivers/core_compatiable.h ****         | ((value & 0x000000ff) << 24);
 527              		.loc 2 126 9
 528 0186 5D8F     		or	a4,a4,a5
 127:../Firmware/RISCV/drivers/core_compatiable.h ****     return result;
 529              		.loc 2 127 33
 530 0188 832784FB 		lw	a5,-72(s0)
 531 018c E207     		slli	a5,a5,24
 124:../Firmware/RISCV/drivers/core_compatiable.h ****         | ((value & 0x00ff0000) >> 8 )
 532              		.loc 2 124 12
 533 018e D98F     		or	a5,a4,a5
 534 0190 232AF4FA 		sw	a5,-76(s0)
 535              		.loc 2 128 12
 536 0194 832744FB 		lw	a5,-76(s0)
 537              	.LBE49:
 538              	.LBE48:
 539              		.loc 1 127 29
 540 0198 2328F4F8 		sw	a5,-112(s0)
 128:../Firmware/GD32VW55x_standard_peripheral/Source/gd32vw55x_cau_tdes.c ****     keyaddr += 4U;
 541              		.loc 1 128 13
 542 019c 832784FE 		lw	a5,-24(s0)
 543 01a0 9107     		addi	a5,a5,4
 544 01a2 2324F4FE 		sw	a5,-24(s0)
 129:../Firmware/GD32VW55x_standard_peripheral/Source/gd32vw55x_cau_tdes.c ****     key_initpara.key_3_high = __REV(*(uint32_t *)(keyaddr));
 545              		.loc 1 129 38
 546 01a6 832784FE 		lw	a5,-24(s0)
 547              		.loc 1 129 31
 548 01aa 9C43     		lw	a5,0(a5)
 549 01ac 2320F4FC 		sw	a5,-64(s0)
 550              	.LBB50:
 551              	.LBB51:
 124:../Firmware/RISCV/drivers/core_compatiable.h ****         | ((value & 0x00ff0000) >> 8 )
 552              		.loc 2 124 37
 553 01b0 832704FC 		lw	a5,-64(s0)
 554 01b4 13D78701 		srli	a4,a5,24
 125:../Firmware/RISCV/drivers/core_compatiable.h ****         | ((value & 0x0000ff00) << 8 )
 555              		.loc 2 125 33
 556 01b8 832704FC 		lw	a5,-64(s0)
 557 01bc 93D68700 		srli	a3,a5,8
 558 01c0 C167     		li	a5,65536
 559 01c2 938707F0 		addi	a5,a5,-256
 560 01c6 F58F     		and	a5,a3,a5
 125:../Firmware/RISCV/drivers/core_compatiable.h ****         | ((value & 0x0000ff00) << 8 )
 561              		.loc 2 125 9
 562 01c8 5D8F     		or	a4,a4,a5
 126:../Firmware/RISCV/drivers/core_compatiable.h ****         | ((value & 0x000000ff) << 24);
 563              		.loc 2 126 33
 564 01ca 832704FC 		lw	a5,-64(s0)
 565 01ce 93968700 		slli	a3,a5,8
 566 01d2 B707FF00 		li	a5,16711680
 567 01d6 F58F     		and	a5,a3,a5
 126:../Firmware/RISCV/drivers/core_compatiable.h ****         | ((value & 0x000000ff) << 24);
 568              		.loc 2 126 9
 569 01d8 5D8F     		or	a4,a4,a5
 127:../Firmware/RISCV/drivers/core_compatiable.h ****     return result;
 570              		.loc 2 127 33
 571 01da 832704FC 		lw	a5,-64(s0)
 572 01de E207     		slli	a5,a5,24
 124:../Firmware/RISCV/drivers/core_compatiable.h ****         | ((value & 0x00ff0000) >> 8 )
 573              		.loc 2 124 12
 574 01e0 D98F     		or	a5,a4,a5
 575 01e2 232EF4FA 		sw	a5,-68(s0)
 576              		.loc 2 128 12
 577 01e6 8327C4FB 		lw	a5,-68(s0)
 578              	.LBE51:
 579              	.LBE50:
 580              		.loc 1 129 29
 581 01ea 232AF4F8 		sw	a5,-108(s0)
 130:../Firmware/GD32VW55x_standard_peripheral/Source/gd32vw55x_cau_tdes.c ****     keyaddr += 4U;
 582              		.loc 1 130 13
 583 01ee 832784FE 		lw	a5,-24(s0)
 584 01f2 9107     		addi	a5,a5,4
 585 01f4 2324F4FE 		sw	a5,-24(s0)
 131:../Firmware/GD32VW55x_standard_peripheral/Source/gd32vw55x_cau_tdes.c ****     key_initpara.key_3_low  = __REV(*(uint32_t *)(keyaddr));
 586              		.loc 1 131 38
 587 01f8 832784FE 		lw	a5,-24(s0)
 588              		.loc 1 131 31
 589 01fc 9C43     		lw	a5,0(a5)
 590 01fe 2324F4FC 		sw	a5,-56(s0)
 591              	.LBB52:
 592              	.LBB53:
 124:../Firmware/RISCV/drivers/core_compatiable.h ****         | ((value & 0x00ff0000) >> 8 )
 593              		.loc 2 124 37
 594 0202 832784FC 		lw	a5,-56(s0)
 595 0206 13D78701 		srli	a4,a5,24
 125:../Firmware/RISCV/drivers/core_compatiable.h ****         | ((value & 0x0000ff00) << 8 )
 596              		.loc 2 125 33
 597 020a 832784FC 		lw	a5,-56(s0)
 598 020e 93D68700 		srli	a3,a5,8
 599 0212 C167     		li	a5,65536
 600 0214 938707F0 		addi	a5,a5,-256
 601 0218 F58F     		and	a5,a3,a5
 125:../Firmware/RISCV/drivers/core_compatiable.h ****         | ((value & 0x0000ff00) << 8 )
 602              		.loc 2 125 9
 603 021a 5D8F     		or	a4,a4,a5
 126:../Firmware/RISCV/drivers/core_compatiable.h ****         | ((value & 0x000000ff) << 24);
 604              		.loc 2 126 33
 605 021c 832784FC 		lw	a5,-56(s0)
 606 0220 93968700 		slli	a3,a5,8
 607 0224 B707FF00 		li	a5,16711680
 608 0228 F58F     		and	a5,a3,a5
 126:../Firmware/RISCV/drivers/core_compatiable.h ****         | ((value & 0x000000ff) << 24);
 609              		.loc 2 126 9
 610 022a 5D8F     		or	a4,a4,a5
 127:../Firmware/RISCV/drivers/core_compatiable.h ****     return result;
 611              		.loc 2 127 33
 612 022c 832784FC 		lw	a5,-56(s0)
 613 0230 E207     		slli	a5,a5,24
 124:../Firmware/RISCV/drivers/core_compatiable.h ****         | ((value & 0x00ff0000) >> 8 )
 614              		.loc 2 124 12
 615 0232 D98F     		or	a5,a4,a5
 616 0234 2322F4FC 		sw	a5,-60(s0)
 617              		.loc 2 128 12
 618 0238 832744FC 		lw	a5,-60(s0)
 619              	.LBE53:
 620              	.LBE52:
 621              		.loc 1 131 29
 622 023c 232CF4F8 		sw	a5,-104(s0)
 132:../Firmware/GD32VW55x_standard_peripheral/Source/gd32vw55x_cau_tdes.c ****     cau_key_init(&key_initpara);
 623              		.loc 1 132 5
 624 0240 9307C4F7 		addi	a5,s0,-132
 625 0244 3E85     		mv	a0,a5
 626 0246 97000000 		call	cau_key_init
 626      E7800000 
 133:../Firmware/GD32VW55x_standard_peripheral/Source/gd32vw55x_cau_tdes.c **** 
 134:../Firmware/GD32VW55x_standard_peripheral/Source/gd32vw55x_cau_tdes.c ****     /* vectors initialization */
 135:../Firmware/GD32VW55x_standard_peripheral/Source/gd32vw55x_cau_tdes.c ****     iv_initpara.iv_0_high = __REV(*(uint32_t *)(ivaddr));
 627              		.loc 1 135 36
 628 024e 8327C4FD 		lw	a5,-36(s0)
 629              		.loc 1 135 29
 630 0252 9C43     		lw	a5,0(a5)
 631 0254 2328F4FC 		sw	a5,-48(s0)
 632              	.LBB54:
 633              	.LBB55:
 124:../Firmware/RISCV/drivers/core_compatiable.h ****         | ((value & 0x00ff0000) >> 8 )
 634              		.loc 2 124 37
 635 0258 832704FD 		lw	a5,-48(s0)
 636 025c 13D78701 		srli	a4,a5,24
 125:../Firmware/RISCV/drivers/core_compatiable.h ****         | ((value & 0x0000ff00) << 8 )
 637              		.loc 2 125 33
 638 0260 832704FD 		lw	a5,-48(s0)
 639 0264 93D68700 		srli	a3,a5,8
 640 0268 C167     		li	a5,65536
 641 026a 938707F0 		addi	a5,a5,-256
 642 026e F58F     		and	a5,a3,a5
 125:../Firmware/RISCV/drivers/core_compatiable.h ****         | ((value & 0x0000ff00) << 8 )
 643              		.loc 2 125 9
 644 0270 5D8F     		or	a4,a4,a5
 126:../Firmware/RISCV/drivers/core_compatiable.h ****         | ((value & 0x000000ff) << 24);
 645              		.loc 2 126 33
 646 0272 832704FD 		lw	a5,-48(s0)
 647 0276 93968700 		slli	a3,a5,8
 648 027a B707FF00 		li	a5,16711680
 649 027e F58F     		and	a5,a3,a5
 126:../Firmware/RISCV/drivers/core_compatiable.h ****         | ((value & 0x000000ff) << 24);
 650              		.loc 2 126 9
 651 0280 5D8F     		or	a4,a4,a5
 127:../Firmware/RISCV/drivers/core_compatiable.h ****     return result;
 652              		.loc 2 127 33
 653 0282 832704FD 		lw	a5,-48(s0)
 654 0286 E207     		slli	a5,a5,24
 124:../Firmware/RISCV/drivers/core_compatiable.h ****         | ((value & 0x00ff0000) >> 8 )
 655              		.loc 2 124 12
 656 0288 D98F     		or	a5,a4,a5
 657 028a 2326F4FC 		sw	a5,-52(s0)
 658              		.loc 2 128 12
 659 028e 8327C4FC 		lw	a5,-52(s0)
 660              	.LBE55:
 661              	.LBE54:
 662              		.loc 1 135 27
 663 0292 2326F4F6 		sw	a5,-148(s0)
 136:../Firmware/GD32VW55x_standard_peripheral/Source/gd32vw55x_cau_tdes.c ****     ivaddr += 4U;
 664              		.loc 1 136 12
 665 0296 8327C4FD 		lw	a5,-36(s0)
 666 029a 9107     		addi	a5,a5,4
 667 029c 232EF4FC 		sw	a5,-36(s0)
 137:../Firmware/GD32VW55x_standard_peripheral/Source/gd32vw55x_cau_tdes.c ****     iv_initpara.iv_0_low  = __REV(*(uint32_t *)(ivaddr));
 668              		.loc 1 137 36
 669 02a0 8327C4FD 		lw	a5,-36(s0)
 670              		.loc 1 137 29
 671 02a4 9C43     		lw	a5,0(a5)
 672 02a6 232CF4FC 		sw	a5,-40(s0)
 673              	.LBB56:
 674              	.LBB57:
 124:../Firmware/RISCV/drivers/core_compatiable.h ****         | ((value & 0x00ff0000) >> 8 )
 675              		.loc 2 124 37
 676 02aa 832784FD 		lw	a5,-40(s0)
 677 02ae 13D78701 		srli	a4,a5,24
 125:../Firmware/RISCV/drivers/core_compatiable.h ****         | ((value & 0x0000ff00) << 8 )
 678              		.loc 2 125 33
 679 02b2 832784FD 		lw	a5,-40(s0)
 680 02b6 93D68700 		srli	a3,a5,8
 681 02ba C167     		li	a5,65536
 682 02bc 938707F0 		addi	a5,a5,-256
 683 02c0 F58F     		and	a5,a3,a5
 125:../Firmware/RISCV/drivers/core_compatiable.h ****         | ((value & 0x0000ff00) << 8 )
 684              		.loc 2 125 9
 685 02c2 5D8F     		or	a4,a4,a5
 126:../Firmware/RISCV/drivers/core_compatiable.h ****         | ((value & 0x000000ff) << 24);
 686              		.loc 2 126 33
 687 02c4 832784FD 		lw	a5,-40(s0)
 688 02c8 93968700 		slli	a3,a5,8
 689 02cc B707FF00 		li	a5,16711680
 690 02d0 F58F     		and	a5,a3,a5
 126:../Firmware/RISCV/drivers/core_compatiable.h ****         | ((value & 0x000000ff) << 24);
 691              		.loc 2 126 9
 692 02d2 5D8F     		or	a4,a4,a5
 127:../Firmware/RISCV/drivers/core_compatiable.h ****     return result;
 693              		.loc 2 127 33
 694 02d4 832784FD 		lw	a5,-40(s0)
 695 02d8 E207     		slli	a5,a5,24
 124:../Firmware/RISCV/drivers/core_compatiable.h ****         | ((value & 0x00ff0000) >> 8 )
 696              		.loc 2 124 12
 697 02da D98F     		or	a5,a4,a5
 698 02dc 232AF4FC 		sw	a5,-44(s0)
 699              		.loc 2 128 12
 700 02e0 832744FD 		lw	a5,-44(s0)
 701              	.LBE57:
 702              	.LBE56:
 703              		.loc 1 137 27
 704 02e4 2328F4F6 		sw	a5,-144(s0)
 138:../Firmware/GD32VW55x_standard_peripheral/Source/gd32vw55x_cau_tdes.c ****     cau_iv_init(&iv_initpara);
 705              		.loc 1 138 5
 706 02e8 9307C4F6 		addi	a5,s0,-148
 707 02ec 3E85     		mv	a0,a5
 708 02ee 97000000 		call	cau_iv_init
 708      E7800000 
 139:../Firmware/GD32VW55x_standard_peripheral/Source/gd32vw55x_cau_tdes.c **** 
 140:../Firmware/GD32VW55x_standard_peripheral/Source/gd32vw55x_cau_tdes.c ****     /* flush the IN and OUT FIFOs */
 141:../Firmware/GD32VW55x_standard_peripheral/Source/gd32vw55x_cau_tdes.c ****     cau_fifo_flush();
 709              		.loc 1 141 5
 710 02f6 97000000 		call	cau_fifo_flush
 710      E7800000 
 142:../Firmware/GD32VW55x_standard_peripheral/Source/gd32vw55x_cau_tdes.c ****     /* enable the CAU peripheral */
 143:../Firmware/GD32VW55x_standard_peripheral/Source/gd32vw55x_cau_tdes.c ****     cau_enable();
 711              		.loc 1 143 5
 712 02fe 97000000 		call	cau_enable
 712      E7800000 
 144:../Firmware/GD32VW55x_standard_peripheral/Source/gd32vw55x_cau_tdes.c ****     /* TDES calculate process */
 145:../Firmware/GD32VW55x_standard_peripheral/Source/gd32vw55x_cau_tdes.c ****     ret = cau_tdes_calculate((uint8_t *)inputaddr, cau_parameter->in_length, (uint8_t *)outputaddr)
 713              		.loc 1 145 11
 714 0306 032744FE 		lw	a4,-28(s0)
 715 030a 8327C4F5 		lw	a5,-164(s0)
 716 030e 9C4F     		lw	a5,24(a5)
 717 0310 832604FE 		lw	a3,-32(s0)
 718 0314 3686     		mv	a2,a3
 719 0316 BE85     		mv	a1,a5
 720 0318 3A85     		mv	a0,a4
 721 031a 97000000 		call	cau_tdes_calculate
 721      E7800000 
 722 0322 2326A4FE 		sw	a0,-20(s0)
 146:../Firmware/GD32VW55x_standard_peripheral/Source/gd32vw55x_cau_tdes.c ****     /* disable the CAU peripheral */
 147:../Firmware/GD32VW55x_standard_peripheral/Source/gd32vw55x_cau_tdes.c ****     cau_disable();
 723              		.loc 1 147 5
 724 0326 97000000 		call	cau_disable
 724      E7800000 
 148:../Firmware/GD32VW55x_standard_peripheral/Source/gd32vw55x_cau_tdes.c **** 
 149:../Firmware/GD32VW55x_standard_peripheral/Source/gd32vw55x_cau_tdes.c ****     return ret;
 725              		.loc 1 149 12
 726 032e 8327C4FE 		lw	a5,-20(s0)
 150:../Firmware/GD32VW55x_standard_peripheral/Source/gd32vw55x_cau_tdes.c **** }
 727              		.loc 1 150 1
 728 0332 3E85     		mv	a0,a5
 729 0334 BA50     		lw	ra,172(sp)
 730              		.cfi_restore 1
 731 0336 2A54     		lw	s0,168(sp)
 732              		.cfi_restore 8
 733              		.cfi_def_cfa 2, 176
 734 0338 4D61     		addi	sp,sp,176
 735              		.cfi_def_cfa_offset 0
 736 033a 8280     		jr	ra
 737              		.cfi_endproc
 738              	.LFE348:
 740              		.section	.text.cau_tdes_calculate,"ax",@progbits
 741              		.align	1
 743              	cau_tdes_calculate:
 744              	.LFB349:
 151:../Firmware/GD32VW55x_standard_peripheral/Source/gd32vw55x_cau_tdes.c **** 
 152:../Firmware/GD32VW55x_standard_peripheral/Source/gd32vw55x_cau_tdes.c **** /*!
 153:../Firmware/GD32VW55x_standard_peripheral/Source/gd32vw55x_cau_tdes.c ****     \brief      TDES calculate process
 154:../Firmware/GD32VW55x_standard_peripheral/Source/gd32vw55x_cau_tdes.c ****     \param[in]  input: pointer to the input buffer
 155:../Firmware/GD32VW55x_standard_peripheral/Source/gd32vw55x_cau_tdes.c ****     \param[in]  in_length: length of the input buffer in bytes, must be a multiple of 8 bytes
 156:../Firmware/GD32VW55x_standard_peripheral/Source/gd32vw55x_cau_tdes.c ****     \param[out] output: pointer to the returned buffer
 157:../Firmware/GD32VW55x_standard_peripheral/Source/gd32vw55x_cau_tdes.c ****     \retval     ErrStatus: SUCCESS or ERROR
 158:../Firmware/GD32VW55x_standard_peripheral/Source/gd32vw55x_cau_tdes.c **** */
 159:../Firmware/GD32VW55x_standard_peripheral/Source/gd32vw55x_cau_tdes.c **** static ErrStatus cau_tdes_calculate(uint8_t *input, uint32_t in_length, uint8_t *output)
 160:../Firmware/GD32VW55x_standard_peripheral/Source/gd32vw55x_cau_tdes.c **** {
 745              		.loc 1 160 1
 746              		.cfi_startproc
 747 0000 3971     		addi	sp,sp,-64
 748              		.cfi_def_cfa_offset 64
 749 0002 06DE     		sw	ra,60(sp)
 750 0004 22DC     		sw	s0,56(sp)
 751 0006 26DA     		sw	s1,52(sp)
 752              		.cfi_offset 1, -4
 753              		.cfi_offset 8, -8
 754              		.cfi_offset 9, -12
 755 0008 8000     		addi	s0,sp,64
 756              		.cfi_def_cfa 8, 0
 757 000a 2326A4FC 		sw	a0,-52(s0)
 758 000e 2324B4FC 		sw	a1,-56(s0)
 759 0012 2322C4FC 		sw	a2,-60(s0)
 161:../Firmware/GD32VW55x_standard_peripheral/Source/gd32vw55x_cau_tdes.c ****     uint32_t inputaddr  = (uint32_t)input;
 760              		.loc 1 161 14
 761 0016 8327C4FC 		lw	a5,-52(s0)
 762 001a 2326F4FE 		sw	a5,-20(s0)
 162:../Firmware/GD32VW55x_standard_peripheral/Source/gd32vw55x_cau_tdes.c ****     uint32_t outputaddr = (uint32_t)output;
 763              		.loc 1 162 14
 764 001e 832744FC 		lw	a5,-60(s0)
 765 0022 2324F4FE 		sw	a5,-24(s0)
 163:../Firmware/GD32VW55x_standard_peripheral/Source/gd32vw55x_cau_tdes.c ****     uint32_t i = 0U;
 766              		.loc 1 163 14
 767 0026 232204FE 		sw	zero,-28(s0)
 164:../Firmware/GD32VW55x_standard_peripheral/Source/gd32vw55x_cau_tdes.c ****     __IO uint32_t counter = 0U;
 768              		.loc 1 164 19
 769 002a 232E04FC 		sw	zero,-36(s0)
 165:../Firmware/GD32VW55x_standard_peripheral/Source/gd32vw55x_cau_tdes.c ****     uint32_t busystatus = 0U;
 770              		.loc 1 165 14
 771 002e 232004FE 		sw	zero,-32(s0)
 166:../Firmware/GD32VW55x_standard_peripheral/Source/gd32vw55x_cau_tdes.c **** 
 167:../Firmware/GD32VW55x_standard_peripheral/Source/gd32vw55x_cau_tdes.c ****     /* the clock is not enabled or there is no embedded CAU peripheral */
 168:../Firmware/GD32VW55x_standard_peripheral/Source/gd32vw55x_cau_tdes.c ****     if(DISABLE == cau_enable_state_get()) {
 772              		.loc 1 168 19
 773 0032 97000000 		call	cau_enable_state_get
 773      E7800000 
 774 003a AA87     		mv	a5,a0
 775              		.loc 1 168 7
 776 003c 99E3     		bne	a5,zero,.L20
 169:../Firmware/GD32VW55x_standard_peripheral/Source/gd32vw55x_cau_tdes.c ****         return ERROR;
 777              		.loc 1 169 16
 778 003e 8147     		li	a5,0
 779 0040 7DA8     		j	.L21
 780              	.L20:
 170:../Firmware/GD32VW55x_standard_peripheral/Source/gd32vw55x_cau_tdes.c ****     }
 171:../Firmware/GD32VW55x_standard_peripheral/Source/gd32vw55x_cau_tdes.c **** 
 172:../Firmware/GD32VW55x_standard_peripheral/Source/gd32vw55x_cau_tdes.c ****     for(i = 0U; i < in_length; i += 8U) {
 781              		.loc 1 172 11
 782 0042 232204FE 		sw	zero,-28(s0)
 783              		.loc 1 172 5
 784 0046 6DA0     		j	.L22
 785              	.L26:
 173:../Firmware/GD32VW55x_standard_peripheral/Source/gd32vw55x_cau_tdes.c ****         /* write data to the IN FIFO */
 174:../Firmware/GD32VW55x_standard_peripheral/Source/gd32vw55x_cau_tdes.c ****         cau_data_write(*(uint32_t *)(inputaddr));
 786              		.loc 1 174 25
 787 0048 8327C4FE 		lw	a5,-20(s0)
 788              		.loc 1 174 9
 789 004c 9C43     		lw	a5,0(a5)
 790 004e 3E85     		mv	a0,a5
 791 0050 97000000 		call	cau_data_write
 791      E7800000 
 175:../Firmware/GD32VW55x_standard_peripheral/Source/gd32vw55x_cau_tdes.c ****         inputaddr += 4U;
 792              		.loc 1 175 19
 793 0058 8327C4FE 		lw	a5,-20(s0)
 794 005c 9107     		addi	a5,a5,4
 795 005e 2326F4FE 		sw	a5,-20(s0)
 176:../Firmware/GD32VW55x_standard_peripheral/Source/gd32vw55x_cau_tdes.c ****         cau_data_write(*(uint32_t *)(inputaddr));
 796              		.loc 1 176 25
 797 0062 8327C4FE 		lw	a5,-20(s0)
 798              		.loc 1 176 9
 799 0066 9C43     		lw	a5,0(a5)
 800 0068 3E85     		mv	a0,a5
 801 006a 97000000 		call	cau_data_write
 801      E7800000 
 177:../Firmware/GD32VW55x_standard_peripheral/Source/gd32vw55x_cau_tdes.c ****         inputaddr += 4U;
 802              		.loc 1 177 19
 803 0072 8327C4FE 		lw	a5,-20(s0)
 804 0076 9107     		addi	a5,a5,4
 805 0078 2326F4FE 		sw	a5,-20(s0)
 178:../Firmware/GD32VW55x_standard_peripheral/Source/gd32vw55x_cau_tdes.c **** 
 179:../Firmware/GD32VW55x_standard_peripheral/Source/gd32vw55x_cau_tdes.c ****         /* wait until the complete message has been processed */
 180:../Firmware/GD32VW55x_standard_peripheral/Source/gd32vw55x_cau_tdes.c ****         counter = 0U;
 806              		.loc 1 180 17
 807 007c 232E04FC 		sw	zero,-36(s0)
 808              	.L24:
 181:../Firmware/GD32VW55x_standard_peripheral/Source/gd32vw55x_cau_tdes.c ****         do {
 182:../Firmware/GD32VW55x_standard_peripheral/Source/gd32vw55x_cau_tdes.c ****             busystatus = cau_flag_get(CAU_FLAG_BUSY);
 809              		.loc 1 182 26 discriminator 2
 810 0080 4145     		li	a0,16
 811 0082 97000000 		call	cau_flag_get
 811      E7800000 
 812 008a 2320A4FE 		sw	a0,-32(s0)
 183:../Firmware/GD32VW55x_standard_peripheral/Source/gd32vw55x_cau_tdes.c ****             counter++;
 813              		.loc 1 183 20 discriminator 2
 814 008e 8327C4FD 		lw	a5,-36(s0)
 815 0092 8507     		addi	a5,a5,1
 816 0094 232EF4FC 		sw	a5,-36(s0)
 184:../Firmware/GD32VW55x_standard_peripheral/Source/gd32vw55x_cau_tdes.c ****         } while((TDESBSY_TIMEOUT != counter) && (RESET != busystatus));
 817              		.loc 1 184 34 discriminator 2
 818 0098 0327C4FD 		lw	a4,-36(s0)
 819              		.loc 1 184 9 discriminator 2
 820 009c C167     		li	a5,65536
 821 009e 6305F700 		beq	a4,a5,.L23
 822              		.loc 1 184 46 discriminator 1
 823 00a2 832704FE 		lw	a5,-32(s0)
 824 00a6 E9FF     		bne	a5,zero,.L24
 825              	.L23:
 185:../Firmware/GD32VW55x_standard_peripheral/Source/gd32vw55x_cau_tdes.c **** 
 186:../Firmware/GD32VW55x_standard_peripheral/Source/gd32vw55x_cau_tdes.c ****         if(RESET != busystatus) {
 826              		.loc 1 186 11
 827 00a8 832704FE 		lw	a5,-32(s0)
 828 00ac 99C3     		beq	a5,zero,.L25
 187:../Firmware/GD32VW55x_standard_peripheral/Source/gd32vw55x_cau_tdes.c ****             return ERROR;
 829              		.loc 1 187 20
 830 00ae 8147     		li	a5,0
 831 00b0 B9A0     		j	.L21
 832              	.L25:
 188:../Firmware/GD32VW55x_standard_peripheral/Source/gd32vw55x_cau_tdes.c ****         } else {
 189:../Firmware/GD32VW55x_standard_peripheral/Source/gd32vw55x_cau_tdes.c ****             /* read the output block from the output FIFO */
 190:../Firmware/GD32VW55x_standard_peripheral/Source/gd32vw55x_cau_tdes.c ****             *(uint32_t *)(outputaddr) = cau_data_read();
 833              		.loc 1 190 14 discriminator 2
 834 00b2 832484FE 		lw	s1,-24(s0)
 835              		.loc 1 190 41 discriminator 2
 836 00b6 97000000 		call	cau_data_read
 836      E7800000 
 837 00be AA87     		mv	a5,a0
 838              		.loc 1 190 39 discriminator 2
 839 00c0 9CC0     		sw	a5,0(s1)
 191:../Firmware/GD32VW55x_standard_peripheral/Source/gd32vw55x_cau_tdes.c ****             outputaddr += 4U;
 840              		.loc 1 191 24 discriminator 2
 841 00c2 832784FE 		lw	a5,-24(s0)
 842 00c6 9107     		addi	a5,a5,4
 843 00c8 2324F4FE 		sw	a5,-24(s0)
 192:../Firmware/GD32VW55x_standard_peripheral/Source/gd32vw55x_cau_tdes.c ****             *(uint32_t *)(outputaddr) = cau_data_read();
 844              		.loc 1 192 14 discriminator 2
 845 00cc 832484FE 		lw	s1,-24(s0)
 846              		.loc 1 192 41 discriminator 2
 847 00d0 97000000 		call	cau_data_read
 847      E7800000 
 848 00d8 AA87     		mv	a5,a0
 849              		.loc 1 192 39 discriminator 2
 850 00da 9CC0     		sw	a5,0(s1)
 193:../Firmware/GD32VW55x_standard_peripheral/Source/gd32vw55x_cau_tdes.c ****             outputaddr += 4U;
 851              		.loc 1 193 24 discriminator 2
 852 00dc 832784FE 		lw	a5,-24(s0)
 853 00e0 9107     		addi	a5,a5,4
 854 00e2 2324F4FE 		sw	a5,-24(s0)
 172:../Firmware/GD32VW55x_standard_peripheral/Source/gd32vw55x_cau_tdes.c ****         /* write data to the IN FIFO */
 855              		.loc 1 172 34 discriminator 2
 856 00e6 832744FE 		lw	a5,-28(s0)
 857 00ea A107     		addi	a5,a5,8
 858 00ec 2322F4FE 		sw	a5,-28(s0)
 859              	.L22:
 172:../Firmware/GD32VW55x_standard_peripheral/Source/gd32vw55x_cau_tdes.c ****         /* write data to the IN FIFO */
 860              		.loc 1 172 5 discriminator 1
 861 00f0 032744FE 		lw	a4,-28(s0)
 862 00f4 832784FC 		lw	a5,-56(s0)
 863 00f8 E368F7F4 		bltu	a4,a5,.L26
 194:../Firmware/GD32VW55x_standard_peripheral/Source/gd32vw55x_cau_tdes.c ****         }
 195:../Firmware/GD32VW55x_standard_peripheral/Source/gd32vw55x_cau_tdes.c ****     }
 196:../Firmware/GD32VW55x_standard_peripheral/Source/gd32vw55x_cau_tdes.c **** 
 197:../Firmware/GD32VW55x_standard_peripheral/Source/gd32vw55x_cau_tdes.c ****     return SUCCESS;
 864              		.loc 1 197 12
 865 00fc 8547     		li	a5,1
 866              	.L21:
 198:../Firmware/GD32VW55x_standard_peripheral/Source/gd32vw55x_cau_tdes.c **** }
 867              		.loc 1 198 1
 868 00fe 3E85     		mv	a0,a5
 869 0100 F250     		lw	ra,60(sp)
 870              		.cfi_restore 1
 871 0102 6254     		lw	s0,56(sp)
 872              		.cfi_restore 8
 873              		.cfi_def_cfa 2, 64
 874 0104 D254     		lw	s1,52(sp)
 875              		.cfi_restore 9
 876 0106 2161     		addi	sp,sp,64
 877              		.cfi_def_cfa_offset 0
 878 0108 8280     		jr	ra
 879              		.cfi_endproc
 880              	.LFE349:
 882              		.text
 883              	.Letext0:
 884              		.file 3 "e:\\gd32\\gd32embeddedbuilder_v1.5.2.30854\\tools\\nuclei_riscv_newlibc_prebuilt_win32_20
 885              		.file 4 "e:\\gd32\\gd32embeddedbuilder_v1.5.2.30854\\tools\\nuclei_riscv_newlibc_prebuilt_win32_20
 886              		.file 5 "../Firmware/GD32VW55x_standard_peripheral/gd32vw55x.h"
 887              		.file 6 "../Firmware/GD32VW55x_standard_peripheral/Include/gd32vw55x_cau.h"
DEFINED SYMBOLS
                            *ABS*:0000000000000000 gd32vw55x_cau_tdes.c
C:\Users\CYMR90~1\AppData\Local\Temp\ccsGRYiA.s:13     .text.cau_tdes_ecb:0000000000000000 cau_tdes_ecb
C:\Users\CYMR90~1\AppData\Local\Temp\ccsGRYiA.s:17     .text.cau_tdes_ecb:0000000000000000 .L0 
C:\Users\CYMR90~1\AppData\Local\Temp\ccsGRYiA.s:18     .text.cau_tdes_ecb:0000000000000000 .L0 
C:\Users\CYMR90~1\AppData\Local\Temp\ccsGRYiA.s:19     .text.cau_tdes_ecb:0000000000000002 .L0 
C:\Users\CYMR90~1\AppData\Local\Temp\ccsGRYiA.s:22     .text.cau_tdes_ecb:0000000000000006 .L0 
C:\Users\CYMR90~1\AppData\Local\Temp\ccsGRYiA.s:23     .text.cau_tdes_ecb:0000000000000006 .L0 
C:\Users\CYMR90~1\AppData\Local\Temp\ccsGRYiA.s:25     .text.cau_tdes_ecb:0000000000000008 .L0 
C:\Users\CYMR90~1\AppData\Local\Temp\ccsGRYiA.s:29     .text.cau_tdes_ecb:0000000000000010 .L0 
C:\Users\CYMR90~1\AppData\Local\Temp\ccsGRYiA.s:31     .text.cau_tdes_ecb:0000000000000014 .L0 
C:\Users\CYMR90~1\AppData\Local\Temp\ccsGRYiA.s:34     .text.cau_tdes_ecb:000000000000001a .L0 
C:\Users\CYMR90~1\AppData\Local\Temp\ccsGRYiA.s:36     .text.cau_tdes_ecb:000000000000001e .L0 
C:\Users\CYMR90~1\AppData\Local\Temp\ccsGRYiA.s:39     .text.cau_tdes_ecb:0000000000000024 .L0 
C:\Users\CYMR90~1\AppData\Local\Temp\ccsGRYiA.s:41     .text.cau_tdes_ecb:0000000000000028 .L0 
C:\Users\CYMR90~1\AppData\Local\Temp\ccsGRYiA.s:44     .text.cau_tdes_ecb:0000000000000030 .L0 
C:\Users\CYMR90~1\AppData\Local\Temp\ccsGRYiA.s:48     .text.cau_tdes_ecb:000000000000003e .L0 
C:\Users\CYMR90~1\AppData\Local\Temp\ccsGRYiA.s:55     .text.cau_tdes_ecb:0000000000000054 .L0 
C:\Users\CYMR90~1\AppData\Local\Temp\ccsGRYiA.s:57     .text.cau_tdes_ecb:0000000000000058 .L0 
C:\Users\CYMR90~1\AppData\Local\Temp\ccsGRYiA.s:63     .text.cau_tdes_ecb:000000000000005e .L0 
C:\Users\CYMR90~1\AppData\Local\Temp\ccsGRYiA.s:66     .text.cau_tdes_ecb:0000000000000066 .L0 
C:\Users\CYMR90~1\AppData\Local\Temp\ccsGRYiA.s:72     .text.cau_tdes_ecb:0000000000000076 .L0 
C:\Users\CYMR90~1\AppData\Local\Temp\ccsGRYiA.s:74     .text.cau_tdes_ecb:0000000000000078 .L0 
C:\Users\CYMR90~1\AppData\Local\Temp\ccsGRYiA.s:79     .text.cau_tdes_ecb:0000000000000086 .L0 
C:\Users\CYMR90~1\AppData\Local\Temp\ccsGRYiA.s:81     .text.cau_tdes_ecb:0000000000000088 .L0 
C:\Users\CYMR90~1\AppData\Local\Temp\ccsGRYiA.s:84     .text.cau_tdes_ecb:000000000000008e .L0 
C:\Users\CYMR90~1\AppData\Local\Temp\ccsGRYiA.s:87     .text.cau_tdes_ecb:0000000000000094 .L0 
C:\Users\CYMR90~1\AppData\Local\Temp\ccsGRYiA.s:91     .text.cau_tdes_ecb:0000000000000098 .L0 
C:\Users\CYMR90~1\AppData\Local\Temp\ccsGRYiA.s:93     .text.cau_tdes_ecb:000000000000009c .L0 
C:\Users\CYMR90~1\AppData\Local\Temp\ccsGRYiA.s:97     .text.cau_tdes_ecb:00000000000000a6 .L0 
C:\Users\CYMR90~1\AppData\Local\Temp\ccsGRYiA.s:99     .text.cau_tdes_ecb:00000000000000aa .L0 
C:\Users\CYMR90~1\AppData\Local\Temp\ccsGRYiA.s:104    .text.cau_tdes_ecb:00000000000000b0 .L0 
C:\Users\CYMR90~1\AppData\Local\Temp\ccsGRYiA.s:107    .text.cau_tdes_ecb:00000000000000b8 .L0 
C:\Users\CYMR90~1\AppData\Local\Temp\ccsGRYiA.s:113    .text.cau_tdes_ecb:00000000000000c8 .L0 
C:\Users\CYMR90~1\AppData\Local\Temp\ccsGRYiA.s:115    .text.cau_tdes_ecb:00000000000000ca .L0 
C:\Users\CYMR90~1\AppData\Local\Temp\ccsGRYiA.s:120    .text.cau_tdes_ecb:00000000000000d8 .L0 
C:\Users\CYMR90~1\AppData\Local\Temp\ccsGRYiA.s:122    .text.cau_tdes_ecb:00000000000000da .L0 
C:\Users\CYMR90~1\AppData\Local\Temp\ccsGRYiA.s:125    .text.cau_tdes_ecb:00000000000000e0 .L0 
C:\Users\CYMR90~1\AppData\Local\Temp\ccsGRYiA.s:128    .text.cau_tdes_ecb:00000000000000e6 .L0 
C:\Users\CYMR90~1\AppData\Local\Temp\ccsGRYiA.s:132    .text.cau_tdes_ecb:00000000000000ea .L0 
C:\Users\CYMR90~1\AppData\Local\Temp\ccsGRYiA.s:134    .text.cau_tdes_ecb:00000000000000ee .L0 
C:\Users\CYMR90~1\AppData\Local\Temp\ccsGRYiA.s:138    .text.cau_tdes_ecb:00000000000000f8 .L0 
C:\Users\CYMR90~1\AppData\Local\Temp\ccsGRYiA.s:140    .text.cau_tdes_ecb:00000000000000fc .L0 
C:\Users\CYMR90~1\AppData\Local\Temp\ccsGRYiA.s:145    .text.cau_tdes_ecb:0000000000000102 .L0 
C:\Users\CYMR90~1\AppData\Local\Temp\ccsGRYiA.s:148    .text.cau_tdes_ecb:000000000000010a .L0 
C:\Users\CYMR90~1\AppData\Local\Temp\ccsGRYiA.s:154    .text.cau_tdes_ecb:000000000000011a .L0 
C:\Users\CYMR90~1\AppData\Local\Temp\ccsGRYiA.s:156    .text.cau_tdes_ecb:000000000000011c .L0 
C:\Users\CYMR90~1\AppData\Local\Temp\ccsGRYiA.s:161    .text.cau_tdes_ecb:000000000000012a .L0 
C:\Users\CYMR90~1\AppData\Local\Temp\ccsGRYiA.s:163    .text.cau_tdes_ecb:000000000000012c .L0 
C:\Users\CYMR90~1\AppData\Local\Temp\ccsGRYiA.s:166    .text.cau_tdes_ecb:0000000000000132 .L0 
C:\Users\CYMR90~1\AppData\Local\Temp\ccsGRYiA.s:169    .text.cau_tdes_ecb:0000000000000138 .L0 
C:\Users\CYMR90~1\AppData\Local\Temp\ccsGRYiA.s:173    .text.cau_tdes_ecb:000000000000013c .L0 
C:\Users\CYMR90~1\AppData\Local\Temp\ccsGRYiA.s:175    .text.cau_tdes_ecb:0000000000000140 .L0 
C:\Users\CYMR90~1\AppData\Local\Temp\ccsGRYiA.s:179    .text.cau_tdes_ecb:000000000000014a .L0 
C:\Users\CYMR90~1\AppData\Local\Temp\ccsGRYiA.s:181    .text.cau_tdes_ecb:000000000000014e .L0 
C:\Users\CYMR90~1\AppData\Local\Temp\ccsGRYiA.s:186    .text.cau_tdes_ecb:0000000000000154 .L0 
C:\Users\CYMR90~1\AppData\Local\Temp\ccsGRYiA.s:189    .text.cau_tdes_ecb:000000000000015c .L0 
C:\Users\CYMR90~1\AppData\Local\Temp\ccsGRYiA.s:195    .text.cau_tdes_ecb:000000000000016c .L0 
C:\Users\CYMR90~1\AppData\Local\Temp\ccsGRYiA.s:197    .text.cau_tdes_ecb:000000000000016e .L0 
C:\Users\CYMR90~1\AppData\Local\Temp\ccsGRYiA.s:202    .text.cau_tdes_ecb:000000000000017c .L0 
C:\Users\CYMR90~1\AppData\Local\Temp\ccsGRYiA.s:204    .text.cau_tdes_ecb:000000000000017e .L0 
C:\Users\CYMR90~1\AppData\Local\Temp\ccsGRYiA.s:207    .text.cau_tdes_ecb:0000000000000184 .L0 
C:\Users\CYMR90~1\AppData\Local\Temp\ccsGRYiA.s:210    .text.cau_tdes_ecb:000000000000018a .L0 
C:\Users\CYMR90~1\AppData\Local\Temp\ccsGRYiA.s:214    .text.cau_tdes_ecb:000000000000018e .L0 
C:\Users\CYMR90~1\AppData\Local\Temp\ccsGRYiA.s:216    .text.cau_tdes_ecb:0000000000000192 .L0 
C:\Users\CYMR90~1\AppData\Local\Temp\ccsGRYiA.s:220    .text.cau_tdes_ecb:000000000000019c .L0 
C:\Users\CYMR90~1\AppData\Local\Temp\ccsGRYiA.s:222    .text.cau_tdes_ecb:00000000000001a0 .L0 
C:\Users\CYMR90~1\AppData\Local\Temp\ccsGRYiA.s:227    .text.cau_tdes_ecb:00000000000001a6 .L0 
C:\Users\CYMR90~1\AppData\Local\Temp\ccsGRYiA.s:230    .text.cau_tdes_ecb:00000000000001ae .L0 
C:\Users\CYMR90~1\AppData\Local\Temp\ccsGRYiA.s:236    .text.cau_tdes_ecb:00000000000001be .L0 
C:\Users\CYMR90~1\AppData\Local\Temp\ccsGRYiA.s:238    .text.cau_tdes_ecb:00000000000001c0 .L0 
C:\Users\CYMR90~1\AppData\Local\Temp\ccsGRYiA.s:243    .text.cau_tdes_ecb:00000000000001ce .L0 
C:\Users\CYMR90~1\AppData\Local\Temp\ccsGRYiA.s:245    .text.cau_tdes_ecb:00000000000001d0 .L0 
C:\Users\CYMR90~1\AppData\Local\Temp\ccsGRYiA.s:248    .text.cau_tdes_ecb:00000000000001d6 .L0 
C:\Users\CYMR90~1\AppData\Local\Temp\ccsGRYiA.s:251    .text.cau_tdes_ecb:00000000000001dc .L0 
C:\Users\CYMR90~1\AppData\Local\Temp\ccsGRYiA.s:255    .text.cau_tdes_ecb:00000000000001e0 .L0 
C:\Users\CYMR90~1\AppData\Local\Temp\ccsGRYiA.s:257    .text.cau_tdes_ecb:00000000000001e4 .L0 
C:\Users\CYMR90~1\AppData\Local\Temp\ccsGRYiA.s:261    .text.cau_tdes_ecb:00000000000001ee .L0 
C:\Users\CYMR90~1\AppData\Local\Temp\ccsGRYiA.s:263    .text.cau_tdes_ecb:00000000000001f2 .L0 
C:\Users\CYMR90~1\AppData\Local\Temp\ccsGRYiA.s:268    .text.cau_tdes_ecb:00000000000001f8 .L0 
C:\Users\CYMR90~1\AppData\Local\Temp\ccsGRYiA.s:271    .text.cau_tdes_ecb:0000000000000200 .L0 
C:\Users\CYMR90~1\AppData\Local\Temp\ccsGRYiA.s:277    .text.cau_tdes_ecb:0000000000000210 .L0 
C:\Users\CYMR90~1\AppData\Local\Temp\ccsGRYiA.s:279    .text.cau_tdes_ecb:0000000000000212 .L0 
C:\Users\CYMR90~1\AppData\Local\Temp\ccsGRYiA.s:284    .text.cau_tdes_ecb:0000000000000220 .L0 
C:\Users\CYMR90~1\AppData\Local\Temp\ccsGRYiA.s:286    .text.cau_tdes_ecb:0000000000000222 .L0 
C:\Users\CYMR90~1\AppData\Local\Temp\ccsGRYiA.s:289    .text.cau_tdes_ecb:0000000000000228 .L0 
C:\Users\CYMR90~1\AppData\Local\Temp\ccsGRYiA.s:292    .text.cau_tdes_ecb:000000000000022e .L0 
C:\Users\CYMR90~1\AppData\Local\Temp\ccsGRYiA.s:296    .text.cau_tdes_ecb:0000000000000232 .L0 
C:\Users\CYMR90~1\AppData\Local\Temp\ccsGRYiA.s:298    .text.cau_tdes_ecb:0000000000000236 .L0 
C:\Users\CYMR90~1\AppData\Local\Temp\ccsGRYiA.s:302    .text.cau_tdes_ecb:0000000000000244 .L0 
C:\Users\CYMR90~1\AppData\Local\Temp\ccsGRYiA.s:304    .text.cau_tdes_ecb:000000000000024c .L0 
C:\Users\CYMR90~1\AppData\Local\Temp\ccsGRYiA.s:306    .text.cau_tdes_ecb:0000000000000254 .L0 
C:\Users\CYMR90~1\AppData\Local\Temp\ccsGRYiA.s:743    .text.cau_tdes_calculate:0000000000000000 cau_tdes_calculate
C:\Users\CYMR90~1\AppData\Local\Temp\ccsGRYiA.s:316    .text.cau_tdes_ecb:0000000000000274 .L0 
C:\Users\CYMR90~1\AppData\Local\Temp\ccsGRYiA.s:318    .text.cau_tdes_ecb:000000000000027c .L0 
C:\Users\CYMR90~1\AppData\Local\Temp\ccsGRYiA.s:320    .text.cau_tdes_ecb:0000000000000280 .L0 
C:\Users\CYMR90~1\AppData\Local\Temp\ccsGRYiA.s:322    .text.cau_tdes_ecb:0000000000000284 .L0 
C:\Users\CYMR90~1\AppData\Local\Temp\ccsGRYiA.s:324    .text.cau_tdes_ecb:0000000000000286 .L0 
C:\Users\CYMR90~1\AppData\Local\Temp\ccsGRYiA.s:325    .text.cau_tdes_ecb:0000000000000286 .L0 
C:\Users\CYMR90~1\AppData\Local\Temp\ccsGRYiA.s:327    .text.cau_tdes_ecb:0000000000000288 .L0 
C:\Users\CYMR90~1\AppData\Local\Temp\ccsGRYiA.s:329    .text.cau_tdes_ecb:000000000000028a .L0 
C:\Users\CYMR90~1\AppData\Local\Temp\ccsGRYiA.s:336    .text.cau_tdes_cbc:0000000000000000 cau_tdes_cbc
C:\Users\CYMR90~1\AppData\Local\Temp\ccsGRYiA.s:339    .text.cau_tdes_cbc:0000000000000000 .L0 
C:\Users\CYMR90~1\AppData\Local\Temp\ccsGRYiA.s:340    .text.cau_tdes_cbc:0000000000000000 .L0 
C:\Users\CYMR90~1\AppData\Local\Temp\ccsGRYiA.s:341    .text.cau_tdes_cbc:0000000000000002 .L0 
C:\Users\CYMR90~1\AppData\Local\Temp\ccsGRYiA.s:344    .text.cau_tdes_cbc:0000000000000006 .L0 
C:\Users\CYMR90~1\AppData\Local\Temp\ccsGRYiA.s:345    .text.cau_tdes_cbc:0000000000000006 .L0 
C:\Users\CYMR90~1\AppData\Local\Temp\ccsGRYiA.s:347    .text.cau_tdes_cbc:0000000000000008 .L0 
C:\Users\CYMR90~1\AppData\Local\Temp\ccsGRYiA.s:351    .text.cau_tdes_cbc:0000000000000010 .L0 
C:\Users\CYMR90~1\AppData\Local\Temp\ccsGRYiA.s:353    .text.cau_tdes_cbc:0000000000000014 .L0 
C:\Users\CYMR90~1\AppData\Local\Temp\ccsGRYiA.s:356    .text.cau_tdes_cbc:000000000000001a .L0 
C:\Users\CYMR90~1\AppData\Local\Temp\ccsGRYiA.s:358    .text.cau_tdes_cbc:000000000000001e .L0 
C:\Users\CYMR90~1\AppData\Local\Temp\ccsGRYiA.s:361    .text.cau_tdes_cbc:0000000000000024 .L0 
C:\Users\CYMR90~1\AppData\Local\Temp\ccsGRYiA.s:363    .text.cau_tdes_cbc:0000000000000028 .L0 
C:\Users\CYMR90~1\AppData\Local\Temp\ccsGRYiA.s:366    .text.cau_tdes_cbc:0000000000000030 .L0 
C:\Users\CYMR90~1\AppData\Local\Temp\ccsGRYiA.s:369    .text.cau_tdes_cbc:0000000000000036 .L0 
C:\Users\CYMR90~1\AppData\Local\Temp\ccsGRYiA.s:371    .text.cau_tdes_cbc:000000000000003a .L0 
C:\Users\CYMR90~1\AppData\Local\Temp\ccsGRYiA.s:375    .text.cau_tdes_cbc:0000000000000048 .L0 
C:\Users\CYMR90~1\AppData\Local\Temp\ccsGRYiA.s:382    .text.cau_tdes_cbc:000000000000005e .L0 
C:\Users\CYMR90~1\AppData\Local\Temp\ccsGRYiA.s:384    .text.cau_tdes_cbc:0000000000000062 .L0 
C:\Users\CYMR90~1\AppData\Local\Temp\ccsGRYiA.s:389    .text.cau_tdes_cbc:0000000000000068 .L0 
C:\Users\CYMR90~1\AppData\Local\Temp\ccsGRYiA.s:392    .text.cau_tdes_cbc:0000000000000070 .L0 
C:\Users\CYMR90~1\AppData\Local\Temp\ccsGRYiA.s:398    .text.cau_tdes_cbc:0000000000000080 .L0 
C:\Users\CYMR90~1\AppData\Local\Temp\ccsGRYiA.s:400    .text.cau_tdes_cbc:0000000000000082 .L0 
C:\Users\CYMR90~1\AppData\Local\Temp\ccsGRYiA.s:405    .text.cau_tdes_cbc:0000000000000090 .L0 
C:\Users\CYMR90~1\AppData\Local\Temp\ccsGRYiA.s:407    .text.cau_tdes_cbc:0000000000000092 .L0 
C:\Users\CYMR90~1\AppData\Local\Temp\ccsGRYiA.s:410    .text.cau_tdes_cbc:0000000000000098 .L0 
C:\Users\CYMR90~1\AppData\Local\Temp\ccsGRYiA.s:413    .text.cau_tdes_cbc:000000000000009e .L0 
C:\Users\CYMR90~1\AppData\Local\Temp\ccsGRYiA.s:417    .text.cau_tdes_cbc:00000000000000a2 .L0 
C:\Users\CYMR90~1\AppData\Local\Temp\ccsGRYiA.s:419    .text.cau_tdes_cbc:00000000000000a6 .L0 
C:\Users\CYMR90~1\AppData\Local\Temp\ccsGRYiA.s:423    .text.cau_tdes_cbc:00000000000000b0 .L0 
C:\Users\CYMR90~1\AppData\Local\Temp\ccsGRYiA.s:425    .text.cau_tdes_cbc:00000000000000b4 .L0 
C:\Users\CYMR90~1\AppData\Local\Temp\ccsGRYiA.s:430    .text.cau_tdes_cbc:00000000000000ba .L0 
C:\Users\CYMR90~1\AppData\Local\Temp\ccsGRYiA.s:433    .text.cau_tdes_cbc:00000000000000c2 .L0 
C:\Users\CYMR90~1\AppData\Local\Temp\ccsGRYiA.s:439    .text.cau_tdes_cbc:00000000000000d2 .L0 
C:\Users\CYMR90~1\AppData\Local\Temp\ccsGRYiA.s:441    .text.cau_tdes_cbc:00000000000000d4 .L0 
C:\Users\CYMR90~1\AppData\Local\Temp\ccsGRYiA.s:446    .text.cau_tdes_cbc:00000000000000e2 .L0 
C:\Users\CYMR90~1\AppData\Local\Temp\ccsGRYiA.s:448    .text.cau_tdes_cbc:00000000000000e4 .L0 
C:\Users\CYMR90~1\AppData\Local\Temp\ccsGRYiA.s:451    .text.cau_tdes_cbc:00000000000000ea .L0 
C:\Users\CYMR90~1\AppData\Local\Temp\ccsGRYiA.s:454    .text.cau_tdes_cbc:00000000000000f0 .L0 
C:\Users\CYMR90~1\AppData\Local\Temp\ccsGRYiA.s:458    .text.cau_tdes_cbc:00000000000000f4 .L0 
C:\Users\CYMR90~1\AppData\Local\Temp\ccsGRYiA.s:460    .text.cau_tdes_cbc:00000000000000f8 .L0 
C:\Users\CYMR90~1\AppData\Local\Temp\ccsGRYiA.s:464    .text.cau_tdes_cbc:0000000000000102 .L0 
C:\Users\CYMR90~1\AppData\Local\Temp\ccsGRYiA.s:466    .text.cau_tdes_cbc:0000000000000106 .L0 
C:\Users\CYMR90~1\AppData\Local\Temp\ccsGRYiA.s:471    .text.cau_tdes_cbc:000000000000010c .L0 
C:\Users\CYMR90~1\AppData\Local\Temp\ccsGRYiA.s:474    .text.cau_tdes_cbc:0000000000000114 .L0 
C:\Users\CYMR90~1\AppData\Local\Temp\ccsGRYiA.s:480    .text.cau_tdes_cbc:0000000000000124 .L0 
C:\Users\CYMR90~1\AppData\Local\Temp\ccsGRYiA.s:482    .text.cau_tdes_cbc:0000000000000126 .L0 
C:\Users\CYMR90~1\AppData\Local\Temp\ccsGRYiA.s:487    .text.cau_tdes_cbc:0000000000000134 .L0 
C:\Users\CYMR90~1\AppData\Local\Temp\ccsGRYiA.s:489    .text.cau_tdes_cbc:0000000000000136 .L0 
C:\Users\CYMR90~1\AppData\Local\Temp\ccsGRYiA.s:492    .text.cau_tdes_cbc:000000000000013c .L0 
C:\Users\CYMR90~1\AppData\Local\Temp\ccsGRYiA.s:495    .text.cau_tdes_cbc:0000000000000142 .L0 
C:\Users\CYMR90~1\AppData\Local\Temp\ccsGRYiA.s:499    .text.cau_tdes_cbc:0000000000000146 .L0 
C:\Users\CYMR90~1\AppData\Local\Temp\ccsGRYiA.s:501    .text.cau_tdes_cbc:000000000000014a .L0 
C:\Users\CYMR90~1\AppData\Local\Temp\ccsGRYiA.s:505    .text.cau_tdes_cbc:0000000000000154 .L0 
C:\Users\CYMR90~1\AppData\Local\Temp\ccsGRYiA.s:507    .text.cau_tdes_cbc:0000000000000158 .L0 
C:\Users\CYMR90~1\AppData\Local\Temp\ccsGRYiA.s:512    .text.cau_tdes_cbc:000000000000015e .L0 
C:\Users\CYMR90~1\AppData\Local\Temp\ccsGRYiA.s:515    .text.cau_tdes_cbc:0000000000000166 .L0 
C:\Users\CYMR90~1\AppData\Local\Temp\ccsGRYiA.s:521    .text.cau_tdes_cbc:0000000000000176 .L0 
C:\Users\CYMR90~1\AppData\Local\Temp\ccsGRYiA.s:523    .text.cau_tdes_cbc:0000000000000178 .L0 
C:\Users\CYMR90~1\AppData\Local\Temp\ccsGRYiA.s:528    .text.cau_tdes_cbc:0000000000000186 .L0 
C:\Users\CYMR90~1\AppData\Local\Temp\ccsGRYiA.s:530    .text.cau_tdes_cbc:0000000000000188 .L0 
C:\Users\CYMR90~1\AppData\Local\Temp\ccsGRYiA.s:533    .text.cau_tdes_cbc:000000000000018e .L0 
C:\Users\CYMR90~1\AppData\Local\Temp\ccsGRYiA.s:536    .text.cau_tdes_cbc:0000000000000194 .L0 
C:\Users\CYMR90~1\AppData\Local\Temp\ccsGRYiA.s:540    .text.cau_tdes_cbc:0000000000000198 .L0 
C:\Users\CYMR90~1\AppData\Local\Temp\ccsGRYiA.s:542    .text.cau_tdes_cbc:000000000000019c .L0 
C:\Users\CYMR90~1\AppData\Local\Temp\ccsGRYiA.s:546    .text.cau_tdes_cbc:00000000000001a6 .L0 
C:\Users\CYMR90~1\AppData\Local\Temp\ccsGRYiA.s:548    .text.cau_tdes_cbc:00000000000001aa .L0 
C:\Users\CYMR90~1\AppData\Local\Temp\ccsGRYiA.s:553    .text.cau_tdes_cbc:00000000000001b0 .L0 
C:\Users\CYMR90~1\AppData\Local\Temp\ccsGRYiA.s:556    .text.cau_tdes_cbc:00000000000001b8 .L0 
C:\Users\CYMR90~1\AppData\Local\Temp\ccsGRYiA.s:562    .text.cau_tdes_cbc:00000000000001c8 .L0 
C:\Users\CYMR90~1\AppData\Local\Temp\ccsGRYiA.s:564    .text.cau_tdes_cbc:00000000000001ca .L0 
C:\Users\CYMR90~1\AppData\Local\Temp\ccsGRYiA.s:569    .text.cau_tdes_cbc:00000000000001d8 .L0 
C:\Users\CYMR90~1\AppData\Local\Temp\ccsGRYiA.s:571    .text.cau_tdes_cbc:00000000000001da .L0 
C:\Users\CYMR90~1\AppData\Local\Temp\ccsGRYiA.s:574    .text.cau_tdes_cbc:00000000000001e0 .L0 
C:\Users\CYMR90~1\AppData\Local\Temp\ccsGRYiA.s:577    .text.cau_tdes_cbc:00000000000001e6 .L0 
C:\Users\CYMR90~1\AppData\Local\Temp\ccsGRYiA.s:581    .text.cau_tdes_cbc:00000000000001ea .L0 
C:\Users\CYMR90~1\AppData\Local\Temp\ccsGRYiA.s:583    .text.cau_tdes_cbc:00000000000001ee .L0 
C:\Users\CYMR90~1\AppData\Local\Temp\ccsGRYiA.s:587    .text.cau_tdes_cbc:00000000000001f8 .L0 
C:\Users\CYMR90~1\AppData\Local\Temp\ccsGRYiA.s:589    .text.cau_tdes_cbc:00000000000001fc .L0 
C:\Users\CYMR90~1\AppData\Local\Temp\ccsGRYiA.s:594    .text.cau_tdes_cbc:0000000000000202 .L0 
C:\Users\CYMR90~1\AppData\Local\Temp\ccsGRYiA.s:597    .text.cau_tdes_cbc:000000000000020a .L0 
C:\Users\CYMR90~1\AppData\Local\Temp\ccsGRYiA.s:603    .text.cau_tdes_cbc:000000000000021a .L0 
C:\Users\CYMR90~1\AppData\Local\Temp\ccsGRYiA.s:605    .text.cau_tdes_cbc:000000000000021c .L0 
C:\Users\CYMR90~1\AppData\Local\Temp\ccsGRYiA.s:610    .text.cau_tdes_cbc:000000000000022a .L0 
C:\Users\CYMR90~1\AppData\Local\Temp\ccsGRYiA.s:612    .text.cau_tdes_cbc:000000000000022c .L0 
C:\Users\CYMR90~1\AppData\Local\Temp\ccsGRYiA.s:615    .text.cau_tdes_cbc:0000000000000232 .L0 
C:\Users\CYMR90~1\AppData\Local\Temp\ccsGRYiA.s:618    .text.cau_tdes_cbc:0000000000000238 .L0 
C:\Users\CYMR90~1\AppData\Local\Temp\ccsGRYiA.s:622    .text.cau_tdes_cbc:000000000000023c .L0 
C:\Users\CYMR90~1\AppData\Local\Temp\ccsGRYiA.s:624    .text.cau_tdes_cbc:0000000000000240 .L0 
C:\Users\CYMR90~1\AppData\Local\Temp\ccsGRYiA.s:628    .text.cau_tdes_cbc:000000000000024e .L0 
C:\Users\CYMR90~1\AppData\Local\Temp\ccsGRYiA.s:630    .text.cau_tdes_cbc:0000000000000252 .L0 
C:\Users\CYMR90~1\AppData\Local\Temp\ccsGRYiA.s:635    .text.cau_tdes_cbc:0000000000000258 .L0 
C:\Users\CYMR90~1\AppData\Local\Temp\ccsGRYiA.s:638    .text.cau_tdes_cbc:0000000000000260 .L0 
C:\Users\CYMR90~1\AppData\Local\Temp\ccsGRYiA.s:644    .text.cau_tdes_cbc:0000000000000270 .L0 
C:\Users\CYMR90~1\AppData\Local\Temp\ccsGRYiA.s:646    .text.cau_tdes_cbc:0000000000000272 .L0 
C:\Users\CYMR90~1\AppData\Local\Temp\ccsGRYiA.s:651    .text.cau_tdes_cbc:0000000000000280 .L0 
C:\Users\CYMR90~1\AppData\Local\Temp\ccsGRYiA.s:653    .text.cau_tdes_cbc:0000000000000282 .L0 
C:\Users\CYMR90~1\AppData\Local\Temp\ccsGRYiA.s:656    .text.cau_tdes_cbc:0000000000000288 .L0 
C:\Users\CYMR90~1\AppData\Local\Temp\ccsGRYiA.s:659    .text.cau_tdes_cbc:000000000000028e .L0 
C:\Users\CYMR90~1\AppData\Local\Temp\ccsGRYiA.s:663    .text.cau_tdes_cbc:0000000000000292 .L0 
C:\Users\CYMR90~1\AppData\Local\Temp\ccsGRYiA.s:665    .text.cau_tdes_cbc:0000000000000296 .L0 
C:\Users\CYMR90~1\AppData\Local\Temp\ccsGRYiA.s:669    .text.cau_tdes_cbc:00000000000002a0 .L0 
C:\Users\CYMR90~1\AppData\Local\Temp\ccsGRYiA.s:671    .text.cau_tdes_cbc:00000000000002a4 .L0 
C:\Users\CYMR90~1\AppData\Local\Temp\ccsGRYiA.s:676    .text.cau_tdes_cbc:00000000000002aa .L0 
C:\Users\CYMR90~1\AppData\Local\Temp\ccsGRYiA.s:679    .text.cau_tdes_cbc:00000000000002b2 .L0 
C:\Users\CYMR90~1\AppData\Local\Temp\ccsGRYiA.s:685    .text.cau_tdes_cbc:00000000000002c2 .L0 
C:\Users\CYMR90~1\AppData\Local\Temp\ccsGRYiA.s:687    .text.cau_tdes_cbc:00000000000002c4 .L0 
C:\Users\CYMR90~1\AppData\Local\Temp\ccsGRYiA.s:692    .text.cau_tdes_cbc:00000000000002d2 .L0 
C:\Users\CYMR90~1\AppData\Local\Temp\ccsGRYiA.s:694    .text.cau_tdes_cbc:00000000000002d4 .L0 
C:\Users\CYMR90~1\AppData\Local\Temp\ccsGRYiA.s:697    .text.cau_tdes_cbc:00000000000002da .L0 
C:\Users\CYMR90~1\AppData\Local\Temp\ccsGRYiA.s:700    .text.cau_tdes_cbc:00000000000002e0 .L0 
C:\Users\CYMR90~1\AppData\Local\Temp\ccsGRYiA.s:704    .text.cau_tdes_cbc:00000000000002e4 .L0 
C:\Users\CYMR90~1\AppData\Local\Temp\ccsGRYiA.s:706    .text.cau_tdes_cbc:00000000000002e8 .L0 
C:\Users\CYMR90~1\AppData\Local\Temp\ccsGRYiA.s:710    .text.cau_tdes_cbc:00000000000002f6 .L0 
C:\Users\CYMR90~1\AppData\Local\Temp\ccsGRYiA.s:712    .text.cau_tdes_cbc:00000000000002fe .L0 
C:\Users\CYMR90~1\AppData\Local\Temp\ccsGRYiA.s:714    .text.cau_tdes_cbc:0000000000000306 .L0 
C:\Users\CYMR90~1\AppData\Local\Temp\ccsGRYiA.s:724    .text.cau_tdes_cbc:0000000000000326 .L0 
C:\Users\CYMR90~1\AppData\Local\Temp\ccsGRYiA.s:726    .text.cau_tdes_cbc:000000000000032e .L0 
C:\Users\CYMR90~1\AppData\Local\Temp\ccsGRYiA.s:728    .text.cau_tdes_cbc:0000000000000332 .L0 
C:\Users\CYMR90~1\AppData\Local\Temp\ccsGRYiA.s:730    .text.cau_tdes_cbc:0000000000000336 .L0 
C:\Users\CYMR90~1\AppData\Local\Temp\ccsGRYiA.s:732    .text.cau_tdes_cbc:0000000000000338 .L0 
C:\Users\CYMR90~1\AppData\Local\Temp\ccsGRYiA.s:733    .text.cau_tdes_cbc:0000000000000338 .L0 
C:\Users\CYMR90~1\AppData\Local\Temp\ccsGRYiA.s:735    .text.cau_tdes_cbc:000000000000033a .L0 
C:\Users\CYMR90~1\AppData\Local\Temp\ccsGRYiA.s:737    .text.cau_tdes_cbc:000000000000033c .L0 
C:\Users\CYMR90~1\AppData\Local\Temp\ccsGRYiA.s:746    .text.cau_tdes_calculate:0000000000000000 .L0 
C:\Users\CYMR90~1\AppData\Local\Temp\ccsGRYiA.s:747    .text.cau_tdes_calculate:0000000000000000 .L0 
C:\Users\CYMR90~1\AppData\Local\Temp\ccsGRYiA.s:748    .text.cau_tdes_calculate:0000000000000002 .L0 
C:\Users\CYMR90~1\AppData\Local\Temp\ccsGRYiA.s:752    .text.cau_tdes_calculate:0000000000000008 .L0 
C:\Users\CYMR90~1\AppData\Local\Temp\ccsGRYiA.s:753    .text.cau_tdes_calculate:0000000000000008 .L0 
C:\Users\CYMR90~1\AppData\Local\Temp\ccsGRYiA.s:754    .text.cau_tdes_calculate:0000000000000008 .L0 
C:\Users\CYMR90~1\AppData\Local\Temp\ccsGRYiA.s:756    .text.cau_tdes_calculate:000000000000000a .L0 
C:\Users\CYMR90~1\AppData\Local\Temp\ccsGRYiA.s:761    .text.cau_tdes_calculate:0000000000000016 .L0 
C:\Users\CYMR90~1\AppData\Local\Temp\ccsGRYiA.s:764    .text.cau_tdes_calculate:000000000000001e .L0 
C:\Users\CYMR90~1\AppData\Local\Temp\ccsGRYiA.s:767    .text.cau_tdes_calculate:0000000000000026 .L0 
C:\Users\CYMR90~1\AppData\Local\Temp\ccsGRYiA.s:769    .text.cau_tdes_calculate:000000000000002a .L0 
C:\Users\CYMR90~1\AppData\Local\Temp\ccsGRYiA.s:771    .text.cau_tdes_calculate:000000000000002e .L0 
C:\Users\CYMR90~1\AppData\Local\Temp\ccsGRYiA.s:773    .text.cau_tdes_calculate:0000000000000032 .L0 
C:\Users\CYMR90~1\AppData\Local\Temp\ccsGRYiA.s:776    .text.cau_tdes_calculate:000000000000003c .L0 
C:\Users\CYMR90~1\AppData\Local\Temp\ccsGRYiA.s:778    .text.cau_tdes_calculate:000000000000003e .L0 
C:\Users\CYMR90~1\AppData\Local\Temp\ccsGRYiA.s:782    .text.cau_tdes_calculate:0000000000000042 .L0 
C:\Users\CYMR90~1\AppData\Local\Temp\ccsGRYiA.s:784    .text.cau_tdes_calculate:0000000000000046 .L0 
C:\Users\CYMR90~1\AppData\Local\Temp\ccsGRYiA.s:787    .text.cau_tdes_calculate:0000000000000048 .L0 
C:\Users\CYMR90~1\AppData\Local\Temp\ccsGRYiA.s:789    .text.cau_tdes_calculate:000000000000004c .L0 
C:\Users\CYMR90~1\AppData\Local\Temp\ccsGRYiA.s:793    .text.cau_tdes_calculate:0000000000000058 .L0 
C:\Users\CYMR90~1\AppData\Local\Temp\ccsGRYiA.s:797    .text.cau_tdes_calculate:0000000000000062 .L0 
C:\Users\CYMR90~1\AppData\Local\Temp\ccsGRYiA.s:799    .text.cau_tdes_calculate:0000000000000066 .L0 
C:\Users\CYMR90~1\AppData\Local\Temp\ccsGRYiA.s:803    .text.cau_tdes_calculate:0000000000000072 .L0 
C:\Users\CYMR90~1\AppData\Local\Temp\ccsGRYiA.s:807    .text.cau_tdes_calculate:000000000000007c .L0 
C:\Users\CYMR90~1\AppData\Local\Temp\ccsGRYiA.s:810    .text.cau_tdes_calculate:0000000000000080 .L0 
C:\Users\CYMR90~1\AppData\Local\Temp\ccsGRYiA.s:814    .text.cau_tdes_calculate:000000000000008e .L0 
C:\Users\CYMR90~1\AppData\Local\Temp\ccsGRYiA.s:818    .text.cau_tdes_calculate:0000000000000098 .L0 
C:\Users\CYMR90~1\AppData\Local\Temp\ccsGRYiA.s:820    .text.cau_tdes_calculate:000000000000009c .L0 
C:\Users\CYMR90~1\AppData\Local\Temp\ccsGRYiA.s:823    .text.cau_tdes_calculate:00000000000000a2 .L0 
C:\Users\CYMR90~1\AppData\Local\Temp\ccsGRYiA.s:827    .text.cau_tdes_calculate:00000000000000a8 .L0 
C:\Users\CYMR90~1\AppData\Local\Temp\ccsGRYiA.s:830    .text.cau_tdes_calculate:00000000000000ae .L0 
C:\Users\CYMR90~1\AppData\Local\Temp\ccsGRYiA.s:834    .text.cau_tdes_calculate:00000000000000b2 .L0 
C:\Users\CYMR90~1\AppData\Local\Temp\ccsGRYiA.s:836    .text.cau_tdes_calculate:00000000000000b6 .L0 
C:\Users\CYMR90~1\AppData\Local\Temp\ccsGRYiA.s:839    .text.cau_tdes_calculate:00000000000000c0 .L0 
C:\Users\CYMR90~1\AppData\Local\Temp\ccsGRYiA.s:841    .text.cau_tdes_calculate:00000000000000c2 .L0 
C:\Users\CYMR90~1\AppData\Local\Temp\ccsGRYiA.s:845    .text.cau_tdes_calculate:00000000000000cc .L0 
C:\Users\CYMR90~1\AppData\Local\Temp\ccsGRYiA.s:847    .text.cau_tdes_calculate:00000000000000d0 .L0 
C:\Users\CYMR90~1\AppData\Local\Temp\ccsGRYiA.s:850    .text.cau_tdes_calculate:00000000000000da .L0 
C:\Users\CYMR90~1\AppData\Local\Temp\ccsGRYiA.s:852    .text.cau_tdes_calculate:00000000000000dc .L0 
C:\Users\CYMR90~1\AppData\Local\Temp\ccsGRYiA.s:856    .text.cau_tdes_calculate:00000000000000e6 .L0 
C:\Users\CYMR90~1\AppData\Local\Temp\ccsGRYiA.s:861    .text.cau_tdes_calculate:00000000000000f0 .L0 
C:\Users\CYMR90~1\AppData\Local\Temp\ccsGRYiA.s:865    .text.cau_tdes_calculate:00000000000000fc .L0 
C:\Users\CYMR90~1\AppData\Local\Temp\ccsGRYiA.s:868    .text.cau_tdes_calculate:00000000000000fe .L0 
C:\Users\CYMR90~1\AppData\Local\Temp\ccsGRYiA.s:870    .text.cau_tdes_calculate:0000000000000102 .L0 
C:\Users\CYMR90~1\AppData\Local\Temp\ccsGRYiA.s:872    .text.cau_tdes_calculate:0000000000000104 .L0 
C:\Users\CYMR90~1\AppData\Local\Temp\ccsGRYiA.s:873    .text.cau_tdes_calculate:0000000000000104 .L0 
C:\Users\CYMR90~1\AppData\Local\Temp\ccsGRYiA.s:875    .text.cau_tdes_calculate:0000000000000106 .L0 
C:\Users\CYMR90~1\AppData\Local\Temp\ccsGRYiA.s:877    .text.cau_tdes_calculate:0000000000000108 .L0 
C:\Users\CYMR90~1\AppData\Local\Temp\ccsGRYiA.s:879    .text.cau_tdes_calculate:000000000000010a .L0 
C:\Users\CYMR90~1\AppData\Local\Temp\ccsGRYiA.s:332    .text.cau_tdes_ecb:000000000000028a .L0 
C:\Users\CYMR90~1\AppData\Local\Temp\ccsGRYiA.s:740    .text.cau_tdes_cbc:000000000000033c .L0 
C:\Users\CYMR90~1\AppData\Local\Temp\ccsGRYiA.s:882    .text.cau_tdes_calculate:000000000000010a .L0 
                     .debug_frame:0000000000000000 .L0 
C:\Users\CYMR90~1\AppData\Local\Temp\ccsGRYiA.s:780    .text.cau_tdes_calculate:0000000000000042 .L20
C:\Users\CYMR90~1\AppData\Local\Temp\ccsGRYiA.s:866    .text.cau_tdes_calculate:00000000000000fe .L21
C:\Users\CYMR90~1\AppData\Local\Temp\ccsGRYiA.s:859    .text.cau_tdes_calculate:00000000000000f0 .L22
C:\Users\CYMR90~1\AppData\Local\Temp\ccsGRYiA.s:825    .text.cau_tdes_calculate:00000000000000a8 .L23
C:\Users\CYMR90~1\AppData\Local\Temp\ccsGRYiA.s:808    .text.cau_tdes_calculate:0000000000000080 .L24
C:\Users\CYMR90~1\AppData\Local\Temp\ccsGRYiA.s:832    .text.cau_tdes_calculate:00000000000000b2 .L25
C:\Users\CYMR90~1\AppData\Local\Temp\ccsGRYiA.s:785    .text.cau_tdes_calculate:0000000000000048 .L26
C:\Users\CYMR90~1\AppData\Local\Temp\ccsGRYiA.s:1758   .debug_abbrev:0000000000000000 .Ldebug_abbrev0
C:\Users\CYMR90~1\AppData\Local\Temp\ccsGRYiA.s:22545  .debug_str:000000000000ae04 .LASF5610
C:\Users\CYMR90~1\AppData\Local\Temp\ccsGRYiA.s:29952  .debug_str:0000000000028b3e .LASF5611
C:\Users\CYMR90~1\AppData\Local\Temp\ccsGRYiA.s:22841  .debug_str:000000000000c215 .LASF5612
C:\Users\CYMR90~1\AppData\Local\Temp\ccsGRYiA.s:2147   .debug_ranges:0000000000000000 .Ldebug_ranges0
C:\Users\CYMR90~1\AppData\Local\Temp\ccsGRYiA.s:19795  .debug_line:0000000000000000 .Ldebug_line0
C:\Users\CYMR90~1\AppData\Local\Temp\ccsGRYiA.s:2157   .debug_macro:0000000000000000 .Ldebug_macro0
C:\Users\CYMR90~1\AppData\Local\Temp\ccsGRYiA.s:30990  .debug_str:000000000002ccd6 .LASF5557
C:\Users\CYMR90~1\AppData\Local\Temp\ccsGRYiA.s:19813  .debug_str:0000000000000123 .LASF5558
C:\Users\CYMR90~1\AppData\Local\Temp\ccsGRYiA.s:20727  .debug_str:0000000000003a0f .LASF5559
C:\Users\CYMR90~1\AppData\Local\Temp\ccsGRYiA.s:25914  .debug_str:00000000000187ce .LASF5560
C:\Users\CYMR90~1\AppData\Local\Temp\ccsGRYiA.s:22035  .debug_str:0000000000008e50 .LASF5565
C:\Users\CYMR90~1\AppData\Local\Temp\ccsGRYiA.s:25375  .debug_str:0000000000016450 .LASF5561
C:\Users\CYMR90~1\AppData\Local\Temp\ccsGRYiA.s:27230  .debug_str:000000000001df59 .LASF5562
C:\Users\CYMR90~1\AppData\Local\Temp\ccsGRYiA.s:24845  .debug_str:0000000000014347 .LASF5563
C:\Users\CYMR90~1\AppData\Local\Temp\ccsGRYiA.s:27628  .debug_str:000000000001f71c .LASF5564
C:\Users\CYMR90~1\AppData\Local\Temp\ccsGRYiA.s:26120  .debug_str:0000000000019629 .LASF5566
C:\Users\CYMR90~1\AppData\Local\Temp\ccsGRYiA.s:19929  .debug_str:0000000000000824 .LASF5567
C:\Users\CYMR90~1\AppData\Local\Temp\ccsGRYiA.s:29174  .debug_str:0000000000025932 .LASF5568
C:\Users\CYMR90~1\AppData\Local\Temp\ccsGRYiA.s:27650  .debug_str:000000000001f886 .LASF855
C:\Users\CYMR90~1\AppData\Local\Temp\ccsGRYiA.s:25145  .debug_str:00000000000155d3 .LASF5569
C:\Users\CYMR90~1\AppData\Local\Temp\ccsGRYiA.s:29290  .debug_str:000000000002606e .LASF5570
C:\Users\CYMR90~1\AppData\Local\Temp\ccsGRYiA.s:21835  .debug_str:00000000000081b2 .LASF5571
C:\Users\CYMR90~1\AppData\Local\Temp\ccsGRYiA.s:23341  .debug_str:000000000000e253 .LASF5572
C:\Users\CYMR90~1\AppData\Local\Temp\ccsGRYiA.s:27112  .debug_str:000000000001d834 .LASF5573
C:\Users\CYMR90~1\AppData\Local\Temp\ccsGRYiA.s:27432  .debug_str:000000000001eb62 .LASF5574
C:\Users\CYMR90~1\AppData\Local\Temp\ccsGRYiA.s:24695  .debug_str:0000000000013a2e .LASF5575
C:\Users\CYMR90~1\AppData\Local\Temp\ccsGRYiA.s:30964  .debug_str:000000000002cb57 .LASF5576
C:\Users\CYMR90~1\AppData\Local\Temp\ccsGRYiA.s:21213  .debug_str:0000000000005938 .LASF5577
C:\Users\CYMR90~1\AppData\Local\Temp\ccsGRYiA.s:22739  .debug_str:000000000000bb25 .LASF5578
C:\Users\CYMR90~1\AppData\Local\Temp\ccsGRYiA.s:24713  .debug_str:0000000000013b28 .LASF5579
C:\Users\CYMR90~1\AppData\Local\Temp\ccsGRYiA.s:24479  .debug_str:0000000000012bfb .LASF5580
C:\Users\CYMR90~1\AppData\Local\Temp\ccsGRYiA.s:25139  .debug_str:000000000001559c .LASF5581
C:\Users\CYMR90~1\AppData\Local\Temp\ccsGRYiA.s:26210  .debug_str:0000000000019c64 .LASF5582
C:\Users\CYMR90~1\AppData\Local\Temp\ccsGRYiA.s:20509  .debug_str:0000000000002c0d .LASF5583
C:\Users\CYMR90~1\AppData\Local\Temp\ccsGRYiA.s:27912  .debug_str:0000000000020897 .LASF5584
C:\Users\CYMR90~1\AppData\Local\Temp\ccsGRYiA.s:20279  .debug_str:0000000000001e3f .LASF5585
C:\Users\CYMR90~1\AppData\Local\Temp\ccsGRYiA.s:27246  .debug_str:000000000001e02e .LASF5586
C:\Users\CYMR90~1\AppData\Local\Temp\ccsGRYiA.s:20469  .debug_str:0000000000002993 .LASF5587
C:\Users\CYMR90~1\AppData\Local\Temp\ccsGRYiA.s:30734  .debug_str:000000000002bbcd .LASF5588
C:\Users\CYMR90~1\AppData\Local\Temp\ccsGRYiA.s:21755  .debug_str:0000000000007b7b .LASF5589
C:\Users\CYMR90~1\AppData\Local\Temp\ccsGRYiA.s:24185  .debug_str:000000000001181e .LASF5590
C:\Users\CYMR90~1\AppData\Local\Temp\ccsGRYiA.s:21391  .debug_str:0000000000006455 .LASF5591
C:\Users\CYMR90~1\AppData\Local\Temp\ccsGRYiA.s:22471  .debug_str:000000000000a932 .LASF5592
C:\Users\CYMR90~1\AppData\Local\Temp\ccsGRYiA.s:26636  .debug_str:000000000001b8ee .LASF5593
C:\Users\CYMR90~1\AppData\Local\Temp\ccsGRYiA.s:20927  .debug_str:0000000000004768 .LASF5594
C:\Users\CYMR90~1\AppData\Local\Temp\ccsGRYiA.s:24761  .debug_str:0000000000013de1 .LASF5595
C:\Users\CYMR90~1\AppData\Local\Temp\ccsGRYiA.s:22905  .debug_str:000000000000c600 .LASF5596
C:\Users\CYMR90~1\AppData\Local\Temp\ccsGRYiA.s:30740  .debug_str:000000000002bbf7 .LASF5597
C:\Users\CYMR90~1\AppData\Local\Temp\ccsGRYiA.s:22721  .debug_str:000000000000ba1b .LASF5613
C:\Users\CYMR90~1\AppData\Local\Temp\ccsGRYiA.s:744    .text.cau_tdes_calculate:0000000000000000 .LFB349
C:\Users\CYMR90~1\AppData\Local\Temp\ccsGRYiA.s:880    .text.cau_tdes_calculate:000000000000010a .LFE349
C:\Users\CYMR90~1\AppData\Local\Temp\ccsGRYiA.s:26942  .debug_str:000000000001cc02 .LASF5598
C:\Users\CYMR90~1\AppData\Local\Temp\ccsGRYiA.s:30928  .debug_str:000000000002c8f1 .LASF5599
C:\Users\CYMR90~1\AppData\Local\Temp\ccsGRYiA.s:30462  .debug_str:000000000002aa44 .LASF5600
C:\Users\CYMR90~1\AppData\Local\Temp\ccsGRYiA.s:30140  .debug_str:000000000002971c .LASF5601
C:\Users\CYMR90~1\AppData\Local\Temp\ccsGRYiA.s:24753  .debug_str:0000000000013d82 .LASF5602
C:\Users\CYMR90~1\AppData\Local\Temp\ccsGRYiA.s:26530  .debug_str:000000000001b255 .LASF5608
C:\Users\CYMR90~1\AppData\Local\Temp\ccsGRYiA.s:337    .text.cau_tdes_cbc:0000000000000000 .LFB348
C:\Users\CYMR90~1\AppData\Local\Temp\ccsGRYiA.s:738    .text.cau_tdes_cbc:000000000000033c .LFE348
C:\Users\CYMR90~1\AppData\Local\Temp\ccsGRYiA.s:28100  .debug_str:000000000002142f .LASF5603
C:\Users\CYMR90~1\AppData\Local\Temp\ccsGRYiA.s:21361  .debug_str:0000000000006285 .LASF5604
C:\Users\CYMR90~1\AppData\Local\Temp\ccsGRYiA.s:21983  .debug_str:0000000000008af2 .LASF5605
C:\Users\CYMR90~1\AppData\Local\Temp\ccsGRYiA.s:22895  .debug_str:000000000000c578 .LASF5606
C:\Users\CYMR90~1\AppData\Local\Temp\ccsGRYiA.s:25952  .debug_str:0000000000018a5f .LASF5607
C:\Users\CYMR90~1\AppData\Local\Temp\ccsGRYiA.s:386    .text.cau_tdes_cbc:0000000000000068 .LBB42
C:\Users\CYMR90~1\AppData\Local\Temp\ccsGRYiA.s:415    .text.cau_tdes_cbc:00000000000000a2 .LBE42
C:\Users\CYMR90~1\AppData\Local\Temp\ccsGRYiA.s:427    .text.cau_tdes_cbc:00000000000000ba .LBB44
C:\Users\CYMR90~1\AppData\Local\Temp\ccsGRYiA.s:456    .text.cau_tdes_cbc:00000000000000f4 .LBE44
C:\Users\CYMR90~1\AppData\Local\Temp\ccsGRYiA.s:468    .text.cau_tdes_cbc:000000000000010c .LBB46
C:\Users\CYMR90~1\AppData\Local\Temp\ccsGRYiA.s:497    .text.cau_tdes_cbc:0000000000000146 .LBE46
C:\Users\CYMR90~1\AppData\Local\Temp\ccsGRYiA.s:509    .text.cau_tdes_cbc:000000000000015e .LBB48
C:\Users\CYMR90~1\AppData\Local\Temp\ccsGRYiA.s:538    .text.cau_tdes_cbc:0000000000000198 .LBE48
C:\Users\CYMR90~1\AppData\Local\Temp\ccsGRYiA.s:550    .text.cau_tdes_cbc:00000000000001b0 .LBB50
C:\Users\CYMR90~1\AppData\Local\Temp\ccsGRYiA.s:579    .text.cau_tdes_cbc:00000000000001ea .LBE50
C:\Users\CYMR90~1\AppData\Local\Temp\ccsGRYiA.s:591    .text.cau_tdes_cbc:0000000000000202 .LBB52
C:\Users\CYMR90~1\AppData\Local\Temp\ccsGRYiA.s:620    .text.cau_tdes_cbc:000000000000023c .LBE52
C:\Users\CYMR90~1\AppData\Local\Temp\ccsGRYiA.s:632    .text.cau_tdes_cbc:0000000000000258 .LBB54
C:\Users\CYMR90~1\AppData\Local\Temp\ccsGRYiA.s:661    .text.cau_tdes_cbc:0000000000000292 .LBE54
C:\Users\CYMR90~1\AppData\Local\Temp\ccsGRYiA.s:673    .text.cau_tdes_cbc:00000000000002aa .LBB56
C:\Users\CYMR90~1\AppData\Local\Temp\ccsGRYiA.s:702    .text.cau_tdes_cbc:00000000000002e4 .LBE56
C:\Users\CYMR90~1\AppData\Local\Temp\ccsGRYiA.s:21727  .debug_str:00000000000079a0 .LASF5609
C:\Users\CYMR90~1\AppData\Local\Temp\ccsGRYiA.s:14     .text.cau_tdes_ecb:0000000000000000 .LFB347
C:\Users\CYMR90~1\AppData\Local\Temp\ccsGRYiA.s:330    .text.cau_tdes_ecb:000000000000028a .LFE347
C:\Users\CYMR90~1\AppData\Local\Temp\ccsGRYiA.s:59     .text.cau_tdes_ecb:000000000000005e .LBB30
C:\Users\CYMR90~1\AppData\Local\Temp\ccsGRYiA.s:89     .text.cau_tdes_ecb:0000000000000098 .LBE30
C:\Users\CYMR90~1\AppData\Local\Temp\ccsGRYiA.s:101    .text.cau_tdes_ecb:00000000000000b0 .LBB32
C:\Users\CYMR90~1\AppData\Local\Temp\ccsGRYiA.s:130    .text.cau_tdes_ecb:00000000000000ea .LBE32
C:\Users\CYMR90~1\AppData\Local\Temp\ccsGRYiA.s:142    .text.cau_tdes_ecb:0000000000000102 .LBB34
C:\Users\CYMR90~1\AppData\Local\Temp\ccsGRYiA.s:171    .text.cau_tdes_ecb:000000000000013c .LBE34
C:\Users\CYMR90~1\AppData\Local\Temp\ccsGRYiA.s:183    .text.cau_tdes_ecb:0000000000000154 .LBB36
C:\Users\CYMR90~1\AppData\Local\Temp\ccsGRYiA.s:212    .text.cau_tdes_ecb:000000000000018e .LBE36
C:\Users\CYMR90~1\AppData\Local\Temp\ccsGRYiA.s:224    .text.cau_tdes_ecb:00000000000001a6 .LBB38
C:\Users\CYMR90~1\AppData\Local\Temp\ccsGRYiA.s:253    .text.cau_tdes_ecb:00000000000001e0 .LBE38
C:\Users\CYMR90~1\AppData\Local\Temp\ccsGRYiA.s:265    .text.cau_tdes_ecb:00000000000001f8 .LBB40
C:\Users\CYMR90~1\AppData\Local\Temp\ccsGRYiA.s:294    .text.cau_tdes_ecb:0000000000000232 .LBE40
C:\Users\CYMR90~1\AppData\Local\Temp\ccsGRYiA.s:30784  .debug_str:000000000002bf23 .LASF5614
C:\Users\CYMR90~1\AppData\Local\Temp\ccsGRYiA.s:26130  .debug_str:00000000000196c3 .LASF5615
C:\Users\CYMR90~1\AppData\Local\Temp\ccsGRYiA.s:20401  .debug_str:0000000000002524 .LASF5616
C:\Users\CYMR90~1\AppData\Local\Temp\ccsGRYiA.s:889    .debug_info:0000000000000000 .Ldebug_info0
C:\Users\CYMR90~1\AppData\Local\Temp\ccsGRYiA.s:2780   .debug_macro:0000000000000000 .Ldebug_macro2
C:\Users\CYMR90~1\AppData\Local\Temp\ccsGRYiA.s:26212  .debug_str:0000000000019c6e .LASF314
C:\Users\CYMR90~1\AppData\Local\Temp\ccsGRYiA.s:25542  .debug_str:0000000000017167 .LASF315
C:\Users\CYMR90~1\AppData\Local\Temp\ccsGRYiA.s:3727   .debug_macro:0000000000000000 .Ldebug_macro3
C:\Users\CYMR90~1\AppData\Local\Temp\ccsGRYiA.s:21985  .debug_str:0000000000008afe .LASF369
C:\Users\CYMR90~1\AppData\Local\Temp\ccsGRYiA.s:21545  .debug_str:0000000000006db6 .LASF370
C:\Users\CYMR90~1\AppData\Local\Temp\ccsGRYiA.s:25790  .debug_str:000000000001808c .LASF371
C:\Users\CYMR90~1\AppData\Local\Temp\ccsGRYiA.s:3891   .debug_macro:0000000000000000 .Ldebug_macro4
C:\Users\CYMR90~1\AppData\Local\Temp\ccsGRYiA.s:3911   .debug_macro:0000000000000000 .Ldebug_macro5
C:\Users\CYMR90~1\AppData\Local\Temp\ccsGRYiA.s:24443  .debug_str:0000000000012999 .LASF390
C:\Users\CYMR90~1\AppData\Local\Temp\ccsGRYiA.s:3955   .debug_macro:0000000000000000 .Ldebug_macro6
C:\Users\CYMR90~1\AppData\Local\Temp\ccsGRYiA.s:3969   .debug_macro:0000000000000000 .Ldebug_macro7
C:\Users\CYMR90~1\AppData\Local\Temp\ccsGRYiA.s:4037   .debug_macro:0000000000000000 .Ldebug_macro8
C:\Users\CYMR90~1\AppData\Local\Temp\ccsGRYiA.s:4063   .debug_macro:0000000000000000 .Ldebug_macro9
C:\Users\CYMR90~1\AppData\Local\Temp\ccsGRYiA.s:4092   .debug_macro:0000000000000000 .Ldebug_macro10
C:\Users\CYMR90~1\AppData\Local\Temp\ccsGRYiA.s:28430  .debug_str:00000000000227f6 .LASF433
C:\Users\CYMR90~1\AppData\Local\Temp\ccsGRYiA.s:4106   .debug_macro:0000000000000000 .Ldebug_macro11
C:\Users\CYMR90~1\AppData\Local\Temp\ccsGRYiA.s:4150   .debug_macro:0000000000000000 .Ldebug_macro12
C:\Users\CYMR90~1\AppData\Local\Temp\ccsGRYiA.s:4176   .debug_macro:0000000000000000 .Ldebug_macro13
C:\Users\CYMR90~1\AppData\Local\Temp\ccsGRYiA.s:29452  .debug_str:0000000000026a57 .LASF569
C:\Users\CYMR90~1\AppData\Local\Temp\ccsGRYiA.s:4547   .debug_macro:0000000000000000 .Ldebug_macro14
C:\Users\CYMR90~1\AppData\Local\Temp\ccsGRYiA.s:23967  .debug_str:00000000000109c9 .LASF572
C:\Users\CYMR90~1\AppData\Local\Temp\ccsGRYiA.s:28800  .debug_str:0000000000023e41 .LASF573
C:\Users\CYMR90~1\AppData\Local\Temp\ccsGRYiA.s:4558   .debug_macro:0000000000000000 .Ldebug_macro15
C:\Users\CYMR90~1\AppData\Local\Temp\ccsGRYiA.s:4572   .debug_macro:0000000000000000 .Ldebug_macro16
C:\Users\CYMR90~1\AppData\Local\Temp\ccsGRYiA.s:20495  .debug_str:0000000000002b2d .LASF578
C:\Users\CYMR90~1\AppData\Local\Temp\ccsGRYiA.s:4604   .debug_macro:0000000000000000 .Ldebug_macro17
C:\Users\CYMR90~1\AppData\Local\Temp\ccsGRYiA.s:4630   .debug_macro:0000000000000000 .Ldebug_macro18
C:\Users\CYMR90~1\AppData\Local\Temp\ccsGRYiA.s:4641   .debug_macro:0000000000000000 .Ldebug_macro19
C:\Users\CYMR90~1\AppData\Local\Temp\ccsGRYiA.s:4685   .debug_macro:0000000000000000 .Ldebug_macro20
C:\Users\CYMR90~1\AppData\Local\Temp\ccsGRYiA.s:4855   .debug_macro:0000000000000000 .Ldebug_macro21
C:\Users\CYMR90~1\AppData\Local\Temp\ccsGRYiA.s:4866   .debug_macro:0000000000000000 .Ldebug_macro22
C:\Users\CYMR90~1\AppData\Local\Temp\ccsGRYiA.s:24449  .debug_str:00000000000129f2 .LASF675
C:\Users\CYMR90~1\AppData\Local\Temp\ccsGRYiA.s:4922   .debug_macro:0000000000000000 .Ldebug_macro23
C:\Users\CYMR90~1\AppData\Local\Temp\ccsGRYiA.s:4939   .debug_macro:0000000000000000 .Ldebug_macro24
C:\Users\CYMR90~1\AppData\Local\Temp\ccsGRYiA.s:27620  .debug_str:000000000001f6ac .LASF693
C:\Users\CYMR90~1\AppData\Local\Temp\ccsGRYiA.s:25796  .debug_str:00000000000180bd .LASF694
C:\Users\CYMR90~1\AppData\Local\Temp\ccsGRYiA.s:4983   .debug_macro:0000000000000000 .Ldebug_macro25
C:\Users\CYMR90~1\AppData\Local\Temp\ccsGRYiA.s:21003  .debug_str:0000000000004c82 .LASF700
C:\Users\CYMR90~1\AppData\Local\Temp\ccsGRYiA.s:22121  .debug_str:0000000000009334 .LASF701
C:\Users\CYMR90~1\AppData\Local\Temp\ccsGRYiA.s:5003   .debug_macro:0000000000000000 .Ldebug_macro26
C:\Users\CYMR90~1\AppData\Local\Temp\ccsGRYiA.s:5014   .debug_macro:0000000000000000 .Ldebug_macro27
C:\Users\CYMR90~1\AppData\Local\Temp\ccsGRYiA.s:5058   .debug_macro:0000000000000000 .Ldebug_macro28
C:\Users\CYMR90~1\AppData\Local\Temp\ccsGRYiA.s:21373  .debug_str:0000000000006328 .LASF749
C:\Users\CYMR90~1\AppData\Local\Temp\ccsGRYiA.s:5159   .debug_macro:0000000000000000 .Ldebug_macro29
C:\Users\CYMR90~1\AppData\Local\Temp\ccsGRYiA.s:5176   .debug_macro:0000000000000000 .Ldebug_macro30
C:\Users\CYMR90~1\AppData\Local\Temp\ccsGRYiA.s:19861  .debug_str:0000000000000418 .LASF763
C:\Users\CYMR90~1\AppData\Local\Temp\ccsGRYiA.s:21179  .debug_str:0000000000005730 .LASF764
C:\Users\CYMR90~1\AppData\Local\Temp\ccsGRYiA.s:5208   .debug_macro:0000000000000000 .Ldebug_macro31
C:\Users\CYMR90~1\AppData\Local\Temp\ccsGRYiA.s:5222   .debug_macro:0000000000000000 .Ldebug_macro32
C:\Users\CYMR90~1\AppData\Local\Temp\ccsGRYiA.s:5392   .debug_macro:0000000000000000 .Ldebug_macro33
C:\Users\CYMR90~1\AppData\Local\Temp\ccsGRYiA.s:23635  .debug_str:000000000000f46c .LASF850
C:\Users\CYMR90~1\AppData\Local\Temp\ccsGRYiA.s:26008  .debug_str:0000000000018e72 .LASF851
C:\Users\CYMR90~1\AppData\Local\Temp\ccsGRYiA.s:5478   .debug_macro:0000000000000000 .Ldebug_macro34
C:\Users\CYMR90~1\AppData\Local\Temp\ccsGRYiA.s:5603   .debug_macro:0000000000000000 .Ldebug_macro35
C:\Users\CYMR90~1\AppData\Local\Temp\ccsGRYiA.s:20141  .debug_str:000000000000152f .LASF951
C:\Users\CYMR90~1\AppData\Local\Temp\ccsGRYiA.s:5815   .debug_macro:0000000000000000 .Ldebug_macro36
C:\Users\CYMR90~1\AppData\Local\Temp\ccsGRYiA.s:21871  .debug_str:000000000000841c .LASF957
C:\Users\CYMR90~1\AppData\Local\Temp\ccsGRYiA.s:21425  .debug_str:0000000000006615 .LASF958
C:\Users\CYMR90~1\AppData\Local\Temp\ccsGRYiA.s:20309  .debug_str:0000000000002007 .LASF959
C:\Users\CYMR90~1\AppData\Local\Temp\ccsGRYiA.s:5835   .debug_macro:0000000000000000 .Ldebug_macro37
C:\Users\CYMR90~1\AppData\Local\Temp\ccsGRYiA.s:5927   .debug_macro:0000000000000000 .Ldebug_macro38
C:\Users\CYMR90~1\AppData\Local\Temp\ccsGRYiA.s:7573   .debug_macro:0000000000000000 .Ldebug_macro39
C:\Users\CYMR90~1\AppData\Local\Temp\ccsGRYiA.s:7665   .debug_macro:0000000000000000 .Ldebug_macro40
C:\Users\CYMR90~1\AppData\Local\Temp\ccsGRYiA.s:7721   .debug_macro:0000000000000000 .Ldebug_macro41
C:\Users\CYMR90~1\AppData\Local\Temp\ccsGRYiA.s:7735   .debug_macro:0000000000000000 .Ldebug_macro42
C:\Users\CYMR90~1\AppData\Local\Temp\ccsGRYiA.s:25335  .debug_str:0000000000016202 .LASF1655
C:\Users\CYMR90~1\AppData\Local\Temp\ccsGRYiA.s:22245  .debug_str:0000000000009b54 .LASF1656
C:\Users\CYMR90~1\AppData\Local\Temp\ccsGRYiA.s:7959   .debug_macro:0000000000000000 .Ldebug_macro43
C:\Users\CYMR90~1\AppData\Local\Temp\ccsGRYiA.s:8006   .debug_macro:0000000000000000 .Ldebug_macro44
C:\Users\CYMR90~1\AppData\Local\Temp\ccsGRYiA.s:8161   .debug_macro:0000000000000000 .Ldebug_macro45
C:\Users\CYMR90~1\AppData\Local\Temp\ccsGRYiA.s:8217   .debug_macro:0000000000000000 .Ldebug_macro46
C:\Users\CYMR90~1\AppData\Local\Temp\ccsGRYiA.s:8228   .debug_macro:0000000000000000 .Ldebug_macro47
C:\Users\CYMR90~1\AppData\Local\Temp\ccsGRYiA.s:30220  .debug_str:0000000000029be6 .LASF1782
C:\Users\CYMR90~1\AppData\Local\Temp\ccsGRYiA.s:25099  .debug_str:000000000001537e .LASF1783
C:\Users\CYMR90~1\AppData\Local\Temp\ccsGRYiA.s:8359   .debug_macro:0000000000000000 .Ldebug_macro48
C:\Users\CYMR90~1\AppData\Local\Temp\ccsGRYiA.s:8931   .debug_macro:0000000000000000 .Ldebug_macro49
C:\Users\CYMR90~1\AppData\Local\Temp\ccsGRYiA.s:8960   .debug_macro:0000000000000000 .Ldebug_macro50
C:\Users\CYMR90~1\AppData\Local\Temp\ccsGRYiA.s:9037   .debug_macro:0000000000000000 .Ldebug_macro51
C:\Users\CYMR90~1\AppData\Local\Temp\ccsGRYiA.s:9570   .debug_macro:0000000000000000 .Ldebug_macro52
C:\Users\CYMR90~1\AppData\Local\Temp\ccsGRYiA.s:9593   .debug_macro:0000000000000000 .Ldebug_macro53
C:\Users\CYMR90~1\AppData\Local\Temp\ccsGRYiA.s:9859   .debug_macro:0000000000000000 .Ldebug_macro54
C:\Users\CYMR90~1\AppData\Local\Temp\ccsGRYiA.s:10338  .debug_macro:0000000000000000 .Ldebug_macro55
C:\Users\CYMR90~1\AppData\Local\Temp\ccsGRYiA.s:10667  .debug_macro:0000000000000000 .Ldebug_macro56
C:\Users\CYMR90~1\AppData\Local\Temp\ccsGRYiA.s:10756  .debug_macro:0000000000000000 .Ldebug_macro57
C:\Users\CYMR90~1\AppData\Local\Temp\ccsGRYiA.s:11571  .debug_macro:0000000000000000 .Ldebug_macro58
C:\Users\CYMR90~1\AppData\Local\Temp\ccsGRYiA.s:11762  .debug_macro:0000000000000000 .Ldebug_macro59
C:\Users\CYMR90~1\AppData\Local\Temp\ccsGRYiA.s:12265  .debug_macro:0000000000000000 .Ldebug_macro60
C:\Users\CYMR90~1\AppData\Local\Temp\ccsGRYiA.s:12411  .debug_macro:0000000000000000 .Ldebug_macro61
C:\Users\CYMR90~1\AppData\Local\Temp\ccsGRYiA.s:12941  .debug_macro:0000000000000000 .Ldebug_macro62
C:\Users\CYMR90~1\AppData\Local\Temp\ccsGRYiA.s:13363  .debug_macro:0000000000000000 .Ldebug_macro63
C:\Users\CYMR90~1\AppData\Local\Temp\ccsGRYiA.s:16137  .debug_macro:0000000000000000 .Ldebug_macro64
C:\Users\CYMR90~1\AppData\Local\Temp\ccsGRYiA.s:17213  .debug_macro:0000000000000000 .Ldebug_macro65
C:\Users\CYMR90~1\AppData\Local\Temp\ccsGRYiA.s:17482  .debug_macro:0000000000000000 .Ldebug_macro66
C:\Users\CYMR90~1\AppData\Local\Temp\ccsGRYiA.s:17754  .debug_macro:0000000000000000 .Ldebug_macro67
C:\Users\CYMR90~1\AppData\Local\Temp\ccsGRYiA.s:18782  .debug_macro:0000000000000000 .Ldebug_macro68
C:\Users\CYMR90~1\AppData\Local\Temp\ccsGRYiA.s:18826  .debug_macro:0000000000000000 .Ldebug_macro69
C:\Users\CYMR90~1\AppData\Local\Temp\ccsGRYiA.s:19452  .debug_macro:0000000000000000 .Ldebug_macro70
C:\Users\CYMR90~1\AppData\Local\Temp\ccsGRYiA.s:19511  .debug_macro:0000000000000000 .Ldebug_macro71
C:\Users\CYMR90~1\AppData\Local\Temp\ccsGRYiA.s:21737  .debug_str:0000000000007a7c .LASF5556
C:\Users\CYMR90~1\AppData\Local\Temp\ccsGRYiA.s:21161  .debug_str:00000000000055f5 .LASF0
C:\Users\CYMR90~1\AppData\Local\Temp\ccsGRYiA.s:25524  .debug_str:000000000001706e .LASF1
C:\Users\CYMR90~1\AppData\Local\Temp\ccsGRYiA.s:23799  .debug_str:000000000000ff1a .LASF2
C:\Users\CYMR90~1\AppData\Local\Temp\ccsGRYiA.s:23855  .debug_str:0000000000010296 .LASF3
C:\Users\CYMR90~1\AppData\Local\Temp\ccsGRYiA.s:25143  .debug_str:00000000000155c1 .LASF4
C:\Users\CYMR90~1\AppData\Local\Temp\ccsGRYiA.s:30610  .debug_str:000000000002b372 .LASF5
C:\Users\CYMR90~1\AppData\Local\Temp\ccsGRYiA.s:21401  .debug_str:00000000000064d8 .LASF6
C:\Users\CYMR90~1\AppData\Local\Temp\ccsGRYiA.s:20645  .debug_str:00000000000034d3 .LASF7
C:\Users\CYMR90~1\AppData\Local\Temp\ccsGRYiA.s:28916  .debug_str:0000000000024694 .LASF8
C:\Users\CYMR90~1\AppData\Local\Temp\ccsGRYiA.s:26852  .debug_str:000000000001c59a .LASF9
C:\Users\CYMR90~1\AppData\Local\Temp\ccsGRYiA.s:26208  .debug_str:0000000000019c51 .LASF10
C:\Users\CYMR90~1\AppData\Local\Temp\ccsGRYiA.s:26062  .debug_str:00000000000192bc .LASF11
C:\Users\CYMR90~1\AppData\Local\Temp\ccsGRYiA.s:30452  .debug_str:000000000002a9c6 .LASF12
C:\Users\CYMR90~1\AppData\Local\Temp\ccsGRYiA.s:26074  .debug_str:0000000000019370 .LASF13
C:\Users\CYMR90~1\AppData\Local\Temp\ccsGRYiA.s:22399  .debug_str:000000000000a512 .LASF14
C:\Users\CYMR90~1\AppData\Local\Temp\ccsGRYiA.s:27418  .debug_str:000000000001eab5 .LASF15
C:\Users\CYMR90~1\AppData\Local\Temp\ccsGRYiA.s:28172  .debug_str:000000000002186f .LASF16
C:\Users\CYMR90~1\AppData\Local\Temp\ccsGRYiA.s:22447  .debug_str:000000000000a7f6 .LASF17
C:\Users\CYMR90~1\AppData\Local\Temp\ccsGRYiA.s:29188  .debug_str:0000000000025a0f .LASF18
C:\Users\CYMR90~1\AppData\Local\Temp\ccsGRYiA.s:23413  .debug_str:000000000000e6d7 .LASF19
C:\Users\CYMR90~1\AppData\Local\Temp\ccsGRYiA.s:20479  .debug_str:0000000000002a2e .LASF20
C:\Users\CYMR90~1\AppData\Local\Temp\ccsGRYiA.s:25880  .debug_str:00000000000185f9 .LASF21
C:\Users\CYMR90~1\AppData\Local\Temp\ccsGRYiA.s:25878  .debug_str:00000000000185df .LASF22
C:\Users\CYMR90~1\AppData\Local\Temp\ccsGRYiA.s:28478  .debug_str:0000000000022b10 .LASF23
C:\Users\CYMR90~1\AppData\Local\Temp\ccsGRYiA.s:26806  .debug_str:000000000001c318 .LASF24
C:\Users\CYMR90~1\AppData\Local\Temp\ccsGRYiA.s:20701  .debug_str:000000000000386a .LASF25
C:\Users\CYMR90~1\AppData\Local\Temp\ccsGRYiA.s:25271  .debug_str:0000000000015d92 .LASF26
C:\Users\CYMR90~1\AppData\Local\Temp\ccsGRYiA.s:28482  .debug_str:0000000000022b46 .LASF27
C:\Users\CYMR90~1\AppData\Local\Temp\ccsGRYiA.s:28180  .debug_str:00000000000218c7 .LASF28
C:\Users\CYMR90~1\AppData\Local\Temp\ccsGRYiA.s:21113  .debug_str:0000000000005323 .LASF29
C:\Users\CYMR90~1\AppData\Local\Temp\ccsGRYiA.s:27210  .debug_str:000000000001ddf8 .LASF30
C:\Users\CYMR90~1\AppData\Local\Temp\ccsGRYiA.s:20091  .debug_str:000000000000125c .LASF31
C:\Users\CYMR90~1\AppData\Local\Temp\ccsGRYiA.s:27654  .debug_str:000000000001f8a5 .LASF32
C:\Users\CYMR90~1\AppData\Local\Temp\ccsGRYiA.s:22287  .debug_str:0000000000009dbf .LASF33
C:\Users\CYMR90~1\AppData\Local\Temp\ccsGRYiA.s:22137  .debug_str:000000000000941f .LASF34
C:\Users\CYMR90~1\AppData\Local\Temp\ccsGRYiA.s:23443  .debug_str:000000000000e8a2 .LASF35
C:\Users\CYMR90~1\AppData\Local\Temp\ccsGRYiA.s:26316  .debug_str:000000000001a27d .LASF36
C:\Users\CYMR90~1\AppData\Local\Temp\ccsGRYiA.s:21639  .debug_str:0000000000007406 .LASF37
C:\Users\CYMR90~1\AppData\Local\Temp\ccsGRYiA.s:23797  .debug_str:000000000000fef7 .LASF38
C:\Users\CYMR90~1\AppData\Local\Temp\ccsGRYiA.s:20667  .debug_str:0000000000003600 .LASF39
C:\Users\CYMR90~1\AppData\Local\Temp\ccsGRYiA.s:20471  .debug_str:000000000000299c .LASF40
C:\Users\CYMR90~1\AppData\Local\Temp\ccsGRYiA.s:23957  .debug_str:000000000001093c .LASF41
C:\Users\CYMR90~1\AppData\Local\Temp\ccsGRYiA.s:24377  .debug_str:0000000000012528 .LASF42
C:\Users\CYMR90~1\AppData\Local\Temp\ccsGRYiA.s:24649  .debug_str:000000000001375d .LASF43
C:\Users\CYMR90~1\AppData\Local\Temp\ccsGRYiA.s:26306  .debug_str:000000000001a1eb .LASF44
C:\Users\CYMR90~1\AppData\Local\Temp\ccsGRYiA.s:24239  .debug_str:0000000000011bdc .LASF45
C:\Users\CYMR90~1\AppData\Local\Temp\ccsGRYiA.s:20935  .debug_str:00000000000047ce .LASF46
C:\Users\CYMR90~1\AppData\Local\Temp\ccsGRYiA.s:27216  .debug_str:000000000001de5d .LASF47
C:\Users\CYMR90~1\AppData\Local\Temp\ccsGRYiA.s:28918  .debug_str:00000000000246a9 .LASF48
C:\Users\CYMR90~1\AppData\Local\Temp\ccsGRYiA.s:23181  .debug_str:000000000000d8b8 .LASF49
C:\Users\CYMR90~1\AppData\Local\Temp\ccsGRYiA.s:20305  .debug_str:0000000000001fd4 .LASF50
C:\Users\CYMR90~1\AppData\Local\Temp\ccsGRYiA.s:19815  .debug_str:0000000000000131 .LASF51
C:\Users\CYMR90~1\AppData\Local\Temp\ccsGRYiA.s:30232  .debug_str:0000000000029c7b .LASF52
C:\Users\CYMR90~1\AppData\Local\Temp\ccsGRYiA.s:22987  .debug_str:000000000000cc1d .LASF53
C:\Users\CYMR90~1\AppData\Local\Temp\ccsGRYiA.s:24727  .debug_str:0000000000013bf9 .LASF54
C:\Users\CYMR90~1\AppData\Local\Temp\ccsGRYiA.s:23763  .debug_str:000000000000fca6 .LASF55
C:\Users\CYMR90~1\AppData\Local\Temp\ccsGRYiA.s:21725  .debug_str:0000000000007973 .LASF56
C:\Users\CYMR90~1\AppData\Local\Temp\ccsGRYiA.s:25125  .debug_str:00000000000154c5 .LASF57
C:\Users\CYMR90~1\AppData\Local\Temp\ccsGRYiA.s:20043  .debug_str:0000000000000f8c .LASF58
C:\Users\CYMR90~1\AppData\Local\Temp\ccsGRYiA.s:29192  .debug_str:0000000000025a4f .LASF59
C:\Users\CYMR90~1\AppData\Local\Temp\ccsGRYiA.s:24657  .debug_str:00000000000137cc .LASF60
C:\Users\CYMR90~1\AppData\Local\Temp\ccsGRYiA.s:26588  .debug_str:000000000001b5e5 .LASF61
C:\Users\CYMR90~1\AppData\Local\Temp\ccsGRYiA.s:20535  .debug_str:0000000000002d8c .LASF62
C:\Users\CYMR90~1\AppData\Local\Temp\ccsGRYiA.s:23175  .debug_str:000000000000d874 .LASF63
C:\Users\CYMR90~1\AppData\Local\Temp\ccsGRYiA.s:22903  .debug_str:000000000000c5d4 .LASF64
C:\Users\CYMR90~1\AppData\Local\Temp\ccsGRYiA.s:26292  .debug_str:000000000001a122 .LASF65
C:\Users\CYMR90~1\AppData\Local\Temp\ccsGRYiA.s:24959  .debug_str:0000000000014a28 .LASF66
C:\Users\CYMR90~1\AppData\Local\Temp\ccsGRYiA.s:30016  .debug_str:0000000000028f5d .LASF67
C:\Users\CYMR90~1\AppData\Local\Temp\ccsGRYiA.s:30454  .debug_str:000000000002a9d9 .LASF68
C:\Users\CYMR90~1\AppData\Local\Temp\ccsGRYiA.s:24193  .debug_str:000000000001189f .LASF69
C:\Users\CYMR90~1\AppData\Local\Temp\ccsGRYiA.s:23335  .debug_str:000000000000e1fd .LASF70
C:\Users\CYMR90~1\AppData\Local\Temp\ccsGRYiA.s:20947  .debug_str:0000000000004921 .LASF71
C:\Users\CYMR90~1\AppData\Local\Temp\ccsGRYiA.s:24227  .debug_str:0000000000011b19 .LASF72
C:\Users\CYMR90~1\AppData\Local\Temp\ccsGRYiA.s:23863  .debug_str:0000000000010307 .LASF73
C:\Users\CYMR90~1\AppData\Local\Temp\ccsGRYiA.s:24461  .debug_str:0000000000012ae3 .LASF74
C:\Users\CYMR90~1\AppData\Local\Temp\ccsGRYiA.s:24299  .debug_str:0000000000011fad .LASF75
C:\Users\CYMR90~1\AppData\Local\Temp\ccsGRYiA.s:24401  .debug_str:00000000000126ce .LASF76
C:\Users\CYMR90~1\AppData\Local\Temp\ccsGRYiA.s:28836  .debug_str:0000000000024127 .LASF77
C:\Users\CYMR90~1\AppData\Local\Temp\ccsGRYiA.s:26782  .debug_str:000000000001c1b2 .LASF78
C:\Users\CYMR90~1\AppData\Local\Temp\ccsGRYiA.s:27178  .debug_str:000000000001dc0e .LASF79
C:\Users\CYMR90~1\AppData\Local\Temp\ccsGRYiA.s:29996  .debug_str:0000000000028e0e .LASF80
C:\Users\CYMR90~1\AppData\Local\Temp\ccsGRYiA.s:22239  .debug_str:0000000000009adc .LASF81
C:\Users\CYMR90~1\AppData\Local\Temp\ccsGRYiA.s:22433  .debug_str:000000000000a6c2 .LASF82
C:\Users\CYMR90~1\AppData\Local\Temp\ccsGRYiA.s:30126  .debug_str:0000000000029670 .LASF83
C:\Users\CYMR90~1\AppData\Local\Temp\ccsGRYiA.s:22179  .debug_str:00000000000096c1 .LASF84
C:\Users\CYMR90~1\AppData\Local\Temp\ccsGRYiA.s:21461  .debug_str:0000000000006870 .LASF85
C:\Users\CYMR90~1\AppData\Local\Temp\ccsGRYiA.s:26490  .debug_str:000000000001af90 .LASF86
C:\Users\CYMR90~1\AppData\Local\Temp\ccsGRYiA.s:30156  .debug_str:00000000000297ef .LASF87
C:\Users\CYMR90~1\AppData\Local\Temp\ccsGRYiA.s:27596  .debug_str:000000000001f53d .LASF88
C:\Users\CYMR90~1\AppData\Local\Temp\ccsGRYiA.s:26408  .debug_str:000000000001aa4e .LASF89
C:\Users\CYMR90~1\AppData\Local\Temp\ccsGRYiA.s:27624  .debug_str:000000000001f6df .LASF90
C:\Users\CYMR90~1\AppData\Local\Temp\ccsGRYiA.s:30360  .debug_str:000000000002a449 .LASF91
C:\Users\CYMR90~1\AppData\Local\Temp\ccsGRYiA.s:29200  .debug_str:0000000000025ac7 .LASF92
C:\Users\CYMR90~1\AppData\Local\Temp\ccsGRYiA.s:22315  .debug_str:0000000000009f98 .LASF93
C:\Users\CYMR90~1\AppData\Local\Temp\ccsGRYiA.s:27058  .debug_str:000000000001d472 .LASF94
C:\Users\CYMR90~1\AppData\Local\Temp\ccsGRYiA.s:24687  .debug_str:00000000000139ae .LASF95
C:\Users\CYMR90~1\AppData\Local\Temp\ccsGRYiA.s:24669  .debug_str:0000000000013895 .LASF96
C:\Users\CYMR90~1\AppData\Local\Temp\ccsGRYiA.s:30660  .debug_str:000000000002b6d6 .LASF97
C:\Users\CYMR90~1\AppData\Local\Temp\ccsGRYiA.s:24313  .debug_str:0000000000012125 .LASF98
C:\Users\CYMR90~1\AppData\Local\Temp\ccsGRYiA.s:28198  .debug_str:00000000000219eb .LASF99
C:\Users\CYMR90~1\AppData\Local\Temp\ccsGRYiA.s:21673  .debug_str:0000000000007612 .LASF100
C:\Users\CYMR90~1\AppData\Local\Temp\ccsGRYiA.s:23811  .debug_str:000000000000ffa5 .LASF101
C:\Users\CYMR90~1\AppData\Local\Temp\ccsGRYiA.s:25189  .debug_str:0000000000015836 .LASF102
C:\Users\CYMR90~1\AppData\Local\Temp\ccsGRYiA.s:24083  .debug_str:0000000000011100 .LASF103
C:\Users\CYMR90~1\AppData\Local\Temp\ccsGRYiA.s:23089  .debug_str:000000000000d2bb .LASF104
C:\Users\CYMR90~1\AppData\Local\Temp\ccsGRYiA.s:24249  .debug_str:0000000000011c73 .LASF105
C:\Users\CYMR90~1\AppData\Local\Temp\ccsGRYiA.s:20995  .debug_str:0000000000004c0d .LASF106
C:\Users\CYMR90~1\AppData\Local\Temp\ccsGRYiA.s:24077  .debug_str:000000000001109b .LASF107
C:\Users\CYMR90~1\AppData\Local\Temp\ccsGRYiA.s:23085  .debug_str:000000000000d297 .LASF108
C:\Users\CYMR90~1\AppData\Local\Temp\ccsGRYiA.s:24517  .debug_str:0000000000012e54 .LASF109
C:\Users\CYMR90~1\AppData\Local\Temp\ccsGRYiA.s:23467  .debug_str:000000000000ea3c .LASF110
C:\Users\CYMR90~1\AppData\Local\Temp\ccsGRYiA.s:25930  .debug_str:00000000000188fa .LASF111
C:\Users\CYMR90~1\AppData\Local\Temp\ccsGRYiA.s:22571  .debug_str:000000000000b041 .LASF112
C:\Users\CYMR90~1\AppData\Local\Temp\ccsGRYiA.s:22313  .debug_str:0000000000009f6f .LASF113
C:\Users\CYMR90~1\AppData\Local\Temp\ccsGRYiA.s:25221  .debug_str:0000000000015a36 .LASF114
C:\Users\CYMR90~1\AppData\Local\Temp\ccsGRYiA.s:30056  .debug_str:00000000000291b8 .LASF115
C:\Users\CYMR90~1\AppData\Local\Temp\ccsGRYiA.s:28718  .debug_str:0000000000023966 .LASF116
C:\Users\CYMR90~1\AppData\Local\Temp\ccsGRYiA.s:22071  .debug_str:0000000000009045 .LASF117
C:\Users\CYMR90~1\AppData\Local\Temp\ccsGRYiA.s:26648  .debug_str:000000000001b98b .LASF118
C:\Users\CYMR90~1\AppData\Local\Temp\ccsGRYiA.s:30770  .debug_str:000000000002be4a .LASF119
C:\Users\CYMR90~1\AppData\Local\Temp\ccsGRYiA.s:23385  .debug_str:000000000000e4d1 .LASF120
C:\Users\CYMR90~1\AppData\Local\Temp\ccsGRYiA.s:28818  .debug_str:0000000000023f29 .LASF121
C:\Users\CYMR90~1\AppData\Local\Temp\ccsGRYiA.s:22865  .debug_str:000000000000c387 .LASF122
C:\Users\CYMR90~1\AppData\Local\Temp\ccsGRYiA.s:22973  .debug_str:000000000000cb5f .LASF123
C:\Users\CYMR90~1\AppData\Local\Temp\ccsGRYiA.s:20641  .debug_str:0000000000003494 .LASF124
C:\Users\CYMR90~1\AppData\Local\Temp\ccsGRYiA.s:20909  .debug_str:000000000000460c .LASF125
C:\Users\CYMR90~1\AppData\Local\Temp\ccsGRYiA.s:29736  .debug_str:0000000000027c71 .LASF126
C:\Users\CYMR90~1\AppData\Local\Temp\ccsGRYiA.s:24255  .debug_str:0000000000011cb1 .LASF127
C:\Users\CYMR90~1\AppData\Local\Temp\ccsGRYiA.s:27032  .debug_str:000000000001d2f1 .LASF128
C:\Users\CYMR90~1\AppData\Local\Temp\ccsGRYiA.s:22145  .debug_str:0000000000009497 .LASF129
C:\Users\CYMR90~1\AppData\Local\Temp\ccsGRYiA.s:29314  .debug_str:00000000000261a6 .LASF130
C:\Users\CYMR90~1\AppData\Local\Temp\ccsGRYiA.s:29614  .debug_str:000000000002747e .LASF131
C:\Users\CYMR90~1\AppData\Local\Temp\ccsGRYiA.s:29428  .debug_str:00000000000268d1 .LASF132
C:\Users\CYMR90~1\AppData\Local\Temp\ccsGRYiA.s:23359  .debug_str:000000000000e33a .LASF133
C:\Users\CYMR90~1\AppData\Local\Temp\ccsGRYiA.s:28734  .debug_str:0000000000023a3f .LASF134
C:\Users\CYMR90~1\AppData\Local\Temp\ccsGRYiA.s:20901  .debug_str:0000000000004583 .LASF135
C:\Users\CYMR90~1\AppData\Local\Temp\ccsGRYiA.s:21773  .debug_str:0000000000007c7c .LASF136
C:\Users\CYMR90~1\AppData\Local\Temp\ccsGRYiA.s:26792  .debug_str:000000000001c266 .LASF137
C:\Users\CYMR90~1\AppData\Local\Temp\ccsGRYiA.s:24513  .debug_str:0000000000012e24 .LASF138
C:\Users\CYMR90~1\AppData\Local\Temp\ccsGRYiA.s:29946  .debug_str:0000000000028afd .LASF139
C:\Users\CYMR90~1\AppData\Local\Temp\ccsGRYiA.s:29086  .debug_str:00000000000252ce .LASF140
C:\Users\CYMR90~1\AppData\Local\Temp\ccsGRYiA.s:26740  .debug_str:000000000001bf26 .LASF141
C:\Users\CYMR90~1\AppData\Local\Temp\ccsGRYiA.s:22275  .debug_str:0000000000009d00 .LASF142
C:\Users\CYMR90~1\AppData\Local\Temp\ccsGRYiA.s:30518  .debug_str:000000000002ad81 .LASF143
C:\Users\CYMR90~1\AppData\Local\Temp\ccsGRYiA.s:25902  .debug_str:000000000001870d .LASF144
C:\Users\CYMR90~1\AppData\Local\Temp\ccsGRYiA.s:24973  .debug_str:0000000000014b2c .LASF145
C:\Users\CYMR90~1\AppData\Local\Temp\ccsGRYiA.s:22937  .debug_str:000000000000c893 .LASF146
C:\Users\CYMR90~1\AppData\Local\Temp\ccsGRYiA.s:20945  .debug_str:000000000000490a .LASF147
C:\Users\CYMR90~1\AppData\Local\Temp\ccsGRYiA.s:23509  .debug_str:000000000000eceb .LASF148
C:\Users\CYMR90~1\AppData\Local\Temp\ccsGRYiA.s:25882  .debug_str:000000000001860d .LASF149
C:\Users\CYMR90~1\AppData\Local\Temp\ccsGRYiA.s:19889  .debug_str:0000000000000571 .LASF150
C:\Users\CYMR90~1\AppData\Local\Temp\ccsGRYiA.s:30998  .debug_str:000000000002cd31 .LASF151
C:\Users\CYMR90~1\AppData\Local\Temp\ccsGRYiA.s:24507  .debug_str:0000000000012da2 .LASF152
C:\Users\CYMR90~1\AppData\Local\Temp\ccsGRYiA.s:29092  .debug_str:0000000000025321 .LASF153
C:\Users\CYMR90~1\AppData\Local\Temp\ccsGRYiA.s:26936  .debug_str:000000000001cb80 .LASF154
C:\Users\CYMR90~1\AppData\Local\Temp\ccsGRYiA.s:23919  .debug_str:00000000000106fd .LASF155
C:\Users\CYMR90~1\AppData\Local\Temp\ccsGRYiA.s:26950  .debug_str:000000000001cc6d .LASF156
C:\Users\CYMR90~1\AppData\Local\Temp\ccsGRYiA.s:27064  .debug_str:000000000001d4da .LASF157
C:\Users\CYMR90~1\AppData\Local\Temp\ccsGRYiA.s:22795  .debug_str:000000000000bf2e .LASF158
C:\Users\CYMR90~1\AppData\Local\Temp\ccsGRYiA.s:21875  .debug_str:000000000000843e .LASF159
C:\Users\CYMR90~1\AppData\Local\Temp\ccsGRYiA.s:26594  .debug_str:000000000001b639 .LASF160
C:\Users\CYMR90~1\AppData\Local\Temp\ccsGRYiA.s:28004  .debug_str:0000000000020e11 .LASF161
C:\Users\CYMR90~1\AppData\Local\Temp\ccsGRYiA.s:26200  .debug_str:0000000000019bbf .LASF162
C:\Users\CYMR90~1\AppData\Local\Temp\ccsGRYiA.s:28726  .debug_str:00000000000239d8 .LASF163
C:\Users\CYMR90~1\AppData\Local\Temp\ccsGRYiA.s:30346  .debug_str:000000000002a37b .LASF164
C:\Users\CYMR90~1\AppData\Local\Temp\ccsGRYiA.s:21629  .debug_str:0000000000007382 .LASF165
C:\Users\CYMR90~1\AppData\Local\Temp\ccsGRYiA.s:30044  .debug_str:0000000000029129 .LASF166
C:\Users\CYMR90~1\AppData\Local\Temp\ccsGRYiA.s:29870  .debug_str:0000000000028627 .LASF167
C:\Users\CYMR90~1\AppData\Local\Temp\ccsGRYiA.s:28648  .debug_str:00000000000234ea .LASF168
C:\Users\CYMR90~1\AppData\Local\Temp\ccsGRYiA.s:25666  .debug_str:00000000000178e5 .LASF169
C:\Users\CYMR90~1\AppData\Local\Temp\ccsGRYiA.s:29490  .debug_str:0000000000026c76 .LASF170
C:\Users\CYMR90~1\AppData\Local\Temp\ccsGRYiA.s:25297  .debug_str:0000000000015f3e .LASF171
C:\Users\CYMR90~1\AppData\Local\Temp\ccsGRYiA.s:26858  .debug_str:000000000001c5ef .LASF172
C:\Users\CYMR90~1\AppData\Local\Temp\ccsGRYiA.s:22267  .debug_str:0000000000009c8c .LASF173
C:\Users\CYMR90~1\AppData\Local\Temp\ccsGRYiA.s:28540  .debug_str:0000000000022e98 .LASF174
C:\Users\CYMR90~1\AppData\Local\Temp\ccsGRYiA.s:21291  .debug_str:0000000000005df1 .LASF175
C:\Users\CYMR90~1\AppData\Local\Temp\ccsGRYiA.s:22113  .debug_str:00000000000092cb .LASF176
C:\Users\CYMR90~1\AppData\Local\Temp\ccsGRYiA.s:20779  .debug_str:0000000000003d48 .LASF177
C:\Users\CYMR90~1\AppData\Local\Temp\ccsGRYiA.s:26070  .debug_str:000000000001932e .LASF178
C:\Users\CYMR90~1\AppData\Local\Temp\ccsGRYiA.s:23027  .debug_str:000000000000cebf .LASF179
C:\Users\CYMR90~1\AppData\Local\Temp\ccsGRYiA.s:20299  .debug_str:0000000000001f4f .LASF180
C:\Users\CYMR90~1\AppData\Local\Temp\ccsGRYiA.s:30656  .debug_str:000000000002b6ab .LASF181
C:\Users\CYMR90~1\AppData\Local\Temp\ccsGRYiA.s:20077  .debug_str:00000000000011b1 .LASF182
C:\Users\CYMR90~1\AppData\Local\Temp\ccsGRYiA.s:24627  .debug_str:00000000000135d2 .LASF183
C:\Users\CYMR90~1\AppData\Local\Temp\ccsGRYiA.s:25037  .debug_str:0000000000014f6a .LASF184
C:\Users\CYMR90~1\AppData\Local\Temp\ccsGRYiA.s:29880  .debug_str:00000000000286d6 .LASF185
C:\Users\CYMR90~1\AppData\Local\Temp\ccsGRYiA.s:23129  .debug_str:000000000000d5e4 .LASF186
C:\Users\CYMR90~1\AppData\Local\Temp\ccsGRYiA.s:21615  .debug_str:000000000000725c .LASF187
C:\Users\CYMR90~1\AppData\Local\Temp\ccsGRYiA.s:27574  .debug_str:000000000001f423 .LASF188
C:\Users\CYMR90~1\AppData\Local\Temp\ccsGRYiA.s:23405  .debug_str:000000000000e662 .LASF189
C:\Users\CYMR90~1\AppData\Local\Temp\ccsGRYiA.s:24733  .debug_str:0000000000013c58 .LASF190
C:\Users\CYMR90~1\AppData\Local\Temp\ccsGRYiA.s:28062  .debug_str:0000000000021142 .LASF191
C:\Users\CYMR90~1\AppData\Local\Temp\ccsGRYiA.s:25455  .debug_str:0000000000016a06 .LASF192
C:\Users\CYMR90~1\AppData\Local\Temp\ccsGRYiA.s:28292  .debug_str:0000000000021fbf .LASF193
C:\Users\CYMR90~1\AppData\Local\Temp\ccsGRYiA.s:21243  .debug_str:0000000000005b06 .LASF194
C:\Users\CYMR90~1\AppData\Local\Temp\ccsGRYiA.s:20611  .debug_str:0000000000003281 .LASF195
C:\Users\CYMR90~1\AppData\Local\Temp\ccsGRYiA.s:23227  .debug_str:000000000000db41 .LASF196
C:\Users\CYMR90~1\AppData\Local\Temp\ccsGRYiA.s:24139  .debug_str:000000000001146a .LASF197
C:\Users\CYMR90~1\AppData\Local\Temp\ccsGRYiA.s:21099  .debug_str:0000000000005230 .LASF198
C:\Users\CYMR90~1\AppData\Local\Temp\ccsGRYiA.s:29766  .debug_str:0000000000027e92 .LASF199
C:\Users\CYMR90~1\AppData\Local\Temp\ccsGRYiA.s:27944  .debug_str:0000000000020a6a .LASF200
C:\Users\CYMR90~1\AppData\Local\Temp\ccsGRYiA.s:27072  .debug_str:000000000001d538 .LASF201
C:\Users\CYMR90~1\AppData\Local\Temp\ccsGRYiA.s:22243  .debug_str:0000000000009b13 .LASF202
C:\Users\CYMR90~1\AppData\Local\Temp\ccsGRYiA.s:30212  .debug_str:0000000000029b55 .LASF203
C:\Users\CYMR90~1\AppData\Local\Temp\ccsGRYiA.s:20623  .debug_str:0000000000003352 .LASF204
C:\Users\CYMR90~1\AppData\Local\Temp\ccsGRYiA.s:23641  .debug_str:000000000000f4c6 .LASF205
C:\Users\CYMR90~1\AppData\Local\Temp\ccsGRYiA.s:29954  .debug_str:0000000000028b84 .LASF206
C:\Users\CYMR90~1\AppData\Local\Temp\ccsGRYiA.s:24853  .debug_str:00000000000143c8 .LASF207
C:\Users\CYMR90~1\AppData\Local\Temp\ccsGRYiA.s:27612  .debug_str:000000000001f63d .LASF208
C:\Users\CYMR90~1\AppData\Local\Temp\ccsGRYiA.s:22861  .debug_str:000000000000c358 .LASF209
C:\Users\CYMR90~1\AppData\Local\Temp\ccsGRYiA.s:30864  .debug_str:000000000002c478 .LASF210
C:\Users\CYMR90~1\AppData\Local\Temp\ccsGRYiA.s:24823  .debug_str:00000000000141e7 .LASF211
C:\Users\CYMR90~1\AppData\Local\Temp\ccsGRYiA.s:27458  .debug_str:000000000001ecce .LASF212
C:\Users\CYMR90~1\AppData\Local\Temp\ccsGRYiA.s:26090  .debug_str:000000000001945c .LASF213
C:\Users\CYMR90~1\AppData\Local\Temp\ccsGRYiA.s:21333  .debug_str:0000000000006095 .LASF214
C:\Users\CYMR90~1\AppData\Local\Temp\ccsGRYiA.s:24831  .debug_str:000000000001426d .LASF215
C:\Users\CYMR90~1\AppData\Local\Temp\ccsGRYiA.s:26778  .debug_str:000000000001c162 .LASF216
C:\Users\CYMR90~1\AppData\Local\Temp\ccsGRYiA.s:27720  .debug_str:000000000001fcb7 .LASF217
C:\Users\CYMR90~1\AppData\Local\Temp\ccsGRYiA.s:23719  .debug_str:000000000000f9da .LASF218
C:\Users\CYMR90~1\AppData\Local\Temp\ccsGRYiA.s:29094  .debug_str:000000000002535d .LASF219
C:\Users\CYMR90~1\AppData\Local\Temp\ccsGRYiA.s:28910  .debug_str:0000000000024630 .LASF220
C:\Users\CYMR90~1\AppData\Local\Temp\ccsGRYiA.s:28442  .debug_str:0000000000022884 .LASF221
C:\Users\CYMR90~1\AppData\Local\Temp\ccsGRYiA.s:25109  .debug_str:00000000000153f5 .LASF222
C:\Users\CYMR90~1\AppData\Local\Temp\ccsGRYiA.s:21301  .debug_str:0000000000005e73 .LASF223
C:\Users\CYMR90~1\AppData\Local\Temp\ccsGRYiA.s:21977  .debug_str:0000000000008a8c .LASF224
C:\Users\CYMR90~1\AppData\Local\Temp\ccsGRYiA.s:30528  .debug_str:000000000002ae05 .LASF225
C:\Users\CYMR90~1\AppData\Local\Temp\ccsGRYiA.s:23299  .debug_str:000000000000dfcf .LASF226
C:\Users\CYMR90~1\AppData\Local\Temp\ccsGRYiA.s:26932  .debug_str:000000000001cb52 .LASF227
C:\Users\CYMR90~1\AppData\Local\Temp\ccsGRYiA.s:26788  .debug_str:000000000001c208 .LASF228
C:\Users\CYMR90~1\AppData\Local\Temp\ccsGRYiA.s:23241  .debug_str:000000000000dc1e .LASF229
C:\Users\CYMR90~1\AppData\Local\Temp\ccsGRYiA.s:27498  .debug_str:000000000001ef39 .LASF230
C:\Users\CYMR90~1\AppData\Local\Temp\ccsGRYiA.s:27260  .debug_str:000000000001e0fa .LASF231
C:\Users\CYMR90~1\AppData\Local\Temp\ccsGRYiA.s:21343  .debug_str:0000000000006152 .LASF232
C:\Users\CYMR90~1\AppData\Local\Temp\ccsGRYiA.s:21929  .debug_str:000000000000876b .LASF233
C:\Users\CYMR90~1\AppData\Local\Temp\ccsGRYiA.s:23911  .debug_str:00000000000105e8 .LASF234
C:\Users\CYMR90~1\AppData\Local\Temp\ccsGRYiA.s:23637  .debug_str:000000000000f47e .LASF235
C:\Users\CYMR90~1\AppData\Local\Temp\ccsGRYiA.s:28656  .debug_str:0000000000023596 .LASF236
C:\Users\CYMR90~1\AppData\Local\Temp\ccsGRYiA.s:23659  .debug_str:000000000000f5cf .LASF237
C:\Users\CYMR90~1\AppData\Local\Temp\ccsGRYiA.s:29310  .debug_str:000000000002616a .LASF238
C:\Users\CYMR90~1\AppData\Local\Temp\ccsGRYiA.s:28638  .debug_str:0000000000023447 .LASF239
C:\Users\CYMR90~1\AppData\Local\Temp\ccsGRYiA.s:28876  .debug_str:0000000000024402 .LASF240
C:\Users\CYMR90~1\AppData\Local\Temp\ccsGRYiA.s:21741  .debug_str:0000000000007aba .LASF241
C:\Users\CYMR90~1\AppData\Local\Temp\ccsGRYiA.s:23321  .debug_str:000000000000e11c .LASF242
C:\Users\CYMR90~1\AppData\Local\Temp\ccsGRYiA.s:24295  .debug_str:0000000000011f45 .LASF243
C:\Users\CYMR90~1\AppData\Local\Temp\ccsGRYiA.s:28666  .debug_str:000000000002360e .LASF244
C:\Users\CYMR90~1\AppData\Local\Temp\ccsGRYiA.s:24491  .debug_str:0000000000012c82 .LASF245
C:\Users\CYMR90~1\AppData\Local\Temp\ccsGRYiA.s:27508  .debug_str:000000000001f001 .LASF246
C:\Users\CYMR90~1\AppData\Local\Temp\ccsGRYiA.s:25866  .debug_str:00000000000184f9 .LASF247
C:\Users\CYMR90~1\AppData\Local\Temp\ccsGRYiA.s:25387  .debug_str:00000000000164f7 .LASF248
C:\Users\CYMR90~1\AppData\Local\Temp\ccsGRYiA.s:26872  .debug_str:000000000001c702 .LASF249
C:\Users\CYMR90~1\AppData\Local\Temp\ccsGRYiA.s:26256  .debug_str:0000000000019ef2 .LASF250
C:\Users\CYMR90~1\AppData\Local\Temp\ccsGRYiA.s:26808  .debug_str:000000000001c327 .LASF251
C:\Users\CYMR90~1\AppData\Local\Temp\ccsGRYiA.s:28490  .debug_str:0000000000022bcb .LASF252
C:\Users\CYMR90~1\AppData\Local\Temp\ccsGRYiA.s:23211  .debug_str:000000000000da7f .LASF253
C:\Users\CYMR90~1\AppData\Local\Temp\ccsGRYiA.s:29164  .debug_str:000000000002589f .LASF254
C:\Users\CYMR90~1\AppData\Local\Temp\ccsGRYiA.s:23069  .debug_str:000000000000d175 .LASF255
C:\Users\CYMR90~1\AppData\Local\Temp\ccsGRYiA.s:26164  .debug_str:000000000001996e .LASF256
C:\Users\CYMR90~1\AppData\Local\Temp\ccsGRYiA.s:23317  .debug_str:000000000000e0d5 .LASF257
C:\Users\CYMR90~1\AppData\Local\Temp\ccsGRYiA.s:27446  .debug_str:000000000001ebff .LASF258
C:\Users\CYMR90~1\AppData\Local\Temp\ccsGRYiA.s:22533  .debug_str:000000000000ad05 .LASF259
C:\Users\CYMR90~1\AppData\Local\Temp\ccsGRYiA.s:19965  .debug_str:0000000000000a5c .LASF260
C:\Users\CYMR90~1\AppData\Local\Temp\ccsGRYiA.s:30268  .debug_str:0000000000029ea5 .LASF261
C:\Users\CYMR90~1\AppData\Local\Temp\ccsGRYiA.s:29748  .debug_str:0000000000027d17 .LASF262
C:\Users\CYMR90~1\AppData\Local\Temp\ccsGRYiA.s:24803  .debug_str:0000000000014069 .LASF263
C:\Users\CYMR90~1\AppData\Local\Temp\ccsGRYiA.s:26762  .debug_str:000000000001c075 .LASF264
C:\Users\CYMR90~1\AppData\Local\Temp\ccsGRYiA.s:23767  .debug_str:000000000000fced .LASF265
C:\Users\CYMR90~1\AppData\Local\Temp\ccsGRYiA.s:23243  .debug_str:000000000000dc5f .LASF266
C:\Users\CYMR90~1\AppData\Local\Temp\ccsGRYiA.s:22583  .debug_str:000000000000b106 .LASF267
C:\Users\CYMR90~1\AppData\Local\Temp\ccsGRYiA.s:26860  .debug_str:000000000001c604 .LASF268
C:\Users\CYMR90~1\AppData\Local\Temp\ccsGRYiA.s:22883  .debug_str:000000000000c4c3 .LASF269
C:\Users\CYMR90~1\AppData\Local\Temp\ccsGRYiA.s:23831  .debug_str:0000000000010112 .LASF270
C:\Users\CYMR90~1\AppData\Local\Temp\ccsGRYiA.s:24597  .debug_str:00000000000133af .LASF271
C:\Users\CYMR90~1\AppData\Local\Temp\ccsGRYiA.s:29412  .debug_str:00000000000267ec .LASF272
C:\Users\CYMR90~1\AppData\Local\Temp\ccsGRYiA.s:21505  .debug_str:0000000000006b0b .LASF273
C:\Users\CYMR90~1\AppData\Local\Temp\ccsGRYiA.s:20417  .debug_str:00000000000025ee .LASF274
C:\Users\CYMR90~1\AppData\Local\Temp\ccsGRYiA.s:21597  .debug_str:0000000000007125 .LASF275
C:\Users\CYMR90~1\AppData\Local\Temp\ccsGRYiA.s:20671  .debug_str:000000000000363c .LASF276
C:\Users\CYMR90~1\AppData\Local\Temp\ccsGRYiA.s:22779  .debug_str:000000000000be1a .LASF277
C:\Users\CYMR90~1\AppData\Local\Temp\ccsGRYiA.s:20101  .debug_str:00000000000012d0 .LASF278
C:\Users\CYMR90~1\AppData\Local\Temp\ccsGRYiA.s:21429  .debug_str:000000000000663f .LASF279
C:\Users\CYMR90~1\AppData\Local\Temp\ccsGRYiA.s:30066  .debug_str:000000000002924c .LASF280
C:\Users\CYMR90~1\AppData\Local\Temp\ccsGRYiA.s:22291  .debug_str:0000000000009df7 .LASF281
C:\Users\CYMR90~1\AppData\Local\Temp\ccsGRYiA.s:21397  .debug_str:000000000000649b .LASF282
C:\Users\CYMR90~1\AppData\Local\Temp\ccsGRYiA.s:21295  .debug_str:0000000000005e21 .LASF283
C:\Users\CYMR90~1\AppData\Local\Temp\ccsGRYiA.s:21055  .debug_str:0000000000004fa1 .LASF284
C:\Users\CYMR90~1\AppData\Local\Temp\ccsGRYiA.s:28976  .debug_str:0000000000024ac3 .LASF285
C:\Users\CYMR90~1\AppData\Local\Temp\ccsGRYiA.s:29780  .debug_str:0000000000027fa7 .LASF286
C:\Users\CYMR90~1\AppData\Local\Temp\ccsGRYiA.s:30052  .debug_str:0000000000029186 .LASF287
C:\Users\CYMR90~1\AppData\Local\Temp\ccsGRYiA.s:29968  .debug_str:0000000000028c55 .LASF288
C:\Users\CYMR90~1\AppData\Local\Temp\ccsGRYiA.s:30798  .debug_str:000000000002c016 .LASF289
C:\Users\CYMR90~1\AppData\Local\Temp\ccsGRYiA.s:25810  .debug_str:00000000000181b6 .LASF290
C:\Users\CYMR90~1\AppData\Local\Temp\ccsGRYiA.s:24857  .debug_str:00000000000143ee .LASF291
C:\Users\CYMR90~1\AppData\Local\Temp\ccsGRYiA.s:29012  .debug_str:0000000000024d2e .LASF292
C:\Users\CYMR90~1\AppData\Local\Temp\ccsGRYiA.s:20695  .debug_str:0000000000003802 .LASF293
C:\Users\CYMR90~1\AppData\Local\Temp\ccsGRYiA.s:27956  .debug_str:0000000000020b2f .LASF294
C:\Users\CYMR90~1\AppData\Local\Temp\ccsGRYiA.s:20975  .debug_str:0000000000004abf .LASF295
C:\Users\CYMR90~1\AppData\Local\Temp\ccsGRYiA.s:30390  .debug_str:000000000002a629 .LASF296
C:\Users\CYMR90~1\AppData\Local\Temp\ccsGRYiA.s:30576  .debug_str:000000000002b10b .LASF297
C:\Users\CYMR90~1\AppData\Local\Temp\ccsGRYiA.s:25686  .debug_str:0000000000017a5e .LASF298
C:\Users\CYMR90~1\AppData\Local\Temp\ccsGRYiA.s:19949  .debug_str:0000000000000956 .LASF299
C:\Users\CYMR90~1\AppData\Local\Temp\ccsGRYiA.s:23739  .debug_str:000000000000fb1b .LASF300
C:\Users\CYMR90~1\AppData\Local\Temp\ccsGRYiA.s:26432  .debug_str:000000000001abc6 .LASF301
C:\Users\CYMR90~1\AppData\Local\Temp\ccsGRYiA.s:24967  .debug_str:0000000000014a9e .LASF302
C:\Users\CYMR90~1\AppData\Local\Temp\ccsGRYiA.s:24437  .debug_str:0000000000012935 .LASF303
C:\Users\CYMR90~1\AppData\Local\Temp\ccsGRYiA.s:20341  .debug_str:0000000000002186 .LASF304
C:\Users\CYMR90~1\AppData\Local\Temp\ccsGRYiA.s:22891  .debug_str:000000000000c547 .LASF305
C:\Users\CYMR90~1\AppData\Local\Temp\ccsGRYiA.s:28164  .debug_str:0000000000021809 .LASF306
C:\Users\CYMR90~1\AppData\Local\Temp\ccsGRYiA.s:23755  .debug_str:000000000000fc24 .LASF307
C:\Users\CYMR90~1\AppData\Local\Temp\ccsGRYiA.s:28996  .debug_str:0000000000024c19 .LASF308
C:\Users\CYMR90~1\AppData\Local\Temp\ccsGRYiA.s:28606  .debug_str:000000000002324f .LASF309
C:\Users\CYMR90~1\AppData\Local\Temp\ccsGRYiA.s:23301  .debug_str:000000000000dfe8 .LASF310
C:\Users\CYMR90~1\AppData\Local\Temp\ccsGRYiA.s:29306  .debug_str:000000000002613f .LASF311
C:\Users\CYMR90~1\AppData\Local\Temp\ccsGRYiA.s:28830  .debug_str:00000000000240c0 .LASF312
C:\Users\CYMR90~1\AppData\Local\Temp\ccsGRYiA.s:23009  .debug_str:000000000000cd51 .LASF313
C:\Users\CYMR90~1\AppData\Local\Temp\ccsGRYiA.s:25950  .debug_str:0000000000018a54 .LASF316
C:\Users\CYMR90~1\AppData\Local\Temp\ccsGRYiA.s:26308  .debug_str:000000000001a208 .LASF317
C:\Users\CYMR90~1\AppData\Local\Temp\ccsGRYiA.s:26654  .debug_str:000000000001b9c9 .LASF318
C:\Users\CYMR90~1\AppData\Local\Temp\ccsGRYiA.s:23747  .debug_str:000000000000fbb8 .LASF319
C:\Users\CYMR90~1\AppData\Local\Temp\ccsGRYiA.s:22651  .debug_str:000000000000b579 .LASF320
C:\Users\CYMR90~1\AppData\Local\Temp\ccsGRYiA.s:30014  .debug_str:0000000000028f51 .LASF321
C:\Users\CYMR90~1\AppData\Local\Temp\ccsGRYiA.s:23209  .debug_str:000000000000da72 .LASF322
C:\Users\CYMR90~1\AppData\Local\Temp\ccsGRYiA.s:29258  .debug_str:0000000000025e33 .LASF323
C:\Users\CYMR90~1\AppData\Local\Temp\ccsGRYiA.s:19831  .debug_str:0000000000000230 .LASF324
C:\Users\CYMR90~1\AppData\Local\Temp\ccsGRYiA.s:30410  .debug_str:000000000002a72c .LASF325
C:\Users\CYMR90~1\AppData\Local\Temp\ccsGRYiA.s:20749  .debug_str:0000000000003b42 .LASF326
C:\Users\CYMR90~1\AppData\Local\Temp\ccsGRYiA.s:24791  .debug_str:0000000000013fac .LASF327
C:\Users\CYMR90~1\AppData\Local\Temp\ccsGRYiA.s:24439  .debug_str:000000000001294a .LASF328
C:\Users\CYMR90~1\AppData\Local\Temp\ccsGRYiA.s:27298  .debug_str:000000000001e336 .LASF329
C:\Users\CYMR90~1\AppData\Local\Temp\ccsGRYiA.s:27290  .debug_str:000000000001e2e5 .LASF330
C:\Users\CYMR90~1\AppData\Local\Temp\ccsGRYiA.s:29454  .debug_str:0000000000026a69 .LASF331
C:\Users\CYMR90~1\AppData\Local\Temp\ccsGRYiA.s:29994  .debug_str:0000000000028dff .LASF332
C:\Users\CYMR90~1\AppData\Local\Temp\ccsGRYiA.s:30178  .debug_str:0000000000029943 .LASF333
C:\Users\CYMR90~1\AppData\Local\Temp\ccsGRYiA.s:26282  .debug_str:000000000001a08d .LASF334
C:\Users\CYMR90~1\AppData\Local\Temp\ccsGRYiA.s:25732  .debug_str:0000000000017d0c .LASF335
C:\Users\CYMR90~1\AppData\Local\Temp\ccsGRYiA.s:30034  .debug_str:000000000002909a .LASF336
C:\Users\CYMR90~1\AppData\Local\Temp\ccsGRYiA.s:24359  .debug_str:000000000001240a .LASF337
C:\Users\CYMR90~1\AppData\Local\Temp\ccsGRYiA.s:28012  .debug_str:0000000000020e7d .LASF338
C:\Users\CYMR90~1\AppData\Local\Temp\ccsGRYiA.s:22403  .debug_str:000000000000a53b .LASF339
C:\Users\CYMR90~1\AppData\Local\Temp\ccsGRYiA.s:24579  .debug_str:0000000000013279 .LASF340
C:\Users\CYMR90~1\AppData\Local\Temp\ccsGRYiA.s:26482  .debug_str:000000000001aede .LASF341
C:\Users\CYMR90~1\AppData\Local\Temp\ccsGRYiA.s:22713  .debug_str:000000000000b9b6 .LASF342
C:\Users\CYMR90~1\AppData\Local\Temp\ccsGRYiA.s:20083  .debug_str:00000000000011fc .LASF343
C:\Users\CYMR90~1\AppData\Local\Temp\ccsGRYiA.s:30146  .debug_str:000000000002975e .LASF344
C:\Users\CYMR90~1\AppData\Local\Temp\ccsGRYiA.s:30738  .debug_str:000000000002bbed .LASF345
C:\Users\CYMR90~1\AppData\Local\Temp\ccsGRYiA.s:23627  .debug_str:000000000000f3f6 .LASF346
C:\Users\CYMR90~1\AppData\Local\Temp\ccsGRYiA.s:19937  .debug_str:000000000000089f .LASF347
C:\Users\CYMR90~1\AppData\Local\Temp\ccsGRYiA.s:27804  .debug_str:00000000000201d7 .LASF348
C:\Users\CYMR90~1\AppData\Local\Temp\ccsGRYiA.s:29758  .debug_str:0000000000027de6 .LASF349
C:\Users\CYMR90~1\AppData\Local\Temp\ccsGRYiA.s:27292  .debug_str:000000000001e2f1 .LASF350
C:\Users\CYMR90~1\AppData\Local\Temp\ccsGRYiA.s:19869  .debug_str:0000000000000481 .LASF351
C:\Users\CYMR90~1\AppData\Local\Temp\ccsGRYiA.s:27578  .debug_str:000000000001f453 .LASF352
C:\Users\CYMR90~1\AppData\Local\Temp\ccsGRYiA.s:29250  .debug_str:0000000000025dc9 .LASF353
C:\Users\CYMR90~1\AppData\Local\Temp\ccsGRYiA.s:26918  .debug_str:000000000001caa0 .LASF354
C:\Users\CYMR90~1\AppData\Local\Temp\ccsGRYiA.s:27088  .debug_str:000000000001d675 .LASF355
C:\Users\CYMR90~1\AppData\Local\Temp\ccsGRYiA.s:23095  .debug_str:000000000000d3b1 .LASF356
C:\Users\CYMR90~1\AppData\Local\Temp\ccsGRYiA.s:26240  .debug_str:0000000000019e20 .LASF357
C:\Users\CYMR90~1\AppData\Local\Temp\ccsGRYiA.s:29670  .debug_str:00000000000277df .LASF358
C:\Users\CYMR90~1\AppData\Local\Temp\ccsGRYiA.s:24429  .debug_str:000000000001288a .LASF359
C:\Users\CYMR90~1\AppData\Local\Temp\ccsGRYiA.s:22503  .debug_str:000000000000ab3d .LASF360
C:\Users\CYMR90~1\AppData\Local\Temp\ccsGRYiA.s:27460  .debug_str:000000000001ece6 .LASF361
C:\Users\CYMR90~1\AppData\Local\Temp\ccsGRYiA.s:24163  .debug_str:000000000001161d .LASF362
C:\Users\CYMR90~1\AppData\Local\Temp\ccsGRYiA.s:29938  .debug_str:0000000000028a7d .LASF363
C:\Users\CYMR90~1\AppData\Local\Temp\ccsGRYiA.s:22055  .debug_str:0000000000008f71 .LASF364
C:\Users\CYMR90~1\AppData\Local\Temp\ccsGRYiA.s:29830  .debug_str:000000000002834d .LASF365
C:\Users\CYMR90~1\AppData\Local\Temp\ccsGRYiA.s:21465  .debug_str:00000000000068d5 .LASF366
C:\Users\CYMR90~1\AppData\Local\Temp\ccsGRYiA.s:24569  .debug_str:00000000000131b5 .LASF367
C:\Users\CYMR90~1\AppData\Local\Temp\ccsGRYiA.s:21749  .debug_str:0000000000007b38 .LASF368
C:\Users\CYMR90~1\AppData\Local\Temp\ccsGRYiA.s:25778  .debug_str:0000000000017fd9 .LASF372
C:\Users\CYMR90~1\AppData\Local\Temp\ccsGRYiA.s:29492  .debug_str:0000000000026cbb .LASF373
C:\Users\CYMR90~1\AppData\Local\Temp\ccsGRYiA.s:22485  .debug_str:000000000000aa0b .LASF374
C:\Users\CYMR90~1\AppData\Local\Temp\ccsGRYiA.s:25566  .debug_str:00000000000172d6 .LASF375
C:\Users\CYMR90~1\AppData\Local\Temp\ccsGRYiA.s:25764  .debug_str:0000000000017f11 .LASF376
C:\Users\CYMR90~1\AppData\Local\Temp\ccsGRYiA.s:28258  .debug_str:0000000000021ddb .LASF377
C:\Users\CYMR90~1\AppData\Local\Temp\ccsGRYiA.s:26934  .debug_str:000000000001cb6b .LASF378
C:\Users\CYMR90~1\AppData\Local\Temp\ccsGRYiA.s:30568  .debug_str:000000000002b098 .LASF379
C:\Users\CYMR90~1\AppData\Local\Temp\ccsGRYiA.s:20433  .debug_str:0000000000002725 .LASF380
C:\Users\CYMR90~1\AppData\Local\Temp\ccsGRYiA.s:30510  .debug_str:000000000002ad19 .LASF381
C:\Users\CYMR90~1\AppData\Local\Temp\ccsGRYiA.s:26662  .debug_str:000000000001ba1a .LASF382
C:\Users\CYMR90~1\AppData\Local\Temp\ccsGRYiA.s:21521  .debug_str:0000000000006c18 .LASF383
C:\Users\CYMR90~1\AppData\Local\Temp\ccsGRYiA.s:22863  .debug_str:000000000000c373 .LASF384
C:\Users\CYMR90~1\AppData\Local\Temp\ccsGRYiA.s:26182  .debug_str:0000000000019aa2 .LASF385
C:\Users\CYMR90~1\AppData\Local\Temp\ccsGRYiA.s:23859  .debug_str:00000000000102d8 .LASF386
C:\Users\CYMR90~1\AppData\Local\Temp\ccsGRYiA.s:20365  .debug_str:000000000000230c .LASF387
C:\Users\CYMR90~1\AppData\Local\Temp\ccsGRYiA.s:23469  .debug_str:000000000000ea5c .LASF388
C:\Users\CYMR90~1\AppData\Local\Temp\ccsGRYiA.s:22027  .debug_str:0000000000008dc9 .LASF389
C:\Users\CYMR90~1\AppData\Local\Temp\ccsGRYiA.s:20839  .debug_str:000000000000418e .LASF391
C:\Users\CYMR90~1\AppData\Local\Temp\ccsGRYiA.s:23867  .debug_str:0000000000010344 .LASF392
C:\Users\CYMR90~1\AppData\Local\Temp\ccsGRYiA.s:27904  .debug_str:0000000000020817 .LASF393
C:\Users\CYMR90~1\AppData\Local\Temp\ccsGRYiA.s:29628  .debug_str:000000000002754a .LASF394
C:\Users\CYMR90~1\AppData\Local\Temp\ccsGRYiA.s:20391  .debug_str:000000000000246a .LASF395
C:\Users\CYMR90~1\AppData\Local\Temp\ccsGRYiA.s:22527  .debug_str:000000000000aca1 .LASF396
C:\Users\CYMR90~1\AppData\Local\Temp\ccsGRYiA.s:26288  .debug_str:000000000001a0ed .LASF397
C:\Users\CYMR90~1\AppData\Local\Temp\ccsGRYiA.s:30388  .debug_str:000000000002a617 .LASF398
C:\Users\CYMR90~1\AppData\Local\Temp\ccsGRYiA.s:25137  .debug_str:000000000001558e .LASF399
C:\Users\CYMR90~1\AppData\Local\Temp\ccsGRYiA.s:27538  .debug_str:000000000001f1cc .LASF400
C:\Users\CYMR90~1\AppData\Local\Temp\ccsGRYiA.s:22017  .debug_str:0000000000008cd4 .LASF401
C:\Users\CYMR90~1\AppData\Local\Temp\ccsGRYiA.s:25618  .debug_str:00000000000175db .LASF402
C:\Users\CYMR90~1\AppData\Local\Temp\ccsGRYiA.s:21363  .debug_str:0000000000006292 .LASF403
C:\Users\CYMR90~1\AppData\Local\Temp\ccsGRYiA.s:22461  .debug_str:000000000000a8a6 .LASF404
C:\Users\CYMR90~1\AppData\Local\Temp\ccsGRYiA.s:23525  .debug_str:000000000000edba .LASF405
C:\Users\CYMR90~1\AppData\Local\Temp\ccsGRYiA.s:26844  .debug_str:000000000001c52e .LASF406
C:\Users\CYMR90~1\AppData\Local\Temp\ccsGRYiA.s:25061  .debug_str:0000000000015117 .LASF407
C:\Users\CYMR90~1\AppData\Local\Temp\ccsGRYiA.s:26022  .debug_str:0000000000018f60 .LASF408
C:\Users\CYMR90~1\AppData\Local\Temp\ccsGRYiA.s:28206  .debug_str:0000000000021a88 .LASF409
C:\Users\CYMR90~1\AppData\Local\Temp\ccsGRYiA.s:21315  .debug_str:0000000000005f94 .LASF410
C:\Users\CYMR90~1\AppData\Local\Temp\ccsGRYiA.s:25247  .debug_str:0000000000015bd8 .LASF411
C:\Users\CYMR90~1\AppData\Local\Temp\ccsGRYiA.s:28328  .debug_str:0000000000022207 .LASF412
C:\Users\CYMR90~1\AppData\Local\Temp\ccsGRYiA.s:21497  .debug_str:0000000000006ab2 .LASF413
C:\Users\CYMR90~1\AppData\Local\Temp\ccsGRYiA.s:30028  .debug_str:0000000000029033 .LASF414
C:\Users\CYMR90~1\AppData\Local\Temp\ccsGRYiA.s:23629  .debug_str:000000000000f404 .LASF415
C:\Users\CYMR90~1\AppData\Local\Temp\ccsGRYiA.s:29366  .debug_str:00000000000264f9 .LASF416
C:\Users\CYMR90~1\AppData\Local\Temp\ccsGRYiA.s:30862  .debug_str:000000000002c46d .LASF417
C:\Users\CYMR90~1\AppData\Local\Temp\ccsGRYiA.s:21947  .debug_str:0000000000008894 .LASF418
C:\Users\CYMR90~1\AppData\Local\Temp\ccsGRYiA.s:30236  .debug_str:0000000000029cbd .LASF419
C:\Users\CYMR90~1\AppData\Local\Temp\ccsGRYiA.s:21565  .debug_str:0000000000006f0e .LASF420
C:\Users\CYMR90~1\AppData\Local\Temp\ccsGRYiA.s:30430  .debug_str:000000000002a842 .LASF421
C:\Users\CYMR90~1\AppData\Local\Temp\ccsGRYiA.s:22789  .debug_str:000000000000bede .LASF422
C:\Users\CYMR90~1\AppData\Local\Temp\ccsGRYiA.s:22985  .debug_str:000000000000cc11 .LASF423
C:\Users\CYMR90~1\AppData\Local\Temp\ccsGRYiA.s:27440  .debug_str:000000000001ebc0 .LASF424
C:\Users\CYMR90~1\AppData\Local\Temp\ccsGRYiA.s:26060  .debug_str:00000000000192a3 .LASF425
C:\Users\CYMR90~1\AppData\Local\Temp\ccsGRYiA.s:19841  .debug_str:00000000000002de .LASF426
C:\Users\CYMR90~1\AppData\Local\Temp\ccsGRYiA.s:29944  .debug_str:0000000000028ada .LASF427
C:\Users\CYMR90~1\AppData\Local\Temp\ccsGRYiA.s:25327  .debug_str:000000000001617e .LASF428
C:\Users\CYMR90~1\AppData\Local\Temp\ccsGRYiA.s:27226  .debug_str:000000000001df18 .LASF429
C:\Users\CYMR90~1\AppData\Local\Temp\ccsGRYiA.s:23809  .debug_str:000000000000ff9c .LASF430
C:\Users\CYMR90~1\AppData\Local\Temp\ccsGRYiA.s:25518  .debug_str:000000000001700b .LASF431
C:\Users\CYMR90~1\AppData\Local\Temp\ccsGRYiA.s:28280  .debug_str:0000000000021f09 .LASF432
C:\Users\CYMR90~1\AppData\Local\Temp\ccsGRYiA.s:22969  .debug_str:000000000000cb20 .LASF434
C:\Users\CYMR90~1\AppData\Local\Temp\ccsGRYiA.s:21031  .debug_str:0000000000004e20 .LASF435
C:\Users\CYMR90~1\AppData\Local\Temp\ccsGRYiA.s:25704  .debug_str:0000000000017b70 .LASF436
C:\Users\CYMR90~1\AppData\Local\Temp\ccsGRYiA.s:21585  .debug_str:000000000000704a .LASF437
C:\Users\CYMR90~1\AppData\Local\Temp\ccsGRYiA.s:29958  .debug_str:0000000000028bc0 .LASF438
C:\Users\CYMR90~1\AppData\Local\Temp\ccsGRYiA.s:19807  .debug_str:00000000000000c7 .LASF439
C:\Users\CYMR90~1\AppData\Local\Temp\ccsGRYiA.s:27476  .debug_str:000000000001ede7 .LASF440
C:\Users\CYMR90~1\AppData\Local\Temp\ccsGRYiA.s:23217  .debug_str:000000000000dad7 .LASF441
C:\Users\CYMR90~1\AppData\Local\Temp\ccsGRYiA.s:28516  .debug_str:0000000000022d33 .LASF442
C:\Users\CYMR90~1\AppData\Local\Temp\ccsGRYiA.s:27412  .debug_str:000000000001ea52 .LASF443
C:\Users\CYMR90~1\AppData\Local\Temp\ccsGRYiA.s:23939  .debug_str:000000000001082b .LASF444
C:\Users\CYMR90~1\AppData\Local\Temp\ccsGRYiA.s:30856  .debug_str:000000000002c421 .LASF445
C:\Users\CYMR90~1\AppData\Local\Temp\ccsGRYiA.s:20157  .debug_str:0000000000001638 .LASF446
C:\Users\CYMR90~1\AppData\Local\Temp\ccsGRYiA.s:24281  .debug_str:0000000000011e60 .LASF447
C:\Users\CYMR90~1\AppData\Local\Temp\ccsGRYiA.s:28492  .debug_str:0000000000022bdd .LASF448
C:\Users\CYMR90~1\AppData\Local\Temp\ccsGRYiA.s:20851  .debug_str:0000000000004246 .LASF449
C:\Users\CYMR90~1\AppData\Local\Temp\ccsGRYiA.s:21607  .debug_str:00000000000071d3 .LASF450
C:\Users\CYMR90~1\AppData\Local\Temp\ccsGRYiA.s:20321  .debug_str:0000000000002090 .LASF451
C:\Users\CYMR90~1\AppData\Local\Temp\ccsGRYiA.s:24975  .debug_str:0000000000014b40 .LASF452
C:\Users\CYMR90~1\AppData\Local\Temp\ccsGRYiA.s:20311  .debug_str:000000000000201d .LASF453
C:\Users\CYMR90~1\AppData\Local\Temp\ccsGRYiA.s:30802  .debug_str:000000000002c056 .LASF454
C:\Users\CYMR90~1\AppData\Local\Temp\ccsGRYiA.s:23391  .debug_str:000000000000e538 .LASF455
C:\Users\CYMR90~1\AppData\Local\Temp\ccsGRYiA.s:28108  .debug_str:000000000002149f .LASF456
C:\Users\CYMR90~1\AppData\Local\Temp\ccsGRYiA.s:23065  .debug_str:000000000000d153 .LASF457
C:\Users\CYMR90~1\AppData\Local\Temp\ccsGRYiA.s:21375  .debug_str:000000000000633f .LASF458
C:\Users\CYMR90~1\AppData\Local\Temp\ccsGRYiA.s:24005  .debug_str:0000000000010cf2 .LASF459
C:\Users\CYMR90~1\AppData\Local\Temp\ccsGRYiA.s:27856  .debug_str:000000000002054a .LASF460
C:\Users\CYMR90~1\AppData\Local\Temp\ccsGRYiA.s:29000  .debug_str:0000000000024c4f .LASF461
C:\Users\CYMR90~1\AppData\Local\Temp\ccsGRYiA.s:25487  .debug_str:0000000000016c5e .LASF462
C:\Users\CYMR90~1\AppData\Local\Temp\ccsGRYiA.s:26338  .debug_str:000000000001a56c .LASF463
C:\Users\CYMR90~1\AppData\Local\Temp\ccsGRYiA.s:23233  .debug_str:000000000000dba3 .LASF464
C:\Users\CYMR90~1\AppData\Local\Temp\ccsGRYiA.s:24371  .debug_str:00000000000124cd .LASF465
C:\Users\CYMR90~1\AppData\Local\Temp\ccsGRYiA.s:21515  .debug_str:0000000000006bd2 .LASF466
C:\Users\CYMR90~1\AppData\Local\Temp\ccsGRYiA.s:22073  .debug_str:0000000000009054 .LASF467
C:\Users\CYMR90~1\AppData\Local\Temp\ccsGRYiA.s:24137  .debug_str:0000000000011453 .LASF468
C:\Users\CYMR90~1\AppData\Local\Temp\ccsGRYiA.s:20653  .debug_str:000000000000354d .LASF469
C:\Users\CYMR90~1\AppData\Local\Temp\ccsGRYiA.s:23903  .debug_str:0000000000010563 .LASF470
C:\Users\CYMR90~1\AppData\Local\Temp\ccsGRYiA.s:23785  .debug_str:000000000000fe11 .LASF471
C:\Users\CYMR90~1\AppData\Local\Temp\ccsGRYiA.s:23363  .debug_str:000000000000e386 .LASF472
C:\Users\CYMR90~1\AppData\Local\Temp\ccsGRYiA.s:20021  .debug_str:0000000000000dd4 .LASF473
C:\Users\CYMR90~1\AppData\Local\Temp\ccsGRYiA.s:21631  .debug_str:0000000000007399 .LASF474
C:\Users\CYMR90~1\AppData\Local\Temp\ccsGRYiA.s:19967  .debug_str:0000000000000a9a .LASF475
C:\Users\CYMR90~1\AppData\Local\Temp\ccsGRYiA.s:20817  .debug_str:0000000000003fa4 .LASF476
C:\Users\CYMR90~1\AppData\Local\Temp\ccsGRYiA.s:20191  .debug_str:00000000000018de .LASF477
C:\Users\CYMR90~1\AppData\Local\Temp\ccsGRYiA.s:25273  .debug_str:0000000000015daf .LASF478
C:\Users\CYMR90~1\AppData\Local\Temp\ccsGRYiA.s:22669  .debug_str:000000000000b6dd .LASF479
C:\Users\CYMR90~1\AppData\Local\Temp\ccsGRYiA.s:30426  .debug_str:000000000002a812 .LASF480
C:\Users\CYMR90~1\AppData\Local\Temp\ccsGRYiA.s:25860  .debug_str:000000000001849f .LASF481
C:\Users\CYMR90~1\AppData\Local\Temp\ccsGRYiA.s:22593  .debug_str:000000000000b19b .LASF482
C:\Users\CYMR90~1\AppData\Local\Temp\ccsGRYiA.s:21417  .debug_str:00000000000065ac .LASF483
C:\Users\CYMR90~1\AppData\Local\Temp\ccsGRYiA.s:19933  .debug_str:0000000000000858 .LASF484
C:\Users\CYMR90~1\AppData\Local\Temp\ccsGRYiA.s:25808  .debug_str:0000000000018193 .LASF485
C:\Users\CYMR90~1\AppData\Local\Temp\ccsGRYiA.s:21041  .debug_str:0000000000004ebe .LASF486
C:\Users\CYMR90~1\AppData\Local\Temp\ccsGRYiA.s:24731  .debug_str:0000000000013c42 .LASF487
C:\Users\CYMR90~1\AppData\Local\Temp\ccsGRYiA.s:23927  .debug_str:0000000000010787 .LASF488
C:\Users\CYMR90~1\AppData\Local\Temp\ccsGRYiA.s:24495  .debug_str:0000000000012ce4 .LASF489
C:\Users\CYMR90~1\AppData\Local\Temp\ccsGRYiA.s:22947  .debug_str:000000000000c9f0 .LASF490
C:\Users\CYMR90~1\AppData\Local\Temp\ccsGRYiA.s:21945  .debug_str:0000000000008886 .LASF491
C:\Users\CYMR90~1\AppData\Local\Temp\ccsGRYiA.s:23587  .debug_str:000000000000f179 .LASF492
C:\Users\CYMR90~1\AppData\Local\Temp\ccsGRYiA.s:21953  .debug_str:000000000000890b .LASF493
C:\Users\CYMR90~1\AppData\Local\Temp\ccsGRYiA.s:23791  .debug_str:000000000000fe85 .LASF494
C:\Users\CYMR90~1\AppData\Local\Temp\ccsGRYiA.s:26050  .debug_str:0000000000019208 .LASF495
C:\Users\CYMR90~1\AppData\Local\Temp\ccsGRYiA.s:30882  .debug_str:000000000002c59d .LASF496
C:\Users\CYMR90~1\AppData\Local\Temp\ccsGRYiA.s:30818  .debug_str:000000000002c1b0 .LASF497
C:\Users\CYMR90~1\AppData\Local\Temp\ccsGRYiA.s:23633  .debug_str:000000000000f44b .LASF498
C:\Users\CYMR90~1\AppData\Local\Temp\ccsGRYiA.s:30050  .debug_str:0000000000029161 .LASF499
C:\Users\CYMR90~1\AppData\Local\Temp\ccsGRYiA.s:30150  .debug_str:0000000000029781 .LASF500
C:\Users\CYMR90~1\AppData\Local\Temp\ccsGRYiA.s:26270  .debug_str:0000000000019fd1 .LASF501
C:\Users\CYMR90~1\AppData\Local\Temp\ccsGRYiA.s:30104  .debug_str:00000000000294d5 .LASF502
C:\Users\CYMR90~1\AppData\Local\Temp\ccsGRYiA.s:24885  .debug_str:000000000001456e .LASF503
C:\Users\CYMR90~1\AppData\Local\Temp\ccsGRYiA.s:20521  .debug_str:0000000000002ca5 .LASF504
C:\Users\CYMR90~1\AppData\Local\Temp\ccsGRYiA.s:28764  .debug_str:0000000000023bc9 .LASF505
C:\Users\CYMR90~1\AppData\Local\Temp\ccsGRYiA.s:29624  .debug_str:000000000002750f .LASF506
C:\Users\CYMR90~1\AppData\Local\Temp\ccsGRYiA.s:29204  .debug_str:0000000000025af4 .LASF507
C:\Users\CYMR90~1\AppData\Local\Temp\ccsGRYiA.s:25972  .debug_str:0000000000018b8b .LASF508
C:\Users\CYMR90~1\AppData\Local\Temp\ccsGRYiA.s:28196  .debug_str:00000000000219ad .LASF509
C:\Users\CYMR90~1\AppData\Local\Temp\ccsGRYiA.s:29850  .debug_str:00000000000284b1 .LASF510
C:\Users\CYMR90~1\AppData\Local\Temp\ccsGRYiA.s:25750  .debug_str:0000000000017e06 .LASF511
C:\Users\CYMR90~1\AppData\Local\Temp\ccsGRYiA.s:29480  .debug_str:0000000000026bc6 .LASF512
C:\Users\CYMR90~1\AppData\Local\Temp\ccsGRYiA.s:29596  .debug_str:0000000000027387 .LASF513
C:\Users\CYMR90~1\AppData\Local\Temp\ccsGRYiA.s:30032  .debug_str:000000000002905f .LASF514
C:\Users\CYMR90~1\AppData\Local\Temp\ccsGRYiA.s:24661  .debug_str:0000000000013818 .LASF515
C:\Users\CYMR90~1\AppData\Local\Temp\ccsGRYiA.s:29910  .debug_str:00000000000288c6 .LASF516
C:\Users\CYMR90~1\AppData\Local\Temp\ccsGRYiA.s:26118  .debug_str:0000000000019615 .LASF517
C:\Users\CYMR90~1\AppData\Local\Temp\ccsGRYiA.s:29860  .debug_str:000000000002857e .LASF518
C:\Users\CYMR90~1\AppData\Local\Temp\ccsGRYiA.s:26770  .debug_str:000000000001c0dd .LASF519
C:\Users\CYMR90~1\AppData\Local\Temp\ccsGRYiA.s:30790  .debug_str:000000000002bf8d .LASF520
C:\Users\CYMR90~1\AppData\Local\Temp\ccsGRYiA.s:27028  .debug_str:000000000001d2a8 .LASF521
C:\Users\CYMR90~1\AppData\Local\Temp\ccsGRYiA.s:29114  .debug_str:0000000000025480 .LASF522
C:\Users\CYMR90~1\AppData\Local\Temp\ccsGRYiA.s:24539  .debug_str:0000000000012fb2 .LASF523
C:\Users\CYMR90~1\AppData\Local\Temp\ccsGRYiA.s:28678  .debug_str:0000000000023704 .LASF524
C:\Users\CYMR90~1\AppData\Local\Temp\ccsGRYiA.s:22153  .debug_str:00000000000094ee .LASF525
C:\Users\CYMR90~1\AppData\Local\Temp\ccsGRYiA.s:30810  .debug_str:000000000002c0c4 .LASF526
C:\Users\CYMR90~1\AppData\Local\Temp\ccsGRYiA.s:23399  .debug_str:000000000000e5b6 .LASF527
C:\Users\CYMR90~1\AppData\Local\Temp\ccsGRYiA.s:24399  .debug_str:0000000000012690 .LASF528
C:\Users\CYMR90~1\AppData\Local\Temp\ccsGRYiA.s:25251  .debug_str:0000000000015c07 .LASF529
C:\Users\CYMR90~1\AppData\Local\Temp\ccsGRYiA.s:25285  .debug_str:0000000000015e5c .LASF530
C:\Users\CYMR90~1\AppData\Local\Temp\ccsGRYiA.s:24321  .debug_str:00000000000121aa .LASF531
C:\Users\CYMR90~1\AppData\Local\Temp\ccsGRYiA.s:20583  .debug_str:0000000000003062 .LASF532
C:\Users\CYMR90~1\AppData\Local\Temp\ccsGRYiA.s:23071  .debug_str:000000000000d18d .LASF533
C:\Users\CYMR90~1\AppData\Local\Temp\ccsGRYiA.s:30650  .debug_str:000000000002b5ee .LASF534
C:\Users\CYMR90~1\AppData\Local\Temp\ccsGRYiA.s:23585  .debug_str:000000000000f12d .LASF535
C:\Users\CYMR90~1\AppData\Local\Temp\ccsGRYiA.s:28864  .debug_str:0000000000024328 .LASF536
C:\Users\CYMR90~1\AppData\Local\Temp\ccsGRYiA.s:30302  .debug_str:000000000002a08f .LASF537
C:\Users\CYMR90~1\AppData\Local\Temp\ccsGRYiA.s:24153  .debug_str:0000000000011564 .LASF538
C:\Users\CYMR90~1\AppData\Local\Temp\ccsGRYiA.s:24737  .debug_str:0000000000013c86 .LASF539
C:\Users\CYMR90~1\AppData\Local\Temp\ccsGRYiA.s:26826  .debug_str:000000000001c43d .LASF540
C:\Users\CYMR90~1\AppData\Local\Temp\ccsGRYiA.s:23169  .debug_str:000000000000d82b .LASF541
C:\Users\CYMR90~1\AppData\Local\Temp\ccsGRYiA.s:27120  .debug_str:000000000001d889 .LASF542
C:\Users\CYMR90~1\AppData\Local\Temp\ccsGRYiA.s:20923  .debug_str:0000000000004706 .LASF543
C:\Users\CYMR90~1\AppData\Local\Temp\ccsGRYiA.s:23329  .debug_str:000000000000e184 .LASF544
C:\Users\CYMR90~1\AppData\Local\Temp\ccsGRYiA.s:30090  .debug_str:00000000000293e8 .LASF545
C:\Users\CYMR90~1\AppData\Local\Temp\ccsGRYiA.s:24671  .debug_str:00000000000138a7 .LASF546
C:\Users\CYMR90~1\AppData\Local\Temp\ccsGRYiA.s:28382  .debug_str:000000000002250b .LASF547
C:\Users\CYMR90~1\AppData\Local\Temp\ccsGRYiA.s:30564  .debug_str:000000000002b057 .LASF548
C:\Users\CYMR90~1\AppData\Local\Temp\ccsGRYiA.s:20629  .debug_str:00000000000033b8 .LASF549
C:\Users\CYMR90~1\AppData\Local\Temp\ccsGRYiA.s:21777  .debug_str:0000000000007cbc .LASF550
C:\Users\CYMR90~1\AppData\Local\Temp\ccsGRYiA.s:29374  .debug_str:000000000002655c .LASF551
C:\Users\CYMR90~1\AppData\Local\Temp\ccsGRYiA.s:21339  .debug_str:0000000000006109 .LASF552
C:\Users\CYMR90~1\AppData\Local\Temp\ccsGRYiA.s:30320  .debug_str:000000000002a18b .LASF553
C:\Users\CYMR90~1\AppData\Local\Temp\ccsGRYiA.s:22741  .debug_str:000000000000bb2f .LASF554
C:\Users\CYMR90~1\AppData\Local\Temp\ccsGRYiA.s:22923  .debug_str:000000000000c774 .LASF555
C:\Users\CYMR90~1\AppData\Local\Temp\ccsGRYiA.s:21463  .debug_str:0000000000006882 .LASF556
C:\Users\CYMR90~1\AppData\Local\Temp\ccsGRYiA.s:21167  .debug_str:0000000000005641 .LASF557
C:\Users\CYMR90~1\AppData\Local\Temp\ccsGRYiA.s:24267  .debug_str:0000000000011d85 .LASF558
C:\Users\CYMR90~1\AppData\Local\Temp\ccsGRYiA.s:25998  .debug_str:0000000000018dac .LASF559
C:\Users\CYMR90~1\AppData\Local\Temp\ccsGRYiA.s:29900  .debug_str:000000000002881e .LASF560
C:\Users\CYMR90~1\AppData\Local\Temp\ccsGRYiA.s:20303  .debug_str:0000000000001f83 .LASF561
C:\Users\CYMR90~1\AppData\Local\Temp\ccsGRYiA.s:23745  .debug_str:000000000000fb6d .LASF562
C:\Users\CYMR90~1\AppData\Local\Temp\ccsGRYiA.s:23117  .debug_str:000000000000d4ec .LASF563
C:\Users\CYMR90~1\AppData\Local\Temp\ccsGRYiA.s:22443  .debug_str:000000000000a779 .LASF564
C:\Users\CYMR90~1\AppData\Local\Temp\ccsGRYiA.s:28136  .debug_str:000000000002162c .LASF565
C:\Users\CYMR90~1\AppData\Local\Temp\ccsGRYiA.s:27358  .debug_str:000000000001e6dc .LASF566
C:\Users\CYMR90~1\AppData\Local\Temp\ccsGRYiA.s:24263  .debug_str:0000000000011d3d .LASF567
C:\Users\CYMR90~1\AppData\Local\Temp\ccsGRYiA.s:21341  .debug_str:000000000000611d .LASF568
C:\Users\CYMR90~1\AppData\Local\Temp\ccsGRYiA.s:19993  .debug_str:0000000000000c60 .LASF570
C:\Users\CYMR90~1\AppData\Local\Temp\ccsGRYiA.s:25632  .debug_str:00000000000176a8 .LASF571
C:\Users\CYMR90~1\AppData\Local\Temp\ccsGRYiA.s:26766  .debug_str:000000000001c0b7 .LASF574
C:\Users\CYMR90~1\AppData\Local\Temp\ccsGRYiA.s:20891  .debug_str:00000000000044e8 .LASF575
C:\Users\CYMR90~1\AppData\Local\Temp\ccsGRYiA.s:24891  .debug_str:0000000000014606 .LASF576
C:\Users\CYMR90~1\AppData\Local\Temp\ccsGRYiA.s:21873  .debug_str:0000000000008430 .LASF577
C:\Users\CYMR90~1\AppData\Local\Temp\ccsGRYiA.s:28034  .debug_str:0000000000020fae .LASF579
C:\Users\CYMR90~1\AppData\Local\Temp\ccsGRYiA.s:27236  .debug_str:000000000001dfad .LASF580
C:\Users\CYMR90~1\AppData\Local\Temp\ccsGRYiA.s:28762  .debug_str:0000000000023bc0 .LASF581
C:\Users\CYMR90~1\AppData\Local\Temp\ccsGRYiA.s:21297  .debug_str:0000000000005e38 .LASF582
C:\Users\CYMR90~1\AppData\Local\Temp\ccsGRYiA.s:23887  .debug_str:000000000001046f .LASF583
C:\Users\CYMR90~1\AppData\Local\Temp\ccsGRYiA.s:20477  .debug_str:0000000000002a14 .LASF584
C:\Users\CYMR90~1\AppData\Local\Temp\ccsGRYiA.s:30184  .debug_str:00000000000299a2 .LASF585
C:\Users\CYMR90~1\AppData\Local\Temp\ccsGRYiA.s:28432  .debug_str:0000000000022805 .LASF586
C:\Users\CYMR90~1\AppData\Local\Temp\ccsGRYiA.s:26650  .debug_str:000000000001b9a7 .LASF587
C:\Users\CYMR90~1\AppData\Local\Temp\ccsGRYiA.s:21529  .debug_str:0000000000006cb3 .LASF588
C:\Users\CYMR90~1\AppData\Local\Temp\ccsGRYiA.s:25912  .debug_str:00000000000187a1 .LASF589
C:\Users\CYMR90~1\AppData\Local\Temp\ccsGRYiA.s:26284  .debug_str:000000000001a096 .LASF590
C:\Users\CYMR90~1\AppData\Local\Temp\ccsGRYiA.s:30892  .debug_str:000000000002c667 .LASF591
C:\Users\CYMR90~1\AppData\Local\Temp\ccsGRYiA.s:26900  .debug_str:000000000001c973 .LASF592
C:\Users\CYMR90~1\AppData\Local\Temp\ccsGRYiA.s:28750  .debug_str:0000000000023b1d .LASF593
C:\Users\CYMR90~1\AppData\Local\Temp\ccsGRYiA.s:23851  .debug_str:0000000000010260 .LASF594
C:\Users\CYMR90~1\AppData\Local\Temp\ccsGRYiA.s:24729  .debug_str:0000000000013c22 .LASF595
C:\Users\CYMR90~1\AppData\Local\Temp\ccsGRYiA.s:24453  .debug_str:0000000000012a35 .LASF596
C:\Users\CYMR90~1\AppData\Local\Temp\ccsGRYiA.s:21633  .debug_str:00000000000073b8 .LASF597
C:\Users\CYMR90~1\AppData\Local\Temp\ccsGRYiA.s:29720  .debug_str:0000000000027b81 .LASF598
C:\Users\CYMR90~1\AppData\Local\Temp\ccsGRYiA.s:24619  .debug_str:0000000000013556 .LASF599
C:\Users\CYMR90~1\AppData\Local\Temp\ccsGRYiA.s:27558  .debug_str:000000000001f2fd .LASF600
C:\Users\CYMR90~1\AppData\Local\Temp\ccsGRYiA.s:26834  .debug_str:000000000001c4a9 .LASF601
C:\Users\CYMR90~1\AppData\Local\Temp\ccsGRYiA.s:29212  .debug_str:0000000000025b87 .LASF602
C:\Users\CYMR90~1\AppData\Local\Temp\ccsGRYiA.s:29918  .debug_str:0000000000028959 .LASF603
C:\Users\CYMR90~1\AppData\Local\Temp\ccsGRYiA.s:29806  .debug_str:00000000000281d2 .LASF604
C:\Users\CYMR90~1\AppData\Local\Temp\ccsGRYiA.s:24567  .debug_str:000000000001319d .LASF605
C:\Users\CYMR90~1\AppData\Local\Temp\ccsGRYiA.s:28566  .debug_str:0000000000023003 .LASF606
C:\Users\CYMR90~1\AppData\Local\Temp\ccsGRYiA.s:22223  .debug_str:00000000000099da .LASF607
C:\Users\CYMR90~1\AppData\Local\Temp\ccsGRYiA.s:21729  .debug_str:00000000000079ad .LASF608
C:\Users\CYMR90~1\AppData\Local\Temp\ccsGRYiA.s:22505  .debug_str:000000000000ab4b .LASF609
C:\Users\CYMR90~1\AppData\Local\Temp\ccsGRYiA.s:26686  .debug_str:000000000001bb6c .LASF610
C:\Users\CYMR90~1\AppData\Local\Temp\ccsGRYiA.s:27198  .debug_str:000000000001dd47 .LASF611
C:\Users\CYMR90~1\AppData\Local\Temp\ccsGRYiA.s:28352  .debug_str:0000000000022350 .LASF612
C:\Users\CYMR90~1\AppData\Local\Temp\ccsGRYiA.s:25117  .debug_str:000000000001544e .LASF613
C:\Users\CYMR90~1\AppData\Local\Temp\ccsGRYiA.s:21799  .debug_str:0000000000007eca .LASF614
C:\Users\CYMR90~1\AppData\Local\Temp\ccsGRYiA.s:19893  .debug_str:000000000000059e .LASF615
C:\Users\CYMR90~1\AppData\Local\Temp\ccsGRYiA.s:25355  .debug_str:0000000000016302 .LASF616
C:\Users\CYMR90~1\AppData\Local\Temp\ccsGRYiA.s:26320  .debug_str:000000000001a2c4 .LASF617
C:\Users\CYMR90~1\AppData\Local\Temp\ccsGRYiA.s:25489  .debug_str:0000000000016c6d .LASF618
C:\Users\CYMR90~1\AppData\Local\Temp\ccsGRYiA.s:28440  .debug_str:000000000002286a .LASF619
C:\Users\CYMR90~1\AppData\Local\Temp\ccsGRYiA.s:22757  .debug_str:000000000000bcb3 .LASF620
C:\Users\CYMR90~1\AppData\Local\Temp\ccsGRYiA.s:21543  .debug_str:0000000000006da0 .LASF621
C:\Users\CYMR90~1\AppData\Local\Temp\ccsGRYiA.s:28626  .debug_str:0000000000023374 .LASF622
C:\Users\CYMR90~1\AppData\Local\Temp\ccsGRYiA.s:27732  .debug_str:000000000001fda8 .LASF623
C:\Users\CYMR90~1\AppData\Local\Temp\ccsGRYiA.s:29678  .debug_str:0000000000027854 .LASF624
C:\Users\CYMR90~1\AppData\Local\Temp\ccsGRYiA.s:30276  .debug_str:0000000000029f2a .LASF625
C:\Users\CYMR90~1\AppData\Local\Temp\ccsGRYiA.s:24799  .debug_str:0000000000014008 .LASF626
C:\Users\CYMR90~1\AppData\Local\Temp\ccsGRYiA.s:30530  .debug_str:000000000002ae1c .LASF627
C:\Users\CYMR90~1\AppData\Local\Temp\ccsGRYiA.s:25209  .debug_str:000000000001597b .LASF628
C:\Users\CYMR90~1\AppData\Local\Temp\ccsGRYiA.s:28380  .debug_str:00000000000224d3 .LASF629
C:\Users\CYMR90~1\AppData\Local\Temp\ccsGRYiA.s:23841  .debug_str:00000000000101ad .LASF630
C:\Users\CYMR90~1\AppData\Local\Temp\ccsGRYiA.s:23155  .debug_str:000000000000d744 .LASF631
C:\Users\CYMR90~1\AppData\Local\Temp\ccsGRYiA.s:28342  .debug_str:00000000000222b0 .LASF632
C:\Users\CYMR90~1\AppData\Local\Temp\ccsGRYiA.s:22867  .debug_str:000000000000c3b2 .LASF633
C:\Users\CYMR90~1\AppData\Local\Temp\ccsGRYiA.s:19983  .debug_str:0000000000000bcd .LASF634
C:\Users\CYMR90~1\AppData\Local\Temp\ccsGRYiA.s:26230  .debug_str:0000000000019d7c .LASF635
C:\Users\CYMR90~1\AppData\Local\Temp\ccsGRYiA.s:25411  .debug_str:00000000000166c0 .LASF636
C:\Users\CYMR90~1\AppData\Local\Temp\ccsGRYiA.s:26998  .debug_str:000000000001d0cc .LASF637
C:\Users\CYMR90~1\AppData\Local\Temp\ccsGRYiA.s:20687  .debug_str:000000000000375b .LASF638
C:\Users\CYMR90~1\AppData\Local\Temp\ccsGRYiA.s:24215  .debug_str:0000000000011a6b .LASF639
C:\Users\CYMR90~1\AppData\Local\Temp\ccsGRYiA.s:21811  .debug_str:0000000000007f75 .LASF640
C:\Users\CYMR90~1\AppData\Local\Temp\ccsGRYiA.s:24435  .debug_str:00000000000128f9 .LASF641
C:\Users\CYMR90~1\AppData\Local\Temp\ccsGRYiA.s:22659  .debug_str:000000000000b5f3 .LASF642
C:\Users\CYMR90~1\AppData\Local\Temp\ccsGRYiA.s:29660  .debug_str:000000000002770a .LASF643
C:\Users\CYMR90~1\AppData\Local\Temp\ccsGRYiA.s:23025  .debug_str:000000000000ce7d .LASF644
C:\Users\CYMR90~1\AppData\Local\Temp\ccsGRYiA.s:20863  .debug_str:00000000000042de .LASF645
C:\Users\CYMR90~1\AppData\Local\Temp\ccsGRYiA.s:21691  .debug_str:000000000000772b .LASF646
C:\Users\CYMR90~1\AppData\Local\Temp\ccsGRYiA.s:20621  .debug_str:000000000000331e .LASF647
C:\Users\CYMR90~1\AppData\Local\Temp\ccsGRYiA.s:20985  .debug_str:0000000000004b49 .LASF648
C:\Users\CYMR90~1\AppData\Local\Temp\ccsGRYiA.s:30182  .debug_str:0000000000029963 .LASF649
C:\Users\CYMR90~1\AppData\Local\Temp\ccsGRYiA.s:24133  .debug_str:00000000000113e0 .LASF650
C:\Users\CYMR90~1\AppData\Local\Temp\ccsGRYiA.s:30292  .debug_str:000000000002a006 .LASF651
C:\Users\CYMR90~1\AppData\Local\Temp\ccsGRYiA.s:23753  .debug_str:000000000000fc0a .LASF652
C:\Users\CYMR90~1\AppData\Local\Temp\ccsGRYiA.s:19873  .debug_str:00000000000004a1 .LASF653
C:\Users\CYMR90~1\AppData\Local\Temp\ccsGRYiA.s:30514  .debug_str:000000000002ad44 .LASF654
C:\Users\CYMR90~1\AppData\Local\Temp\ccsGRYiA.s:22045  .debug_str:0000000000008edb .LASF655
C:\Users\CYMR90~1\AppData\Local\Temp\ccsGRYiA.s:29734  .debug_str:0000000000027c59 .LASF656
C:\Users\CYMR90~1\AppData\Local\Temp\ccsGRYiA.s:19927  .debug_str:0000000000000816 .LASF657
C:\Users\CYMR90~1\AppData\Local\Temp\ccsGRYiA.s:30342  .debug_str:000000000002a303 .LASF658
C:\Users\CYMR90~1\AppData\Local\Temp\ccsGRYiA.s:24531  .debug_str:0000000000012f4d .LASF659
C:\Users\CYMR90~1\AppData\Local\Temp\ccsGRYiA.s:26930  .debug_str:000000000001cb3f .LASF660
C:\Users\CYMR90~1\AppData\Local\Temp\ccsGRYiA.s:23435  .debug_str:000000000000e839 .LASF661
C:\Users\CYMR90~1\AppData\Local\Temp\ccsGRYiA.s:27584  .debug_str:000000000001f49e .LASF662
C:\Users\CYMR90~1\AppData\Local\Temp\ccsGRYiA.s:29520  .debug_str:0000000000026e71 .LASF663
C:\Users\CYMR90~1\AppData\Local\Temp\ccsGRYiA.s:24113  .debug_str:00000000000112bc .LASF664
C:\Users\CYMR90~1\AppData\Local\Temp\ccsGRYiA.s:24105  .debug_str:0000000000011266 .LASF665
C:\Users\CYMR90~1\AppData\Local\Temp\ccsGRYiA.s:26006  .debug_str:0000000000018e5e .LASF666
C:\Users\CYMR90~1\AppData\Local\Temp\ccsGRYiA.s:21275  .debug_str:0000000000005cfc .LASF667
C:\Users\CYMR90~1\AppData\Local\Temp\ccsGRYiA.s:31014  .debug_str:000000000002ce49 .LASF668
C:\Users\CYMR90~1\AppData\Local\Temp\ccsGRYiA.s:21657  .debug_str:000000000000751e .LASF669
C:\Users\CYMR90~1\AppData\Local\Temp\ccsGRYiA.s:28228  .debug_str:0000000000021bd6 .LASF670
C:\Users\CYMR90~1\AppData\Local\Temp\ccsGRYiA.s:24515  .debug_str:0000000000012e40 .LASF671
C:\Users\CYMR90~1\AppData\Local\Temp\ccsGRYiA.s:27634  .debug_str:000000000001f75e .LASF672
C:\Users\CYMR90~1\AppData\Local\Temp\ccsGRYiA.s:28356  .debug_str:0000000000022381 .LASF673
C:\Users\CYMR90~1\AppData\Local\Temp\ccsGRYiA.s:20257  .debug_str:0000000000001ce4 .LASF674
C:\Users\CYMR90~1\AppData\Local\Temp\ccsGRYiA.s:25195  .debug_str:000000000001589c .LASF676
C:\Users\CYMR90~1\AppData\Local\Temp\ccsGRYiA.s:28782  .debug_str:0000000000023d1a .LASF677
C:\Users\CYMR90~1\AppData\Local\Temp\ccsGRYiA.s:26242  .debug_str:0000000000019e2c .LASF678
C:\Users\CYMR90~1\AppData\Local\Temp\ccsGRYiA.s:28884  .debug_str:00000000000244a0 .LASF679
C:\Users\CYMR90~1\AppData\Local\Temp\ccsGRYiA.s:27354  .debug_str:000000000001e6b0 .LASF680
C:\Users\CYMR90~1\AppData\Local\Temp\ccsGRYiA.s:30196  .debug_str:0000000000029a60 .LASF681
C:\Users\CYMR90~1\AppData\Local\Temp\ccsGRYiA.s:20865  .debug_str:000000000000431c .LASF682
C:\Users\CYMR90~1\AppData\Local\Temp\ccsGRYiA.s:20787  .debug_str:0000000000003da8 .LASF683
C:\Users\CYMR90~1\AppData\Local\Temp\ccsGRYiA.s:22181  .debug_str:00000000000096d4 .LASF684
C:\Users\CYMR90~1\AppData\Local\Temp\ccsGRYiA.s:26690  .debug_str:000000000001bb99 .LASF685
C:\Users\CYMR90~1\AppData\Local\Temp\ccsGRYiA.s:28092  .debug_str:00000000000213ad .LASF686
C:\Users\CYMR90~1\AppData\Local\Temp\ccsGRYiA.s:25467  .debug_str:0000000000016a9e .LASF687
C:\Users\CYMR90~1\AppData\Local\Temp\ccsGRYiA.s:24041  .debug_str:0000000000010eb7 .LASF688
C:\Users\CYMR90~1\AppData\Local\Temp\ccsGRYiA.s:20669  .debug_str:0000000000003622 .LASF689
C:\Users\CYMR90~1\AppData\Local\Temp\ccsGRYiA.s:21549  .debug_str:0000000000006e1f .LASF690
C:\Users\CYMR90~1\AppData\Local\Temp\ccsGRYiA.s:24379  .debug_str:0000000000012541 .LASF691
C:\Users\CYMR90~1\AppData\Local\Temp\ccsGRYiA.s:25233  .debug_str:0000000000015aea .LASF692
C:\Users\CYMR90~1\AppData\Local\Temp\ccsGRYiA.s:21241  .debug_str:0000000000005af4 .LASF695
C:\Users\CYMR90~1\AppData\Local\Temp\ccsGRYiA.s:25630  .debug_str:0000000000017691 .LASF696
C:\Users\CYMR90~1\AppData\Local\Temp\ccsGRYiA.s:25528  .debug_str:00000000000170a3 .LASF697
C:\Users\CYMR90~1\AppData\Local\Temp\ccsGRYiA.s:26660  .debug_str:000000000001ba08 .LASF698
C:\Users\CYMR90~1\AppData\Local\Temp\ccsGRYiA.s:28822  .debug_str:0000000000023f5c .LASF699
C:\Users\CYMR90~1\AppData\Local\Temp\ccsGRYiA.s:24971  .debug_str:0000000000014abd .LASF702
C:\Users\CYMR90~1\AppData\Local\Temp\ccsGRYiA.s:22203  .debug_str:000000000000982b .LASF703
C:\Users\CYMR90~1\AppData\Local\Temp\ccsGRYiA.s:27528  .debug_str:000000000001f13c .LASF704
C:\Users\CYMR90~1\AppData\Local\Temp\ccsGRYiA.s:21063  .debug_str:0000000000004ffe .LASF705
C:\Users\CYMR90~1\AppData\Local\Temp\ccsGRYiA.s:25295  .debug_str:0000000000015f30 .LASF706
C:\Users\CYMR90~1\AppData\Local\Temp\ccsGRYiA.s:23631  .debug_str:000000000000f425 .LASF707
C:\Users\CYMR90~1\AppData\Local\Temp\ccsGRYiA.s:29934  .debug_str:0000000000028a51 .LASF708
C:\Users\CYMR90~1\AppData\Local\Temp\ccsGRYiA.s:29182  .debug_str:00000000000259a4 .LASF709
C:\Users\CYMR90~1\AppData\Local\Temp\ccsGRYiA.s:23273  .debug_str:000000000000de4e .LASF710
C:\Users\CYMR90~1\AppData\Local\Temp\ccsGRYiA.s:23789  .debug_str:000000000000fe52 .LASF711
C:\Users\CYMR90~1\AppData\Local\Temp\ccsGRYiA.s:25441  .debug_str:00000000000168ac .LASF712
C:\Users\CYMR90~1\AppData\Local\Temp\ccsGRYiA.s:22437  .debug_str:000000000000a707 .LASF713
C:\Users\CYMR90~1\AppData\Local\Temp\ccsGRYiA.s:30732  .debug_str:000000000002bb86 .LASF714
C:\Users\CYMR90~1\AppData\Local\Temp\ccsGRYiA.s:21795  .debug_str:0000000000007e65 .LASF715
C:\Users\CYMR90~1\AppData\Local\Temp\ccsGRYiA.s:22697  .debug_str:000000000000b868 .LASF716
C:\Users\CYMR90~1\AppData\Local\Temp\ccsGRYiA.s:27750  .debug_str:000000000001feec .LASF717
C:\Users\CYMR90~1\AppData\Local\Temp\ccsGRYiA.s:29140  .debug_str:00000000000256a0 .LASF718
C:\Users\CYMR90~1\AppData\Local\Temp\ccsGRYiA.s:28926  .debug_str:000000000002472d .LASF719
C:\Users\CYMR90~1\AppData\Local\Temp\ccsGRYiA.s:25944  .debug_str:0000000000018a02 .LASF720
C:\Users\CYMR90~1\AppData\Local\Temp\ccsGRYiA.s:20315  .debug_str:0000000000002052 .LASF721
C:\Users\CYMR90~1\AppData\Local\Temp\ccsGRYiA.s:27860  .debug_str:000000000002057e .LASF722
C:\Users\CYMR90~1\AppData\Local\Temp\ccsGRYiA.s:26846  .debug_str:000000000001c53e .LASF723
C:\Users\CYMR90~1\AppData\Local\Temp\ccsGRYiA.s:27404  .debug_str:000000000001e9e9 .LASF724
C:\Users\CYMR90~1\AppData\Local\Temp\ccsGRYiA.s:28334  .debug_str:000000000002225e .LASF725
C:\Users\CYMR90~1\AppData\Local\Temp\ccsGRYiA.s:24635  .debug_str:0000000000013662 .LASF726
C:\Users\CYMR90~1\AppData\Local\Temp\ccsGRYiA.s:22431  .debug_str:000000000000a6ad .LASF727
C:\Users\CYMR90~1\AppData\Local\Temp\ccsGRYiA.s:29276  .debug_str:0000000000025f85 .LASF728
C:\Users\CYMR90~1\AppData\Local\Temp\ccsGRYiA.s:20223  .debug_str:0000000000001ac2 .LASF729
C:\Users\CYMR90~1\AppData\Local\Temp\ccsGRYiA.s:26128  .debug_str:00000000000196b0 .LASF730
C:\Users\CYMR90~1\AppData\Local\Temp\ccsGRYiA.s:24607  .debug_str:00000000000134b7 .LASF731
C:\Users\CYMR90~1\AppData\Local\Temp\ccsGRYiA.s:29214  .debug_str:0000000000025bc2 .LASF732
C:\Users\CYMR90~1\AppData\Local\Temp\ccsGRYiA.s:30940  .debug_str:000000000002c98e .LASF733
C:\Users\CYMR90~1\AppData\Local\Temp\ccsGRYiA.s:24091  .debug_str:000000000001117b .LASF734
C:\Users\CYMR90~1\AppData\Local\Temp\ccsGRYiA.s:24017  .debug_str:0000000000010d80 .LASF735
C:\Users\CYMR90~1\AppData\Local\Temp\ccsGRYiA.s:30866  .debug_str:000000000002c48e .LASF736
C:\Users\CYMR90~1\AppData\Local\Temp\ccsGRYiA.s:22993  .debug_str:000000000000cc70 .LASF737
C:\Users\CYMR90~1\AppData\Local\Temp\ccsGRYiA.s:26996  .debug_str:000000000001d0bb .LASF738
C:\Users\CYMR90~1\AppData\Local\Temp\ccsGRYiA.s:30618  .debug_str:000000000002b3d9 .LASF739
C:\Users\CYMR90~1\AppData\Local\Temp\ccsGRYiA.s:20225  .debug_str:0000000000001ad5 .LASF740
C:\Users\CYMR90~1\AppData\Local\Temp\ccsGRYiA.s:22929  .debug_str:000000000000c7e4 .LASF741
C:\Users\CYMR90~1\AppData\Local\Temp\ccsGRYiA.s:20201  .debug_str:000000000000197f .LASF742
C:\Users\CYMR90~1\AppData\Local\Temp\ccsGRYiA.s:24051  .debug_str:0000000000010f23 .LASF743
C:\Users\CYMR90~1\AppData\Local\Temp\ccsGRYiA.s:20657  .debug_str:000000000000358a .LASF744
C:\Users\CYMR90~1\AppData\Local\Temp\ccsGRYiA.s:22053  .debug_str:0000000000008f5c .LASF745
C:\Users\CYMR90~1\AppData\Local\Temp\ccsGRYiA.s:28346  .debug_str:00000000000222ff .LASF746
C:\Users\CYMR90~1\AppData\Local\Temp\ccsGRYiA.s:20097  .debug_str:00000000000012a1 .LASF747
C:\Users\CYMR90~1\AppData\Local\Temp\ccsGRYiA.s:20087  .debug_str:000000000000121f .LASF748
C:\Users\CYMR90~1\AppData\Local\Temp\ccsGRYiA.s:21221  .debug_str:0000000000005996 .LASF750
C:\Users\CYMR90~1\AppData\Local\Temp\ccsGRYiA.s:23969  .debug_str:00000000000109db .LASF751
C:\Users\CYMR90~1\AppData\Local\Temp\ccsGRYiA.s:30086  .debug_str:00000000000293a6 .LASF752
C:\Users\CYMR90~1\AppData\Local\Temp\ccsGRYiA.s:23909  .debug_str:00000000000105dd .LASF753
C:\Users\CYMR90~1\AppData\Local\Temp\ccsGRYiA.s:21105  .debug_str:00000000000052b5 .LASF754
C:\Users\CYMR90~1\AppData\Local\Temp\ccsGRYiA.s:22681  .debug_str:000000000000b782 .LASF755
C:\Users\CYMR90~1\AppData\Local\Temp\ccsGRYiA.s:26206  .debug_str:0000000000019c39 .LASF756
C:\Users\CYMR90~1\AppData\Local\Temp\ccsGRYiA.s:22191  .debug_str:0000000000009783 .LASF757
C:\Users\CYMR90~1\AppData\Local\Temp\ccsGRYiA.s:29166  .debug_str:00000000000258bc .LASF758
C:\Users\CYMR90~1\AppData\Local\Temp\ccsGRYiA.s:25846  .debug_str:00000000000183ea .LASF759
C:\Users\CYMR90~1\AppData\Local\Temp\ccsGRYiA.s:26574  .debug_str:000000000001b4f9 .LASF760
C:\Users\CYMR90~1\AppData\Local\Temp\ccsGRYiA.s:30714  .debug_str:000000000002ba40 .LASF761
C:\Users\CYMR90~1\AppData\Local\Temp\ccsGRYiA.s:22611  .debug_str:000000000000b27c .LASF762
C:\Users\CYMR90~1\AppData\Local\Temp\ccsGRYiA.s:26582  .debug_str:000000000001b58d .LASF765
C:\Users\CYMR90~1\AppData\Local\Temp\ccsGRYiA.s:25267  .debug_str:0000000000015d10 .LASF766
C:\Users\CYMR90~1\AppData\Local\Temp\ccsGRYiA.s:28238  .debug_str:0000000000021c74 .LASF767
C:\Users\CYMR90~1\AppData\Local\Temp\ccsGRYiA.s:25257  .debug_str:0000000000015ca0 .LASF768
C:\Users\CYMR90~1\AppData\Local\Temp\ccsGRYiA.s:20463  .debug_str:0000000000002952 .LASF769
C:\Users\CYMR90~1\AppData\Local\Temp\ccsGRYiA.s:26708  .debug_str:000000000001bd00 .LASF770
C:\Users\CYMR90~1\AppData\Local\Temp\ccsGRYiA.s:25351  .debug_str:00000000000162dc .LASF771
C:\Users\CYMR90~1\AppData\Local\Temp\ccsGRYiA.s:28892  .debug_str:0000000000024519 .LASF772
C:\Users\CYMR90~1\AppData\Local\Temp\ccsGRYiA.s:28528  .debug_str:0000000000022dd8 .LASF773
C:\Users\CYMR90~1\AppData\Local\Temp\ccsGRYiA.s:23353  .debug_str:000000000000e2fc .LASF774
C:\Users\CYMR90~1\AppData\Local\Temp\ccsGRYiA.s:29216  .debug_str:0000000000025bd8 .LASF775
C:\Users\CYMR90~1\AppData\Local\Temp\ccsGRYiA.s:22333  .debug_str:000000000000a0b8 .LASF776
C:\Users\CYMR90~1\AppData\Local\Temp\ccsGRYiA.s:22349  .debug_str:000000000000a1bc .LASF777
C:\Users\CYMR90~1\AppData\Local\Temp\ccsGRYiA.s:27344  .debug_str:000000000001e60f .LASF778
C:\Users\CYMR90~1\AppData\Local\Temp\ccsGRYiA.s:23853  .debug_str:0000000000010288 .LASF779
C:\Users\CYMR90~1\AppData\Local\Temp\ccsGRYiA.s:27592  .debug_str:000000000001f513 .LASF780
C:\Users\CYMR90~1\AppData\Local\Temp\ccsGRYiA.s:28234  .debug_str:0000000000021c3b .LASF781
C:\Users\CYMR90~1\AppData\Local\Temp\ccsGRYiA.s:24331  .debug_str:0000000000012251 .LASF782
C:\Users\CYMR90~1\AppData\Local\Temp\ccsGRYiA.s:25475  .debug_str:0000000000016bc1 .LASF783
C:\Users\CYMR90~1\AppData\Local\Temp\ccsGRYiA.s:24231  .debug_str:0000000000011b69 .LASF784
C:\Users\CYMR90~1\AppData\Local\Temp\ccsGRYiA.s:23535  .debug_str:000000000000ee53 .LASF785
C:\Users\CYMR90~1\AppData\Local\Temp\ccsGRYiA.s:28594  .debug_str:000000000002318d .LASF786
C:\Users\CYMR90~1\AppData\Local\Temp\ccsGRYiA.s:24985  .debug_str:0000000000014be2 .LASF787
C:\Users\CYMR90~1\AppData\Local\Temp\ccsGRYiA.s:27280  .debug_str:000000000001e252 .LASF788
C:\Users\CYMR90~1\AppData\Local\Temp\ccsGRYiA.s:23713  .debug_str:000000000000f988 .LASF789
C:\Users\CYMR90~1\AppData\Local\Temp\ccsGRYiA.s:21153  .debug_str:0000000000005590 .LASF790
C:\Users\CYMR90~1\AppData\Local\Temp\ccsGRYiA.s:29562  .debug_str:0000000000027176 .LASF791
C:\Users\CYMR90~1\AppData\Local\Temp\ccsGRYiA.s:21917  .debug_str:00000000000086b8 .LASF792
C:\Users\CYMR90~1\AppData\Local\Temp\ccsGRYiA.s:30946  .debug_str:000000000002c9dc .LASF793
C:\Users\CYMR90~1\AppData\Local\Temp\ccsGRYiA.s:21701  .debug_str:00000000000077ff .LASF794
C:\Users\CYMR90~1\AppData\Local\Temp\ccsGRYiA.s:29812  .debug_str:000000000002822f .LASF795
C:\Users\CYMR90~1\AppData\Local\Temp\ccsGRYiA.s:27834  .debug_str:000000000002038a .LASF796
C:\Users\CYMR90~1\AppData\Local\Temp\ccsGRYiA.s:30506  .debug_str:000000000002acf3 .LASF797
C:\Users\CYMR90~1\AppData\Local\Temp\ccsGRYiA.s:21533  .debug_str:0000000000006cfd .LASF798
C:\Users\CYMR90~1\AppData\Local\Temp\ccsGRYiA.s:29876  .debug_str:00000000000286a6 .LASF799
C:\Users\CYMR90~1\AppData\Local\Temp\ccsGRYiA.s:21119  .debug_str:0000000000005381 .LASF800
C:\Users\CYMR90~1\AppData\Local\Temp\ccsGRYiA.s:26340  .debug_str:000000000001a579 .LASF801
C:\Users\CYMR90~1\AppData\Local\Temp\ccsGRYiA.s:26368  .debug_str:000000000001a742 .LASF802
C:\Users\CYMR90~1\AppData\Local\Temp\ccsGRYiA.s:22253  .debug_str:0000000000009bc8 .LASF803
C:\Users\CYMR90~1\AppData\Local\Temp\ccsGRYiA.s:24739  .debug_str:0000000000013ca6 .LASF804
C:\Users\CYMR90~1\AppData\Local\Temp\ccsGRYiA.s:21547  .debug_str:0000000000006dc4 .LASF805
C:\Users\CYMR90~1\AppData\Local\Temp\ccsGRYiA.s:24183  .debug_str:00000000000117c3 .LASF806
C:\Users\CYMR90~1\AppData\Local\Temp\ccsGRYiA.s:27300  .debug_str:000000000001e342 .LASF807
C:\Users\CYMR90~1\AppData\Local\Temp\ccsGRYiA.s:26896  .debug_str:000000000001c923 .LASF808
C:\Users\CYMR90~1\AppData\Local\Temp\ccsGRYiA.s:29286  .debug_str:000000000002601c .LASF809
C:\Users\CYMR90~1\AppData\Local\Temp\ccsGRYiA.s:30718  .debug_str:000000000002ba95 .LASF810
C:\Users\CYMR90~1\AppData\Local\Temp\ccsGRYiA.s:21943  .debug_str:000000000000884d .LASF811
C:\Users\CYMR90~1\AppData\Local\Temp\ccsGRYiA.s:20847  .debug_str:0000000000004206 .LASF812
C:\Users\CYMR90~1\AppData\Local\Temp\ccsGRYiA.s:30754  .debug_str:000000000002bd48 .LASF813
C:\Users\CYMR90~1\AppData\Local\Temp\ccsGRYiA.s:21217  .debug_str:000000000000596f .LASF814
C:\Users\CYMR90~1\AppData\Local\Temp\ccsGRYiA.s:21445  .debug_str:0000000000006747 .LASF815
C:\Users\CYMR90~1\AppData\Local\Temp\ccsGRYiA.s:26674  .debug_str:000000000001bac6 .LASF816
C:\Users\CYMR90~1\AppData\Local\Temp\ccsGRYiA.s:22117  .debug_str:00000000000092fc .LASF817
C:\Users\CYMR90~1\AppData\Local\Temp\ccsGRYiA.s:26816  .debug_str:000000000001c3ad .LASF818
C:\Users\CYMR90~1\AppData\Local\Temp\ccsGRYiA.s:26712  .debug_str:000000000001bd18 .LASF819
C:\Users\CYMR90~1\AppData\Local\Temp\ccsGRYiA.s:19969  .debug_str:0000000000000ad3 .LASF820
C:\Users\CYMR90~1\AppData\Local\Temp\ccsGRYiA.s:30344  .debug_str:000000000002a313 .LASF821
C:\Users\CYMR90~1\AppData\Local\Temp\ccsGRYiA.s:28888  .debug_str:00000000000244de .LASF822
C:\Users\CYMR90~1\AppData\Local\Temp\ccsGRYiA.s:22081  .debug_str:00000000000090bd .LASF823
C:\Users\CYMR90~1\AppData\Local\Temp\ccsGRYiA.s:25399  .debug_str:000000000001661d .LASF824
C:\Users\CYMR90~1\AppData\Local\Temp\ccsGRYiA.s:27000  .debug_str:000000000001d0f6 .LASF825
C:\Users\CYMR90~1\AppData\Local\Temp\ccsGRYiA.s:25193  .debug_str:000000000001587b .LASF826
C:\Users\CYMR90~1\AppData\Local\Temp\ccsGRYiA.s:20735  .debug_str:0000000000003a72 .LASF827
C:\Users\CYMR90~1\AppData\Local\Temp\ccsGRYiA.s:23513  .debug_str:000000000000ed1e .LASF828
C:\Users\CYMR90~1\AppData\Local\Temp\ccsGRYiA.s:28994  .debug_str:0000000000024bee .LASF829
C:\Users\CYMR90~1\AppData\Local\Temp\ccsGRYiA.s:29156  .debug_str:00000000000257fc .LASF830
C:\Users\CYMR90~1\AppData\Local\Temp\ccsGRYiA.s:22687  .debug_str:000000000000b7dd .LASF831
C:\Users\CYMR90~1\AppData\Local\Temp\ccsGRYiA.s:23459  .debug_str:000000000000e9c3 .LASF832
C:\Users\CYMR90~1\AppData\Local\Temp\ccsGRYiA.s:21305  .debug_str:0000000000005ea4 .LASF833
C:\Users\CYMR90~1\AppData\Local\Temp\ccsGRYiA.s:24093  .debug_str:000000000001118c .LASF834
C:\Users\CYMR90~1\AppData\Local\Temp\ccsGRYiA.s:25870  .debug_str:0000000000018565 .LASF835
C:\Users\CYMR90~1\AppData\Local\Temp\ccsGRYiA.s:23999  .debug_str:0000000000010c0d .LASF836
C:\Users\CYMR90~1\AppData\Local\Temp\ccsGRYiA.s:27742  .debug_str:000000000001fe70 .LASF837
C:\Users\CYMR90~1\AppData\Local\Temp\ccsGRYiA.s:21989  .debug_str:0000000000008b4c .LASF838
C:\Users\CYMR90~1\AppData\Local\Temp\ccsGRYiA.s:21141  .debug_str:00000000000054f1 .LASF839
C:\Users\CYMR90~1\AppData\Local\Temp\ccsGRYiA.s:23899  .debug_str:000000000001052c .LASF840
C:\Users\CYMR90~1\AppData\Local\Temp\ccsGRYiA.s:22817  .debug_str:000000000000c09c .LASF841
C:\Users\CYMR90~1\AppData\Local\Temp\ccsGRYiA.s:26912  .debug_str:000000000001ca39 .LASF842
C:\Users\CYMR90~1\AppData\Local\Temp\ccsGRYiA.s:20039  .debug_str:0000000000000f67 .LASF843
C:\Users\CYMR90~1\AppData\Local\Temp\ccsGRYiA.s:20399  .debug_str:0000000000002514 .LASF844
C:\Users\CYMR90~1\AppData\Local\Temp\ccsGRYiA.s:28742  .debug_str:0000000000023ab3 .LASF845
C:\Users\CYMR90~1\AppData\Local\Temp\ccsGRYiA.s:19803  .debug_str:0000000000000096 .LASF846
C:\Users\CYMR90~1\AppData\Local\Temp\ccsGRYiA.s:21783  .debug_str:0000000000007dc4 .LASF847
C:\Users\CYMR90~1\AppData\Local\Temp\ccsGRYiA.s:27598  .debug_str:000000000001f561 .LASF848
C:\Users\CYMR90~1\AppData\Local\Temp\ccsGRYiA.s:21751  .debug_str:0000000000007b4a .LASF849
C:\Users\CYMR90~1\AppData\Local\Temp\ccsGRYiA.s:23113  .debug_str:000000000000d4be .LASF852
C:\Users\CYMR90~1\AppData\Local\Temp\ccsGRYiA.s:29928  .debug_str:00000000000289f9 .LASF853
C:\Users\CYMR90~1\AppData\Local\Temp\ccsGRYiA.s:25043  .debug_str:0000000000014ff8 .LASF854
C:\Users\CYMR90~1\AppData\Local\Temp\ccsGRYiA.s:28244  .debug_str:0000000000021d09 .LASF856
C:\Users\CYMR90~1\AppData\Local\Temp\ccsGRYiA.s:27142  .debug_str:000000000001da0f .LASF857
C:\Users\CYMR90~1\AppData\Local\Temp\ccsGRYiA.s:29746  .debug_str:0000000000027d0d .LASF858
C:\Users\CYMR90~1\AppData\Local\Temp\ccsGRYiA.s:23099  .debug_str:000000000000d3da .LASF859
C:\Users\CYMR90~1\AppData\Local\Temp\ccsGRYiA.s:24049  .debug_str:0000000000010f19 .LASF860
C:\Users\CYMR90~1\AppData\Local\Temp\ccsGRYiA.s:28176  .debug_str:0000000000021898 .LASF861
C:\Users\CYMR90~1\AppData\Local\Temp\ccsGRYiA.s:27336  .debug_str:000000000001e5bf .LASF862
C:\Users\CYMR90~1\AppData\Local\Temp\ccsGRYiA.s:20135  .debug_str:00000000000014ee .LASF863
C:\Users\CYMR90~1\AppData\Local\Temp\ccsGRYiA.s:20791  .debug_str:0000000000003dd6 .LASF864
C:\Users\CYMR90~1\AppData\Local\Temp\ccsGRYiA.s:21187  .debug_str:00000000000057c4 .LASF865
C:\Users\CYMR90~1\AppData\Local\Temp\ccsGRYiA.s:22381  .debug_str:000000000000a3d3 .LASF866
C:\Users\CYMR90~1\AppData\Local\Temp\ccsGRYiA.s:21855  .debug_str:00000000000082e6 .LASF867
C:\Users\CYMR90~1\AppData\Local\Temp\ccsGRYiA.s:27068  .debug_str:000000000001d50a .LASF868
C:\Users\CYMR90~1\AppData\Local\Temp\ccsGRYiA.s:27680  .debug_str:000000000001fa73 .LASF869
C:\Users\CYMR90~1\AppData\Local\Temp\ccsGRYiA.s:28756  .debug_str:0000000000023b79 .LASF870
C:\Users\CYMR90~1\AppData\Local\Temp\ccsGRYiA.s:22025  .debug_str:0000000000008dbd .LASF871
C:\Users\CYMR90~1\AppData\Local\Temp\ccsGRYiA.s:22457  .debug_str:000000000000a884 .LASF872
C:\Users\CYMR90~1\AppData\Local\Temp\ccsGRYiA.s:26904  .debug_str:000000000001c9c7 .LASF873
C:\Users\CYMR90~1\AppData\Local\Temp\ccsGRYiA.s:29456  .debug_str:0000000000026a72 .LASF874
C:\Users\CYMR90~1\AppData\Local\Temp\ccsGRYiA.s:24251  .debug_str:0000000000011c81 .LASF875
C:\Users\CYMR90~1\AppData\Local\Temp\ccsGRYiA.s:24947  .debug_str:00000000000149a1 .LASF876
C:\Users\CYMR90~1\AppData\Local\Temp\ccsGRYiA.s:22259  .debug_str:0000000000009c1d .LASF877
C:\Users\CYMR90~1\AppData\Local\Temp\ccsGRYiA.s:26614  .debug_str:000000000001b783 .LASF878
C:\Users\CYMR90~1\AppData\Local\Temp\ccsGRYiA.s:24045  .debug_str:0000000000010ef4 .LASF879
C:\Users\CYMR90~1\AppData\Local\Temp\ccsGRYiA.s:25580  .debug_str:00000000000173a2 .LASF880
C:\Users\CYMR90~1\AppData\Local\Temp\ccsGRYiA.s:21121  .debug_str:000000000000539a .LASF881
C:\Users\CYMR90~1\AppData\Local\Temp\ccsGRYiA.s:24473  .debug_str:0000000000012bad .LASF882
C:\Users\CYMR90~1\AppData\Local\Temp\ccsGRYiA.s:27570  .debug_str:000000000001f3e5 .LASF883
C:\Users\CYMR90~1\AppData\Local\Temp\ccsGRYiA.s:27754  .debug_str:000000000001ff19 .LASF884
C:\Users\CYMR90~1\AppData\Local\Temp\ccsGRYiA.s:31000  .debug_str:000000000002cd47 .LASF885
C:\Users\CYMR90~1\AppData\Local\Temp\ccsGRYiA.s:26620  .debug_str:000000000001b7db .LASF886
C:\Users\CYMR90~1\AppData\Local\Temp\ccsGRYiA.s:22129  .debug_str:00000000000093a3 .LASF887
C:\Users\CYMR90~1\AppData\Local\Temp\ccsGRYiA.s:28708  .debug_str:00000000000238e6 .LASF888
C:\Users\CYMR90~1\AppData\Local\Temp\ccsGRYiA.s:24411  .debug_str:0000000000012777 .LASF889
C:\Users\CYMR90~1\AppData\Local\Temp\ccsGRYiA.s:28642  .debug_str:000000000002347e .LASF890
C:\Users\CYMR90~1\AppData\Local\Temp\ccsGRYiA.s:20941  .debug_str:00000000000048bd .LASF891
C:\Users\CYMR90~1\AppData\Local\Temp\ccsGRYiA.s:23409  .debug_str:000000000000e695 .LASF892
C:\Users\CYMR90~1\AppData\Local\Temp\ccsGRYiA.s:29400  .debug_str:0000000000026738 .LASF893
C:\Users\CYMR90~1\AppData\Local\Temp\ccsGRYiA.s:28802  .debug_str:0000000000023e50 .LASF894
C:\Users\CYMR90~1\AppData\Local\Temp\ccsGRYiA.s:20109  .debug_str:000000000000134b .LASF895
C:\Users\CYMR90~1\AppData\Local\Temp\ccsGRYiA.s:24801  .debug_str:0000000000014040 .LASF896
C:\Users\CYMR90~1\AppData\Local\Temp\ccsGRYiA.s:21035  .debug_str:0000000000004e4b .LASF897
C:\Users\CYMR90~1\AppData\Local\Temp\ccsGRYiA.s:22249  .debug_str:0000000000009b89 .LASF898
C:\Users\CYMR90~1\AppData\Local\Temp\ccsGRYiA.s:29690  .debug_str:0000000000027964 .LASF899
C:\Users\CYMR90~1\AppData\Local\Temp\ccsGRYiA.s:22569  .debug_str:000000000000b027 .LASF900
C:\Users\CYMR90~1\AppData\Local\Temp\ccsGRYiA.s:26666  .debug_str:000000000001ba3e .LASF901
C:\Users\CYMR90~1\AppData\Local\Temp\ccsGRYiA.s:30218  .debug_str:0000000000029bbb .LASF902
C:\Users\CYMR90~1\AppData\Local\Temp\ccsGRYiA.s:28992  .debug_str:0000000000024bc8 .LASF903
C:\Users\CYMR90~1\AppData\Local\Temp\ccsGRYiA.s:29834  .debug_str:000000000002839a .LASF904
C:\Users\CYMR90~1\AppData\Local\Temp\ccsGRYiA.s:24457  .debug_str:0000000000012a9f .LASF905
C:\Users\CYMR90~1\AppData\Local\Temp\ccsGRYiA.s:21905  .debug_str:000000000000861e .LASF906
C:\Users\CYMR90~1\AppData\Local\Temp\ccsGRYiA.s:30386  .debug_str:000000000002a5fb .LASF907
C:\Users\CYMR90~1\AppData\Local\Temp\ccsGRYiA.s:23403  .debug_str:000000000000e637 .LASF908
C:\Users\CYMR90~1\AppData\Local\Temp\ccsGRYiA.s:29664  .debug_str:000000000002776a .LASF909
C:\Users\CYMR90~1\AppData\Local\Temp\ccsGRYiA.s:24019  .debug_str:0000000000010d91 .LASF910
C:\Users\CYMR90~1\AppData\Local\Temp\ccsGRYiA.s:20497  .debug_str:0000000000002b40 .LASF911
C:\Users\CYMR90~1\AppData\Local\Temp\ccsGRYiA.s:20081  .debug_str:00000000000011e2 .LASF912
C:\Users\CYMR90~1\AppData\Local\Temp\ccsGRYiA.s:28094  .debug_str:00000000000213d1 .LASF913
C:\Users\CYMR90~1\AppData\Local\Temp\ccsGRYiA.s:28974  .debug_str:0000000000024a98 .LASF914
C:\Users\CYMR90~1\AppData\Local\Temp\ccsGRYiA.s:22941  .debug_str:000000000000c8b6 .LASF915
C:\Users\CYMR90~1\AppData\Local\Temp\ccsGRYiA.s:25554  .debug_str:0000000000017200 .LASF916
C:\Users\CYMR90~1\AppData\Local\Temp\ccsGRYiA.s:23835  .debug_str:000000000001013c .LASF917
C:\Users\CYMR90~1\AppData\Local\Temp\ccsGRYiA.s:30458  .debug_str:000000000002aa02 .LASF918
C:\Users\CYMR90~1\AppData\Local\Temp\ccsGRYiA.s:20067  .debug_str:00000000000010ee .LASF919
C:\Users\CYMR90~1\AppData\Local\Temp\ccsGRYiA.s:22555  .debug_str:000000000000af3c .LASF920
C:\Users\CYMR90~1\AppData\Local\Temp\ccsGRYiA.s:28928  .debug_str:0000000000024742 .LASF921
C:\Users\CYMR90~1\AppData\Local\Temp\ccsGRYiA.s:26362  .debug_str:000000000001a6d0 .LASF922
C:\Users\CYMR90~1\AppData\Local\Temp\ccsGRYiA.s:29432  .debug_str:0000000000026918 .LASF923
C:\Users\CYMR90~1\AppData\Local\Temp\ccsGRYiA.s:25510  .debug_str:0000000000016f87 .LASF924
C:\Users\CYMR90~1\AppData\Local\Temp\ccsGRYiA.s:20453  .debug_str:000000000000289b .LASF925
C:\Users\CYMR90~1\AppData\Local\Temp\ccsGRYiA.s:26576  .debug_str:000000000001b533 .LASF926
C:\Users\CYMR90~1\AppData\Local\Temp\ccsGRYiA.s:20179  .debug_str:000000000000180d .LASF927
C:\Users\CYMR90~1\AppData\Local\Temp\ccsGRYiA.s:24977  .debug_str:0000000000014b5c .LASF928
C:\Users\CYMR90~1\AppData\Local\Temp\ccsGRYiA.s:27630  .debug_str:000000000001f725 .LASF929
C:\Users\CYMR90~1\AppData\Local\Temp\ccsGRYiA.s:30716  .debug_str:000000000002ba78 .LASF930
C:\Users\CYMR90~1\AppData\Local\Temp\ccsGRYiA.s:30938  .debug_str:000000000002c970 .LASF931
C:\Users\CYMR90~1\AppData\Local\Temp\ccsGRYiA.s:27530  .debug_str:000000000001f150 .LASF932
C:\Users\CYMR90~1\AppData\Local\Temp\ccsGRYiA.s:30198  .debug_str:0000000000029a70 .LASF933
C:\Users\CYMR90~1\AppData\Local\Temp\ccsGRYiA.s:25315  .debug_str:00000000000160b8 .LASF934
C:\Users\CYMR90~1\AppData\Local\Temp\ccsGRYiA.s:26138  .debug_str:0000000000019730 .LASF935
C:\Users\CYMR90~1\AppData\Local\Temp\ccsGRYiA.s:25197  .debug_str:00000000000158b0 .LASF936
C:\Users\CYMR90~1\AppData\Local\Temp\ccsGRYiA.s:29058  .debug_str:0000000000025064 .LASF937
C:\Users\CYMR90~1\AppData\Local\Temp\ccsGRYiA.s:19987  .debug_str:0000000000000c06 .LASF938
C:\Users\CYMR90~1\AppData\Local\Temp\ccsGRYiA.s:27900  .debug_str:00000000000207e8 .LASF939
C:\Users\CYMR90~1\AppData\Local\Temp\ccsGRYiA.s:29142  .debug_str:00000000000256ac .LASF940
C:\Users\CYMR90~1\AppData\Local\Temp\ccsGRYiA.s:22689  .debug_str:000000000000b7fb .LASF941
C:\Users\CYMR90~1\AppData\Local\Temp\ccsGRYiA.s:26350  .debug_str:000000000001a617 .LASF942
C:\Users\CYMR90~1\AppData\Local\Temp\ccsGRYiA.s:23447  .debug_str:000000000000e8d1 .LASF943
C:\Users\CYMR90~1\AppData\Local\Temp\ccsGRYiA.s:29084  .debug_str:00000000000252b4 .LASF944
C:\Users\CYMR90~1\AppData\Local\Temp\ccsGRYiA.s:26760  .debug_str:000000000001c05d .LASF945
C:\Users\CYMR90~1\AppData\Local\Temp\ccsGRYiA.s:23653  .debug_str:000000000000f573 .LASF946
C:\Users\CYMR90~1\AppData\Local\Temp\ccsGRYiA.s:25658  .debug_str:0000000000017863 .LASF947
C:\Users\CYMR90~1\AppData\Local\Temp\ccsGRYiA.s:27266  .debug_str:000000000001e17c .LASF948
C:\Users\CYMR90~1\AppData\Local\Temp\ccsGRYiA.s:23995  .debug_str:0000000000010bcf .LASF949
C:\Users\CYMR90~1\AppData\Local\Temp\ccsGRYiA.s:23001  .debug_str:000000000000ccdc .LASF950
C:\Users\CYMR90~1\AppData\Local\Temp\ccsGRYiA.s:21611  .debug_str:0000000000007230 .LASF952
C:\Users\CYMR90~1\AppData\Local\Temp\ccsGRYiA.s:25119  .debug_str:0000000000015465 .LASF953
C:\Users\CYMR90~1\AppData\Local\Temp\ccsGRYiA.s:23037  .debug_str:000000000000cf50 .LASF954
C:\Users\CYMR90~1\AppData\Local\Temp\ccsGRYiA.s:30930  .debug_str:000000000002c8fb .LASF955
C:\Users\CYMR90~1\AppData\Local\Temp\ccsGRYiA.s:30100  .debug_str:0000000000029458 .LASF956
C:\Users\CYMR90~1\AppData\Local\Temp\ccsGRYiA.s:30188  .debug_str:00000000000299da .LASF960
C:\Users\CYMR90~1\AppData\Local\Temp\ccsGRYiA.s:22155  .debug_str:000000000000957a .LASF961
C:\Users\CYMR90~1\AppData\Local\Temp\ccsGRYiA.s:29464  .debug_str:0000000000026afd .LASF962
C:\Users\CYMR90~1\AppData\Local\Temp\ccsGRYiA.s:24223  .debug_str:0000000000011aed .LASF963
C:\Users\CYMR90~1\AppData\Local\Temp\ccsGRYiA.s:21635  .debug_str:00000000000073dc .LASF964
C:\Users\CYMR90~1\AppData\Local\Temp\ccsGRYiA.s:28274  .debug_str:0000000000021ebf .LASF965
C:\Users\CYMR90~1\AppData\Local\Temp\ccsGRYiA.s:26570  .debug_str:000000000001b4c7 .LASF966
C:\Users\CYMR90~1\AppData\Local\Temp\ccsGRYiA.s:29406  .debug_str:0000000000026794 .LASF967
C:\Users\CYMR90~1\AppData\Local\Temp\ccsGRYiA.s:30500  .debug_str:000000000002ac85 .LASF968
C:\Users\CYMR90~1\AppData\Local\Temp\ccsGRYiA.s:21367  .debug_str:00000000000062c1 .LASF969
C:\Users\CYMR90~1\AppData\Local\Temp\ccsGRYiA.s:24841  .debug_str:0000000000014308 .LASF970
C:\Users\CYMR90~1\AppData\Local\Temp\ccsGRYiA.s:30588  .debug_str:000000000002b1e7 .LASF971
C:\Users\CYMR90~1\AppData\Local\Temp\ccsGRYiA.s:23457  .debug_str:000000000000e99d .LASF972
C:\Users\CYMR90~1\AppData\Local\Temp\ccsGRYiA.s:24903  .debug_str:00000000000146e6 .LASF973
C:\Users\CYMR90~1\AppData\Local\Temp\ccsGRYiA.s:23061  .debug_str:000000000000d0e4 .LASF974
C:\Users\CYMR90~1\AppData\Local\Temp\ccsGRYiA.s:25447  .debug_str:0000000000016926 .LASF975
C:\Users\CYMR90~1\AppData\Local\Temp\ccsGRYiA.s:30960  .debug_str:000000000002ca8f .LASF976
C:\Users\CYMR90~1\AppData\Local\Temp\ccsGRYiA.s:22995  .debug_str:000000000000cc81 .LASF977
C:\Users\CYMR90~1\AppData\Local\Temp\ccsGRYiA.s:30988  .debug_str:000000000002ccc4 .LASF978
C:\Users\CYMR90~1\AppData\Local\Temp\ccsGRYiA.s:29246  .debug_str:0000000000025d8d .LASF979
C:\Users\CYMR90~1\AppData\Local\Temp\ccsGRYiA.s:29304  .debug_str:0000000000026129 .LASF980
C:\Users\CYMR90~1\AppData\Local\Temp\ccsGRYiA.s:23511  .debug_str:000000000000ed04 .LASF981
C:\Users\CYMR90~1\AppData\Local\Temp\ccsGRYiA.s:21073  .debug_str:00000000000050ae .LASF982
C:\Users\CYMR90~1\AppData\Local\Temp\ccsGRYiA.s:24247  .debug_str:0000000000011c64 .LASF983
C:\Users\CYMR90~1\AppData\Local\Temp\ccsGRYiA.s:22029  .debug_str:0000000000008ddd .LASF984
C:\Users\CYMR90~1\AppData\Local\Temp\ccsGRYiA.s:26990  .debug_str:000000000001cfd3 .LASF985
C:\Users\CYMR90~1\AppData\Local\Temp\ccsGRYiA.s:28558  .debug_str:0000000000022f92 .LASF986
C:\Users\CYMR90~1\AppData\Local\Temp\ccsGRYiA.s:25263  .debug_str:0000000000015cec .LASF987
C:\Users\CYMR90~1\AppData\Local\Temp\ccsGRYiA.s:20515  .debug_str:0000000000002c48 .LASF988
C:\Users\CYMR90~1\AppData\Local\Temp\ccsGRYiA.s:28476  .debug_str:0000000000022af9 .LASF989
C:\Users\CYMR90~1\AppData\Local\Temp\ccsGRYiA.s:25958  .debug_str:0000000000018aa1 .LASF990
C:\Users\CYMR90~1\AppData\Local\Temp\ccsGRYiA.s:22991  .debug_str:000000000000cc59 .LASF991
C:\Users\CYMR90~1\AppData\Local\Temp\ccsGRYiA.s:29408  .debug_str:00000000000267bc .LASF992
C:\Users\CYMR90~1\AppData\Local\Temp\ccsGRYiA.s:21653  .debug_str:00000000000074e5 .LASF993
C:\Users\CYMR90~1\AppData\Local\Temp\ccsGRYiA.s:29226  .debug_str:0000000000025c42 .LASF994
C:\Users\CYMR90~1\AppData\Local\Temp\ccsGRYiA.s:26038  .debug_str:0000000000019147 .LASF995
C:\Users\CYMR90~1\AppData\Local\Temp\ccsGRYiA.s:30008  .debug_str:0000000000028efc .LASF996
C:\Users\CYMR90~1\AppData\Local\Temp\ccsGRYiA.s:28730  .debug_str:0000000000023a16 .LASF997
C:\Users\CYMR90~1\AppData\Local\Temp\ccsGRYiA.s:28112  .debug_str:00000000000214d2 .LASF998
C:\Users\CYMR90~1\AppData\Local\Temp\ccsGRYiA.s:20411  .debug_str:000000000000258e .LASF999
C:\Users\CYMR90~1\AppData\Local\Temp\ccsGRYiA.s:20741  .debug_str:0000000000003acc .LASF1000
C:\Users\CYMR90~1\AppData\Local\Temp\ccsGRYiA.s:28904  .debug_str:00000000000245d7 .LASF1001
C:\Users\CYMR90~1\AppData\Local\Temp\ccsGRYiA.s:23843  .debug_str:00000000000101e3 .LASF1002
C:\Users\CYMR90~1\AppData\Local\Temp\ccsGRYiA.s:21027  .debug_str:0000000000004df2 .LASF1003
C:\Users\CYMR90~1\AppData\Local\Temp\ccsGRYiA.s:26800  .debug_str:000000000001c2ca .LASF1004
C:\Users\CYMR90~1\AppData\Local\Temp\ccsGRYiA.s:24201  .debug_str:0000000000011908 .LASF1005
C:\Users\CYMR90~1\AppData\Local\Temp\ccsGRYiA.s:22957  .debug_str:000000000000ca81 .LASF1006
C:\Users\CYMR90~1\AppData\Local\Temp\ccsGRYiA.s:21337  .debug_str:00000000000060eb .LASF1007
C:\Users\CYMR90~1\AppData\Local\Temp\ccsGRYiA.s:28270  .debug_str:0000000000021e87 .LASF1008
C:\Users\CYMR90~1\AppData\Local\Temp\ccsGRYiA.s:25736  .debug_str:0000000000017d2e .LASF1009
C:\Users\CYMR90~1\AppData\Local\Temp\ccsGRYiA.s:25894  .debug_str:00000000000186ad .LASF1010
C:\Users\CYMR90~1\AppData\Local\Temp\ccsGRYiA.s:23279  .debug_str:000000000000de9c .LASF1011
C:\Users\CYMR90~1\AppData\Local\Temp\ccsGRYiA.s:27038  .debug_str:000000000001d349 .LASF1012
C:\Users\CYMR90~1\AppData\Local\Temp\ccsGRYiA.s:23473  .debug_str:000000000000ea90 .LASF1013
C:\Users\CYMR90~1\AppData\Local\Temp\ccsGRYiA.s:26156  .debug_str:000000000001989b .LASF1014
C:\Users\CYMR90~1\AppData\Local\Temp\ccsGRYiA.s:22879  .debug_str:000000000000c466 .LASF1015
C:\Users\CYMR90~1\AppData\Local\Temp\ccsGRYiA.s:23671  .debug_str:000000000000f677 .LASF1016
C:\Users\CYMR90~1\AppData\Local\Temp\ccsGRYiA.s:21177  .debug_str:0000000000005719 .LASF1017
C:\Users\CYMR90~1\AppData\Local\Temp\ccsGRYiA.s:29552  .debug_str:000000000002703e .LASF1018
C:\Users\CYMR90~1\AppData\Local\Temp\ccsGRYiA.s:23521  .debug_str:000000000000ed86 .LASF1019
C:\Users\CYMR90~1\AppData\Local\Temp\ccsGRYiA.s:20405  .debug_str:0000000000002545 .LASF1020
C:\Users\CYMR90~1\AppData\Local\Temp\ccsGRYiA.s:25776  .debug_str:0000000000017fbc .LASF1021
C:\Users\CYMR90~1\AppData\Local\Temp\ccsGRYiA.s:22815  .debug_str:000000000000c084 .LASF1022
C:\Users\CYMR90~1\AppData\Local\Temp\ccsGRYiA.s:29482  .debug_str:0000000000026bf1 .LASF1023
C:\Users\CYMR90~1\AppData\Local\Temp\ccsGRYiA.s:22065  .debug_str:0000000000008fff .LASF1024
C:\Users\CYMR90~1\AppData\Local\Temp\ccsGRYiA.s:24525  .debug_str:0000000000012ee7 .LASF1025
C:\Users\CYMR90~1\AppData\Local\Temp\ccsGRYiA.s:24023  .debug_str:0000000000010dd2 .LASF1026
C:\Users\CYMR90~1\AppData\Local\Temp\ccsGRYiA.s:24969  .debug_str:0000000000014aa8 .LASF1027
C:\Users\CYMR90~1\AppData\Local\Temp\ccsGRYiA.s:27118  .debug_str:000000000001d874 .LASF1028
C:\Users\CYMR90~1\AppData\Local\Temp\ccsGRYiA.s:27490  .debug_str:000000000001eec7 .LASF1029
C:\Users\CYMR90~1\AppData\Local\Temp\ccsGRYiA.s:28774  .debug_str:0000000000023c8e .LASF1030
C:\Users\CYMR90~1\AppData\Local\Temp\ccsGRYiA.s:27854  .debug_str:0000000000020538 .LASF1031
C:\Users\CYMR90~1\AppData\Local\Temp\ccsGRYiA.s:30102  .debug_str:00000000000294c0 .LASF1032
C:\Users\CYMR90~1\AppData\Local\Temp\ccsGRYiA.s:22211  .debug_str:0000000000009902 .LASF1033
C:\Users\CYMR90~1\AppData\Local\Temp\ccsGRYiA.s:21081  .debug_str:0000000000005130 .LASF1034
C:\Users\CYMR90~1\AppData\Local\Temp\ccsGRYiA.s:26082  .debug_str:00000000000193e6 .LASF1035
C:\Users\CYMR90~1\AppData\Local\Temp\ccsGRYiA.s:26342  .debug_str:000000000001a593 .LASF1036
C:\Users\CYMR90~1\AppData\Local\Temp\ccsGRYiA.s:28572  .debug_str:0000000000023048 .LASF1037
C:\Users\CYMR90~1\AppData\Local\Temp\ccsGRYiA.s:23693  .debug_str:000000000000f883 .LASF1038
C:\Users\CYMR90~1\AppData\Local\Temp\ccsGRYiA.s:27222  .debug_str:000000000001dec8 .LASF1039
C:\Users\CYMR90~1\AppData\Local\Temp\ccsGRYiA.s:25135  .debug_str:000000000001557c .LASF1040
C:\Users\CYMR90~1\AppData\Local\Temp\ccsGRYiA.s:23601  .debug_str:000000000000f254 .LASF1041
C:\Users\CYMR90~1\AppData\Local\Temp\ccsGRYiA.s:29296  .debug_str:00000000000260b9 .LASF1042
C:\Users\CYMR90~1\AppData\Local\Temp\ccsGRYiA.s:23845  .debug_str:00000000000101fa .LASF1043
C:\Users\CYMR90~1\AppData\Local\Temp\ccsGRYiA.s:19821  .debug_str:000000000000019a .LASF1044
C:\Users\CYMR90~1\AppData\Local\Temp\ccsGRYiA.s:22075  .debug_str:000000000000906c .LASF1045
C:\Users\CYMR90~1\AppData\Local\Temp\ccsGRYiA.s:26562  .debug_str:000000000001b451 .LASF1046
C:\Users\CYMR90~1\AppData\Local\Temp\ccsGRYiA.s:25383  .debug_str:00000000000164b1 .LASF1047
C:\Users\CYMR90~1\AppData\Local\Temp\ccsGRYiA.s:28616  .debug_str:00000000000232d7 .LASF1048
C:\Users\CYMR90~1\AppData\Local\Temp\ccsGRYiA.s:27456  .debug_str:000000000001ecb6 .LASF1049
C:\Users\CYMR90~1\AppData\Local\Temp\ccsGRYiA.s:20589  .debug_str:0000000000003114 .LASF1050
C:\Users\CYMR90~1\AppData\Local\Temp\ccsGRYiA.s:27466  .debug_str:000000000001ed41 .LASF1051
C:\Users\CYMR90~1\AppData\Local\Temp\ccsGRYiA.s:27662  .debug_str:000000000001f93f .LASF1052
C:\Users\CYMR90~1\AppData\Local\Temp\ccsGRYiA.s:22567  .debug_str:000000000000b015 .LASF1053
C:\Users\CYMR90~1\AppData\Local\Temp\ccsGRYiA.s:28518  .debug_str:0000000000022d4d .LASF1054
C:\Users\CYMR90~1\AppData\Local\Temp\ccsGRYiA.s:24501  .debug_str:0000000000012d4d .LASF1055
C:\Users\CYMR90~1\AppData\Local\Temp\ccsGRYiA.s:23453  .debug_str:000000000000e94b .LASF1056
C:\Users\CYMR90~1\AppData\Local\Temp\ccsGRYiA.s:29726  .debug_str:0000000000027be1 .LASF1057
C:\Users\CYMR90~1\AppData\Local\Temp\ccsGRYiA.s:30306  .debug_str:000000000002a0b4 .LASF1058
C:\Users\CYMR90~1\AppData\Local\Temp\ccsGRYiA.s:29056  .debug_str:0000000000025042 .LASF1059
C:\Users\CYMR90~1\AppData\Local\Temp\ccsGRYiA.s:20265  .debug_str:0000000000001d67 .LASF1060
C:\Users\CYMR90~1\AppData\Local\Temp\ccsGRYiA.s:21887  .debug_str:000000000000851b .LASF1061
C:\Users\CYMR90~1\AppData\Local\Temp\ccsGRYiA.s:19951  .debug_str:000000000000096b .LASF1062
C:\Users\CYMR90~1\AppData\Local\Temp\ccsGRYiA.s:24879  .debug_str:0000000000014510 .LASF1063
C:\Users\CYMR90~1\AppData\Local\Temp\ccsGRYiA.s:20789  .debug_str:0000000000003dbf .LASF1064
C:\Users\CYMR90~1\AppData\Local\Temp\ccsGRYiA.s:19891  .debug_str:0000000000000587 .LASF1065
C:\Users\CYMR90~1\AppData\Local\Temp\ccsGRYiA.s:30994  .debug_str:000000000002cd0d .LASF1066
C:\Users\CYMR90~1\AppData\Local\Temp\ccsGRYiA.s:28906  .debug_str:00000000000245ef .LASF1067
C:\Users\CYMR90~1\AppData\Local\Temp\ccsGRYiA.s:25445  .debug_str:000000000001690c .LASF1068
C:\Users\CYMR90~1\AppData\Local\Temp\ccsGRYiA.s:27008  .debug_str:000000000001d15f .LASF1069
C:\Users\CYMR90~1\AppData\Local\Temp\ccsGRYiA.s:20005  .debug_str:0000000000000cf8 .LASF1070
C:\Users\CYMR90~1\AppData\Local\Temp\ccsGRYiA.s:22339  .debug_str:000000000000a10c .LASF1071
C:\Users\CYMR90~1\AppData\Local\Temp\ccsGRYiA.s:28426  .debug_str:00000000000227ae .LASF1072
C:\Users\CYMR90~1\AppData\Local\Temp\ccsGRYiA.s:26972  .debug_str:000000000001ce90 .LASF1073
C:\Users\CYMR90~1\AppData\Local\Temp\ccsGRYiA.s:29972  .debug_str:0000000000028c9b .LASF1074
C:\Users\CYMR90~1\AppData\Local\Temp\ccsGRYiA.s:25588  .debug_str:0000000000017403 .LASF1075
C:\Users\CYMR90~1\AppData\Local\Temp\ccsGRYiA.s:20447  .debug_str:000000000000284b .LASF1076
C:\Users\CYMR90~1\AppData\Local\Temp\ccsGRYiA.s:30392  .debug_str:000000000002a64a .LASF1077
C:\Users\CYMR90~1\AppData\Local\Temp\ccsGRYiA.s:21405  .debug_str:0000000000006502 .LASF1078
C:\Users\CYMR90~1\AppData\Local\Temp\ccsGRYiA.s:27898  .debug_str:00000000000207d6 .LASF1079
C:\Users\CYMR90~1\AppData\Local\Temp\ccsGRYiA.s:23291  .debug_str:000000000000df50 .LASF1080
C:\Users\CYMR90~1\AppData\Local\Temp\ccsGRYiA.s:26780  .debug_str:000000000001c1a0 .LASF1081
C:\Users\CYMR90~1\AppData\Local\Temp\ccsGRYiA.s:29582  .debug_str:00000000000272ae .LASF1082
C:\Users\CYMR90~1\AppData\Local\Temp\ccsGRYiA.s:25075  .debug_str:00000000000151eb .LASF1083
C:\Users\CYMR90~1\AppData\Local\Temp\ccsGRYiA.s:28118  .debug_str:0000000000021538 .LASF1084
C:\Users\CYMR90~1\AppData\Local\Temp\ccsGRYiA.s:24755  .debug_str:0000000000013d8d .LASF1085
C:\Users\CYMR90~1\AppData\Local\Temp\ccsGRYiA.s:20213  .debug_str:0000000000001a31 .LASF1086
C:\Users\CYMR90~1\AppData\Local\Temp\ccsGRYiA.s:23325  .debug_str:000000000000e159 .LASF1087
C:\Users\CYMR90~1\AppData\Local\Temp\ccsGRYiA.s:29302  .debug_str:000000000002611a .LASF1088
C:\Users\CYMR90~1\AppData\Local\Temp\ccsGRYiA.s:28420  .debug_str:0000000000022756 .LASF1089
C:\Users\CYMR90~1\AppData\Local\Temp\ccsGRYiA.s:20057  .debug_str:000000000000104c .LASF1090
C:\Users\CYMR90~1\AppData\Local\Temp\ccsGRYiA.s:30924  .debug_str:000000000002c899 .LASF1091
C:\Users\CYMR90~1\AppData\Local\Temp\ccsGRYiA.s:29688  .debug_str:000000000002794c .LASF1092
C:\Users\CYMR90~1\AppData\Local\Temp\ccsGRYiA.s:23673  .debug_str:000000000000f68d .LASF1093
C:\Users\CYMR90~1\AppData\Local\Temp\ccsGRYiA.s:29346  .debug_str:000000000002638e .LASF1094
C:\Users\CYMR90~1\AppData\Local\Temp\ccsGRYiA.s:25151  .debug_str:0000000000015616 .LASF1095
C:\Users\CYMR90~1\AppData\Local\Temp\ccsGRYiA.s:26592  .debug_str:000000000001b619 .LASF1096
C:\Users\CYMR90~1\AppData\Local\Temp\ccsGRYiA.s:27122  .debug_str:000000000001d8c6 .LASF1097
C:\Users\CYMR90~1\AppData\Local\Temp\ccsGRYiA.s:21393  .debug_str:000000000000645d .LASF1098
C:\Users\CYMR90~1\AppData\Local\Temp\ccsGRYiA.s:24521  .debug_str:0000000000012e84 .LASF1099
C:\Users\CYMR90~1\AppData\Local\Temp\ccsGRYiA.s:23839  .debug_str:0000000000010193 .LASF1100
C:\Users\CYMR90~1\AppData\Local\Temp\ccsGRYiA.s:28692  .debug_str:00000000000237ea .LASF1101
C:\Users\CYMR90~1\AppData\Local\Temp\ccsGRYiA.s:23007  .debug_str:000000000000cd36 .LASF1102
C:\Users\CYMR90~1\AppData\Local\Temp\ccsGRYiA.s:28362  .debug_str:00000000000223c2 .LASF1103
C:\Users\CYMR90~1\AppData\Local\Temp\ccsGRYiA.s:29922  .debug_str:00000000000289a7 .LASF1104
C:\Users\CYMR90~1\AppData\Local\Temp\ccsGRYiA.s:27788  .debug_str:00000000000200f4 .LASF1105
C:\Users\CYMR90~1\AppData\Local\Temp\ccsGRYiA.s:24703  .debug_str:0000000000013a84 .LASF1106
C:\Users\CYMR90~1\AppData\Local\Temp\ccsGRYiA.s:28612  .debug_str:00000000000232a1 .LASF1107
C:\Users\CYMR90~1\AppData\Local\Temp\ccsGRYiA.s:26508  .debug_str:000000000001b0cc .LASF1108
C:\Users\CYMR90~1\AppData\Local\Temp\ccsGRYiA.s:21409  .debug_str:000000000000653e .LASF1109
C:\Users\CYMR90~1\AppData\Local\Temp\ccsGRYiA.s:22369  .debug_str:000000000000a2e5 .LASF1110
C:\Users\CYMR90~1\AppData\Local\Temp\ccsGRYiA.s:20275  .debug_str:0000000000001e08 .LASF1111
C:\Users\CYMR90~1\AppData\Local\Temp\ccsGRYiA.s:21491  .debug_str:0000000000006a5b .LASF1112
C:\Users\CYMR90~1\AppData\Local\Temp\ccsGRYiA.s:22591  .debug_str:000000000000b17a .LASF1113
C:\Users\CYMR90~1\AppData\Local\Temp\ccsGRYiA.s:21145  .debug_str:0000000000005519 .LASF1114
C:\Users\CYMR90~1\AppData\Local\Temp\ccsGRYiA.s:22161  .debug_str:00000000000095b6 .LASF1115
C:\Users\CYMR90~1\AppData\Local\Temp\ccsGRYiA.s:29764  .debug_str:0000000000027e79 .LASF1116
C:\Users\CYMR90~1\AppData\Local\Temp\ccsGRYiA.s:30256  .debug_str:0000000000029dd3 .LASF1117
C:\Users\CYMR90~1\AppData\Local\Temp\ccsGRYiA.s:21309  .debug_str:0000000000005f34 .LASF1118
C:\Users\CYMR90~1\AppData\Local\Temp\ccsGRYiA.s:25752  .debug_str:0000000000017e32 .LASF1119
C:\Users\CYMR90~1\AppData\Local\Temp\ccsGRYiA.s:21853  .debug_str:00000000000082c9 .LASF1120
C:\Users\CYMR90~1\AppData\Local\Temp\ccsGRYiA.s:22059  .debug_str:0000000000008f9e .LASF1121
C:\Users\CYMR90~1\AppData\Local\Temp\ccsGRYiA.s:24639  .debug_str:0000000000013691 .LASF1122
C:\Users\CYMR90~1\AppData\Local\Temp\ccsGRYiA.s:24273  .debug_str:0000000000011def .LASF1123
C:\Users\CYMR90~1\AppData\Local\Temp\ccsGRYiA.s:27872  .debug_str:0000000000020646 .LASF1124
C:\Users\CYMR90~1\AppData\Local\Temp\ccsGRYiA.s:25079  .debug_str:0000000000015214 .LASF1125
C:\Users\CYMR90~1\AppData\Local\Temp\ccsGRYiA.s:25171  .debug_str:000000000001574f .LASF1126
C:\Users\CYMR90~1\AppData\Local\Temp\ccsGRYiA.s:28508  .debug_str:0000000000022caf .LASF1127
C:\Users\CYMR90~1\AppData\Local\Temp\ccsGRYiA.s:29580  .debug_str:0000000000027299 .LASF1128
C:\Users\CYMR90~1\AppData\Local\Temp\ccsGRYiA.s:21189  .debug_str:00000000000057d1 .LASF1129
C:\Users\CYMR90~1\AppData\Local\Temp\ccsGRYiA.s:25169  .debug_str:000000000001573a .LASF1130
C:\Users\CYMR90~1\AppData\Local\Temp\ccsGRYiA.s:30098  .debug_str:0000000000029443 .LASF1131
C:\Users\CYMR90~1\AppData\Local\Temp\ccsGRYiA.s:30492  .debug_str:000000000002ac1c .LASF1132
C:\Users\CYMR90~1\AppData\Local\Temp\ccsGRYiA.s:25864  .debug_str:00000000000184e0 .LASF1133
C:\Users\CYMR90~1\AppData\Local\Temp\ccsGRYiA.s:28664  .debug_str:00000000000235f8 .LASF1134
C:\Users\CYMR90~1\AppData\Local\Temp\ccsGRYiA.s:21739  .debug_str:0000000000007aa4 .LASF1135
C:\Users\CYMR90~1\AppData\Local\Temp\ccsGRYiA.s:20965  .debug_str:0000000000004a30 .LASF1136
C:\Users\CYMR90~1\AppData\Local\Temp\ccsGRYiA.s:20795  .debug_str:0000000000003dfc .LASF1137
C:\Users\CYMR90~1\AppData\Local\Temp\ccsGRYiA.s:30108  .debug_str:000000000002951f .LASF1138
C:\Users\CYMR90~1\AppData\Local\Temp\ccsGRYiA.s:27250  .debug_str:000000000001e05a .LASF1139
C:\Users\CYMR90~1\AppData\Local\Temp\ccsGRYiA.s:27158  .debug_str:000000000001daf6 .LASF1140
C:\Users\CYMR90~1\AppData\Local\Temp\ccsGRYiA.s:19863  .debug_str:0000000000000428 .LASF1141
C:\Users\CYMR90~1\AppData\Local\Temp\ccsGRYiA.s:24069  .debug_str:0000000000011030 .LASF1142
C:\Users\CYMR90~1\AppData\Local\Temp\ccsGRYiA.s:23331  .debug_str:000000000000e1cc .LASF1143
C:\Users\CYMR90~1\AppData\Local\Temp\ccsGRYiA.s:29636  .debug_str:00000000000275aa .LASF1144
C:\Users\CYMR90~1\AppData\Local\Temp\ccsGRYiA.s:27832  .debug_str:0000000000020370 .LASF1145
C:\Users\CYMR90~1\AppData\Local\Temp\ccsGRYiA.s:22851  .debug_str:000000000000c2c2 .LASF1146
C:\Users\CYMR90~1\AppData\Local\Temp\ccsGRYiA.s:30920  .debug_str:000000000002c857 .LASF1147
C:\Users\CYMR90~1\AppData\Local\Temp\ccsGRYiA.s:25612  .debug_str:0000000000017563 .LASF1148
C:\Users\CYMR90~1\AppData\Local\Temp\ccsGRYiA.s:25872  .debug_str:000000000001858d .LASF1149
C:\Users\CYMR90~1\AppData\Local\Temp\ccsGRYiA.s:26612  .debug_str:000000000001b748 .LASF1150
C:\Users\CYMR90~1\AppData\Local\Temp\ccsGRYiA.s:20277  .debug_str:0000000000001e26 .LASF1151
C:\Users\CYMR90~1\AppData\Local\Temp\ccsGRYiA.s:27026  .debug_str:000000000001d291 .LASF1152
C:\Users\CYMR90~1\AppData\Local\Temp\ccsGRYiA.s:22185  .debug_str:00000000000096f5 .LASF1153
C:\Users\CYMR90~1\AppData\Local\Temp\ccsGRYiA.s:28132  .debug_str:00000000000215ea .LASF1154
C:\Users\CYMR90~1\AppData\Local\Temp\ccsGRYiA.s:27376  .debug_str:000000000001e851 .LASF1155
C:\Users\CYMR90~1\AppData\Local\Temp\ccsGRYiA.s:24997  .debug_str:0000000000014c92 .LASF1156
C:\Users\CYMR90~1\AppData\Local\Temp\ccsGRYiA.s:27218  .debug_str:000000000001de7f .LASF1157
C:\Users\CYMR90~1\AppData\Local\Temp\ccsGRYiA.s:22609  .debug_str:000000000000b26a .LASF1158
C:\Users\CYMR90~1\AppData\Local\Temp\ccsGRYiA.s:30274  .debug_str:0000000000029f18 .LASF1159
C:\Users\CYMR90~1\AppData\Local\Temp\ccsGRYiA.s:20163  .debug_str:0000000000001678 .LASF1160
C:\Users\CYMR90~1\AppData\Local\Temp\ccsGRYiA.s:30354  .debug_str:000000000002a3f2 .LASF1161
C:\Users\CYMR90~1\AppData\Local\Temp\ccsGRYiA.s:30048  .debug_str:0000000000029159 .LASF1162
C:\Users\CYMR90~1\AppData\Local\Temp\ccsGRYiA.s:27108  .debug_str:000000000001d806 .LASF1163
C:\Users\CYMR90~1\AppData\Local\Temp\ccsGRYiA.s:26244  .debug_str:0000000000019e3d .LASF1164
C:\Users\CYMR90~1\AppData\Local\Temp\ccsGRYiA.s:23145  .debug_str:000000000000d6ce .LASF1165
C:\Users\CYMR90~1\AppData\Local\Temp\ccsGRYiA.s:27758  .debug_str:000000000001ff55 .LASF1166
C:\Users\CYMR90~1\AppData\Local\Temp\ccsGRYiA.s:24031  .debug_str:0000000000010e3d .LASF1167
C:\Users\CYMR90~1\AppData\Local\Temp\ccsGRYiA.s:22183  .debug_str:00000000000096eb .LASF1168
C:\Users\CYMR90~1\AppData\Local\Temp\ccsGRYiA.s:25111  .debug_str:0000000000015406 .LASF1169
C:\Users\CYMR90~1\AppData\Local\Temp\ccsGRYiA.s:26450  .debug_str:000000000001ace1 .LASF1170
C:\Users\CYMR90~1\AppData\Local\Temp\ccsGRYiA.s:26158  .debug_str:00000000000198b2 .LASF1171
C:\Users\CYMR90~1\AppData\Local\Temp\ccsGRYiA.s:30300  .debug_str:000000000002a082 .LASF1172
C:\Users\CYMR90~1\AppData\Local\Temp\ccsGRYiA.s:25393  .debug_str:000000000001653a .LASF1173
C:\Users\CYMR90~1\AppData\Local\Temp\ccsGRYiA.s:19985  .debug_str:0000000000000bf8 .LASF1174
C:\Users\CYMR90~1\AppData\Local\Temp\ccsGRYiA.s:20385  .debug_str:0000000000002420 .LASF1175
C:\Users\CYMR90~1\AppData\Local\Temp\ccsGRYiA.s:24611  .debug_str:00000000000134e1 .LASF1176
C:\Users\CYMR90~1\AppData\Local\Temp\ccsGRYiA.s:22953  .debug_str:000000000000ca34 .LASF1177
C:\Users\CYMR90~1\AppData\Local\Temp\ccsGRYiA.s:27166  .debug_str:000000000001db79 .LASF1178
C:\Users\CYMR90~1\AppData\Local\Temp\ccsGRYiA.s:23567  .debug_str:000000000000f029 .LASF1179
C:\Users\CYMR90~1\AppData\Local\Temp\ccsGRYiA.s:23131  .debug_str:000000000000d620 .LASF1180
C:\Users\CYMR90~1\AppData\Local\Temp\ccsGRYiA.s:28868  .debug_str:000000000002438f .LASF1181
C:\Users\CYMR90~1\AppData\Local\Temp\ccsGRYiA.s:30054  .debug_str:00000000000291a4 .LASF1182
C:\Users\CYMR90~1\AppData\Local\Temp\ccsGRYiA.s:20555  .debug_str:0000000000002ec5 .LASF1183
C:\Users\CYMR90~1\AppData\Local\Temp\ccsGRYiA.s:27478  .debug_str:000000000001edfc .LASF1184
C:\Users\CYMR90~1\AppData\Local\Temp\ccsGRYiA.s:27930  .debug_str:0000000000020984 .LASF1185
C:\Users\CYMR90~1\AppData\Local\Temp\ccsGRYiA.s:29096  .debug_str:0000000000025376 .LASF1186
C:\Users\CYMR90~1\AppData\Local\Temp\ccsGRYiA.s:20281  .debug_str:0000000000001e58 .LASF1187
C:\Users\CYMR90~1\AppData\Local\Temp\ccsGRYiA.s:21199  .debug_str:0000000000005861 .LASF1188
C:\Users\CYMR90~1\AppData\Local\Temp\ccsGRYiA.s:28406  .debug_str:0000000000022675 .LASF1189
C:\Users\CYMR90~1\AppData\Local\Temp\ccsGRYiA.s:21743  .debug_str:0000000000007ad5 .LASF1190
C:\Users\CYMR90~1\AppData\Local\Temp\ccsGRYiA.s:28456  .debug_str:000000000002296b .LASF1191
C:\Users\CYMR90~1\AppData\Local\Temp\ccsGRYiA.s:22927  .debug_str:000000000000c7d2 .LASF1192
C:\Users\CYMR90~1\AppData\Local\Temp\ccsGRYiA.s:28120  .debug_str:000000000002154a .LASF1193
C:\Users\CYMR90~1\AppData\Local\Temp\ccsGRYiA.s:23177  .debug_str:000000000000d896 .LASF1194
C:\Users\CYMR90~1\AppData\Local\Temp\ccsGRYiA.s:26710  .debug_str:000000000001bd0d .LASF1195
C:\Users\CYMR90~1\AppData\Local\Temp\ccsGRYiA.s:24111  .debug_str:00000000000112b1 .LASF1196
C:\Users\CYMR90~1\AppData\Local\Temp\ccsGRYiA.s:28154  .debug_str:0000000000021767 .LASF1197
C:\Users\CYMR90~1\AppData\Local\Temp\ccsGRYiA.s:30298  .debug_str:000000000002a073 .LASF1198
C:\Users\CYMR90~1\AppData\Local\Temp\ccsGRYiA.s:25415  .debug_str:000000000001672f .LASF1199
C:\Users\CYMR90~1\AppData\Local\Temp\ccsGRYiA.s:30304  .debug_str:000000000002a0a9 .LASF1200
C:\Users\CYMR90~1\AppData\Local\Temp\ccsGRYiA.s:22429  .debug_str:000000000000a6a1 .LASF1201
C:\Users\CYMR90~1\AppData\Local\Temp\ccsGRYiA.s:22091  .debug_str:000000000000917c .LASF1202
C:\Users\CYMR90~1\AppData\Local\Temp\ccsGRYiA.s:25600  .debug_str:00000000000174c2 .LASF1203
C:\Users\CYMR90~1\AppData\Local\Temp\ccsGRYiA.s:29420  .debug_str:0000000000026865 .LASF1204
C:\Users\CYMR90~1\AppData\Local\Temp\ccsGRYiA.s:24665  .debug_str:0000000000013865 .LASF1205
C:\Users\CYMR90~1\AppData\Local\Temp\ccsGRYiA.s:23737  .debug_str:000000000000fb0f .LASF1206
C:\Users\CYMR90~1\AppData\Local\Temp\ccsGRYiA.s:30270  .debug_str:0000000000029ee6 .LASF1207
C:\Users\CYMR90~1\AppData\Local\Temp\ccsGRYiA.s:28956  .debug_str:0000000000024983 .LASF1208
C:\Users\CYMR90~1\AppData\Local\Temp\ccsGRYiA.s:23665  .debug_str:000000000000f635 .LASF1209
C:\Users\CYMR90~1\AppData\Local\Temp\ccsGRYiA.s:21095  .debug_str:0000000000005202 .LASF1210
C:\Users\CYMR90~1\AppData\Local\Temp\ccsGRYiA.s:21191  .debug_str:00000000000057e7 .LASF1211
C:\Users\CYMR90~1\AppData\Local\Temp\ccsGRYiA.s:21891  .debug_str:000000000000855f .LASF1212
C:\Users\CYMR90~1\AppData\Local\Temp\ccsGRYiA.s:21485  .debug_str:00000000000069db .LASF1213
C:\Users\CYMR90~1\AppData\Local\Temp\ccsGRYiA.s:20395  .debug_str:00000000000024dc .LASF1214
C:\Users\CYMR90~1\AppData\Local\Temp\ccsGRYiA.s:22227  .debug_str:0000000000009a1c .LASF1215
C:\Users\CYMR90~1\AppData\Local\Temp\ccsGRYiA.s:20339  .debug_str:0000000000002170 .LASF1216
C:\Users\CYMR90~1\AppData\Local\Temp\ccsGRYiA.s:28568  .debug_str:000000000002301b .LASF1217
C:\Users\CYMR90~1\AppData\Local\Temp\ccsGRYiA.s:28582  .debug_str:00000000000230cf .LASF1218
C:\Users\CYMR90~1\AppData\Local\Temp\ccsGRYiA.s:29010  .debug_str:0000000000024d1e .LASF1219
C:\Users\CYMR90~1\AppData\Local\Temp\ccsGRYiA.s:26596  .debug_str:000000000001b64d .LASF1220
C:\Users\CYMR90~1\AppData\Local\Temp\ccsGRYiA.s:23219  .debug_str:000000000000daec .LASF1221
C:\Users\CYMR90~1\AppData\Local\Temp\ccsGRYiA.s:24927  .debug_str:000000000001487c .LASF1222
C:\Users\CYMR90~1\AppData\Local\Temp\ccsGRYiA.s:20575  .debug_str:0000000000002ff7 .LASF1223
C:\Users\CYMR90~1\AppData\Local\Temp\ccsGRYiA.s:22151  .debug_str:00000000000094df .LASF1224
C:\Users\CYMR90~1\AppData\Local\Temp\ccsGRYiA.s:29600  .debug_str:00000000000273c9 .LASF1225
C:\Users\CYMR90~1\AppData\Local\Temp\ccsGRYiA.s:22693  .debug_str:000000000000b835 .LASF1226
C:\Users\CYMR90~1\AppData\Local\Temp\ccsGRYiA.s:21627  .debug_str:000000000000736c .LASF1227
C:\Users\CYMR90~1\AppData\Local\Temp\ccsGRYiA.s:20663  .debug_str:00000000000035d2 .LASF1228
C:\Users\CYMR90~1\AppData\Local\Temp\ccsGRYiA.s:30978  .debug_str:000000000002cc29 .LASF1229
C:\Users\CYMR90~1\AppData\Local\Temp\ccsGRYiA.s:30030  .debug_str:0000000000029049 .LASF1230
C:\Users\CYMR90~1\AppData\Local\Temp\ccsGRYiA.s:29064  .debug_str:00000000000250b9 .LASF1231
C:\Users\CYMR90~1\AppData\Local\Temp\ccsGRYiA.s:28106  .debug_str:0000000000021489 .LASF1232
C:\Users\CYMR90~1\AppData\Local\Temp\ccsGRYiA.s:27990  .debug_str:0000000000020d4e .LASF1233
C:\Users\CYMR90~1\AppData\Local\Temp\ccsGRYiA.s:27046  .debug_str:000000000001d3ac .LASF1234
C:\Users\CYMR90~1\AppData\Local\Temp\ccsGRYiA.s:26112  .debug_str:00000000000195d4 .LASF1235
C:\Users\CYMR90~1\AppData\Local\Temp\ccsGRYiA.s:24535  .debug_str:0000000000012f83 .LASF1236
C:\Users\CYMR90~1\AppData\Local\Temp\ccsGRYiA.s:24191  .debug_str:0000000000011888 .LASF1237
C:\Users\CYMR90~1\AppData\Local\Temp\ccsGRYiA.s:30550  .debug_str:000000000002af61 .LASF1238
C:\Users\CYMR90~1\AppData\Local\Temp\ccsGRYiA.s:22299  .debug_str:0000000000009e6b .LASF1239
C:\Users\CYMR90~1\AppData\Local\Temp\ccsGRYiA.s:21303  .debug_str:0000000000005e8d .LASF1240
C:\Users\CYMR90~1\AppData\Local\Temp\ccsGRYiA.s:20355  .debug_str:000000000000225c .LASF1241
C:\Users\CYMR90~1\AppData\Local\Temp\ccsGRYiA.s:30686  .debug_str:000000000002b89f .LASF1242
C:\Users\CYMR90~1\AppData\Local\Temp\ccsGRYiA.s:19879  .debug_str:00000000000004f1 .LASF1243
C:\Users\CYMR90~1\AppData\Local\Temp\ccsGRYiA.s:30172  .debug_str:00000000000298ef .LASF1244
C:\Users\CYMR90~1\AppData\Local\Temp\ccsGRYiA.s:29206  .debug_str:0000000000025b1e .LASF1245
C:\Users\CYMR90~1\AppData\Local\Temp\ccsGRYiA.s:28260  .debug_str:0000000000021df2 .LASF1246
C:\Users\CYMR90~1\AppData\Local\Temp\ccsGRYiA.s:27284  .debug_str:000000000001e274 .LASF1247
C:\Users\CYMR90~1\AppData\Local\Temp\ccsGRYiA.s:26394  .debug_str:000000000001a968 .LASF1248
C:\Users\CYMR90~1\AppData\Local\Temp\ccsGRYiA.s:25459  .debug_str:0000000000016a2d .LASF1249
C:\Users\CYMR90~1\AppData\Local\Temp\ccsGRYiA.s:25616  .debug_str:00000000000175c4 .LASF1250
C:\Users\CYMR90~1\AppData\Local\Temp\ccsGRYiA.s:23573  .debug_str:000000000000f06e .LASF1251
C:\Users\CYMR90~1\AppData\Local\Temp\ccsGRYiA.s:25714  .debug_str:0000000000017c12 .LASF1252
C:\Users\CYMR90~1\AppData\Local\Temp\ccsGRYiA.s:23067  .debug_str:000000000000d15e .LASF1253
C:\Users\CYMR90~1\AppData\Local\Temp\ccsGRYiA.s:22105  .debug_str:000000000000924b .LASF1254
C:\Users\CYMR90~1\AppData\Local\Temp\ccsGRYiA.s:20123  .debug_str:0000000000001446 .LASF1255
C:\Users\CYMR90~1\AppData\Local\Temp\ccsGRYiA.s:22983  .debug_str:000000000000cc03 .LASF1256
C:\Users\CYMR90~1\AppData\Local\Temp\ccsGRYiA.s:21257  .debug_str:0000000000005be6 .LASF1257
C:\Users\CYMR90~1\AppData\Local\Temp\ccsGRYiA.s:25986  .debug_str:0000000000018d20 .LASF1258
C:\Users\CYMR90~1\AppData\Local\Temp\ccsGRYiA.s:25988  .debug_str:0000000000018d33 .LASF1259
C:\Users\CYMR90~1\AppData\Local\Temp\ccsGRYiA.s:28460  .debug_str:000000000002299b .LASF1260
C:\Users\CYMR90~1\AppData\Local\Temp\ccsGRYiA.s:26590  .debug_str:000000000001b606 .LASF1261
C:\Users\CYMR90~1\AppData\Local\Temp\ccsGRYiA.s:24001  .debug_str:0000000000010cd3 .LASF1262
C:\Users\CYMR90~1\AppData\Local\Temp\ccsGRYiA.s:21149  .debug_str:000000000000555c .LASF1263
C:\Users\CYMR90~1\AppData\Local\Temp\ccsGRYiA.s:23307  .debug_str:000000000000e036 .LASF1264
C:\Users\CYMR90~1\AppData\Local\Temp\ccsGRYiA.s:25483  .debug_str:0000000000016c3a .LASF1265
C:\Users\CYMR90~1\AppData\Local\Temp\ccsGRYiA.s:23357  .debug_str:000000000000e328 .LASF1266
C:\Users\CYMR90~1\AppData\Local\Temp\ccsGRYiA.s:28486  .debug_str:0000000000022b92 .LASF1267
C:\Users\CYMR90~1\AppData\Local\Temp\ccsGRYiA.s:28658  .debug_str:00000000000235ae .LASF1268
C:\Users\CYMR90~1\AppData\Local\Temp\ccsGRYiA.s:24129  .debug_str:00000000000113af .LASF1269
C:\Users\CYMR90~1\AppData\Local\Temp\ccsGRYiA.s:26506  .debug_str:000000000001b0b7 .LASF1270
C:\Users\CYMR90~1\AppData\Local\Temp\ccsGRYiA.s:30598  .debug_str:000000000002b2ab .LASF1271
C:\Users\CYMR90~1\AppData\Local\Temp\ccsGRYiA.s:30134  .debug_str:00000000000296c8 .LASF1272
C:\Users\CYMR90~1\AppData\Local\Temp\ccsGRYiA.s:27168  .debug_str:000000000001db86 .LASF1273
C:\Users\CYMR90~1\AppData\Local\Temp\ccsGRYiA.s:19941  .debug_str:00000000000008dd .LASF1274
C:\Users\CYMR90~1\AppData\Local\Temp\ccsGRYiA.s:25994  .debug_str:0000000000018d81 .LASF1275
C:\Users\CYMR90~1\AppData\Local\Temp\ccsGRYiA.s:20047  .debug_str:0000000000000fc8 .LASF1276
C:\Users\CYMR90~1\AppData\Local\Temp\ccsGRYiA.s:22321  .debug_str:0000000000009fe8 .LASF1277
C:\Users\CYMR90~1\AppData\Local\Temp\ccsGRYiA.s:21323  .debug_str:0000000000006019 .LASF1278
C:\Users\CYMR90~1\AppData\Local\Temp\ccsGRYiA.s:20383  .debug_str:000000000000240e .LASF1279
C:\Users\CYMR90~1\AppData\Local\Temp\ccsGRYiA.s:30708  .debug_str:000000000002b9f1 .LASF1280
C:\Users\CYMR90~1\AppData\Local\Temp\ccsGRYiA.s:21211  .debug_str:0000000000005925 .LASF1281
C:\Users\CYMR90~1\AppData\Local\Temp\ccsGRYiA.s:20267  .debug_str:0000000000001d84 .LASF1282
C:\Users\CYMR90~1\AppData\Local\Temp\ccsGRYiA.s:27326  .debug_str:000000000001e508 .LASF1283
C:\Users\CYMR90~1\AppData\Local\Temp\ccsGRYiA.s:20013  .debug_str:0000000000000d68 .LASF1284
C:\Users\CYMR90~1\AppData\Local\Temp\ccsGRYiA.s:28682  .debug_str:0000000000023764 .LASF1285
C:\Users\CYMR90~1\AppData\Local\Temp\ccsGRYiA.s:27706  .debug_str:000000000001fbee .LASF1286
C:\Users\CYMR90~1\AppData\Local\Temp\ccsGRYiA.s:26774  .debug_str:000000000001c121 .LASF1287
C:\Users\CYMR90~1\AppData\Local\Temp\ccsGRYiA.s:25826  .debug_str:00000000000182b0 .LASF1288
C:\Users\CYMR90~1\AppData\Local\Temp\ccsGRYiA.s:24867  .debug_str:0000000000014482 .LASF1289
C:\Users\CYMR90~1\AppData\Local\Temp\ccsGRYiA.s:23931  .debug_str:00000000000107b8 .LASF1290
C:\Users\CYMR90~1\AppData\Local\Temp\ccsGRYiA.s:28210  .debug_str:0000000000021ac5 .LASF1291
C:\Users\CYMR90~1\AppData\Local\Temp\ccsGRYiA.s:27238  .debug_str:000000000001dfbd .LASF1292
C:\Users\CYMR90~1\AppData\Local\Temp\ccsGRYiA.s:26334  .debug_str:000000000001a541 .LASF1293
C:\Users\CYMR90~1\AppData\Local\Temp\ccsGRYiA.s:25347  .debug_str:00000000000162b0 .LASF1294
C:\Users\CYMR90~1\AppData\Local\Temp\ccsGRYiA.s:24419  .debug_str:00000000000127fb .LASF1295
C:\Users\CYMR90~1\AppData\Local\Temp\ccsGRYiA.s:23465  .debug_str:000000000000ea28 .LASF1296
C:\Users\CYMR90~1\AppData\Local\Temp\ccsGRYiA.s:22829  .debug_str:000000000000c16c .LASF1297
C:\Users\CYMR90~1\AppData\Local\Temp\ccsGRYiA.s:27672  .debug_str:000000000001f9ca .LASF1298
C:\Users\CYMR90~1\AppData\Local\Temp\ccsGRYiA.s:26748  .debug_str:000000000001bfab .LASF1299
C:\Users\CYMR90~1\AppData\Local\Temp\ccsGRYiA.s:25794  .debug_str:00000000000180ac .LASF1300
C:\Users\CYMR90~1\AppData\Local\Temp\ccsGRYiA.s:26722  .debug_str:000000000001bde1 .LASF1301
C:\Users\CYMR90~1\AppData\Local\Temp\ccsGRYiA.s:27926  .debug_str:0000000000020961 .LASF1302
C:\Users\CYMR90~1\AppData\Local\Temp\ccsGRYiA.s:25391  .debug_str:0000000000016527 .LASF1303
C:\Users\CYMR90~1\AppData\Local\Temp\ccsGRYiA.s:26254  .debug_str:0000000000019ee1 .LASF1304
C:\Users\CYMR90~1\AppData\Local\Temp\ccsGRYiA.s:26226  .debug_str:0000000000019d4d .LASF1305
C:\Users\CYMR90~1\AppData\Local\Temp\ccsGRYiA.s:22003  .debug_str:0000000000008c1e .LASF1306
C:\Users\CYMR90~1\AppData\Local\Temp\ccsGRYiA.s:20999  .debug_str:0000000000004c50 .LASF1307
C:\Users\CYMR90~1\AppData\Local\Temp\ccsGRYiA.s:20059  .debug_str:000000000000105e .LASF1308
C:\Users\CYMR90~1\AppData\Local\Temp\ccsGRYiA.s:30370  .debug_str:000000000002a4f1 .LASF1309
C:\Users\CYMR90~1\AppData\Local\Temp\ccsGRYiA.s:29416  .debug_str:000000000002682a .LASF1310
C:\Users\CYMR90~1\AppData\Local\Temp\ccsGRYiA.s:28462  .debug_str:00000000000229ac .LASF1311
C:\Users\CYMR90~1\AppData\Local\Temp\ccsGRYiA.s:21957  .debug_str:0000000000008946 .LASF1312
C:\Users\CYMR90~1\AppData\Local\Temp\ccsGRYiA.s:21203  .debug_str:00000000000058b3 .LASF1313
C:\Users\CYMR90~1\AppData\Local\Temp\ccsGRYiA.s:24583  .debug_str:00000000000132a8 .LASF1314
C:\Users\CYMR90~1\AppData\Local\Temp\ccsGRYiA.s:30586  .debug_str:000000000002b1cf .LASF1315
C:\Users\CYMR90~1\AppData\Local\Temp\ccsGRYiA.s:29136  .debug_str:0000000000025651 .LASF1316
C:\Users\CYMR90~1\AppData\Local\Temp\ccsGRYiA.s:28674  .debug_str:00000000000236c8 .LASF1317
C:\Users\CYMR90~1\AppData\Local\Temp\ccsGRYiA.s:27698  .debug_str:000000000001fb81 .LASF1318
C:\Users\CYMR90~1\AppData\Local\Temp\ccsGRYiA.s:26784  .debug_str:000000000001c1cb .LASF1319
C:\Users\CYMR90~1\AppData\Local\Temp\ccsGRYiA.s:25836  .debug_str:000000000001835e .LASF1320
C:\Users\CYMR90~1\AppData\Local\Temp\ccsGRYiA.s:24877  .debug_str:00000000000144f8 .LASF1321
C:\Users\CYMR90~1\AppData\Local\Temp\ccsGRYiA.s:23937  .debug_str:0000000000010813 .LASF1322
C:\Users\CYMR90~1\AppData\Local\Temp\ccsGRYiA.s:24391  .debug_str:0000000000012621 .LASF1323
C:\Users\CYMR90~1\AppData\Local\Temp\ccsGRYiA.s:22833  .debug_str:000000000000c191 .LASF1324
C:\Users\CYMR90~1\AppData\Local\Temp\ccsGRYiA.s:22481  .debug_str:000000000000a9be .LASF1325
C:\Users\CYMR90~1\AppData\Local\Temp\ccsGRYiA.s:21493  .debug_str:0000000000006a77 .LASF1326
C:\Users\CYMR90~1\AppData\Local\Temp\ccsGRYiA.s:20531  .debug_str:0000000000002d4f .LASF1327
C:\Users\CYMR90~1\AppData\Local\Temp\ccsGRYiA.s:30858  .debug_str:000000000002c43c .LASF1328
C:\Users\CYMR90~1\AppData\Local\Temp\ccsGRYiA.s:29950  .debug_str:0000000000028b26 .LASF1329
C:\Users\CYMR90~1\AppData\Local\Temp\ccsGRYiA.s:28990  .debug_str:0000000000024bb0 .LASF1330
C:\Users\CYMR90~1\AppData\Local\Temp\ccsGRYiA.s:28028  .debug_str:0000000000020f58 .LASF1331
C:\Users\CYMR90~1\AppData\Local\Temp\ccsGRYiA.s:27080  .debug_str:000000000001d5fd .LASF1332
C:\Users\CYMR90~1\AppData\Local\Temp\ccsGRYiA.s:27500  .debug_str:000000000001ef75 .LASF1333
C:\Users\CYMR90~1\AppData\Local\Temp\ccsGRYiA.s:26606  .debug_str:000000000001b6ec .LASF1334
C:\Users\CYMR90~1\AppData\Local\Temp\ccsGRYiA.s:25309  .debug_str:000000000001604e .LASF1335
C:\Users\CYMR90~1\AppData\Local\Temp\ccsGRYiA.s:22979  .debug_str:000000000000cbc7 .LASF1336
C:\Users\CYMR90~1\AppData\Local\Temp\ccsGRYiA.s:27714  .debug_str:000000000001fc4d .LASF1337
C:\Users\CYMR90~1\AppData\Local\Temp\ccsGRYiA.s:24271  .debug_str:0000000000011dda .LASF1338
C:\Users\CYMR90~1\AppData\Local\Temp\ccsGRYiA.s:20167  .debug_str:00000000000016b0 .LASF1339
C:\Users\CYMR90~1\AppData\Local\Temp\ccsGRYiA.s:22271  .debug_str:0000000000009cc7 .LASF1340
C:\Users\CYMR90~1\AppData\Local\Temp\ccsGRYiA.s:21273  .debug_str:0000000000005ce7 .LASF1341
C:\Users\CYMR90~1\AppData\Local\Temp\ccsGRYiA.s:20325  .debug_str:00000000000020b9 .LASF1342
C:\Users\CYMR90~1\AppData\Local\Temp\ccsGRYiA.s:30666  .debug_str:000000000002b72c .LASF1343
C:\Users\CYMR90~1\AppData\Local\Temp\ccsGRYiA.s:30456  .debug_str:000000000002a9ec .LASF1344
C:\Users\CYMR90~1\AppData\Local\Temp\ccsGRYiA.s:29498  .debug_str:0000000000026d1f .LASF1345
C:\Users\CYMR90~1\AppData\Local\Temp\ccsGRYiA.s:28548  .debug_str:0000000000022f05 .LASF1346
C:\Users\CYMR90~1\AppData\Local\Temp\ccsGRYiA.s:29904  .debug_str:0000000000028881 .LASF1347
C:\Users\CYMR90~1\AppData\Local\Temp\ccsGRYiA.s:26652  .debug_str:000000000001b9b3 .LASF1348
C:\Users\CYMR90~1\AppData\Local\Temp\ccsGRYiA.s:23265  .debug_str:000000000000ddcc .LASF1349
C:\Users\CYMR90~1\AppData\Local\Temp\ccsGRYiA.s:24747  .debug_str:0000000000013d35 .LASF1350
C:\Users\CYMR90~1\AppData\Local\Temp\ccsGRYiA.s:27858  .debug_str:0000000000020568 .LASF1351
C:\Users\CYMR90~1\AppData\Local\Temp\ccsGRYiA.s:22847  .debug_str:000000000000c297 .LASF1352
C:\Users\CYMR90~1\AppData\Local\Temp\ccsGRYiA.s:21787  .debug_str:0000000000007df8 .LASF1353
C:\Users\CYMR90~1\AppData\Local\Temp\ccsGRYiA.s:22353  .debug_str:000000000000a1f1 .LASF1354
C:\Users\CYMR90~1\AppData\Local\Temp\ccsGRYiA.s:21357  .debug_str:0000000000006250 .LASF1355
C:\Users\CYMR90~1\AppData\Local\Temp\ccsGRYiA.s:20407  .debug_str:0000000000002562 .LASF1356
C:\Users\CYMR90~1\AppData\Local\Temp\ccsGRYiA.s:30736  .debug_str:000000000002bbd7 .LASF1357
C:\Users\CYMR90~1\AppData\Local\Temp\ccsGRYiA.s:24837  .debug_str:00000000000142dd .LASF1358
C:\Users\CYMR90~1\AppData\Local\Temp\ccsGRYiA.s:21487  .debug_str:0000000000006a1f .LASF1359
C:\Users\CYMR90~1\AppData\Local\Temp\ccsGRYiA.s:27906  .debug_str:000000000002083f .LASF1360
C:\Users\CYMR90~1\AppData\Local\Temp\ccsGRYiA.s:26874  .debug_str:000000000001c71c .LASF1361
C:\Users\CYMR90~1\AppData\Local\Temp\ccsGRYiA.s:25928  .debug_str:00000000000188e4 .LASF1362
C:\Users\CYMR90~1\AppData\Local\Temp\ccsGRYiA.s:29916  .debug_str:0000000000028943 .LASF1363
C:\Users\CYMR90~1\AppData\Local\Temp\ccsGRYiA.s:25235  .debug_str:0000000000015b04 .LASF1364
C:\Users\CYMR90~1\AppData\Local\Temp\ccsGRYiA.s:21907  .debug_str:0000000000008638 .LASF1365
C:\Users\CYMR90~1\AppData\Local\Temp\ccsGRYiA.s:29524  .debug_str:0000000000026eb2 .LASF1366
C:\Users\CYMR90~1\AppData\Local\Temp\ccsGRYiA.s:22963  .debug_str:000000000000cad3 .LASF1367
C:\Users\CYMR90~1\AppData\Local\Temp\ccsGRYiA.s:27798  .debug_str:0000000000020181 .LASF1368
C:\Users\CYMR90~1\AppData\Local\Temp\ccsGRYiA.s:26086  .debug_str:0000000000019412 .LASF1369
C:\Users\CYMR90~1\AppData\Local\Temp\ccsGRYiA.s:23981  .debug_str:0000000000010ae1 .LASF1370
C:\Users\CYMR90~1\AppData\Local\Temp\ccsGRYiA.s:27090  .debug_str:000000000001d688 .LASF1371
C:\Users\CYMR90~1\AppData\Local\Temp\ccsGRYiA.s:20451  .debug_str:0000000000002888 .LASF1372
C:\Users\CYMR90~1\AppData\Local\Temp\ccsGRYiA.s:23023  .debug_str:000000000000ce66 .LASF1373
C:\Users\CYMR90~1\AppData\Local\Temp\ccsGRYiA.s:26134  .debug_str:00000000000196ef .LASF1374
C:\Users\CYMR90~1\AppData\Local\Temp\ccsGRYiA.s:29198  .debug_str:0000000000025ab0 .LASF1375
C:\Users\CYMR90~1\AppData\Local\Temp\ccsGRYiA.s:21029  .debug_str:0000000000004e09 .LASF1376
C:\Users\CYMR90~1\AppData\Local\Temp\ccsGRYiA.s:24175  .debug_str:00000000000116d8 .LASF1377
C:\Users\CYMR90~1\AppData\Local\Temp\ccsGRYiA.s:27244  .debug_str:000000000001e017 .LASF1378
C:\Users\CYMR90~1\AppData\Local\Temp\ccsGRYiA.s:30366  .debug_str:000000000002a4b4 .LASF1379
C:\Users\CYMR90~1\AppData\Local\Temp\ccsGRYiA.s:30334  .debug_str:000000000002a293 .LASF1380
C:\Users\CYMR90~1\AppData\Local\Temp\ccsGRYiA.s:22119  .debug_str:000000000000931c .LASF1381
C:\Users\CYMR90~1\AppData\Local\Temp\ccsGRYiA.s:25207  .debug_str:0000000000015963 .LASF1382
C:\Users\CYMR90~1\AppData\Local\Temp\ccsGRYiA.s:28304  .debug_str:000000000002207e .LASF1383
C:\Users\CYMR90~1\AppData\Local\Temp\ccsGRYiA.s:20137  .debug_str:00000000000014f7 .LASF1384
C:\Users\CYMR90~1\AppData\Local\Temp\ccsGRYiA.s:24651  .debug_str:0000000000013775 .LASF1385
C:\Users\CYMR90~1\AppData\Local\Temp\ccsGRYiA.s:26428  .debug_str:000000000001ab92 .LASF1386
C:\Users\CYMR90~1\AppData\Local\Temp\ccsGRYiA.s:29488  .debug_str:0000000000026c5e .LASF1387
C:\Users\CYMR90~1\AppData\Local\Temp\ccsGRYiA.s:21311  .debug_str:0000000000005f56 .LASF1388
C:\Users\CYMR90~1\AppData\Local\Temp\ccsGRYiA.s:24373  .debug_str:00000000000124f0 .LASF1389
C:\Users\CYMR90~1\AppData\Local\Temp\ccsGRYiA.s:23743  .debug_str:000000000000fb55 .LASF1390
C:\Users\CYMR90~1\AppData\Local\Temp\ccsGRYiA.s:26732  .debug_str:000000000001be97 .LASF1391
C:\Users\CYMR90~1\AppData\Local\Temp\ccsGRYiA.s:29820  .debug_str:00000000000282b6 .LASF1392
C:\Users\CYMR90~1\AppData\Local\Temp\ccsGRYiA.s:21661  .debug_str:000000000000755e .LASF1393
C:\Users\CYMR90~1\AppData\Local\Temp\ccsGRYiA.s:24775  .debug_str:0000000000013eb2 .LASF1394
C:\Users\CYMR90~1\AppData\Local\Temp\ccsGRYiA.s:20739  .debug_str:0000000000003ab4 .LASF1395
C:\Users\CYMR90~1\AppData\Local\Temp\ccsGRYiA.s:31036  .debug_str:000000000002cf98 .LASF1396
C:\Users\CYMR90~1\AppData\Local\Temp\ccsGRYiA.s:22901  .debug_str:000000000000c5bc .LASF1397
C:\Users\CYMR90~1\AppData\Local\Temp\ccsGRYiA.s:27450  .debug_str:000000000001ec61 .LASF1398
C:\Users\CYMR90~1\AppData\Local\Temp\ccsGRYiA.s:24085  .debug_str:0000000000011125 .LASF1399
C:\Users\CYMR90~1\AppData\Local\Temp\ccsGRYiA.s:25373  .debug_str:0000000000016438 .LASF1400
C:\Users\CYMR90~1\AppData\Local\Temp\ccsGRYiA.s:20095  .debug_str:0000000000001289 .LASF1401
C:\Users\CYMR90~1\AppData\Local\Temp\ccsGRYiA.s:27780  .debug_str:000000000002009d .LASF1402
C:\Users\CYMR90~1\AppData\Local\Temp\ccsGRYiA.s:22731  .debug_str:000000000000bac4 .LASF1403
C:\Users\CYMR90~1\AppData\Local\Temp\ccsGRYiA.s:27548  .debug_str:000000000001f275 .LASF1404
C:\Users\CYMR90~1\AppData\Local\Temp\ccsGRYiA.s:20809  .debug_str:0000000000003f4f .LASF1405
C:\Users\CYMR90~1\AppData\Local\Temp\ccsGRYiA.s:30294  .debug_str:000000000002a023 .LASF1406
C:\Users\CYMR90~1\AppData\Local\Temp\ccsGRYiA.s:28506  .debug_str:0000000000022c97 .LASF1407
C:\Users\CYMR90~1\AppData\Local\Temp\ccsGRYiA.s:28662  .debug_str:00000000000235e0 .LASF1408
C:\Users\CYMR90~1\AppData\Local\Temp\ccsGRYiA.s:20487  .debug_str:0000000000002aa8 .LASF1409
C:\Users\CYMR90~1\AppData\Local\Temp\ccsGRYiA.s:23647  .debug_str:000000000000f521 .LASF1410
C:\Users\CYMR90~1\AppData\Local\Temp\ccsGRYiA.s:30046  .debug_str:0000000000029140 .LASF1411
C:\Users\CYMR90~1\AppData\Local\Temp\ccsGRYiA.s:21897  .debug_str:00000000000085b4 .LASF1412
C:\Users\CYMR90~1\AppData\Local\Temp\ccsGRYiA.s:27426  .debug_str:000000000001eb18 .LASF1413
C:\Users\CYMR90~1\AppData\Local\Temp\ccsGRYiA.s:28088  .debug_str:0000000000021376 .LASF1414
C:\Users\CYMR90~1\AppData\Local\Temp\ccsGRYiA.s:19943  .debug_str:00000000000008f0 .LASF1415
C:\Users\CYMR90~1\AppData\Local\Temp\ccsGRYiA.s:22989  .debug_str:000000000000cc40 .LASF1416
C:\Users\CYMR90~1\AppData\Local\Temp\ccsGRYiA.s:26110  .debug_str:00000000000195bb .LASF1417
C:\Users\CYMR90~1\AppData\Local\Temp\ccsGRYiA.s:27608  .debug_str:000000000001f5fe .LASF1418
C:\Users\CYMR90~1\AppData\Local\Temp\ccsGRYiA.s:21007  .debug_str:0000000000004cba .LASF1419
C:\Users\CYMR90~1\AppData\Local\Temp\ccsGRYiA.s:24071  .debug_str:0000000000011046 .LASF1420
C:\Users\CYMR90~1\AppData\Local\Temp\ccsGRYiA.s:23423  .debug_str:000000000000e77a .LASF1421
C:\Users\CYMR90~1\AppData\Local\Temp\ccsGRYiA.s:26542  .debug_str:000000000001b324 .LASF1422
C:\Users\CYMR90~1\AppData\Local\Temp\ccsGRYiA.s:29598  .debug_str:00000000000273b0 .LASF1423
C:\Users\CYMR90~1\AppData\Local\Temp\ccsGRYiA.s:21441  .debug_str:000000000000670a .LASF1424
C:\Users\CYMR90~1\AppData\Local\Temp\ccsGRYiA.s:24587  .debug_str:00000000000132d6 .LASF1425
C:\Users\CYMR90~1\AppData\Local\Temp\ccsGRYiA.s:27540  .debug_str:000000000001f1dc .LASF1426
C:\Users\CYMR90~1\AppData\Local\Temp\ccsGRYiA.s:30746  .debug_str:000000000002bcca .LASF1427
C:\Users\CYMR90~1\AppData\Local\Temp\ccsGRYiA.s:22607  .debug_str:000000000000b251 .LASF1428
C:\Users\CYMR90~1\AppData\Local\Temp\ccsGRYiA.s:25692  .debug_str:0000000000017acd .LASF1429
C:\Users\CYMR90~1\AppData\Local\Temp\ccsGRYiA.s:28794  .debug_str:0000000000023ddf .LASF1430
C:\Users\CYMR90~1\AppData\Local\Temp\ccsGRYiA.s:27550  .debug_str:000000000001f28d .LASF1431
C:\Users\CYMR90~1\AppData\Local\Temp\ccsGRYiA.s:19905  .debug_str:00000000000006a7 .LASF1432
C:\Users\CYMR90~1\AppData\Local\Temp\ccsGRYiA.s:21325  .debug_str:000000000000602b .LASF1433
C:\Users\CYMR90~1\AppData\Local\Temp\ccsGRYiA.s:27784  .debug_str:00000000000200c7 .LASF1434
C:\Users\CYMR90~1\AppData\Local\Temp\ccsGRYiA.s:26842  .debug_str:000000000001c51b .LASF1435
C:\Users\CYMR90~1\AppData\Local\Temp\ccsGRYiA.s:25898  .debug_str:00000000000186d4 .LASF1436
C:\Users\CYMR90~1\AppData\Local\Temp\ccsGRYiA.s:25331  .debug_str:00000000000161d0 .LASF1437
C:\Users\CYMR90~1\AppData\Local\Temp\ccsGRYiA.s:29630  .debug_str:000000000002755b .LASF1438
C:\Users\CYMR90~1\AppData\Local\Temp\ccsGRYiA.s:28680  .debug_str:0000000000023750 .LASF1439
C:\Users\CYMR90~1\AppData\Local\Temp\ccsGRYiA.s:27704  .debug_str:000000000001fbda .LASF1440
C:\Users\CYMR90~1\AppData\Local\Temp\ccsGRYiA.s:26772  .debug_str:000000000001c10d .LASF1441
C:\Users\CYMR90~1\AppData\Local\Temp\ccsGRYiA.s:25824  .debug_str:000000000001829c .LASF1442
C:\Users\CYMR90~1\AppData\Local\Temp\ccsGRYiA.s:24865  .debug_str:000000000001446e .LASF1443
C:\Users\CYMR90~1\AppData\Local\Temp\ccsGRYiA.s:23929  .debug_str:00000000000107a4 .LASF1444
C:\Users\CYMR90~1\AppData\Local\Temp\ccsGRYiA.s:30704  .debug_str:000000000002b9b9 .LASF1445
C:\Users\CYMR90~1\AppData\Local\Temp\ccsGRYiA.s:22011  .debug_str:0000000000008c8c .LASF1446
C:\Users\CYMR90~1\AppData\Local\Temp\ccsGRYiA.s:23559  .debug_str:000000000000efa6 .LASF1447
C:\Users\CYMR90~1\AppData\Local\Temp\ccsGRYiA.s:29026  .debug_str:0000000000024e17 .LASF1448
C:\Users\CYMR90~1\AppData\Local\Temp\ccsGRYiA.s:28064  .debug_str:0000000000021158 .LASF1449
C:\Users\CYMR90~1\AppData\Local\Temp\ccsGRYiA.s:27100  .debug_str:000000000001d79d .LASF1450
C:\Users\CYMR90~1\AppData\Local\Temp\ccsGRYiA.s:26180  .debug_str:0000000000019a8d .LASF1451
C:\Users\CYMR90~1\AppData\Local\Temp\ccsGRYiA.s:25205  .debug_str:000000000001594e .LASF1452
C:\Users\CYMR90~1\AppData\Local\Temp\ccsGRYiA.s:22605  .debug_str:000000000000b23e .LASF1453
C:\Users\CYMR90~1\AppData\Local\Temp\ccsGRYiA.s:21219  .debug_str:0000000000005986 .LASF1454
C:\Users\CYMR90~1\AppData\Local\Temp\ccsGRYiA.s:22409  .debug_str:000000000000a58b .LASF1455
C:\Users\CYMR90~1\AppData\Local\Temp\ccsGRYiA.s:27454  .debug_str:000000000001eca3 .LASF1456
C:\Users\CYMR90~1\AppData\Local\Temp\ccsGRYiA.s:29072  .debug_str:000000000002515c .LASF1457
C:\Users\CYMR90~1\AppData\Local\Temp\ccsGRYiA.s:20971  .debug_str:0000000000004a98 .LASF1458
C:\Users\CYMR90~1\AppData\Local\Temp\ccsGRYiA.s:27534  .debug_str:000000000001f18e .LASF1459
C:\Users\CYMR90~1\AppData\Local\Temp\ccsGRYiA.s:24397  .debug_str:000000000001267a .LASF1460
C:\Users\CYMR90~1\AppData\Local\Temp\ccsGRYiA.s:22517  .debug_str:000000000000ac0c .LASF1461
C:\Users\CYMR90~1\AppData\Local\Temp\ccsGRYiA.s:23701  .debug_str:000000000000f8f1 .LASF1462
C:\Users\CYMR90~1\AppData\Local\Temp\ccsGRYiA.s:24181  .debug_str:00000000000117b3 .LASF1463
C:\Users\CYMR90~1\AppData\Local\Temp\ccsGRYiA.s:25265  .debug_str:0000000000015cf8 .LASF1464
C:\Users\CYMR90~1\AppData\Local\Temp\ccsGRYiA.s:30482  .debug_str:000000000002ab94 .LASF1465
C:\Users\CYMR90~1\AppData\Local\Temp\ccsGRYiA.s:26440  .debug_str:000000000001ac57 .LASF1466
C:\Users\CYMR90~1\AppData\Local\Temp\ccsGRYiA.s:24869  .debug_str:0000000000014495 .LASF1467
C:\Users\CYMR90~1\AppData\Local\Temp\ccsGRYiA.s:29516  .debug_str:0000000000026e3b .LASF1468
C:\Users\CYMR90~1\AppData\Local\Temp\ccsGRYiA.s:23871  .debug_str:0000000000010378 .LASF1469
C:\Users\CYMR90~1\AppData\Local\Temp\ccsGRYiA.s:21969  .debug_str:0000000000008a08 .LASF1470
C:\Users\CYMR90~1\AppData\Local\Temp\ccsGRYiA.s:24157  .debug_str:00000000000115bc .LASF1471
C:\Users\CYMR90~1\AppData\Local\Temp\ccsGRYiA.s:25718  .debug_str:0000000000017c3d .LASF1472
C:\Users\CYMR90~1\AppData\Local\Temp\ccsGRYiA.s:28980  .debug_str:0000000000024b0e .LASF1473
C:\Users\CYMR90~1\AppData\Local\Temp\ccsGRYiA.s:29604  .debug_str:00000000000273f5 .LASF1474
C:\Users\CYMR90~1\AppData\Local\Temp\ccsGRYiA.s:19995  .debug_str:0000000000000c71 .LASF1475
C:\Users\CYMR90~1\AppData\Local\Temp\ccsGRYiA.s:21899  .debug_str:00000000000085cd .LASF1476
C:\Users\CYMR90~1\AppData\Local\Temp\ccsGRYiA.s:20511  .debug_str:0000000000002c18 .LASF1477
C:\Users\CYMR90~1\AppData\Local\Temp\ccsGRYiA.s:29786  .debug_str:0000000000027ffb .LASF1478
C:\Users\CYMR90~1\AppData\Local\Temp\ccsGRYiA.s:28832  .debug_str:00000000000240d1 .LASF1479
C:\Users\CYMR90~1\AppData\Local\Temp\ccsGRYiA.s:26478  .debug_str:000000000001ae9c .LASF1480
C:\Users\CYMR90~1\AppData\Local\Temp\ccsGRYiA.s:22855  .debug_str:000000000000c2f3 .LASF1481
C:\Users\CYMR90~1\AppData\Local\Temp\ccsGRYiA.s:28948  .debug_str:000000000002491a .LASF1482
C:\Users\CYMR90~1\AppData\Local\Temp\ccsGRYiA.s:22205  .debug_str:000000000000989a .LASF1483
C:\Users\CYMR90~1\AppData\Local\Temp\ccsGRYiA.s:21013  .debug_str:0000000000004d13 .LASF1484
C:\Users\CYMR90~1\AppData\Local\Temp\ccsGRYiA.s:23431  .debug_str:000000000000e803 .LASF1485
C:\Users\CYMR90~1\AppData\Local\Temp\ccsGRYiA.s:24835  .debug_str:00000000000142ca .LASF1486
C:\Users\CYMR90~1\AppData\Local\Temp\ccsGRYiA.s:26424  .debug_str:000000000001ab63 .LASF1487
C:\Users\CYMR90~1\AppData\Local\Temp\ccsGRYiA.s:19829  .debug_str:000000000000021d .LASF1488
C:\Users\CYMR90~1\AppData\Local\Temp\ccsGRYiA.s:25223  .debug_str:0000000000015a4b .LASF1489
C:\Users\CYMR90~1\AppData\Local\Temp\ccsGRYiA.s:23225  .debug_str:000000000000db2a .LASF1490
C:\Users\CYMR90~1\AppData\Local\Temp\ccsGRYiA.s:30012  .debug_str:0000000000028f3a .LASF1491
C:\Users\CYMR90~1\AppData\Local\Temp\ccsGRYiA.s:20481  .debug_str:0000000000002a41 .LASF1492
C:\Users\CYMR90~1\AppData\Local\Temp\ccsGRYiA.s:28018  .debug_str:0000000000020ed9 .LASF1493
C:\Users\CYMR90~1\AppData\Local\Temp\ccsGRYiA.s:30226  .debug_str:0000000000029c32 .LASF1494
C:\Users\CYMR90~1\AppData\Local\Temp\ccsGRYiA.s:21649  .debug_str:00000000000074ba .LASF1495
C:\Users\CYMR90~1\AppData\Local\Temp\ccsGRYiA.s:29292  .debug_str:0000000000026077 .LASF1496
C:\Users\CYMR90~1\AppData\Local\Temp\ccsGRYiA.s:29984  .debug_str:0000000000028d76 .LASF1497
C:\Users\CYMR90~1\AppData\Local\Temp\ccsGRYiA.s:21447  .debug_str:0000000000006762 .LASF1498
C:\Users\CYMR90~1\AppData\Local\Temp\ccsGRYiA.s:22295  .debug_str:0000000000009e32 .LASF1499
C:\Users\CYMR90~1\AppData\Local\Temp\ccsGRYiA.s:30910  .debug_str:000000000002c7a9 .LASF1500
C:\Users\CYMR90~1\AppData\Local\Temp\ccsGRYiA.s:30144  .debug_str:000000000002974a .LASF1501
C:\Users\CYMR90~1\AppData\Local\Temp\ccsGRYiA.s:27918  .debug_str:00000000000208f1 .LASF1502
C:\Users\CYMR90~1\AppData\Local\Temp\ccsGRYiA.s:21427  .debug_str:0000000000006626 .LASF1503
C:\Users\CYMR90~1\AppData\Local\Temp\ccsGRYiA.s:30228  .debug_str:0000000000029c40 .LASF1504
C:\Users\CYMR90~1\AppData\Local\Temp\ccsGRYiA.s:27296  .debug_str:000000000001e322 .LASF1505
C:\Users\CYMR90~1\AppData\Local\Temp\ccsGRYiA.s:26628  .debug_str:000000000001b851 .LASF1506
C:\Users\CYMR90~1\AppData\Local\Temp\ccsGRYiA.s:23553  .debug_str:000000000000ef57 .LASF1507
C:\Users\CYMR90~1\AppData\Local\Temp\ccsGRYiA.s:28122  .debug_str:0000000000021555 .LASF1508
C:\Users\CYMR90~1\AppData\Local\Temp\ccsGRYiA.s:24337  .debug_str:000000000001228f .LASF1509
C:\Users\CYMR90~1\AppData\Local\Temp\ccsGRYiA.s:29890  .debug_str:0000000000028789 .LASF1510
C:\Users\CYMR90~1\AppData\Local\Temp\ccsGRYiA.s:28694  .debug_str:000000000002380a .LASF1511
C:\Users\CYMR90~1\AppData\Local\Temp\ccsGRYiA.s:20673  .debug_str:000000000000367d .LASF1512
C:\Users\CYMR90~1\AppData\Local\Temp\ccsGRYiA.s:25287  .debug_str:0000000000015ebf .LASF1513
C:\Users\CYMR90~1\AppData\Local\Temp\ccsGRYiA.s:29098  .debug_str:000000000002538a .LASF1514
C:\Users\CYMR90~1\AppData\Local\Temp\ccsGRYiA.s:27510  .debug_str:000000000001f042 .LASF1515
C:\Users\CYMR90~1\AppData\Local\Temp\ccsGRYiA.s:30646  .debug_str:000000000002b5ba .LASF1516
C:\Users\CYMR90~1\AppData\Local\Temp\ccsGRYiA.s:27346  .debug_str:000000000001e61d .LASF1517
C:\Users\CYMR90~1\AppData\Local\Temp\ccsGRYiA.s:29326  .debug_str:0000000000026259 .LASF1518
C:\Users\CYMR90~1\AppData\Local\Temp\ccsGRYiA.s:24329  .debug_str:0000000000012236 .LASF1519
C:\Users\CYMR90~1\AppData\Local\Temp\ccsGRYiA.s:27730  .debug_str:000000000001fd8d .LASF1520
C:\Users\CYMR90~1\AppData\Local\Temp\ccsGRYiA.s:26802  .debug_str:000000000001c2e0 .LASF1521
C:\Users\CYMR90~1\AppData\Local\Temp\ccsGRYiA.s:28056  .debug_str:00000000000210e9 .LASF1522
C:\Users\CYMR90~1\AppData\Local\Temp\ccsGRYiA.s:26084  .debug_str:00000000000193f6 .LASF1523
C:\Users\CYMR90~1\AppData\Local\Temp\ccsGRYiA.s:28696  .debug_str:0000000000023820 .LASF1524
C:\Users\CYMR90~1\AppData\Local\Temp\ccsGRYiA.s:21085  .debug_str:000000000000515c .LASF1525
C:\Users\CYMR90~1\AppData\Local\Temp\ccsGRYiA.s:26746  .debug_str:000000000001bf90 .LASF1526
C:\Users\CYMR90~1\AppData\Local\Temp\ccsGRYiA.s:22875  .debug_str:000000000000c433 .LASF1527
C:\Users\CYMR90~1\AppData\Local\Temp\ccsGRYiA.s:28458  .debug_str:000000000002297f .LASF1528
C:\Users\CYMR90~1\AppData\Local\Temp\ccsGRYiA.s:29684  .debug_str:00000000000278bc .LASF1529
C:\Users\CYMR90~1\AppData\Local\Temp\ccsGRYiA.s:28940  .debug_str:00000000000247f8 .LASF1530
C:\Users\CYMR90~1\AppData\Local\Temp\ccsGRYiA.s:29004  .debug_str:0000000000024c92 .LASF1531
C:\Users\CYMR90~1\AppData\Local\Temp\ccsGRYiA.s:20829  .debug_str:000000000000405b .LASF1532
C:\Users\CYMR90~1\AppData\Local\Temp\ccsGRYiA.s:26034  .debug_str:0000000000019033 .LASF1533
C:\Users\CYMR90~1\AppData\Local\Temp\ccsGRYiA.s:28826  .debug_str:0000000000023f91 .LASF1534
C:\Users\CYMR90~1\AppData\Local\Temp\ccsGRYiA.s:22945  .debug_str:000000000000c8f6 .LASF1535
C:\Users\CYMR90~1\AppData\Local\Temp\ccsGRYiA.s:29008  .debug_str:0000000000024d12 .LASF1536
C:\Users\CYMR90~1\AppData\Local\Temp\ccsGRYiA.s:28360  .debug_str:00000000000223b2 .LASF1537
C:\Users\CYMR90~1\AppData\Local\Temp\ccsGRYiA.s:29558  .debug_str:0000000000027098 .LASF1538
C:\Users\CYMR90~1\AppData\Local\Temp\ccsGRYiA.s:29458  .debug_str:0000000000026a7b .LASF1539
C:\Users\CYMR90~1\AppData\Local\Temp\ccsGRYiA.s:24209  .debug_str:0000000000011a04 .LASF1540
C:\Users\CYMR90~1\AppData\Local\Temp\ccsGRYiA.s:30170  .debug_str:00000000000298d2 .LASF1541
C:\Users\CYMR90~1\AppData\Local\Temp\ccsGRYiA.s:23203  .debug_str:000000000000da16 .LASF1542
C:\Users\CYMR90~1\AppData\Local\Temp\ccsGRYiA.s:20599  .debug_str:0000000000003186 .LASF1543
C:\Users\CYMR90~1\AppData\Local\Temp\ccsGRYiA.s:23783  .debug_str:000000000000fde4 .LASF1544
C:\Users\CYMR90~1\AppData\Local\Temp\ccsGRYiA.s:21831  .debug_str:0000000000008151 .LASF1545
C:\Users\CYMR90~1\AppData\Local\Temp\ccsGRYiA.s:22303  .debug_str:0000000000009ea5 .LASF1546
C:\Users\CYMR90~1\AppData\Local\Temp\ccsGRYiA.s:22931  .debug_str:000000000000c7f7 .LASF1547
C:\Users\CYMR90~1\AppData\Local\Temp\ccsGRYiA.s:29762  .debug_str:0000000000027e21 .LASF1548
C:\Users\CYMR90~1\AppData\Local\Temp\ccsGRYiA.s:29262  .debug_str:0000000000025e64 .LASF1549
C:\Users\CYMR90~1\AppData\Local\Temp\ccsGRYiA.s:26694  .debug_str:000000000001bbd6 .LASF1550
C:\Users\CYMR90~1\AppData\Local\Temp\ccsGRYiA.s:24081  .debug_str:00000000000110d7 .LASF1551
C:\Users\CYMR90~1\AppData\Local\Temp\ccsGRYiA.s:26664  .debug_str:000000000001ba28 .LASF1552
C:\Users\CYMR90~1\AppData\Local\Temp\ccsGRYiA.s:20063  .debug_str:00000000000010a1 .LASF1553
C:\Users\CYMR90~1\AppData\Local\Temp\ccsGRYiA.s:20377  .debug_str:00000000000023a3 .LASF1554
C:\Users\CYMR90~1\AppData\Local\Temp\ccsGRYiA.s:27382  .debug_str:000000000001e89b .LASF1555
C:\Users\CYMR90~1\AppData\Local\Temp\ccsGRYiA.s:25990  .debug_str:0000000000018d42 .LASF1556
C:\Users\CYMR90~1\AppData\Local\Temp\ccsGRYiA.s:23615  .debug_str:000000000000f34b .LASF1557
C:\Users\CYMR90~1\AppData\Local\Temp\ccsGRYiA.s:30250  .debug_str:0000000000029d84 .LASF1558
C:\Users\CYMR90~1\AppData\Local\Temp\ccsGRYiA.s:23925  .debug_str:0000000000010778 .LASF1559
C:\Users\CYMR90~1\AppData\Local\Temp\ccsGRYiA.s:28706  .debug_str:0000000000023899 .LASF1560
C:\Users\CYMR90~1\AppData\Local\Temp\ccsGRYiA.s:29124  .debug_str:0000000000025553 .LASF1561
C:\Users\CYMR90~1\AppData\Local\Temp\ccsGRYiA.s:24035  .debug_str:0000000000010e6b .LASF1562
C:\Users\CYMR90~1\AppData\Local\Temp\ccsGRYiA.s:23711  .debug_str:000000000000f96e .LASF1563
C:\Users\CYMR90~1\AppData\Local\Temp\ccsGRYiA.s:30744  .debug_str:000000000002bc24 .LASF1564
C:\Users\CYMR90~1\AppData\Local\Temp\ccsGRYiA.s:21455  .debug_str:00000000000067cb .LASF1565
C:\Users\CYMR90~1\AppData\Local\Temp\ccsGRYiA.s:27098  .debug_str:000000000001d70f .LASF1566
C:\Users\CYMR90~1\AppData\Local\Temp\ccsGRYiA.s:26378  .debug_str:000000000001a80a .LASF1567
C:\Users\CYMR90~1\AppData\Local\Temp\ccsGRYiA.s:27850  .debug_str:0000000000020493 .LASF1568
C:\Users\CYMR90~1\AppData\Local\Temp\ccsGRYiA.s:24207  .debug_str:000000000001195d .LASF1569
C:\Users\CYMR90~1\AppData\Local\Temp\ccsGRYiA.s:29150  .debug_str:0000000000025729 .LASF1570
C:\Users\CYMR90~1\AppData\Local\Temp\ccsGRYiA.s:19895  .debug_str:00000000000005aa .LASF1571
C:\Users\CYMR90~1\AppData\Local\Temp\ccsGRYiA.s:21133  .debug_str:0000000000005465 .LASF1572
C:\Users\CYMR90~1\AppData\Local\Temp\ccsGRYiA.s:25029  .debug_str:0000000000014ef6 .LASF1573
C:\Users\CYMR90~1\AppData\Local\Temp\ccsGRYiA.s:29878  .debug_str:00000000000286bf .LASF1574
C:\Users\CYMR90~1\AppData\Local\Temp\ccsGRYiA.s:25496  .debug_str:0000000000016e97 .LASF1575
C:\Users\CYMR90~1\AppData\Local\Temp\ccsGRYiA.s:23589  .debug_str:000000000000f189 .LASF1576
C:\Users\CYMR90~1\AppData\Local\Temp\ccsGRYiA.s:27386  .debug_str:000000000001e8dd .LASF1577
C:\Users\CYMR90~1\AppData\Local\Temp\ccsGRYiA.s:30358  .debug_str:000000000002a418 .LASF1578
C:\Users\CYMR90~1\AppData\Local\Temp\ccsGRYiA.s:20387  .debug_str:000000000000242e .LASF1579
C:\Users\CYMR90~1\AppData\Local\Temp\ccsGRYiA.s:26940  .debug_str:000000000001cbee .LASF1580
C:\Users\CYMR90~1\AppData\Local\Temp\ccsGRYiA.s:22415  .debug_str:000000000000a5de .LASF1581
C:\Users\CYMR90~1\AppData\Local\Temp\ccsGRYiA.s:23119  .debug_str:000000000000d532 .LASF1582
C:\Users\CYMR90~1\AppData\Local\Temp\ccsGRYiA.s:21821  .debug_str:0000000000008025 .LASF1583
C:\Users\CYMR90~1\AppData\Local\Temp\ccsGRYiA.s:29560  .debug_str:00000000000270b6 .LASF1584
C:\Users\CYMR90~1\AppData\Local\Temp\ccsGRYiA.s:24301  .debug_str:0000000000011fc6 .LASF1585
C:\Users\CYMR90~1\AppData\Local\Temp\ccsGRYiA.s:30962  .debug_str:000000000002caa1 .LASF1586
C:\Users\CYMR90~1\AppData\Local\Temp\ccsGRYiA.s:23091  .debug_str:000000000000d2d3 .LASF1587
C:\Users\CYMR90~1\AppData\Local\Temp\ccsGRYiA.s:21779  .debug_str:0000000000007ceb .LASF1588
C:\Users\CYMR90~1\AppData\Local\Temp\ccsGRYiA.s:25471  .debug_str:0000000000016ae8 .LASF1589
C:\Users\CYMR90~1\AppData\Local\Temp\ccsGRYiA.s:22633  .debug_str:000000000000b3e8 .LASF1590
C:\Users\CYMR90~1\AppData\Local\Temp\ccsGRYiA.s:25397  .debug_str:0000000000016569 .LASF1591
C:\Users\CYMR90~1\AppData\Local\Temp\ccsGRYiA.s:22021  .debug_str:0000000000008cfa .LASF1592
C:\Users\CYMR90~1\AppData\Local\Temp\ccsGRYiA.s:24601  .debug_str:00000000000133e5 .LASF1593
C:\Users\CYMR90~1\AppData\Local\Temp\ccsGRYiA.s:23917  .debug_str:0000000000010649 .LASF1594
C:\Users\CYMR90~1\AppData\Local\Temp\ccsGRYiA.s:29794  .debug_str:0000000000028079 .LASF1595
C:\Users\CYMR90~1\AppData\Local\Temp\ccsGRYiA.s:20029  .debug_str:0000000000000e45 .LASF1596
C:\Users\CYMR90~1\AppData\Local\Temp\ccsGRYiA.s:26968  .debug_str:000000000001cdbd .LASF1597
C:\Users\CYMR90~1\AppData\Local\Temp\ccsGRYiA.s:20939  .debug_str:0000000000004809 .LASF1598
C:\Users\CYMR90~1\AppData\Local\Temp\ccsGRYiA.s:29074  .debug_str:000000000002516b .LASF1599
C:\Users\CYMR90~1\AppData\Local\Temp\ccsGRYiA.s:20173  .debug_str:0000000000001709 .LASF1600
C:\Users\CYMR90~1\AppData\Local\Temp\ccsGRYiA.s:23675  .debug_str:000000000000f6a5 .LASF1601
C:\Users\CYMR90~1\AppData\Local\Temp\ccsGRYiA.s:28080  .debug_str:0000000000021250 .LASF1602
C:\Users\CYMR90~1\AppData\Local\Temp\ccsGRYiA.s:26992  .debug_str:000000000001cfe2 .LASF1603
C:\Users\CYMR90~1\AppData\Local\Temp\ccsGRYiA.s:26886  .debug_str:000000000001c7de .LASF1604
C:\Users\CYMR90~1\AppData\Local\Temp\ccsGRYiA.s:29054  .debug_str:0000000000024f96 .LASF1605
C:\Users\CYMR90~1\AppData\Local\Temp\ccsGRYiA.s:28982  .debug_str:0000000000024b24 .LASF1606
C:\Users\CYMR90~1\AppData\Local\Temp\ccsGRYiA.s:28934  .debug_str:00000000000247a4 .LASF1607
C:\Users\CYMR90~1\AppData\Local\Temp\ccsGRYiA.s:25934  .debug_str:0000000000018936 .LASF1608
C:\Users\CYMR90~1\AppData\Local\Temp\ccsGRYiA.s:20915  .debug_str:0000000000004676 .LASF1609
C:\Users\CYMR90~1\AppData\Local\Temp\ccsGRYiA.s:28288  .debug_str:0000000000021f83 .LASF1610
C:\Users\CYMR90~1\AppData\Local\Temp\ccsGRYiA.s:30868  .debug_str:000000000002c49f .LASF1611
C:\Users\CYMR90~1\AppData\Local\Temp\ccsGRYiA.s:26838  .debug_str:000000000001c4df .LASF1612
C:\Users\CYMR90~1\AppData\Local\Temp\ccsGRYiA.s:24913  .debug_str:00000000000147a2 .LASF1613
C:\Users\CYMR90~1\AppData\Local\Temp\ccsGRYiA.s:22289  .debug_str:0000000000009dd4 .LASF1614
C:\Users\CYMR90~1\AppData\Local\Temp\ccsGRYiA.s:26524  .debug_str:000000000001b1d1 .LASF1615
C:\Users\CYMR90~1\AppData\Local\Temp\ccsGRYiA.s:28178  .debug_str:00000000000218a4 .LASF1616
C:\Users\CYMR90~1\AppData\Local\Temp\ccsGRYiA.s:25003  .debug_str:0000000000014cf0 .LASF1617
C:\Users\CYMR90~1\AppData\Local\Temp\ccsGRYiA.s:26898  .debug_str:000000000001c952 .LASF1618
C:\Users\CYMR90~1\AppData\Local\Temp\ccsGRYiA.s:20963  .debug_str:0000000000004a12 .LASF1619
C:\Users\CYMR90~1\AppData\Local\Temp\ccsGRYiA.s:22667  .debug_str:000000000000b697 .LASF1620
C:\Users\CYMR90~1\AppData\Local\Temp\ccsGRYiA.s:23505  .debug_str:000000000000ecb6 .LASF1621
C:\Users\CYMR90~1\AppData\Local\Temp\ccsGRYiA.s:20537  .debug_str:0000000000002dae .LASF1622
C:\Users\CYMR90~1\AppData\Local\Temp\ccsGRYiA.s:27880  .debug_str:00000000000206a0 .LASF1623
C:\Users\CYMR90~1\AppData\Local\Temp\ccsGRYiA.s:24603  .debug_str:0000000000013480 .LASF1624
C:\Users\CYMR90~1\AppData\Local\Temp\ccsGRYiA.s:22763  .debug_str:000000000000bd10 .LASF1625
C:\Users\CYMR90~1\AppData\Local\Temp\ccsGRYiA.s:28576  .debug_str:0000000000023077 .LASF1626
C:\Users\CYMR90~1\AppData\Local\Temp\ccsGRYiA.s:21451  .debug_str:000000000000679d .LASF1627
C:\Users\CYMR90~1\AppData\Local\Temp\ccsGRYiA.s:27626  .debug_str:000000000001f705 .LASF1628
C:\Users\CYMR90~1\AppData\Local\Temp\ccsGRYiA.s:22529  .debug_str:000000000000acce .LASF1629
C:\Users\CYMR90~1\AppData\Local\Temp\ccsGRYiA.s:28370  .debug_str:000000000002242a .LASF1630
C:\Users\CYMR90~1\AppData\Local\Temp\ccsGRYiA.s:22005  .debug_str:0000000000008c35 .LASF1631
C:\Users\CYMR90~1\AppData\Local\Temp\ccsGRYiA.s:20129  .debug_str:00000000000014a2 .LASF1632
C:\Users\CYMR90~1\AppData\Local\Temp\ccsGRYiA.s:26642  .debug_str:000000000001b940 .LASF1633
C:\Users\CYMR90~1\AppData\Local\Temp\ccsGRYiA.s:25626  .debug_str:0000000000017656 .LASF1634
C:\Users\CYMR90~1\AppData\Local\Temp\ccsGRYiA.s:22745  .debug_str:000000000000bba9 .LASF1635
C:\Users\CYMR90~1\AppData\Local\Temp\ccsGRYiA.s:22849  .debug_str:000000000000c2ad .LASF1636
C:\Users\CYMR90~1\AppData\Local\Temp\ccsGRYiA.s:26496  .debug_str:000000000001b02c .LASF1637
C:\Users\CYMR90~1\AppData\Local\Temp\ccsGRYiA.s:22915  .debug_str:000000000000c6e4 .LASF1638
C:\Users\CYMR90~1\AppData\Local\Temp\ccsGRYiA.s:22643  .debug_str:000000000000b50d .LASF1639
C:\Users\CYMR90~1\AppData\Local\Temp\ccsGRYiA.s:25840  .debug_str:000000000001838f .LASF1640
C:\Users\CYMR90~1\AppData\Local\Temp\ccsGRYiA.s:23877  .debug_str:00000000000103d4 .LASF1641
C:\Users\CYMR90~1\AppData\Local\Temp\ccsGRYiA.s:28924  .debug_str:0000000000024718 .LASF1642
C:\Users\CYMR90~1\AppData\Local\Temp\ccsGRYiA.s:24217  .debug_str:0000000000011aa5 .LASF1643
C:\Users\CYMR90~1\AppData\Local\Temp\ccsGRYiA.s:27768  .debug_str:000000000001ffef .LASF1644
C:\Users\CYMR90~1\AppData\Local\Temp\ccsGRYiA.s:30836  .debug_str:000000000002c300 .LASF1645
C:\Users\CYMR90~1\AppData\Local\Temp\ccsGRYiA.s:20527  .debug_str:0000000000002d1e .LASF1646
C:\Users\CYMR90~1\AppData\Local\Temp\ccsGRYiA.s:25433  .debug_str:000000000001683e .LASF1647
C:\Users\CYMR90~1\AppData\Local\Temp\ccsGRYiA.s:25536  .debug_str:0000000000017126 .LASF1648
C:\Users\CYMR90~1\AppData\Local\Temp\ccsGRYiA.s:20329  .debug_str:00000000000020ed .LASF1649
C:\Users\CYMR90~1\AppData\Local\Temp\ccsGRYiA.s:21847  .debug_str:000000000000826a .LASF1650
C:\Users\CYMR90~1\AppData\Local\Temp\ccsGRYiA.s:28592  .debug_str:0000000000023177 .LASF1651
C:\Users\CYMR90~1\AppData\Local\Temp\ccsGRYiA.s:23971  .debug_str:00000000000109e9 .LASF1652
C:\Users\CYMR90~1\AppData\Local\Temp\ccsGRYiA.s:21735  .debug_str:0000000000007a07 .LASF1653
C:\Users\CYMR90~1\AppData\Local\Temp\ccsGRYiA.s:20069  .debug_str:0000000000001112 .LASF1654
C:\Users\CYMR90~1\AppData\Local\Temp\ccsGRYiA.s:25734  .debug_str:0000000000017d16 .LASF1657
C:\Users\CYMR90~1\AppData\Local\Temp\ccsGRYiA.s:30406  .debug_str:000000000002a706 .LASF1658
C:\Users\CYMR90~1\AppData\Local\Temp\ccsGRYiA.s:24003  .debug_str:0000000000010ce1 .LASF1659
C:\Users\CYMR90~1\AppData\Local\Temp\ccsGRYiA.s:26058  .debug_str:0000000000019292 .LASF1660
C:\Users\CYMR90~1\AppData\Local\Temp\ccsGRYiA.s:30642  .debug_str:000000000002b57b .LASF1661
C:\Users\CYMR90~1\AppData\Local\Temp\ccsGRYiA.s:30674  .debug_str:000000000002b7c0 .LASF1662
C:\Users\CYMR90~1\AppData\Local\Temp\ccsGRYiA.s:27970  .debug_str:0000000000020c27 .LASF1663
C:\Users\CYMR90~1\AppData\Local\Temp\ccsGRYiA.s:24965  .debug_str:0000000000014a7a .LASF1664
C:\Users\CYMR90~1\AppData\Local\Temp\ccsGRYiA.s:27148  .debug_str:000000000001da5f .LASF1665
C:\Users\CYMR90~1\AppData\Local\Temp\ccsGRYiA.s:28058  .debug_str:0000000000021104 .LASF1666
C:\Users\CYMR90~1\AppData\Local\Temp\ccsGRYiA.s:23715  .debug_str:000000000000f994 .LASF1667
C:\Users\CYMR90~1\AppData\Local\Temp\ccsGRYiA.s:23417  .debug_str:000000000000e704 .LASF1668
C:\Users\CYMR90~1\AppData\Local\Temp\ccsGRYiA.s:20755  .debug_str:0000000000003b9c .LASF1669
C:\Users\CYMR90~1\AppData\Local\Temp\ccsGRYiA.s:22041  .debug_str:0000000000008e98 .LASF1670
C:\Users\CYMR90~1\AppData\Local\Temp\ccsGRYiA.s:20981  .debug_str:0000000000004b1b .LASF1671
C:\Users\CYMR90~1\AppData\Local\Temp\ccsGRYiA.s:19877  .debug_str:00000000000004d7 .LASF1672
C:\Users\CYMR90~1\AppData\Local\Temp\ccsGRYiA.s:24889  .debug_str:00000000000145cd .LASF1673
C:\Users\CYMR90~1\AppData\Local\Temp\ccsGRYiA.s:24289  .debug_str:0000000000011ecf .LASF1674
C:\Users\CYMR90~1\AppData\Local\Temp\ccsGRYiA.s:23455  .debug_str:000000000000e960 .LASF1675
C:\Users\CYMR90~1\AppData\Local\Temp\ccsGRYiA.s:28946  .debug_str:0000000000024900 .LASF1676
C:\Users\CYMR90~1\AppData\Local\Temp\ccsGRYiA.s:24423  .debug_str:0000000000012824 .LASF1677
C:\Users\CYMR90~1\AppData\Local\Temp\ccsGRYiA.s:30838  .debug_str:000000000002c315 .LASF1678
C:\Users\CYMR90~1\AppData\Local\Temp\ccsGRYiA.s:20435  .debug_str:000000000000273c .LASF1679
C:\Users\CYMR90~1\AppData\Local\Temp\ccsGRYiA.s:23953  .debug_str:0000000000010910 .LASF1680
C:\Users\CYMR90~1\AppData\Local\Temp\ccsGRYiA.s:25133  .debug_str:000000000001554d .LASF1681
C:\Users\CYMR90~1\AppData\Local\Temp\ccsGRYiA.s:23803  .debug_str:000000000000ff49 .LASF1682
C:\Users\CYMR90~1\AppData\Local\Temp\ccsGRYiA.s:26480  .debug_str:000000000001aeaf .LASF1683
C:\Users\CYMR90~1\AppData\Local\Temp\ccsGRYiA.s:28542  .debug_str:0000000000022eb0 .LASF1684
C:\Users\CYMR90~1\AppData\Local\Temp\ccsGRYiA.s:29450  .debug_str:0000000000026a20 .LASF1685
C:\Users\CYMR90~1\AppData\Local\Temp\ccsGRYiA.s:23951  .debug_str:00000000000108f8 .LASF1686
C:\Users\CYMR90~1\AppData\Local\Temp\ccsGRYiA.s:27862  .debug_str:0000000000020591 .LASF1687
C:\Users\CYMR90~1\AppData\Local\Temp\ccsGRYiA.s:30160  .debug_str:0000000000029827 .LASF1688
C:\Users\CYMR90~1\AppData\Local\Temp\ccsGRYiA.s:28722  .debug_str:00000000000239a3 .LASF1689
C:\Users\CYMR90~1\AppData\Local\Temp\ccsGRYiA.s:26602  .debug_str:000000000001b69e .LASF1690
C:\Users\CYMR90~1\AppData\Local\Temp\ccsGRYiA.s:24691  .debug_str:00000000000139f5 .LASF1691
C:\Users\CYMR90~1\AppData\Local\Temp\ccsGRYiA.s:28272  .debug_str:0000000000021ea3 .LASF1692
C:\Users\CYMR90~1\AppData\Local\Temp\ccsGRYiA.s:25924  .debug_str:000000000001888c .LASF1693
C:\Users\CYMR90~1\AppData\Local\Temp\ccsGRYiA.s:21841  .debug_str:00000000000081f6 .LASF1694
C:\Users\CYMR90~1\AppData\Local\Temp\ccsGRYiA.s:23873  .debug_str:0000000000010388 .LASF1695
C:\Users\CYMR90~1\AppData\Local\Temp\ccsGRYiA.s:25702  .debug_str:0000000000017b4c .LASF1696
C:\Users\CYMR90~1\AppData\Local\Temp\ccsGRYiA.s:25011  .debug_str:0000000000014d90 .LASF1697
C:\Users\CYMR90~1\AppData\Local\Temp\ccsGRYiA.s:27524  .debug_str:000000000001f0fb .LASF1698
C:\Users\CYMR90~1\AppData\Local\Temp\ccsGRYiA.s:26094  .debug_str:00000000000194bd .LASF1699
C:\Users\CYMR90~1\AppData\Local\Temp\ccsGRYiA.s:27980  .debug_str:0000000000020cc2 .LASF1700
C:\Users\CYMR90~1\AppData\Local\Temp\ccsGRYiA.s:27520  .debug_str:000000000001f0be .LASF1701
C:\Users\CYMR90~1\AppData\Local\Temp\ccsGRYiA.s:28766  .debug_str:0000000000023c06 .LASF1702
C:\Users\CYMR90~1\AppData\Local\Temp\ccsGRYiA.s:28728  .debug_str:00000000000239f2 .LASF1703
C:\Users\CYMR90~1\AppData\Local\Temp\ccsGRYiA.s:28262  .debug_str:0000000000021e09 .LASF1704
C:\Users\CYMR90~1\AppData\Local\Temp\ccsGRYiA.s:26728  .debug_str:000000000001be3c .LASF1705
C:\Users\CYMR90~1\AppData\Local\Temp\ccsGRYiA.s:28124  .debug_str:0000000000021569 .LASF1706
C:\Users\CYMR90~1\AppData\Local\Temp\ccsGRYiA.s:25610  .debug_str:000000000001753f .LASF1707
C:\Users\CYMR90~1\AppData\Local\Temp\ccsGRYiA.s:24605  .debug_str:0000000000013493 .LASF1708
C:\Users\CYMR90~1\AppData\Local\Temp\ccsGRYiA.s:27278  .debug_str:000000000001e230 .LASF1709
C:\Users\CYMR90~1\AppData\Local\Temp\ccsGRYiA.s:25842  .debug_str:00000000000183a4 .LASF1710
C:\Users\CYMR90~1\AppData\Local\Temp\ccsGRYiA.s:22747  .debug_str:000000000000bbbe .LASF1711
C:\Users\CYMR90~1\AppData\Local\Temp\ccsGRYiA.s:24237  .debug_str:0000000000011bb8 .LASF1712
C:\Users\CYMR90~1\AppData\Local\Temp\ccsGRYiA.s:21379  .debug_str:0000000000006373 .LASF1713
C:\Users\CYMR90~1\AppData\Local\Temp\ccsGRYiA.s:23721  .debug_str:000000000000f9f1 .LASF1714
C:\Users\CYMR90~1\AppData\Local\Temp\ccsGRYiA.s:27094  .debug_str:000000000001d6c3 .LASF1715
C:\Users\CYMR90~1\AppData\Local\Temp\ccsGRYiA.s:23949  .debug_str:00000000000108cc .LASF1716
C:\Users\CYMR90~1\AppData\Local\Temp\ccsGRYiA.s:27248  .debug_str:000000000001e038 .LASF1717
C:\Users\CYMR90~1\AppData\Local\Temp\ccsGRYiA.s:25806  .debug_str:0000000000018171 .LASF1718
C:\Users\CYMR90~1\AppData\Local\Temp\ccsGRYiA.s:24179  .debug_str:0000000000011705 .LASF1719
C:\Users\CYMR90~1\AppData\Local\Temp\ccsGRYiA.s:26160  .debug_str:00000000000198bf .LASF1720
C:\Users\CYMR90~1\AppData\Local\Temp\ccsGRYiA.s:24683  .debug_str:0000000000013972 .LASF1721
C:\Users\CYMR90~1\AppData\Local\Temp\ccsGRYiA.s:20363  .debug_str:00000000000022ea .LASF1722
C:\Users\CYMR90~1\AppData\Local\Temp\ccsGRYiA.s:26488  .debug_str:000000000001af49 .LASF1723
C:\Users\CYMR90~1\AppData\Local\Temp\ccsGRYiA.s:20427  .debug_str:00000000000026c6 .LASF1724
C:\Users\CYMR90~1\AppData\Local\Temp\ccsGRYiA.s:25201  .debug_str:00000000000158f1 .LASF1725
C:\Users\CYMR90~1\AppData\Local\Temp\ccsGRYiA.s:29962  .debug_str:0000000000028bfa .LASF1726
C:\Users\CYMR90~1\AppData\Local\Temp\ccsGRYiA.s:21267  .debug_str:0000000000005c6e .LASF1727
C:\Users\CYMR90~1\AppData\Local\Temp\ccsGRYiA.s:29606  .debug_str:0000000000027409 .LASF1728
C:\Users\CYMR90~1\AppData\Local\Temp\ccsGRYiA.s:26938  .debug_str:000000000001cbb7 .LASF1729
C:\Users\CYMR90~1\AppData\Local\Temp\ccsGRYiA.s:30748  .debug_str:000000000002bce3 .LASF1730
C:\Users\CYMR90~1\AppData\Local\Temp\ccsGRYiA.s:29436  .debug_str:000000000002695a .LASF1731
C:\Users\CYMR90~1\AppData\Local\Temp\ccsGRYiA.s:24117  .debug_str:00000000000112e7 .LASF1732
C:\Users\CYMR90~1\AppData\Local\Temp\ccsGRYiA.s:22149  .debug_str:00000000000094be .LASF1733
C:\Users\CYMR90~1\AppData\Local\Temp\ccsGRYiA.s:20131  .debug_str:00000000000014b5 .LASF1734
C:\Users\CYMR90~1\AppData\Local\Temp\ccsGRYiA.s:25568  .debug_str:00000000000172e9 .LASF1735
C:\Users\CYMR90~1\AppData\Local\Temp\ccsGRYiA.s:27692  .debug_str:000000000001fb25 .LASF1736
C:\Users\CYMR90~1\AppData\Local\Temp\ccsGRYiA.s:22141  .debug_str:0000000000009448 .LASF1737
C:\Users\CYMR90~1\AppData\Local\Temp\ccsGRYiA.s:21861  .debug_str:0000000000008346 .LASF1738
C:\Users\CYMR90~1\AppData\Local\Temp\ccsGRYiA.s:29446  .debug_str:00000000000269f1 .LASF1739
C:\Users\CYMR90~1\AppData\Local\Temp\ccsGRYiA.s:23479  .debug_str:000000000000eb29 .LASF1740
C:\Users\CYMR90~1\AppData\Local\Temp\ccsGRYiA.s:22483  .debug_str:000000000000a9d6 .LASF1741
C:\Users\CYMR90~1\AppData\Local\Temp\ccsGRYiA.s:27546  .debug_str:000000000001f242 .LASF1742
C:\Users\CYMR90~1\AppData\Local\Temp\ccsGRYiA.s:27208  .debug_str:000000000001ddc8 .LASF1743
C:\Users\CYMR90~1\AppData\Local\Temp\ccsGRYiA.s:29718  .debug_str:0000000000027b29 .LASF1744
C:\Users\CYMR90~1\AppData\Local\Temp\ccsGRYiA.s:21867  .debug_str:00000000000083b8 .LASF1745
C:\Users\CYMR90~1\AppData\Local\Temp\ccsGRYiA.s:23775  .debug_str:000000000000fd5b .LASF1746
C:\Users\CYMR90~1\AppData\Local\Temp\ccsGRYiA.s:28770  .debug_str:0000000000023c4c .LASF1747
C:\Users\CYMR90~1\AppData\Local\Temp\ccsGRYiA.s:28378  .debug_str:00000000000224b0 .LASF1748
C:\Users\CYMR90~1\AppData\Local\Temp\ccsGRYiA.s:23945  .debug_str:0000000000010886 .LASF1749
C:\Users\CYMR90~1\AppData\Local\Temp\ccsGRYiA.s:22639  .debug_str:000000000000b4c4 .LASF1750
C:\Users\CYMR90~1\AppData\Local\Temp\ccsGRYiA.s:25738  .debug_str:0000000000017d4a .LASF1751
C:\Users\CYMR90~1\AppData\Local\Temp\ccsGRYiA.s:21015  .debug_str:0000000000004d27 .LASF1752
C:\Users\CYMR90~1\AppData\Local\Temp\ccsGRYiA.s:26464  .debug_str:000000000001adb7 .LASF1753
C:\Users\CYMR90~1\AppData\Local\Temp\ccsGRYiA.s:26360  .debug_str:000000000001a6aa .LASF1754
C:\Users\CYMR90~1\AppData\Local\Temp\ccsGRYiA.s:20547  .debug_str:0000000000002e3d .LASF1755
C:\Users\CYMR90~1\AppData\Local\Temp\ccsGRYiA.s:24493  .debug_str:0000000000012cc1 .LASF1756
C:\Users\CYMR90~1\AppData\Local\Temp\ccsGRYiA.s:26556  .debug_str:000000000001b3f5 .LASF1757
C:\Users\CYMR90~1\AppData\Local\Temp\ccsGRYiA.s:23577  .debug_str:000000000000f0a3 .LASF1758
C:\Users\CYMR90~1\AppData\Local\Temp\ccsGRYiA.s:21679  .debug_str:0000000000007679 .LASF1759
C:\Users\CYMR90~1\AppData\Local\Temp\ccsGRYiA.s:26304  .debug_str:000000000001a1c2 .LASF1760
C:\Users\CYMR90~1\AppData\Local\Temp\ccsGRYiA.s:21971  .debug_str:0000000000008a1a .LASF1761
C:\Users\CYMR90~1\AppData\Local\Temp\ccsGRYiA.s:20195  .debug_str:0000000000001926 .LASF1762
C:\Users\CYMR90~1\AppData\Local\Temp\ccsGRYiA.s:28962  .debug_str:00000000000249cf .LASF1763
C:\Users\CYMR90~1\AppData\Local\Temp\ccsGRYiA.s:21707  .debug_str:0000000000007854 .LASF1764
C:\Users\CYMR90~1\AppData\Local\Temp\ccsGRYiA.s:21395  .debug_str:0000000000006474 .LASF1765
C:\Users\CYMR90~1\AppData\Local\Temp\ccsGRYiA.s:20175  .debug_str:00000000000017bf .LASF1766
C:\Users\CYMR90~1\AppData\Local\Temp\ccsGRYiA.s:26670  .debug_str:000000000001ba81 .LASF1767
C:\Users\CYMR90~1\AppData\Local\Temp\ccsGRYiA.s:20235  .debug_str:0000000000001b82 .LASF1768
C:\Users\CYMR90~1\AppData\Local\Temp\ccsGRYiA.s:29152  .debug_str:00000000000257b7 .LASF1769
C:\Users\CYMR90~1\AppData\Local\Temp\ccsGRYiA.s:30822  .debug_str:000000000002c20f .LASF1770
C:\Users\CYMR90~1\AppData\Local\Temp\ccsGRYiA.s:22797  .debug_str:000000000000bf45 .LASF1771
C:\Users\CYMR90~1\AppData\Local\Temp\ccsGRYiA.s:22389  .debug_str:000000000000a43f .LASF1772
C:\Users\CYMR90~1\AppData\Local\Temp\ccsGRYiA.s:19911  .debug_str:00000000000006f2 .LASF1773
C:\Users\CYMR90~1\AppData\Local\Temp\ccsGRYiA.s:19959  .debug_str:00000000000009da .LASF1774
C:\Users\CYMR90~1\AppData\Local\Temp\ccsGRYiA.s:29868  .debug_str:0000000000028600 .LASF1775
C:\Users\CYMR90~1\AppData\Local\Temp\ccsGRYiA.s:24905  .debug_str:000000000001470e .LASF1776
C:\Users\CYMR90~1\AppData\Local\Temp\ccsGRYiA.s:23657  .debug_str:000000000000f5a8 .LASF1777
C:\Users\CYMR90~1\AppData\Local\Temp\ccsGRYiA.s:25730  .debug_str:0000000000017ce5 .LASF1778
C:\Users\CYMR90~1\AppData\Local\Temp\ccsGRYiA.s:21109  .debug_str:00000000000052e6 .LASF1779
C:\Users\CYMR90~1\AppData\Local\Temp\ccsGRYiA.s:29190  .debug_str:0000000000025a26 .LASF1780
C:\Users\CYMR90~1\AppData\Local\Temp\ccsGRYiA.s:28412  .debug_str:00000000000226db .LASF1781
C:\Users\CYMR90~1\AppData\Local\Temp\ccsGRYiA.s:26948  .debug_str:000000000001cc60 .LASF1784
C:\Users\CYMR90~1\AppData\Local\Temp\ccsGRYiA.s:26106  .debug_str:0000000000019575 .LASF1785
C:\Users\CYMR90~1\AppData\Local\Temp\ccsGRYiA.s:25956  .debug_str:0000000000018a7f .LASF1786
C:\Users\CYMR90~1\AppData\Local\Temp\ccsGRYiA.s:24949  .debug_str:00000000000149ab .LASF1787
C:\Users\CYMR90~1\AppData\Local\Temp\ccsGRYiA.s:30286  .debug_str:0000000000029fa4 .LASF1788
C:\Users\CYMR90~1\AppData\Local\Temp\ccsGRYiA.s:30590  .debug_str:000000000002b20d .LASF1789
C:\Users\CYMR90~1\AppData\Local\Temp\ccsGRYiA.s:20693  .debug_str:00000000000037df .LASF1790
C:\Users\CYMR90~1\AppData\Local\Temp\ccsGRYiA.s:19825  .debug_str:00000000000001e7 .LASF1791
C:\Users\CYMR90~1\AppData\Local\Temp\ccsGRYiA.s:29526  .debug_str:0000000000026ec6 .LASF1792
C:\Users\CYMR90~1\AppData\Local\Temp\ccsGRYiA.s:28622  .debug_str:000000000002332d .LASF1793
C:\Users\CYMR90~1\AppData\Local\Temp\ccsGRYiA.s:30474  .debug_str:000000000002aaeb .LASF1794
C:\Users\CYMR90~1\AppData\Local\Temp\ccsGRYiA.s:29798  .debug_str:000000000002814a .LASF1795
C:\Users\CYMR90~1\AppData\Local\Temp\ccsGRYiA.s:24617  .debug_str:0000000000013534 .LASF1796
C:\Users\CYMR90~1\AppData\Local\Temp\ccsGRYiA.s:24893  .debug_str:000000000001460f .LASF1797
C:\Users\CYMR90~1\AppData\Local\Temp\ccsGRYiA.s:24007  .debug_str:0000000000010cfe .LASF1798
C:\Users\CYMR90~1\AppData\Local\Temp\ccsGRYiA.s:22823  .debug_str:000000000000c105 .LASF1799
C:\Users\CYMR90~1\AppData\Local\Temp\ccsGRYiA.s:25642  .debug_str:0000000000017755 .LASF1800
C:\Users\CYMR90~1\AppData\Local\Temp\ccsGRYiA.s:25948  .debug_str:0000000000018a30 .LASF1801
C:\Users\CYMR90~1\AppData\Local\Temp\ccsGRYiA.s:25033  .debug_str:0000000000014f30 .LASF1802
C:\Users\CYMR90~1\AppData\Local\Temp\ccsGRYiA.s:24065  .debug_str:0000000000010ff5 .LASF1803
C:\Users\CYMR90~1\AppData\Local\Temp\ccsGRYiA.s:23555  .debug_str:000000000000ef6e .LASF1804
C:\Users\CYMR90~1\AppData\Local\Temp\ccsGRYiA.s:28208  .debug_str:0000000000021a9e .LASF1805
C:\Users\CYMR90~1\AppData\Local\Temp\ccsGRYiA.s:24915  .debug_str:00000000000147c6 .LASF1806
C:\Users\CYMR90~1\AppData\Local\Temp\ccsGRYiA.s:27808  .debug_str:00000000000201fe .LASF1807
C:\Users\CYMR90~1\AppData\Local\Temp\ccsGRYiA.s:25057  .debug_str:00000000000150c6 .LASF1808
C:\Users\CYMR90~1\AppData\Local\Temp\ccsGRYiA.s:29790  .debug_str:0000000000028038 .LASF1809
C:\Users\CYMR90~1\AppData\Local\Temp\ccsGRYiA.s:27042  .debug_str:000000000001d37b .LASF1810
C:\Users\CYMR90~1\AppData\Local\Temp\ccsGRYiA.s:25744  .debug_str:0000000000017dbf .LASF1811
C:\Users\CYMR90~1\AppData\Local\Temp\ccsGRYiA.s:20151  .debug_str:00000000000015d2 .LASF1812
C:\Users\CYMR90~1\AppData\Local\Temp\ccsGRYiA.s:23959  .debug_str:0000000000010956 .LASF1813
C:\Users\CYMR90~1\AppData\Local\Temp\ccsGRYiA.s:24221  .debug_str:0000000000011ad7 .LASF1814
C:\Users\CYMR90~1\AppData\Local\Temp\ccsGRYiA.s:27022  .debug_str:000000000001d260 .LASF1815
C:\Users\CYMR90~1\AppData\Local\Temp\ccsGRYiA.s:25708  .debug_str:0000000000017bbe .LASF1816
C:\Users\CYMR90~1\AppData\Local\Temp\ccsGRYiA.s:27030  .debug_str:000000000001d2de .LASF1817
C:\Users\CYMR90~1\AppData\Local\Temp\ccsGRYiA.s:27470  .debug_str:000000000001ed8f .LASF1818
C:\Users\CYMR90~1\AppData\Local\Temp\ccsGRYiA.s:23773  .debug_str:000000000000fd46 .LASF1819
C:\Users\CYMR90~1\AppData\Local\Temp\ccsGRYiA.s:27950  .debug_str:0000000000020adc .LASF1820
C:\Users\CYMR90~1\AppData\Local\Temp\ccsGRYiA.s:21421  .debug_str:00000000000065e7 .LASF1821
C:\Users\CYMR90~1\AppData\Local\Temp\ccsGRYiA.s:21801  .debug_str:0000000000007ee0 .LASF1822
C:\Users\CYMR90~1\AppData\Local\Temp\ccsGRYiA.s:27402  .debug_str:000000000001e9d2 .LASF1823
C:\Users\CYMR90~1\AppData\Local\Temp\ccsGRYiA.s:30070  .debug_str:000000000002928d .LASF1824
C:\Users\CYMR90~1\AppData\Local\Temp\ccsGRYiA.s:22701  .debug_str:000000000000b91b .LASF1825
C:\Users\CYMR90~1\AppData\Local\Temp\ccsGRYiA.s:28046  .debug_str:0000000000021052 .LASF1826
C:\Users\CYMR90~1\AppData\Local\Temp\ccsGRYiA.s:30412  .debug_str:000000000002a740 .LASF1827
C:\Users\CYMR90~1\AppData\Local\Temp\ccsGRYiA.s:23523  .debug_str:000000000000eda6 .LASF1828
C:\Users\CYMR90~1\AppData\Local\Temp\ccsGRYiA.s:23597  .debug_str:000000000000f218 .LASF1829
C:\Users\CYMR90~1\AppData\Local\Temp\ccsGRYiA.s:24365  .debug_str:0000000000012465 .LASF1830
C:\Users\CYMR90~1\AppData\Local\Temp\ccsGRYiA.s:22171  .debug_str:0000000000009655 .LASF1831
C:\Users\CYMR90~1\AppData\Local\Temp\ccsGRYiA.s:29474  .debug_str:0000000000026b68 .LASF1832
C:\Users\CYMR90~1\AppData\Local\Temp\ccsGRYiA.s:22961  .debug_str:000000000000cab8 .LASF1833
C:\Users\CYMR90~1\AppData\Local\Temp\ccsGRYiA.s:21623  .debug_str:000000000000732d .LASF1834
C:\Users\CYMR90~1\AppData\Local\Temp\ccsGRYiA.s:25349  .debug_str:00000000000162c4 .LASF1835
C:\Users\CYMR90~1\AppData\Local\Temp\ccsGRYiA.s:29340  .debug_str:0000000000026328 .LASF1836
C:\Users\CYMR90~1\AppData\Local\Temp\ccsGRYiA.s:25319  .debug_str:0000000000016105 .LASF1837
C:\Users\CYMR90~1\AppData\Local\Temp\ccsGRYiA.s:26032  .debug_str:000000000001901b .LASF1838
C:\Users\CYMR90~1\AppData\Local\Temp\ccsGRYiA.s:24011  .debug_str:0000000000010d36 .LASF1839
C:\Users\CYMR90~1\AppData\Local\Temp\ccsGRYiA.s:26978  .debug_str:000000000001cef8 .LASF1840
C:\Users\CYMR90~1\AppData\Local\Temp\ccsGRYiA.s:26266  .debug_str:0000000000019f92 .LASF1841
C:\Users\CYMR90~1\AppData\Local\Temp\ccsGRYiA.s:29038  .debug_str:0000000000024ec0 .LASF1842
C:\Users\CYMR90~1\AppData\Local\Temp\ccsGRYiA.s:29426  .debug_str:00000000000268b9 .LASF1843
C:\Users\CYMR90~1\AppData\Local\Temp\ccsGRYiA.s:30608  .debug_str:000000000002b35a .LASF1844
C:\Users\CYMR90~1\AppData\Local\Temp\ccsGRYiA.s:30468  .debug_str:000000000002aa98 .LASF1845
C:\Users\CYMR90~1\AppData\Local\Temp\ccsGRYiA.s:21903  .debug_str:0000000000008607 .LASF1846
C:\Users\CYMR90~1\AppData\Local\Temp\ccsGRYiA.s:27182  .debug_str:000000000001dc36 .LASF1847
C:\Users\CYMR90~1\AppData\Local\Temp\ccsGRYiA.s:28314  .debug_str:000000000002210c .LASF1848
C:\Users\CYMR90~1\AppData\Local\Temp\ccsGRYiA.s:28330  .debug_str:0000000000022218 .LASF1849
C:\Users\CYMR90~1\AppData\Local\Temp\ccsGRYiA.s:27556  .debug_str:000000000001f2e0 .LASF1850
C:\Users\CYMR90~1\AppData\Local\Temp\ccsGRYiA.s:21963  .debug_str:0000000000008997 .LASF1851
C:\Users\CYMR90~1\AppData\Local\Temp\ccsGRYiA.s:29382  .debug_str:0000000000026603 .LASF1852
C:\Users\CYMR90~1\AppData\Local\Temp\ccsGRYiA.s:23205  .debug_str:000000000000da33 .LASF1853
C:\Users\CYMR90~1\AppData\Local\Temp\ccsGRYiA.s:20605  .debug_str:000000000000321a .LASF1854
C:\Users\CYMR90~1\AppData\Local\Temp\ccsGRYiA.s:27062  .debug_str:000000000001d4c0 .LASF1855
C:\Users\CYMR90~1\AppData\Local\Temp\ccsGRYiA.s:29644  .debug_str:0000000000027631 .LASF1856
C:\Users\CYMR90~1\AppData\Local\Temp\ccsGRYiA.s:22047  .debug_str:0000000000008f03 .LASF1857
C:\Users\CYMR90~1\AppData\Local\Temp\ccsGRYiA.s:22887  .debug_str:000000000000c507 .LASF1858
C:\Users\CYMR90~1\AppData\Local\Temp\ccsGRYiA.s:29738  .debug_str:0000000000027c8f .LASF1859
C:\Users\CYMR90~1\AppData\Local\Temp\ccsGRYiA.s:25063  .debug_str:0000000000015127 .LASF1860
C:\Users\CYMR90~1\AppData\Local\Temp\ccsGRYiA.s:25978  .debug_str:0000000000018c73 .LASF1861
C:\Users\CYMR90~1\AppData\Local\Temp\ccsGRYiA.s:23821  .debug_str:0000000000010041 .LASF1862
C:\Users\CYMR90~1\AppData\Local\Temp\ccsGRYiA.s:21573  .debug_str:0000000000006f71 .LASF1863
C:\Users\CYMR90~1\AppData\Local\Temp\ccsGRYiA.s:25892  .debug_str:000000000001868c .LASF1864
C:\Users\CYMR90~1\AppData\Local\Temp\ccsGRYiA.s:21215  .debug_str:0000000000005943 .LASF1865
C:\Users\CYMR90~1\AppData\Local\Temp\ccsGRYiA.s:28514  .debug_str:0000000000022d13 .LASF1866
C:\Users\CYMR90~1\AppData\Local\Temp\ccsGRYiA.s:27738  .debug_str:000000000001fe19 .LASF1867
C:\Users\CYMR90~1\AppData\Local\Temp\ccsGRYiA.s:22821  .debug_str:000000000000c0d5 .LASF1868
C:\Users\CYMR90~1\AppData\Local\Temp\ccsGRYiA.s:19939  .debug_str:00000000000008ac .LASF1869
C:\Users\CYMR90~1\AppData\Local\Temp\ccsGRYiA.s:21883  .debug_str:00000000000084c0 .LASF1870
C:\Users\CYMR90~1\AppData\Local\Temp\ccsGRYiA.s:30020  .debug_str:0000000000028f8d .LASF1871
C:\Users\CYMR90~1\AppData\Local\Temp\ccsGRYiA.s:29130  .debug_str:00000000000255d5 .LASF1872
C:\Users\CYMR90~1\AppData\Local\Temp\ccsGRYiA.s:25191  .debug_str:0000000000015852 .LASF1873
C:\Users\CYMR90~1\AppData\Local\Temp\ccsGRYiA.s:21745  .debug_str:0000000000007ae9 .LASF1874
C:\Users\CYMR90~1\AppData\Local\Temp\ccsGRYiA.s:22619  .debug_str:000000000000b2f6 .LASF1875
C:\Users\CYMR90~1\AppData\Local\Temp\ccsGRYiA.s:30194  .debug_str:0000000000029a37 .LASF1876
C:\Users\CYMR90~1\AppData\Local\Temp\ccsGRYiA.s:26498  .debug_str:000000000001b041 .LASF1877
C:\Users\CYMR90~1\AppData\Local\Temp\ccsGRYiA.s:27240  .debug_str:000000000001dfd1 .LASF1878
C:\Users\CYMR90~1\AppData\Local\Temp\ccsGRYiA.s:23661  .debug_str:000000000000f5e1 .LASF1879
C:\Users\CYMR90~1\AppData\Local\Temp\ccsGRYiA.s:22007  .debug_str:0000000000008c4c .LASF1880
C:\Users\CYMR90~1\AppData\Local\Temp\ccsGRYiA.s:27536  .debug_str:000000000001f1a3 .LASF1881
C:\Users\CYMR90~1\AppData\Local\Temp\ccsGRYiA.s:20049  .debug_str:0000000000000fd6 .LASF1882
C:\Users\CYMR90~1\AppData\Local\Temp\ccsGRYiA.s:27940  .debug_str:0000000000020a1a .LASF1883
C:\Users\CYMR90~1\AppData\Local\Temp\ccsGRYiA.s:30604  .debug_str:000000000002b312 .LASF1884
C:\Users\CYMR90~1\AppData\Local\Temp\ccsGRYiA.s:27644  .debug_str:000000000001f816 .LASF1885
C:\Users\CYMR90~1\AppData\Local\Temp\ccsGRYiA.s:29754  .debug_str:0000000000027d8f .LASF1886
C:\Users\CYMR90~1\AppData\Local\Temp\ccsGRYiA.s:22225  .debug_str:00000000000099f2 .LASF1887
C:\Users\CYMR90~1\AppData\Local\Temp\ccsGRYiA.s:22037  .debug_str:0000000000008e5a .LASF1888
C:\Users\CYMR90~1\AppData\Local\Temp\ccsGRYiA.s:30638  .debug_str:000000000002b539 .LASF1889
C:\Users\CYMR90~1\AppData\Local\Temp\ccsGRYiA.s:26122  .debug_str:0000000000019634 .LASF1890
C:\Users\CYMR90~1\AppData\Local\Temp\ccsGRYiA.s:22217  .debug_str:000000000000994c .LASF1891
C:\Users\CYMR90~1\AppData\Local\Temp\ccsGRYiA.s:22309  .debug_str:0000000000009f29 .LASF1892
C:\Users\CYMR90~1\AppData\Local\Temp\ccsGRYiA.s:26868  .debug_str:000000000001c6a6 .LASF1893
C:\Users\CYMR90~1\AppData\Local\Temp\ccsGRYiA.s:22031  .debug_str:0000000000008dee .LASF1894
C:\Users\CYMR90~1\AppData\Local\Temp\ccsGRYiA.s:23275  .debug_str:000000000000de62 .LASF1895
C:\Users\CYMR90~1\AppData\Local\Temp\ccsGRYiA.s:25578  .debug_str:000000000001737d .LASF1896
C:\Users\CYMR90~1\AppData\Local\Temp\ccsGRYiA.s:20253  .debug_str:0000000000001c98 .LASF1897
C:\Users\CYMR90~1\AppData\Local\Temp\ccsGRYiA.s:29496  .debug_str:0000000000026cf9 .LASF1898
C:\Users\CYMR90~1\AppData\Local\Temp\ccsGRYiA.s:26366  .debug_str:000000000001a71c .LASF1899
C:\Users\CYMR90~1\AppData\Local\Temp\ccsGRYiA.s:23093  .debug_str:000000000000d38b .LASF1900
C:\Users\CYMR90~1\AppData\Local\Temp\ccsGRYiA.s:19859  .debug_str:00000000000003f1 .LASF1901
C:\Users\CYMR90~1\AppData\Local\Temp\ccsGRYiA.s:20679  .debug_str:00000000000036cf .LASF1902
C:\Users\CYMR90~1\AppData\Local\Temp\ccsGRYiA.s:22725  .debug_str:000000000000ba45 .LASF1903
C:\Users\CYMR90~1\AppData\Local\Temp\ccsGRYiA.s:30886  .debug_str:000000000002c5e0 .LASF1904
C:\Users\CYMR90~1\AppData\Local\Temp\ccsGRYiA.s:25451  .debug_str:00000000000169a7 .LASF1905
C:\Users\CYMR90~1\AppData\Local\Temp\ccsGRYiA.s:22187  .debug_str:0000000000009710 .LASF1906
C:\Users\CYMR90~1\AppData\Local\Temp\ccsGRYiA.s:29832  .debug_str:000000000002835e .LASF1907
C:\Users\CYMR90~1\AppData\Local\Temp\ccsGRYiA.s:26906  .debug_str:000000000001c9d4 .LASF1908
C:\Users\CYMR90~1\AppData\Local\Temp\ccsGRYiA.s:21201  .debug_str:0000000000005875 .LASF1909
C:\Users\CYMR90~1\AppData\Local\Temp\ccsGRYiA.s:30186  .debug_str:00000000000299ba .LASF1910
C:\Users\CYMR90~1\AppData\Local\Temp\ccsGRYiA.s:26544  .debug_str:000000000001b33d .LASF1911
C:\Users\CYMR90~1\AppData\Local\Temp\ccsGRYiA.s:26224  .debug_str:0000000000019d2e .LASF1912
C:\Users\CYMR90~1\AppData\Local\Temp\ccsGRYiA.s:22637  .debug_str:000000000000b4a5 .LASF1913
C:\Users\CYMR90~1\AppData\Local\Temp\ccsGRYiA.s:22479  .debug_str:000000000000a97e .LASF1914
C:\Users\CYMR90~1\AppData\Local\Temp\ccsGRYiA.s:27840  .debug_str:00000000000203da .LASF1915
C:\Users\CYMR90~1\AppData\Local\Temp\ccsGRYiA.s:29106  .debug_str:0000000000025404 .LASF1916
C:\Users\CYMR90~1\AppData\Local\Temp\ccsGRYiA.s:25742  .debug_str:0000000000017d93 .LASF1917
C:\Users\CYMR90~1\AppData\Local\Temp\ccsGRYiA.s:22383  .debug_str:000000000000a3da .LASF1918
C:\Users\CYMR90~1\AppData\Local\Temp\ccsGRYiA.s:30238  .debug_str:0000000000029cc7 .LASF1919
C:\Users\CYMR90~1\AppData\Local\Temp\ccsGRYiA.s:26878  .debug_str:000000000001c754 .LASF1920
C:\Users\CYMR90~1\AppData\Local\Temp\ccsGRYiA.s:23055  .debug_str:000000000000d071 .LASF1921
C:\Users\CYMR90~1\AppData\Local\Temp\ccsGRYiA.s:21595  .debug_str:00000000000070f9 .LASF1922
C:\Users\CYMR90~1\AppData\Local\Temp\ccsGRYiA.s:27910  .debug_str:000000000002086b .LASF1923
C:\Users\CYMR90~1\AppData\Local\Temp\ccsGRYiA.s:29974  .debug_str:0000000000028cb7 .LASF1924
C:\Users\CYMR90~1\AppData\Local\Temp\ccsGRYiA.s:22499  .debug_str:000000000000aae9 .LASF1925
C:\Users\CYMR90~1\AppData\Local\Temp\ccsGRYiA.s:27734  .debug_str:000000000001fdc5 .LASF1926
C:\Users\CYMR90~1\AppData\Local\Temp\ccsGRYiA.s:26776  .debug_str:000000000001c134 .LASF1927
C:\Users\CYMR90~1\AppData\Local\Temp\ccsGRYiA.s:24143  .debug_str:00000000000114a4 .LASF1928
C:\Users\CYMR90~1\AppData\Local\Temp\ccsGRYiA.s:21645  .debug_str:000000000000745e .LASF1929
C:\Users\CYMR90~1\AppData\Local\Temp\ccsGRYiA.s:27660  .debug_str:000000000001f910 .LASF1930
C:\Users\CYMR90~1\AppData\Local\Temp\ccsGRYiA.s:30916  .debug_str:000000000002c800 .LASF1931
C:\Users\CYMR90~1\AppData\Local\Temp\ccsGRYiA.s:30596  .debug_str:000000000002b27b .LASF1932
C:\Users\CYMR90~1\AppData\Local\Temp\ccsGRYiA.s:21757  .debug_str:0000000000007b84 .LASF1933
C:\Users\CYMR90~1\AppData\Local\Temp\ccsGRYiA.s:22801  .debug_str:000000000000bfa0 .LASF1934
C:\Users\CYMR90~1\AppData\Local\Temp\ccsGRYiA.s:26850  .debug_str:000000000001c575 .LASF1935
C:\Users\CYMR90~1\AppData\Local\Temp\ccsGRYiA.s:21245  .debug_str:0000000000005b20 .LASF1936
C:\Users\CYMR90~1\AppData\Local\Temp\ccsGRYiA.s:26714  .debug_str:000000000001bd3f .LASF1937
C:\Users\CYMR90~1\AppData\Local\Temp\ccsGRYiA.s:25690  .debug_str:0000000000017aa1 .LASF1938
C:\Users\CYMR90~1\AppData\Local\Temp\ccsGRYiA.s:25013  .debug_str:0000000000014dbc .LASF1939
C:\Users\CYMR90~1\AppData\Local\Temp\ccsGRYiA.s:21949  .debug_str:00000000000088aa .LASF1940
C:\Users\CYMR90~1\AppData\Local\Temp\ccsGRYiA.s:30038  .debug_str:00000000000290ca .LASF1941
C:\Users\CYMR90~1\AppData\Local\Temp\ccsGRYiA.s:26960  .debug_str:000000000001cd26 .LASF1942
C:\Users\CYMR90~1\AppData\Local\Temp\ccsGRYiA.s:22859  .debug_str:000000000000c339 .LASF1943
C:\Users\CYMR90~1\AppData\Local\Temp\ccsGRYiA.s:23993  .debug_str:0000000000010bb0 .LASF1944
C:\Users\CYMR90~1\AppData\Local\Temp\ccsGRYiA.s:27772  .debug_str:000000000002002b .LASF1945
C:\Users\CYMR90~1\AppData\Local\Temp\ccsGRYiA.s:24725  .debug_str:0000000000013bda .LASF1946
C:\Users\CYMR90~1\AppData\Local\Temp\ccsGRYiA.s:21539  .debug_str:0000000000006d5b .LASF1947
C:\Users\CYMR90~1\AppData\Local\Temp\ccsGRYiA.s:20457  .debug_str:00000000000028e5 .LASF1948
C:\Users\CYMR90~1\AppData\Local\Temp\ccsGRYiA.s:26598  .debug_str:000000000001b65c .LASF1949
C:\Users\CYMR90~1\AppData\Local\Temp\ccsGRYiA.s:23543  .debug_str:000000000000eeb1 .LASF1950
C:\Users\CYMR90~1\AppData\Local\Temp\ccsGRYiA.s:20327  .debug_str:00000000000020ce .LASF1951
C:\Users\CYMR90~1\AppData\Local\Temp\ccsGRYiA.s:28530  .debug_str:0000000000022de6 .LASF1952
C:\Users\CYMR90~1\AppData\Local\Temp\ccsGRYiA.s:29238  .debug_str:0000000000025d09 .LASF1953
C:\Users\CYMR90~1\AppData\Local\Temp\ccsGRYiA.s:24851  .debug_str:00000000000143ad .LASF1954
C:\Users\CYMR90~1\AppData\Local\Temp\ccsGRYiA.s:28060  .debug_str:0000000000021127 .LASF1955
C:\Users\CYMR90~1\AppData\Local\Temp\ccsGRYiA.s:28724  .debug_str:00000000000239bb .LASF1956
C:\Users\CYMR90~1\AppData\Local\Temp\ccsGRYiA.s:20379  .debug_str:00000000000023cd .LASF1957
C:\Users\CYMR90~1\AppData\Local\Temp\ccsGRYiA.s:30438  .debug_str:000000000002a8c7 .LASF1958
C:\Users\CYMR90~1\AppData\Local\Temp\ccsGRYiA.s:21763  .debug_str:0000000000007bf5 .LASF1959
C:\Users\CYMR90~1\AppData\Local\Temp\ccsGRYiA.s:30022  .debug_str:0000000000028fcc .LASF1960
C:\Users\CYMR90~1\AppData\Local\Temp\ccsGRYiA.s:26914  .debug_str:000000000001ca5a .LASF1961
C:\Users\CYMR90~1\AppData\Local\Temp\ccsGRYiA.s:19901  .debug_str:0000000000000626 .LASF1962
C:\Users\CYMR90~1\AppData\Local\Temp\ccsGRYiA.s:25237  .debug_str:0000000000015b1a .LASF1963
C:\Users\CYMR90~1\AppData\Local\Temp\ccsGRYiA.s:29088  .debug_str:00000000000252e6 .LASF1964
C:\Users\CYMR90~1\AppData\Local\Temp\ccsGRYiA.s:21599  .debug_str:0000000000007164 .LASF1965
C:\Users\CYMR90~1\AppData\Local\Temp\ccsGRYiA.s:27052  .debug_str:000000000001d404 .LASF1966
C:\Users\CYMR90~1\AppData\Local\Temp\ccsGRYiA.s:30536  .debug_str:000000000002ae83 .LASF1967
C:\Users\CYMR90~1\AppData\Local\Temp\ccsGRYiA.s:26892  .debug_str:000000000001c8e3 .LASF1968
C:\Users\CYMR90~1\AppData\Local\Temp\ccsGRYiA.s:28418  .debug_str:0000000000022733 .LASF1969
C:\Users\CYMR90~1\AppData\Local\Temp\ccsGRYiA.s:21583  .debug_str:0000000000007027 .LASF1970
C:\Users\CYMR90~1\AppData\Local\Temp\ccsGRYiA.s:28422  .debug_str:0000000000022764 .LASF1971
C:\Users\CYMR90~1\AppData\Local\Temp\ccsGRYiA.s:29122  .debug_str:000000000002552b .LASF1972
C:\Users\CYMR90~1\AppData\Local\Temp\ccsGRYiA.s:22613  .debug_str:000000000000b298 .LASF1973
C:\Users\CYMR90~1\AppData\Local\Temp\ccsGRYiA.s:25696  .debug_str:0000000000017b02 .LASF1974
C:\Users\CYMR90~1\AppData\Local\Temp\ccsGRYiA.s:25311  .debug_str:0000000000016064 .LASF1975
C:\Users\CYMR90~1\AppData\Local\Temp\ccsGRYiA.s:23151  .debug_str:000000000000d701 .LASF1976
C:\Users\CYMR90~1\AppData\Local\Temp\ccsGRYiA.s:21239  .debug_str:0000000000005ad9 .LASF1977
C:\Users\CYMR90~1\AppData\Local\Temp\ccsGRYiA.s:24475  .debug_str:0000000000012bc6 .LASF1978
C:\Users\CYMR90~1\AppData\Local\Temp\ccsGRYiA.s:23501  .debug_str:000000000000ec89 .LASF1979
C:\Users\CYMR90~1\AppData\Local\Temp\ccsGRYiA.s:22737  .debug_str:000000000000bb12 .LASF1980
C:\Users\CYMR90~1\AppData\Local\Temp\ccsGRYiA.s:30772  .debug_str:000000000002be5a .LASF1981
C:\Users\CYMR90~1\AppData\Local\Temp\ccsGRYiA.s:22023  .debug_str:0000000000008db0 .LASF1982
C:\Users\CYMR90~1\AppData\Local\Temp\ccsGRYiA.s:30062  .debug_str:0000000000029212 .LASF1983
C:\Users\CYMR90~1\AppData\Local\Temp\ccsGRYiA.s:21091  .debug_str:00000000000051c4 .LASF1984
C:\Users\CYMR90~1\AppData\Local\Temp\ccsGRYiA.s:20205  .debug_str:00000000000019a8 .LASF1985
C:\Users\CYMR90~1\AppData\Local\Temp\ccsGRYiA.s:28650  .debug_str:0000000000023531 .LASF1986
C:\Users\CYMR90~1\AppData\Local\Temp\ccsGRYiA.s:22465  .debug_str:000000000000a8d7 .LASF1987
C:\Users\CYMR90~1\AppData\Local\Temp\ccsGRYiA.s:30040  .debug_str:00000000000290f2 .LASF1988
C:\Users\CYMR90~1\AppData\Local\Temp\ccsGRYiA.s:24339  .debug_str:00000000000122a3 .LASF1989
C:\Users\CYMR90~1\AppData\Local\Temp\ccsGRYiA.s:30278  .debug_str:0000000000029f48 .LASF1990
C:\Users\CYMR90~1\AppData\Local\Temp\ccsGRYiA.s:29810  .debug_str:0000000000028213 .LASF1991
C:\Users\CYMR90~1\AppData\Local\Temp\ccsGRYiA.s:20099  .debug_str:00000000000012b4 .LASF1992
C:\Users\CYMR90~1\AppData\Local\Temp\ccsGRYiA.s:19953  .debug_str:0000000000000988 .LASF1993
C:\Users\CYMR90~1\AppData\Local\Temp\ccsGRYiA.s:26548  .debug_str:000000000001b383 .LASF1994
C:\Users\CYMR90~1\AppData\Local\Temp\ccsGRYiA.s:27602  .debug_str:000000000001f5a6 .LASF1995
C:\Users\CYMR90~1\AppData\Local\Temp\ccsGRYiA.s:25526  .debug_str:0000000000017087 .LASF1996
C:\Users\CYMR90~1\AppData\Local\Temp\ccsGRYiA.s:24275  .debug_str:0000000000011e04 .LASF1997
C:\Users\CYMR90~1\AppData\Local\Temp\ccsGRYiA.s:25622  .debug_str:0000000000017617 .LASF1998
C:\Users\CYMR90~1\AppData\Local\Temp\ccsGRYiA.s:24783  .debug_str:0000000000013f37 .LASF1999
C:\Users\CYMR90~1\AppData\Local\Temp\ccsGRYiA.s:30766  .debug_str:000000000002be06 .LASF2000
C:\Users\CYMR90~1\AppData\Local\Temp\ccsGRYiA.s:20837  .debug_str:0000000000004170 .LASF2001
C:\Users\CYMR90~1\AppData\Local\Temp\ccsGRYiA.s:22263  .debug_str:0000000000009c40 .LASF2002
C:\Users\CYMR90~1\AppData\Local\Temp\ccsGRYiA.s:20601  .debug_str:00000000000031b7 .LASF2003
C:\Users\CYMR90~1\AppData\Local\Temp\ccsGRYiA.s:29248  .debug_str:0000000000025da1 .LASF2004
C:\Users\CYMR90~1\AppData\Local\Temp\ccsGRYiA.s:23833  .debug_str:000000000001012b .LASF2005
C:\Users\CYMR90~1\AppData\Local\Temp\ccsGRYiA.s:22621  .debug_str:000000000000b31f .LASF2006
C:\Users\CYMR90~1\AppData\Local\Temp\ccsGRYiA.s:21419  .debug_str:00000000000065c4 .LASF2007
C:\Users\CYMR90~1\AppData\Local\Temp\ccsGRYiA.s:20517  .debug_str:0000000000002c5e .LASF2008
C:\Users\CYMR90~1\AppData\Local\Temp\ccsGRYiA.s:22301  .debug_str:0000000000009e82 .LASF2009
C:\Users\CYMR90~1\AppData\Local\Temp\ccsGRYiA.s:30720  .debug_str:000000000002bac7 .LASF2010
C:\Users\CYMR90~1\AppData\Local\Temp\ccsGRYiA.s:25620  .debug_str:00000000000175f3 .LASF2011
C:\Users\CYMR90~1\AppData\Local\Temp\ccsGRYiA.s:20619  .debug_str:00000000000032fa .LASF2012
C:\Users\CYMR90~1\AppData\Local\Temp\ccsGRYiA.s:30010  .debug_str:0000000000028f14 .LASF2013
C:\Users\CYMR90~1\AppData\Local\Temp\ccsGRYiA.s:24309  .debug_str:00000000000120c5 .LASF2014
C:\Users\CYMR90~1\AppData\Local\Temp\ccsGRYiA.s:21619  .debug_str:00000000000072e0 .LASF2015
C:\Users\CYMR90~1\AppData\Local\Temp\ccsGRYiA.s:23057  .debug_str:000000000000d09d .LASF2016
C:\Users\CYMR90~1\AppData\Local\Temp\ccsGRYiA.s:25572  .debug_str:0000000000017321 .LASF2017
C:\Users\CYMR90~1\AppData\Local\Temp\ccsGRYiA.s:27622  .debug_str:000000000001f6bb .LASF2018
C:\Users\CYMR90~1\AppData\Local\Temp\ccsGRYiA.s:30168  .debug_str:00000000000298ac .LASF2019
C:\Users\CYMR90~1\AppData\Local\Temp\ccsGRYiA.s:23561  .debug_str:000000000000efbb .LASF2020
C:\Users\CYMR90~1\AppData\Local\Temp\ccsGRYiA.s:24675  .debug_str:00000000000138d9 .LASF2021
C:\Users\CYMR90~1\AppData\Local\Temp\ccsGRYiA.s:26532  .debug_str:000000000001b262 .LASF2022
C:\Users\CYMR90~1\AppData\Local\Temp\ccsGRYiA.s:24863  .debug_str:000000000001444a .LASF2023
C:\Users\CYMR90~1\AppData\Local\Temp\ccsGRYiA.s:28882  .debug_str:000000000002447c .LASF2024
C:\Users\CYMR90~1\AppData\Local\Temp\ccsGRYiA.s:27566  .debug_str:000000000001f37f .LASF2025
C:\Users\CYMR90~1\AppData\Local\Temp\ccsGRYiA.s:20473  .debug_str:00000000000029b4 .LASF2026
C:\Users\CYMR90~1\AppData\Local\Temp\ccsGRYiA.s:28000  .debug_str:0000000000020ddb .LASF2027
C:\Users\CYMR90~1\AppData\Local\Temp\ccsGRYiA.s:21877  .debug_str:0000000000008456 .LASF2028
C:\Users\CYMR90~1\AppData\Local\Temp\ccsGRYiA.s:24723  .debug_str:0000000000013bb6 .LASF2029
C:\Users\CYMR90~1\AppData\Local\Temp\ccsGRYiA.s:27312  .debug_str:000000000001e41d .LASF2030
C:\Users\CYMR90~1\AppData\Local\Temp\ccsGRYiA.s:24575  .debug_str:000000000001322f .LASF2031
C:\Users\CYMR90~1\AppData\Local\Temp\ccsGRYiA.s:25688  .debug_str:0000000000017a7a .LASF2032
C:\Users\CYMR90~1\AppData\Local\Temp\ccsGRYiA.s:30796  .debug_str:000000000002bfef .LASF2033
C:\Users\CYMR90~1\AppData\Local\Temp\ccsGRYiA.s:28110  .debug_str:00000000000214ad .LASF2034
C:\Users\CYMR90~1\AppData\Local\Temp\ccsGRYiA.s:24033  .debug_str:0000000000010e47 .LASF2035
C:\Users\CYMR90~1\AppData\Local\Temp\ccsGRYiA.s:28016  .debug_str:0000000000020eb5 .LASF2036
C:\Users\CYMR90~1\AppData\Local\Temp\ccsGRYiA.s:25910  .debug_str:000000000001877b .LASF2037
C:\Users\CYMR90~1\AppData\Local\Temp\ccsGRYiA.s:27836  .debug_str:0000000000020395 .LASF2038
C:\Users\CYMR90~1\AppData\Local\Temp\ccsGRYiA.s:24213  .debug_str:0000000000011a44 .LASF2039
C:\Users\CYMR90~1\AppData\Local\Temp\ccsGRYiA.s:20609  .debug_str:000000000000325c .LASF2040
C:\Users\CYMR90~1\AppData\Local\Temp\ccsGRYiA.s:20351  .debug_str:000000000000221d .LASF2041
C:\Users\CYMR90~1\AppData\Local\Temp\ccsGRYiA.s:26064  .debug_str:00000000000192cf .LASF2042
C:\Users\CYMR90~1\AppData\Local\Temp\ccsGRYiA.s:30266  .debug_str:0000000000029e7f .LASF2043
C:\Users\CYMR90~1\AppData\Local\Temp\ccsGRYiA.s:21879  .debug_str:000000000000847b .LASF2044
C:\Users\CYMR90~1\AppData\Local\Temp\ccsGRYiA.s:28204  .debug_str:0000000000021a61 .LASF2045
C:\Users\CYMR90~1\AppData\Local\Temp\ccsGRYiA.s:24127  .debug_str:000000000001138a .LASF2046
C:\Users\CYMR90~1\AppData\Local\Temp\ccsGRYiA.s:23621  .debug_str:000000000000f39e .LASF2047
C:\Users\CYMR90~1\AppData\Local\Temp\ccsGRYiA.s:27582  .debug_str:000000000001f47a .LASF2048
C:\Users\CYMR90~1\AppData\Local\Temp\ccsGRYiA.s:28134  .debug_str:0000000000021606 .LASF2049
C:\Users\CYMR90~1\AppData\Local\Temp\ccsGRYiA.s:24409  .debug_str:0000000000012750 .LASF2050
C:\Users\CYMR90~1\AppData\Local\Temp\ccsGRYiA.s:20637  .debug_str:000000000000343e .LASF2051
C:\Users\CYMR90~1\AppData\Local\Temp\ccsGRYiA.s:19817  .debug_str:000000000000014f .LASF2052
C:\Users\CYMR90~1\AppData\Local\Temp\ccsGRYiA.s:20229  .debug_str:0000000000001b16 .LASF2053
C:\Users\CYMR90~1\AppData\Local\Temp\ccsGRYiA.s:25628  .debug_str:000000000001766d .LASF2054
C:\Users\CYMR90~1\AppData\Local\Temp\ccsGRYiA.s:29976  .debug_str:0000000000028cf7 .LASF2055
C:\Users\CYMR90~1\AppData\Local\Temp\ccsGRYiA.s:29576  .debug_str:000000000002724d .LASF2056
C:\Users\CYMR90~1\AppData\Local\Temp\ccsGRYiA.s:24677  .debug_str:0000000000013900 .LASF2057
C:\Users\CYMR90~1\AppData\Local\Temp\ccsGRYiA.s:23231  .debug_str:000000000000db7e .LASF2058
C:\Users\CYMR90~1\AppData\Local\Temp\ccsGRYiA.s:21251  .debug_str:0000000000005b8b .LASF2059
C:\Users\CYMR90~1\AppData\Local\Temp\ccsGRYiA.s:29986  .debug_str:0000000000028d8a .LASF2060
C:\Users\CYMR90~1\AppData\Local\Temp\ccsGRYiA.s:20155  .debug_str:0000000000001622 .LASF2061
C:\Users\CYMR90~1\AppData\Local\Temp\ccsGRYiA.s:20703  .debug_str:0000000000003883 .LASF2062
C:\Users\CYMR90~1\AppData\Local\Temp\ccsGRYiA.s:29542  .debug_str:0000000000026f9a .LASF2063
C:\Users\CYMR90~1\AppData\Local\Temp\ccsGRYiA.s:24067  .debug_str:0000000000011019 .LASF2064
C:\Users\CYMR90~1\AppData\Local\Temp\ccsGRYiA.s:25970  .debug_str:0000000000018b74 .LASF2065
C:\Users\CYMR90~1\AppData\Local\Temp\ccsGRYiA.s:29350  .debug_str:00000000000263e9 .LASF2066
C:\Users\CYMR90~1\AppData\Local\Temp\ccsGRYiA.s:22051  .debug_str:0000000000008f45 .LASF2067
C:\Users\CYMR90~1\AppData\Local\Temp\ccsGRYiA.s:30248  .debug_str:0000000000029d6d .LASF2068
C:\Users\CYMR90~1\AppData\Local\Temp\ccsGRYiA.s:30954  .debug_str:000000000002ca43 .LASF2069
C:\Users\CYMR90~1\AppData\Local\Temp\ccsGRYiA.s:20737  .debug_str:0000000000003a9c .LASF2070
C:\Users\CYMR90~1\AppData\Local\Temp\ccsGRYiA.s:28630  .debug_str:00000000000233ab .LASF2071
C:\Users\CYMR90~1\AppData\Local\Temp\ccsGRYiA.s:26048  .debug_str:00000000000191f0 .LASF2072
C:\Users\CYMR90~1\AppData\Local\Temp\ccsGRYiA.s:29574  .debug_str:0000000000027235 .LASF2073
C:\Users\CYMR90~1\AppData\Local\Temp\ccsGRYiA.s:21911  .debug_str:0000000000008662 .LASF2074
C:\Users\CYMR90~1\AppData\Local\Temp\ccsGRYiA.s:27150  .debug_str:000000000001da83 .LASF2075
C:\Users\CYMR90~1\AppData\Local\Temp\ccsGRYiA.s:25359  .debug_str:0000000000016366 .LASF2076
C:\Users\CYMR90~1\AppData\Local\Temp\ccsGRYiA.s:23389  .debug_str:000000000000e520 .LASF2077
C:\Users\CYMR90~1\AppData\Local\Temp\ccsGRYiA.s:23529  .debug_str:000000000000ede8 .LASF2078
C:\Users\CYMR90~1\AppData\Local\Temp\ccsGRYiA.s:27586  .debug_str:000000000001f4b1 .LASF2079
C:\Users\CYMR90~1\AppData\Local\Temp\ccsGRYiA.s:25299  .debug_str:0000000000015f87 .LASF2080
C:\Users\CYMR90~1\AppData\Local\Temp\ccsGRYiA.s:24269  .debug_str:0000000000011dc2 .LASF2081
C:\Users\CYMR90~1\AppData\Local\Temp\ccsGRYiA.s:27380  .debug_str:000000000001e87f .LASF2082
C:\Users\CYMR90~1\AppData\Local\Temp\ccsGRYiA.s:22623  .debug_str:000000000000b32e .LASF2083
C:\Users\CYMR90~1\AppData\Local\Temp\ccsGRYiA.s:28278  .debug_str:0000000000021ef2 .LASF2084
C:\Users\CYMR90~1\AppData\Local\Temp\ccsGRYiA.s:23247  .debug_str:000000000000dc84 .LASF2085
C:\Users\CYMR90~1\AppData\Local\Temp\ccsGRYiA.s:21753  .debug_str:0000000000007b5d .LASF2086
C:\Users\CYMR90~1\AppData\Local\Temp\ccsGRYiA.s:29268  .debug_str:0000000000025f04 .LASF2087
C:\Users\CYMR90~1\AppData\Local\Temp\ccsGRYiA.s:23421  .debug_str:000000000000e760 .LASF2088
C:\Users\CYMR90~1\AppData\Local\Temp\ccsGRYiA.s:25333  .debug_str:00000000000161e4 .LASF2089
C:\Users\CYMR90~1\AppData\Local\Temp\ccsGRYiA.s:20857  .debug_str:0000000000004290 .LASF2090
C:\Users\CYMR90~1\AppData\Local\Temp\ccsGRYiA.s:23705  .debug_str:000000000000f91e .LASF2091
C:\Users\CYMR90~1\AppData\Local\Temp\ccsGRYiA.s:30508  .debug_str:000000000002acfe .LASF2092
C:\Users\CYMR90~1\AppData\Local\Temp\ccsGRYiA.s:27388  .debug_str:000000000001e8f6 .LASF2093
C:\Users\CYMR90~1\AppData\Local\Temp\ccsGRYiA.s:22247  .debug_str:0000000000009b6e .LASF2094
C:\Users\CYMR90~1\AppData\Local\Temp\ccsGRYiA.s:26382  .debug_str:000000000001a8c4 .LASF2095
C:\Users\CYMR90~1\AppData\Local\Temp\ccsGRYiA.s:20797  .debug_str:0000000000003e13 .LASF2096
C:\Users\CYMR90~1\AppData\Local\Temp\ccsGRYiA.s:22347  .debug_str:000000000000a180 .LASF2097
C:\Users\CYMR90~1\AppData\Local\Temp\ccsGRYiA.s:27468  .debug_str:000000000001ed53 .LASF2098
C:\Users\CYMR90~1\AppData\Local\Temp\ccsGRYiA.s:20719  .debug_str:0000000000003960 .LASF2099
C:\Users\CYMR90~1\AppData\Local\Temp\ccsGRYiA.s:24155  .debug_str:000000000001157d .LASF2100
C:\Users\CYMR90~1\AppData\Local\Temp\ccsGRYiA.s:28834  .debug_str:00000000000240e8 .LASF2101
C:\Users\CYMR90~1\AppData\Local\Temp\ccsGRYiA.s:21699  .debug_str:00000000000077c2 .LASF2102
C:\Users\CYMR90~1\AppData\Local\Temp\ccsGRYiA.s:25027  .debug_str:0000000000014eb5 .LASF2103
C:\Users\CYMR90~1\AppData\Local\Temp\ccsGRYiA.s:21979  .debug_str:0000000000008aa8 .LASF2104
C:\Users\CYMR90~1\AppData\Local\Temp\ccsGRYiA.s:27830  .debug_str:000000000002034c .LASF2105
C:\Users\CYMR90~1\AppData\Local\Temp\ccsGRYiA.s:22487  .debug_str:000000000000aa18 .LASF2106
C:\Users\CYMR90~1\AppData\Local\Temp\ccsGRYiA.s:28344  .debug_str:00000000000222db .LASF2107
C:\Users\CYMR90~1\AppData\Local\Temp\ccsGRYiA.s:27664  .debug_str:000000000001f951 .LASF2108
C:\Users\CYMR90~1\AppData\Local\Temp\ccsGRYiA.s:28850  .debug_str:000000000002422a .LASF2109
C:\Users\CYMR90~1\AppData\Local\Temp\ccsGRYiA.s:29418  .debug_str:0000000000026841 .LASF2110
C:\Users\CYMR90~1\AppData\Local\Temp\ccsGRYiA.s:29252  .debug_str:0000000000025dd4 .LASF2111
C:\Users\CYMR90~1\AppData\Local\Temp\ccsGRYiA.s:28898  .debug_str:000000000002455d .LASF2112
C:\Users\CYMR90~1\AppData\Local\Temp\ccsGRYiA.s:27966  .debug_str:0000000000020be6 .LASF2113
C:\Users\CYMR90~1\AppData\Local\Temp\ccsGRYiA.s:23879  .debug_str:00000000000103e9 .LASF2114
C:\Users\CYMR90~1\AppData\Local\Temp\ccsGRYiA.s:26012  .debug_str:0000000000018e94 .LASF2115
C:\Users\CYMR90~1\AppData\Local\Temp\ccsGRYiA.s:27810  .debug_str:0000000000020212 .LASF2116
C:\Users\CYMR90~1\AppData\Local\Temp\ccsGRYiA.s:22751  .debug_str:000000000000bc0f .LASF2117
C:\Users\CYMR90~1\AppData\Local\Temp\ccsGRYiA.s:21477  .debug_str:000000000000696b .LASF2118
C:\Users\CYMR90~1\AppData\Local\Temp\ccsGRYiA.s:30692  .debug_str:000000000002b8e7 .LASF2119
C:\Users\CYMR90~1\AppData\Local\Temp\ccsGRYiA.s:30774  .debug_str:000000000002be6b .LASF2120
C:\Users\CYMR90~1\AppData\Local\Temp\ccsGRYiA.s:24769  .debug_str:0000000000013e43 .LASF2121
C:\Users\CYMR90~1\AppData\Local\Temp\ccsGRYiA.s:22445  .debug_str:000000000000a7b7 .LASF2122
C:\Users\CYMR90~1\AppData\Local\Temp\ccsGRYiA.s:26626  .debug_str:000000000001b832 .LASF2123
C:\Users\CYMR90~1\AppData\Local\Temp\ccsGRYiA.s:25942  .debug_str:00000000000189e0 .LASF2124
C:\Users\CYMR90~1\AppData\Local\Temp\ccsGRYiA.s:30540  .debug_str:000000000002aec0 .LASF2125
C:\Users\CYMR90~1\AppData\Local\Temp\ccsGRYiA.s:27172  .debug_str:000000000001dbb9 .LASF2126
C:\Users\CYMR90~1\AppData\Local\Temp\ccsGRYiA.s:26026  .debug_str:0000000000018f9c .LASF2127
C:\Users\CYMR90~1\AppData\Local\Temp\ccsGRYiA.s:24445  .debug_str:00000000000129ab .LASF2128
C:\Users\CYMR90~1\AppData\Local\Temp\ccsGRYiA.s:26668  .debug_str:000000000001ba5a .LASF2129
C:\Users\CYMR90~1\AppData\Local\Temp\ccsGRYiA.s:21413  .debug_str:000000000000656c .LASF2130
C:\Users\CYMR90~1\AppData\Local\Temp\ccsGRYiA.s:19837  .debug_str:0000000000000282 .LASF2131
C:\Users\CYMR90~1\AppData\Local\Temp\ccsGRYiA.s:20933  .debug_str:00000000000047a8 .LASF2132
C:\Users\CYMR90~1\AppData\Local\Temp\ccsGRYiA.s:26214  .debug_str:0000000000019c7f .LASF2133
C:\Users\CYMR90~1\AppData\Local\Temp\ccsGRYiA.s:25500  .debug_str:0000000000016ece .LASF2134
C:\Users\CYMR90~1\AppData\Local\Temp\ccsGRYiA.s:27224  .debug_str:000000000001dede .LASF2135
C:\Users\CYMR90~1\AppData\Local\Temp\ccsGRYiA.s:20899  .debug_str:0000000000004562 .LASF2136
C:\Users\CYMR90~1\AppData\Local\Temp\ccsGRYiA.s:27442  .debug_str:000000000001ebca .LASF2137
C:\Users\CYMR90~1\AppData\Local\Temp\ccsGRYiA.s:20215  .debug_str:0000000000001a43 .LASF2138
C:\Users\CYMR90~1\AppData\Local\Temp\ccsGRYiA.s:26202  .debug_str:0000000000019bd7 .LASF2139
C:\Users\CYMR90~1\AppData\Local\Temp\ccsGRYiA.s:22919  .debug_str:000000000000c728 .LASF2140
C:\Users\CYMR90~1\AppData\Local\Temp\ccsGRYiA.s:21139  .debug_str:00000000000054d2 .LASF2141
C:\Users\CYMR90~1\AppData\Local\Temp\ccsGRYiA.s:30726  .debug_str:000000000002bb24 .LASF2142
C:\Users\CYMR90~1\AppData\Local\Temp\ccsGRYiA.s:23393  .debug_str:000000000000e55b .LASF2143
C:\Users\CYMR90~1\AppData\Local\Temp\ccsGRYiA.s:28086  .debug_str:0000000000021351 .LASF2144
C:\Users\CYMR90~1\AppData\Local\Temp\ccsGRYiA.s:27128  .debug_str:000000000001d919 .LASF2145
C:\Users\CYMR90~1\AppData\Local\Temp\ccsGRYiA.s:27056  .debug_str:000000000001d441 .LASF2146
C:\Users\CYMR90~1\AppData\Local\Temp\ccsGRYiA.s:20273  .debug_str:0000000000001dd6 .LASF2147
C:\Users\CYMR90~1\AppData\Local\Temp\ccsGRYiA.s:28104  .debug_str:0000000000021459 .LASF2148
C:\Users\CYMR90~1\AppData\Local\Temp\ccsGRYiA.s:29620  .debug_str:00000000000274c3 .LASF2149
C:\Users\CYMR90~1\AppData\Local\Temp\ccsGRYiA.s:24291  .debug_str:0000000000011eec .LASF2150
C:\Users\CYMR90~1\AppData\Local\Temp\ccsGRYiA.s:25508  .debug_str:0000000000016f53 .LASF2151
C:\Users\CYMR90~1\AppData\Local\Temp\ccsGRYiA.s:22435  .debug_str:000000000000a6d4 .LASF2152
C:\Users\CYMR90~1\AppData\Local\Temp\ccsGRYiA.s:25091  .debug_str:00000000000152d2 .LASF2153
C:\Users\CYMR90~1\AppData\Local\Temp\ccsGRYiA.s:20639  .debug_str:0000000000003465 .LASF2154
C:\Users\CYMR90~1\AppData\Local\Temp\ccsGRYiA.s:27462  .debug_str:000000000001ecf9 .LASF2155
C:\Users\CYMR90~1\AppData\Local\Temp\ccsGRYiA.s:26604  .debug_str:000000000001b6bd .LASF2156
C:\Users\CYMR90~1\AppData\Local\Temp\ccsGRYiA.s:25664  .debug_str:00000000000178b6 .LASF2157
C:\Users\CYMR90~1\AppData\Local\Temp\ccsGRYiA.s:28856  .debug_str:0000000000024293 .LASF2158
C:\Users\CYMR90~1\AppData\Local\Temp\ccsGRYiA.s:24451  .debug_str:0000000000012a08 .LASF2159
C:\Users\CYMR90~1\AppData\Local\Temp\ccsGRYiA.s:23195  .debug_str:000000000000d98d .LASF2160
C:\Users\CYMR90~1\AppData\Local\Temp\ccsGRYiA.s:21965  .debug_str:00000000000089b4 .LASF2161
C:\Users\CYMR90~1\AppData\Local\Temp\ccsGRYiA.s:23857  .debug_str:00000000000102a8 .LASF2162
C:\Users\CYMR90~1\AppData\Local\Temp\ccsGRYiA.s:26870  .debug_str:000000000001c6d2 .LASF2163
C:\Users\CYMR90~1\AppData\Local\Temp\ccsGRYiA.s:24145  .debug_str:00000000000114d3 .LASF2164
C:\Users\CYMR90~1\AppData\Local\Temp\ccsGRYiA.s:24367  .debug_str:0000000000012479 .LASF2165
C:\Users\CYMR90~1\AppData\Local\Temp\ccsGRYiA.s:24053  .debug_str:0000000000010f36 .LASF2166
C:\Users\CYMR90~1\AppData\Local\Temp\ccsGRYiA.s:26854  .debug_str:000000000001c5ad .LASF2167
C:\Users\CYMR90~1\AppData\Local\Temp\ccsGRYiA.s:20335  .debug_str:000000000000213f .LASF2168
C:\Users\CYMR90~1\AppData\Local\Temp\ccsGRYiA.s:23441  .debug_str:000000000000e886 .LASF2169
C:\Users\CYMR90~1\AppData\Local\Temp\ccsGRYiA.s:27242  .debug_str:000000000001dffb .LASF2170
C:\Users\CYMR90~1\AppData\Local\Temp\ccsGRYiA.s:26300  .debug_str:000000000001a186 .LASF2171
C:\Users\CYMR90~1\AppData\Local\Temp\ccsGRYiA.s:23283  .debug_str:000000000000ded1 .LASF2172
C:\Users\CYMR90~1\AppData\Local\Temp\ccsGRYiA.s:22635  .debug_str:000000000000b485 .LASF2173
C:\Users\CYMR90~1\AppData\Local\Temp\ccsGRYiA.s:25672  .debug_str:0000000000017970 .LASF2174
C:\Users\CYMR90~1\AppData\Local\Temp\ccsGRYiA.s:30460  .debug_str:000000000002aa24 .LASF2175
C:\Users\CYMR90~1\AppData\Local\Temp\ccsGRYiA.s:20955  .debug_str:000000000000498c .LASF2176
C:\Users\CYMR90~1\AppData\Local\Temp\ccsGRYiA.s:26754  .debug_str:000000000001bff9 .LASF2177
C:\Users\CYMR90~1\AppData\Local\Temp\ccsGRYiA.s:27152  .debug_str:000000000001da9b .LASF2178
C:\Users\CYMR90~1\AppData\Local\Temp\ccsGRYiA.s:24983  .debug_str:0000000000014bc5 .LASF2179
C:\Users\CYMR90~1\AppData\Local\Temp\ccsGRYiA.s:29826  .debug_str:000000000002830e .LASF2180
C:\Users\CYMR90~1\AppData\Local\Temp\ccsGRYiA.s:26504  .debug_str:000000000001b0a4 .LASF2181
C:\Users\CYMR90~1\AppData\Local\Temp\ccsGRYiA.s:23201  .debug_str:000000000000d9f8 .LASF2182
C:\Users\CYMR90~1\AppData\Local\Temp\ccsGRYiA.s:20731  .debug_str:0000000000003a36 .LASF2183
C:\Users\CYMR90~1\AppData\Local\Temp\ccsGRYiA.s:20009  .debug_str:0000000000000d33 .LASF2184
C:\Users\CYMR90~1\AppData\Local\Temp\ccsGRYiA.s:29682  .debug_str:000000000002789e .LASF2185
C:\Users\CYMR90~1\AppData\Local\Temp\ccsGRYiA.s:28090  .debug_str:000000000002138f .LASF2186
C:\Users\CYMR90~1\AppData\Local\Temp\ccsGRYiA.s:21143  .debug_str:0000000000005506 .LASF2187
C:\Users\CYMR90~1\AppData\Local\Temp\ccsGRYiA.s:26236  .debug_str:0000000000019def .LASF2188
C:\Users\CYMR90~1\AppData\Local\Temp\ccsGRYiA.s:25560  .debug_str:000000000001726a .LASF2189
C:\Users\CYMR90~1\AppData\Local\Temp\ccsGRYiA.s:26926  .debug_str:000000000001caf9 .LASF2190
C:\Users\CYMR90~1\AppData\Local\Temp\ccsGRYiA.s:26462  .debug_str:000000000001ad91 .LASF2191
C:\Users\CYMR90~1\AppData\Local\Temp\ccsGRYiA.s:29638  .debug_str:00000000000275c1 .LASF2192
C:\Users\CYMR90~1\AppData\Local\Temp\ccsGRYiA.s:24057  .debug_str:0000000000010f6a .LASF2193
C:\Users\CYMR90~1\AppData\Local\Temp\ccsGRYiA.s:28242  .debug_str:0000000000021ce0 .LASF2194
C:\Users\CYMR90~1\AppData\Local\Temp\ccsGRYiA.s:30136  .debug_str:00000000000296d7 .LASF2195
C:\Users\CYMR90~1\AppData\Local\Temp\ccsGRYiA.s:24261  .debug_str:0000000000011d17 .LASF2196
C:\Users\CYMR90~1\AppData\Local\Temp\ccsGRYiA.s:30592  .debug_str:000000000002b231 .LASF2197
C:\Users\CYMR90~1\AppData\Local\Temp\ccsGRYiA.s:27332  .debug_str:000000000001e579 .LASF2198
C:\Users\CYMR90~1\AppData\Local\Temp\ccsGRYiA.s:21043  .debug_str:0000000000004ed1 .LASF2199
C:\Users\CYMR90~1\AppData\Local\Temp\ccsGRYiA.s:30000  .debug_str:0000000000028e52 .LASF2200
C:\Users\CYMR90~1\AppData\Local\Temp\ccsGRYiA.s:30556  .debug_str:000000000002afa9 .LASF2201
C:\Users\CYMR90~1\AppData\Local\Temp\ccsGRYiA.s:23263  .debug_str:000000000000dda1 .LASF2202
C:\Users\CYMR90~1\AppData\Local\Temp\ccsGRYiA.s:23235  .debug_str:000000000000dbb4 .LASF2203
C:\Users\CYMR90~1\AppData\Local\Temp\ccsGRYiA.s:22615  .debug_str:000000000000b2a9 .LASF2204
C:\Users\CYMR90~1\AppData\Local\Temp\ccsGRYiA.s:24781  .debug_str:0000000000013f0c .LASF2205
C:\Users\CYMR90~1\AppData\Local\Temp\ccsGRYiA.s:29840  .debug_str:0000000000028403 .LASF2206
C:\Users\CYMR90~1\AppData\Local\Temp\ccsGRYiA.s:23593  .debug_str:000000000000f1c5 .LASF2207
C:\Users\CYMR90~1\AppData\Local\Temp\ccsGRYiA.s:26702  .debug_str:000000000001bc9a .LASF2208
C:\Users\CYMR90~1\AppData\Local\Temp\ccsGRYiA.s:28986  .debug_str:0000000000024b68 .LASF2209
C:\Users\CYMR90~1\AppData\Local\Temp\ccsGRYiA.s:23193  .debug_str:000000000000d966 .LASF2210
C:\Users\CYMR90~1\AppData\Local\Temp\ccsGRYiA.s:28138  .debug_str:0000000000021641 .LASF2211
C:\Users\CYMR90~1\AppData\Local\Temp\ccsGRYiA.s:20089  .debug_str:0000000000001235 .LASF2212
C:\Users\CYMR90~1\AppData\Local\Temp\ccsGRYiA.s:26406  .debug_str:000000000001aa27 .LASF2213
C:\Users\CYMR90~1\AppData\Local\Temp\ccsGRYiA.s:26890  .debug_str:000000000001c8ba .LASF2214
C:\Users\CYMR90~1\AppData\Local\Temp\ccsGRYiA.s:20587  .debug_str:00000000000030eb .LASF2215
C:\Users\CYMR90~1\AppData\Local\Temp\ccsGRYiA.s:29266  .debug_str:0000000000025edb .LASF2216
C:\Users\CYMR90~1\AppData\Local\Temp\ccsGRYiA.s:30074  .debug_str:00000000000292c5 .LASF2217
C:\Users\CYMR90~1\AppData\Local\Temp\ccsGRYiA.s:24819  .debug_str:000000000001418c .LASF2218
C:\Users\CYMR90~1\AppData\Local\Temp\ccsGRYiA.s:29792  .debug_str:000000000002804d .LASF2219
C:\Users\CYMR90~1\AppData\Local\Temp\ccsGRYiA.s:21659  .debug_str:0000000000007532 .LASF2220
C:\Users\CYMR90~1\AppData\Local\Temp\ccsGRYiA.s:27916  .debug_str:00000000000208c5 .LASF2221
C:\Users\CYMR90~1\AppData\Local\Temp\ccsGRYiA.s:21719  .debug_str:00000000000078ff .LASF2222
C:\Users\CYMR90~1\AppData\Local\Temp\ccsGRYiA.s:26720  .debug_str:000000000001bdb5 .LASF2223
C:\Users\CYMR90~1\AppData\Local\Temp\ccsGRYiA.s:29836  .debug_str:00000000000283c2 .LASF2224
C:\Users\CYMR90~1\AppData\Local\Temp\ccsGRYiA.s:23477  .debug_str:000000000000eafd .LASF2225
C:\Users\CYMR90~1\AppData\Local\Temp\ccsGRYiA.s:20967  .debug_str:0000000000004a48 .LASF2226
C:\Users\CYMR90~1\AppData\Local\Temp\ccsGRYiA.s:22999  .debug_str:000000000000ccc6 .LASF2227
C:\Users\CYMR90~1\AppData\Local\Temp\ccsGRYiA.s:31038  .debug_str:000000000002cfb0 .LASF2228
C:\Users\CYMR90~1\AppData\Local\Temp\ccsGRYiA.s:21335  .debug_str:00000000000060d5 .LASF2229
C:\Users\CYMR90~1\AppData\Local\Temp\ccsGRYiA.s:24941  .debug_str:0000000000014942 .LASF2230
C:\Users\CYMR90~1\AppData\Local\Temp\ccsGRYiA.s:30620  .debug_str:000000000002b3ea .LASF2231
C:\Users\CYMR90~1\AppData\Local\Temp\ccsGRYiA.s:22411  .debug_str:000000000000a5a0 .LASF2232
C:\Users\CYMR90~1\AppData\Local\Temp\ccsGRYiA.s:25904  .debug_str:000000000001871d .LASF2233
C:\Users\CYMR90~1\AppData\Local\Temp\ccsGRYiA.s:20367  .debug_str:0000000000002322 .LASF2234
C:\Users\CYMR90~1\AppData\Local\Temp\ccsGRYiA.s:24855  .debug_str:00000000000143d8 .LASF2235
C:\Users\CYMR90~1\AppData\Local\Temp\ccsGRYiA.s:21713  .debug_str:00000000000078b2 .LASF2236
C:\Users\CYMR90~1\AppData\Local\Temp\ccsGRYiA.s:22853  .debug_str:000000000000c2da .LASF2237
C:\Users\CYMR90~1\AppData\Local\Temp\ccsGRYiA.s:23901  .debug_str:0000000000010547 .LASF2238
C:\Users\CYMR90~1\AppData\Local\Temp\ccsGRYiA.s:28044  .debug_str:0000000000021035 .LASF2239
C:\Users\CYMR90~1\AppData\Local\Temp\ccsGRYiA.s:29442  .debug_str:00000000000269c4 .LASF2240
C:\Users\CYMR90~1\AppData\Local\Temp\ccsGRYiA.s:23913  .debug_str:0000000000010601 .LASF2241
C:\Users\CYMR90~1\AppData\Local\Temp\ccsGRYiA.s:24303  .debug_str:0000000000012061 .LASF2242
C:\Users\CYMR90~1\AppData\Local\Temp\ccsGRYiA.s:23367  .debug_str:000000000000e3c7 .LASF2243
C:\Users\CYMR90~1\AppData\Local\Temp\ccsGRYiA.s:21349  .debug_str:00000000000061de .LASF2244
C:\Users\CYMR90~1\AppData\Local\Temp\ccsGRYiA.s:20413  .debug_str:00000000000025a4 .LASF2245
C:\Users\CYMR90~1\AppData\Local\Temp\ccsGRYiA.s:27114  .debug_str:000000000001d83a .LASF2246
C:\Users\CYMR90~1\AppData\Local\Temp\ccsGRYiA.s:29324  .debug_str:0000000000026241 .LASF2247
C:\Users\CYMR90~1\AppData\Local\Temp\ccsGRYiA.s:27694  .debug_str:000000000001fb47 .LASF2248
C:\Users\CYMR90~1\AppData\Local\Temp\ccsGRYiA.s:27710  .debug_str:000000000001fc1f .LASF2249
C:\Users\CYMR90~1\AppData\Local\Temp\ccsGRYiA.s:28748  .debug_str:0000000000023b04 .LASF2250
C:\Users\CYMR90~1\AppData\Local\Temp\ccsGRYiA.s:29544  .debug_str:0000000000026fb0 .LASF2251
C:\Users\CYMR90~1\AppData\Local\Temp\ccsGRYiA.s:26818  .debug_str:000000000001c3d1 .LASF2252
C:\Users\CYMR90~1\AppData\Local\Temp\ccsGRYiA.s:26982  .debug_str:000000000001cf36 .LASF2253
C:\Users\CYMR90~1\AppData\Local\Temp\ccsGRYiA.s:21935  .debug_str:00000000000087d0 .LASF2254
C:\Users\CYMR90~1\AppData\Local\Temp\ccsGRYiA.s:24663  .debug_str:000000000001384b .LASF2255
C:\Users\CYMR90~1\AppData\Local\Temp\ccsGRYiA.s:28188  .debug_str:0000000000021930 .LASF2256
C:\Users\CYMR90~1\AppData\Local\Temp\ccsGRYiA.s:30424  .debug_str:000000000002a7f3 .LASF2257
C:\Users\CYMR90~1\AppData\Local\Temp\ccsGRYiA.s:28972  .debug_str:0000000000024a79 .LASF2258
C:\Users\CYMR90~1\AppData\Local\Temp\ccsGRYiA.s:21503  .debug_str:0000000000006af1 .LASF2259
C:\Users\CYMR90~1\AppData\Local\Temp\ccsGRYiA.s:23813  .debug_str:000000000000ffbb .LASF2260
C:\Users\CYMR90~1\AppData\Local\Temp\ccsGRYiA.s:21449  .debug_str:0000000000006779 .LASF2261
C:\Users\CYMR90~1\AppData\Local\Temp\ccsGRYiA.s:30830  .debug_str:000000000002c28d .LASF2262
C:\Users\CYMR90~1\AppData\Local\Temp\ccsGRYiA.s:30252  .debug_str:0000000000029d92 .LASF2263
C:\Users\CYMR90~1\AppData\Local\Temp\ccsGRYiA.s:23107  .debug_str:000000000000d46a .LASF2264
C:\Users\CYMR90~1\AppData\Local\Temp\ccsGRYiA.s:22163  .debug_str:00000000000095d2 .LASF2265
C:\Users\CYMR90~1\AppData\Local\Temp\ccsGRYiA.s:20725  .debug_str:00000000000039e9 .LASF2266
C:\Users\CYMR90~1\AppData\Local\Temp\ccsGRYiA.s:23825  .debug_str:0000000000010094 .LASF2267
C:\Users\CYMR90~1\AppData\Local\Temp\ccsGRYiA.s:22595  .debug_str:000000000000b1b4 .LASF2268
C:\Users\CYMR90~1\AppData\Local\Temp\ccsGRYiA.s:21381  .debug_str:0000000000006399 .LASF2269
C:\Users\CYMR90~1\AppData\Local\Temp\ccsGRYiA.s:28754  .debug_str:0000000000023b54 .LASF2270
C:\Users\CYMR90~1\AppData\Local\Temp\ccsGRYiA.s:27924  .debug_str:0000000000020940 .LASF2271
C:\Users\CYMR90~1\AppData\Local\Temp\ccsGRYiA.s:24361  .debug_str:0000000000012418 .LASF2272
C:\Users\CYMR90~1\AppData\Local\Temp\ccsGRYiA.s:29006  .debug_str:0000000000024cf1 .LASF2273
C:\Users\CYMR90~1\AppData\Local\Temp\ccsGRYiA.s:29616  .debug_str:0000000000027496 .LASF2274
C:\Users\CYMR90~1\AppData\Local\Temp\ccsGRYiA.s:22147  .debug_str:00000000000094af .LASF2275
C:\Users\CYMR90~1\AppData\Local\Temp\ccsGRYiA.s:23471  .debug_str:000000000000ea6b .LASF2276
C:\Users\CYMR90~1\AppData\Local\Temp\ccsGRYiA.s:21513  .debug_str:0000000000006bae .LASF2277
C:\Users\CYMR90~1\AppData\Local\Temp\ccsGRYiA.s:23875  .debug_str:00000000000103b0 .LASF2278
C:\Users\CYMR90~1\AppData\Local\Temp\ccsGRYiA.s:30706  .debug_str:000000000002b9cd .LASF2279
C:\Users\CYMR90~1\AppData\Local\Temp\ccsGRYiA.s:29394  .debug_str:00000000000266dd .LASF2280
C:\Users\CYMR90~1\AppData\Local\Temp\ccsGRYiA.s:19947  .debug_str:0000000000000934 .LASF2281
C:\Users\CYMR90~1\AppData\Local\Temp\ccsGRYiA.s:24265  .debug_str:0000000000011d6c .LASF2282
C:\Users\CYMR90~1\AppData\Local\Temp\ccsGRYiA.s:27408  .debug_str:000000000001ea21 .LASF2283
C:\Users\CYMR90~1\AppData\Local\Temp\ccsGRYiA.s:30652  .debug_str:000000000002b665 .LASF2284
C:\Users\CYMR90~1\AppData\Local\Temp\ccsGRYiA.s:22597  .debug_str:000000000000b1d9 .LASF2285
C:\Users\CYMR90~1\AppData\Local\Temp\ccsGRYiA.s:21555  .debug_str:0000000000006e6e .LASF2286
C:\Users\CYMR90~1\AppData\Local\Temp\ccsGRYiA.s:28964  .debug_str:00000000000249f6 .LASF2287
C:\Users\CYMR90~1\AppData\Local\Temp\ccsGRYiA.s:28712  .debug_str:000000000002391a .LASF2288
C:\Users\CYMR90~1\AppData\Local\Temp\ccsGRYiA.s:24043  .debug_str:0000000000010edb .LASF2289
C:\Users\CYMR90~1\AppData\Local\Temp\ccsGRYiA.s:27192  .debug_str:000000000001dcf7 .LASF2290
C:\Users\CYMR90~1\AppData\Local\Temp\ccsGRYiA.s:30394  .debug_str:000000000002a664 .LASF2291
C:\Users\CYMR90~1\AppData\Local\Temp\ccsGRYiA.s:20247  .debug_str:0000000000001c52 .LASF2292
C:\Users\CYMR90~1\AppData\Local\Temp\ccsGRYiA.s:24951  .debug_str:00000000000149cd .LASF2293
C:\Users\CYMR90~1\AppData\Local\Temp\ccsGRYiA.s:29618  .debug_str:00000000000274a8 .LASF2294
C:\Users\CYMR90~1\AppData\Local\Temp\ccsGRYiA.s:26560  .debug_str:000000000001b436 .LASF2295
C:\Users\CYMR90~1\AppData\Local\Temp\ccsGRYiA.s:27702  .debug_str:000000000001fbbf .LASF2296
C:\Users\CYMR90~1\AppData\Local\Temp\ccsGRYiA.s:21115  .debug_str:000000000000534a .LASF2297
C:\Users\CYMR90~1\AppData\Local\Temp\ccsGRYiA.s:25830  .debug_str:00000000000182e4 .LASF2298
C:\Users\CYMR90~1\AppData\Local\Temp\ccsGRYiA.s:30496  .debug_str:000000000002ac49 .LASF2299
C:\Users\CYMR90~1\AppData\Local\Temp\ccsGRYiA.s:26676  .debug_str:000000000001bae2 .LASF2300
C:\Users\CYMR90~1\AppData\Local\Temp\ccsGRYiA.s:29676  .debug_str:0000000000027839 .LASF2301
C:\Users\CYMR90~1\AppData\Local\Temp\ccsGRYiA.s:23121  .debug_str:000000000000d548 .LASF2302
C:\Users\CYMR90~1\AppData\Local\Temp\ccsGRYiA.s:27760  .debug_str:000000000001ff60 .LASF2303
C:\Users\CYMR90~1\AppData\Local\Temp\ccsGRYiA.s:21163  .debug_str:0000000000005600 .LASF2304
C:\Users\CYMR90~1\AppData\Local\Temp\ccsGRYiA.s:25884  .debug_str:0000000000018621 .LASF2305
C:\Users\CYMR90~1\AppData\Local\Temp\ccsGRYiA.s:30552  .debug_str:000000000002af78 .LASF2306
C:\Users\CYMR90~1\AppData\Local\Temp\ccsGRYiA.s:30428  .debug_str:000000000002a82b .LASF2307
C:\Users\CYMR90~1\AppData\Local\Temp\ccsGRYiA.s:22387  .debug_str:000000000000a428 .LASF2308
C:\Users\CYMR90~1\AppData\Local\Temp\ccsGRYiA.s:25576  .debug_str:0000000000017366 .LASF2309
C:\Users\CYMR90~1\AppData\Local\Temp\ccsGRYiA.s:28758  .debug_str:0000000000023b85 .LASF2310
C:\Users\CYMR90~1\AppData\Local\Temp\ccsGRYiA.s:20677  .debug_str:00000000000036b8 .LASF2311
C:\Users\CYMR90~1\AppData\Local\Temp\ccsGRYiA.s:23921  .debug_str:0000000000010737 .LASF2312
C:\Users\CYMR90~1\AppData\Local\Temp\ccsGRYiA.s:27086  .debug_str:000000000001d65e .LASF2313
C:\Users\CYMR90~1\AppData\Local\Temp\ccsGRYiA.s:24115  .debug_str:00000000000112d0 .LASF2314
C:\Users\CYMR90~1\AppData\Local\Temp\ccsGRYiA.s:24709  .debug_str:0000000000013ae2 .LASF2315
C:\Users\CYMR90~1\AppData\Local\Temp\ccsGRYiA.s:23097  .debug_str:000000000000d3c3 .LASF2316
C:\Users\CYMR90~1\AppData\Local\Temp\ccsGRYiA.s:26452  .debug_str:000000000001acee .LASF2317
C:\Users\CYMR90~1\AppData\Local\Temp\ccsGRYiA.s:19833  .debug_str:0000000000000241 .LASF2318
C:\Users\CYMR90~1\AppData\Local\Temp\ccsGRYiA.s:28390  .debug_str:0000000000022574 .LASF2319
C:\Users\CYMR90~1\AppData\Local\Temp\ccsGRYiA.s:29168  .debug_str:00000000000258d6 .LASF2320
C:\Users\CYMR90~1\AppData\Local\Temp\ccsGRYiA.s:22631  .debug_str:000000000000b3cf .LASF2321
C:\Users\CYMR90~1\AppData\Local\Temp\ccsGRYiA.s:27258  .debug_str:000000000001e0e1 .LASF2322
C:\Users\CYMR90~1\AppData\Local\Temp\ccsGRYiA.s:22949  .debug_str:000000000000ca09 .LASF2323
C:\Users\CYMR90~1\AppData\Local\Temp\ccsGRYiA.s:25377  .debug_str:000000000001645e .LASF2324
C:\Users\CYMR90~1\AppData\Local\Temp\ccsGRYiA.s:27464  .debug_str:000000000001ed28 .LASF2325
C:\Users\CYMR90~1\AppData\Local\Temp\ccsGRYiA.s:24581  .debug_str:000000000001328f .LASF2326
C:\Users\CYMR90~1\AppData\Local\Temp\ccsGRYiA.s:29220  .debug_str:0000000000025bfc .LASF2327
C:\Users\CYMR90~1\AppData\Local\Temp\ccsGRYiA.s:28812  .debug_str:0000000000023edb .LASF2328
C:\Users\CYMR90~1\AppData\Local\Temp\ccsGRYiA.s:27304  .debug_str:000000000001e3b4 .LASF2329
C:\Users\CYMR90~1\AppData\Local\Temp\ccsGRYiA.s:20721  .debug_str:000000000000399e .LASF2330
C:\Users\CYMR90~1\AppData\Local\Temp\ccsGRYiA.s:25435  .debug_str:0000000000016853 .LASF2331
C:\Users\CYMR90~1\AppData\Local\Temp\ccsGRYiA.s:22513  .debug_str:000000000000abd3 .LASF2332
C:\Users\CYMR90~1\AppData\Local\Temp\ccsGRYiA.s:25602  .debug_str:00000000000174ce .LASF2333
C:\Users\CYMR90~1\AppData\Local\Temp\ccsGRYiA.s:28798  .debug_str:0000000000023e2a .LASF2334
C:\Users\CYMR90~1\AppData\Local\Temp\ccsGRYiA.s:20705  .debug_str:0000000000003899 .LASF2335
C:\Users\CYMR90~1\AppData\Local\Temp\ccsGRYiA.s:23955  .debug_str:0000000000010925 .LASF2336
C:\Users\CYMR90~1\AppData\Local\Temp\ccsGRYiA.s:24195  .debug_str:00000000000118b3 .LASF2337
C:\Users\CYMR90~1\AppData\Local\Temp\ccsGRYiA.s:30318  .debug_str:000000000002a174 .LASF2338
C:\Users\CYMR90~1\AppData\Local\Temp\ccsGRYiA.s:20907  .debug_str:00000000000045f5 .LASF2339
C:\Users\CYMR90~1\AppData\Local\Temp\ccsGRYiA.s:29586  .debug_str:00000000000272f9 .LASF2340
C:\Users\CYMR90~1\AppData\Local\Temp\ccsGRYiA.s:28560  .debug_str:0000000000022f9d .LASF2341
C:\Users\CYMR90~1\AppData\Local\Temp\ccsGRYiA.s:29896  .debug_str:00000000000287d6 .LASF2342
C:\Users\CYMR90~1\AppData\Local\Temp\ccsGRYiA.s:23339  .debug_str:000000000000e23a .LASF2343
C:\Users\CYMR90~1\AppData\Local\Temp\ccsGRYiA.s:27984  .debug_str:0000000000020cf1 .LASF2344
C:\Users\CYMR90~1\AppData\Local\Temp\ccsGRYiA.s:21403  .debug_str:00000000000064e9 .LASF2345
C:\Users\CYMR90~1\AppData\Local\Temp\ccsGRYiA.s:26116  .debug_str:00000000000195fc .LASF2346
C:\Users\CYMR90~1\AppData\Local\Temp\ccsGRYiA.s:30776  .debug_str:000000000002be93 .LASF2347
C:\Users\CYMR90~1\AppData\Local\Temp\ccsGRYiA.s:24203  .debug_str:0000000000011920 .LASF2348
C:\Users\CYMR90~1\AppData\Local\Temp\ccsGRYiA.s:28866  .debug_str:0000000000024376 .LASF2349
C:\Users\CYMR90~1\AppData\Local\Temp\ccsGRYiA.s:22803  .debug_str:000000000000bfd0 .LASF2350
C:\Users\CYMR90~1\AppData\Local\Temp\ccsGRYiA.s:28038  .debug_str:0000000000020fca .LASF2351
C:\Users\CYMR90~1\AppData\Local\Temp\ccsGRYiA.s:21453  .debug_str:00000000000067b2 .LASF2352
C:\Users\CYMR90~1\AppData\Local\Temp\ccsGRYiA.s:26166  .debug_str:0000000000019988 .LASF2353
C:\Users\CYMR90~1\AppData\Local\Temp\ccsGRYiA.s:30826  .debug_str:000000000002c24e .LASF2354
C:\Users\CYMR90~1\AppData\Local\Temp\ccsGRYiA.s:24257  .debug_str:0000000000011cc9 .LASF2355
C:\Users\CYMR90~1\AppData\Local\Temp\ccsGRYiA.s:24173  .debug_str:00000000000116bf .LASF2356
C:\Users\CYMR90~1\AppData\Local\Temp\ccsGRYiA.s:27724  .debug_str:000000000001fd20 .LASF2357
C:\Users\CYMR90~1\AppData\Local\Temp\ccsGRYiA.s:29024  .debug_str:0000000000024e00 .LASF2358
C:\Users\CYMR90~1\AppData\Local\Temp\ccsGRYiA.s:27378  .debug_str:000000000001e868 .LASF2359
C:\Users\CYMR90~1\AppData\Local\Temp\ccsGRYiA.s:26010  .debug_str:0000000000018e7d .LASF2360
C:\Users\CYMR90~1\AppData\Local\Temp\ccsGRYiA.s:29170  .debug_str:00000000000258ef .LASF2361
C:\Users\CYMR90~1\AppData\Local\Temp\ccsGRYiA.s:22575  .debug_str:000000000000b09c .LASF2362
C:\Users\CYMR90~1\AppData\Local\Temp\ccsGRYiA.s:24335  .debug_str:0000000000012278 .LASF2363
C:\Users\CYMR90~1\AppData\Local\Temp\ccsGRYiA.s:27472  .debug_str:000000000001eda4 .LASF2364
C:\Users\CYMR90~1\AppData\Local\Temp\ccsGRYiA.s:28954  .debug_str:000000000002496c .LASF2365
C:\Users\CYMR90~1\AppData\Local\Temp\ccsGRYiA.s:22579  .debug_str:000000000000b0d9 .LASF2366
C:\Users\CYMR90~1\AppData\Local\Temp\ccsGRYiA.s:28878  .debug_str:000000000002441b .LASF2367
C:\Users\CYMR90~1\AppData\Local\Temp\ccsGRYiA.s:30648  .debug_str:000000000002b5d5 .LASF2368
C:\Users\CYMR90~1\AppData\Local\Temp\ccsGRYiA.s:26970  .debug_str:000000000001ce77 .LASF2369
C:\Users\CYMR90~1\AppData\Local\Temp\ccsGRYiA.s:20373  .debug_str:000000000000236e .LASF2370
C:\Users\CYMR90~1\AppData\Local\Temp\ccsGRYiA.s:25071  .debug_str:0000000000015196 .LASF2371
C:\Users\CYMR90~1\AppData\Local\Temp\ccsGRYiA.s:29742  .debug_str:0000000000027cd5 .LASF2372
C:\Users\CYMR90~1\AppData\Local\Temp\ccsGRYiA.s:23183  .debug_str:000000000000d8d8 .LASF2373
C:\Users\CYMR90~1\AppData\Local\Temp\ccsGRYiA.s:27826  .debug_str:0000000000020304 .LASF2374
C:\Users\CYMR90~1\AppData\Local\Temp\ccsGRYiA.s:25954  .debug_str:0000000000018a66 .LASF2375
C:\Users\CYMR90~1\AppData\Local\Temp\ccsGRYiA.s:20783  .debug_str:0000000000003d7c .LASF2376
C:\Users\CYMR90~1\AppData\Local\Temp\ccsGRYiA.s:20429  .debug_str:00000000000026e8 .LASF2377
C:\Users\CYMR90~1\AppData\Local\Temp\ccsGRYiA.s:24633  .debug_str:0000000000013649 .LASF2378
C:\Users\CYMR90~1\AppData\Local\Temp\ccsGRYiA.s:29796  .debug_str:0000000000028131 .LASF2379
C:\Users\CYMR90~1\AppData\Local\Temp\ccsGRYiA.s:23239  .debug_str:000000000000dc05 .LASF2380
C:\Users\CYMR90~1\AppData\Local\Temp\ccsGRYiA.s:27882  .debug_str:00000000000206b7 .LASF2381
C:\Users\CYMR90~1\AppData\Local\Temp\ccsGRYiA.s:30018  .debug_str:0000000000028f74 .LASF2382
C:\Users\CYMR90~1\AppData\Local\Temp\ccsGRYiA.s:20573  .debug_str:0000000000002fde .LASF2383
C:\Users\CYMR90~1\AppData\Local\Temp\ccsGRYiA.s:25153  .debug_str:0000000000015630 .LASF2384
C:\Users\CYMR90~1\AppData\Local\Temp\ccsGRYiA.s:29782  .debug_str:0000000000027fc5 .LASF2385
C:\Users\CYMR90~1\AppData\Local\Temp\ccsGRYiA.s:28156  .debug_str:0000000000021776 .LASF2386
C:\Users\CYMR90~1\AppData\Local\Temp\ccsGRYiA.s:26568  .debug_str:000000000001b4ae .LASF2387
C:\Users\CYMR90~1\AppData\Local\Temp\ccsGRYiA.s:26682  .debug_str:000000000001bb2d .LASF2388
C:\Users\CYMR90~1\AppData\Local\Temp\ccsGRYiA.s:29872  .debug_str:0000000000028669 .LASF2389
C:\Users\CYMR90~1\AppData\Local\Temp\ccsGRYiA.s:21809  .debug_str:0000000000007f5c .LASF2390
C:\Users\CYMR90~1\AppData\Local\Temp\ccsGRYiA.s:24921  .debug_str:000000000001481f .LASF2391
C:\Users\CYMR90~1\AppData\Local\Temp\ccsGRYiA.s:24637  .debug_str:0000000000013676 .LASF2392
C:\Users\CYMR90~1\AppData\Local\Temp\ccsGRYiA.s:29280  .debug_str:0000000000025fbc .LASF2393
C:\Users\CYMR90~1\AppData\Local\Temp\ccsGRYiA.s:26278  .debug_str:000000000001a057 .LASF2394
C:\Users\CYMR90~1\AppData\Local\Temp\ccsGRYiA.s:27356  .debug_str:000000000001e6c1 .LASF2395
C:\Users\CYMR90~1\AppData\Local\Temp\ccsGRYiA.s:20773  .debug_str:0000000000003ce9 .LASF2396
C:\Users\CYMR90~1\AppData\Local\Temp\ccsGRYiA.s:25498  .debug_str:0000000000016eb3 .LASF2397
C:\Users\CYMR90~1\AppData\Local\Temp\ccsGRYiA.s:30154  .debug_str:00000000000297d4 .LASF2398
C:\Users\CYMR90~1\AppData\Local\Temp\ccsGRYiA.s:23605  .debug_str:000000000000f27b .LASF2399
C:\Users\CYMR90~1\AppData\Local\Temp\ccsGRYiA.s:21665  .debug_str:0000000000007593 .LASF2400
C:\Users\CYMR90~1\AppData\Local\Temp\ccsGRYiA.s:22773  .debug_str:000000000000bdb6 .LASF2401
C:\Users\CYMR90~1\AppData\Local\Temp\ccsGRYiA.s:27398  .debug_str:000000000001e99c .LASF2402
C:\Users\CYMR90~1\AppData\Local\Temp\ccsGRYiA.s:20821  .debug_str:0000000000003fdd .LASF2403
C:\Users\CYMR90~1\AppData\Local\Temp\ccsGRYiA.s:20217  .debug_str:0000000000001a64 .LASF2404
C:\Users\CYMR90~1\AppData\Local\Temp\ccsGRYiA.s:30206  .debug_str:0000000000029af9 .LASF2405
C:\Users\CYMR90~1\AppData\Local\Temp\ccsGRYiA.s:23667  .debug_str:000000000000f641 .LASF2406
C:\Users\CYMR90~1\AppData\Local\Temp\ccsGRYiA.s:23383  .debug_str:000000000000e4be .LASF2407
C:\Users\CYMR90~1\AppData\Local\Temp\ccsGRYiA.s:26578  .debug_str:000000000001b55c .LASF2408
C:\Users\CYMR90~1\AppData\Local\Temp\ccsGRYiA.s:29752  .debug_str:0000000000027d7c .LASF2409
C:\Users\CYMR90~1\AppData\Local\Temp\ccsGRYiA.s:21683  .debug_str:00000000000076c8 .LASF2410
C:\Users\CYMR90~1\AppData\Local\Temp\ccsGRYiA.s:24805  .debug_str:0000000000014081 .LASF2411
C:\Users\CYMR90~1\AppData\Local\Temp\ccsGRYiA.s:27982  .debug_str:0000000000020cde .LASF2412
C:\Users\CYMR90~1\AppData\Local\Temp\ccsGRYiA.s:26002  .debug_str:0000000000018e1f .LASF2413
C:\Users\CYMR90~1\AppData\Local\Temp\ccsGRYiA.s:23149  .debug_str:000000000000d6ee .LASF2414
C:\Users\CYMR90~1\AppData\Local\Temp\ccsGRYiA.s:26356  .debug_str:000000000001a671 .LASF2415
C:\Users\CYMR90~1\AppData\Local\Temp\ccsGRYiA.s:29514  .debug_str:0000000000026e28 .LASF2416
C:\Users\CYMR90~1\AppData\Local\Temp\ccsGRYiA.s:29838  .debug_str:00000000000283ee .LASF2417
C:\Users\CYMR90~1\AppData\Local\Temp\ccsGRYiA.s:23285  .debug_str:000000000000def1 .LASF2418
C:\Users\CYMR90~1\AppData\Local\Temp\ccsGRYiA.s:27928  .debug_str:000000000002096f .LASF2419
C:\Users\CYMR90~1\AppData\Local\Temp\ccsGRYiA.s:21327  .debug_str:000000000000603e .LASF2420
C:\Users\CYMR90~1\AppData\Local\Temp\ccsGRYiA.s:26054  .debug_str:0000000000019257 .LASF2421
C:\Users\CYMR90~1\AppData\Local\Temp\ccsGRYiA.s:26822  .debug_str:000000000001c40d .LASF2422
C:\Users\CYMR90~1\AppData\Local\Temp\ccsGRYiA.s:23111  .debug_str:000000000000d4a9 .LASF2423
C:\Users\CYMR90~1\AppData\Local\Temp\ccsGRYiA.s:28808  .debug_str:0000000000023e9a .LASF2424
C:\Users\CYMR90~1\AppData\Local\Temp\ccsGRYiA.s:26908  .debug_str:000000000001ca0f .LASF2425
C:\Users\CYMR90~1\AppData\Local\Temp\ccsGRYiA.s:28072  .debug_str:00000000000211cd .LASF2426
C:\Users\CYMR90~1\AppData\Local\Temp\ccsGRYiA.s:21483  .debug_str:00000000000069c6 .LASF2427
C:\Users\CYMR90~1\AppData\Local\Temp\ccsGRYiA.s:26192  .debug_str:0000000000019b3f .LASF2428
C:\Users\CYMR90~1\AppData\Local\Temp\ccsGRYiA.s:30854  .debug_str:000000000002c40c .LASF2429
C:\Users\CYMR90~1\AppData\Local\Temp\ccsGRYiA.s:24283  .debug_str:0000000000011e71 .LASF2430
C:\Users\CYMR90~1\AppData\Local\Temp\ccsGRYiA.s:28936  .debug_str:00000000000247c6 .LASF2431
C:\Users\CYMR90~1\AppData\Local\Temp\ccsGRYiA.s:24487  .debug_str:0000000000012c4b .LASF2432
C:\Users\CYMR90~1\AppData\Local\Temp\ccsGRYiA.s:20659  .debug_str:000000000000359f .LASF2433
C:\Users\CYMR90~1\AppData\Local\Temp\ccsGRYiA.s:25854  .debug_str:0000000000018448 .LASF2434
C:\Users\CYMR90~1\AppData\Local\Temp\ccsGRYiA.s:22221  .debug_str:00000000000099b7 .LASF2435
C:\Users\CYMR90~1\AppData\Local\Temp\ccsGRYiA.s:30614  .debug_str:000000000002b3a1 .LASF2436
C:\Users\CYMR90~1\AppData\Local\Temp\ccsGRYiA.s:29240  .debug_str:0000000000025d29 .LASF2437
C:\Users\CYMR90~1\AppData\Local\Temp\ccsGRYiA.s:25277  .debug_str:0000000000015de2 .LASF2438
C:\Users\CYMR90~1\AppData\Local\Temp\ccsGRYiA.s:25041  .debug_str:0000000000014fd4 .LASF2439
C:\Users\CYMR90~1\AppData\Local\Temp\ccsGRYiA.s:25419  .debug_str:000000000001675c .LASF2440
C:\Users\CYMR90~1\AppData\Local\Temp\ccsGRYiA.s:22285  .debug_str:0000000000009d9b .LASF2441
C:\Users\CYMR90~1\AppData\Local\Temp\ccsGRYiA.s:28914  .debug_str:0000000000024670 .LASF2442
C:\Users\CYMR90~1\AppData\Local\Temp\ccsGRYiA.s:29970  .debug_str:0000000000028c77 .LASF2443
C:\Users\CYMR90~1\AppData\Local\Temp\ccsGRYiA.s:19913  .debug_str:0000000000000719 .LASF2444
C:\Users\CYMR90~1\AppData\Local\Temp\ccsGRYiA.s:21703  .debug_str:000000000000780a .LASF2445
C:\Users\CYMR90~1\AppData\Local\Temp\ccsGRYiA.s:20699  .debug_str:0000000000003846 .LASF2446
C:\Users\CYMR90~1\AppData\Local\Temp\ccsGRYiA.s:29134  .debug_str:000000000002562d .LASF2447
C:\Users\CYMR90~1\AppData\Local\Temp\ccsGRYiA.s:24285  .debug_str:0000000000011e86 .LASF2448
C:\Users\CYMR90~1\AppData\Local\Temp\ccsGRYiA.s:23059  .debug_str:000000000000d0c2 .LASF2449
C:\Users\CYMR90~1\AppData\Local\Temp\ccsGRYiA.s:27658  .debug_str:000000000001f8ee .LASF2450
C:\Users\CYMR90~1\AppData\Local\Temp\ccsGRYiA.s:26790  .debug_str:000000000001c244 .LASF2451
C:\Users\CYMR90~1\AppData\Local\Temp\ccsGRYiA.s:20745  .debug_str:0000000000003af9 .LASF2452
C:\Users\CYMR90~1\AppData\Local\Temp\ccsGRYiA.s:29288  .debug_str:000000000002604c .LASF2453
C:\Users\CYMR90~1\AppData\Local\Temp\ccsGRYiA.s:23033  .debug_str:000000000000cf08 .LASF2454
C:\Users\CYMR90~1\AppData\Local\Temp\ccsGRYiA.s:22125  .debug_str:0000000000009367 .LASF2455
C:\Users\CYMR90~1\AppData\Local\Temp\ccsGRYiA.s:21087  .debug_str:0000000000005177 .LASF2456
C:\Users\CYMR90~1\AppData\Local\Temp\ccsGRYiA.s:29626  .debug_str:0000000000027528 .LASF2457
C:\Users\CYMR90~1\AppData\Local\Temp\ccsGRYiA.s:29926  .debug_str:00000000000289d7 .LASF2458
C:\Users\CYMR90~1\AppData\Local\Temp\ccsGRYiA.s:24141  .debug_str:0000000000011482 .LASF2459
C:\Users\CYMR90~1\AppData\Local\Temp\ccsGRYiA.s:28022  .debug_str:0000000000020f02 .LASF2460
C:\Users\CYMR90~1\AppData\Local\Temp\ccsGRYiA.s:25199  .debug_str:00000000000158cf .LASF2461
C:\Users\CYMR90~1\AppData\Local\Temp\ccsGRYiA.s:25756  .debug_str:0000000000017e72 .LASF2462
C:\Users\CYMR90~1\AppData\Local\Temp\ccsGRYiA.s:24615  .debug_str:0000000000013512 .LASF2463
C:\Users\CYMR90~1\AppData\Local\Temp\ccsGRYiA.s:25097  .debug_str:000000000001535b .LASF2464
C:\Users\CYMR90~1\AppData\Local\Temp\ccsGRYiA.s:23817  .debug_str:000000000000fffa .LASF2465
C:\Users\CYMR90~1\AppData\Local\Temp\ccsGRYiA.s:24095  .debug_str:00000000000111b6 .LASF2466
C:\Users\CYMR90~1\AppData\Local\Temp\ccsGRYiA.s:23189  .debug_str:000000000000d92b .LASF2467
C:\Users\CYMR90~1\AppData\Local\Temp\ccsGRYiA.s:22201  .debug_str:0000000000009808 .LASF2468
C:\Users\CYMR90~1\AppData\Local\Temp\ccsGRYiA.s:30612  .debug_str:000000000002b37e .LASF2469
C:\Users\CYMR90~1\AppData\Local\Temp\ccsGRYiA.s:22671  .debug_str:000000000000b6f4 .LASF2470
C:\Users\CYMR90~1\AppData\Local\Temp\ccsGRYiA.s:29964  .debug_str:0000000000028c1a .LASF2471
C:\Users\CYMR90~1\AppData\Local\Temp\ccsGRYiA.s:28700  .debug_str:0000000000023853 .LASF2472
C:\Users\CYMR90~1\AppData\Local\Temp\ccsGRYiA.s:25584  .debug_str:00000000000173d5 .LASF2473
C:\Users\CYMR90~1\AppData\Local\Temp\ccsGRYiA.s:25217  .debug_str:0000000000015a05 .LASF2474
C:\Users\CYMR90~1\AppData\Local\Temp\ccsGRYiA.s:25345  .debug_str:000000000001629e .LASF2475
C:\Users\CYMR90~1\AppData\Local\Temp\ccsGRYiA.s:29648  .debug_str:0000000000027668 .LASF2476
C:\Users\CYMR90~1\AppData\Local\Temp\ccsGRYiA.s:23049  .debug_str:000000000000d00c .LASF2477
C:\Users\CYMR90~1\AppData\Local\Temp\ccsGRYiA.s:27444  .debug_str:000000000001ebeb .LASF2478
C:\Users\CYMR90~1\AppData\Local\Temp\ccsGRYiA.s:21603  .debug_str:000000000000719e .LASF2479
C:\Users\CYMR90~1\AppData\Local\Temp\ccsGRYiA.s:20051  .debug_str:0000000000001001 .LASF2480
C:\Users\CYMR90~1\AppData\Local\Temp\ccsGRYiA.s:26442  .debug_str:000000000001ac6a .LASF2481
C:\Users\CYMR90~1\AppData\Local\Temp\ccsGRYiA.s:22459  .debug_str:000000000000a890 .LASF2482
C:\Users\CYMR90~1\AppData\Local\Temp\ccsGRYiA.s:25325  .debug_str:0000000000016168 .LASF2483
C:\Users\CYMR90~1\AppData\Local\Temp\ccsGRYiA.s:22771  .debug_str:000000000000bd9e .LASF2484
C:\Users\CYMR90~1\AppData\Local\Temp\ccsGRYiA.s:22897  .debug_str:000000000000c580 .LASF2485
C:\Users\CYMR90~1\AppData\Local\Temp\ccsGRYiA.s:26830  .debug_str:000000000001c472 .LASF2486
C:\Users\CYMR90~1\AppData\Local\Temp\ccsGRYiA.s:21033  .debug_str:0000000000004e35 .LASF2487
C:\Users\CYMR90~1\AppData\Local\Temp\ccsGRYiA.s:26688  .debug_str:000000000001bb84 .LASF2488
C:\Users\CYMR90~1\AppData\Local\Temp\ccsGRYiA.s:25203  .debug_str:0000000000015938 .LASF2489
C:\Users\CYMR90~1\AppData\Local\Temp\ccsGRYiA.s:30106  .debug_str:0000000000029508 .LASF2490
C:\Users\CYMR90~1\AppData\Local\Temp\ccsGRYiA.s:28306  .debug_str:0000000000022096 .LASF2491
C:\Users\CYMR90~1\AppData\Local\Temp\ccsGRYiA.s:21001  .debug_str:0000000000004c67 .LASF2492
C:\Users\CYMR90~1\AppData\Local\Temp\ccsGRYiA.s:20065  .debug_str:00000000000010d4 .LASF2493
C:\Users\CYMR90~1\AppData\Local\Temp\ccsGRYiA.s:30376  .debug_str:000000000002a544 .LASF2494
C:\Users\CYMR90~1\AppData\Local\Temp\ccsGRYiA.s:20007  .debug_str:0000000000000d13 .LASF2495
C:\Users\CYMR90~1\AppData\Local\Temp\ccsGRYiA.s:21723  .debug_str:0000000000007951 .LASF2496
C:\Users\CYMR90~1\AppData\Local\Temp\ccsGRYiA.s:22199  .debug_str:00000000000097e8 .LASF2497
C:\Users\CYMR90~1\AppData\Local\Temp\ccsGRYiA.s:24465  .debug_str:0000000000012b1f .LASF2498
C:\Users\CYMR90~1\AppData\Local\Temp\ccsGRYiA.s:22255  .debug_str:0000000000009be4 .LASF2499
C:\Users\CYMR90~1\AppData\Local\Temp\ccsGRYiA.s:28320  .debug_str:0000000000022170 .LASF2500
C:\Users\CYMR90~1\AppData\Local\Temp\ccsGRYiA.s:26700  .debug_str:000000000001bc78 .LASF2501
C:\Users\CYMR90~1\AppData\Local\Temp\ccsGRYiA.s:20233  .debug_str:0000000000001b5e .LASF2502
C:\Users\CYMR90~1\AppData\Local\Temp\ccsGRYiA.s:27396  .debug_str:000000000001e97a .LASF2503
C:\Users\CYMR90~1\AppData\Local\Temp\ccsGRYiA.s:30948  .debug_str:000000000002c9ec .LASF2504
C:\Users\CYMR90~1\AppData\Local\Temp\ccsGRYiA.s:20243  .debug_str:0000000000001c18 .LASF2505
C:\Users\CYMR90~1\AppData\Local\Temp\ccsGRYiA.s:24721  .debug_str:0000000000013b92 .LASF2506
C:\Users\CYMR90~1\AppData\Local\Temp\ccsGRYiA.s:28284  .debug_str:0000000000021f3a .LASF2507
C:\Users\CYMR90~1\AppData\Local\Temp\ccsGRYiA.s:30724  .debug_str:000000000002bb06 .LASF2508
C:\Users\CYMR90~1\AppData\Local\Temp\ccsGRYiA.s:24149  .debug_str:0000000000011526 .LASF2509
C:\Users\CYMR90~1\AppData\Local\Temp\ccsGRYiA.s:23493  .debug_str:000000000000ec27 .LASF2510
C:\Users\CYMR90~1\AppData\Local\Temp\ccsGRYiA.s:26954  .debug_str:000000000001ccd2 .LASF2511
C:\Users\CYMR90~1\AppData\Local\Temp\ccsGRYiA.s:26228  .debug_str:0000000000019d60 .LASF2512
C:\Users\CYMR90~1\AppData\Local\Temp\ccsGRYiA.s:21049  .debug_str:0000000000004f36 .LASF2513
C:\Users\CYMR90~1\AppData\Local\Temp\ccsGRYiA.s:20961  .debug_str:00000000000049f7 .LASF2514
C:\Users\CYMR90~1\AppData\Local\Temp\ccsGRYiA.s:30980  .debug_str:000000000002cc3f .LASF2515
C:\Users\CYMR90~1\AppData\Local\Temp\ccsGRYiA.s:27564  .debug_str:000000000001f361 .LASF2516
C:\Users\CYMR90~1\AppData\Local\Temp\ccsGRYiA.s:21881  .debug_str:00000000000084a2 .LASF2517
C:\Users\CYMR90~1\AppData\Local\Temp\ccsGRYiA.s:21869  .debug_str:0000000000008401 .LASF2518
C:\Users\CYMR90~1\AppData\Local\Temp\ccsGRYiA.s:29176  .debug_str:0000000000025949 .LASF2519
C:\Users\CYMR90~1\AppData\Local\Temp\ccsGRYiA.s:24107  .debug_str:0000000000011279 .LASF2520
C:\Users\CYMR90~1\AppData\Local\Temp\ccsGRYiA.s:25343  .debug_str:000000000001627a .LASF2521
C:\Users\CYMR90~1\AppData\Local\Temp\ccsGRYiA.s:26646  .debug_str:000000000001b971 .LASF2522
C:\Users\CYMR90~1\AppData\Local\Temp\ccsGRYiA.s:29902  .debug_str:0000000000028865 .LASF2523
C:\Users\CYMR90~1\AppData\Local\Temp\ccsGRYiA.s:28162  .debug_str:00000000000217e4 .LASF2524
C:\Users\CYMR90~1\AppData\Local\Temp\ccsGRYiA.s:27196  .debug_str:000000000001dd22 .LASF2525
C:\Users\CYMR90~1\AppData\Local\Temp\ccsGRYiA.s:26204  .debug_str:0000000000019c14 .LASF2526
C:\Users\CYMR90~1\AppData\Local\Temp\ccsGRYiA.s:25301  .debug_str:0000000000015fa5 .LASF2527
C:\Users\CYMR90~1\AppData\Local\Temp\ccsGRYiA.s:24369  .debug_str:00000000000124a8 .LASF2528
C:\Users\CYMR90~1\AppData\Local\Temp\ccsGRYiA.s:28546  .debug_str:0000000000022ee0 .LASF2529
C:\Users\CYMR90~1\AppData\Local\Temp\ccsGRYiA.s:25131  .debug_str:0000000000015528 .LASF2530
C:\Users\CYMR90~1\AppData\Local\Temp\ccsGRYiA.s:20883  .debug_str:0000000000004450 .LASF2531
C:\Users\CYMR90~1\AppData\Local\Temp\ccsGRYiA.s:20597  .debug_str:000000000000316c .LASF2532
C:\Users\CYMR90~1\AppData\Local\Temp\ccsGRYiA.s:22127  .debug_str:0000000000009389 .LASF2533
C:\Users\CYMR90~1\AppData\Local\Temp\ccsGRYiA.s:20003  .debug_str:0000000000000cdc .LASF2534
C:\Users\CYMR90~1\AppData\Local\Temp\ccsGRYiA.s:23281  .debug_str:000000000000deb3 .LASF2535
C:\Users\CYMR90~1\AppData\Local\Temp\ccsGRYiA.s:21941  .debug_str:0000000000008832 .LASF2536
C:\Users\CYMR90~1\AppData\Local\Temp\ccsGRYiA.s:20293  .debug_str:0000000000001f0a .LASF2537
C:\Users\CYMR90~1\AppData\Local\Temp\ccsGRYiA.s:22735  .debug_str:000000000000baf3 .LASF2538
C:\Users\CYMR90~1\AppData\Local\Temp\ccsGRYiA.s:20105  .debug_str:0000000000001306 .LASF2539
C:\Users\CYMR90~1\AppData\Local\Temp\ccsGRYiA.s:26328  .debug_str:000000000001a4ec .LASF2540
C:\Users\CYMR90~1\AppData\Local\Temp\ccsGRYiA.s:26114  .debug_str:00000000000195eb .LASF2541
C:\Users\CYMR90~1\AppData\Local\Temp\ccsGRYiA.s:24643  .debug_str:00000000000136e3 .LASF2542
C:\Users\CYMR90~1\AppData\Local\Temp\ccsGRYiA.s:29804  .debug_str:00000000000281ab .LASF2543
C:\Users\CYMR90~1\AppData\Local\Temp\ccsGRYiA.s:22325  .debug_str:000000000000a02c .LASF2544
C:\Users\CYMR90~1\AppData\Local\Temp\ccsGRYiA.s:26370  .debug_str:000000000001a75e .LASF2545
C:\Users\CYMR90~1\AppData\Local\Temp\ccsGRYiA.s:27002  .debug_str:000000000001d104 .LASF2546
C:\Users\CYMR90~1\AppData\Local\Temp\ccsGRYiA.s:25520  .debug_str:000000000001701a .LASF2547
C:\Users\CYMR90~1\AppData\Local\Temp\ccsGRYiA.s:29404  .debug_str:000000000002677b .LASF2548
C:\Users\CYMR90~1\AppData\Local\Temp\ccsGRYiA.s:24585  .debug_str:00000000000132c0 .LASF2549
C:\Users\CYMR90~1\AppData\Local\Temp\ccsGRYiA.s:19871  .debug_str:000000000000048b .LASF2550
C:\Users\CYMR90~1\AppData\Local\Temp\ccsGRYiA.s:20357  .debug_str:0000000000002273 .LASF2551
C:\Users\CYMR90~1\AppData\Local\Temp\ccsGRYiA.s:25161  .debug_str:00000000000156a0 .LASF2552
C:\Users\CYMR90~1\AppData\Local\Temp\ccsGRYiA.s:19991  .debug_str:0000000000000c3b .LASF2553
C:\Users\CYMR90~1\AppData\Local\Temp\ccsGRYiA.s:27102  .debug_str:000000000001d7b2 .LASF2554
C:\Users\CYMR90~1\AppData\Local\Temp\ccsGRYiA.s:22449  .debug_str:000000000000a808 .LASF2555
C:\Users\CYMR90~1\AppData\Local\Temp\ccsGRYiA.s:28984  .debug_str:0000000000024b42 .LASF2556
C:\Users\CYMR90~1\AppData\Local\Temp\ccsGRYiA.s:21147  .debug_str:0000000000005535 .LASF2557
C:\Users\CYMR90~1\AppData\Local\Temp\ccsGRYiA.s:20747  .debug_str:0000000000003b1b .LASF2558
C:\Users\CYMR90~1\AppData\Local\Temp\ccsGRYiA.s:24849  .debug_str:0000000000014380 .LASF2559
C:\Users\CYMR90~1\AppData\Local\Temp\ccsGRYiA.s:22807  .debug_str:000000000000c004 .LASF2560
C:\Users\CYMR90~1\AppData\Local\Temp\ccsGRYiA.s:27552  .debug_str:000000000001f2a6 .LASF2561
C:\Users\CYMR90~1\AppData\Local\Temp\ccsGRYiA.s:23365  .debug_str:000000000000e3a2 .LASF2562
C:\Users\CYMR90~1\AppData\Local\Temp\ccsGRYiA.s:27368  .debug_str:000000000001e7a2 .LASF2563
C:\Users\CYMR90~1\AppData\Local\Temp\ccsGRYiA.s:30932  .debug_str:000000000002c916 .LASF2564
C:\Users\CYMR90~1\AppData\Local\Temp\ccsGRYiA.s:21265  .debug_str:0000000000005c50 .LASF2565
C:\Users\CYMR90~1\AppData\Local\Temp\ccsGRYiA.s:26354  .debug_str:000000000001a653 .LASF2566
C:\Users\CYMR90~1\AppData\Local\Temp\ccsGRYiA.s:22535  .debug_str:000000000000ad48 .LASF2567
C:\Users\CYMR90~1\AppData\Local\Temp\ccsGRYiA.s:29112  .debug_str:000000000002546e .LASF2568
C:\Users\CYMR90~1\AppData\Local\Temp\ccsGRYiA.s:20545  .debug_str:0000000000002e1d .LASF2569
C:\Users\CYMR90~1\AppData\Local\Temp\ccsGRYiA.s:30812  .debug_str:000000000002c123 .LASF2570
C:\Users\CYMR90~1\AppData\Local\Temp\ccsGRYiA.s:20139  .debug_str:000000000000150f .LASF2571
C:\Users\CYMR90~1\AppData\Local\Temp\ccsGRYiA.s:24825  .debug_str:00000000000141ff .LASF2572
C:\Users\CYMR90~1\AppData\Local\Temp\ccsGRYiA.s:28322  .debug_str:0000000000022194 .LASF2573
C:\Users\CYMR90~1\AppData\Local\Temp\ccsGRYiA.s:24743  .debug_str:0000000000013cf0 .LASF2574
C:\Users\CYMR90~1\AppData\Local\Temp\ccsGRYiA.s:24529  .debug_str:0000000000012f20 .LASF2575
C:\Users\CYMR90~1\AppData\Local\Temp\ccsGRYiA.s:27362  .debug_str:000000000001e737 .LASF2576
C:\Users\CYMR90~1\AppData\Local\Temp\ccsGRYiA.s:22661  .debug_str:000000000000b62f .LASF2577
C:\Users\CYMR90~1\AppData\Local\Temp\ccsGRYiA.s:21537  .debug_str:0000000000006d2e .LASF2578
C:\Users\CYMR90~1\AppData\Local\Temp\ccsGRYiA.s:27656  .debug_str:000000000001f8c0 .LASF2579
C:\Users\CYMR90~1\AppData\Local\Temp\ccsGRYiA.s:30162  .debug_str:000000000002983b .LASF2580
C:\Users\CYMR90~1\AppData\Local\Temp\ccsGRYiA.s:25670  .debug_str:0000000000017940 .LASF2581
C:\Users\CYMR90~1\AppData\Local\Temp\ccsGRYiA.s:27016  .debug_str:000000000001d1ef .LASF2582
C:\Users\CYMR90~1\AppData\Local\Temp\ccsGRYiA.s:24909  .debug_str:000000000001475d .LASF2583
C:\Users\CYMR90~1\AppData\Local\Temp\ccsGRYiA.s:23191  .debug_str:000000000000d94e .LASF2584
C:\Users\CYMR90~1\AppData\Local\Temp\ccsGRYiA.s:26534  .debug_str:000000000001b287 .LASF2585
C:\Users\CYMR90~1\AppData\Local\Temp\ccsGRYiA.s:30532  .debug_str:000000000002ae52 .LASF2586
C:\Users\CYMR90~1\AppData\Local\Temp\ccsGRYiA.s:21061  .debug_str:0000000000004fe6 .LASF2587
C:\Users\CYMR90~1\AppData\Local\Temp\ccsGRYiA.s:21695  .debug_str:0000000000007784 .LASF2588
C:\Users\CYMR90~1\AppData\Local\Temp\ccsGRYiA.s:29978  .debug_str:0000000000028d1d .LASF2589
C:\Users\CYMR90~1\AppData\Local\Temp\ccsGRYiA.s:26040  .debug_str:000000000001915f .LASF2590
C:\Users\CYMR90~1\AppData\Local\Temp\ccsGRYiA.s:29052  .debug_str:0000000000024f7c .LASF2591
C:\Users\CYMR90~1\AppData\Local\Temp\ccsGRYiA.s:23041  .debug_str:000000000000cf7e .LASF2592
C:\Users\CYMR90~1\AppData\Local\Temp\ccsGRYiA.s:28218  .debug_str:0000000000021b30 .LASF2593
C:\Users\CYMR90~1\AppData\Local\Temp\ccsGRYiA.s:28470  .debug_str:0000000000022a29 .LASF2594
C:\Users\CYMR90~1\AppData\Local\Temp\ccsGRYiA.s:24135  .debug_str:0000000000011438 .LASF2595
C:\Users\CYMR90~1\AppData\Local\Temp\ccsGRYiA.s:20729  .debug_str:0000000000003a1b .LASF2596
C:\Users\CYMR90~1\AppData\Local\Temp\ccsGRYiA.s:25996  .debug_str:0000000000018d91 .LASF2597
C:\Users\CYMR90~1\AppData\Local\Temp\ccsGRYiA.s:19923  .debug_str:00000000000007c2 .LASF2598
C:\Users\CYMR90~1\AppData\Local\Temp\ccsGRYiA.s:27752  .debug_str:000000000001fefe .LASF2599
C:\Users\CYMR90~1\AppData\Local\Temp\ccsGRYiA.s:29892  .debug_str:00000000000287a4 .LASF2600
C:\Users\CYMR90~1\AppData\Local\Temp\ccsGRYiA.s:21837  .debug_str:00000000000081ba .LASF2601
C:\Users\CYMR90~1\AppData\Local\Temp\ccsGRYiA.s:19881  .debug_str:0000000000000508 .LASF2602
C:\Users\CYMR90~1\AppData\Local\Temp\ccsGRYiA.s:28214  .debug_str:0000000000021af4 .LASF2603
C:\Users\CYMR90~1\AppData\Local\Temp\ccsGRYiA.s:20053  .debug_str:0000000000001013 .LASF2604
C:\Users\CYMR90~1\AppData\Local\Temp\ccsGRYiA.s:23293  .debug_str:000000000000df62 .LASF2605
C:\Users\CYMR90~1\AppData\Local\Temp\ccsGRYiA.s:26500  .debug_str:000000000001b06a .LASF2606
C:\Users\CYMR90~1\AppData\Local\Temp\ccsGRYiA.s:29650  .debug_str:000000000002767b .LASF2607
C:\Users\CYMR90~1\AppData\Local\Temp\ccsGRYiA.s:21581  .debug_str:0000000000007011 .LASF2608
C:\Users\CYMR90~1\AppData\Local\Temp\ccsGRYiA.s:24797  .debug_str:0000000000013ff2 .LASF2609
C:\Users\CYMR90~1\AppData\Local\Temp\ccsGRYiA.s:21259  .debug_str:0000000000005bf6 .LASF2610
C:\Users\CYMR90~1\AppData\Local\Temp\ccsGRYiA.s:25992  .debug_str:0000000000018d69 .LASF2611
C:\Users\CYMR90~1\AppData\Local\Temp\ccsGRYiA.s:30658  .debug_str:000000000002b6be .LASF2612
C:\Users\CYMR90~1\AppData\Local\Temp\ccsGRYiA.s:24087  .debug_str:000000000001113d .LASF2613
C:\Users\CYMR90~1\AppData\Local\Temp\ccsGRYiA.s:28736  .debug_str:0000000000023a5f .LASF2614
C:\Users\CYMR90~1\AppData\Local\Temp\ccsGRYiA.s:22177  .debug_str:00000000000096a9 .LASF2615
C:\Users\CYMR90~1\AppData\Local\Temp\ccsGRYiA.s:22547  .debug_str:000000000000aed1 .LASF2616
C:\Users\CYMR90~1\AppData\Local\Temp\ccsGRYiA.s:23199  .debug_str:000000000000d9de .LASF2617
C:\Users\CYMR90~1\AppData\Local\Temp\ccsGRYiA.s:28464  .debug_str:00000000000229c3 .LASF2618
C:\Users\CYMR90~1\AppData\Local\Temp\ccsGRYiA.s:25722  .debug_str:0000000000017c74 .LASF2619
C:\Users\CYMR90~1\AppData\Local\Temp\ccsGRYiA.s:20979  .debug_str:0000000000004b01 .LASF2620
C:\Users\CYMR90~1\AppData\Local\Temp\ccsGRYiA.s:22417  .debug_str:000000000000a5f5 .LASF2621
C:\Users\CYMR90~1\AppData\Local\Temp\ccsGRYiA.s:27580  .debug_str:000000000001f45e .LASF2622
C:\Users\CYMR90~1\AppData\Local\Temp\ccsGRYiA.s:21551  .debug_str:0000000000006e39 .LASF2623
C:\Users\CYMR90~1\AppData\Local\Temp\ccsGRYiA.s:26704  .debug_str:000000000001bcc5 .LASF2624
C:\Users\CYMR90~1\AppData\Local\Temp\ccsGRYiA.s:27314  .debug_str:000000000001e441 .LASF2625
C:\Users\CYMR90~1\AppData\Local\Temp\ccsGRYiA.s:22645  .debug_str:000000000000b520 .LASF2626
C:\Users\CYMR90~1\AppData\Local\Temp\ccsGRYiA.s:27822  .debug_str:00000000000202c6 .LASF2627
C:\Users\CYMR90~1\AppData\Local\Temp\ccsGRYiA.s:21791  .debug_str:0000000000007e32 .LASF2628
C:\Users\CYMR90~1\AppData\Local\Temp\ccsGRYiA.s:26920  .debug_str:000000000001caaf .LASF2629
C:\Users\CYMR90~1\AppData\Local\Temp\ccsGRYiA.s:20843  .debug_str:00000000000041d0 .LASF2630
C:\Users\CYMR90~1\AppData\Local\Temp\ccsGRYiA.s:28714  .debug_str:0000000000023933 .LASF2631
C:\Users\CYMR90~1\AppData\Local\Temp\ccsGRYiA.s:26020  .debug_str:0000000000018f48 .LASF2632
C:\Users\CYMR90~1\AppData\Local\Temp\ccsGRYiA.s:20319  .debug_str:0000000000002078 .LASF2633
C:\Users\CYMR90~1\AppData\Local\Temp\ccsGRYiA.s:20665  .debug_str:00000000000035e8 .LASF2634
C:\Users\CYMR90~1\AppData\Local\Temp\ccsGRYiA.s:29180  .debug_str:000000000002598c .LASF2635
C:\Users\CYMR90~1\AppData\Local\Temp\ccsGRYiA.s:26558  .debug_str:000000000001b41e .LASF2636
C:\Users\CYMR90~1\AppData\Local\Temp\ccsGRYiA.s:25710  .debug_str:0000000000017bd5 .LASF2637
C:\Users\CYMR90~1\AppData\Local\Temp\ccsGRYiA.s:30840  .debug_str:000000000002c32e .LASF2638
C:\Users\CYMR90~1\AppData\Local\Temp\ccsGRYiA.s:24795  .debug_str:0000000000013fd8 .LASF2639
C:\Users\CYMR90~1\AppData\Local\Temp\ccsGRYiA.s:30002  .debug_str:0000000000028e7b .LASF2640
C:\Users\CYMR90~1\AppData\Local\Temp\ccsGRYiA.s:23897  .debug_str:0000000000010512 .LASF2641
C:\Users\CYMR90~1\AppData\Local\Temp\ccsGRYiA.s:26458  .debug_str:000000000001ad59 .LASF2642
C:\Users\CYMR90~1\AppData\Local\Temp\ccsGRYiA.s:20353  .debug_str:0000000000002241 .LASF2643
C:\Users\CYMR90~1\AppData\Local\Temp\ccsGRYiA.s:25512  .debug_str:0000000000016fab .LASF2644
C:\Users\CYMR90~1\AppData\Local\Temp\ccsGRYiA.s:24829  .debug_str:0000000000014252 .LASF2645
C:\Users\CYMR90~1\AppData\Local\Temp\ccsGRYiA.s:24599  .debug_str:00000000000133ca .LASF2646
C:\Users\CYMR90~1\AppData\Local\Temp\ccsGRYiA.s:23497  .debug_str:000000000000ec58 .LASF2647
C:\Users\CYMR90~1\AppData\Local\Temp\ccsGRYiA.s:30534  .debug_str:000000000002ae6a .LASF2648
C:\Users\CYMR90~1\AppData\Local\Temp\ccsGRYiA.s:22489  .debug_str:000000000000aa3c .LASF2649
C:\Users\CYMR90~1\AppData\Local\Temp\ccsGRYiA.s:25668  .debug_str:0000000000017927 .LASF2650
C:\Users\CYMR90~1\AppData\Local\Temp\ccsGRYiA.s:28862  .debug_str:000000000002430f .LASF2651
C:\Users\CYMR90~1\AppData\Local\Temp\ccsGRYiA.s:20769  .debug_str:0000000000003cb2 .LASF2652
C:\Users\CYMR90~1\AppData\Local\Temp\ccsGRYiA.s:24021  .debug_str:0000000000010db9 .LASF2653
C:\Users\CYMR90~1\AppData\Local\Temp\ccsGRYiA.s:27174  .debug_str:000000000001dbdf .LASF2654
C:\Users\CYMR90~1\AppData\Local\Temp\ccsGRYiA.s:30288  .debug_str:0000000000029fc8 .LASF2655
C:\Users\CYMR90~1\AppData\Local\Temp\ccsGRYiA.s:22251  .debug_str:0000000000009baf .LASF2656
C:\Users\CYMR90~1\AppData\Local\Temp\ccsGRYiA.s:25437  .debug_str:000000000001686c .LASF2657
C:\Users\CYMR90~1\AppData\Local\Temp\ccsGRYiA.s:27400  .debug_str:000000000001e9b7 .LASF2658
C:\Users\CYMR90~1\AppData\Local\Temp\ccsGRYiA.s:20823  .debug_str:0000000000003ff8 .LASF2659
C:\Users\CYMR90~1\AppData\Local\Temp\ccsGRYiA.s:25544  .debug_str:0000000000017174 .LASF2660
C:\Users\CYMR90~1\AppData\Local\Temp\ccsGRYiA.s:30208  .debug_str:0000000000029b14 .LASF2661
C:\Users\CYMR90~1\AppData\Local\Temp\ccsGRYiA.s:23669  .debug_str:000000000000f65c .LASF2662
C:\Users\CYMR90~1\AppData\Local\Temp\ccsGRYiA.s:28300  .debug_str:000000000002204c .LASF2663
C:\Users\CYMR90~1\AppData\Local\Temp\ccsGRYiA.s:21709  .debug_str:000000000000787b .LASF2664
C:\Users\CYMR90~1\AppData\Local\Temp\ccsGRYiA.s:24923  .debug_str:0000000000014838 .LASF2665
C:\Users\CYMR90~1\AppData\Local\Temp\ccsGRYiA.s:28010  .debug_str:0000000000020e66 .LASF2666
C:\Users\CYMR90~1\AppData\Local\Temp\ccsGRYiA.s:19955  .debug_str:00000000000009a4 .LASF2667
C:\Users\CYMR90~1\AppData\Local\Temp\ccsGRYiA.s:23179  .debug_str:000000000000d8a1 .LASF2668
C:\Users\CYMR90~1\AppData\Local\Temp\ccsGRYiA.s:26388  .debug_str:000000000001a915 .LASF2669
C:\Users\CYMR90~1\AppData\Local\Temp\ccsGRYiA.s:29536  .debug_str:0000000000026f4e .LASF2670
C:\Users\CYMR90~1\AppData\Local\Temp\ccsGRYiA.s:21471  .debug_str:0000000000006917 .LASF2671
C:\Users\CYMR90~1\AppData\Local\Temp\ccsGRYiA.s:24697  .debug_str:0000000000013a36 .LASF2672
C:\Users\CYMR90~1\AppData\Local\Temp\ccsGRYiA.s:27868  .debug_str:000000000002060b .LASF2673
C:\Users\CYMR90~1\AppData\Local\Temp\ccsGRYiA.s:25231  .debug_str:0000000000015ad1 .LASF2674
C:\Users\CYMR90~1\AppData\Local\Temp\ccsGRYiA.s:29906  .debug_str:0000000000028897 .LASF2675
C:\Users\CYMR90~1\AppData\Local\Temp\ccsGRYiA.s:23349  .debug_str:000000000000e2cb .LASF2676
C:\Users\CYMR90~1\AppData\Local\Temp\ccsGRYiA.s:21411  .debug_str:0000000000006553 .LASF2677
C:\Users\CYMR90~1\AppData\Local\Temp\ccsGRYiA.s:26126  .debug_str:0000000000019697 .LASF2678
C:\Users\CYMR90~1\AppData\Local\Temp\ccsGRYiA.s:24655  .debug_str:00000000000137b7 .LASF2679
C:\Users\CYMR90~1\AppData\Local\Temp\ccsGRYiA.s:27812  .debug_str:000000000002023b .LASF2680
C:\Users\CYMR90~1\AppData\Local\Temp\ccsGRYiA.s:31022  .debug_str:000000000002cec3 .LASF2681
C:\Users\CYMR90~1\AppData\Local\Temp\ccsGRYiA.s:26794  .debug_str:000000000001c27a .LASF2682
C:\Users\CYMR90~1\AppData\Local\Temp\ccsGRYiA.s:28844  .debug_str:00000000000241d6 .LASF2683
C:\Users\CYMR90~1\AppData\Local\Temp\ccsGRYiA.s:29254  .debug_str:0000000000025df8 .LASF2684
C:\Users\CYMR90~1\AppData\Local\Temp\ccsGRYiA.s:23185  .debug_str:000000000000d8f1 .LASF2685
C:\Users\CYMR90~1\AppData\Local\Temp\ccsGRYiA.s:24421  .debug_str:000000000001280f .LASF2686
C:\Users\CYMR90~1\AppData\Local\Temp\ccsGRYiA.s:27554  .debug_str:000000000001f2cb .LASF2687
C:\Users\CYMR90~1\AppData\Local\Temp\ccsGRYiA.s:30792  .debug_str:000000000002bfbb .LASF2688
C:\Users\CYMR90~1\AppData\Local\Temp\ccsGRYiA.s:28302  .debug_str:0000000000022067 .LASF2689
C:\Users\CYMR90~1\AppData\Local\Temp\ccsGRYiA.s:30262  .debug_str:0000000000029e42 .LASF2690
C:\Users\CYMR90~1\AppData\Local\Temp\ccsGRYiA.s:20743  .debug_str:0000000000003ae2 .LASF2691
C:\Users\CYMR90~1\AppData\Local\Temp\ccsGRYiA.s:25461  .debug_str:0000000000016a44 .LASF2692
C:\Users\CYMR90~1\AppData\Local\Temp\ccsGRYiA.s:30128  .debug_str:0000000000029687 .LASF2693
C:\Users\CYMR90~1\AppData\Local\Temp\ccsGRYiA.s:23583  .debug_str:000000000000f116 .LASF2694
C:\Users\CYMR90~1\AppData\Local\Temp\ccsGRYiA.s:25427  .debug_str:00000000000167e7 .LASF2695
C:\Users\CYMR90~1\AppData\Local\Temp\ccsGRYiA.s:30096  .debug_str:000000000002942e .LASF2696
C:\Users\CYMR90~1\AppData\Local\Temp\ccsGRYiA.s:23557  .debug_str:000000000000ef91 .LASF2697
C:\Users\CYMR90~1\AppData\Local\Temp\ccsGRYiA.s:28192  .debug_str:0000000000021971 .LASF2698
C:\Users\CYMR90~1\AppData\Local\Temp\ccsGRYiA.s:24707  .debug_str:0000000000013acd .LASF2699
C:\Users\CYMR90~1\AppData\Local\Temp\ccsGRYiA.s:20259  .debug_str:0000000000001cf9 .LASF2700
C:\Users\CYMR90~1\AppData\Local\Temp\ccsGRYiA.s:24963  .debug_str:0000000000014a65 .LASF2701
C:\Users\CYMR90~1\AppData\Local\Temp\ccsGRYiA.s:29632  .debug_str:000000000002756f .LASF2702
C:\Users\CYMR90~1\AppData\Local\Temp\ccsGRYiA.s:23079  .debug_str:000000000000d24e .LASF2703
C:\Users\CYMR90~1\AppData\Local\Temp\ccsGRYiA.s:27712  .debug_str:000000000001fc38 .LASF2704
C:\Users\CYMR90~1\AppData\Local\Temp\ccsGRYiA.s:22707  .debug_str:000000000000b966 .LASF2705
C:\Users\CYMR90~1\AppData\Local\Temp\ccsGRYiA.s:27348  .debug_str:000000000001e633 .LASF2706
C:\Users\CYMR90~1\AppData\Local\Temp\ccsGRYiA.s:20759  .debug_str:0000000000003be7 .LASF2707
C:\Users\CYMR90~1\AppData\Local\Temp\ccsGRYiA.s:25477  .debug_str:0000000000016bcf .LASF2708
C:\Users\CYMR90~1\AppData\Local\Temp\ccsGRYiA.s:22093  .debug_str:0000000000009189 .LASF2709
C:\Users\CYMR90~1\AppData\Local\Temp\ccsGRYiA.s:28816  .debug_str:0000000000023f13 .LASF2710
C:\Users\CYMR90~1\AppData\Local\Temp\ccsGRYiA.s:20269  .debug_str:0000000000001d97 .LASF2711
C:\Users\CYMR90~1\AppData\Local\Temp\ccsGRYiA.s:23519  .debug_str:000000000000ed71 .LASF2712
C:\Users\CYMR90~1\AppData\Local\Temp\ccsGRYiA.s:29590  .debug_str:0000000000027330 .LASF2713
C:\Users\CYMR90~1\AppData\Local\Temp\ccsGRYiA.s:29882  .debug_str:0000000000028710 .LASF2714
C:\Users\CYMR90~1\AppData\Local\Temp\ccsGRYiA.s:21717  .debug_str:00000000000078ea .LASF2715
C:\Users\CYMR90~1\AppData\Local\Temp\ccsGRYiA.s:24929  .debug_str:0000000000014889 .LASF2716
C:\Users\CYMR90~1\AppData\Local\Temp\ccsGRYiA.s:22261  .debug_str:0000000000009c2b .LASF2717
C:\Users\CYMR90~1\AppData\Local\Temp\ccsGRYiA.s:20041  .debug_str:0000000000000f77 .LASF2718
C:\Users\CYMR90~1\AppData\Local\Temp\ccsGRYiA.s:23277  .debug_str:000000000000de87 .LASF2719
C:\Users\CYMR90~1\AppData\Local\Temp\ccsGRYiA.s:21815  .debug_str:0000000000007fd7 .LASF2720
C:\Users\CYMR90~1\AppData\Local\Temp\ccsGRYiA.s:25772  .debug_str:0000000000017f93 .LASF2721
C:\Users\CYMR90~1\AppData\Local\Temp\ccsGRYiA.s:30444  .debug_str:000000000002a940 .LASF2722
C:\Users\CYMR90~1\AppData\Local\Temp\ccsGRYiA.s:23895  .debug_str:00000000000104fb .LASF2723
C:\Users\CYMR90~1\AppData\Local\Temp\ccsGRYiA.s:28544  .debug_str:0000000000022ec9 .LASF2724
C:\Users\CYMR90~1\AppData\Local\Temp\ccsGRYiA.s:29146  .debug_str:00000000000256fb .LASF2725
C:\Users\CYMR90~1\AppData\Local\Temp\ccsGRYiA.s:26656  .debug_str:000000000001b9d9 .LASF2726
C:\Users\CYMR90~1\AppData\Local\Temp\ccsGRYiA.s:24073  .debug_str:000000000001105f .LASF2727
C:\Users\CYMR90~1\AppData\Local\Temp\ccsGRYiA.s:30312  .debug_str:000000000002a108 .LASF2728
C:\Users\CYMR90~1\AppData\Local\Temp\ccsGRYiA.s:26280  .debug_str:000000000001a072 .LASF2729
C:\Users\CYMR90~1\AppData\Local\Temp\ccsGRYiA.s:21913  .debug_str:0000000000008679 .LASF2730
C:\Users\CYMR90~1\AppData\Local\Temp\ccsGRYiA.s:22871  .debug_str:000000000000c3e7 .LASF2731
C:\Users\CYMR90~1\AppData\Local\Temp\ccsGRYiA.s:30328  .debug_str:000000000002a217 .LASF2732
C:\Users\CYMR90~1\AppData\Local\Temp\ccsGRYiA.s:20675  .debug_str:000000000000369b .LASF2733
C:\Users\CYMR90~1\AppData\Local\Temp\ccsGRYiA.s:25608  .debug_str:0000000000017522 .LASF2734
C:\Users\CYMR90~1\AppData\Local\Temp\ccsGRYiA.s:21039  .debug_str:0000000000004ea1 .LASF2735
C:\Users\CYMR90~1\AppData\Local\Temp\ccsGRYiA.s:24415  .debug_str:00000000000127ac .LASF2736
C:\Users\CYMR90~1\AppData\Local\Temp\ccsGRYiA.s:21083  .debug_str:0000000000005141 .LASF2737
C:\Users\CYMR90~1\AppData\Local\Temp\ccsGRYiA.s:27878  .debug_str:0000000000020683 .LASF2738
C:\Users\CYMR90~1\AppData\Local\Temp\ccsGRYiA.s:24693  .debug_str:0000000000013a10 .LASF2739
C:\Users\CYMR90~1\AppData\Local\Temp\ccsGRYiA.s:23487  .debug_str:000000000000ebbc .LASF2740
C:\Users\CYMR90~1\AppData\Local\Temp\ccsGRYiA.s:22539  .debug_str:000000000000ad9d .LASF2741
C:\Users\CYMR90~1\AppData\Local\Temp\ccsGRYiA.s:20103  .debug_str:00000000000012e8 .LASF2742
C:\Users\CYMR90~1\AppData\Local\Temp\ccsGRYiA.s:22907  .debug_str:000000000000c609 .LASF2743
C:\Users\CYMR90~1\AppData\Local\Temp\ccsGRYiA.s:24701  .debug_str:0000000000013a71 .LASF2744
C:\Users\CYMR90~1\AppData\Local\Temp\ccsGRYiA.s:27874  .debug_str:000000000002065b .LASF2745
C:\Users\CYMR90~1\AppData\Local\Temp\ccsGRYiA.s:19827  .debug_str:000000000000020a .LASF2746
C:\Users\CYMR90~1\AppData\Local\Temp\ccsGRYiA.s:23039  .debug_str:000000000000cf6b .LASF2747
C:\Users\CYMR90~1\AppData\Local\Temp\ccsGRYiA.s:26232  .debug_str:0000000000019db6 .LASF2748
C:\Users\CYMR90~1\AppData\Local\Temp\ccsGRYiA.s:20019  .debug_str:0000000000000dc1 .LASF2749
C:\Users\CYMR90~1\AppData\Local\Temp\ccsGRYiA.s:21225  .debug_str:00000000000059cc .LASF2750
C:\Users\CYMR90~1\AppData\Local\Temp\ccsGRYiA.s:28036  .debug_str:0000000000020fb7 .LASF2751
C:\Users\CYMR90~1\AppData\Local\Temp\ccsGRYiA.s:26466  .debug_str:000000000001addd .LASF2752
C:\Users\CYMR90~1\AppData\Local\Temp\ccsGRYiA.s:30848  .debug_str:000000000002c3b1 .LASF2753
C:\Users\CYMR90~1\AppData\Local\Temp\ccsGRYiA.s:20133  .debug_str:00000000000014d9 .LASF2754
C:\Users\CYMR90~1\AppData\Local\Temp\ccsGRYiA.s:24839  .debug_str:00000000000142f3 .LASF2755
C:\Users\CYMR90~1\AppData\Local\Temp\ccsGRYiA.s:29508  .debug_str:0000000000026dc0 .LASF2756
C:\Users\CYMR90~1\AppData\Local\Temp\ccsGRYiA.s:30526  .debug_str:000000000002adf0 .LASF2757
C:\Users\CYMR90~1\AppData\Local\Temp\ccsGRYiA.s:26796  .debug_str:000000000001c28f .LASF2758
C:\Users\CYMR90~1\AppData\Local\Temp\ccsGRYiA.s:23087  .debug_str:000000000000d2a6 .LASF2759
C:\Users\CYMR90~1\AppData\Local\Temp\ccsGRYiA.s:28338  .debug_str:0000000000022286 .LASF2760
C:\Users\CYMR90~1\AppData\Local\Temp\ccsGRYiA.s:20251  .debug_str:0000000000001c85 .LASF2761
C:\Users\CYMR90~1\AppData\Local\Temp\ccsGRYiA.s:23503  .debug_str:000000000000eca3 .LASF2762
C:\Users\CYMR90~1\AppData\Local\Temp\ccsGRYiA.s:26678  .debug_str:000000000001bafd .LASF2763
C:\Users\CYMR90~1\AppData\Local\Temp\ccsGRYiA.s:29774  .debug_str:0000000000027f3d .LASF2764
C:\Users\CYMR90~1\AppData\Local\Temp\ccsGRYiA.s:28182  .debug_str:00000000000218e1 .LASF2765
C:\Users\CYMR90~1\AppData\Local\Temp\ccsGRYiA.s:24917  .debug_str:00000000000147e8 .LASF2766
C:\Users\CYMR90~1\AppData\Local\Temp\ccsGRYiA.s:24955  .debug_str:0000000000014a01 .LASF2767
C:\Users\CYMR90~1\AppData\Local\Temp\ccsGRYiA.s:20033  .debug_str:0000000000000f18 .LASF2768
C:\Users\CYMR90~1\AppData\Local\Temp\ccsGRYiA.s:23261  .debug_str:000000000000dd8e .LASF2769
C:\Users\CYMR90~1\AppData\Local\Temp\ccsGRYiA.s:25485  .debug_str:0000000000016c49 .LASF2770
C:\Users\CYMR90~1\AppData\Local\Temp\ccsGRYiA.s:28336  .debug_str:0000000000022271 .LASF2771
C:\Users\CYMR90~1\AppData\Local\Temp\ccsGRYiA.s:23603  .debug_str:000000000000f266 .LASF2772
C:\Users\CYMR90~1\AppData\Local\Temp\ccsGRYiA.s:28240  .debug_str:0000000000021ccb .LASF2773
C:\Users\CYMR90~1\AppData\Local\Temp\ccsGRYiA.s:28404  .debug_str:0000000000022660 .LASF2774
C:\Users\CYMR90~1\AppData\Local\Temp\ccsGRYiA.s:26380  .debug_str:000000000001a8af .LASF2775
C:\Users\CYMR90~1\AppData\Local\Temp\ccsGRYiA.s:25636  .debug_str:00000000000176da .LASF2776
C:\Users\CYMR90~1\AppData\Local\Temp\ccsGRYiA.s:23369  .debug_str:000000000000e3e1 .LASF2777
C:\Users\CYMR90~1\AppData\Local\Temp\ccsGRYiA.s:24541  .debug_str:0000000000012fdf .LASF2778
C:\Users\CYMR90~1\AppData\Local\Temp\ccsGRYiA.s:24505  .debug_str:0000000000012d89 .LASF2779
C:\Users\CYMR90~1\AppData\Local\Temp\ccsGRYiA.s:20591  .debug_str:0000000000003126 .LASF2780
C:\Users\CYMR90~1\AppData\Local\Temp\ccsGRYiA.s:20475  .debug_str:00000000000029db .LASF2781
C:\Users\CYMR90~1\AppData\Local\Temp\ccsGRYiA.s:27998  .debug_str:0000000000020dc0 .LASF2782
C:\Users\CYMR90~1\AppData\Local\Temp\ccsGRYiA.s:28988  .debug_str:0000000000024b93 .LASF2783
C:\Users\CYMR90~1\AppData\Local\Temp\ccsGRYiA.s:28668  .debug_str:0000000000023652 .LASF2784
C:\Users\CYMR90~1\AppData\Local\Temp\ccsGRYiA.s:22599  .debug_str:000000000000b1f2 .LASF2785
C:\Users\CYMR90~1\AppData\Local\Temp\ccsGRYiA.s:25774  .debug_str:0000000000017faa .LASF2786
C:\Users\CYMR90~1\AppData\Local\Temp\ccsGRYiA.s:28966  .debug_str:0000000000024a0f .LASF2787
C:\Users\CYMR90~1\AppData\Local\Temp\ccsGRYiA.s:20875  .debug_str:00000000000043ce .LASF2788
C:\Users\CYMR90~1\AppData\Local\Temp\ccsGRYiA.s:22951  .debug_str:000000000000ca22 .LASF2789
C:\Users\CYMR90~1\AppData\Local\Temp\ccsGRYiA.s:27194  .debug_str:000000000001dd10 .LASF2790
C:\Users\CYMR90~1\AppData\Local\Temp\ccsGRYiA.s:30396  .debug_str:000000000002a67d .LASF2791
C:\Users\CYMR90~1\AppData\Local\Temp\ccsGRYiA.s:22363  .debug_str:000000000000a28b .LASF2792
C:\Users\CYMR90~1\AppData\Local\Temp\ccsGRYiA.s:25550  .debug_str:00000000000171d1 .LASF2793
C:\Users\CYMR90~1\AppData\Local\Temp\ccsGRYiA.s:28732  .debug_str:0000000000023a2d .LASF2794
C:\Users\CYMR90~1\AppData\Local\Temp\ccsGRYiA.s:26924  .debug_str:000000000001cae5 .LASF2795
C:\Users\CYMR90~1\AppData\Local\Temp\ccsGRYiA.s:20317  .debug_str:0000000000002064 .LASF2796
C:\Users\CYMR90~1\AppData\Local\Temp\ccsGRYiA.s:25019  .debug_str:0000000000014e33 .LASF2797
C:\Users\CYMR90~1\AppData\Local\Temp\ccsGRYiA.s:29692  .debug_str:0000000000027983 .LASF2798
C:\Users\CYMR90~1\AppData\Local\Temp\ccsGRYiA.s:23139  .debug_str:000000000000d687 .LASF2799
C:\Users\CYMR90~1\AppData\Local\Temp\ccsGRYiA.s:27778  .debug_str:0000000000020089 .LASF2800
C:\Users\CYMR90~1\AppData\Local\Temp\ccsGRYiA.s:30352  .debug_str:000000000002a3da .LASF2801
C:\Users\CYMR90~1\AppData\Local\Temp\ccsGRYiA.s:30562  .debug_str:000000000002b014 .LASF2802
C:\Users\CYMR90~1\AppData\Local\Temp\ccsGRYiA.s:26416  .debug_str:000000000001aab7 .LASF2803
C:\Users\CYMR90~1\AppData\Local\Temp\ccsGRYiA.s:21617  .debug_str:000000000000729d .LASF2804
C:\Users\CYMR90~1\AppData\Local\Temp\ccsGRYiA.s:21923  .debug_str:0000000000008712 .LASF2805
C:\Users\CYMR90~1\AppData\Local\Temp\ccsGRYiA.s:25834  .debug_str:0000000000018317 .LASF2806
C:\Users\CYMR90~1\AppData\Local\Temp\ccsGRYiA.s:30662  .debug_str:000000000002b6eb .LASF2807
C:\Users\CYMR90~1\AppData\Local\Temp\ccsGRYiA.s:24279  .debug_str:0000000000011e3f .LASF2808
C:\Users\CYMR90~1\AppData\Local\Temp\ccsGRYiA.s:25115  .debug_str:000000000001542d .LASF2809
C:\Users\CYMR90~1\AppData\Local\Temp\ccsGRYiA.s:21317  .debug_str:0000000000005fa5 .LASF2810
C:\Users\CYMR90~1\AppData\Local\Temp\ccsGRYiA.s:28024  .debug_str:0000000000020f24 .LASF2811
C:\Users\CYMR90~1\AppData\Local\Temp\ccsGRYiA.s:29392  .debug_str:00000000000266bd .LASF2812
C:\Users\CYMR90~1\AppData\Local\Temp\ccsGRYiA.s:30764  .debug_str:000000000002bde6 .LASF2813
C:\Users\CYMR90~1\AppData\Local\Temp\ccsGRYiA.s:20833  .debug_str:000000000000412a .LASF2814
C:\Users\CYMR90~1\AppData\Local\Temp\ccsGRYiA.s:24549  .debug_str:000000000001306d .LASF2815
C:\Users\CYMR90~1\AppData\Local\Temp\ccsGRYiA.s:29886  .debug_str:000000000002873e .LASF2816
C:\Users\CYMR90~1\AppData\Local\Temp\ccsGRYiA.s:27842  .debug_str:0000000000020408 .LASF2817
C:\Users\CYMR90~1\AppData\Local\Temp\ccsGRYiA.s:26756  .debug_str:000000000001c016 .LASF2818
C:\Users\CYMR90~1\AppData\Local\Temp\ccsGRYiA.s:26326  .debug_str:000000000001a4ae .LASF2819
C:\Users\CYMR90~1\AppData\Local\Temp\ccsGRYiA.s:26250  .debug_str:0000000000019e95 .LASF2820
C:\Users\CYMR90~1\AppData\Local\Temp\ccsGRYiA.s:28448  .debug_str:00000000000228e0 .LASF2821
C:\Users\CYMR90~1\AppData\Local\Temp\ccsGRYiA.s:26752  .debug_str:000000000001bfe9 .LASF2822
C:\Users\CYMR90~1\AppData\Local\Temp\ccsGRYiA.s:25896  .debug_str:00000000000186c4 .LASF2823
C:\Users\CYMR90~1\AppData\Local\Temp\ccsGRYiA.s:24935  .debug_str:00000000000148e1 .LASF2824
C:\Users\CYMR90~1\AppData\Local\Temp\ccsGRYiA.s:24483  .debug_str:0000000000012c1d .LASF2825
C:\Users\CYMR90~1\AppData\Local\Temp\ccsGRYiA.s:23223  .debug_str:000000000000db1a .LASF2826
C:\Users\CYMR90~1\AppData\Local\Temp\ccsGRYiA.s:22357  .debug_str:000000000000a228 .LASF2827
C:\Users\CYMR90~1\AppData\Local\Temp\ccsGRYiA.s:21457  .debug_str:0000000000006845 .LASF2828
C:\Users\CYMR90~1\AppData\Local\Temp\ccsGRYiA.s:20595  .debug_str:000000000000315c .LASF2829
C:\Users\CYMR90~1\AppData\Local\Temp\ccsGRYiA.s:30996  .debug_str:000000000002cd21 .LASF2830
C:\Users\CYMR90~1\AppData\Local\Temp\ccsGRYiA.s:30132  .debug_str:00000000000296b8 .LASF2831
C:\Users\CYMR90~1\AppData\Local\Temp\ccsGRYiA.s:28896  .debug_str:000000000002454b .LASF2832
C:\Users\CYMR90~1\AppData\Local\Temp\ccsGRYiA.s:20799  .debug_str:0000000000003eb0 .LASF2833
C:\Users\CYMR90~1\AppData\Local\Temp\ccsGRYiA.s:24059  .debug_str:0000000000010f91 .LASF2834
C:\Users\CYMR90~1\AppData\Local\Temp\ccsGRYiA.s:27214  .debug_str:000000000001de4b .LASF2835
C:\Users\CYMR90~1\AppData\Local\Temp\ccsGRYiA.s:30414  .debug_str:000000000002a756 .LASF2836
C:\Users\CYMR90~1\AppData\Local\Temp\ccsGRYiA.s:22375  .debug_str:000000000000a374 .LASF2837
C:\Users\CYMR90~1\AppData\Local\Temp\ccsGRYiA.s:28526  .debug_str:0000000000022dc7 .LASF2838
C:\Users\CYMR90~1\AppData\Local\Temp\ccsGRYiA.s:30952  .debug_str:000000000002ca36 .LASF2839
C:\Users\CYMR90~1\AppData\Local\Temp\ccsGRYiA.s:24307  .debug_str:00000000000120a4 .LASF2840
C:\Users\CYMR90~1\AppData\Local\Temp\ccsGRYiA.s:25175  .debug_str:000000000001577a .LASF2841
C:\Users\CYMR90~1\AppData\Local\Temp\ccsGRYiA.s:27824  .debug_str:00000000000202e3 .LASF2842
C:\Users\CYMR90~1\AppData\Local\Temp\ccsGRYiA.s:26994  .debug_str:000000000001d09a .LASF2843
C:\Users\CYMR90~1\AppData\Local\Temp\ccsGRYiA.s:26384  .debug_str:000000000001a8dd .LASF2844
C:\Users\CYMR90~1\AppData\Local\Temp\ccsGRYiA.s:26422  .debug_str:000000000001ab42 .LASF2845
C:\Users\CYMR90~1\AppData\Local\Temp\ccsGRYiA.s:25395  .debug_str:0000000000016548 .LASF2846
C:\Users\CYMR90~1\AppData\Local\Temp\ccsGRYiA.s:22663  .debug_str:000000000000b65d .LASF2847
C:\Users\CYMR90~1\AppData\Local\Temp\ccsGRYiA.s:24789  .debug_str:0000000000013f8b .LASF2848
C:\Users\CYMR90~1\AppData\Local\Temp\ccsGRYiA.s:29308  .debug_str:0000000000026149 .LASF2849
C:\Users\CYMR90~1\AppData\Local\Temp\ccsGRYiA.s:26584  .debug_str:000000000001b59e .LASF2850
C:\Users\CYMR90~1\AppData\Local\Temp\ccsGRYiA.s:21299  .debug_str:0000000000005e50 .LASF2851
C:\Users\CYMR90~1\AppData\Local\Temp\ccsGRYiA.s:23221  .debug_str:000000000000daf8 .LASF2852
C:\Users\CYMR90~1\AppData\Local\Temp\ccsGRYiA.s:25095  .debug_str:000000000001531e .LASF2853
C:\Users\CYMR90~1\AppData\Local\Temp\ccsGRYiA.s:29666  .debug_str:0000000000027790 .LASF2854
C:\Users\CYMR90~1\AppData\Local\Temp\ccsGRYiA.s:22787  .debug_str:000000000000beca .LASF2855
C:\Users\CYMR90~1\AppData\Local\Temp\ccsGRYiA.s:23351  .debug_str:000000000000e2e4 .LASF2856
C:\Users\CYMR90~1\AppData\Local\Temp\ccsGRYiA.s:27310  .debug_str:000000000001e40a .LASF2857
C:\Users\CYMR90~1\AppData\Local\Temp\ccsGRYiA.s:21059  .debug_str:0000000000004fd0 .LASF2858
C:\Users\CYMR90~1\AppData\Local\Temp\ccsGRYiA.s:30520  .debug_str:000000000002ad97 .LASF2859
C:\Users\CYMR90~1\AppData\Local\Temp\ccsGRYiA.s:28746  .debug_str:0000000000023aef .LASF2860
C:\Users\CYMR90~1\AppData\Local\Temp\ccsGRYiA.s:29538  .debug_str:0000000000026f65 .LASF2861
C:\Users\CYMR90~1\AppData\Local\Temp\ccsGRYiA.s:21499  .debug_str:0000000000006ac2 .LASF2862
C:\Users\CYMR90~1\AppData\Local\Temp\ccsGRYiA.s:31026  .debug_str:000000000002cef7 .LASF2863
C:\Users\CYMR90~1\AppData\Local\Temp\ccsGRYiA.s:20569  .debug_str:0000000000002fa3 .LASF2864
C:\Users\CYMR90~1\AppData\Local\Temp\ccsGRYiA.s:20295  .debug_str:0000000000001f2c .LASF2865
C:\Users\CYMR90~1\AppData\Local\Temp\ccsGRYiA.s:27338  .debug_str:000000000001e5c7 .LASF2866
C:\Users\CYMR90~1\AppData\Local\Temp\ccsGRYiA.s:20543  .debug_str:0000000000002e06 .LASF2867
C:\Users\CYMR90~1\AppData\Local\Temp\ccsGRYiA.s:19845  .debug_str:000000000000032c .LASF2868
C:\Users\CYMR90~1\AppData\Local\Temp\ccsGRYiA.s:30808  .debug_str:000000000002c0ae .LASF2869
C:\Users\CYMR90~1\AppData\Local\Temp\ccsGRYiA.s:29448  .debug_str:0000000000026a0c .LASF2870
C:\Users\CYMR90~1\AppData\Local\Temp\ccsGRYiA.s:21283  .debug_str:0000000000005d70 .LASF2871
C:\Users\CYMR90~1\AppData\Local\Temp\ccsGRYiA.s:30494  .debug_str:000000000002ac34 .LASF2872
C:\Users\CYMR90~1\AppData\Local\Temp\ccsGRYiA.s:26910  .debug_str:000000000001ca24 .LASF2873
C:\Users\CYMR90~1\AppData\Local\Temp\ccsGRYiA.s:27894  .debug_str:0000000000020790 .LASF2874
C:\Users\CYMR90~1\AppData\Local\Temp\ccsGRYiA.s:23727  .debug_str:000000000000fa5f .LASF2875
C:\Users\CYMR90~1\AppData\Local\Temp\ccsGRYiA.s:22857  .debug_str:000000000000c307 .LASF2876
C:\Users\CYMR90~1\AppData\Local\Temp\ccsGRYiA.s:26644  .debug_str:000000000001b955 .LASF2877
C:\Users\CYMR90~1\AppData\Local\Temp\ccsGRYiA.s:29844  .debug_str:000000000002844e .LASF2878
C:\Users\CYMR90~1\AppData\Local\Temp\ccsGRYiA.s:28294  .debug_str:0000000000021fd7 .LASF2879
C:\Users\CYMR90~1\AppData\Local\Temp\ccsGRYiA.s:26634  .debug_str:000000000001b8b1 .LASF2880
C:\Users\CYMR90~1\AppData\Local\Temp\ccsGRYiA.s:20885  .debug_str:000000000000446c .LASF2881
C:\Users\CYMR90~1\AppData\Local\Temp\ccsGRYiA.s:26958  .debug_str:000000000001cd04 .LASF2882
C:\Users\CYMR90~1\AppData\Local\Temp\ccsGRYiA.s:30094  .debug_str:000000000002940d .LASF2883
C:\Users\CYMR90~1\AppData\Local\Temp\ccsGRYiA.s:29244  .debug_str:0000000000025d6c .LASF2884
C:\Users\CYMR90~1\AppData\Local\Temp\ccsGRYiA.s:27092  .debug_str:000000000001d698 .LASF2885
C:\Users\CYMR90~1\AppData\Local\Temp\ccsGRYiA.s:23163  .debug_str:000000000000d7c9 .LASF2886
C:\Users\CYMR90~1\AppData\Local\Temp\ccsGRYiA.s:30584  .debug_str:000000000002b1a2 .LASF2887
C:\Users\CYMR90~1\AppData\Local\Temp\ccsGRYiA.s:25768  .debug_str:0000000000017f41 .LASF2888
C:\Users\CYMR90~1\AppData\Local\Temp\ccsGRYiA.s:20757  .debug_str:0000000000003bc4 .LASF2889
C:\Users\CYMR90~1\AppData\Local\Temp\ccsGRYiA.s:30626  .debug_str:000000000002b44f .LASF2890
C:\Users\CYMR90~1\AppData\Local\Temp\ccsGRYiA.s:23427  .debug_str:000000000000e7bb .LASF2891
C:\Users\CYMR90~1\AppData\Local\Temp\ccsGRYiA.s:23547  .debug_str:000000000000eeea .LASF2892
C:\Users\CYMR90~1\AppData\Local\Temp\ccsGRYiA.s:25001  .debug_str:0000000000014ccf .LASF2893
C:\Users\CYMR90~1\AppData\Local\Temp\ccsGRYiA.s:24901  .debug_str:00000000000146bb .LASF2894
C:\Users\CYMR90~1\AppData\Local\Temp\ccsGRYiA.s:23571  .debug_str:000000000000f053 .LASF2895
C:\Users\CYMR90~1\AppData\Local\Temp\ccsGRYiA.s:23249  .debug_str:000000000000dca2 .LASF2896
C:\Users\CYMR90~1\AppData\Local\Temp\ccsGRYiA.s:28684  .debug_str:0000000000023777 .LASF2897
C:\Users\CYMR90~1\AppData\Local\Temp\ccsGRYiA.s:25582  .debug_str:00000000000173b0 .LASF2898
C:\Users\CYMR90~1\AppData\Local\Temp\ccsGRYiA.s:24689  .debug_str:00000000000139c6 .LASF2899
C:\Users\CYMR90~1\AppData\Local\Temp\ccsGRYiA.s:21991  .debug_str:0000000000008b6a .LASF2900
C:\Users\CYMR90~1\AppData\Local\Temp\ccsGRYiA.s:30338  .debug_str:000000000002a2cf .LASF2901
C:\Users\CYMR90~1\AppData\Local\Temp\ccsGRYiA.s:30800  .debug_str:000000000002c038 .LASF2902
C:\Users\CYMR90~1\AppData\Local\Temp\ccsGRYiA.s:25087  .debug_str:000000000001528e .LASF2903
C:\Users\CYMR90~1\AppData\Local\Temp\ccsGRYiA.s:21129  .debug_str:000000000000540c .LASF2904
C:\Users\CYMR90~1\AppData\Local\Temp\ccsGRYiA.s:25269  .debug_str:0000000000015d65 .LASF2905
C:\Users\CYMR90~1\AppData\Local\Temp\ccsGRYiA.s:28428  .debug_str:00000000000227c9 .LASF2906
C:\Users\CYMR90~1\AppData\Local\Temp\ccsGRYiA.s:23915  .debug_str:000000000001061c .LASF2907
C:\Users\CYMR90~1\AppData\Local\Temp\ccsGRYiA.s:22395  .debug_str:000000000000a4c5 .LASF2908
C:\Users\CYMR90~1\AppData\Local\Temp\ccsGRYiA.s:19945  .debug_str:0000000000000909 .LASF2909
C:\Users\CYMR90~1\AppData\Local\Temp\ccsGRYiA.s:27886  .debug_str:0000000000020700 .LASF2910
C:\Users\CYMR90~1\AppData\Local\Temp\ccsGRYiA.s:30870  .debug_str:000000000002c4c4 .LASF2911
C:\Users\CYMR90~1\AppData\Local\Temp\ccsGRYiA.s:28810  .debug_str:0000000000023eaf .LASF2912
C:\Users\CYMR90~1\AppData\Local\Temp\ccsGRYiA.s:28202  .debug_str:0000000000021a35 .LASF2913
C:\Users\CYMR90~1\AppData\Local\Temp\ccsGRYiA.s:21089  .debug_str:0000000000005199 .LASF2914
C:\Users\CYMR90~1\AppData\Local\Temp\ccsGRYiA.s:31002  .debug_str:000000000002cd61 .LASF2915
C:\Users\CYMR90~1\AppData\Local\Temp\ccsGRYiA.s:23445  .debug_str:000000000000e8bd .LASF2916
C:\Users\CYMR90~1\AppData\Local\Temp\ccsGRYiA.s:26768  .debug_str:000000000001c0c6 .LASF2917
C:\Users\CYMR90~1\AppData\Local\Temp\ccsGRYiA.s:28454  .debug_str:0000000000022954 .LASF2918
C:\Users\CYMR90~1\AppData\Local\Temp\ccsGRYiA.s:29030  .debug_str:0000000000024e4a .LASF2919
C:\Users\CYMR90~1\AppData\Local\Temp\ccsGRYiA.s:23161  .debug_str:000000000000d7b0 .LASF2920
C:\Users\CYMR90~1\AppData\Local\Temp\ccsGRYiA.s:27876  .debug_str:000000000002066e .LASF2921
C:\Users\CYMR90~1\AppData\Local\Temp\ccsGRYiA.s:30204  .debug_str:0000000000029ae3 .LASF2922
C:\Users\CYMR90~1\AppData\Local\Temp\ccsGRYiA.s:22809  .debug_str:000000000000c032 .LASF2923
C:\Users\CYMR90~1\AppData\Local\Temp\ccsGRYiA.s:21601  .debug_str:0000000000007187 .LASF2924
C:\Users\CYMR90~1\AppData\Local\Temp\ccsGRYiA.s:28048  .debug_str:000000000002106a .LASF2925
C:\Users\CYMR90~1\AppData\Local\Temp\ccsGRYiA.s:23769  .debug_str:000000000000fd08 .LASF2926
C:\Users\CYMR90~1\AppData\Local\Temp\ccsGRYiA.s:20553  .debug_str:0000000000002eae .LASF2927
C:\Users\CYMR90~1\AppData\Local\Temp\ccsGRYiA.s:22869  .debug_str:000000000000c3d3 .LASF2928
C:\Users\CYMR90~1\AppData\Local\Temp\ccsGRYiA.s:23375  .debug_str:000000000000e443 .LASF2929
C:\Users\CYMR90~1\AppData\Local\Temp\ccsGRYiA.s:30616  .debug_str:000000000002b3c3 .LASF2930
C:\Users\CYMR90~1\AppData\Local\Temp\ccsGRYiA.s:21569  .debug_str:0000000000006f32 .LASF2931
C:\Users\CYMR90~1\AppData\Local\Temp\ccsGRYiA.s:27774  .debug_str:000000000002004a .LASF2932
C:\Users\CYMR90~1\AppData\Local\Temp\ccsGRYiA.s:23757  .debug_str:000000000000fc35 .LASF2933
C:\Users\CYMR90~1\AppData\Local\Temp\ccsGRYiA.s:25594  .debug_str:0000000000017470 .LASF2934
C:\Users\CYMR90~1\AppData\Local\Temp\ccsGRYiA.s:22213  .debug_str:0000000000009913 .LASF2935
C:\Users\CYMR90~1\AppData\Local\Temp\ccsGRYiA.s:22317  .debug_str:0000000000009fb6 .LASF2936
C:\Users\CYMR90~1\AppData\Local\Temp\ccsGRYiA.s:23327  .debug_str:000000000000e16b .LASF2937
C:\Users\CYMR90~1\AppData\Local\Temp\ccsGRYiA.s:22427  .debug_str:000000000000a688 .LASF2938
C:\Users\CYMR90~1\AppData\Local\Temp\ccsGRYiA.s:29032  .debug_str:0000000000024e61 .LASF2939
C:\Users\CYMR90~1\AppData\Local\Temp\ccsGRYiA.s:23499  .debug_str:000000000000ec73 .LASF2940
C:\Users\CYMR90~1\AppData\Local\Temp\ccsGRYiA.s:24055  .debug_str:0000000000010f52 .LASF2941
C:\Users\CYMR90~1\AppData\Local\Temp\ccsGRYiA.s:29768  .debug_str:0000000000027ed1 .LASF2942
C:\Users\CYMR90~1\AppData\Local\Temp\ccsGRYiA.s:21959  .debug_str:000000000000895d .LASF2943
C:\Users\CYMR90~1\AppData\Local\Temp\ccsGRYiA.s:30690  .debug_str:000000000002b8ce .LASF2944
C:\Users\CYMR90~1\AppData\Local\Temp\ccsGRYiA.s:29866  .debug_str:00000000000285e6 .LASF2945
C:\Users\CYMR90~1\AppData\Local\Temp\ccsGRYiA.s:30124  .debug_str:0000000000029655 .LASF2946
C:\Users\CYMR90~1\AppData\Local\Temp\ccsGRYiA.s:20807  .debug_str:0000000000003f32 .LASF2947
C:\Users\CYMR90~1\AppData\Local\Temp\ccsGRYiA.s:26820  .debug_str:000000000001c3ee .LASF2948
C:\Users\CYMR90~1\AppData\Local\Temp\ccsGRYiA.s:26624  .debug_str:000000000001b815 .LASF2949
C:\Users\CYMR90~1\AppData\Local\Temp\ccsGRYiA.s:29044  .debug_str:0000000000024f06 .LASF2950
C:\Users\CYMR90~1\AppData\Local\Temp\ccsGRYiA.s:23167  .debug_str:000000000000d80d .LASF2951
C:\Users\CYMR90~1\AppData\Local\Temp\ccsGRYiA.s:26238  .debug_str:0000000000019e02 .LASF2952
C:\Users\CYMR90~1\AppData\Local\Temp\ccsGRYiA.s:20075  .debug_str:0000000000001193 .LASF2953
C:\Users\CYMR90~1\AppData\Local\Temp\ccsGRYiA.s:23545  .debug_str:000000000000eed0 .LASF2954
C:\Users\CYMR90~1\AppData\Local\Temp\ccsGRYiA.s:26824  .debug_str:000000000001c422 .LASF2955
C:\Users\CYMR90~1\AppData\Local\Temp\ccsGRYiA.s:30138  .debug_str:00000000000296fd .LASF2956
C:\Users\CYMR90~1\AppData\Local\Temp\ccsGRYiA.s:20209  .debug_str:00000000000019e9 .LASF2957
C:\Users\CYMR90~1\AppData\Local\Temp\ccsGRYiA.s:22283  .debug_str:0000000000009d80 .LASF2958
C:\Users\CYMR90~1\AppData\Local\Temp\ccsGRYiA.s:29568  .debug_str:00000000000271da .LASF2959
C:\Users\CYMR90~1\AppData\Local\Temp\ccsGRYiA.s:21845  .debug_str:000000000000824f .LASF2960
C:\Users\CYMR90~1\AppData\Local\Temp\ccsGRYiA.s:23333  .debug_str:000000000000e1e4 .LASF2961
C:\Users\CYMR90~1\AppData\Local\Temp\ccsGRYiA.s:28814  .debug_str:0000000000023ef4 .LASF2962
C:\Users\CYMR90~1\AppData\Local\Temp\ccsGRYiA.s:26168  .debug_str:00000000000199a1 .LASF2963
C:\Users\CYMR90~1\AppData\Local\Temp\ccsGRYiA.s:27640  .debug_str:000000000001f7dc .LASF2964
C:\Users\CYMR90~1\AppData\Local\Temp\ccsGRYiA.s:27562  .debug_str:000000000001f34e .LASF2965
C:\Users\CYMR90~1\AppData\Local\Temp\ccsGRYiA.s:21819  .debug_str:0000000000008010 .LASF2966
C:\Users\CYMR90~1\AppData\Local\Temp\ccsGRYiA.s:29104  .debug_str:00000000000253ec .LASF2967
C:\Users\CYMR90~1\AppData\Local\Temp\ccsGRYiA.s:29264  .debug_str:0000000000025ec6 .LASF2968
C:\Users\CYMR90~1\AppData\Local\Temp\ccsGRYiA.s:29040  .debug_str:0000000000024ed9 .LASF2969
C:\Users\CYMR90~1\AppData\Local\Temp\ccsGRYiA.s:20785  .debug_str:0000000000003d95 .LASF2970
C:\Users\CYMR90~1\AppData\Local\Temp\ccsGRYiA.s:28026  .debug_str:0000000000020f44 .LASF2971
C:\Users\CYMR90~1\AppData\Local\Temp\ccsGRYiA.s:24025  .debug_str:0000000000010de7 .LASF2972
C:\Users\CYMR90~1\AppData\Local\Temp\ccsGRYiA.s:20633  .debug_str:00000000000033fd .LASF2973
C:\Users\CYMR90~1\AppData\Local\Temp\ccsGRYiA.s:28688  .debug_str:00000000000237b4 .LASF2974
C:\Users\CYMR90~1\AppData\Local\Temp\ccsGRYiA.s:25540  .debug_str:000000000001714f .LASF2975
C:\Users\CYMR90~1\AppData\Local\Temp\ccsGRYiA.s:25289  .debug_str:0000000000015ed4 .LASF2976
C:\Users\CYMR90~1\AppData\Local\Temp\ccsGRYiA.s:27518  .debug_str:000000000001f0a6 .LASF2977
C:\Users\CYMR90~1\AppData\Local\Temp\ccsGRYiA.s:23985  .debug_str:0000000000010b2d .LASF2978
C:\Users\CYMR90~1\AppData\Local\Temp\ccsGRYiA.s:24109  .debug_str:000000000001129d .LASF2979
C:\Users\CYMR90~1\AppData\Local\Temp\ccsGRYiA.s:23515  .debug_str:000000000000ed40 .LASF2980
C:\Users\CYMR90~1\AppData\Local\Temp\ccsGRYiA.s:23651  .debug_str:000000000000f559 .LASF2981
C:\Users\CYMR90~1\AppData\Local\Temp\ccsGRYiA.s:24609  .debug_str:00000000000134ca .LASF2982
C:\Users\CYMR90~1\AppData\Local\Temp\ccsGRYiA.s:29884  .debug_str:0000000000028725 .LASF2983
C:\Users\CYMR90~1\AppData\Local\Temp\ccsGRYiA.s:25407  .debug_str:0000000000016686 .LASF2984
C:\Users\CYMR90~1\AppData\Local\Temp\ccsGRYiA.s:28806  .debug_str:0000000000023e80 .LASF2985
C:\Users\CYMR90~1\AppData\Local\Temp\ccsGRYiA.s:26274  .debug_str:000000000001a018 .LASF2986
C:\Users\CYMR90~1\AppData\Local\Temp\ccsGRYiA.s:21593  .debug_str:00000000000070df .LASF2987
C:\Users\CYMR90~1\AppData\Local\Temp\ccsGRYiA.s:29936  .debug_str:0000000000028a62 .LASF2988
C:\Users\CYMR90~1\AppData\Local\Temp\ccsGRYiA.s:22335  .debug_str:000000000000a0c6 .LASF2989
C:\Users\CYMR90~1\AppData\Local\Temp\ccsGRYiA.s:24793  .debug_str:0000000000013fc1 .LASF2990
C:\Users\CYMR90~1\AppData\Local\Temp\ccsGRYiA.s:25081  .debug_str:000000000001522a .LASF2991
C:\Users\CYMR90~1\AppData\Local\Temp\ccsGRYiA.s:25141  .debug_str:00000000000155a7 .LASF2992
C:\Users\CYMR90~1\AppData\Local\Temp\ccsGRYiA.s:27968  .debug_str:0000000000020c0e .LASF2993
C:\Users\CYMR90~1\AppData\Local\Temp\ccsGRYiA.s:25922  .debug_str:000000000001883d .LASF2994
C:\Users\CYMR90~1\AppData\Local\Temp\ccsGRYiA.s:23475  .debug_str:000000000000eaa8 .LASF2995
C:\Users\CYMR90~1\AppData\Local\Temp\ccsGRYiA.s:30024  .debug_str:0000000000028fec .LASF2996
C:\Users\CYMR90~1\AppData\Local\Temp\ccsGRYiA.s:28472  .debug_str:0000000000022a44 .LASF2997
C:\Users\CYMR90~1\AppData\Local\Temp\ccsGRYiA.s:22881  .debug_str:000000000000c47c .LASF2998
C:\Users\CYMR90~1\AppData\Local\Temp\ccsGRYiA.s:30820  .debug_str:000000000002c1d5 .LASF2999
C:\Users\CYMR90~1\AppData\Local\Temp\ccsGRYiA.s:30446  .debug_str:000000000002a957 .LASF3000
C:\Users\CYMR90~1\AppData\Local\Temp\ccsGRYiA.s:29550  .debug_str:0000000000027012 .LASF3001
C:\Users\CYMR90~1\AppData\Local\Temp\ccsGRYiA.s:20635  .debug_str:0000000000003415 .LASF3002
C:\Users\CYMR90~1\AppData\Local\Temp\ccsGRYiA.s:22785  .debug_str:000000000000bea2 .LASF3003
C:\Users\CYMR90~1\AppData\Local\Temp\ccsGRYiA.s:25187  .debug_str:000000000001581b .LASF3004
C:\Users\CYMR90~1\AppData\Local\Temp\ccsGRYiA.s:25089  .debug_str:00000000000152b9 .LASF3005
C:\Users\CYMR90~1\AppData\Local\Temp\ccsGRYiA.s:25984  .debug_str:0000000000018cff .LASF3006
C:\Users\CYMR90~1\AppData\Local\Temp\ccsGRYiA.s:27646  .debug_str:000000000001f841 .LASF3007
C:\Users\CYMR90~1\AppData\Local\Temp\ccsGRYiA.s:28168  .debug_str:000000000002182c .LASF3008
C:\Users\CYMR90~1\AppData\Local\Temp\ccsGRYiA.s:30956  .debug_str:000000000002ca5a .LASF3009
C:\Users\CYMR90~1\AppData\Local\Temp\ccsGRYiA.s:23707  .debug_str:000000000000f93e .LASF3010
C:\Users\CYMR90~1\AppData\Local\Temp\ccsGRYiA.s:20567  .debug_str:0000000000002f77 .LASF3011
C:\Users\CYMR90~1\AppData\Local\Temp\ccsGRYiA.s:23563  .debug_str:000000000000efe2 .LASF3012
C:\Users\CYMR90~1\AppData\Local\Temp\ccsGRYiA.s:27844  .debug_str:000000000002042d .LASF3013
C:\Users\CYMR90~1\AppData\Local\Temp\ccsGRYiA.s:25163  .debug_str:00000000000156c5 .LASF3014
C:\Users\CYMR90~1\AppData\Local\Temp\ccsGRYiA.s:24169  .debug_str:0000000000011667 .LASF3015
C:\Users\CYMR90~1\AppData\Local\Temp\ccsGRYiA.s:26764  .debug_str:000000000001c08f .LASF3016
C:\Users\CYMR90~1\AppData\Local\Temp\ccsGRYiA.s:25802  .debug_str:0000000000018117 .LASF3017
C:\Users\CYMR90~1\AppData\Local\Temp\ccsGRYiA.s:27678  .debug_str:000000000001fa4b .LASF3018
C:\Users\CYMR90~1\AppData\Local\Temp\ccsGRYiA.s:23987  .debug_str:0000000000010b45 .LASF3019
C:\Users\CYMR90~1\AppData\Local\Temp\ccsGRYiA.s:29814  .debug_str:000000000002823a .LASF3020
C:\Users\CYMR90~1\AppData\Local\Temp\ccsGRYiA.s:22057  .debug_str:0000000000008f76 .LASF3021
C:\Users\CYMR90~1\AppData\Local\Temp\ccsGRYiA.s:21137  .debug_str:00000000000054aa .LASF3022
C:\Users\CYMR90~1\AppData\Local\Temp\ccsGRYiA.s:20193  .debug_str:00000000000018fe .LASF3023
C:\Users\CYMR90~1\AppData\Local\Temp\ccsGRYiA.s:30504  .debug_str:000000000002accb .LASF3024
C:\Users\CYMR90~1\AppData\Local\Temp\ccsGRYiA.s:28116  .debug_str:000000000002150f .LASF3025
C:\Users\CYMR90~1\AppData\Local\Temp\ccsGRYiA.s:27154  .debug_str:000000000001dab8 .LASF3026
C:\Users\CYMR90~1\AppData\Local\Temp\ccsGRYiA.s:26318  .debug_str:000000000001a29b .LASF3027
C:\Users\CYMR90~1\AppData\Local\Temp\ccsGRYiA.s:25329  .debug_str:00000000000161a7 .LASF3028
C:\Users\CYMR90~1\AppData\Local\Temp\ccsGRYiA.s:24393  .debug_str:0000000000012639 .LASF3029
C:\Users\CYMR90~1\AppData\Local\Temp\ccsGRYiA.s:23437  .debug_str:000000000000e84c .LASF3030
C:\Users\CYMR90~1\AppData\Local\Temp\ccsGRYiA.s:23579  .debug_str:000000000000f0ca .LASF3031
C:\Users\CYMR90~1\AppData\Local\Temp\ccsGRYiA.s:29506  .debug_str:0000000000026d93 .LASF3032
C:\Users\CYMR90~1\AppData\Local\Temp\ccsGRYiA.s:29294  .debug_str:000000000002608c .LASF3033
C:\Users\CYMR90~1\AppData\Local\Temp\ccsGRYiA.s:23891  .debug_str:00000000000104ac .LASF3034
C:\Users\CYMR90~1\AppData\Local\Temp\ccsGRYiA.s:22743  .debug_str:000000000000bb7c .LASF3035
C:\Users\CYMR90~1\AppData\Local\Temp\ccsGRYiA.s:21647  .debug_str:000000000000748d .LASF3036
C:\Users\CYMR90~1\AppData\Local\Temp\ccsGRYiA.s:26986  .debug_str:000000000001cf81 .LASF3037
C:\Users\CYMR90~1\AppData\Local\Temp\ccsGRYiA.s:28586  .debug_str:000000000002310b .LASF3038
C:\Users\CYMR90~1\AppData\Local\Temp\ccsGRYiA.s:22917  .debug_str:000000000000c6f7 .LASF3039
C:\Users\CYMR90~1\AppData\Local\Temp\ccsGRYiA.s:21205  .debug_str:00000000000058cb .LASF3040
C:\Users\CYMR90~1\AppData\Local\Temp\ccsGRYiA.s:20991  .debug_str:0000000000004bc0 .LASF3041
C:\Users\CYMR90~1\AppData\Local\Temp\ccsGRYiA.s:26902  .debug_str:000000000001c99a .LASF3042
C:\Users\CYMR90~1\AppData\Local\Temp\ccsGRYiA.s:25423  .debug_str:00000000000167a1 .LASF3043
C:\Users\CYMR90~1\AppData\Local\Temp\ccsGRYiA.s:20499  .debug_str:0000000000002b5f .LASF3044
C:\Users\CYMR90~1\AppData\Local\Temp\ccsGRYiA.s:30896  .debug_str:000000000002c6aa .LASF3045
C:\Users\CYMR90~1\AppData\Local\Temp\ccsGRYiA.s:29854  .debug_str:00000000000284ff .LASF3046
C:\Users\CYMR90~1\AppData\Local\Temp\ccsGRYiA.s:20957  .debug_str:00000000000049a9 .LASF3047
C:\Users\CYMR90~1\AppData\Local\Temp\ccsGRYiA.s:26744  .debug_str:000000000001bf62 .LASF3048
C:\Users\CYMR90~1\AppData\Local\Temp\ccsGRYiA.s:23991  .debug_str:0000000000010b8a .LASF3049
C:\Users\CYMR90~1\AppData\Local\Temp\ccsGRYiA.s:27040  .debug_str:000000000001d361 .LASF3050
C:\Users\CYMR90~1\AppData\Local\Temp\ccsGRYiA.s:19885  .debug_str:0000000000000544 .LASF3051
C:\Users\CYMR90~1\AppData\Local\Temp\ccsGRYiA.s:24573  .debug_str:0000000000013213 .LASF3052
C:\Users\CYMR90~1\AppData\Local\Temp\ccsGRYiA.s:29242  .debug_str:0000000000025d4a .LASF3053
C:\Users\CYMR90~1\AppData\Local\Temp\ccsGRYiA.s:24477  .debug_str:0000000000012bdf .LASF3054
C:\Users\CYMR90~1\AppData\Local\Temp\ccsGRYiA.s:21365  .debug_str:00000000000062a1 .LASF3055
C:\Users\CYMR90~1\AppData\Local\Temp\ccsGRYiA.s:25766  .debug_str:0000000000017f29 .LASF3056
C:\Users\CYMR90~1\AppData\Local\Temp\ccsGRYiA.s:24233  .debug_str:0000000000011b77 .LASF3057
C:\Users\CYMR90~1\AppData\Local\Temp\ccsGRYiA.s:22781  .debug_str:000000000000be60 .LASF3058
C:\Users\CYMR90~1\AppData\Local\Temp\ccsGRYiA.s:26610  .debug_str:000000000001b726 .LASF3059
C:\Users\CYMR90~1\AppData\Local\Temp\ccsGRYiA.s:23135  .debug_str:000000000000d64d .LASF3060
C:\Users\CYMR90~1\AppData\Local\Temp\ccsGRYiA.s:22123  .debug_str:0000000000009347 .LASF3061
C:\Users\CYMR90~1\AppData\Local\Temp\ccsGRYiA.s:28952  .debug_str:000000000002494a .LASF3062
C:\Users\CYMR90~1\AppData\Local\Temp\ccsGRYiA.s:24277  .debug_str:0000000000011e1f .LASF3063
C:\Users\CYMR90~1\AppData\Local\Temp\ccsGRYiA.s:28556  .debug_str:0000000000022f72 .LASF3064
C:\Users\CYMR90~1\AppData\Local\Temp\ccsGRYiA.s:22455  .debug_str:000000000000a86c .LASF3065
C:\Users\CYMR90~1\AppData\Local\Temp\ccsGRYiA.s:26184  .debug_str:0000000000019ac5 .LASF3066
C:\Users\CYMR90~1\AppData\Local\Temp\ccsGRYiA.s:29470  .debug_str:0000000000026b3f .LASF3067
C:\Users\CYMR90~1\AppData\Local\Temp\ccsGRYiA.s:23165  .debug_str:000000000000d7e8 .LASF3068
C:\Users\CYMR90~1\AppData\Local\Temp\ccsGRYiA.s:21255  .debug_str:0000000000005bc0 .LASF3069
C:\Users\CYMR90~1\AppData\Local\Temp\ccsGRYiA.s:22767  .debug_str:000000000000bd4d .LASF3070
C:\Users\CYMR90~1\AppData\Local\Temp\ccsGRYiA.s:21553  .debug_str:0000000000006e55 .LASF3071
C:\Users\CYMR90~1\AppData\Local\Temp\ccsGRYiA.s:23463  .debug_str:000000000000ea11 .LASF3072
C:\Users\CYMR90~1\AppData\Local\Temp\ccsGRYiA.s:20031  .debug_str:0000000000000efb .LASF3073
C:\Users\CYMR90~1\AppData\Local\Temp\ccsGRYiA.s:30640  .debug_str:000000000002b563 .LASF3074
C:\Users\CYMR90~1\AppData\Local\Temp\ccsGRYiA.s:30240  .debug_str:0000000000029cf3 .LASF3075
C:\Users\CYMR90~1\AppData\Local\Temp\ccsGRYiA.s:27690  .debug_str:000000000001fb09 .LASF3076
C:\Users\CYMR90~1\AppData\Local\Temp\ccsGRYiA.s:28804  .debug_str:0000000000023e68 .LASF3077
C:\Users\CYMR90~1\AppData\Local\Temp\ccsGRYiA.s:27272  .debug_str:000000000001e1e2 .LASF3078
C:\Users\CYMR90~1\AppData\Local\Temp\ccsGRYiA.s:27652  .debug_str:000000000001f88b .LASF3079
C:\Users\CYMR90~1\AppData\Local\Temp\ccsGRYiA.s:29608  .debug_str:0000000000027423 .LASF3080
C:\Users\CYMR90~1\AppData\Local\Temp\ccsGRYiA.s:24871  .debug_str:00000000000144a9 .LASF3081
C:\Users\CYMR90~1\AppData\Local\Temp\ccsGRYiA.s:25429  .debug_str:00000000000167fc .LASF3082
C:\Users\CYMR90~1\AppData\Local\Temp\ccsGRYiA.s:20287  .debug_str:0000000000001eaf .LASF3083
C:\Users\CYMR90~1\AppData\Local\Temp\ccsGRYiA.s:27638  .debug_str:000000000001f7a2 .LASF3084
C:\Users\CYMR90~1\AppData\Local\Temp\ccsGRYiA.s:27588  .debug_str:000000000001f4cf .LASF3085
C:\Users\CYMR90~1\AppData\Local\Temp\ccsGRYiA.s:26718  .debug_str:000000000001bd93 .LASF3086
C:\Users\CYMR90~1\AppData\Local\Temp\ccsGRYiA.s:20455  .debug_str:00000000000028c1 .LASF3087
C:\Users\CYMR90~1\AppData\Local\Temp\ccsGRYiA.s:29110  .debug_str:000000000002544f .LASF3088
C:\Users\CYMR90~1\AppData\Local\Temp\ccsGRYiA.s:23051  .debug_str:000000000000d01f .LASF3089
C:\Users\CYMR90~1\AppData\Local\Temp\ccsGRYiA.s:20805  .debug_str:0000000000003f0c .LASF3090
C:\Users\CYMR90~1\AppData\Local\Temp\ccsGRYiA.s:20549  .debug_str:0000000000002e63 .LASF3091
C:\Users\CYMR90~1\AppData\Local\Temp\ccsGRYiA.s:21955  .debug_str:000000000000891f .LASF3092
C:\Users\CYMR90~1\AppData\Local\Temp\ccsGRYiA.s:27264  .debug_str:000000000001e154 .LASF3093
C:\Users\CYMR90~1\AppData\Local\Temp\ccsGRYiA.s:28398  .debug_str:00000000000225fe .LASF3094
C:\Users\CYMR90~1\AppData\Local\Temp\ccsGRYiA.s:22327  .debug_str:000000000000a053 .LASF3095
C:\Users\CYMR90~1\AppData\Local\Temp\ccsGRYiA.s:23255  .debug_str:000000000000dcf3 .LASF3096
C:\Users\CYMR90~1\AppData\Local\Temp\ccsGRYiA.s:29540  .debug_str:0000000000026f79 .LASF3097
C:\Users\CYMR90~1\AppData\Local\Temp\ccsGRYiA.s:23297  .debug_str:000000000000dfa8 .LASF3098
C:\Users\CYMR90~1\AppData\Local\Temp\ccsGRYiA.s:26494  .debug_str:000000000001b000 .LASF3099
C:\Users\CYMR90~1\AppData\Local\Temp\ccsGRYiA.s:26142  .debug_str:0000000000019774 .LASF3100
C:\Users\CYMR90~1\AppData\Local\Temp\ccsGRYiA.s:22775  .debug_str:000000000000bdd1 .LASF3101
C:\Users\CYMR90~1\AppData\Local\Temp\ccsGRYiA.s:27848  .debug_str:000000000002046f .LASF3102
C:\Users\CYMR90~1\AppData\Local\Temp\ccsGRYiA.s:25698  .debug_str:0000000000017b0f .LASF3103
C:\Users\CYMR90~1\AppData\Local\Temp\ccsGRYiA.s:29848  .debug_str:000000000002848d .LASF3104
C:\Users\CYMR90~1\AppData\Local\Temp\ccsGRYiA.s:27364  .debug_str:000000000001e766 .LASF3105
C:\Users\CYMR90~1\AppData\Local\Temp\ccsGRYiA.s:26692  .debug_str:000000000001bbb0 .LASF3106
C:\Users\CYMR90~1\AppData\Local\Temp\ccsGRYiA.s:29728  .debug_str:0000000000027bf6 .LASF3107
C:\Users\CYMR90~1\AppData\Local\Temp\ccsGRYiA.s:20313  .debug_str:0000000000002033 .LASF3108
C:\Users\CYMR90~1\AppData\Local\Temp\ccsGRYiA.s:23489  .debug_str:000000000000ebda .LASF3109
C:\Users\CYMR90~1\AppData\Local\Temp\ccsGRYiA.s:23533  .debug_str:000000000000ee29 .LASF3110
C:\Users\CYMR90~1\AppData\Local\Temp\ccsGRYiA.s:29380  .debug_str:00000000000265db .LASF3111
C:\Users\CYMR90~1\AppData\Local\Temp\ccsGRYiA.s:29732  .debug_str:0000000000027c35 .LASF3112
C:\Users\CYMR90~1\AppData\Local\Temp\ccsGRYiA.s:25792  .debug_str:000000000001809b .LASF3113
C:\Users\CYMR90~1\AppData\Local\Temp\ccsGRYiA.s:28504  .debug_str:0000000000022c8a .LASF3114
C:\Users\CYMR90~1\AppData\Local\Temp\ccsGRYiA.s:20147  .debug_str:000000000000157d .LASF3115
C:\Users\CYMR90~1\AppData\Local\Temp\ccsGRYiA.s:20449  .debug_str:0000000000002865 .LASF3116
C:\Users\CYMR90~1\AppData\Local\Temp\ccsGRYiA.s:30314  .debug_str:000000000002a123 .LASF3117
C:\Users\CYMR90~1\AppData\Local\Temp\ccsGRYiA.s:21345  .debug_str:0000000000006195 .LASF3118
C:\Users\CYMR90~1\AppData\Local\Temp\ccsGRYiA.s:24577  .debug_str:0000000000013255 .LASF3119
C:\Users\CYMR90~1\AppData\Local\Temp\ccsGRYiA.s:23125  .debug_str:000000000000d595 .LASF3120
C:\Users\CYMR90~1\AppData\Local\Temp\ccsGRYiA.s:28074  .debug_str:00000000000211e2 .LASF3121
C:\Users\CYMR90~1\AppData\Local\Temp\ccsGRYiA.s:26152  .debug_str:0000000000019850 .LASF3122
C:\Users\CYMR90~1\AppData\Local\Temp\ccsGRYiA.s:22305  .debug_str:0000000000009ede .LASF3123
C:\Users\CYMR90~1\AppData\Local\Temp\ccsGRYiA.s:22061  .debug_str:0000000000008fb3 .LASF3124
C:\Users\CYMR90~1\AppData\Local\Temp\ccsGRYiA.s:22647  .debug_str:000000000000b53d .LASF3125
C:\Users\CYMR90~1\AppData\Local\Temp\ccsGRYiA.s:20879  .debug_str:0000000000004406 .LASF3126
C:\Users\CYMR90~1\AppData\Local\Temp\ccsGRYiA.s:24009  .debug_str:0000000000010d20 .LASF3127
C:\Users\CYMR90~1\AppData\Local\Temp\ccsGRYiA.s:25682  .debug_str:0000000000017a23 .LASF3128
C:\Users\CYMR90~1\AppData\Local\Temp\ccsGRYiA.s:21931  .debug_str:0000000000008782 .LASF3129
C:\Users\CYMR90~1\AppData\Local\Temp\ccsGRYiA.s:22723  .debug_str:000000000000ba2e .LASF3130
C:\Users\CYMR90~1\AppData\Local\Temp\ccsGRYiA.s:22673  .debug_str:000000000000b70b .LASF3131
C:\Users\CYMR90~1\AppData\Local\Temp\ccsGRYiA.s:25586  .debug_str:00000000000173eb .LASF3132
C:\Users\CYMR90~1\AppData\Local\Temp\ccsGRYiA.s:29466  .debug_str:0000000000026b06 .LASF3133
C:\Users\CYMR90~1\AppData\Local\Temp\ccsGRYiA.s:22401  .debug_str:000000000000a525 .LASF3134
C:\Users\CYMR90~1\AppData\Local\Temp\ccsGRYiA.s:20425  .debug_str:00000000000026b0 .LASF3135
C:\Users\CYMR90~1\AppData\Local\Temp\ccsGRYiA.s:27390  .debug_str:000000000001e90f .LASF3136
C:\Users\CYMR90~1\AppData\Local\Temp\ccsGRYiA.s:30488  .debug_str:000000000002abe3 .LASF3137
C:\Users\CYMR90~1\AppData\Local\Temp\ccsGRYiA.s:25968  .debug_str:0000000000018b60 .LASF3138
C:\Users\CYMR90~1\AppData\Local\Temp\ccsGRYiA.s:20221  .debug_str:0000000000001aae .LASF3139
C:\Users\CYMR90~1\AppData\Local\Temp\ccsGRYiA.s:30908  .debug_str:000000000002c793 .LASF3140
C:\Users\CYMR90~1\AppData\Local\Temp\ccsGRYiA.s:25147  .debug_str:00000000000155db .LASF3141
C:\Users\CYMR90~1\AppData\Local\Temp\ccsGRYiA.s:28902  .debug_str:00000000000245c0 .LASF3142
C:\Users\CYMR90~1\AppData\Local\Temp\ccsGRYiA.s:22341  .debug_str:000000000000a127 .LASF3143
C:\Users\CYMR90~1\AppData\Local\Temp\ccsGRYiA.s:20245  .debug_str:0000000000001c3a .LASF3144
C:\Users\CYMR90~1\AppData\Local\Temp\ccsGRYiA.s:21371  .debug_str:000000000000630f .LASF3145
C:\Users\CYMR90~1\AppData\Local\Temp\ccsGRYiA.s:26572  .debug_str:000000000001b4e4 .LASF3146
C:\Users\CYMR90~1\AppData\Local\Temp\ccsGRYiA.s:20813  .debug_str:0000000000003f7b .LASF3147
C:\Users\CYMR90~1\AppData\Local\Temp\ccsGRYiA.s:22067  .debug_str:0000000000009016 .LASF3148
C:\Users\CYMR90~1\AppData\Local\Temp\ccsGRYiA.s:21117  .debug_str:0000000000005365 .LASF3149
C:\Users\CYMR90~1\AppData\Local\Temp\ccsGRYiA.s:22473  .debug_str:000000000000a93b .LASF3150
C:\Users\CYMR90~1\AppData\Local\Temp\ccsGRYiA.s:22793  .debug_str:000000000000bf12 .LASF3151
C:\Users\CYMR90~1\AppData\Local\Temp\ccsGRYiA.s:20465  .debug_str:0000000000002960 .LASF3152
C:\Users\CYMR90~1\AppData\Local\Temp\ccsGRYiA.s:28358  .debug_str:0000000000022395 .LASF3153
C:\Users\CYMR90~1\AppData\Local\Temp\ccsGRYiA.s:25053  .debug_str:0000000000015086 .LASF3154
C:\Users\CYMR90~1\AppData\Local\Temp\ccsGRYiA.s:21643  .debug_str:0000000000007446 .LASF3155
C:\Users\CYMR90~1\AppData\Local\Temp\ccsGRYiA.s:26550  .debug_str:000000000001b39d .LASF3156
C:\Users\CYMR90~1\AppData\Local\Temp\ccsGRYiA.s:21253  .debug_str:0000000000005ba1 .LASF3157
C:\Users\CYMR90~1\AppData\Local\Temp\ccsGRYiA.s:22157  .debug_str:0000000000009584 .LASF3158
C:\Users\CYMR90~1\AppData\Local\Temp\ccsGRYiA.s:24413  .debug_str:0000000000012790 .LASF3159
C:\Users\CYMR90~1\AppData\Local\Temp\ccsGRYiA.s:28376  .debug_str:0000000000022492 .LASF3160
C:\Users\CYMR90~1\AppData\Local\Temp\ccsGRYiA.s:29714  .debug_str:0000000000027ae3 .LASF3161
C:\Users\CYMR90~1\AppData\Local\Temp\ccsGRYiA.s:25782  .debug_str:000000000001800f .LASF3162
C:\Users\CYMR90~1\AppData\Local\Temp\ccsGRYiA.s:23649  .debug_str:000000000000f539 .LASF3163
C:\Users\CYMR90~1\AppData\Local\Temp\ccsGRYiA.s:28374  .debug_str:0000000000022479 .LASF3164
C:\Users\CYMR90~1\AppData\Local\Temp\ccsGRYiA.s:30148  .debug_str:0000000000029767 .LASF3165
C:\Users\CYMR90~1\AppData\Local\Temp\ccsGRYiA.s:26410  .debug_str:000000000001aa64 .LASF3166
C:\Users\CYMR90~1\AppData\Local\Temp\ccsGRYiA.s:21511  .debug_str:0000000000006b91 .LASF3167
C:\Users\CYMR90~1\AppData\Local\Temp\ccsGRYiA.s:21123  .debug_str:00000000000053a9 .LASF3168
C:\Users\CYMR90~1\AppData\Local\Temp\ccsGRYiA.s:27308  .debug_str:000000000001e3ed .LASF3169
C:\Users\CYMR90~1\AppData\Local\Temp\ccsGRYiA.s:23355  .debug_str:000000000000e30a .LASF3170
C:\Users\CYMR90~1\AppData\Local\Temp\ccsGRYiA.s:28574  .debug_str:000000000002305a .LASF3171
C:\Users\CYMR90~1\AppData\Local\Temp\ccsGRYiA.s:25638  .debug_str:0000000000017713 .LASF3172
C:\Users\CYMR90~1\AppData\Local\Temp\ccsGRYiA.s:29016  .debug_str:0000000000024d67 .LASF3173
C:\Users\CYMR90~1\AppData\Local\Temp\ccsGRYiA.s:28414  .debug_str:00000000000226fc .LASF3174
C:\Users\CYMR90~1\AppData\Local\Temp\ccsGRYiA.s:25694  .debug_str:0000000000017ae6 .LASF3175
C:\Users\CYMR90~1\AppData\Local\Temp\ccsGRYiA.s:30574  .debug_str:000000000002b0ee .LASF3176
C:\Users\CYMR90~1\AppData\Local\Temp\ccsGRYiA.s:30874  .debug_str:000000000002c520 .LASF3177
C:\Users\CYMR90~1\AppData\Local\Temp\ccsGRYiA.s:29312  .debug_str:0000000000026186 .LASF3178
C:\Users\CYMR90~1\AppData\Local\Temp\ccsGRYiA.s:20763  .debug_str:0000000000003c37 .LASF3179
C:\Users\CYMR90~1\AppData\Local\Temp\ccsGRYiA.s:23581  .debug_str:000000000000f0f9 .LASF3180
C:\Users\CYMR90~1\AppData\Local\Temp\ccsGRYiA.s:20733  .debug_str:0000000000003a54 .LASF3181
C:\Users\CYMR90~1\AppData\Local\Temp\ccsGRYiA.s:24121  .debug_str:0000000000011331 .LASF3182
C:\Users\CYMR90~1\AppData\Local\Temp\ccsGRYiA.s:23943  .debug_str:000000000001086a .LASF3183
C:\Users\CYMR90~1\AppData\Local\Temp\ccsGRYiA.s:21481  .debug_str:00000000000069aa .LASF3184
C:\Users\CYMR90~1\AppData\Local\Temp\ccsGRYiA.s:24327  .debug_str:000000000001221a .LASF3185
C:\Users\CYMR90~1\AppData\Local\Temp\ccsGRYiA.s:23989  .debug_str:0000000000010b6d .LASF3186
C:\Users\CYMR90~1\AppData\Local\Temp\ccsGRYiA.s:21319  .debug_str:0000000000005fdf .LASF3187
C:\Users\CYMR90~1\AppData\Local\Temp\ccsGRYiA.s:22407  .debug_str:000000000000a56f .LASF3188
C:\Users\CYMR90~1\AppData\Local\Temp\ccsGRYiA.s:24813  .debug_str:0000000000014124 .LASF3189
C:\Users\CYMR90~1\AppData\Local\Temp\ccsGRYiA.s:27316  .debug_str:000000000001e45d .LASF3190
C:\Users\CYMR90~1\AppData\Local\Temp\ccsGRYiA.s:20919  .debug_str:00000000000046cc .LASF3191
C:\Users\CYMR90~1\AppData\Local\Temp\ccsGRYiA.s:27846  .debug_str:0000000000020459 .LASF3192
C:\Users\CYMR90~1\AppData\Local\Temp\ccsGRYiA.s:28212  .debug_str:0000000000021ad9 .LASF3193
C:\Users\CYMR90~1\AppData\Local\Temp\ccsGRYiA.s:22215  .debug_str:000000000000992f .LASF3194
C:\Users\CYMR90~1\AppData\Local\Temp\ccsGRYiA.s:21557  .debug_str:0000000000006e87 .LASF3195
C:\Users\CYMR90~1\AppData\Local\Temp\ccsGRYiA.s:22077  .debug_str:0000000000009084 .LASF3196
C:\Users\CYMR90~1\AppData\Local\Temp\ccsGRYiA.s:20525  .debug_str:0000000000002cfe .LASF3197
C:\Users\CYMR90~1\AppData\Local\Temp\ccsGRYiA.s:30728  .debug_str:000000000002bb43 .LASF3198
C:\Users\CYMR90~1\AppData\Local\Temp\ccsGRYiA.s:21355  .debug_str:0000000000006232 .LASF3199
C:\Users\CYMR90~1\AppData\Local\Temp\ccsGRYiA.s:19919  .debug_str:000000000000077d .LASF3200
C:\Users\CYMR90~1\AppData\Local\Temp\ccsGRYiA.s:20925  .debug_str:0000000000004749 .LASF3201
C:\Users\CYMR90~1\AppData\Local\Temp\ccsGRYiA.s:28312  .debug_str:00000000000220ed .LASF3202
C:\Users\CYMR90~1\AppData\Local\Temp\ccsGRYiA.s:24403  .debug_str:00000000000126de .LASF3203
C:\Users\CYMR90~1\AppData\Local\Temp\ccsGRYiA.s:27934  .debug_str:00000000000209b1 .LASF3204
C:\Users\CYMR90~1\AppData\Local\Temp\ccsGRYiA.s:19855  .debug_str:00000000000003be .LASF3205
C:\Users\CYMR90~1\AppData\Local\Temp\ccsGRYiA.s:27526  .debug_str:000000000001f11f .LASF3206
C:\Users\CYMR90~1\AppData\Local\Temp\ccsGRYiA.s:26398  .debug_str:000000000001a9a2 .LASF3207
C:\Users\CYMR90~1\AppData\Local\Temp\ccsGRYiA.s:27306  .debug_str:000000000001e3cd .LASF3208
C:\Users\CYMR90~1\AppData\Local\Temp\ccsGRYiA.s:26894  .debug_str:000000000001c905 .LASF3209
C:\Users\CYMR90~1\AppData\Local\Temp\ccsGRYiA.s:25762  .debug_str:0000000000017ef3 .LASF3210
C:\Users\CYMR90~1\AppData\Local\Temp\ccsGRYiA.s:24287  .debug_str:0000000000011ea8 .LASF3211
C:\Users\CYMR90~1\AppData\Local\Temp\ccsGRYiA.s:22297  .debug_str:0000000000009e4b .LASF3212
C:\Users\CYMR90~1\AppData\Local\Temp\ccsGRYiA.s:27184  .debug_str:000000000001dc53 .LASF3213
C:\Users\CYMR90~1\AppData\Local\Temp\ccsGRYiA.s:30824  .debug_str:000000000002c236 .LASF3214
C:\Users\CYMR90~1\AppData\Local\Temp\ccsGRYiA.s:26162  .debug_str:0000000000019956 .LASF3215
C:\Users\CYMR90~1\AppData\Local\Temp\ccsGRYiA.s:26468  .debug_str:000000000001adf0 .LASF3216
C:\Users\CYMR90~1\AppData\Local\Temp\ccsGRYiA.s:28944  .debug_str:00000000000248e8 .LASF3217
C:\Users\CYMR90~1\AppData\Local\Temp\ccsGRYiA.s:30310  .debug_str:000000000002a0f0 .LASF3218
C:\Users\CYMR90~1\AppData\Local\Temp\ccsGRYiA.s:24165  .debug_str:000000000001162b .LASF3219
C:\Users\CYMR90~1\AppData\Local\Temp\ccsGRYiA.s:27138  .debug_str:000000000001d9e0 .LASF3220
C:\Users\CYMR90~1\AppData\Local\Temp\ccsGRYiA.s:23253  .debug_str:000000000000dcdb .LASF3221
C:\Users\CYMR90~1\AppData\Local\Temp\ccsGRYiA.s:30088  .debug_str:00000000000293b3 .LASF3222
C:\Users\CYMR90~1\AppData\Local\Temp\ccsGRYiA.s:21655  .debug_str:00000000000074fd .LASF3223
C:\Users\CYMR90~1\AppData\Local\Temp\ccsGRYiA.s:30356  .debug_str:000000000002a3fa .LASF3224
C:\Users\CYMR90~1\AppData\Local\Temp\ccsGRYiA.s:29158  .debug_str:000000000002581b .LASF3225
C:\Users\CYMR90~1\AppData\Local\Temp\ccsGRYiA.s:20691  .debug_str:00000000000037bb .LASF3226
C:\Users\CYMR90~1\AppData\Local\Temp\ccsGRYiA.s:23885  .debug_str:000000000001044e .LASF3227
C:\Users\CYMR90~1\AppData\Local\Temp\ccsGRYiA.s:29818  .debug_str:0000000000028288 .LASF3228
C:\Users\CYMR90~1\AppData\Local\Temp\ccsGRYiA.s:24349  .debug_str:000000000001236e .LASF3229
C:\Users\CYMR90~1\AppData\Local\Temp\ccsGRYiA.s:22469  .debug_str:000000000000a913 .LASF3230
C:\Users\CYMR90~1\AppData\Local\Temp\ccsGRYiA.s:30632  .debug_str:000000000002b4cf .LASF3231
C:\Users\CYMR90~1\AppData\Local\Temp\ccsGRYiA.s:22553  .debug_str:000000000000af1d .LASF3232
C:\Users\CYMR90~1\AppData\Local\Temp\ccsGRYiA.s:26216  .debug_str:0000000000019ca6 .LASF3233
C:\Users\CYMR90~1\AppData\Local\Temp\ccsGRYiA.s:30384  .debug_str:000000000002a5c3 .LASF3234
C:\Users\CYMR90~1\AppData\Local\Temp\ccsGRYiA.s:25962  .debug_str:0000000000018ad7 .LASF3235
C:\Users\CYMR90~1\AppData\Local\Temp\ccsGRYiA.s:30422  .debug_str:000000000002a7d4 .LASF3236
C:\Users\CYMR90~1\AppData\Local\Temp\ccsGRYiA.s:28040  .debug_str:0000000000020fe3 .LASF3237
C:\Users\CYMR90~1\AppData\Local\Temp\ccsGRYiA.s:29398  .debug_str:000000000002671a .LASF3238
C:\Users\CYMR90~1\AppData\Local\Temp\ccsGRYiA.s:23101  .debug_str:000000000000d3df .LASF3239
C:\Users\CYMR90~1\AppData\Local\Temp\ccsGRYiA.s:28792  .debug_str:0000000000023dbc .LASF3240
C:\Users\CYMR90~1\AppData\Local\Temp\ccsGRYiA.s:24937  .debug_str:00000000000148f1 .LASF3241
C:\Users\CYMR90~1\AppData\Local\Temp\ccsGRYiA.s:23779  .debug_str:000000000000fd9d .LASF3242
C:\Users\CYMR90~1\AppData\Local\Temp\ccsGRYiA.s:26882  .debug_str:000000000001c79b .LASF3243
C:\Users\CYMR90~1\AppData\Local\Temp\ccsGRYiA.s:29652  .debug_str:0000000000027691 .LASF3244
C:\Users\CYMR90~1\AppData\Local\Temp\ccsGRYiA.s:20713  .debug_str:0000000000003904 .LASF3245
C:\Users\CYMR90~1\AppData\Local\Temp\ccsGRYiA.s:27116  .debug_str:000000000001d851 .LASF3246
C:\Users\CYMR90~1\AppData\Local\Temp\ccsGRYiA.s:29828  .debug_str:000000000002832c .LASF3247
C:\Users\CYMR90~1\AppData\Local\Temp\ccsGRYiA.s:29554  .debug_str:0000000000027056 .LASF3248
C:\Users\CYMR90~1\AppData\Local\Temp\ccsGRYiA.s:28286  .debug_str:0000000000021f57 .LASF3249
C:\Users\CYMR90~1\AppData\Local\Temp\ccsGRYiA.s:25123  .debug_str:000000000001549f .LASF3250
C:\Users\CYMR90~1\AppData\Local\Temp\ccsGRYiA.s:22063  .debug_str:0000000000008fd7 .LASF3251
C:\Users\CYMR90~1\AppData\Local\Temp\ccsGRYiA.s:27020  .debug_str:000000000001d23f .LASF3252
C:\Users\CYMR90~1\AppData\Local\Temp\ccsGRYiA.s:24499  .debug_str:0000000000012d2c .LASF3253
C:\Users\CYMR90~1\AppData\Local\Temp\ccsGRYiA.s:22531  .debug_str:000000000000ace3 .LASF3254
C:\Users\CYMR90~1\AppData\Local\Temp\ccsGRYiA.s:26952  .debug_str:000000000001ccab .LASF3255
C:\Users\CYMR90~1\AppData\Local\Temp\ccsGRYiA.s:29036  .debug_str:0000000000024e96 .LASF3256
C:\Users\CYMR90~1\AppData\Local\Temp\ccsGRYiA.s:21009  .debug_str:0000000000004cd3 .LASF3257
C:\Users\CYMR90~1\AppData\Local\Temp\ccsGRYiA.s:30324  .debug_str:000000000002a1dd .LASF3258
C:\Users\CYMR90~1\AppData\Local\Temp\ccsGRYiA.s:29224  .debug_str:0000000000025c28 .LASF3259
C:\Users\CYMR90~1\AppData\Local\Temp\ccsGRYiA.s:26258  .debug_str:0000000000019f0d .LASF3260
C:\Users\CYMR90~1\AppData\Local\Temp\ccsGRYiA.s:26264  .debug_str:0000000000019f77 .LASF3261
C:\Users\CYMR90~1\AppData\Local\Temp\ccsGRYiA.s:29510  .debug_str:0000000000026dd5 .LASF3262
C:\Users\CYMR90~1\AppData\Local\Temp\ccsGRYiA.s:24383  .debug_str:000000000001257e .LASF3263
C:\Users\CYMR90~1\AppData\Local\Temp\ccsGRYiA.s:30296  .debug_str:000000000002a03b .LASF3264
C:\Users\CYMR90~1\AppData\Local\Temp\ccsGRYiA.s:25926  .debug_str:00000000000188ad .LASF3265
C:\Users\CYMR90~1\AppData\Local\Temp\ccsGRYiA.s:29584  .debug_str:00000000000272c0 .LASF3266
C:\Users\CYMR90~1\AppData\Local\Temp\ccsGRYiA.s:20897  .debug_str:000000000000452b .LASF3267
C:\Users\CYMR90~1\AppData\Local\Temp\ccsGRYiA.s:23979  .debug_str:0000000000010aa8 .LASF3268
C:\Users\CYMR90~1\AppData\Local\Temp\ccsGRYiA.s:27288  .debug_str:000000000001e2ae .LASF3269
C:\Users\CYMR90~1\AppData\Local\Temp\ccsGRYiA.s:24311  .debug_str:00000000000120ec .LASF3270
C:\Users\CYMR90~1\AppData\Local\Temp\ccsGRYiA.s:23735  .debug_str:000000000000fad8 .LASF3271
C:\Users\CYMR90~1\AppData\Local\Temp\ccsGRYiA.s:24497  .debug_str:0000000000012cf3 .LASF3272
C:\Users\CYMR90~1\AppData\Local\Temp\ccsGRYiA.s:28512  .debug_str:0000000000022ce0 .LASF3273
C:\Users\CYMR90~1\AppData\Local\Temp\ccsGRYiA.s:25307  .debug_str:0000000000016019 .LASF3274
C:\Users\CYMR90~1\AppData\Local\Temp\ccsGRYiA.s:26864  .debug_str:000000000001c646 .LASF3275
C:\Users\CYMR90~1\AppData\Local\Temp\ccsGRYiA.s:29668  .debug_str:00000000000277a5 .LASF3276
C:\Users\CYMR90~1\AppData\Local\Temp\ccsGRYiA.s:21761  .debug_str:0000000000007bd0 .LASF3277
C:\Users\CYMR90~1\AppData\Local\Temp\ccsGRYiA.s:21065  .debug_str:0000000000005011 .LASF3278
C:\Users\CYMR90~1\AppData\Local\Temp\ccsGRYiA.s:24447  .debug_str:00000000000129d1 .LASF3279
C:\Users\CYMR90~1\AppData\Local\Temp\ccsGRYiA.s:20073  .debug_str:0000000000001163 .LASF3280
C:\Users\CYMR90~1\AppData\Local\Temp\ccsGRYiA.s:20165  .debug_str:0000000000001680 .LASF3281
C:\Users\CYMR90~1\AppData\Local\Temp\ccsGRYiA.s:29778  .debug_str:0000000000027f75 .LASF3282
C:\Users\CYMR90~1\AppData\Local\Temp\ccsGRYiA.s:26536  .debug_str:000000000001b29f .LASF3283
C:\Users\CYMR90~1\AppData\Local\Temp\ccsGRYiA.s:23017  .debug_str:000000000000cdd5 .LASF3284
C:\Users\CYMR90~1\AppData\Local\Temp\ccsGRYiA.s:24899  .debug_str:0000000000014682 .LASF3285
C:\Users\CYMR90~1\AppData\Local\Temp\ccsGRYiA.s:25874  .debug_str:00000000000185ad .LASF3286
C:\Users\CYMR90~1\AppData\Local\Temp\ccsGRYiA.s:23733  .debug_str:000000000000fabf .LASF3287
C:\Users\CYMR90~1\AppData\Local\Temp\ccsGRYiA.s:27342  .debug_str:000000000001e5fd .LASF3288
C:\Users\CYMR90~1\AppData\Local\Temp\ccsGRYiA.s:22831  .debug_str:000000000000c17e .LASF3289
C:\Users\CYMR90~1\AppData\Local\Temp\ccsGRYiA.s:22405  .debug_str:000000000000a54c .LASF3290
C:\Users\CYMR90~1\AppData\Local\Temp\ccsGRYiA.s:25367  .debug_str:00000000000163da .LASF3291
C:\Users\CYMR90~1\AppData\Local\Temp\ccsGRYiA.s:26314  .debug_str:000000000001a259 .LASF3292
C:\Users\CYMR90~1\AppData\Local\Temp\ccsGRYiA.s:27590  .debug_str:000000000001f4ee .LASF3293
C:\Users\CYMR90~1\AppData\Local\Temp\ccsGRYiA.s:23807  .debug_str:000000000000ff77 .LASF3294
C:\Users\CYMR90~1\AppData\Local\Temp\ccsGRYiA.s:30902  .debug_str:000000000002c723 .LASF3295
C:\Users\CYMR90~1\AppData\Local\Temp\ccsGRYiA.s:25684  .debug_str:0000000000017a3a .LASF3296
C:\Users\CYMR90~1\AppData\Local\Temp\ccsGRYiA.s:28310  .debug_str:00000000000220c9 .LASF3297
C:\Users\CYMR90~1\AppData\Local\Temp\ccsGRYiA.s:22711  .debug_str:000000000000b992 .LASF3298
C:\Users\CYMR90~1\AppData\Local\Temp\ccsGRYiA.s:28588  .debug_str:0000000000023138 .LASF3299
C:\Users\CYMR90~1\AppData\Local\Temp\ccsGRYiA.s:24777  .debug_str:0000000000013eca .LASF3300
C:\Users\CYMR90~1\AppData\Local\Temp\ccsGRYiA.s:27484  .debug_str:000000000001ee4d .LASF3301
C:\Users\CYMR90~1\AppData\Local\Temp\ccsGRYiA.s:23565  .debug_str:000000000000f004 .LASF3302
C:\Users\CYMR90~1\AppData\Local\Temp\ccsGRYiA.s:30290  .debug_str:0000000000029fe1 .LASF3303
C:\Users\CYMR90~1\AppData\Local\Temp\ccsGRYiA.s:23881  .debug_str:0000000000010411 .LASF3304
C:\Users\CYMR90~1\AppData\Local\Temp\ccsGRYiA.s:29908  .debug_str:00000000000288b0 .LASF3305
C:\Users\CYMR90~1\AppData\Local\Temp\ccsGRYiA.s:25067  .debug_str:0000000000015169 .LASF3306
C:\Users\CYMR90~1\AppData\Local\Temp\ccsGRYiA.s:24197  .debug_str:00000000000118ca .LASF3307
C:\Users\CYMR90~1\AppData\Local\Temp\ccsGRYiA.s:22101  .debug_str:000000000000920a .LASF3308
C:\Users\CYMR90~1\AppData\Local\Temp\ccsGRYiA.s:21685  .debug_str:00000000000076db .LASF3309
C:\Users\CYMR90~1\AppData\Local\Temp\ccsGRYiA.s:31020  .debug_str:000000000002ceab .LASF3310
C:\Users\CYMR90~1\AppData\Local\Temp\ccsGRYiA.s:20853  .debug_str:000000000000424f .LASF3311
C:\Users\CYMR90~1\AppData\Local\Temp\ccsGRYiA.s:30548  .debug_str:000000000002af49 .LASF3312
C:\Users\CYMR90~1\AppData\Local\Temp\ccsGRYiA.s:23173  .debug_str:000000000000d85e .LASF3313
C:\Users\CYMR90~1\AppData\Local\Temp\ccsGRYiA.s:25852  .debug_str:0000000000018432 .LASF3314
C:\Users\CYMR90~1\AppData\Local\Temp\ccsGRYiA.s:25305  .debug_str:0000000000016001 .LASF3315
C:\Users\CYMR90~1\AppData\Local\Temp\ccsGRYiA.s:28600  .debug_str:00000000000231d8 .LASF3316
C:\Users\CYMR90~1\AppData\Local\Temp\ccsGRYiA.s:20085  .debug_str:0000000000001209 .LASF3317
C:\Users\CYMR90~1\AppData\Local\Temp\ccsGRYiA.s:21025  .debug_str:0000000000004ddc .LASF3318
C:\Users\CYMR90~1\AppData\Local\Temp\ccsGRYiA.s:28466  .debug_str:00000000000229dd .LASF3319
C:\Users\CYMR90~1\AppData\Local\Temp\ccsGRYiA.s:21271  .debug_str:0000000000005cd0 .LASF3320
C:\Users\CYMR90~1\AppData\Local\Temp\ccsGRYiA.s:28776  .debug_str:0000000000023ca3 .LASF3321
C:\Users\CYMR90~1\AppData\Local\Temp\ccsGRYiA.s:29186  .debug_str:00000000000259f4 .LASF3322
C:\Users\CYMR90~1\AppData\Local\Temp\ccsGRYiA.s:27922  .debug_str:000000000002092a .LASF3323
C:\Users\CYMR90~1\AppData\Local\Temp\ccsGRYiA.s:25211  .debug_str:00000000000159b3 .LASF3324
C:\Users\CYMR90~1\AppData\Local\Temp\ccsGRYiA.s:24957  .debug_str:0000000000014a14 .LASF3325
C:\Users\CYMR90~1\AppData\Local\Temp\ccsGRYiA.s:25674  .debug_str:0000000000017990 .LASF3326
C:\Users\CYMR90~1\AppData\Local\Temp\ccsGRYiA.s:27814  .debug_str:0000000000020250 .LASF3327
C:\Users\CYMR90~1\AppData\Local\Temp\ccsGRYiA.s:21651  .debug_str:00000000000074cf .LASF3328
C:\Users\CYMR90~1\AppData\Local\Temp\ccsGRYiA.s:19849  .debug_str:0000000000000365 .LASF3329
C:\Users\CYMR90~1\AppData\Local\Temp\ccsGRYiA.s:29932  .debug_str:0000000000028a39 .LASF3330
C:\Users\CYMR90~1\AppData\Local\Temp\ccsGRYiA.s:19981  .debug_str:0000000000000bb7 .LASF3331
C:\Users\CYMR90~1\AppData\Local\Temp\ccsGRYiA.s:28290  .debug_str:0000000000021fa7 .LASF3332
C:\Users\CYMR90~1\AppData\Local\Temp\ccsGRYiA.s:25103  .debug_str:00000000000153a6 .LASF3333
C:\Users\CYMR90~1\AppData\Local\Temp\ccsGRYiA.s:24757  .debug_str:0000000000013d9f .LASF3334
C:\Users\CYMR90~1\AppData\Local\Temp\ccsGRYiA.s:23043  .debug_str:000000000000cf98 .LASF3335
C:\Users\CYMR90~1\AppData\Local\Temp\ccsGRYiA.s:28590  .debug_str:000000000002315e .LASF3336
C:\Users\CYMR90~1\AppData\Local\Temp\ccsGRYiA.s:26580  .debug_str:000000000001b56f .LASF3337
C:\Users\CYMR90~1\AppData\Local\Temp\ccsGRYiA.s:25365  .debug_str:00000000000163bd .LASF3338
C:\Users\CYMR90~1\AppData\Local\Temp\ccsGRYiA.s:29034  .debug_str:0000000000024e78 .LASF3339
C:\Users\CYMR90~1\AppData\Local\Temp\ccsGRYiA.s:23699  .debug_str:000000000000f8d4 .LASF3340
C:\Users\CYMR90~1\AppData\Local\Temp\ccsGRYiA.s:28510  .debug_str:0000000000022cc4 .LASF3341
C:\Users\CYMR90~1\AppData\Local\Temp\ccsGRYiA.s:24595  .debug_str:0000000000013391 .LASF3342
C:\Users\CYMR90~1\AppData\Local\Temp\ccsGRYiA.s:27066  .debug_str:000000000001d4ef .LASF3343
C:\Users\CYMR90~1\AppData\Local\Temp\ccsGRYiA.s:21479  .debug_str:0000000000006993 .LASF3344
C:\Users\CYMR90~1\AppData\Local\Temp\ccsGRYiA.s:30942  .debug_str:000000000002c99e .LASF3345
C:\Users\CYMR90~1\AppData\Local\Temp\ccsGRYiA.s:21671  .debug_str:00000000000075f8 .LASF3346
C:\Users\CYMR90~1\AppData\Local\Temp\ccsGRYiA.s:20781  .debug_str:0000000000003d62 .LASF3347
C:\Users\CYMR90~1\AppData\Local\Temp\ccsGRYiA.s:30622  .debug_str:000000000002b403 .LASF3348
C:\Users\CYMR90~1\AppData\Local\Temp\ccsGRYiA.s:22559  .debug_str:000000000000af7e .LASF3349
C:\Users\CYMR90~1\AppData\Local\Temp\ccsGRYiA.s:24751  .debug_str:0000000000013d60 .LASF3350
C:\Users\CYMR90~1\AppData\Local\Temp\ccsGRYiA.s:21057  .debug_str:0000000000004fb1 .LASF3351
C:\Users\CYMR90~1\AppData\Local\Temp\ccsGRYiA.s:22441  .debug_str:000000000000a761 .LASF3352
C:\Users\CYMR90~1\AppData\Local\Temp\ccsGRYiA.s:21249  .debug_str:0000000000005b61 .LASF3353
C:\Users\CYMR90~1\AppData\Local\Temp\ccsGRYiA.s:22655  .debug_str:000000000000b5ab .LASF3354
C:\Users\CYMR90~1\AppData\Local\Temp\ccsGRYiA.s:21183  .debug_str:0000000000005764 .LASF3355
C:\Users\CYMR90~1\AppData\Local\Temp\ccsGRYiA.s:24305  .debug_str:000000000001207b .LASF3356
C:\Users\CYMR90~1\AppData\Local\Temp\ccsGRYiA.s:29686  .debug_str:000000000002791e .LASF3357
C:\Users\CYMR90~1\AppData\Local\Temp\ccsGRYiA.s:26104  .debug_str:0000000000019548 .LASF3358
C:\Users\CYMR90~1\AppData\Local\Temp\ccsGRYiA.s:25413  .debug_str:00000000000166f4 .LASF3359
C:\Users\CYMR90~1\AppData\Local\Temp\ccsGRYiA.s:30970  .debug_str:000000000002cbb2 .LASF3360
C:\Users\CYMR90~1\AppData\Local\Temp\ccsGRYiA.s:27560  .debug_str:000000000001f327 .LASF3361
C:\Users\CYMR90~1\AppData\Local\Temp\ccsGRYiA.s:24235  .debug_str:0000000000011b91 .LASF3362
C:\Users\CYMR90~1\AppData\Local\Temp\ccsGRYiA.s:21377  .debug_str:000000000000634c .LASF3363
C:\Users\CYMR90~1\AppData\Local\Temp\ccsGRYiA.s:28644  .debug_str:000000000002349f .LASF3364
C:\Users\CYMR90~1\AppData\Local\Temp\ccsGRYiA.s:25261  .debug_str:0000000000015cc5 .LASF3365
C:\Users\CYMR90~1\AppData\Local\Temp\ccsGRYiA.s:21893  .debug_str:0000000000008570 .LASF3366
C:\Users\CYMR90~1\AppData\Local\Temp\ccsGRYiA.s:25798  .debug_str:00000000000180ce .LASF3367
C:\Users\CYMR90~1\AppData\Local\Temp\ccsGRYiA.s:30682  .debug_str:000000000002b83e .LASF3368
C:\Users\CYMR90~1\AppData\Local\Temp\ccsGRYiA.s:29260  .debug_str:0000000000025e40 .LASF3369
C:\Users\CYMR90~1\AppData\Local\Temp\ccsGRYiA.s:20185  .debug_str:0000000000001878 .LASF3370
C:\Users\CYMR90~1\AppData\Local\Temp\ccsGRYiA.s:21223  .debug_str:00000000000059a5 .LASF3371
C:\Users\CYMR90~1\AppData\Local\Temp\ccsGRYiA.s:27350  .debug_str:000000000001e649 .LASF3372
C:\Users\CYMR90~1\AppData\Local\Temp\ccsGRYiA.s:27568  .debug_str:000000000001f3a5 .LASF3373
C:\Users\CYMR90~1\AppData\Local\Temp\ccsGRYiA.s:28690  .debug_str:00000000000237cb .LASF3374
C:\Users\CYMR90~1\AppData\Local\Temp\ccsGRYiA.s:20181  .debug_str:0000000000001831 .LASF3375
C:\Users\CYMR90~1\AppData\Local\Temp\ccsGRYiA.s:25908  .debug_str:0000000000018759 .LASF3376
C:\Users\CYMR90~1\AppData\Local\Temp\ccsGRYiA.s:30922  .debug_str:000000000002c877 .LASF3377
C:\Users\CYMR90~1\AppData\Local\Temp\ccsGRYiA.s:22629  .debug_str:000000000000b390 .LASF3378
C:\Users\CYMR90~1\AppData\Local\Temp\ccsGRYiA.s:25780  .debug_str:0000000000017fef .LASF3379
C:\Users\CYMR90~1\AppData\Local\Temp\ccsGRYiA.s:20117  .debug_str:00000000000013eb .LASF3380
C:\Users\CYMR90~1\AppData\Local\Temp\ccsGRYiA.s:24151  .debug_str:0000000000011543 .LASF3381
C:\Users\CYMR90~1\AppData\Local\Temp\ccsGRYiA.s:22839  .debug_str:000000000000c1f4 .LASF3382
C:\Users\CYMR90~1\AppData\Local\Temp\ccsGRYiA.s:23105  .debug_str:000000000000d42a .LASF3383
C:\Users\CYMR90~1\AppData\Local\Temp\ccsGRYiA.s:30678  .debug_str:000000000002b7f3 .LASF3384
C:\Users\CYMR90~1\AppData\Local\Temp\ccsGRYiA.s:27764  .debug_str:000000000001ffa2 .LASF3385
C:\Users\CYMR90~1\AppData\Local\Temp\ccsGRYiA.s:23595  .debug_str:000000000000f1f0 .LASF3386
C:\Users\CYMR90~1\AppData\Local\Temp\ccsGRYiA.s:29184  .debug_str:00000000000259cc .LASF3387
C:\Users\CYMR90~1\AppData\Local\Temp\ccsGRYiA.s:28146  .debug_str:00000000000216d2 .LASF3388
C:\Users\CYMR90~1\AppData\Local\Temp\ccsGRYiA.s:23849  .debug_str:000000000001023a .LASF3389
C:\Users\CYMR90~1\AppData\Local\Temp\ccsGRYiA.s:27762  .debug_str:000000000001ff7b .LASF3390
C:\Users\CYMR90~1\AppData\Local\Temp\ccsGRYiA.s:24907  .debug_str:0000000000014736 .LASF3391
C:\Users\CYMR90~1\AppData\Local\Temp\ccsGRYiA.s:30558  .debug_str:000000000002afd2 .LASF3392
C:\Users\CYMR90~1\AppData\Local\Temp\ccsGRYiA.s:22955  .debug_str:000000000000ca41 .LASF3393
C:\Users\CYMR90~1\AppData\Local\Temp\ccsGRYiA.s:27794  .debug_str:000000000002013c .LASF3394
C:\Users\CYMR90~1\AppData\Local\Temp\ccsGRYiA.s:29318  .debug_str:00000000000261e5 .LASF3395
C:\Users\CYMR90~1\AppData\Local\Temp\ccsGRYiA.s:30974  .debug_str:000000000002cbef .LASF3396
C:\Users\CYMR90~1\AppData\Local\Temp\ccsGRYiA.s:22277  .debug_str:0000000000009d21 .LASF3397
C:\Users\CYMR90~1\AppData\Local\Temp\ccsGRYiA.s:26144  .debug_str:0000000000019797 .LASF3398
C:\Users\CYMR90~1\AppData\Local\Temp\ccsGRYiA.s:23569  .debug_str:000000000000f034 .LASF3399
C:\Users\CYMR90~1\AppData\Local\Temp\ccsGRYiA.s:27482  .debug_str:000000000001ee2f .LASF3400
C:\Users\CYMR90~1\AppData\Local\Temp\ccsGRYiA.s:25960  .debug_str:0000000000018ab8 .LASF3401
C:\Users\CYMR90~1\AppData\Local\Temp\ccsGRYiA.s:30486  .debug_str:000000000002abc3 .LASF3402
C:\Users\CYMR90~1\AppData\Local\Temp\ccsGRYiA.s:26730  .debug_str:000000000001be66 .LASF3403
C:\Users\CYMR90~1\AppData\Local\Temp\ccsGRYiA.s:20767  .debug_str:0000000000003c85 .LASF3404
C:\Users\CYMR90~1\AppData\Local\Temp\ccsGRYiA.s:22543  .debug_str:000000000000add9 .LASF3405
C:\Users\CYMR90~1\AppData\Local\Temp\ccsGRYiA.s:23591  .debug_str:000000000000f1a2 .LASF3406
C:\Users\CYMR90~1\AppData\Local\Temp\ccsGRYiA.s:28222  .debug_str:0000000000021b6e .LASF3407
C:\Users\CYMR90~1\AppData\Local\Temp\ccsGRYiA.s:25473  .debug_str:0000000000016ba0 .LASF3408
C:\Users\CYMR90~1\AppData\Local\Temp\ccsGRYiA.s:27252  .debug_str:000000000001e074 .LASF3409
C:\Users\CYMR90~1\AppData\Local\Temp\ccsGRYiA.s:26486  .debug_str:000000000001af22 .LASF3410
C:\Users\CYMR90~1\AppData\Local\Temp\ccsGRYiA.s:28246  .debug_str:0000000000021d0f .LASF3411
C:\Users\CYMR90~1\AppData\Local\Temp\ccsGRYiA.s:22509  .debug_str:000000000000ab95 .LASF3412
C:\Users\CYMR90~1\AppData\Local\Temp\ccsGRYiA.s:24873  .debug_str:00000000000144c3 .LASF3413
C:\Users\CYMR90~1\AppData\Local\Temp\ccsGRYiA.s:21321  .debug_str:0000000000005ffb .LASF3414
C:\Users\CYMR90~1\AppData\Local\Temp\ccsGRYiA.s:27978  .debug_str:0000000000020ca2 .LASF3415
C:\Users\CYMR90~1\AppData\Local\Temp\ccsGRYiA.s:24485  .debug_str:0000000000012c2d .LASF3416
C:\Users\CYMR90~1\AppData\Local\Temp\ccsGRYiA.s:26554  .debug_str:000000000001b3d7 .LASF3417
C:\Users\CYMR90~1\AppData\Local\Temp\ccsGRYiA.s:26426  .debug_str:000000000001ab78 .LASF3418
C:\Users\CYMR90~1\AppData\Local\Temp\ccsGRYiA.s:21077  .debug_str:00000000000050f0 .LASF3419
C:\Users\CYMR90~1\AppData\Local\Temp\ccsGRYiA.s:27838  .debug_str:00000000000203bc .LASF3420
C:\Users\CYMR90~1\AppData\Local\Temp\ccsGRYiA.s:24561  .debug_str:0000000000013138 .LASF3421
C:\Users\CYMR90~1\AppData\Local\Temp\ccsGRYiA.s:22385  .debug_str:000000000000a406 .LASF3422
C:\Users\CYMR90~1\AppData\Local\Temp\ccsGRYiA.s:26884  .debug_str:000000000001c7c0 .LASF3423
C:\Users\CYMR90~1\AppData\Local\Temp\ccsGRYiA.s:21589  .debug_str:000000000000707e .LASF3424
C:\Users\CYMR90~1\AppData\Local\Temp\ccsGRYiA.s:29504  .debug_str:0000000000026d71 .LASF3425
C:\Users\CYMR90~1\AppData\Local\Temp\ccsGRYiA.s:20989  .debug_str:0000000000004b9c .LASF3426
C:\Users\CYMR90~1\AppData\Local\Temp\ccsGRYiA.s:27892  .debug_str:000000000002077f .LASF3427
C:\Users\CYMR90~1\AppData\Local\Temp\ccsGRYiA.s:20297  .debug_str:0000000000001f42 .LASF3428
C:\Users\CYMR90~1\AppData\Local\Temp\ccsGRYiA.s:25856  .debug_str:0000000000018469 .LASF3429
C:\Users\CYMR90~1\AppData\Local\Temp\ccsGRYiA.s:25574  .debug_str:0000000000017345 .LASF3430
C:\Users\CYMR90~1\AppData\Local\Temp\ccsGRYiA.s:26608  .debug_str:000000000001b704 .LASF3431
C:\Users\CYMR90~1\AppData\Local\Temp\ccsGRYiA.s:23267  .debug_str:000000000000dde2 .LASF3432
C:\Users\CYMR90~1\AppData\Local\Temp\ccsGRYiA.s:27974  .debug_str:0000000000020c65 .LASF3433
C:\Users\CYMR90~1\AppData\Local\Temp\ccsGRYiA.s:28842  .debug_str:00000000000241b1 .LASF3434
C:\Users\CYMR90~1\AppData\Local\Temp\ccsGRYiA.s:29698  .debug_str:00000000000279d1 .LASF3435
C:\Users\CYMR90~1\AppData\Local\Temp\ccsGRYiA.s:28098  .debug_str:000000000002140a .LASF3436
C:\Users\CYMR90~1\AppData\Local\Temp\ccsGRYiA.s:29342  .debug_str:0000000000026343 .LASF3437
C:\Users\CYMR90~1\AppData\Local\Temp\ccsGRYiA.s:21609  .debug_str:000000000000720c .LASF3438
C:\Users\CYMR90~1\AppData\Local\Temp\ccsGRYiA.s:26616  .debug_str:000000000001b791 .LASF3439
C:\Users\CYMR90~1\AppData\Local\Temp\ccsGRYiA.s:20389  .debug_str:0000000000002446 .LASF3440
C:\Users\CYMR90~1\AppData\Local\Temp\ccsGRYiA.s:29102  .debug_str:00000000000253c8 .LASF3441
C:\Users\CYMR90~1\AppData\Local\Temp\ccsGRYiA.s:22845  .debug_str:000000000000c273 .LASF3442
C:\Users\CYMR90~1\AppData\Local\Temp\ccsGRYiA.s:25339  .debug_str:0000000000016230 .LASF3443
C:\Users\CYMR90~1\AppData\Local\Temp\ccsGRYiA.s:29534  .debug_str:0000000000026f2b .LASF3444
C:\Users\CYMR90~1\AppData\Local\Temp\ccsGRYiA.s:22497  .debug_str:000000000000aac5 .LASF3445
C:\Users\CYMR90~1\AppData\Local\Temp\ccsGRYiA.s:23345  .debug_str:000000000000e281 .LASF3446
C:\Users\CYMR90~1\AppData\Local\Temp\ccsGRYiA.s:20993  .debug_str:0000000000004beb .LASF3447
C:\Users\CYMR90~1\AppData\Local\Temp\ccsGRYiA.s:19975  .debug_str:0000000000000b3d .LASF3448
C:\Users\CYMR90~1\AppData\Local\Temp\ccsGRYiA.s:28256  .debug_str:0000000000021db3 .LASF3449
C:\Users\CYMR90~1\AppData\Local\Temp\ccsGRYiA.s:22515  .debug_str:000000000000abea .LASF3450
C:\Users\CYMR90~1\AppData\Local\Temp\ccsGRYiA.s:20683  .debug_str:000000000000371b .LASF3451
C:\Users\CYMR90~1\AppData\Local\Temp\ccsGRYiA.s:20143  .debug_str:0000000000001543 .LASF3452
C:\Users\CYMR90~1\AppData\Local\Temp\ccsGRYiA.s:25876  .debug_str:00000000000185c6 .LASF3453
C:\Users\CYMR90~1\AppData\Local\Temp\ccsGRYiA.s:25361  .debug_str:000000000001637d .LASF3454
C:\Users\CYMR90~1\AppData\Local\Temp\ccsGRYiA.s:24547  .debug_str:0000000000013051 .LASF3455
C:\Users\CYMR90~1\AppData\Local\Temp\ccsGRYiA.s:26222  .debug_str:0000000000019d0f .LASF3456
C:\Users\CYMR90~1\AppData\Local\Temp\ccsGRYiA.s:30448  .debug_str:000000000002a983 .LASF3457
C:\Users\CYMR90~1\AppData\Local\Temp\ccsGRYiA.s:25425  .debug_str:00000000000167ce .LASF3458
C:\Users\CYMR90~1\AppData\Local\Temp\ccsGRYiA.s:24463  .debug_str:0000000000012b06 .LASF3459
C:\Users\CYMR90~1\AppData\Local\Temp\ccsGRYiA.s:26510  .debug_str:000000000001b0e6 .LASF3460
C:\Users\CYMR90~1\AppData\Local\Temp\ccsGRYiA.s:29372  .debug_str:0000000000026543 .LASF3461
C:\Users\CYMR90~1\AppData\Local\Temp\ccsGRYiA.s:21827  .debug_str:000000000000811c .LASF3462
C:\Users\CYMR90~1\AppData\Local\Temp\ccsGRYiA.s:20513  .debug_str:0000000000002c2e .LASF3463
C:\Users\CYMR90~1\AppData\Local\Temp\ccsGRYiA.s:28184  .debug_str:00000000000218f4 .LASF3464
C:\Users\CYMR90~1\AppData\Local\Temp\ccsGRYiA.s:27516  .debug_str:000000000001f08b .LASF3465
C:\Users\CYMR90~1\AppData\Local\Temp\ccsGRYiA.s:27806  .debug_str:00000000000201e4 .LASF3466
C:\Users\CYMR90~1\AppData\Local\Temp\ccsGRYiA.s:28340  .debug_str:0000000000022299 .LASF3467
C:\Users\CYMR90~1\AppData\Local\Temp\ccsGRYiA.s:23977  .debug_str:0000000000010a90 .LASF3468
C:\Users\CYMR90~1\AppData\Local\Temp\ccsGRYiA.s:21535  .debug_str:0000000000006d14 .LASF3469
C:\Users\CYMR90~1\AppData\Local\Temp\ccsGRYiA.s:30606  .debug_str:000000000002b33d .LASF3470
C:\Users\CYMR90~1\AppData\Local\Temp\ccsGRYiA.s:30436  .debug_str:000000000002a8aa .LASF3471
C:\Users\CYMR90~1\AppData\Local\Temp\ccsGRYiA.s:20159  .debug_str:000000000000163e .LASF3472
C:\Users\CYMR90~1\AppData\Local\Temp\ccsGRYiA.s:19957  .debug_str:00000000000009bb .LASF3473
C:\Users\CYMR90~1\AppData\Local\Temp\ccsGRYiA.s:21263  .debug_str:0000000000005c31 .LASF3474
C:\Users\CYMR90~1\AppData\Local\Temp\ccsGRYiA.s:23765  .debug_str:000000000000fcce .LASF3475
C:\Users\CYMR90~1\AppData\Local\Temp\ccsGRYiA.s:30912  .debug_str:000000000002c7c0 .LASF3476
C:\Users\CYMR90~1\AppData\Local\Temp\ccsGRYiA.s:26036  .debug_str:000000000001912c .LASF3477
C:\Users\CYMR90~1\AppData\Local\Temp\ccsGRYiA.s:30544  .debug_str:000000000002af06 .LASF3478
C:\Users\CYMR90~1\AppData\Local\Temp\ccsGRYiA.s:26078  .debug_str:00000000000193a5 .LASF3479
C:\Users\CYMR90~1\AppData\Local\Temp\ccsGRYiA.s:28324  .debug_str:00000000000221c3 .LASF3480
C:\Users\CYMR90~1\AppData\Local\Temp\ccsGRYiA.s:24807  .debug_str:0000000000014094 .LASF3481
C:\Users\CYMR90~1\AppData\Local\Temp\ccsGRYiA.s:22939  .debug_str:000000000000c8a1 .LASF3482
C:\Users\CYMR90~1\AppData\Local\Temp\ccsGRYiA.s:20577  .debug_str:0000000000003007 .LASF3483
C:\Users\CYMR90~1\AppData\Local\Temp\ccsGRYiA.s:26392  .debug_str:000000000001a94e .LASF3484
C:\Users\CYMR90~1\AppData\Local\Temp\ccsGRYiA.s:27594  .debug_str:000000000001f521 .LASF3485
C:\Users\CYMR90~1\AppData\Local\Temp\ccsGRYiA.s:30244  .debug_str:0000000000029d30 .LASF3486
C:\Users\CYMR90~1\AppData\Local\Temp\ccsGRYiA.s:29460  .debug_str:0000000000026abd .LASF3487
C:\Users\CYMR90~1\AppData\Local\Temp\ccsGRYiA.s:28388  .debug_str:0000000000022558 .LASF3488
C:\Users\CYMR90~1\AppData\Local\Temp\ccsGRYiA.s:29048  .debug_str:0000000000024f47 .LASF3489
C:\Users\CYMR90~1\AppData\Local\Temp\ccsGRYiA.s:27206  .debug_str:000000000001ddac .LASF3490
C:\Users\CYMR90~1\AppData\Local\Temp\ccsGRYiA.s:27262  .debug_str:000000000001e139 .LASF3491
C:\Users\CYMR90~1\AppData\Local\Temp\ccsGRYiA.s:26302  .debug_str:000000000001a1a6 .LASF3492
C:\Users\CYMR90~1\AppData\Local\Temp\ccsGRYiA.s:19857  .debug_str:00000000000003db .LASF3493
C:\Users\CYMR90~1\AppData\Local\Temp\ccsGRYiA.s:25662  .debug_str:000000000001789d .LASF3494
C:\Users\CYMR90~1\AppData\Local\Temp\ccsGRYiA.s:29230  .debug_str:0000000000025c7e .LASF3495
C:\Users\CYMR90~1\AppData\Local\Temp\ccsGRYiA.s:21107  .debug_str:00000000000052cd .LASF3496
C:\Users\CYMR90~1\AppData\Local\Temp\ccsGRYiA.s:20197  .debug_str:000000000000194d .LASF3497
C:\Users\CYMR90~1\AppData\Local\Temp\ccsGRYiA.s:25219  .debug_str:0000000000015a1a .LASF3498
C:\Users\CYMR90~1\AppData\Local\Temp\ccsGRYiA.s:21019  .debug_str:0000000000004d75 .LASF3499
C:\Users\CYMR90~1\AppData\Local\Temp\ccsGRYiA.s:22193  .debug_str:000000000000979c .LASF3500
C:\Users\CYMR90~1\AppData\Local\Temp\ccsGRYiA.s:27276  .debug_str:000000000001e214 .LASF3501
C:\Users\CYMR90~1\AppData\Local\Temp\ccsGRYiA.s:20289  .debug_str:0000000000001ecc .LASF3502
C:\Users\CYMR90~1\AppData\Local\Temp\ccsGRYiA.s:27576  .debug_str:000000000001f439 .LASF3503
C:\Users\CYMR90~1\AppData\Local\Temp\ccsGRYiA.s:22169  .debug_str:000000000000963a .LASF3504
C:\Users\CYMR90~1\AppData\Local\Temp\ccsGRYiA.s:25788  .debug_str:0000000000018071 .LASF3505
C:\Users\CYMR90~1\AppData\Local\Temp\ccsGRYiA.s:29330  .debug_str:000000000002628b .LASF3506
C:\Users\CYMR90~1\AppData\Local\Temp\ccsGRYiA.s:23305  .debug_str:000000000000e019 .LASF3507
C:\Users\CYMR90~1\AppData\Local\Temp\ccsGRYiA.s:27334  .debug_str:000000000001e5a2 .LASF3508
C:\Users\CYMR90~1\AppData\Local\Temp\ccsGRYiA.s:30806  .debug_str:000000000002c091 .LASF3509
C:\Users\CYMR90~1\AppData\Local\Temp\ccsGRYiA.s:23619  .debug_str:000000000000f383 .LASF3510
C:\Users\CYMR90~1\AppData\Local\Temp\ccsGRYiA.s:27616  .debug_str:000000000001f674 .LASF3511
C:\Users\CYMR90~1\AppData\Local\Temp\ccsGRYiA.s:20977  .debug_str:0000000000004ae3 .LASF3512
C:\Users\CYMR90~1\AppData\Local\Temp\ccsGRYiA.s:27512  .debug_str:000000000001f057 .LASF3513
C:\Users\CYMR90~1\AppData\Local\Temp\ccsGRYiA.s:23315  .debug_str:000000000000e0b9 .LASF3514
C:\Users\CYMR90~1\AppData\Local\Temp\ccsGRYiA.s:30560  .debug_str:000000000002aff9 .LASF3515
C:\Users\CYMR90~1\AppData\Local\Temp\ccsGRYiA.s:29656  .debug_str:00000000000276d3 .LASF3516
C:\Users\CYMR90~1\AppData\Local\Temp\ccsGRYiA.s:25556  .debug_str:0000000000017228 .LASF3517
C:\Users\CYMR90~1\AppData\Local\Temp\ccsGRYiA.s:27078  .debug_str:000000000001d5e3 .LASF3518
C:\Users\CYMR90~1\AppData\Local\Temp\ccsGRYiA.s:25604  .debug_str:00000000000174e5 .LASF3519
C:\Users\CYMR90~1\AppData\Local\Temp\ccsGRYiA.s:29066  .debug_str:00000000000250cf .LASF3520
C:\Users\CYMR90~1\AppData\Local\Temp\ccsGRYiA.s:27228  .debug_str:000000000001df3a .LASF3521
C:\Users\CYMR90~1\AppData\Local\Temp\ccsGRYiA.s:28148  .debug_str:0000000000021711 .LASF3522
C:\Users\CYMR90~1\AppData\Local\Temp\ccsGRYiA.s:23869  .debug_str:000000000001035e .LASF3523
C:\Users\CYMR90~1\AppData\Local\Temp\ccsGRYiA.s:26336  .debug_str:000000000001a555 .LASF3524
C:\Users\CYMR90~1\AppData\Local\Temp\ccsGRYiA.s:30934  .debug_str:000000000002c940 .LASF3525
C:\Users\CYMR90~1\AppData\Local\Temp\ccsGRYiA.s:23029  .debug_str:000000000000ced6 .LASF3526
C:\Users\CYMR90~1\AppData\Local\Temp\ccsGRYiA.s:25838  .debug_str:0000000000018376 .LASF3527
C:\Users\CYMR90~1\AppData\Local\Temp\ccsGRYiA.s:22197  .debug_str:00000000000097ce .LASF3528
C:\Users\CYMR90~1\AppData\Local\Temp\ccsGRYiA.s:29328  .debug_str:000000000002626e .LASF3529
C:\Users\CYMR90~1\AppData\Local\Temp\ccsGRYiA.s:30380  .debug_str:000000000002a583 .LASF3530
C:\Users\CYMR90~1\AppData\Local\Temp\ccsGRYiA.s:22733  .debug_str:000000000000bad8 .LASF3531
C:\Users\CYMR90~1\AppData\Local\Temp\ccsGRYiA.s:29802  .debug_str:0000000000028190 .LASF3532
C:\Users\CYMR90~1\AppData\Local\Temp\ccsGRYiA.s:26736  .debug_str:000000000001bede .LASF3533
C:\Users\CYMR90~1\AppData\Local\Temp\ccsGRYiA.s:30254  .debug_str:0000000000029dba .LASF3534
C:\Users\CYMR90~1\AppData\Local\Temp\ccsGRYiA.s:20361  .debug_str:00000000000022d1 .LASF3535
C:\Users\CYMR90~1\AppData\Local\Temp\ccsGRYiA.s:29386  .debug_str:0000000000026657 .LASF3536
C:\Users\CYMR90~1\AppData\Local\Temp\ccsGRYiA.s:26174  .debug_str:0000000000019a32 .LASF3537
C:\Users\CYMR90~1\AppData\Local\Temp\ccsGRYiA.s:26098  .debug_str:00000000000194f6 .LASF3538
C:\Users\CYMR90~1\AppData\Local\Temp\ccsGRYiA.s:26514  .debug_str:000000000001b126 .LASF3539
C:\Users\CYMR90~1\AppData\Local\Temp\ccsGRYiA.s:20369  .debug_str:000000000000233b .LASF3540
C:\Users\CYMR90~1\AppData\Local\Temp\ccsGRYiA.s:29724  .debug_str:0000000000027bc6 .LASF3541
C:\Users\CYMR90~1\AppData\Local\Temp\ccsGRYiA.s:27164  .debug_str:000000000001db5e .LASF3542
C:\Users\CYMR90~1\AppData\Local\Temp\ccsGRYiA.s:20987  .debug_str:0000000000004b81 .LASF3543
C:\Users\CYMR90~1\AppData\Local\Temp\ccsGRYiA.s:23407  .debug_str:000000000000e67a .LASF3544
C:\Users\CYMR90~1\AppData\Local\Temp\ccsGRYiA.s:27932  .debug_str:0000000000020998 .LASF3545
C:\Users\CYMR90~1\AppData\Local\Temp\ccsGRYiA.s:30762  .debug_str:000000000002bdcb .LASF3546
C:\Users\CYMR90~1\AppData\Local\Temp\ccsGRYiA.s:30502  .debug_str:000000000002acaf .LASF3547
C:\Users\CYMR90~1\AppData\Local\Temp\ccsGRYiA.s:19917  .debug_str:0000000000000763 .LASF3548
C:\Users\CYMR90~1\AppData\Local\Temp\ccsGRYiA.s:23537  .debug_str:000000000000ee5c .LASF3549
C:\Users\CYMR90~1\AppData\Local\Temp\ccsGRYiA.s:24911  .debug_str:0000000000014789 .LASF3550
C:\Users\CYMR90~1\AppData\Local\Temp\ccsGRYiA.s:28702  .debug_str:0000000000023868 .LASF3551
C:\Users\CYMR90~1\AppData\Local\Temp\ccsGRYiA.s:26346  .debug_str:000000000001a5d7 .LASF3552
C:\Users\CYMR90~1\AppData\Local\Temp\ccsGRYiA.s:25504  .debug_str:0000000000016f19 .LASF3553
C:\Users\CYMR90~1\AppData\Local\Temp\ccsGRYiA.s:25946  .debug_str:0000000000018a17 .LASF3554
C:\Users\CYMR90~1\AppData\Local\Temp\ccsGRYiA.s:30326  .debug_str:000000000002a1fb .LASF3555
C:\Users\CYMR90~1\AppData\Local\Temp\ccsGRYiA.s:23081  .debug_str:000000000000d263 .LASF3556
C:\Users\CYMR90~1\AppData\Local\Temp\ccsGRYiA.s:25552  .debug_str:00000000000171e3 .LASF3557
C:\Users\CYMR90~1\AppData\Local\Temp\ccsGRYiA.s:30688  .debug_str:000000000002b8b6 .LASF3558
C:\Users\CYMR90~1\AppData\Local\Temp\ccsGRYiA.s:24981  .debug_str:0000000000014ba8 .LASF3559
C:\Users\CYMR90~1\AppData\Local\Temp\ccsGRYiA.s:27302  .debug_str:000000000001e39b .LASF3560
C:\Users\CYMR90~1\AppData\Local\Temp\ccsGRYiA.s:30130  .debug_str:000000000002969e .LASF3561
C:\Users\CYMR90~1\AppData\Local\Temp\ccsGRYiA.s:20507  .debug_str:0000000000002bf3 .LASF3562
C:\Users\CYMR90~1\AppData\Local\Temp\ccsGRYiA.s:27496  .debug_str:000000000001ef1c .LASF3563
C:\Users\CYMR90~1\AppData\Local\Temp\ccsGRYiA.s:22319  .debug_str:0000000000009fcd .LASF3564
C:\Users\CYMR90~1\AppData\Local\Temp\ccsGRYiA.s:20627  .debug_str:00000000000033a0 .LASF3565
C:\Users\CYMR90~1\AppData\Local\Temp\ccsGRYiA.s:22557  .debug_str:000000000000af65 .LASF3566
C:\Users\CYMR90~1\AppData\Local\Temp\ccsGRYiA.s:21501  .debug_str:0000000000006ad6 .LASF3567
C:\Users\CYMR90~1\AppData\Local\Temp\ccsGRYiA.s:29014  .debug_str:0000000000024d4b .LASF3568
C:\Users\CYMR90~1\AppData\Local\Temp\ccsGRYiA.s:26412  .debug_str:000000000001aa83 .LASF3569
C:\Users\CYMR90~1\AppData\Local\Temp\ccsGRYiA.s:26272  .debug_str:0000000000019ffe .LASF3570
C:\Users\CYMR90~1\AppData\Local\Temp\ccsGRYiA.s:21459  .debug_str:0000000000006855 .LASF3571
C:\Users\CYMR90~1\AppData\Local\Temp\ccsGRYiA.s:23415  .debug_str:000000000000e6ea .LASF3572
C:\Users\CYMR90~1\AppData\Local\Temp\ccsGRYiA.s:23251  .debug_str:000000000000dcbe .LASF3573
C:\Users\CYMR90~1\AppData\Local\Temp\ccsGRYiA.s:21895  .debug_str:0000000000008597 .LASF3574
C:\Users\CYMR90~1\AppData\Local\Temp\ccsGRYiA.s:22079  .debug_str:00000000000090a3 .LASF3575
C:\Users\CYMR90~1\AppData\Local\Temp\ccsGRYiA.s:22657  .debug_str:000000000000b5cd .LASF3576
C:\Users\CYMR90~1\AppData\Local\Temp\ccsGRYiA.s:20651  .debug_str:0000000000003524 .LASF3577
C:\Users\CYMR90~1\AppData\Local\Temp\ccsGRYiA.s:22013  .debug_str:0000000000008ca0 .LASF3578
C:\Users\CYMR90~1\AppData\Local\Temp\ccsGRYiA.s:19839  .debug_str:00000000000002c3 .LASF3579
C:\Users\CYMR90~1\AppData\Local\Temp\ccsGRYiA.s:25548  .debug_str:00000000000171b5 .LASF3580
C:\Users\CYMR90~1\AppData\Local\Temp\ccsGRYiA.s:22805  .debug_str:000000000000bfe9 .LASF3581
C:\Users\CYMR90~1\AppData\Local\Temp\ccsGRYiA.s:28640  .debug_str:0000000000023465 .LASF3582
C:\Users\CYMR90~1\AppData\Local\Temp\ccsGRYiA.s:30676  .debug_str:000000000002b7d9 .LASF3583
C:\Users\CYMR90~1\AppData\Local\Temp\ccsGRYiA.s:24355  .debug_str:00000000000123ca .LASF3584
C:\Users\CYMR90~1\AppData\Local\Temp\ccsGRYiA.s:24211  .debug_str:0000000000011a2e .LASF3585
C:\Users\CYMR90~1\AppData\Local\Temp\ccsGRYiA.s:26528  .debug_str:000000000001b238 .LASF3586
C:\Users\CYMR90~1\AppData\Local\Temp\ccsGRYiA.s:28654  .debug_str:0000000000023579 .LASF3587
C:\Users\CYMR90~1\AppData\Local\Temp\ccsGRYiA.s:30064  .debug_str:0000000000029232 .LASF3588
C:\Users\CYMR90~1\AppData\Local\Temp\ccsGRYiA.s:26190  .debug_str:0000000000019b22 .LASF3589
C:\Users\CYMR90~1\AppData\Local\Temp\ccsGRYiA.s:27480  .debug_str:000000000001ee10 .LASF3590
C:\Users\CYMR90~1\AppData\Local\Temp\ccsGRYiA.s:28578  .debug_str:000000000002308c .LASF3591
C:\Users\CYMR90~1\AppData\Local\Temp\ccsGRYiA.s:29414  .debug_str:0000000000026806 .LASF3592
C:\Users\CYMR90~1\AppData\Local\Temp\ccsGRYiA.s:20017  .debug_str:0000000000000d9d .LASF3593
C:\Users\CYMR90~1\AppData\Local\Temp\ccsGRYiA.s:23481  .debug_str:000000000000eb5e .LASF3594
C:\Users\CYMR90~1\AppData\Local\Temp\ccsGRYiA.s:30758  .debug_str:000000000002bd9a .LASF3595
C:\Users\CYMR90~1\AppData\Local\Temp\ccsGRYiA.s:26016  .debug_str:0000000000018ee2 .LASF3596
C:\Users\CYMR90~1\AppData\Local\Temp\ccsGRYiA.s:20493  .debug_str:0000000000002aef .LASF3597
C:\Users\CYMR90~1\AppData\Local\Temp\ccsGRYiA.s:20169  .debug_str:00000000000016c5 .LASF3598
C:\Users\CYMR90~1\AppData\Local\Temp\ccsGRYiA.s:23531  .debug_str:000000000000ee01 .LASF3599
C:\Users\CYMR90~1\AppData\Local\Temp\ccsGRYiA.s:23003  .debug_str:000000000000ccf8 .LASF3600
C:\Users\CYMR90~1\AppData\Local\Temp\ccsGRYiA.s:24395  .debug_str:0000000000012662 .LASF3601
C:\Users\CYMR90~1\AppData\Local\Temp\ccsGRYiA.s:28032  .debug_str:0000000000020f96 .LASF3602
C:\Users\CYMR90~1\AppData\Local\Temp\ccsGRYiA.s:28296  .debug_str:0000000000021ff1 .LASF3603
C:\Users\CYMR90~1\AppData\Local\Temp\ccsGRYiA.s:22175  .debug_str:0000000000009691 .LASF3604
C:\Users\CYMR90~1\AppData\Local\Temp\ccsGRYiA.s:28698  .debug_str:000000000002383a .LASF3605
C:\Users\CYMR90~1\AppData\Local\Temp\ccsGRYiA.s:30880  .debug_str:000000000002c584 .LASF3606
C:\Users\CYMR90~1\AppData\Local\Temp\ccsGRYiA.s:23805  .debug_str:000000000000ff5e .LASF3607
C:\Users\CYMR90~1\AppData\Local\Temp\ccsGRYiA.s:23303  .debug_str:000000000000e000 .LASF3608
C:\Users\CYMR90~1\AppData\Local\Temp\ccsGRYiA.s:27422  .debug_str:000000000001eae9 .LASF3609
C:\Users\CYMR90~1\AppData\Local\Temp\ccsGRYiA.s:20937  .debug_str:00000000000047f1 .LASF3610
C:\Users\CYMR90~1\AppData\Local\Temp\ccsGRYiA.s:20241  .debug_str:0000000000001c03 .LASF3611
C:\Users\CYMR90~1\AppData\Local\Temp\ccsGRYiA.s:22257  .debug_str:0000000000009c06 .LASF3612
C:\Users\CYMR90~1\AppData\Local\Temp\ccsGRYiA.s:28554  .debug_str:0000000000022f5a .LASF3613
C:\Users\CYMR90~1\AppData\Local\Temp\ccsGRYiA.s:24243  .debug_str:0000000000011c2b .LASF3614
C:\Users\CYMR90~1\AppData\Local\Temp\ccsGRYiA.s:24787  .debug_str:0000000000013f76 .LASF3615
C:\Users\CYMR90~1\AppData\Local\Temp\ccsGRYiA.s:22139  .debug_str:0000000000009432 .LASF3616
C:\Users\CYMR90~1\AppData\Local\Temp\ccsGRYiA.s:26430  .debug_str:000000000001abaa .LASF3617
C:\Users\CYMR90~1\AppData\Local\Temp\ccsGRYiA.s:26018  .debug_str:0000000000018f32 .LASF3618
C:\Users\CYMR90~1\AppData\Local\Temp\ccsGRYiA.s:29924  .debug_str:00000000000289bb .LASF3619
C:\Users\CYMR90~1\AppData\Local\Temp\ccsGRYiA.s:25706  .debug_str:0000000000017b84 .LASF3620
C:\Users\CYMR90~1\AppData\Local\Temp\ccsGRYiA.s:29842  .debug_str:000000000002842e .LASF3621
C:\Users\CYMR90~1\AppData\Local\Temp\ccsGRYiA.s:23313  .debug_str:000000000000e09a .LASF3622
C:\Users\CYMR90~1\AppData\Local\Temp\ccsGRYiA.s:21807  .debug_str:0000000000007f3c .LASF3623
C:\Users\CYMR90~1\AppData\Local\Temp\ccsGRYiA.s:30814  .debug_str:000000000002c143 .LASF3624
C:\Users\CYMR90~1\AppData\Local\Temp\ccsGRYiA.s:25107  .debug_str:00000000000153d8 .LASF3625
C:\Users\CYMR90~1\AppData\Local\Temp\ccsGRYiA.s:26810  .debug_str:000000000001c33e .LASF3626
C:\Users\CYMR90~1\AppData\Local\Temp\ccsGRYiA.s:26248  .debug_str:0000000000019e78 .LASF3627
C:\Users\CYMR90~1\AppData\Local\Temp\ccsGRYiA.s:28840  .debug_str:0000000000024174 .LASF3628
C:\Users\CYMR90~1\AppData\Local\Temp\ccsGRYiA.s:28082  .debug_str:0000000000021306 .LASF3629
C:\Users\CYMR90~1\AppData\Local\Temp\ccsGRYiA.s:22685  .debug_str:000000000000b7bb .LASF3630
C:\Users\CYMR90~1\AppData\Local\Temp\ccsGRYiA.s:26294  .debug_str:000000000001a136 .LASF3631
C:\Users\CYMR90~1\AppData\Local\Temp\ccsGRYiA.s:19809  .debug_str:00000000000000dc .LASF3632
C:\Users\CYMR90~1\AppData\Local\Temp\ccsGRYiA.s:24205  .debug_str:0000000000011939 .LASF3633
C:\Users\CYMR90~1\AppData\Local\Temp\ccsGRYiA.s:28126  .debug_str:0000000000021597 .LASF3634
C:\Users\CYMR90~1\AppData\Local\Temp\ccsGRYiA.s:28386  .debug_str:0000000000022533 .LASF3635
C:\Users\CYMR90~1\AppData\Local\Temp\ccsGRYiA.s:25293  .debug_str:0000000000015f0b .LASF3636
C:\Users\CYMR90~1\AppData\Local\Temp\ccsGRYiA.s:30192  .debug_str:0000000000029a12 .LASF3637
C:\Users\CYMR90~1\AppData\Local\Temp\ccsGRYiA.s:22909  .debug_str:000000000000c627 .LASF3638
C:\Users\CYMR90~1\AppData\Local\Temp\ccsGRYiA.s:24387  .debug_str:00000000000125e4 .LASF3639
C:\Users\CYMR90~1\AppData\Local\Temp\ccsGRYiA.s:28676  .debug_str:00000000000236e0 .LASF3640
C:\Users\CYMR90~1\AppData\Local\Temp\ccsGRYiA.s:29100  .debug_str:00000000000253a4 .LASF3641
C:\Users\CYMR90~1\AppData\Local\Temp\ccsGRYiA.s:24245  .debug_str:0000000000011c40 .LASF3642
C:\Users\CYMR90~1\AppData\Local\Temp\ccsGRYiA.s:24613  .debug_str:00000000000134ed .LASF3643
C:\Users\CYMR90~1\AppData\Local\Temp\ccsGRYiA.s:20263  .debug_str:0000000000001d26 .LASF3644
C:\Users\CYMR90~1\AppData\Local\Temp\ccsGRYiA.s:21587  .debug_str:000000000000705a .LASF3645
C:\Users\CYMR90~1\AppData\Local\Temp\ccsGRYiA.s:30634  .debug_str:000000000002b4ee .LASF3646
C:\Users\CYMR90~1\AppData\Local\Temp\ccsGRYiA.s:25323  .debug_str:0000000000016144 .LASF3647
C:\Users\CYMR90~1\AppData\Local\Temp\ccsGRYiA.s:26108  .debug_str:0000000000019597 .LASF3648
C:\Users\CYMR90~1\AppData\Local\Temp\ccsGRYiA.s:23187  .debug_str:000000000000d906 .LASF3649
C:\Users\CYMR90~1\AppData\Local\Temp\ccsGRYiA.s:24455  .debug_str:0000000000012a5f .LASF3650
C:\Users\CYMR90~1\AppData\Local\Temp\ccsGRYiA.s:20037  .debug_str:0000000000000f45 .LASF3651
C:\Users\CYMR90~1\AppData\Local\Temp\ccsGRYiA.s:26376  .debug_str:000000000001a7e8 .LASF3652
C:\Users\CYMR90~1\AppData\Local\Temp\ccsGRYiA.s:20855  .debug_str:000000000000426e .LASF3653
C:\Users\CYMR90~1\AppData\Local\Temp\ccsGRYiA.s:26622  .debug_str:000000000001b7f3 .LASF3654
C:\Users\CYMR90~1\AppData\Local\Temp\ccsGRYiA.s:21127  .debug_str:00000000000053ea .LASF3655
C:\Users\CYMR90~1\AppData\Local\Temp\ccsGRYiA.s:26876  .debug_str:000000000001c732 .LASF3656
C:\Users\CYMR90~1\AppData\Local\Temp\ccsGRYiA.s:21407  .debug_str:000000000000651c .LASF3657
C:\Users\CYMR90~1\AppData\Local\Temp\ccsGRYiA.s:27126  .debug_str:000000000001d8f7 .LASF3658
C:\Users\CYMR90~1\AppData\Local\Temp\ccsGRYiA.s:29572  .debug_str:0000000000027213 .LASF3659
C:\Users\CYMR90~1\AppData\Local\Temp\ccsGRYiA.s:28318  .debug_str:000000000002214d .LASF3660
C:\Users\CYMR90~1\AppData\Local\Temp\ccsGRYiA.s:21443  .debug_str:0000000000006723 .LASF3661
C:\Users\CYMR90~1\AppData\Local\Temp\ccsGRYiA.s:30202  .debug_str:0000000000029abf .LASF3662
C:\Users\CYMR90~1\AppData\Local\Temp\ccsGRYiA.s:27572  .debug_str:000000000001f3ff .LASF3663
C:\Users\CYMR90~1\AppData\Local\Temp\ccsGRYiA.s:25007  .debug_str:0000000000014d36 .LASF3664
C:\Users\CYMR90~1\AppData\Local\Temp\ccsGRYiA.s:22511  .debug_str:000000000000abaf .LASF3665
C:\Users\CYMR90~1\AppData\Local\Temp\ccsGRYiA.s:19899  .debug_str:0000000000000602 .LASF3666
C:\Users\CYMR90~1\AppData\Local\Temp\ccsGRYiA.s:23751  .debug_str:000000000000fbe6 .LASF3667
C:\Users\CYMR90~1\AppData\Local\Temp\ccsGRYiA.s:22691  .debug_str:000000000000b811 .LASF3668
C:\Users\CYMR90~1\AppData\Local\Temp\ccsGRYiA.s:23461  .debug_str:000000000000e9ed .LASF3669
C:\Users\CYMR90~1\AppData\Local\Temp\ccsGRYiA.s:21625  .debug_str:0000000000007348 .LASF3670
C:\Users\CYMR90~1\AppData\Local\Temp\ccsGRYiA.s:29640  .debug_str:00000000000275e7 .LASF3671
C:\Users\CYMR90~1\AppData\Local\Temp\ccsGRYiA.s:27048  .debug_str:000000000001d3c3 .LASF3672
C:\Users\CYMR90~1\AppData\Local\Temp\ccsGRYiA.s:24553  .debug_str:00000000000130b1 .LASF3673
C:\Users\CYMR90~1\AppData\Local\Temp\ccsGRYiA.s:26638  .debug_str:000000000001b8f6 .LASF3674
C:\Users\CYMR90~1\AppData\Local\Temp\ccsGRYiA.s:30594  .debug_str:000000000002b257 .LASF3675
C:\Users\CYMR90~1\AppData\Local\Temp\ccsGRYiA.s:23889  .debug_str:0000000000010488 .LASF3676
C:\Users\CYMR90~1\AppData\Local\Temp\ccsGRYiA.s:29874  .debug_str:0000000000028682 .LASF3677
C:\Users\CYMR90~1\AppData\Local\Temp\ccsGRYiA.s:22889  .debug_str:000000000000c523 .LASF3678
C:\Users\CYMR90~1\AppData\Local\Temp\ccsGRYiA.s:20347  .debug_str:00000000000021d7 .LASF3679
C:\Users\CYMR90~1\AppData\Local\Temp\ccsGRYiA.s:23865  .debug_str:0000000000010320 .LASF3680
C:\Users\CYMR90~1\AppData\Local\Temp\ccsGRYiA.s:23787  .debug_str:000000000000fe2e .LASF3681
C:\Users\CYMR90~1\AppData\Local\Temp\ccsGRYiA.s:23997  .debug_str:0000000000010be9 .LASF3682
C:\Users\CYMR90~1\AppData\Local\Temp\ccsGRYiA.s:28298  .debug_str:0000000000022009 .LASF3683
C:\Users\CYMR90~1\AppData\Local\Temp\ccsGRYiA.s:24673  .debug_str:00000000000138b2 .LASF3684
C:\Users\CYMR90~1\AppData\Local\Temp\ccsGRYiA.s:21797  .debug_str:0000000000007ea4 .LASF3685
C:\Users\CYMR90~1\AppData\Local\Temp\ccsGRYiA.s:28532  .debug_str:0000000000022e05 .LASF3686
C:\Users\CYMR90~1\AppData\Local\Temp\ccsGRYiA.s:30636  .debug_str:000000000002b512 .LASF3687
C:\Users\CYMR90~1\AppData\Local\Temp\ccsGRYiA.s:30176  .debug_str:000000000002991c .LASF3688
C:\Users\CYMR90~1\AppData\Local\Temp\ccsGRYiA.s:26726  .debug_str:000000000001be16 .LASF3689
C:\Users\CYMR90~1\AppData\Local\Temp\ccsGRYiA.s:21591  .debug_str:000000000000709c .LASF3690
C:\Users\CYMR90~1\AppData\Local\Temp\ccsGRYiA.s:21173  .debug_str:00000000000056d1 .LASF3691
C:\Users\CYMR90~1\AppData\Local\Temp\ccsGRYiA.s:21677  .debug_str:0000000000007657 .LASF3692
C:\Users\CYMR90~1\AppData\Local\Temp\ccsGRYiA.s:20643  .debug_str:00000000000034b1 .LASF3693
C:\Users\CYMR90~1\AppData\Local\Temp\ccsGRYiA.s:28920  .debug_str:00000000000246d0 .LASF3694
C:\Users\CYMR90~1\AppData\Local\Temp\ccsGRYiA.s:23815  .debug_str:000000000000ffd8 .LASF3695
C:\Users\CYMR90~1\AppData\Local\Temp\ccsGRYiA.s:21987  .debug_str:0000000000008b09 .LASF3696
C:\Users\CYMR90~1\AppData\Local\Temp\ccsGRYiA.s:22089  .debug_str:0000000000009156 .LASF3697
C:\Users\CYMR90~1\AppData\Local\Temp\ccsGRYiA.s:28194  .debug_str:0000000000021986 .LASF3698
C:\Users\CYMR90~1\AppData\Local\Temp\ccsGRYiA.s:30112  .debug_str:0000000000029560 .LASF3699
C:\Users\CYMR90~1\AppData\Local\Temp\ccsGRYiA.s:28446  .debug_str:00000000000228b9 .LASF3700
C:\Users\CYMR90~1\AppData\Local\Temp\ccsGRYiA.s:30006  .debug_str:0000000000028eb9 .LASF3701
C:\Users\CYMR90~1\AppData\Local\Temp\ccsGRYiA.s:19931  .debug_str:0000000000000836 .LASF3702
C:\Users\CYMR90~1\AppData\Local\Temp\ccsGRYiA.s:28480  .debug_str:0000000000022b24 .LASF3703
C:\Users\CYMR90~1\AppData\Local\Temp\ccsGRYiA.s:25506  .debug_str:0000000000016f31 .LASF3704
C:\Users\CYMR90~1\AppData\Local\Temp\ccsGRYiA.s:22519  .debug_str:000000000000ac23 .LASF3705
C:\Users\CYMR90~1\AppData\Local\Temp\ccsGRYiA.s:23063  .debug_str:000000000000d131 .LASF3706
C:\Users\CYMR90~1\AppData\Local\Temp\ccsGRYiA.s:21575  .debug_str:0000000000006f98 .LASF3707
C:\Users\CYMR90~1\AppData\Local\Temp\ccsGRYiA.s:25127  .debug_str:00000000000154dc .LASF3708
C:\Users\CYMR90~1\AppData\Local\Temp\ccsGRYiA.s:22935  .debug_str:000000000000c871 .LASF3709
C:\Users\CYMR90~1\AppData\Local\Temp\ccsGRYiA.s:28550  .debug_str:0000000000022f1b .LASF3710
C:\Users\CYMR90~1\AppData\Local\Temp\ccsGRYiA.s:26526  .debug_str:000000000001b1f5 .LASF3711
C:\Users\CYMR90~1\AppData\Local\Temp\ccsGRYiA.s:28488  .debug_str:0000000000022ba4 .LASF3712
C:\Users\CYMR90~1\AppData\Local\Temp\ccsGRYiA.s:25646  .debug_str:0000000000017797 .LASF3713
C:\Users\CYMR90~1\AppData\Local\Temp\ccsGRYiA.s:23379  .debug_str:000000000000e47f .LASF3714
C:\Users\CYMR90~1\AppData\Local\Temp\ccsGRYiA.s:27542  .debug_str:000000000001f1f5 .LASF3715
C:\Users\CYMR90~1\AppData\Local\Temp\ccsGRYiA.s:22573  .debug_str:000000000000b05a .LASF3716
C:\Users\CYMR90~1\AppData\Local\Temp\ccsGRYiA.s:24833  .debug_str:00000000000142a8 .LASF3717
C:\Users\CYMR90~1\AppData\Local\Temp\ccsGRYiA.s:25786  .debug_str:000000000001804f .LASF3718
C:\Users\CYMR90~1\AppData\Local\Temp\ccsGRYiA.s:29468  .debug_str:0000000000026b1d .LASF3719
C:\Users\CYMR90~1\AppData\Local\Temp\ccsGRYiA.s:22365  .debug_str:000000000000a29d .LASF3720
C:\Users\CYMR90~1\AppData\Local\Temp\ccsGRYiA.s:21097  .debug_str:000000000000520e .LASF3721
C:\Users\CYMR90~1\AppData\Local\Temp\ccsGRYiA.s:26076  .debug_str:0000000000019383 .LASF3722
C:\Users\CYMR90~1\AppData\Local\Temp\ccsGRYiA.s:22617  .debug_str:000000000000b2d4 .LASF3723
C:\Users\CYMR90~1\AppData\Local\Temp\ccsGRYiA.s:23347  .debug_str:000000000000e2a9 .LASF3724
C:\Users\CYMR90~1\AppData\Local\Temp\ccsGRYiA.s:26390  .debug_str:000000000001a92c .LASF3725
C:\Users\CYMR90~1\AppData\Local\Temp\ccsGRYiA.s:30580  .debug_str:000000000002b159 .LASF3726
C:\Users\CYMR90~1\AppData\Local\Temp\ccsGRYiA.s:23207  .debug_str:000000000000da4e .LASF3727
C:\Users\CYMR90~1\AppData\Local\Temp\ccsGRYiA.s:21181  .debug_str:0000000000005740 .LASF3728
C:\Users\CYMR90~1\AppData\Local\Temp\ccsGRYiA.s:30230  .debug_str:0000000000029c57 .LASF3729
C:\Users\CYMR90~1\AppData\Local\Temp\ccsGRYiA.s:27994  .debug_str:0000000000020d7e .LASF3730
C:\Users\CYMR90~1\AppData\Local\Temp\ccsGRYiA.s:21185  .debug_str:00000000000057a0 .LASF3731
C:\Users\CYMR90~1\AppData\Local\Temp\ccsGRYiA.s:20045  .debug_str:0000000000000fa4 .LASF3732
C:\Users\CYMR90~1\AppData\Local\Temp\ccsGRYiA.s:21281  .debug_str:0000000000005d4c .LASF3733
C:\Users\CYMR90~1\AppData\Local\Temp\ccsGRYiA.s:24719  .debug_str:0000000000013b6e .LASF3734
C:\Users\CYMR90~1\AppData\Local\Temp\ccsGRYiA.s:28186  .debug_str:000000000002190c .LASF3735
C:\Users\CYMR90~1\AppData\Local\Temp\ccsGRYiA.s:29278  .debug_str:0000000000025f98 .LASF3736
C:\Users\CYMR90~1\AppData\Local\Temp\ccsGRYiA.s:21011  .debug_str:0000000000004cef .LASF3737
C:\Users\CYMR90~1\AppData\Local\Temp\ccsGRYiA.s:28760  .debug_str:0000000000023b9c .LASF3738
C:\Users\CYMR90~1\AppData\Local\Temp\ccsGRYiA.s:27914  .debug_str:00000000000208a1 .LASF3739
C:\Users\CYMR90~1\AppData\Local\Temp\ccsGRYiA.s:30378  .debug_str:000000000002a55f .LASF3740
C:\Users\CYMR90~1\AppData\Local\Temp\ccsGRYiA.s:23483  .debug_str:000000000000eb76 .LASF3741
C:\Users\CYMR90~1\AppData\Local\Temp\ccsGRYiA.s:21193  .debug_str:00000000000057f6 .LASF3742
C:\Users\CYMR90~1\AppData\Local\Temp\ccsGRYiA.s:22843  .debug_str:000000000000c24f .LASF3743
C:\Users\CYMR90~1\AppData\Local\Temp\ccsGRYiA.s:28006  .debug_str:0000000000020e20 .LASF3744
C:\Users\CYMR90~1\AppData\Local\Temp\ccsGRYiA.s:25888  .debug_str:0000000000018654 .LASF3745
C:\Users\CYMR90~1\AppData\Local\Temp\ccsGRYiA.s:26964  .debug_str:000000000001cd6e .LASF3746
C:\Users\CYMR90~1\AppData\Local\Temp\ccsGRYiA.s:29980  .debug_str:0000000000028d37 .LASF3747
C:\Users\CYMR90~1\AppData\Local\Temp\ccsGRYiA.s:20753  .debug_str:0000000000003b78 .LASF3748
C:\Users\CYMR90~1\AppData\Local\Temp\ccsGRYiA.s:30906  .debug_str:000000000002c76d .LASF3749
C:\Users\CYMR90~1\AppData\Local\Temp\ccsGRYiA.s:20681  .debug_str:00000000000036f6 .LASF3750
C:\Users\CYMR90~1\AppData\Local\Temp\ccsGRYiA.s:29082  .debug_str:000000000002528a .LASF3751
C:\Users\CYMR90~1\AppData\Local\Temp\ccsGRYiA.s:20055  .debug_str:0000000000001029 .LASF3752
C:\Users\CYMR90~1\AppData\Local\Temp\ccsGRYiA.s:27130  .debug_str:000000000001d93e .LASF3753
C:\Users\CYMR90~1\AppData\Local\Temp\ccsGRYiA.s:24589  .debug_str:00000000000132ef .LASF3754
C:\Users\CYMR90~1\AppData\Local\Temp\ccsGRYiA.s:30992  .debug_str:000000000002cce3 .LASF3755
C:\Users\CYMR90~1\AppData\Local\Temp\ccsGRYiA.s:20483  .debug_str:0000000000002a56 .LASF3756
C:\Users\CYMR90~1\AppData\Local\Temp\ccsGRYiA.s:29522  .debug_str:0000000000026e85 .LASF3757
C:\Users\CYMR90~1\AppData\Local\Temp\ccsGRYiA.s:24441  .debug_str:000000000001295b .LASF3758
C:\Users\CYMR90~1\AppData\Local\Temp\ccsGRYiA.s:27816  .debug_str:0000000000020267 .LASF3759
C:\Users\CYMR90~1\AppData\Local\Temp\ccsGRYiA.s:27958  .debug_str:0000000000020b4e .LASF3760
C:\Users\CYMR90~1\AppData\Local\Temp\ccsGRYiA.s:20015  .debug_str:0000000000000d7b .LASF3761
C:\Users\CYMR90~1\AppData\Local\Temp\ccsGRYiA.s:27190  .debug_str:000000000001dccb .LASF3762
C:\Users\CYMR90~1\AppData\Local\Temp\ccsGRYiA.s:20113  .debug_str:0000000000001382 .LASF3763
C:\Users\CYMR90~1\AppData\Local\Temp\ccsGRYiA.s:29772  .debug_str:0000000000027f0d .LASF3764
C:\Users\CYMR90~1\AppData\Local\Temp\ccsGRYiA.s:24341  .debug_str:00000000000122bd .LASF3765
C:\Users\CYMR90~1\AppData\Local\Temp\ccsGRYiA.s:27322  .debug_str:000000000001e4b2 .LASF3766
C:\Users\CYMR90~1\AppData\Local\Temp\ccsGRYiA.s:26246  .debug_str:0000000000019e48 .LASF3767
C:\Users\CYMR90~1\AppData\Local\Temp\ccsGRYiA.s:25015  .debug_str:0000000000014de4 .LASF3768
C:\Users\CYMR90~1\AppData\Local\Temp\ccsGRYiA.s:23837  .debug_str:0000000000010163 .LASF3769
C:\Users\CYMR90~1\AppData\Local\Temp\ccsGRYiA.s:30624  .debug_str:000000000002b41f .LASF3770
C:\Users\CYMR90~1\AppData\Local\Temp\ccsGRYiA.s:29002  .debug_str:0000000000024c62 .LASF3771
C:\Users\CYMR90~1\AppData\Local\Temp\ccsGRYiA.s:20227  .debug_str:0000000000001ae6 .LASF3772
C:\Users\CYMR90~1\AppData\Local\Temp\ccsGRYiA.s:29760  .debug_str:0000000000027df0 .LASF3773
C:\Users\CYMR90~1\AppData\Local\Temp\ccsGRYiA.s:29998  .debug_str:0000000000028e20 .LASF3774
C:\Users\CYMR90~1\AppData\Local\Temp\ccsGRYiA.s:23019  .debug_str:000000000000ce0e .LASF3775
C:\Users\CYMR90~1\AppData\Local\Temp\ccsGRYiA.s:30852  .debug_str:000000000002c3da .LASF3776
C:\Users\CYMR90~1\AppData\Local\Temp\ccsGRYiA.s:20237  .debug_str:0000000000001bad .LASF3777
C:\Users\CYMR90~1\AppData\Local\Temp\ccsGRYiA.s:29018  .debug_str:0000000000024d85 .LASF3778
C:\Users\CYMR90~1\AppData\Local\Temp\ccsGRYiA.s:22323  .debug_str:0000000000009ffa .LASF3779
C:\Users\CYMR90~1\AppData\Local\Temp\ccsGRYiA.s:28066  .debug_str:000000000002116d .LASF3780
C:\Users\CYMR90~1\AppData\Local\Temp\ccsGRYiA.s:25245  .debug_str:0000000000015ba6 .LASF3781
C:\Users\CYMR90~1\AppData\Local\Temp\ccsGRYiA.s:26262  .debug_str:0000000000019f45 .LASF3782
C:\Users\CYMR90~1\AppData\Local\Temp\ccsGRYiA.s:23123  .debug_str:000000000000d563 .LASF3783
C:\Users\CYMR90~1\AppData\Local\Temp\ccsGRYiA.s:21233  .debug_str:0000000000005a45 .LASF3784
C:\Users\CYMR90~1\AppData\Local\Temp\ccsGRYiA.s:29680  .debug_str:000000000002786c .LASF3785
C:\Users\CYMR90~1\AppData\Local\Temp\ccsGRYiA.s:23613  .debug_str:000000000000f319 .LASF3786
C:\Users\CYMR90~1\AppData\Local\Temp\ccsGRYiA.s:22799  .debug_str:000000000000bf6e .LASF3787
C:\Users\CYMR90~1\AppData\Local\Temp\ccsGRYiA.s:22627  .debug_str:000000000000b35e .LASF3788
C:\Users\CYMR90~1\AppData\Local\Temp\ccsGRYiA.s:19961  .debug_str:0000000000000a06 .LASF3789
C:\Users\CYMR90~1\AppData\Local\Temp\ccsGRYiA.s:24241  .debug_str:0000000000011bf9 .LASF3790
C:\Users\CYMR90~1\AppData\Local\Temp\ccsGRYiA.s:28484  .debug_str:0000000000022b60 .LASF3791
C:\Users\CYMR90~1\AppData\Local\Temp\ccsGRYiA.s:21387  .debug_str:00000000000063ec .LASF3792
C:\Users\CYMR90~1\AppData\Local\Temp\ccsGRYiA.s:22729  .debug_str:000000000000ba92 .LASF3793
C:\Users\CYMR90~1\AppData\Local\Temp\ccsGRYiA.s:23827  .debug_str:00000000000100ba .LASF3794
C:\Users\CYMR90~1\AppData\Local\Temp\ccsGRYiA.s:28042  .debug_str:0000000000021003 .LASF3795
C:\Users\CYMR90~1\AppData\Local\Temp\ccsGRYiA.s:21021  .debug_str:0000000000004d90 .LASF3796
C:\Users\CYMR90~1\AppData\Local\Temp\ccsGRYiA.s:25225  .debug_str:0000000000015a62 .LASF3797
C:\Users\CYMR90~1\AppData\Local\Temp\ccsGRYiA.s:29484  .debug_str:0000000000026c06 .LASF3798
C:\Users\CYMR90~1\AppData\Local\Temp\ccsGRYiA.s:22507  .debug_str:000000000000ab63 .LASF3799
C:\Users\CYMR90~1\AppData\Local\Temp\ccsGRYiA.s:24809  .debug_str:00000000000140af .LASF3800
C:\Users\CYMR90~1\AppData\Local\Temp\ccsGRYiA.s:29068  .debug_str:00000000000250ed .LASF3801
C:\Users\CYMR90~1\AppData\Local\Temp\ccsGRYiA.s:22997  .debug_str:000000000000cc94 .LASF3802
C:\Users\CYMR90~1\AppData\Local\Temp\ccsGRYiA.s:28230  .debug_str:0000000000021bea .LASF3803
C:\Users\CYMR90~1\AppData\Local\Temp\ccsGRYiA.s:26344  .debug_str:000000000001a5a5 .LASF3804
C:\Users\CYMR90~1\AppData\Local\Temp\ccsGRYiA.s:30578  .debug_str:000000000002b127 .LASF3805
C:\Users\CYMR90~1\AppData\Local\Temp\ccsGRYiA.s:23607  .debug_str:000000000000f296 .LASF3806
C:\Users\CYMR90~1\AppData\Local\Temp\ccsGRYiA.s:27726  .debug_str:000000000001fd37 .LASF3807
C:\Users\CYMR90~1\AppData\Local\Temp\ccsGRYiA.s:20723  .debug_str:00000000000039b7 .LASF3808
C:\Users\CYMR90~1\AppData\Local\Temp\ccsGRYiA.s:23683  .debug_str:000000000000f7d2 .LASF3809
C:\Users\CYMR90~1\AppData\Local\Temp\ccsGRYiA.s:28796  .debug_str:0000000000023df8 .LASF3810
C:\Users\CYMR90~1\AppData\Local\Temp\ccsGRYiA.s:22209  .debug_str:00000000000098d0 .LASF3811
C:\Users\CYMR90~1\AppData\Local\Temp\ccsGRYiA.s:26484  .debug_str:000000000001aef0 .LASF3812
C:\Users\CYMR90~1\AppData\Local\Temp\ccsGRYiA.s:20825  .debug_str:0000000000004013 .LASF3813
C:\Users\CYMR90~1\AppData\Local\Temp\ccsGRYiA.s:28838  .debug_str:0000000000024142 .LASF3814
C:\Users\CYMR90~1\AppData\Local\Temp\ccsGRYiA.s:21851  .debug_str:0000000000008297 .LASF3815
C:\Users\CYMR90~1\AppData\Local\Temp\ccsGRYiA.s:23451  .debug_str:000000000000e919 .LASF3816
C:\Users\CYMR90~1\AppData\Local\Temp\ccsGRYiA.s:30260  .debug_str:0000000000029e10 .LASF3817
C:\Users\CYMR90~1\AppData\Local\Temp\ccsGRYiA.s:21675  .debug_str:0000000000007625 .LASF3818
C:\Users\CYMR90~1\AppData\Local\Temp\ccsGRYiA.s:27600  .debug_str:000000000001f574 .LASF3819
C:\Users\CYMR90~1\AppData\Local\Temp\ccsGRYiA.s:20439  .debug_str:00000000000027a0 .LASF3820
C:\Users\CYMR90~1\AppData\Local\Temp\ccsGRYiA.s:25820  .debug_str:000000000001824b .LASF3821
C:\Users\CYMR90~1\AppData\Local\Temp\ccsGRYiA.s:28970  .debug_str:0000000000024a47 .LASF3822
C:\Users\CYMR90~1\AppData\Local\Temp\ccsGRYiA.s:21859  .debug_str:0000000000008314 .LASF3823
C:\Users\CYMR90~1\AppData\Local\Temp\ccsGRYiA.s:29234  .debug_str:0000000000025cbd .LASF3824
C:\Users\CYMR90~1\AppData\Local\Temp\ccsGRYiA.s:24385  .debug_str:00000000000125b2 .LASF3825
C:\Users\CYMR90~1\AppData\Local\Temp\ccsGRYiA.s:28536  .debug_str:0000000000022e44 .LASF3826
C:\Users\CYMR90~1\AppData\Local\Temp\ccsGRYiA.s:21527  .debug_str:0000000000006c81 .LASF3827
C:\Users\CYMR90~1\AppData\Local\Temp\ccsGRYiA.s:24431  .debug_str:000000000001289b .LASF3828
C:\Users\CYMR90~1\AppData\Local\Temp\ccsGRYiA.s:27728  .debug_str:000000000001fd69 .LASF3829
C:\Users\CYMR90~1\AppData\Local\Temp\ccsGRYiA.s:24347  .debug_str:000000000001234a .LASF3830
C:\Users\CYMR90~1\AppData\Local\Temp\ccsGRYiA.s:29270  .debug_str:0000000000025f22 .LASF3831
C:\Users\CYMR90~1\AppData\Local\Temp\ccsGRYiA.s:28368  .debug_str:0000000000022406 .LASF3832
C:\Users\CYMR90~1\AppData\Local\Temp\ccsGRYiA.s:29208  .debug_str:0000000000025b35 .LASF3833
C:\Users\CYMR90~1\AppData\Local\Temp\ccsGRYiA.s:23397  .debug_str:000000000000e594 .LASF3834
C:\Users\CYMR90~1\AppData\Local\Temp\ccsGRYiA.s:28848  .debug_str:0000000000024208 .LASF3835
C:\Users\CYMR90~1\AppData\Local\Temp\ccsGRYiA.s:25241  .debug_str:0000000000015b55 .LASF3836
C:\Users\CYMR90~1\AppData\Local\Temp\ccsGRYiA.s:25660  .debug_str:000000000001787b .LASF3837
C:\Users\CYMR90~1\AppData\Local\Temp\ccsGRYiA.s:22683  .debug_str:000000000000b799 .LASF3838
C:\Users\CYMR90~1\AppData\Local\Temp\ccsGRYiA.s:25023  .debug_str:0000000000014e6d .LASF3839
C:\Users\CYMR90~1\AppData\Local\Temp\ccsGRYiA.s:27938  .debug_str:00000000000209f8 .LASF3840
C:\Users\CYMR90~1\AppData\Local\Temp\ccsGRYiA.s:25047  .debug_str:0000000000015022 .LASF3841
C:\Users\CYMR90~1\AppData\Local\Temp\ccsGRYiA.s:29300  .debug_str:00000000000260f8 .LASF3842
C:\Users\CYMR90~1\AppData\Local\Temp\ccsGRYiA.s:26102  .debug_str:0000000000019525 .LASF3843
C:\Users\CYMR90~1\AppData\Local\Temp\ccsGRYiA.s:24097  .debug_str:00000000000111d9 .LASF3844
C:\Users\CYMR90~1\AppData\Local\Temp\ccsGRYiA.s:21771  .debug_str:0000000000007c58 .LASF3845
C:\Users\CYMR90~1\AppData\Local\Temp\ccsGRYiA.s:20125  .debug_str:0000000000001458 .LASF3846
C:\Users\CYMR90~1\AppData\Local\Temp\ccsGRYiA.s:19811  .debug_str:00000000000000ff .LASF3847
C:\Users\CYMR90~1\AppData\Local\Temp\ccsGRYiA.s:24667  .debug_str:0000000000013871 .LASF3848
C:\Users\CYMR90~1\AppData\Local\Temp\ccsGRYiA.s:21151  .debug_str:000000000000556c .LASF3849
C:\Users\CYMR90~1\AppData\Local\Temp\ccsGRYiA.s:25918  .debug_str:00000000000187f8 .LASF3850
C:\Users\CYMR90~1\AppData\Local\Temp\ccsGRYiA.s:23289  .debug_str:000000000000df2c .LASF3851
C:\Users\CYMR90~1\AppData\Local\Temp\ccsGRYiA.s:22331  .debug_str:000000000000a094 .LASF3852
C:\Users\CYMR90~1\AppData\Local\Temp\ccsGRYiA.s:23781  .debug_str:000000000000fdc0 .LASF3853
C:\Users\CYMR90~1\AppData\Local\Temp\ccsGRYiA.s:25624  .debug_str:0000000000017632 .LASF3854
C:\Users\CYMR90~1\AppData\Local\Temp\ccsGRYiA.s:25083  .debug_str:0000000000015244 .LASF3855
C:\Users\CYMR90~1\AppData\Local\Temp\ccsGRYiA.s:24469  .debug_str:0000000000012b6a .LASF3856
C:\Users\CYMR90~1\AppData\Local\Temp\ccsGRYiA.s:26758  .debug_str:000000000001c039 .LASF3857
C:\Users\CYMR90~1\AppData\Local\Temp\ccsGRYiA.s:23401  .debug_str:000000000000e613 .LASF3858
C:\Users\CYMR90~1\AppData\Local\Temp\ccsGRYiA.s:19999  .debug_str:0000000000000c9f .LASF3859
C:\Users\CYMR90~1\AppData\Local\Temp\ccsGRYiA.s:30004  .debug_str:0000000000028e95 .LASF3860
C:\Users\CYMR90~1\AppData\Local\Temp\ccsGRYiA.s:24533  .debug_str:0000000000012f5f .LASF3861
C:\Users\CYMR90~1\AppData\Local\Temp\ccsGRYiA.s:27144  .debug_str:000000000001da17 .LASF3862
C:\Users\CYMR90~1\AppData\Local\Temp\ccsGRYiA.s:20381  .debug_str:00000000000023ea .LASF3863
C:\Users\CYMR90~1\AppData\Local\Temp\ccsGRYiA.s:20291  .debug_str:0000000000001ee6 .LASF3864
C:\Users\CYMR90~1\AppData\Local\Temp\ccsGRYiA.s:29076  .debug_str:0000000000025223 .LASF3865
C:\Users\CYMR90~1\AppData\Local\Temp\ccsGRYiA.s:28860  .debug_str:00000000000242eb .LASF3866
C:\Users\CYMR90~1\AppData\Local\Temp\ccsGRYiA.s:25502  .debug_str:0000000000016ef5 .LASF3867
C:\Users\CYMR90~1\AppData\Local\Temp\ccsGRYiA.s:24815  .debug_str:000000000001413e .LASF3868
C:\Users\CYMR90~1\AppData\Local\Temp\ccsGRYiA.s:29992  .debug_str:0000000000028ddb .LASF3869
C:\Users\CYMR90~1\AppData\Local\Temp\ccsGRYiA.s:26632  .debug_str:000000000001b88d .LASF3870
C:\Users\CYMR90~1\AppData\Local\Temp\ccsGRYiA.s:20519  .debug_str:0000000000002c81 .LASF3871
C:\Users\CYMR90~1\AppData\Local\Temp\ccsGRYiA.s:30362  .debug_str:000000000002a461 .LASF3872
C:\Users\CYMR90~1\AppData\Local\Temp\ccsGRYiA.s:30668  .debug_str:000000000002b741 .LASF3873
C:\Users\CYMR90~1\AppData\Local\Temp\ccsGRYiA.s:22491  .debug_str:000000000000aa55 .LASF3874
C:\Users\CYMR90~1\AppData\Local\Temp\ccsGRYiA.s:30966  .debug_str:000000000002cb61 .LASF3875
C:\Users\CYMR90~1\AppData\Local\Temp\ccsGRYiA.s:30888  .debug_str:000000000002c61d .LASF3876
C:\Users\CYMR90~1\AppData\Local\Temp\ccsGRYiA.s:24225  .debug_str:0000000000011af5 .LASF3877
C:\Users\CYMR90~1\AppData\Local\Temp\ccsGRYiA.s:20801  .debug_str:0000000000003ec2 .LASF3878
C:\Users\CYMR90~1\AppData\Local\Temp\ccsGRYiA.s:28720  .debug_str:000000000002397f .LASF3879
C:\Users\CYMR90~1\AppData\Local\Temp\ccsGRYiA.s:25341  .debug_str:0000000000016256 .LASF3880
C:\Users\CYMR90~1\AppData\Local\Temp\ccsGRYiA.s:23795  .debug_str:000000000000fed3 .LASF3881
C:\Users\CYMR90~1\AppData\Local\Temp\ccsGRYiA.s:29852  .debug_str:00000000000284db .LASF3882
C:\Users\CYMR90~1\AppData\Local\Temp\ccsGRYiA.s:27870  .debug_str:0000000000020622 .LASF3883
C:\Users\CYMR90~1\AppData\Local\Temp\ccsGRYiA.s:21817  .debug_str:0000000000007fec .LASF3884
C:\Users\CYMR90~1\AppData\Local\Temp\ccsGRYiA.s:29694  .debug_str:0000000000027997 .LASF3885
C:\Users\CYMR90~1\AppData\Local\Temp\ccsGRYiA.s:26352  .debug_str:000000000001a62f .LASF3886
C:\Users\CYMR90~1\AppData\Local\Temp\ccsGRYiA.s:22967  .debug_str:000000000000cafc .LASF3887
C:\Users\CYMR90~1\AppData\Local\Temp\ccsGRYiA.s:30832  .debug_str:000000000002c2b4 .LASF3888
C:\Users\CYMR90~1\AppData\Local\Temp\ccsGRYiA.s:20913  .debug_str:0000000000004652 .LASF3889
C:\Users\CYMR90~1\AppData\Local\Temp\ccsGRYiA.s:24101  .debug_str:0000000000011214 .LASF3890
C:\Users\CYMR90~1\AppData\Local\Temp\ccsGRYiA.s:26980  .debug_str:000000000001cf12 .LASF3891
C:\Users\CYMR90~1\AppData\Local\Temp\ccsGRYiA.s:28580  .debug_str:00000000000230ab .LASF3892
C:\Users\CYMR90~1\AppData\Local\Temp\ccsGRYiA.s:29930  .debug_str:0000000000028a15 .LASF3893
C:\Users\CYMR90~1\AppData\Local\Temp\ccsGRYiA.s:20523  .debug_str:0000000000002cda .LASF3894
C:\Users\CYMR90~1\AppData\Local\Temp\ccsGRYiA.s:27448  .debug_str:000000000001ec3d .LASF3895
C:\Users\CYMR90~1\AppData\Local\Temp\ccsGRYiA.s:25055  .debug_str:00000000000150a2 .LASF3896
C:\Users\CYMR90~1\AppData\Local\Temp\ccsGRYiA.s:21667  .debug_str:00000000000075ae .LASF3897
C:\Users\CYMR90~1\AppData\Local\Temp\ccsGRYiA.s:29548  .debug_str:0000000000026fee .LASF3898
C:\Users\CYMR90~1\AppData\Local\Temp\ccsGRYiA.s:21789  .debug_str:0000000000007e0e .LASF3899
C:\Users\CYMR90~1\AppData\Local\Temp\ccsGRYiA.s:22819  .debug_str:000000000000c0b1 .LASF3900
C:\Users\CYMR90~1\AppData\Local\Temp\ccsGRYiA.s:30694  .debug_str:000000000002b90f .LASF3901
C:\Users\CYMR90~1\AppData\Local\Temp\ccsGRYiA.s:20431  .debug_str:0000000000002701 .LASF3902
C:\Users\CYMR90~1\AppData\Local\Temp\ccsGRYiA.s:28740  .debug_str:0000000000023a8f .LASF3903
C:\Users\CYMR90~1\AppData\Local\Temp\ccsGRYiA.s:30630  .debug_str:000000000002b4ab .LASF3904
C:\Users\CYMR90~1\AppData\Local\Temp\ccsGRYiA.s:27146  .debug_str:000000000001da3b .LASF3905
C:\Users\CYMR90~1\AppData\Local\Temp\ccsGRYiA.s:23819  .debug_str:000000000001001d .LASF3906
C:\Users\CYMR90~1\AppData\Local\Temp\ccsGRYiA.s:20231  .debug_str:0000000000001b3a .LASF3907
C:\Users\CYMR90~1\AppData\Local\Temp\ccsGRYiA.s:28282  .debug_str:0000000000021f16 .LASF3908
C:\Users\CYMR90~1\AppData\Local\Temp\ccsGRYiA.s:24919  .debug_str:00000000000147fb .LASF3909
C:\Users\CYMR90~1\AppData\Local\Temp\ccsGRYiA.s:23617  .debug_str:000000000000f35f .LASF3910
C:\Users\CYMR90~1\AppData\Local\Temp\ccsGRYiA.s:26186  .debug_str:0000000000019ad8 .LASF3911
C:\Users\CYMR90~1\AppData\Local\Temp\ccsGRYiA.s:26066  .debug_str:00000000000192f3 .LASF3912
C:\Users\CYMR90~1\AppData\Local\Temp\ccsGRYiA.s:27436  .debug_str:000000000001eb80 .LASF3913
C:\Users\CYMR90~1\AppData\Local\Temp\ccsGRYiA.s:29348  .debug_str:00000000000263c5 .LASF3914
C:\Users\CYMR90~1\AppData\Local\Temp\ccsGRYiA.s:27502  .debug_str:000000000001ef8d .LASF3915
C:\Users\CYMR90~1\AppData\Local\Temp\ccsGRYiA.s:22143  .debug_str:0000000000009473 .LASF3916
C:\Users\CYMR90~1\AppData\Local\Temp\ccsGRYiA.s:30480  .debug_str:000000000002ab70 .LASF3917
C:\Users\CYMR90~1\AppData\Local\Temp\ccsGRYiA.s:27018  .debug_str:000000000001d21b .LASF3918
C:\Users\CYMR90~1\AppData\Local\Temp\ccsGRYiA.s:28220  .debug_str:0000000000021b4a .LASF3919
C:\Users\CYMR90~1\AppData\Local\Temp\ccsGRYiA.s:20239  .debug_str:0000000000001bdf .LASF3920
C:\Users\CYMR90~1\AppData\Local\Temp\ccsGRYiA.s:28140  .debug_str:0000000000021668 .LASF3921
C:\Users\CYMR90~1\AppData\Local\Temp\ccsGRYiA.s:24773  .debug_str:0000000000013e8e .LASF3922
C:\Users\CYMR90~1\AppData\Local\Temp\ccsGRYiA.s:30374  .debug_str:000000000002a520 .LASF3923
C:\Users\CYMR90~1\AppData\Local\Temp\ccsGRYiA.s:28076  .debug_str:0000000000021206 .LASF3924
C:\Users\CYMR90~1\AppData\Local\Temp\ccsGRYiA.s:24715  .debug_str:0000000000013b33 .LASF3925
C:\Users\CYMR90~1\AppData\Local\Temp\ccsGRYiA.s:29364  .debug_str:00000000000264d5 .LASF3926
C:\Users\CYMR90~1\AppData\Local\Temp\ccsGRYiA.s:29196  .debug_str:0000000000025a8c .LASF3927
C:\Users\CYMR90~1\AppData\Local\Temp\ccsGRYiA.s:25844  .debug_str:00000000000183c6 .LASF3928
C:\Users\CYMR90~1\AppData\Local\Temp\ccsGRYiA.s:30944  .debug_str:000000000002c9b8 .LASF3929
C:\Users\CYMR90~1\AppData\Local\Temp\ccsGRYiA.s:30330  .debug_str:000000000002a234 .LASF3930
C:\Users\CYMR90~1\AppData\Local\Temp\ccsGRYiA.s:20711  .debug_str:00000000000038e0 .LASF3931
C:\Users\CYMR90~1\AppData\Local\Temp\ccsGRYiA.s:27160  .debug_str:000000000001db0e .LASF3932
C:\Users\CYMR90~1\AppData\Local\Temp\ccsGRYiA.s:21579  .debug_str:0000000000006fec .LASF3933
C:\Users\CYMR90~1\AppData\Local\Temp\ccsGRYiA.s:21721  .debug_str:000000000000792b .LASF3934
C:\Users\CYMR90~1\AppData\Local\Temp\ccsGRYiA.s:25728  .debug_str:0000000000017cbf .LASF3935
C:\Users\CYMR90~1\AppData\Local\Temp\ccsGRYiA.s:29634  .debug_str:0000000000027584 .LASF3936
C:\Users\CYMR90~1\AppData\Local\Temp\ccsGRYiA.s:22307  .debug_str:0000000000009f03 .LASF3937
C:\Users\CYMR90~1\AppData\Local\Temp\ccsGRYiA.s:30768  .debug_str:000000000002be24 .LASF3938
C:\Users\CYMR90~1\AppData\Local\Temp\ccsGRYiA.s:21833  .debug_str:000000000000818c .LASF3939
C:\Users\CYMR90~1\AppData\Local\Temp\ccsGRYiA.s:24159  .debug_str:00000000000115d1 .LASF3940
C:\Users\CYMR90~1\AppData\Local\Temp\ccsGRYiA.s:26684  .debug_str:000000000001bb46 .LASF3941
C:\Users\CYMR90~1\AppData\Local\Temp\ccsGRYiA.s:30684  .debug_str:000000000002b879 .LASF3942
C:\Users\CYMR90~1\AppData\Local\Temp\ccsGRYiA.s:24859  .debug_str:000000000001440d .LASF3943
C:\Users\CYMR90~1\AppData\Local\Temp\ccsGRYiA.s:27270  .debug_str:000000000001e1bc .LASF3944
C:\Users\CYMR90~1\AppData\Local\Temp\ccsGRYiA.s:29564  .debug_str:0000000000027188 .LASF3945
C:\Users\CYMR90~1\AppData\Local\Temp\ccsGRYiA.s:20661  .debug_str:00000000000035ac .LASF3946
C:\Users\CYMR90~1\AppData\Local\Temp\ccsGRYiA.s:27972  .debug_str:0000000000020c3f .LASF3947
C:\Users\CYMR90~1\AppData\Local\Temp\ccsGRYiA.s:20579  .debug_str:0000000000003022 .LASF3948
C:\Users\CYMR90~1\AppData\Local\Temp\ccsGRYiA.s:27606  .debug_str:000000000001f5d8 .LASF3949
C:\Users\CYMR90~1\AppData\Local\Temp\ccsGRYiA.s:29960  .debug_str:0000000000028bd4 .LASF3950
C:\Users\CYMR90~1\AppData\Local\Temp\ccsGRYiA.s:24489  .debug_str:0000000000012c5c .LASF3951
C:\Users\CYMR90~1\AppData\Local\Temp\ccsGRYiA.s:23287  .debug_str:000000000000df06 .LASF3952
C:\Users\CYMR90~1\AppData\Local\Temp\ccsGRYiA.s:20331  .debug_str:0000000000002100 .LASF3953
C:\Users\CYMR90~1\AppData\Local\Temp\ccsGRYiA.s:21857  .debug_str:00000000000082ee .LASF3954
C:\Users\CYMR90~1\AppData\Local\Temp\ccsGRYiA.s:24187  .debug_str:0000000000011836 .LASF3955
C:\Users\CYMR90~1\AppData\Local\Temp\ccsGRYiA.s:26092  .debug_str:0000000000019497 .LASF3956
C:\Users\CYMR90~1\AppData\Local\Temp\ccsGRYiA.s:27610  .debug_str:000000000001f617 .LASF3957
C:\Users\CYMR90~1\AppData\Local\Temp\ccsGRYiA.s:19883  .debug_str:000000000000051e .LASF3958
C:\Users\CYMR90~1\AppData\Local\Temp\ccsGRYiA.s:26566  .debug_str:000000000001b488 .LASF3959
C:\Users\CYMR90~1\AppData\Local\Temp\ccsGRYiA.s:30542  .debug_str:000000000002aee0 .LASF3960
C:\Users\CYMR90~1\AppData\Local\Temp\ccsGRYiA.s:23215  .debug_str:000000000000dab1 .LASF3961
C:\Users\CYMR90~1\AppData\Local\Temp\ccsGRYiA.s:22237  .debug_str:0000000000009ab6 .LASF3962
C:\Users\CYMR90~1\AppData\Local\Temp\ccsGRYiA.s:26132  .debug_str:00000000000196c9 .LASF3963
C:\Users\CYMR90~1\AppData\Local\Temp\ccsGRYiA.s:22111  .debug_str:00000000000092a5 .LASF3964
C:\Users\CYMR90~1\AppData\Local\Temp\ccsGRYiA.s:26028  .debug_str:0000000000018fdd .LASF3965
C:\Users\CYMR90~1\AppData\Local\Temp\ccsGRYiA.s:29920  .debug_str:0000000000028981 .LASF3966
C:\Users\CYMR90~1\AppData\Local\Temp\ccsGRYiA.s:24989  .debug_str:0000000000014c03 .LASF3967
C:\Users\CYMR90~1\AppData\Local\Temp\ccsGRYiA.s:26518  .debug_str:000000000001b165 .LASF3968
C:\Users\CYMR90~1\AppData\Local\Temp\ccsGRYiA.s:30478  .debug_str:000000000002ab4a .LASF3969
C:\Users\CYMR90~1\AppData\Local\Temp\ccsGRYiA.s:23153  .debug_str:000000000000d71e .LASF3970
C:\Users\CYMR90~1\AppData\Local\Temp\ccsGRYiA.s:22293  .debug_str:0000000000009e0c .LASF3971
C:\Users\CYMR90~1\AppData\Local\Temp\ccsGRYiA.s:24625  .debug_str:00000000000135ac .LASF3972
C:\Users\CYMR90~1\AppData\Local\Temp\ccsGRYiA.s:28030  .debug_str:0000000000020f70 .LASF3973
C:\Users\CYMR90~1\AppData\Local\Temp\ccsGRYiA.s:22241  .debug_str:0000000000009aed .LASF3974
C:\Users\CYMR90~1\AppData\Local\Temp\ccsGRYiA.s:27110  .debug_str:000000000001d80e .LASF3975
C:\Users\CYMR90~1\AppData\Local\Temp\ccsGRYiA.s:22525  .debug_str:000000000000ac7b .LASF3976
C:\Users\CYMR90~1\AppData\Local\Temp\ccsGRYiA.s:26456  .debug_str:000000000001ad33 .LASF3977
C:\Users\CYMR90~1\AppData\Local\Temp\ccsGRYiA.s:30404  .debug_str:000000000002a6e0 .LASF3978
C:\Users\CYMR90~1\AppData\Local\Temp\ccsGRYiA.s:25784  .debug_str:0000000000018029 .LASF3979
C:\Users\CYMR90~1\AppData\Local\Temp\ccsGRYiA.s:26976  .debug_str:000000000001ced2 .LASF3980
C:\Users\CYMR90~1\AppData\Local\Temp\ccsGRYiA.s:30890  .debug_str:000000000002c641 .LASF3981
C:\Users\CYMR90~1\AppData\Local\Temp\ccsGRYiA.s:26056  .debug_str:000000000001926c .LASF3982
C:\Users\CYMR90~1\AppData\Local\Temp\ccsGRYiA.s:20613  .debug_str:0000000000003296 .LASF3983
C:\Users\CYMR90~1\AppData\Local\Temp\ccsGRYiA.s:29788  .debug_str:0000000000028012 .LASF3984
C:\Users\CYMR90~1\AppData\Local\Temp\ccsGRYiA.s:30350  .debug_str:000000000002a3b4 .LASF3985
C:\Users\CYMR90~1\AppData\Local\Temp\ccsGRYiA.s:27736  .debug_str:000000000001fdf3 .LASF3986
C:\Users\CYMR90~1\AppData\Local\Temp\ccsGRYiA.s:30340  .debug_str:000000000002a2dd .LASF3987
C:\Users\CYMR90~1\AppData\Local\Temp\ccsGRYiA.s:23021  .debug_str:000000000000ce40 .LASF3988
C:\Users\CYMR90~1\AppData\Local\Temp\ccsGRYiA.s:26916  .debug_str:000000000001ca7a .LASF3989
C:\Users\CYMR90~1\AppData\Local\Temp\ccsGRYiA.s:30828  .debug_str:000000000002c267 .LASF3990
C:\Users\CYMR90~1\AppData\Local\Temp\ccsGRYiA.s:20969  .debug_str:0000000000004a72 .LASF3991
C:\Users\CYMR90~1\AppData\Local\Temp\ccsGRYiA.s:24979  .debug_str:0000000000014b82 .LASF3992
C:\Users\CYMR90~1\AppData\Local\Temp\ccsGRYiA.s:24503  .debug_str:0000000000012d63 .LASF3993
C:\Users\CYMR90~1\AppData\Local\Temp\ccsGRYiA.s:22393  .debug_str:000000000000a49f .LASF3994
C:\Users\CYMR90~1\AppData\Local\Temp\ccsGRYiA.s:26312  .debug_str:000000000001a233 .LASF3995
C:\Users\CYMR90~1\AppData\Local\Temp\ccsGRYiA.s:23829  .debug_str:00000000000100ec .LASF3996
C:\Users\CYMR90~1\AppData\Local\Temp\ccsGRYiA.s:26696  .debug_str:000000000001bc2e .LASF3997
C:\Users\CYMR90~1\AppData\Local\Temp\ccsGRYiA.s:26848  .debug_str:000000000001c54f .LASF3998
C:\Users\CYMR90~1\AppData\Local\Temp\ccsGRYiA.s:28142  .debug_str:000000000002168c .LASF3999
C:\Users\CYMR90~1\AppData\Local\Temp\ccsGRYiA.s:23433  .debug_str:000000000000e813 .LASF4000
C:\Users\CYMR90~1\AppData\Local\Temp\ccsGRYiA.s:27294  .debug_str:000000000001e2fc .LASF4001
C:\Users\CYMR90~1\AppData\Local\Temp\ccsGRYiA.s:19973  .debug_str:0000000000000b17 .LASF4002
C:\Users\CYMR90~1\AppData\Local\Temp\ccsGRYiA.s:28316  .debug_str:0000000000022127 .LASF4003
C:\Users\CYMR90~1\AppData\Local\Temp\ccsGRYiA.s:28410  .debug_str:00000000000226b5 .LASF4004
C:\Users\CYMR90~1\AppData\Local\Temp\ccsGRYiA.s:30214  .debug_str:0000000000029b6c .LASF4005
C:\Users\CYMR90~1\AppData\Local\Temp\ccsGRYiA.s:22885  .debug_str:000000000000c4e1 .LASF4006
C:\Users\CYMR90~1\AppData\Local\Temp\ccsGRYiA.s:24999  .debug_str:0000000000014ca9 .LASF4007
C:\Users\CYMR90~1\AppData\Local\Temp\ccsGRYiA.s:30700  .debug_str:000000000002b96d .LASF4008
C:\Users\CYMR90~1\AppData\Local\Temp\ccsGRYiA.s:27320  .debug_str:000000000001e48c .LASF4009
C:\Users\CYMR90~1\AppData\Local\Temp\ccsGRYiA.s:27232  .debug_str:000000000001df63 .LASF4010
C:\Users\CYMR90~1\AppData\Local\Temp\ccsGRYiA.s:19915  .debug_str:000000000000073d .LASF4011
C:\Users\CYMR90~1\AppData\Local\Temp\ccsGRYiA.s:30876  .debug_str:000000000002c53b .LASF4012
C:\Users\CYMR90~1\AppData\Local\Temp\ccsGRYiA.s:20877  .debug_str:00000000000043e0 .LASF4013
C:\Users\CYMR90~1\AppData\Local\Temp\ccsGRYiA.s:30152  .debug_str:00000000000297ae .LASF4014
C:\Users\CYMR90~1\AppData\Local\Temp\ccsGRYiA.s:26194  .debug_str:0000000000019b54 .LASF4015
C:\Users\CYMR90~1\AppData\Local\Temp\ccsGRYiA.s:28496  .debug_str:0000000000022c02 .LASF4016
C:\Users\CYMR90~1\AppData\Local\Temp\ccsGRYiA.s:30644  .debug_str:000000000002b594 .LASF4017
C:\Users\CYMR90~1\AppData\Local\Temp\ccsGRYiA.s:23309  .debug_str:000000000000e048 .LASF4018
C:\Users\CYMR90~1\AppData\Local\Temp\ccsGRYiA.s:21175  .debug_str:00000000000056f3 .LASF4019
C:\Users\CYMR90~1\AppData\Local\Temp\ccsGRYiA.s:19843  .debug_str:0000000000000306 .LASF4020
C:\Users\CYMR90~1\AppData\Local\Temp\ccsGRYiA.s:24363  .debug_str:000000000001243f .LASF4021
C:\Users\CYMR90~1\AppData\Local\Temp\ccsGRYiA.s:20751  .debug_str:0000000000003b52 .LASF4022
C:\Users\CYMR90~1\AppData\Local\Temp\ccsGRYiA.s:24847  .debug_str:000000000001435a .LASF4023
C:\Users\CYMR90~1\AppData\Local\Temp\ccsGRYiA.s:22759  .debug_str:000000000000bcc9 .LASF4024
C:\Users\CYMR90~1\AppData\Local\Temp\ccsGRYiA.s:20127  .debug_str:000000000000147c .LASF4025
C:\Users\CYMR90~1\AppData\Local\Temp\ccsGRYiA.s:30566  .debug_str:000000000002b072 .LASF4026
C:\Users\CYMR90~1\AppData\Local\Temp\ccsGRYiA.s:27488  .debug_str:000000000001eea1 .LASF4027
C:\Users\CYMR90~1\AppData\Local\Temp\ccsGRYiA.s:27666  .debug_str:000000000001f975 .LASF4028
C:\Users\CYMR90~1\AppData\Local\Temp\ccsGRYiA.s:31034  .debug_str:000000000002cf72 .LASF4029
C:\Users\CYMR90~1\AppData\Local\Temp\ccsGRYiA.s:20121  .debug_str:0000000000001420 .LASF4030
C:\Users\CYMR90~1\AppData\Local\Temp\ccsGRYiA.s:24293  .debug_str:0000000000011f1f .LASF4031
C:\Users\CYMR90~1\AppData\Local\Temp\ccsGRYiA.s:26618  .debug_str:000000000001b7b5 .LASF4032
C:\Users\CYMR90~1\AppData\Local\Temp\ccsGRYiA.s:29256  .debug_str:0000000000025e0d .LASF4033
C:\Users\CYMR90~1\AppData\Local\Temp\ccsGRYiA.s:25025  .debug_str:0000000000014e8f .LASF4034
C:\Users\CYMR90~1\AppData\Local\Temp\ccsGRYiA.s:28216  .debug_str:0000000000021b0a .LASF4035
C:\Users\CYMR90~1\AppData\Local\Temp\ccsGRYiA.s:20571  .debug_str:0000000000002fb8 .LASF4036
C:\Users\CYMR90~1\AppData\Local\Temp\ccsGRYiA.s:21901  .debug_str:00000000000085e1 .LASF4037
C:\Users\CYMR90~1\AppData\Local\Temp\ccsGRYiA.s:25814  .debug_str:00000000000181ee .LASF4038
C:\Users\CYMR90~1\AppData\Local\Temp\ccsGRYiA.s:29712  .debug_str:0000000000027abd .LASF4039
C:\Users\CYMR90~1\AppData\Local\Temp\ccsGRYiA.s:29704  .debug_str:0000000000027a3e .LASF4040
C:\Users\CYMR90~1\AppData\Local\Temp\ccsGRYiA.s:30894  .debug_str:000000000002c684 .LASF4041
C:\Users\CYMR90~1\AppData\Local\Temp\ccsGRYiA.s:30264  .debug_str:0000000000029e59 .LASF4042
C:\Users\CYMR90~1\AppData\Local\Temp\ccsGRYiA.s:26014  .debug_str:0000000000018ebc .LASF4043
C:\Users\CYMR90~1\AppData\Local\Temp\ccsGRYiA.s:20445  .debug_str:0000000000002825 .LASF4044
C:\Users\CYMR90~1\AppData\Local\Temp\ccsGRYiA.s:29162  .debug_str:0000000000025879 .LASF4045
C:\Users\CYMR90~1\AppData\Local\Temp\ccsGRYiA.s:21839  .debug_str:00000000000081d0 .LASF4046
C:\Users\CYMR90~1\AppData\Local\Temp\ccsGRYiA.s:25740  .debug_str:0000000000017d6d .LASF4047
C:\Users\CYMR90~1\AppData\Local\Temp\ccsGRYiA.s:30470  .debug_str:000000000002aaaf .LASF4048
C:\Users\CYMR90~1\AppData\Local\Temp\ccsGRYiA.s:20775  .debug_str:0000000000003d04 .LASF4049
C:\Users\CYMR90~1\AppData\Local\Temp\ccsGRYiA.s:26234  .debug_str:0000000000019dc9 .LASF4050
C:\Users\CYMR90~1\AppData\Local\Temp\ccsGRYiA.s:30210  .debug_str:0000000000029b2f .LASF4051
C:\Users\CYMR90~1\AppData\Local\Temp\ccsGRYiA.s:28652  .debug_str:0000000000023553 .LASF4052
C:\Users\CYMR90~1\AppData\Local\Temp\ccsGRYiA.s:27700  .debug_str:000000000001fb99 .LASF4053
C:\Users\CYMR90~1\AppData\Local\Temp\ccsGRYiA.s:28998  .debug_str:0000000000024c29 .LASF4054
C:\Users\CYMR90~1\AppData\Local\Temp\ccsGRYiA.s:30984  .debug_str:000000000002cc87 .LASF4055
C:\Users\CYMR90~1\AppData\Local\Temp\ccsGRYiA.s:25680  .debug_str:00000000000179fd .LASF4056
C:\Users\CYMR90~1\AppData\Local\Temp\ccsGRYiA.s:21993  .debug_str:0000000000008b7b .LASF4057
C:\Users\CYMR90~1\AppData\Local\Temp\ccsGRYiA.s:26400  .debug_str:000000000001a9c2 .LASF4058
C:\Users\CYMR90~1\AppData\Local\Temp\ccsGRYiA.s:26640  .debug_str:000000000001b91a .LASF4059
C:\Users\CYMR90~1\AppData\Local\Temp\ccsGRYiA.s:30142  .debug_str:0000000000029724 .LASF4060
C:\Users\CYMR90~1\AppData\Local\Temp\ccsGRYiA.s:22813  .debug_str:000000000000c05e .LASF4061
C:\Users\CYMR90~1\AppData\Local\Temp\ccsGRYiA.s:23229  .debug_str:000000000000db58 .LASF4062
C:\Users\CYMR90~1\AppData\Local\Temp\ccsGRYiA.s:23695  .debug_str:000000000000f895 .LASF4063
C:\Users\CYMR90~1\AppData\Local\Temp\ccsGRYiA.s:21697  .debug_str:000000000000779c .LASF4064
C:\Users\CYMR90~1\AppData\Local\Temp\ccsGRYiA.s:25614  .debug_str:000000000001759e .LASF4065
C:\Users\CYMR90~1\AppData\Local\Temp\ccsGRYiA.s:28632  .debug_str:00000000000233c3 .LASF4066
C:\Users\CYMR90~1\AppData\Local\Temp\ccsGRYiA.s:22173  .debug_str:000000000000966b .LASF4067
C:\Users\CYMR90~1\AppData\Local\Temp\ccsGRYiA.s:30950  .debug_str:000000000002ca10 .LASF4068
C:\Users\CYMR90~1\AppData\Local\Temp\ccsGRYiA.s:30082  .debug_str:0000000000029360 .LASF4069
C:\Users\CYMR90~1\AppData\Local\Temp\ccsGRYiA.s:22753  .debug_str:000000000000bc50 .LASF4070
C:\Users\CYMR90~1\AppData\Local\Temp\ccsGRYiA.s:26716  .debug_str:000000000001bd6d .LASF4071
C:\Users\CYMR90~1\AppData\Local\Temp\ccsGRYiA.s:29020  .debug_str:0000000000024db7 .LASF4072
C:\Users\CYMR90~1\AppData\Local\Temp\ccsGRYiA.s:25085  .debug_str:0000000000015268 .LASF4073
C:\Users\CYMR90~1\AppData\Local\Temp\ccsGRYiA.s:25558  .debug_str:0000000000017244 .LASF4074
C:\Users\CYMR90~1\AppData\Local\Temp\ccsGRYiA.s:27004  .debug_str:000000000001d11d .LASF4075
C:\Users\CYMR90~1\AppData\Local\Temp\ccsGRYiA.s:20025  .debug_str:0000000000000e09 .LASF4076
C:\Users\CYMR90~1\AppData\Local\Temp\ccsGRYiA.s:26044  .debug_str:00000000000191a6 .LASF4077
C:\Users\CYMR90~1\AppData\Local\Temp\ccsGRYiA.s:25564  .debug_str:00000000000172b0 .LASF4078
C:\Users\CYMR90~1\AppData\Local\Temp\ccsGRYiA.s:27866  .debug_str:00000000000205e5 .LASF4079
C:\Users\CYMR90~1\AppData\Local\Temp\ccsGRYiA.s:30190  .debug_str:00000000000299ec .LASF4080
C:\Users\CYMR90~1\AppData\Local\Temp\ccsGRYiA.s:30490  .debug_str:000000000002abf6 .LASF4081
C:\Users\CYMR90~1\AppData\Local\Temp\ccsGRYiA.s:23611  .debug_str:000000000000f2f3 .LASF4082
C:\Users\CYMR90~1\AppData\Local\Temp\ccsGRYiA.s:30900  .debug_str:000000000002c6fd .LASF4083
C:\Users\CYMR90~1\AppData\Local\Temp\ccsGRYiA.s:29388  .debug_str:0000000000026671 .LASF4084
C:\Users\CYMR90~1\AppData\Local\Temp\ccsGRYiA.s:27960  .debug_str:0000000000020b6f .LASF4085
C:\Users\CYMR90~1\AppData\Local\Temp\ccsGRYiA.s:25980  .debug_str:0000000000018cb3 .LASF4086
C:\Users\CYMR90~1\AppData\Local\Temp\ccsGRYiA.s:29956  .debug_str:0000000000028b9a .LASF4087
C:\Users\CYMR90~1\AppData\Local\Temp\ccsGRYiA.s:28874  .debug_str:00000000000243dc .LASF4088
C:\Users\CYMR90~1\AppData\Local\Temp\ccsGRYiA.s:26546  .debug_str:000000000001b35d .LASF4089
C:\Users\CYMR90~1\AppData\Local\Temp\ccsGRYiA.s:30418  .debug_str:000000000002a78e .LASF4090
C:\Users\CYMR90~1\AppData\Local\Temp\ccsGRYiA.s:23103  .debug_str:000000000000d404 .LASF4091
C:\Users\CYMR90~1\AppData\Local\Temp\ccsGRYiA.s:29390  .debug_str:0000000000026697 .LASF4092
C:\Users\CYMR90~1\AppData\Local\Temp\ccsGRYiA.s:25465  .debug_str:0000000000016a78 .LASF4093
C:\Users\CYMR90~1\AppData\Local\Temp\ccsGRYiA.s:21997  .debug_str:0000000000008bb5 .LASF4094
C:\Users\CYMR90~1\AppData\Local\Temp\ccsGRYiA.s:25906  .debug_str:0000000000018733 .LASF4095
C:\Users\CYMR90~1\AppData\Local\Temp\ccsGRYiA.s:23961  .debug_str:0000000000010971 .LASF4096
C:\Users\CYMR90~1\AppData\Local\Temp\ccsGRYiA.s:22563  .debug_str:000000000000afc4 .LASF4097
C:\Users\CYMR90~1\AppData\Local\Temp\ccsGRYiA.s:25940  .debug_str:00000000000189ba .LASF4098
C:\Users\CYMR90~1\AppData\Local\Temp\ccsGRYiA.s:26154  .debug_str:0000000000019875 .LASF4099
C:\Users\CYMR90~1\AppData\Local\Temp\ccsGRYiA.s:30572  .debug_str:000000000002b0c8 .LASF4100
C:\Users\CYMR90~1\AppData\Local\Temp\ccsGRYiA.s:21621  .debug_str:0000000000007307 .LASF4101
C:\Users\CYMR90~1\AppData\Local\Temp\ccsGRYiA.s:30842  .debug_str:000000000002c348 .LASF4102
C:\Users\CYMR90~1\AppData\Local\Temp\ccsGRYiA.s:27920  .debug_str:0000000000020904 .LASF4103
C:\Users\CYMR90~1\AppData\Local\Temp\ccsGRYiA.s:21561  .debug_str:0000000000006ec2 .LASF4104
C:\Users\CYMR90~1\AppData\Local\Temp\ccsGRYiA.s:29824  .debug_str:00000000000282e8 .LASF4105
C:\Users\CYMR90~1\AppData\Local\Temp\ccsGRYiA.s:22495  .debug_str:000000000000aa9f .LASF4106
C:\Users\CYMR90~1\AppData\Local\Temp\ccsGRYiA.s:21165  .debug_str:000000000000561b .LASF4107
C:\Users\CYMR90~1\AppData\Local\Temp\ccsGRYiA.s:21939  .debug_str:000000000000880c .LASF4108
C:\Users\CYMR90~1\AppData\Local\Temp\ccsGRYiA.s:22975  .debug_str:000000000000cb76 .LASF4109
C:\Users\CYMR90~1\AppData\Local\Temp\ccsGRYiA.s:26866  .debug_str:000000000001c680 .LASF4110
C:\Users\CYMR90~1\AppData\Local\Temp\ccsGRYiA.s:30778  .debug_str:000000000002beac .LASF4111
C:\Users\CYMR90~1\AppData\Local\Temp\ccsGRYiA.s:23549  .debug_str:000000000000ef16 .LASF4112
C:\Users\CYMR90~1\AppData\Local\Temp\ccsGRYiA.s:27642  .debug_str:000000000001f7f0 .LASF4113
C:\Users\CYMR90~1\AppData\Local\Temp\ccsGRYiA.s:28268  .debug_str:0000000000021e61 .LASF4114
C:\Users\CYMR90~1\AppData\Local\Temp\ccsGRYiA.s:30600  .debug_str:000000000002b2be .LASF4115
C:\Users\CYMR90~1\AppData\Local\Temp\ccsGRYiA.s:26358  .debug_str:000000000001a684 .LASF4116
C:\Users\CYMR90~1\AppData\Local\Temp\ccsGRYiA.s:28978  .debug_str:0000000000024ae8 .LASF4117
C:\Users\CYMR90~1\AppData\Local\Temp\ccsGRYiA.s:26330  .debug_str:000000000001a4ff .LASF4118
C:\Users\CYMR90~1\AppData\Local\Temp\ccsGRYiA.s:26798  .debug_str:000000000001c2a4 .LASF4119
C:\Users\CYMR90~1\AppData\Local\Temp\ccsGRYiA.s:19921  .debug_str:000000000000079c .LASF4120
C:\Users\CYMR90~1\AppData\Local\Temp\ccsGRYiA.s:22899  .debug_str:000000000000c596 .LASF4121
C:\Users\CYMR90~1\AppData\Local\Temp\ccsGRYiA.s:27328  .debug_str:000000000001e51b .LASF4122
C:\Users\CYMR90~1\AppData\Local\Temp\ccsGRYiA.s:21237  .debug_str:0000000000005ab3 .LASF4123
C:\Users\CYMR90~1\AppData\Local\Temp\ccsGRYiA.s:22367  .debug_str:000000000000a2bf .LASF4124
C:\Users\CYMR90~1\AppData\Local\Temp\ccsGRYiA.s:26276  .debug_str:000000000001a031 .LASF4125
C:\Users\CYMR90~1\AppData\Local\Temp\ccsGRYiA.s:30164  .debug_str:000000000002986b .LASF4126
C:\Users\CYMR90~1\AppData\Local\Temp\ccsGRYiA.s:22837  .debug_str:000000000000c1ce .LASF4127
C:\Users\CYMR90~1\AppData\Local\Temp\ccsGRYiA.s:26742  .debug_str:000000000001bf3c .LASF4128
C:\Users\CYMR90~1\AppData\Local\Temp\ccsGRYiA.s:26974  .debug_str:000000000001ceac .LASF4129
C:\Users\CYMR90~1\AppData\Local\Temp\ccsGRYiA.s:26420  .debug_str:000000000001ab1c .LASF4130
C:\Users\CYMR90~1\AppData\Local\Temp\ccsGRYiA.s:27268  .debug_str:000000000001e196 .LASF4131
C:\Users\CYMR90~1\AppData\Local\Temp\ccsGRYiA.s:30844  .debug_str:000000000002c36e .LASF4132
C:\Users\CYMR90~1\AppData\Local\Temp\ccsGRYiA.s:22451  .debug_str:000000000000a82e .LASF4133
C:\Users\CYMR90~1\AppData\Local\Temp\ccsGRYiA.s:20905  .debug_str:00000000000045cf .LASF4134
C:\Users\CYMR90~1\AppData\Local\Temp\ccsGRYiA.s:24945  .debug_str:000000000001497b .LASF4135
C:\Users\CYMR90~1\AppData\Local\Temp\ccsGRYiA.s:28852  .debug_str:000000000002424e .LASF4136
C:\Users\CYMR90~1\AppData\Local\Temp\ccsGRYiA.s:21489  .debug_str:0000000000006a35 .LASF4137
C:\Users\CYMR90~1\AppData\Local\Temp\ccsGRYiA.s:28348  .debug_str:0000000000022312 .LASF4138
C:\Users\CYMR90~1\AppData\Local\Temp\ccsGRYiA.s:30680  .debug_str:000000000002b818 .LASF4139
C:\Users\CYMR90~1\AppData\Local\Temp\ccsGRYiA.s:21473  .debug_str:000000000000692e .LASF4140
C:\Users\CYMR90~1\AppData\Local\Temp\ccsGRYiA.s:25900  .debug_str:00000000000186e7 .LASF4141
C:\Users\CYMR90~1\AppData\Local\Temp\ccsGRYiA.s:29888  .debug_str:0000000000028763 .LASF4142
C:\Users\CYMR90~1\AppData\Local\Temp\ccsGRYiA.s:29232  .debug_str:0000000000025c97 .LASF4143
C:\Users\CYMR90~1\AppData\Local\Temp\ccsGRYiA.s:24883  .debug_str:0000000000014548 .LASF4144
C:\Users\CYMR90~1\AppData\Local\Temp\ccsGRYiA.s:28784  .debug_str:0000000000023d2b .LASF4145
C:\Users\CYMR90~1\AppData\Local\Temp\ccsGRYiA.s:29518  .debug_str:0000000000026e4b .LASF4146
C:\Users\CYMR90~1\AppData\Local\Temp\ccsGRYiA.s:27076  .debug_str:000000000001d5bd .LASF4147
C:\Users\CYMR90~1\AppData\Local\Temp\ccsGRYiA.s:27796  .debug_str:000000000002015b .LASF4148
C:\Users\CYMR90~1\AppData\Local\Temp\ccsGRYiA.s:25227  .debug_str:0000000000015a94 .LASF4149
C:\Users\CYMR90~1\AppData\Local\Temp\ccsGRYiA.s:27504  .debug_str:000000000001efb1 .LASF4150
C:\Users\CYMR90~1\AppData\Local\Temp\ccsGRYiA.s:23237  .debug_str:000000000000dbdf .LASF4151
C:\Users\CYMR90~1\AppData\Local\Temp\ccsGRYiA.s:21813  .debug_str:0000000000007fb1 .LASF4152
C:\Users\CYMR90~1\AppData\Local\Temp\ccsGRYiA.s:29120  .debug_str:0000000000025505 .LASF4153
C:\Users\CYMR90~1\AppData\Local\Temp\ccsGRYiA.s:30702  .debug_str:000000000002b993 .LASF4154
C:\Users\CYMR90~1\AppData\Local\Temp\ccsGRYiA.s:22165  .debug_str:00000000000095f2 .LASF4155
C:\Users\CYMR90~1\AppData\Local\Temp\ccsGRYiA.s:25281  .debug_str:0000000000015e1a .LASF4156
C:\Users\CYMR90~1\AppData\Local\Temp\ccsGRYiA.s:29178  .debug_str:0000000000025966 .LASF4157
C:\Users\CYMR90~1\AppData\Local\Temp\ccsGRYiA.s:24357  .debug_str:00000000000123e4 .LASF4158
C:\Users\CYMR90~1\AppData\Local\Temp\ccsGRYiA.s:24405  .debug_str:00000000000126fe .LASF4159
C:\Users\CYMR90~1\AppData\Local\Temp\ccsGRYiA.s:23005  .debug_str:000000000000cd10 .LASF4160
C:\Users\CYMR90~1\AppData\Local\Temp\ccsGRYiA.s:22421  .debug_str:000000000000a629 .LASF4161
C:\Users\CYMR90~1\AppData\Local\Temp\ccsGRYiA.s:26348  .debug_str:000000000001a5f1 .LASF4162
C:\Users\CYMR90~1\AppData\Local\Temp\ccsGRYiA.s:23429  .debug_str:000000000000e7dd .LASF4163
C:\Users\CYMR90~1\AppData\Local\Temp\ccsGRYiA.s:21279  .debug_str:0000000000005d26 .LASF4164
C:\Users\CYMR90~1\AppData\Local\Temp\ccsGRYiA.s:27532  .debug_str:000000000001f168 .LASF4165
C:\Users\CYMR90~1\AppData\Local\Temp\ccsGRYiA.s:29116  .debug_str:00000000000254b3 .LASF4166
C:\Users\CYMR90~1\AppData\Local\Temp\ccsGRYiA.s:28912  .debug_str:000000000002464a .LASF4167
C:\Users\CYMR90~1\AppData\Local\Temp\ccsGRYiA.s:20835  .debug_str:000000000000414a .LASF4168
C:\Users\CYMR90~1\AppData\Local\Temp\ccsGRYiA.s:26516  .debug_str:000000000001b13f .LASF4169
C:\Users\CYMR90~1\AppData\Local\Temp\ccsGRYiA.s:24027  .debug_str:0000000000010dfc .LASF4170
C:\Users\CYMR90~1\AppData\Local\Temp\ccsGRYiA.s:26268  .debug_str:0000000000019fab .LASF4171
C:\Users\CYMR90~1\AppData\Local\Temp\ccsGRYiA.s:30158  .debug_str:0000000000029801 .LASF4172
C:\Users\CYMR90~1\AppData\Local\Temp\ccsGRYiA.s:29502  .debug_str:0000000000026d4b .LASF4173
C:\Users\CYMR90~1\AppData\Local\Temp\ccsGRYiA.s:25157  .debug_str:0000000000015662 .LASF4174
C:\Users\CYMR90~1\AppData\Local\Temp\ccsGRYiA.s:30788  .debug_str:000000000002bf67 .LASF4175
C:\Users\CYMR90~1\AppData\Local\Temp\ccsGRYiA.s:21705  .debug_str:000000000000782e .LASF4176
C:\Users\CYMR90~1\AppData\Local\Temp\ccsGRYiA.s:29062  .debug_str:0000000000025093 .LASF4177
C:\Users\CYMR90~1\AppData\Local\Temp\ccsGRYiA.s:31028  .debug_str:000000000002cf0e .LASF4178
C:\Users\CYMR90~1\AppData\Local\Temp\ccsGRYiA.s:21005  .debug_str:0000000000004c94 .LASF4179
C:\Users\CYMR90~1\AppData\Local\Temp\ccsGRYiA.s:23377  .debug_str:000000000000e459 .LASF4180
C:\Users\CYMR90~1\AppData\Local\Temp\ccsGRYiA.s:21231  .debug_str:0000000000005a1f .LASF4181
C:\Users\CYMR90~1\AppData\Local\Temp\ccsGRYiA.s:22765  .debug_str:000000000000bd27 .LASF4182
C:\Users\CYMR90~1\AppData\Local\Temp\ccsGRYiA.s:24089  .debug_str:0000000000011155 .LASF4183
C:\Users\CYMR90~1\AppData\Local\Temp\ccsGRYiA.s:22265  .debug_str:0000000000009c66 .LASF4184
C:\Users\CYMR90~1\AppData\Local\Temp\ccsGRYiA.s:29274  .debug_str:0000000000025f5f .LASF4185
C:\Users\CYMR90~1\AppData\Local\Temp\ccsGRYiA.s:25650  .debug_str:00000000000177d6 .LASF4186
C:\Users\CYMR90~1\AppData\Local\Temp\ccsGRYiA.s:22235  .debug_str:0000000000009a90 .LASF4187
C:\Users\CYMR90~1\AppData\Local\Temp\ccsGRYiA.s:26856  .debug_str:000000000001c5c9 .LASF4188
C:\Users\CYMR90~1\AppData\Local\Temp\ccsGRYiA.s:26150  .debug_str:000000000001982a .LASF4189
C:\Users\CYMR90~1\AppData\Local\Temp\ccsGRYiA.s:30036  .debug_str:00000000000290a4 .LASF4190
C:\Users\CYMR90~1\AppData\Local\Temp\ccsGRYiA.s:22699  .debug_str:000000000000b8f5 .LASF4191
C:\Users\CYMR90~1\AppData\Local\Temp\ccsGRYiA.s:22577  .debug_str:000000000000b0b3 .LASF4192
C:\Users\CYMR90~1\AppData\Local\Temp\ccsGRYiA.s:23725  .debug_str:000000000000fa39 .LASF4193
C:\Users\CYMR90~1\AppData\Local\Temp\ccsGRYiA.s:21571  .debug_str:0000000000006f4b .LASF4194
C:\Users\CYMR90~1\AppData\Local\Temp\ccsGRYiA.s:25592  .debug_str:000000000001744a .LASF4195
C:\Users\CYMR90~1\AppData\Local\Temp\ccsGRYiA.s:29494  .debug_str:0000000000026cd3 .LASF4196
C:\Users\CYMR90~1\AppData\Local\Temp\ccsGRYiA.s:28014  .debug_str:0000000000020e8f .LASF4197
C:\Users\CYMR90~1\AppData\Local\Temp\ccsGRYiA.s:26080  .debug_str:00000000000193c0 .LASF4198
C:\Users\CYMR90~1\AppData\Local\Temp\ccsGRYiA.s:21399  .debug_str:00000000000064b2 .LASF4199
C:\Users\CYMR90~1\AppData\Local\Temp\ccsGRYiA.s:22641  .debug_str:000000000000b4e7 .LASF4200
C:\Users\CYMR90~1\AppData\Local\Temp\ccsGRYiA.s:26072  .debug_str:000000000001934a .LASF4201
C:\Users\CYMR90~1\AppData\Local\Temp\ccsGRYiA.s:24253  .debug_str:0000000000011c8b .LASF4202
C:\Users\CYMR90~1\AppData\Local\Temp\ccsGRYiA.s:21313  .debug_str:0000000000005f6e .LASF4203
C:\Users\CYMR90~1\AppData\Local\Temp\ccsGRYiA.s:25530  .debug_str:00000000000170b5 .LASF4204
C:\Users\CYMR90~1\AppData\Local\Temp\ccsGRYiA.s:29424  .debug_str:0000000000026893 .LASF4205
C:\Users\CYMR90~1\AppData\Local\Temp\ccsGRYiA.s:22095  .debug_str:000000000000919f .LASF4206
C:\Users\CYMR90~1\AppData\Local\Temp\ccsGRYiA.s:20183  .debug_str:0000000000001852 .LASF4207
C:\Users\CYMR90~1\AppData\Local\Temp\ccsGRYiA.s:26188  .debug_str:0000000000019afc .LASF4208
C:\Users\CYMR90~1\AppData\Local\Temp\ccsGRYiA.s:27212  .debug_str:000000000001de25 .LASF4209
C:\Users\CYMR90~1\AppData\Local\Temp\ccsGRYiA.s:21347  .debug_str:00000000000061b8 .LASF4210
C:\Users\CYMR90~1\AppData\Local\Temp\ccsGRYiA.s:30368  .debug_str:000000000002a4cb .LASF4211
C:\Users\CYMR90~1\AppData\Local\Temp\ccsGRYiA.s:23143  .debug_str:000000000000d6a8 .LASF4212
C:\Users\CYMR90~1\AppData\Local\Temp\ccsGRYiA.s:20189  .debug_str:00000000000018b8 .LASF4213
C:\Users\CYMR90~1\AppData\Local\Temp\ccsGRYiA.s:29362  .debug_str:00000000000264af .LASF4214
C:\Users\CYMR90~1\AppData\Local\Temp\ccsGRYiA.s:23793  .debug_str:000000000000fead .LASF4215
C:\Users\CYMR90~1\AppData\Local\Temp\ccsGRYiA.s:26252  .debug_str:0000000000019ebb .LASF4216
C:\Users\CYMR90~1\AppData\Local\Temp\ccsGRYiA.s:28402  .debug_str:000000000002263a .LASF4217
C:\Users\CYMR90~1\AppData\Local\Temp\ccsGRYiA.s:30730  .debug_str:000000000002bb60 .LASF4218
C:\Users\CYMR90~1\AppData\Local\Temp\ccsGRYiA.s:26446  .debug_str:000000000001ac95 .LASF4219
C:\Users\CYMR90~1\AppData\Local\Temp\ccsGRYiA.s:30308  .debug_str:000000000002a0ca .LASF4220
C:\Users\CYMR90~1\AppData\Local\Temp\ccsGRYiA.s:23075  .debug_str:000000000000d1fd .LASF4221
C:\Users\CYMR90~1\AppData\Local\Temp\ccsGRYiA.s:23741  .debug_str:000000000000fb2f .LASF4222
C:\Users\CYMR90~1\AppData\Local\Temp\ccsGRYiA.s:24075  .debug_str:0000000000011075 .LASF4223
C:\Users\CYMR90~1\AppData\Local\Temp\ccsGRYiA.s:21967  .debug_str:00000000000089e2 .LASF4224
C:\Users\CYMR90~1\AppData\Local\Temp\ccsGRYiA.s:22043  .debug_str:0000000000008eb5 .LASF4225
C:\Users\CYMR90~1\AppData\Local\Temp\ccsGRYiA.s:24887  .debug_str:00000000000145a7 .LASF4226
C:\Users\CYMR90~1\AppData\Local\Temp\ccsGRYiA.s:22981  .debug_str:000000000000cbdd .LASF4227
C:\Users\CYMR90~1\AppData\Local\Temp\ccsGRYiA.s:26374  .debug_str:000000000001a7c2 .LASF4228
C:\Users\CYMR90~1\AppData\Local\Temp\ccsGRYiA.s:24765  .debug_str:0000000000013e08 .LASF4229
C:\Users\CYMR90~1\AppData\Local\Temp\ccsGRYiA.s:27324  .debug_str:000000000001e4e2 .LASF4230
C:\Users\CYMR90~1\AppData\Local\Temp\ccsGRYiA.s:28078  .debug_str:000000000002122a .LASF4231
C:\Users\CYMR90~1\AppData\Local\Temp\ccsGRYiA.s:24199  .debug_str:00000000000118e2 .LASF4232
C:\Users\CYMR90~1\AppData\Local\Temp\ccsGRYiA.s:22493  .debug_str:000000000000aa79 .LASF4233
C:\Users\CYMR90~1\AppData\Local\Temp\ccsGRYiA.s:20617  .debug_str:00000000000032d4 .LASF4234
C:\Users\CYMR90~1\AppData\Local\Temp\ccsGRYiA.s:24565  .debug_str:0000000000013177 .LASF4235
C:\Users\CYMR90~1\AppData\Local\Temp\ccsGRYiA.s:28114  .debug_str:00000000000214e9 .LASF4236
C:\Users\CYMR90~1\AppData\Local\Temp\ccsGRYiA.s:21075  .debug_str:00000000000050ca .LASF4237
C:\Users\CYMR90~1\AppData\Local\Temp\ccsGRYiA.s:25021  .debug_str:0000000000014e47 .LASF4238
C:\Users\CYMR90~1\AppData\Local\Temp\ccsGRYiA.s:28922  .debug_str:00000000000246f2 .LASF4239
C:\Users\CYMR90~1\AppData\Local\Temp\ccsGRYiA.s:21563  .debug_str:0000000000006ee8 .LASF4240
C:\Users\CYMR90~1\AppData\Local\Temp\ccsGRYiA.s:20849  .debug_str:0000000000004220 .LASF4241
C:\Users\CYMR90~1\AppData\Local\Temp\ccsGRYiA.s:29486  .debug_str:0000000000026c38 .LASF4242
C:\Users\CYMR90~1\AppData\Local\Temp\ccsGRYiA.s:27718  .debug_str:000000000001fc91 .LASF4243
C:\Users\CYMR90~1\AppData\Local\Temp\ccsGRYiA.s:24511  .debug_str:0000000000012dfe .LASF4244
C:\Users\CYMR90~1\AppData\Local\Temp\ccsGRYiA.s:28394  .debug_str:00000000000225a5 .LASF4245
C:\Users\CYMR90~1\AppData\Local\Temp\ccsGRYiA.s:24343  .debug_str:00000000000122ed .LASF4246
C:\Users\CYMR90~1\AppData\Local\Temp\ccsGRYiA.s:25065  .debug_str:0000000000015143 .LASF4247
C:\Users\CYMR90~1\AppData\Local\Temp\ccsGRYiA.s:30898  .debug_str:000000000002c6d7 .LASF4248
C:\Users\CYMR90~1\AppData\Local\Temp\ccsGRYiA.s:29642  .debug_str:000000000002760b .LASF4249
C:\Users\CYMR90~1\AppData\Local\Temp\ccsGRYiA.s:25431  .debug_str:0000000000016818 .LASF4250
C:\Users\CYMR90~1\AppData\Local\Temp\ccsGRYiA.s:23935  .debug_str:00000000000107ed .LASF4251
C:\Users\CYMR90~1\AppData\Local\Temp\ccsGRYiA.s:22087  .debug_str:0000000000009130 .LASF4252
C:\Users\CYMR90~1\AppData\Local\Temp\ccsGRYiA.s:30416  .debug_str:000000000002a768 .LASF4253
C:\Users\CYMR90~1\AppData\Local\Temp\ccsGRYiA.s:23883  .debug_str:0000000000010428 .LASF4254
C:\Users\CYMR90~1\AppData\Local\Temp\ccsGRYiA.s:25317  .debug_str:00000000000160df .LASF4255
C:\Users\CYMR90~1\AppData\Local\Temp\ccsGRYiA.s:24897  .debug_str:000000000001465c .LASF4256
C:\Users\CYMR90~1\AppData\Local\Temp\ccsGRYiA.s:23645  .debug_str:000000000000f4fb .LASF4257
C:\Users\CYMR90~1\AppData\Local\Temp\ccsGRYiA.s:21435  .debug_str:0000000000006692 .LASF4258
C:\Users\CYMR90~1\AppData\Local\Temp\ccsGRYiA.s:25363  .debug_str:0000000000016397 .LASF4259
C:\Users\CYMR90~1\AppData\Local\Temp\ccsGRYiA.s:29354  .debug_str:0000000000026417 .LASF4260
C:\Users\CYMR90~1\AppData\Local\Temp\ccsGRYiA.s:22033  .debug_str:0000000000008e2a .LASF4261
C:\Users\CYMR90~1\AppData\Local\Temp\ccsGRYiA.s:25936  .debug_str:000000000001895a .LASF4262
C:\Users\CYMR90~1\AppData\Local\Temp\ccsGRYiA.s:23035  .debug_str:000000000000cf2a .LASF4263
C:\Users\CYMR90~1\AppData\Local\Temp\ccsGRYiA.s:20881  .debug_str:000000000000442a .LASF4264
C:\Users\CYMR90~1\AppData\Local\Temp\ccsGRYiA.s:24827  .debug_str:000000000001422c .LASF4265
C:\Users\CYMR90~1\AppData\Local\Temp\ccsGRYiA.s:22783  .debug_str:000000000000be7c .LASF4266
C:\Users\CYMR90~1\AppData\Local\Temp\ccsGRYiA.s:21369  .debug_str:00000000000062e9 .LASF4267
C:\Users\CYMR90~1\AppData\Local\Temp\ccsGRYiA.s:20501  .debug_str:0000000000002b8c .LASF4268
C:\Users\CYMR90~1\AppData\Local\Temp\ccsGRYiA.s:30904  .debug_str:000000000002c747 .LASF4269
C:\Users\CYMR90~1\AppData\Local\Temp\ccsGRYiA.s:21981  .debug_str:0000000000008acc .LASF4270
C:\Users\CYMR90~1\AppData\Local\Temp\ccsGRYiA.s:25868  .debug_str:000000000001853f .LASF4271
C:\Users\CYMR90~1\AppData\Local\Temp\ccsGRYiA.s:20255  .debug_str:0000000000001cbe .LASF4272
C:\Users\CYMR90~1\AppData\Local\Temp\ccsGRYiA.s:26862  .debug_str:000000000001c620 .LASF4273
C:\Users\CYMR90~1\AppData\Local\Temp\ccsGRYiA.s:24759  .debug_str:0000000000013dbb .LASF4274
C:\Users\CYMR90~1\AppData\Local\Temp\ccsGRYiA.s:28670  .debug_str:0000000000023671 .LASF4275
C:\Users\CYMR90~1\AppData\Local\Temp\ccsGRYiA.s:25167  .debug_str:0000000000015714 .LASF4276
C:\Users\CYMR90~1\AppData\Local\Temp\ccsGRYiA.s:29816  .debug_str:0000000000028262 .LASF4277
C:\Users\CYMR90~1\AppData\Local\Temp\ccsGRYiA.s:23159  .debug_str:000000000000d78a .LASF4278
C:\Users\CYMR90~1\AppData\Local\Temp\ccsGRYiA.s:21889  .debug_str:0000000000008539 .LASF4279
C:\Users\CYMR90~1\AppData\Local\Temp\ccsGRYiA.s:27766  .debug_str:000000000001ffc9 .LASF4280
C:\Users\CYMR90~1\AppData\Local\Temp\ccsGRYiA.s:29700  .debug_str:00000000000279f6 .LASF4281
C:\Users\CYMR90~1\AppData\Local\Temp\ccsGRYiA.s:22371  .debug_str:000000000000a2fd .LASF4282
C:\Users\CYMR90~1\AppData\Local\Temp\ccsGRYiA.s:30712  .debug_str:000000000002ba1a .LASF4283
C:\Users\CYMR90~1\AppData\Local\Temp\ccsGRYiA.s:21669  .debug_str:00000000000075d2 .LASF4284
C:\Users\CYMR90~1\AppData\Local\Temp\ccsGRYiA.s:21227  .debug_str:00000000000059df .LASF4285
C:\Users\CYMR90~1\AppData\Local\Temp\ccsGRYiA.s:24325  .debug_str:00000000000121f4 .LASF4286
C:\Users\CYMR90~1\AppData\Local\Temp\ccsGRYiA.s:25215  .debug_str:00000000000159df .LASF4287
C:\Users\CYMR90~1\AppData\Local\Temp\ccsGRYiA.s:21825  .debug_str:00000000000080f6 .LASF4288
C:\Users\CYMR90~1\AppData\Local\Temp\ccsGRYiA.s:25401  .debug_str:000000000001662a .LASF4289
C:\Users\CYMR90~1\AppData\Local\Temp\ccsGRYiA.s:22359  .debug_str:000000000000a238 .LASF4290
C:\Users\CYMR90~1\AppData\Local\Temp\ccsGRYiA.s:20485  .debug_str:0000000000002a82 .LASF4291
C:\Users\CYMR90~1\AppData\Local\Temp\ccsGRYiA.s:27740  .debug_str:000000000001fe4a .LASF4292
C:\Users\CYMR90~1\AppData\Local\Temp\ccsGRYiA.s:22561  .debug_str:000000000000af9e .LASF4293
C:\Users\CYMR90~1\AppData\Local\Temp\ccsGRYiA.s:21159  .debug_str:00000000000055cf .LASF4294
C:\Users\CYMR90~1\AppData\Local\Temp\ccsGRYiA.s:21775  .debug_str:0000000000007c96 .LASF4295
C:\Users\CYMR90~1\AppData\Local\Temp\ccsGRYiA.s:30122  .debug_str:000000000002962f .LASF4296
C:\Users\CYMR90~1\AppData\Local\Temp\ccsGRYiA.s:21747  .debug_str:0000000000007b12 .LASF4297
C:\Users\CYMR90~1\AppData\Local\Temp\ccsGRYiA.s:21329  .debug_str:0000000000006053 .LASF4298
C:\Users\CYMR90~1\AppData\Local\Temp\ccsGRYiA.s:22103  .debug_str:0000000000009225 .LASF4299
C:\Users\CYMR90~1\AppData\Local\Temp\ccsGRYiA.s:28744  .debug_str:0000000000023ac9 .LASF4300
C:\Users\CYMR90~1\AppData\Local\Temp\ccsGRYiA.s:20931  .debug_str:0000000000004782 .LASF4301
C:\Users\CYMR90~1\AppData\Local\Temp\ccsGRYiA.s:21523  .debug_str:0000000000006c2e .LASF4302
C:\Users\CYMR90~1\AppData\Local\Temp\ccsGRYiA.s:30582  .debug_str:000000000002b17c .LASF4303
C:\Users\CYMR90~1\AppData\Local\Temp\ccsGRYiA.s:21103  .debug_str:000000000000528f .LASF4304
C:\Users\CYMR90~1\AppData\Local\Temp\ccsGRYiA.s:22379  .debug_str:000000000000a3ad .LASF4305
C:\Users\CYMR90~1\AppData\Local\Temp\ccsGRYiA.s:21681  .debug_str:00000000000076a2 .LASF4306
C:\Users\CYMR90~1\AppData\Local\Temp\ccsGRYiA.s:27012  .debug_str:000000000001d19e .LASF4307
C:\Users\CYMR90~1\AppData\Local\Temp\ccsGRYiA.s:29320  .debug_str:0000000000026206 .LASF4308
C:\Users\CYMR90~1\AppData\Local\Temp\ccsGRYiA.s:26364  .debug_str:000000000001a6f6 .LASF4309
C:\Users\CYMR90~1\AppData\Local\Temp\ccsGRYiA.s:22727  .debug_str:000000000000ba6c .LASF4310
C:\Users\CYMR90~1\AppData\Local\Temp\ccsGRYiA.s:30068  .debug_str:0000000000029267 .LASF4311
C:\Users\CYMR90~1\AppData\Local\Temp\ccsGRYiA.s:22501  .debug_str:000000000000ab17 .LASF4312
C:\Users\CYMR90~1\AppData\Local\Temp\ccsGRYiA.s:19819  .debug_str:0000000000000174 .LASF4313
C:\Users\CYMR90~1\AppData\Local\Temp\ccsGRYiA.s:28968  .debug_str:0000000000024a21 .LASF4314
C:\Users\CYMR90~1\AppData\Local\Temp\ccsGRYiA.s:28170  .debug_str:0000000000021849 .LASF4315
C:\Users\CYMR90~1\AppData\Local\Temp\ccsGRYiA.s:25546  .debug_str:000000000001718f .LASF4316
C:\Users\CYMR90~1\AppData\Local\Temp\ccsGRYiA.s:29440  .debug_str:000000000002699e .LASF4317
C:\Users\CYMR90~1\AppData\Local\Temp\ccsGRYiA.s:25676  .debug_str:00000000000179a6 .LASF4318
C:\Users\CYMR90~1\AppData\Local\Temp\ccsGRYiA.s:26448  .debug_str:000000000001acbb .LASF4319
C:\Users\CYMR90~1\AppData\Local\Temp\ccsGRYiA.s:29402  .debug_str:0000000000026755 .LASF4320
C:\Users\CYMR90~1\AppData\Local\Temp\ccsGRYiA.s:22675  .debug_str:000000000000b721 .LASF4321
C:\Users\CYMR90~1\AppData\Local\Temp\ccsGRYiA.s:26586  .debug_str:000000000001b5bf .LASF4322
C:\Users\CYMR90~1\AppData\Local\Temp\ccsGRYiA.s:28604  .debug_str:0000000000023229 .LASF4323
C:\Users\CYMR90~1\AppData\Local\Temp\ccsGRYiA.s:21541  .debug_str:0000000000006d7a .LASF4324
C:\Users\CYMR90~1\AppData\Local\Temp\ccsGRYiA.s:25479  .debug_str:0000000000016be5 .LASF4325
C:\Users\CYMR90~1\AppData\Local\Temp\ccsGRYiA.s:29376  .debug_str:000000000002657c .LASF4326
C:\Users\CYMR90~1\AppData\Local\Temp\ccsGRYiA.s:20871  .debug_str:0000000000004382 .LASF4327
C:\Users\CYMR90~1\AppData\Local\Temp\ccsGRYiA.s:25982  .debug_str:0000000000018cd9 .LASF4328
C:\Users\CYMR90~1\AppData\Local\Temp\ccsGRYiA.s:24629  .debug_str:000000000001360c .LASF4329
C:\Users\CYMR90~1\AppData\Local\Temp\ccsGRYiA.s:26724  .debug_str:000000000001bdf0 .LASF4330
C:\Users\CYMR90~1\AppData\Local\Temp\ccsGRYiA.s:26538  .debug_str:000000000001b2d1 .LASF4331
C:\Users\CYMR90~1\AppData\Local\Temp\ccsGRYiA.s:24993  .debug_str:0000000000014c3d .LASF4332
C:\Users\CYMR90~1\AppData\Local\Temp\ccsGRYiA.s:20873  .debug_str:00000000000043a8 .LASF4333
C:\Users\CYMR90~1\AppData\Local\Temp\ccsGRYiA.s:29344  .debug_str:0000000000026368 .LASF4334
C:\Users\CYMR90~1\AppData\Local\Temp\ccsGRYiA.s:24161  .debug_str:00000000000115f7 .LASF4335
C:\Users\CYMR90~1\AppData\Local\Temp\ccsGRYiA.s:28054  .debug_str:00000000000210c3 .LASF4336
C:\Users\CYMR90~1\AppData\Local\Temp\ccsGRYiA.s:20689  .debug_str:0000000000003795 .LASF4337
C:\Users\CYMR90~1\AppData\Local\Temp\ccsGRYiA.s:24647  .debug_str:0000000000013737 .LASF4338
C:\Users\CYMR90~1\AppData\Local\Temp\ccsGRYiA.s:27962  .debug_str:0000000000020b95 .LASF4339
C:\Users\CYMR90~1\AppData\Local\Temp\ccsGRYiA.s:26836  .debug_str:000000000001c4b9 .LASF4340
C:\Users\CYMR90~1\AppData\Local\Temp\ccsGRYiA.s:26000  .debug_str:0000000000018df9 .LASF4341
C:\Users\CYMR90~1\AppData\Local\Temp\ccsGRYiA.s:27544  .debug_str:000000000001f21c .LASF4342
C:\Users\CYMR90~1\AppData\Local\Temp\ccsGRYiA.s:20869  .debug_str:000000000000435c .LASF4343
C:\Users\CYMR90~1\AppData\Local\Temp\ccsGRYiA.s:20803  .debug_str:0000000000003ee6 .LASF4344
C:\Users\CYMR90~1\AppData\Local\Temp\ccsGRYiA.s:27986  .debug_str:0000000000020d0a .LASF4345
C:\Users\CYMR90~1\AppData\Local\Temp\ccsGRYiA.s:25964  .debug_str:0000000000018af3 .LASF4346
C:\Users\CYMR90~1\AppData\Local\Temp\ccsGRYiA.s:24679  .debug_str:0000000000013927 .LASF4347
C:\Users\CYMR90~1\AppData\Local\Temp\ccsGRYiA.s:28498  .debug_str:0000000000022c28 .LASF4348
C:\Users\CYMR90~1\AppData\Local\Temp\ccsGRYiA.s:31004  .debug_str:000000000002cd77 .LASF4349
C:\Users\CYMR90~1\AppData\Local\Temp\ccsGRYiA.s:22477  .debug_str:000000000000a96d .LASF4350
C:\Users\CYMR90~1\AppData\Local\Temp\ccsGRYiA.s:23141  .debug_str:000000000000d69b .LASF4351
C:\Users\CYMR90~1\AppData\Local\Temp\ccsGRYiA.s:28624  .debug_str:0000000000023350 .LASF4352
C:\Users\CYMR90~1\AppData\Local\Temp\ccsGRYiA.s:27186  .debug_str:000000000001dc89 .LASF4353
C:\Users\CYMR90~1\AppData\Local\Temp\ccsGRYiA.s:19875  .debug_str:00000000000004b4 .LASF4354
C:\Users\CYMR90~1\AppData\Local\Temp\ccsGRYiA.s:20921  .debug_str:00000000000046e2 .LASF4355
C:\Users\CYMR90~1\AppData\Local\Temp\ccsGRYiA.s:23323  .debug_str:000000000000e136 .LASF4356
C:\Users\CYMR90~1\AppData\Local\Temp\ccsGRYiA.s:21495  .debug_str:0000000000006a8f .LASF4357
C:\Users\CYMR90~1\AppData\Local\Temp\ccsGRYiA.s:24699  .debug_str:0000000000013a4d .LASF4358
C:\Users\CYMR90~1\AppData\Local\Temp\ccsGRYiA.s:24323  .debug_str:00000000000121cd .LASF4359
C:\Users\CYMR90~1\AppData\Local\Temp\ccsGRYiA.s:20561  .debug_str:0000000000002f15 .LASF4360
C:\Users\CYMR90~1\AppData\Local\Temp\ccsGRYiA.s:21125  .debug_str:00000000000053c7 .LASF4361
C:\Users\CYMR90~1\AppData\Local\Temp\ccsGRYiA.s:20647  .debug_str:00000000000034e9 .LASF4362
C:\Users\CYMR90~1\AppData\Local\Temp\ccsGRYiA.s:19835  .debug_str:000000000000025a .LASF4363
C:\Users\CYMR90~1\AppData\Local\Temp\ccsGRYiA.s:22097  .debug_str:00000000000091c5 .LASF4364
C:\Users\CYMR90~1\AppData\Local\Temp\ccsGRYiA.s:25453  .debug_str:00000000000169e3 .LASF4365
C:\Users\CYMR90~1\AppData\Local\Temp\ccsGRYiA.s:20551  .debug_str:0000000000002e8a .LASF4366
C:\Users\CYMR90~1\AppData\Local\Temp\ccsGRYiA.s:29462  .debug_str:0000000000026ad9 .LASF4367
C:\Users\CYMR90~1\AppData\Local\Temp\ccsGRYiA.s:25321  .debug_str:0000000000016120 .LASF4368
C:\Users\CYMR90~1\AppData\Local\Temp\ccsGRYiA.s:25976  .debug_str:0000000000018c4c .LASF4369
C:\Users\CYMR90~1\AppData\Local\Temp\ccsGRYiA.s:28636  .debug_str:0000000000023420 .LASF4370
C:\Users\CYMR90~1\AppData\Local\Temp\ccsGRYiA.s:28424  .debug_str:000000000002278a .LASF4371
C:\Users\CYMR90~1\AppData\Local\Temp\ccsGRYiA.s:24527  .debug_str:0000000000012efc .LASF4372
C:\Users\CYMR90~1\AppData\Local\Temp\ccsGRYiA.s:30116  .debug_str:00000000000295b8 .LASF4373
C:\Users\CYMR90~1\AppData\Local\Temp\ccsGRYiA.s:30336  .debug_str:000000000002a2ab .LASF4374
C:\Users\CYMR90~1\AppData\Local\Temp\ccsGRYiA.s:27084  .debug_str:000000000001d63a .LASF4375
C:\Users\CYMR90~1\AppData\Local\Temp\ccsGRYiA.s:29228  .debug_str:0000000000025c5a .LASF4376
C:\Users\CYMR90~1\AppData\Local\Temp\ccsGRYiA.s:24061  .debug_str:0000000000010fa3 .LASF4377
C:\Users\CYMR90~1\AppData\Local\Temp\ccsGRYiA.s:27234  .debug_str:000000000001df89 .LASF4378
C:\Users\CYMR90~1\AppData\Local\Temp\ccsGRYiA.s:22269  .debug_str:0000000000009ca3 .LASF4379
C:\Users\CYMR90~1\AppData\Local\Temp\ccsGRYiA.s:26502  .debug_str:000000000001b080 .LASF4380
C:\Users\CYMR90~1\AppData\Local\Temp\ccsGRYiA.s:27082  .debug_str:000000000001d615 .LASF4381
C:\Users\CYMR90~1\AppData\Local\Temp\ccsGRYiA.s:22653  .debug_str:000000000000b586 .LASF4382
C:\Users\CYMR90~1\AppData\Local\Temp\ccsGRYiA.s:25654  .debug_str:0000000000017814 .LASF4383
C:\Users\CYMR90~1\AppData\Local\Temp\ccsGRYiA.s:26786  .debug_str:000000000001c1e3 .LASF4384
C:\Users\CYMR90~1\AppData\Local\Temp\ccsGRYiA.s:24459  .debug_str:0000000000012abe .LASF4385
C:\Users\CYMR90~1\AppData\Local\Temp\ccsGRYiA.s:27942  .debug_str:0000000000020a45 .LASF4386
C:\Users\CYMR90~1\AppData\Local\Temp\ccsGRYiA.s:22587  .debug_str:000000000000b137 .LASF4387
C:\Users\CYMR90~1\AppData\Local\Temp\ccsGRYiA.s:26470  .debug_str:000000000001ae08 .LASF4388
C:\Users\CYMR90~1\AppData\Local\Temp\ccsGRYiA.s:25165  .debug_str:00000000000156ef .LASF4389
C:\Users\CYMR90~1\AppData\Local\Temp\ccsGRYiA.s:24509  .debug_str:0000000000012dd9 .LASF4390
C:\Users\CYMR90~1\AppData\Local\Temp\ccsGRYiA.s:30710  .debug_str:000000000002ba03 .LASF4391
C:\Users\CYMR90~1\AppData\Local\Temp\ccsGRYiA.s:26100  .debug_str:000000000001950e .LASF4392
C:\Users\CYMR90~1\AppData\Local\Temp\ccsGRYiA.s:25652  .debug_str:00000000000177fc .LASF4393
C:\Users\CYMR90~1\AppData\Local\Temp\ccsGRYiA.s:27106  .debug_str:000000000001d7ed .LASF4394
C:\Users\CYMR90~1\AppData\Local\Temp\ccsGRYiA.s:28752  .debug_str:0000000000023b3b .LASF4395
C:\Users\CYMR90~1\AppData\Local\Temp\ccsGRYiA.s:21157  .debug_str:00000000000055b6 .LASF4396
C:\Users\CYMR90~1\AppData\Local\Temp\ccsGRYiA.s:20119  .debug_str:000000000000140c .LASF4397
C:\Users\CYMR90~1\AppData\Local\Temp\ccsGRYiA.s:27410  .debug_str:000000000001ea3a .LASF4398
C:\Users\CYMR90~1\AppData\Local\Temp\ccsGRYiA.s:28130  .debug_str:00000000000215d2 .LASF4399
C:\Users\CYMR90~1\AppData\Local\Temp\ccsGRYiA.s:30282  .debug_str:0000000000029f78 .LASF4400
C:\Users\CYMR90~1\AppData\Local\Temp\ccsGRYiA.s:24177  .debug_str:00000000000116ef .LASF4401
C:\Users\CYMR90~1\AppData\Local\Temp\ccsGRYiA.s:29948  .debug_str:0000000000028b0d .LASF4402
C:\Users\CYMR90~1\AppData\Local\Temp\ccsGRYiA.s:24953  .debug_str:00000000000149e8 .LASF4403
C:\Users\CYMR90~1\AppData\Local\Temp\ccsGRYiA.s:22549  .debug_str:000000000000aeeb .LASF4404
C:\Users\CYMR90~1\AppData\Local\Temp\ccsGRYiA.s:27902  .debug_str:0000000000020800 .LASF4405
C:\Users\CYMR90~1\AppData\Local\Temp\ccsGRYiA.s:21995  .debug_str:0000000000008ba1 .LASF4406
C:\Users\CYMR90~1\AppData\Local\Temp\ccsGRYiA.s:25570  .debug_str:000000000001730c .LASF4407
C:\Users\CYMR90~1\AppData\Local\Temp\ccsGRYiA.s:28716  .debug_str:0000000000023950 .LASF4408
C:\Users\CYMR90~1\AppData\Local\Temp\ccsGRYiA.s:29528  .debug_str:0000000000026ee9 .LASF4409
C:\Users\CYMR90~1\AppData\Local\Temp\ccsGRYiA.s:24991  .debug_str:0000000000014c29 .LASF4410
C:\Users\CYMR90~1\AppData\Local\Temp\ccsGRYiA.s:27318  .debug_str:000000000001e475 .LASF4411
C:\Users\CYMR90~1\AppData\Local\Temp\ccsGRYiA.s:22959  .debug_str:000000000000caa1 .LASF4412
C:\Users\CYMR90~1\AppData\Local\Temp\ccsGRYiA.s:24767  .debug_str:0000000000013e2e .LASF4413
C:\Users\CYMR90~1\AppData\Local\Temp\ccsGRYiA.s:27156  .debug_str:000000000001dae1 .LASF4414
C:\Users\CYMR90~1\AppData\Local\Temp\ccsGRYiA.s:24537  .debug_str:0000000000012f9a .LASF4415
C:\Users\CYMR90~1\AppData\Local\Temp\ccsGRYiA.s:27976  .debug_str:0000000000020c8a .LASF4416
C:\Users\CYMR90~1\AppData\Local\Temp\ccsGRYiA.s:23517  .debug_str:000000000000ed5c .LASF4417
C:\Users\CYMR90~1\AppData\Local\Temp\ccsGRYiA.s:27104  .debug_str:000000000001d7d8 .LASF4418
C:\Users\CYMR90~1\AppData\Local\Temp\ccsGRYiA.s:20929  .debug_str:000000000000476e .LASF4419
C:\Users\CYMR90~1\AppData\Local\Temp\ccsGRYiA.s:20307  .debug_str:0000000000001ff3 .LASF4420
C:\Users\CYMR90~1\AppData\Local\Temp\ccsGRYiA.s:25716  .debug_str:0000000000017c29 .LASF4421
C:\Users\CYMR90~1\AppData\Local\Temp\ccsGRYiA.s:21909  .debug_str:000000000000864e .LASF4422
C:\Users\CYMR90~1\AppData\Local\Temp\ccsGRYiA.s:30408  .debug_str:000000000002a717 .LASF4423
C:\Users\CYMR90~1\AppData\Local\Temp\ccsGRYiA.s:21759  .debug_str:0000000000007bb9 .LASF4424
C:\Users\CYMR90~1\AppData\Local\Temp\ccsGRYiA.s:19887  .debug_str:000000000000055c .LASF4425
C:\Users\CYMR90~1\AppData\Local\Temp\ccsGRYiA.s:28960  .debug_str:00000000000249b8 .LASF4426
C:\Users\CYMR90~1\AppData\Local\Temp\ccsGRYiA.s:25886  .debug_str:000000000001863c .LASF4427
C:\Users\CYMR90~1\AppData\Local\Temp\ccsGRYiA.s:23625  .debug_str:000000000000f3de .LASF4428
C:\Users\CYMR90~1\AppData\Local\Temp\ccsGRYiA.s:28564  .debug_str:0000000000022fee .LASF4429
C:\Users\CYMR90~1\AppData\Local\Temp\ccsGRYiA.s:28384  .debug_str:000000000002251e .LASF4430
C:\Users\CYMR90~1\AppData\Local\Temp\ccsGRYiA.s:22811  .debug_str:000000000000c04a .LASF4431
C:\Users\CYMR90~1\AppData\Local\Temp\ccsGRYiA.s:21353  .debug_str:000000000000621c .LASF4432
C:\Users\CYMR90~1\AppData\Local\Temp\ccsGRYiA.s:20983  .debug_str:0000000000004b33 .LASF4433
C:\Users\CYMR90~1\AppData\Local\Temp\ccsGRYiA.s:29298  .debug_str:00000000000260e2 .LASF4434
C:\Users\CYMR90~1\AppData\Local\Temp\ccsGRYiA.s:23213  .debug_str:000000000000da9a .LASF4435
C:\Users\CYMR90~1\AppData\Local\Temp\ccsGRYiA.s:24621  .debug_str:0000000000013576 .LASF4436
C:\Users\CYMR90~1\AppData\Local\Temp\ccsGRYiA.s:21973  .debug_str:0000000000008a43 .LASF4437
C:\Users\CYMR90~1\AppData\Local\Temp\ccsGRYiA.s:25173  .debug_str:0000000000015765 .LASF4438
C:\Users\CYMR90~1\AppData\Local\Temp\ccsGRYiA.s:29090  .debug_str:0000000000025309 .LASF4439
C:\Users\CYMR90~1\AppData\Local\Temp\ccsGRYiA.s:20409  .debug_str:0000000000002578 .LASF4440
C:\Users\CYMR90~1\AppData\Local\Temp\ccsGRYiA.s:25337  .debug_str:000000000001621a .LASF4441
C:\Users\CYMR90~1\AppData\Local\Temp\ccsGRYiA.s:20027  .debug_str:0000000000000e2f .LASF4442
C:\Users\CYMR90~1\AppData\Local\Temp\ccsGRYiA.s:24015  .debug_str:0000000000010d64 .LASF4443
C:\Users\CYMR90~1\AppData\Local\Temp\ccsGRYiA.s:22695  .debug_str:000000000000b84b .LASF4444
C:\Users\CYMR90~1\AppData\Local\Temp\ccsGRYiA.s:27668  .debug_str:000000000001f99b .LASF4445
C:\Users\CYMR90~1\AppData\Local\Temp\ccsGRYiA.s:26658  .debug_str:000000000001b9f0 .LASF4446
C:\Users\CYMR90~1\AppData\Local\Temp\ccsGRYiA.s:24425  .debug_str:000000000001285d .LASF4447
C:\Users\CYMR90~1\AppData\Local\Temp\ccsGRYiA.s:20403  .debug_str:000000000000252b .LASF4448
C:\Users\CYMR90~1\AppData\Local\Temp\ccsGRYiA.s:27054  .debug_str:000000000001d427 .LASF4449
C:\Users\CYMR90~1\AppData\Local\Temp\ccsGRYiA.s:22933  .debug_str:000000000000c859 .LASF4450
C:\Users\CYMR90~1\AppData\Local\Temp\ccsGRYiA.s:20793  .debug_str:0000000000003de1 .LASF4451
C:\Users\CYMR90~1\AppData\Local\Temp\ccsGRYiA.s:26332  .debug_str:000000000001a525 .LASF4452
C:\Users\CYMR90~1\AppData\Local\Temp\ccsGRYiA.s:28534  .debug_str:0000000000022e2b .LASF4453
C:\Users\CYMR90~1\AppData\Local\Temp\ccsGRYiA.s:30076  .debug_str:00000000000292ee .LASF4454
C:\Users\CYMR90~1\AppData\Local\Temp\ccsGRYiA.s:25417  .debug_str:0000000000016740 .LASF4455
C:\Users\CYMR90~1\AppData\Local\Temp\ccsGRYiA.s:26068  .debug_str:0000000000019317 .LASF4456
C:\Users\CYMR90~1\AppData\Local\Temp\ccsGRYiA.s:21155  .debug_str:000000000000559d .LASF4457
C:\Users\CYMR90~1\AppData\Local\Temp\ccsGRYiA.s:24843  .debug_str:000000000001432a .LASF4458
C:\Users\CYMR90~1\AppData\Local\Temp\ccsGRYiA.s:23801  .debug_str:000000000000ff2c .LASF4459
C:\Users\CYMR90~1\AppData\Local\Temp\ccsGRYiA.s:26956  .debug_str:000000000001cceb .LASF4460
C:\Users\CYMR90~1\AppData\Local\Temp\ccsGRYiA.s:28248  .debug_str:0000000000021d29 .LASF4461
C:\Users\CYMR90~1\AppData\Local\Temp\ccsGRYiA.s:23171  .debug_str:000000000000d848 .LASF4462
C:\Users\CYMR90~1\AppData\Local\Temp\ccsGRYiA.s:30554  .debug_str:000000000002af93 .LASF4463
C:\Users\CYMR90~1\AppData\Local\Temp\ccsGRYiA.s:22715  .debug_str:000000000000b9c7 .LASF4464
C:\Users\CYMR90~1\AppData\Local\Temp\ccsGRYiA.s:27852  .debug_str:000000000002051f .LASF4465
C:\Users\CYMR90~1\AppData\Local\Temp\ccsGRYiA.s:25279  .debug_str:0000000000015e04 .LASF4466
C:\Users\CYMR90~1\AppData\Local\Temp\ccsGRYiA.s:28704  .debug_str:0000000000023883 .LASF4467
C:\Users\CYMR90~1\AppData\Local\Temp\ccsGRYiA.s:30524  .debug_str:000000000002add9 .LASF4468
C:\Users\CYMR90~1\AppData\Local\Temp\ccsGRYiA.s:28050  .debug_str:0000000000021080 .LASF4469
C:\Users\CYMR90~1\AppData\Local\Temp\ccsGRYiA.s:28392  .debug_str:000000000002258d .LASF4470
C:\Users\CYMR90~1\AppData\Local\Temp\ccsGRYiA.s:25405  .debug_str:000000000001666e .LASF4471
C:\Users\CYMR90~1\AppData\Local\Temp\ccsGRYiA.s:21577  .debug_str:0000000000006fd9 .LASF4472
C:\Users\CYMR90~1\AppData\Local\Temp\ccsGRYiA.s:29126  .debug_str:00000000000255a0 .LASF4473
C:\Users\CYMR90~1\AppData\Local\Temp\ccsGRYiA.s:26386  .debug_str:000000000001a8fe .LASF4474
C:\Users\CYMR90~1\AppData\Local\Temp\ccsGRYiA.s:20023  .debug_str:0000000000000df1 .LASF4475
C:\Users\CYMR90~1\AppData\Local\Temp\ccsGRYiA.s:28366  .debug_str:00000000000223f1 .LASF4476
C:\Users\CYMR90~1\AppData\Local\Temp\ccsGRYiA.s:30060  .debug_str:00000000000291fa .LASF4477
C:\Users\CYMR90~1\AppData\Local\Temp\ccsGRYiA.s:20491  .debug_str:0000000000002ad7 .LASF4478
C:\Users\CYMR90~1\AppData\Local\Temp\ccsGRYiA.s:23495  .debug_str:000000000000ec40 .LASF4479
C:\Users\CYMR90~1\AppData\Local\Temp\ccsGRYiA.s:30976  .debug_str:000000000002cc11 .LASF4480
C:\Users\CYMR90~1\AppData\Local\Temp\ccsGRYiA.s:20707  .debug_str:00000000000038b0 .LASF4481
C:\Users\CYMR90~1\AppData\Local\Temp\ccsGRYiA.s:20467  .debug_str:000000000000297c .LASF4482
C:\Users\CYMR90~1\AppData\Local\Temp\ccsGRYiA.s:29042  .debug_str:0000000000024ef0 .LASF4483
C:\Users\CYMR90~1\AppData\Local\Temp\ccsGRYiA.s:30026  .debug_str:000000000002901d .LASF4484
C:\Users\CYMR90~1\AppData\Local\Temp\ccsGRYiA.s:24749  .debug_str:0000000000013d4b .LASF4485
C:\Users\CYMR90~1\AppData\Local\Temp\ccsGRYiA.s:21277  .debug_str:0000000000005d10 .LASF4486
C:\Users\CYMR90~1\AppData\Local\Temp\ccsGRYiA.s:20861  .debug_str:00000000000042c8 .LASF4487
C:\Users\CYMR90~1\AppData\Local\Temp\ccsGRYiA.s:28166  .debug_str:0000000000021817 .LASF4488
C:\Users\CYMR90~1\AppData\Local\Temp\ccsGRYiA.s:20715  .debug_str:0000000000003929 .LASF4489
C:\Users\CYMR90~1\AppData\Local\Temp\ccsGRYiA.s:20953  .debug_str:0000000000004973 .LASF4490
C:\Users\CYMR90~1\AppData\Local\Temp\ccsGRYiA.s:27954  .debug_str:0000000000020b15 .LASF4491
C:\Users\CYMR90~1\AppData\Local\Temp\ccsGRYiA.s:29352  .debug_str:0000000000026400 .LASF4492
C:\Users\CYMR90~1\AppData\Local\Temp\ccsGRYiA.s:30512  .debug_str:000000000002ad2f .LASF4493
C:\Users\CYMR90~1\AppData\Local\Temp\ccsGRYiA.s:29272  .debug_str:0000000000025f46 .LASF4494
C:\Users\CYMR90~1\AppData\Local\Temp\ccsGRYiA.s:20171  .debug_str:00000000000016f0 .LASF4495
C:\Users\CYMR90~1\AppData\Local\Temp\ccsGRYiA.s:27282  .debug_str:000000000001e25b .LASF4496
C:\Users\CYMR90~1\AppData\Local\Temp\ccsGRYiA.s:29570  .debug_str:00000000000271f8 .LASF4497
C:\Users\CYMR90~1\AppData\Local\Temp\ccsGRYiA.s:22397  .debug_str:000000000000a4f3 .LASF4498
C:\Users\CYMR90~1\AppData\Local\Temp\ccsGRYiA.s:30860  .debug_str:000000000002c454 .LASF4499
C:\Users\CYMR90~1\AppData\Local\Temp\ccsGRYiA.s:30224  .debug_str:0000000000029c19 .LASF4500
C:\Users\CYMR90~1\AppData\Local\Temp\ccsGRYiA.s:21765  .debug_str:0000000000007c13 .LASF4501
C:\Users\CYMR90~1\AppData\Local\Temp\ccsGRYiA.s:20845  .debug_str:00000000000041ed .LASF4502
C:\Users\CYMR90~1\AppData\Local\Temp\ccsGRYiA.s:29434  .debug_str:0000000000026941 .LASF4503
C:\Users\CYMR90~1\AppData\Local\Temp\ccsGRYiA.s:26840  .debug_str:000000000001c502 .LASF4504
C:\Users\CYMR90~1\AppData\Local\Temp\ccsGRYiA.s:29410  .debug_str:00000000000267d3 .LASF4505
C:\Users\CYMR90~1\AppData\Local\Temp\ccsGRYiA.s:24779  .debug_str:0000000000013ef3 .LASF4506
C:\Users\CYMR90~1\AppData\Local\Temp\ccsGRYiA.s:23697  .debug_str:000000000000f8bb .LASF4507
C:\Users\CYMR90~1\AppData\Local\Temp\ccsGRYiA.s:27384  .debug_str:000000000001e8c4 .LASF4508
C:\Users\CYMR90~1\AppData\Local\Temp\ccsGRYiA.s:21209  .debug_str:000000000000590b .LASF4509
C:\Users\CYMR90~1\AppData\Local\Temp\ccsGRYiA.s:28584  .debug_str:00000000000230f1 .LASF4510
C:\Users\CYMR90~1\AppData\Local\Temp\ccsGRYiA.s:21023  .debug_str:0000000000004dc2 .LASF4511
C:\Users\CYMR90~1\AppData\Local\Temp\ccsGRYiA.s:20371  .debug_str:0000000000002354 .LASF4512
C:\Users\CYMR90~1\AppData\Local\Temp\ccsGRYiA.s:20581  .debug_str:0000000000003048 .LASF4513
C:\Users\CYMR90~1\AppData\Local\Temp\ccsGRYiA.s:29236  .debug_str:0000000000025cef .LASF4514
C:\Users\CYMR90~1\AppData\Local\Temp\ccsGRYiA.s:25181  .debug_str:00000000000157d1 .LASF4515
C:\Users\CYMR90~1\AppData\Local\Temp\ccsGRYiA.s:31012  .debug_str:000000000002ce2f .LASF4516
C:\Users\CYMR90~1\AppData\Local\Temp\ccsGRYiA.s:21229  .debug_str:0000000000005a05 .LASF4517
C:\Users\CYMR90~1\AppData\Local\Temp\ccsGRYiA.s:29822  .debug_str:00000000000282ce .LASF4518
C:\Users\CYMR90~1\AppData\Local\Temp\ccsGRYiA.s:31010  .debug_str:000000000002cdf6 .LASF4519
C:\Users\CYMR90~1\AppData\Local\Temp\ccsGRYiA.s:27220  .debug_str:000000000001de9d .LASF4520
C:\Users\CYMR90~1\AppData\Local\Temp\ccsGRYiA.s:21531  .debug_str:0000000000006cc3 .LASF4521
C:\Users\CYMR90~1\AppData\Local\Temp\ccsGRYiA.s:20997  .debug_str:0000000000004c24 .LASF4522
C:\Users\CYMR90~1\AppData\Local\Temp\ccsGRYiA.s:25522  .debug_str:0000000000017032 .LASF4523
C:\Users\CYMR90~1\AppData\Local\Temp\ccsGRYiA.s:30654  .debug_str:000000000002b67e .LASF4524
C:\Users\CYMR90~1\AppData\Local\Temp\ccsGRYiA.s:24563  .debug_str:0000000000013158 .LASF4525
C:\Users\CYMR90~1\AppData\Local\Temp\ccsGRYiA.s:30284  .debug_str:0000000000029f91 .LASF4526
C:\Users\CYMR90~1\AppData\Local\Temp\ccsGRYiA.s:29384  .debug_str:000000000002661d .LASF4527
C:\Users\CYMR90~1\AppData\Local\Temp\ccsGRYiA.s:29594  .debug_str:000000000002735b .LASF4528
C:\Users\CYMR90~1\AppData\Local\Temp\ccsGRYiA.s:30120  .debug_str:00000000000295f4 .LASF4529
C:\Users\CYMR90~1\AppData\Local\Temp\ccsGRYiA.s:26750  .debug_str:000000000001bfbc .LASF4530
C:\Users\CYMR90~1\AppData\Local\Temp\ccsGRYiA.s:26218  .debug_str:0000000000019cc5 .LASF4531
C:\Users\CYMR90~1\AppData\Local\Temp\ccsGRYiA.s:21823  .debug_str:00000000000080dd .LASF4532
C:\Users\CYMR90~1\AppData\Local\Temp\ccsGRYiA.s:26922  .debug_str:000000000001cacc .LASF4533
C:\Users\CYMR90~1\AppData\Local\Temp\ccsGRYiA.s:26520  .debug_str:000000000001b18b .LASF4534
C:\Users\CYMR90~1\AppData\Local\Temp\ccsGRYiA.s:28436  .debug_str:000000000002282b .LASF4535
C:\Users\CYMR90~1\AppData\Local\Temp\ccsGRYiA.s:29338  .debug_str:000000000002630f .LASF4536
C:\Users\CYMR90~1\AppData\Local\Temp\ccsGRYiA.s:20283  .debug_str:0000000000001e6c .LASF4537
C:\Users\CYMR90~1\AppData\Local\Temp\ccsGRYiA.s:25353  .debug_str:00000000000162e9 .LASF4538
C:\Users\CYMR90~1\AppData\Local\Temp\ccsGRYiA.s:20593  .debug_str:0000000000003143 .LASF4539
C:\Users\CYMR90~1\AppData\Local\Temp\ccsGRYiA.s:27684  .debug_str:000000000001fa99 .LASF4540
C:\Users\CYMR90~1\AppData\Local\Temp\ccsGRYiA.s:27392  .debug_str:000000000001e929 .LASF4541
C:\Users\CYMR90~1\AppData\Local\Temp\ccsGRYiA.s:20079  .debug_str:00000000000011c9 .LASF4542
C:\Users\CYMR90~1\AppData\Local\Temp\ccsGRYiA.s:29070  .debug_str:000000000002511f .LASF4543
C:\Users\CYMR90~1\AppData\Local\Temp\ccsGRYiA.s:21933  .debug_str:0000000000008798 .LASF4544
C:\Users\CYMR90~1\AppData\Local\Temp\ccsGRYiA.s:27024  .debug_str:000000000001d276 .LASF4545
C:\Users\CYMR90~1\AppData\Local\Temp\ccsGRYiA.s:27044  .debug_str:000000000001d390 .LASF4546
C:\Users\CYMR90~1\AppData\Local\Temp\ccsGRYiA.s:27996  .debug_str:0000000000020da2 .LASF4547
C:\Users\CYMR90~1\AppData\Local\Temp\ccsGRYiA.s:26460  .debug_str:000000000001ad74 .LASF4548
C:\Users\CYMR90~1\AppData\Local\Temp\ccsGRYiA.s:21247  .debug_str:0000000000005b46 .LASF4549
C:\Users\CYMR90~1\AppData\Local\Temp\ccsGRYiA.s:29784  .debug_str:0000000000027fde .LASF4550
C:\Users\CYMR90~1\AppData\Local\Temp\ccsGRYiA.s:28710  .debug_str:00000000000238ff .LASF4551
C:\Users\CYMR90~1\AppData\Local\Temp\ccsGRYiA.s:25073  .debug_str:00000000000151af .LASF4552
C:\Users\CYMR90~1\AppData\Local\Temp\ccsGRYiA.s:30968  .debug_str:000000000002cb85 .LASF4553
C:\Users\CYMR90~1\AppData\Local\Temp\ccsGRYiA.s:20557  .debug_str:0000000000002ed9 .LASF4554
C:\Users\CYMR90~1\AppData\Local\Temp\ccsGRYiA.s:19823  .debug_str:00000000000001c8 .LASF4555
C:\Users\CYMR90~1\AppData\Local\Temp\ccsGRYiA.s:26170  .debug_str:00000000000199bc .LASF4556
C:\Users\CYMR90~1\AppData\Local\Temp\ccsGRYiA.s:23963  .debug_str:0000000000010997 .LASF4557
C:\Users\CYMR90~1\AppData\Local\Temp\ccsGRYiA.s:20859  .debug_str:00000000000042b0 .LASF4558
C:\Users\CYMR90~1\AppData\Local\Temp\ccsGRYiA.s:22877  .debug_str:000000000000c44e .LASF4559
C:\Users\CYMR90~1\AppData\Local\Temp\ccsGRYiA.s:29396  .debug_str:0000000000026702 .LASF4560
C:\Users\CYMR90~1\AppData\Local\Temp\ccsGRYiA.s:19847  .debug_str:0000000000000342 .LASF4561
C:\Users\CYMR90~1\AppData\Local\Temp\ccsGRYiA.s:29914  .debug_str:0000000000028912 .LASF4562
C:\Users\CYMR90~1\AppData\Local\Temp\ccsGRYiA.s:30042  .debug_str:000000000002910b .LASF4563
C:\Users\CYMR90~1\AppData\Local\Temp\ccsGRYiA.s:20889  .debug_str:00000000000044ba .LASF4564
C:\Users\CYMR90~1\AppData\Local\Temp\ccsGRYiA.s:22541  .debug_str:000000000000adbb .LASF4565
C:\Users\CYMR90~1\AppData\Local\Temp\ccsGRYiA.s:19867  .debug_str:0000000000000453 .LASF4566
C:\Users\CYMR90~1\AppData\Local\Temp\ccsGRYiA.s:27372  .debug_str:000000000001e802 .LASF4567
C:\Users\CYMR90~1\AppData\Local\Temp\ccsGRYiA.s:25532  .debug_str:00000000000170db .LASF4568
C:\Users\CYMR90~1\AppData\Local\Temp\ccsGRYiA.s:20421  .debug_str:0000000000002654 .LASF4569
C:\Users\CYMR90~1\AppData\Local\Temp\ccsGRYiA.s:29500  .debug_str:0000000000026d35 .LASF4570
C:\Users\CYMR90~1\AppData\Local\Temp\ccsGRYiA.s:30816  .debug_str:000000000002c17e .LASF4571
C:\Users\CYMR90~1\AppData\Local\Temp\ccsGRYiA.s:27818  .debug_str:0000000000020287 .LASF4572
C:\Users\CYMR90~1\AppData\Local\Temp\ccsGRYiA.s:22873  .debug_str:000000000000c404 .LASF4573
C:\Users\CYMR90~1\AppData\Local\Temp\ccsGRYiA.s:28444  .debug_str:000000000002289a .LASF4574
C:\Users\CYMR90~1\AppData\Local\Temp\ccsGRYiA.s:22777  .debug_str:000000000000bdfc .LASF4575
C:\Users\CYMR90~1\AppData\Local\Temp\ccsGRYiA.s:28434  .debug_str:000000000002280d .LASF4576
C:\Users\CYMR90~1\AppData\Local\Temp\ccsGRYiA.s:29940  .debug_str:0000000000028a8c .LASF4577
C:\Users\CYMR90~1\AppData\Local\Temp\ccsGRYiA.s:21293  .debug_str:0000000000005e07 .LASF4578
C:\Users\CYMR90~1\AppData\Local\Temp\ccsGRYiA.s:24079  .debug_str:00000000000110b6 .LASF4579
C:\Users\CYMR90~1\AppData\Local\Temp\ccsGRYiA.s:23259  .debug_str:000000000000dd4f .LASF4580
C:\Users\CYMR90~1\AppData\Local\Temp\ccsGRYiA.s:20943  .debug_str:00000000000048d9 .LASF4581
C:\Users\CYMR90~1\AppData\Local\Temp\ccsGRYiA.s:22219  .debug_str:0000000000009976 .LASF4582
C:\Users\CYMR90~1\AppData\Local\Temp\ccsGRYiA.s:24741  .debug_str:0000000000013cbe .LASF4583
C:\Users\CYMR90~1\AppData\Local\Temp\ccsGRYiA.s:20761  .debug_str:0000000000003bfd .LASF4584
C:\Users\CYMR90~1\AppData\Local\Temp\ccsGRYiA.s:21525  .debug_str:0000000000006c54 .LASF4585
C:\Users\CYMR90~1\AppData\Local\Temp\ccsGRYiA.s:19799  .debug_str:000000000000002e .LASF4586
C:\Users\CYMR90~1\AppData\Local\Temp\ccsGRYiA.s:24063  .debug_str:0000000000010fc7 .LASF4587
C:\Users\CYMR90~1\AppData\Local\Temp\ccsGRYiA.s:26418  .debug_str:000000000001aade .LASF4588
C:\Users\CYMR90~1\AppData\Local\Temp\ccsGRYiA.s:25481  .debug_str:0000000000016c0b .LASF4589
C:\Users\CYMR90~1\AppData\Local\Temp\ccsGRYiA.s:30756  .debug_str:000000000002bd5b .LASF4590
C:\Users\CYMR90~1\AppData\Local\Temp\ccsGRYiA.s:28942  .debug_str:00000000000248b8 .LASF4591
C:\Users\CYMR90~1\AppData\Local\Temp\ccsGRYiA.s:23361  .debug_str:000000000000e35a .LASF4592
C:\Users\CYMR90~1\AppData\Local\Temp\ccsGRYiA.s:27492  .debug_str:000000000001eede .LASF4593
C:\Users\CYMR90~1\AppData\Local\Temp\ccsGRYiA.s:25005  .debug_str:0000000000014d11 .LASF4594
C:\Users\CYMR90~1\AppData\Local\Temp\ccsGRYiA.s:30110  .debug_str:0000000000029539 .LASF4595
C:\Users\CYMR90~1\AppData\Local\Temp\ccsGRYiA.s:26024  .debug_str:0000000000018f75 .LASF4596
C:\Users\CYMR90~1\AppData\Local\Temp\ccsGRYiA.s:24591  .debug_str:000000000001331f .LASF4597
C:\Users\CYMR90~1\AppData\Local\Temp\ccsGRYiA.s:20415  .debug_str:00000000000025be .LASF4598
C:\Users\CYMR90~1\AppData\Local\Temp\ccsGRYiA.s:27474  .debug_str:000000000001edbb .LASF4599
C:\Users\CYMR90~1\AppData\Local\Temp\ccsGRYiA.s:22391  .debug_str:000000000000a466 .LASF4600
C:\Users\CYMR90~1\AppData\Local\Temp\ccsGRYiA.s:19925  .debug_str:00000000000007dd .LASF4601
C:\Users\CYMR90~1\AppData\Local\Temp\ccsGRYiA.s:26434  .debug_str:000000000001abdd .LASF4602
C:\Users\CYMR90~1\AppData\Local\Temp\ccsGRYiA.s:28890  .debug_str:00000000000244eb .LASF4603
C:\Users\CYMR90~1\AppData\Local\Temp\ccsGRYiA.s:25149  .debug_str:00000000000155f1 .LASF4604
C:\Users\CYMR90~1\AppData\Local\Temp\ccsGRYiA.s:26088  .debug_str:0000000000019424 .LASF4605
C:\Users\CYMR90~1\AppData\Local\Temp\ccsGRYiA.s:22769  .debug_str:000000000000bd74 .LASF4606
C:\Users\CYMR90~1\AppData\Local\Temp\ccsGRYiA.s:26148  .debug_str:00000000000197f1 .LASF4607
C:\Users\CYMR90~1\AppData\Local\Temp\ccsGRYiA.s:28052  .debug_str:0000000000021098 .LASF4608
C:\Users\CYMR90~1\AppData\Local\Temp\ccsGRYiA.s:26172  .debug_str:00000000000199f7 .LASF4609
C:\Users\CYMR90~1\AppData\Local\Temp\ccsGRYiA.s:20841  .debug_str:00000000000041a4 .LASF4610
C:\Users\CYMR90~1\AppData\Local\Temp\ccsGRYiA.s:22439  .debug_str:000000000000a728 .LASF4611
C:\Users\CYMR90~1\AppData\Local\Temp\ccsGRYiA.s:23127  .debug_str:000000000000d5b9 .LASF4612
C:\Users\CYMR90~1\AppData\Local\Temp\ccsGRYiA.s:27888  .debug_str:000000000002072c .LASF4613
C:\Users\CYMR90~1\AppData\Local\Temp\ccsGRYiA.s:27486  .debug_str:000000000001ee75 .LASF4614
C:\Users\CYMR90~1\AppData\Local\Temp\ccsGRYiA.s:23257  .debug_str:000000000000dd13 .LASF4615
C:\Users\CYMR90~1\AppData\Local\Temp\ccsGRYiA.s:26540  .debug_str:000000000001b2f7 .LASF4616
C:\Users\CYMR90~1\AppData\Local\Temp\ccsGRYiA.s:30332  .debug_str:000000000002a258 .LASF4617
C:\Users\CYMR90~1\AppData\Local\Temp\ccsGRYiA.s:23983  .debug_str:0000000000010af2 .LASF4618
C:\Users\CYMR90~1\AppData\Local\Temp\ccsGRYiA.s:24705  .debug_str:0000000000013a9a .LASF4619
C:\Users\CYMR90~1\AppData\Local\Temp\ccsGRYiA.s:28332  .debug_str:0000000000022233 .LASF4620
C:\Users\CYMR90~1\AppData\Local\Temp\ccsGRYiA.s:30434  .debug_str:000000000002a881 .LASF4621
C:\Users\CYMR90~1\AppData\Local\Temp\ccsGRYiA.s:23771  .debug_str:000000000000fd1e .LASF4622
C:\Users\CYMR90~1\AppData\Local\Temp\ccsGRYiA.s:28396  .debug_str:00000000000225cb .LASF4623
C:\Users\CYMR90~1\AppData\Local\Temp\ccsGRYiA.s:30670  .debug_str:000000000002b765 .LASF4624
C:\Users\CYMR90~1\AppData\Local\Temp\ccsGRYiA.s:28894  .debug_str:0000000000024526 .LASF4625
C:\Users\CYMR90~1\AppData\Local\Temp\ccsGRYiA.s:25421  .debug_str:000000000001677d .LASF4626
C:\Users\CYMR90~1\AppData\Local\Temp\ccsGRYiA.s:26888  .debug_str:000000000001c896 .LASF4627
C:\Users\CYMR90~1\AppData\Local\Temp\ccsGRYiA.s:26198  .debug_str:0000000000019b97 .LASF4628
C:\Users\CYMR90~1\AppData\Local\Temp\ccsGRYiA.s:23905  .debug_str:0000000000010583 .LASF4629
C:\Users\CYMR90~1\AppData\Local\Temp\ccsGRYiA.s:24333  .debug_str:000000000001225f .LASF4630
C:\Users\CYMR90~1\AppData\Local\Temp\ccsGRYiA.s:20649  .debug_str:000000000000350b .LASF4631
C:\Users\CYMR90~1\AppData\Local\Temp\ccsGRYiA.s:21517  .debug_str:0000000000006be8 .LASF4632
C:\Users\CYMR90~1\AppData\Local\Temp\ccsGRYiA.s:24389  .debug_str:0000000000012608 .LASF4633
C:\Users\CYMR90~1\AppData\Local\Temp\ccsGRYiA.s:30476  .debug_str:000000000002ab0d .LASF4634
C:\Users\CYMR90~1\AppData\Local\Temp\ccsGRYiA.s:23381  .debug_str:000000000000e4a5 .LASF4635
C:\Users\CYMR90~1\AppData\Local\Temp\ccsGRYiA.s:26296  .debug_str:000000000001a158 .LASF4636
C:\Users\CYMR90~1\AppData\Local\Temp\ccsGRYiA.s:20011  .debug_str:0000000000000d51 .LASF4637
C:\Users\CYMR90~1\AppData\Local\Temp\ccsGRYiA.s:29710  .debug_str:0000000000027aa6 .LASF4638
C:\Users\CYMR90~1\AppData\Local\Temp\ccsGRYiA.s:30926  .debug_str:000000000002c8b5 .LASF4639
C:\Users\CYMR90~1\AppData\Local\Temp\ccsGRYiA.s:23157  .debug_str:000000000000d76b .LASF4640
C:\Users\CYMR90~1\AppData\Local\Temp\ccsGRYiA.s:25822  .debug_str:000000000001827d .LASF4641
C:\Users\CYMR90~1\AppData\Local\Temp\ccsGRYiA.s:20161  .debug_str:000000000000165a .LASF4642
C:\Users\CYMR90~1\AppData\Local\Temp\ccsGRYiA.s:28768  .debug_str:0000000000023c2e .LASF4643
C:\Users\CYMR90~1\AppData\Local\Temp\ccsGRYiA.s:25291  .debug_str:0000000000015eed .LASF4644
C:\Users\CYMR90~1\AppData\Local\Temp\ccsGRYiA.s:30398  .debug_str:000000000002a68f .LASF4645
C:\Users\CYMR90~1\AppData\Local\Temp\ccsGRYiA.s:29368  .debug_str:000000000002650b .LASF4646
C:\Users\CYMR90~1\AppData\Local\Temp\ccsGRYiA.s:30402  .debug_str:000000000002a6c3 .LASF4647
C:\Users\CYMR90~1\AppData\Local\Temp\ccsGRYiA.s:26828  .debug_str:000000000001c457 .LASF4648
C:\Users\CYMR90~1\AppData\Local\Temp\ccsGRYiA.s:20107  .debug_str:0000000000001330 .LASF4649
C:\Users\CYMR90~1\AppData\Local\Temp\ccsGRYiA.s:29144  .debug_str:00000000000256c4 .LASF4650
C:\Users\CYMR90~1\AppData\Local\Temp\ccsGRYiA.s:26734  .debug_str:000000000001beaf .LASF4651
C:\Users\CYMR90~1\AppData\Local\Temp\ccsGRYiA.s:21285  .debug_str:0000000000005d84 .LASF4652
C:\Users\CYMR90~1\AppData\Local\Temp\ccsGRYiA.s:23387  .debug_str:000000000000e4f3 .LASF4653
C:\Users\CYMR90~1\AppData\Local\Temp\ccsGRYiA.s:27828  .debug_str:000000000002031d .LASF4654
C:\Users\CYMR90~1\AppData\Local\Temp\ccsGRYiA.s:24523  .debug_str:0000000000012ebb .LASF4655
C:\Users\CYMR90~1\AppData\Local\Temp\ccsGRYiA.s:29512  .debug_str:0000000000026e07 .LASF4656
C:\Users\CYMR90~1\AppData\Local\Temp\ccsGRYiA.s:25059  .debug_str:00000000000150da .LASF4657
C:\Users\CYMR90~1\AppData\Local\Temp\ccsGRYiA.s:24811  .debug_str:00000000000140e1 .LASF4658
C:\Users\CYMR90~1\AppData\Local\Temp\ccsGRYiA.s:23893  .debug_str:00000000000104d9 .LASF4659
C:\Users\CYMR90~1\AppData\Local\Temp\ccsGRYiA.s:27696  .debug_str:000000000001fb5f .LASF4660
C:\Users\CYMR90~1\AppData\Local\Temp\ccsGRYiA.s:23485  .debug_str:000000000000eb9a .LASF4661
C:\Users\CYMR90~1\AppData\Local\Temp\ccsGRYiA.s:21195  .debug_str:000000000000581a .LASF4662
C:\Users\CYMR90~1\AppData\Local\Temp\ccsGRYiA.s:30242  .debug_str:0000000000029d0e .LASF4663
C:\Users\CYMR90~1\AppData\Local\Temp\ccsGRYiA.s:28008  .debug_str:0000000000020e44 .LASF4664
C:\Users\CYMR90~1\AppData\Local\Temp\ccsGRYiA.s:30750  .debug_str:000000000002bd0f .LASF4665
C:\Users\CYMR90~1\AppData\Local\Temp\ccsGRYiA.s:23689  .debug_str:000000000000f846 .LASF4666
C:\Users\CYMR90~1\AppData\Local\Temp\ccsGRYiA.s:22109  .debug_str:0000000000009283 .LASF4667
C:\Users\CYMR90~1\AppData\Local\Temp\ccsGRYiA.s:30432  .debug_str:000000000002a85f .LASF4668
C:\Users\CYMR90~1\AppData\Local\Temp\ccsGRYiA.s:28646  .debug_str:00000000000234c6 .LASF4669
C:\Users\CYMR90~1\AppData\Local\Temp\ccsGRYiA.s:29912  .debug_str:00000000000288ee .LASF4670
C:\Users\CYMR90~1\AppData\Local\Temp\ccsGRYiA.s:21507  .debug_str:0000000000006b4a .LASF4671
C:\Users\CYMR90~1\AppData\Local\Temp\ccsGRYiA.s:28250  .debug_str:0000000000021d42 .LASF4672
C:\Users\CYMR90~1\AppData\Local\Temp\ccsGRYiA.s:30072  .debug_str:00000000000292a4 .LASF4673
C:\Users\CYMR90~1\AppData\Local\Temp\ccsGRYiA.s:29808  .debug_str:00000000000281f0 .LASF4674
C:\Users\CYMR90~1\AppData\Local\Temp\ccsGRYiA.s:29108  .debug_str:0000000000025430 .LASF4675
C:\Users\CYMR90~1\AppData\Local\Temp\ccsGRYiA.s:25121  .debug_str:0000000000015480 .LASF4676
C:\Users\CYMR90~1\AppData\Local\Temp\ccsGRYiA.s:22279  .debug_str:0000000000009d43 .LASF4677
C:\Users\CYMR90~1\AppData\Local\Temp\ccsGRYiA.s:23691  .debug_str:000000000000f868 .LASF4678
C:\Users\CYMR90~1\AppData\Local\Temp\ccsGRYiA.s:20375  .debug_str:0000000000002387 .LASF4679
C:\Users\CYMR90~1\AppData\Local\Temp\ccsGRYiA.s:22423  .debug_str:000000000000a64f .LASF4680
C:\Users\CYMR90~1\AppData\Local\Temp\ccsGRYiA.s:27340  .debug_str:000000000001e5dc .LASF4681
C:\Users\CYMR90~1\AppData\Local\Temp\ccsGRYiA.s:25598  .debug_str:00000000000174a4 .LASF4682
C:\Users\CYMR90~1\AppData\Local\Temp\ccsGRYiA.s:23077  .debug_str:000000000000d223 .LASF4683
C:\Users\CYMR90~1\AppData\Local\Temp\ccsGRYiA.s:30804  .debug_str:000000000002c06a .LASF4684
C:\Users\CYMR90~1\AppData\Local\Temp\ccsGRYiA.s:25439  .debug_str:0000000000016885 .LASF4685
C:\Users\CYMR90~1\AppData\Local\Temp\ccsGRYiA.s:30464  .debug_str:000000000002aa4f .LASF4686
C:\Users\CYMR90~1\AppData\Local\Temp\ccsGRYiA.s:20585  .debug_str:00000000000030c5 .LASF4687
C:\Users\CYMR90~1\AppData\Local\Temp\ccsGRYiA.s:20115  .debug_str:00000000000013cf .LASF4688
C:\Users\CYMR90~1\AppData\Local\Temp\ccsGRYiA.s:25449  .debug_str:000000000001698b .LASF4689
C:\Users\CYMR90~1\AppData\Local\Temp\ccsGRYiA.s:22001  .debug_str:0000000000008bfe .LASF4690
C:\Users\CYMR90~1\AppData\Local\Temp\ccsGRYiA.s:29588  .debug_str:0000000000027310 .LASF4691
C:\Users\CYMR90~1\AppData\Local\Temp\ccsGRYiA.s:28538  .debug_str:0000000000022e76 .LASF4692
C:\Users\CYMR90~1\AppData\Local\Temp\ccsGRYiA.s:20349  .debug_str:00000000000021fb .LASF4693
C:\Users\CYMR90~1\AppData\Local\Temp\ccsGRYiA.s:21467  .debug_str:00000000000068e1 .LASF4694
C:\Users\CYMR90~1\AppData\Local\Temp\ccsGRYiA.s:29730  .debug_str:0000000000027c1a .LASF4695
C:\Users\CYMR90~1\AppData\Local\Temp\ccsGRYiA.s:27274  .debug_str:000000000001e1fa .LASF4696
C:\Users\CYMR90~1\AppData\Local\Temp\ccsGRYiA.s:21829  .debug_str:0000000000008134 .LASF4697
C:\Users\CYMR90~1\AppData\Local\Temp\ccsGRYiA.s:29646  .debug_str:000000000002764b .LASF4698
C:\Users\CYMR90~1\AppData\Local\Temp\ccsGRYiA.s:23551  .debug_str:000000000000ef3c .LASF4699
C:\Users\CYMR90~1\AppData\Local\Temp\ccsGRYiA.s:26962  .debug_str:000000000001cd4e .LASF4700
C:\Users\CYMR90~1\AppData\Local\Temp\ccsGRYiA.s:27096  .debug_str:000000000001d6ef .LASF4701
C:\Users\CYMR90~1\AppData\Local\Temp\ccsGRYiA.s:20333  .debug_str:0000000000002126 .LASF4702
C:\Users\CYMR90~1\AppData\Local\Temp\ccsGRYiA.s:23717  .debug_str:000000000000f9c1 .LASF4703
C:\Users\CYMR90~1\AppData\Local\Temp\ccsGRYiA.s:30222  .debug_str:0000000000029bfa .LASF4704
C:\Users\CYMR90~1\AppData\Local\Temp\ccsGRYiA.s:23527  .debug_str:000000000000edcd .LASF4705
C:\Users\CYMR90~1\AppData\Local\Temp\ccsGRYiA.s:26880  .debug_str:000000000001c780 .LASF4706
C:\Users\CYMR90~1\AppData\Local\Temp\ccsGRYiA.s:22603  .debug_str:000000000000b22d .LASF4707
C:\Users\CYMR90~1\AppData\Local\Temp\ccsGRYiA.s:25748  .debug_str:0000000000017df9 .LASF4708
C:\Users\CYMR90~1\AppData\Local\Temp\ccsGRYiA.s:23933  .debug_str:00000000000107cb .LASF4709
C:\Users\CYMR90~1\AppData\Local\Temp\ccsGRYiA.s:20419  .debug_str:0000000000002632 .LASF4710
C:\Users\CYMR90~1\AppData\Local\Temp\ccsGRYiA.s:28524  .debug_str:0000000000022da5 .LASF4711
C:\Users\CYMR90~1\AppData\Local\Temp\ccsGRYiA.s:20145  .debug_str:000000000000155b .LASF4712
C:\Users\CYMR90~1\AppData\Local\Temp\ccsGRYiA.s:19979  .debug_str:0000000000000b92 .LASF4713
C:\Users\CYMR90~1\AppData\Local\Temp\ccsGRYiA.s:21047  .debug_str:0000000000004f14 .LASF4714
C:\Users\CYMR90~1\AppData\Local\Temp\ccsGRYiA.s:21687  .debug_str:00000000000076f2 .LASF4715
C:\Users\CYMR90~1\AppData\Local\Temp\ccsGRYiA.s:29322  .debug_str:000000000002622c .LASF4716
C:\Users\CYMR90~1\AppData\Local\Temp\ccsGRYiA.s:20337  .debug_str:000000000000215b .LASF4717
C:\Users\CYMR90~1\AppData\Local\Temp\ccsGRYiA.s:28068  .debug_str:000000000002119f .LASF4718
C:\Users\CYMR90~1\AppData\Local\Temp\ccsGRYiA.s:22677  .debug_str:000000000000b747 .LASF4719
C:\Users\CYMR90~1\AppData\Local\Temp\ccsGRYiA.s:27180  .debug_str:000000000001dc20 .LASF4720
C:\Users\CYMR90~1\AppData\Local\Temp\ccsGRYiA.s:22039  .debug_str:0000000000008e85 .LASF4721
C:\Users\CYMR90~1\AppData\Local\Temp\ccsGRYiA.s:27682  .debug_str:000000000001fa83 .LASF4722
C:\Users\CYMR90~1\AppData\Local\Temp\ccsGRYiA.s:28308  .debug_str:00000000000220b1 .LASF4723
C:\Users\CYMR90~1\AppData\Local\Temp\ccsGRYiA.s:25890  .debug_str:0000000000018678 .LASF4724
C:\Users\CYMR90~1\AppData\Local\Temp\ccsGRYiA.s:28400  .debug_str:0000000000022624 .LASF4725
C:\Users\CYMR90~1\AppData\Local\Temp\ccsGRYiA.s:25371  .debug_str:0000000000016421 .LASF4726
C:\Users\CYMR90~1\AppData\Local\Temp\ccsGRYiA.s:25275  .debug_str:0000000000015dcb .LASF4727
C:\Users\CYMR90~1\AppData\Local\Temp\ccsGRYiA.s:24861  .debug_str:0000000000014433 .LASF4728
C:\Users\CYMR90~1\AppData\Local\Temp\ccsGRYiA.s:21793  .debug_str:0000000000007e4f .LASF4729
C:\Users\CYMR90~1\AppData\Local\Temp\ccsGRYiA.s:24099  .debug_str:00000000000111fd .LASF4730
C:\Users\CYMR90~1\AppData\Local\Temp\ccsGRYiA.s:27140  .debug_str:000000000001d9f8 .LASF4731
C:\Users\CYMR90~1\AppData\Local\Temp\ccsGRYiA.s:30986  .debug_str:000000000002ccad .LASF4732
C:\Users\CYMR90~1\AppData\Local\Temp\ccsGRYiA.s:23371  .debug_str:000000000000e3fd .LASF4733
C:\Users\CYMR90~1\AppData\Local\Temp\ccsGRYiA.s:25850  .debug_str:000000000001841c .LASF4734
C:\Users\CYMR90~1\AppData\Local\Temp\ccsGRYiA.s:20199  .debug_str:0000000000001968 .LASF4735
C:\Users\CYMR90~1\AppData\Local\Temp\ccsGRYiA.s:20827  .debug_str:0000000000004045 .LASF4736
C:\Users\CYMR90~1\AppData\Local\Temp\ccsGRYiA.s:20831  .debug_str:0000000000004115 .LASF4737
C:\Users\CYMR90~1\AppData\Local\Temp\ccsGRYiA.s:24013  .debug_str:0000000000010d50 .LASF4738
C:\Users\CYMR90~1\AppData\Local\Temp\ccsGRYiA.s:28790  .debug_str:0000000000023da5 .LASF4739
C:\Users\CYMR90~1\AppData\Local\Temp\ccsGRYiA.s:22703  .debug_str:000000000000b935 .LASF4740
C:\Users\CYMR90~1\AppData\Local\Temp\ccsGRYiA.s:22419  .debug_str:000000000000a611 .LASF4741
C:\Users\CYMR90~1\AppData\Local\Temp\ccsGRYiA.s:27946  .debug_str:0000000000020aa4 .LASF4742
C:\Users\CYMR90~1\AppData\Local\Temp\ccsGRYiA.s:21769  .debug_str:0000000000007c43 .LASF4743
C:\Users\CYMR90~1\AppData\Local\Temp\ccsGRYiA.s:29202  .debug_str:0000000000025adb .LASF4744
C:\Users\CYMR90~1\AppData\Local\Temp\ccsGRYiA.s:28854  .debug_str:0000000000024274 .LASF4745
C:\Users\CYMR90~1\AppData\Local\Temp\ccsGRYiA.s:28608  .debug_str:0000000000023268 .LASF4746
C:\Users\CYMR90~1\AppData\Local\Temp\ccsGRYiA.s:25155  .debug_str:0000000000015649 .LASF4747
C:\Users\CYMR90~1\AppData\Local\Temp\ccsGRYiA.s:30602  .debug_str:000000000002b2e4 .LASF4748
C:\Users\CYMR90~1\AppData\Local\Temp\ccsGRYiA.s:28900  .debug_str:000000000002459e .LASF4749
C:\Users\CYMR90~1\AppData\Local\Temp\ccsGRYiA.s:26136  .debug_str:0000000000019706 .LASF4750
C:\Users\CYMR90~1\AppData\Local\Temp\ccsGRYiA.s:27162  .debug_str:000000000001db32 .LASF4751
C:\Users\CYMR90~1\AppData\Local\Temp\ccsGRYiA.s:25357  .debug_str:0000000000016335 .LASF4752
C:\Users\CYMR90~1\AppData\Local\Temp\ccsGRYiA.s:22049  .debug_str:0000000000008f1f .LASF4753
C:\Users\CYMR90~1\AppData\Local\Temp\ccsGRYiA.s:26140  .debug_str:000000000001974e .LASF4754
C:\Users\CYMR90~1\AppData\Local\Temp\ccsGRYiA.s:25938  .debug_str:0000000000018980 .LASF4755
C:\Users\CYMR90~1\AppData\Local\Temp\ccsGRYiA.s:25606  .debug_str:0000000000017500 .LASF4756
C:\Users\CYMR90~1\AppData\Local\Temp\ccsGRYiA.s:25385  .debug_str:00000000000164cc .LASF4757
C:\Users\CYMR90~1\AppData\Local\Temp\ccsGRYiA.s:20777  .debug_str:0000000000003d2a .LASF4758
C:\Users\CYMR90~1\AppData\Local\Temp\ccsGRYiA.s:29610  .debug_str:000000000002743e .LASF4759
C:\Users\CYMR90~1\AppData\Local\Temp\ccsGRYiA.s:23343  .debug_str:000000000000e25a .LASF4760
C:\Users\CYMR90~1\AppData\Local\Temp\ccsGRYiA.s:20819  .debug_str:0000000000003fc2 .LASF4761
C:\Users\CYMR90~1\AppData\Local\Temp\ccsGRYiA.s:24995  .debug_str:0000000000014c63 .LASF4762
C:\Users\CYMR90~1\AppData\Local\Temp\ccsGRYiA.s:23337  .debug_str:000000000000e214 .LASF4763
C:\Users\CYMR90~1\AppData\Local\Temp\ccsGRYiA.s:20359  .debug_str:00000000000022ac .LASF4764
C:\Users\CYMR90~1\AppData\Local\Temp\ccsGRYiA.s:30440  .debug_str:000000000002a8e5 .LASF4765
C:\Users\CYMR90~1\AppData\Local\Temp\ccsGRYiA.s:21951  .debug_str:00000000000088d2 .LASF4766
C:\Users\CYMR90~1\AppData\Local\Temp\ccsGRYiA.s:20541  .debug_str:0000000000002df0 .LASF4767
C:\Users\CYMR90~1\AppData\Local\Temp\ccsGRYiA.s:29696  .debug_str:00000000000279bb .LASF4768
C:\Users\CYMR90~1\AppData\Local\Temp\ccsGRYiA.s:30180  .debug_str:000000000002994d .LASF4769
C:\Users\CYMR90~1\AppData\Local\Temp\ccsGRYiA.s:26260  .debug_str:0000000000019f2e .LASF4770
C:\Users\CYMR90~1\AppData\Local\Temp\ccsGRYiA.s:26298  .debug_str:000000000001a16f .LASF4771
C:\Users\CYMR90~1\AppData\Local\Temp\ccsGRYiA.s:29148  .debug_str:0000000000025712 .LASF4772
C:\Users\CYMR90~1\AppData\Local\Temp\ccsGRYiA.s:25093  .debug_str:0000000000015306 .LASF4773
C:\Users\CYMR90~1\AppData\Local\Temp\ccsGRYiA.s:30958  .debug_str:000000000002ca77 .LASF4774
C:\Users\CYMR90~1\AppData\Local\Temp\ccsGRYiA.s:29862  .debug_str:00000000000285ad .LASF4775
C:\Users\CYMR90~1\AppData\Local\Temp\ccsGRYiA.s:28618  .debug_str:00000000000232ee .LASF4776
C:\Users\CYMR90~1\AppData\Local\Temp\ccsGRYiA.s:27438  .debug_str:000000000001eba4 .LASF4777
C:\Users\CYMR90~1\AppData\Local\Temp\ccsGRYiA.s:23907  .debug_str:00000000000105c1 .LASF4778
C:\Users\CYMR90~1\AppData\Local\Temp\ccsGRYiA.s:30846  .debug_str:000000000002c394 .LASF4779
C:\Users\CYMR90~1\AppData\Local\Temp\ccsGRYiA.s:29028  .debug_str:0000000000024e2c .LASF4780
C:\Users\CYMR90~1\AppData\Local\Temp\ccsGRYiA.s:28938  .debug_str:00000000000247db .LASF4781
C:\Users\CYMR90~1\AppData\Local\Temp\ccsGRYiA.s:21559  .debug_str:0000000000006ea0 .LASF4782
C:\Users\CYMR90~1\AppData\Local\Temp\ccsGRYiA.s:25409  .debug_str:000000000001669d .LASF4783
C:\Users\CYMR90~1\AppData\Local\Temp\ccsGRYiA.s:29674  .debug_str:0000000000027813 .LASF4784
C:\Users\CYMR90~1\AppData\Local\Temp\ccsGRYiA.s:26944  .debug_str:000000000001cc09 .LASF4785
C:\Users\CYMR90~1\AppData\Local\Temp\ccsGRYiA.s:25746  .debug_str:0000000000017dd4 .LASF4786
C:\Users\CYMR90~1\AppData\Local\Temp\ccsGRYiA.s:25712  .debug_str:0000000000017bef .LASF4787
C:\Users\CYMR90~1\AppData\Local\Temp\ccsGRYiA.s:20529  .debug_str:0000000000002d33 .LASF4788
C:\Users\CYMR90~1\AppData\Local\Temp\ccsGRYiA.s:21849  .debug_str:000000000000827d .LASF4789
C:\Users\CYMR90~1\AppData\Local\Temp\ccsGRYiA.s:26928  .debug_str:000000000001cb1f .LASF4790
C:\Users\CYMR90~1\AppData\Local\Temp\ccsGRYiA.s:22467  .debug_str:000000000000a8f1 .LASF4791
C:\Users\CYMR90~1\AppData\Local\Temp\ccsGRYiA.s:21437  .debug_str:00000000000066b8 .LASF4792
C:\Users\CYMR90~1\AppData\Local\Temp\ccsGRYiA.s:25403  .debug_str:0000000000016650 .LASF4793
C:\Users\CYMR90~1\AppData\Local\Temp\ccsGRYiA.s:26552  .debug_str:000000000001b3bb .LASF4794
C:\Users\CYMR90~1\AppData\Local\Temp\ccsGRYiA.s:20811  .debug_str:0000000000003f67 .LASF4795
C:\Users\CYMR90~1\AppData\Local\Temp\ccsGRYiA.s:29222  .debug_str:0000000000025c15 .LASF4796
C:\Users\CYMR90~1\AppData\Local\Temp\ccsGRYiA.s:23425  .debug_str:000000000000e793 .LASF4797
C:\Users\CYMR90~1\AppData\Local\Temp\ccsGRYiA.s:27014  .debug_str:000000000001d1c4 .LASF4798
C:\Users\CYMR90~1\AppData\Local\Temp\ccsGRYiA.s:24895  .debug_str:0000000000014631 .LASF4799
C:\Users\CYMR90~1\AppData\Local\Temp\ccsGRYiA.s:22565  .debug_str:000000000000afea .LASF4800
C:\Users\CYMR90~1\AppData\Local\Temp\ccsGRYiA.s:27964  .debug_str:0000000000020bbb .LASF4801
C:\Users\CYMR90~1\AppData\Local\Temp\ccsGRYiA.s:29334  .debug_str:00000000000262bf .LASF4802
C:\Users\CYMR90~1\AppData\Local\Temp\ccsGRYiA.s:27648  .debug_str:000000000001f85e .LASF4803
C:\Users\CYMR90~1\AppData\Local\Temp\ccsGRYiA.s:28252  .debug_str:0000000000021d66 .LASF4804
C:\Users\CYMR90~1\AppData\Local\Temp\ccsGRYiA.s:26522  .debug_str:000000000001b1a4 .LASF4805
C:\Users\CYMR90~1\AppData\Local\Temp\ccsGRYiA.s:27800  .debug_str:0000000000020192 .LASF4806
C:\Users\CYMR90~1\AppData\Local\Temp\ccsGRYiA.s:29284  .debug_str:0000000000025fef .LASF4807
C:\Users\CYMR90~1\AppData\Local\Temp\ccsGRYiA.s:28772  .debug_str:0000000000023c6e .LASF4808
C:\Users\CYMR90~1\AppData\Local\Temp\ccsGRYiA.s:28596  .debug_str:0000000000023196 .LASF4809
C:\Users\CYMR90~1\AppData\Local\Temp\ccsGRYiA.s:31016  .debug_str:000000000002ce5c .LASF4810
C:\Users\CYMR90~1\AppData\Local\Temp\ccsGRYiA.s:21431  .debug_str:0000000000006659 .LASF4811
C:\Users\CYMR90~1\AppData\Local\Temp\ccsGRYiA.s:21067  .debug_str:0000000000005038 .LASF4812
C:\Users\CYMR90~1\AppData\Local\Temp\ccsGRYiA.s:28500  .debug_str:0000000000022c4a .LASF4813
C:\Users\CYMR90~1\AppData\Local\Temp\ccsGRYiA.s:28452  .debug_str:0000000000022932 .LASF4814
C:\Users\CYMR90~1\AppData\Local\Temp\ccsGRYiA.s:27744  .debug_str:000000000001fe82 .LASF4815
C:\Users\CYMR90~1\AppData\Local\Temp\ccsGRYiA.s:19963  .debug_str:0000000000000a38 .LASF4816
C:\Users\CYMR90~1\AppData\Local\Temp\ccsGRYiA.s:24685  .debug_str:000000000001398c .LASF4817
C:\Users\CYMR90~1\AppData\Local\Temp\ccsGRYiA.s:25800  .debug_str:00000000000180f5 .LASF4818
C:\Users\CYMR90~1\AppData\Local\Temp\ccsGRYiA.s:23411  .debug_str:000000000000e6b3 .LASF4819
C:\Users\CYMR90~1\AppData\Local\Temp\ccsGRYiA.s:26988  .debug_str:000000000001cfae .LASF4820
C:\Users\CYMR90~1\AppData\Local\Temp\ccsGRYiA.s:25031  .debug_str:0000000000014f0d .LASF4821
C:\Users\CYMR90~1\AppData\Local\Temp\ccsGRYiA.s:20345  .debug_str:00000000000021b4 .LASF4822
C:\Users\CYMR90~1\AppData\Local\Temp\ccsGRYiA.s:21803  .debug_str:0000000000007efc .LASF4823
C:\Users\CYMR90~1\AppData\Local\Temp\ccsGRYiA.s:22835  .debug_str:000000000000c1a9 .LASF4824
C:\Users\CYMR90~1\AppData\Local\Temp\ccsGRYiA.s:25177  .debug_str:000000000001579a .LASF4825
C:\Users\CYMR90~1\AppData\Local\Temp\ccsGRYiA.s:26680  .debug_str:000000000001bb10 .LASF4826
C:\Users\CYMR90~1\AppData\Local\Temp\ccsGRYiA.s:20895  .debug_str:000000000000450f .LASF4827
C:\Users\CYMR90~1\AppData\Local\Temp\ccsGRYiA.s:21927  .debug_str:0000000000008750 .LASF4828
C:\Users\CYMR90~1\AppData\Local\Temp\ccsGRYiA.s:20949  .debug_str:000000000000493a .LASF4829
C:\Users\CYMR90~1\AppData\Local\Temp\ccsGRYiA.s:27254  .debug_str:000000000001e0a6 .LASF4830
C:\Users\CYMR90~1\AppData\Local\Temp\ccsGRYiA.s:28872  .debug_str:00000000000243b9 .LASF4831
C:\Users\CYMR90~1\AppData\Local\Temp\ccsGRYiA.s:30348  .debug_str:000000000002a390 .LASF4832
C:\Users\CYMR90~1\AppData\Local\Temp\ccsGRYiA.s:23759  .debug_str:000000000000fc4f .LASF4833
C:\Users\CYMR90~1\AppData\Local\Temp\ccsGRYiA.s:28276  .debug_str:0000000000021ece .LASF4834
C:\Users\CYMR90~1\AppData\Local\Temp\ccsGRYiA.s:29800  .debug_str:000000000002816c .LASF4835
C:\Users\CYMR90~1\AppData\Local\Temp\ccsGRYiA.s:28660  .debug_str:00000000000235bc .LASF4836
C:\Users\CYMR90~1\AppData\Local\Temp\ccsGRYiA.s:25051  .debug_str:000000000001505d .LASF4837
C:\Users\CYMR90~1\AppData\Local\Temp\ccsGRYiA.s:30546  .debug_str:000000000002af20 .LASF4838
C:\Users\CYMR90~1\AppData\Local\Temp\ccsGRYiA.s:22601  .debug_str:000000000000b204 .LASF4839
C:\Users\CYMR90~1\AppData\Local\Temp\ccsGRYiA.s:30058  .debug_str:00000000000291d1 .LASF4840
C:\Users\CYMR90~1\AppData\Local\Temp\ccsGRYiA.s:25129  .debug_str:00000000000154ff .LASF4841
C:\Users\CYMR90~1\AppData\Local\Temp\ccsGRYiA.s:28158  .debug_str:000000000002178f .LASF4842
C:\Users\CYMR90~1\AppData\Local\Temp\ccsGRYiA.s:30450  .debug_str:000000000002a99b .LASF4843
C:\Users\CYMR90~1\AppData\Local\Temp\ccsGRYiA.s:19935  .debug_str:0000000000000874 .LASF4844
C:\Users\CYMR90~1\AppData\Local\Temp\ccsGRYiA.s:25656  .debug_str:0000000000017839 .LASF4845
C:\Users\CYMR90~1\AppData\Local\Temp\ccsGRYiA.s:27452  .debug_str:000000000001ec79 .LASF4846
C:\Users\CYMR90~1\AppData\Local\Temp\ccsGRYiA.s:22345  .debug_str:000000000000a156 .LASF4847
C:\Users\CYMR90~1\AppData\Local\Temp\ccsGRYiA.s:21171  .debug_str:00000000000056a7 .LASF4848
C:\Users\CYMR90~1\AppData\Local\Temp\ccsGRYiA.s:23687  .debug_str:000000000000f81c .LASF4849
C:\Users\CYMR90~1\AppData\Local\Temp\ccsGRYiA.s:25932  .debug_str:000000000001890e .LASF4850
C:\Users\CYMR90~1\AppData\Local\Temp\ccsGRYiA.s:20441  .debug_str:00000000000027d2 .LASF4851
C:\Users\CYMR90~1\AppData\Local\Temp\ccsGRYiA.s:26176  .debug_str:0000000000019a4a .LASF4852
C:\Users\CYMR90~1\AppData\Local\Temp\ccsGRYiA.s:27506  .debug_str:000000000001efd7 .LASF4853
C:\Users\CYMR90~1\AppData\Local\Temp\ccsGRYiA.s:19971  .debug_str:0000000000000afe .LASF4854
C:\Users\CYMR90~1\AppData\Local\Temp\ccsGRYiA.s:21415  .debug_str:0000000000006593 .LASF4855
C:\Users\CYMR90~1\AppData\Local\Temp\ccsGRYiA.s:24433  .debug_str:00000000000128e0 .LASF4856
C:\Users\CYMR90~1\AppData\Local\Temp\ccsGRYiA.s:27430  .debug_str:000000000001eb49 .LASF4857
C:\Users\CYMR90~1\AppData\Local\Temp\ccsGRYiA.s:26178  .debug_str:0000000000019a76 .LASF4858
C:\Users\CYMR90~1\AppData\Local\Temp\ccsGRYiA.s:30498  .debug_str:000000000002ac64 .LASF4859
C:\Users\CYMR90~1\AppData\Local\Temp\ccsGRYiA.s:22755  .debug_str:000000000000bc76 .LASF4860
C:\Users\CYMR90~1\AppData\Local\Temp\ccsGRYiA.s:25770  .debug_str:0000000000017f70 .LASF4861
C:\Users\CYMR90~1\AppData\Local\Temp\ccsGRYiA.s:24785  .debug_str:0000000000013f53 .LASF4862
C:\Users\CYMR90~1\AppData\Local\Temp\ccsGRYiA.s:25754  .debug_str:0000000000017e4f .LASF4863
C:\Users\CYMR90~1\AppData\Local\Temp\ccsGRYiA.s:27948  .debug_str:0000000000020aba .LASF4864
C:\Users\CYMR90~1\AppData\Local\Temp\ccsGRYiA.s:27952  .debug_str:0000000000020af3 .LASF4865
C:\Users\CYMR90~1\AppData\Local\Temp\ccsGRYiA.s:20565  .debug_str:0000000000002f55 .LASF4866
C:\Users\CYMR90~1\AppData\Local\Temp\ccsGRYiA.s:23507  .debug_str:000000000000ecc9 .LASF4867
C:\Users\CYMR90~1\AppData\Local\Temp\ccsGRYiA.s:30246  .debug_str:0000000000029d4b .LASF4868
C:\Users\CYMR90~1\AppData\Local\Temp\ccsGRYiA.s:21961  .debug_str:0000000000008975 .LASF4869
C:\Users\CYMR90~1\AppData\Local\Temp\ccsGRYiA.s:23723  .debug_str:000000000000fa17 .LASF4870
C:\Users\CYMR90~1\AppData\Local\Temp\ccsGRYiA.s:20505  .debug_str:0000000000002bd1 .LASF4871
C:\Users\CYMR90~1\AppData\Local\Temp\ccsGRYiA.s:23749  .debug_str:000000000000fbc4 .LASF4872
C:\Users\CYMR90~1\AppData\Local\Temp\ccsGRYiA.s:25562  .debug_str:000000000001728e .LASF4873
C:\Users\CYMR90~1\AppData\Local\Temp\ccsGRYiA.s:23197  .debug_str:000000000000d9bb .LASF4874
C:\Users\CYMR90~1\AppData\Local\Temp\ccsGRYiA.s:25640  .debug_str:0000000000017732 .LASF4875
C:\Users\CYMR90~1\AppData\Local\Temp\ccsGRYiA.s:22231  .debug_str:0000000000009a55 .LASF4876
C:\Users\CYMR90~1\AppData\Local\Temp\ccsGRYiA.s:25045  .debug_str:0000000000014fff .LASF4877
C:\Users\CYMR90~1\AppData\Local\Temp\ccsGRYiA.s:24943  .debug_str:0000000000014958 .LASF4878
C:\Users\CYMR90~1\AppData\Local\Temp\ccsGRYiA.s:21915  .debug_str:0000000000008695 .LASF4879
C:\Users\CYMR90~1\AppData\Local\Temp\ccsGRYiA.s:21101  .debug_str:000000000000526a .LASF4880
C:\Users\CYMR90~1\AppData\Local\Temp\ccsGRYiA.s:28828  .debug_str:0000000000024089 .LASF4881
C:\Users\CYMR90~1\AppData\Local\Temp\ccsGRYiA.s:30484  .debug_str:000000000002aba7 .LASF4882
C:\Users\CYMR90~1\AppData\Local\Temp\ccsGRYiA.s:25832  .debug_str:00000000000182ff .LASF4883
C:\Users\CYMR90~1\AppData\Local\Temp\ccsGRYiA.s:29988  .debug_str:0000000000028da0 .LASF4884
C:\Users\CYMR90~1\AppData\Local\Temp\ccsGRYiA.s:29672  .debug_str:00000000000277f1 .LASF4885
C:\Users\CYMR90~1\AppData\Local\Temp\ccsGRYiA.s:22207  .debug_str:00000000000098ae .LASF4886
C:\Users\CYMR90~1\AppData\Local\Temp\ccsGRYiA.s:29422  .debug_str:0000000000026871 .LASF4887
C:\Users\CYMR90~1\AppData\Local\Temp\ccsGRYiA.s:25816  .debug_str:0000000000018214 .LASF4888
C:\Users\CYMR90~1\AppData\Local\Temp\ccsGRYiA.s:25720  .debug_str:0000000000017c51 .LASF4889
C:\Users\CYMR90~1\AppData\Local\Temp\ccsGRYiA.s:29546  .debug_str:0000000000026fcb .LASF4890
C:\Users\CYMR90~1\AppData\Local\Temp\ccsGRYiA.s:23609  .debug_str:000000000000f2c8 .LASF4891
C:\Users\CYMR90~1\AppData\Local\Temp\ccsGRYiA.s:26966  .debug_str:000000000001cd92 .LASF4892
C:\Users\CYMR90~1\AppData\Local\Temp\ccsGRYiA.s:26004  .debug_str:0000000000018e32 .LASF4893
C:\Users\CYMR90~1\AppData\Local\Temp\ccsGRYiA.s:22913  .debug_str:000000000000c6b5 .LASF4894
C:\Users\CYMR90~1\AppData\Local\Temp\ccsGRYiA.s:29078  .debug_str:0000000000025247 .LASF4895
C:\Users\CYMR90~1\AppData\Local\Temp\ccsGRYiA.s:22337  .debug_str:000000000000a0e0 .LASF4896
C:\Users\CYMR90~1\AppData\Local\Temp\ccsGRYiA.s:28908  .debug_str:0000000000024603 .LASF4897
C:\Users\CYMR90~1\AppData\Local\Temp\ccsGRYiA.s:26738  .debug_str:000000000001bef9 .LASF4898
C:\Users\CYMR90~1\AppData\Local\Temp\ccsGRYiA.s:23053  .debug_str:000000000000d044 .LASF4899
C:\Users\CYMR90~1\AppData\Local\Temp\ccsGRYiA.s:23923  .debug_str:000000000001074e .LASF4900
C:\Users\CYMR90~1\AppData\Local\Temp\ccsGRYiA.s:20285  .debug_str:0000000000001e85 .LASF4901
C:\Users\CYMR90~1\AppData\Local\Temp\ccsGRYiA.s:25514  .debug_str:0000000000016fc6 .LASF4902
C:\Users\CYMR90~1\AppData\Local\Temp\ccsGRYiA.s:26814  .debug_str:000000000001c382 .LASF4903
C:\Users\CYMR90~1\AppData\Local\Temp\ccsGRYiA.s:24939  .debug_str:0000000000014916 .LASF4904
C:\Users\CYMR90~1\AppData\Local\Temp\ccsGRYiA.s:20887  .debug_str:000000000000448e .LASF4905
C:\Users\CYMR90~1\AppData\Local\Temp\ccsGRYiA.s:26454  .debug_str:000000000001ad07 .LASF4906
C:\Users\CYMR90~1\AppData\Local\Temp\ccsGRYiA.s:29172  .debug_str:0000000000025906 .LASF4907
C:\Users\CYMR90~1\AppData\Local\Temp\ccsGRYiA.s:23663  .debug_str:000000000000f60a .LASF4908
C:\Users\CYMR90~1\AppData\Local\Temp\ccsGRYiA.s:22749  .debug_str:000000000000bbe2 .LASF4909
C:\Users\CYMR90~1\AppData\Local\Temp\ccsGRYiA.s:19801  .debug_str:000000000000006a .LASF4910
C:\Users\CYMR90~1\AppData\Local\Temp\ccsGRYiA.s:22825  .debug_str:000000000000c126 .LASF4911
C:\Users\CYMR90~1\AppData\Local\Temp\ccsGRYiA.s:21433  .debug_str:000000000000667c .LASF4912
C:\Users\CYMR90~1\AppData\Local\Temp\ccsGRYiA.s:21641  .debug_str:000000000000742e .LASF4913
C:\Users\CYMR90~1\AppData\Local\Temp\ccsGRYiA.s:25183  .debug_str:00000000000157eb .LASF4914
C:\Users\CYMR90~1\AppData\Local\Temp\ccsGRYiA.s:22709  .debug_str:000000000000b97c .LASF4915
C:\Users\CYMR90~1\AppData\Local\Temp\ccsGRYiA.s:25035  .debug_str:0000000000014f54 .LASF4916
C:\Users\CYMR90~1\AppData\Local\Temp\ccsGRYiA.s:22665  .debug_str:000000000000b67e .LASF4917
C:\Users\CYMR90~1\AppData\Local\Temp\ccsGRYiA.s:25229  .debug_str:0000000000015aba .LASF4918
C:\Users\CYMR90~1\AppData\Local\Temp\ccsGRYiA.s:24029  .debug_str:0000000000010e22 .LASF4919
C:\Users\CYMR90~1\AppData\Local\Temp\ccsGRYiA.s:24047  .debug_str:0000000000010f02 .LASF4920
C:\Users\CYMR90~1\AppData\Local\Temp\ccsGRYiA.s:24353  .debug_str:00000000000123b3 .LASF4921
C:\Users\CYMR90~1\AppData\Local\Temp\ccsGRYiA.s:25101  .debug_str:000000000001538f .LASF4922
C:\Users\CYMR90~1\AppData\Local\Temp\ccsGRYiA.s:29858  .debug_str:0000000000028565 .LASF4923
C:\Users\CYMR90~1\AppData\Local\Temp\ccsGRYiA.s:29864  .debug_str:00000000000285cf .LASF4924
C:\Users\CYMR90~1\AppData\Local\Temp\ccsGRYiA.s:21689  .debug_str:0000000000007714 .LASF4925
C:\Users\CYMR90~1\AppData\Local\Temp\ccsGRYiA.s:30742  .debug_str:000000000002bc0c .LASF4926
C:\Users\CYMR90~1\AppData\Local\Temp\ccsGRYiA.s:30760  .debug_str:000000000002bdb3 .LASF4927
C:\Users\CYMR90~1\AppData\Local\Temp\ccsGRYiA.s:24593  .debug_str:0000000000013378 .LASF4928
C:\Users\CYMR90~1\AppData\Local\Temp\ccsGRYiA.s:19997  .debug_str:0000000000000c87 .LASF4929
C:\Users\CYMR90~1\AppData\Local\Temp\ccsGRYiA.s:22705  .debug_str:000000000000b94d .LASF4930
C:\Users\CYMR90~1\AppData\Local\Temp\ccsGRYiA.s:27434  .debug_str:000000000001eb68 .LASF4931
C:\Users\CYMR90~1\AppData\Local\Temp\ccsGRYiA.s:21423  .debug_str:00000000000065fe .LASF4932
C:\Users\CYMR90~1\AppData\Local\Temp\ccsGRYiA.s:23137  .debug_str:000000000000d66b .LASF4933
C:\Users\CYMR90~1\AppData\Local\Temp\ccsGRYiA.s:24545  .debug_str:0000000000013033 .LASF4934
C:\Users\CYMR90~1\AppData\Local\Temp\ccsGRYiA.s:23965  .debug_str:00000000000109b0 .LASF4935
C:\Users\CYMR90~1\AppData\Local\Temp\ccsGRYiA.s:28264  .debug_str:0000000000021e33 .LASF4936
C:\Users\CYMR90~1\AppData\Local\Temp\ccsGRYiA.s:24559  .debug_str:000000000001311d .LASF4937
C:\Users\CYMR90~1\AppData\Local\Temp\ccsGRYiA.s:21093  .debug_str:00000000000051e6 .LASF4938
C:\Users\CYMR90~1\AppData\Local\Temp\ccsGRYiA.s:28102  .debug_str:000000000002143d .LASF4939
C:\Users\CYMR90~1\AppData\Local\Temp\ccsGRYiA.s:25283  .debug_str:0000000000015e40 .LASF4940
C:\Users\CYMR90~1\AppData\Local\Temp\ccsGRYiA.s:21331  .debug_str:0000000000006079 .LASF4941
C:\Users\CYMR90~1\AppData\Local\Temp\ccsGRYiA.s:21805  .debug_str:0000000000007f20 .LASF4942
C:\Users\CYMR90~1\AppData\Local\Temp\ccsGRYiA.s:25113  .debug_str:0000000000015411 .LASF4943
C:\Users\CYMR90~1\AppData\Local\Temp\ccsGRYiA.s:27748  .debug_str:000000000001fed0 .LASF4944
C:\Users\CYMR90~1\AppData\Local\Temp\ccsGRYiA.s:29894  .debug_str:00000000000287ba .LASF4945
C:\Users\CYMR90~1\AppData\Local\Temp\ccsGRYiA.s:24763  .debug_str:0000000000013deb .LASF4946
C:\Users\CYMR90~1\AppData\Local\Temp\ccsGRYiA.s:25916  .debug_str:00000000000187da .LASF4947
C:\Users\CYMR90~1\AppData\Local\Temp\ccsGRYiA.s:20393  .debug_str:00000000000024be .LASF4948
C:\Users\CYMR90~1\AppData\Local\Temp\ccsGRYiA.s:27366  .debug_str:000000000001e784 .LASF4949
C:\Users\CYMR90~1\AppData\Local\Temp\ccsGRYiA.s:26832  .debug_str:000000000001c48b .LASF4950
C:\Users\CYMR90~1\AppData\Local\Temp\ccsGRYiA.s:29128  .debug_str:00000000000255b7 .LASF4951
C:\Users\CYMR90~1\AppData\Local\Temp\ccsGRYiA.s:21475  .debug_str:0000000000006954 .LASF4952
C:\Users\CYMR90~1\AppData\Local\Temp\ccsGRYiA.s:20249  .debug_str:0000000000001c6d .LASF4953
C:\Users\CYMR90~1\AppData\Local\Temp\ccsGRYiA.s:22069  .debug_str:000000000000902d .LASF4954
C:\Users\CYMR90~1\AppData\Local\Temp\ccsGRYiA.s:22233  .debug_str:0000000000009a78 .LASF4955
C:\Users\CYMR90~1\AppData\Local\Temp\ccsGRYiA.s:20261  .debug_str:0000000000001d0e .LASF4956
C:\Users\CYMR90~1\AppData\Local\Temp\ccsGRYiA.s:22453  .debug_str:000000000000a854 .LASF4957
C:\Users\CYMR90~1\AppData\Local\Temp\ccsGRYiA.s:24987  .debug_str:0000000000014beb .LASF4958
C:\Users\CYMR90~1\AppData\Local\Temp\ccsGRYiA.s:25389  .debug_str:000000000001650f .LASF4959
C:\Users\CYMR90~1\AppData\Local\Temp\ccsGRYiA.s:24481  .debug_str:0000000000012c05 .LASF4960
C:\Users\CYMR90~1\AppData\Local\Temp\ccsGRYiA.s:22551  .debug_str:000000000000af04 .LASF4961
C:\Users\CYMR90~1\AppData\Local\Temp\ccsGRYiA.s:25049  .debug_str:0000000000015044 .LASF4962
C:\Users\CYMR90~1\AppData\Local\Temp\ccsGRYiA.s:21613  .debug_str:0000000000007243 .LASF4963
C:\Users\CYMR90~1\AppData\Local\Temp\ccsGRYiA.s:25812  .debug_str:00000000000181d7 .LASF4964
C:\Users\CYMR90~1\AppData\Local\Temp\ccsGRYiA.s:23709  .debug_str:000000000000f956 .LASF4965
C:\Users\CYMR90~1\AppData\Local\Temp\ccsGRYiA.s:25213  .debug_str:00000000000159c7 .LASF4966
C:\Users\CYMR90~1\AppData\Local\Temp\ccsGRYiA.s:23073  .debug_str:000000000000d1e5 .LASF4967
C:\Users\CYMR90~1\AppData\Local\Temp\ccsGRYiA.s:26474  .debug_str:000000000001ae57 .LASF4968
C:\Users\CYMR90~1\AppData\Local\Temp\ccsGRYiA.s:31032  .debug_str:000000000002cf5a .LASF4969
C:\Users\CYMR90~1\AppData\Local\Temp\ccsGRYiA.s:29472  .debug_str:0000000000026b50 .LASF4970
C:\Users\CYMR90~1\AppData\Local\Temp\ccsGRYiA.s:28522  .debug_str:0000000000022d8d .LASF4971
C:\Users\CYMR90~1\AppData\Local\Temp\ccsGRYiA.s:21663  .debug_str:0000000000007576 .LASF4972
C:\Users\CYMR90~1\AppData\Local\Temp\ccsGRYiA.s:21051  .debug_str:0000000000004f52 .LASF4973
C:\Users\CYMR90~1\AppData\Local\Temp\ccsGRYiA.s:22281  .debug_str:0000000000009d62 .LASF4974
C:\Users\CYMR90~1\AppData\Local\Temp\ccsGRYiA.s:22229  .debug_str:0000000000009a34 .LASF4975
C:\Users\CYMR90~1\AppData\Local\Temp\ccsGRYiA.s:23115  .debug_str:000000000000d4ce .LASF4976
C:\Users\CYMR90~1\AppData\Local\Temp\ccsGRYiA.s:20343  .debug_str:0000000000002197 .LASF4977
C:\Users\CYMR90~1\AppData\Local\Temp\ccsGRYiA.s:28232  .debug_str:0000000000021c1c .LASF4978
C:\Users\CYMR90~1\AppData\Local\Temp\ccsGRYiA.s:27864  .debug_str:00000000000205c6 .LASF4979
C:\Users\CYMR90~1\AppData\Local\Temp\ccsGRYiA.s:29556  .debug_str:0000000000027075 .LASF4980
C:\Users\CYMR90~1\AppData\Local\Temp\ccsGRYiA.s:20207  .debug_str:00000000000019ca .LASF4981
C:\Users\CYMR90~1\AppData\Local\Temp\ccsGRYiA.s:23731  .debug_str:000000000000fa9e .LASF4982
C:\Users\CYMR90~1\AppData\Local\Temp\ccsGRYiA.s:22115  .debug_str:00000000000092db .LASF4983
C:\Users\CYMR90~1\AppData\Local\Temp\ccsGRYiA.s:29022  .debug_str:0000000000024ddd .LASF4984
C:\Users\CYMR90~1\AppData\Local\Temp\ccsGRYiA.s:30466  .debug_str:000000000002aa75 .LASF4985
C:\Users\CYMR90~1\AppData\Local\Temp\ccsGRYiA.s:25534  .debug_str:0000000000017109 .LASF4986
C:\Users\CYMR90~1\AppData\Local\Temp\ccsGRYiA.s:25644  .debug_str:0000000000017779 .LASF4987
C:\Users\CYMR90~1\AppData\Local\Temp\ccsGRYiA.s:27188  .debug_str:000000000001dcad .LASF4988
C:\Users\CYMR90~1\AppData\Local\Temp\ccsGRYiA.s:22355  .debug_str:000000000000a207 .LASF4989
C:\Users\CYMR90~1\AppData\Local\Temp\ccsGRYiA.s:27614  .debug_str:000000000001f656 .LASF4990
C:\Users\CYMR90~1\AppData\Local\Temp\ccsGRYiA.s:28788  .debug_str:0000000000023d88 .LASF4991
C:\Users\CYMR90~1\AppData\Local\Temp\ccsGRYiA.s:24471  .debug_str:0000000000012b8e .LASF4992
C:\Users\CYMR90~1\AppData\Local\Temp\ccsGRYiA.s:20685  .debug_str:000000000000373c .LASF4993
C:\Users\CYMR90~1\AppData\Local\Temp\ccsGRYiA.s:20867  .debug_str:0000000000004339 .LASF4994
C:\Users\CYMR90~1\AppData\Local\Temp\ccsGRYiA.s:29708  .debug_str:0000000000027a87 .LASF4995
C:\Users\CYMR90~1\AppData\Local\Temp\ccsGRYiA.s:24131  .debug_str:00000000000113bf .LASF4996
C:\Users\CYMR90~1\AppData\Local\Temp\ccsGRYiA.s:22717  .debug_str:000000000000b9e3 .LASF4997
C:\Users\CYMR90~1\AppData\Local\Temp\ccsGRYiA.s:28780  .debug_str:0000000000023cf7 .LASF4998
C:\Users\CYMR90~1\AppData\Local\Temp\ccsGRYiA.s:28886  .debug_str:00000000000244bb .LASF4999
C:\Users\CYMR90~1\AppData\Local\Temp\ccsGRYiA.s:25185  .debug_str:0000000000015801 .LASF5000
C:\Users\CYMR90~1\AppData\Local\Temp\ccsGRYiA.s:20709  .debug_str:00000000000038c7 .LASF5001
C:\Users\CYMR90~1\AppData\Local\Temp\ccsGRYiA.s:25516  .debug_str:0000000000016ff0 .LASF5002
C:\Users\CYMR90~1\AppData\Local\Temp\ccsGRYiA.s:20655  .debug_str:0000000000003570 .LASF5003
C:\Users\CYMR90~1\AppData\Local\Temp\ccsGRYiA.s:20323  .debug_str:000000000000209f .LASF5004
C:\Users\CYMR90~1\AppData\Local\Temp\ccsGRYiA.s:21385  .debug_str:00000000000063d3 .LASF5005
C:\Users\CYMR90~1\AppData\Local\Temp\ccsGRYiA.s:29356  .debug_str:000000000002643d .LASF5006
C:\Users\CYMR90~1\AppData\Local\Temp\ccsGRYiA.s:29602  .debug_str:00000000000273db .LASF5007
C:\Users\CYMR90~1\AppData\Local\Temp\ccsGRYiA.s:19909  .debug_str:00000000000006d8 .LASF5008
C:\Users\CYMR90~1\AppData\Local\Temp\ccsGRYiA.s:25105  .debug_str:00000000000153bf .LASF5009
C:\Users\CYMR90~1\AppData\Local\Temp\ccsGRYiA.s:30722  .debug_str:000000000002baea .LASF5010
C:\Users\CYMR90~1\AppData\Local\Temp\ccsGRYiA.s:22537  .debug_str:000000000000ad82 .LASF5011
C:\Users\CYMR90~1\AppData\Local\Temp\ccsGRYiA.s:21469  .debug_str:00000000000068fc .LASF5012
C:\Users\CYMR90~1\AppData\Local\Temp\ccsGRYiA.s:29658  .debug_str:00000000000276f0 .LASF5013
C:\Users\CYMR90~1\AppData\Local\Temp\ccsGRYiA.s:26414  .debug_str:000000000001aa9c .LASF5014
C:\Users\CYMR90~1\AppData\Local\Temp\ccsGRYiA.s:27522  .debug_str:000000000001f0e0 .LASF5015
C:\Users\CYMR90~1\AppData\Local\Temp\ccsGRYiA.s:26672  .debug_str:000000000001baab .LASF5016
C:\Users\CYMR90~1\AppData\Local\Temp\ccsGRYiA.s:21169  .debug_str:000000000000568e .LASF5017
C:\Users\CYMR90~1\AppData\Local\Temp\ccsGRYiA.s:28552  .debug_str:0000000000022f3e .LASF5018
C:\Users\CYMR90~1\AppData\Local\Temp\ccsGRYiA.s:28570  .debug_str:000000000002302c .LASF5019
C:\Users\CYMR90~1\AppData\Local\Temp\ccsGRYiA.s:29050  .debug_str:0000000000024f62 .LASF5020
C:\Users\CYMR90~1\AppData\Local\Temp\ccsGRYiA.s:29966  .debug_str:0000000000028c35 .LASF5021
C:\Users\CYMR90~1\AppData\Local\Temp\ccsGRYiA.s:28610  .debug_str:0000000000023281 .LASF5022
C:\Users\CYMR90~1\AppData\Local\Temp\ccsGRYiA.s:30084  .debug_str:0000000000029386 .LASF5023
C:\Users\CYMR90~1\AppData\Local\Temp\ccsGRYiA.s:24551  .debug_str:0000000000013091 .LASF5024
C:\Users\CYMR90~1\AppData\Local\Temp\ccsGRYiA.s:24375  .debug_str:0000000000012508 .LASF5025
C:\Users\CYMR90~1\AppData\Local\Temp\ccsGRYiA.s:28144  .debug_str:00000000000216b2 .LASF5026
C:\Users\CYMR90~1\AppData\Local\Temp\ccsGRYiA.s:26804  .debug_str:000000000001c2f8 .LASF5027
C:\Users\CYMR90~1\AppData\Local\Temp\ccsGRYiA.s:24555  .debug_str:00000000000130d5 .LASF5028
C:\Users\CYMR90~1\AppData\Local\Temp\ccsGRYiA.s:25724  .debug_str:0000000000017c8e .LASF5029
C:\Users\CYMR90~1\AppData\Local\Temp\ccsGRYiA.s:21045  .debug_str:0000000000004efa .LASF5030
C:\Users\CYMR90~1\AppData\Local\Temp\ccsGRYiA.s:28128  .debug_str:00000000000215bb .LASF5031
C:\Users\CYMR90~1\AppData\Local\Temp\ccsGRYiA.s:25457  .debug_str:0000000000016a16 .LASF5032
C:\Users\CYMR90~1\AppData\Local\Temp\ccsGRYiA.s:20563  .debug_str:0000000000002f3c .LASF5033
C:\Users\CYMR90~1\AppData\Local\Temp\ccsGRYiA.s:27428  .debug_str:000000000001eb31 .LASF5034
C:\Users\CYMR90~1\AppData\Local\Temp\ccsGRYiA.s:28364  .debug_str:00000000000223d9 .LASF5035
C:\Users\CYMR90~1\AppData\Local\Temp\ccsGRYiA.s:29756  .debug_str:0000000000027dce .LASF5036
C:\Users\CYMR90~1\AppData\Local\Temp\ccsGRYiA.s:28820  .debug_str:0000000000023f3f .LASF5037
C:\Users\CYMR90~1\AppData\Local\Temp\ccsGRYiA.s:27070  .debug_str:000000000001d51a .LASF5038
C:\Users\CYMR90~1\AppData\Local\Temp\ccsGRYiA.s:27050  .debug_str:000000000001d3e7 .LASF5039
C:\Users\CYMR90~1\AppData\Local\Temp\ccsGRYiA.s:28150  .debug_str:0000000000021730 .LASF5040
C:\Users\CYMR90~1\AppData\Local\Temp\ccsGRYiA.s:24427  .debug_str:0000000000012872 .LASF5041
C:\Users\CYMR90~1\AppData\Local\Temp\ccsGRYiA.s:25828  .debug_str:00000000000182c3 .LASF5042
C:\Users\CYMR90~1\AppData\Local\Temp\ccsGRYiA.s:21637  .debug_str:00000000000073e3 .LASF5043
C:\Users\CYMR90~1\AppData\Local\Temp\ccsGRYiA.s:26396  .debug_str:000000000001a97f .LASF5044
C:\Users\CYMR90~1\AppData\Local\Temp\ccsGRYiA.s:30200  .debug_str:0000000000029a9c .LASF5045
C:\Users\CYMR90~1\AppData\Local\Temp\ccsGRYiA.s:22893  .debug_str:000000000000c555 .LASF5046
C:\Users\CYMR90~1\AppData\Local\Temp\ccsGRYiA.s:22521  .debug_str:000000000000ac45 .LASF5047
C:\Users\CYMR90~1\AppData\Local\Temp\ccsGRYiA.s:23539  .debug_str:000000000000ee76 .LASF5048
C:\Users\CYMR90~1\AppData\Local\Temp\ccsGRYiA.s:21509  .debug_str:0000000000006b6e .LASF5049
C:\Users\CYMR90~1\AppData\Local\Temp\ccsGRYiA.s:27790  .debug_str:0000000000020107 .LASF5050
C:\Users\CYMR90~1\AppData\Local\Temp\ccsGRYiA.s:20397  .debug_str:00000000000024f4 .LASF5051
C:\Users\CYMR90~1\AppData\Local\Temp\ccsGRYiA.s:28598  .debug_str:00000000000231b8 .LASF5052
C:\Users\CYMR90~1\AppData\Local\Temp\ccsGRYiA.s:25443  .debug_str:00000000000168ec .LASF5053
C:\Users\CYMR90~1\AppData\Local\Temp\ccsGRYiA.s:30420  .debug_str:000000000002a7b4 .LASF5054
C:\Users\CYMR90~1\AppData\Local\Temp\ccsGRYiA.s:23729  .debug_str:000000000000fa7e .LASF5055
C:\Users\CYMR90~1\AppData\Local\Temp\ccsGRYiA.s:29750  .debug_str:0000000000027d5c .LASF5056
C:\Users\CYMR90~1\AppData\Local\Temp\ccsGRYiA.s:21711  .debug_str:0000000000007892 .LASF5057
C:\Users\CYMR90~1\AppData\Local\Temp\ccsGRYiA.s:23133  .debug_str:000000000000d62c .LASF5058
C:\Users\CYMR90~1\AppData\Local\Temp\ccsGRYiA.s:30914  .debug_str:000000000002c7df .LASF5059
C:\Users\CYMR90~1\AppData\Local\Temp\ccsGRYiA.s:22761  .debug_str:000000000000bcef .LASF5060
C:\Users\CYMR90~1\AppData\Local\Temp\ccsGRYiA.s:22329  .debug_str:000000000000a073 .LASF5061
C:\Users\CYMR90~1\AppData\Local\Temp\ccsGRYiA.s:29662  .debug_str:0000000000027748 .LASF5062
C:\Users\CYMR90~1\AppData\Local\Temp\ccsGRYiA.s:24167  .debug_str:0000000000011643 .LASF5063
C:\Users\CYMR90~1\AppData\Local\Temp\ccsGRYiA.s:20959  .debug_str:00000000000049d3 .LASF5064
C:\Users\CYMR90~1\AppData\Local\Temp\ccsGRYiA.s:22273  .debug_str:0000000000009cdc .LASF5065
C:\Users\CYMR90~1\AppData\Local\Temp\ccsGRYiA.s:26046  .debug_str:00000000000191cc .LASF5066
C:\Users\CYMR90~1\AppData\Local\Temp\ccsGRYiA.s:27010  .debug_str:000000000001d17a .LASF5067
C:\Users\CYMR90~1\AppData\Local\Temp\ccsGRYiA.s:22679  .debug_str:000000000000b75e .LASF5068
C:\Users\CYMR90~1\AppData\Local\Temp\ccsGRYiA.s:22971  .debug_str:000000000000cb3b .LASF5069
C:\Users\CYMR90~1\AppData\Local\Temp\ccsGRYiA.s:25243  .debug_str:0000000000015b77 .LASF5070
C:\Users\CYMR90~1\AppData\Local\Temp\ccsGRYiA.s:23373  .debug_str:000000000000e412 .LASF5071
C:\Users\CYMR90~1\AppData\Local\Temp\ccsGRYiA.s:26220  .debug_str:0000000000019cde .LASF5072
C:\Users\CYMR90~1\AppData\Local\Temp\ccsGRYiA.s:25966  .debug_str:0000000000018b2f .LASF5073
C:\Users\CYMR90~1\AppData\Local\Temp\ccsGRYiA.s:28672  .debug_str:0000000000023697 .LASF5074
C:\Users\CYMR90~1\AppData\Local\Temp\ccsGRYiA.s:20917  .debug_str:000000000000469b .LASF5075
C:\Users\CYMR90~1\AppData\Local\Temp\ccsGRYiA.s:19977  .debug_str:0000000000000b61 .LASF5076
C:\Users\CYMR90~1\AppData\Local\Temp\ccsGRYiA.s:24259  .debug_str:0000000000011ce2 .LASF5077
C:\Users\CYMR90~1\AppData\Local\Temp\ccsGRYiA.s:25009  .debug_str:0000000000014d5a .LASF5078
C:\Users\CYMR90~1\AppData\Local\Temp\ccsGRYiA.s:30786  .debug_str:000000000002bf29 .LASF5079
C:\Users\CYMR90~1\AppData\Local\Temp\ccsGRYiA.s:21863  .debug_str:000000000000835a .LASF5080
C:\Users\CYMR90~1\AppData\Local\Temp\ccsGRYiA.s:22413  .debug_str:000000000000a5b6 .LASF5081
C:\Users\CYMR90~1\AppData\Local\Temp\ccsGRYiA.s:26052  .debug_str:000000000001922e .LASF5082
C:\Users\CYMR90~1\AppData\Local\Temp\ccsGRYiA.s:23311  .debug_str:000000000000e06e .LASF5083
C:\Users\CYMR90~1\AppData\Local\Temp\ccsGRYiA.s:30834  .debug_str:000000000002c2d8 .LASF5084
C:\Users\CYMR90~1\AppData\Local\Temp\ccsGRYiA.s:20211  .debug_str:0000000000001a08 .LASF5085
C:\Users\CYMR90~1\AppData\Local\Temp\ccsGRYiA.s:29740  .debug_str:0000000000027cab .LASF5086
C:\Users\CYMR90~1\AppData\Local\Temp\ccsGRYiA.s:27132  .debug_str:000000000001d97e .LASF5087
C:\Users\CYMR90~1\AppData\Local\Temp\ccsGRYiA.s:24653  .debug_str:000000000001378d .LASF5088
C:\Users\CYMR90~1\AppData\Local\Temp\ccsGRYiA.s:22377  .debug_str:000000000000a386 .LASF5089
C:\Users\CYMR90~1\AppData\Local\Temp\ccsGRYiA.s:28190  .debug_str:0000000000021949 .LASF5090
C:\Users\CYMR90~1\AppData\Local\Temp\ccsGRYiA.s:24557  .debug_str:00000000000130f5 .LASF5091
C:\Users\CYMR90~1\AppData\Local\Temp\ccsGRYiA.s:24681  .debug_str:0000000000013949 .LASF5092
C:\Users\CYMR90~1\AppData\Local\Temp\ccsGRYiA.s:24659  .debug_str:00000000000137ee .LASF5093
C:\Users\CYMR90~1\AppData\Local\Temp\ccsGRYiA.s:28858  .debug_str:00000000000242c1 .LASF5094
C:\Users\CYMR90~1\AppData\Local\Temp\ccsGRYiA.s:29358  .debug_str:0000000000026458 .LASF5095
C:\Users\CYMR90~1\AppData\Local\Temp\ccsGRYiA.s:20461  .debug_str:0000000000002928 .LASF5096
C:\Users\CYMR90~1\AppData\Local\Temp\ccsGRYiA.s:24229  .debug_str:0000000000011b40 .LASF5097
C:\Users\CYMR90~1\AppData\Local\Temp\ccsGRYiA.s:27746  .debug_str:000000000001fea5 .LASF5098
C:\Users\CYMR90~1\AppData\Local\Temp\ccsGRYiA.s:20607  .debug_str:0000000000003232 .LASF5099
C:\Users\CYMR90~1\AppData\Local\Temp\ccsGRYiA.s:27676  .debug_str:000000000001fa0c .LASF5100
C:\Users\CYMR90~1\AppData\Local\Temp\ccsGRYiA.s:24645  .debug_str:000000000001370a .LASF5101
C:\Users\CYMR90~1\AppData\Local\Temp\ccsGRYiA.s:30078  .debug_str:000000000002930a .LASF5102
C:\Users\CYMR90~1\AppData\Local\Temp\ccsGRYiA.s:22361  .debug_str:000000000000a25e .LASF5103
C:\Users\CYMR90~1\AppData\Local\Temp\ccsGRYiA.s:26042  .debug_str:0000000000019179 .LASF5104
C:\Users\CYMR90~1\AppData\Local\Temp\ccsGRYiA.s:30322  .debug_str:000000000002a1b0 .LASF5105
C:\Users\CYMR90~1\AppData\Local\Temp\ccsGRYiA.s:23319  .debug_str:000000000000e0ef .LASF5106
C:\Users\CYMR90~1\AppData\Local\Temp\ccsGRYiA.s:30316  .debug_str:000000000002a147 .LASF5107
C:\Users\CYMR90~1\AppData\Local\Temp\ccsGRYiA.s:20539  .debug_str:0000000000002dc3 .LASF5108
C:\Users\CYMR90~1\AppData\Local\Temp\ccsGRYiA.s:26476  .debug_str:000000000001ae6f .LASF5109
C:\Users\CYMR90~1\AppData\Local\Temp\ccsGRYiA.s:23639  .debug_str:000000000000f498 .LASF5110
C:\Users\CYMR90~1\AppData\Local\Temp\ccsGRYiA.s:24821  .debug_str:00000000000141b8 .LASF5111
C:\Users\CYMR90~1\AppData\Local\Temp\ccsGRYiA.s:20219  .debug_str:0000000000001a7f .LASF5112
C:\Users\CYMR90~1\AppData\Local\Temp\ccsGRYiA.s:22085  .debug_str:0000000000009101 .LASF5113
C:\Users\CYMR90~1\AppData\Local\Temp\ccsGRYiA.s:26984  .debug_str:000000000001cf52 .LASF5114
C:\Users\CYMR90~1\AppData\Local\Temp\ccsGRYiA.s:30364  .debug_str:000000000002a485 .LASF5115
C:\Users\CYMR90~1\AppData\Local\Temp\ccsGRYiA.s:20911  .debug_str:0000000000004623 .LASF5116
C:\Users\CYMR90~1\AppData\Local\Temp\ccsGRYiA.s:29132  .debug_str:00000000000255fe .LASF5117
C:\Users\CYMR90~1\AppData\Local\Temp\ccsGRYiA.s:27636  .debug_str:000000000001f773 .LASF5118
C:\Users\CYMR90~1\AppData\Local\Temp\ccsGRYiA.s:26812  .debug_str:000000000001c35a .LASF5119
C:\Users\CYMR90~1\AppData\Local\Temp\ccsGRYiA.s:27770  .debug_str:0000000000020002 .LASF5120
C:\Users\CYMR90~1\AppData\Local\Temp\ccsGRYiA.s:30982  .debug_str:000000000002cc5e .LASF5121
C:\Users\CYMR90~1\AppData\Local\Temp\ccsGRYiA.s:29476  .debug_str:0000000000026b7d .LASF5122
C:\Users\CYMR90~1\AppData\Local\Temp\ccsGRYiA.s:21069  .debug_str:000000000000505c .LASF5123
C:\Users\CYMR90~1\AppData\Local\Temp\ccsGRYiA.s:28160  .debug_str:00000000000217bb .LASF5124
C:\Users\CYMR90~1\AppData\Local\Temp\ccsGRYiA.s:28084  .debug_str:0000000000021328 .LASF5125
C:\Users\CYMR90~1\AppData\Local\Temp\ccsGRYiA.s:24467  .debug_str:0000000000012b41 .LASF5126
C:\Users\CYMR90~1\AppData\Local\Temp\ccsGRYiA.s:25758  .debug_str:0000000000017e94 .LASF5127
C:\Users\CYMR90~1\AppData\Local\Temp\ccsGRYiA.s:23973  .debug_str:0000000000010a5e .LASF5128
C:\Users\CYMR90~1\AppData\Local\Temp\ccsGRYiA.s:25862  .debug_str:00000000000184ba .LASF5129
C:\Users\CYMR90~1\AppData\Local\Temp\ccsGRYiA.s:26436  .debug_str:000000000001ac1c .LASF5130
C:\Users\CYMR90~1\AppData\Local\Temp\ccsGRYiA.s:27776  .debug_str:0000000000020063 .LASF5131
C:\Users\CYMR90~1\AppData\Local\Temp\ccsGRYiA.s:31018  .debug_str:000000000002ce7e .LASF5132
C:\Users\CYMR90~1\AppData\Local\Temp\ccsGRYiA.s:24931  .debug_str:000000000001489e .LASF5133
C:\Users\CYMR90~1\AppData\Local\Temp\ccsGRYiA.s:26290  .debug_str:000000000001a0fd .LASF5134
C:\Users\CYMR90~1\AppData\Local\Temp\ccsGRYiA.s:21131  .debug_str:0000000000005437 .LASF5135
C:\Users\CYMR90~1\AppData\Local\Temp\ccsGRYiA.s:28880  .debug_str:0000000000024434 .LASF5136
C:\Users\CYMR90~1\AppData\Local\Temp\ccsGRYiA.s:29744  .debug_str:0000000000027cee .LASF5137
C:\Users\CYMR90~1\AppData\Local\Temp\ccsGRYiA.s:21731  .debug_str:00000000000079c5 .LASF5138
C:\Users\CYMR90~1\AppData\Local\Temp\ccsGRYiA.s:30794  .debug_str:000000000002bfd0 .LASF5139
C:\Users\CYMR90~1\AppData\Local\Temp\ccsGRYiA.s:23491  .debug_str:000000000000ebfa .LASF5140
C:\Users\CYMR90~1\AppData\Local\Temp\ccsGRYiA.s:25678  .debug_str:00000000000179cc .LASF5141
C:\Users\CYMR90~1\AppData\Local\Temp\ccsGRYiA.s:21843  .debug_str:000000000000821e .LASF5142
C:\Users\CYMR90~1\AppData\Local\Temp\ccsGRYiA.s:21439  .debug_str:00000000000066da .LASF5143
C:\Users\CYMR90~1\AppData\Local\Temp\ccsGRYiA.s:21037  .debug_str:0000000000004e6f .LASF5144
C:\Users\CYMR90~1\AppData\Local\Temp\ccsGRYiA.s:29566  .debug_str:00000000000271ae .LASF5145
C:\Users\CYMR90~1\AppData\Local\Temp\ccsGRYiA.s:25804  .debug_str:000000000001813f .LASF5146
C:\Users\CYMR90~1\AppData\Local\Temp\ccsGRYiA.s:24407  .debug_str:0000000000012724 .LASF5147
C:\Users\CYMR90~1\AppData\Local\Temp\ccsGRYiA.s:22921  .debug_str:000000000000c747 .LASF5148
C:\Users\CYMR90~1\AppData\Local\Temp\ccsGRYiA.s:27370  .debug_str:000000000001e7cc .LASF5149
C:\Users\CYMR90~1\AppData\Local\Temp\ccsGRYiA.s:22083  .debug_str:00000000000090d0 .LASF5150
C:\Users\CYMR90~1\AppData\Local\Temp\ccsGRYiA.s:30522  .debug_str:000000000002adaf .LASF5151
C:\Users\CYMR90~1\AppData\Local\Temp\ccsGRYiA.s:27360  .debug_str:000000000001e6f0 .LASF5152
C:\Users\CYMR90~1\AppData\Local\Temp\ccsGRYiA.s:21937  .debug_str:00000000000087eb .LASF5153
C:\Users\CYMR90~1\AppData\Local\Temp\ccsGRYiA.s:29654  .debug_str:00000000000276b4 .LASF5154
C:\Users\CYMR90~1\AppData\Local\Temp\ccsGRYiA.s:31024  .debug_str:000000000002ced8 .LASF5155
C:\Users\CYMR90~1\AppData\Local\Temp\ccsGRYiA.s:27686  .debug_str:000000000001fab2 .LASF5156
C:\Users\CYMR90~1\AppData\Local\Temp\ccsGRYiA.s:29942  .debug_str:0000000000028aaa .LASF5157
C:\Users\CYMR90~1\AppData\Local\Temp\ccsGRYiA.s:21017  .debug_str:0000000000004d4d .LASF5158
C:\Users\CYMR90~1\AppData\Local\Temp\ccsGRYiA.s:21359  .debug_str:0000000000006266 .LASF5159
C:\Users\CYMR90~1\AppData\Local\Temp\ccsGRYiA.s:26310  .debug_str:000000000001a214 .LASF5160
C:\Users\CYMR90~1\AppData\Local\Temp\ccsGRYiA.s:25017  .debug_str:0000000000014e14 .LASF5161
C:\Users\CYMR90~1\AppData\Local\Temp\ccsGRYiA.s:23777  .debug_str:000000000000fd7e .LASF5162
C:\Users\CYMR90~1\AppData\Local\Temp\ccsGRYiA.s:30382  .debug_str:000000000002a59e .LASF5163
C:\Users\CYMR90~1\AppData\Local\Temp\ccsGRYiA.s:27406  .debug_str:000000000001e9fb .LASF5164
C:\Users\CYMR90~1\AppData\Local\Temp\ccsGRYiA.s:28224  .debug_str:0000000000021b9a .LASF5165
C:\Users\CYMR90~1\AppData\Local\Temp\ccsGRYiA.s:26512  .debug_str:000000000001b0ff .LASF5166
C:\Users\CYMR90~1\AppData\Local\Temp\ccsGRYiA.s:22133  .debug_str:00000000000093d4 .LASF5167
C:\Users\CYMR90~1\AppData\Local\Temp\ccsGRYiA.s:19851  .debug_str:000000000000037d .LASF5168
C:\Users\CYMR90~1\AppData\Local\Temp\ccsGRYiA.s:24189  .debug_str:000000000001185c .LASF5169
C:\Users\CYMR90~1\AppData\Local\Temp\ccsGRYiA.s:20443  .debug_str:00000000000027fa .LASF5170
C:\Users\CYMR90~1\AppData\Local\Temp\ccsGRYiA.s:27414  .debug_str:000000000001ea6d .LASF5171
C:\Users\CYMR90~1\AppData\Local\Temp\ccsGRYiA.s:25039  .debug_str:0000000000014fa9 .LASF5172
C:\Users\CYMR90~1\AppData\Local\Temp\ccsGRYiA.s:19797  .debug_str:0000000000000000 .LASF5173
C:\Users\CYMR90~1\AppData\Local\Temp\ccsGRYiA.s:24925  .debug_str:000000000001484f .LASF5174
C:\Users\CYMR90~1\AppData\Local\Temp\ccsGRYiA.s:30080  .debug_str:0000000000029337 .LASF5175
C:\Users\CYMR90~1\AppData\Local\Temp\ccsGRYiA.s:28958  .debug_str:000000000002498f .LASF5176
C:\Users\CYMR90~1\AppData\Local\Temp\ccsGRYiA.s:29716  .debug_str:0000000000027afe .LASF5177
C:\Users\CYMR90~1\AppData\Local\Temp\ccsGRYiA.s:21135  .debug_str:0000000000005481 .LASF5178
C:\Users\CYMR90~1\AppData\Local\Temp\ccsGRYiA.s:25469  .debug_str:0000000000016ac2 .LASF5179
C:\Users\CYMR90~1\AppData\Local\Temp\ccsGRYiA.s:27722  .debug_str:000000000001fcf9 .LASF5180
C:\Users\CYMR90~1\AppData\Local\Temp\ccsGRYiA.s:26402  .debug_str:000000000001a9e8 .LASF5181
C:\Users\CYMR90~1\AppData\Local\Temp\ccsGRYiA.s:31006  .debug_str:000000000002cd99 .LASF5182
C:\Users\CYMR90~1\AppData\Local\Temp\ccsGRYiA.s:25590  .debug_str:000000000001741f .LASF5183
C:\Users\CYMR90~1\AppData\Local\Temp\ccsGRYiA.s:28408  .debug_str:0000000000022689 .LASF5184
C:\Users\CYMR90~1\AppData\Local\Temp\ccsGRYiA.s:23599  .debug_str:000000000000f22c .LASF5185
C:\Users\CYMR90~1\AppData\Local\Temp\ccsGRYiA.s:24297  .debug_str:0000000000011f84 .LASF5186
C:\Users\CYMR90~1\AppData\Local\Temp\ccsGRYiA.s:28326  .debug_str:00000000000221dd .LASF5187
C:\Users\CYMR90~1\AppData\Local\Temp\ccsGRYiA.s:28236  .debug_str:0000000000021c49 .LASF5188
C:\Users\CYMR90~1\AppData\Local\Temp\ccsGRYiA.s:29118  .debug_str:00000000000254d9 .LASF5189
C:\Users\CYMR90~1\AppData\Local\Temp\ccsGRYiA.s:29898  .debug_str:00000000000287ef .LASF5190
C:\Users\CYMR90~1\AppData\Local\Temp\ccsGRYiA.s:29360  .debug_str:0000000000026482 .LASF5191
C:\Users\CYMR90~1\AppData\Local\Temp\ccsGRYiA.s:24103  .debug_str:0000000000011238 .LASF5192
C:\Users\CYMR90~1\AppData\Local\Temp\ccsGRYiA.s:23013  .debug_str:000000000000cd83 .LASF5193
C:\Users\CYMR90~1\AppData\Local\Temp\ccsGRYiA.s:27884  .debug_str:00000000000206d0 .LASF5194
C:\Users\CYMR90~1\AppData\Local\Temp\ccsGRYiA.s:23677  .debug_str:000000000000f75f .LASF5195
C:\Users\CYMR90~1\AppData\Local\Temp\ccsGRYiA.s:22977  .debug_str:000000000000cb9c .LASF5196
C:\Users\CYMR90~1\AppData\Local\Temp\ccsGRYiA.s:29336  .debug_str:00000000000262e9 .LASF5197
C:\Users\CYMR90~1\AppData\Local\Temp\ccsGRYiA.s:24571  .debug_str:00000000000131ed .LASF5198
C:\Users\CYMR90~1\AppData\Local\Temp\ccsGRYiA.s:22791  .debug_str:000000000000beec .LASF5199
C:\Users\CYMR90~1\AppData\Local\Temp\ccsGRYiA.s:20697  .debug_str:0000000000003820 .LASF5200
C:\Users\CYMR90~1\AppData\Local\Temp\ccsGRYiA.s:28562  .debug_str:0000000000022fb4 .LASF5201
C:\Users\CYMR90~1\AppData\Local\Temp\ccsGRYiA.s:23681  .debug_str:000000000000f7ae .LASF5202
C:\Users\CYMR90~1\AppData\Local\Temp\ccsGRYiA.s:21197  .debug_str:000000000000583c .LASF5203
C:\Users\CYMR90~1\AppData\Local\Temp\ccsGRYiA.s:29776  .debug_str:0000000000027f50 .LASF5204
C:\Users\CYMR90~1\AppData\Local\Temp\ccsGRYiA.s:24351  .debug_str:0000000000012391 .LASF5205
C:\Users\CYMR90~1\AppData\Local\Temp\ccsGRYiA.s:20533  .debug_str:0000000000002d67 .LASF5206
C:\Users\CYMR90~1\AppData\Local\Temp\ccsGRYiA.s:29194  .debug_str:0000000000025a67 .LASF5207
C:\Users\CYMR90~1\AppData\Local\Temp\ccsGRYiA.s:29578  .debug_str:0000000000027274 .LASF5208
C:\Users\CYMR90~1\AppData\Local\Temp\ccsGRYiA.s:24119  .debug_str:000000000001130c .LASF5209
C:\Users\CYMR90~1\AppData\Local\Temp\ccsGRYiA.s:25303  .debug_str:0000000000015fca .LASF5210
C:\Users\CYMR90~1\AppData\Local\Temp\ccsGRYiA.s:28602  .debug_str:00000000000231f1 .LASF5211
C:\Users\CYMR90~1\AppData\Local\Temp\ccsGRYiA.s:27352  .debug_str:000000000001e670 .LASF5212
C:\Users\CYMR90~1\AppData\Local\Temp\ccsGRYiA.s:28254  .debug_str:0000000000021d8e .LASF5213
C:\Users\CYMR90~1\AppData\Local\Temp\ccsGRYiA.s:31030  .debug_str:000000000002cf34 .LASF5214
C:\Users\CYMR90~1\AppData\Local\Temp\ccsGRYiA.s:28438  .debug_str:0000000000022844 .LASF5215
C:\Users\CYMR90~1\AppData\Local\Temp\ccsGRYiA.s:20177  .debug_str:00000000000017e7 .LASF5216
C:\Users\CYMR90~1\AppData\Local\Temp\ccsGRYiA.s:21715  .debug_str:00000000000078c8 .LASF5217
C:\Users\CYMR90~1\AppData\Local\Temp\ccsGRYiA.s:21071  .debug_str:0000000000005085 .LASF5218
C:\Users\CYMR90~1\AppData\Local\Temp\ccsGRYiA.s:28468  .debug_str:00000000000229f6 .LASF5219
C:\Users\CYMR90~1\AppData\Local\Temp\ccsGRYiA.s:24417  .debug_str:00000000000127c7 .LASF5220
C:\Users\CYMR90~1\AppData\Local\Temp\ccsGRYiA.s:28932  .debug_str:000000000002477c .LASF5221
C:\Users\CYMR90~1\AppData\Local\Temp\ccsGRYiA.s:30216  .debug_str:0000000000029b92 .LASF5222
C:\Users\CYMR90~1\AppData\Local\Temp\ccsGRYiA.s:28520  .debug_str:0000000000022d65 .LASF5223
C:\Users\CYMR90~1\AppData\Local\Temp\ccsGRYiA.s:29160  .debug_str:0000000000025850 .LASF5224
C:\Users\CYMR90~1\AppData\Local\Temp\ccsGRYiA.s:29210  .debug_str:0000000000025b75 .LASF5225
C:\Users\CYMR90~1\AppData\Local\Temp\ccsGRYiA.s:28002  .debug_str:0000000000020e02 .LASF5226
C:\Users\CYMR90~1\AppData\Local\Temp\ccsGRYiA.s:29706  .debug_str:0000000000027a64 .LASF5227
C:\Users\CYMR90~1\AppData\Local\Temp\ccsGRYiA.s:23941  .debug_str:0000000000010846 .LASF5228
C:\Users\CYMR90~1\AppData\Local\Temp\ccsGRYiA.s:29046  .debug_str:0000000000024f23 .LASF5229
C:\Users\CYMR90~1\AppData\Local\Temp\ccsGRYiA.s:22475  .debug_str:000000000000a956 .LASF5230
C:\Users\CYMR90~1\AppData\Local\Temp\ccsGRYiA.s:23975  .debug_str:0000000000010a7d .LASF5231
C:\Users\CYMR90~1\AppData\Local\Temp\ccsGRYiA.s:30472  .debug_str:000000000002aad5 .LASF5232
C:\Users\CYMR90~1\AppData\Local\Temp\ccsGRYiA.s:22009  .debug_str:0000000000008c76 .LASF5233
C:\Users\CYMR90~1\AppData\Local\Temp\ccsGRYiA.s:22581  .debug_str:000000000000b0f0 .LASF5234
C:\Users\CYMR90~1\AppData\Local\Temp\ccsGRYiA.s:29218  .debug_str:0000000000025be6 .LASF5235
C:\Users\CYMR90~1\AppData\Local\Temp\ccsGRYiA.s:20071  .debug_str:000000000000114d .LASF5236
C:\Users\CYMR90~1\AppData\Local\Temp\ccsGRYiA.s:25381  .debug_str:0000000000016494 .LASF5237
C:\Users\CYMR90~1\AppData\Local\Temp\ccsGRYiA.s:24933  .debug_str:00000000000148ce .LASF5238
C:\Users\CYMR90~1\AppData\Local\Temp\ccsGRYiA.s:29702  .debug_str:0000000000027a1c .LASF5239
C:\Users\CYMR90~1\AppData\Local\Temp\ccsGRYiA.s:23439  .debug_str:000000000000e875 .LASF5240
C:\Users\CYMR90~1\AppData\Local\Temp\ccsGRYiA.s:25920  .debug_str:000000000001881c .LASF5241
C:\Users\CYMR90~1\AppData\Local\Temp\ccsGRYiA.s:27374  .debug_str:000000000001e820 .LASF5242
C:\Users\CYMR90~1\AppData\Local\Temp\ccsGRYiA.s:24171  .debug_str:000000000001168e .LASF5243
C:\Users\CYMR90~1\AppData\Local\Temp\ccsGRYiA.s:27674  .debug_str:000000000001f9db .LASF5244
C:\Users\CYMR90~1\AppData\Local\Temp\ccsGRYiA.s:21053  .debug_str:0000000000004f70 .LASF5245
C:\Users\CYMR90~1\AppData\Local\Temp\ccsGRYiA.s:24711  .debug_str:0000000000013af9 .LASF5246
C:\Users\CYMR90~1\AppData\Local\Temp\ccsGRYiA.s:27716  .debug_str:000000000001fc62 .LASF5247
C:\Users\CYMR90~1\AppData\Local\Temp\ccsGRYiA.s:23295  .debug_str:000000000000df78 .LASF5248
C:\Users\CYMR90~1\AppData\Local\Temp\ccsGRYiA.s:26946  .debug_str:000000000001cc2f .LASF5249
C:\Users\CYMR90~1\AppData\Local\Temp\ccsGRYiA.s:23419  .debug_str:000000000000e72f .LASF5250
C:\Users\CYMR90~1\AppData\Local\Temp\ccsGRYiA.s:30114  .debug_str:0000000000029586 .LASF5251
C:\Users\CYMR90~1\AppData\Local\Temp\ccsGRYiA.s:30872  .debug_str:000000000002c4ee .LASF5252
C:\Users\CYMR90~1\AppData\Local\Temp\ccsGRYiA.s:23449  .debug_str:000000000000e8e9 .LASF5253
C:\Users\CYMR90~1\AppData\Local\Temp\ccsGRYiA.s:20149  .debug_str:00000000000015a1 .LASF5254
C:\Users\CYMR90~1\AppData\Local\Temp\ccsGRYiA.s:28870  .debug_str:00000000000243a3 .LASF5255
C:\Users\CYMR90~1\AppData\Local\Temp\ccsGRYiA.s:29532  .debug_str:0000000000026f14 .LASF5256
C:\Users\CYMR90~1\AppData\Local\Temp\ccsGRYiA.s:26444  .debug_str:000000000001ac7f .LASF5257
C:\Users\CYMR90~1\AppData\Local\Temp\ccsGRYiA.s:27424  .debug_str:000000000001eb02 .LASF5258
C:\Users\CYMR90~1\AppData\Local\Temp\ccsGRYiA.s:20001  .debug_str:0000000000000cc3 .LASF5259
C:\Users\CYMR90~1\AppData\Local\Temp\ccsGRYiA.s:28020  .debug_str:0000000000020ee9 .LASF5260
C:\Users\CYMR90~1\AppData\Local\Temp\ccsGRYiA.s:22925  .debug_str:000000000000c7bb .LASF5261
C:\Users\CYMR90~1\AppData\Local\Temp\ccsGRYiA.s:25249  .debug_str:0000000000015bef .LASF5262
C:\Users\CYMR90~1\AppData\Local\Temp\ccsGRYiA.s:23703  .debug_str:000000000000f905 .LASF5263
C:\Users\CYMR90~1\AppData\Local\Temp\ccsGRYiA.s:25858  .debug_str:000000000001848a .LASF5264
C:\Users\CYMR90~1\AppData\Local\Temp\ccsGRYiA.s:30372  .debug_str:000000000002a508 .LASF5265
C:\Users\CYMR90~1\AppData\Local\Temp\ccsGRYiA.s:24641  .debug_str:00000000000136cd .LASF5266
C:\Users\CYMR90~1\AppData\Local\Temp\ccsGRYiA.s:27604  .debug_str:000000000001f5c2 .LASF5267
C:\Users\CYMR90~1\AppData\Local\Temp\ccsGRYiA.s:21693  .debug_str:000000000000776d .LASF5268
C:\Users\CYMR90~1\AppData\Local\Temp\ccsGRYiA.s:29080  .debug_str:0000000000025272 .LASF5269
C:\Users\CYMR90~1\AppData\Local\Temp\ccsGRYiA.s:21567  .debug_str:0000000000006f18 .LASF5270
C:\Users\CYMR90~1\AppData\Local\Temp\ccsGRYiA.s:29612  .debug_str:0000000000027463 .LASF5271
C:\Users\CYMR90~1\AppData\Local\Temp\ccsGRYiA.s:30092  .debug_str:00000000000293f2 .LASF5272
C:\Users\CYMR90~1\AppData\Local\Temp\ccsGRYiA.s:28350  .debug_str:0000000000022338 .LASF5273
C:\Users\CYMR90~1\AppData\Local\Temp\ccsGRYiA.s:25159  .debug_str:0000000000015688 .LASF5274
C:\Users\CYMR90~1\AppData\Local\Temp\ccsGRYiA.s:22015  .debug_str:0000000000008cbd .LASF5275
C:\Users\CYMR90~1\AppData\Local\Temp\ccsGRYiA.s:20615  .debug_str:00000000000032bc .LASF5276
C:\Users\CYMR90~1\AppData\Local\Temp\ccsGRYiA.s:30782  .debug_str:000000000002bf0b .LASF5277
C:\Users\CYMR90~1\AppData\Local\Temp\ccsGRYiA.s:22195  .debug_str:00000000000097b7 .LASF5278
C:\Users\CYMR90~1\AppData\Local\Temp\ccsGRYiA.s:22019  .debug_str:0000000000008ce4 .LASF5279
C:\Users\CYMR90~1\AppData\Local\Temp\ccsGRYiA.s:30280  .debug_str:0000000000029f61 .LASF5280
C:\Users\CYMR90~1\AppData\Local\Temp\ccsGRYiA.s:23541  .debug_str:000000000000ee99 .LASF5281
C:\Users\CYMR90~1\AppData\Local\Temp\ccsGRYiA.s:29982  .debug_str:0000000000028d5b .LASF5282
C:\Users\CYMR90~1\AppData\Local\Temp\ccsGRYiA.s:22131  .debug_str:00000000000093bc .LASF5283
C:\Users\CYMR90~1\AppData\Local\Temp\ccsGRYiA.s:30672  .debug_str:000000000002b7a8 .LASF5284
C:\Users\CYMR90~1\AppData\Local\Temp\ccsGRYiA.s:28174  .debug_str:0000000000021880 .LASF5285
C:\Users\CYMR90~1\AppData\Local\Temp\ccsGRYiA.s:23685  .debug_str:000000000000f804 .LASF5286
C:\Users\CYMR90~1\AppData\Local\Temp\ccsGRYiA.s:20893  .debug_str:00000000000044f7 .LASF5287
C:\Users\CYMR90~1\AppData\Local\Temp\ccsGRYiA.s:26404  .debug_str:000000000001aa0f .LASF5288
C:\Users\CYMR90~1\AppData\Local\Temp\ccsGRYiA.s:24037  .debug_str:0000000000010e82 .LASF5289
C:\Users\CYMR90~1\AppData\Local\Temp\ccsGRYiA.s:23623  .debug_str:000000000000f3c2 .LASF5290
C:\Users\CYMR90~1\AppData\Local\Temp\ccsGRYiA.s:19907  .debug_str:00000000000006c0 .LASF5291
C:\Users\CYMR90~1\AppData\Local\Temp\ccsGRYiA.s:19853  .debug_str:00000000000003a7 .LASF5292
C:\Users\CYMR90~1\AppData\Local\Temp\ccsGRYiA.s:20203  .debug_str:0000000000001991 .LASF5293
C:\Users\CYMR90~1\AppData\Local\Temp\ccsGRYiA.s:28686  .debug_str:000000000002379d .LASF5294
C:\Users\CYMR90~1\AppData\Local\Temp\ccsGRYiA.s:29332  .debug_str:00000000000262a8 .LASF5295
C:\Users\CYMR90~1\AppData\Local\Temp\ccsGRYiA.s:24519  .debug_str:0000000000012e6d .LASF5296
C:\Users\CYMR90~1\AppData\Local\Temp\ccsGRYiA.s:26438  .debug_str:000000000001ac40 .LASF5297
C:\Users\CYMR90~1\AppData\Local\Temp\ccsGRYiA.s:20489  .debug_str:0000000000002ac0 .LASF5298
C:\Users\CYMR90~1\AppData\Local\Temp\ccsGRYiA.s:25255  .debug_str:0000000000015c88 .LASF5299
C:\Users\CYMR90~1\AppData\Local\Temp\ccsGRYiA.s:27802  .debug_str:00000000000201bf .LASF5300
C:\Users\CYMR90~1\AppData\Local\Temp\ccsGRYiA.s:27136  .debug_str:000000000001d9c7 .LASF5301
C:\Users\CYMR90~1\AppData\Local\Temp\ccsGRYiA.s:21925  .debug_str:0000000000008739 .LASF5302
C:\Users\CYMR90~1\AppData\Local\Temp\ccsGRYiA.s:28494  .debug_str:0000000000022bea .LASF5303
C:\Users\CYMR90~1\AppData\Local\Temp\ccsGRYiA.s:27782  .debug_str:00000000000200af .LASF5304
C:\Users\CYMR90~1\AppData\Local\Temp\ccsGRYiA.s:20951  .debug_str:000000000000495c .LASF5305
C:\Users\CYMR90~1\AppData\Local\Temp\ccsGRYiA.s:21383  .debug_str:00000000000063bc .LASF5306
C:\Users\CYMR90~1\AppData\Local\Temp\ccsGRYiA.s:28450  .debug_str:0000000000022913 .LASF5307
C:\Users\CYMR90~1\AppData\Local\Temp\ccsGRYiA.s:30166  .debug_str:0000000000029891 .LASF5308
C:\Users\CYMR90~1\AppData\Local\Temp\ccsGRYiA.s:26030  .debug_str:0000000000019003 .LASF5309
C:\Users\CYMR90~1\AppData\Local\Temp\ccsGRYiA.s:22827  .debug_str:000000000000c150 .LASF5310
C:\Users\CYMR90~1\AppData\Local\Temp\ccsGRYiA.s:24039  .debug_str:0000000000010e9a .LASF5311
C:\Users\CYMR90~1\AppData\Local\Temp\ccsGRYiA.s:22649  .debug_str:000000000000b562 .LASF5312
C:\Users\CYMR90~1\AppData\Local\Temp\ccsGRYiA.s:27890  .debug_str:0000000000020766 .LASF5313
C:\Users\CYMR90~1\AppData\Local\Temp\ccsGRYiA.s:24717  .debug_str:0000000000013b57 .LASF5314
C:\Users\CYMR90~1\AppData\Local\Temp\ccsGRYiA.s:30118  .debug_str:00000000000295dc .LASF5315
C:\Users\CYMR90~1\AppData\Local\Temp\ccsGRYiA.s:23861  .debug_str:00000000000102ef .LASF5316
C:\Users\CYMR90~1\AppData\Local\Temp\ccsGRYiA.s:23083  .debug_str:000000000000d280 .LASF5317
C:\Users\CYMR90~1\AppData\Local\Temp\ccsGRYiA.s:27514  .debug_str:000000000001f073 .LASF5318
C:\Users\CYMR90~1\AppData\Local\Temp\ccsGRYiA.s:30696  .debug_str:000000000002b933 .LASF5319
C:\Users\CYMR90~1\AppData\Local\Temp\ccsGRYiA.s:28474  .debug_str:0000000000022ae2 .LASF5320
C:\Users\CYMR90~1\AppData\Local\Temp\ccsGRYiA.s:28614  .debug_str:00000000000232c0 .LASF5321
C:\Users\CYMR90~1\AppData\Local\Temp\ccsGRYiA.s:22625  .debug_str:000000000000b347 .LASF5322
C:\Users\CYMR90~1\AppData\Local\Temp\ccsGRYiA.s:28738  .debug_str:0000000000023a77 .LASF5323
C:\Users\CYMR90~1\AppData\Local\Temp\ccsGRYiA.s:28354  .debug_str:0000000000022369 .LASF5324
C:\Users\CYMR90~1\AppData\Local\Temp\ccsGRYiA.s:27204  .debug_str:000000000001dd95 .LASF5325
C:\Users\CYMR90~1\AppData\Local\Temp\ccsGRYiA.s:25818  .debug_str:0000000000018236 .LASF5326
C:\Users\CYMR90~1\AppData\Local\Temp\ccsGRYiA.s:28226  .debug_str:0000000000021bc0 .LASF5327
C:\Users\CYMR90~1\AppData\Local\Temp\ccsGRYiA.s:27820  .debug_str:00000000000202af .LASF5328
C:\Users\CYMR90~1\AppData\Local\Temp\ccsGRYiA.s:21767  .debug_str:0000000000007c2c .LASF5329
C:\Users\CYMR90~1\AppData\Local\Temp\ccsGRYiA.s:21207  .debug_str:00000000000058f4 .LASF5330
C:\Users\CYMR90~1\AppData\Local\Temp\ccsGRYiA.s:21519  .debug_str:0000000000006c01 .LASF5331
C:\Users\CYMR90~1\AppData\Local\Temp\ccsGRYiA.s:22965  .debug_str:000000000000cae5 .LASF5332
C:\Users\CYMR90~1\AppData\Local\Temp\ccsGRYiA.s:24319  .debug_str:0000000000012193 .LASF5333
C:\Users\CYMR90~1\AppData\Local\Temp\ccsGRYiA.s:22719  .debug_str:000000000000ba04 .LASF5334
C:\Users\CYMR90~1\AppData\Local\Temp\ccsGRYiA.s:29722  .debug_str:0000000000027baf .LASF5335
C:\Users\CYMR90~1\AppData\Local\Temp\ccsGRYiA.s:29316  .debug_str:00000000000261ce .LASF5336
C:\Users\CYMR90~1\AppData\Local\Temp\ccsGRYiA.s:25069  .debug_str:000000000001517f .LASF5337
C:\Users\CYMR90~1\AppData\Local\Temp\ccsGRYiA.s:27670  .debug_str:000000000001f9b3 .LASF5338
C:\Users\CYMR90~1\AppData\Local\Temp\ccsGRYiA.s:24631  .debug_str:0000000000013632 .LASF5339
C:\Users\CYMR90~1\AppData\Local\Temp\ccsGRYiA.s:30850  .debug_str:000000000002c3c4 .LASF5340
C:\Users\CYMR90~1\AppData\Local\Temp\ccsGRYiA.s:27176  .debug_str:000000000001dbf8 .LASF5341
C:\Users\CYMR90~1\AppData\Local\Temp\ccsGRYiA.s:27908  .debug_str:0000000000020855 .LASF5342
C:\Users\CYMR90~1\AppData\Local\Temp\ccsGRYiA.s:28070  .debug_str:00000000000211b6 .LASF5343
C:\Users\CYMR90~1\AppData\Local\Temp\ccsGRYiA.s:23045  .debug_str:000000000000cfb8 .LASF5344
C:\Users\CYMR90~1\AppData\Local\Temp\ccsGRYiA.s:27124  .debug_str:000000000001d8e1 .LASF5345
C:\Users\CYMR90~1\AppData\Local\Temp\ccsGRYiA.s:25700  .debug_str:0000000000017b35 .LASF5346
C:\Users\CYMR90~1\AppData\Local\Temp\ccsGRYiA.s:24875  .debug_str:00000000000144e1 .LASF5347
C:\Users\CYMR90~1\AppData\Local\Temp\ccsGRYiA.s:20559  .debug_str:0000000000002efe .LASF5348
C:\Users\CYMR90~1\AppData\Local\Temp\ccsGRYiA.s:25077  .debug_str:00000000000151fd .LASF5349
C:\Users\CYMR90~1\AppData\Local\Temp\ccsGRYiA.s:23109  .debug_str:000000000000d492 .LASF5350
C:\Users\CYMR90~1\AppData\Local\Temp\ccsGRYiA.s:24745  .debug_str:0000000000013d1e .LASF5351
C:\Users\CYMR90~1\AppData\Local\Temp\ccsGRYiA.s:27006  .debug_str:000000000001d143 .LASF5352
C:\Users\CYMR90~1\AppData\Local\Temp\ccsGRYiA.s:22311  .debug_str:0000000000009f53 .LASF5353
C:\Users\CYMR90~1\AppData\Local\Temp\ccsGRYiA.s:29060  .debug_str:000000000002507e .LASF5354
C:\Users\CYMR90~1\AppData\Local\Temp\ccsGRYiA.s:27036  .debug_str:000000000001d332 .LASF5355
C:\Users\CYMR90~1\AppData\Local\Temp\ccsGRYiA.s:30936  .debug_str:000000000002c957 .LASF5356
C:\Users\CYMR90~1\AppData\Local\Temp\ccsGRYiA.s:25259  .debug_str:0000000000015cae .LASF5357
C:\Users\CYMR90~1\AppData\Local\Temp\ccsGRYiA.s:22343  .debug_str:000000000000a13e .LASF5358
C:\Users\CYMR90~1\AppData\Local\Temp\ccsGRYiA.s:23147  .debug_str:000000000000d6d7 .LASF5359
C:\Users\CYMR90~1\AppData\Local\Temp\ccsGRYiA.s:27792  .debug_str:0000000000020125 .LASF5360
C:\Users\CYMR90~1\AppData\Local\Temp\ccsGRYiA.s:29154  .debug_str:00000000000257df .LASF5361
C:\Users\CYMR90~1\AppData\Local\Temp\ccsGRYiA.s:22943  .debug_str:000000000000c8dc .LASF5362
C:\Users\CYMR90~1\AppData\Local\Temp\ccsGRYiA.s:22373  .debug_str:000000000000a323 .LASF5363
C:\Users\CYMR90~1\AppData\Local\Temp\ccsGRYiA.s:26492  .debug_str:000000000001afa5 .LASF5364
C:\Users\CYMR90~1\AppData\Local\Temp\ccsGRYiA.s:23761  .debug_str:000000000000fc73 .LASF5365
C:\Users\CYMR90~1\AppData\Local\Temp\ccsGRYiA.s:25974  .debug_str:0000000000018bac .LASF5366
C:\Users\CYMR90~1\AppData\Local\Temp\ccsGRYiA.s:22911  .debug_str:000000000000c668 .LASF5367
C:\Users\CYMR90~1\AppData\Local\Temp\ccsGRYiA.s:23047  .debug_str:000000000000cfd0 .LASF5368
C:\Users\CYMR90~1\AppData\Local\Temp\ccsGRYiA.s:24123  .debug_str:0000000000011350 .LASF5369
C:\Users\CYMR90~1\AppData\Local\Temp\ccsGRYiA.s:27170  .debug_str:000000000001db97 .LASF5370
C:\Users\CYMR90~1\AppData\Local\Temp\ccsGRYiA.s:22099  .debug_str:00000000000091e8 .LASF5371
C:\Users\CYMR90~1\AppData\Local\Temp\ccsGRYiA.s:22167  .debug_str:0000000000009618 .LASF5372
C:\Users\CYMR90~1\AppData\Local\Temp\ccsGRYiA.s:27060  .debug_str:000000000001d49f .LASF5373
C:\Users\CYMR90~1\AppData\Local\Temp\ccsGRYiA.s:25634  .debug_str:00000000000176b8 .LASF5374
C:\Users\CYMR90~1\AppData\Local\Temp\ccsGRYiA.s:28372  .debug_str:0000000000022443 .LASF5375
C:\Users\CYMR90~1\AppData\Local\Temp\ccsGRYiA.s:19805  .debug_str:00000000000000a6 .LASF5376
C:\Users\CYMR90~1\AppData\Local\Temp\ccsGRYiA.s:27756  .debug_str:000000000001ff33 .LASF5377
C:\Users\CYMR90~1\AppData\Local\Temp\ccsGRYiA.s:31008  .debug_str:000000000002cdc0 .LASF5378
C:\Users\CYMR90~1\AppData\Local\Temp\ccsGRYiA.s:27200  .debug_str:000000000001dd5c .LASF5379
C:\Users\CYMR90~1\AppData\Local\Temp\ccsGRYiA.s:21261  .debug_str:0000000000005c0e .LASF5380
C:\Users\CYMR90~1\AppData\Local\Temp\ccsGRYiA.s:20423  .debug_str:0000000000002677 .LASF5381
C:\Users\CYMR90~1\AppData\Local\Temp\ccsGRYiA.s:27992  .debug_str:0000000000020d65 .LASF5382
C:\Users\CYMR90~1\AppData\Local\Temp\ccsGRYiA.s:29846  .debug_str:0000000000028474 .LASF5383
C:\Users\CYMR90~1\AppData\Local\Temp\ccsGRYiA.s:19897  .debug_str:00000000000005ea .LASF5384
C:\Users\CYMR90~1\AppData\Local\Temp\ccsGRYiA.s:24345  .debug_str:0000000000012313 .LASF5385
C:\Users\CYMR90~1\AppData\Local\Temp\ccsGRYiA.s:27256  .debug_str:000000000001e0c8 .LASF5386
C:\Users\CYMR90~1\AppData\Local\Temp\ccsGRYiA.s:24317  .debug_str:000000000001217a .LASF5387
C:\Users\CYMR90~1\AppData\Local\Temp\ccsGRYiA.s:21389  .debug_str:000000000000641e .LASF5388
C:\Users\CYMR90~1\AppData\Local\Temp\ccsGRYiA.s:27494  .debug_str:000000000001ef03 .LASF5389
C:\Users\CYMR90~1\AppData\Local\Temp\ccsGRYiA.s:25648  .debug_str:00000000000177bd .LASF5390
C:\Users\CYMR90~1\AppData\Local\Temp\ccsGRYiA.s:20153  .debug_str:00000000000015e7 .LASF5391
C:\Users\CYMR90~1\AppData\Local\Temp\ccsGRYiA.s:27708  .debug_str:000000000001fc01 .LASF5392
C:\Users\CYMR90~1\AppData\Local\Temp\ccsGRYiA.s:20503  .debug_str:0000000000002bb2 .LASF5393
C:\Users\CYMR90~1\AppData\Local\Temp\ccsGRYiA.s:28634  .debug_str:00000000000233e9 .LASF5394
C:\Users\CYMR90~1\AppData\Local\Temp\ccsGRYiA.s:20111  .debug_str:0000000000001365 .LASF5395
C:\Users\CYMR90~1\AppData\Local\Temp\ccsGRYiA.s:29478  .debug_str:0000000000026ba6 .LASF5396
C:\Users\CYMR90~1\AppData\Local\Temp\ccsGRYiA.s:25313  .debug_str:0000000000016080 .LASF5397
C:\Users\CYMR90~1\AppData\Local\Temp\ccsGRYiA.s:20717  .debug_str:0000000000003942 .LASF5398
C:\Users\CYMR90~1\AppData\Local\Temp\ccsGRYiA.s:22589  .debug_str:000000000000b15c .LASF5399
C:\Users\CYMR90~1\AppData\Local\Temp\ccsGRYiA.s:28786  .debug_str:0000000000023d51 .LASF5400
C:\Users\CYMR90~1\AppData\Local\Temp\ccsGRYiA.s:21289  .debug_str:0000000000005dd4 .LASF5401
C:\Users\CYMR90~1\AppData\Local\Temp\ccsGRYiA.s:29622  .debug_str:00000000000274f4 .LASF5402
C:\Users\CYMR90~1\AppData\Local\Temp\ccsGRYiA.s:21865  .debug_str:0000000000008382 .LASF5403
C:\Users\CYMR90~1\AppData\Local\Temp\ccsGRYiA.s:30570  .debug_str:000000000002b0ae .LASF5404
C:\Users\CYMR90~1\AppData\Local\Temp\ccsGRYiA.s:27786  .debug_str:00000000000200da .LASF5405
C:\Users\CYMR90~1\AppData\Local\Temp\ccsGRYiA.s:26124  .debug_str:000000000001965f .LASF5406
C:\Users\CYMR90~1\AppData\Local\Temp\ccsGRYiA.s:20035  .debug_str:0000000000000f2b .LASF5407
C:\Users\CYMR90~1\AppData\Local\Temp\ccsGRYiA.s:27618  .debug_str:000000000001f691 .LASF5408
C:\Users\CYMR90~1\AppData\Local\Temp\ccsGRYiA.s:21235  .debug_str:0000000000005a77 .LASF5409
C:\Users\CYMR90~1\AppData\Local\Temp\ccsGRYiA.s:30538  .debug_str:000000000002aea5 .LASF5410
C:\Users\CYMR90~1\AppData\Local\Temp\ccsGRYiA.s:25379  .debug_str:0000000000016477 .LASF5411
C:\Users\CYMR90~1\AppData\Local\Temp\ccsGRYiA.s:25179  .debug_str:00000000000157b6 .LASF5412
C:\Users\CYMR90~1\AppData\Local\Temp\ccsGRYiA.s:26196  .debug_str:0000000000019b7a .LASF5413
C:\Users\CYMR90~1\AppData\Local\Temp\ccsGRYiA.s:29378  .debug_str:00000000000265a2 .LASF5414
C:\Users\CYMR90~1\AppData\Local\Temp\ccsGRYiA.s:28950  .debug_str:000000000002492e .LASF5415
C:\Users\CYMR90~1\AppData\Local\Temp\ccsGRYiA.s:30516  .debug_str:000000000002ad65 .LASF5416
C:\Users\CYMR90~1\AppData\Local\Temp\ccsGRYiA.s:20765  .debug_str:0000000000003c4e .LASF5417
C:\Users\CYMR90~1\AppData\Local\Temp\ccsGRYiA.s:27416  .debug_str:000000000001ea99 .LASF5418
C:\Users\CYMR90~1\AppData\Local\Temp\ccsGRYiA.s:26706  .debug_str:000000000001bce1 .LASF5419
C:\Users\CYMR90~1\AppData\Local\Temp\ccsGRYiA.s:24543  .debug_str:0000000000012ffc .LASF5420
C:\Users\CYMR90~1\AppData\Local\Temp\ccsGRYiA.s:30272  .debug_str:0000000000029ef2 .LASF5421
C:\Users\CYMR90~1\AppData\Local\Temp\ccsGRYiA.s:28200  .debug_str:0000000000021a0e .LASF5422
C:\Users\CYMR90~1\AppData\Local\Temp\ccsGRYiA.s:22189  .debug_str:000000000000974c .LASF5423
C:\Users\CYMR90~1\AppData\Local\Temp\ccsGRYiA.s:30918  .debug_str:000000000002c830 .LASF5424
C:\Users\CYMR90~1\AppData\Local\Temp\ccsGRYiA.s:29990  .debug_str:0000000000028db3 .LASF5425
C:\Users\CYMR90~1\AppData\Local\Temp\ccsGRYiA.s:20603  .debug_str:00000000000031e2 .LASF5426
C:\Users\CYMR90~1\AppData\Local\Temp\ccsGRYiA.s:28152  .debug_str:0000000000021748 .LASF5427
C:\Users\CYMR90~1\AppData\Local\Temp\ccsGRYiA.s:30884  .debug_str:000000000002c5c0 .LASF5428
C:\Users\CYMR90~1\AppData\Local\Temp\ccsGRYiA.s:27394  .debug_str:000000000001e942 .LASF5429
C:\Users\CYMR90~1\AppData\Local\Temp\ccsGRYiA.s:30234  .debug_str:0000000000029c9e .LASF5430
C:\Users\CYMR90~1\AppData\Local\Temp\ccsGRYiA.s:25253  .debug_str:0000000000015c68 .LASF5431
C:\Users\CYMR90~1\AppData\Local\Temp\ccsGRYiA.s:27330  .debug_str:000000000001e541 .LASF5432
C:\Users\CYMR90~1\AppData\Local\Temp\ccsGRYiA.s:23655  .debug_str:000000000000f58d .LASF5433
C:\Users\CYMR90~1\AppData\Local\Temp\ccsGRYiA.s:23643  .debug_str:000000000000f4e0 .LASF5434
C:\Users\CYMR90~1\AppData\Local\Temp\ccsGRYiA.s:27688  .debug_str:000000000001fad1 .LASF5435
C:\Users\CYMR90~1\AppData\Local\Temp\ccsGRYiA.s:29370  .debug_str:0000000000026528 .LASF5436
C:\Users\CYMR90~1\AppData\Local\Temp\ccsGRYiA.s:20187  .debug_str:000000000000189e .LASF5437
C:\Users\CYMR90~1\AppData\Local\Temp\ccsGRYiA.s:26372  .debug_str:000000000001a786 .LASF5438
C:\Users\CYMR90~1\AppData\Local\Temp\ccsGRYiA.s:19989  .debug_str:0000000000000c20 .LASF5439
C:\Users\CYMR90~1\AppData\Local\Temp\ccsGRYiA.s:25463  .debug_str:0000000000016a5b .LASF5440
C:\Users\CYMR90~1\AppData\Local\Temp\ccsGRYiA.s:20301  .debug_str:0000000000001f68 .LASF5441
C:\Users\CYMR90~1\AppData\Local\Temp\ccsGRYiA.s:20625  .debug_str:000000000000336b .LASF5442
C:\Users\CYMR90~1\AppData\Local\Temp\ccsGRYiA.s:23395  .debug_str:000000000000e57a .LASF5443
C:\Users\CYMR90~1\AppData\Local\Temp\ccsGRYiA.s:24125  .debug_str:0000000000011372 .LASF5444
C:\Users\CYMR90~1\AppData\Local\Temp\ccsGRYiA.s:22523  .debug_str:000000000000ac68 .LASF5445
C:\Users\CYMR90~1\AppData\Local\Temp\ccsGRYiA.s:20815  .debug_str:0000000000003f93 .LASF5446
C:\Users\CYMR90~1\AppData\Local\Temp\ccsGRYiA.s:30628  .debug_str:000000000002b484 .LASF5447
C:\Users\CYMR90~1\AppData\Local\Temp\ccsGRYiA.s:22351  .debug_str:000000000000a1ca .LASF5448
C:\Users\CYMR90~1\AppData\Local\Temp\ccsGRYiA.s:27936  .debug_str:00000000000209d0 .LASF5449
C:\Users\CYMR90~1\AppData\Local\Temp\ccsGRYiA.s:28628  .debug_str:0000000000023393 .LASF5450
C:\Users\CYMR90~1\AppData\Local\Temp\ccsGRYiA.s:30664  .debug_str:000000000002b714 .LASF5451
C:\Users\CYMR90~1\AppData\Local\Temp\ccsGRYiA.s:20093  .debug_str:0000000000001271 .LASF5452
C:\Users\CYMR90~1\AppData\Local\Temp\ccsGRYiA.s:29282  .debug_str:0000000000025fd7 .LASF5453
C:\Users\CYMR90~1\AppData\Local\Temp\ccsGRYiA.s:28266  .debug_str:0000000000021e4b .LASF5454
C:\Users\CYMR90~1\AppData\Local\Temp\ccsGRYiA.s:27202  .debug_str:000000000001dd7e .LASF5455
C:\Users\CYMR90~1\AppData\Local\Temp\ccsGRYiA.s:23823  .debug_str:000000000001005b .LASF5456
C:\Users\CYMR90~1\AppData\Local\Temp\ccsGRYiA.s:20271  .debug_str:0000000000001dac .LASF5457
C:\Users\CYMR90~1\AppData\Local\Temp\ccsGRYiA.s:26472  .debug_str:000000000001ae2d .LASF5458
C:\Users\CYMR90~1\AppData\Local\Temp\ccsGRYiA.s:23269  .debug_str:000000000000de03 .LASF5459
C:\Users\CYMR90~1\AppData\Local\Temp\ccsGRYiA.s:24817  .debug_str:0000000000014162 .LASF5460
C:\Users\CYMR90~1\AppData\Local\Temp\ccsGRYiA.s:29856  .debug_str:000000000002852c .LASF5461
C:\Users\CYMR90~1\AppData\Local\Temp\ccsGRYiA.s:30780  .debug_str:000000000002bed2 .LASF5462
C:\Users\CYMR90~1\AppData\Local\Temp\ccsGRYiA.s:23245  .debug_str:000000000000dc77 .LASF5463
C:\Users\CYMR90~1\AppData\Local\Temp\ccsGRYiA.s:23271  .debug_str:000000000000de2d .LASF5464
C:\Users\CYMR90~1\AppData\Local\Temp\ccsGRYiA.s:21781  .debug_str:0000000000007da1 .LASF5465
C:\Users\CYMR90~1\AppData\Local\Temp\ccsGRYiA.s:22135  .debug_str:00000000000093ff .LASF5466
C:\Users\CYMR90~1\AppData\Local\Temp\ccsGRYiA.s:30258  .debug_str:0000000000029df0 .LASF5467
C:\Users\CYMR90~1\AppData\Local\Temp\ccsGRYiA.s:27034  .debug_str:000000000001d30f .LASF5468
C:\Users\CYMR90~1\AppData\Local\Temp\ccsGRYiA.s:26600  .debug_str:000000000001b67b .LASF5469
C:\Users\CYMR90~1\AppData\Local\Temp\ccsGRYiA.s:23947  .debug_str:00000000000108a9 .LASF5470
C:\Users\CYMR90~1\AppData\Local\Temp\ccsGRYiA.s:24771  .debug_str:0000000000013e6c .LASF5471
C:\Users\CYMR90~1\AppData\Local\Temp\ccsGRYiA.s:30878  .debug_str:000000000002c561 .LASF5472
C:\Users\CYMR90~1\AppData\Local\Temp\ccsGRYiA.s:30442  .debug_str:000000000002a91d .LASF5473
C:\Users\CYMR90~1\AppData\Local\Temp\ccsGRYiA.s:21733  .debug_str:00000000000079e4 .LASF5474
C:\Users\CYMR90~1\AppData\Local\Temp\ccsGRYiA.s:26630  .debug_str:000000000001b86a .LASF5475
C:\Users\CYMR90~1\AppData\Local\Temp\ccsGRYiA.s:24381  .debug_str:000000000001255b .LASF5476
C:\Users\CYMR90~1\AppData\Local\Temp\ccsGRYiA.s:28824  .debug_str:0000000000023f6e .LASF5477
C:\Users\CYMR90~1\AppData\Local\Temp\ccsGRYiA.s:21885  .debug_str:00000000000084f8 .LASF5478
C:\Users\CYMR90~1\AppData\Local\Temp\ccsGRYiA.s:21999  .debug_str:0000000000008bdb .LASF5479
C:\Users\CYMR90~1\AppData\Local\Temp\ccsGRYiA.s:23015  .debug_str:000000000000cdb3 .LASF5480
C:\Users\CYMR90~1\AppData\Local\Temp\ccsGRYiA.s:21785  .debug_str:0000000000007dd6 .LASF5481
C:\Users\CYMR90~1\AppData\Local\Temp\ccsGRYiA.s:20903  .debug_str:00000000000045ad .LASF5482
C:\Users\CYMR90~1\AppData\Local\Temp\ccsGRYiA.s:30698  .debug_str:000000000002b94b .LASF5483
C:\Users\CYMR90~1\AppData\Local\Temp\ccsGRYiA.s:29138  .debug_str:0000000000025669 .LASF5484
C:\Users\CYMR90~1\AppData\Local\Temp\ccsGRYiA.s:21975  .debug_str:0000000000008a58 .LASF5485
C:\Users\CYMR90~1\AppData\Local\Temp\ccsGRYiA.s:29592  .debug_str:0000000000027345 .LASF5486
C:\Users\CYMR90~1\AppData\Local\Temp\ccsGRYiA.s:21921  .debug_str:00000000000086ef .LASF5487
C:\Users\CYMR90~1\AppData\Local\Temp\ccsGRYiA.s:25848  .debug_str:0000000000018404 .LASF5488
C:\Users\CYMR90~1\AppData\Local\Temp\ccsGRYiA.s:20973  .debug_str:0000000000004aa8 .LASF5489
C:\Users\CYMR90~1\AppData\Local\Temp\ccsGRYiA.s:30752  .debug_str:000000000002bd31 .LASF5490
C:\Users\CYMR90~1\AppData\Local\Temp\ccsGRYiA.s:30972  .debug_str:000000000002cbd9 .LASF5491
C:\Users\CYMR90~1\AppData\Local\Temp\ccsGRYiA.s:27988  .debug_str:0000000000020d30 .LASF5492
C:\Users\CYMR90~1\AppData\Local\Temp\ccsGRYiA.s:24881  .debug_str:000000000001452d .LASF5493
C:\Users\CYMR90~1\AppData\Local\Temp\ccsGRYiA.s:22159  .debug_str:00000000000095a1 .LASF5494
C:\Users\CYMR90~1\AppData\Local\Temp\ccsGRYiA.s:25538  .debug_str:000000000001713a .LASF5495
C:\Users\CYMR90~1\AppData\Local\Temp\ccsGRYiA.s:24735  .debug_str:0000000000013c71 .LASF5496
C:\Users\CYMR90~1\AppData\Local\Temp\ccsGRYiA.s:21111  .debug_str:000000000000530e .LASF5497
C:\Users\CYMR90~1\AppData\Local\Temp\ccsGRYiA.s:29444  .debug_str:00000000000269db .LASF5498
C:\Users\CYMR90~1\AppData\Local\Temp\ccsGRYiA.s:29438  .debug_str:0000000000026989 .LASF5499
C:\Users\CYMR90~1\AppData\Local\Temp\ccsGRYiA.s:19865  .debug_str:000000000000043e .LASF5500
C:\Users\CYMR90~1\AppData\Local\Temp\ccsGRYiA.s:25239  .debug_str:0000000000015b3d .LASF5501
C:\Users\CYMR90~1\AppData\Local\Temp\ccsGRYiA.s:28416  .debug_str:000000000002271b .LASF5502
C:\Users\CYMR90~1\AppData\Local\Temp\ccsGRYiA.s:22425  .debug_str:000000000000a670 .LASF5503
C:\Users\CYMR90~1\AppData\Local\Temp\ccsGRYiA.s:23847  .debug_str:0000000000010222 .LASF5504
C:\Users\CYMR90~1\AppData\Local\Temp\ccsGRYiA.s:30174  .debug_str:0000000000029906 .LASF5505
C:\Users\CYMR90~1\AppData\Local\Temp\ccsGRYiA.s:30400  .debug_str:000000000002a6ad .LASF5506
C:\Users\CYMR90~1\AppData\Local\Temp\ccsGRYiA.s:25726  .debug_str:0000000000017ca9 .LASF5507
C:\Users\CYMR90~1\AppData\Local\Temp\ccsGRYiA.s:28930  .debug_str:0000000000024766 .LASF5508
C:\Users\CYMR90~1\AppData\Local\Temp\ccsGRYiA.s:23011  .debug_str:000000000000cd68 .LASF5509
C:\Users\CYMR90~1\AppData\Local\Temp\ccsGRYiA.s:23031  .debug_str:000000000000ceed .LASF5510
C:\Users\CYMR90~1\AppData\Local\Temp\ccsGRYiA.s:29530  .debug_str:0000000000026efb .LASF5511
C:\Users\CYMR90~1\AppData\Local\Temp\ccsGRYiA.s:25760  .debug_str:0000000000017eda .LASF5512
C:\Users\CYMR90~1\AppData\Local\Temp\ccsGRYiA.s:21351  .debug_str:00000000000061f8 .LASF5513
C:\Users\CYMR90~1\AppData\Local\Temp\ccsGRYiA.s:21287  .debug_str:0000000000005db9 .LASF5514
C:\Users\CYMR90~1\AppData\Local\Temp\ccsGRYiA.s:21307  .debug_str:0000000000005ece .LASF5515
C:\Users\CYMR90~1\AppData\Local\Temp\ccsGRYiA.s:20771  .debug_str:0000000000003ccb .LASF5516
C:\Users\CYMR90~1\AppData\Local\Temp\ccsGRYiA.s:28620  .debug_str:000000000002330f .LASF5517
C:\Users\CYMR90~1\AppData\Local\Temp\ccsGRYiA.s:27632  .debug_str:000000000001f741 .LASF5518
C:\Users\CYMR90~1\AppData\Local\Temp\ccsGRYiA.s:26146  .debug_str:00000000000197d4 .LASF5519
C:\Users\CYMR90~1\AppData\Local\Temp\ccsGRYiA.s:26096  .debug_str:00000000000194d9 .LASF5520
C:\Users\CYMR90~1\AppData\Local\Temp\ccsGRYiA.s:28846  .debug_str:00000000000241eb .LASF5521
C:\Users\CYMR90~1\AppData\Local\Temp\ccsGRYiA.s:23679  .debug_str:000000000000f791 .LASF5522
C:\Users\CYMR90~1\AppData\Local\Temp\ccsGRYiA.s:27420  .debug_str:000000000001eacc .LASF5523
C:\Users\CYMR90~1\AppData\Local\Temp\ccsGRYiA.s:24219  .debug_str:0000000000011aba .LASF5524
C:\Users\CYMR90~1\AppData\Local\Temp\ccsGRYiA.s:28096  .debug_str:00000000000213ed .LASF5525
C:\Users\CYMR90~1\AppData\Local\Temp\ccsGRYiA.s:28502  .debug_str:0000000000022c6c .LASF5526
C:\Users\CYMR90~1\AppData\Local\Temp\ccsGRYiA.s:23575  .debug_str:000000000000f085 .LASF5527
C:\Users\CYMR90~1\AppData\Local\Temp\ccsGRYiA.s:24315  .debug_str:000000000001213f .LASF5528
C:\Users\CYMR90~1\AppData\Local\Temp\ccsGRYiA.s:26286  .debug_str:000000000001a0cd .LASF5529
C:\Users\CYMR90~1\AppData\Local\Temp\ccsGRYiA.s:21605  .debug_str:00000000000071b3 .LASF5530
C:\Users\CYMR90~1\AppData\Local\Temp\ccsGRYiA.s:27134  .debug_str:000000000001d9a8 .LASF5531
C:\Users\CYMR90~1\AppData\Local\Temp\ccsGRYiA.s:29770  .debug_str:0000000000027eee .LASF5532
C:\Users\CYMR90~1\AppData\Local\Temp\ccsGRYiA.s:28778  .debug_str:0000000000023cbd .LASF5533
C:\Users\CYMR90~1\AppData\Local\Temp\ccsGRYiA.s:24623  .debug_str:000000000001358d .LASF5534
C:\Users\CYMR90~1\AppData\Local\Temp\ccsGRYiA.s:26564  .debug_str:000000000001b469 .LASF5535
C:\Users\CYMR90~1\AppData\Local\Temp\ccsGRYiA.s:24961  .debug_str:0000000000014a46 .LASF5536
C:\Users\CYMR90~1\AppData\Local\Temp\ccsGRYiA.s:19903  .debug_str:0000000000000665 .LASF5537
C:\Users\CYMR90~1\AppData\Local\Temp\ccsGRYiA.s:27286  .debug_str:000000000001e28b .LASF5538
C:\Users\CYMR90~1\AppData\Local\Temp\ccsGRYiA.s:21269  .debug_str:0000000000005cb1 .LASF5539
C:\Users\CYMR90~1\AppData\Local\Temp\ccsGRYiA.s:20631  .debug_str:00000000000033d2 .LASF5540
C:\Users\CYMR90~1\AppData\Local\Temp\ccsGRYiA.s:22585  .debug_str:000000000000b118 .LASF5541
C:\Users\CYMR90~1\AppData\Local\Temp\ccsGRYiA.s:27074  .debug_str:000000000001d576 .LASF5542
C:\Users\CYMR90~1\AppData\Local\Temp\ccsGRYiA.s:26698  .debug_str:000000000001bc54 .LASF5543
C:\Users\CYMR90~1\AppData\Local\Temp\ccsGRYiA.s:21079  .debug_str:000000000000510a .LASF5544
C:\Users\CYMR90~1\AppData\Local\Temp\ccsGRYiA.s:29430  .debug_str:00000000000268f0 .LASF5545
C:\Users\CYMR90~1\AppData\Local\Temp\ccsGRYiA.s:20459  .debug_str:0000000000002904 .LASF5546
C:\Users\CYMR90~1\AppData\Local\Temp\ccsGRYiA.s:25596  .debug_str:0000000000017487 .LASF5547
C:\Users\CYMR90~1\AppData\Local\Temp\ccsGRYiA.s:22463  .debug_str:000000000000a8b7 .LASF5548
C:\Users\CYMR90~1\AppData\Local\Temp\ccsGRYiA.s:22107  .debug_str:0000000000009262 .LASF5549
C:\Users\CYMR90~1\AppData\Local\Temp\ccsGRYiA.s:27896  .debug_str:00000000000207b6 .LASF5550
C:\Users\CYMR90~1\AppData\Local\Temp\ccsGRYiA.s:21919  .debug_str:00000000000086ce .LASF5551
C:\Users\CYMR90~1\AppData\Local\Temp\ccsGRYiA.s:20437  .debug_str:0000000000002775 .LASF5552
C:\Users\CYMR90~1\AppData\Local\Temp\ccsGRYiA.s:20061  .debug_str:0000000000001075 .LASF5553
C:\Users\CYMR90~1\AppData\Local\Temp\ccsGRYiA.s:25369  .debug_str:00000000000163fe .LASF5554
C:\Users\CYMR90~1\AppData\Local\Temp\ccsGRYiA.s:24147  .debug_str:0000000000011502 .LASF5555
                           .group:0000000000000000 wm4.0.10abbef32179bc1260444192115bdf5e
                           .group:0000000000000000 wm4.stddef.h.39.144cf5ddcd53cbfdac30259dc1a6c87f
                           .group:0000000000000000 wm4._newlib_version.h.4.bfdf54b0af045d4a71376ae00f63a22c
                           .group:0000000000000000 wm4.newlib.h.18.08a2ecba46890ca2aa56bbe21686e6c3
                           .group:0000000000000000 wm4.ieeefp.h.202.4f2759f5758fd82153cfbf98692f2ced
                           .group:0000000000000000 wm4.features.h.22.fad1cec3bc7ff06488171438dbdcfd02
                           .group:0000000000000000 wm4.config.h.83.13bbc8852bfac55b724c9822481355b5
                           .group:0000000000000000 wm4._ansi.h.31.de524f58584151836e90d8620a16f8e8
                           .group:0000000000000000 wm4.stdio.h.31.7c0e28c411445f3f9c5b11accf882760
                           .group:0000000000000000 wm4._default_types.h.6.959254cf5f09734ea7516c89e8bb21bd
                           .group:0000000000000000 wm4.stddef.h.155.ba788add86a0e365f264484f110c3c29
                           .group:0000000000000000 wm4.cdefs.h.49.39045112216f6a021dbdffe3bf5accce
                           .group:0000000000000000 wm4.stdarg.h.34.3a23a216c0c293b3d2ea2e89281481e6
                           .group:0000000000000000 wm4._types.h.20.dd0d04dca3800a0d2a6129b87f3adbb2
                           .group:0000000000000000 wm4.stddef.h.155.3588ebfdd1e8c7ede80509bb9c3b8009
                           .group:0000000000000000 wm4._types.h.127.34941de1b2539d59d5cac00e0dd27a45
                           .group:0000000000000000 wm4.reent.h.17.e292bf8b0bec6c96e131a54347145a30
                           .group:0000000000000000 wm4.lock.h.2.c0958401bd0ce484d507ee19aacab817
                           .group:0000000000000000 wm4.reent.h.77.dcd6129ff07fe81bd5636db29abe53b2
                           .group:0000000000000000 wm4.types.h.40.8b6acba56cefbb11746718204edc8f5e
                           .group:0000000000000000 wm4._stdint.h.10.c24fa3af3bc1706662bb5593a907e841
                           .group:0000000000000000 wm4._endian.h.18.1bf9649e8e5bbc91042012680270b9ed
                           .group:0000000000000000 wm4.endian.h.9.49f3a4695c1b61e8a0808de3c4a106cb
                           .group:0000000000000000 wm4._timeval.h.32.bec3221fa7a9bb0bdde696c9c57e47d2
                           .group:0000000000000000 wm4.timespec.h.41.d855182eb0e690443ab8651bcedca6e1
                           .group:0000000000000000 wm4.select.h.19.40cd3f2bfc456b193b790c2754690ebf
                           .group:0000000000000000 wm4.types.h.51.5571ec98f267d17d3c670b7a3ba33afa
                           .group:0000000000000000 wm4.sched.h.22.c60982713a5c428609783c78f9c78d95
                           .group:0000000000000000 wm4._pthreadtypes.h.36.fcee9961c35163dde6267ef772ad1972
                           .group:0000000000000000 wm4.stdio.h.2.4aa87247282eca6c8f36f9de33d8df1a
                           .group:0000000000000000 wm4.stdio.h.81.932d0c162786b883f622b8d05c120c78
                           .group:0000000000000000 wm4.gd32vw55x.h.47.379378190858578060a317909b2c8d8a
                           .group:0000000000000000 wm4._intsup.h.10.48bafbb683905c4daa4565a85aeeb264
                           .group:0000000000000000 wm4.stdint.h.23.d53047a68f4a85177f80b422d52785ed
                           .group:0000000000000000 wm4.nmsis_version.h.19.ffa173da8efb17b1050904994d6f500e
                           .group:0000000000000000 wm4.riscv_bits.h.19.ee94eb3d39937793d4cd0a62363e5d00
                           .group:0000000000000000 wm4.riscv_encoding.h.35.f5d37fad7abbab8278b4bb6f1e32fa65
                           .group:0000000000000000 wm4.nmsis_gcc.h.61.5d70d7598ffc79c3c991d847a574cf23
                           .group:0000000000000000 wm4.core_feature_base.h.20.e99d3e75c26a8f3341d35bf20d0e1d20
                           .group:0000000000000000 wm4.core_feature_fpu.h.19.695f2200274659b530cb97cda749ff4f
                           .group:0000000000000000 wm4.core_feature_dsp.h.19.e8f8d7aa42f197807aefedb6584486cd
                           .group:0000000000000000 wm4.core_compatiable.h.19.5b8282d61b1f6889a82895616b730084
                           .group:0000000000000000 wm4.core_feature_eclic.h.19.e0c091d0cbda79e8b3b031b979ebd5a1
                           .group:0000000000000000 wm4.core_feature_timer.h.19.21a5151282de34c37dfa6d84e262aa54
                           .group:0000000000000000 wm4.system_gd32vw55x.h.32.f1fcb1212d387c35ac955b0e96ada468
                           .group:0000000000000000 wm4.gd32vw55x.h.231.3529c650aff38c9372f7e03177fd2c8a
                           .group:0000000000000000 wm4.gd32vw55x_adc.h.42.ae73acec1704ef509ccecb41a875b50e
                           .group:0000000000000000 wm4.gd32vw55x_crc.h.37.c58f296814c2300a4b067c08bd88d54e
                           .group:0000000000000000 wm4.gd32vw55x_dbg.h.36.311650c8545549d482ceca8befc5a232
                           .group:0000000000000000 wm4.gd32vw55x_dma.h.36.f4adc751172b2a7b1533dda72e948737
                           .group:0000000000000000 wm4.gd32vw55x_eclic.h.36.0411499f2b2493c67246e32ccae096c1
                           .group:0000000000000000 wm4.gd32vw55x_efuse.h.36.091404cecbab70359dfd93faec5fdb62
                           .group:0000000000000000 wm4.gd32vw55x_exti.h.36.de7508334dd12f1a6a673521a1a835f5
                           .group:0000000000000000 wm4.gd32vw55x_fmc.h.36.a4b0b94c47ffe23a2fa09260c5ed4850
                           .group:0000000000000000 wm4.gd32vw55x_fwdgt.h.36.4846b6900fd24b5bfce4986c9a8ce677
                           .group:0000000000000000 wm4.gd32vw55x_gpio.h.36.adfee1371bb58d3d9043c47bdb25a90f
                           .group:0000000000000000 wm4.gd32vw55x_hau.h.36.f3cbcbd7b67c9e5bdc7a1100b1bf3458
                           .group:0000000000000000 wm4.gd32vw55x_i2c.h.36.3848990933925e084eb427083790c53f
                           .group:0000000000000000 wm4.gd32vw55x_pkcau.h.36.bb2235f4cf4967063a51bfa9aca5ef27
                           .group:0000000000000000 wm4.gd32vw55x_pmu.h.36.4c76091f1415551526d489ccf2c42052
                           .group:0000000000000000 wm4.gd32vw55x_qspi.h.36.2d2c181cfe19b935a9641008fc786613
                           .group:0000000000000000 wm4.gd32vw55x_rcu.h.36.780a8a45c00d563711cceb445027ef47
                           .group:0000000000000000 wm4.gd32vw55x_rtc.h.36.3172855e8715659e080e0eab46fdf175
                           .group:0000000000000000 wm4.gd32vw55x_spi.h.36.9fa1be2b09fb73e4b5886e97f0e96d58
                           .group:0000000000000000 wm4.gd32vw55x_syscfg.h.36.010551f05591f5e34051d2e15df0352b
                           .group:0000000000000000 wm4.gd32vw55x_timer.h.38.2cbee78ea60d47145be361b2d2c55070
                           .group:0000000000000000 wm4.gd32vw55x_trng.h.36.c9e7807af1b1ab68d3bbb54f4ed5cd73
                           .group:0000000000000000 wm4.gd32vw55x_usart.h.36.f5c497cca17945a34f154b0e17017d02
                           .group:0000000000000000 wm4.gd32vw55x_wwdgt.h.36.f7a443b7302efc0e5c335888582ee197
                           .group:0000000000000000 wm4.gd32vw55x_cau.h.41.50579844007a51268a8149adfbc49583

UNDEFINED SYMBOLS
cau_key_struct_para_init
cau_init
cau_key_init
cau_fifo_flush
cau_enable
cau_disable
cau_iv_init
cau_enable_state_get
cau_data_write
cau_flag_get
cau_data_read
