   1              		.file	"gd32vw55x_dma.c"
   2              		.option nopic
   3              		.attribute arch, "rv32i2p0_m2p0_a2p0_c2p0"
   4              		.attribute unaligned_access, 0
   5              		.attribute stack_align, 16
   6              		.text
   7              	.Ltext0:
   8              		.cfi_sections	.debug_frame
   9              		.section	.text.dma_deinit,"ax",@progbits
  10              		.align	1
  11              		.globl	dma_deinit
  13              	dma_deinit:
  14              	.LFB347:
  15              		.file 1 "../Firmware/GD32VW55x_standard_peripheral/Source/gd32vw55x_dma.c"
   1:../Firmware/GD32VW55x_standard_peripheral/Source/gd32vw55x_dma.c **** /*!
   2:../Firmware/GD32VW55x_standard_peripheral/Source/gd32vw55x_dma.c ****     \file    gd32vw55x_dma.c
   3:../Firmware/GD32VW55x_standard_peripheral/Source/gd32vw55x_dma.c ****     \brief   DMA driver
   4:../Firmware/GD32VW55x_standard_peripheral/Source/gd32vw55x_dma.c **** 
   5:../Firmware/GD32VW55x_standard_peripheral/Source/gd32vw55x_dma.c ****     \version 2025-01-16, V1.4.0, firmware for GD32VW55x
   6:../Firmware/GD32VW55x_standard_peripheral/Source/gd32vw55x_dma.c **** */
   7:../Firmware/GD32VW55x_standard_peripheral/Source/gd32vw55x_dma.c **** 
   8:../Firmware/GD32VW55x_standard_peripheral/Source/gd32vw55x_dma.c **** /*
   9:../Firmware/GD32VW55x_standard_peripheral/Source/gd32vw55x_dma.c ****     Copyright (c) 2025, GigaDevice Semiconductor Inc.
  10:../Firmware/GD32VW55x_standard_peripheral/Source/gd32vw55x_dma.c **** 
  11:../Firmware/GD32VW55x_standard_peripheral/Source/gd32vw55x_dma.c ****     Redistribution and use in source and binary forms, with or without modification,
  12:../Firmware/GD32VW55x_standard_peripheral/Source/gd32vw55x_dma.c **** are permitted provided that the following conditions are met:
  13:../Firmware/GD32VW55x_standard_peripheral/Source/gd32vw55x_dma.c **** 
  14:../Firmware/GD32VW55x_standard_peripheral/Source/gd32vw55x_dma.c ****     1. Redistributions of source code must retain the above copyright notice, this
  15:../Firmware/GD32VW55x_standard_peripheral/Source/gd32vw55x_dma.c ****        list of conditions and the following disclaimer.
  16:../Firmware/GD32VW55x_standard_peripheral/Source/gd32vw55x_dma.c ****     2. Redistributions in binary form must reproduce the above copyright notice,
  17:../Firmware/GD32VW55x_standard_peripheral/Source/gd32vw55x_dma.c ****        this list of conditions and the following disclaimer in the documentation
  18:../Firmware/GD32VW55x_standard_peripheral/Source/gd32vw55x_dma.c ****        and/or other materials provided with the distribution.
  19:../Firmware/GD32VW55x_standard_peripheral/Source/gd32vw55x_dma.c ****     3. Neither the name of the copyright holder nor the names of its contributors
  20:../Firmware/GD32VW55x_standard_peripheral/Source/gd32vw55x_dma.c ****        may be used to endorse or promote products derived from this software without
  21:../Firmware/GD32VW55x_standard_peripheral/Source/gd32vw55x_dma.c ****        specific prior written permission.
  22:../Firmware/GD32VW55x_standard_peripheral/Source/gd32vw55x_dma.c **** 
  23:../Firmware/GD32VW55x_standard_peripheral/Source/gd32vw55x_dma.c ****     THIS SOFTWARE IS PROVIDED BY THE COPYRIGHT HOLDERS AND CONTRIBUTORS "AS IS"
  24:../Firmware/GD32VW55x_standard_peripheral/Source/gd32vw55x_dma.c **** AND ANY EXPRESS OR IMPLIED WARRANTIES, INCLUDING, BUT NOT LIMITED TO, THE IMPLIED
  25:../Firmware/GD32VW55x_standard_peripheral/Source/gd32vw55x_dma.c **** WARRANTIES OF MERCHANTABILITY AND FITNESS FOR A PARTICULAR PURPOSE ARE DISCLAIMED.
  26:../Firmware/GD32VW55x_standard_peripheral/Source/gd32vw55x_dma.c **** IN NO EVENT SHALL THE COPYRIGHT HOLDER OR CONTRIBUTORS BE LIABLE FOR ANY DIRECT,
  27:../Firmware/GD32VW55x_standard_peripheral/Source/gd32vw55x_dma.c **** INDIRECT, INCIDENTAL, SPECIAL, EXEMPLARY, OR CONSEQUENTIAL DAMAGES (INCLUDING, BUT
  28:../Firmware/GD32VW55x_standard_peripheral/Source/gd32vw55x_dma.c **** NOT LIMITED TO, PROCUREMENT OF SUBSTITUTE GOODS OR SERVICES; LOSS OF USE, DATA, OR
  29:../Firmware/GD32VW55x_standard_peripheral/Source/gd32vw55x_dma.c **** PROFITS; OR BUSINESS INTERRUPTION) HOWEVER CAUSED AND ON ANY THEORY OF LIABILITY,
  30:../Firmware/GD32VW55x_standard_peripheral/Source/gd32vw55x_dma.c **** WHETHER IN CONTRACT, STRICT LIABILITY, OR TORT (INCLUDING NEGLIGENCE OR OTHERWISE)
  31:../Firmware/GD32VW55x_standard_peripheral/Source/gd32vw55x_dma.c **** ARISING IN ANY WAY OUT OF THE USE OF THIS SOFTWARE, EVEN IF ADVISED OF THE POSSIBILITY
  32:../Firmware/GD32VW55x_standard_peripheral/Source/gd32vw55x_dma.c **** OF SUCH DAMAGE.
  33:../Firmware/GD32VW55x_standard_peripheral/Source/gd32vw55x_dma.c **** */
  34:../Firmware/GD32VW55x_standard_peripheral/Source/gd32vw55x_dma.c **** 
  35:../Firmware/GD32VW55x_standard_peripheral/Source/gd32vw55x_dma.c **** #include "gd32vw55x_dma.h"
  36:../Firmware/GD32VW55x_standard_peripheral/Source/gd32vw55x_dma.c **** 
  37:../Firmware/GD32VW55x_standard_peripheral/Source/gd32vw55x_dma.c **** /*DMA register bit offset */
  38:../Firmware/GD32VW55x_standard_peripheral/Source/gd32vw55x_dma.c **** #define CHXCTL_PERIEN_OFFSET            ((uint32_t)25U)
  39:../Firmware/GD32VW55x_standard_peripheral/Source/gd32vw55x_dma.c **** 
  40:../Firmware/GD32VW55x_standard_peripheral/Source/gd32vw55x_dma.c **** /*!
  41:../Firmware/GD32VW55x_standard_peripheral/Source/gd32vw55x_dma.c ****     \brief      deinitialize DMA a channel registers
  42:../Firmware/GD32VW55x_standard_peripheral/Source/gd32vw55x_dma.c ****     \param[in]  channelx: specify which DMA channel is deinitialized
  43:../Firmware/GD32VW55x_standard_peripheral/Source/gd32vw55x_dma.c ****       \arg        DMA_CHx (x=0..7)
  44:../Firmware/GD32VW55x_standard_peripheral/Source/gd32vw55x_dma.c ****     \param[out] none
  45:../Firmware/GD32VW55x_standard_peripheral/Source/gd32vw55x_dma.c ****     \retval     none
  46:../Firmware/GD32VW55x_standard_peripheral/Source/gd32vw55x_dma.c **** */
  47:../Firmware/GD32VW55x_standard_peripheral/Source/gd32vw55x_dma.c **** void dma_deinit(dma_channel_enum channelx)
  48:../Firmware/GD32VW55x_standard_peripheral/Source/gd32vw55x_dma.c **** {
  16              		.loc 1 48 1
  17              		.cfi_startproc
  18 0000 0111     		addi	sp,sp,-32
  19              		.cfi_def_cfa_offset 32
  20 0002 22CE     		sw	s0,28(sp)
  21              		.cfi_offset 8, -4
  22 0004 0010     		addi	s0,sp,32
  23              		.cfi_def_cfa 8, 0
  24 0006 2326A4FE 		sw	a0,-20(s0)
  49:../Firmware/GD32VW55x_standard_peripheral/Source/gd32vw55x_dma.c ****     /* disable DMA a channel */
  50:../Firmware/GD32VW55x_standard_peripheral/Source/gd32vw55x_dma.c ****     DMA_CHCTL(channelx) &= ~DMA_CHXCTL_CHEN;
  25              		.loc 1 50 25
  26 000a 0327C4FE 		lw	a4,-20(s0)
  27 000e BA87     		mv	a5,a4
  28 0010 8607     		slli	a5,a5,1
  29 0012 BA97     		add	a5,a5,a4
  30 0014 8E07     		slli	a5,a5,3
  31 0016 3E87     		mv	a4,a5
  32 0018 B7670240 		li	a5,1073897472
  33 001c C107     		addi	a5,a5,16
  34 001e BA97     		add	a5,a4,a5
  35 0020 9443     		lw	a3,0(a5)
  36 0022 0327C4FE 		lw	a4,-20(s0)
  37 0026 BA87     		mv	a5,a4
  38 0028 8607     		slli	a5,a5,1
  39 002a BA97     		add	a5,a5,a4
  40 002c 8E07     		slli	a5,a5,3
  41 002e 3E87     		mv	a4,a5
  42 0030 B7670240 		li	a5,1073897472
  43 0034 C107     		addi	a5,a5,16
  44 0036 BA97     		add	a5,a4,a5
  45 0038 3E87     		mv	a4,a5
  46 003a 93F7E6FF 		andi	a5,a3,-2
  47 003e 1CC3     		sw	a5,0(a4)
  51:../Firmware/GD32VW55x_standard_peripheral/Source/gd32vw55x_dma.c ****     /* reset DMA channel registers */
  52:../Firmware/GD32VW55x_standard_peripheral/Source/gd32vw55x_dma.c ****     DMA_CHCTL(channelx) = DMA_CHCTL_RESET_VALUE;
  48              		.loc 1 52 5
  49 0040 0327C4FE 		lw	a4,-20(s0)
  50 0044 BA87     		mv	a5,a4
  51 0046 8607     		slli	a5,a5,1
  52 0048 BA97     		add	a5,a5,a4
  53 004a 8E07     		slli	a5,a5,3
  54 004c 3E87     		mv	a4,a5
  55 004e B7670240 		li	a5,1073897472
  56 0052 C107     		addi	a5,a5,16
  57 0054 BA97     		add	a5,a4,a5
  58              		.loc 1 52 25
  59 0056 23A00700 		sw	zero,0(a5)
  53:../Firmware/GD32VW55x_standard_peripheral/Source/gd32vw55x_dma.c ****     DMA_CHCNT(channelx) = DMA_CHCNT_RESET_VALUE;
  60              		.loc 1 53 5
  61 005a 0327C4FE 		lw	a4,-20(s0)
  62 005e BA87     		mv	a5,a4
  63 0060 8607     		slli	a5,a5,1
  64 0062 BA97     		add	a5,a5,a4
  65 0064 8E07     		slli	a5,a5,3
  66 0066 3E87     		mv	a4,a5
  67 0068 B7670240 		li	a5,1073897472
  68 006c D107     		addi	a5,a5,20
  69 006e BA97     		add	a5,a4,a5
  70              		.loc 1 53 25
  71 0070 23A00700 		sw	zero,0(a5)
  54:../Firmware/GD32VW55x_standard_peripheral/Source/gd32vw55x_dma.c ****     DMA_CHPADDR(channelx) = DMA_CHPADDR_RESET_VALUE;
  72              		.loc 1 54 5
  73 0074 0327C4FE 		lw	a4,-20(s0)
  74 0078 BA87     		mv	a5,a4
  75 007a 8607     		slli	a5,a5,1
  76 007c BA97     		add	a5,a5,a4
  77 007e 8E07     		slli	a5,a5,3
  78 0080 3E87     		mv	a4,a5
  79 0082 B7670240 		li	a5,1073897472
  80 0086 E107     		addi	a5,a5,24
  81 0088 BA97     		add	a5,a4,a5
  82              		.loc 1 54 27
  83 008a 23A00700 		sw	zero,0(a5)
  55:../Firmware/GD32VW55x_standard_peripheral/Source/gd32vw55x_dma.c ****     DMA_CHM0ADDR(channelx) = DMA_CHMADDR_RESET_VALUE;
  84              		.loc 1 55 5
  85 008e 0327C4FE 		lw	a4,-20(s0)
  86 0092 BA87     		mv	a5,a4
  87 0094 8607     		slli	a5,a5,1
  88 0096 BA97     		add	a5,a5,a4
  89 0098 8E07     		slli	a5,a5,3
  90 009a 3E87     		mv	a4,a5
  91 009c B7670240 		li	a5,1073897472
  92 00a0 F107     		addi	a5,a5,28
  93 00a2 BA97     		add	a5,a4,a5
  94              		.loc 1 55 28
  95 00a4 23A00700 		sw	zero,0(a5)
  56:../Firmware/GD32VW55x_standard_peripheral/Source/gd32vw55x_dma.c ****     DMA_CHM1ADDR(channelx) = DMA_CHMADDR_RESET_VALUE;
  96              		.loc 1 56 5
  97 00a8 0327C4FE 		lw	a4,-20(s0)
  98 00ac BA87     		mv	a5,a4
  99 00ae 8607     		slli	a5,a5,1
 100 00b0 BA97     		add	a5,a5,a4
 101 00b2 8E07     		slli	a5,a5,3
 102 00b4 3E87     		mv	a4,a5
 103 00b6 B7670240 		li	a5,1073897472
 104 00ba 93870702 		addi	a5,a5,32
 105 00be BA97     		add	a5,a4,a5
 106              		.loc 1 56 28
 107 00c0 23A00700 		sw	zero,0(a5)
  57:../Firmware/GD32VW55x_standard_peripheral/Source/gd32vw55x_dma.c ****     DMA_CHFCTL(channelx) = DMA_CHFCTL_RESET_VALUE;
 108              		.loc 1 57 5
 109 00c4 0327C4FE 		lw	a4,-20(s0)
 110 00c8 BA87     		mv	a5,a4
 111 00ca 8607     		slli	a5,a5,1
 112 00cc BA97     		add	a5,a5,a4
 113 00ce 8E07     		slli	a5,a5,3
 114 00d0 3E87     		mv	a4,a5
 115 00d2 B7670240 		li	a5,1073897472
 116 00d6 93874702 		addi	a5,a5,36
 117 00da BA97     		add	a5,a4,a5
 118 00dc 3E87     		mv	a4,a5
 119              		.loc 1 57 26
 120 00de 93071002 		li	a5,33
 121 00e2 1CC3     		sw	a5,0(a4)
  58:../Firmware/GD32VW55x_standard_peripheral/Source/gd32vw55x_dma.c ****     if(channelx < DMA_CH4){
 122              		.loc 1 58 7
 123 00e4 0327C4FE 		lw	a4,-20(s0)
 124 00e8 8D47     		li	a5,3
 125 00ea 63EFE702 		bgtu	a4,a5,.L2
  59:../Firmware/GD32VW55x_standard_peripheral/Source/gd32vw55x_dma.c ****         DMA_INTC0 |= DMA_FLAG_ADD(DMA_CHINTF_RESET_VALUE, channelx);
 126              		.loc 1 59 19
 127 00ee B7670240 		li	a5,1073897472
 128 00f2 A107     		addi	a5,a5,8
 129 00f4 9443     		lw	a3,0(a5)
 130              		.loc 1 59 22
 131 00f6 8327C4FE 		lw	a5,-20(s0)
 132 00fa 13F73700 		andi	a4,a5,3
 133 00fe BA87     		mv	a5,a4
 134 0100 8607     		slli	a5,a5,1
 135 0102 BA97     		add	a5,a5,a4
 136 0104 8607     		slli	a5,a5,1
 137 0106 3E87     		mv	a4,a5
 138 0108 8327C4FE 		lw	a5,-20(s0)
 139 010c 8583     		srli	a5,a5,1
 140 010e 858B     		andi	a5,a5,1
 141 0110 8A07     		slli	a5,a5,2
 142 0112 BA97     		add	a5,a4,a5
 143 0114 1307D003 		li	a4,61
 144 0118 3317F700 		sll	a4,a4,a5
 145              		.loc 1 59 19
 146 011c B7670240 		li	a5,1073897472
 147 0120 A107     		addi	a5,a5,8
 148 0122 558F     		or	a4,a3,a4
 149 0124 98C3     		sw	a4,0(a5)
  60:../Firmware/GD32VW55x_standard_peripheral/Source/gd32vw55x_dma.c ****     }else{
  61:../Firmware/GD32VW55x_standard_peripheral/Source/gd32vw55x_dma.c ****         channelx -= (dma_channel_enum)4;
  62:../Firmware/GD32VW55x_standard_peripheral/Source/gd32vw55x_dma.c ****         DMA_INTC1 |= DMA_FLAG_ADD(DMA_CHINTF_RESET_VALUE, channelx);
  63:../Firmware/GD32VW55x_standard_peripheral/Source/gd32vw55x_dma.c ****     }
  64:../Firmware/GD32VW55x_standard_peripheral/Source/gd32vw55x_dma.c **** }
 150              		.loc 1 64 1
 151 0126 91A0     		j	.L4
 152              	.L2:
  61:../Firmware/GD32VW55x_standard_peripheral/Source/gd32vw55x_dma.c ****         DMA_INTC1 |= DMA_FLAG_ADD(DMA_CHINTF_RESET_VALUE, channelx);
 153              		.loc 1 61 18
 154 0128 8327C4FE 		lw	a5,-20(s0)
 155 012c F117     		addi	a5,a5,-4
 156 012e 2326F4FE 		sw	a5,-20(s0)
  62:../Firmware/GD32VW55x_standard_peripheral/Source/gd32vw55x_dma.c ****     }
 157              		.loc 1 62 19
 158 0132 B7670240 		li	a5,1073897472
 159 0136 B107     		addi	a5,a5,12
 160 0138 9443     		lw	a3,0(a5)
  62:../Firmware/GD32VW55x_standard_peripheral/Source/gd32vw55x_dma.c ****     }
 161              		.loc 1 62 22
 162 013a 8327C4FE 		lw	a5,-20(s0)
 163 013e 13F73700 		andi	a4,a5,3
 164 0142 BA87     		mv	a5,a4
 165 0144 8607     		slli	a5,a5,1
 166 0146 BA97     		add	a5,a5,a4
 167 0148 8607     		slli	a5,a5,1
 168 014a 3E87     		mv	a4,a5
 169 014c 8327C4FE 		lw	a5,-20(s0)
 170 0150 8583     		srli	a5,a5,1
 171 0152 858B     		andi	a5,a5,1
 172 0154 8A07     		slli	a5,a5,2
 173 0156 BA97     		add	a5,a4,a5
 174 0158 1307D003 		li	a4,61
 175 015c 3317F700 		sll	a4,a4,a5
  62:../Firmware/GD32VW55x_standard_peripheral/Source/gd32vw55x_dma.c ****     }
 176              		.loc 1 62 19
 177 0160 B7670240 		li	a5,1073897472
 178 0164 B107     		addi	a5,a5,12
 179 0166 558F     		or	a4,a3,a4
 180 0168 98C3     		sw	a4,0(a5)
 181              	.L4:
 182              		.loc 1 64 1
 183 016a 0100     		nop
 184 016c 7244     		lw	s0,28(sp)
 185              		.cfi_restore 8
 186              		.cfi_def_cfa 2, 32
 187 016e 0561     		addi	sp,sp,32
 188              		.cfi_def_cfa_offset 0
 189 0170 8280     		jr	ra
 190              		.cfi_endproc
 191              	.LFE347:
 193              		.section	.text.dma_single_data_para_struct_init,"ax",@progbits
 194              		.align	1
 195              		.globl	dma_single_data_para_struct_init
 197              	dma_single_data_para_struct_init:
 198              	.LFB348:
  65:../Firmware/GD32VW55x_standard_peripheral/Source/gd32vw55x_dma.c **** 
  66:../Firmware/GD32VW55x_standard_peripheral/Source/gd32vw55x_dma.c **** /*!
  67:../Firmware/GD32VW55x_standard_peripheral/Source/gd32vw55x_dma.c ****     \brief      initialize the DMA single data mode parameters struct with the default values
  68:../Firmware/GD32VW55x_standard_peripheral/Source/gd32vw55x_dma.c ****     \param[in]  none
  69:../Firmware/GD32VW55x_standard_peripheral/Source/gd32vw55x_dma.c ****     \param[out] init_struct: the initialization data needed to initialize DMA channel
  70:../Firmware/GD32VW55x_standard_peripheral/Source/gd32vw55x_dma.c ****     \retval     none
  71:../Firmware/GD32VW55x_standard_peripheral/Source/gd32vw55x_dma.c **** */
  72:../Firmware/GD32VW55x_standard_peripheral/Source/gd32vw55x_dma.c **** void dma_single_data_para_struct_init(dma_single_data_parameter_struct* init_struct)
  73:../Firmware/GD32VW55x_standard_peripheral/Source/gd32vw55x_dma.c **** {
 199              		.loc 1 73 1
 200              		.cfi_startproc
 201 0000 0111     		addi	sp,sp,-32
 202              		.cfi_def_cfa_offset 32
 203 0002 22CE     		sw	s0,28(sp)
 204              		.cfi_offset 8, -4
 205 0004 0010     		addi	s0,sp,32
 206              		.cfi_def_cfa 8, 0
 207 0006 2326A4FE 		sw	a0,-20(s0)
  74:../Firmware/GD32VW55x_standard_peripheral/Source/gd32vw55x_dma.c ****     /* set the DMA struct with the default values */
  75:../Firmware/GD32VW55x_standard_peripheral/Source/gd32vw55x_dma.c ****     init_struct->periph_addr         = 0U;
 208              		.loc 1 75 38
 209 000a 8327C4FE 		lw	a5,-20(s0)
 210 000e 23A00700 		sw	zero,0(a5)
  76:../Firmware/GD32VW55x_standard_peripheral/Source/gd32vw55x_dma.c ****     init_struct->periph_inc          = DMA_PERIPH_INCREASE_DISABLE;
 211              		.loc 1 76 38
 212 0012 8327C4FE 		lw	a5,-20(s0)
 213 0016 0547     		li	a4,1
 214 0018 D8C3     		sw	a4,4(a5)
  77:../Firmware/GD32VW55x_standard_peripheral/Source/gd32vw55x_dma.c ****     init_struct->memory0_addr        = 0U;
 215              		.loc 1 77 38
 216 001a 8327C4FE 		lw	a5,-20(s0)
 217 001e 23A40700 		sw	zero,8(a5)
  78:../Firmware/GD32VW55x_standard_peripheral/Source/gd32vw55x_dma.c ****     init_struct->memory_inc          = DMA_MEMORY_INCREASE_DISABLE;
 218              		.loc 1 78 38
 219 0022 8327C4FE 		lw	a5,-20(s0)
 220 0026 0547     		li	a4,1
 221 0028 D8C7     		sw	a4,12(a5)
  79:../Firmware/GD32VW55x_standard_peripheral/Source/gd32vw55x_dma.c ****     init_struct->periph_memory_width = 0U;
 222              		.loc 1 79 38
 223 002a 8327C4FE 		lw	a5,-20(s0)
 224 002e 23A80700 		sw	zero,16(a5)
  80:../Firmware/GD32VW55x_standard_peripheral/Source/gd32vw55x_dma.c ****     init_struct->circular_mode       = DMA_CIRCULAR_MODE_DISABLE;
 225              		.loc 1 80 38
 226 0032 8327C4FE 		lw	a5,-20(s0)
 227 0036 23AA0700 		sw	zero,20(a5)
  81:../Firmware/GD32VW55x_standard_peripheral/Source/gd32vw55x_dma.c ****     init_struct->direction           = DMA_PERIPH_TO_MEMORY;
 228              		.loc 1 81 38
 229 003a 8327C4FE 		lw	a5,-20(s0)
 230 003e 23AC0700 		sw	zero,24(a5)
  82:../Firmware/GD32VW55x_standard_peripheral/Source/gd32vw55x_dma.c ****     init_struct->number              = 0U;
 231              		.loc 1 82 38
 232 0042 8327C4FE 		lw	a5,-20(s0)
 233 0046 23AE0700 		sw	zero,28(a5)
  83:../Firmware/GD32VW55x_standard_peripheral/Source/gd32vw55x_dma.c ****     init_struct->priority            = DMA_PRIORITY_LOW;
 234              		.loc 1 83 38
 235 004a 8327C4FE 		lw	a5,-20(s0)
 236 004e 23A00702 		sw	zero,32(a5)
  84:../Firmware/GD32VW55x_standard_peripheral/Source/gd32vw55x_dma.c **** }
 237              		.loc 1 84 1
 238 0052 0100     		nop
 239 0054 7244     		lw	s0,28(sp)
 240              		.cfi_restore 8
 241              		.cfi_def_cfa 2, 32
 242 0056 0561     		addi	sp,sp,32
 243              		.cfi_def_cfa_offset 0
 244 0058 8280     		jr	ra
 245              		.cfi_endproc
 246              	.LFE348:
 248              		.section	.text.dma_multi_data_para_struct_init,"ax",@progbits
 249              		.align	1
 250              		.globl	dma_multi_data_para_struct_init
 252              	dma_multi_data_para_struct_init:
 253              	.LFB349:
  85:../Firmware/GD32VW55x_standard_peripheral/Source/gd32vw55x_dma.c **** 
  86:../Firmware/GD32VW55x_standard_peripheral/Source/gd32vw55x_dma.c **** /*!
  87:../Firmware/GD32VW55x_standard_peripheral/Source/gd32vw55x_dma.c ****     \brief      initialize the DMA multi data mode parameters struct with the default values
  88:../Firmware/GD32VW55x_standard_peripheral/Source/gd32vw55x_dma.c ****     \param[in]  none
  89:../Firmware/GD32VW55x_standard_peripheral/Source/gd32vw55x_dma.c ****     \param[out] init_struct: the initialization data needed to initialize DMA channel
  90:../Firmware/GD32VW55x_standard_peripheral/Source/gd32vw55x_dma.c ****     \retval     none
  91:../Firmware/GD32VW55x_standard_peripheral/Source/gd32vw55x_dma.c **** */
  92:../Firmware/GD32VW55x_standard_peripheral/Source/gd32vw55x_dma.c **** void dma_multi_data_para_struct_init(dma_multi_data_parameter_struct* init_struct)
  93:../Firmware/GD32VW55x_standard_peripheral/Source/gd32vw55x_dma.c **** {
 254              		.loc 1 93 1
 255              		.cfi_startproc
 256 0000 0111     		addi	sp,sp,-32
 257              		.cfi_def_cfa_offset 32
 258 0002 22CE     		sw	s0,28(sp)
 259              		.cfi_offset 8, -4
 260 0004 0010     		addi	s0,sp,32
 261              		.cfi_def_cfa 8, 0
 262 0006 2326A4FE 		sw	a0,-20(s0)
  94:../Firmware/GD32VW55x_standard_peripheral/Source/gd32vw55x_dma.c ****     /* set the DMA struct with the default values */
  95:../Firmware/GD32VW55x_standard_peripheral/Source/gd32vw55x_dma.c ****     init_struct->periph_addr         = 0U;
 263              		.loc 1 95 38
 264 000a 8327C4FE 		lw	a5,-20(s0)
 265 000e 23A00700 		sw	zero,0(a5)
  96:../Firmware/GD32VW55x_standard_peripheral/Source/gd32vw55x_dma.c ****     init_struct->periph_width        = 0U;
 266              		.loc 1 96 38
 267 0012 8327C4FE 		lw	a5,-20(s0)
 268 0016 23A20700 		sw	zero,4(a5)
  97:../Firmware/GD32VW55x_standard_peripheral/Source/gd32vw55x_dma.c ****     init_struct->periph_inc          = DMA_PERIPH_INCREASE_DISABLE;
 269              		.loc 1 97 38
 270 001a 8327C4FE 		lw	a5,-20(s0)
 271 001e 0547     		li	a4,1
 272 0020 98C7     		sw	a4,8(a5)
  98:../Firmware/GD32VW55x_standard_peripheral/Source/gd32vw55x_dma.c ****     init_struct->memory0_addr        = 0U;
 273              		.loc 1 98 38
 274 0022 8327C4FE 		lw	a5,-20(s0)
 275 0026 23A60700 		sw	zero,12(a5)
  99:../Firmware/GD32VW55x_standard_peripheral/Source/gd32vw55x_dma.c ****     init_struct->memory_width        = 0U;
 276              		.loc 1 99 38
 277 002a 8327C4FE 		lw	a5,-20(s0)
 278 002e 23A80700 		sw	zero,16(a5)
 100:../Firmware/GD32VW55x_standard_peripheral/Source/gd32vw55x_dma.c ****     init_struct->memory_inc          = DMA_MEMORY_INCREASE_DISABLE;
 279              		.loc 1 100 38
 280 0032 8327C4FE 		lw	a5,-20(s0)
 281 0036 0547     		li	a4,1
 282 0038 D8CB     		sw	a4,20(a5)
 101:../Firmware/GD32VW55x_standard_peripheral/Source/gd32vw55x_dma.c ****     init_struct->memory_burst_width  = 0U;
 283              		.loc 1 101 38
 284 003a 8327C4FE 		lw	a5,-20(s0)
 285 003e 23AC0700 		sw	zero,24(a5)
 102:../Firmware/GD32VW55x_standard_peripheral/Source/gd32vw55x_dma.c ****     init_struct->periph_burst_width  = 0U;
 286              		.loc 1 102 38
 287 0042 8327C4FE 		lw	a5,-20(s0)
 288 0046 23AE0700 		sw	zero,28(a5)
 103:../Firmware/GD32VW55x_standard_peripheral/Source/gd32vw55x_dma.c ****     init_struct->circular_mode       = DMA_CIRCULAR_MODE_DISABLE;
 289              		.loc 1 103 38
 290 004a 8327C4FE 		lw	a5,-20(s0)
 291 004e 23A20702 		sw	zero,36(a5)
 104:../Firmware/GD32VW55x_standard_peripheral/Source/gd32vw55x_dma.c ****     init_struct->direction           = DMA_PERIPH_TO_MEMORY;
 292              		.loc 1 104 38
 293 0052 8327C4FE 		lw	a5,-20(s0)
 294 0056 23A40702 		sw	zero,40(a5)
 105:../Firmware/GD32VW55x_standard_peripheral/Source/gd32vw55x_dma.c ****     init_struct->number              = 0U;
 295              		.loc 1 105 38
 296 005a 8327C4FE 		lw	a5,-20(s0)
 297 005e 23A60702 		sw	zero,44(a5)
 106:../Firmware/GD32VW55x_standard_peripheral/Source/gd32vw55x_dma.c ****     init_struct->priority            = DMA_PRIORITY_LOW;
 298              		.loc 1 106 38
 299 0062 8327C4FE 		lw	a5,-20(s0)
 300 0066 23A80702 		sw	zero,48(a5)
 107:../Firmware/GD32VW55x_standard_peripheral/Source/gd32vw55x_dma.c **** }
 301              		.loc 1 107 1
 302 006a 0100     		nop
 303 006c 7244     		lw	s0,28(sp)
 304              		.cfi_restore 8
 305              		.cfi_def_cfa 2, 32
 306 006e 0561     		addi	sp,sp,32
 307              		.cfi_def_cfa_offset 0
 308 0070 8280     		jr	ra
 309              		.cfi_endproc
 310              	.LFE349:
 312              		.section	.text.dma_single_data_mode_init,"ax",@progbits
 313              		.align	1
 314              		.globl	dma_single_data_mode_init
 316              	dma_single_data_mode_init:
 317              	.LFB350:
 108:../Firmware/GD32VW55x_standard_peripheral/Source/gd32vw55x_dma.c **** 
 109:../Firmware/GD32VW55x_standard_peripheral/Source/gd32vw55x_dma.c **** /*!
 110:../Firmware/GD32VW55x_standard_peripheral/Source/gd32vw55x_dma.c ****     \brief      initialize DMA single data mode
 111:../Firmware/GD32VW55x_standard_peripheral/Source/gd32vw55x_dma.c ****     \param[in]  channelx: specify which DMA channel is initialized
 112:../Firmware/GD32VW55x_standard_peripheral/Source/gd32vw55x_dma.c ****       \arg        DMA_CHx (x=0..7)
 113:../Firmware/GD32VW55x_standard_peripheral/Source/gd32vw55x_dma.c ****     \param[in]  init_struct: the data needed to initialize DMA single data mode
 114:../Firmware/GD32VW55x_standard_peripheral/Source/gd32vw55x_dma.c ****                   periph_addr: peripheral base address
 115:../Firmware/GD32VW55x_standard_peripheral/Source/gd32vw55x_dma.c ****                   periph_inc: DMA_PERIPH_INCREASE_ENABLE,DMA_PERIPH_INCREASE_DISABLE,DMA_PERIPH_INC
 116:../Firmware/GD32VW55x_standard_peripheral/Source/gd32vw55x_dma.c ****                   memory0_addr: memory base address
 117:../Firmware/GD32VW55x_standard_peripheral/Source/gd32vw55x_dma.c ****                   memory_inc:          DMA_MEMORY_INCREASE_ENABLE,
 118:../Firmware/GD32VW55x_standard_peripheral/Source/gd32vw55x_dma.c ****                                        DMA_MEMORY_INCREASE_DISABLE
 119:../Firmware/GD32VW55x_standard_peripheral/Source/gd32vw55x_dma.c ****                   periph_memory_width: DMA_PERIPH_WIDTH_8BIT,
 120:../Firmware/GD32VW55x_standard_peripheral/Source/gd32vw55x_dma.c ****                                        DMA_PERIPH_WIDTH_16BIT,
 121:../Firmware/GD32VW55x_standard_peripheral/Source/gd32vw55x_dma.c ****                                        DMA_PERIPH_WIDTH_32BIT
 122:../Firmware/GD32VW55x_standard_peripheral/Source/gd32vw55x_dma.c ****                   circular_mode:       DMA_CIRCULAR_MODE_ENABLE,
 123:../Firmware/GD32VW55x_standard_peripheral/Source/gd32vw55x_dma.c ****                                        DMA_CIRCULAR_MODE_DISABLE
 124:../Firmware/GD32VW55x_standard_peripheral/Source/gd32vw55x_dma.c ****                   direction:           DMA_PERIPH_TO_MEMORY,
 125:../Firmware/GD32VW55x_standard_peripheral/Source/gd32vw55x_dma.c ****                                        DMA_MEMORY_TO_PERIPH,
 126:../Firmware/GD32VW55x_standard_peripheral/Source/gd32vw55x_dma.c ****                                        DMA_MEMORY_TO_MEMORY
 127:../Firmware/GD32VW55x_standard_peripheral/Source/gd32vw55x_dma.c ****                   number: the number of remaining data to be transferred by the DMA
 128:../Firmware/GD32VW55x_standard_peripheral/Source/gd32vw55x_dma.c ****                   priority: DMA_PRIORITY_LOW,DMA_PRIORITY_MEDIUM,DMA_PRIORITY_HIGH,DMA_PRIORITY_ULT
 129:../Firmware/GD32VW55x_standard_peripheral/Source/gd32vw55x_dma.c ****     \param[out] none
 130:../Firmware/GD32VW55x_standard_peripheral/Source/gd32vw55x_dma.c ****     \retval     none
 131:../Firmware/GD32VW55x_standard_peripheral/Source/gd32vw55x_dma.c **** */
 132:../Firmware/GD32VW55x_standard_peripheral/Source/gd32vw55x_dma.c **** void dma_single_data_mode_init(dma_channel_enum channelx, dma_single_data_parameter_struct* init_st
 133:../Firmware/GD32VW55x_standard_peripheral/Source/gd32vw55x_dma.c **** {
 318              		.loc 1 133 1
 319              		.cfi_startproc
 320 0000 7971     		addi	sp,sp,-48
 321              		.cfi_def_cfa_offset 48
 322 0002 22D6     		sw	s0,44(sp)
 323              		.cfi_offset 8, -4
 324 0004 0018     		addi	s0,sp,48
 325              		.cfi_def_cfa 8, 0
 326 0006 232EA4FC 		sw	a0,-36(s0)
 327 000a 232CB4FC 		sw	a1,-40(s0)
 134:../Firmware/GD32VW55x_standard_peripheral/Source/gd32vw55x_dma.c ****     uint32_t ctl;
 135:../Firmware/GD32VW55x_standard_peripheral/Source/gd32vw55x_dma.c **** 
 136:../Firmware/GD32VW55x_standard_peripheral/Source/gd32vw55x_dma.c ****     /* select single data mode */
 137:../Firmware/GD32VW55x_standard_peripheral/Source/gd32vw55x_dma.c ****     DMA_CHFCTL(channelx) &= ~DMA_CHXFCTL_MDMEN;
 328              		.loc 1 137 26
 329 000e 0327C4FD 		lw	a4,-36(s0)
 330 0012 BA87     		mv	a5,a4
 331 0014 8607     		slli	a5,a5,1
 332 0016 BA97     		add	a5,a5,a4
 333 0018 8E07     		slli	a5,a5,3
 334 001a 3E87     		mv	a4,a5
 335 001c B7670240 		li	a5,1073897472
 336 0020 93874702 		addi	a5,a5,36
 337 0024 BA97     		add	a5,a4,a5
 338 0026 9443     		lw	a3,0(a5)
 339 0028 0327C4FD 		lw	a4,-36(s0)
 340 002c BA87     		mv	a5,a4
 341 002e 8607     		slli	a5,a5,1
 342 0030 BA97     		add	a5,a5,a4
 343 0032 8E07     		slli	a5,a5,3
 344 0034 3E87     		mv	a4,a5
 345 0036 B7670240 		li	a5,1073897472
 346 003a 93874702 		addi	a5,a5,36
 347 003e BA97     		add	a5,a4,a5
 348 0040 3E87     		mv	a4,a5
 349 0042 93F7B6FF 		andi	a5,a3,-5
 350 0046 1CC3     		sw	a5,0(a4)
 138:../Firmware/GD32VW55x_standard_peripheral/Source/gd32vw55x_dma.c **** 
 139:../Firmware/GD32VW55x_standard_peripheral/Source/gd32vw55x_dma.c ****     /* configure peripheral base address */
 140:../Firmware/GD32VW55x_standard_peripheral/Source/gd32vw55x_dma.c ****     DMA_CHPADDR(channelx) = init_struct->periph_addr;
 351              		.loc 1 140 5
 352 0048 0327C4FD 		lw	a4,-36(s0)
 353 004c BA87     		mv	a5,a4
 354 004e 8607     		slli	a5,a5,1
 355 0050 BA97     		add	a5,a5,a4
 356 0052 8E07     		slli	a5,a5,3
 357 0054 3E87     		mv	a4,a5
 358 0056 B7670240 		li	a5,1073897472
 359 005a E107     		addi	a5,a5,24
 360 005c BA97     		add	a5,a4,a5
 361 005e 3E87     		mv	a4,a5
 362              		.loc 1 140 40
 363 0060 832784FD 		lw	a5,-40(s0)
 364 0064 9C43     		lw	a5,0(a5)
 365              		.loc 1 140 27
 366 0066 1CC3     		sw	a5,0(a4)
 141:../Firmware/GD32VW55x_standard_peripheral/Source/gd32vw55x_dma.c **** 
 142:../Firmware/GD32VW55x_standard_peripheral/Source/gd32vw55x_dma.c ****     /* configure memory base address */
 143:../Firmware/GD32VW55x_standard_peripheral/Source/gd32vw55x_dma.c ****     DMA_CHM0ADDR(channelx) = init_struct->memory0_addr;
 367              		.loc 1 143 5
 368 0068 0327C4FD 		lw	a4,-36(s0)
 369 006c BA87     		mv	a5,a4
 370 006e 8607     		slli	a5,a5,1
 371 0070 BA97     		add	a5,a5,a4
 372 0072 8E07     		slli	a5,a5,3
 373 0074 3E87     		mv	a4,a5
 374 0076 B7670240 		li	a5,1073897472
 375 007a F107     		addi	a5,a5,28
 376 007c BA97     		add	a5,a4,a5
 377 007e 3E87     		mv	a4,a5
 378              		.loc 1 143 41
 379 0080 832784FD 		lw	a5,-40(s0)
 380 0084 9C47     		lw	a5,8(a5)
 381              		.loc 1 143 28
 382 0086 1CC3     		sw	a5,0(a4)
 144:../Firmware/GD32VW55x_standard_peripheral/Source/gd32vw55x_dma.c **** 
 145:../Firmware/GD32VW55x_standard_peripheral/Source/gd32vw55x_dma.c ****     /* configure the number of remaining data to be transferred */
 146:../Firmware/GD32VW55x_standard_peripheral/Source/gd32vw55x_dma.c ****     DMA_CHCNT(channelx) = init_struct->number;
 383              		.loc 1 146 5
 384 0088 0327C4FD 		lw	a4,-36(s0)
 385 008c BA87     		mv	a5,a4
 386 008e 8607     		slli	a5,a5,1
 387 0090 BA97     		add	a5,a5,a4
 388 0092 8E07     		slli	a5,a5,3
 389 0094 3E87     		mv	a4,a5
 390 0096 B7670240 		li	a5,1073897472
 391 009a D107     		addi	a5,a5,20
 392 009c BA97     		add	a5,a4,a5
 393 009e 3E87     		mv	a4,a5
 394              		.loc 1 146 38
 395 00a0 832784FD 		lw	a5,-40(s0)
 396 00a4 DC4F     		lw	a5,28(a5)
 397              		.loc 1 146 25
 398 00a6 1CC3     		sw	a5,0(a4)
 147:../Firmware/GD32VW55x_standard_peripheral/Source/gd32vw55x_dma.c **** 
 148:../Firmware/GD32VW55x_standard_peripheral/Source/gd32vw55x_dma.c ****     /* configure peripheral and memory transfer width,channel priority, transfer mode */
 149:../Firmware/GD32VW55x_standard_peripheral/Source/gd32vw55x_dma.c ****     ctl = DMA_CHCTL(channelx);
 399              		.loc 1 149 11
 400 00a8 0327C4FD 		lw	a4,-36(s0)
 401 00ac BA87     		mv	a5,a4
 402 00ae 8607     		slli	a5,a5,1
 403 00b0 BA97     		add	a5,a5,a4
 404 00b2 8E07     		slli	a5,a5,3
 405 00b4 3E87     		mv	a4,a5
 406 00b6 B7670240 		li	a5,1073897472
 407 00ba C107     		addi	a5,a5,16
 408 00bc BA97     		add	a5,a4,a5
 409              		.loc 1 149 9
 410 00be 9C43     		lw	a5,0(a5)
 411 00c0 2326F4FE 		sw	a5,-20(s0)
 150:../Firmware/GD32VW55x_standard_peripheral/Source/gd32vw55x_dma.c ****     ctl &= ~(DMA_CHXCTL_PWIDTH | DMA_CHXCTL_MWIDTH | DMA_CHXCTL_PRIO | DMA_CHXCTL_TM);
 412              		.loc 1 150 9
 413 00c4 0327C4FE 		lw	a4,-20(s0)
 414 00c8 B787FCFF 		li	a5,-229376
 415 00cc 9387F773 		addi	a5,a5,1855
 416 00d0 F98F     		and	a5,a4,a5
 417 00d2 2326F4FE 		sw	a5,-20(s0)
 151:../Firmware/GD32VW55x_standard_peripheral/Source/gd32vw55x_dma.c ****     ctl |= (init_struct->periph_memory_width | (init_struct->periph_memory_width << 2) | init_struc
 418              		.loc 1 151 24
 419 00d6 832784FD 		lw	a5,-40(s0)
 420 00da 984B     		lw	a4,16(a5)
 421              		.loc 1 151 60
 422 00dc 832784FD 		lw	a5,-40(s0)
 423 00e0 9C4B     		lw	a5,16(a5)
 424              		.loc 1 151 82
 425 00e2 8A07     		slli	a5,a5,2
 426              		.loc 1 151 46
 427 00e4 5D8F     		or	a4,a4,a5
 428              		.loc 1 151 101
 429 00e6 832784FD 		lw	a5,-40(s0)
 430 00ea 9C53     		lw	a5,32(a5)
 431              		.loc 1 151 88
 432 00ec 5D8F     		or	a4,a4,a5
 433              		.loc 1 151 125
 434 00ee 832784FD 		lw	a5,-40(s0)
 435 00f2 9C4F     		lw	a5,24(a5)
 436              		.loc 1 151 112
 437 00f4 D98F     		or	a5,a4,a5
 438              		.loc 1 151 9
 439 00f6 0327C4FE 		lw	a4,-20(s0)
 440 00fa D98F     		or	a5,a4,a5
 441 00fc 2326F4FE 		sw	a5,-20(s0)
 152:../Firmware/GD32VW55x_standard_peripheral/Source/gd32vw55x_dma.c ****     DMA_CHCTL(channelx) = ctl;
 442              		.loc 1 152 5
 443 0100 0327C4FD 		lw	a4,-36(s0)
 444 0104 BA87     		mv	a5,a4
 445 0106 8607     		slli	a5,a5,1
 446 0108 BA97     		add	a5,a5,a4
 447 010a 8E07     		slli	a5,a5,3
 448 010c 3E87     		mv	a4,a5
 449 010e B7670240 		li	a5,1073897472
 450 0112 C107     		addi	a5,a5,16
 451 0114 BA97     		add	a5,a4,a5
 452 0116 3E87     		mv	a4,a5
 453              		.loc 1 152 25
 454 0118 8327C4FE 		lw	a5,-20(s0)
 455 011c 1CC3     		sw	a5,0(a4)
 153:../Firmware/GD32VW55x_standard_peripheral/Source/gd32vw55x_dma.c **** 
 154:../Firmware/GD32VW55x_standard_peripheral/Source/gd32vw55x_dma.c ****     /* configure peripheral increasing mode */
 155:../Firmware/GD32VW55x_standard_peripheral/Source/gd32vw55x_dma.c ****     if(DMA_PERIPH_INCREASE_ENABLE == init_struct->periph_inc){
 456              		.loc 1 155 49
 457 011e 832784FD 		lw	a5,-40(s0)
 458 0122 DC43     		lw	a5,4(a5)
 459              		.loc 1 155 7
 460 0124 8DEF     		bne	a5,zero,.L8
 156:../Firmware/GD32VW55x_standard_peripheral/Source/gd32vw55x_dma.c ****         DMA_CHCTL(channelx) |= DMA_CHXCTL_PNAGA;
 461              		.loc 1 156 29
 462 0126 0327C4FD 		lw	a4,-36(s0)
 463 012a BA87     		mv	a5,a4
 464 012c 8607     		slli	a5,a5,1
 465 012e BA97     		add	a5,a5,a4
 466 0130 8E07     		slli	a5,a5,3
 467 0132 3E87     		mv	a4,a5
 468 0134 B7670240 		li	a5,1073897472
 469 0138 C107     		addi	a5,a5,16
 470 013a BA97     		add	a5,a4,a5
 471 013c 9443     		lw	a3,0(a5)
 472 013e 0327C4FD 		lw	a4,-36(s0)
 473 0142 BA87     		mv	a5,a4
 474 0144 8607     		slli	a5,a5,1
 475 0146 BA97     		add	a5,a5,a4
 476 0148 8E07     		slli	a5,a5,3
 477 014a 3E87     		mv	a4,a5
 478 014c B7670240 		li	a5,1073897472
 479 0150 C107     		addi	a5,a5,16
 480 0152 BA97     		add	a5,a4,a5
 481 0154 3E87     		mv	a4,a5
 482 0156 93E70620 		ori	a5,a3,512
 483 015a 1CC3     		sw	a5,0(a4)
 484 015c B5A8     		j	.L9
 485              	.L8:
 157:../Firmware/GD32VW55x_standard_peripheral/Source/gd32vw55x_dma.c ****     }else if(DMA_PERIPH_INCREASE_DISABLE == init_struct->periph_inc){
 486              		.loc 1 157 56
 487 015e 832784FD 		lw	a5,-40(s0)
 488 0162 D843     		lw	a4,4(a5)
 489              		.loc 1 157 13
 490 0164 8547     		li	a5,1
 491 0166 631EF702 		bne	a4,a5,.L10
 158:../Firmware/GD32VW55x_standard_peripheral/Source/gd32vw55x_dma.c ****         DMA_CHCTL(channelx) &= ~DMA_CHXCTL_PNAGA;
 492              		.loc 1 158 29
 493 016a 0327C4FD 		lw	a4,-36(s0)
 494 016e BA87     		mv	a5,a4
 495 0170 8607     		slli	a5,a5,1
 496 0172 BA97     		add	a5,a5,a4
 497 0174 8E07     		slli	a5,a5,3
 498 0176 3E87     		mv	a4,a5
 499 0178 B7670240 		li	a5,1073897472
 500 017c C107     		addi	a5,a5,16
 501 017e BA97     		add	a5,a4,a5
 502 0180 9443     		lw	a3,0(a5)
 503 0182 0327C4FD 		lw	a4,-36(s0)
 504 0186 BA87     		mv	a5,a4
 505 0188 8607     		slli	a5,a5,1
 506 018a BA97     		add	a5,a5,a4
 507 018c 8E07     		slli	a5,a5,3
 508 018e 3E87     		mv	a4,a5
 509 0190 B7670240 		li	a5,1073897472
 510 0194 C107     		addi	a5,a5,16
 511 0196 BA97     		add	a5,a4,a5
 512 0198 3E87     		mv	a4,a5
 513 019a 93F7F6DF 		andi	a5,a3,-513
 514 019e 1CC3     		sw	a5,0(a4)
 515 01a0 25A8     		j	.L9
 516              	.L10:
 159:../Firmware/GD32VW55x_standard_peripheral/Source/gd32vw55x_dma.c ****     }else{
 160:../Firmware/GD32VW55x_standard_peripheral/Source/gd32vw55x_dma.c ****         DMA_CHCTL(channelx) |= DMA_CHXCTL_PAIF;
 517              		.loc 1 160 29
 518 01a2 0327C4FD 		lw	a4,-36(s0)
 519 01a6 BA87     		mv	a5,a4
 520 01a8 8607     		slli	a5,a5,1
 521 01aa BA97     		add	a5,a5,a4
 522 01ac 8E07     		slli	a5,a5,3
 523 01ae 3E87     		mv	a4,a5
 524 01b0 B7670240 		li	a5,1073897472
 525 01b4 C107     		addi	a5,a5,16
 526 01b6 BA97     		add	a5,a4,a5
 527 01b8 9443     		lw	a3,0(a5)
 528 01ba 0327C4FD 		lw	a4,-36(s0)
 529 01be BA87     		mv	a5,a4
 530 01c0 8607     		slli	a5,a5,1
 531 01c2 BA97     		add	a5,a5,a4
 532 01c4 8E07     		slli	a5,a5,3
 533 01c6 3E87     		mv	a4,a5
 534 01c8 B7670240 		li	a5,1073897472
 535 01cc C107     		addi	a5,a5,16
 536 01ce BA97     		add	a5,a4,a5
 537 01d0 3E87     		mv	a4,a5
 538 01d2 A167     		li	a5,32768
 539 01d4 D58F     		or	a5,a3,a5
 540 01d6 1CC3     		sw	a5,0(a4)
 541              	.L9:
 161:../Firmware/GD32VW55x_standard_peripheral/Source/gd32vw55x_dma.c ****     }
 162:../Firmware/GD32VW55x_standard_peripheral/Source/gd32vw55x_dma.c **** 
 163:../Firmware/GD32VW55x_standard_peripheral/Source/gd32vw55x_dma.c ****     /* configure memory increasing mode */
 164:../Firmware/GD32VW55x_standard_peripheral/Source/gd32vw55x_dma.c ****     if(DMA_MEMORY_INCREASE_ENABLE == init_struct->memory_inc){
 542              		.loc 1 164 49
 543 01d8 832784FD 		lw	a5,-40(s0)
 544 01dc DC47     		lw	a5,12(a5)
 545              		.loc 1 164 7
 546 01de 8DEF     		bne	a5,zero,.L11
 165:../Firmware/GD32VW55x_standard_peripheral/Source/gd32vw55x_dma.c ****         DMA_CHCTL(channelx) |= DMA_CHXCTL_MNAGA;
 547              		.loc 1 165 29
 548 01e0 0327C4FD 		lw	a4,-36(s0)
 549 01e4 BA87     		mv	a5,a4
 550 01e6 8607     		slli	a5,a5,1
 551 01e8 BA97     		add	a5,a5,a4
 552 01ea 8E07     		slli	a5,a5,3
 553 01ec 3E87     		mv	a4,a5
 554 01ee B7670240 		li	a5,1073897472
 555 01f2 C107     		addi	a5,a5,16
 556 01f4 BA97     		add	a5,a4,a5
 557 01f6 9443     		lw	a3,0(a5)
 558 01f8 0327C4FD 		lw	a4,-36(s0)
 559 01fc BA87     		mv	a5,a4
 560 01fe 8607     		slli	a5,a5,1
 561 0200 BA97     		add	a5,a5,a4
 562 0202 8E07     		slli	a5,a5,3
 563 0204 3E87     		mv	a4,a5
 564 0206 B7670240 		li	a5,1073897472
 565 020a C107     		addi	a5,a5,16
 566 020c BA97     		add	a5,a4,a5
 567 020e 3E87     		mv	a4,a5
 568 0210 93E70640 		ori	a5,a3,1024
 569 0214 1CC3     		sw	a5,0(a4)
 570 0216 25A8     		j	.L12
 571              	.L11:
 166:../Firmware/GD32VW55x_standard_peripheral/Source/gd32vw55x_dma.c ****     }else{
 167:../Firmware/GD32VW55x_standard_peripheral/Source/gd32vw55x_dma.c ****         DMA_CHCTL(channelx) &= ~DMA_CHXCTL_MNAGA;
 572              		.loc 1 167 29
 573 0218 0327C4FD 		lw	a4,-36(s0)
 574 021c BA87     		mv	a5,a4
 575 021e 8607     		slli	a5,a5,1
 576 0220 BA97     		add	a5,a5,a4
 577 0222 8E07     		slli	a5,a5,3
 578 0224 3E87     		mv	a4,a5
 579 0226 B7670240 		li	a5,1073897472
 580 022a C107     		addi	a5,a5,16
 581 022c BA97     		add	a5,a4,a5
 582 022e 9443     		lw	a3,0(a5)
 583 0230 0327C4FD 		lw	a4,-36(s0)
 584 0234 BA87     		mv	a5,a4
 585 0236 8607     		slli	a5,a5,1
 586 0238 BA97     		add	a5,a5,a4
 587 023a 8E07     		slli	a5,a5,3
 588 023c 3E87     		mv	a4,a5
 589 023e B7670240 		li	a5,1073897472
 590 0242 C107     		addi	a5,a5,16
 591 0244 BA97     		add	a5,a4,a5
 592 0246 3E87     		mv	a4,a5
 593 0248 93F7F6BF 		andi	a5,a3,-1025
 594 024c 1CC3     		sw	a5,0(a4)
 595              	.L12:
 168:../Firmware/GD32VW55x_standard_peripheral/Source/gd32vw55x_dma.c ****     }
 169:../Firmware/GD32VW55x_standard_peripheral/Source/gd32vw55x_dma.c **** 
 170:../Firmware/GD32VW55x_standard_peripheral/Source/gd32vw55x_dma.c ****     /* configure DMA circular mode */
 171:../Firmware/GD32VW55x_standard_peripheral/Source/gd32vw55x_dma.c ****     if(DMA_CIRCULAR_MODE_ENABLE == init_struct->circular_mode){
 596              		.loc 1 171 47
 597 024e 832784FD 		lw	a5,-40(s0)
 598 0252 D84B     		lw	a4,20(a5)
 599              		.loc 1 171 7
 600 0254 8547     		li	a5,1
 601 0256 631EF702 		bne	a4,a5,.L13
 172:../Firmware/GD32VW55x_standard_peripheral/Source/gd32vw55x_dma.c ****         DMA_CHCTL(channelx) |= DMA_CHXCTL_CMEN;
 602              		.loc 1 172 29
 603 025a 0327C4FD 		lw	a4,-36(s0)
 604 025e BA87     		mv	a5,a4
 605 0260 8607     		slli	a5,a5,1
 606 0262 BA97     		add	a5,a5,a4
 607 0264 8E07     		slli	a5,a5,3
 608 0266 3E87     		mv	a4,a5
 609 0268 B7670240 		li	a5,1073897472
 610 026c C107     		addi	a5,a5,16
 611 026e BA97     		add	a5,a4,a5
 612 0270 9443     		lw	a3,0(a5)
 613 0272 0327C4FD 		lw	a4,-36(s0)
 614 0276 BA87     		mv	a5,a4
 615 0278 8607     		slli	a5,a5,1
 616 027a BA97     		add	a5,a5,a4
 617 027c 8E07     		slli	a5,a5,3
 618 027e 3E87     		mv	a4,a5
 619 0280 B7670240 		li	a5,1073897472
 620 0284 C107     		addi	a5,a5,16
 621 0286 BA97     		add	a5,a4,a5
 622 0288 3E87     		mv	a4,a5
 623 028a 93E70610 		ori	a5,a3,256
 624 028e 1CC3     		sw	a5,0(a4)
 173:../Firmware/GD32VW55x_standard_peripheral/Source/gd32vw55x_dma.c ****     }else{
 174:../Firmware/GD32VW55x_standard_peripheral/Source/gd32vw55x_dma.c ****         DMA_CHCTL(channelx) &= ~DMA_CHXCTL_CMEN;
 175:../Firmware/GD32VW55x_standard_peripheral/Source/gd32vw55x_dma.c ****     }
 176:../Firmware/GD32VW55x_standard_peripheral/Source/gd32vw55x_dma.c **** }
 625              		.loc 1 176 1
 626 0290 25A8     		j	.L15
 627              	.L13:
 174:../Firmware/GD32VW55x_standard_peripheral/Source/gd32vw55x_dma.c ****     }
 628              		.loc 1 174 29
 629 0292 0327C4FD 		lw	a4,-36(s0)
 630 0296 BA87     		mv	a5,a4
 631 0298 8607     		slli	a5,a5,1
 632 029a BA97     		add	a5,a5,a4
 633 029c 8E07     		slli	a5,a5,3
 634 029e 3E87     		mv	a4,a5
 635 02a0 B7670240 		li	a5,1073897472
 636 02a4 C107     		addi	a5,a5,16
 637 02a6 BA97     		add	a5,a4,a5
 638 02a8 9443     		lw	a3,0(a5)
 639 02aa 0327C4FD 		lw	a4,-36(s0)
 640 02ae BA87     		mv	a5,a4
 641 02b0 8607     		slli	a5,a5,1
 642 02b2 BA97     		add	a5,a5,a4
 643 02b4 8E07     		slli	a5,a5,3
 644 02b6 3E87     		mv	a4,a5
 645 02b8 B7670240 		li	a5,1073897472
 646 02bc C107     		addi	a5,a5,16
 647 02be BA97     		add	a5,a4,a5
 648 02c0 3E87     		mv	a4,a5
 649 02c2 93F7F6EF 		andi	a5,a3,-257
 650 02c6 1CC3     		sw	a5,0(a4)
 651              	.L15:
 652              		.loc 1 176 1
 653 02c8 0100     		nop
 654 02ca 3254     		lw	s0,44(sp)
 655              		.cfi_restore 8
 656              		.cfi_def_cfa 2, 48
 657 02cc 4561     		addi	sp,sp,48
 658              		.cfi_def_cfa_offset 0
 659 02ce 8280     		jr	ra
 660              		.cfi_endproc
 661              	.LFE350:
 663              		.section	.text.dma_multi_data_mode_init,"ax",@progbits
 664              		.align	1
 665              		.globl	dma_multi_data_mode_init
 667              	dma_multi_data_mode_init:
 668              	.LFB351:
 177:../Firmware/GD32VW55x_standard_peripheral/Source/gd32vw55x_dma.c **** 
 178:../Firmware/GD32VW55x_standard_peripheral/Source/gd32vw55x_dma.c **** /*!
 179:../Firmware/GD32VW55x_standard_peripheral/Source/gd32vw55x_dma.c ****     \brief      initialize DMA multi data mode
 180:../Firmware/GD32VW55x_standard_peripheral/Source/gd32vw55x_dma.c ****     \param[in]  channelx: specify which DMA channel is initialized
 181:../Firmware/GD32VW55x_standard_peripheral/Source/gd32vw55x_dma.c ****       \arg        DMA_CHx (x=0..7)
 182:../Firmware/GD32VW55x_standard_peripheral/Source/gd32vw55x_dma.c ****     \param[in]  DMA_multi_data_parameter_struct: the data needed to initialize DMA multi data mode
 183:../Firmware/GD32VW55x_standard_peripheral/Source/gd32vw55x_dma.c ****                   periph_addr:        peripheral base address
 184:../Firmware/GD32VW55x_standard_peripheral/Source/gd32vw55x_dma.c ****                   periph_width:       DMA_PERIPH_WIDTH_8BIT,
 185:../Firmware/GD32VW55x_standard_peripheral/Source/gd32vw55x_dma.c ****                                       DMA_PERIPH_WIDTH_16BIT,
 186:../Firmware/GD32VW55x_standard_peripheral/Source/gd32vw55x_dma.c ****                                       DMA_PERIPH_WIDTH_32BIT
 187:../Firmware/GD32VW55x_standard_peripheral/Source/gd32vw55x_dma.c ****                   periph_inc:         DMA_PERIPH_INCREASE_ENABLE,
 188:../Firmware/GD32VW55x_standard_peripheral/Source/gd32vw55x_dma.c ****                                       DMA_PERIPH_INCREASE_DISABLE,
 189:../Firmware/GD32VW55x_standard_peripheral/Source/gd32vw55x_dma.c ****                                       DMA_PERIPH_INCREASE_FIX
 190:../Firmware/GD32VW55x_standard_peripheral/Source/gd32vw55x_dma.c ****                   memory0_addr:       memory0 base address
 191:../Firmware/GD32VW55x_standard_peripheral/Source/gd32vw55x_dma.c ****                   memory_width:       DMA_MEMORY_WIDTH_8BIT,
 192:../Firmware/GD32VW55x_standard_peripheral/Source/gd32vw55x_dma.c ****                                       DMA_MEMORY_WIDTH_16BIT,
 193:../Firmware/GD32VW55x_standard_peripheral/Source/gd32vw55x_dma.c ****                                       DMA_MEMORY_WIDTH_32BIT
 194:../Firmware/GD32VW55x_standard_peripheral/Source/gd32vw55x_dma.c ****                   memory_inc:         DMA_MEMORY_INCREASE_ENABLE,
 195:../Firmware/GD32VW55x_standard_peripheral/Source/gd32vw55x_dma.c ****                                       DMA_MEMORY_INCREASE_DISABLE
 196:../Firmware/GD32VW55x_standard_peripheral/Source/gd32vw55x_dma.c ****                   memory_burst_width: DMA_MEMORY_BURST_SINGLE,
 197:../Firmware/GD32VW55x_standard_peripheral/Source/gd32vw55x_dma.c ****                                       DMA_MEMORY_BURST_4_BEAT,
 198:../Firmware/GD32VW55x_standard_peripheral/Source/gd32vw55x_dma.c ****                                       DMA_MEMORY_BURST_8_BEAT,
 199:../Firmware/GD32VW55x_standard_peripheral/Source/gd32vw55x_dma.c ****                                       DMA_MEMORY_BURST_16_BEAT
 200:../Firmware/GD32VW55x_standard_peripheral/Source/gd32vw55x_dma.c ****                   periph_burst_width: DMA_PERIPH_BURST_SINGLE,
 201:../Firmware/GD32VW55x_standard_peripheral/Source/gd32vw55x_dma.c ****                                       DMA_PERIPH_BURST_4_BEAT,
 202:../Firmware/GD32VW55x_standard_peripheral/Source/gd32vw55x_dma.c ****                                       DMA_PERIPH_BURST_8_BEAT,
 203:../Firmware/GD32VW55x_standard_peripheral/Source/gd32vw55x_dma.c ****                                       DMA_PERIPH_BURST_16_BEAT
 204:../Firmware/GD32VW55x_standard_peripheral/Source/gd32vw55x_dma.c ****                   critical_value:     DMA_FIFO_1_WORD,
 205:../Firmware/GD32VW55x_standard_peripheral/Source/gd32vw55x_dma.c ****                                       DMA_FIFO_2_WORD,
 206:../Firmware/GD32VW55x_standard_peripheral/Source/gd32vw55x_dma.c ****                                       DMA_FIFO_3_WORD,
 207:../Firmware/GD32VW55x_standard_peripheral/Source/gd32vw55x_dma.c ****                                       DMA_FIFO_4_WORD
 208:../Firmware/GD32VW55x_standard_peripheral/Source/gd32vw55x_dma.c ****                   circular_mode:      DMA_CIRCULAR_MODE_ENABLE,
 209:../Firmware/GD32VW55x_standard_peripheral/Source/gd32vw55x_dma.c ****                                       DMA_CIRCULAR_MODE_DISABLE
 210:../Firmware/GD32VW55x_standard_peripheral/Source/gd32vw55x_dma.c ****                   direction:          DMA_PERIPH_TO_MEMORY,
 211:../Firmware/GD32VW55x_standard_peripheral/Source/gd32vw55x_dma.c ****                                       DMA_MEMORY_TO_PERIPH,
 212:../Firmware/GD32VW55x_standard_peripheral/Source/gd32vw55x_dma.c ****                                       DMA_MEMORY_TO_MEMORY
 213:../Firmware/GD32VW55x_standard_peripheral/Source/gd32vw55x_dma.c ****                   number:             the number of remaining data to be transferred by the DMA
 214:../Firmware/GD32VW55x_standard_peripheral/Source/gd32vw55x_dma.c ****                   priority:           DMA_PRIORITY_LOW,
 215:../Firmware/GD32VW55x_standard_peripheral/Source/gd32vw55x_dma.c ****                                       DMA_PRIORITY_MEDIUM,
 216:../Firmware/GD32VW55x_standard_peripheral/Source/gd32vw55x_dma.c ****                                       DMA_PRIORITY_HIGH,
 217:../Firmware/GD32VW55x_standard_peripheral/Source/gd32vw55x_dma.c ****                                       DMA_PRIORITY_ULTRA_HIGH
 218:../Firmware/GD32VW55x_standard_peripheral/Source/gd32vw55x_dma.c ****     \param[out] none
 219:../Firmware/GD32VW55x_standard_peripheral/Source/gd32vw55x_dma.c ****     \retval     none
 220:../Firmware/GD32VW55x_standard_peripheral/Source/gd32vw55x_dma.c **** */
 221:../Firmware/GD32VW55x_standard_peripheral/Source/gd32vw55x_dma.c **** void dma_multi_data_mode_init(dma_channel_enum channelx, dma_multi_data_parameter_struct* init_stru
 222:../Firmware/GD32VW55x_standard_peripheral/Source/gd32vw55x_dma.c **** {
 669              		.loc 1 222 1
 670              		.cfi_startproc
 671 0000 7971     		addi	sp,sp,-48
 672              		.cfi_def_cfa_offset 48
 673 0002 22D6     		sw	s0,44(sp)
 674              		.cfi_offset 8, -4
 675 0004 0018     		addi	s0,sp,48
 676              		.cfi_def_cfa 8, 0
 677 0006 232EA4FC 		sw	a0,-36(s0)
 678 000a 232CB4FC 		sw	a1,-40(s0)
 223:../Firmware/GD32VW55x_standard_peripheral/Source/gd32vw55x_dma.c ****     uint32_t ctl;
 224:../Firmware/GD32VW55x_standard_peripheral/Source/gd32vw55x_dma.c **** 
 225:../Firmware/GD32VW55x_standard_peripheral/Source/gd32vw55x_dma.c ****     DMA_CHFCTL(channelx) &= ~DMA_CHXFCTL_FCCV;
 679              		.loc 1 225 26
 680 000e 0327C4FD 		lw	a4,-36(s0)
 681 0012 BA87     		mv	a5,a4
 682 0014 8607     		slli	a5,a5,1
 683 0016 BA97     		add	a5,a5,a4
 684 0018 8E07     		slli	a5,a5,3
 685 001a 3E87     		mv	a4,a5
 686 001c B7670240 		li	a5,1073897472
 687 0020 93874702 		addi	a5,a5,36
 688 0024 BA97     		add	a5,a4,a5
 689 0026 9443     		lw	a3,0(a5)
 690 0028 0327C4FD 		lw	a4,-36(s0)
 691 002c BA87     		mv	a5,a4
 692 002e 8607     		slli	a5,a5,1
 693 0030 BA97     		add	a5,a5,a4
 694 0032 8E07     		slli	a5,a5,3
 695 0034 3E87     		mv	a4,a5
 696 0036 B7670240 		li	a5,1073897472
 697 003a 93874702 		addi	a5,a5,36
 698 003e BA97     		add	a5,a4,a5
 699 0040 3E87     		mv	a4,a5
 700 0042 93F7C6FF 		andi	a5,a3,-4
 701 0046 1CC3     		sw	a5,0(a4)
 226:../Firmware/GD32VW55x_standard_peripheral/Source/gd32vw55x_dma.c ****     /* select multi data mode and configure FIFO critical value */
 227:../Firmware/GD32VW55x_standard_peripheral/Source/gd32vw55x_dma.c ****     DMA_CHFCTL(channelx) |= (DMA_CHXFCTL_MDMEN | init_struct->critical_value);
 702              		.loc 1 227 26
 703 0048 0327C4FD 		lw	a4,-36(s0)
 704 004c BA87     		mv	a5,a4
 705 004e 8607     		slli	a5,a5,1
 706 0050 BA97     		add	a5,a5,a4
 707 0052 8E07     		slli	a5,a5,3
 708 0054 3E87     		mv	a4,a5
 709 0056 B7670240 		li	a5,1073897472
 710 005a 93874702 		addi	a5,a5,36
 711 005e BA97     		add	a5,a4,a5
 712 0060 9843     		lw	a4,0(a5)
 713              		.loc 1 227 61
 714 0062 832784FD 		lw	a5,-40(s0)
 715 0066 9C53     		lw	a5,32(a5)
 716              		.loc 1 227 26
 717 0068 B366F700 		or	a3,a4,a5
 718 006c 0327C4FD 		lw	a4,-36(s0)
 719 0070 BA87     		mv	a5,a4
 720 0072 8607     		slli	a5,a5,1
 721 0074 BA97     		add	a5,a5,a4
 722 0076 8E07     		slli	a5,a5,3
 723 0078 3E87     		mv	a4,a5
 724 007a B7670240 		li	a5,1073897472
 725 007e 93874702 		addi	a5,a5,36
 726 0082 BA97     		add	a5,a4,a5
 727 0084 3E87     		mv	a4,a5
 728 0086 93E74600 		ori	a5,a3,4
 729 008a 1CC3     		sw	a5,0(a4)
 228:../Firmware/GD32VW55x_standard_peripheral/Source/gd32vw55x_dma.c **** 
 229:../Firmware/GD32VW55x_standard_peripheral/Source/gd32vw55x_dma.c ****     /* configure peripheral base address */
 230:../Firmware/GD32VW55x_standard_peripheral/Source/gd32vw55x_dma.c ****     DMA_CHPADDR(channelx) = init_struct->periph_addr;
 730              		.loc 1 230 5
 731 008c 0327C4FD 		lw	a4,-36(s0)
 732 0090 BA87     		mv	a5,a4
 733 0092 8607     		slli	a5,a5,1
 734 0094 BA97     		add	a5,a5,a4
 735 0096 8E07     		slli	a5,a5,3
 736 0098 3E87     		mv	a4,a5
 737 009a B7670240 		li	a5,1073897472
 738 009e E107     		addi	a5,a5,24
 739 00a0 BA97     		add	a5,a4,a5
 740 00a2 3E87     		mv	a4,a5
 741              		.loc 1 230 40
 742 00a4 832784FD 		lw	a5,-40(s0)
 743 00a8 9C43     		lw	a5,0(a5)
 744              		.loc 1 230 27
 745 00aa 1CC3     		sw	a5,0(a4)
 231:../Firmware/GD32VW55x_standard_peripheral/Source/gd32vw55x_dma.c **** 
 232:../Firmware/GD32VW55x_standard_peripheral/Source/gd32vw55x_dma.c ****     /* configure memory base address */
 233:../Firmware/GD32VW55x_standard_peripheral/Source/gd32vw55x_dma.c ****     DMA_CHM0ADDR(channelx) = init_struct->memory0_addr;
 746              		.loc 1 233 5
 747 00ac 0327C4FD 		lw	a4,-36(s0)
 748 00b0 BA87     		mv	a5,a4
 749 00b2 8607     		slli	a5,a5,1
 750 00b4 BA97     		add	a5,a5,a4
 751 00b6 8E07     		slli	a5,a5,3
 752 00b8 3E87     		mv	a4,a5
 753 00ba B7670240 		li	a5,1073897472
 754 00be F107     		addi	a5,a5,28
 755 00c0 BA97     		add	a5,a4,a5
 756 00c2 3E87     		mv	a4,a5
 757              		.loc 1 233 41
 758 00c4 832784FD 		lw	a5,-40(s0)
 759 00c8 DC47     		lw	a5,12(a5)
 760              		.loc 1 233 28
 761 00ca 1CC3     		sw	a5,0(a4)
 234:../Firmware/GD32VW55x_standard_peripheral/Source/gd32vw55x_dma.c **** 
 235:../Firmware/GD32VW55x_standard_peripheral/Source/gd32vw55x_dma.c ****     /* configure the number of remaining data to be transferred */
 236:../Firmware/GD32VW55x_standard_peripheral/Source/gd32vw55x_dma.c ****     DMA_CHCNT(channelx) = init_struct->number;
 762              		.loc 1 236 5
 763 00cc 0327C4FD 		lw	a4,-36(s0)
 764 00d0 BA87     		mv	a5,a4
 765 00d2 8607     		slli	a5,a5,1
 766 00d4 BA97     		add	a5,a5,a4
 767 00d6 8E07     		slli	a5,a5,3
 768 00d8 3E87     		mv	a4,a5
 769 00da B7670240 		li	a5,1073897472
 770 00de D107     		addi	a5,a5,20
 771 00e0 BA97     		add	a5,a4,a5
 772 00e2 3E87     		mv	a4,a5
 773              		.loc 1 236 38
 774 00e4 832784FD 		lw	a5,-40(s0)
 775 00e8 DC57     		lw	a5,44(a5)
 776              		.loc 1 236 25
 777 00ea 1CC3     		sw	a5,0(a4)
 237:../Firmware/GD32VW55x_standard_peripheral/Source/gd32vw55x_dma.c **** 
 238:../Firmware/GD32VW55x_standard_peripheral/Source/gd32vw55x_dma.c ****     /* configure peripheral and memory transfer width,channel priority
 239:../Firmware/GD32VW55x_standard_peripheral/Source/gd32vw55x_dma.c **** ,transfer mode,peripheral and memory burst transfer width */
 240:../Firmware/GD32VW55x_standard_peripheral/Source/gd32vw55x_dma.c ****     ctl = DMA_CHCTL(channelx);
 778              		.loc 1 240 11
 779 00ec 0327C4FD 		lw	a4,-36(s0)
 780 00f0 BA87     		mv	a5,a4
 781 00f2 8607     		slli	a5,a5,1
 782 00f4 BA97     		add	a5,a5,a4
 783 00f6 8E07     		slli	a5,a5,3
 784 00f8 3E87     		mv	a4,a5
 785 00fa B7670240 		li	a5,1073897472
 786 00fe C107     		addi	a5,a5,16
 787 0100 BA97     		add	a5,a4,a5
 788              		.loc 1 240 9
 789 0102 9C43     		lw	a5,0(a5)
 790 0104 2326F4FE 		sw	a5,-20(s0)
 241:../Firmware/GD32VW55x_standard_peripheral/Source/gd32vw55x_dma.c ****     ctl &= ~(DMA_CHXCTL_PWIDTH | DMA_CHXCTL_MWIDTH | DMA_CHXCTL_PRIO | DMA_CHXCTL_TM | DMA_CHXCTL_P
 791              		.loc 1 241 9
 792 0108 0327C4FE 		lw	a4,-20(s0)
 793 010c B7871CFE 		li	a5,-31686656
 794 0110 9387F773 		addi	a5,a5,1855
 795 0114 F98F     		and	a5,a4,a5
 796 0116 2326F4FE 		sw	a5,-20(s0)
 242:../Firmware/GD32VW55x_standard_peripheral/Source/gd32vw55x_dma.c ****     ctl |= (init_struct->periph_width | (init_struct->memory_width) | init_struct->priority | init_
 797              		.loc 1 242 24
 798 011a 832784FD 		lw	a5,-40(s0)
 799 011e D843     		lw	a4,4(a5)
 800              		.loc 1 242 53
 801 0120 832784FD 		lw	a5,-40(s0)
 802 0124 9C4B     		lw	a5,16(a5)
 803              		.loc 1 242 39
 804 0126 5D8F     		or	a4,a4,a5
 805              		.loc 1 242 82
 806 0128 832784FD 		lw	a5,-40(s0)
 807 012c 9C5B     		lw	a5,48(a5)
 808              		.loc 1 242 69
 809 012e 5D8F     		or	a4,a4,a5
 810              		.loc 1 242 106
 811 0130 832784FD 		lw	a5,-40(s0)
 812 0134 9C57     		lw	a5,40(a5)
 813              		.loc 1 242 93
 814 0136 5D8F     		or	a4,a4,a5
 815              		.loc 1 242 131
 816 0138 832784FD 		lw	a5,-40(s0)
 817 013c 9C4F     		lw	a5,24(a5)
 818              		.loc 1 242 118
 819 013e 5D8F     		or	a4,a4,a5
 820              		.loc 1 242 165
 821 0140 832784FD 		lw	a5,-40(s0)
 822 0144 DC4F     		lw	a5,28(a5)
 823              		.loc 1 242 152
 824 0146 D98F     		or	a5,a4,a5
 825              		.loc 1 242 9
 826 0148 0327C4FE 		lw	a4,-20(s0)
 827 014c D98F     		or	a5,a4,a5
 828 014e 2326F4FE 		sw	a5,-20(s0)
 243:../Firmware/GD32VW55x_standard_peripheral/Source/gd32vw55x_dma.c ****     DMA_CHCTL(channelx) = ctl;
 829              		.loc 1 243 5
 830 0152 0327C4FD 		lw	a4,-36(s0)
 831 0156 BA87     		mv	a5,a4
 832 0158 8607     		slli	a5,a5,1
 833 015a BA97     		add	a5,a5,a4
 834 015c 8E07     		slli	a5,a5,3
 835 015e 3E87     		mv	a4,a5
 836 0160 B7670240 		li	a5,1073897472
 837 0164 C107     		addi	a5,a5,16
 838 0166 BA97     		add	a5,a4,a5
 839 0168 3E87     		mv	a4,a5
 840              		.loc 1 243 25
 841 016a 8327C4FE 		lw	a5,-20(s0)
 842 016e 1CC3     		sw	a5,0(a4)
 244:../Firmware/GD32VW55x_standard_peripheral/Source/gd32vw55x_dma.c **** 
 245:../Firmware/GD32VW55x_standard_peripheral/Source/gd32vw55x_dma.c ****     /* configure peripheral increasing mode */
 246:../Firmware/GD32VW55x_standard_peripheral/Source/gd32vw55x_dma.c ****     if(DMA_PERIPH_INCREASE_ENABLE == init_struct->periph_inc){
 843              		.loc 1 246 49
 844 0170 832784FD 		lw	a5,-40(s0)
 845 0174 9C47     		lw	a5,8(a5)
 846              		.loc 1 246 7
 847 0176 8DEF     		bne	a5,zero,.L17
 247:../Firmware/GD32VW55x_standard_peripheral/Source/gd32vw55x_dma.c ****         DMA_CHCTL(channelx) |= DMA_CHXCTL_PNAGA;
 848              		.loc 1 247 29
 849 0178 0327C4FD 		lw	a4,-36(s0)
 850 017c BA87     		mv	a5,a4
 851 017e 8607     		slli	a5,a5,1
 852 0180 BA97     		add	a5,a5,a4
 853 0182 8E07     		slli	a5,a5,3
 854 0184 3E87     		mv	a4,a5
 855 0186 B7670240 		li	a5,1073897472
 856 018a C107     		addi	a5,a5,16
 857 018c BA97     		add	a5,a4,a5
 858 018e 9443     		lw	a3,0(a5)
 859 0190 0327C4FD 		lw	a4,-36(s0)
 860 0194 BA87     		mv	a5,a4
 861 0196 8607     		slli	a5,a5,1
 862 0198 BA97     		add	a5,a5,a4
 863 019a 8E07     		slli	a5,a5,3
 864 019c 3E87     		mv	a4,a5
 865 019e B7670240 		li	a5,1073897472
 866 01a2 C107     		addi	a5,a5,16
 867 01a4 BA97     		add	a5,a4,a5
 868 01a6 3E87     		mv	a4,a5
 869 01a8 93E70620 		ori	a5,a3,512
 870 01ac 1CC3     		sw	a5,0(a4)
 871 01ae B5A8     		j	.L18
 872              	.L17:
 248:../Firmware/GD32VW55x_standard_peripheral/Source/gd32vw55x_dma.c ****     }else if(DMA_PERIPH_INCREASE_DISABLE == init_struct->periph_inc){
 873              		.loc 1 248 56
 874 01b0 832784FD 		lw	a5,-40(s0)
 875 01b4 9847     		lw	a4,8(a5)
 876              		.loc 1 248 13
 877 01b6 8547     		li	a5,1
 878 01b8 631EF702 		bne	a4,a5,.L19
 249:../Firmware/GD32VW55x_standard_peripheral/Source/gd32vw55x_dma.c ****         DMA_CHCTL(channelx) &= ~DMA_CHXCTL_PNAGA;
 879              		.loc 1 249 29
 880 01bc 0327C4FD 		lw	a4,-36(s0)
 881 01c0 BA87     		mv	a5,a4
 882 01c2 8607     		slli	a5,a5,1
 883 01c4 BA97     		add	a5,a5,a4
 884 01c6 8E07     		slli	a5,a5,3
 885 01c8 3E87     		mv	a4,a5
 886 01ca B7670240 		li	a5,1073897472
 887 01ce C107     		addi	a5,a5,16
 888 01d0 BA97     		add	a5,a4,a5
 889 01d2 9443     		lw	a3,0(a5)
 890 01d4 0327C4FD 		lw	a4,-36(s0)
 891 01d8 BA87     		mv	a5,a4
 892 01da 8607     		slli	a5,a5,1
 893 01dc BA97     		add	a5,a5,a4
 894 01de 8E07     		slli	a5,a5,3
 895 01e0 3E87     		mv	a4,a5
 896 01e2 B7670240 		li	a5,1073897472
 897 01e6 C107     		addi	a5,a5,16
 898 01e8 BA97     		add	a5,a4,a5
 899 01ea 3E87     		mv	a4,a5
 900 01ec 93F7F6DF 		andi	a5,a3,-513
 901 01f0 1CC3     		sw	a5,0(a4)
 902 01f2 25A8     		j	.L18
 903              	.L19:
 250:../Firmware/GD32VW55x_standard_peripheral/Source/gd32vw55x_dma.c ****     }else{
 251:../Firmware/GD32VW55x_standard_peripheral/Source/gd32vw55x_dma.c ****         DMA_CHCTL(channelx) |= DMA_CHXCTL_PAIF;
 904              		.loc 1 251 29
 905 01f4 0327C4FD 		lw	a4,-36(s0)
 906 01f8 BA87     		mv	a5,a4
 907 01fa 8607     		slli	a5,a5,1
 908 01fc BA97     		add	a5,a5,a4
 909 01fe 8E07     		slli	a5,a5,3
 910 0200 3E87     		mv	a4,a5
 911 0202 B7670240 		li	a5,1073897472
 912 0206 C107     		addi	a5,a5,16
 913 0208 BA97     		add	a5,a4,a5
 914 020a 9443     		lw	a3,0(a5)
 915 020c 0327C4FD 		lw	a4,-36(s0)
 916 0210 BA87     		mv	a5,a4
 917 0212 8607     		slli	a5,a5,1
 918 0214 BA97     		add	a5,a5,a4
 919 0216 8E07     		slli	a5,a5,3
 920 0218 3E87     		mv	a4,a5
 921 021a B7670240 		li	a5,1073897472
 922 021e C107     		addi	a5,a5,16
 923 0220 BA97     		add	a5,a4,a5
 924 0222 3E87     		mv	a4,a5
 925 0224 A167     		li	a5,32768
 926 0226 D58F     		or	a5,a3,a5
 927 0228 1CC3     		sw	a5,0(a4)
 928              	.L18:
 252:../Firmware/GD32VW55x_standard_peripheral/Source/gd32vw55x_dma.c ****     }
 253:../Firmware/GD32VW55x_standard_peripheral/Source/gd32vw55x_dma.c **** 
 254:../Firmware/GD32VW55x_standard_peripheral/Source/gd32vw55x_dma.c ****     /* configure memory increasing mode */
 255:../Firmware/GD32VW55x_standard_peripheral/Source/gd32vw55x_dma.c ****     if(DMA_MEMORY_INCREASE_ENABLE == init_struct->memory_inc){
 929              		.loc 1 255 49
 930 022a 832784FD 		lw	a5,-40(s0)
 931 022e DC4B     		lw	a5,20(a5)
 932              		.loc 1 255 7
 933 0230 8DEF     		bne	a5,zero,.L20
 256:../Firmware/GD32VW55x_standard_peripheral/Source/gd32vw55x_dma.c ****         DMA_CHCTL(channelx) |= DMA_CHXCTL_MNAGA;
 934              		.loc 1 256 29
 935 0232 0327C4FD 		lw	a4,-36(s0)
 936 0236 BA87     		mv	a5,a4
 937 0238 8607     		slli	a5,a5,1
 938 023a BA97     		add	a5,a5,a4
 939 023c 8E07     		slli	a5,a5,3
 940 023e 3E87     		mv	a4,a5
 941 0240 B7670240 		li	a5,1073897472
 942 0244 C107     		addi	a5,a5,16
 943 0246 BA97     		add	a5,a4,a5
 944 0248 9443     		lw	a3,0(a5)
 945 024a 0327C4FD 		lw	a4,-36(s0)
 946 024e BA87     		mv	a5,a4
 947 0250 8607     		slli	a5,a5,1
 948 0252 BA97     		add	a5,a5,a4
 949 0254 8E07     		slli	a5,a5,3
 950 0256 3E87     		mv	a4,a5
 951 0258 B7670240 		li	a5,1073897472
 952 025c C107     		addi	a5,a5,16
 953 025e BA97     		add	a5,a4,a5
 954 0260 3E87     		mv	a4,a5
 955 0262 93E70640 		ori	a5,a3,1024
 956 0266 1CC3     		sw	a5,0(a4)
 957 0268 25A8     		j	.L21
 958              	.L20:
 257:../Firmware/GD32VW55x_standard_peripheral/Source/gd32vw55x_dma.c ****     }else{
 258:../Firmware/GD32VW55x_standard_peripheral/Source/gd32vw55x_dma.c ****         DMA_CHCTL(channelx) &= ~DMA_CHXCTL_MNAGA;
 959              		.loc 1 258 29
 960 026a 0327C4FD 		lw	a4,-36(s0)
 961 026e BA87     		mv	a5,a4
 962 0270 8607     		slli	a5,a5,1
 963 0272 BA97     		add	a5,a5,a4
 964 0274 8E07     		slli	a5,a5,3
 965 0276 3E87     		mv	a4,a5
 966 0278 B7670240 		li	a5,1073897472
 967 027c C107     		addi	a5,a5,16
 968 027e BA97     		add	a5,a4,a5
 969 0280 9443     		lw	a3,0(a5)
 970 0282 0327C4FD 		lw	a4,-36(s0)
 971 0286 BA87     		mv	a5,a4
 972 0288 8607     		slli	a5,a5,1
 973 028a BA97     		add	a5,a5,a4
 974 028c 8E07     		slli	a5,a5,3
 975 028e 3E87     		mv	a4,a5
 976 0290 B7670240 		li	a5,1073897472
 977 0294 C107     		addi	a5,a5,16
 978 0296 BA97     		add	a5,a4,a5
 979 0298 3E87     		mv	a4,a5
 980 029a 93F7F6BF 		andi	a5,a3,-1025
 981 029e 1CC3     		sw	a5,0(a4)
 982              	.L21:
 259:../Firmware/GD32VW55x_standard_peripheral/Source/gd32vw55x_dma.c ****     }
 260:../Firmware/GD32VW55x_standard_peripheral/Source/gd32vw55x_dma.c **** 
 261:../Firmware/GD32VW55x_standard_peripheral/Source/gd32vw55x_dma.c ****     /* configure DMA circular mode */
 262:../Firmware/GD32VW55x_standard_peripheral/Source/gd32vw55x_dma.c ****     if(DMA_CIRCULAR_MODE_ENABLE == init_struct->circular_mode){
 983              		.loc 1 262 47
 984 02a0 832784FD 		lw	a5,-40(s0)
 985 02a4 D853     		lw	a4,36(a5)
 986              		.loc 1 262 7
 987 02a6 8547     		li	a5,1
 988 02a8 631EF702 		bne	a4,a5,.L22
 263:../Firmware/GD32VW55x_standard_peripheral/Source/gd32vw55x_dma.c ****         DMA_CHCTL(channelx) |= DMA_CHXCTL_CMEN;
 989              		.loc 1 263 29
 990 02ac 0327C4FD 		lw	a4,-36(s0)
 991 02b0 BA87     		mv	a5,a4
 992 02b2 8607     		slli	a5,a5,1
 993 02b4 BA97     		add	a5,a5,a4
 994 02b6 8E07     		slli	a5,a5,3
 995 02b8 3E87     		mv	a4,a5
 996 02ba B7670240 		li	a5,1073897472
 997 02be C107     		addi	a5,a5,16
 998 02c0 BA97     		add	a5,a4,a5
 999 02c2 9443     		lw	a3,0(a5)
 1000 02c4 0327C4FD 		lw	a4,-36(s0)
 1001 02c8 BA87     		mv	a5,a4
 1002 02ca 8607     		slli	a5,a5,1
 1003 02cc BA97     		add	a5,a5,a4
 1004 02ce 8E07     		slli	a5,a5,3
 1005 02d0 3E87     		mv	a4,a5
 1006 02d2 B7670240 		li	a5,1073897472
 1007 02d6 C107     		addi	a5,a5,16
 1008 02d8 BA97     		add	a5,a4,a5
 1009 02da 3E87     		mv	a4,a5
 1010 02dc 93E70610 		ori	a5,a3,256
 1011 02e0 1CC3     		sw	a5,0(a4)
 264:../Firmware/GD32VW55x_standard_peripheral/Source/gd32vw55x_dma.c ****     }else{
 265:../Firmware/GD32VW55x_standard_peripheral/Source/gd32vw55x_dma.c ****         DMA_CHCTL(channelx) &= ~DMA_CHXCTL_CMEN;
 266:../Firmware/GD32VW55x_standard_peripheral/Source/gd32vw55x_dma.c ****     }
 267:../Firmware/GD32VW55x_standard_peripheral/Source/gd32vw55x_dma.c **** }
 1012              		.loc 1 267 1
 1013 02e2 25A8     		j	.L24
 1014              	.L22:
 265:../Firmware/GD32VW55x_standard_peripheral/Source/gd32vw55x_dma.c ****     }
 1015              		.loc 1 265 29
 1016 02e4 0327C4FD 		lw	a4,-36(s0)
 1017 02e8 BA87     		mv	a5,a4
 1018 02ea 8607     		slli	a5,a5,1
 1019 02ec BA97     		add	a5,a5,a4
 1020 02ee 8E07     		slli	a5,a5,3
 1021 02f0 3E87     		mv	a4,a5
 1022 02f2 B7670240 		li	a5,1073897472
 1023 02f6 C107     		addi	a5,a5,16
 1024 02f8 BA97     		add	a5,a4,a5
 1025 02fa 9443     		lw	a3,0(a5)
 1026 02fc 0327C4FD 		lw	a4,-36(s0)
 1027 0300 BA87     		mv	a5,a4
 1028 0302 8607     		slli	a5,a5,1
 1029 0304 BA97     		add	a5,a5,a4
 1030 0306 8E07     		slli	a5,a5,3
 1031 0308 3E87     		mv	a4,a5
 1032 030a B7670240 		li	a5,1073897472
 1033 030e C107     		addi	a5,a5,16
 1034 0310 BA97     		add	a5,a4,a5
 1035 0312 3E87     		mv	a4,a5
 1036 0314 93F7F6EF 		andi	a5,a3,-257
 1037 0318 1CC3     		sw	a5,0(a4)
 1038              	.L24:
 1039              		.loc 1 267 1
 1040 031a 0100     		nop
 1041 031c 3254     		lw	s0,44(sp)
 1042              		.cfi_restore 8
 1043              		.cfi_def_cfa 2, 48
 1044 031e 4561     		addi	sp,sp,48
 1045              		.cfi_def_cfa_offset 0
 1046 0320 8280     		jr	ra
 1047              		.cfi_endproc
 1048              	.LFE351:
 1050              		.section	.text.dma_periph_address_config,"ax",@progbits
 1051              		.align	1
 1052              		.globl	dma_periph_address_config
 1054              	dma_periph_address_config:
 1055              	.LFB352:
 268:../Firmware/GD32VW55x_standard_peripheral/Source/gd32vw55x_dma.c **** 
 269:../Firmware/GD32VW55x_standard_peripheral/Source/gd32vw55x_dma.c **** /*!
 270:../Firmware/GD32VW55x_standard_peripheral/Source/gd32vw55x_dma.c ****     \brief      set DMA peripheral base address
 271:../Firmware/GD32VW55x_standard_peripheral/Source/gd32vw55x_dma.c ****     \param[in]  channelx: specify which DMA channel to set peripheral base address
 272:../Firmware/GD32VW55x_standard_peripheral/Source/gd32vw55x_dma.c ****       \arg        DMA_CHx (x=0..7)
 273:../Firmware/GD32VW55x_standard_peripheral/Source/gd32vw55x_dma.c ****     \param[in]  address: peripheral base address
 274:../Firmware/GD32VW55x_standard_peripheral/Source/gd32vw55x_dma.c ****     \param[out] none
 275:../Firmware/GD32VW55x_standard_peripheral/Source/gd32vw55x_dma.c ****     \retval     none
 276:../Firmware/GD32VW55x_standard_peripheral/Source/gd32vw55x_dma.c **** */
 277:../Firmware/GD32VW55x_standard_peripheral/Source/gd32vw55x_dma.c **** void dma_periph_address_config(dma_channel_enum channelx, uint32_t address)
 278:../Firmware/GD32VW55x_standard_peripheral/Source/gd32vw55x_dma.c **** {
 1056              		.loc 1 278 1
 1057              		.cfi_startproc
 1058 0000 0111     		addi	sp,sp,-32
 1059              		.cfi_def_cfa_offset 32
 1060 0002 22CE     		sw	s0,28(sp)
 1061              		.cfi_offset 8, -4
 1062 0004 0010     		addi	s0,sp,32
 1063              		.cfi_def_cfa 8, 0
 1064 0006 2326A4FE 		sw	a0,-20(s0)
 1065 000a 2324B4FE 		sw	a1,-24(s0)
 279:../Firmware/GD32VW55x_standard_peripheral/Source/gd32vw55x_dma.c ****     DMA_CHPADDR(channelx) = address;
 1066              		.loc 1 279 5
 1067 000e 0327C4FE 		lw	a4,-20(s0)
 1068 0012 BA87     		mv	a5,a4
 1069 0014 8607     		slli	a5,a5,1
 1070 0016 BA97     		add	a5,a5,a4
 1071 0018 8E07     		slli	a5,a5,3
 1072 001a 3E87     		mv	a4,a5
 1073 001c B7670240 		li	a5,1073897472
 1074 0020 E107     		addi	a5,a5,24
 1075 0022 BA97     		add	a5,a4,a5
 1076 0024 3E87     		mv	a4,a5
 1077              		.loc 1 279 27
 1078 0026 832784FE 		lw	a5,-24(s0)
 1079 002a 1CC3     		sw	a5,0(a4)
 280:../Firmware/GD32VW55x_standard_peripheral/Source/gd32vw55x_dma.c **** }
 1080              		.loc 1 280 1
 1081 002c 0100     		nop
 1082 002e 7244     		lw	s0,28(sp)
 1083              		.cfi_restore 8
 1084              		.cfi_def_cfa 2, 32
 1085 0030 0561     		addi	sp,sp,32
 1086              		.cfi_def_cfa_offset 0
 1087 0032 8280     		jr	ra
 1088              		.cfi_endproc
 1089              	.LFE352:
 1091              		.section	.text.dma_memory_address_config,"ax",@progbits
 1092              		.align	1
 1093              		.globl	dma_memory_address_config
 1095              	dma_memory_address_config:
 1096              	.LFB353:
 281:../Firmware/GD32VW55x_standard_peripheral/Source/gd32vw55x_dma.c **** 
 282:../Firmware/GD32VW55x_standard_peripheral/Source/gd32vw55x_dma.c **** /*!
 283:../Firmware/GD32VW55x_standard_peripheral/Source/gd32vw55x_dma.c ****     \brief      set DMA memory0 base address
 284:../Firmware/GD32VW55x_standard_peripheral/Source/gd32vw55x_dma.c ****     \param[in]  channelx: specify which DMA channel to set Memory base address
 285:../Firmware/GD32VW55x_standard_peripheral/Source/gd32vw55x_dma.c ****       \arg        DMA_CHx (x=0..7)
 286:../Firmware/GD32VW55x_standard_peripheral/Source/gd32vw55x_dma.c ****     \param[in]  memory_flag: DMA_MEMORY_x (x=0,1)
 287:../Firmware/GD32VW55x_standard_peripheral/Source/gd32vw55x_dma.c ****     \param[in]  address: Memory base address
 288:../Firmware/GD32VW55x_standard_peripheral/Source/gd32vw55x_dma.c ****     \param[out] none
 289:../Firmware/GD32VW55x_standard_peripheral/Source/gd32vw55x_dma.c ****     \retval     none
 290:../Firmware/GD32VW55x_standard_peripheral/Source/gd32vw55x_dma.c **** */
 291:../Firmware/GD32VW55x_standard_peripheral/Source/gd32vw55x_dma.c **** void dma_memory_address_config(dma_channel_enum channelx, uint8_t memory_flag, uint32_t address)
 292:../Firmware/GD32VW55x_standard_peripheral/Source/gd32vw55x_dma.c **** {
 1097              		.loc 1 292 1
 1098              		.cfi_startproc
 1099 0000 0111     		addi	sp,sp,-32
 1100              		.cfi_def_cfa_offset 32
 1101 0002 22CE     		sw	s0,28(sp)
 1102              		.cfi_offset 8, -4
 1103 0004 0010     		addi	s0,sp,32
 1104              		.cfi_def_cfa 8, 0
 1105 0006 2326A4FE 		sw	a0,-20(s0)
 1106 000a AE87     		mv	a5,a1
 1107 000c 2322C4FE 		sw	a2,-28(s0)
 1108 0010 A305F4FE 		sb	a5,-21(s0)
 293:../Firmware/GD32VW55x_standard_peripheral/Source/gd32vw55x_dma.c ****     if(memory_flag){
 1109              		.loc 1 293 7
 1110 0014 8347B4FE 		lbu	a5,-21(s0)
 1111 0018 95C3     		beq	a5,zero,.L27
 294:../Firmware/GD32VW55x_standard_peripheral/Source/gd32vw55x_dma.c ****         DMA_CHM1ADDR(channelx) = address;
 1112              		.loc 1 294 9
 1113 001a 0327C4FE 		lw	a4,-20(s0)
 1114 001e BA87     		mv	a5,a4
 1115 0020 8607     		slli	a5,a5,1
 1116 0022 BA97     		add	a5,a5,a4
 1117 0024 8E07     		slli	a5,a5,3
 1118 0026 3E87     		mv	a4,a5
 1119 0028 B7670240 		li	a5,1073897472
 1120 002c 93870702 		addi	a5,a5,32
 1121 0030 BA97     		add	a5,a4,a5
 1122 0032 3E87     		mv	a4,a5
 1123              		.loc 1 294 32
 1124 0034 832744FE 		lw	a5,-28(s0)
 1125 0038 1CC3     		sw	a5,0(a4)
 295:../Firmware/GD32VW55x_standard_peripheral/Source/gd32vw55x_dma.c ****     }else{
 296:../Firmware/GD32VW55x_standard_peripheral/Source/gd32vw55x_dma.c ****         DMA_CHM0ADDR(channelx) = address;
 297:../Firmware/GD32VW55x_standard_peripheral/Source/gd32vw55x_dma.c ****     }
 298:../Firmware/GD32VW55x_standard_peripheral/Source/gd32vw55x_dma.c **** }
 1126              		.loc 1 298 1
 1127 003a 05A0     		j	.L29
 1128              	.L27:
 296:../Firmware/GD32VW55x_standard_peripheral/Source/gd32vw55x_dma.c ****     }
 1129              		.loc 1 296 9
 1130 003c 0327C4FE 		lw	a4,-20(s0)
 1131 0040 BA87     		mv	a5,a4
 1132 0042 8607     		slli	a5,a5,1
 1133 0044 BA97     		add	a5,a5,a4
 1134 0046 8E07     		slli	a5,a5,3
 1135 0048 3E87     		mv	a4,a5
 1136 004a B7670240 		li	a5,1073897472
 1137 004e F107     		addi	a5,a5,28
 1138 0050 BA97     		add	a5,a4,a5
 1139 0052 3E87     		mv	a4,a5
 296:../Firmware/GD32VW55x_standard_peripheral/Source/gd32vw55x_dma.c ****     }
 1140              		.loc 1 296 32
 1141 0054 832744FE 		lw	a5,-28(s0)
 1142 0058 1CC3     		sw	a5,0(a4)
 1143              	.L29:
 1144              		.loc 1 298 1
 1145 005a 0100     		nop
 1146 005c 7244     		lw	s0,28(sp)
 1147              		.cfi_restore 8
 1148              		.cfi_def_cfa 2, 32
 1149 005e 0561     		addi	sp,sp,32
 1150              		.cfi_def_cfa_offset 0
 1151 0060 8280     		jr	ra
 1152              		.cfi_endproc
 1153              	.LFE353:
 1155              		.section	.text.dma_transfer_number_config,"ax",@progbits
 1156              		.align	1
 1157              		.globl	dma_transfer_number_config
 1159              	dma_transfer_number_config:
 1160              	.LFB354:
 299:../Firmware/GD32VW55x_standard_peripheral/Source/gd32vw55x_dma.c **** 
 300:../Firmware/GD32VW55x_standard_peripheral/Source/gd32vw55x_dma.c **** /*!
 301:../Firmware/GD32VW55x_standard_peripheral/Source/gd32vw55x_dma.c ****     \brief      set the number of remaining data to be transferred by the DMA
 302:../Firmware/GD32VW55x_standard_peripheral/Source/gd32vw55x_dma.c ****     \param[in]  channelx: specify which DMA channel to set number
 303:../Firmware/GD32VW55x_standard_peripheral/Source/gd32vw55x_dma.c ****       \arg        DMA_CHx (x=0..7)
 304:../Firmware/GD32VW55x_standard_peripheral/Source/gd32vw55x_dma.c ****     \param[in]  number: the number of remaining data to be transferred by the DMA
 305:../Firmware/GD32VW55x_standard_peripheral/Source/gd32vw55x_dma.c ****     \param[out] none
 306:../Firmware/GD32VW55x_standard_peripheral/Source/gd32vw55x_dma.c ****     \retval     none
 307:../Firmware/GD32VW55x_standard_peripheral/Source/gd32vw55x_dma.c **** */
 308:../Firmware/GD32VW55x_standard_peripheral/Source/gd32vw55x_dma.c **** void dma_transfer_number_config(dma_channel_enum channelx, uint32_t number)
 309:../Firmware/GD32VW55x_standard_peripheral/Source/gd32vw55x_dma.c **** {
 1161              		.loc 1 309 1
 1162              		.cfi_startproc
 1163 0000 0111     		addi	sp,sp,-32
 1164              		.cfi_def_cfa_offset 32
 1165 0002 22CE     		sw	s0,28(sp)
 1166              		.cfi_offset 8, -4
 1167 0004 0010     		addi	s0,sp,32
 1168              		.cfi_def_cfa 8, 0
 1169 0006 2326A4FE 		sw	a0,-20(s0)
 1170 000a 2324B4FE 		sw	a1,-24(s0)
 310:../Firmware/GD32VW55x_standard_peripheral/Source/gd32vw55x_dma.c ****     DMA_CHCNT(channelx) = number;
 1171              		.loc 1 310 5
 1172 000e 0327C4FE 		lw	a4,-20(s0)
 1173 0012 BA87     		mv	a5,a4
 1174 0014 8607     		slli	a5,a5,1
 1175 0016 BA97     		add	a5,a5,a4
 1176 0018 8E07     		slli	a5,a5,3
 1177 001a 3E87     		mv	a4,a5
 1178 001c B7670240 		li	a5,1073897472
 1179 0020 D107     		addi	a5,a5,20
 1180 0022 BA97     		add	a5,a4,a5
 1181 0024 3E87     		mv	a4,a5
 1182              		.loc 1 310 25
 1183 0026 832784FE 		lw	a5,-24(s0)
 1184 002a 1CC3     		sw	a5,0(a4)
 311:../Firmware/GD32VW55x_standard_peripheral/Source/gd32vw55x_dma.c **** }
 1185              		.loc 1 311 1
 1186 002c 0100     		nop
 1187 002e 7244     		lw	s0,28(sp)
 1188              		.cfi_restore 8
 1189              		.cfi_def_cfa 2, 32
 1190 0030 0561     		addi	sp,sp,32
 1191              		.cfi_def_cfa_offset 0
 1192 0032 8280     		jr	ra
 1193              		.cfi_endproc
 1194              	.LFE354:
 1196              		.section	.text.dma_transfer_number_get,"ax",@progbits
 1197              		.align	1
 1198              		.globl	dma_transfer_number_get
 1200              	dma_transfer_number_get:
 1201              	.LFB355:
 312:../Firmware/GD32VW55x_standard_peripheral/Source/gd32vw55x_dma.c **** 
 313:../Firmware/GD32VW55x_standard_peripheral/Source/gd32vw55x_dma.c **** /*!
 314:../Firmware/GD32VW55x_standard_peripheral/Source/gd32vw55x_dma.c ****     \brief      get the number of remaining data to be transferred by the DMA
 315:../Firmware/GD32VW55x_standard_peripheral/Source/gd32vw55x_dma.c ****     \param[in]  channelx: specify which DMA channel to set number
 316:../Firmware/GD32VW55x_standard_peripheral/Source/gd32vw55x_dma.c ****       \arg        DMA_CHx (x=0..7)
 317:../Firmware/GD32VW55x_standard_peripheral/Source/gd32vw55x_dma.c ****     \param[out] none
 318:../Firmware/GD32VW55x_standard_peripheral/Source/gd32vw55x_dma.c ****     \retval     uint32_t: the number of remaining data to be transferred by the DMA
 319:../Firmware/GD32VW55x_standard_peripheral/Source/gd32vw55x_dma.c **** */
 320:../Firmware/GD32VW55x_standard_peripheral/Source/gd32vw55x_dma.c **** uint32_t dma_transfer_number_get(dma_channel_enum channelx)
 321:../Firmware/GD32VW55x_standard_peripheral/Source/gd32vw55x_dma.c **** {
 1202              		.loc 1 321 1
 1203              		.cfi_startproc
 1204 0000 0111     		addi	sp,sp,-32
 1205              		.cfi_def_cfa_offset 32
 1206 0002 22CE     		sw	s0,28(sp)
 1207              		.cfi_offset 8, -4
 1208 0004 0010     		addi	s0,sp,32
 1209              		.cfi_def_cfa 8, 0
 1210 0006 2326A4FE 		sw	a0,-20(s0)
 322:../Firmware/GD32VW55x_standard_peripheral/Source/gd32vw55x_dma.c ****     return (uint32_t)DMA_CHCNT(channelx);
 1211              		.loc 1 322 22
 1212 000a 0327C4FE 		lw	a4,-20(s0)
 1213 000e BA87     		mv	a5,a4
 1214 0010 8607     		slli	a5,a5,1
 1215 0012 BA97     		add	a5,a5,a4
 1216 0014 8E07     		slli	a5,a5,3
 1217 0016 3E87     		mv	a4,a5
 1218 0018 B7670240 		li	a5,1073897472
 1219 001c D107     		addi	a5,a5,20
 1220 001e BA97     		add	a5,a4,a5
 1221              		.loc 1 322 12
 1222 0020 9C43     		lw	a5,0(a5)
 323:../Firmware/GD32VW55x_standard_peripheral/Source/gd32vw55x_dma.c **** }
 1223              		.loc 1 323 1
 1224 0022 3E85     		mv	a0,a5
 1225 0024 7244     		lw	s0,28(sp)
 1226              		.cfi_restore 8
 1227              		.cfi_def_cfa 2, 32
 1228 0026 0561     		addi	sp,sp,32
 1229              		.cfi_def_cfa_offset 0
 1230 0028 8280     		jr	ra
 1231              		.cfi_endproc
 1232              	.LFE355:
 1234              		.section	.text.dma_priority_config,"ax",@progbits
 1235              		.align	1
 1236              		.globl	dma_priority_config
 1238              	dma_priority_config:
 1239              	.LFB356:
 324:../Firmware/GD32VW55x_standard_peripheral/Source/gd32vw55x_dma.c **** 
 325:../Firmware/GD32VW55x_standard_peripheral/Source/gd32vw55x_dma.c **** /*!
 326:../Firmware/GD32VW55x_standard_peripheral/Source/gd32vw55x_dma.c ****     \brief      configure priority level of DMA channel
 327:../Firmware/GD32VW55x_standard_peripheral/Source/gd32vw55x_dma.c ****     \param[in]  channelx: specify which DMA channel
 328:../Firmware/GD32VW55x_standard_peripheral/Source/gd32vw55x_dma.c ****       \arg        DMA_CHx (x=0..7)
 329:../Firmware/GD32VW55x_standard_peripheral/Source/gd32vw55x_dma.c ****     \param[in]  priority: priority Level of this channel
 330:../Firmware/GD32VW55x_standard_peripheral/Source/gd32vw55x_dma.c ****                 only one parameter can be selected which is shown as below:
 331:../Firmware/GD32VW55x_standard_peripheral/Source/gd32vw55x_dma.c ****       \arg        DMA_PRIORITY_LOW: low priority
 332:../Firmware/GD32VW55x_standard_peripheral/Source/gd32vw55x_dma.c ****       \arg        DMA_PRIORITY_MEDIUM: medium priority
 333:../Firmware/GD32VW55x_standard_peripheral/Source/gd32vw55x_dma.c ****       \arg        DMA_PRIORITY_HIGH: high priority
 334:../Firmware/GD32VW55x_standard_peripheral/Source/gd32vw55x_dma.c ****       \arg        DMA_PRIORITY_ULTRA_HIGH: ultra high priority
 335:../Firmware/GD32VW55x_standard_peripheral/Source/gd32vw55x_dma.c ****     \param[out] none
 336:../Firmware/GD32VW55x_standard_peripheral/Source/gd32vw55x_dma.c ****     \retval     none
 337:../Firmware/GD32VW55x_standard_peripheral/Source/gd32vw55x_dma.c **** */
 338:../Firmware/GD32VW55x_standard_peripheral/Source/gd32vw55x_dma.c **** void dma_priority_config(dma_channel_enum channelx, uint32_t priority)
 339:../Firmware/GD32VW55x_standard_peripheral/Source/gd32vw55x_dma.c **** {
 1240              		.loc 1 339 1
 1241              		.cfi_startproc
 1242 0000 7971     		addi	sp,sp,-48
 1243              		.cfi_def_cfa_offset 48
 1244 0002 22D6     		sw	s0,44(sp)
 1245              		.cfi_offset 8, -4
 1246 0004 0018     		addi	s0,sp,48
 1247              		.cfi_def_cfa 8, 0
 1248 0006 232EA4FC 		sw	a0,-36(s0)
 1249 000a 232CB4FC 		sw	a1,-40(s0)
 340:../Firmware/GD32VW55x_standard_peripheral/Source/gd32vw55x_dma.c ****     uint32_t ctl;
 341:../Firmware/GD32VW55x_standard_peripheral/Source/gd32vw55x_dma.c ****     /* acquire DMA_CHxCTL register */
 342:../Firmware/GD32VW55x_standard_peripheral/Source/gd32vw55x_dma.c ****     ctl = DMA_CHCTL(channelx);
 1250              		.loc 1 342 11
 1251 000e 0327C4FD 		lw	a4,-36(s0)
 1252 0012 BA87     		mv	a5,a4
 1253 0014 8607     		slli	a5,a5,1
 1254 0016 BA97     		add	a5,a5,a4
 1255 0018 8E07     		slli	a5,a5,3
 1256 001a 3E87     		mv	a4,a5
 1257 001c B7670240 		li	a5,1073897472
 1258 0020 C107     		addi	a5,a5,16
 1259 0022 BA97     		add	a5,a4,a5
 1260              		.loc 1 342 9
 1261 0024 9C43     		lw	a5,0(a5)
 1262 0026 2326F4FE 		sw	a5,-20(s0)
 343:../Firmware/GD32VW55x_standard_peripheral/Source/gd32vw55x_dma.c ****     /* assign registers */
 344:../Firmware/GD32VW55x_standard_peripheral/Source/gd32vw55x_dma.c ****     ctl &= ~DMA_CHXCTL_PRIO;
 1263              		.loc 1 344 9
 1264 002a 0327C4FE 		lw	a4,-20(s0)
 1265 002e B707FDFF 		li	a5,-196608
 1266 0032 FD17     		addi	a5,a5,-1
 1267 0034 F98F     		and	a5,a4,a5
 1268 0036 2326F4FE 		sw	a5,-20(s0)
 345:../Firmware/GD32VW55x_standard_peripheral/Source/gd32vw55x_dma.c ****     ctl |= priority;
 1269              		.loc 1 345 9
 1270 003a 0327C4FE 		lw	a4,-20(s0)
 1271 003e 832784FD 		lw	a5,-40(s0)
 1272 0042 D98F     		or	a5,a4,a5
 1273 0044 2326F4FE 		sw	a5,-20(s0)
 346:../Firmware/GD32VW55x_standard_peripheral/Source/gd32vw55x_dma.c ****     DMA_CHCTL(channelx) = ctl;
 1274              		.loc 1 346 5
 1275 0048 0327C4FD 		lw	a4,-36(s0)
 1276 004c BA87     		mv	a5,a4
 1277 004e 8607     		slli	a5,a5,1
 1278 0050 BA97     		add	a5,a5,a4
 1279 0052 8E07     		slli	a5,a5,3
 1280 0054 3E87     		mv	a4,a5
 1281 0056 B7670240 		li	a5,1073897472
 1282 005a C107     		addi	a5,a5,16
 1283 005c BA97     		add	a5,a4,a5
 1284 005e 3E87     		mv	a4,a5
 1285              		.loc 1 346 25
 1286 0060 8327C4FE 		lw	a5,-20(s0)
 1287 0064 1CC3     		sw	a5,0(a4)
 347:../Firmware/GD32VW55x_standard_peripheral/Source/gd32vw55x_dma.c **** }
 1288              		.loc 1 347 1
 1289 0066 0100     		nop
 1290 0068 3254     		lw	s0,44(sp)
 1291              		.cfi_restore 8
 1292              		.cfi_def_cfa 2, 48
 1293 006a 4561     		addi	sp,sp,48
 1294              		.cfi_def_cfa_offset 0
 1295 006c 8280     		jr	ra
 1296              		.cfi_endproc
 1297              	.LFE356:
 1299              		.section	.text.dma_memory_burst_beats_config,"ax",@progbits
 1300              		.align	1
 1301              		.globl	dma_memory_burst_beats_config
 1303              	dma_memory_burst_beats_config:
 1304              	.LFB357:
 348:../Firmware/GD32VW55x_standard_peripheral/Source/gd32vw55x_dma.c **** 
 349:../Firmware/GD32VW55x_standard_peripheral/Source/gd32vw55x_dma.c **** /*!
 350:../Firmware/GD32VW55x_standard_peripheral/Source/gd32vw55x_dma.c ****     \brief      configure transfer burst beats of memory
 351:../Firmware/GD32VW55x_standard_peripheral/Source/gd32vw55x_dma.c ****     \param[in]  channelx: specify which DMA channel
 352:../Firmware/GD32VW55x_standard_peripheral/Source/gd32vw55x_dma.c ****       \arg        DMA_CHx (x=0..7)
 353:../Firmware/GD32VW55x_standard_peripheral/Source/gd32vw55x_dma.c ****     \param[in]  mbeat: transfer burst beats
 354:../Firmware/GD32VW55x_standard_peripheral/Source/gd32vw55x_dma.c ****       \arg        DMA_MEMORY_BURST_SINGLE: memory transfer single burst
 355:../Firmware/GD32VW55x_standard_peripheral/Source/gd32vw55x_dma.c ****       \arg        DMA_MEMORY_BURST_4_BEAT: memory transfer 4-beat burst
 356:../Firmware/GD32VW55x_standard_peripheral/Source/gd32vw55x_dma.c ****       \arg        DMA_MEMORY_BURST_8_BEAT: memory transfer 8-beat burst
 357:../Firmware/GD32VW55x_standard_peripheral/Source/gd32vw55x_dma.c ****       \arg        DMA_MEMORY_BURST_16_BEAT: memory transfer 16-beat burst
 358:../Firmware/GD32VW55x_standard_peripheral/Source/gd32vw55x_dma.c ****     \param[out] none
 359:../Firmware/GD32VW55x_standard_peripheral/Source/gd32vw55x_dma.c ****     \retval     none
 360:../Firmware/GD32VW55x_standard_peripheral/Source/gd32vw55x_dma.c **** */
 361:../Firmware/GD32VW55x_standard_peripheral/Source/gd32vw55x_dma.c **** void dma_memory_burst_beats_config(dma_channel_enum channelx, uint32_t mbeat)
 362:../Firmware/GD32VW55x_standard_peripheral/Source/gd32vw55x_dma.c **** {
 1305              		.loc 1 362 1
 1306              		.cfi_startproc
 1307 0000 7971     		addi	sp,sp,-48
 1308              		.cfi_def_cfa_offset 48
 1309 0002 22D6     		sw	s0,44(sp)
 1310              		.cfi_offset 8, -4
 1311 0004 0018     		addi	s0,sp,48
 1312              		.cfi_def_cfa 8, 0
 1313 0006 232EA4FC 		sw	a0,-36(s0)
 1314 000a 232CB4FC 		sw	a1,-40(s0)
 363:../Firmware/GD32VW55x_standard_peripheral/Source/gd32vw55x_dma.c ****     uint32_t ctl;
 364:../Firmware/GD32VW55x_standard_peripheral/Source/gd32vw55x_dma.c ****     /* acquire DMA_CHxCTL register */
 365:../Firmware/GD32VW55x_standard_peripheral/Source/gd32vw55x_dma.c ****     ctl = DMA_CHCTL(channelx);
 1315              		.loc 1 365 11
 1316 000e 0327C4FD 		lw	a4,-36(s0)
 1317 0012 BA87     		mv	a5,a4
 1318 0014 8607     		slli	a5,a5,1
 1319 0016 BA97     		add	a5,a5,a4
 1320 0018 8E07     		slli	a5,a5,3
 1321 001a 3E87     		mv	a4,a5
 1322 001c B7670240 		li	a5,1073897472
 1323 0020 C107     		addi	a5,a5,16
 1324 0022 BA97     		add	a5,a4,a5
 1325              		.loc 1 365 9
 1326 0024 9C43     		lw	a5,0(a5)
 1327 0026 2326F4FE 		sw	a5,-20(s0)
 366:../Firmware/GD32VW55x_standard_peripheral/Source/gd32vw55x_dma.c ****     /* assign registers */
 367:../Firmware/GD32VW55x_standard_peripheral/Source/gd32vw55x_dma.c ****     ctl &= ~DMA_CHXCTL_MBURST;
 1328              		.loc 1 367 9
 1329 002a 0327C4FE 		lw	a4,-20(s0)
 1330 002e B70780FE 		li	a5,-25165824
 1331 0032 FD17     		addi	a5,a5,-1
 1332 0034 F98F     		and	a5,a4,a5
 1333 0036 2326F4FE 		sw	a5,-20(s0)
 368:../Firmware/GD32VW55x_standard_peripheral/Source/gd32vw55x_dma.c ****     ctl |= mbeat;
 1334              		.loc 1 368 9
 1335 003a 0327C4FE 		lw	a4,-20(s0)
 1336 003e 832784FD 		lw	a5,-40(s0)
 1337 0042 D98F     		or	a5,a4,a5
 1338 0044 2326F4FE 		sw	a5,-20(s0)
 369:../Firmware/GD32VW55x_standard_peripheral/Source/gd32vw55x_dma.c ****     DMA_CHCTL(channelx) = ctl;
 1339              		.loc 1 369 5
 1340 0048 0327C4FD 		lw	a4,-36(s0)
 1341 004c BA87     		mv	a5,a4
 1342 004e 8607     		slli	a5,a5,1
 1343 0050 BA97     		add	a5,a5,a4
 1344 0052 8E07     		slli	a5,a5,3
 1345 0054 3E87     		mv	a4,a5
 1346 0056 B7670240 		li	a5,1073897472
 1347 005a C107     		addi	a5,a5,16
 1348 005c BA97     		add	a5,a4,a5
 1349 005e 3E87     		mv	a4,a5
 1350              		.loc 1 369 25
 1351 0060 8327C4FE 		lw	a5,-20(s0)
 1352 0064 1CC3     		sw	a5,0(a4)
 370:../Firmware/GD32VW55x_standard_peripheral/Source/gd32vw55x_dma.c **** }
 1353              		.loc 1 370 1
 1354 0066 0100     		nop
 1355 0068 3254     		lw	s0,44(sp)
 1356              		.cfi_restore 8
 1357              		.cfi_def_cfa 2, 48
 1358 006a 4561     		addi	sp,sp,48
 1359              		.cfi_def_cfa_offset 0
 1360 006c 8280     		jr	ra
 1361              		.cfi_endproc
 1362              	.LFE357:
 1364              		.section	.text.dma_periph_burst_beats_config,"ax",@progbits
 1365              		.align	1
 1366              		.globl	dma_periph_burst_beats_config
 1368              	dma_periph_burst_beats_config:
 1369              	.LFB358:
 371:../Firmware/GD32VW55x_standard_peripheral/Source/gd32vw55x_dma.c **** 
 372:../Firmware/GD32VW55x_standard_peripheral/Source/gd32vw55x_dma.c **** /*!
 373:../Firmware/GD32VW55x_standard_peripheral/Source/gd32vw55x_dma.c ****     \brief      configure transfer burst beats of peripheral
 374:../Firmware/GD32VW55x_standard_peripheral/Source/gd32vw55x_dma.c ****     \param[in]  channelx: specify which DMA channel
 375:../Firmware/GD32VW55x_standard_peripheral/Source/gd32vw55x_dma.c ****       \arg        DMA_CHx (x=0..7)
 376:../Firmware/GD32VW55x_standard_peripheral/Source/gd32vw55x_dma.c ****     \param[in]  pbeat: transfer burst beats
 377:../Firmware/GD32VW55x_standard_peripheral/Source/gd32vw55x_dma.c ****                 only one parameter can be selected which is shown as below:
 378:../Firmware/GD32VW55x_standard_peripheral/Source/gd32vw55x_dma.c ****       \arg        DMA_PERIPH_BURST_SINGLE: peripheral transfer single burst
 379:../Firmware/GD32VW55x_standard_peripheral/Source/gd32vw55x_dma.c ****       \arg        DMA_PERIPH_BURST_4_BEAT: peripheral transfer 4-beat burst
 380:../Firmware/GD32VW55x_standard_peripheral/Source/gd32vw55x_dma.c ****       \arg        DMA_PERIPH_BURST_8_BEAT: peripheral transfer 8-beat burst
 381:../Firmware/GD32VW55x_standard_peripheral/Source/gd32vw55x_dma.c ****       \arg        DMA_PERIPH_BURST_16_BEAT: peripheral transfer 16-beat burst
 382:../Firmware/GD32VW55x_standard_peripheral/Source/gd32vw55x_dma.c ****     \param[out] none
 383:../Firmware/GD32VW55x_standard_peripheral/Source/gd32vw55x_dma.c ****     \retval     none
 384:../Firmware/GD32VW55x_standard_peripheral/Source/gd32vw55x_dma.c **** */
 385:../Firmware/GD32VW55x_standard_peripheral/Source/gd32vw55x_dma.c **** void dma_periph_burst_beats_config (dma_channel_enum channelx, uint32_t pbeat)
 386:../Firmware/GD32VW55x_standard_peripheral/Source/gd32vw55x_dma.c **** {
 1370              		.loc 1 386 1
 1371              		.cfi_startproc
 1372 0000 7971     		addi	sp,sp,-48
 1373              		.cfi_def_cfa_offset 48
 1374 0002 22D6     		sw	s0,44(sp)
 1375              		.cfi_offset 8, -4
 1376 0004 0018     		addi	s0,sp,48
 1377              		.cfi_def_cfa 8, 0
 1378 0006 232EA4FC 		sw	a0,-36(s0)
 1379 000a 232CB4FC 		sw	a1,-40(s0)
 387:../Firmware/GD32VW55x_standard_peripheral/Source/gd32vw55x_dma.c ****     uint32_t ctl;
 388:../Firmware/GD32VW55x_standard_peripheral/Source/gd32vw55x_dma.c ****     /* acquire DMA_CHxCTL register */
 389:../Firmware/GD32VW55x_standard_peripheral/Source/gd32vw55x_dma.c ****     ctl = DMA_CHCTL(channelx);
 1380              		.loc 1 389 11
 1381 000e 0327C4FD 		lw	a4,-36(s0)
 1382 0012 BA87     		mv	a5,a4
 1383 0014 8607     		slli	a5,a5,1
 1384 0016 BA97     		add	a5,a5,a4
 1385 0018 8E07     		slli	a5,a5,3
 1386 001a 3E87     		mv	a4,a5
 1387 001c B7670240 		li	a5,1073897472
 1388 0020 C107     		addi	a5,a5,16
 1389 0022 BA97     		add	a5,a4,a5
 1390              		.loc 1 389 9
 1391 0024 9C43     		lw	a5,0(a5)
 1392 0026 2326F4FE 		sw	a5,-20(s0)
 390:../Firmware/GD32VW55x_standard_peripheral/Source/gd32vw55x_dma.c ****     /* assign registers */
 391:../Firmware/GD32VW55x_standard_peripheral/Source/gd32vw55x_dma.c ****     ctl &= ~DMA_CHXCTL_PBURST;
 1393              		.loc 1 391 9
 1394 002a 0327C4FE 		lw	a4,-20(s0)
 1395 002e B707A0FF 		li	a5,-6291456
 1396 0032 FD17     		addi	a5,a5,-1
 1397 0034 F98F     		and	a5,a4,a5
 1398 0036 2326F4FE 		sw	a5,-20(s0)
 392:../Firmware/GD32VW55x_standard_peripheral/Source/gd32vw55x_dma.c ****     ctl |= pbeat;
 1399              		.loc 1 392 9
 1400 003a 0327C4FE 		lw	a4,-20(s0)
 1401 003e 832784FD 		lw	a5,-40(s0)
 1402 0042 D98F     		or	a5,a4,a5
 1403 0044 2326F4FE 		sw	a5,-20(s0)
 393:../Firmware/GD32VW55x_standard_peripheral/Source/gd32vw55x_dma.c ****     DMA_CHCTL(channelx) = ctl;
 1404              		.loc 1 393 5
 1405 0048 0327C4FD 		lw	a4,-36(s0)
 1406 004c BA87     		mv	a5,a4
 1407 004e 8607     		slli	a5,a5,1
 1408 0050 BA97     		add	a5,a5,a4
 1409 0052 8E07     		slli	a5,a5,3
 1410 0054 3E87     		mv	a4,a5
 1411 0056 B7670240 		li	a5,1073897472
 1412 005a C107     		addi	a5,a5,16
 1413 005c BA97     		add	a5,a4,a5
 1414 005e 3E87     		mv	a4,a5
 1415              		.loc 1 393 25
 1416 0060 8327C4FE 		lw	a5,-20(s0)
 1417 0064 1CC3     		sw	a5,0(a4)
 394:../Firmware/GD32VW55x_standard_peripheral/Source/gd32vw55x_dma.c **** }
 1418              		.loc 1 394 1
 1419 0066 0100     		nop
 1420 0068 3254     		lw	s0,44(sp)
 1421              		.cfi_restore 8
 1422              		.cfi_def_cfa 2, 48
 1423 006a 4561     		addi	sp,sp,48
 1424              		.cfi_def_cfa_offset 0
 1425 006c 8280     		jr	ra
 1426              		.cfi_endproc
 1427              	.LFE358:
 1429              		.section	.text.dma_memory_width_config,"ax",@progbits
 1430              		.align	1
 1431              		.globl	dma_memory_width_config
 1433              	dma_memory_width_config:
 1434              	.LFB359:
 395:../Firmware/GD32VW55x_standard_peripheral/Source/gd32vw55x_dma.c **** 
 396:../Firmware/GD32VW55x_standard_peripheral/Source/gd32vw55x_dma.c **** /*!
 397:../Firmware/GD32VW55x_standard_peripheral/Source/gd32vw55x_dma.c ****     \brief      configure transfer data size of memory
 398:../Firmware/GD32VW55x_standard_peripheral/Source/gd32vw55x_dma.c ****     \param[in]  channelx: specify which DMA channel
 399:../Firmware/GD32VW55x_standard_peripheral/Source/gd32vw55x_dma.c ****       \arg        DMA_CHx (x=0..7)
 400:../Firmware/GD32VW55x_standard_peripheral/Source/gd32vw55x_dma.c ****     \param[in]  msize: transfer data size of memory
 401:../Firmware/GD32VW55x_standard_peripheral/Source/gd32vw55x_dma.c ****                 only one parameter can be selected which is shown as below:
 402:../Firmware/GD32VW55x_standard_peripheral/Source/gd32vw55x_dma.c ****       \arg        DMA_MEMORY_WIDTH_8BIT: transfer data size of memory is 8-bit
 403:../Firmware/GD32VW55x_standard_peripheral/Source/gd32vw55x_dma.c ****       \arg        DMA_MEMORY_WIDTH_16BIT: transfer data size of memory is 16-bit
 404:../Firmware/GD32VW55x_standard_peripheral/Source/gd32vw55x_dma.c ****       \arg        DMA_MEMORY_WIDTH_32BIT: transfer data size of memory is 32-bit
 405:../Firmware/GD32VW55x_standard_peripheral/Source/gd32vw55x_dma.c ****     \param[out] none
 406:../Firmware/GD32VW55x_standard_peripheral/Source/gd32vw55x_dma.c ****     \retval     none
 407:../Firmware/GD32VW55x_standard_peripheral/Source/gd32vw55x_dma.c **** */
 408:../Firmware/GD32VW55x_standard_peripheral/Source/gd32vw55x_dma.c **** void dma_memory_width_config(dma_channel_enum channelx, uint32_t msize)
 409:../Firmware/GD32VW55x_standard_peripheral/Source/gd32vw55x_dma.c **** {
 1435              		.loc 1 409 1
 1436              		.cfi_startproc
 1437 0000 7971     		addi	sp,sp,-48
 1438              		.cfi_def_cfa_offset 48
 1439 0002 22D6     		sw	s0,44(sp)
 1440              		.cfi_offset 8, -4
 1441 0004 0018     		addi	s0,sp,48
 1442              		.cfi_def_cfa 8, 0
 1443 0006 232EA4FC 		sw	a0,-36(s0)
 1444 000a 232CB4FC 		sw	a1,-40(s0)
 410:../Firmware/GD32VW55x_standard_peripheral/Source/gd32vw55x_dma.c ****     uint32_t ctl;
 411:../Firmware/GD32VW55x_standard_peripheral/Source/gd32vw55x_dma.c ****     /* acquire DMA_CHxCTL register */
 412:../Firmware/GD32VW55x_standard_peripheral/Source/gd32vw55x_dma.c ****     ctl = DMA_CHCTL(channelx);
 1445              		.loc 1 412 11
 1446 000e 0327C4FD 		lw	a4,-36(s0)
 1447 0012 BA87     		mv	a5,a4
 1448 0014 8607     		slli	a5,a5,1
 1449 0016 BA97     		add	a5,a5,a4
 1450 0018 8E07     		slli	a5,a5,3
 1451 001a 3E87     		mv	a4,a5
 1452 001c B7670240 		li	a5,1073897472
 1453 0020 C107     		addi	a5,a5,16
 1454 0022 BA97     		add	a5,a4,a5
 1455              		.loc 1 412 9
 1456 0024 9C43     		lw	a5,0(a5)
 1457 0026 2326F4FE 		sw	a5,-20(s0)
 413:../Firmware/GD32VW55x_standard_peripheral/Source/gd32vw55x_dma.c ****     /* assign registers */
 414:../Firmware/GD32VW55x_standard_peripheral/Source/gd32vw55x_dma.c ****     ctl &= ~DMA_CHXCTL_MWIDTH;
 1458              		.loc 1 414 9
 1459 002a 0327C4FE 		lw	a4,-20(s0)
 1460 002e E977     		li	a5,-24576
 1461 0030 FD17     		addi	a5,a5,-1
 1462 0032 F98F     		and	a5,a4,a5
 1463 0034 2326F4FE 		sw	a5,-20(s0)
 415:../Firmware/GD32VW55x_standard_peripheral/Source/gd32vw55x_dma.c ****     ctl |= msize;
 1464              		.loc 1 415 9
 1465 0038 0327C4FE 		lw	a4,-20(s0)
 1466 003c 832784FD 		lw	a5,-40(s0)
 1467 0040 D98F     		or	a5,a4,a5
 1468 0042 2326F4FE 		sw	a5,-20(s0)
 416:../Firmware/GD32VW55x_standard_peripheral/Source/gd32vw55x_dma.c ****     DMA_CHCTL(channelx) = ctl;
 1469              		.loc 1 416 5
 1470 0046 0327C4FD 		lw	a4,-36(s0)
 1471 004a BA87     		mv	a5,a4
 1472 004c 8607     		slli	a5,a5,1
 1473 004e BA97     		add	a5,a5,a4
 1474 0050 8E07     		slli	a5,a5,3
 1475 0052 3E87     		mv	a4,a5
 1476 0054 B7670240 		li	a5,1073897472
 1477 0058 C107     		addi	a5,a5,16
 1478 005a BA97     		add	a5,a4,a5
 1479 005c 3E87     		mv	a4,a5
 1480              		.loc 1 416 25
 1481 005e 8327C4FE 		lw	a5,-20(s0)
 1482 0062 1CC3     		sw	a5,0(a4)
 417:../Firmware/GD32VW55x_standard_peripheral/Source/gd32vw55x_dma.c **** }
 1483              		.loc 1 417 1
 1484 0064 0100     		nop
 1485 0066 3254     		lw	s0,44(sp)
 1486              		.cfi_restore 8
 1487              		.cfi_def_cfa 2, 48
 1488 0068 4561     		addi	sp,sp,48
 1489              		.cfi_def_cfa_offset 0
 1490 006a 8280     		jr	ra
 1491              		.cfi_endproc
 1492              	.LFE359:
 1494              		.section	.text.dma_periph_width_config,"ax",@progbits
 1495              		.align	1
 1496              		.globl	dma_periph_width_config
 1498              	dma_periph_width_config:
 1499              	.LFB360:
 418:../Firmware/GD32VW55x_standard_peripheral/Source/gd32vw55x_dma.c **** 
 419:../Firmware/GD32VW55x_standard_peripheral/Source/gd32vw55x_dma.c **** /*!
 420:../Firmware/GD32VW55x_standard_peripheral/Source/gd32vw55x_dma.c ****     \brief      configure transfer data size of peripheral
 421:../Firmware/GD32VW55x_standard_peripheral/Source/gd32vw55x_dma.c ****     \param[in]  channelx: specify which DMA channel
 422:../Firmware/GD32VW55x_standard_peripheral/Source/gd32vw55x_dma.c ****       \arg        DMA_CHx (x=0..7)
 423:../Firmware/GD32VW55x_standard_peripheral/Source/gd32vw55x_dma.c ****     \param[in]  msize: transfer data size of peripheral
 424:../Firmware/GD32VW55x_standard_peripheral/Source/gd32vw55x_dma.c ****                 only one parameter can be selected which is shown as below:
 425:../Firmware/GD32VW55x_standard_peripheral/Source/gd32vw55x_dma.c ****       \arg        DMA_PERIPHERAL_WIDTH_8BIT: transfer data size of peripheral is 8-bit
 426:../Firmware/GD32VW55x_standard_peripheral/Source/gd32vw55x_dma.c ****       \arg        DMA_PERIPHERAL_WIDTH_16BIT: transfer data size of peripheral is 16-bit
 427:../Firmware/GD32VW55x_standard_peripheral/Source/gd32vw55x_dma.c ****       \arg        DMA_PERIPHERAL_WIDTH_32BIT: transfer data size of peripheral is 32-bit
 428:../Firmware/GD32VW55x_standard_peripheral/Source/gd32vw55x_dma.c ****     \param[out] none
 429:../Firmware/GD32VW55x_standard_peripheral/Source/gd32vw55x_dma.c ****     \retval     none
 430:../Firmware/GD32VW55x_standard_peripheral/Source/gd32vw55x_dma.c **** */
 431:../Firmware/GD32VW55x_standard_peripheral/Source/gd32vw55x_dma.c **** void dma_periph_width_config (dma_channel_enum channelx, uint32_t psize)
 432:../Firmware/GD32VW55x_standard_peripheral/Source/gd32vw55x_dma.c **** {
 1500              		.loc 1 432 1
 1501              		.cfi_startproc
 1502 0000 7971     		addi	sp,sp,-48
 1503              		.cfi_def_cfa_offset 48
 1504 0002 22D6     		sw	s0,44(sp)
 1505              		.cfi_offset 8, -4
 1506 0004 0018     		addi	s0,sp,48
 1507              		.cfi_def_cfa 8, 0
 1508 0006 232EA4FC 		sw	a0,-36(s0)
 1509 000a 232CB4FC 		sw	a1,-40(s0)
 433:../Firmware/GD32VW55x_standard_peripheral/Source/gd32vw55x_dma.c ****     uint32_t ctl;
 434:../Firmware/GD32VW55x_standard_peripheral/Source/gd32vw55x_dma.c ****     /* acquire DMA_CHxCTL register */
 435:../Firmware/GD32VW55x_standard_peripheral/Source/gd32vw55x_dma.c ****     ctl = DMA_CHCTL(channelx);
 1510              		.loc 1 435 11
 1511 000e 0327C4FD 		lw	a4,-36(s0)
 1512 0012 BA87     		mv	a5,a4
 1513 0014 8607     		slli	a5,a5,1
 1514 0016 BA97     		add	a5,a5,a4
 1515 0018 8E07     		slli	a5,a5,3
 1516 001a 3E87     		mv	a4,a5
 1517 001c B7670240 		li	a5,1073897472
 1518 0020 C107     		addi	a5,a5,16
 1519 0022 BA97     		add	a5,a4,a5
 1520              		.loc 1 435 9
 1521 0024 9C43     		lw	a5,0(a5)
 1522 0026 2326F4FE 		sw	a5,-20(s0)
 436:../Firmware/GD32VW55x_standard_peripheral/Source/gd32vw55x_dma.c ****     /* assign registers */
 437:../Firmware/GD32VW55x_standard_peripheral/Source/gd32vw55x_dma.c ****     ctl &= ~DMA_CHXCTL_PWIDTH;
 1523              		.loc 1 437 9
 1524 002a 0327C4FE 		lw	a4,-20(s0)
 1525 002e F977     		li	a5,-8192
 1526 0030 9387F77F 		addi	a5,a5,2047
 1527 0034 F98F     		and	a5,a4,a5
 1528 0036 2326F4FE 		sw	a5,-20(s0)
 438:../Firmware/GD32VW55x_standard_peripheral/Source/gd32vw55x_dma.c ****     ctl |= psize;
 1529              		.loc 1 438 9
 1530 003a 0327C4FE 		lw	a4,-20(s0)
 1531 003e 832784FD 		lw	a5,-40(s0)
 1532 0042 D98F     		or	a5,a4,a5
 1533 0044 2326F4FE 		sw	a5,-20(s0)
 439:../Firmware/GD32VW55x_standard_peripheral/Source/gd32vw55x_dma.c ****     DMA_CHCTL(channelx) = ctl;
 1534              		.loc 1 439 5
 1535 0048 0327C4FD 		lw	a4,-36(s0)
 1536 004c BA87     		mv	a5,a4
 1537 004e 8607     		slli	a5,a5,1
 1538 0050 BA97     		add	a5,a5,a4
 1539 0052 8E07     		slli	a5,a5,3
 1540 0054 3E87     		mv	a4,a5
 1541 0056 B7670240 		li	a5,1073897472
 1542 005a C107     		addi	a5,a5,16
 1543 005c BA97     		add	a5,a4,a5
 1544 005e 3E87     		mv	a4,a5
 1545              		.loc 1 439 25
 1546 0060 8327C4FE 		lw	a5,-20(s0)
 1547 0064 1CC3     		sw	a5,0(a4)
 440:../Firmware/GD32VW55x_standard_peripheral/Source/gd32vw55x_dma.c **** }
 1548              		.loc 1 440 1
 1549 0066 0100     		nop
 1550 0068 3254     		lw	s0,44(sp)
 1551              		.cfi_restore 8
 1552              		.cfi_def_cfa 2, 48
 1553 006a 4561     		addi	sp,sp,48
 1554              		.cfi_def_cfa_offset 0
 1555 006c 8280     		jr	ra
 1556              		.cfi_endproc
 1557              	.LFE360:
 1559              		.section	.text.dma_memory_address_generation_config,"ax",@progbits
 1560              		.align	1
 1561              		.globl	dma_memory_address_generation_config
 1563              	dma_memory_address_generation_config:
 1564              	.LFB361:
 441:../Firmware/GD32VW55x_standard_peripheral/Source/gd32vw55x_dma.c **** 
 442:../Firmware/GD32VW55x_standard_peripheral/Source/gd32vw55x_dma.c **** /*!
 443:../Firmware/GD32VW55x_standard_peripheral/Source/gd32vw55x_dma.c ****     \brief      configure memory address generation algorithm
 444:../Firmware/GD32VW55x_standard_peripheral/Source/gd32vw55x_dma.c ****     \param[in]  channelx: specify which DMA channel
 445:../Firmware/GD32VW55x_standard_peripheral/Source/gd32vw55x_dma.c ****       \arg        DMA_CHx (x=0..7)
 446:../Firmware/GD32VW55x_standard_peripheral/Source/gd32vw55x_dma.c ****     \param[in]  generation_algorithm: the address generation algorithm
 447:../Firmware/GD32VW55x_standard_peripheral/Source/gd32vw55x_dma.c ****                 only one parameter can be selected which is shown as below:
 448:../Firmware/GD32VW55x_standard_peripheral/Source/gd32vw55x_dma.c ****       \arg        DMA_MEMORY_INCREASE_ENABLE: next address of memory is increasing address mode
 449:../Firmware/GD32VW55x_standard_peripheral/Source/gd32vw55x_dma.c ****       \arg        DMA_MEMORY_INCREASE_DISABLE: next address of memory is fixed address mode
 450:../Firmware/GD32VW55x_standard_peripheral/Source/gd32vw55x_dma.c ****     \param[out] none
 451:../Firmware/GD32VW55x_standard_peripheral/Source/gd32vw55x_dma.c ****     \retval     none
 452:../Firmware/GD32VW55x_standard_peripheral/Source/gd32vw55x_dma.c **** */
 453:../Firmware/GD32VW55x_standard_peripheral/Source/gd32vw55x_dma.c **** void dma_memory_address_generation_config(dma_channel_enum channelx, uint8_t generation_algorithm)
 454:../Firmware/GD32VW55x_standard_peripheral/Source/gd32vw55x_dma.c **** {
 1565              		.loc 1 454 1
 1566              		.cfi_startproc
 1567 0000 0111     		addi	sp,sp,-32
 1568              		.cfi_def_cfa_offset 32
 1569 0002 22CE     		sw	s0,28(sp)
 1570              		.cfi_offset 8, -4
 1571 0004 0010     		addi	s0,sp,32
 1572              		.cfi_def_cfa 8, 0
 1573 0006 2326A4FE 		sw	a0,-20(s0)
 1574 000a AE87     		mv	a5,a1
 1575 000c A305F4FE 		sb	a5,-21(s0)
 455:../Firmware/GD32VW55x_standard_peripheral/Source/gd32vw55x_dma.c ****     if(DMA_MEMORY_INCREASE_ENABLE == generation_algorithm){
 1576              		.loc 1 455 7
 1577 0010 8347B4FE 		lbu	a5,-21(s0)
 1578 0014 8DEF     		bne	a5,zero,.L39
 456:../Firmware/GD32VW55x_standard_peripheral/Source/gd32vw55x_dma.c ****         DMA_CHCTL(channelx) |= DMA_CHXCTL_MNAGA;
 1579              		.loc 1 456 29
 1580 0016 0327C4FE 		lw	a4,-20(s0)
 1581 001a BA87     		mv	a5,a4
 1582 001c 8607     		slli	a5,a5,1
 1583 001e BA97     		add	a5,a5,a4
 1584 0020 8E07     		slli	a5,a5,3
 1585 0022 3E87     		mv	a4,a5
 1586 0024 B7670240 		li	a5,1073897472
 1587 0028 C107     		addi	a5,a5,16
 1588 002a BA97     		add	a5,a4,a5
 1589 002c 9443     		lw	a3,0(a5)
 1590 002e 0327C4FE 		lw	a4,-20(s0)
 1591 0032 BA87     		mv	a5,a4
 1592 0034 8607     		slli	a5,a5,1
 1593 0036 BA97     		add	a5,a5,a4
 1594 0038 8E07     		slli	a5,a5,3
 1595 003a 3E87     		mv	a4,a5
 1596 003c B7670240 		li	a5,1073897472
 1597 0040 C107     		addi	a5,a5,16
 1598 0042 BA97     		add	a5,a4,a5
 1599 0044 3E87     		mv	a4,a5
 1600 0046 93E70640 		ori	a5,a3,1024
 1601 004a 1CC3     		sw	a5,0(a4)
 457:../Firmware/GD32VW55x_standard_peripheral/Source/gd32vw55x_dma.c ****     }else{
 458:../Firmware/GD32VW55x_standard_peripheral/Source/gd32vw55x_dma.c ****         DMA_CHCTL(channelx) &= ~DMA_CHXCTL_MNAGA;
 459:../Firmware/GD32VW55x_standard_peripheral/Source/gd32vw55x_dma.c ****     }
 460:../Firmware/GD32VW55x_standard_peripheral/Source/gd32vw55x_dma.c **** }
 1602              		.loc 1 460 1
 1603 004c 25A8     		j	.L41
 1604              	.L39:
 458:../Firmware/GD32VW55x_standard_peripheral/Source/gd32vw55x_dma.c ****     }
 1605              		.loc 1 458 29
 1606 004e 0327C4FE 		lw	a4,-20(s0)
 1607 0052 BA87     		mv	a5,a4
 1608 0054 8607     		slli	a5,a5,1
 1609 0056 BA97     		add	a5,a5,a4
 1610 0058 8E07     		slli	a5,a5,3
 1611 005a 3E87     		mv	a4,a5
 1612 005c B7670240 		li	a5,1073897472
 1613 0060 C107     		addi	a5,a5,16
 1614 0062 BA97     		add	a5,a4,a5
 1615 0064 9443     		lw	a3,0(a5)
 1616 0066 0327C4FE 		lw	a4,-20(s0)
 1617 006a BA87     		mv	a5,a4
 1618 006c 8607     		slli	a5,a5,1
 1619 006e BA97     		add	a5,a5,a4
 1620 0070 8E07     		slli	a5,a5,3
 1621 0072 3E87     		mv	a4,a5
 1622 0074 B7670240 		li	a5,1073897472
 1623 0078 C107     		addi	a5,a5,16
 1624 007a BA97     		add	a5,a4,a5
 1625 007c 3E87     		mv	a4,a5
 1626 007e 93F7F6BF 		andi	a5,a3,-1025
 1627 0082 1CC3     		sw	a5,0(a4)
 1628              	.L41:
 1629              		.loc 1 460 1
 1630 0084 0100     		nop
 1631 0086 7244     		lw	s0,28(sp)
 1632              		.cfi_restore 8
 1633              		.cfi_def_cfa 2, 32
 1634 0088 0561     		addi	sp,sp,32
 1635              		.cfi_def_cfa_offset 0
 1636 008a 8280     		jr	ra
 1637              		.cfi_endproc
 1638              	.LFE361:
 1640              		.section	.text.dma_peripheral_address_generation_config,"ax",@progbits
 1641              		.align	1
 1642              		.globl	dma_peripheral_address_generation_config
 1644              	dma_peripheral_address_generation_config:
 1645              	.LFB362:
 461:../Firmware/GD32VW55x_standard_peripheral/Source/gd32vw55x_dma.c **** 
 462:../Firmware/GD32VW55x_standard_peripheral/Source/gd32vw55x_dma.c **** /*!
 463:../Firmware/GD32VW55x_standard_peripheral/Source/gd32vw55x_dma.c ****     \brief      configure peripheral address generation algorithm
 464:../Firmware/GD32VW55x_standard_peripheral/Source/gd32vw55x_dma.c ****     \param[in]  channelx: specify which DMA channel
 465:../Firmware/GD32VW55x_standard_peripheral/Source/gd32vw55x_dma.c ****       \arg        DMA_CHx (x=0..7)
 466:../Firmware/GD32VW55x_standard_peripheral/Source/gd32vw55x_dma.c ****     \param[in]  generation_algorithm: the address generation algorithm
 467:../Firmware/GD32VW55x_standard_peripheral/Source/gd32vw55x_dma.c ****                 only one parameter can be selected which is shown as below:
 468:../Firmware/GD32VW55x_standard_peripheral/Source/gd32vw55x_dma.c ****       \arg        DMA_PERIPH_INCREASE_ENABLE: next address of peripheral is increasing address mode
 469:../Firmware/GD32VW55x_standard_peripheral/Source/gd32vw55x_dma.c ****       \arg        DMA_PERIPH_INCREASE_DISABLE: next address of peripheral is fixed address mode
 470:../Firmware/GD32VW55x_standard_peripheral/Source/gd32vw55x_dma.c ****       \arg        DMA_PERIPH_INCREASE_FIX: increasing steps of peripheral address is fixed
 471:../Firmware/GD32VW55x_standard_peripheral/Source/gd32vw55x_dma.c ****     \param[out] none
 472:../Firmware/GD32VW55x_standard_peripheral/Source/gd32vw55x_dma.c ****     \retval     none
 473:../Firmware/GD32VW55x_standard_peripheral/Source/gd32vw55x_dma.c **** */
 474:../Firmware/GD32VW55x_standard_peripheral/Source/gd32vw55x_dma.c **** void dma_peripheral_address_generation_config(dma_channel_enum channelx, uint8_t generation_algorit
 475:../Firmware/GD32VW55x_standard_peripheral/Source/gd32vw55x_dma.c **** {
 1646              		.loc 1 475 1
 1647              		.cfi_startproc
 1648 0000 0111     		addi	sp,sp,-32
 1649              		.cfi_def_cfa_offset 32
 1650 0002 22CE     		sw	s0,28(sp)
 1651              		.cfi_offset 8, -4
 1652 0004 0010     		addi	s0,sp,32
 1653              		.cfi_def_cfa 8, 0
 1654 0006 2326A4FE 		sw	a0,-20(s0)
 1655 000a AE87     		mv	a5,a1
 1656 000c A305F4FE 		sb	a5,-21(s0)
 476:../Firmware/GD32VW55x_standard_peripheral/Source/gd32vw55x_dma.c ****     if(DMA_PERIPH_INCREASE_ENABLE == generation_algorithm){
 1657              		.loc 1 476 7
 1658 0010 8347B4FE 		lbu	a5,-21(s0)
 1659 0014 8DEF     		bne	a5,zero,.L43
 477:../Firmware/GD32VW55x_standard_peripheral/Source/gd32vw55x_dma.c ****         DMA_CHCTL(channelx) |= DMA_CHXCTL_PNAGA;
 1660              		.loc 1 477 29
 1661 0016 0327C4FE 		lw	a4,-20(s0)
 1662 001a BA87     		mv	a5,a4
 1663 001c 8607     		slli	a5,a5,1
 1664 001e BA97     		add	a5,a5,a4
 1665 0020 8E07     		slli	a5,a5,3
 1666 0022 3E87     		mv	a4,a5
 1667 0024 B7670240 		li	a5,1073897472
 1668 0028 C107     		addi	a5,a5,16
 1669 002a BA97     		add	a5,a4,a5
 1670 002c 9443     		lw	a3,0(a5)
 1671 002e 0327C4FE 		lw	a4,-20(s0)
 1672 0032 BA87     		mv	a5,a4
 1673 0034 8607     		slli	a5,a5,1
 1674 0036 BA97     		add	a5,a5,a4
 1675 0038 8E07     		slli	a5,a5,3
 1676 003a 3E87     		mv	a4,a5
 1677 003c B7670240 		li	a5,1073897472
 1678 0040 C107     		addi	a5,a5,16
 1679 0042 BA97     		add	a5,a4,a5
 1680 0044 3E87     		mv	a4,a5
 1681 0046 93E70620 		ori	a5,a3,512
 1682 004a 1CC3     		sw	a5,0(a4)
 478:../Firmware/GD32VW55x_standard_peripheral/Source/gd32vw55x_dma.c ****     }else if(DMA_PERIPH_INCREASE_DISABLE == generation_algorithm){
 479:../Firmware/GD32VW55x_standard_peripheral/Source/gd32vw55x_dma.c ****         DMA_CHCTL(channelx) &= ~DMA_CHXCTL_PNAGA;
 480:../Firmware/GD32VW55x_standard_peripheral/Source/gd32vw55x_dma.c ****     }else{
 481:../Firmware/GD32VW55x_standard_peripheral/Source/gd32vw55x_dma.c ****         DMA_CHCTL(channelx) |= DMA_CHXCTL_PNAGA;
 482:../Firmware/GD32VW55x_standard_peripheral/Source/gd32vw55x_dma.c ****         DMA_CHCTL(channelx) |= DMA_CHXCTL_PAIF;
 483:../Firmware/GD32VW55x_standard_peripheral/Source/gd32vw55x_dma.c ****     }
 484:../Firmware/GD32VW55x_standard_peripheral/Source/gd32vw55x_dma.c **** }
 1683              		.loc 1 484 1
 1684 004c 45A8     		j	.L46
 1685              	.L43:
 478:../Firmware/GD32VW55x_standard_peripheral/Source/gd32vw55x_dma.c ****     }else if(DMA_PERIPH_INCREASE_DISABLE == generation_algorithm){
 1686              		.loc 1 478 13
 1687 004e 0347B4FE 		lbu	a4,-21(s0)
 1688 0052 8547     		li	a5,1
 1689 0054 631EF702 		bne	a4,a5,.L45
 479:../Firmware/GD32VW55x_standard_peripheral/Source/gd32vw55x_dma.c ****     }else{
 1690              		.loc 1 479 29
 1691 0058 0327C4FE 		lw	a4,-20(s0)
 1692 005c BA87     		mv	a5,a4
 1693 005e 8607     		slli	a5,a5,1
 1694 0060 BA97     		add	a5,a5,a4
 1695 0062 8E07     		slli	a5,a5,3
 1696 0064 3E87     		mv	a4,a5
 1697 0066 B7670240 		li	a5,1073897472
 1698 006a C107     		addi	a5,a5,16
 1699 006c BA97     		add	a5,a4,a5
 1700 006e 9443     		lw	a3,0(a5)
 1701 0070 0327C4FE 		lw	a4,-20(s0)
 1702 0074 BA87     		mv	a5,a4
 1703 0076 8607     		slli	a5,a5,1
 1704 0078 BA97     		add	a5,a5,a4
 1705 007a 8E07     		slli	a5,a5,3
 1706 007c 3E87     		mv	a4,a5
 1707 007e B7670240 		li	a5,1073897472
 1708 0082 C107     		addi	a5,a5,16
 1709 0084 BA97     		add	a5,a4,a5
 1710 0086 3E87     		mv	a4,a5
 1711 0088 93F7F6DF 		andi	a5,a3,-513
 1712 008c 1CC3     		sw	a5,0(a4)
 1713              		.loc 1 484 1
 1714 008e BDA0     		j	.L46
 1715              	.L45:
 481:../Firmware/GD32VW55x_standard_peripheral/Source/gd32vw55x_dma.c ****         DMA_CHCTL(channelx) |= DMA_CHXCTL_PAIF;
 1716              		.loc 1 481 29
 1717 0090 0327C4FE 		lw	a4,-20(s0)
 1718 0094 BA87     		mv	a5,a4
 1719 0096 8607     		slli	a5,a5,1
 1720 0098 BA97     		add	a5,a5,a4
 1721 009a 8E07     		slli	a5,a5,3
 1722 009c 3E87     		mv	a4,a5
 1723 009e B7670240 		li	a5,1073897472
 1724 00a2 C107     		addi	a5,a5,16
 1725 00a4 BA97     		add	a5,a4,a5
 1726 00a6 9443     		lw	a3,0(a5)
 1727 00a8 0327C4FE 		lw	a4,-20(s0)
 1728 00ac BA87     		mv	a5,a4
 1729 00ae 8607     		slli	a5,a5,1
 1730 00b0 BA97     		add	a5,a5,a4
 1731 00b2 8E07     		slli	a5,a5,3
 1732 00b4 3E87     		mv	a4,a5
 1733 00b6 B7670240 		li	a5,1073897472
 1734 00ba C107     		addi	a5,a5,16
 1735 00bc BA97     		add	a5,a4,a5
 1736 00be 3E87     		mv	a4,a5
 1737 00c0 93E70620 		ori	a5,a3,512
 1738 00c4 1CC3     		sw	a5,0(a4)
 482:../Firmware/GD32VW55x_standard_peripheral/Source/gd32vw55x_dma.c ****     }
 1739              		.loc 1 482 29
 1740 00c6 0327C4FE 		lw	a4,-20(s0)
 1741 00ca BA87     		mv	a5,a4
 1742 00cc 8607     		slli	a5,a5,1
 1743 00ce BA97     		add	a5,a5,a4
 1744 00d0 8E07     		slli	a5,a5,3
 1745 00d2 3E87     		mv	a4,a5
 1746 00d4 B7670240 		li	a5,1073897472
 1747 00d8 C107     		addi	a5,a5,16
 1748 00da BA97     		add	a5,a4,a5
 1749 00dc 9443     		lw	a3,0(a5)
 1750 00de 0327C4FE 		lw	a4,-20(s0)
 1751 00e2 BA87     		mv	a5,a4
 1752 00e4 8607     		slli	a5,a5,1
 1753 00e6 BA97     		add	a5,a5,a4
 1754 00e8 8E07     		slli	a5,a5,3
 1755 00ea 3E87     		mv	a4,a5
 1756 00ec B7670240 		li	a5,1073897472
 1757 00f0 C107     		addi	a5,a5,16
 1758 00f2 BA97     		add	a5,a4,a5
 1759 00f4 3E87     		mv	a4,a5
 1760 00f6 A167     		li	a5,32768
 1761 00f8 D58F     		or	a5,a3,a5
 1762 00fa 1CC3     		sw	a5,0(a4)
 1763              	.L46:
 1764              		.loc 1 484 1
 1765 00fc 0100     		nop
 1766 00fe 7244     		lw	s0,28(sp)
 1767              		.cfi_restore 8
 1768              		.cfi_def_cfa 2, 32
 1769 0100 0561     		addi	sp,sp,32
 1770              		.cfi_def_cfa_offset 0
 1771 0102 8280     		jr	ra
 1772              		.cfi_endproc
 1773              	.LFE362:
 1775              		.section	.text.dma_circulation_enable,"ax",@progbits
 1776              		.align	1
 1777              		.globl	dma_circulation_enable
 1779              	dma_circulation_enable:
 1780              	.LFB363:
 485:../Firmware/GD32VW55x_standard_peripheral/Source/gd32vw55x_dma.c **** 
 486:../Firmware/GD32VW55x_standard_peripheral/Source/gd32vw55x_dma.c **** /*!
 487:../Firmware/GD32VW55x_standard_peripheral/Source/gd32vw55x_dma.c ****     \brief      enable DMA circulation mode
 488:../Firmware/GD32VW55x_standard_peripheral/Source/gd32vw55x_dma.c ****     \param[in]  channelx: specify which DMA channel
 489:../Firmware/GD32VW55x_standard_peripheral/Source/gd32vw55x_dma.c ****       \arg        DMA_CHx (x=0..7)
 490:../Firmware/GD32VW55x_standard_peripheral/Source/gd32vw55x_dma.c ****     \param[out] none
 491:../Firmware/GD32VW55x_standard_peripheral/Source/gd32vw55x_dma.c ****     \retval     none
 492:../Firmware/GD32VW55x_standard_peripheral/Source/gd32vw55x_dma.c **** */
 493:../Firmware/GD32VW55x_standard_peripheral/Source/gd32vw55x_dma.c **** void dma_circulation_enable(dma_channel_enum channelx)
 494:../Firmware/GD32VW55x_standard_peripheral/Source/gd32vw55x_dma.c **** {
 1781              		.loc 1 494 1
 1782              		.cfi_startproc
 1783 0000 0111     		addi	sp,sp,-32
 1784              		.cfi_def_cfa_offset 32
 1785 0002 22CE     		sw	s0,28(sp)
 1786              		.cfi_offset 8, -4
 1787 0004 0010     		addi	s0,sp,32
 1788              		.cfi_def_cfa 8, 0
 1789 0006 2326A4FE 		sw	a0,-20(s0)
 495:../Firmware/GD32VW55x_standard_peripheral/Source/gd32vw55x_dma.c ****     DMA_CHCTL(channelx) |= DMA_CHXCTL_CMEN;
 1790              		.loc 1 495 25
 1791 000a 0327C4FE 		lw	a4,-20(s0)
 1792 000e BA87     		mv	a5,a4
 1793 0010 8607     		slli	a5,a5,1
 1794 0012 BA97     		add	a5,a5,a4
 1795 0014 8E07     		slli	a5,a5,3
 1796 0016 3E87     		mv	a4,a5
 1797 0018 B7670240 		li	a5,1073897472
 1798 001c C107     		addi	a5,a5,16
 1799 001e BA97     		add	a5,a4,a5
 1800 0020 9443     		lw	a3,0(a5)
 1801 0022 0327C4FE 		lw	a4,-20(s0)
 1802 0026 BA87     		mv	a5,a4
 1803 0028 8607     		slli	a5,a5,1
 1804 002a BA97     		add	a5,a5,a4
 1805 002c 8E07     		slli	a5,a5,3
 1806 002e 3E87     		mv	a4,a5
 1807 0030 B7670240 		li	a5,1073897472
 1808 0034 C107     		addi	a5,a5,16
 1809 0036 BA97     		add	a5,a4,a5
 1810 0038 3E87     		mv	a4,a5
 1811 003a 93E70610 		ori	a5,a3,256
 1812 003e 1CC3     		sw	a5,0(a4)
 496:../Firmware/GD32VW55x_standard_peripheral/Source/gd32vw55x_dma.c **** }
 1813              		.loc 1 496 1
 1814 0040 0100     		nop
 1815 0042 7244     		lw	s0,28(sp)
 1816              		.cfi_restore 8
 1817              		.cfi_def_cfa 2, 32
 1818 0044 0561     		addi	sp,sp,32
 1819              		.cfi_def_cfa_offset 0
 1820 0046 8280     		jr	ra
 1821              		.cfi_endproc
 1822              	.LFE363:
 1824              		.section	.text.dma_circulation_disable,"ax",@progbits
 1825              		.align	1
 1826              		.globl	dma_circulation_disable
 1828              	dma_circulation_disable:
 1829              	.LFB364:
 497:../Firmware/GD32VW55x_standard_peripheral/Source/gd32vw55x_dma.c **** 
 498:../Firmware/GD32VW55x_standard_peripheral/Source/gd32vw55x_dma.c **** /*!
 499:../Firmware/GD32VW55x_standard_peripheral/Source/gd32vw55x_dma.c ****     \brief      disable DMA circulation mode
 500:../Firmware/GD32VW55x_standard_peripheral/Source/gd32vw55x_dma.c ****     \param[in]  channelx: specify which DMA channel
 501:../Firmware/GD32VW55x_standard_peripheral/Source/gd32vw55x_dma.c ****       \arg        DMA_CHx (x=0..7)
 502:../Firmware/GD32VW55x_standard_peripheral/Source/gd32vw55x_dma.c ****     \param[out] none
 503:../Firmware/GD32VW55x_standard_peripheral/Source/gd32vw55x_dma.c ****     \retval     none
 504:../Firmware/GD32VW55x_standard_peripheral/Source/gd32vw55x_dma.c **** */
 505:../Firmware/GD32VW55x_standard_peripheral/Source/gd32vw55x_dma.c **** void dma_circulation_disable(dma_channel_enum channelx)
 506:../Firmware/GD32VW55x_standard_peripheral/Source/gd32vw55x_dma.c **** {
 1830              		.loc 1 506 1
 1831              		.cfi_startproc
 1832 0000 0111     		addi	sp,sp,-32
 1833              		.cfi_def_cfa_offset 32
 1834 0002 22CE     		sw	s0,28(sp)
 1835              		.cfi_offset 8, -4
 1836 0004 0010     		addi	s0,sp,32
 1837              		.cfi_def_cfa 8, 0
 1838 0006 2326A4FE 		sw	a0,-20(s0)
 507:../Firmware/GD32VW55x_standard_peripheral/Source/gd32vw55x_dma.c ****     DMA_CHCTL(channelx) &= ~DMA_CHXCTL_CMEN;
 1839              		.loc 1 507 25
 1840 000a 0327C4FE 		lw	a4,-20(s0)
 1841 000e BA87     		mv	a5,a4
 1842 0010 8607     		slli	a5,a5,1
 1843 0012 BA97     		add	a5,a5,a4
 1844 0014 8E07     		slli	a5,a5,3
 1845 0016 3E87     		mv	a4,a5
 1846 0018 B7670240 		li	a5,1073897472
 1847 001c C107     		addi	a5,a5,16
 1848 001e BA97     		add	a5,a4,a5
 1849 0020 9443     		lw	a3,0(a5)
 1850 0022 0327C4FE 		lw	a4,-20(s0)
 1851 0026 BA87     		mv	a5,a4
 1852 0028 8607     		slli	a5,a5,1
 1853 002a BA97     		add	a5,a5,a4
 1854 002c 8E07     		slli	a5,a5,3
 1855 002e 3E87     		mv	a4,a5
 1856 0030 B7670240 		li	a5,1073897472
 1857 0034 C107     		addi	a5,a5,16
 1858 0036 BA97     		add	a5,a4,a5
 1859 0038 3E87     		mv	a4,a5
 1860 003a 93F7F6EF 		andi	a5,a3,-257
 1861 003e 1CC3     		sw	a5,0(a4)
 508:../Firmware/GD32VW55x_standard_peripheral/Source/gd32vw55x_dma.c **** }
 1862              		.loc 1 508 1
 1863 0040 0100     		nop
 1864 0042 7244     		lw	s0,28(sp)
 1865              		.cfi_restore 8
 1866              		.cfi_def_cfa 2, 32
 1867 0044 0561     		addi	sp,sp,32
 1868              		.cfi_def_cfa_offset 0
 1869 0046 8280     		jr	ra
 1870              		.cfi_endproc
 1871              	.LFE364:
 1873              		.section	.text.dma_channel_enable,"ax",@progbits
 1874              		.align	1
 1875              		.globl	dma_channel_enable
 1877              	dma_channel_enable:
 1878              	.LFB365:
 509:../Firmware/GD32VW55x_standard_peripheral/Source/gd32vw55x_dma.c **** 
 510:../Firmware/GD32VW55x_standard_peripheral/Source/gd32vw55x_dma.c **** /*!
 511:../Firmware/GD32VW55x_standard_peripheral/Source/gd32vw55x_dma.c ****     \brief      enable DMA channel
 512:../Firmware/GD32VW55x_standard_peripheral/Source/gd32vw55x_dma.c ****     \param[in]  channelx: specify which DMA channel
 513:../Firmware/GD32VW55x_standard_peripheral/Source/gd32vw55x_dma.c ****       \arg        DMA_CHx (x=0..7)
 514:../Firmware/GD32VW55x_standard_peripheral/Source/gd32vw55x_dma.c ****     \param[out] none
 515:../Firmware/GD32VW55x_standard_peripheral/Source/gd32vw55x_dma.c ****     \retval     none
 516:../Firmware/GD32VW55x_standard_peripheral/Source/gd32vw55x_dma.c **** */
 517:../Firmware/GD32VW55x_standard_peripheral/Source/gd32vw55x_dma.c **** void dma_channel_enable(dma_channel_enum channelx)
 518:../Firmware/GD32VW55x_standard_peripheral/Source/gd32vw55x_dma.c **** {
 1879              		.loc 1 518 1
 1880              		.cfi_startproc
 1881 0000 0111     		addi	sp,sp,-32
 1882              		.cfi_def_cfa_offset 32
 1883 0002 22CE     		sw	s0,28(sp)
 1884              		.cfi_offset 8, -4
 1885 0004 0010     		addi	s0,sp,32
 1886              		.cfi_def_cfa 8, 0
 1887 0006 2326A4FE 		sw	a0,-20(s0)
 519:../Firmware/GD32VW55x_standard_peripheral/Source/gd32vw55x_dma.c ****     DMA_CHCTL(channelx) |= DMA_CHXCTL_CHEN;
 1888              		.loc 1 519 25
 1889 000a 0327C4FE 		lw	a4,-20(s0)
 1890 000e BA87     		mv	a5,a4
 1891 0010 8607     		slli	a5,a5,1
 1892 0012 BA97     		add	a5,a5,a4
 1893 0014 8E07     		slli	a5,a5,3
 1894 0016 3E87     		mv	a4,a5
 1895 0018 B7670240 		li	a5,1073897472
 1896 001c C107     		addi	a5,a5,16
 1897 001e BA97     		add	a5,a4,a5
 1898 0020 9443     		lw	a3,0(a5)
 1899 0022 0327C4FE 		lw	a4,-20(s0)
 1900 0026 BA87     		mv	a5,a4
 1901 0028 8607     		slli	a5,a5,1
 1902 002a BA97     		add	a5,a5,a4
 1903 002c 8E07     		slli	a5,a5,3
 1904 002e 3E87     		mv	a4,a5
 1905 0030 B7670240 		li	a5,1073897472
 1906 0034 C107     		addi	a5,a5,16
 1907 0036 BA97     		add	a5,a4,a5
 1908 0038 3E87     		mv	a4,a5
 1909 003a 93E71600 		ori	a5,a3,1
 1910 003e 1CC3     		sw	a5,0(a4)
 520:../Firmware/GD32VW55x_standard_peripheral/Source/gd32vw55x_dma.c **** }
 1911              		.loc 1 520 1
 1912 0040 0100     		nop
 1913 0042 7244     		lw	s0,28(sp)
 1914              		.cfi_restore 8
 1915              		.cfi_def_cfa 2, 32
 1916 0044 0561     		addi	sp,sp,32
 1917              		.cfi_def_cfa_offset 0
 1918 0046 8280     		jr	ra
 1919              		.cfi_endproc
 1920              	.LFE365:
 1922              		.section	.text.dma_channel_disable,"ax",@progbits
 1923              		.align	1
 1924              		.globl	dma_channel_disable
 1926              	dma_channel_disable:
 1927              	.LFB366:
 521:../Firmware/GD32VW55x_standard_peripheral/Source/gd32vw55x_dma.c **** 
 522:../Firmware/GD32VW55x_standard_peripheral/Source/gd32vw55x_dma.c **** /*!
 523:../Firmware/GD32VW55x_standard_peripheral/Source/gd32vw55x_dma.c ****     \brief      disable DMA channel
 524:../Firmware/GD32VW55x_standard_peripheral/Source/gd32vw55x_dma.c ****     \param[in]  channelx: specify which DMA channel
 525:../Firmware/GD32VW55x_standard_peripheral/Source/gd32vw55x_dma.c ****       \arg        DMA_CHx (x=0..7)
 526:../Firmware/GD32VW55x_standard_peripheral/Source/gd32vw55x_dma.c ****     \param[out] none
 527:../Firmware/GD32VW55x_standard_peripheral/Source/gd32vw55x_dma.c ****     \retval     none
 528:../Firmware/GD32VW55x_standard_peripheral/Source/gd32vw55x_dma.c **** */
 529:../Firmware/GD32VW55x_standard_peripheral/Source/gd32vw55x_dma.c **** void dma_channel_disable(dma_channel_enum channelx)
 530:../Firmware/GD32VW55x_standard_peripheral/Source/gd32vw55x_dma.c **** {
 1928              		.loc 1 530 1
 1929              		.cfi_startproc
 1930 0000 0111     		addi	sp,sp,-32
 1931              		.cfi_def_cfa_offset 32
 1932 0002 22CE     		sw	s0,28(sp)
 1933              		.cfi_offset 8, -4
 1934 0004 0010     		addi	s0,sp,32
 1935              		.cfi_def_cfa 8, 0
 1936 0006 2326A4FE 		sw	a0,-20(s0)
 531:../Firmware/GD32VW55x_standard_peripheral/Source/gd32vw55x_dma.c ****     DMA_CHCTL(channelx) &= ~DMA_CHXCTL_CHEN;
 1937              		.loc 1 531 25
 1938 000a 0327C4FE 		lw	a4,-20(s0)
 1939 000e BA87     		mv	a5,a4
 1940 0010 8607     		slli	a5,a5,1
 1941 0012 BA97     		add	a5,a5,a4
 1942 0014 8E07     		slli	a5,a5,3
 1943 0016 3E87     		mv	a4,a5
 1944 0018 B7670240 		li	a5,1073897472
 1945 001c C107     		addi	a5,a5,16
 1946 001e BA97     		add	a5,a4,a5
 1947 0020 9443     		lw	a3,0(a5)
 1948 0022 0327C4FE 		lw	a4,-20(s0)
 1949 0026 BA87     		mv	a5,a4
 1950 0028 8607     		slli	a5,a5,1
 1951 002a BA97     		add	a5,a5,a4
 1952 002c 8E07     		slli	a5,a5,3
 1953 002e 3E87     		mv	a4,a5
 1954 0030 B7670240 		li	a5,1073897472
 1955 0034 C107     		addi	a5,a5,16
 1956 0036 BA97     		add	a5,a4,a5
 1957 0038 3E87     		mv	a4,a5
 1958 003a 93F7E6FF 		andi	a5,a3,-2
 1959 003e 1CC3     		sw	a5,0(a4)
 532:../Firmware/GD32VW55x_standard_peripheral/Source/gd32vw55x_dma.c **** }
 1960              		.loc 1 532 1
 1961 0040 0100     		nop
 1962 0042 7244     		lw	s0,28(sp)
 1963              		.cfi_restore 8
 1964              		.cfi_def_cfa 2, 32
 1965 0044 0561     		addi	sp,sp,32
 1966              		.cfi_def_cfa_offset 0
 1967 0046 8280     		jr	ra
 1968              		.cfi_endproc
 1969              	.LFE366:
 1971              		.section	.text.dma_transfer_direction_config,"ax",@progbits
 1972              		.align	1
 1973              		.globl	dma_transfer_direction_config
 1975              	dma_transfer_direction_config:
 1976              	.LFB367:
 533:../Firmware/GD32VW55x_standard_peripheral/Source/gd32vw55x_dma.c **** 
 534:../Firmware/GD32VW55x_standard_peripheral/Source/gd32vw55x_dma.c **** /*!
 535:../Firmware/GD32VW55x_standard_peripheral/Source/gd32vw55x_dma.c ****     \brief      configure the direction of data transfer on the channel
 536:../Firmware/GD32VW55x_standard_peripheral/Source/gd32vw55x_dma.c ****     \param[in]  channelx: specify which DMA channel
 537:../Firmware/GD32VW55x_standard_peripheral/Source/gd32vw55x_dma.c ****       \arg        DMA_CHx (x=0..7)
 538:../Firmware/GD32VW55x_standard_peripheral/Source/gd32vw55x_dma.c ****     \param[in]  direction: specify the direction of  data transfer
 539:../Firmware/GD32VW55x_standard_peripheral/Source/gd32vw55x_dma.c ****                 only one parameter can be selected which is shown as below:
 540:../Firmware/GD32VW55x_standard_peripheral/Source/gd32vw55x_dma.c ****       \arg        DMA_PERIPH_TO_MEMORY: read from peripheral and write to memory
 541:../Firmware/GD32VW55x_standard_peripheral/Source/gd32vw55x_dma.c ****       \arg        DMA_MEMORY_TO_PERIPH: read from memory and write to peripheral
 542:../Firmware/GD32VW55x_standard_peripheral/Source/gd32vw55x_dma.c ****       \arg        DMA_MEMORY_TO_MEMORY: read from memory and write to memory
 543:../Firmware/GD32VW55x_standard_peripheral/Source/gd32vw55x_dma.c ****     \param[out] none
 544:../Firmware/GD32VW55x_standard_peripheral/Source/gd32vw55x_dma.c ****     \retval     none
 545:../Firmware/GD32VW55x_standard_peripheral/Source/gd32vw55x_dma.c **** */
 546:../Firmware/GD32VW55x_standard_peripheral/Source/gd32vw55x_dma.c **** void dma_transfer_direction_config(dma_channel_enum channelx, uint8_t direction)
 547:../Firmware/GD32VW55x_standard_peripheral/Source/gd32vw55x_dma.c **** {
 1977              		.loc 1 547 1
 1978              		.cfi_startproc
 1979 0000 7971     		addi	sp,sp,-48
 1980              		.cfi_def_cfa_offset 48
 1981 0002 22D6     		sw	s0,44(sp)
 1982              		.cfi_offset 8, -4
 1983 0004 0018     		addi	s0,sp,48
 1984              		.cfi_def_cfa 8, 0
 1985 0006 232EA4FC 		sw	a0,-36(s0)
 1986 000a AE87     		mv	a5,a1
 1987 000c A30DF4FC 		sb	a5,-37(s0)
 548:../Firmware/GD32VW55x_standard_peripheral/Source/gd32vw55x_dma.c ****     uint32_t ctl;
 549:../Firmware/GD32VW55x_standard_peripheral/Source/gd32vw55x_dma.c ****     /* acquire DMA_CHxCTL register */
 550:../Firmware/GD32VW55x_standard_peripheral/Source/gd32vw55x_dma.c ****     ctl = DMA_CHCTL(channelx);
 1988              		.loc 1 550 11
 1989 0010 0327C4FD 		lw	a4,-36(s0)
 1990 0014 BA87     		mv	a5,a4
 1991 0016 8607     		slli	a5,a5,1
 1992 0018 BA97     		add	a5,a5,a4
 1993 001a 8E07     		slli	a5,a5,3
 1994 001c 3E87     		mv	a4,a5
 1995 001e B7670240 		li	a5,1073897472
 1996 0022 C107     		addi	a5,a5,16
 1997 0024 BA97     		add	a5,a4,a5
 1998              		.loc 1 550 9
 1999 0026 9C43     		lw	a5,0(a5)
 2000 0028 2326F4FE 		sw	a5,-20(s0)
 551:../Firmware/GD32VW55x_standard_peripheral/Source/gd32vw55x_dma.c ****     /* assign registers */
 552:../Firmware/GD32VW55x_standard_peripheral/Source/gd32vw55x_dma.c ****     ctl &= ~DMA_CHXCTL_TM;
 2001              		.loc 1 552 9
 2002 002c 8327C4FE 		lw	a5,-20(s0)
 2003 0030 93F7F7F3 		andi	a5,a5,-193
 2004 0034 2326F4FE 		sw	a5,-20(s0)
 553:../Firmware/GD32VW55x_standard_peripheral/Source/gd32vw55x_dma.c ****     ctl |= direction;
 2005              		.loc 1 553 9
 2006 0038 8347B4FD 		lbu	a5,-37(s0)
 2007 003c 0327C4FE 		lw	a4,-20(s0)
 2008 0040 D98F     		or	a5,a4,a5
 2009 0042 2326F4FE 		sw	a5,-20(s0)
 554:../Firmware/GD32VW55x_standard_peripheral/Source/gd32vw55x_dma.c **** 
 555:../Firmware/GD32VW55x_standard_peripheral/Source/gd32vw55x_dma.c ****     DMA_CHCTL(channelx) = ctl;
 2010              		.loc 1 555 5
 2011 0046 0327C4FD 		lw	a4,-36(s0)
 2012 004a BA87     		mv	a5,a4
 2013 004c 8607     		slli	a5,a5,1
 2014 004e BA97     		add	a5,a5,a4
 2015 0050 8E07     		slli	a5,a5,3
 2016 0052 3E87     		mv	a4,a5
 2017 0054 B7670240 		li	a5,1073897472
 2018 0058 C107     		addi	a5,a5,16
 2019 005a BA97     		add	a5,a4,a5
 2020 005c 3E87     		mv	a4,a5
 2021              		.loc 1 555 25
 2022 005e 8327C4FE 		lw	a5,-20(s0)
 2023 0062 1CC3     		sw	a5,0(a4)
 556:../Firmware/GD32VW55x_standard_peripheral/Source/gd32vw55x_dma.c **** }
 2024              		.loc 1 556 1
 2025 0064 0100     		nop
 2026 0066 3254     		lw	s0,44(sp)
 2027              		.cfi_restore 8
 2028              		.cfi_def_cfa 2, 48
 2029 0068 4561     		addi	sp,sp,48
 2030              		.cfi_def_cfa_offset 0
 2031 006a 8280     		jr	ra
 2032              		.cfi_endproc
 2033              	.LFE367:
 2035              		.section	.text.dma_switch_buffer_mode_config,"ax",@progbits
 2036              		.align	1
 2037              		.globl	dma_switch_buffer_mode_config
 2039              	dma_switch_buffer_mode_config:
 2040              	.LFB368:
 557:../Firmware/GD32VW55x_standard_peripheral/Source/gd32vw55x_dma.c **** 
 558:../Firmware/GD32VW55x_standard_peripheral/Source/gd32vw55x_dma.c **** /*!
 559:../Firmware/GD32VW55x_standard_peripheral/Source/gd32vw55x_dma.c ****     \brief      configure DMA switch buffer mode
 560:../Firmware/GD32VW55x_standard_peripheral/Source/gd32vw55x_dma.c ****     \param[in]  channelx: specify which DMA channel
 561:../Firmware/GD32VW55x_standard_peripheral/Source/gd32vw55x_dma.c ****       \arg        DMA_CHx (x=0..7)
 562:../Firmware/GD32VW55x_standard_peripheral/Source/gd32vw55x_dma.c ****     \param[in]  memory1_addr: memory1 base address
 563:../Firmware/GD32VW55x_standard_peripheral/Source/gd32vw55x_dma.c ****     \param[in]  memory_select: select memory transfer area
 564:../Firmware/GD32VW55x_standard_peripheral/Source/gd32vw55x_dma.c ****       \arg        DMA_MEMORY_0: select memory0 as memory transfer area
 565:../Firmware/GD32VW55x_standard_peripheral/Source/gd32vw55x_dma.c ****       \arg        DMA_MEMORY_1: select memory1 as memory transfer area
 566:../Firmware/GD32VW55x_standard_peripheral/Source/gd32vw55x_dma.c ****     \param[out] none
 567:../Firmware/GD32VW55x_standard_peripheral/Source/gd32vw55x_dma.c ****     \retval     none
 568:../Firmware/GD32VW55x_standard_peripheral/Source/gd32vw55x_dma.c **** */
 569:../Firmware/GD32VW55x_standard_peripheral/Source/gd32vw55x_dma.c **** void dma_switch_buffer_mode_config(dma_channel_enum channelx, uint32_t memory1_addr, uint32_t memor
 570:../Firmware/GD32VW55x_standard_peripheral/Source/gd32vw55x_dma.c **** {
 2041              		.loc 1 570 1
 2042              		.cfi_startproc
 2043 0000 0111     		addi	sp,sp,-32
 2044              		.cfi_def_cfa_offset 32
 2045 0002 22CE     		sw	s0,28(sp)
 2046              		.cfi_offset 8, -4
 2047 0004 0010     		addi	s0,sp,32
 2048              		.cfi_def_cfa 8, 0
 2049 0006 2326A4FE 		sw	a0,-20(s0)
 2050 000a 2324B4FE 		sw	a1,-24(s0)
 2051 000e 2322C4FE 		sw	a2,-28(s0)
 571:../Firmware/GD32VW55x_standard_peripheral/Source/gd32vw55x_dma.c ****     /* configure memory1 base address */
 572:../Firmware/GD32VW55x_standard_peripheral/Source/gd32vw55x_dma.c ****     DMA_CHM1ADDR(channelx) = memory1_addr;
 2052              		.loc 1 572 5
 2053 0012 0327C4FE 		lw	a4,-20(s0)
 2054 0016 BA87     		mv	a5,a4
 2055 0018 8607     		slli	a5,a5,1
 2056 001a BA97     		add	a5,a5,a4
 2057 001c 8E07     		slli	a5,a5,3
 2058 001e 3E87     		mv	a4,a5
 2059 0020 B7670240 		li	a5,1073897472
 2060 0024 93870702 		addi	a5,a5,32
 2061 0028 BA97     		add	a5,a4,a5
 2062 002a 3E87     		mv	a4,a5
 2063              		.loc 1 572 28
 2064 002c 832784FE 		lw	a5,-24(s0)
 2065 0030 1CC3     		sw	a5,0(a4)
 573:../Firmware/GD32VW55x_standard_peripheral/Source/gd32vw55x_dma.c **** 
 574:../Firmware/GD32VW55x_standard_peripheral/Source/gd32vw55x_dma.c ****     if(DMA_MEMORY_0 == memory_select){
 2066              		.loc 1 574 7
 2067 0032 832744FE 		lw	a5,-28(s0)
 2068 0036 9DEF     		bne	a5,zero,.L53
 575:../Firmware/GD32VW55x_standard_peripheral/Source/gd32vw55x_dma.c ****         DMA_CHCTL(channelx) &= ~DMA_CHXCTL_MBS;
 2069              		.loc 1 575 29
 2070 0038 0327C4FE 		lw	a4,-20(s0)
 2071 003c BA87     		mv	a5,a4
 2072 003e 8607     		slli	a5,a5,1
 2073 0040 BA97     		add	a5,a5,a4
 2074 0042 8E07     		slli	a5,a5,3
 2075 0044 3E87     		mv	a4,a5
 2076 0046 B7670240 		li	a5,1073897472
 2077 004a C107     		addi	a5,a5,16
 2078 004c BA97     		add	a5,a4,a5
 2079 004e 9443     		lw	a3,0(a5)
 2080 0050 0327C4FE 		lw	a4,-20(s0)
 2081 0054 BA87     		mv	a5,a4
 2082 0056 8607     		slli	a5,a5,1
 2083 0058 BA97     		add	a5,a5,a4
 2084 005a 8E07     		slli	a5,a5,3
 2085 005c 3E87     		mv	a4,a5
 2086 005e B7670240 		li	a5,1073897472
 2087 0062 C107     		addi	a5,a5,16
 2088 0064 BA97     		add	a5,a4,a5
 2089 0066 3E87     		mv	a4,a5
 2090 0068 B707F8FF 		li	a5,-524288
 2091 006c FD17     		addi	a5,a5,-1
 2092 006e F58F     		and	a5,a3,a5
 2093 0070 1CC3     		sw	a5,0(a4)
 576:../Firmware/GD32VW55x_standard_peripheral/Source/gd32vw55x_dma.c ****     }else{
 577:../Firmware/GD32VW55x_standard_peripheral/Source/gd32vw55x_dma.c ****         DMA_CHCTL(channelx) |= DMA_CHXCTL_MBS;
 578:../Firmware/GD32VW55x_standard_peripheral/Source/gd32vw55x_dma.c ****     }
 579:../Firmware/GD32VW55x_standard_peripheral/Source/gd32vw55x_dma.c **** }
 2094              		.loc 1 579 1
 2095 0072 2DA8     		j	.L55
 2096              	.L53:
 577:../Firmware/GD32VW55x_standard_peripheral/Source/gd32vw55x_dma.c ****     }
 2097              		.loc 1 577 29
 2098 0074 0327C4FE 		lw	a4,-20(s0)
 2099 0078 BA87     		mv	a5,a4
 2100 007a 8607     		slli	a5,a5,1
 2101 007c BA97     		add	a5,a5,a4
 2102 007e 8E07     		slli	a5,a5,3
 2103 0080 3E87     		mv	a4,a5
 2104 0082 B7670240 		li	a5,1073897472
 2105 0086 C107     		addi	a5,a5,16
 2106 0088 BA97     		add	a5,a4,a5
 2107 008a 9443     		lw	a3,0(a5)
 2108 008c 0327C4FE 		lw	a4,-20(s0)
 2109 0090 BA87     		mv	a5,a4
 2110 0092 8607     		slli	a5,a5,1
 2111 0094 BA97     		add	a5,a5,a4
 2112 0096 8E07     		slli	a5,a5,3
 2113 0098 3E87     		mv	a4,a5
 2114 009a B7670240 		li	a5,1073897472
 2115 009e C107     		addi	a5,a5,16
 2116 00a0 BA97     		add	a5,a4,a5
 2117 00a2 3E87     		mv	a4,a5
 2118 00a4 B7070800 		li	a5,524288
 2119 00a8 D58F     		or	a5,a3,a5
 2120 00aa 1CC3     		sw	a5,0(a4)
 2121              	.L55:
 2122              		.loc 1 579 1
 2123 00ac 0100     		nop
 2124 00ae 7244     		lw	s0,28(sp)
 2125              		.cfi_restore 8
 2126              		.cfi_def_cfa 2, 32
 2127 00b0 0561     		addi	sp,sp,32
 2128              		.cfi_def_cfa_offset 0
 2129 00b2 8280     		jr	ra
 2130              		.cfi_endproc
 2131              	.LFE368:
 2133              		.section	.text.dma_using_memory_get,"ax",@progbits
 2134              		.align	1
 2135              		.globl	dma_using_memory_get
 2137              	dma_using_memory_get:
 2138              	.LFB369:
 580:../Firmware/GD32VW55x_standard_peripheral/Source/gd32vw55x_dma.c **** 
 581:../Firmware/GD32VW55x_standard_peripheral/Source/gd32vw55x_dma.c **** /*!
 582:../Firmware/GD32VW55x_standard_peripheral/Source/gd32vw55x_dma.c ****     \brief      get the current buffer used by the DMA
 583:../Firmware/GD32VW55x_standard_peripheral/Source/gd32vw55x_dma.c ****     \param[in]  channelx: specify which DMA channel
 584:../Firmware/GD32VW55x_standard_peripheral/Source/gd32vw55x_dma.c ****       \arg        DMA_CHx (x=0..7)
 585:../Firmware/GD32VW55x_standard_peripheral/Source/gd32vw55x_dma.c ****     \param[out] none
 586:../Firmware/GD32VW55x_standard_peripheral/Source/gd32vw55x_dma.c ****     \retval     the using memory
 587:../Firmware/GD32VW55x_standard_peripheral/Source/gd32vw55x_dma.c **** */
 588:../Firmware/GD32VW55x_standard_peripheral/Source/gd32vw55x_dma.c **** uint32_t dma_using_memory_get(dma_channel_enum channelx)
 589:../Firmware/GD32VW55x_standard_peripheral/Source/gd32vw55x_dma.c **** {
 2139              		.loc 1 589 1
 2140              		.cfi_startproc
 2141 0000 0111     		addi	sp,sp,-32
 2142              		.cfi_def_cfa_offset 32
 2143 0002 22CE     		sw	s0,28(sp)
 2144              		.cfi_offset 8, -4
 2145 0004 0010     		addi	s0,sp,32
 2146              		.cfi_def_cfa 8, 0
 2147 0006 2326A4FE 		sw	a0,-20(s0)
 590:../Firmware/GD32VW55x_standard_peripheral/Source/gd32vw55x_dma.c ****     if((DMA_CHCTL(channelx)) & DMA_CHXCTL_MBS){
 2148              		.loc 1 590 9
 2149 000a 0327C4FE 		lw	a4,-20(s0)
 2150 000e BA87     		mv	a5,a4
 2151 0010 8607     		slli	a5,a5,1
 2152 0012 BA97     		add	a5,a5,a4
 2153 0014 8E07     		slli	a5,a5,3
 2154 0016 3E87     		mv	a4,a5
 2155 0018 B7670240 		li	a5,1073897472
 2156 001c C107     		addi	a5,a5,16
 2157 001e BA97     		add	a5,a4,a5
 2158 0020 9843     		lw	a4,0(a5)
 2159              		.loc 1 590 30
 2160 0022 B7070800 		li	a5,524288
 2161 0026 F98F     		and	a5,a4,a5
 2162              		.loc 1 590 7
 2163 0028 99C3     		beq	a5,zero,.L57
 591:../Firmware/GD32VW55x_standard_peripheral/Source/gd32vw55x_dma.c ****         return DMA_MEMORY_1;
 2164              		.loc 1 591 16
 2165 002a 8547     		li	a5,1
 2166 002c 11A0     		j	.L58
 2167              	.L57:
 592:../Firmware/GD32VW55x_standard_peripheral/Source/gd32vw55x_dma.c ****     }else{
 593:../Firmware/GD32VW55x_standard_peripheral/Source/gd32vw55x_dma.c ****         return DMA_MEMORY_0;
 2168              		.loc 1 593 16
 2169 002e 8147     		li	a5,0
 2170              	.L58:
 594:../Firmware/GD32VW55x_standard_peripheral/Source/gd32vw55x_dma.c ****     }
 595:../Firmware/GD32VW55x_standard_peripheral/Source/gd32vw55x_dma.c **** }
 2171              		.loc 1 595 1
 2172 0030 3E85     		mv	a0,a5
 2173 0032 7244     		lw	s0,28(sp)
 2174              		.cfi_restore 8
 2175              		.cfi_def_cfa 2, 32
 2176 0034 0561     		addi	sp,sp,32
 2177              		.cfi_def_cfa_offset 0
 2178 0036 8280     		jr	ra
 2179              		.cfi_endproc
 2180              	.LFE369:
 2182              		.section	.text.dma_channel_subperipheral_select,"ax",@progbits
 2183              		.align	1
 2184              		.globl	dma_channel_subperipheral_select
 2186              	dma_channel_subperipheral_select:
 2187              	.LFB370:
 596:../Firmware/GD32VW55x_standard_peripheral/Source/gd32vw55x_dma.c **** 
 597:../Firmware/GD32VW55x_standard_peripheral/Source/gd32vw55x_dma.c **** /*!
 598:../Firmware/GD32VW55x_standard_peripheral/Source/gd32vw55x_dma.c ****     \brief      select DMA channel peripheral
 599:../Firmware/GD32VW55x_standard_peripheral/Source/gd32vw55x_dma.c ****     \param[in]  channelx: specify which DMA channel
 600:../Firmware/GD32VW55x_standard_peripheral/Source/gd32vw55x_dma.c ****       \arg        DMA_CHx (x=0..7)
 601:../Firmware/GD32VW55x_standard_peripheral/Source/gd32vw55x_dma.c ****     \param[in]  sub_periph: specify DMA channel peripheral
 602:../Firmware/GD32VW55x_standard_peripheral/Source/gd32vw55x_dma.c ****       \arg        DMA_SUBPERIx (x=0..7)
 603:../Firmware/GD32VW55x_standard_peripheral/Source/gd32vw55x_dma.c ****     \param[out] none
 604:../Firmware/GD32VW55x_standard_peripheral/Source/gd32vw55x_dma.c ****     \retval     none
 605:../Firmware/GD32VW55x_standard_peripheral/Source/gd32vw55x_dma.c **** */
 606:../Firmware/GD32VW55x_standard_peripheral/Source/gd32vw55x_dma.c **** void dma_channel_subperipheral_select(dma_channel_enum channelx, dma_subperipheral_enum sub_periph)
 607:../Firmware/GD32VW55x_standard_peripheral/Source/gd32vw55x_dma.c **** {
 2188              		.loc 1 607 1
 2189              		.cfi_startproc
 2190 0000 7971     		addi	sp,sp,-48
 2191              		.cfi_def_cfa_offset 48
 2192 0002 22D6     		sw	s0,44(sp)
 2193              		.cfi_offset 8, -4
 2194 0004 0018     		addi	s0,sp,48
 2195              		.cfi_def_cfa 8, 0
 2196 0006 232EA4FC 		sw	a0,-36(s0)
 2197 000a 232CB4FC 		sw	a1,-40(s0)
 608:../Firmware/GD32VW55x_standard_peripheral/Source/gd32vw55x_dma.c ****     uint32_t ctl;
 609:../Firmware/GD32VW55x_standard_peripheral/Source/gd32vw55x_dma.c ****     /* acquire DMA_CHxCTL register */
 610:../Firmware/GD32VW55x_standard_peripheral/Source/gd32vw55x_dma.c ****     ctl = DMA_CHCTL(channelx);
 2198              		.loc 1 610 11
 2199 000e 0327C4FD 		lw	a4,-36(s0)
 2200 0012 BA87     		mv	a5,a4
 2201 0014 8607     		slli	a5,a5,1
 2202 0016 BA97     		add	a5,a5,a4
 2203 0018 8E07     		slli	a5,a5,3
 2204 001a 3E87     		mv	a4,a5
 2205 001c B7670240 		li	a5,1073897472
 2206 0020 C107     		addi	a5,a5,16
 2207 0022 BA97     		add	a5,a4,a5
 2208              		.loc 1 610 9
 2209 0024 9C43     		lw	a5,0(a5)
 2210 0026 2326F4FE 		sw	a5,-20(s0)
 611:../Firmware/GD32VW55x_standard_peripheral/Source/gd32vw55x_dma.c ****     /* assign register */
 612:../Firmware/GD32VW55x_standard_peripheral/Source/gd32vw55x_dma.c ****     ctl &= ~DMA_CHXCTL_PERIEN;
 2211              		.loc 1 612 9
 2212 002a 0327C4FE 		lw	a4,-20(s0)
 2213 002e B70700F2 		li	a5,-234881024
 2214 0032 FD17     		addi	a5,a5,-1
 2215 0034 F98F     		and	a5,a4,a5
 2216 0036 2326F4FE 		sw	a5,-20(s0)
 613:../Firmware/GD32VW55x_standard_peripheral/Source/gd32vw55x_dma.c ****     ctl |= ((uint32_t)sub_periph << CHXCTL_PERIEN_OFFSET);
 2217              		.loc 1 613 34
 2218 003a 832784FD 		lw	a5,-40(s0)
 2219 003e E607     		slli	a5,a5,25
 2220              		.loc 1 613 9
 2221 0040 0327C4FE 		lw	a4,-20(s0)
 2222 0044 D98F     		or	a5,a4,a5
 2223 0046 2326F4FE 		sw	a5,-20(s0)
 614:../Firmware/GD32VW55x_standard_peripheral/Source/gd32vw55x_dma.c **** 
 615:../Firmware/GD32VW55x_standard_peripheral/Source/gd32vw55x_dma.c ****     DMA_CHCTL(channelx) = ctl;
 2224              		.loc 1 615 5
 2225 004a 0327C4FD 		lw	a4,-36(s0)
 2226 004e BA87     		mv	a5,a4
 2227 0050 8607     		slli	a5,a5,1
 2228 0052 BA97     		add	a5,a5,a4
 2229 0054 8E07     		slli	a5,a5,3
 2230 0056 3E87     		mv	a4,a5
 2231 0058 B7670240 		li	a5,1073897472
 2232 005c C107     		addi	a5,a5,16
 2233 005e BA97     		add	a5,a4,a5
 2234 0060 3E87     		mv	a4,a5
 2235              		.loc 1 615 25
 2236 0062 8327C4FE 		lw	a5,-20(s0)
 2237 0066 1CC3     		sw	a5,0(a4)
 616:../Firmware/GD32VW55x_standard_peripheral/Source/gd32vw55x_dma.c **** }
 2238              		.loc 1 616 1
 2239 0068 0100     		nop
 2240 006a 3254     		lw	s0,44(sp)
 2241              		.cfi_restore 8
 2242              		.cfi_def_cfa 2, 48
 2243 006c 4561     		addi	sp,sp,48
 2244              		.cfi_def_cfa_offset 0
 2245 006e 8280     		jr	ra
 2246              		.cfi_endproc
 2247              	.LFE370:
 2249              		.section	.text.dma_flow_controller_config,"ax",@progbits
 2250              		.align	1
 2251              		.globl	dma_flow_controller_config
 2253              	dma_flow_controller_config:
 2254              	.LFB371:
 617:../Firmware/GD32VW55x_standard_peripheral/Source/gd32vw55x_dma.c **** 
 618:../Firmware/GD32VW55x_standard_peripheral/Source/gd32vw55x_dma.c **** /*!
 619:../Firmware/GD32VW55x_standard_peripheral/Source/gd32vw55x_dma.c ****     \brief      configure DMA flow controller
 620:../Firmware/GD32VW55x_standard_peripheral/Source/gd32vw55x_dma.c ****     \param[in]  channelx: specify which DMA channel
 621:../Firmware/GD32VW55x_standard_peripheral/Source/gd32vw55x_dma.c ****       \arg        DMA_CHx (x=0..7)
 622:../Firmware/GD32VW55x_standard_peripheral/Source/gd32vw55x_dma.c ****     \param[in]  controller: specify DMA flow controler
 623:../Firmware/GD32VW55x_standard_peripheral/Source/gd32vw55x_dma.c ****                 only one parameter can be selected which is shown as below:
 624:../Firmware/GD32VW55x_standard_peripheral/Source/gd32vw55x_dma.c ****       \arg        DMA_FLOW_CONTROLLER_DMA: DMA is the flow controller
 625:../Firmware/GD32VW55x_standard_peripheral/Source/gd32vw55x_dma.c ****       \arg        DMA_FLOW_CONTROLLER_PERI: peripheral is the flow controller
 626:../Firmware/GD32VW55x_standard_peripheral/Source/gd32vw55x_dma.c ****     \param[out] none
 627:../Firmware/GD32VW55x_standard_peripheral/Source/gd32vw55x_dma.c ****     \retval     none
 628:../Firmware/GD32VW55x_standard_peripheral/Source/gd32vw55x_dma.c **** */
 629:../Firmware/GD32VW55x_standard_peripheral/Source/gd32vw55x_dma.c **** void dma_flow_controller_config(dma_channel_enum channelx, uint32_t controller)
 630:../Firmware/GD32VW55x_standard_peripheral/Source/gd32vw55x_dma.c **** {
 2255              		.loc 1 630 1
 2256              		.cfi_startproc
 2257 0000 0111     		addi	sp,sp,-32
 2258              		.cfi_def_cfa_offset 32
 2259 0002 22CE     		sw	s0,28(sp)
 2260              		.cfi_offset 8, -4
 2261 0004 0010     		addi	s0,sp,32
 2262              		.cfi_def_cfa 8, 0
 2263 0006 2326A4FE 		sw	a0,-20(s0)
 2264 000a 2324B4FE 		sw	a1,-24(s0)
 631:../Firmware/GD32VW55x_standard_peripheral/Source/gd32vw55x_dma.c ****     if(DMA_FLOW_CONTROLLER_DMA == controller){
 2265              		.loc 1 631 7
 2266 000e 832784FE 		lw	a5,-24(s0)
 2267 0012 8DEF     		bne	a5,zero,.L61
 632:../Firmware/GD32VW55x_standard_peripheral/Source/gd32vw55x_dma.c ****         DMA_CHCTL(channelx) &= ~DMA_CHXCTL_TFCS;
 2268              		.loc 1 632 29
 2269 0014 0327C4FE 		lw	a4,-20(s0)
 2270 0018 BA87     		mv	a5,a4
 2271 001a 8607     		slli	a5,a5,1
 2272 001c BA97     		add	a5,a5,a4
 2273 001e 8E07     		slli	a5,a5,3
 2274 0020 3E87     		mv	a4,a5
 2275 0022 B7670240 		li	a5,1073897472
 2276 0026 C107     		addi	a5,a5,16
 2277 0028 BA97     		add	a5,a4,a5
 2278 002a 9443     		lw	a3,0(a5)
 2279 002c 0327C4FE 		lw	a4,-20(s0)
 2280 0030 BA87     		mv	a5,a4
 2281 0032 8607     		slli	a5,a5,1
 2282 0034 BA97     		add	a5,a5,a4
 2283 0036 8E07     		slli	a5,a5,3
 2284 0038 3E87     		mv	a4,a5
 2285 003a B7670240 		li	a5,1073897472
 2286 003e C107     		addi	a5,a5,16
 2287 0040 BA97     		add	a5,a4,a5
 2288 0042 3E87     		mv	a4,a5
 2289 0044 93F7F6FD 		andi	a5,a3,-33
 2290 0048 1CC3     		sw	a5,0(a4)
 633:../Firmware/GD32VW55x_standard_peripheral/Source/gd32vw55x_dma.c ****     }else{
 634:../Firmware/GD32VW55x_standard_peripheral/Source/gd32vw55x_dma.c ****         DMA_CHCTL(channelx) |= DMA_CHXCTL_TFCS;
 635:../Firmware/GD32VW55x_standard_peripheral/Source/gd32vw55x_dma.c ****     }
 636:../Firmware/GD32VW55x_standard_peripheral/Source/gd32vw55x_dma.c **** }
 2291              		.loc 1 636 1
 2292 004a 25A8     		j	.L63
 2293              	.L61:
 634:../Firmware/GD32VW55x_standard_peripheral/Source/gd32vw55x_dma.c ****     }
 2294              		.loc 1 634 29
 2295 004c 0327C4FE 		lw	a4,-20(s0)
 2296 0050 BA87     		mv	a5,a4
 2297 0052 8607     		slli	a5,a5,1
 2298 0054 BA97     		add	a5,a5,a4
 2299 0056 8E07     		slli	a5,a5,3
 2300 0058 3E87     		mv	a4,a5
 2301 005a B7670240 		li	a5,1073897472
 2302 005e C107     		addi	a5,a5,16
 2303 0060 BA97     		add	a5,a4,a5
 2304 0062 9443     		lw	a3,0(a5)
 2305 0064 0327C4FE 		lw	a4,-20(s0)
 2306 0068 BA87     		mv	a5,a4
 2307 006a 8607     		slli	a5,a5,1
 2308 006c BA97     		add	a5,a5,a4
 2309 006e 8E07     		slli	a5,a5,3
 2310 0070 3E87     		mv	a4,a5
 2311 0072 B7670240 		li	a5,1073897472
 2312 0076 C107     		addi	a5,a5,16
 2313 0078 BA97     		add	a5,a4,a5
 2314 007a 3E87     		mv	a4,a5
 2315 007c 93E70602 		ori	a5,a3,32
 2316 0080 1CC3     		sw	a5,0(a4)
 2317              	.L63:
 2318              		.loc 1 636 1
 2319 0082 0100     		nop
 2320 0084 7244     		lw	s0,28(sp)
 2321              		.cfi_restore 8
 2322              		.cfi_def_cfa 2, 32
 2323 0086 0561     		addi	sp,sp,32
 2324              		.cfi_def_cfa_offset 0
 2325 0088 8280     		jr	ra
 2326              		.cfi_endproc
 2327              	.LFE371:
 2329              		.section	.text.dma_switch_buffer_mode_enable,"ax",@progbits
 2330              		.align	1
 2331              		.globl	dma_switch_buffer_mode_enable
 2333              	dma_switch_buffer_mode_enable:
 2334              	.LFB372:
 637:../Firmware/GD32VW55x_standard_peripheral/Source/gd32vw55x_dma.c **** 
 638:../Firmware/GD32VW55x_standard_peripheral/Source/gd32vw55x_dma.c **** /*!
 639:../Firmware/GD32VW55x_standard_peripheral/Source/gd32vw55x_dma.c ****     \brief      enable DMA switch buffer mode
 640:../Firmware/GD32VW55x_standard_peripheral/Source/gd32vw55x_dma.c ****     \param[in]  channelx: specify which DMA channel
 641:../Firmware/GD32VW55x_standard_peripheral/Source/gd32vw55x_dma.c ****       \arg        DMA_CHx (x=0..7)
 642:../Firmware/GD32VW55x_standard_peripheral/Source/gd32vw55x_dma.c ****     \param[out] none
 643:../Firmware/GD32VW55x_standard_peripheral/Source/gd32vw55x_dma.c ****     \retval     none
 644:../Firmware/GD32VW55x_standard_peripheral/Source/gd32vw55x_dma.c **** */
 645:../Firmware/GD32VW55x_standard_peripheral/Source/gd32vw55x_dma.c **** void dma_switch_buffer_mode_enable(dma_channel_enum channelx)
 646:../Firmware/GD32VW55x_standard_peripheral/Source/gd32vw55x_dma.c **** {
 2335              		.loc 1 646 1
 2336              		.cfi_startproc
 2337 0000 0111     		addi	sp,sp,-32
 2338              		.cfi_def_cfa_offset 32
 2339 0002 22CE     		sw	s0,28(sp)
 2340              		.cfi_offset 8, -4
 2341 0004 0010     		addi	s0,sp,32
 2342              		.cfi_def_cfa 8, 0
 2343 0006 2326A4FE 		sw	a0,-20(s0)
 647:../Firmware/GD32VW55x_standard_peripheral/Source/gd32vw55x_dma.c ****     /* switch buffer mode enable */
 648:../Firmware/GD32VW55x_standard_peripheral/Source/gd32vw55x_dma.c ****     DMA_CHCTL(channelx) |= DMA_CHXCTL_SBMEN;
 2344              		.loc 1 648 25
 2345 000a 0327C4FE 		lw	a4,-20(s0)
 2346 000e BA87     		mv	a5,a4
 2347 0010 8607     		slli	a5,a5,1
 2348 0012 BA97     		add	a5,a5,a4
 2349 0014 8E07     		slli	a5,a5,3
 2350 0016 3E87     		mv	a4,a5
 2351 0018 B7670240 		li	a5,1073897472
 2352 001c C107     		addi	a5,a5,16
 2353 001e BA97     		add	a5,a4,a5
 2354 0020 9443     		lw	a3,0(a5)
 2355 0022 0327C4FE 		lw	a4,-20(s0)
 2356 0026 BA87     		mv	a5,a4
 2357 0028 8607     		slli	a5,a5,1
 2358 002a BA97     		add	a5,a5,a4
 2359 002c 8E07     		slli	a5,a5,3
 2360 002e 3E87     		mv	a4,a5
 2361 0030 B7670240 		li	a5,1073897472
 2362 0034 C107     		addi	a5,a5,16
 2363 0036 BA97     		add	a5,a4,a5
 2364 0038 3E87     		mv	a4,a5
 2365 003a B7070400 		li	a5,262144
 2366 003e D58F     		or	a5,a3,a5
 2367 0040 1CC3     		sw	a5,0(a4)
 649:../Firmware/GD32VW55x_standard_peripheral/Source/gd32vw55x_dma.c **** }
 2368              		.loc 1 649 1
 2369 0042 0100     		nop
 2370 0044 7244     		lw	s0,28(sp)
 2371              		.cfi_restore 8
 2372              		.cfi_def_cfa 2, 32
 2373 0046 0561     		addi	sp,sp,32
 2374              		.cfi_def_cfa_offset 0
 2375 0048 8280     		jr	ra
 2376              		.cfi_endproc
 2377              	.LFE372:
 2379              		.section	.text.dma_switch_buffer_mode_disable,"ax",@progbits
 2380              		.align	1
 2381              		.globl	dma_switch_buffer_mode_disable
 2383              	dma_switch_buffer_mode_disable:
 2384              	.LFB373:
 650:../Firmware/GD32VW55x_standard_peripheral/Source/gd32vw55x_dma.c **** 
 651:../Firmware/GD32VW55x_standard_peripheral/Source/gd32vw55x_dma.c **** /*!
 652:../Firmware/GD32VW55x_standard_peripheral/Source/gd32vw55x_dma.c ****     \brief      disable DMA switch buffer mode
 653:../Firmware/GD32VW55x_standard_peripheral/Source/gd32vw55x_dma.c ****     \param[in]  channelx: specify which DMA channel
 654:../Firmware/GD32VW55x_standard_peripheral/Source/gd32vw55x_dma.c ****       \arg        DMA_CHx (x=0..7)
 655:../Firmware/GD32VW55x_standard_peripheral/Source/gd32vw55x_dma.c ****     \param[out] none
 656:../Firmware/GD32VW55x_standard_peripheral/Source/gd32vw55x_dma.c ****     \retval     none
 657:../Firmware/GD32VW55x_standard_peripheral/Source/gd32vw55x_dma.c **** */
 658:../Firmware/GD32VW55x_standard_peripheral/Source/gd32vw55x_dma.c **** void dma_switch_buffer_mode_disable(dma_channel_enum channelx)
 659:../Firmware/GD32VW55x_standard_peripheral/Source/gd32vw55x_dma.c **** {
 2385              		.loc 1 659 1
 2386              		.cfi_startproc
 2387 0000 0111     		addi	sp,sp,-32
 2388              		.cfi_def_cfa_offset 32
 2389 0002 22CE     		sw	s0,28(sp)
 2390              		.cfi_offset 8, -4
 2391 0004 0010     		addi	s0,sp,32
 2392              		.cfi_def_cfa 8, 0
 2393 0006 2326A4FE 		sw	a0,-20(s0)
 660:../Firmware/GD32VW55x_standard_peripheral/Source/gd32vw55x_dma.c ****     /* switch buffer mode disable */
 661:../Firmware/GD32VW55x_standard_peripheral/Source/gd32vw55x_dma.c ****     DMA_CHCTL(channelx) &= ~DMA_CHXCTL_SBMEN;
 2394              		.loc 1 661 25
 2395 000a 0327C4FE 		lw	a4,-20(s0)
 2396 000e BA87     		mv	a5,a4
 2397 0010 8607     		slli	a5,a5,1
 2398 0012 BA97     		add	a5,a5,a4
 2399 0014 8E07     		slli	a5,a5,3
 2400 0016 3E87     		mv	a4,a5
 2401 0018 B7670240 		li	a5,1073897472
 2402 001c C107     		addi	a5,a5,16
 2403 001e BA97     		add	a5,a4,a5
 2404 0020 9443     		lw	a3,0(a5)
 2405 0022 0327C4FE 		lw	a4,-20(s0)
 2406 0026 BA87     		mv	a5,a4
 2407 0028 8607     		slli	a5,a5,1
 2408 002a BA97     		add	a5,a5,a4
 2409 002c 8E07     		slli	a5,a5,3
 2410 002e 3E87     		mv	a4,a5
 2411 0030 B7670240 		li	a5,1073897472
 2412 0034 C107     		addi	a5,a5,16
 2413 0036 BA97     		add	a5,a4,a5
 2414 0038 3E87     		mv	a4,a5
 2415 003a B707FCFF 		li	a5,-262144
 2416 003e FD17     		addi	a5,a5,-1
 2417 0040 F58F     		and	a5,a3,a5
 2418 0042 1CC3     		sw	a5,0(a4)
 662:../Firmware/GD32VW55x_standard_peripheral/Source/gd32vw55x_dma.c **** }
 2419              		.loc 1 662 1
 2420 0044 0100     		nop
 2421 0046 7244     		lw	s0,28(sp)
 2422              		.cfi_restore 8
 2423              		.cfi_def_cfa 2, 32
 2424 0048 0561     		addi	sp,sp,32
 2425              		.cfi_def_cfa_offset 0
 2426 004a 8280     		jr	ra
 2427              		.cfi_endproc
 2428              	.LFE373:
 2430              		.section	.text.dma_fifo_status_get,"ax",@progbits
 2431              		.align	1
 2432              		.globl	dma_fifo_status_get
 2434              	dma_fifo_status_get:
 2435              	.LFB374:
 663:../Firmware/GD32VW55x_standard_peripheral/Source/gd32vw55x_dma.c **** 
 664:../Firmware/GD32VW55x_standard_peripheral/Source/gd32vw55x_dma.c **** /*!
 665:../Firmware/GD32VW55x_standard_peripheral/Source/gd32vw55x_dma.c ****     \brief      get DMA FIFO status
 666:../Firmware/GD32VW55x_standard_peripheral/Source/gd32vw55x_dma.c ****     \param[in]  channelx: specify which DMA channel
 667:../Firmware/GD32VW55x_standard_peripheral/Source/gd32vw55x_dma.c ****       \arg        DMA_CHx (x=0..7)
 668:../Firmware/GD32VW55x_standard_peripheral/Source/gd32vw55x_dma.c ****     \param[out] none
 669:../Firmware/GD32VW55x_standard_peripheral/Source/gd32vw55x_dma.c ****     \retval     the using memory
 670:../Firmware/GD32VW55x_standard_peripheral/Source/gd32vw55x_dma.c **** */
 671:../Firmware/GD32VW55x_standard_peripheral/Source/gd32vw55x_dma.c **** uint32_t dma_fifo_status_get(dma_channel_enum channelx)
 672:../Firmware/GD32VW55x_standard_peripheral/Source/gd32vw55x_dma.c **** {
 2436              		.loc 1 672 1
 2437              		.cfi_startproc
 2438 0000 0111     		addi	sp,sp,-32
 2439              		.cfi_def_cfa_offset 32
 2440 0002 22CE     		sw	s0,28(sp)
 2441              		.cfi_offset 8, -4
 2442 0004 0010     		addi	s0,sp,32
 2443              		.cfi_def_cfa 8, 0
 2444 0006 2326A4FE 		sw	a0,-20(s0)
 673:../Firmware/GD32VW55x_standard_peripheral/Source/gd32vw55x_dma.c ****     return (DMA_CHFCTL(channelx) & DMA_CHXFCTL_FCNT);
 2445              		.loc 1 673 13
 2446 000a 0327C4FE 		lw	a4,-20(s0)
 2447 000e BA87     		mv	a5,a4
 2448 0010 8607     		slli	a5,a5,1
 2449 0012 BA97     		add	a5,a5,a4
 2450 0014 8E07     		slli	a5,a5,3
 2451 0016 3E87     		mv	a4,a5
 2452 0018 B7670240 		li	a5,1073897472
 2453 001c 93874702 		addi	a5,a5,36
 2454 0020 BA97     		add	a5,a4,a5
 2455              		.loc 1 673 34
 2456 0022 9C43     		lw	a5,0(a5)
 2457 0024 93F78703 		andi	a5,a5,56
 674:../Firmware/GD32VW55x_standard_peripheral/Source/gd32vw55x_dma.c **** }
 2458              		.loc 1 674 1
 2459 0028 3E85     		mv	a0,a5
 2460 002a 7244     		lw	s0,28(sp)
 2461              		.cfi_restore 8
 2462              		.cfi_def_cfa 2, 32
 2463 002c 0561     		addi	sp,sp,32
 2464              		.cfi_def_cfa_offset 0
 2465 002e 8280     		jr	ra
 2466              		.cfi_endproc
 2467              	.LFE374:
 2469              		.section	.text.dma_flag_get,"ax",@progbits
 2470              		.align	1
 2471              		.globl	dma_flag_get
 2473              	dma_flag_get:
 2474              	.LFB375:
 675:../Firmware/GD32VW55x_standard_peripheral/Source/gd32vw55x_dma.c **** 
 676:../Firmware/GD32VW55x_standard_peripheral/Source/gd32vw55x_dma.c **** /*!
 677:../Firmware/GD32VW55x_standard_peripheral/Source/gd32vw55x_dma.c ****     \brief      check the designated flag of a DMA channel is set or not
 678:../Firmware/GD32VW55x_standard_peripheral/Source/gd32vw55x_dma.c ****     \param[in]  channelx: specify which DMA channel to get flag
 679:../Firmware/GD32VW55x_standard_peripheral/Source/gd32vw55x_dma.c ****       \arg        DMA_CHx (x=0..7)
 680:../Firmware/GD32VW55x_standard_peripheral/Source/gd32vw55x_dma.c ****     \param[in]  flag: specify get which flag
 681:../Firmware/GD32VW55x_standard_peripheral/Source/gd32vw55x_dma.c ****                 only one parameter can be selected which is shown as below:
 682:../Firmware/GD32VW55x_standard_peripheral/Source/gd32vw55x_dma.c ****       \arg        DMA_FLAG_FEE: FIFO error and exception flag
 683:../Firmware/GD32VW55x_standard_peripheral/Source/gd32vw55x_dma.c ****       \arg        DMA_FLAG_SDE: single data mode exception flag
 684:../Firmware/GD32VW55x_standard_peripheral/Source/gd32vw55x_dma.c ****       \arg        DMA_FLAG_TAE: transfer access error flag
 685:../Firmware/GD32VW55x_standard_peripheral/Source/gd32vw55x_dma.c ****       \arg        DMA_FLAG_HTF: half transfer finish flag
 686:../Firmware/GD32VW55x_standard_peripheral/Source/gd32vw55x_dma.c ****       \arg        DMA_FLAG_FTF: full transfer finish flag
 687:../Firmware/GD32VW55x_standard_peripheral/Source/gd32vw55x_dma.c ****     \param[out] none
 688:../Firmware/GD32VW55x_standard_peripheral/Source/gd32vw55x_dma.c ****     \retval     FlagStatus: SET or RESET
 689:../Firmware/GD32VW55x_standard_peripheral/Source/gd32vw55x_dma.c **** */
 690:../Firmware/GD32VW55x_standard_peripheral/Source/gd32vw55x_dma.c **** FlagStatus dma_flag_get(dma_channel_enum channelx, uint32_t flag)
 691:../Firmware/GD32VW55x_standard_peripheral/Source/gd32vw55x_dma.c **** {
 2475              		.loc 1 691 1
 2476              		.cfi_startproc
 2477 0000 0111     		addi	sp,sp,-32
 2478              		.cfi_def_cfa_offset 32
 2479 0002 22CE     		sw	s0,28(sp)
 2480              		.cfi_offset 8, -4
 2481 0004 0010     		addi	s0,sp,32
 2482              		.cfi_def_cfa 8, 0
 2483 0006 2326A4FE 		sw	a0,-20(s0)
 2484 000a 2324B4FE 		sw	a1,-24(s0)
 692:../Firmware/GD32VW55x_standard_peripheral/Source/gd32vw55x_dma.c ****     if(channelx < DMA_CH4){
 2485              		.loc 1 692 7
 2486 000e 0327C4FE 		lw	a4,-20(s0)
 2487 0012 8D47     		li	a5,3
 2488 0014 63EEE702 		bgtu	a4,a5,.L69
 693:../Firmware/GD32VW55x_standard_peripheral/Source/gd32vw55x_dma.c ****         if(DMA_INTF0 & DMA_FLAG_ADD(flag, channelx)){
 2489              		.loc 1 693 12
 2490 0018 B7670240 		li	a5,1073897472
 2491 001c 9443     		lw	a3,0(a5)
 2492              		.loc 1 693 24
 2493 001e 8327C4FE 		lw	a5,-20(s0)
 2494 0022 13F73700 		andi	a4,a5,3
 2495 0026 BA87     		mv	a5,a4
 2496 0028 8607     		slli	a5,a5,1
 2497 002a BA97     		add	a5,a5,a4
 2498 002c 8607     		slli	a5,a5,1
 2499 002e 3E87     		mv	a4,a5
 2500 0030 8327C4FE 		lw	a5,-20(s0)
 2501 0034 8583     		srli	a5,a5,1
 2502 0036 858B     		andi	a5,a5,1
 2503 0038 8A07     		slli	a5,a5,2
 2504 003a BA97     		add	a5,a4,a5
 2505 003c 032784FE 		lw	a4,-24(s0)
 2506 0040 B317F700 		sll	a5,a4,a5
 2507              		.loc 1 693 22
 2508 0044 F58F     		and	a5,a3,a5
 2509              		.loc 1 693 11
 2510 0046 99C3     		beq	a5,zero,.L70
 694:../Firmware/GD32VW55x_standard_peripheral/Source/gd32vw55x_dma.c ****             return SET;
 2511              		.loc 1 694 20
 2512 0048 8547     		li	a5,1
 2513 004a A1A0     		j	.L71
 2514              	.L70:
 695:../Firmware/GD32VW55x_standard_peripheral/Source/gd32vw55x_dma.c ****         }else{
 696:../Firmware/GD32VW55x_standard_peripheral/Source/gd32vw55x_dma.c ****             return RESET;
 2515              		.loc 1 696 20
 2516 004c 8147     		li	a5,0
 2517 004e 91A0     		j	.L71
 2518              	.L69:
 697:../Firmware/GD32VW55x_standard_peripheral/Source/gd32vw55x_dma.c ****         }
 698:../Firmware/GD32VW55x_standard_peripheral/Source/gd32vw55x_dma.c ****     }else{
 699:../Firmware/GD32VW55x_standard_peripheral/Source/gd32vw55x_dma.c ****         channelx -= (dma_channel_enum)4;
 2519              		.loc 1 699 18
 2520 0050 8327C4FE 		lw	a5,-20(s0)
 2521 0054 F117     		addi	a5,a5,-4
 2522 0056 2326F4FE 		sw	a5,-20(s0)
 700:../Firmware/GD32VW55x_standard_peripheral/Source/gd32vw55x_dma.c ****         if(DMA_INTF1 & DMA_FLAG_ADD(flag, channelx)){
 2523              		.loc 1 700 12
 2524 005a B7670240 		li	a5,1073897472
 2525 005e 9107     		addi	a5,a5,4
 2526 0060 9443     		lw	a3,0(a5)
 2527              		.loc 1 700 24
 2528 0062 8327C4FE 		lw	a5,-20(s0)
 2529 0066 13F73700 		andi	a4,a5,3
 2530 006a BA87     		mv	a5,a4
 2531 006c 8607     		slli	a5,a5,1
 2532 006e BA97     		add	a5,a5,a4
 2533 0070 8607     		slli	a5,a5,1
 2534 0072 3E87     		mv	a4,a5
 2535 0074 8327C4FE 		lw	a5,-20(s0)
 2536 0078 8583     		srli	a5,a5,1
 2537 007a 858B     		andi	a5,a5,1
 2538 007c 8A07     		slli	a5,a5,2
 2539 007e BA97     		add	a5,a4,a5
 2540 0080 032784FE 		lw	a4,-24(s0)
 2541 0084 B317F700 		sll	a5,a4,a5
 2542              		.loc 1 700 22
 2543 0088 F58F     		and	a5,a3,a5
 2544              		.loc 1 700 11
 2545 008a 99C3     		beq	a5,zero,.L72
 701:../Firmware/GD32VW55x_standard_peripheral/Source/gd32vw55x_dma.c ****             return SET;
 2546              		.loc 1 701 20
 2547 008c 8547     		li	a5,1
 2548 008e 11A0     		j	.L71
 2549              	.L72:
 702:../Firmware/GD32VW55x_standard_peripheral/Source/gd32vw55x_dma.c ****         }else{
 703:../Firmware/GD32VW55x_standard_peripheral/Source/gd32vw55x_dma.c ****             return RESET;
 2550              		.loc 1 703 20
 2551 0090 8147     		li	a5,0
 2552              	.L71:
 704:../Firmware/GD32VW55x_standard_peripheral/Source/gd32vw55x_dma.c ****         }
 705:../Firmware/GD32VW55x_standard_peripheral/Source/gd32vw55x_dma.c ****     }
 706:../Firmware/GD32VW55x_standard_peripheral/Source/gd32vw55x_dma.c **** }
 2553              		.loc 1 706 1
 2554 0092 3E85     		mv	a0,a5
 2555 0094 7244     		lw	s0,28(sp)
 2556              		.cfi_restore 8
 2557              		.cfi_def_cfa 2, 32
 2558 0096 0561     		addi	sp,sp,32
 2559              		.cfi_def_cfa_offset 0
 2560 0098 8280     		jr	ra
 2561              		.cfi_endproc
 2562              	.LFE375:
 2564              		.section	.text.dma_flag_clear,"ax",@progbits
 2565              		.align	1
 2566              		.globl	dma_flag_clear
 2568              	dma_flag_clear:
 2569              	.LFB376:
 707:../Firmware/GD32VW55x_standard_peripheral/Source/gd32vw55x_dma.c **** 
 708:../Firmware/GD32VW55x_standard_peripheral/Source/gd32vw55x_dma.c **** /*!
 709:../Firmware/GD32VW55x_standard_peripheral/Source/gd32vw55x_dma.c ****     \brief      clear the designated flag of a DMA channel
 710:../Firmware/GD32VW55x_standard_peripheral/Source/gd32vw55x_dma.c ****     \param[in]  channelx: specify which DMA channel to get flag
 711:../Firmware/GD32VW55x_standard_peripheral/Source/gd32vw55x_dma.c ****       \arg        DMA_CHx (x=0..7)
 712:../Firmware/GD32VW55x_standard_peripheral/Source/gd32vw55x_dma.c ****     \param[in]  flag: specify get which flag
 713:../Firmware/GD32VW55x_standard_peripheral/Source/gd32vw55x_dma.c ****                 only one parameter can be selected which is shown as below:
 714:../Firmware/GD32VW55x_standard_peripheral/Source/gd32vw55x_dma.c ****       \arg        DMA_FLAG_FEE: FIFO error and exception flag
 715:../Firmware/GD32VW55x_standard_peripheral/Source/gd32vw55x_dma.c ****       \arg        DMA_FLAG_SDE: single data mode exception flag
 716:../Firmware/GD32VW55x_standard_peripheral/Source/gd32vw55x_dma.c ****       \arg        DMA_FLAG_TAE: transfer access error flag
 717:../Firmware/GD32VW55x_standard_peripheral/Source/gd32vw55x_dma.c ****       \arg        DMA_FLAG_HTF: half transfer finish flag
 718:../Firmware/GD32VW55x_standard_peripheral/Source/gd32vw55x_dma.c ****       \arg        DMA_FLAG_FTF: full transfer finish flag
 719:../Firmware/GD32VW55x_standard_peripheral/Source/gd32vw55x_dma.c ****     \param[out] none
 720:../Firmware/GD32VW55x_standard_peripheral/Source/gd32vw55x_dma.c ****     \retval     none
 721:../Firmware/GD32VW55x_standard_peripheral/Source/gd32vw55x_dma.c **** */
 722:../Firmware/GD32VW55x_standard_peripheral/Source/gd32vw55x_dma.c **** void dma_flag_clear(dma_channel_enum channelx, uint32_t flag)
 723:../Firmware/GD32VW55x_standard_peripheral/Source/gd32vw55x_dma.c **** {
 2570              		.loc 1 723 1
 2571              		.cfi_startproc
 2572 0000 0111     		addi	sp,sp,-32
 2573              		.cfi_def_cfa_offset 32
 2574 0002 22CE     		sw	s0,28(sp)
 2575              		.cfi_offset 8, -4
 2576 0004 0010     		addi	s0,sp,32
 2577              		.cfi_def_cfa 8, 0
 2578 0006 2326A4FE 		sw	a0,-20(s0)
 2579 000a 2324B4FE 		sw	a1,-24(s0)
 724:../Firmware/GD32VW55x_standard_peripheral/Source/gd32vw55x_dma.c ****     if(channelx < DMA_CH4){
 2580              		.loc 1 724 7
 2581 000e 0327C4FE 		lw	a4,-20(s0)
 2582 0012 8D47     		li	a5,3
 2583 0014 63EFE702 		bgtu	a4,a5,.L74
 725:../Firmware/GD32VW55x_standard_peripheral/Source/gd32vw55x_dma.c ****           DMA_INTC0 |= DMA_FLAG_ADD(flag, channelx);
 2584              		.loc 1 725 21
 2585 0018 B7670240 		li	a5,1073897472
 2586 001c A107     		addi	a5,a5,8
 2587 001e 9443     		lw	a3,0(a5)
 2588              		.loc 1 725 24
 2589 0020 8327C4FE 		lw	a5,-20(s0)
 2590 0024 13F73700 		andi	a4,a5,3
 2591 0028 BA87     		mv	a5,a4
 2592 002a 8607     		slli	a5,a5,1
 2593 002c BA97     		add	a5,a5,a4
 2594 002e 8607     		slli	a5,a5,1
 2595 0030 3E87     		mv	a4,a5
 2596 0032 8327C4FE 		lw	a5,-20(s0)
 2597 0036 8583     		srli	a5,a5,1
 2598 0038 858B     		andi	a5,a5,1
 2599 003a 8A07     		slli	a5,a5,2
 2600 003c BA97     		add	a5,a4,a5
 2601 003e 032784FE 		lw	a4,-24(s0)
 2602 0042 3317F700 		sll	a4,a4,a5
 2603              		.loc 1 725 21
 2604 0046 B7670240 		li	a5,1073897472
 2605 004a A107     		addi	a5,a5,8
 2606 004c 558F     		or	a4,a3,a4
 2607 004e 98C3     		sw	a4,0(a5)
 726:../Firmware/GD32VW55x_standard_peripheral/Source/gd32vw55x_dma.c ****     }else{
 727:../Firmware/GD32VW55x_standard_peripheral/Source/gd32vw55x_dma.c ****           channelx -= (dma_channel_enum)4;
 728:../Firmware/GD32VW55x_standard_peripheral/Source/gd32vw55x_dma.c ****           DMA_INTC1 |= DMA_FLAG_ADD(flag, channelx);
 729:../Firmware/GD32VW55x_standard_peripheral/Source/gd32vw55x_dma.c ****     }
 730:../Firmware/GD32VW55x_standard_peripheral/Source/gd32vw55x_dma.c **** }
 2608              		.loc 1 730 1
 2609 0050 91A0     		j	.L76
 2610              	.L74:
 727:../Firmware/GD32VW55x_standard_peripheral/Source/gd32vw55x_dma.c ****           DMA_INTC1 |= DMA_FLAG_ADD(flag, channelx);
 2611              		.loc 1 727 20
 2612 0052 8327C4FE 		lw	a5,-20(s0)
 2613 0056 F117     		addi	a5,a5,-4
 2614 0058 2326F4FE 		sw	a5,-20(s0)
 728:../Firmware/GD32VW55x_standard_peripheral/Source/gd32vw55x_dma.c ****     }
 2615              		.loc 1 728 21
 2616 005c B7670240 		li	a5,1073897472
 2617 0060 B107     		addi	a5,a5,12
 2618 0062 9443     		lw	a3,0(a5)
 728:../Firmware/GD32VW55x_standard_peripheral/Source/gd32vw55x_dma.c ****     }
 2619              		.loc 1 728 24
 2620 0064 8327C4FE 		lw	a5,-20(s0)
 2621 0068 13F73700 		andi	a4,a5,3
 2622 006c BA87     		mv	a5,a4
 2623 006e 8607     		slli	a5,a5,1
 2624 0070 BA97     		add	a5,a5,a4
 2625 0072 8607     		slli	a5,a5,1
 2626 0074 3E87     		mv	a4,a5
 2627 0076 8327C4FE 		lw	a5,-20(s0)
 2628 007a 8583     		srli	a5,a5,1
 2629 007c 858B     		andi	a5,a5,1
 2630 007e 8A07     		slli	a5,a5,2
 2631 0080 BA97     		add	a5,a4,a5
 2632 0082 032784FE 		lw	a4,-24(s0)
 2633 0086 3317F700 		sll	a4,a4,a5
 728:../Firmware/GD32VW55x_standard_peripheral/Source/gd32vw55x_dma.c ****     }
 2634              		.loc 1 728 21
 2635 008a B7670240 		li	a5,1073897472
 2636 008e B107     		addi	a5,a5,12
 2637 0090 558F     		or	a4,a3,a4
 2638 0092 98C3     		sw	a4,0(a5)
 2639              	.L76:
 2640              		.loc 1 730 1
 2641 0094 0100     		nop
 2642 0096 7244     		lw	s0,28(sp)
 2643              		.cfi_restore 8
 2644              		.cfi_def_cfa 2, 32
 2645 0098 0561     		addi	sp,sp,32
 2646              		.cfi_def_cfa_offset 0
 2647 009a 8280     		jr	ra
 2648              		.cfi_endproc
 2649              	.LFE376:
 2651              		.section	.text.dma_interrupt_enable,"ax",@progbits
 2652              		.align	1
 2653              		.globl	dma_interrupt_enable
 2655              	dma_interrupt_enable:
 2656              	.LFB377:
 731:../Firmware/GD32VW55x_standard_peripheral/Source/gd32vw55x_dma.c **** 
 732:../Firmware/GD32VW55x_standard_peripheral/Source/gd32vw55x_dma.c **** /*!
 733:../Firmware/GD32VW55x_standard_peripheral/Source/gd32vw55x_dma.c ****     \brief      enable DMA interrupt
 734:../Firmware/GD32VW55x_standard_peripheral/Source/gd32vw55x_dma.c ****     \param[in]  channelx: specify which DMA channel
 735:../Firmware/GD32VW55x_standard_peripheral/Source/gd32vw55x_dma.c ****       \arg        DMA_CHx (x=0..7)
 736:../Firmware/GD32VW55x_standard_peripheral/Source/gd32vw55x_dma.c ****     \param[in]  interrupt: specify which interrupt to enable
 737:../Firmware/GD32VW55x_standard_peripheral/Source/gd32vw55x_dma.c ****                 one or more parameters can be selected which are shown as below:
 738:../Firmware/GD32VW55x_standard_peripheral/Source/gd32vw55x_dma.c ****       \arg        DMA_INT_SDE: single data mode exception interrupt enable
 739:../Firmware/GD32VW55x_standard_peripheral/Source/gd32vw55x_dma.c ****       \arg        DMA_INT_TAE: transfer access error interrupt enable
 740:../Firmware/GD32VW55x_standard_peripheral/Source/gd32vw55x_dma.c ****       \arg        DMA_INT_HTF: half transfer finish interrupt enable
 741:../Firmware/GD32VW55x_standard_peripheral/Source/gd32vw55x_dma.c ****       \arg        DMA_INT_FTF: full transfer finish interrupt enable
 742:../Firmware/GD32VW55x_standard_peripheral/Source/gd32vw55x_dma.c ****       \arg        DMA_INT_FEE: FIFO exception interrupt enable
 743:../Firmware/GD32VW55x_standard_peripheral/Source/gd32vw55x_dma.c ****     \param[out] none
 744:../Firmware/GD32VW55x_standard_peripheral/Source/gd32vw55x_dma.c ****     \retval     none
 745:../Firmware/GD32VW55x_standard_peripheral/Source/gd32vw55x_dma.c **** */
 746:../Firmware/GD32VW55x_standard_peripheral/Source/gd32vw55x_dma.c **** void dma_interrupt_enable(dma_channel_enum channelx, uint32_t interrupt)
 747:../Firmware/GD32VW55x_standard_peripheral/Source/gd32vw55x_dma.c **** {
 2657              		.loc 1 747 1
 2658              		.cfi_startproc
 2659 0000 0111     		addi	sp,sp,-32
 2660              		.cfi_def_cfa_offset 32
 2661 0002 22CE     		sw	s0,28(sp)
 2662              		.cfi_offset 8, -4
 2663 0004 0010     		addi	s0,sp,32
 2664              		.cfi_def_cfa 8, 0
 2665 0006 2326A4FE 		sw	a0,-20(s0)
 2666 000a 2324B4FE 		sw	a1,-24(s0)
 748:../Firmware/GD32VW55x_standard_peripheral/Source/gd32vw55x_dma.c ****     if(DMA_CHXFCTL_FEEIE != interrupt){
 2667              		.loc 1 748 7
 2668 000e 032784FE 		lw	a4,-24(s0)
 2669 0012 93070008 		li	a5,128
 2670 0016 630FF702 		beq	a4,a5,.L78
 749:../Firmware/GD32VW55x_standard_peripheral/Source/gd32vw55x_dma.c ****         DMA_CHCTL(channelx) |= interrupt;
 2671              		.loc 1 749 29
 2672 001a 0327C4FE 		lw	a4,-20(s0)
 2673 001e BA87     		mv	a5,a4
 2674 0020 8607     		slli	a5,a5,1
 2675 0022 BA97     		add	a5,a5,a4
 2676 0024 8E07     		slli	a5,a5,3
 2677 0026 3E87     		mv	a4,a5
 2678 0028 B7670240 		li	a5,1073897472
 2679 002c C107     		addi	a5,a5,16
 2680 002e BA97     		add	a5,a4,a5
 2681 0030 9443     		lw	a3,0(a5)
 2682 0032 0327C4FE 		lw	a4,-20(s0)
 2683 0036 BA87     		mv	a5,a4
 2684 0038 8607     		slli	a5,a5,1
 2685 003a BA97     		add	a5,a5,a4
 2686 003c 8E07     		slli	a5,a5,3
 2687 003e 3E87     		mv	a4,a5
 2688 0040 B7670240 		li	a5,1073897472
 2689 0044 C107     		addi	a5,a5,16
 2690 0046 BA97     		add	a5,a4,a5
 2691 0048 3E87     		mv	a4,a5
 2692 004a 832784FE 		lw	a5,-24(s0)
 2693 004e D58F     		or	a5,a3,a5
 2694 0050 1CC3     		sw	a5,0(a4)
 750:../Firmware/GD32VW55x_standard_peripheral/Source/gd32vw55x_dma.c ****     }else{
 751:../Firmware/GD32VW55x_standard_peripheral/Source/gd32vw55x_dma.c ****         DMA_CHFCTL(channelx) |= interrupt;
 752:../Firmware/GD32VW55x_standard_peripheral/Source/gd32vw55x_dma.c ****     }
 753:../Firmware/GD32VW55x_standard_peripheral/Source/gd32vw55x_dma.c **** }
 2695              		.loc 1 753 1
 2696 0052 3DA8     		j	.L80
 2697              	.L78:
 751:../Firmware/GD32VW55x_standard_peripheral/Source/gd32vw55x_dma.c ****     }
 2698              		.loc 1 751 30
 2699 0054 0327C4FE 		lw	a4,-20(s0)
 2700 0058 BA87     		mv	a5,a4
 2701 005a 8607     		slli	a5,a5,1
 2702 005c BA97     		add	a5,a5,a4
 2703 005e 8E07     		slli	a5,a5,3
 2704 0060 3E87     		mv	a4,a5
 2705 0062 B7670240 		li	a5,1073897472
 2706 0066 93874702 		addi	a5,a5,36
 2707 006a BA97     		add	a5,a4,a5
 2708 006c 9443     		lw	a3,0(a5)
 2709 006e 0327C4FE 		lw	a4,-20(s0)
 2710 0072 BA87     		mv	a5,a4
 2711 0074 8607     		slli	a5,a5,1
 2712 0076 BA97     		add	a5,a5,a4
 2713 0078 8E07     		slli	a5,a5,3
 2714 007a 3E87     		mv	a4,a5
 2715 007c B7670240 		li	a5,1073897472
 2716 0080 93874702 		addi	a5,a5,36
 2717 0084 BA97     		add	a5,a4,a5
 2718 0086 3E87     		mv	a4,a5
 2719 0088 832784FE 		lw	a5,-24(s0)
 2720 008c D58F     		or	a5,a3,a5
 2721 008e 1CC3     		sw	a5,0(a4)
 2722              	.L80:
 2723              		.loc 1 753 1
 2724 0090 0100     		nop
 2725 0092 7244     		lw	s0,28(sp)
 2726              		.cfi_restore 8
 2727              		.cfi_def_cfa 2, 32
 2728 0094 0561     		addi	sp,sp,32
 2729              		.cfi_def_cfa_offset 0
 2730 0096 8280     		jr	ra
 2731              		.cfi_endproc
 2732              	.LFE377:
 2734              		.section	.text.dma_interrupt_disable,"ax",@progbits
 2735              		.align	1
 2736              		.globl	dma_interrupt_disable
 2738              	dma_interrupt_disable:
 2739              	.LFB378:
 754:../Firmware/GD32VW55x_standard_peripheral/Source/gd32vw55x_dma.c **** 
 755:../Firmware/GD32VW55x_standard_peripheral/Source/gd32vw55x_dma.c **** /*!
 756:../Firmware/GD32VW55x_standard_peripheral/Source/gd32vw55x_dma.c ****     \brief      disable DMA interrupt
 757:../Firmware/GD32VW55x_standard_peripheral/Source/gd32vw55x_dma.c ****     \param[in]  channelx: specify which DMA channel
 758:../Firmware/GD32VW55x_standard_peripheral/Source/gd32vw55x_dma.c ****       \arg        DMA_CHx (x=0..7)
 759:../Firmware/GD32VW55x_standard_peripheral/Source/gd32vw55x_dma.c ****     \param[in]  interrupt: specify which interrupt to disable
 760:../Firmware/GD32VW55x_standard_peripheral/Source/gd32vw55x_dma.c ****                 one or more parameters can be selected which are shown as below:
 761:../Firmware/GD32VW55x_standard_peripheral/Source/gd32vw55x_dma.c ****       \arg        DMA_INT_SDE: single data mode exception interrupt enable
 762:../Firmware/GD32VW55x_standard_peripheral/Source/gd32vw55x_dma.c ****       \arg        DMA_INT_TAE: transfer access error interrupt enable
 763:../Firmware/GD32VW55x_standard_peripheral/Source/gd32vw55x_dma.c ****       \arg        DMA_INT_HTF: half transfer finish interrupt enable
 764:../Firmware/GD32VW55x_standard_peripheral/Source/gd32vw55x_dma.c ****       \arg        DMA_INT_FTF: full transfer finish interrupt enable
 765:../Firmware/GD32VW55x_standard_peripheral/Source/gd32vw55x_dma.c ****       \arg        DMA_INT_FEE: FIFO exception interrupt enable
 766:../Firmware/GD32VW55x_standard_peripheral/Source/gd32vw55x_dma.c ****     \param[out] none
 767:../Firmware/GD32VW55x_standard_peripheral/Source/gd32vw55x_dma.c ****     \retval     none
 768:../Firmware/GD32VW55x_standard_peripheral/Source/gd32vw55x_dma.c **** */
 769:../Firmware/GD32VW55x_standard_peripheral/Source/gd32vw55x_dma.c **** void dma_interrupt_disable(dma_channel_enum channelx,uint32_t interrupt)
 770:../Firmware/GD32VW55x_standard_peripheral/Source/gd32vw55x_dma.c **** {
 2740              		.loc 1 770 1
 2741              		.cfi_startproc
 2742 0000 0111     		addi	sp,sp,-32
 2743              		.cfi_def_cfa_offset 32
 2744 0002 22CE     		sw	s0,28(sp)
 2745              		.cfi_offset 8, -4
 2746 0004 0010     		addi	s0,sp,32
 2747              		.cfi_def_cfa 8, 0
 2748 0006 2326A4FE 		sw	a0,-20(s0)
 2749 000a 2324B4FE 		sw	a1,-24(s0)
 771:../Firmware/GD32VW55x_standard_peripheral/Source/gd32vw55x_dma.c ****     if(DMA_CHXFCTL_FEEIE != interrupt){
 2750              		.loc 1 771 7
 2751 000e 032784FE 		lw	a4,-24(s0)
 2752 0012 93070008 		li	a5,128
 2753 0016 6302F704 		beq	a4,a5,.L82
 772:../Firmware/GD32VW55x_standard_peripheral/Source/gd32vw55x_dma.c ****         DMA_CHCTL(channelx) &= ~interrupt;
 2754              		.loc 1 772 29
 2755 001a 0327C4FE 		lw	a4,-20(s0)
 2756 001e BA87     		mv	a5,a4
 2757 0020 8607     		slli	a5,a5,1
 2758 0022 BA97     		add	a5,a5,a4
 2759 0024 8E07     		slli	a5,a5,3
 2760 0026 3E87     		mv	a4,a5
 2761 0028 B7670240 		li	a5,1073897472
 2762 002c C107     		addi	a5,a5,16
 2763 002e BA97     		add	a5,a4,a5
 2764 0030 9043     		lw	a2,0(a5)
 2765              		.loc 1 772 32
 2766 0032 832784FE 		lw	a5,-24(s0)
 2767 0036 93C6F7FF 		not	a3,a5
 2768              		.loc 1 772 29
 2769 003a 0327C4FE 		lw	a4,-20(s0)
 2770 003e BA87     		mv	a5,a4
 2771 0040 8607     		slli	a5,a5,1
 2772 0042 BA97     		add	a5,a5,a4
 2773 0044 8E07     		slli	a5,a5,3
 2774 0046 3E87     		mv	a4,a5
 2775 0048 B7670240 		li	a5,1073897472
 2776 004c C107     		addi	a5,a5,16
 2777 004e BA97     		add	a5,a4,a5
 2778 0050 3E87     		mv	a4,a5
 2779 0052 B377D600 		and	a5,a2,a3
 2780 0056 1CC3     		sw	a5,0(a4)
 773:../Firmware/GD32VW55x_standard_peripheral/Source/gd32vw55x_dma.c ****     }else{
 774:../Firmware/GD32VW55x_standard_peripheral/Source/gd32vw55x_dma.c ****         DMA_CHFCTL(channelx) &= ~interrupt;
 775:../Firmware/GD32VW55x_standard_peripheral/Source/gd32vw55x_dma.c ****     }
 776:../Firmware/GD32VW55x_standard_peripheral/Source/gd32vw55x_dma.c **** }
 2781              		.loc 1 776 1
 2782 0058 91A0     		j	.L84
 2783              	.L82:
 774:../Firmware/GD32VW55x_standard_peripheral/Source/gd32vw55x_dma.c ****     }
 2784              		.loc 1 774 30
 2785 005a 0327C4FE 		lw	a4,-20(s0)
 2786 005e BA87     		mv	a5,a4
 2787 0060 8607     		slli	a5,a5,1
 2788 0062 BA97     		add	a5,a5,a4
 2789 0064 8E07     		slli	a5,a5,3
 2790 0066 3E87     		mv	a4,a5
 2791 0068 B7670240 		li	a5,1073897472
 2792 006c 93874702 		addi	a5,a5,36
 2793 0070 BA97     		add	a5,a4,a5
 2794 0072 9043     		lw	a2,0(a5)
 774:../Firmware/GD32VW55x_standard_peripheral/Source/gd32vw55x_dma.c ****     }
 2795              		.loc 1 774 33
 2796 0074 832784FE 		lw	a5,-24(s0)
 2797 0078 93C6F7FF 		not	a3,a5
 774:../Firmware/GD32VW55x_standard_peripheral/Source/gd32vw55x_dma.c ****     }
 2798              		.loc 1 774 30
 2799 007c 0327C4FE 		lw	a4,-20(s0)
 2800 0080 BA87     		mv	a5,a4
 2801 0082 8607     		slli	a5,a5,1
 2802 0084 BA97     		add	a5,a5,a4
 2803 0086 8E07     		slli	a5,a5,3
 2804 0088 3E87     		mv	a4,a5
 2805 008a B7670240 		li	a5,1073897472
 2806 008e 93874702 		addi	a5,a5,36
 2807 0092 BA97     		add	a5,a4,a5
 2808 0094 3E87     		mv	a4,a5
 2809 0096 B377D600 		and	a5,a2,a3
 2810 009a 1CC3     		sw	a5,0(a4)
 2811              	.L84:
 2812              		.loc 1 776 1
 2813 009c 0100     		nop
 2814 009e 7244     		lw	s0,28(sp)
 2815              		.cfi_restore 8
 2816              		.cfi_def_cfa 2, 32
 2817 00a0 0561     		addi	sp,sp,32
 2818              		.cfi_def_cfa_offset 0
 2819 00a2 8280     		jr	ra
 2820              		.cfi_endproc
 2821              	.LFE378:
 2823              		.section	.text.dma_interrupt_flag_get,"ax",@progbits
 2824              		.align	1
 2825              		.globl	dma_interrupt_flag_get
 2827              	dma_interrupt_flag_get:
 2828              	.LFB379:
 777:../Firmware/GD32VW55x_standard_peripheral/Source/gd32vw55x_dma.c **** 
 778:../Firmware/GD32VW55x_standard_peripheral/Source/gd32vw55x_dma.c **** /*!
 779:../Firmware/GD32VW55x_standard_peripheral/Source/gd32vw55x_dma.c ****     \brief      check DMA interrupt flag is set or not
 780:../Firmware/GD32VW55x_standard_peripheral/Source/gd32vw55x_dma.c ****     \param[in]  channelx: specify which DMA channel to get interrupt flag
 781:../Firmware/GD32VW55x_standard_peripheral/Source/gd32vw55x_dma.c ****       \arg        DMA_CHx (x=0..7)
 782:../Firmware/GD32VW55x_standard_peripheral/Source/gd32vw55x_dma.c ****     \param[in]  interrupt: specify get which flag
 783:../Firmware/GD32VW55x_standard_peripheral/Source/gd32vw55x_dma.c ****                 only one parameter can be selected which is shown as below:
 784:../Firmware/GD32VW55x_standard_peripheral/Source/gd32vw55x_dma.c ****       \arg        DMA_INT_FLAG_FEE: FIFO error and exception interrupt flag
 785:../Firmware/GD32VW55x_standard_peripheral/Source/gd32vw55x_dma.c ****       \arg        DMA_INT_FLAG_SDE: single data mode exception interrupt flag
 786:../Firmware/GD32VW55x_standard_peripheral/Source/gd32vw55x_dma.c ****       \arg        DMA_INT_FLAG_TAE: transfer access error interrupt flag
 787:../Firmware/GD32VW55x_standard_peripheral/Source/gd32vw55x_dma.c ****       \arg        DMA_INT_FLAG_HTF: half transfer finish interrupt flag
 788:../Firmware/GD32VW55x_standard_peripheral/Source/gd32vw55x_dma.c ****       \arg        DMA_INT_FLAG_FTF: full transfer finish interrupt flag
 789:../Firmware/GD32VW55x_standard_peripheral/Source/gd32vw55x_dma.c ****     \param[out] none
 790:../Firmware/GD32VW55x_standard_peripheral/Source/gd32vw55x_dma.c ****     \retval     FlagStatus: SET or RESET
 791:../Firmware/GD32VW55x_standard_peripheral/Source/gd32vw55x_dma.c **** */
 792:../Firmware/GD32VW55x_standard_peripheral/Source/gd32vw55x_dma.c **** FlagStatus dma_interrupt_flag_get(dma_channel_enum channelx, uint32_t int_flag)
 793:../Firmware/GD32VW55x_standard_peripheral/Source/gd32vw55x_dma.c **** {
 2829              		.loc 1 793 1
 2830              		.cfi_startproc
 2831 0000 7971     		addi	sp,sp,-48
 2832              		.cfi_def_cfa_offset 48
 2833 0002 22D6     		sw	s0,44(sp)
 2834              		.cfi_offset 8, -4
 2835 0004 0018     		addi	s0,sp,48
 2836              		.cfi_def_cfa 8, 0
 2837 0006 232EA4FC 		sw	a0,-36(s0)
 2838 000a 232CB4FC 		sw	a1,-40(s0)
 794:../Firmware/GD32VW55x_standard_peripheral/Source/gd32vw55x_dma.c ****     uint32_t interrupt_enable = 0U,interrupt_flag = 0U;
 2839              		.loc 1 794 14
 2840 000e 232604FE 		sw	zero,-20(s0)
 2841              		.loc 1 794 36
 2842 0012 232404FE 		sw	zero,-24(s0)
 795:../Firmware/GD32VW55x_standard_peripheral/Source/gd32vw55x_dma.c ****     dma_channel_enum channel_flag_offset = channelx;
 2843              		.loc 1 795 22
 2844 0016 8327C4FD 		lw	a5,-36(s0)
 2845 001a 2322F4FE 		sw	a5,-28(s0)
 796:../Firmware/GD32VW55x_standard_peripheral/Source/gd32vw55x_dma.c ****     if(channelx < DMA_CH4){
 2846              		.loc 1 796 7
 2847 001e 0327C4FD 		lw	a4,-36(s0)
 2848 0022 8D47     		li	a5,3
 2849 0024 63E7E71C 		bgtu	a4,a5,.L86
 2850 0028 032784FD 		lw	a4,-40(s0)
 2851 002c 93070002 		li	a5,32
 2852 0030 63E0E73A 		bgtu	a4,a5,.L105
 2853 0034 832784FD 		lw	a5,-40(s0)
 2854 0038 13972700 		slli	a4,a5,2
 2855 003c 97070000 		lla	a5,.L89
 2855      93870700 
 2856 0044 BA97     		add	a5,a4,a5
 2857 0046 9843     		lw	a4,0(a5)
 2858 0048 97070000 		lla	a5,.L89
 2858      93870700 
 2859 0050 BA97     		add	a5,a4,a5
 2860 0052 8287     		jr	a5
 2861              		.section	.rodata.dma_interrupt_flag_get,"a",@progbits
 2862              		.align	2
 2863              		.align	2
 2864              	.L89:
 2865 0000 00000000 		.word	.L105-.L89
 2866 0004 00000000 		.word	.L93-.L89
 2867 0008 00000000 		.word	.L105-.L89
 2868 000c 00000000 		.word	.L105-.L89
 2869 0010 00000000 		.word	.L92-.L89
 2870 0014 00000000 		.word	.L105-.L89
 2871 0018 00000000 		.word	.L105-.L89
 2872 001c 00000000 		.word	.L105-.L89
 2873 0020 00000000 		.word	.L91-.L89
 2874 0024 00000000 		.word	.L105-.L89
 2875 0028 00000000 		.word	.L105-.L89
 2876 002c 00000000 		.word	.L105-.L89
 2877 0030 00000000 		.word	.L105-.L89
 2878 0034 00000000 		.word	.L105-.L89
 2879 0038 00000000 		.word	.L105-.L89
 2880 003c 00000000 		.word	.L105-.L89
 2881 0040 00000000 		.word	.L90-.L89
 2882 0044 00000000 		.word	.L105-.L89
 2883 0048 00000000 		.word	.L105-.L89
 2884 004c 00000000 		.word	.L105-.L89
 2885 0050 00000000 		.word	.L105-.L89
 2886 0054 00000000 		.word	.L105-.L89
 2887 0058 00000000 		.word	.L105-.L89
 2888 005c 00000000 		.word	.L105-.L89
 2889 0060 00000000 		.word	.L105-.L89
 2890 0064 00000000 		.word	.L105-.L89
 2891 0068 00000000 		.word	.L105-.L89
 2892 006c 00000000 		.word	.L105-.L89
 2893 0070 00000000 		.word	.L105-.L89
 2894 0074 00000000 		.word	.L105-.L89
 2895 0078 00000000 		.word	.L105-.L89
 2896 007c 00000000 		.word	.L105-.L89
 2897 0080 00000000 		.word	.L88-.L89
 2898              		.section	.text.dma_interrupt_flag_get
 2899              	.L93:
 797:../Firmware/GD32VW55x_standard_peripheral/Source/gd32vw55x_dma.c ****         switch(int_flag){
 798:../Firmware/GD32VW55x_standard_peripheral/Source/gd32vw55x_dma.c ****         case DMA_INTF_FEEIF:
 799:../Firmware/GD32VW55x_standard_peripheral/Source/gd32vw55x_dma.c ****             interrupt_flag = DMA_INTF0 & DMA_FLAG_ADD(int_flag, channelx);
 2900              		.loc 1 799 30
 2901 0054 B7670240 		li	a5,1073897472
 2902 0058 9443     		lw	a3,0(a5)
 2903              		.loc 1 799 42
 2904 005a 8327C4FD 		lw	a5,-36(s0)
 2905 005e 13F73700 		andi	a4,a5,3
 2906 0062 BA87     		mv	a5,a4
 2907 0064 8607     		slli	a5,a5,1
 2908 0066 BA97     		add	a5,a5,a4
 2909 0068 8607     		slli	a5,a5,1
 2910 006a 3E87     		mv	a4,a5
 2911 006c 8327C4FD 		lw	a5,-36(s0)
 2912 0070 8583     		srli	a5,a5,1
 2913 0072 858B     		andi	a5,a5,1
 2914 0074 8A07     		slli	a5,a5,2
 2915 0076 BA97     		add	a5,a4,a5
 2916 0078 032784FD 		lw	a4,-40(s0)
 2917 007c B317F700 		sll	a5,a4,a5
 2918              		.loc 1 799 28
 2919 0080 F58F     		and	a5,a3,a5
 2920 0082 2324F4FE 		sw	a5,-24(s0)
 800:../Firmware/GD32VW55x_standard_peripheral/Source/gd32vw55x_dma.c ****             interrupt_enable = DMA_CHFCTL(channelx) & DMA_CHXFCTL_FEEIE;
 2921              		.loc 1 800 32
 2922 0086 0327C4FD 		lw	a4,-36(s0)
 2923 008a BA87     		mv	a5,a4
 2924 008c 8607     		slli	a5,a5,1
 2925 008e BA97     		add	a5,a5,a4
 2926 0090 8E07     		slli	a5,a5,3
 2927 0092 3E87     		mv	a4,a5
 2928 0094 B7670240 		li	a5,1073897472
 2929 0098 93874702 		addi	a5,a5,36
 2930 009c BA97     		add	a5,a4,a5
 2931 009e 9C43     		lw	a5,0(a5)
 2932              		.loc 1 800 30
 2933 00a0 93F70708 		andi	a5,a5,128
 2934 00a4 2326F4FE 		sw	a5,-20(s0)
 801:../Firmware/GD32VW55x_standard_peripheral/Source/gd32vw55x_dma.c ****             break;
 2935              		.loc 1 801 13
 2936 00a8 3DA6     		j	.L95
 2937              	.L92:
 802:../Firmware/GD32VW55x_standard_peripheral/Source/gd32vw55x_dma.c ****         case DMA_INTF_SDEIF:
 803:../Firmware/GD32VW55x_standard_peripheral/Source/gd32vw55x_dma.c ****             interrupt_flag = DMA_INTF0 & DMA_FLAG_ADD(int_flag, channelx);
 2938              		.loc 1 803 30
 2939 00aa B7670240 		li	a5,1073897472
 2940 00ae 9443     		lw	a3,0(a5)
 2941              		.loc 1 803 42
 2942 00b0 8327C4FD 		lw	a5,-36(s0)
 2943 00b4 13F73700 		andi	a4,a5,3
 2944 00b8 BA87     		mv	a5,a4
 2945 00ba 8607     		slli	a5,a5,1
 2946 00bc BA97     		add	a5,a5,a4
 2947 00be 8607     		slli	a5,a5,1
 2948 00c0 3E87     		mv	a4,a5
 2949 00c2 8327C4FD 		lw	a5,-36(s0)
 2950 00c6 8583     		srli	a5,a5,1
 2951 00c8 858B     		andi	a5,a5,1
 2952 00ca 8A07     		slli	a5,a5,2
 2953 00cc BA97     		add	a5,a4,a5
 2954 00ce 032784FD 		lw	a4,-40(s0)
 2955 00d2 B317F700 		sll	a5,a4,a5
 2956              		.loc 1 803 28
 2957 00d6 F58F     		and	a5,a3,a5
 2958 00d8 2324F4FE 		sw	a5,-24(s0)
 804:../Firmware/GD32VW55x_standard_peripheral/Source/gd32vw55x_dma.c ****             interrupt_enable = DMA_CHCTL(channelx) & DMA_CHXCTL_SDEIE;
 2959              		.loc 1 804 32
 2960 00dc 0327C4FD 		lw	a4,-36(s0)
 2961 00e0 BA87     		mv	a5,a4
 2962 00e2 8607     		slli	a5,a5,1
 2963 00e4 BA97     		add	a5,a5,a4
 2964 00e6 8E07     		slli	a5,a5,3
 2965 00e8 3E87     		mv	a4,a5
 2966 00ea B7670240 		li	a5,1073897472
 2967 00ee C107     		addi	a5,a5,16
 2968 00f0 BA97     		add	a5,a4,a5
 2969 00f2 9C43     		lw	a5,0(a5)
 2970              		.loc 1 804 30
 2971 00f4 898B     		andi	a5,a5,2
 2972 00f6 2326F4FE 		sw	a5,-20(s0)
 805:../Firmware/GD32VW55x_standard_peripheral/Source/gd32vw55x_dma.c ****             break;
 2973              		.loc 1 805 13
 2974 00fa F1AC     		j	.L95
 2975              	.L91:
 806:../Firmware/GD32VW55x_standard_peripheral/Source/gd32vw55x_dma.c ****         case DMA_INTF_TAEIF:
 807:../Firmware/GD32VW55x_standard_peripheral/Source/gd32vw55x_dma.c ****             interrupt_flag = DMA_INTF0 & DMA_FLAG_ADD(int_flag, channelx);
 2976              		.loc 1 807 30
 2977 00fc B7670240 		li	a5,1073897472
 2978 0100 9443     		lw	a3,0(a5)
 2979              		.loc 1 807 42
 2980 0102 8327C4FD 		lw	a5,-36(s0)
 2981 0106 13F73700 		andi	a4,a5,3
 2982 010a BA87     		mv	a5,a4
 2983 010c 8607     		slli	a5,a5,1
 2984 010e BA97     		add	a5,a5,a4
 2985 0110 8607     		slli	a5,a5,1
 2986 0112 3E87     		mv	a4,a5
 2987 0114 8327C4FD 		lw	a5,-36(s0)
 2988 0118 8583     		srli	a5,a5,1
 2989 011a 858B     		andi	a5,a5,1
 2990 011c 8A07     		slli	a5,a5,2
 2991 011e BA97     		add	a5,a4,a5
 2992 0120 032784FD 		lw	a4,-40(s0)
 2993 0124 B317F700 		sll	a5,a4,a5
 2994              		.loc 1 807 28
 2995 0128 F58F     		and	a5,a3,a5
 2996 012a 2324F4FE 		sw	a5,-24(s0)
 808:../Firmware/GD32VW55x_standard_peripheral/Source/gd32vw55x_dma.c ****             interrupt_enable = DMA_CHCTL(channelx) & DMA_CHXCTL_TAEIE;
 2997              		.loc 1 808 32
 2998 012e 0327C4FD 		lw	a4,-36(s0)
 2999 0132 BA87     		mv	a5,a4
 3000 0134 8607     		slli	a5,a5,1
 3001 0136 BA97     		add	a5,a5,a4
 3002 0138 8E07     		slli	a5,a5,3
 3003 013a 3E87     		mv	a4,a5
 3004 013c B7670240 		li	a5,1073897472
 3005 0140 C107     		addi	a5,a5,16
 3006 0142 BA97     		add	a5,a4,a5
 3007 0144 9C43     		lw	a5,0(a5)
 3008              		.loc 1 808 30
 3009 0146 918B     		andi	a5,a5,4
 3010 0148 2326F4FE 		sw	a5,-20(s0)
 809:../Firmware/GD32VW55x_standard_peripheral/Source/gd32vw55x_dma.c ****             break;
 3011              		.loc 1 809 13
 3012 014c 69A4     		j	.L95
 3013              	.L90:
 810:../Firmware/GD32VW55x_standard_peripheral/Source/gd32vw55x_dma.c ****         case DMA_INTF_HTFIF:
 811:../Firmware/GD32VW55x_standard_peripheral/Source/gd32vw55x_dma.c ****             interrupt_flag = DMA_INTF0 & DMA_FLAG_ADD(int_flag, channelx);
 3014              		.loc 1 811 30
 3015 014e B7670240 		li	a5,1073897472
 3016 0152 9443     		lw	a3,0(a5)
 3017              		.loc 1 811 42
 3018 0154 8327C4FD 		lw	a5,-36(s0)
 3019 0158 13F73700 		andi	a4,a5,3
 3020 015c BA87     		mv	a5,a4
 3021 015e 8607     		slli	a5,a5,1
 3022 0160 BA97     		add	a5,a5,a4
 3023 0162 8607     		slli	a5,a5,1
 3024 0164 3E87     		mv	a4,a5
 3025 0166 8327C4FD 		lw	a5,-36(s0)
 3026 016a 8583     		srli	a5,a5,1
 3027 016c 858B     		andi	a5,a5,1
 3028 016e 8A07     		slli	a5,a5,2
 3029 0170 BA97     		add	a5,a4,a5
 3030 0172 032784FD 		lw	a4,-40(s0)
 3031 0176 B317F700 		sll	a5,a4,a5
 3032              		.loc 1 811 28
 3033 017a F58F     		and	a5,a3,a5
 3034 017c 2324F4FE 		sw	a5,-24(s0)
 812:../Firmware/GD32VW55x_standard_peripheral/Source/gd32vw55x_dma.c ****             interrupt_enable = DMA_CHCTL(channelx) & DMA_CHXCTL_HTFIE;
 3035              		.loc 1 812 32
 3036 0180 0327C4FD 		lw	a4,-36(s0)
 3037 0184 BA87     		mv	a5,a4
 3038 0186 8607     		slli	a5,a5,1
 3039 0188 BA97     		add	a5,a5,a4
 3040 018a 8E07     		slli	a5,a5,3
 3041 018c 3E87     		mv	a4,a5
 3042 018e B7670240 		li	a5,1073897472
 3043 0192 C107     		addi	a5,a5,16
 3044 0194 BA97     		add	a5,a4,a5
 3045 0196 9C43     		lw	a5,0(a5)
 3046              		.loc 1 812 30
 3047 0198 A18B     		andi	a5,a5,8
 3048 019a 2326F4FE 		sw	a5,-20(s0)
 813:../Firmware/GD32VW55x_standard_peripheral/Source/gd32vw55x_dma.c ****             break;
 3049              		.loc 1 813 13
 3050 019e 25AC     		j	.L95
 3051              	.L88:
 814:../Firmware/GD32VW55x_standard_peripheral/Source/gd32vw55x_dma.c ****         case DMA_INTF_FTFIF:
 815:../Firmware/GD32VW55x_standard_peripheral/Source/gd32vw55x_dma.c ****             interrupt_flag = (DMA_INTF0 & DMA_FLAG_ADD(int_flag, channelx));
 3052              		.loc 1 815 31
 3053 01a0 B7670240 		li	a5,1073897472
 3054 01a4 9443     		lw	a3,0(a5)
 3055              		.loc 1 815 43
 3056 01a6 8327C4FD 		lw	a5,-36(s0)
 3057 01aa 13F73700 		andi	a4,a5,3
 3058 01ae BA87     		mv	a5,a4
 3059 01b0 8607     		slli	a5,a5,1
 3060 01b2 BA97     		add	a5,a5,a4
 3061 01b4 8607     		slli	a5,a5,1
 3062 01b6 3E87     		mv	a4,a5
 3063 01b8 8327C4FD 		lw	a5,-36(s0)
 3064 01bc 8583     		srli	a5,a5,1
 3065 01be 858B     		andi	a5,a5,1
 3066 01c0 8A07     		slli	a5,a5,2
 3067 01c2 BA97     		add	a5,a4,a5
 3068 01c4 032784FD 		lw	a4,-40(s0)
 3069 01c8 B317F700 		sll	a5,a4,a5
 3070              		.loc 1 815 28
 3071 01cc F58F     		and	a5,a3,a5
 3072 01ce 2324F4FE 		sw	a5,-24(s0)
 816:../Firmware/GD32VW55x_standard_peripheral/Source/gd32vw55x_dma.c ****             interrupt_enable = (DMA_CHCTL(channelx) & DMA_CHXCTL_FTFIE);
 3073              		.loc 1 816 33
 3074 01d2 0327C4FD 		lw	a4,-36(s0)
 3075 01d6 BA87     		mv	a5,a4
 3076 01d8 8607     		slli	a5,a5,1
 3077 01da BA97     		add	a5,a5,a4
 3078 01dc 8E07     		slli	a5,a5,3
 3079 01de 3E87     		mv	a4,a5
 3080 01e0 B7670240 		li	a5,1073897472
 3081 01e4 C107     		addi	a5,a5,16
 3082 01e6 BA97     		add	a5,a4,a5
 3083 01e8 9C43     		lw	a5,0(a5)
 3084              		.loc 1 816 30
 3085 01ea C18B     		andi	a5,a5,16
 3086 01ec 2326F4FE 		sw	a5,-20(s0)
 817:../Firmware/GD32VW55x_standard_peripheral/Source/gd32vw55x_dma.c ****             break;
 3087              		.loc 1 817 13
 3088 01f0 DDA2     		j	.L95
 3089              	.L86:
 818:../Firmware/GD32VW55x_standard_peripheral/Source/gd32vw55x_dma.c ****         default:
 819:../Firmware/GD32VW55x_standard_peripheral/Source/gd32vw55x_dma.c ****             break;
 820:../Firmware/GD32VW55x_standard_peripheral/Source/gd32vw55x_dma.c ****         }
 821:../Firmware/GD32VW55x_standard_peripheral/Source/gd32vw55x_dma.c ****     }else{
 822:../Firmware/GD32VW55x_standard_peripheral/Source/gd32vw55x_dma.c ****         channel_flag_offset -= (dma_channel_enum)4;
 3090              		.loc 1 822 29
 3091 01f2 832744FE 		lw	a5,-28(s0)
 3092 01f6 F117     		addi	a5,a5,-4
 3093 01f8 2322F4FE 		sw	a5,-28(s0)
 3094 01fc 032784FD 		lw	a4,-40(s0)
 3095 0200 93070002 		li	a5,32
 3096 0204 63E8E71C 		bgtu	a4,a5,.L106
 3097 0208 832784FD 		lw	a5,-40(s0)
 3098 020c 13972700 		slli	a4,a5,2
 3099 0210 97070000 		lla	a5,.L98
 3099      93870700 
 3100 0218 BA97     		add	a5,a4,a5
 3101 021a 9843     		lw	a4,0(a5)
 3102 021c 97070000 		lla	a5,.L98
 3102      93870700 
 3103 0224 BA97     		add	a5,a4,a5
 3104 0226 8287     		jr	a5
 3105              		.section	.rodata.dma_interrupt_flag_get
 3106              		.align	2
 3107              		.align	2
 3108              	.L98:
 3109 0084 00000000 		.word	.L106-.L98
 3110 0088 00000000 		.word	.L102-.L98
 3111 008c 00000000 		.word	.L106-.L98
 3112 0090 00000000 		.word	.L106-.L98
 3113 0094 00000000 		.word	.L101-.L98
 3114 0098 00000000 		.word	.L106-.L98
 3115 009c 00000000 		.word	.L106-.L98
 3116 00a0 00000000 		.word	.L106-.L98
 3117 00a4 00000000 		.word	.L100-.L98
 3118 00a8 00000000 		.word	.L106-.L98
 3119 00ac 00000000 		.word	.L106-.L98
 3120 00b0 00000000 		.word	.L106-.L98
 3121 00b4 00000000 		.word	.L106-.L98
 3122 00b8 00000000 		.word	.L106-.L98
 3123 00bc 00000000 		.word	.L106-.L98
 3124 00c0 00000000 		.word	.L106-.L98
 3125 00c4 00000000 		.word	.L99-.L98
 3126 00c8 00000000 		.word	.L106-.L98
 3127 00cc 00000000 		.word	.L106-.L98
 3128 00d0 00000000 		.word	.L106-.L98
 3129 00d4 00000000 		.word	.L106-.L98
 3130 00d8 00000000 		.word	.L106-.L98
 3131 00dc 00000000 		.word	.L106-.L98
 3132 00e0 00000000 		.word	.L106-.L98
 3133 00e4 00000000 		.word	.L106-.L98
 3134 00e8 00000000 		.word	.L106-.L98
 3135 00ec 00000000 		.word	.L106-.L98
 3136 00f0 00000000 		.word	.L106-.L98
 3137 00f4 00000000 		.word	.L106-.L98
 3138 00f8 00000000 		.word	.L106-.L98
 3139 00fc 00000000 		.word	.L106-.L98
 3140 0100 00000000 		.word	.L106-.L98
 3141 0104 00000000 		.word	.L97-.L98
 3142              		.section	.text.dma_interrupt_flag_get
 3143              	.L102:
 823:../Firmware/GD32VW55x_standard_peripheral/Source/gd32vw55x_dma.c ****         switch(int_flag){
 824:../Firmware/GD32VW55x_standard_peripheral/Source/gd32vw55x_dma.c ****         case DMA_INTF_FEEIF:
 825:../Firmware/GD32VW55x_standard_peripheral/Source/gd32vw55x_dma.c ****             interrupt_flag = DMA_INTF1 & DMA_FLAG_ADD(int_flag, channel_flag_offset);
 3144              		.loc 1 825 30
 3145 0228 B7670240 		li	a5,1073897472
 3146 022c 9107     		addi	a5,a5,4
 3147 022e 9443     		lw	a3,0(a5)
 3148              		.loc 1 825 42
 3149 0230 832744FE 		lw	a5,-28(s0)
 3150 0234 13F73700 		andi	a4,a5,3
 3151 0238 BA87     		mv	a5,a4
 3152 023a 8607     		slli	a5,a5,1
 3153 023c BA97     		add	a5,a5,a4
 3154 023e 8607     		slli	a5,a5,1
 3155 0240 3E87     		mv	a4,a5
 3156 0242 832744FE 		lw	a5,-28(s0)
 3157 0246 8583     		srli	a5,a5,1
 3158 0248 858B     		andi	a5,a5,1
 3159 024a 8A07     		slli	a5,a5,2
 3160 024c BA97     		add	a5,a4,a5
 3161 024e 032784FD 		lw	a4,-40(s0)
 3162 0252 B317F700 		sll	a5,a4,a5
 3163              		.loc 1 825 28
 3164 0256 F58F     		and	a5,a3,a5
 3165 0258 2324F4FE 		sw	a5,-24(s0)
 826:../Firmware/GD32VW55x_standard_peripheral/Source/gd32vw55x_dma.c ****             interrupt_enable = DMA_CHFCTL(channelx) & DMA_CHXFCTL_FEEIE;
 3166              		.loc 1 826 32
 3167 025c 0327C4FD 		lw	a4,-36(s0)
 3168 0260 BA87     		mv	a5,a4
 3169 0262 8607     		slli	a5,a5,1
 3170 0264 BA97     		add	a5,a5,a4
 3171 0266 8E07     		slli	a5,a5,3
 3172 0268 3E87     		mv	a4,a5
 3173 026a B7670240 		li	a5,1073897472
 3174 026e 93874702 		addi	a5,a5,36
 3175 0272 BA97     		add	a5,a4,a5
 3176 0274 9C43     		lw	a5,0(a5)
 3177              		.loc 1 826 30
 3178 0276 93F70708 		andi	a5,a5,128
 3179 027a 2326F4FE 		sw	a5,-20(s0)
 827:../Firmware/GD32VW55x_standard_peripheral/Source/gd32vw55x_dma.c ****             break;
 3180              		.loc 1 827 13
 3181 027e A1AA     		j	.L95
 3182              	.L101:
 828:../Firmware/GD32VW55x_standard_peripheral/Source/gd32vw55x_dma.c ****         case DMA_INTF_SDEIF:
 829:../Firmware/GD32VW55x_standard_peripheral/Source/gd32vw55x_dma.c ****             interrupt_flag = DMA_INTF1 & DMA_FLAG_ADD(int_flag, channel_flag_offset);
 3183              		.loc 1 829 30
 3184 0280 B7670240 		li	a5,1073897472
 3185 0284 9107     		addi	a5,a5,4
 3186 0286 9443     		lw	a3,0(a5)
 3187              		.loc 1 829 42
 3188 0288 832744FE 		lw	a5,-28(s0)
 3189 028c 13F73700 		andi	a4,a5,3
 3190 0290 BA87     		mv	a5,a4
 3191 0292 8607     		slli	a5,a5,1
 3192 0294 BA97     		add	a5,a5,a4
 3193 0296 8607     		slli	a5,a5,1
 3194 0298 3E87     		mv	a4,a5
 3195 029a 832744FE 		lw	a5,-28(s0)
 3196 029e 8583     		srli	a5,a5,1
 3197 02a0 858B     		andi	a5,a5,1
 3198 02a2 8A07     		slli	a5,a5,2
 3199 02a4 BA97     		add	a5,a4,a5
 3200 02a6 032784FD 		lw	a4,-40(s0)
 3201 02aa B317F700 		sll	a5,a4,a5
 3202              		.loc 1 829 28
 3203 02ae F58F     		and	a5,a3,a5
 3204 02b0 2324F4FE 		sw	a5,-24(s0)
 830:../Firmware/GD32VW55x_standard_peripheral/Source/gd32vw55x_dma.c ****             interrupt_enable = DMA_CHCTL(channelx) & DMA_CHXCTL_SDEIE;
 3205              		.loc 1 830 32
 3206 02b4 0327C4FD 		lw	a4,-36(s0)
 3207 02b8 BA87     		mv	a5,a4
 3208 02ba 8607     		slli	a5,a5,1
 3209 02bc BA97     		add	a5,a5,a4
 3210 02be 8E07     		slli	a5,a5,3
 3211 02c0 3E87     		mv	a4,a5
 3212 02c2 B7670240 		li	a5,1073897472
 3213 02c6 C107     		addi	a5,a5,16
 3214 02c8 BA97     		add	a5,a4,a5
 3215 02ca 9C43     		lw	a5,0(a5)
 3216              		.loc 1 830 30
 3217 02cc 898B     		andi	a5,a5,2
 3218 02ce 2326F4FE 		sw	a5,-20(s0)
 831:../Firmware/GD32VW55x_standard_peripheral/Source/gd32vw55x_dma.c ****             break;
 3219              		.loc 1 831 13
 3220 02d2 11A2     		j	.L95
 3221              	.L100:
 832:../Firmware/GD32VW55x_standard_peripheral/Source/gd32vw55x_dma.c ****         case DMA_INTF_TAEIF:
 833:../Firmware/GD32VW55x_standard_peripheral/Source/gd32vw55x_dma.c ****             interrupt_flag = DMA_INTF1 & DMA_FLAG_ADD(int_flag, channel_flag_offset);
 3222              		.loc 1 833 30
 3223 02d4 B7670240 		li	a5,1073897472
 3224 02d8 9107     		addi	a5,a5,4
 3225 02da 9443     		lw	a3,0(a5)
 3226              		.loc 1 833 42
 3227 02dc 832744FE 		lw	a5,-28(s0)
 3228 02e0 13F73700 		andi	a4,a5,3
 3229 02e4 BA87     		mv	a5,a4
 3230 02e6 8607     		slli	a5,a5,1
 3231 02e8 BA97     		add	a5,a5,a4
 3232 02ea 8607     		slli	a5,a5,1
 3233 02ec 3E87     		mv	a4,a5
 3234 02ee 832744FE 		lw	a5,-28(s0)
 3235 02f2 8583     		srli	a5,a5,1
 3236 02f4 858B     		andi	a5,a5,1
 3237 02f6 8A07     		slli	a5,a5,2
 3238 02f8 BA97     		add	a5,a4,a5
 3239 02fa 032784FD 		lw	a4,-40(s0)
 3240 02fe B317F700 		sll	a5,a4,a5
 3241              		.loc 1 833 28
 3242 0302 F58F     		and	a5,a3,a5
 3243 0304 2324F4FE 		sw	a5,-24(s0)
 834:../Firmware/GD32VW55x_standard_peripheral/Source/gd32vw55x_dma.c ****             interrupt_enable = DMA_CHCTL(channelx) & DMA_CHXCTL_TAEIE;
 3244              		.loc 1 834 32
 3245 0308 0327C4FD 		lw	a4,-36(s0)
 3246 030c BA87     		mv	a5,a4
 3247 030e 8607     		slli	a5,a5,1
 3248 0310 BA97     		add	a5,a5,a4
 3249 0312 8E07     		slli	a5,a5,3
 3250 0314 3E87     		mv	a4,a5
 3251 0316 B7670240 		li	a5,1073897472
 3252 031a C107     		addi	a5,a5,16
 3253 031c BA97     		add	a5,a4,a5
 3254 031e 9C43     		lw	a5,0(a5)
 3255              		.loc 1 834 30
 3256 0320 918B     		andi	a5,a5,4
 3257 0322 2326F4FE 		sw	a5,-20(s0)
 835:../Firmware/GD32VW55x_standard_peripheral/Source/gd32vw55x_dma.c ****             break;
 3258              		.loc 1 835 13
 3259 0326 45A8     		j	.L95
 3260              	.L99:
 836:../Firmware/GD32VW55x_standard_peripheral/Source/gd32vw55x_dma.c ****         case DMA_INTF_HTFIF:
 837:../Firmware/GD32VW55x_standard_peripheral/Source/gd32vw55x_dma.c ****             interrupt_flag = DMA_INTF1 & DMA_FLAG_ADD(int_flag, channel_flag_offset);
 3261              		.loc 1 837 30
 3262 0328 B7670240 		li	a5,1073897472
 3263 032c 9107     		addi	a5,a5,4
 3264 032e 9443     		lw	a3,0(a5)
 3265              		.loc 1 837 42
 3266 0330 832744FE 		lw	a5,-28(s0)
 3267 0334 13F73700 		andi	a4,a5,3
 3268 0338 BA87     		mv	a5,a4
 3269 033a 8607     		slli	a5,a5,1
 3270 033c BA97     		add	a5,a5,a4
 3271 033e 8607     		slli	a5,a5,1
 3272 0340 3E87     		mv	a4,a5
 3273 0342 832744FE 		lw	a5,-28(s0)
 3274 0346 8583     		srli	a5,a5,1
 3275 0348 858B     		andi	a5,a5,1
 3276 034a 8A07     		slli	a5,a5,2
 3277 034c BA97     		add	a5,a4,a5
 3278 034e 032784FD 		lw	a4,-40(s0)
 3279 0352 B317F700 		sll	a5,a4,a5
 3280              		.loc 1 837 28
 3281 0356 F58F     		and	a5,a3,a5
 3282 0358 2324F4FE 		sw	a5,-24(s0)
 838:../Firmware/GD32VW55x_standard_peripheral/Source/gd32vw55x_dma.c ****             interrupt_enable = DMA_CHCTL(channelx) & DMA_CHXCTL_HTFIE;
 3283              		.loc 1 838 32
 3284 035c 0327C4FD 		lw	a4,-36(s0)
 3285 0360 BA87     		mv	a5,a4
 3286 0362 8607     		slli	a5,a5,1
 3287 0364 BA97     		add	a5,a5,a4
 3288 0366 8E07     		slli	a5,a5,3
 3289 0368 3E87     		mv	a4,a5
 3290 036a B7670240 		li	a5,1073897472
 3291 036e C107     		addi	a5,a5,16
 3292 0370 BA97     		add	a5,a4,a5
 3293 0372 9C43     		lw	a5,0(a5)
 3294              		.loc 1 838 30
 3295 0374 A18B     		andi	a5,a5,8
 3296 0376 2326F4FE 		sw	a5,-20(s0)
 839:../Firmware/GD32VW55x_standard_peripheral/Source/gd32vw55x_dma.c ****             break;
 3297              		.loc 1 839 13
 3298 037a B1A8     		j	.L95
 3299              	.L97:
 840:../Firmware/GD32VW55x_standard_peripheral/Source/gd32vw55x_dma.c ****         case DMA_INTF_FTFIF:
 841:../Firmware/GD32VW55x_standard_peripheral/Source/gd32vw55x_dma.c ****             interrupt_flag = DMA_INTF1 & DMA_FLAG_ADD(int_flag,channel_flag_offset);
 3300              		.loc 1 841 30
 3301 037c B7670240 		li	a5,1073897472
 3302 0380 9107     		addi	a5,a5,4
 3303 0382 9443     		lw	a3,0(a5)
 3304              		.loc 1 841 42
 3305 0384 832744FE 		lw	a5,-28(s0)
 3306 0388 13F73700 		andi	a4,a5,3
 3307 038c BA87     		mv	a5,a4
 3308 038e 8607     		slli	a5,a5,1
 3309 0390 BA97     		add	a5,a5,a4
 3310 0392 8607     		slli	a5,a5,1
 3311 0394 3E87     		mv	a4,a5
 3312 0396 832744FE 		lw	a5,-28(s0)
 3313 039a 8583     		srli	a5,a5,1
 3314 039c 858B     		andi	a5,a5,1
 3315 039e 8A07     		slli	a5,a5,2
 3316 03a0 BA97     		add	a5,a4,a5
 3317 03a2 032784FD 		lw	a4,-40(s0)
 3318 03a6 B317F700 		sll	a5,a4,a5
 3319              		.loc 1 841 28
 3320 03aa F58F     		and	a5,a3,a5
 3321 03ac 2324F4FE 		sw	a5,-24(s0)
 842:../Firmware/GD32VW55x_standard_peripheral/Source/gd32vw55x_dma.c ****             interrupt_enable = DMA_CHCTL(channelx) & DMA_CHXCTL_FTFIE;
 3322              		.loc 1 842 32
 3323 03b0 0327C4FD 		lw	a4,-36(s0)
 3324 03b4 BA87     		mv	a5,a4
 3325 03b6 8607     		slli	a5,a5,1
 3326 03b8 BA97     		add	a5,a5,a4
 3327 03ba 8E07     		slli	a5,a5,3
 3328 03bc 3E87     		mv	a4,a5
 3329 03be B7670240 		li	a5,1073897472
 3330 03c2 C107     		addi	a5,a5,16
 3331 03c4 BA97     		add	a5,a4,a5
 3332 03c6 9C43     		lw	a5,0(a5)
 3333              		.loc 1 842 30
 3334 03c8 C18B     		andi	a5,a5,16
 3335 03ca 2326F4FE 		sw	a5,-20(s0)
 843:../Firmware/GD32VW55x_standard_peripheral/Source/gd32vw55x_dma.c ****             break;
 3336              		.loc 1 843 13
 3337 03ce 21A0     		j	.L95
 3338              	.L105:
 819:../Firmware/GD32VW55x_standard_peripheral/Source/gd32vw55x_dma.c ****         }
 3339              		.loc 1 819 13
 3340 03d0 0100     		nop
 3341 03d2 11A0     		j	.L95
 3342              	.L106:
 844:../Firmware/GD32VW55x_standard_peripheral/Source/gd32vw55x_dma.c ****         default:
 845:../Firmware/GD32VW55x_standard_peripheral/Source/gd32vw55x_dma.c ****             break;
 3343              		.loc 1 845 13
 3344 03d4 0100     		nop
 3345              	.L95:
 846:../Firmware/GD32VW55x_standard_peripheral/Source/gd32vw55x_dma.c ****         }
 847:../Firmware/GD32VW55x_standard_peripheral/Source/gd32vw55x_dma.c ****     }
 848:../Firmware/GD32VW55x_standard_peripheral/Source/gd32vw55x_dma.c **** 
 849:../Firmware/GD32VW55x_standard_peripheral/Source/gd32vw55x_dma.c ****     if(interrupt_flag && interrupt_enable){
 3346              		.loc 1 849 7
 3347 03d6 832784FE 		lw	a5,-24(s0)
 3348 03da 91C7     		beq	a5,zero,.L103
 3349              		.loc 1 849 23 discriminator 1
 3350 03dc 8327C4FE 		lw	a5,-20(s0)
 3351 03e0 99C3     		beq	a5,zero,.L103
 850:../Firmware/GD32VW55x_standard_peripheral/Source/gd32vw55x_dma.c ****         return SET;
 3352              		.loc 1 850 16
 3353 03e2 8547     		li	a5,1
 3354 03e4 11A0     		j	.L104
 3355              	.L103:
 851:../Firmware/GD32VW55x_standard_peripheral/Source/gd32vw55x_dma.c ****     }else{
 852:../Firmware/GD32VW55x_standard_peripheral/Source/gd32vw55x_dma.c ****         return RESET;
 3356              		.loc 1 852 16
 3357 03e6 8147     		li	a5,0
 3358              	.L104:
 853:../Firmware/GD32VW55x_standard_peripheral/Source/gd32vw55x_dma.c ****     }
 854:../Firmware/GD32VW55x_standard_peripheral/Source/gd32vw55x_dma.c **** }
 3359              		.loc 1 854 1
 3360 03e8 3E85     		mv	a0,a5
 3361 03ea 3254     		lw	s0,44(sp)
 3362              		.cfi_restore 8
 3363              		.cfi_def_cfa 2, 48
 3364 03ec 4561     		addi	sp,sp,48
 3365              		.cfi_def_cfa_offset 0
 3366 03ee 8280     		jr	ra
 3367              		.cfi_endproc
 3368              	.LFE379:
 3370              		.section	.text.dma_interrupt_flag_clear,"ax",@progbits
 3371              		.align	1
 3372              		.globl	dma_interrupt_flag_clear
 3374              	dma_interrupt_flag_clear:
 3375              	.LFB380:
 855:../Firmware/GD32VW55x_standard_peripheral/Source/gd32vw55x_dma.c **** 
 856:../Firmware/GD32VW55x_standard_peripheral/Source/gd32vw55x_dma.c **** /*!
 857:../Firmware/GD32VW55x_standard_peripheral/Source/gd32vw55x_dma.c ****     \brief      clear DMA a channel interrupt flag
 858:../Firmware/GD32VW55x_standard_peripheral/Source/gd32vw55x_dma.c ****     \param[in]  channelx: specify which DMA channel to clear interrupt flag
 859:../Firmware/GD32VW55x_standard_peripheral/Source/gd32vw55x_dma.c ****       \arg        DMA_CHx (x=0..7)
 860:../Firmware/GD32VW55x_standard_peripheral/Source/gd32vw55x_dma.c ****     \param[in]  interrupt: specify clear which flag
 861:../Firmware/GD32VW55x_standard_peripheral/Source/gd32vw55x_dma.c ****                 only one parameter can be selected which is shown as below:
 862:../Firmware/GD32VW55x_standard_peripheral/Source/gd32vw55x_dma.c ****       \arg        DMA_INT_FLAG_FEE: FIFO error and exception interrupt flag
 863:../Firmware/GD32VW55x_standard_peripheral/Source/gd32vw55x_dma.c ****       \arg        DMA_INT_FLAG_SDE: single data mode exception interrupt flag
 864:../Firmware/GD32VW55x_standard_peripheral/Source/gd32vw55x_dma.c ****       \arg        DMA_INT_FLAG_TAE: transfer access error interrupt flag
 865:../Firmware/GD32VW55x_standard_peripheral/Source/gd32vw55x_dma.c ****       \arg        DMA_INT_FLAG_HTF: half transfer finish interrupt flag
 866:../Firmware/GD32VW55x_standard_peripheral/Source/gd32vw55x_dma.c ****       \arg        DMA_INT_FLAG_FTF: full transfer finish interrupt flag
 867:../Firmware/GD32VW55x_standard_peripheral/Source/gd32vw55x_dma.c ****     \param[out] none
 868:../Firmware/GD32VW55x_standard_peripheral/Source/gd32vw55x_dma.c ****     \retval     none
 869:../Firmware/GD32VW55x_standard_peripheral/Source/gd32vw55x_dma.c **** */
 870:../Firmware/GD32VW55x_standard_peripheral/Source/gd32vw55x_dma.c **** void dma_interrupt_flag_clear(dma_channel_enum channelx, uint32_t int_flag)
 871:../Firmware/GD32VW55x_standard_peripheral/Source/gd32vw55x_dma.c **** {
 3376              		.loc 1 871 1
 3377              		.cfi_startproc
 3378 0000 0111     		addi	sp,sp,-32
 3379              		.cfi_def_cfa_offset 32
 3380 0002 22CE     		sw	s0,28(sp)
 3381              		.cfi_offset 8, -4
 3382 0004 0010     		addi	s0,sp,32
 3383              		.cfi_def_cfa 8, 0
 3384 0006 2326A4FE 		sw	a0,-20(s0)
 3385 000a 2324B4FE 		sw	a1,-24(s0)
 872:../Firmware/GD32VW55x_standard_peripheral/Source/gd32vw55x_dma.c ****     if(channelx < DMA_CH4){
 3386              		.loc 1 872 7
 3387 000e 0327C4FE 		lw	a4,-20(s0)
 3388 0012 8D47     		li	a5,3
 3389 0014 63EFE702 		bgtu	a4,a5,.L108
 873:../Firmware/GD32VW55x_standard_peripheral/Source/gd32vw55x_dma.c ****         DMA_INTC0 |= DMA_FLAG_ADD(int_flag, channelx);
 3390              		.loc 1 873 19
 3391 0018 B7670240 		li	a5,1073897472
 3392 001c A107     		addi	a5,a5,8
 3393 001e 9443     		lw	a3,0(a5)
 3394              		.loc 1 873 22
 3395 0020 8327C4FE 		lw	a5,-20(s0)
 3396 0024 13F73700 		andi	a4,a5,3
 3397 0028 BA87     		mv	a5,a4
 3398 002a 8607     		slli	a5,a5,1
 3399 002c BA97     		add	a5,a5,a4
 3400 002e 8607     		slli	a5,a5,1
 3401 0030 3E87     		mv	a4,a5
 3402 0032 8327C4FE 		lw	a5,-20(s0)
 3403 0036 8583     		srli	a5,a5,1
 3404 0038 858B     		andi	a5,a5,1
 3405 003a 8A07     		slli	a5,a5,2
 3406 003c BA97     		add	a5,a4,a5
 3407 003e 032784FE 		lw	a4,-24(s0)
 3408 0042 3317F700 		sll	a4,a4,a5
 3409              		.loc 1 873 19
 3410 0046 B7670240 		li	a5,1073897472
 3411 004a A107     		addi	a5,a5,8
 3412 004c 558F     		or	a4,a3,a4
 3413 004e 98C3     		sw	a4,0(a5)
 874:../Firmware/GD32VW55x_standard_peripheral/Source/gd32vw55x_dma.c ****     }else{
 875:../Firmware/GD32VW55x_standard_peripheral/Source/gd32vw55x_dma.c ****         channelx -= (dma_channel_enum)4;
 876:../Firmware/GD32VW55x_standard_peripheral/Source/gd32vw55x_dma.c ****         DMA_INTC1 |= DMA_FLAG_ADD(int_flag, channelx);
 877:../Firmware/GD32VW55x_standard_peripheral/Source/gd32vw55x_dma.c ****     }
 878:../Firmware/GD32VW55x_standard_peripheral/Source/gd32vw55x_dma.c **** }
 3414              		.loc 1 878 1
 3415 0050 91A0     		j	.L110
 3416              	.L108:
 875:../Firmware/GD32VW55x_standard_peripheral/Source/gd32vw55x_dma.c ****         DMA_INTC1 |= DMA_FLAG_ADD(int_flag, channelx);
 3417              		.loc 1 875 18
 3418 0052 8327C4FE 		lw	a5,-20(s0)
 3419 0056 F117     		addi	a5,a5,-4
 3420 0058 2326F4FE 		sw	a5,-20(s0)
 876:../Firmware/GD32VW55x_standard_peripheral/Source/gd32vw55x_dma.c ****     }
 3421              		.loc 1 876 19
 3422 005c B7670240 		li	a5,1073897472
 3423 0060 B107     		addi	a5,a5,12
 3424 0062 9443     		lw	a3,0(a5)
 876:../Firmware/GD32VW55x_standard_peripheral/Source/gd32vw55x_dma.c ****     }
 3425              		.loc 1 876 22
 3426 0064 8327C4FE 		lw	a5,-20(s0)
 3427 0068 13F73700 		andi	a4,a5,3
 3428 006c BA87     		mv	a5,a4
 3429 006e 8607     		slli	a5,a5,1
 3430 0070 BA97     		add	a5,a5,a4
 3431 0072 8607     		slli	a5,a5,1
 3432 0074 3E87     		mv	a4,a5
 3433 0076 8327C4FE 		lw	a5,-20(s0)
 3434 007a 8583     		srli	a5,a5,1
 3435 007c 858B     		andi	a5,a5,1
 3436 007e 8A07     		slli	a5,a5,2
 3437 0080 BA97     		add	a5,a4,a5
 3438 0082 032784FE 		lw	a4,-24(s0)
 3439 0086 3317F700 		sll	a4,a4,a5
 876:../Firmware/GD32VW55x_standard_peripheral/Source/gd32vw55x_dma.c ****     }
 3440              		.loc 1 876 19
 3441 008a B7670240 		li	a5,1073897472
 3442 008e B107     		addi	a5,a5,12
 3443 0090 558F     		or	a4,a3,a4
 3444 0092 98C3     		sw	a4,0(a5)
 3445              	.L110:
 3446              		.loc 1 878 1
 3447 0094 0100     		nop
 3448 0096 7244     		lw	s0,28(sp)
 3449              		.cfi_restore 8
 3450              		.cfi_def_cfa 2, 32
 3451 0098 0561     		addi	sp,sp,32
 3452              		.cfi_def_cfa_offset 0
 3453 009a 8280     		jr	ra
 3454              		.cfi_endproc
 3455              	.LFE380:
 3457              		.text
 3458              	.Letext0:
 3459              		.file 2 "e:\\gd32\\gd32embeddedbuilder_v1.5.2.30854\\tools\\nuclei_riscv_newlibc_prebuilt_win32_20
 3460              		.file 3 "e:\\gd32\\gd32embeddedbuilder_v1.5.2.30854\\tools\\nuclei_riscv_newlibc_prebuilt_win32_20
 3461              		.file 4 "../Firmware/GD32VW55x_standard_peripheral/gd32vw55x.h"
 3462              		.file 5 "../Firmware/GD32VW55x_standard_peripheral/Include/gd32vw55x_dma.h"