   1              		.file	"gd32vw55x_pkcau.c"
   2              		.option nopic
   3              		.attribute arch, "rv32i2p0_m2p0_a2p0_c2p0"
   4              		.attribute unaligned_access, 0
   5              		.attribute stack_align, 16
   6              		.text
   7              	.Ltext0:
   8              		.cfi_sections	.debug_frame
   9              		.section	.text.pkcau_deinit,"ax",@progbits
  10              		.align	1
  11              		.globl	pkcau_deinit
  13              	pkcau_deinit:
  14              	.LFB347:
  15              		.file 1 "../Firmware/GD32VW55x_standard_peripheral/Source/gd32vw55x_pkcau.c"
   1:../Firmware/GD32VW55x_standard_peripheral/Source/gd32vw55x_pkcau.c **** /*!
   2:../Firmware/GD32VW55x_standard_peripheral/Source/gd32vw55x_pkcau.c ****     \file    gd32vw55x_pkcau.c
   3:../Firmware/GD32VW55x_standard_peripheral/Source/gd32vw55x_pkcau.c ****     \brief   PKCAU driver
   4:../Firmware/GD32VW55x_standard_peripheral/Source/gd32vw55x_pkcau.c **** 
   5:../Firmware/GD32VW55x_standard_peripheral/Source/gd32vw55x_pkcau.c ****     \version 2025-01-16, V1.4.0, firmware for GD32VW55x
   6:../Firmware/GD32VW55x_standard_peripheral/Source/gd32vw55x_pkcau.c **** */
   7:../Firmware/GD32VW55x_standard_peripheral/Source/gd32vw55x_pkcau.c **** 
   8:../Firmware/GD32VW55x_standard_peripheral/Source/gd32vw55x_pkcau.c **** /*
   9:../Firmware/GD32VW55x_standard_peripheral/Source/gd32vw55x_pkcau.c ****     Copyright (c) 2025, GigaDevice Semiconductor Inc.
  10:../Firmware/GD32VW55x_standard_peripheral/Source/gd32vw55x_pkcau.c **** 
  11:../Firmware/GD32VW55x_standard_peripheral/Source/gd32vw55x_pkcau.c ****     Redistribution and use in source and binary forms, with or without modification,
  12:../Firmware/GD32VW55x_standard_peripheral/Source/gd32vw55x_pkcau.c **** are permitted provided that the following conditions are met:
  13:../Firmware/GD32VW55x_standard_peripheral/Source/gd32vw55x_pkcau.c **** 
  14:../Firmware/GD32VW55x_standard_peripheral/Source/gd32vw55x_pkcau.c ****     1. Redistributions of source code must retain the above copyright notice, this
  15:../Firmware/GD32VW55x_standard_peripheral/Source/gd32vw55x_pkcau.c ****        list of conditions and the following disclaimer.
  16:../Firmware/GD32VW55x_standard_peripheral/Source/gd32vw55x_pkcau.c ****     2. Redistributions in binary form must reproduce the above copyright notice,
  17:../Firmware/GD32VW55x_standard_peripheral/Source/gd32vw55x_pkcau.c ****        this list of conditions and the following disclaimer in the documentation
  18:../Firmware/GD32VW55x_standard_peripheral/Source/gd32vw55x_pkcau.c ****        and/or other materials provided with the distribution.
  19:../Firmware/GD32VW55x_standard_peripheral/Source/gd32vw55x_pkcau.c ****     3. Neither the name of the copyright holder nor the names of its contributors
  20:../Firmware/GD32VW55x_standard_peripheral/Source/gd32vw55x_pkcau.c ****        may be used to endorse or promote products derived from this software without
  21:../Firmware/GD32VW55x_standard_peripheral/Source/gd32vw55x_pkcau.c ****        specific prior written permission.
  22:../Firmware/GD32VW55x_standard_peripheral/Source/gd32vw55x_pkcau.c **** 
  23:../Firmware/GD32VW55x_standard_peripheral/Source/gd32vw55x_pkcau.c ****     THIS SOFTWARE IS PROVIDED BY THE COPYRIGHT HOLDERS AND CONTRIBUTORS "AS IS"
  24:../Firmware/GD32VW55x_standard_peripheral/Source/gd32vw55x_pkcau.c **** AND ANY EXPRESS OR IMPLIED WARRANTIES, INCLUDING, BUT NOT LIMITED TO, THE IMPLIED
  25:../Firmware/GD32VW55x_standard_peripheral/Source/gd32vw55x_pkcau.c **** WARRANTIES OF MERCHANTABILITY AND FITNESS FOR A PARTICULAR PURPOSE ARE DISCLAIMED.
  26:../Firmware/GD32VW55x_standard_peripheral/Source/gd32vw55x_pkcau.c **** IN NO EVENT SHALL THE COPYRIGHT HOLDER OR CONTRIBUTORS BE LIABLE FOR ANY DIRECT,
  27:../Firmware/GD32VW55x_standard_peripheral/Source/gd32vw55x_pkcau.c **** INDIRECT, INCIDENTAL, SPECIAL, EXEMPLARY, OR CONSEQUENTIAL DAMAGES (INCLUDING, BUT
  28:../Firmware/GD32VW55x_standard_peripheral/Source/gd32vw55x_pkcau.c **** NOT LIMITED TO, PROCUREMENT OF SUBSTITUTE GOODS OR SERVICES; LOSS OF USE, DATA, OR
  29:../Firmware/GD32VW55x_standard_peripheral/Source/gd32vw55x_pkcau.c **** PROFITS; OR BUSINESS INTERRUPTION) HOWEVER CAUSED AND ON ANY THEORY OF LIABILITY,
  30:../Firmware/GD32VW55x_standard_peripheral/Source/gd32vw55x_pkcau.c **** WHETHER IN CONTRACT, STRICT LIABILITY, OR TORT (INCLUDING NEGLIGENCE OR OTHERWISE)
  31:../Firmware/GD32VW55x_standard_peripheral/Source/gd32vw55x_pkcau.c **** ARISING IN ANY WAY OUT OF THE USE OF THIS SOFTWARE, EVEN IF ADVISED OF THE POSSIBILITY
  32:../Firmware/GD32VW55x_standard_peripheral/Source/gd32vw55x_pkcau.c **** OF SUCH DAMAGE.
  33:../Firmware/GD32VW55x_standard_peripheral/Source/gd32vw55x_pkcau.c **** */
  34:../Firmware/GD32VW55x_standard_peripheral/Source/gd32vw55x_pkcau.c **** 
  35:../Firmware/GD32VW55x_standard_peripheral/Source/gd32vw55x_pkcau.c **** #include "gd32vw55x_pkcau.h"
  36:../Firmware/GD32VW55x_standard_peripheral/Source/gd32vw55x_pkcau.c **** 
  37:../Firmware/GD32VW55x_standard_peripheral/Source/gd32vw55x_pkcau.c **** /* read result from PKCAU RAM */
  38:../Firmware/GD32VW55x_standard_peripheral/Source/gd32vw55x_pkcau.c **** static void pkcau_memcpy_value(uint32_t offset, uint32_t value);
  39:../Firmware/GD32VW55x_standard_peripheral/Source/gd32vw55x_pkcau.c **** /* copy operand with EOS or ROS to PKCAU RAM */
  40:../Firmware/GD32VW55x_standard_peripheral/Source/gd32vw55x_pkcau.c **** static void pkcau_memcpy_operand(uint32_t offset, const uint8_t operand[], uint32_t size);
  41:../Firmware/GD32VW55x_standard_peripheral/Source/gd32vw55x_pkcau.c **** /* read result from PKCAU RAM */
  42:../Firmware/GD32VW55x_standard_peripheral/Source/gd32vw55x_pkcau.c **** static void pkcau_memread(uint32_t offset, uint8_t *buf, uint32_t size);
  43:../Firmware/GD32VW55x_standard_peripheral/Source/gd32vw55x_pkcau.c **** 
  44:../Firmware/GD32VW55x_standard_peripheral/Source/gd32vw55x_pkcau.c **** /*!
  45:../Firmware/GD32VW55x_standard_peripheral/Source/gd32vw55x_pkcau.c ****     \brief      reset PKCAU
  46:../Firmware/GD32VW55x_standard_peripheral/Source/gd32vw55x_pkcau.c ****     \param[in]  none
  47:../Firmware/GD32VW55x_standard_peripheral/Source/gd32vw55x_pkcau.c ****     \param[out] none
  48:../Firmware/GD32VW55x_standard_peripheral/Source/gd32vw55x_pkcau.c ****     \retval     none
  49:../Firmware/GD32VW55x_standard_peripheral/Source/gd32vw55x_pkcau.c **** */
  50:../Firmware/GD32VW55x_standard_peripheral/Source/gd32vw55x_pkcau.c **** void pkcau_deinit(void)
  51:../Firmware/GD32VW55x_standard_peripheral/Source/gd32vw55x_pkcau.c **** {
  16              		.loc 1 51 1
  17              		.cfi_startproc
  18 0000 4111     		addi	sp,sp,-16
  19              		.cfi_def_cfa_offset 16
  20 0002 06C6     		sw	ra,12(sp)
  21 0004 22C4     		sw	s0,8(sp)
  22              		.cfi_offset 1, -4
  23              		.cfi_offset 8, -8
  24 0006 0008     		addi	s0,sp,16
  25              		.cfi_def_cfa 8, 0
  52:../Firmware/GD32VW55x_standard_peripheral/Source/gd32vw55x_pkcau.c ****     rcu_periph_reset_enable(RCU_PKCAURST);
  26              		.loc 1 52 5
  27 0008 13053050 		li	a0,1283
  28 000c 97000000 		call	rcu_periph_reset_enable
  28      E7800000 
  53:../Firmware/GD32VW55x_standard_peripheral/Source/gd32vw55x_pkcau.c ****     rcu_periph_reset_disable(RCU_PKCAURST);
  29              		.loc 1 53 5
  30 0014 13053050 		li	a0,1283
  31 0018 97000000 		call	rcu_periph_reset_disable
  31      E7800000 
  54:../Firmware/GD32VW55x_standard_peripheral/Source/gd32vw55x_pkcau.c **** }
  32              		.loc 1 54 1
  33 0020 0100     		nop
  34 0022 B240     		lw	ra,12(sp)
  35              		.cfi_restore 1
  36 0024 2244     		lw	s0,8(sp)
  37              		.cfi_restore 8
  38              		.cfi_def_cfa 2, 16
  39 0026 4101     		addi	sp,sp,16
  40              		.cfi_def_cfa_offset 0
  41 0028 8280     		jr	ra
  42              		.cfi_endproc
  43              	.LFE347:
  45              		.section	.text.pkcau_mont_struct_para_init,"ax",@progbits
  46              		.align	1
  47              		.globl	pkcau_mont_struct_para_init
  49              	pkcau_mont_struct_para_init:
  50              	.LFB348:
  55:../Firmware/GD32VW55x_standard_peripheral/Source/gd32vw55x_pkcau.c **** 
  56:../Firmware/GD32VW55x_standard_peripheral/Source/gd32vw55x_pkcau.c **** /*!
  57:../Firmware/GD32VW55x_standard_peripheral/Source/gd32vw55x_pkcau.c ****     \brief      initialize montgomery parameter structure with a default value
  58:../Firmware/GD32VW55x_standard_peripheral/Source/gd32vw55x_pkcau.c ****     \param[in]  none
  59:../Firmware/GD32VW55x_standard_peripheral/Source/gd32vw55x_pkcau.c ****     \param[out] init_para: initialize montgomery parameter struct
  60:../Firmware/GD32VW55x_standard_peripheral/Source/gd32vw55x_pkcau.c ****     \retval     none
  61:../Firmware/GD32VW55x_standard_peripheral/Source/gd32vw55x_pkcau.c **** */
  62:../Firmware/GD32VW55x_standard_peripheral/Source/gd32vw55x_pkcau.c **** void pkcau_mont_struct_para_init(pkcau_mont_parameter_struct* init_para)
  63:../Firmware/GD32VW55x_standard_peripheral/Source/gd32vw55x_pkcau.c **** {
  51              		.loc 1 63 1
  52              		.cfi_startproc
  53 0000 0111     		addi	sp,sp,-32
  54              		.cfi_def_cfa_offset 32
  55 0002 22CE     		sw	s0,28(sp)
  56              		.cfi_offset 8, -4
  57 0004 0010     		addi	s0,sp,32
  58              		.cfi_def_cfa 8, 0
  59 0006 2326A4FE 		sw	a0,-20(s0)
  64:../Firmware/GD32VW55x_standard_peripheral/Source/gd32vw55x_pkcau.c ****     /* initialize the member of montgomery parameter structure with the default value */
  65:../Firmware/GD32VW55x_standard_peripheral/Source/gd32vw55x_pkcau.c ****     init_para->modulus_n     = 0U;
  60              		.loc 1 65 30
  61 000a 8327C4FE 		lw	a5,-20(s0)
  62 000e 23A00700 		sw	zero,0(a5)
  66:../Firmware/GD32VW55x_standard_peripheral/Source/gd32vw55x_pkcau.c ****     init_para->modulus_n_len = 0U;
  63              		.loc 1 66 30
  64 0012 8327C4FE 		lw	a5,-20(s0)
  65 0016 23A20700 		sw	zero,4(a5)
  67:../Firmware/GD32VW55x_standard_peripheral/Source/gd32vw55x_pkcau.c **** }
  66              		.loc 1 67 1
  67 001a 0100     		nop
  68 001c 7244     		lw	s0,28(sp)
  69              		.cfi_restore 8
  70              		.cfi_def_cfa 2, 32
  71 001e 0561     		addi	sp,sp,32
  72              		.cfi_def_cfa_offset 0
  73 0020 8280     		jr	ra
  74              		.cfi_endproc
  75              	.LFE348:
  77              		.section	.text.pkcau_mod_struct_para_init,"ax",@progbits
  78              		.align	1
  79              		.globl	pkcau_mod_struct_para_init
  81              	pkcau_mod_struct_para_init:
  82              	.LFB349:
  68:../Firmware/GD32VW55x_standard_peripheral/Source/gd32vw55x_pkcau.c **** 
  69:../Firmware/GD32VW55x_standard_peripheral/Source/gd32vw55x_pkcau.c **** /*!
  70:../Firmware/GD32VW55x_standard_peripheral/Source/gd32vw55x_pkcau.c ****     \brief      initialize modular parameter structure with a default value
  71:../Firmware/GD32VW55x_standard_peripheral/Source/gd32vw55x_pkcau.c ****     \param[in]  none
  72:../Firmware/GD32VW55x_standard_peripheral/Source/gd32vw55x_pkcau.c ****     \param[out] init_para: initialize modular parameter struct
  73:../Firmware/GD32VW55x_standard_peripheral/Source/gd32vw55x_pkcau.c ****     \retval     none
  74:../Firmware/GD32VW55x_standard_peripheral/Source/gd32vw55x_pkcau.c **** */
  75:../Firmware/GD32VW55x_standard_peripheral/Source/gd32vw55x_pkcau.c **** void pkcau_mod_struct_para_init(pkcau_mod_parameter_struct* init_para)
  76:../Firmware/GD32VW55x_standard_peripheral/Source/gd32vw55x_pkcau.c **** {
  83              		.loc 1 76 1
  84              		.cfi_startproc
  85 0000 0111     		addi	sp,sp,-32
  86              		.cfi_def_cfa_offset 32
  87 0002 22CE     		sw	s0,28(sp)
  88              		.cfi_offset 8, -4
  89 0004 0010     		addi	s0,sp,32
  90              		.cfi_def_cfa 8, 0
  91 0006 2326A4FE 		sw	a0,-20(s0)
  77:../Firmware/GD32VW55x_standard_peripheral/Source/gd32vw55x_pkcau.c ****     /* initialize the member of modular parameter structure with the default value */
  78:../Firmware/GD32VW55x_standard_peripheral/Source/gd32vw55x_pkcau.c ****     init_para->oprd_a        = 0U;
  92              		.loc 1 78 30
  93 000a 8327C4FE 		lw	a5,-20(s0)
  94 000e 23A00700 		sw	zero,0(a5)
  79:../Firmware/GD32VW55x_standard_peripheral/Source/gd32vw55x_pkcau.c ****     init_para->oprd_a_len    = 0U;
  95              		.loc 1 79 30
  96 0012 8327C4FE 		lw	a5,-20(s0)
  97 0016 23A20700 		sw	zero,4(a5)
  80:../Firmware/GD32VW55x_standard_peripheral/Source/gd32vw55x_pkcau.c ****     init_para->oprd_b        = 0U;
  98              		.loc 1 80 30
  99 001a 8327C4FE 		lw	a5,-20(s0)
 100 001e 23A40700 		sw	zero,8(a5)
  81:../Firmware/GD32VW55x_standard_peripheral/Source/gd32vw55x_pkcau.c ****     init_para->oprd_b_len    = 0U;
 101              		.loc 1 81 30
 102 0022 8327C4FE 		lw	a5,-20(s0)
 103 0026 23A60700 		sw	zero,12(a5)
  82:../Firmware/GD32VW55x_standard_peripheral/Source/gd32vw55x_pkcau.c ****     init_para->modulus_n     = 0U;
 104              		.loc 1 82 30
 105 002a 8327C4FE 		lw	a5,-20(s0)
 106 002e 23A80700 		sw	zero,16(a5)
  83:../Firmware/GD32VW55x_standard_peripheral/Source/gd32vw55x_pkcau.c ****     init_para->modulus_n_len = 0U;
 107              		.loc 1 83 30
 108 0032 8327C4FE 		lw	a5,-20(s0)
 109 0036 23AA0700 		sw	zero,20(a5)
  84:../Firmware/GD32VW55x_standard_peripheral/Source/gd32vw55x_pkcau.c **** }
 110              		.loc 1 84 1
 111 003a 0100     		nop
 112 003c 7244     		lw	s0,28(sp)
 113              		.cfi_restore 8
 114              		.cfi_def_cfa 2, 32
 115 003e 0561     		addi	sp,sp,32
 116              		.cfi_def_cfa_offset 0
 117 0040 8280     		jr	ra
 118              		.cfi_endproc
 119              	.LFE349:
 121              		.section	.text.pkcau_mod_exp_struct_para_init,"ax",@progbits
 122              		.align	1
 123              		.globl	pkcau_mod_exp_struct_para_init
 125              	pkcau_mod_exp_struct_para_init:
 126              	.LFB350:
  85:../Firmware/GD32VW55x_standard_peripheral/Source/gd32vw55x_pkcau.c **** 
  86:../Firmware/GD32VW55x_standard_peripheral/Source/gd32vw55x_pkcau.c **** /*!
  87:../Firmware/GD32VW55x_standard_peripheral/Source/gd32vw55x_pkcau.c ****     \brief      initialize modular exponentiation parameter structure with a default value
  88:../Firmware/GD32VW55x_standard_peripheral/Source/gd32vw55x_pkcau.c ****     \param[in]  none
  89:../Firmware/GD32VW55x_standard_peripheral/Source/gd32vw55x_pkcau.c ****     \param[out] init_para: initialize modular exponentiation parameter struct
  90:../Firmware/GD32VW55x_standard_peripheral/Source/gd32vw55x_pkcau.c ****     \retval     none
  91:../Firmware/GD32VW55x_standard_peripheral/Source/gd32vw55x_pkcau.c **** */
  92:../Firmware/GD32VW55x_standard_peripheral/Source/gd32vw55x_pkcau.c **** void pkcau_mod_exp_struct_para_init(pkcau_mod_exp_parameter_struct* init_para)
  93:../Firmware/GD32VW55x_standard_peripheral/Source/gd32vw55x_pkcau.c **** {
 127              		.loc 1 93 1
 128              		.cfi_startproc
 129 0000 0111     		addi	sp,sp,-32
 130              		.cfi_def_cfa_offset 32
 131 0002 22CE     		sw	s0,28(sp)
 132              		.cfi_offset 8, -4
 133 0004 0010     		addi	s0,sp,32
 134              		.cfi_def_cfa 8, 0
 135 0006 2326A4FE 		sw	a0,-20(s0)
  94:../Firmware/GD32VW55x_standard_peripheral/Source/gd32vw55x_pkcau.c ****     /* initialize the member of modular exponentiation parameter structure with the default value *
  95:../Firmware/GD32VW55x_standard_peripheral/Source/gd32vw55x_pkcau.c ****     init_para->oprd_a        = 0U;
 136              		.loc 1 95 30
 137 000a 8327C4FE 		lw	a5,-20(s0)
 138 000e 23A00700 		sw	zero,0(a5)
  96:../Firmware/GD32VW55x_standard_peripheral/Source/gd32vw55x_pkcau.c ****     init_para->oprd_a_len    = 0U;
 139              		.loc 1 96 30
 140 0012 8327C4FE 		lw	a5,-20(s0)
 141 0016 23A20700 		sw	zero,4(a5)
  97:../Firmware/GD32VW55x_standard_peripheral/Source/gd32vw55x_pkcau.c ****     init_para->exp_e         = 0U;
 142              		.loc 1 97 30
 143 001a 8327C4FE 		lw	a5,-20(s0)
 144 001e 23A40700 		sw	zero,8(a5)
  98:../Firmware/GD32VW55x_standard_peripheral/Source/gd32vw55x_pkcau.c ****     init_para->e_len         = 0U;
 145              		.loc 1 98 30
 146 0022 8327C4FE 		lw	a5,-20(s0)
 147 0026 23A60700 		sw	zero,12(a5)
  99:../Firmware/GD32VW55x_standard_peripheral/Source/gd32vw55x_pkcau.c ****     init_para->modulus_n     = 0U;
 148              		.loc 1 99 30
 149 002a 8327C4FE 		lw	a5,-20(s0)
 150 002e 23A80700 		sw	zero,16(a5)
 100:../Firmware/GD32VW55x_standard_peripheral/Source/gd32vw55x_pkcau.c ****     init_para->modulus_n_len = 0U;
 151              		.loc 1 100 30
 152 0032 8327C4FE 		lw	a5,-20(s0)
 153 0036 23AA0700 		sw	zero,20(a5)
 101:../Firmware/GD32VW55x_standard_peripheral/Source/gd32vw55x_pkcau.c ****     init_para->mont_para     = 0U;
 154              		.loc 1 101 30
 155 003a 8327C4FE 		lw	a5,-20(s0)
 156 003e 23AC0700 		sw	zero,24(a5)
 102:../Firmware/GD32VW55x_standard_peripheral/Source/gd32vw55x_pkcau.c ****     init_para->mont_para_len = 0U;
 157              		.loc 1 102 30
 158 0042 8327C4FE 		lw	a5,-20(s0)
 159 0046 23AE0700 		sw	zero,28(a5)
 103:../Firmware/GD32VW55x_standard_peripheral/Source/gd32vw55x_pkcau.c **** }
 160              		.loc 1 103 1
 161 004a 0100     		nop
 162 004c 7244     		lw	s0,28(sp)
 163              		.cfi_restore 8
 164              		.cfi_def_cfa 2, 32
 165 004e 0561     		addi	sp,sp,32
 166              		.cfi_def_cfa_offset 0
 167 0050 8280     		jr	ra
 168              		.cfi_endproc
 169              	.LFE350:
 171              		.section	.text.pkcau_arithmetic_struct_para_init,"ax",@progbits
 172              		.align	1
 173              		.globl	pkcau_arithmetic_struct_para_init
 175              	pkcau_arithmetic_struct_para_init:
 176              	.LFB351:
 104:../Firmware/GD32VW55x_standard_peripheral/Source/gd32vw55x_pkcau.c **** 
 105:../Firmware/GD32VW55x_standard_peripheral/Source/gd32vw55x_pkcau.c **** /*!
 106:../Firmware/GD32VW55x_standard_peripheral/Source/gd32vw55x_pkcau.c ****     \brief      initialize arithmetic parameter structure with a default value
 107:../Firmware/GD32VW55x_standard_peripheral/Source/gd32vw55x_pkcau.c ****     \param[in]  none
 108:../Firmware/GD32VW55x_standard_peripheral/Source/gd32vw55x_pkcau.c ****     \param[out] init_para: initialize arithmetic parameter struct
 109:../Firmware/GD32VW55x_standard_peripheral/Source/gd32vw55x_pkcau.c ****     \retval     none
 110:../Firmware/GD32VW55x_standard_peripheral/Source/gd32vw55x_pkcau.c **** */
 111:../Firmware/GD32VW55x_standard_peripheral/Source/gd32vw55x_pkcau.c **** void pkcau_arithmetic_struct_para_init(pkcau_arithmetic_parameter_struct* init_para)
 112:../Firmware/GD32VW55x_standard_peripheral/Source/gd32vw55x_pkcau.c **** {
 177              		.loc 1 112 1
 178              		.cfi_startproc
 179 0000 0111     		addi	sp,sp,-32
 180              		.cfi_def_cfa_offset 32
 181 0002 22CE     		sw	s0,28(sp)
 182              		.cfi_offset 8, -4
 183 0004 0010     		addi	s0,sp,32
 184              		.cfi_def_cfa 8, 0
 185 0006 2326A4FE 		sw	a0,-20(s0)
 113:../Firmware/GD32VW55x_standard_peripheral/Source/gd32vw55x_pkcau.c ****     /* initialize the member of arithmetic parameter structure with the default value */
 114:../Firmware/GD32VW55x_standard_peripheral/Source/gd32vw55x_pkcau.c ****     init_para->oprd_a     = 0U;
 186              		.loc 1 114 27
 187 000a 8327C4FE 		lw	a5,-20(s0)
 188 000e 23A00700 		sw	zero,0(a5)
 115:../Firmware/GD32VW55x_standard_peripheral/Source/gd32vw55x_pkcau.c ****     init_para->oprd_a_len = 0U;
 189              		.loc 1 115 27
 190 0012 8327C4FE 		lw	a5,-20(s0)
 191 0016 23A20700 		sw	zero,4(a5)
 116:../Firmware/GD32VW55x_standard_peripheral/Source/gd32vw55x_pkcau.c ****     init_para->oprd_b     = 0U;
 192              		.loc 1 116 27
 193 001a 8327C4FE 		lw	a5,-20(s0)
 194 001e 23A40700 		sw	zero,8(a5)
 117:../Firmware/GD32VW55x_standard_peripheral/Source/gd32vw55x_pkcau.c ****     init_para->oprd_b_len = 0U;
 195              		.loc 1 117 27
 196 0022 8327C4FE 		lw	a5,-20(s0)
 197 0026 23A60700 		sw	zero,12(a5)
 118:../Firmware/GD32VW55x_standard_peripheral/Source/gd32vw55x_pkcau.c **** }
 198              		.loc 1 118 1
 199 002a 0100     		nop
 200 002c 7244     		lw	s0,28(sp)
 201              		.cfi_restore 8
 202              		.cfi_def_cfa 2, 32
 203 002e 0561     		addi	sp,sp,32
 204              		.cfi_def_cfa_offset 0
 205 0030 8280     		jr	ra
 206              		.cfi_endproc
 207              	.LFE351:
 209              		.section	.text.pkcau_crt_struct_para_init,"ax",@progbits
 210              		.align	1
 211              		.globl	pkcau_crt_struct_para_init
 213              	pkcau_crt_struct_para_init:
 214              	.LFB352:
 119:../Firmware/GD32VW55x_standard_peripheral/Source/gd32vw55x_pkcau.c **** 
 120:../Firmware/GD32VW55x_standard_peripheral/Source/gd32vw55x_pkcau.c **** /*!
 121:../Firmware/GD32VW55x_standard_peripheral/Source/gd32vw55x_pkcau.c ****     \brief      initialize CRT parameter structure with a default value
 122:../Firmware/GD32VW55x_standard_peripheral/Source/gd32vw55x_pkcau.c ****     \param[in]  none
 123:../Firmware/GD32VW55x_standard_peripheral/Source/gd32vw55x_pkcau.c ****     \param[out] init_para: initialize CRT parameter struct
 124:../Firmware/GD32VW55x_standard_peripheral/Source/gd32vw55x_pkcau.c ****     \retval     none
 125:../Firmware/GD32VW55x_standard_peripheral/Source/gd32vw55x_pkcau.c **** */
 126:../Firmware/GD32VW55x_standard_peripheral/Source/gd32vw55x_pkcau.c **** void pkcau_crt_struct_para_init(pkcau_crt_parameter_struct* init_para)
 127:../Firmware/GD32VW55x_standard_peripheral/Source/gd32vw55x_pkcau.c **** {
 215              		.loc 1 127 1
 216              		.cfi_startproc
 217 0000 0111     		addi	sp,sp,-32
 218              		.cfi_def_cfa_offset 32
 219 0002 22CE     		sw	s0,28(sp)
 220              		.cfi_offset 8, -4
 221 0004 0010     		addi	s0,sp,32
 222              		.cfi_def_cfa 8, 0
 223 0006 2326A4FE 		sw	a0,-20(s0)
 128:../Firmware/GD32VW55x_standard_peripheral/Source/gd32vw55x_pkcau.c ****     /* initialize the member of arithmetic parameter structure with the default value */
 129:../Firmware/GD32VW55x_standard_peripheral/Source/gd32vw55x_pkcau.c ****     init_para->oprd_a        = 0U;
 224              		.loc 1 129 30
 225 000a 8327C4FE 		lw	a5,-20(s0)
 226 000e 23A00700 		sw	zero,0(a5)
 130:../Firmware/GD32VW55x_standard_peripheral/Source/gd32vw55x_pkcau.c ****     init_para->oprd_a_len    = 0U;
 227              		.loc 1 130 30
 228 0012 8327C4FE 		lw	a5,-20(s0)
 229 0016 23A20700 		sw	zero,4(a5)
 131:../Firmware/GD32VW55x_standard_peripheral/Source/gd32vw55x_pkcau.c ****     init_para->oprd_dp       = 0U;
 230              		.loc 1 131 30
 231 001a 8327C4FE 		lw	a5,-20(s0)
 232 001e 23A40700 		sw	zero,8(a5)
 132:../Firmware/GD32VW55x_standard_peripheral/Source/gd32vw55x_pkcau.c ****     init_para->oprd_dp_len   = 0U;
 233              		.loc 1 132 30
 234 0022 8327C4FE 		lw	a5,-20(s0)
 235 0026 23A60700 		sw	zero,12(a5)
 133:../Firmware/GD32VW55x_standard_peripheral/Source/gd32vw55x_pkcau.c ****     init_para->oprd_dq       = 0U;
 236              		.loc 1 133 30
 237 002a 8327C4FE 		lw	a5,-20(s0)
 238 002e 23A80700 		sw	zero,16(a5)
 134:../Firmware/GD32VW55x_standard_peripheral/Source/gd32vw55x_pkcau.c ****     init_para->oprd_dq_len   = 0U;
 239              		.loc 1 134 30
 240 0032 8327C4FE 		lw	a5,-20(s0)
 241 0036 23AA0700 		sw	zero,20(a5)
 135:../Firmware/GD32VW55x_standard_peripheral/Source/gd32vw55x_pkcau.c ****     init_para->oprd_qinv     = 0U;
 242              		.loc 1 135 30
 243 003a 8327C4FE 		lw	a5,-20(s0)
 244 003e 23AC0700 		sw	zero,24(a5)
 136:../Firmware/GD32VW55x_standard_peripheral/Source/gd32vw55x_pkcau.c ****     init_para->oprd_qinv_len = 0U;
 245              		.loc 1 136 30
 246 0042 8327C4FE 		lw	a5,-20(s0)
 247 0046 23AE0700 		sw	zero,28(a5)
 137:../Firmware/GD32VW55x_standard_peripheral/Source/gd32vw55x_pkcau.c ****     init_para->oprd_p        = 0U;
 248              		.loc 1 137 30
 249 004a 8327C4FE 		lw	a5,-20(s0)
 250 004e 23A00702 		sw	zero,32(a5)
 138:../Firmware/GD32VW55x_standard_peripheral/Source/gd32vw55x_pkcau.c ****     init_para->oprd_p_len    = 0U;
 251              		.loc 1 138 30
 252 0052 8327C4FE 		lw	a5,-20(s0)
 253 0056 23A20702 		sw	zero,36(a5)
 139:../Firmware/GD32VW55x_standard_peripheral/Source/gd32vw55x_pkcau.c ****     init_para->oprd_q        = 0U;
 254              		.loc 1 139 30
 255 005a 8327C4FE 		lw	a5,-20(s0)
 256 005e 23A40702 		sw	zero,40(a5)
 140:../Firmware/GD32VW55x_standard_peripheral/Source/gd32vw55x_pkcau.c ****     init_para->oprd_q_len    = 0U;
 257              		.loc 1 140 30
 258 0062 8327C4FE 		lw	a5,-20(s0)
 259 0066 23A60702 		sw	zero,44(a5)
 141:../Firmware/GD32VW55x_standard_peripheral/Source/gd32vw55x_pkcau.c **** }
 260              		.loc 1 141 1
 261 006a 0100     		nop
 262 006c 7244     		lw	s0,28(sp)
 263              		.cfi_restore 8
 264              		.cfi_def_cfa 2, 32
 265 006e 0561     		addi	sp,sp,32
 266              		.cfi_def_cfa_offset 0
 267 0070 8280     		jr	ra
 268              		.cfi_endproc
 269              	.LFE352:
 271              		.section	.text.pkcau_ec_group_struct_para_init,"ax",@progbits
 272              		.align	1
 273              		.globl	pkcau_ec_group_struct_para_init
 275              	pkcau_ec_group_struct_para_init:
 276              	.LFB353:
 142:../Firmware/GD32VW55x_standard_peripheral/Source/gd32vw55x_pkcau.c **** 
 143:../Firmware/GD32VW55x_standard_peripheral/Source/gd32vw55x_pkcau.c **** /*!
 144:../Firmware/GD32VW55x_standard_peripheral/Source/gd32vw55x_pkcau.c ****     \brief      initialize ECC curve parameter structure with a default value
 145:../Firmware/GD32VW55x_standard_peripheral/Source/gd32vw55x_pkcau.c ****     \param[in]  none
 146:../Firmware/GD32VW55x_standard_peripheral/Source/gd32vw55x_pkcau.c ****     \param[out] init_para: initialize ECC curve parameter struct
 147:../Firmware/GD32VW55x_standard_peripheral/Source/gd32vw55x_pkcau.c ****     \retval     none
 148:../Firmware/GD32VW55x_standard_peripheral/Source/gd32vw55x_pkcau.c **** */
 149:../Firmware/GD32VW55x_standard_peripheral/Source/gd32vw55x_pkcau.c **** void pkcau_ec_group_struct_para_init(pkcau_ec_group_parameter_struct* init_para)
 150:../Firmware/GD32VW55x_standard_peripheral/Source/gd32vw55x_pkcau.c **** {
 277              		.loc 1 150 1
 278              		.cfi_startproc
 279 0000 0111     		addi	sp,sp,-32
 280              		.cfi_def_cfa_offset 32
 281 0002 22CE     		sw	s0,28(sp)
 282              		.cfi_offset 8, -4
 283 0004 0010     		addi	s0,sp,32
 284              		.cfi_def_cfa 8, 0
 285 0006 2326A4FE 		sw	a0,-20(s0)
 151:../Firmware/GD32VW55x_standard_peripheral/Source/gd32vw55x_pkcau.c ****     /* initialize the member of ECC curve parameter structure with the default value */
 152:../Firmware/GD32VW55x_standard_peripheral/Source/gd32vw55x_pkcau.c ****     init_para->modulus_p         = 0U;
 286              		.loc 1 152 34
 287 000a 8327C4FE 		lw	a5,-20(s0)
 288 000e 23A00700 		sw	zero,0(a5)
 153:../Firmware/GD32VW55x_standard_peripheral/Source/gd32vw55x_pkcau.c ****     init_para->modulus_p_len     = 0U;
 289              		.loc 1 153 34
 290 0012 8327C4FE 		lw	a5,-20(s0)
 291 0016 23A20700 		sw	zero,4(a5)
 154:../Firmware/GD32VW55x_standard_peripheral/Source/gd32vw55x_pkcau.c ****     init_para->coff_a            = 0U;
 292              		.loc 1 154 34
 293 001a 8327C4FE 		lw	a5,-20(s0)
 294 001e 23A40700 		sw	zero,8(a5)
 155:../Firmware/GD32VW55x_standard_peripheral/Source/gd32vw55x_pkcau.c ****     init_para->coff_a_len        = 0U;
 295              		.loc 1 155 34
 296 0022 8327C4FE 		lw	a5,-20(s0)
 297 0026 23A60700 		sw	zero,12(a5)
 156:../Firmware/GD32VW55x_standard_peripheral/Source/gd32vw55x_pkcau.c ****     init_para->coff_b            = 0U;
 298              		.loc 1 156 34
 299 002a 8327C4FE 		lw	a5,-20(s0)
 300 002e 23A80700 		sw	zero,16(a5)
 157:../Firmware/GD32VW55x_standard_peripheral/Source/gd32vw55x_pkcau.c ****     init_para->coff_b_len        = 0U;
 301              		.loc 1 157 34
 302 0032 8327C4FE 		lw	a5,-20(s0)
 303 0036 23AA0700 		sw	zero,20(a5)
 158:../Firmware/GD32VW55x_standard_peripheral/Source/gd32vw55x_pkcau.c ****     init_para->base_point_x      = 0U;
 304              		.loc 1 158 34
 305 003a 8327C4FE 		lw	a5,-20(s0)
 306 003e 23AC0700 		sw	zero,24(a5)
 159:../Firmware/GD32VW55x_standard_peripheral/Source/gd32vw55x_pkcau.c ****     init_para->base_point_x_len  = 0U;
 307              		.loc 1 159 34
 308 0042 8327C4FE 		lw	a5,-20(s0)
 309 0046 23AE0700 		sw	zero,28(a5)
 160:../Firmware/GD32VW55x_standard_peripheral/Source/gd32vw55x_pkcau.c ****     init_para->base_point_y      = 0U;
 310              		.loc 1 160 34
 311 004a 8327C4FE 		lw	a5,-20(s0)
 312 004e 23A00702 		sw	zero,32(a5)
 161:../Firmware/GD32VW55x_standard_peripheral/Source/gd32vw55x_pkcau.c ****     init_para->base_point_y_len  = 0U;
 313              		.loc 1 161 34
 314 0052 8327C4FE 		lw	a5,-20(s0)
 315 0056 23A20702 		sw	zero,36(a5)
 162:../Firmware/GD32VW55x_standard_peripheral/Source/gd32vw55x_pkcau.c ****     init_para->order_n           = 0U;
 316              		.loc 1 162 34
 317 005a 8327C4FE 		lw	a5,-20(s0)
 318 005e 23A40702 		sw	zero,40(a5)
 163:../Firmware/GD32VW55x_standard_peripheral/Source/gd32vw55x_pkcau.c ****     init_para->order_n_len       = 0U;
 319              		.loc 1 163 34
 320 0062 8327C4FE 		lw	a5,-20(s0)
 321 0066 23A60702 		sw	zero,44(a5)
 164:../Firmware/GD32VW55x_standard_peripheral/Source/gd32vw55x_pkcau.c ****     init_para->a_sign            = 0U;
 322              		.loc 1 164 34
 323 006a 8327C4FE 		lw	a5,-20(s0)
 324 006e 23A80702 		sw	zero,48(a5)
 165:../Firmware/GD32VW55x_standard_peripheral/Source/gd32vw55x_pkcau.c ****     init_para->multi_k           = 0U;
 325              		.loc 1 165 34
 326 0072 8327C4FE 		lw	a5,-20(s0)
 327 0076 23AA0702 		sw	zero,52(a5)
 166:../Firmware/GD32VW55x_standard_peripheral/Source/gd32vw55x_pkcau.c ****     init_para->multi_k_len       = 0U;
 328              		.loc 1 166 34
 329 007a 8327C4FE 		lw	a5,-20(s0)
 330 007e 23AC0702 		sw	zero,56(a5)
 167:../Firmware/GD32VW55x_standard_peripheral/Source/gd32vw55x_pkcau.c ****     init_para->integer_k         = 0U;
 331              		.loc 1 167 34
 332 0082 8327C4FE 		lw	a5,-20(s0)
 333 0086 23AE0702 		sw	zero,60(a5)
 168:../Firmware/GD32VW55x_standard_peripheral/Source/gd32vw55x_pkcau.c ****     init_para->integer_k_len     = 0U;
 334              		.loc 1 168 34
 335 008a 8327C4FE 		lw	a5,-20(s0)
 336 008e 23A00704 		sw	zero,64(a5)
 169:../Firmware/GD32VW55x_standard_peripheral/Source/gd32vw55x_pkcau.c ****     init_para->private_key_d     = 0U;
 337              		.loc 1 169 34
 338 0092 8327C4FE 		lw	a5,-20(s0)
 339 0096 23A20704 		sw	zero,68(a5)
 170:../Firmware/GD32VW55x_standard_peripheral/Source/gd32vw55x_pkcau.c ****     init_para->private_key_d_len = 0U;
 340              		.loc 1 170 34
 341 009a 8327C4FE 		lw	a5,-20(s0)
 342 009e 23A40704 		sw	zero,72(a5)
 171:../Firmware/GD32VW55x_standard_peripheral/Source/gd32vw55x_pkcau.c ****     init_para->mont_para         = 0U;
 343              		.loc 1 171 34
 344 00a2 8327C4FE 		lw	a5,-20(s0)
 345 00a6 23A60704 		sw	zero,76(a5)
 172:../Firmware/GD32VW55x_standard_peripheral/Source/gd32vw55x_pkcau.c ****     init_para->mont_para_len     = 0U;
 346              		.loc 1 172 34
 347 00aa 8327C4FE 		lw	a5,-20(s0)
 348 00ae 23A80704 		sw	zero,80(a5)
 173:../Firmware/GD32VW55x_standard_peripheral/Source/gd32vw55x_pkcau.c **** }
 349              		.loc 1 173 1
 350 00b2 0100     		nop
 351 00b4 7244     		lw	s0,28(sp)
 352              		.cfi_restore 8
 353              		.cfi_def_cfa 2, 32
 354 00b6 0561     		addi	sp,sp,32
 355              		.cfi_def_cfa_offset 0
 356 00b8 8280     		jr	ra
 357              		.cfi_endproc
 358              	.LFE353:
 360              		.section	.text.pkcau_point_struct_para_init,"ax",@progbits
 361              		.align	1
 362              		.globl	pkcau_point_struct_para_init
 364              	pkcau_point_struct_para_init:
 365              	.LFB354:
 174:../Firmware/GD32VW55x_standard_peripheral/Source/gd32vw55x_pkcau.c **** 
 175:../Firmware/GD32VW55x_standard_peripheral/Source/gd32vw55x_pkcau.c **** /*!
 176:../Firmware/GD32VW55x_standard_peripheral/Source/gd32vw55x_pkcau.c ****     \brief      initialize point parameter structure with a default value
 177:../Firmware/GD32VW55x_standard_peripheral/Source/gd32vw55x_pkcau.c ****     \param[in]  none
 178:../Firmware/GD32VW55x_standard_peripheral/Source/gd32vw55x_pkcau.c ****     \param[out] init_para: initialize point parameter struct
 179:../Firmware/GD32VW55x_standard_peripheral/Source/gd32vw55x_pkcau.c ****     \retval     none
 180:../Firmware/GD32VW55x_standard_peripheral/Source/gd32vw55x_pkcau.c **** */
 181:../Firmware/GD32VW55x_standard_peripheral/Source/gd32vw55x_pkcau.c **** void pkcau_point_struct_para_init(pkcau_point_parameter_struct* init_para)
 182:../Firmware/GD32VW55x_standard_peripheral/Source/gd32vw55x_pkcau.c **** {
 366              		.loc 1 182 1
 367              		.cfi_startproc
 368 0000 0111     		addi	sp,sp,-32
 369              		.cfi_def_cfa_offset 32
 370 0002 22CE     		sw	s0,28(sp)
 371              		.cfi_offset 8, -4
 372 0004 0010     		addi	s0,sp,32
 373              		.cfi_def_cfa 8, 0
 374 0006 2326A4FE 		sw	a0,-20(s0)
 183:../Firmware/GD32VW55x_standard_peripheral/Source/gd32vw55x_pkcau.c ****     /* initialize the member of point parameter structure with the default value */
 184:../Firmware/GD32VW55x_standard_peripheral/Source/gd32vw55x_pkcau.c ****     init_para->point_x     = 0U;
 375              		.loc 1 184 28
 376 000a 8327C4FE 		lw	a5,-20(s0)
 377 000e 23A00700 		sw	zero,0(a5)
 185:../Firmware/GD32VW55x_standard_peripheral/Source/gd32vw55x_pkcau.c ****     init_para->point_x_len = 0U;
 378              		.loc 1 185 28
 379 0012 8327C4FE 		lw	a5,-20(s0)
 380 0016 23A20700 		sw	zero,4(a5)
 186:../Firmware/GD32VW55x_standard_peripheral/Source/gd32vw55x_pkcau.c ****     init_para->point_y     = 0U;
 381              		.loc 1 186 28
 382 001a 8327C4FE 		lw	a5,-20(s0)
 383 001e 23A40700 		sw	zero,8(a5)
 187:../Firmware/GD32VW55x_standard_peripheral/Source/gd32vw55x_pkcau.c ****     init_para->point_y_len = 0U;
 384              		.loc 1 187 28
 385 0022 8327C4FE 		lw	a5,-20(s0)
 386 0026 23A60700 		sw	zero,12(a5)
 188:../Firmware/GD32VW55x_standard_peripheral/Source/gd32vw55x_pkcau.c **** }
 387              		.loc 1 188 1
 388 002a 0100     		nop
 389 002c 7244     		lw	s0,28(sp)
 390              		.cfi_restore 8
 391              		.cfi_def_cfa 2, 32
 392 002e 0561     		addi	sp,sp,32
 393              		.cfi_def_cfa_offset 0
 394 0030 8280     		jr	ra
 395              		.cfi_endproc
 396              	.LFE354:
 398              		.section	.text.pkcau_signature_struct_para_init,"ax",@progbits
 399              		.align	1
 400              		.globl	pkcau_signature_struct_para_init
 402              	pkcau_signature_struct_para_init:
 403              	.LFB355:
 189:../Firmware/GD32VW55x_standard_peripheral/Source/gd32vw55x_pkcau.c **** 
 190:../Firmware/GD32VW55x_standard_peripheral/Source/gd32vw55x_pkcau.c **** /*!
 191:../Firmware/GD32VW55x_standard_peripheral/Source/gd32vw55x_pkcau.c ****     \brief      initialize signature parameter structure with a default value
 192:../Firmware/GD32VW55x_standard_peripheral/Source/gd32vw55x_pkcau.c ****     \param[in]  none
 193:../Firmware/GD32VW55x_standard_peripheral/Source/gd32vw55x_pkcau.c ****     \param[out] init_para: initialize signature parameter struct
 194:../Firmware/GD32VW55x_standard_peripheral/Source/gd32vw55x_pkcau.c ****     \retval     none
 195:../Firmware/GD32VW55x_standard_peripheral/Source/gd32vw55x_pkcau.c **** */
 196:../Firmware/GD32VW55x_standard_peripheral/Source/gd32vw55x_pkcau.c **** void pkcau_signature_struct_para_init(pkcau_signature_parameter_struct* init_para)
 197:../Firmware/GD32VW55x_standard_peripheral/Source/gd32vw55x_pkcau.c **** {
 404              		.loc 1 197 1
 405              		.cfi_startproc
 406 0000 0111     		addi	sp,sp,-32
 407              		.cfi_def_cfa_offset 32
 408 0002 22CE     		sw	s0,28(sp)
 409              		.cfi_offset 8, -4
 410 0004 0010     		addi	s0,sp,32
 411              		.cfi_def_cfa 8, 0
 412 0006 2326A4FE 		sw	a0,-20(s0)
 198:../Firmware/GD32VW55x_standard_peripheral/Source/gd32vw55x_pkcau.c ****     /* initialize the member of signature parameter structure with the default value */
 199:../Firmware/GD32VW55x_standard_peripheral/Source/gd32vw55x_pkcau.c ****     init_para->sign_r     = 0U;
 413              		.loc 1 199 27
 414 000a 8327C4FE 		lw	a5,-20(s0)
 415 000e 23A00700 		sw	zero,0(a5)
 200:../Firmware/GD32VW55x_standard_peripheral/Source/gd32vw55x_pkcau.c ****     init_para->sign_r_len = 0U;
 416              		.loc 1 200 27
 417 0012 8327C4FE 		lw	a5,-20(s0)
 418 0016 23A20700 		sw	zero,4(a5)
 201:../Firmware/GD32VW55x_standard_peripheral/Source/gd32vw55x_pkcau.c ****     init_para->sign_s     = 0U;
 419              		.loc 1 201 27
 420 001a 8327C4FE 		lw	a5,-20(s0)
 421 001e 23A40700 		sw	zero,8(a5)
 202:../Firmware/GD32VW55x_standard_peripheral/Source/gd32vw55x_pkcau.c ****     init_para->sign_s_len = 0U;
 422              		.loc 1 202 27
 423 0022 8327C4FE 		lw	a5,-20(s0)
 424 0026 23A60700 		sw	zero,12(a5)
 203:../Firmware/GD32VW55x_standard_peripheral/Source/gd32vw55x_pkcau.c **** }
 425              		.loc 1 203 1
 426 002a 0100     		nop
 427 002c 7244     		lw	s0,28(sp)
 428              		.cfi_restore 8
 429              		.cfi_def_cfa 2, 32
 430 002e 0561     		addi	sp,sp,32
 431              		.cfi_def_cfa_offset 0
 432 0030 8280     		jr	ra
 433              		.cfi_endproc
 434              	.LFE355:
 436              		.section	.text.pkcau_hash_struct_para_init,"ax",@progbits
 437              		.align	1
 438              		.globl	pkcau_hash_struct_para_init
 440              	pkcau_hash_struct_para_init:
 441              	.LFB356:
 204:../Firmware/GD32VW55x_standard_peripheral/Source/gd32vw55x_pkcau.c **** 
 205:../Firmware/GD32VW55x_standard_peripheral/Source/gd32vw55x_pkcau.c **** /*!
 206:../Firmware/GD32VW55x_standard_peripheral/Source/gd32vw55x_pkcau.c ****     \brief      initialize hash parameter structure with a default value
 207:../Firmware/GD32VW55x_standard_peripheral/Source/gd32vw55x_pkcau.c ****     \param[in]  none
 208:../Firmware/GD32VW55x_standard_peripheral/Source/gd32vw55x_pkcau.c ****     \param[out] init_para: initialize hash parameter struct
 209:../Firmware/GD32VW55x_standard_peripheral/Source/gd32vw55x_pkcau.c ****     \retval     none
 210:../Firmware/GD32VW55x_standard_peripheral/Source/gd32vw55x_pkcau.c **** */
 211:../Firmware/GD32VW55x_standard_peripheral/Source/gd32vw55x_pkcau.c **** void pkcau_hash_struct_para_init(pkcau_hash_parameter_struct* init_para)
 212:../Firmware/GD32VW55x_standard_peripheral/Source/gd32vw55x_pkcau.c **** {
 442              		.loc 1 212 1
 443              		.cfi_startproc
 444 0000 0111     		addi	sp,sp,-32
 445              		.cfi_def_cfa_offset 32
 446 0002 22CE     		sw	s0,28(sp)
 447              		.cfi_offset 8, -4
 448 0004 0010     		addi	s0,sp,32
 449              		.cfi_def_cfa 8, 0
 450 0006 2326A4FE 		sw	a0,-20(s0)
 213:../Firmware/GD32VW55x_standard_peripheral/Source/gd32vw55x_pkcau.c ****     /* initialize the member of hash parameter structure with the default value */
 214:../Firmware/GD32VW55x_standard_peripheral/Source/gd32vw55x_pkcau.c ****     init_para->hash_z     = 0U;
 451              		.loc 1 214 27
 452 000a 8327C4FE 		lw	a5,-20(s0)
 453 000e 23A00700 		sw	zero,0(a5)
 215:../Firmware/GD32VW55x_standard_peripheral/Source/gd32vw55x_pkcau.c ****     init_para->hash_z_len = 0U;
 454              		.loc 1 215 27
 455 0012 8327C4FE 		lw	a5,-20(s0)
 456 0016 23A20700 		sw	zero,4(a5)
 216:../Firmware/GD32VW55x_standard_peripheral/Source/gd32vw55x_pkcau.c **** }
 457              		.loc 1 216 1
 458 001a 0100     		nop
 459 001c 7244     		lw	s0,28(sp)
 460              		.cfi_restore 8
 461              		.cfi_def_cfa 2, 32
 462 001e 0561     		addi	sp,sp,32
 463              		.cfi_def_cfa_offset 0
 464 0020 8280     		jr	ra
 465              		.cfi_endproc
 466              	.LFE356:
 468              		.section	.text.pkcau_ecc_out_struct_para_init,"ax",@progbits
 469              		.align	1
 470              		.globl	pkcau_ecc_out_struct_para_init
 472              	pkcau_ecc_out_struct_para_init:
 473              	.LFB357:
 217:../Firmware/GD32VW55x_standard_peripheral/Source/gd32vw55x_pkcau.c **** 
 218:../Firmware/GD32VW55x_standard_peripheral/Source/gd32vw55x_pkcau.c **** /*!
 219:../Firmware/GD32VW55x_standard_peripheral/Source/gd32vw55x_pkcau.c ****     \brief      initialize ECC out parameter structure with a default value
 220:../Firmware/GD32VW55x_standard_peripheral/Source/gd32vw55x_pkcau.c ****     \param[in]  none
 221:../Firmware/GD32VW55x_standard_peripheral/Source/gd32vw55x_pkcau.c ****     \param[out] init_para: initialize ECC out parameter struct
 222:../Firmware/GD32VW55x_standard_peripheral/Source/gd32vw55x_pkcau.c ****     \retval     none
 223:../Firmware/GD32VW55x_standard_peripheral/Source/gd32vw55x_pkcau.c **** */
 224:../Firmware/GD32VW55x_standard_peripheral/Source/gd32vw55x_pkcau.c **** void pkcau_ecc_out_struct_para_init(pkcau_ecc_out_struct* init_para)
 225:../Firmware/GD32VW55x_standard_peripheral/Source/gd32vw55x_pkcau.c **** {
 474              		.loc 1 225 1
 475              		.cfi_startproc
 476 0000 0111     		addi	sp,sp,-32
 477              		.cfi_def_cfa_offset 32
 478 0002 22CE     		sw	s0,28(sp)
 479              		.cfi_offset 8, -4
 480 0004 0010     		addi	s0,sp,32
 481              		.cfi_def_cfa 8, 0
 482 0006 2326A4FE 		sw	a0,-20(s0)
 226:../Firmware/GD32VW55x_standard_peripheral/Source/gd32vw55x_pkcau.c ****     /* initialize ecc output parameter structure with a default value */
 227:../Firmware/GD32VW55x_standard_peripheral/Source/gd32vw55x_pkcau.c ****     init_para->sign_extra = 0U;
 483              		.loc 1 227 27
 484 000a 8327C4FE 		lw	a5,-20(s0)
 485 000e 23A00700 		sw	zero,0(a5)
 228:../Firmware/GD32VW55x_standard_peripheral/Source/gd32vw55x_pkcau.c ****     init_para->point_x    = 0U;
 486              		.loc 1 228 27
 487 0012 8327C4FE 		lw	a5,-20(s0)
 488 0016 23A60700 		sw	zero,12(a5)
 229:../Firmware/GD32VW55x_standard_peripheral/Source/gd32vw55x_pkcau.c ****     init_para->point_y    = 0U;
 489              		.loc 1 229 27
 490 001a 8327C4FE 		lw	a5,-20(s0)
 491 001e 23A80700 		sw	zero,16(a5)
 230:../Firmware/GD32VW55x_standard_peripheral/Source/gd32vw55x_pkcau.c ****     init_para->sign_r     = 0U;
 492              		.loc 1 230 27
 493 0022 8327C4FE 		lw	a5,-20(s0)
 494 0026 23A20700 		sw	zero,4(a5)
 231:../Firmware/GD32VW55x_standard_peripheral/Source/gd32vw55x_pkcau.c ****     init_para->sign_s     = 0U;
 495              		.loc 1 231 27
 496 002a 8327C4FE 		lw	a5,-20(s0)
 497 002e 23A40700 		sw	zero,8(a5)
 232:../Firmware/GD32VW55x_standard_peripheral/Source/gd32vw55x_pkcau.c **** }
 498              		.loc 1 232 1
 499 0032 0100     		nop
 500 0034 7244     		lw	s0,28(sp)
 501              		.cfi_restore 8
 502              		.cfi_def_cfa 2, 32
 503 0036 0561     		addi	sp,sp,32
 504              		.cfi_def_cfa_offset 0
 505 0038 8280     		jr	ra
 506              		.cfi_endproc
 507              	.LFE357:
 509              		.section	.text.pkcau_enable,"ax",@progbits
 510              		.align	1
 511              		.globl	pkcau_enable
 513              	pkcau_enable:
 514              	.LFB358:
 233:../Firmware/GD32VW55x_standard_peripheral/Source/gd32vw55x_pkcau.c **** 
 234:../Firmware/GD32VW55x_standard_peripheral/Source/gd32vw55x_pkcau.c **** /*!
 235:../Firmware/GD32VW55x_standard_peripheral/Source/gd32vw55x_pkcau.c ****     \brief      enable PKCAU
 236:../Firmware/GD32VW55x_standard_peripheral/Source/gd32vw55x_pkcau.c ****     \param[in]  none
 237:../Firmware/GD32VW55x_standard_peripheral/Source/gd32vw55x_pkcau.c ****     \param[out] none
 238:../Firmware/GD32VW55x_standard_peripheral/Source/gd32vw55x_pkcau.c ****     \retval     none
 239:../Firmware/GD32VW55x_standard_peripheral/Source/gd32vw55x_pkcau.c **** */
 240:../Firmware/GD32VW55x_standard_peripheral/Source/gd32vw55x_pkcau.c **** void pkcau_enable(void)
 241:../Firmware/GD32VW55x_standard_peripheral/Source/gd32vw55x_pkcau.c **** {
 515              		.loc 1 241 1
 516              		.cfi_startproc
 517 0000 4111     		addi	sp,sp,-16
 518              		.cfi_def_cfa_offset 16
 519 0002 22C6     		sw	s0,12(sp)
 520              		.cfi_offset 8, -4
 521 0004 0008     		addi	s0,sp,16
 522              		.cfi_def_cfa 8, 0
 242:../Firmware/GD32VW55x_standard_peripheral/Source/gd32vw55x_pkcau.c ****     PKCAU_CTL |= PKCAU_CTL_PKCAUEN;
 523              		.loc 1 242 15
 524 0006 B717064C 		li	a5,1275465728
 525 000a 9843     		lw	a4,0(a5)
 526 000c B717064C 		li	a5,1275465728
 527 0010 13671700 		ori	a4,a4,1
 528 0014 98C3     		sw	a4,0(a5)
 243:../Firmware/GD32VW55x_standard_peripheral/Source/gd32vw55x_pkcau.c **** }
 529              		.loc 1 243 1
 530 0016 0100     		nop
 531 0018 3244     		lw	s0,12(sp)
 532              		.cfi_restore 8
 533              		.cfi_def_cfa 2, 16
 534 001a 4101     		addi	sp,sp,16
 535              		.cfi_def_cfa_offset 0
 536 001c 8280     		jr	ra
 537              		.cfi_endproc
 538              	.LFE358:
 540              		.section	.text.pkcau_disable,"ax",@progbits
 541              		.align	1
 542              		.globl	pkcau_disable
 544              	pkcau_disable:
 545              	.LFB359:
 244:../Firmware/GD32VW55x_standard_peripheral/Source/gd32vw55x_pkcau.c **** 
 245:../Firmware/GD32VW55x_standard_peripheral/Source/gd32vw55x_pkcau.c **** /*!
 246:../Firmware/GD32VW55x_standard_peripheral/Source/gd32vw55x_pkcau.c ****     \brief      disable PKCAU
 247:../Firmware/GD32VW55x_standard_peripheral/Source/gd32vw55x_pkcau.c ****     \param[in]  none
 248:../Firmware/GD32VW55x_standard_peripheral/Source/gd32vw55x_pkcau.c ****     \param[out] none
 249:../Firmware/GD32VW55x_standard_peripheral/Source/gd32vw55x_pkcau.c ****     \retval     none
 250:../Firmware/GD32VW55x_standard_peripheral/Source/gd32vw55x_pkcau.c **** */
 251:../Firmware/GD32VW55x_standard_peripheral/Source/gd32vw55x_pkcau.c **** void pkcau_disable(void)
 252:../Firmware/GD32VW55x_standard_peripheral/Source/gd32vw55x_pkcau.c **** {
 546              		.loc 1 252 1
 547              		.cfi_startproc
 548 0000 4111     		addi	sp,sp,-16
 549              		.cfi_def_cfa_offset 16
 550 0002 22C6     		sw	s0,12(sp)
 551              		.cfi_offset 8, -4
 552 0004 0008     		addi	s0,sp,16
 553              		.cfi_def_cfa 8, 0
 253:../Firmware/GD32VW55x_standard_peripheral/Source/gd32vw55x_pkcau.c ****     PKCAU_CTL &= ~PKCAU_CTL_PKCAUEN;
 554              		.loc 1 253 15
 555 0006 B717064C 		li	a5,1275465728
 556 000a 9843     		lw	a4,0(a5)
 557 000c B717064C 		li	a5,1275465728
 558 0010 799B     		andi	a4,a4,-2
 559 0012 98C3     		sw	a4,0(a5)
 254:../Firmware/GD32VW55x_standard_peripheral/Source/gd32vw55x_pkcau.c **** }
 560              		.loc 1 254 1
 561 0014 0100     		nop
 562 0016 3244     		lw	s0,12(sp)
 563              		.cfi_restore 8
 564              		.cfi_def_cfa 2, 16
 565 0018 4101     		addi	sp,sp,16
 566              		.cfi_def_cfa_offset 0
 567 001a 8280     		jr	ra
 568              		.cfi_endproc
 569              	.LFE359:
 571              		.section	.text.pkcau_start,"ax",@progbits
 572              		.align	1
 573              		.globl	pkcau_start
 575              	pkcau_start:
 576              	.LFB360:
 255:../Firmware/GD32VW55x_standard_peripheral/Source/gd32vw55x_pkcau.c **** 
 256:../Firmware/GD32VW55x_standard_peripheral/Source/gd32vw55x_pkcau.c **** /*!
 257:../Firmware/GD32VW55x_standard_peripheral/Source/gd32vw55x_pkcau.c ****     \brief      start operation
 258:../Firmware/GD32VW55x_standard_peripheral/Source/gd32vw55x_pkcau.c ****     \param[in]  none
 259:../Firmware/GD32VW55x_standard_peripheral/Source/gd32vw55x_pkcau.c ****     \param[out] none
 260:../Firmware/GD32VW55x_standard_peripheral/Source/gd32vw55x_pkcau.c ****     \retval     none
 261:../Firmware/GD32VW55x_standard_peripheral/Source/gd32vw55x_pkcau.c **** */
 262:../Firmware/GD32VW55x_standard_peripheral/Source/gd32vw55x_pkcau.c **** void pkcau_start(void)
 263:../Firmware/GD32VW55x_standard_peripheral/Source/gd32vw55x_pkcau.c **** {
 577              		.loc 1 263 1
 578              		.cfi_startproc
 579 0000 4111     		addi	sp,sp,-16
 580              		.cfi_def_cfa_offset 16
 581 0002 22C6     		sw	s0,12(sp)
 582              		.cfi_offset 8, -4
 583 0004 0008     		addi	s0,sp,16
 584              		.cfi_def_cfa 8, 0
 264:../Firmware/GD32VW55x_standard_peripheral/Source/gd32vw55x_pkcau.c ****     PKCAU_CTL |= PKCAU_CTL_START;
 585              		.loc 1 264 15
 586 0006 B717064C 		li	a5,1275465728
 587 000a 9843     		lw	a4,0(a5)
 588 000c B717064C 		li	a5,1275465728
 589 0010 13672700 		ori	a4,a4,2
 590 0014 98C3     		sw	a4,0(a5)
 265:../Firmware/GD32VW55x_standard_peripheral/Source/gd32vw55x_pkcau.c **** }
 591              		.loc 1 265 1
 592 0016 0100     		nop
 593 0018 3244     		lw	s0,12(sp)
 594              		.cfi_restore 8
 595              		.cfi_def_cfa 2, 16
 596 001a 4101     		addi	sp,sp,16
 597              		.cfi_def_cfa_offset 0
 598 001c 8280     		jr	ra
 599              		.cfi_endproc
 600              	.LFE360:
 602              		.section	.text.pkcau_mode_set,"ax",@progbits
 603              		.align	1
 604              		.globl	pkcau_mode_set
 606              	pkcau_mode_set:
 607              	.LFB361:
 266:../Firmware/GD32VW55x_standard_peripheral/Source/gd32vw55x_pkcau.c **** 
 267:../Firmware/GD32VW55x_standard_peripheral/Source/gd32vw55x_pkcau.c **** /*!
 268:../Firmware/GD32VW55x_standard_peripheral/Source/gd32vw55x_pkcau.c ****     \brief      configure the PKCAU operation mode
 269:../Firmware/GD32VW55x_standard_peripheral/Source/gd32vw55x_pkcau.c ****     \param[in]  mode: PKCAU operation mode
 270:../Firmware/GD32VW55x_standard_peripheral/Source/gd32vw55x_pkcau.c ****                 only one parameter can be selected which is shown as below:
 271:../Firmware/GD32VW55x_standard_peripheral/Source/gd32vw55x_pkcau.c ****       \arg        PKCAU_MODE_MOD_EXP: Montgomery parameter computation then modular exponentiation
 272:../Firmware/GD32VW55x_standard_peripheral/Source/gd32vw55x_pkcau.c ****       \arg        PKCAU_MODE_MONT_PARAM: Montgomery parameter computation only
 273:../Firmware/GD32VW55x_standard_peripheral/Source/gd32vw55x_pkcau.c ****       \arg        PKCAU_MODE_MOD_EXP_FAST: modular exponentiation only
 274:../Firmware/GD32VW55x_standard_peripheral/Source/gd32vw55x_pkcau.c ****       \arg        PKCAU_MODE_CRT_EXP: RSA CRT exponentiation
 275:../Firmware/GD32VW55x_standard_peripheral/Source/gd32vw55x_pkcau.c ****       \arg        PKCAU_MODE_MOD_INVERSION: modular inversion
 276:../Firmware/GD32VW55x_standard_peripheral/Source/gd32vw55x_pkcau.c ****       \arg        PKCAU_MODE_ARITHMETIC_ADD: arithmetic addition
 277:../Firmware/GD32VW55x_standard_peripheral/Source/gd32vw55x_pkcau.c ****       \arg        PKCAU_MODE_ARITHMETIC_SUB: arithmetic subtraction
 278:../Firmware/GD32VW55x_standard_peripheral/Source/gd32vw55x_pkcau.c ****       \arg        PKCAU_MODE_ARITHMETIC_MUL: arithmetic multiplication
 279:../Firmware/GD32VW55x_standard_peripheral/Source/gd32vw55x_pkcau.c ****       \arg        PKCAU_MODE_ARITHMETIC_COMP: arithmetic comparison
 280:../Firmware/GD32VW55x_standard_peripheral/Source/gd32vw55x_pkcau.c ****       \arg        PKCAU_MODE_MOD_REDUCTION: modular reduction
 281:../Firmware/GD32VW55x_standard_peripheral/Source/gd32vw55x_pkcau.c ****       \arg        PKCAU_MODE_MOD_ADD: modular addition
 282:../Firmware/GD32VW55x_standard_peripheral/Source/gd32vw55x_pkcau.c ****       \arg        PKCAU_MODE_MOD_SUB: modular subtraction
 283:../Firmware/GD32VW55x_standard_peripheral/Source/gd32vw55x_pkcau.c ****       \arg        PKCAU_MODE_MONT_MUL: Montgomery multiplication
 284:../Firmware/GD32VW55x_standard_peripheral/Source/gd32vw55x_pkcau.c ****       \arg        PKCAU_MODE_ECC_MUL: Montgomery parameter computation then ECC scalar multiplicati
 285:../Firmware/GD32VW55x_standard_peripheral/Source/gd32vw55x_pkcau.c ****       \arg        PKCAU_MODE_ECC_MUL_FAST: ECC scalar multiplication only
 286:../Firmware/GD32VW55x_standard_peripheral/Source/gd32vw55x_pkcau.c ****       \arg        PKCAU_MODE_ECDSA_SIGN: ECDSA sign
 287:../Firmware/GD32VW55x_standard_peripheral/Source/gd32vw55x_pkcau.c ****       \arg        PKCAU_MODE_ECDSA_VERIFICATION: ECDSA verification
 288:../Firmware/GD32VW55x_standard_peripheral/Source/gd32vw55x_pkcau.c ****       \arg        PKCAU_MODE_POINT_CHECK: point on elliptic curve Fp check
 289:../Firmware/GD32VW55x_standard_peripheral/Source/gd32vw55x_pkcau.c ****     \retval     none
 290:../Firmware/GD32VW55x_standard_peripheral/Source/gd32vw55x_pkcau.c **** */
 291:../Firmware/GD32VW55x_standard_peripheral/Source/gd32vw55x_pkcau.c **** void pkcau_mode_set(uint32_t mode)
 292:../Firmware/GD32VW55x_standard_peripheral/Source/gd32vw55x_pkcau.c **** {
 608              		.loc 1 292 1
 609              		.cfi_startproc
 610 0000 0111     		addi	sp,sp,-32
 611              		.cfi_def_cfa_offset 32
 612 0002 22CE     		sw	s0,28(sp)
 613              		.cfi_offset 8, -4
 614 0004 0010     		addi	s0,sp,32
 615              		.cfi_def_cfa 8, 0
 616 0006 2326A4FE 		sw	a0,-20(s0)
 293:../Firmware/GD32VW55x_standard_peripheral/Source/gd32vw55x_pkcau.c ****     PKCAU_CTL &= ~PKCAU_CTL_MODESEL;
 617              		.loc 1 293 15
 618 000a B717064C 		li	a5,1275465728
 619 000e 9443     		lw	a3,0(a5)
 620 0010 B717064C 		li	a5,1275465728
 621 0014 7177     		li	a4,-16384
 622 0016 1307F70F 		addi	a4,a4,255
 623 001a 758F     		and	a4,a3,a4
 624 001c 98C3     		sw	a4,0(a5)
 294:../Firmware/GD32VW55x_standard_peripheral/Source/gd32vw55x_pkcau.c ****     PKCAU_CTL |= mode;
 625              		.loc 1 294 15
 626 001e B717064C 		li	a5,1275465728
 627 0022 9443     		lw	a3,0(a5)
 628 0024 B717064C 		li	a5,1275465728
 629 0028 0327C4FE 		lw	a4,-20(s0)
 630 002c 558F     		or	a4,a3,a4
 631 002e 98C3     		sw	a4,0(a5)
 295:../Firmware/GD32VW55x_standard_peripheral/Source/gd32vw55x_pkcau.c **** }
 632              		.loc 1 295 1
 633 0030 0100     		nop
 634 0032 7244     		lw	s0,28(sp)
 635              		.cfi_restore 8
 636              		.cfi_def_cfa 2, 32
 637 0034 0561     		addi	sp,sp,32
 638              		.cfi_def_cfa_offset 0
 639 0036 8280     		jr	ra
 640              		.cfi_endproc
 641              	.LFE361:
 643              		.section	.text.pkcau_mont_param_operation,"ax",@progbits
 644              		.align	1
 645              		.globl	pkcau_mont_param_operation
 647              	pkcau_mont_param_operation:
 648              	.LFB362:
 296:../Firmware/GD32VW55x_standard_peripheral/Source/gd32vw55x_pkcau.c **** 
 297:../Firmware/GD32VW55x_standard_peripheral/Source/gd32vw55x_pkcau.c **** /*!
 298:../Firmware/GD32VW55x_standard_peripheral/Source/gd32vw55x_pkcau.c ****     \brief      execute montgomery parameter operation
 299:../Firmware/GD32VW55x_standard_peripheral/Source/gd32vw55x_pkcau.c ****                 This function can only be used when interrupt is not enabled
 300:../Firmware/GD32VW55x_standard_peripheral/Source/gd32vw55x_pkcau.c ****     \param[in]  mont_para: PKCAU montgomery parameter struct
 301:../Firmware/GD32VW55x_standard_peripheral/Source/gd32vw55x_pkcau.c ****                   modulus_n: modulus value n
 302:../Firmware/GD32VW55x_standard_peripheral/Source/gd32vw55x_pkcau.c ****                   modulus_n_len: modulus length in byte
 303:../Firmware/GD32VW55x_standard_peripheral/Source/gd32vw55x_pkcau.c ****     \param[out] results: output buffer
 304:../Firmware/GD32VW55x_standard_peripheral/Source/gd32vw55x_pkcau.c ****     \retval     none
 305:../Firmware/GD32VW55x_standard_peripheral/Source/gd32vw55x_pkcau.c **** */
 306:../Firmware/GD32VW55x_standard_peripheral/Source/gd32vw55x_pkcau.c **** void pkcau_mont_param_operation(pkcau_mont_parameter_struct* mont_para, uint8_t* results)
 307:../Firmware/GD32VW55x_standard_peripheral/Source/gd32vw55x_pkcau.c **** {
 649              		.loc 1 307 1
 650              		.cfi_startproc
 651 0000 0111     		addi	sp,sp,-32
 652              		.cfi_def_cfa_offset 32
 653 0002 06CE     		sw	ra,28(sp)
 654 0004 22CC     		sw	s0,24(sp)
 655              		.cfi_offset 1, -4
 656              		.cfi_offset 8, -8
 657 0006 0010     		addi	s0,sp,32
 658              		.cfi_def_cfa 8, 0
 659 0008 2326A4FE 		sw	a0,-20(s0)
 660 000c 2324B4FE 		sw	a1,-24(s0)
 308:../Firmware/GD32VW55x_standard_peripheral/Source/gd32vw55x_pkcau.c ****     /* reset PKCAU */
 309:../Firmware/GD32VW55x_standard_peripheral/Source/gd32vw55x_pkcau.c ****     pkcau_deinit();
 661              		.loc 1 309 5
 662 0010 97000000 		call	pkcau_deinit
 662      E7800000 
 310:../Firmware/GD32VW55x_standard_peripheral/Source/gd32vw55x_pkcau.c ****     /* enable PKCAU */
 311:../Firmware/GD32VW55x_standard_peripheral/Source/gd32vw55x_pkcau.c ****     pkcau_enable();
 663              		.loc 1 311 5
 664 0018 97000000 		call	pkcau_enable
 664      E7800000 
 312:../Firmware/GD32VW55x_standard_peripheral/Source/gd32vw55x_pkcau.c ****     /* wait for PKCAU busy flag to reset */
 313:../Firmware/GD32VW55x_standard_peripheral/Source/gd32vw55x_pkcau.c ****     while(RESET != pkcau_flag_get(PKCAU_FLAG_BUSY));
 665              		.loc 1 313 10
 666 0020 0100     		nop
 667              	.L17:
 668              		.loc 1 313 20 discriminator 1
 669 0022 4165     		li	a0,65536
 670 0024 97000000 		call	pkcau_flag_get
 670      E7800000 
 671 002c AA87     		mv	a5,a0
 672              		.loc 1 313 10 discriminator 1
 673 002e F5FB     		bne	a5,zero,.L17
 314:../Firmware/GD32VW55x_standard_peripheral/Source/gd32vw55x_pkcau.c ****     /* clear end flag */
 315:../Firmware/GD32VW55x_standard_peripheral/Source/gd32vw55x_pkcau.c ****     pkcau_flag_clear(PKCAU_FLAG_END);
 674              		.loc 1 315 5
 675 0030 37050200 		li	a0,131072
 676 0034 97000000 		call	pkcau_flag_clear
 676      E7800000 
 316:../Firmware/GD32VW55x_standard_peripheral/Source/gd32vw55x_pkcau.c **** 
 317:../Firmware/GD32VW55x_standard_peripheral/Source/gd32vw55x_pkcau.c ****     /* write the modulus length in bit to PKCAU RAM */
 318:../Firmware/GD32VW55x_standard_peripheral/Source/gd32vw55x_pkcau.c ****     pkcau_memcpy_value(0x00000404U, (mont_para->modulus_n_len << 3));
 677              		.loc 1 318 47
 678 003c 8327C4FE 		lw	a5,-20(s0)
 679 0040 DC43     		lw	a5,4(a5)
 680              		.loc 1 318 5
 681 0042 8E07     		slli	a5,a5,3
 682 0044 BE85     		mv	a1,a5
 683 0046 13054040 		li	a0,1028
 684 004a 97000000 		call	pkcau_memcpy_value
 684      E7800000 
 319:../Firmware/GD32VW55x_standard_peripheral/Source/gd32vw55x_pkcau.c **** 
 320:../Firmware/GD32VW55x_standard_peripheral/Source/gd32vw55x_pkcau.c ****     /* write the modulus value n to PKCAU RAM */
 321:../Firmware/GD32VW55x_standard_peripheral/Source/gd32vw55x_pkcau.c ****     pkcau_memcpy_operand(0x00000D5CU, mont_para->modulus_n, mont_para->modulus_n_len);
 685              		.loc 1 321 5
 686 0052 8327C4FE 		lw	a5,-20(s0)
 687 0056 9843     		lw	a4,0(a5)
 688 0058 8327C4FE 		lw	a5,-20(s0)
 689 005c DC43     		lw	a5,4(a5)
 690 005e 3E86     		mv	a2,a5
 691 0060 BA85     		mv	a1,a4
 692 0062 8567     		li	a5,4096
 693 0064 1385C7D5 		addi	a0,a5,-676
 694 0068 97000000 		call	pkcau_memcpy_operand
 694      E7800000 
 322:../Firmware/GD32VW55x_standard_peripheral/Source/gd32vw55x_pkcau.c ****     /* configure the operation mode */
 323:../Firmware/GD32VW55x_standard_peripheral/Source/gd32vw55x_pkcau.c ****     pkcau_mode_set(PKCAU_MODE_MONT_PARAM);
 695              		.loc 1 323 5
 696 0070 13050010 		li	a0,256
 697 0074 97000000 		call	pkcau_mode_set
 697      E7800000 
 324:../Firmware/GD32VW55x_standard_peripheral/Source/gd32vw55x_pkcau.c ****     /* start computation */
 325:../Firmware/GD32VW55x_standard_peripheral/Source/gd32vw55x_pkcau.c ****     pkcau_start();
 698              		.loc 1 325 5
 699 007c 97000000 		call	pkcau_start
 699      E7800000 
 326:../Firmware/GD32VW55x_standard_peripheral/Source/gd32vw55x_pkcau.c **** 
 327:../Firmware/GD32VW55x_standard_peripheral/Source/gd32vw55x_pkcau.c ****     /* wait for PKCAU operation completed */
 328:../Firmware/GD32VW55x_standard_peripheral/Source/gd32vw55x_pkcau.c ****     while(SET != pkcau_flag_get(PKCAU_FLAG_END));
 700              		.loc 1 328 10
 701 0084 0100     		nop
 702              	.L18:
 703              		.loc 1 328 18 discriminator 1
 704 0086 37050200 		li	a0,131072
 705 008a 97000000 		call	pkcau_flag_get
 705      E7800000 
 706 0092 2A87     		mv	a4,a0
 707              		.loc 1 328 10 discriminator 1
 708 0094 8547     		li	a5,1
 709 0096 E318F7FE 		bne	a4,a5,.L18
 329:../Firmware/GD32VW55x_standard_peripheral/Source/gd32vw55x_pkcau.c ****     /* read results from RAM address */
 330:../Firmware/GD32VW55x_standard_peripheral/Source/gd32vw55x_pkcau.c ****     pkcau_memread(0x594, (uint8_t *)results, mont_para->modulus_n_len);
 710              		.loc 1 330 5
 711 009a 8327C4FE 		lw	a5,-20(s0)
 712 009e DC43     		lw	a5,4(a5)
 713 00a0 3E86     		mv	a2,a5
 714 00a2 832584FE 		lw	a1,-24(s0)
 715 00a6 13054059 		li	a0,1428
 716 00aa 97000000 		call	pkcau_memread
 716      E7800000 
 331:../Firmware/GD32VW55x_standard_peripheral/Source/gd32vw55x_pkcau.c ****     /* clear end flag */
 332:../Firmware/GD32VW55x_standard_peripheral/Source/gd32vw55x_pkcau.c ****     pkcau_flag_clear(PKCAU_FLAG_END);
 717              		.loc 1 332 5
 718 00b2 37050200 		li	a0,131072
 719 00b6 97000000 		call	pkcau_flag_clear
 719      E7800000 
 333:../Firmware/GD32VW55x_standard_peripheral/Source/gd32vw55x_pkcau.c ****     /* disable PKCAU */
 334:../Firmware/GD32VW55x_standard_peripheral/Source/gd32vw55x_pkcau.c ****     pkcau_disable();
 720              		.loc 1 334 5
 721 00be 97000000 		call	pkcau_disable
 721      E7800000 
 335:../Firmware/GD32VW55x_standard_peripheral/Source/gd32vw55x_pkcau.c **** }
 722              		.loc 1 335 1
 723 00c6 0100     		nop
 724 00c8 F240     		lw	ra,28(sp)
 725              		.cfi_restore 1
 726 00ca 6244     		lw	s0,24(sp)
 727              		.cfi_restore 8
 728              		.cfi_def_cfa 2, 32
 729 00cc 0561     		addi	sp,sp,32
 730              		.cfi_def_cfa_offset 0
 731 00ce 8280     		jr	ra
 732              		.cfi_endproc
 733              	.LFE362:
 735              		.section	.text.pkcau_mod_operation,"ax",@progbits
 736              		.align	1
 737              		.globl	pkcau_mod_operation
 739              	pkcau_mod_operation:
 740              	.LFB363:
 336:../Firmware/GD32VW55x_standard_peripheral/Source/gd32vw55x_pkcau.c **** 
 337:../Firmware/GD32VW55x_standard_peripheral/Source/gd32vw55x_pkcau.c **** /*!
 338:../Firmware/GD32VW55x_standard_peripheral/Source/gd32vw55x_pkcau.c ****     \brief      execute modular operation, include modular addition, modular subtraction and montgo
 339:../Firmware/GD32VW55x_standard_peripheral/Source/gd32vw55x_pkcau.c ****                 This function can only be used when interrupt is not enabled
 340:../Firmware/GD32VW55x_standard_peripheral/Source/gd32vw55x_pkcau.c ****     \param[in]  mont_para: PKCAU modular parameter struct
 341:../Firmware/GD32VW55x_standard_peripheral/Source/gd32vw55x_pkcau.c ****                   oprd_a: operand A
 342:../Firmware/GD32VW55x_standard_peripheral/Source/gd32vw55x_pkcau.c ****                   oprd_a_len: operand A length in byte
 343:../Firmware/GD32VW55x_standard_peripheral/Source/gd32vw55x_pkcau.c ****                   oprd_b: operand B
 344:../Firmware/GD32VW55x_standard_peripheral/Source/gd32vw55x_pkcau.c ****                   oprd_b_len: operand B length in byte
 345:../Firmware/GD32VW55x_standard_peripheral/Source/gd32vw55x_pkcau.c ****                   modulus_n: modulus value n
 346:../Firmware/GD32VW55x_standard_peripheral/Source/gd32vw55x_pkcau.c ****                   modulus_n_len: modulus length in byte
 347:../Firmware/GD32VW55x_standard_peripheral/Source/gd32vw55x_pkcau.c ****     \param[in]  mode: modular operation mode
 348:../Firmware/GD32VW55x_standard_peripheral/Source/gd32vw55x_pkcau.c ****                 only one parameter can be selected which is shown as below:
 349:../Firmware/GD32VW55x_standard_peripheral/Source/gd32vw55x_pkcau.c ****       \arg        PKCAU_MODE_MOD_ADD: modular addition
 350:../Firmware/GD32VW55x_standard_peripheral/Source/gd32vw55x_pkcau.c ****       \arg        PKCAU_MODE_MOD_SUB: modular subtraction
 351:../Firmware/GD32VW55x_standard_peripheral/Source/gd32vw55x_pkcau.c ****       \arg        PKCAU_MODE_MONT_MUL: Montgomery multiplication
 352:../Firmware/GD32VW55x_standard_peripheral/Source/gd32vw55x_pkcau.c ****     \param[out] results: output buffer
 353:../Firmware/GD32VW55x_standard_peripheral/Source/gd32vw55x_pkcau.c ****     \retval     none
 354:../Firmware/GD32VW55x_standard_peripheral/Source/gd32vw55x_pkcau.c **** */
 355:../Firmware/GD32VW55x_standard_peripheral/Source/gd32vw55x_pkcau.c **** void pkcau_mod_operation(pkcau_mod_parameter_struct* mod_para, uint32_t mode, uint8_t* results)
 356:../Firmware/GD32VW55x_standard_peripheral/Source/gd32vw55x_pkcau.c **** {
 741              		.loc 1 356 1
 742              		.cfi_startproc
 743 0000 0111     		addi	sp,sp,-32
 744              		.cfi_def_cfa_offset 32
 745 0002 06CE     		sw	ra,28(sp)
 746 0004 22CC     		sw	s0,24(sp)
 747              		.cfi_offset 1, -4
 748              		.cfi_offset 8, -8
 749 0006 0010     		addi	s0,sp,32
 750              		.cfi_def_cfa 8, 0
 751 0008 2326A4FE 		sw	a0,-20(s0)
 752 000c 2324B4FE 		sw	a1,-24(s0)
 753 0010 2322C4FE 		sw	a2,-28(s0)
 357:../Firmware/GD32VW55x_standard_peripheral/Source/gd32vw55x_pkcau.c ****     /* reset PKCAU */
 358:../Firmware/GD32VW55x_standard_peripheral/Source/gd32vw55x_pkcau.c ****     pkcau_deinit();
 754              		.loc 1 358 5
 755 0014 97000000 		call	pkcau_deinit
 755      E7800000 
 359:../Firmware/GD32VW55x_standard_peripheral/Source/gd32vw55x_pkcau.c ****     /* enable PKCAU */
 360:../Firmware/GD32VW55x_standard_peripheral/Source/gd32vw55x_pkcau.c ****     pkcau_enable();
 756              		.loc 1 360 5
 757 001c 97000000 		call	pkcau_enable
 757      E7800000 
 361:../Firmware/GD32VW55x_standard_peripheral/Source/gd32vw55x_pkcau.c ****     /* wait for PKCAU busy flag to reset */
 362:../Firmware/GD32VW55x_standard_peripheral/Source/gd32vw55x_pkcau.c ****     while(RESET != pkcau_flag_get(PKCAU_FLAG_BUSY));
 758              		.loc 1 362 10
 759 0024 0100     		nop
 760              	.L20:
 761              		.loc 1 362 20 discriminator 1
 762 0026 4165     		li	a0,65536
 763 0028 97000000 		call	pkcau_flag_get
 763      E7800000 
 764 0030 AA87     		mv	a5,a0
 765              		.loc 1 362 10 discriminator 1
 766 0032 F5FB     		bne	a5,zero,.L20
 363:../Firmware/GD32VW55x_standard_peripheral/Source/gd32vw55x_pkcau.c ****     /* clear end flag */
 364:../Firmware/GD32VW55x_standard_peripheral/Source/gd32vw55x_pkcau.c ****     pkcau_flag_clear(PKCAU_FLAG_END);
 767              		.loc 1 364 5
 768 0034 37050200 		li	a0,131072
 769 0038 97000000 		call	pkcau_flag_clear
 769      E7800000 
 365:../Firmware/GD32VW55x_standard_peripheral/Source/gd32vw55x_pkcau.c **** 
 366:../Firmware/GD32VW55x_standard_peripheral/Source/gd32vw55x_pkcau.c ****     /* write the modulus length in bit to PKCAU RAM */
 367:../Firmware/GD32VW55x_standard_peripheral/Source/gd32vw55x_pkcau.c ****     pkcau_memcpy_value(0x00000404U, (mod_para->modulus_n_len << 3));
 770              		.loc 1 367 46
 771 0040 8327C4FE 		lw	a5,-20(s0)
 772 0044 DC4B     		lw	a5,20(a5)
 773              		.loc 1 367 5
 774 0046 8E07     		slli	a5,a5,3
 775 0048 BE85     		mv	a1,a5
 776 004a 13054040 		li	a0,1028
 777 004e 97000000 		call	pkcau_memcpy_value
 777      E7800000 
 368:../Firmware/GD32VW55x_standard_peripheral/Source/gd32vw55x_pkcau.c **** 
 369:../Firmware/GD32VW55x_standard_peripheral/Source/gd32vw55x_pkcau.c ****     /* write the operand A, operand B and modulus value n to PKCAU RAM */
 370:../Firmware/GD32VW55x_standard_peripheral/Source/gd32vw55x_pkcau.c ****     pkcau_memcpy_operand(0x000008B4U, mod_para->oprd_a, mod_para->oprd_a_len);
 778              		.loc 1 370 5
 779 0056 8327C4FE 		lw	a5,-20(s0)
 780 005a 9843     		lw	a4,0(a5)
 781 005c 8327C4FE 		lw	a5,-20(s0)
 782 0060 DC43     		lw	a5,4(a5)
 783 0062 3E86     		mv	a2,a5
 784 0064 BA85     		mv	a1,a4
 785 0066 8567     		li	a5,4096
 786 0068 1385478B 		addi	a0,a5,-1868
 787 006c 97000000 		call	pkcau_memcpy_operand
 787      E7800000 
 371:../Firmware/GD32VW55x_standard_peripheral/Source/gd32vw55x_pkcau.c ****     pkcau_memcpy_operand(0x00000A44U, mod_para->oprd_b, mod_para->oprd_b_len);
 788              		.loc 1 371 5
 789 0074 8327C4FE 		lw	a5,-20(s0)
 790 0078 9847     		lw	a4,8(a5)
 791 007a 8327C4FE 		lw	a5,-20(s0)
 792 007e DC47     		lw	a5,12(a5)
 793 0080 3E86     		mv	a2,a5
 794 0082 BA85     		mv	a1,a4
 795 0084 8567     		li	a5,4096
 796 0086 138547A4 		addi	a0,a5,-1468
 797 008a 97000000 		call	pkcau_memcpy_operand
 797      E7800000 
 372:../Firmware/GD32VW55x_standard_peripheral/Source/gd32vw55x_pkcau.c ****     pkcau_memcpy_operand(0x00000D5CU, mod_para->modulus_n, mod_para->modulus_n_len);
 798              		.loc 1 372 5
 799 0092 8327C4FE 		lw	a5,-20(s0)
 800 0096 984B     		lw	a4,16(a5)
 801 0098 8327C4FE 		lw	a5,-20(s0)
 802 009c DC4B     		lw	a5,20(a5)
 803 009e 3E86     		mv	a2,a5
 804 00a0 BA85     		mv	a1,a4
 805 00a2 8567     		li	a5,4096
 806 00a4 1385C7D5 		addi	a0,a5,-676
 807 00a8 97000000 		call	pkcau_memcpy_operand
 807      E7800000 
 373:../Firmware/GD32VW55x_standard_peripheral/Source/gd32vw55x_pkcau.c ****     /* configure the operation mode */
 374:../Firmware/GD32VW55x_standard_peripheral/Source/gd32vw55x_pkcau.c ****     pkcau_mode_set(mode);
 808              		.loc 1 374 5
 809 00b0 032584FE 		lw	a0,-24(s0)
 810 00b4 97000000 		call	pkcau_mode_set
 810      E7800000 
 375:../Firmware/GD32VW55x_standard_peripheral/Source/gd32vw55x_pkcau.c ****     /* start computation */
 376:../Firmware/GD32VW55x_standard_peripheral/Source/gd32vw55x_pkcau.c ****     pkcau_start();
 811              		.loc 1 376 5
 812 00bc 97000000 		call	pkcau_start
 812      E7800000 
 377:../Firmware/GD32VW55x_standard_peripheral/Source/gd32vw55x_pkcau.c **** 
 378:../Firmware/GD32VW55x_standard_peripheral/Source/gd32vw55x_pkcau.c ****     /* wait for PKCAU operation completed */
 379:../Firmware/GD32VW55x_standard_peripheral/Source/gd32vw55x_pkcau.c ****     while(SET != pkcau_flag_get(PKCAU_FLAG_END));
 813              		.loc 1 379 10
 814 00c4 0100     		nop
 815              	.L21:
 816              		.loc 1 379 18 discriminator 1
 817 00c6 37050200 		li	a0,131072
 818 00ca 97000000 		call	pkcau_flag_get
 818      E7800000 
 819 00d2 2A87     		mv	a4,a0
 820              		.loc 1 379 10 discriminator 1
 821 00d4 8547     		li	a5,1
 822 00d6 E318F7FE 		bne	a4,a5,.L21
 380:../Firmware/GD32VW55x_standard_peripheral/Source/gd32vw55x_pkcau.c ****     /* read results from RAM address */
 381:../Firmware/GD32VW55x_standard_peripheral/Source/gd32vw55x_pkcau.c ****     pkcau_memread(0xBD0, (uint8_t *)results, mod_para->modulus_n_len);
 823              		.loc 1 381 5
 824 00da 8327C4FE 		lw	a5,-20(s0)
 825 00de DC4B     		lw	a5,20(a5)
 826 00e0 3E86     		mv	a2,a5
 827 00e2 832544FE 		lw	a1,-28(s0)
 828 00e6 8567     		li	a5,4096
 829 00e8 138507BD 		addi	a0,a5,-1072
 830 00ec 97000000 		call	pkcau_memread
 830      E7800000 
 382:../Firmware/GD32VW55x_standard_peripheral/Source/gd32vw55x_pkcau.c ****     /* clear end flag */
 383:../Firmware/GD32VW55x_standard_peripheral/Source/gd32vw55x_pkcau.c ****     pkcau_flag_clear(PKCAU_FLAG_END);
 831              		.loc 1 383 5
 832 00f4 37050200 		li	a0,131072
 833 00f8 97000000 		call	pkcau_flag_clear
 833      E7800000 
 384:../Firmware/GD32VW55x_standard_peripheral/Source/gd32vw55x_pkcau.c ****     /* disable PKCAU */
 385:../Firmware/GD32VW55x_standard_peripheral/Source/gd32vw55x_pkcau.c ****     pkcau_disable();
 834              		.loc 1 385 5
 835 0100 97000000 		call	pkcau_disable
 835      E7800000 
 386:../Firmware/GD32VW55x_standard_peripheral/Source/gd32vw55x_pkcau.c **** }
 836              		.loc 1 386 1
 837 0108 0100     		nop
 838 010a F240     		lw	ra,28(sp)
 839              		.cfi_restore 1
 840 010c 6244     		lw	s0,24(sp)
 841              		.cfi_restore 8
 842              		.cfi_def_cfa 2, 32
 843 010e 0561     		addi	sp,sp,32
 844              		.cfi_def_cfa_offset 0
 845 0110 8280     		jr	ra
 846              		.cfi_endproc
 847              	.LFE363:
 849              		.section	.text.pkcau_mod_exp_operation,"ax",@progbits
 850              		.align	1
 851              		.globl	pkcau_mod_exp_operation
 853              	pkcau_mod_exp_operation:
 854              	.LFB364:
 387:../Firmware/GD32VW55x_standard_peripheral/Source/gd32vw55x_pkcau.c **** 
 388:../Firmware/GD32VW55x_standard_peripheral/Source/gd32vw55x_pkcau.c **** /*!
 389:../Firmware/GD32VW55x_standard_peripheral/Source/gd32vw55x_pkcau.c ****     \brief      execute modular exponentiation operation
 390:../Firmware/GD32VW55x_standard_peripheral/Source/gd32vw55x_pkcau.c ****                 This function can only be used when interrupt is not enabled
 391:../Firmware/GD32VW55x_standard_peripheral/Source/gd32vw55x_pkcau.c ****     \param[in]  mont_para: PKCAU exponentiation parameter struct for fast mode
 392:../Firmware/GD32VW55x_standard_peripheral/Source/gd32vw55x_pkcau.c ****                   oprd_a: operand A
 393:../Firmware/GD32VW55x_standard_peripheral/Source/gd32vw55x_pkcau.c ****                   oprd_a_len: operand A length in byte
 394:../Firmware/GD32VW55x_standard_peripheral/Source/gd32vw55x_pkcau.c ****                   exp_e: exponent e
 395:../Firmware/GD32VW55x_standard_peripheral/Source/gd32vw55x_pkcau.c ****                   e_len: exponent length in byte
 396:../Firmware/GD32VW55x_standard_peripheral/Source/gd32vw55x_pkcau.c ****                   modulus_n: modulus value n
 397:../Firmware/GD32VW55x_standard_peripheral/Source/gd32vw55x_pkcau.c ****                   modulus_n_len: modulus length in byte
 398:../Firmware/GD32VW55x_standard_peripheral/Source/gd32vw55x_pkcau.c ****                   mont_para: exponentiation parameter R2 mod n
 399:../Firmware/GD32VW55x_standard_peripheral/Source/gd32vw55x_pkcau.c ****                   mont_para_len: montgomery parameter length in byte
 400:../Firmware/GD32VW55x_standard_peripheral/Source/gd32vw55x_pkcau.c ****     \param[in]  mode: modular exponentiation operation mode
 401:../Firmware/GD32VW55x_standard_peripheral/Source/gd32vw55x_pkcau.c ****                 only one parameter can be selected which is shown as below:
 402:../Firmware/GD32VW55x_standard_peripheral/Source/gd32vw55x_pkcau.c ****       \arg        PKCAU_MODE_MOD_EXP_FAST: montgomery parameter computation then modular exponentia
 403:../Firmware/GD32VW55x_standard_peripheral/Source/gd32vw55x_pkcau.c ****       \arg        PKCAU_MODE_MOD_EXP: modular exponentiation only
 404:../Firmware/GD32VW55x_standard_peripheral/Source/gd32vw55x_pkcau.c ****     \param[out] results: output buffer
 405:../Firmware/GD32VW55x_standard_peripheral/Source/gd32vw55x_pkcau.c ****     \retval     none
 406:../Firmware/GD32VW55x_standard_peripheral/Source/gd32vw55x_pkcau.c **** */
 407:../Firmware/GD32VW55x_standard_peripheral/Source/gd32vw55x_pkcau.c **** void pkcau_mod_exp_operation(pkcau_mod_exp_parameter_struct* mod_exp_para, uint32_t mode, uint8_t* 
 408:../Firmware/GD32VW55x_standard_peripheral/Source/gd32vw55x_pkcau.c **** {
 855              		.loc 1 408 1
 856              		.cfi_startproc
 857 0000 0111     		addi	sp,sp,-32
 858              		.cfi_def_cfa_offset 32
 859 0002 06CE     		sw	ra,28(sp)
 860 0004 22CC     		sw	s0,24(sp)
 861              		.cfi_offset 1, -4
 862              		.cfi_offset 8, -8
 863 0006 0010     		addi	s0,sp,32
 864              		.cfi_def_cfa 8, 0
 865 0008 2326A4FE 		sw	a0,-20(s0)
 866 000c 2324B4FE 		sw	a1,-24(s0)
 867 0010 2322C4FE 		sw	a2,-28(s0)
 409:../Firmware/GD32VW55x_standard_peripheral/Source/gd32vw55x_pkcau.c ****     /* reset PKCAU */
 410:../Firmware/GD32VW55x_standard_peripheral/Source/gd32vw55x_pkcau.c ****     pkcau_deinit();
 868              		.loc 1 410 5
 869 0014 97000000 		call	pkcau_deinit
 869      E7800000 
 411:../Firmware/GD32VW55x_standard_peripheral/Source/gd32vw55x_pkcau.c ****     /* enable PKCAU */
 412:../Firmware/GD32VW55x_standard_peripheral/Source/gd32vw55x_pkcau.c ****     pkcau_enable();
 870              		.loc 1 412 5
 871 001c 97000000 		call	pkcau_enable
 871      E7800000 
 413:../Firmware/GD32VW55x_standard_peripheral/Source/gd32vw55x_pkcau.c ****     /* wait for PKCAU busy flag to reset */
 414:../Firmware/GD32VW55x_standard_peripheral/Source/gd32vw55x_pkcau.c ****     while(RESET != pkcau_flag_get(PKCAU_FLAG_BUSY));
 872              		.loc 1 414 10
 873 0024 0100     		nop
 874              	.L23:
 875              		.loc 1 414 20 discriminator 1
 876 0026 4165     		li	a0,65536
 877 0028 97000000 		call	pkcau_flag_get
 877      E7800000 
 878 0030 AA87     		mv	a5,a0
 879              		.loc 1 414 10 discriminator 1
 880 0032 F5FB     		bne	a5,zero,.L23
 415:../Firmware/GD32VW55x_standard_peripheral/Source/gd32vw55x_pkcau.c ****     /* clear end flag */
 416:../Firmware/GD32VW55x_standard_peripheral/Source/gd32vw55x_pkcau.c ****     pkcau_flag_clear(PKCAU_FLAG_END);
 881              		.loc 1 416 5
 882 0034 37050200 		li	a0,131072
 883 0038 97000000 		call	pkcau_flag_clear
 883      E7800000 
 417:../Firmware/GD32VW55x_standard_peripheral/Source/gd32vw55x_pkcau.c **** 
 418:../Firmware/GD32VW55x_standard_peripheral/Source/gd32vw55x_pkcau.c ****     /* write the exponent length and modulus length in bit to PKCAU RAM */
 419:../Firmware/GD32VW55x_standard_peripheral/Source/gd32vw55x_pkcau.c ****     pkcau_memcpy_value(0x00000400U, (mod_exp_para->e_len << 3));
 884              		.loc 1 419 50
 885 0040 8327C4FE 		lw	a5,-20(s0)
 886 0044 DC47     		lw	a5,12(a5)
 887              		.loc 1 419 5
 888 0046 8E07     		slli	a5,a5,3
 889 0048 BE85     		mv	a1,a5
 890 004a 13050040 		li	a0,1024
 891 004e 97000000 		call	pkcau_memcpy_value
 891      E7800000 
 420:../Firmware/GD32VW55x_standard_peripheral/Source/gd32vw55x_pkcau.c ****     pkcau_memcpy_value(0x00000404U, (mod_exp_para->modulus_n_len << 3));
 892              		.loc 1 420 50
 893 0056 8327C4FE 		lw	a5,-20(s0)
 894 005a DC4B     		lw	a5,20(a5)
 895              		.loc 1 420 5
 896 005c 8E07     		slli	a5,a5,3
 897 005e BE85     		mv	a1,a5
 898 0060 13054040 		li	a0,1028
 899 0064 97000000 		call	pkcau_memcpy_value
 899      E7800000 
 421:../Firmware/GD32VW55x_standard_peripheral/Source/gd32vw55x_pkcau.c **** 
 422:../Firmware/GD32VW55x_standard_peripheral/Source/gd32vw55x_pkcau.c ****     /* write the operand A, exponent e and modulus value n to PKCAU RAM */
 423:../Firmware/GD32VW55x_standard_peripheral/Source/gd32vw55x_pkcau.c ****     pkcau_memcpy_operand(0x00000A44U, mod_exp_para->oprd_a, mod_exp_para->oprd_a_len);
 900              		.loc 1 423 5
 901 006c 8327C4FE 		lw	a5,-20(s0)
 902 0070 9843     		lw	a4,0(a5)
 903 0072 8327C4FE 		lw	a5,-20(s0)
 904 0076 DC43     		lw	a5,4(a5)
 905 0078 3E86     		mv	a2,a5
 906 007a BA85     		mv	a1,a4
 907 007c 8567     		li	a5,4096
 908 007e 138547A4 		addi	a0,a5,-1468
 909 0082 97000000 		call	pkcau_memcpy_operand
 909      E7800000 
 424:../Firmware/GD32VW55x_standard_peripheral/Source/gd32vw55x_pkcau.c ****     pkcau_memcpy_operand(0x00000BD0U, mod_exp_para->exp_e, mod_exp_para->e_len);
 910              		.loc 1 424 5
 911 008a 8327C4FE 		lw	a5,-20(s0)
 912 008e 9847     		lw	a4,8(a5)
 913 0090 8327C4FE 		lw	a5,-20(s0)
 914 0094 DC47     		lw	a5,12(a5)
 915 0096 3E86     		mv	a2,a5
 916 0098 BA85     		mv	a1,a4
 917 009a 8567     		li	a5,4096
 918 009c 138507BD 		addi	a0,a5,-1072
 919 00a0 97000000 		call	pkcau_memcpy_operand
 919      E7800000 
 425:../Firmware/GD32VW55x_standard_peripheral/Source/gd32vw55x_pkcau.c ****     pkcau_memcpy_operand(0x00000D5CU, mod_exp_para->modulus_n, mod_exp_para->modulus_n_len);
 920              		.loc 1 425 5
 921 00a8 8327C4FE 		lw	a5,-20(s0)
 922 00ac 984B     		lw	a4,16(a5)
 923 00ae 8327C4FE 		lw	a5,-20(s0)
 924 00b2 DC4B     		lw	a5,20(a5)
 925 00b4 3E86     		mv	a2,a5
 926 00b6 BA85     		mv	a1,a4
 927 00b8 8567     		li	a5,4096
 928 00ba 1385C7D5 		addi	a0,a5,-676
 929 00be 97000000 		call	pkcau_memcpy_operand
 929      E7800000 
 426:../Firmware/GD32VW55x_standard_peripheral/Source/gd32vw55x_pkcau.c ****     /* write the montgomery parameter to PKCAU RAM */
 427:../Firmware/GD32VW55x_standard_peripheral/Source/gd32vw55x_pkcau.c ****     if(mode == PKCAU_MODE_MOD_EXP_FAST){
 930              		.loc 1 427 7
 931 00c6 032784FE 		lw	a4,-24(s0)
 932 00ca 93070020 		li	a5,512
 933 00ce 6310F702 		bne	a4,a5,.L24
 428:../Firmware/GD32VW55x_standard_peripheral/Source/gd32vw55x_pkcau.c ****         pkcau_memcpy_operand(0x00000594U, mod_exp_para->mont_para, mod_exp_para->mont_para_len);
 934              		.loc 1 428 55
 935 00d2 8327C4FE 		lw	a5,-20(s0)
 936 00d6 984F     		lw	a4,24(a5)
 937              		.loc 1 428 9
 938 00d8 8327C4FE 		lw	a5,-20(s0)
 939 00dc DC4F     		lw	a5,28(a5)
 940 00de 3E86     		mv	a2,a5
 941 00e0 BA85     		mv	a1,a4
 942 00e2 13054059 		li	a0,1428
 943 00e6 97000000 		call	pkcau_memcpy_operand
 943      E7800000 
 944              	.L24:
 429:../Firmware/GD32VW55x_standard_peripheral/Source/gd32vw55x_pkcau.c ****     }
 430:../Firmware/GD32VW55x_standard_peripheral/Source/gd32vw55x_pkcau.c ****     /* configure the operation mode */
 431:../Firmware/GD32VW55x_standard_peripheral/Source/gd32vw55x_pkcau.c ****     pkcau_mode_set(mode);
 945              		.loc 1 431 5
 946 00ee 032584FE 		lw	a0,-24(s0)
 947 00f2 97000000 		call	pkcau_mode_set
 947      E7800000 
 432:../Firmware/GD32VW55x_standard_peripheral/Source/gd32vw55x_pkcau.c ****     /* start computation */
 433:../Firmware/GD32VW55x_standard_peripheral/Source/gd32vw55x_pkcau.c ****     pkcau_start();
 948              		.loc 1 433 5
 949 00fa 97000000 		call	pkcau_start
 949      E7800000 
 434:../Firmware/GD32VW55x_standard_peripheral/Source/gd32vw55x_pkcau.c **** 
 435:../Firmware/GD32VW55x_standard_peripheral/Source/gd32vw55x_pkcau.c ****     /* wait for PKCAU operation completed */
 436:../Firmware/GD32VW55x_standard_peripheral/Source/gd32vw55x_pkcau.c ****     while(SET != pkcau_flag_get(PKCAU_FLAG_END));
 950              		.loc 1 436 10
 951 0102 0100     		nop
 952              	.L25:
 953              		.loc 1 436 18 discriminator 1
 954 0104 37050200 		li	a0,131072
 955 0108 97000000 		call	pkcau_flag_get
 955      E7800000 
 956 0110 2A87     		mv	a4,a0
 957              		.loc 1 436 10 discriminator 1
 958 0112 8547     		li	a5,1
 959 0114 E318F7FE 		bne	a4,a5,.L25
 437:../Firmware/GD32VW55x_standard_peripheral/Source/gd32vw55x_pkcau.c ****     /* read results from RAM address */
 438:../Firmware/GD32VW55x_standard_peripheral/Source/gd32vw55x_pkcau.c ****     pkcau_memread(0x724, (uint8_t *)results, mod_exp_para->modulus_n_len);
 960              		.loc 1 438 5
 961 0118 8327C4FE 		lw	a5,-20(s0)
 962 011c DC4B     		lw	a5,20(a5)
 963 011e 3E86     		mv	a2,a5
 964 0120 832544FE 		lw	a1,-28(s0)
 965 0124 13054072 		li	a0,1828
 966 0128 97000000 		call	pkcau_memread
 966      E7800000 
 439:../Firmware/GD32VW55x_standard_peripheral/Source/gd32vw55x_pkcau.c **** 
 440:../Firmware/GD32VW55x_standard_peripheral/Source/gd32vw55x_pkcau.c ****     /* clear end flag */
 441:../Firmware/GD32VW55x_standard_peripheral/Source/gd32vw55x_pkcau.c ****     pkcau_flag_clear(PKCAU_FLAG_END);
 967              		.loc 1 441 5
 968 0130 37050200 		li	a0,131072
 969 0134 97000000 		call	pkcau_flag_clear
 969      E7800000 
 442:../Firmware/GD32VW55x_standard_peripheral/Source/gd32vw55x_pkcau.c ****     /* disable PKCAU */
 443:../Firmware/GD32VW55x_standard_peripheral/Source/gd32vw55x_pkcau.c ****     pkcau_disable();
 970              		.loc 1 443 5
 971 013c 97000000 		call	pkcau_disable
 971      E7800000 
 444:../Firmware/GD32VW55x_standard_peripheral/Source/gd32vw55x_pkcau.c **** }
 972              		.loc 1 444 1
 973 0144 0100     		nop
 974 0146 F240     		lw	ra,28(sp)
 975              		.cfi_restore 1
 976 0148 6244     		lw	s0,24(sp)
 977              		.cfi_restore 8
 978              		.cfi_def_cfa 2, 32
 979 014a 0561     		addi	sp,sp,32
 980              		.cfi_def_cfa_offset 0
 981 014c 8280     		jr	ra
 982              		.cfi_endproc
 983              	.LFE364:
 985              		.section	.text.pkcau_mod_inver_operation,"ax",@progbits
 986              		.align	1
 987              		.globl	pkcau_mod_inver_operation
 989              	pkcau_mod_inver_operation:
 990              	.LFB365:
 445:../Firmware/GD32VW55x_standard_peripheral/Source/gd32vw55x_pkcau.c **** 
 446:../Firmware/GD32VW55x_standard_peripheral/Source/gd32vw55x_pkcau.c **** /*!
 447:../Firmware/GD32VW55x_standard_peripheral/Source/gd32vw55x_pkcau.c ****     \brief      execute modular inversion operation
 448:../Firmware/GD32VW55x_standard_peripheral/Source/gd32vw55x_pkcau.c ****                 This function can only be used when interrupt is not enabled
 449:../Firmware/GD32VW55x_standard_peripheral/Source/gd32vw55x_pkcau.c ****     \param[in]  mod_inver_para: PKCAU modular inversion parameter struct
 450:../Firmware/GD32VW55x_standard_peripheral/Source/gd32vw55x_pkcau.c ****                   oprd_a: operand A
 451:../Firmware/GD32VW55x_standard_peripheral/Source/gd32vw55x_pkcau.c ****                   oprd_a_len: operand A length in byte
 452:../Firmware/GD32VW55x_standard_peripheral/Source/gd32vw55x_pkcau.c ****                   modulus_n: modulus value n
 453:../Firmware/GD32VW55x_standard_peripheral/Source/gd32vw55x_pkcau.c ****                   modulus_n_len: modulus length in byte
 454:../Firmware/GD32VW55x_standard_peripheral/Source/gd32vw55x_pkcau.c ****     \param[out] results: output buffer
 455:../Firmware/GD32VW55x_standard_peripheral/Source/gd32vw55x_pkcau.c ****     \retval     none
 456:../Firmware/GD32VW55x_standard_peripheral/Source/gd32vw55x_pkcau.c **** */
 457:../Firmware/GD32VW55x_standard_peripheral/Source/gd32vw55x_pkcau.c **** void pkcau_mod_inver_operation(pkcau_mod_parameter_struct* mod_inver_para, uint8_t* results)
 458:../Firmware/GD32VW55x_standard_peripheral/Source/gd32vw55x_pkcau.c **** {
 991              		.loc 1 458 1
 992              		.cfi_startproc
 993 0000 0111     		addi	sp,sp,-32
 994              		.cfi_def_cfa_offset 32
 995 0002 06CE     		sw	ra,28(sp)
 996 0004 22CC     		sw	s0,24(sp)
 997              		.cfi_offset 1, -4
 998              		.cfi_offset 8, -8
 999 0006 0010     		addi	s0,sp,32
 1000              		.cfi_def_cfa 8, 0
 1001 0008 2326A4FE 		sw	a0,-20(s0)
 1002 000c 2324B4FE 		sw	a1,-24(s0)
 459:../Firmware/GD32VW55x_standard_peripheral/Source/gd32vw55x_pkcau.c ****     /* reset PKCAU */
 460:../Firmware/GD32VW55x_standard_peripheral/Source/gd32vw55x_pkcau.c ****     pkcau_deinit();
 1003              		.loc 1 460 5
 1004 0010 97000000 		call	pkcau_deinit
 1004      E7800000 
 461:../Firmware/GD32VW55x_standard_peripheral/Source/gd32vw55x_pkcau.c ****     /* enable PKCAU */
 462:../Firmware/GD32VW55x_standard_peripheral/Source/gd32vw55x_pkcau.c ****     pkcau_enable();
 1005              		.loc 1 462 5
 1006 0018 97000000 		call	pkcau_enable
 1006      E7800000 
 463:../Firmware/GD32VW55x_standard_peripheral/Source/gd32vw55x_pkcau.c ****     /* wait for PKCAU busy flag to reset */
 464:../Firmware/GD32VW55x_standard_peripheral/Source/gd32vw55x_pkcau.c ****     while(RESET != pkcau_flag_get(PKCAU_FLAG_BUSY));
 1007              		.loc 1 464 10
 1008 0020 0100     		nop
 1009              	.L27:
 1010              		.loc 1 464 20 discriminator 1
 1011 0022 4165     		li	a0,65536
 1012 0024 97000000 		call	pkcau_flag_get
 1012      E7800000 
 1013 002c AA87     		mv	a5,a0
 1014              		.loc 1 464 10 discriminator 1
 1015 002e F5FB     		bne	a5,zero,.L27
 465:../Firmware/GD32VW55x_standard_peripheral/Source/gd32vw55x_pkcau.c ****     /* clear end flag */
 466:../Firmware/GD32VW55x_standard_peripheral/Source/gd32vw55x_pkcau.c ****     pkcau_flag_clear(PKCAU_FLAG_END);
 1016              		.loc 1 466 5
 1017 0030 37050200 		li	a0,131072
 1018 0034 97000000 		call	pkcau_flag_clear
 1018      E7800000 
 467:../Firmware/GD32VW55x_standard_peripheral/Source/gd32vw55x_pkcau.c **** 
 468:../Firmware/GD32VW55x_standard_peripheral/Source/gd32vw55x_pkcau.c ****     /* write the modulus length in bit to PKCAU RAM */
 469:../Firmware/GD32VW55x_standard_peripheral/Source/gd32vw55x_pkcau.c ****     pkcau_memcpy_value(0x00000404U, (mod_inver_para->modulus_n_len) << 3);
 1019              		.loc 1 469 52
 1020 003c 8327C4FE 		lw	a5,-20(s0)
 1021 0040 DC4B     		lw	a5,20(a5)
 1022              		.loc 1 469 5
 1023 0042 8E07     		slli	a5,a5,3
 1024 0044 BE85     		mv	a1,a5
 1025 0046 13054040 		li	a0,1028
 1026 004a 97000000 		call	pkcau_memcpy_value
 1026      E7800000 
 470:../Firmware/GD32VW55x_standard_peripheral/Source/gd32vw55x_pkcau.c **** 
 471:../Firmware/GD32VW55x_standard_peripheral/Source/gd32vw55x_pkcau.c ****     /* write the operand A and modulus value n to PKCAU RAM */
 472:../Firmware/GD32VW55x_standard_peripheral/Source/gd32vw55x_pkcau.c ****     pkcau_memcpy_operand(0x000008B4U, mod_inver_para->oprd_a, mod_inver_para->oprd_a_len);
 1027              		.loc 1 472 5
 1028 0052 8327C4FE 		lw	a5,-20(s0)
 1029 0056 9843     		lw	a4,0(a5)
 1030 0058 8327C4FE 		lw	a5,-20(s0)
 1031 005c DC43     		lw	a5,4(a5)
 1032 005e 3E86     		mv	a2,a5
 1033 0060 BA85     		mv	a1,a4
 1034 0062 8567     		li	a5,4096
 1035 0064 1385478B 		addi	a0,a5,-1868
 1036 0068 97000000 		call	pkcau_memcpy_operand
 1036      E7800000 
 473:../Firmware/GD32VW55x_standard_peripheral/Source/gd32vw55x_pkcau.c ****     pkcau_memcpy_operand(0x00000A44U, mod_inver_para->modulus_n, mod_inver_para->modulus_n_len);
 1037              		.loc 1 473 5
 1038 0070 8327C4FE 		lw	a5,-20(s0)
 1039 0074 984B     		lw	a4,16(a5)
 1040 0076 8327C4FE 		lw	a5,-20(s0)
 1041 007a DC4B     		lw	a5,20(a5)
 1042 007c 3E86     		mv	a2,a5
 1043 007e BA85     		mv	a1,a4
 1044 0080 8567     		li	a5,4096
 1045 0082 138547A4 		addi	a0,a5,-1468
 1046 0086 97000000 		call	pkcau_memcpy_operand
 1046      E7800000 
 474:../Firmware/GD32VW55x_standard_peripheral/Source/gd32vw55x_pkcau.c ****     /* configure the operation mode */
 475:../Firmware/GD32VW55x_standard_peripheral/Source/gd32vw55x_pkcau.c ****     pkcau_mode_set(PKCAU_MODE_MOD_INVERSION);
 1047              		.loc 1 475 5
 1048 008e 8567     		li	a5,4096
 1049 0090 13850780 		addi	a0,a5,-2048
 1050 0094 97000000 		call	pkcau_mode_set
 1050      E7800000 
 476:../Firmware/GD32VW55x_standard_peripheral/Source/gd32vw55x_pkcau.c ****     /* start computation */
 477:../Firmware/GD32VW55x_standard_peripheral/Source/gd32vw55x_pkcau.c ****     pkcau_start();
 1051              		.loc 1 477 5
 1052 009c 97000000 		call	pkcau_start
 1052      E7800000 
 478:../Firmware/GD32VW55x_standard_peripheral/Source/gd32vw55x_pkcau.c **** 
 479:../Firmware/GD32VW55x_standard_peripheral/Source/gd32vw55x_pkcau.c ****     /* wait for PKCAU operation completed */
 480:../Firmware/GD32VW55x_standard_peripheral/Source/gd32vw55x_pkcau.c ****     while(SET != pkcau_flag_get(PKCAU_FLAG_END));
 1053              		.loc 1 480 10
 1054 00a4 0100     		nop
 1055              	.L28:
 1056              		.loc 1 480 18 discriminator 1
 1057 00a6 37050200 		li	a0,131072
 1058 00aa 97000000 		call	pkcau_flag_get
 1058      E7800000 
 1059 00b2 2A87     		mv	a4,a0
 1060              		.loc 1 480 10 discriminator 1
 1061 00b4 8547     		li	a5,1
 1062 00b6 E318F7FE 		bne	a4,a5,.L28
 481:../Firmware/GD32VW55x_standard_peripheral/Source/gd32vw55x_pkcau.c ****     /* read results from RAM address */
 482:../Firmware/GD32VW55x_standard_peripheral/Source/gd32vw55x_pkcau.c ****     pkcau_memread(0xBD0, (uint8_t *)results, mod_inver_para->modulus_n_len);
 1063              		.loc 1 482 5
 1064 00ba 8327C4FE 		lw	a5,-20(s0)
 1065 00be DC4B     		lw	a5,20(a5)
 1066 00c0 3E86     		mv	a2,a5
 1067 00c2 832584FE 		lw	a1,-24(s0)
 1068 00c6 8567     		li	a5,4096
 1069 00c8 138507BD 		addi	a0,a5,-1072
 1070 00cc 97000000 		call	pkcau_memread
 1070      E7800000 
 483:../Firmware/GD32VW55x_standard_peripheral/Source/gd32vw55x_pkcau.c ****     /* clear end flag */
 484:../Firmware/GD32VW55x_standard_peripheral/Source/gd32vw55x_pkcau.c ****     pkcau_flag_clear(PKCAU_FLAG_END);
 1071              		.loc 1 484 5
 1072 00d4 37050200 		li	a0,131072
 1073 00d8 97000000 		call	pkcau_flag_clear
 1073      E7800000 
 485:../Firmware/GD32VW55x_standard_peripheral/Source/gd32vw55x_pkcau.c ****     /* disable PKCAU */
 486:../Firmware/GD32VW55x_standard_peripheral/Source/gd32vw55x_pkcau.c ****     pkcau_disable();
 1074              		.loc 1 486 5
 1075 00e0 97000000 		call	pkcau_disable
 1075      E7800000 
 487:../Firmware/GD32VW55x_standard_peripheral/Source/gd32vw55x_pkcau.c **** }
 1076              		.loc 1 487 1
 1077 00e8 0100     		nop
 1078 00ea F240     		lw	ra,28(sp)
 1079              		.cfi_restore 1
 1080 00ec 6244     		lw	s0,24(sp)
 1081              		.cfi_restore 8
 1082              		.cfi_def_cfa 2, 32
 1083 00ee 0561     		addi	sp,sp,32
 1084              		.cfi_def_cfa_offset 0
 1085 00f0 8280     		jr	ra
 1086              		.cfi_endproc
 1087              	.LFE365:
 1089              		.section	.text.pkcau_mod_reduc_operation,"ax",@progbits
 1090              		.align	1
 1091              		.globl	pkcau_mod_reduc_operation
 1093              	pkcau_mod_reduc_operation:
 1094              	.LFB366:
 488:../Firmware/GD32VW55x_standard_peripheral/Source/gd32vw55x_pkcau.c **** 
 489:../Firmware/GD32VW55x_standard_peripheral/Source/gd32vw55x_pkcau.c **** /*!
 490:../Firmware/GD32VW55x_standard_peripheral/Source/gd32vw55x_pkcau.c ****     \brief      execute modular reduction operation
 491:../Firmware/GD32VW55x_standard_peripheral/Source/gd32vw55x_pkcau.c ****                 This function can only be used when interrupt is not enabled
 492:../Firmware/GD32VW55x_standard_peripheral/Source/gd32vw55x_pkcau.c ****     \param[in]  mod_reduc_para: PKCAU modular reduction parameter struct
 493:../Firmware/GD32VW55x_standard_peripheral/Source/gd32vw55x_pkcau.c ****                   oprd_a: operand A
 494:../Firmware/GD32VW55x_standard_peripheral/Source/gd32vw55x_pkcau.c ****                   oprd_a_len: length of operand A in byte
 495:../Firmware/GD32VW55x_standard_peripheral/Source/gd32vw55x_pkcau.c ****                   modulus_n: modulus value n
 496:../Firmware/GD32VW55x_standard_peripheral/Source/gd32vw55x_pkcau.c ****                   modulus_n_len: modulus length in byte
 497:../Firmware/GD32VW55x_standard_peripheral/Source/gd32vw55x_pkcau.c ****     \param[out] results: output buffer
 498:../Firmware/GD32VW55x_standard_peripheral/Source/gd32vw55x_pkcau.c ****     \retval     none
 499:../Firmware/GD32VW55x_standard_peripheral/Source/gd32vw55x_pkcau.c **** */
 500:../Firmware/GD32VW55x_standard_peripheral/Source/gd32vw55x_pkcau.c **** void pkcau_mod_reduc_operation(pkcau_mod_parameter_struct* mod_reduc_para, uint8_t* results)
 501:../Firmware/GD32VW55x_standard_peripheral/Source/gd32vw55x_pkcau.c **** {
 1095              		.loc 1 501 1
 1096              		.cfi_startproc
 1097 0000 0111     		addi	sp,sp,-32
 1098              		.cfi_def_cfa_offset 32
 1099 0002 06CE     		sw	ra,28(sp)
 1100 0004 22CC     		sw	s0,24(sp)
 1101              		.cfi_offset 1, -4
 1102              		.cfi_offset 8, -8
 1103 0006 0010     		addi	s0,sp,32
 1104              		.cfi_def_cfa 8, 0
 1105 0008 2326A4FE 		sw	a0,-20(s0)
 1106 000c 2324B4FE 		sw	a1,-24(s0)
 502:../Firmware/GD32VW55x_standard_peripheral/Source/gd32vw55x_pkcau.c ****     /* reset PKCAU */
 503:../Firmware/GD32VW55x_standard_peripheral/Source/gd32vw55x_pkcau.c ****     pkcau_deinit();
 1107              		.loc 1 503 5
 1108 0010 97000000 		call	pkcau_deinit
 1108      E7800000 
 504:../Firmware/GD32VW55x_standard_peripheral/Source/gd32vw55x_pkcau.c ****     /* enable PKCAU */
 505:../Firmware/GD32VW55x_standard_peripheral/Source/gd32vw55x_pkcau.c ****     pkcau_enable();
 1109              		.loc 1 505 5
 1110 0018 97000000 		call	pkcau_enable
 1110      E7800000 
 506:../Firmware/GD32VW55x_standard_peripheral/Source/gd32vw55x_pkcau.c ****     /* wait for PKCAU busy flag to reset */
 507:../Firmware/GD32VW55x_standard_peripheral/Source/gd32vw55x_pkcau.c ****     while(RESET != pkcau_flag_get(PKCAU_FLAG_BUSY));
 1111              		.loc 1 507 10
 1112 0020 0100     		nop
 1113              	.L30:
 1114              		.loc 1 507 20 discriminator 1
 1115 0022 4165     		li	a0,65536
 1116 0024 97000000 		call	pkcau_flag_get
 1116      E7800000 
 1117 002c AA87     		mv	a5,a0
 1118              		.loc 1 507 10 discriminator 1
 1119 002e F5FB     		bne	a5,zero,.L30
 508:../Firmware/GD32VW55x_standard_peripheral/Source/gd32vw55x_pkcau.c ****     /* clear end flag */
 509:../Firmware/GD32VW55x_standard_peripheral/Source/gd32vw55x_pkcau.c ****     pkcau_flag_clear(PKCAU_FLAG_END);
 1120              		.loc 1 509 5
 1121 0030 37050200 		li	a0,131072
 1122 0034 97000000 		call	pkcau_flag_clear
 1122      E7800000 
 510:../Firmware/GD32VW55x_standard_peripheral/Source/gd32vw55x_pkcau.c **** 
 511:../Firmware/GD32VW55x_standard_peripheral/Source/gd32vw55x_pkcau.c ****     /* write the modulus length and length of operand A in bit to PKCAU RAM */
 512:../Firmware/GD32VW55x_standard_peripheral/Source/gd32vw55x_pkcau.c ****     pkcau_memcpy_value(0x00000400U, (mod_reduc_para->oprd_a_len) << 3);
 1123              		.loc 1 512 52
 1124 003c 8327C4FE 		lw	a5,-20(s0)
 1125 0040 DC43     		lw	a5,4(a5)
 1126              		.loc 1 512 5
 1127 0042 8E07     		slli	a5,a5,3
 1128 0044 BE85     		mv	a1,a5
 1129 0046 13050040 		li	a0,1024
 1130 004a 97000000 		call	pkcau_memcpy_value
 1130      E7800000 
 513:../Firmware/GD32VW55x_standard_peripheral/Source/gd32vw55x_pkcau.c ****     pkcau_memcpy_value(0x00000404U, (mod_reduc_para->modulus_n_len) << 3);
 1131              		.loc 1 513 52
 1132 0052 8327C4FE 		lw	a5,-20(s0)
 1133 0056 DC4B     		lw	a5,20(a5)
 1134              		.loc 1 513 5
 1135 0058 8E07     		slli	a5,a5,3
 1136 005a BE85     		mv	a1,a5
 1137 005c 13054040 		li	a0,1028
 1138 0060 97000000 		call	pkcau_memcpy_value
 1138      E7800000 
 514:../Firmware/GD32VW55x_standard_peripheral/Source/gd32vw55x_pkcau.c **** 
 515:../Firmware/GD32VW55x_standard_peripheral/Source/gd32vw55x_pkcau.c ****     /* write the operand A and modulus value n to PKCAU RAM */
 516:../Firmware/GD32VW55x_standard_peripheral/Source/gd32vw55x_pkcau.c ****     pkcau_memcpy_operand(0x000008B4U, mod_reduc_para->oprd_a, mod_reduc_para->oprd_a_len);
 1139              		.loc 1 516 5
 1140 0068 8327C4FE 		lw	a5,-20(s0)
 1141 006c 9843     		lw	a4,0(a5)
 1142 006e 8327C4FE 		lw	a5,-20(s0)
 1143 0072 DC43     		lw	a5,4(a5)
 1144 0074 3E86     		mv	a2,a5
 1145 0076 BA85     		mv	a1,a4
 1146 0078 8567     		li	a5,4096
 1147 007a 1385478B 		addi	a0,a5,-1868
 1148 007e 97000000 		call	pkcau_memcpy_operand
 1148      E7800000 
 517:../Firmware/GD32VW55x_standard_peripheral/Source/gd32vw55x_pkcau.c ****     pkcau_memcpy_operand(0x00000A44U, mod_reduc_para->modulus_n, mod_reduc_para->modulus_n_len);
 1149              		.loc 1 517 5
 1150 0086 8327C4FE 		lw	a5,-20(s0)
 1151 008a 984B     		lw	a4,16(a5)
 1152 008c 8327C4FE 		lw	a5,-20(s0)
 1153 0090 DC4B     		lw	a5,20(a5)
 1154 0092 3E86     		mv	a2,a5
 1155 0094 BA85     		mv	a1,a4
 1156 0096 8567     		li	a5,4096
 1157 0098 138547A4 		addi	a0,a5,-1468
 1158 009c 97000000 		call	pkcau_memcpy_operand
 1158      E7800000 
 518:../Firmware/GD32VW55x_standard_peripheral/Source/gd32vw55x_pkcau.c ****     /* configure the operation mode */
 519:../Firmware/GD32VW55x_standard_peripheral/Source/gd32vw55x_pkcau.c ****     pkcau_mode_set(PKCAU_MODE_MOD_REDUCTION);
 1159              		.loc 1 519 5
 1160 00a4 8567     		li	a5,4096
 1161 00a6 138507D0 		addi	a0,a5,-768
 1162 00aa 97000000 		call	pkcau_mode_set
 1162      E7800000 
 520:../Firmware/GD32VW55x_standard_peripheral/Source/gd32vw55x_pkcau.c ****     /* start computation */
 521:../Firmware/GD32VW55x_standard_peripheral/Source/gd32vw55x_pkcau.c ****     pkcau_start();
 1163              		.loc 1 521 5
 1164 00b2 97000000 		call	pkcau_start
 1164      E7800000 
 522:../Firmware/GD32VW55x_standard_peripheral/Source/gd32vw55x_pkcau.c **** 
 523:../Firmware/GD32VW55x_standard_peripheral/Source/gd32vw55x_pkcau.c ****     /* wait for PKCAU operation completed */
 524:../Firmware/GD32VW55x_standard_peripheral/Source/gd32vw55x_pkcau.c ****     while(SET != pkcau_flag_get(PKCAU_FLAG_END));
 1165              		.loc 1 524 10
 1166 00ba 0100     		nop
 1167              	.L31:
 1168              		.loc 1 524 18 discriminator 1
 1169 00bc 37050200 		li	a0,131072
 1170 00c0 97000000 		call	pkcau_flag_get
 1170      E7800000 
 1171 00c8 2A87     		mv	a4,a0
 1172              		.loc 1 524 10 discriminator 1
 1173 00ca 8547     		li	a5,1
 1174 00cc E318F7FE 		bne	a4,a5,.L31
 525:../Firmware/GD32VW55x_standard_peripheral/Source/gd32vw55x_pkcau.c ****     /* read results from RAM address */
 526:../Firmware/GD32VW55x_standard_peripheral/Source/gd32vw55x_pkcau.c ****     pkcau_memread(0xBD0, (uint8_t *)results, mod_reduc_para->modulus_n_len);
 1175              		.loc 1 526 5
 1176 00d0 8327C4FE 		lw	a5,-20(s0)
 1177 00d4 DC4B     		lw	a5,20(a5)
 1178 00d6 3E86     		mv	a2,a5
 1179 00d8 832584FE 		lw	a1,-24(s0)
 1180 00dc 8567     		li	a5,4096
 1181 00de 138507BD 		addi	a0,a5,-1072
 1182 00e2 97000000 		call	pkcau_memread
 1182      E7800000 
 527:../Firmware/GD32VW55x_standard_peripheral/Source/gd32vw55x_pkcau.c ****     /* clear end flag */
 528:../Firmware/GD32VW55x_standard_peripheral/Source/gd32vw55x_pkcau.c ****     pkcau_flag_clear(PKCAU_FLAG_END);
 1183              		.loc 1 528 5
 1184 00ea 37050200 		li	a0,131072
 1185 00ee 97000000 		call	pkcau_flag_clear
 1185      E7800000 
 529:../Firmware/GD32VW55x_standard_peripheral/Source/gd32vw55x_pkcau.c ****     /* disable PKCAU */
 530:../Firmware/GD32VW55x_standard_peripheral/Source/gd32vw55x_pkcau.c ****     pkcau_disable();
 1186              		.loc 1 530 5
 1187 00f6 97000000 		call	pkcau_disable
 1187      E7800000 
 531:../Firmware/GD32VW55x_standard_peripheral/Source/gd32vw55x_pkcau.c **** }
 1188              		.loc 1 531 1
 1189 00fe 0100     		nop
 1190 0100 F240     		lw	ra,28(sp)
 1191              		.cfi_restore 1
 1192 0102 6244     		lw	s0,24(sp)
 1193              		.cfi_restore 8
 1194              		.cfi_def_cfa 2, 32
 1195 0104 0561     		addi	sp,sp,32
 1196              		.cfi_def_cfa_offset 0
 1197 0106 8280     		jr	ra
 1198              		.cfi_endproc
 1199              	.LFE366:
 1201              		.section	.text.pkcau_arithmetic_operation,"ax",@progbits
 1202              		.align	1
 1203              		.globl	pkcau_arithmetic_operation
 1205              	pkcau_arithmetic_operation:
 1206              	.LFB367:
 532:../Firmware/GD32VW55x_standard_peripheral/Source/gd32vw55x_pkcau.c **** 
 533:../Firmware/GD32VW55x_standard_peripheral/Source/gd32vw55x_pkcau.c **** /*!
 534:../Firmware/GD32VW55x_standard_peripheral/Source/gd32vw55x_pkcau.c ****     \brief      execute arithmetic operation
 535:../Firmware/GD32VW55x_standard_peripheral/Source/gd32vw55x_pkcau.c ****                 This function can only be used when interrupt is not enabled
 536:../Firmware/GD32VW55x_standard_peripheral/Source/gd32vw55x_pkcau.c ****     \param[in]  arithmetic_para: PKCAU arithmetic parameter struct
 537:../Firmware/GD32VW55x_standard_peripheral/Source/gd32vw55x_pkcau.c ****                   oprd_a: operand A
 538:../Firmware/GD32VW55x_standard_peripheral/Source/gd32vw55x_pkcau.c ****                   oprd_a_len: length of operand A in byte
 539:../Firmware/GD32VW55x_standard_peripheral/Source/gd32vw55x_pkcau.c ****                   oprd_b: operand B
 540:../Firmware/GD32VW55x_standard_peripheral/Source/gd32vw55x_pkcau.c ****                   oprd_b_len: length of operand B in byte
 541:../Firmware/GD32VW55x_standard_peripheral/Source/gd32vw55x_pkcau.c ****     \param[in]  mode: arithmetic operation mode
 542:../Firmware/GD32VW55x_standard_peripheral/Source/gd32vw55x_pkcau.c ****                 only one parameter can be selected which is shown as below:
 543:../Firmware/GD32VW55x_standard_peripheral/Source/gd32vw55x_pkcau.c ****       \arg        PKCAU_MODE_ARITHMETIC_ADD: arithmetic addition
 544:../Firmware/GD32VW55x_standard_peripheral/Source/gd32vw55x_pkcau.c ****       \arg        PKCAU_MODE_ARITHMETIC_SUB: arithmetic subtraction
 545:../Firmware/GD32VW55x_standard_peripheral/Source/gd32vw55x_pkcau.c ****       \arg        PKCAU_MODE_ARITHMETIC_MUL: arithmetic multiplication
 546:../Firmware/GD32VW55x_standard_peripheral/Source/gd32vw55x_pkcau.c ****       \arg        PKCAU_MODE_ARITHMETIC_COMP: arithmetic comparison
 547:../Firmware/GD32VW55x_standard_peripheral/Source/gd32vw55x_pkcau.c ****     \param[out] results: output buffer
 548:../Firmware/GD32VW55x_standard_peripheral/Source/gd32vw55x_pkcau.c ****     \retval     none
 549:../Firmware/GD32VW55x_standard_peripheral/Source/gd32vw55x_pkcau.c **** */
 550:../Firmware/GD32VW55x_standard_peripheral/Source/gd32vw55x_pkcau.c **** void pkcau_arithmetic_operation(pkcau_arithmetic_parameter_struct* arithmetic_para, uint32_t mode, 
 551:../Firmware/GD32VW55x_standard_peripheral/Source/gd32vw55x_pkcau.c **** {
 1207              		.loc 1 551 1
 1208              		.cfi_startproc
 1209 0000 7971     		addi	sp,sp,-48
 1210              		.cfi_def_cfa_offset 48
 1211 0002 06D6     		sw	ra,44(sp)
 1212 0004 22D4     		sw	s0,40(sp)
 1213              		.cfi_offset 1, -4
 1214              		.cfi_offset 8, -8
 1215 0006 0018     		addi	s0,sp,48
 1216              		.cfi_def_cfa 8, 0
 1217 0008 232EA4FC 		sw	a0,-36(s0)
 1218 000c 232CB4FC 		sw	a1,-40(s0)
 1219 0010 232AC4FC 		sw	a2,-44(s0)
 552:../Firmware/GD32VW55x_standard_peripheral/Source/gd32vw55x_pkcau.c ****     uint32_t size = 0;
 1220              		.loc 1 552 14
 1221 0014 232604FE 		sw	zero,-20(s0)
 553:../Firmware/GD32VW55x_standard_peripheral/Source/gd32vw55x_pkcau.c **** 
 554:../Firmware/GD32VW55x_standard_peripheral/Source/gd32vw55x_pkcau.c ****     uint32_t max_len = (arithmetic_para->oprd_a_len > arithmetic_para->oprd_b_len) ? \
 1222              		.loc 1 554 70
 1223 0018 8327C4FD 		lw	a5,-36(s0)
 1224 001c D447     		lw	a3,12(a5)
 1225              		.loc 1 554 40
 1226 001e 8327C4FD 		lw	a5,-36(s0)
 1227 0022 D843     		lw	a4,4(a5)
 1228              		.loc 1 554 14
 1229 0024 B687     		mv	a5,a3
 1230 0026 63F3E700 		bgeu	a5,a4,.L33
 1231 002a BA87     		mv	a5,a4
 1232              	.L33:
 1233 002c 2324F4FE 		sw	a5,-24(s0)
 555:../Firmware/GD32VW55x_standard_peripheral/Source/gd32vw55x_pkcau.c ****                                  arithmetic_para->oprd_a_len : arithmetic_para->oprd_b_len;
 556:../Firmware/GD32VW55x_standard_peripheral/Source/gd32vw55x_pkcau.c **** 
 557:../Firmware/GD32VW55x_standard_peripheral/Source/gd32vw55x_pkcau.c ****     /* reset PKCAU */
 558:../Firmware/GD32VW55x_standard_peripheral/Source/gd32vw55x_pkcau.c ****     pkcau_deinit();
 1234              		.loc 1 558 5
 1235 0030 97000000 		call	pkcau_deinit
 1235      E7800000 
 559:../Firmware/GD32VW55x_standard_peripheral/Source/gd32vw55x_pkcau.c ****     /* enable PKCAU */
 560:../Firmware/GD32VW55x_standard_peripheral/Source/gd32vw55x_pkcau.c ****     pkcau_enable();
 1236              		.loc 1 560 5
 1237 0038 97000000 		call	pkcau_enable
 1237      E7800000 
 561:../Firmware/GD32VW55x_standard_peripheral/Source/gd32vw55x_pkcau.c ****     /* wait for PKCAU busy flag to reset */
 562:../Firmware/GD32VW55x_standard_peripheral/Source/gd32vw55x_pkcau.c ****     while(RESET != pkcau_flag_get(PKCAU_FLAG_BUSY));
 1238              		.loc 1 562 10
 1239 0040 0100     		nop
 1240              	.L34:
 1241              		.loc 1 562 20 discriminator 1
 1242 0042 4165     		li	a0,65536
 1243 0044 97000000 		call	pkcau_flag_get
 1243      E7800000 
 1244 004c AA87     		mv	a5,a0
 1245              		.loc 1 562 10 discriminator 1
 1246 004e F5FB     		bne	a5,zero,.L34
 563:../Firmware/GD32VW55x_standard_peripheral/Source/gd32vw55x_pkcau.c ****     /* clear end flag */
 564:../Firmware/GD32VW55x_standard_peripheral/Source/gd32vw55x_pkcau.c ****     pkcau_flag_clear(PKCAU_FLAG_END);
 1247              		.loc 1 564 5
 1248 0050 37050200 		li	a0,131072
 1249 0054 97000000 		call	pkcau_flag_clear
 1249      E7800000 
 565:../Firmware/GD32VW55x_standard_peripheral/Source/gd32vw55x_pkcau.c **** 
 566:../Firmware/GD32VW55x_standard_peripheral/Source/gd32vw55x_pkcau.c ****     /* calculate number of byte to read */
 567:../Firmware/GD32VW55x_standard_peripheral/Source/gd32vw55x_pkcau.c ****     switch(mode) {
 1250              		.loc 1 567 5
 1251 005c 032784FD 		lw	a4,-40(s0)
 1252 0060 8567     		li	a5,4096
 1253 0062 938707C0 		addi	a5,a5,-1024
 1254 0066 630BF706 		beq	a4,a5,.L35
 1255 006a 032784FD 		lw	a4,-40(s0)
 1256 006e 8567     		li	a5,4096
 1257 0070 938707C0 		addi	a5,a5,-1024
 1258 0074 63E8E706 		bgtu	a4,a5,.L42
 1259 0078 032784FD 		lw	a4,-40(s0)
 1260 007c 8567     		li	a5,4096
 1261 007e 938707B0 		addi	a5,a5,-1280
 1262 0082 6303F704 		beq	a4,a5,.L37
 1263 0086 032784FD 		lw	a4,-40(s0)
 1264 008a 8567     		li	a5,4096
 1265 008c 938707B0 		addi	a5,a5,-1280
 1266 0090 63EAE704 		bgtu	a4,a5,.L42
 1267 0094 032784FD 		lw	a4,-40(s0)
 1268 0098 8567     		li	a5,4096
 1269 009a 93870790 		addi	a5,a5,-1792
 1270 009e 630AF700 		beq	a4,a5,.L38
 1271 00a2 032784FD 		lw	a4,-40(s0)
 1272 00a6 8567     		li	a5,4096
 1273 00a8 938707A0 		addi	a5,a5,-1536
 1274 00ac 6309F700 		beq	a4,a5,.L39
 568:../Firmware/GD32VW55x_standard_peripheral/Source/gd32vw55x_pkcau.c ****     case PKCAU_MODE_ARITHMETIC_ADD:
 569:../Firmware/GD32VW55x_standard_peripheral/Source/gd32vw55x_pkcau.c ****         size = max_len + 1U;
 570:../Firmware/GD32VW55x_standard_peripheral/Source/gd32vw55x_pkcau.c ****         break;
 571:../Firmware/GD32VW55x_standard_peripheral/Source/gd32vw55x_pkcau.c ****     case PKCAU_MODE_ARITHMETIC_SUB:
 572:../Firmware/GD32VW55x_standard_peripheral/Source/gd32vw55x_pkcau.c ****         size =  max_len;
 573:../Firmware/GD32VW55x_standard_peripheral/Source/gd32vw55x_pkcau.c ****         break;
 574:../Firmware/GD32VW55x_standard_peripheral/Source/gd32vw55x_pkcau.c ****     case PKCAU_MODE_ARITHMETIC_MUL:
 575:../Firmware/GD32VW55x_standard_peripheral/Source/gd32vw55x_pkcau.c ****         size =  arithmetic_para->oprd_a_len + arithmetic_para->oprd_b_len;
 576:../Firmware/GD32VW55x_standard_peripheral/Source/gd32vw55x_pkcau.c ****         break;
 577:../Firmware/GD32VW55x_standard_peripheral/Source/gd32vw55x_pkcau.c ****     case PKCAU_MODE_ARITHMETIC_COMP:
 578:../Firmware/GD32VW55x_standard_peripheral/Source/gd32vw55x_pkcau.c ****         size = 1U;
 579:../Firmware/GD32VW55x_standard_peripheral/Source/gd32vw55x_pkcau.c ****         break;
 580:../Firmware/GD32VW55x_standard_peripheral/Source/gd32vw55x_pkcau.c ****     default:
 581:../Firmware/GD32VW55x_standard_peripheral/Source/gd32vw55x_pkcau.c ****         break;
 1275              		.loc 1 581 9
 1276 00b0 15A8     		j	.L42
 1277              	.L38:
 569:../Firmware/GD32VW55x_standard_peripheral/Source/gd32vw55x_pkcau.c ****         break;
 1278              		.loc 1 569 14
 1279 00b2 832784FE 		lw	a5,-24(s0)
 1280 00b6 8507     		addi	a5,a5,1
 1281 00b8 2326F4FE 		sw	a5,-20(s0)
 570:../Firmware/GD32VW55x_standard_peripheral/Source/gd32vw55x_pkcau.c ****     case PKCAU_MODE_ARITHMETIC_SUB:
 1282              		.loc 1 570 9
 1283 00bc 2DA0     		j	.L40
 1284              	.L39:
 572:../Firmware/GD32VW55x_standard_peripheral/Source/gd32vw55x_pkcau.c ****         break;
 1285              		.loc 1 572 14
 1286 00be 832784FE 		lw	a5,-24(s0)
 1287 00c2 2326F4FE 		sw	a5,-20(s0)
 573:../Firmware/GD32VW55x_standard_peripheral/Source/gd32vw55x_pkcau.c ****     case PKCAU_MODE_ARITHMETIC_MUL:
 1288              		.loc 1 573 9
 1289 00c6 05A0     		j	.L40
 1290              	.L37:
 575:../Firmware/GD32VW55x_standard_peripheral/Source/gd32vw55x_pkcau.c ****         break;
 1291              		.loc 1 575 32
 1292 00c8 8327C4FD 		lw	a5,-36(s0)
 1293 00cc D843     		lw	a4,4(a5)
 575:../Firmware/GD32VW55x_standard_peripheral/Source/gd32vw55x_pkcau.c ****         break;
 1294              		.loc 1 575 62
 1295 00ce 8327C4FD 		lw	a5,-36(s0)
 1296 00d2 DC47     		lw	a5,12(a5)
 575:../Firmware/GD32VW55x_standard_peripheral/Source/gd32vw55x_pkcau.c ****         break;
 1297              		.loc 1 575 14
 1298 00d4 BA97     		add	a5,a4,a5
 1299 00d6 2326F4FE 		sw	a5,-20(s0)
 576:../Firmware/GD32VW55x_standard_peripheral/Source/gd32vw55x_pkcau.c ****     case PKCAU_MODE_ARITHMETIC_COMP:
 1300              		.loc 1 576 9
 1301 00da 31A0     		j	.L40
 1302              	.L35:
 578:../Firmware/GD32VW55x_standard_peripheral/Source/gd32vw55x_pkcau.c ****         break;
 1303              		.loc 1 578 14
 1304 00dc 8547     		li	a5,1
 1305 00de 2326F4FE 		sw	a5,-20(s0)
 579:../Firmware/GD32VW55x_standard_peripheral/Source/gd32vw55x_pkcau.c ****     default:
 1306              		.loc 1 579 9
 1307 00e2 11A0     		j	.L40
 1308              	.L42:
 1309              		.loc 1 581 9
 1310 00e4 0100     		nop
 1311              	.L40:
 582:../Firmware/GD32VW55x_standard_peripheral/Source/gd32vw55x_pkcau.c ****     }
 583:../Firmware/GD32VW55x_standard_peripheral/Source/gd32vw55x_pkcau.c **** 
 584:../Firmware/GD32VW55x_standard_peripheral/Source/gd32vw55x_pkcau.c ****     /* write the length of operand in bit to PKCAU RAM */
 585:../Firmware/GD32VW55x_standard_peripheral/Source/gd32vw55x_pkcau.c ****     pkcau_memcpy_value(0x00000404U, max_len << 3);
 1312              		.loc 1 585 5
 1313 00e6 832784FE 		lw	a5,-24(s0)
 1314 00ea 8E07     		slli	a5,a5,3
 1315 00ec BE85     		mv	a1,a5
 1316 00ee 13054040 		li	a0,1028
 1317 00f2 97000000 		call	pkcau_memcpy_value
 1317      E7800000 
 586:../Firmware/GD32VW55x_standard_peripheral/Source/gd32vw55x_pkcau.c **** 
 587:../Firmware/GD32VW55x_standard_peripheral/Source/gd32vw55x_pkcau.c ****     /* write the operand A and operand B to PKCAU RAM */
 588:../Firmware/GD32VW55x_standard_peripheral/Source/gd32vw55x_pkcau.c ****     pkcau_memcpy_operand(0x000008B4U, arithmetic_para->oprd_a, arithmetic_para->oprd_a_len);
 1318              		.loc 1 588 5
 1319 00fa 8327C4FD 		lw	a5,-36(s0)
 1320 00fe 9843     		lw	a4,0(a5)
 1321 0100 8327C4FD 		lw	a5,-36(s0)
 1322 0104 DC43     		lw	a5,4(a5)
 1323 0106 3E86     		mv	a2,a5
 1324 0108 BA85     		mv	a1,a4
 1325 010a 8567     		li	a5,4096
 1326 010c 1385478B 		addi	a0,a5,-1868
 1327 0110 97000000 		call	pkcau_memcpy_operand
 1327      E7800000 
 589:../Firmware/GD32VW55x_standard_peripheral/Source/gd32vw55x_pkcau.c ****     pkcau_memcpy_operand(0x00000A44U, arithmetic_para->oprd_b, arithmetic_para->oprd_b_len);
 1328              		.loc 1 589 5
 1329 0118 8327C4FD 		lw	a5,-36(s0)
 1330 011c 9847     		lw	a4,8(a5)
 1331 011e 8327C4FD 		lw	a5,-36(s0)
 1332 0122 DC47     		lw	a5,12(a5)
 1333 0124 3E86     		mv	a2,a5
 1334 0126 BA85     		mv	a1,a4
 1335 0128 8567     		li	a5,4096
 1336 012a 138547A4 		addi	a0,a5,-1468
 1337 012e 97000000 		call	pkcau_memcpy_operand
 1337      E7800000 
 590:../Firmware/GD32VW55x_standard_peripheral/Source/gd32vw55x_pkcau.c ****     /* configure the operation mode */
 591:../Firmware/GD32VW55x_standard_peripheral/Source/gd32vw55x_pkcau.c ****     pkcau_mode_set(mode);
 1338              		.loc 1 591 5
 1339 0136 032584FD 		lw	a0,-40(s0)
 1340 013a 97000000 		call	pkcau_mode_set
 1340      E7800000 
 592:../Firmware/GD32VW55x_standard_peripheral/Source/gd32vw55x_pkcau.c ****     /* start computation */
 593:../Firmware/GD32VW55x_standard_peripheral/Source/gd32vw55x_pkcau.c ****     pkcau_start();
 1341              		.loc 1 593 5
 1342 0142 97000000 		call	pkcau_start
 1342      E7800000 
 594:../Firmware/GD32VW55x_standard_peripheral/Source/gd32vw55x_pkcau.c **** 
 595:../Firmware/GD32VW55x_standard_peripheral/Source/gd32vw55x_pkcau.c ****     /* wait for PKCAU operation completed */
 596:../Firmware/GD32VW55x_standard_peripheral/Source/gd32vw55x_pkcau.c ****     while(SET != pkcau_flag_get(PKCAU_FLAG_END));
 1343              		.loc 1 596 10
 1344 014a 0100     		nop
 1345              	.L41:
 1346              		.loc 1 596 18 discriminator 1
 1347 014c 37050200 		li	a0,131072
 1348 0150 97000000 		call	pkcau_flag_get
 1348      E7800000 
 1349 0158 2A87     		mv	a4,a0
 1350              		.loc 1 596 10 discriminator 1
 1351 015a 8547     		li	a5,1
 1352 015c E318F7FE 		bne	a4,a5,.L41
 597:../Firmware/GD32VW55x_standard_peripheral/Source/gd32vw55x_pkcau.c ****     /* read results from RAM address */
 598:../Firmware/GD32VW55x_standard_peripheral/Source/gd32vw55x_pkcau.c ****     pkcau_memread(0xBD0, (uint8_t *)results, size);
 1353              		.loc 1 598 5
 1354 0160 0326C4FE 		lw	a2,-20(s0)
 1355 0164 832544FD 		lw	a1,-44(s0)
 1356 0168 8567     		li	a5,4096
 1357 016a 138507BD 		addi	a0,a5,-1072
 1358 016e 97000000 		call	pkcau_memread
 1358      E7800000 
 599:../Firmware/GD32VW55x_standard_peripheral/Source/gd32vw55x_pkcau.c ****     /* clear end flag */
 600:../Firmware/GD32VW55x_standard_peripheral/Source/gd32vw55x_pkcau.c ****     pkcau_flag_clear(PKCAU_FLAG_END);
 1359              		.loc 1 600 5
 1360 0176 37050200 		li	a0,131072
 1361 017a 97000000 		call	pkcau_flag_clear
 1361      E7800000 
 601:../Firmware/GD32VW55x_standard_peripheral/Source/gd32vw55x_pkcau.c ****     /* disable PKCAU */
 602:../Firmware/GD32VW55x_standard_peripheral/Source/gd32vw55x_pkcau.c ****     pkcau_disable();
 1362              		.loc 1 602 5
 1363 0182 97000000 		call	pkcau_disable
 1363      E7800000 
 603:../Firmware/GD32VW55x_standard_peripheral/Source/gd32vw55x_pkcau.c **** }
 1364              		.loc 1 603 1
 1365 018a 0100     		nop
 1366 018c B250     		lw	ra,44(sp)
 1367              		.cfi_restore 1
 1368 018e 2254     		lw	s0,40(sp)
 1369              		.cfi_restore 8
 1370              		.cfi_def_cfa 2, 48
 1371 0190 4561     		addi	sp,sp,48
 1372              		.cfi_def_cfa_offset 0
 1373 0192 8280     		jr	ra
 1374              		.cfi_endproc
 1375              	.LFE367:
 1377              		.section	.text.pkcau_crt_exp_operation,"ax",@progbits
 1378              		.align	1
 1379              		.globl	pkcau_crt_exp_operation
 1381              	pkcau_crt_exp_operation:
 1382              	.LFB368:
 604:../Firmware/GD32VW55x_standard_peripheral/Source/gd32vw55x_pkcau.c **** 
 605:../Firmware/GD32VW55x_standard_peripheral/Source/gd32vw55x_pkcau.c **** /*!
 606:../Firmware/GD32VW55x_standard_peripheral/Source/gd32vw55x_pkcau.c ****     \brief      execute RSA CRT exponentiation operation
 607:../Firmware/GD32VW55x_standard_peripheral/Source/gd32vw55x_pkcau.c ****                 This function can only be used when interrupt is not enabled
 608:../Firmware/GD32VW55x_standard_peripheral/Source/gd32vw55x_pkcau.c ****     \param[in]  mod_reduc_para: PKCAU modular CRT parameter struct
 609:../Firmware/GD32VW55x_standard_peripheral/Source/gd32vw55x_pkcau.c ****                   oprd_a: operand A
 610:../Firmware/GD32VW55x_standard_peripheral/Source/gd32vw55x_pkcau.c ****                   oprd_a_len: length of operand A in byte
 611:../Firmware/GD32VW55x_standard_peripheral/Source/gd32vw55x_pkcau.c ****                   oprd_dp: operand dp
 612:../Firmware/GD32VW55x_standard_peripheral/Source/gd32vw55x_pkcau.c ****                   oprd_dp_len: length of operand dp in byte
 613:../Firmware/GD32VW55x_standard_peripheral/Source/gd32vw55x_pkcau.c ****                   oprd_dq:operand dq
 614:../Firmware/GD32VW55x_standard_peripheral/Source/gd32vw55x_pkcau.c ****                   oprd_dq_len: length of operand dq in byte
 615:../Firmware/GD32VW55x_standard_peripheral/Source/gd32vw55x_pkcau.c ****                   oprd_qinv: operand qinv
 616:../Firmware/GD32VW55x_standard_peripheral/Source/gd32vw55x_pkcau.c ****                   oprd_qinv_len: length of operand qinv in byte
 617:../Firmware/GD32VW55x_standard_peripheral/Source/gd32vw55x_pkcau.c ****                   oprd_p: prime operand p
 618:../Firmware/GD32VW55x_standard_peripheral/Source/gd32vw55x_pkcau.c ****                   oprd_p_len: length of operand p in byte
 619:../Firmware/GD32VW55x_standard_peripheral/Source/gd32vw55x_pkcau.c ****                   oprd_q: prime operand q
 620:../Firmware/GD32VW55x_standard_peripheral/Source/gd32vw55x_pkcau.c ****                   oprd_q_len: length of operand q in byte
 621:../Firmware/GD32VW55x_standard_peripheral/Source/gd32vw55x_pkcau.c ****     \param[out] results: output buffer
 622:../Firmware/GD32VW55x_standard_peripheral/Source/gd32vw55x_pkcau.c ****     \retval     none
 623:../Firmware/GD32VW55x_standard_peripheral/Source/gd32vw55x_pkcau.c **** */
 624:../Firmware/GD32VW55x_standard_peripheral/Source/gd32vw55x_pkcau.c **** void pkcau_crt_exp_operation(pkcau_crt_parameter_struct* crt_para, uint8_t* results)
 625:../Firmware/GD32VW55x_standard_peripheral/Source/gd32vw55x_pkcau.c **** {
 1383              		.loc 1 625 1
 1384              		.cfi_startproc
 1385 0000 0111     		addi	sp,sp,-32
 1386              		.cfi_def_cfa_offset 32
 1387 0002 06CE     		sw	ra,28(sp)
 1388 0004 22CC     		sw	s0,24(sp)
 1389              		.cfi_offset 1, -4
 1390              		.cfi_offset 8, -8
 1391 0006 0010     		addi	s0,sp,32
 1392              		.cfi_def_cfa 8, 0
 1393 0008 2326A4FE 		sw	a0,-20(s0)
 1394 000c 2324B4FE 		sw	a1,-24(s0)
 626:../Firmware/GD32VW55x_standard_peripheral/Source/gd32vw55x_pkcau.c ****     /* reset PKCAU */
 627:../Firmware/GD32VW55x_standard_peripheral/Source/gd32vw55x_pkcau.c ****     pkcau_deinit();
 1395              		.loc 1 627 5
 1396 0010 97000000 		call	pkcau_deinit
 1396      E7800000 
 628:../Firmware/GD32VW55x_standard_peripheral/Source/gd32vw55x_pkcau.c ****     /* enable PKCAU */
 629:../Firmware/GD32VW55x_standard_peripheral/Source/gd32vw55x_pkcau.c ****     pkcau_enable();
 1397              		.loc 1 629 5
 1398 0018 97000000 		call	pkcau_enable
 1398      E7800000 
 630:../Firmware/GD32VW55x_standard_peripheral/Source/gd32vw55x_pkcau.c ****     /* wait for PKCAU busy flag to reset */
 631:../Firmware/GD32VW55x_standard_peripheral/Source/gd32vw55x_pkcau.c ****     while(RESET != pkcau_flag_get(PKCAU_FLAG_BUSY));
 1399              		.loc 1 631 10
 1400 0020 0100     		nop
 1401              	.L44:
 1402              		.loc 1 631 20 discriminator 1
 1403 0022 4165     		li	a0,65536
 1404 0024 97000000 		call	pkcau_flag_get
 1404      E7800000 
 1405 002c AA87     		mv	a5,a0
 1406              		.loc 1 631 10 discriminator 1
 1407 002e F5FB     		bne	a5,zero,.L44
 632:../Firmware/GD32VW55x_standard_peripheral/Source/gd32vw55x_pkcau.c ****     /* clear end flag */
 633:../Firmware/GD32VW55x_standard_peripheral/Source/gd32vw55x_pkcau.c ****     pkcau_flag_clear(PKCAU_FLAG_END);
 1408              		.loc 1 633 5
 1409 0030 37050200 		li	a0,131072
 1410 0034 97000000 		call	pkcau_flag_clear
 1410      E7800000 
 634:../Firmware/GD32VW55x_standard_peripheral/Source/gd32vw55x_pkcau.c **** 
 635:../Firmware/GD32VW55x_standard_peripheral/Source/gd32vw55x_pkcau.c ****     /* write the modulus length in bit to PKCAU RAM */
 636:../Firmware/GD32VW55x_standard_peripheral/Source/gd32vw55x_pkcau.c ****     pkcau_memcpy_value(0x00000404U, (crt_para->oprd_a_len << 3));
 1411              		.loc 1 636 46
 1412 003c 8327C4FE 		lw	a5,-20(s0)
 1413 0040 DC43     		lw	a5,4(a5)
 1414              		.loc 1 636 5
 1415 0042 8E07     		slli	a5,a5,3
 1416 0044 BE85     		mv	a1,a5
 1417 0046 13054040 		li	a0,1028
 1418 004a 97000000 		call	pkcau_memcpy_value
 1418      E7800000 
 637:../Firmware/GD32VW55x_standard_peripheral/Source/gd32vw55x_pkcau.c **** 
 638:../Firmware/GD32VW55x_standard_peripheral/Source/gd32vw55x_pkcau.c ****     /* write the operand dp, dq, qinv, p and q to PKCAU RAM */
 639:../Firmware/GD32VW55x_standard_peripheral/Source/gd32vw55x_pkcau.c ****     pkcau_memcpy_operand(0x0000065CU, crt_para->oprd_dp, crt_para->oprd_dp_len);
 1419              		.loc 1 639 47
 1420 0052 8327C4FE 		lw	a5,-20(s0)
 1421 0056 9847     		lw	a4,8(a5)
 1422              		.loc 1 639 5
 1423 0058 8327C4FE 		lw	a5,-20(s0)
 1424 005c DC47     		lw	a5,12(a5)
 1425 005e 3E86     		mv	a2,a5
 1426 0060 BA85     		mv	a1,a4
 1427 0062 1305C065 		li	a0,1628
 1428 0066 97000000 		call	pkcau_memcpy_operand
 1428      E7800000 
 640:../Firmware/GD32VW55x_standard_peripheral/Source/gd32vw55x_pkcau.c ****     pkcau_memcpy_operand(0x00000BD0U, crt_para->oprd_dq, crt_para->oprd_dq_len);
 1429              		.loc 1 640 47
 1430 006e 8327C4FE 		lw	a5,-20(s0)
 1431 0072 984B     		lw	a4,16(a5)
 1432              		.loc 1 640 5
 1433 0074 8327C4FE 		lw	a5,-20(s0)
 1434 0078 DC4B     		lw	a5,20(a5)
 1435 007a 3E86     		mv	a2,a5
 1436 007c BA85     		mv	a1,a4
 1437 007e 8567     		li	a5,4096
 1438 0080 138507BD 		addi	a0,a5,-1072
 1439 0084 97000000 		call	pkcau_memcpy_operand
 1439      E7800000 
 641:../Firmware/GD32VW55x_standard_peripheral/Source/gd32vw55x_pkcau.c ****     pkcau_memcpy_operand(0x000007ECU, crt_para->oprd_qinv, crt_para->oprd_qinv_len);
 1440              		.loc 1 641 47
 1441 008c 8327C4FE 		lw	a5,-20(s0)
 1442 0090 984F     		lw	a4,24(a5)
 1443              		.loc 1 641 5
 1444 0092 8327C4FE 		lw	a5,-20(s0)
 1445 0096 DC4F     		lw	a5,28(a5)
 1446 0098 3E86     		mv	a2,a5
 1447 009a BA85     		mv	a1,a4
 1448 009c 1305C07E 		li	a0,2028
 1449 00a0 97000000 		call	pkcau_memcpy_operand
 1449      E7800000 
 642:../Firmware/GD32VW55x_standard_peripheral/Source/gd32vw55x_pkcau.c ****     pkcau_memcpy_operand(0x0000097CU, crt_para->oprd_p, crt_para->oprd_p_len);
 1450              		.loc 1 642 47
 1451 00a8 8327C4FE 		lw	a5,-20(s0)
 1452 00ac 9853     		lw	a4,32(a5)
 1453              		.loc 1 642 5
 1454 00ae 8327C4FE 		lw	a5,-20(s0)
 1455 00b2 DC53     		lw	a5,36(a5)
 1456 00b4 3E86     		mv	a2,a5
 1457 00b6 BA85     		mv	a1,a4
 1458 00b8 8567     		li	a5,4096
 1459 00ba 1385C797 		addi	a0,a5,-1668
 1460 00be 97000000 		call	pkcau_memcpy_operand
 1460      E7800000 
 643:../Firmware/GD32VW55x_standard_peripheral/Source/gd32vw55x_pkcau.c ****     pkcau_memcpy_operand(0x00000D5CU, crt_para->oprd_q, crt_para->oprd_q_len);
 1461              		.loc 1 643 47
 1462 00c6 8327C4FE 		lw	a5,-20(s0)
 1463 00ca 9857     		lw	a4,40(a5)
 1464              		.loc 1 643 5
 1465 00cc 8327C4FE 		lw	a5,-20(s0)
 1466 00d0 DC57     		lw	a5,44(a5)
 1467 00d2 3E86     		mv	a2,a5
 1468 00d4 BA85     		mv	a1,a4
 1469 00d6 8567     		li	a5,4096
 1470 00d8 1385C7D5 		addi	a0,a5,-676
 1471 00dc 97000000 		call	pkcau_memcpy_operand
 1471      E7800000 
 644:../Firmware/GD32VW55x_standard_peripheral/Source/gd32vw55x_pkcau.c ****     /* write the operand A to PKCAU RAM */
 645:../Firmware/GD32VW55x_standard_peripheral/Source/gd32vw55x_pkcau.c ****     pkcau_memcpy_operand(0x00000EECU, crt_para->oprd_a, crt_para->oprd_a_len);
 1472              		.loc 1 645 5
 1473 00e4 8327C4FE 		lw	a5,-20(s0)
 1474 00e8 9843     		lw	a4,0(a5)
 1475 00ea 8327C4FE 		lw	a5,-20(s0)
 1476 00ee DC43     		lw	a5,4(a5)
 1477 00f0 3E86     		mv	a2,a5
 1478 00f2 BA85     		mv	a1,a4
 1479 00f4 8567     		li	a5,4096
 1480 00f6 1385C7EE 		addi	a0,a5,-276
 1481 00fa 97000000 		call	pkcau_memcpy_operand
 1481      E7800000 
 646:../Firmware/GD32VW55x_standard_peripheral/Source/gd32vw55x_pkcau.c ****     /* configure the operation mode */
 647:../Firmware/GD32VW55x_standard_peripheral/Source/gd32vw55x_pkcau.c ****     pkcau_mode_set(PKCAU_MODE_CRT_EXP);
 1482              		.loc 1 647 5
 1483 0102 13050070 		li	a0,1792
 1484 0106 97000000 		call	pkcau_mode_set
 1484      E7800000 
 648:../Firmware/GD32VW55x_standard_peripheral/Source/gd32vw55x_pkcau.c ****     /* start computation */
 649:../Firmware/GD32VW55x_standard_peripheral/Source/gd32vw55x_pkcau.c ****     pkcau_start();
 1485              		.loc 1 649 5
 1486 010e 97000000 		call	pkcau_start
 1486      E7800000 
 650:../Firmware/GD32VW55x_standard_peripheral/Source/gd32vw55x_pkcau.c **** 
 651:../Firmware/GD32VW55x_standard_peripheral/Source/gd32vw55x_pkcau.c ****     /* wait for PKCAU operation completed */
 652:../Firmware/GD32VW55x_standard_peripheral/Source/gd32vw55x_pkcau.c ****     while(SET != pkcau_flag_get(PKCAU_FLAG_END));
 1487              		.loc 1 652 10
 1488 0116 0100     		nop
 1489              	.L45:
 1490              		.loc 1 652 18 discriminator 1
 1491 0118 37050200 		li	a0,131072
 1492 011c 97000000 		call	pkcau_flag_get
 1492      E7800000 
 1493 0124 2A87     		mv	a4,a0
 1494              		.loc 1 652 10 discriminator 1
 1495 0126 8547     		li	a5,1
 1496 0128 E318F7FE 		bne	a4,a5,.L45
 653:../Firmware/GD32VW55x_standard_peripheral/Source/gd32vw55x_pkcau.c ****     /* read results from RAM address */
 654:../Firmware/GD32VW55x_standard_peripheral/Source/gd32vw55x_pkcau.c ****     pkcau_memread(0x724, (uint8_t *)results, crt_para->oprd_a_len);
 1497              		.loc 1 654 5
 1498 012c 8327C4FE 		lw	a5,-20(s0)
 1499 0130 DC43     		lw	a5,4(a5)
 1500 0132 3E86     		mv	a2,a5
 1501 0134 832584FE 		lw	a1,-24(s0)
 1502 0138 13054072 		li	a0,1828
 1503 013c 97000000 		call	pkcau_memread
 1503      E7800000 
 655:../Firmware/GD32VW55x_standard_peripheral/Source/gd32vw55x_pkcau.c ****     /* clear end flag */
 656:../Firmware/GD32VW55x_standard_peripheral/Source/gd32vw55x_pkcau.c ****     pkcau_flag_clear(PKCAU_FLAG_END);
 1504              		.loc 1 656 5
 1505 0144 37050200 		li	a0,131072
 1506 0148 97000000 		call	pkcau_flag_clear
 1506      E7800000 
 657:../Firmware/GD32VW55x_standard_peripheral/Source/gd32vw55x_pkcau.c ****     /* disable PKCAU */
 658:../Firmware/GD32VW55x_standard_peripheral/Source/gd32vw55x_pkcau.c ****     pkcau_disable();
 1507              		.loc 1 658 5
 1508 0150 97000000 		call	pkcau_disable
 1508      E7800000 
 659:../Firmware/GD32VW55x_standard_peripheral/Source/gd32vw55x_pkcau.c **** }
 1509              		.loc 1 659 1
 1510 0158 0100     		nop
 1511 015a F240     		lw	ra,28(sp)
 1512              		.cfi_restore 1
 1513 015c 6244     		lw	s0,24(sp)
 1514              		.cfi_restore 8
 1515              		.cfi_def_cfa 2, 32
 1516 015e 0561     		addi	sp,sp,32
 1517              		.cfi_def_cfa_offset 0
 1518 0160 8280     		jr	ra
 1519              		.cfi_endproc
 1520              	.LFE368:
 1522              		.section	.text.pkcau_point_check_operation,"ax",@progbits
 1523              		.align	1
 1524              		.globl	pkcau_point_check_operation
 1526              	pkcau_point_check_operation:
 1527              	.LFB369:
 660:../Firmware/GD32VW55x_standard_peripheral/Source/gd32vw55x_pkcau.c **** 
 661:../Firmware/GD32VW55x_standard_peripheral/Source/gd32vw55x_pkcau.c **** /*!
 662:../Firmware/GD32VW55x_standard_peripheral/Source/gd32vw55x_pkcau.c ****     \brief      execute point check operation
 663:../Firmware/GD32VW55x_standard_peripheral/Source/gd32vw55x_pkcau.c ****                 This function can only be used when interrupt is not enabled
 664:../Firmware/GD32VW55x_standard_peripheral/Source/gd32vw55x_pkcau.c ****     \param[in]  point_para: PKCAU point struct
 665:../Firmware/GD32VW55x_standard_peripheral/Source/gd32vw55x_pkcau.c ****                   point_x: point coordinate x
 666:../Firmware/GD32VW55x_standard_peripheral/Source/gd32vw55x_pkcau.c ****                   point_x_len: point coordinate x length in byte
 667:../Firmware/GD32VW55x_standard_peripheral/Source/gd32vw55x_pkcau.c ****                   point_y: point coordinate y
 668:../Firmware/GD32VW55x_standard_peripheral/Source/gd32vw55x_pkcau.c ****                   point_y_len: point coordinate y length in byte
 669:../Firmware/GD32VW55x_standard_peripheral/Source/gd32vw55x_pkcau.c ****     \param[in]  curve_group_para: PKCAU ECC curve parameter struct
 670:../Firmware/GD32VW55x_standard_peripheral/Source/gd32vw55x_pkcau.c ****                   modulus_p: curve modulus p
 671:../Firmware/GD32VW55x_standard_peripheral/Source/gd32vw55x_pkcau.c ****                   modulus_p_len: curve modulus p length in byte
 672:../Firmware/GD32VW55x_standard_peripheral/Source/gd32vw55x_pkcau.c ****                   coff_a: curve coefficient a
 673:../Firmware/GD32VW55x_standard_peripheral/Source/gd32vw55x_pkcau.c ****                   coff_a_len: curve coefficient a length in byte
 674:../Firmware/GD32VW55x_standard_peripheral/Source/gd32vw55x_pkcau.c ****                   coff_b: curve coefficient b
 675:../Firmware/GD32VW55x_standard_peripheral/Source/gd32vw55x_pkcau.c ****                   coff_b_len: curve coefficient b length in byte
 676:../Firmware/GD32VW55x_standard_peripheral/Source/gd32vw55x_pkcau.c ****                   base_point_x: curve base point coordinate x
 677:../Firmware/GD32VW55x_standard_peripheral/Source/gd32vw55x_pkcau.c ****                   base_point_x_len: curve base point coordinate x length in byte
 678:../Firmware/GD32VW55x_standard_peripheral/Source/gd32vw55x_pkcau.c ****                   base_point_y: curve base point coordinate y
 679:../Firmware/GD32VW55x_standard_peripheral/Source/gd32vw55x_pkcau.c ****                   base_point_y_len: curve base point coordinate y length in byte
 680:../Firmware/GD32VW55x_standard_peripheral/Source/gd32vw55x_pkcau.c ****                   order_n: curve prime order n
 681:../Firmware/GD32VW55x_standard_peripheral/Source/gd32vw55x_pkcau.c ****                   order_n_len: curve prime order n length in byte
 682:../Firmware/GD32VW55x_standard_peripheral/Source/gd32vw55x_pkcau.c ****                   a_sign: curve coefficient a sign
 683:../Firmware/GD32VW55x_standard_peripheral/Source/gd32vw55x_pkcau.c ****                   multi_k: scalar multiplier k
 684:../Firmware/GD32VW55x_standard_peripheral/Source/gd32vw55x_pkcau.c ****                   multi_k_len: scalar multiplier k length in byte
 685:../Firmware/GD32VW55x_standard_peripheral/Source/gd32vw55x_pkcau.c ****                   integer_k: integer k length in byte
 686:../Firmware/GD32VW55x_standard_peripheral/Source/gd32vw55x_pkcau.c ****                   integer_k_len: integer k length in byte
 687:../Firmware/GD32VW55x_standard_peripheral/Source/gd32vw55x_pkcau.c ****                   private_key_d: private key d
 688:../Firmware/GD32VW55x_standard_peripheral/Source/gd32vw55x_pkcau.c ****                   private_key_d_len: private key d length in byte
 689:../Firmware/GD32VW55x_standard_peripheral/Source/gd32vw55x_pkcau.c ****                   mont_para: montgomery parameter R2 mod n
 690:../Firmware/GD32VW55x_standard_peripheral/Source/gd32vw55x_pkcau.c ****                   mont_para_len: montgomery parameter R2 mod n length in byte
 691:../Firmware/GD32VW55x_standard_peripheral/Source/gd32vw55x_pkcau.c ****     \param[out] none
 692:../Firmware/GD32VW55x_standard_peripheral/Source/gd32vw55x_pkcau.c ****     \retval     flag indicating whether the point is on an elliptic curve or not
 693:../Firmware/GD32VW55x_standard_peripheral/Source/gd32vw55x_pkcau.c **** */
 694:../Firmware/GD32VW55x_standard_peripheral/Source/gd32vw55x_pkcau.c **** uint8_t pkcau_point_check_operation(pkcau_point_parameter_struct* point_para, const pkcau_ec_group_
 695:../Firmware/GD32VW55x_standard_peripheral/Source/gd32vw55x_pkcau.c **** {
 1528              		.loc 1 695 1
 1529              		.cfi_startproc
 1530 0000 7971     		addi	sp,sp,-48
 1531              		.cfi_def_cfa_offset 48
 1532 0002 06D6     		sw	ra,44(sp)
 1533 0004 22D4     		sw	s0,40(sp)
 1534              		.cfi_offset 1, -4
 1535              		.cfi_offset 8, -8
 1536 0006 0018     		addi	s0,sp,48
 1537              		.cfi_def_cfa 8, 0
 1538 0008 232EA4FC 		sw	a0,-36(s0)
 1539 000c 232CB4FC 		sw	a1,-40(s0)
 696:../Firmware/GD32VW55x_standard_peripheral/Source/gd32vw55x_pkcau.c ****     uint8_t res = 1;
 1540              		.loc 1 696 13
 1541 0010 8547     		li	a5,1
 1542 0012 A307F4FE 		sb	a5,-17(s0)
 697:../Firmware/GD32VW55x_standard_peripheral/Source/gd32vw55x_pkcau.c **** 
 698:../Firmware/GD32VW55x_standard_peripheral/Source/gd32vw55x_pkcau.c ****     /* reset PKCAU */
 699:../Firmware/GD32VW55x_standard_peripheral/Source/gd32vw55x_pkcau.c ****     pkcau_deinit();
 1543              		.loc 1 699 5
 1544 0016 97000000 		call	pkcau_deinit
 1544      E7800000 
 700:../Firmware/GD32VW55x_standard_peripheral/Source/gd32vw55x_pkcau.c ****     /* enable PKCAU */
 701:../Firmware/GD32VW55x_standard_peripheral/Source/gd32vw55x_pkcau.c ****     pkcau_enable();
 1545              		.loc 1 701 5
 1546 001e 97000000 		call	pkcau_enable
 1546      E7800000 
 702:../Firmware/GD32VW55x_standard_peripheral/Source/gd32vw55x_pkcau.c ****     /* wait for PKCAU busy flag to reset */
 703:../Firmware/GD32VW55x_standard_peripheral/Source/gd32vw55x_pkcau.c ****     while(RESET != pkcau_flag_get(PKCAU_FLAG_BUSY));
 1547              		.loc 1 703 10
 1548 0026 0100     		nop
 1549              	.L47:
 1550              		.loc 1 703 20 discriminator 1
 1551 0028 4165     		li	a0,65536
 1552 002a 97000000 		call	pkcau_flag_get
 1552      E7800000 
 1553 0032 AA87     		mv	a5,a0
 1554              		.loc 1 703 10 discriminator 1
 1555 0034 F5FB     		bne	a5,zero,.L47
 704:../Firmware/GD32VW55x_standard_peripheral/Source/gd32vw55x_pkcau.c ****     /* clear end flag */
 705:../Firmware/GD32VW55x_standard_peripheral/Source/gd32vw55x_pkcau.c ****     pkcau_flag_clear(PKCAU_FLAG_END);
 1556              		.loc 1 705 5
 1557 0036 37050200 		li	a0,131072
 1558 003a 97000000 		call	pkcau_flag_clear
 1558      E7800000 
 706:../Firmware/GD32VW55x_standard_peripheral/Source/gd32vw55x_pkcau.c **** 
 707:../Firmware/GD32VW55x_standard_peripheral/Source/gd32vw55x_pkcau.c ****     /* write the modulus length in bit to PKCAU RAM */
 708:../Firmware/GD32VW55x_standard_peripheral/Source/gd32vw55x_pkcau.c ****     pkcau_memcpy_value(0x00000404U, (curve_group_para->modulus_p_len << 3));
 1559              		.loc 1 708 54
 1560 0042 832784FD 		lw	a5,-40(s0)
 1561 0046 DC43     		lw	a5,4(a5)
 1562              		.loc 1 708 5
 1563 0048 8E07     		slli	a5,a5,3
 1564 004a BE85     		mv	a1,a5
 1565 004c 13054040 		li	a0,1028
 1566 0050 97000000 		call	pkcau_memcpy_value
 1566      E7800000 
 709:../Firmware/GD32VW55x_standard_peripheral/Source/gd32vw55x_pkcau.c ****     /* write the sign of curve coefficient a to PKCAU RAM */
 710:../Firmware/GD32VW55x_standard_peripheral/Source/gd32vw55x_pkcau.c ****     pkcau_memcpy_value(0x00000408U, curve_group_para->a_sign);
 1567              		.loc 1 710 5
 1568 0058 832784FD 		lw	a5,-40(s0)
 1569 005c 9C5B     		lw	a5,48(a5)
 1570 005e BE85     		mv	a1,a5
 1571 0060 13058040 		li	a0,1032
 1572 0064 97000000 		call	pkcau_memcpy_value
 1572      E7800000 
 711:../Firmware/GD32VW55x_standard_peripheral/Source/gd32vw55x_pkcau.c **** 
 712:../Firmware/GD32VW55x_standard_peripheral/Source/gd32vw55x_pkcau.c ****     /* write the curve coefficient a, curve coefficient b and curve modulus p to PKCAU RAM */
 713:../Firmware/GD32VW55x_standard_peripheral/Source/gd32vw55x_pkcau.c ****     pkcau_memcpy_operand(0x0000040CU, curve_group_para->coff_a, curve_group_para->coff_a_len);
 1573              		.loc 1 713 55
 1574 006c 832784FD 		lw	a5,-40(s0)
 1575 0070 9847     		lw	a4,8(a5)
 1576              		.loc 1 713 5
 1577 0072 832784FD 		lw	a5,-40(s0)
 1578 0076 DC47     		lw	a5,12(a5)
 1579 0078 3E86     		mv	a2,a5
 1580 007a BA85     		mv	a1,a4
 1581 007c 1305C040 		li	a0,1036
 1582 0080 97000000 		call	pkcau_memcpy_operand
 1582      E7800000 
 714:../Firmware/GD32VW55x_standard_peripheral/Source/gd32vw55x_pkcau.c ****     pkcau_memcpy_operand(0x000007FCU, curve_group_para->coff_b, curve_group_para->coff_b_len);
 1583              		.loc 1 714 55
 1584 0088 832784FD 		lw	a5,-40(s0)
 1585 008c 984B     		lw	a4,16(a5)
 1586              		.loc 1 714 5
 1587 008e 832784FD 		lw	a5,-40(s0)
 1588 0092 DC4B     		lw	a5,20(a5)
 1589 0094 3E86     		mv	a2,a5
 1590 0096 BA85     		mv	a1,a4
 1591 0098 1305C07F 		li	a0,2044
 1592 009c 97000000 		call	pkcau_memcpy_operand
 1592      E7800000 
 715:../Firmware/GD32VW55x_standard_peripheral/Source/gd32vw55x_pkcau.c ****     pkcau_memcpy_operand(0x00000460U, curve_group_para->modulus_p, curve_group_para->modulus_p_len)
 1593              		.loc 1 715 55
 1594 00a4 832784FD 		lw	a5,-40(s0)
 1595 00a8 9843     		lw	a4,0(a5)
 1596              		.loc 1 715 5
 1597 00aa 832784FD 		lw	a5,-40(s0)
 1598 00ae DC43     		lw	a5,4(a5)
 1599 00b0 3E86     		mv	a2,a5
 1600 00b2 BA85     		mv	a1,a4
 1601 00b4 13050046 		li	a0,1120
 1602 00b8 97000000 		call	pkcau_memcpy_operand
 1602      E7800000 
 716:../Firmware/GD32VW55x_standard_peripheral/Source/gd32vw55x_pkcau.c ****     /* write the point coordinate x and point coordinate y to PKCAU RAM */
 717:../Firmware/GD32VW55x_standard_peripheral/Source/gd32vw55x_pkcau.c ****     pkcau_memcpy_operand(0x0000055CU, (uint8_t *)point_para->point_x, point_para->point_x_len);
 1603              		.loc 1 717 5
 1604 00c0 8327C4FD 		lw	a5,-36(s0)
 1605 00c4 9843     		lw	a4,0(a5)
 1606 00c6 8327C4FD 		lw	a5,-36(s0)
 1607 00ca DC43     		lw	a5,4(a5)
 1608 00cc 3E86     		mv	a2,a5
 1609 00ce BA85     		mv	a1,a4
 1610 00d0 1305C055 		li	a0,1372
 1611 00d4 97000000 		call	pkcau_memcpy_operand
 1611      E7800000 
 718:../Firmware/GD32VW55x_standard_peripheral/Source/gd32vw55x_pkcau.c ****     pkcau_memcpy_operand(0x000005B0U, (uint8_t *)point_para->point_y, point_para->point_y_len);
 1612              		.loc 1 718 5
 1613 00dc 8327C4FD 		lw	a5,-36(s0)
 1614 00e0 9847     		lw	a4,8(a5)
 1615 00e2 8327C4FD 		lw	a5,-36(s0)
 1616 00e6 DC47     		lw	a5,12(a5)
 1617 00e8 3E86     		mv	a2,a5
 1618 00ea BA85     		mv	a1,a4
 1619 00ec 1305005B 		li	a0,1456
 1620 00f0 97000000 		call	pkcau_memcpy_operand
 1620      E7800000 
 719:../Firmware/GD32VW55x_standard_peripheral/Source/gd32vw55x_pkcau.c ****     /* configure the operation mode */
 720:../Firmware/GD32VW55x_standard_peripheral/Source/gd32vw55x_pkcau.c ****     pkcau_mode_set(PKCAU_MODE_POINT_CHECK);
 1621              		.loc 1 720 5
 1622 00f8 8D67     		li	a5,12288
 1623 00fa 13850780 		addi	a0,a5,-2048
 1624 00fe 97000000 		call	pkcau_mode_set
 1624      E7800000 
 721:../Firmware/GD32VW55x_standard_peripheral/Source/gd32vw55x_pkcau.c ****     /* start computation */
 722:../Firmware/GD32VW55x_standard_peripheral/Source/gd32vw55x_pkcau.c ****     pkcau_start();
 1625              		.loc 1 722 5
 1626 0106 97000000 		call	pkcau_start
 1626      E7800000 
 723:../Firmware/GD32VW55x_standard_peripheral/Source/gd32vw55x_pkcau.c **** 
 724:../Firmware/GD32VW55x_standard_peripheral/Source/gd32vw55x_pkcau.c ****     /* wait for PKCAU operation completed */
 725:../Firmware/GD32VW55x_standard_peripheral/Source/gd32vw55x_pkcau.c ****     while(SET != pkcau_flag_get(PKCAU_FLAG_END));
 1627              		.loc 1 725 10
 1628 010e 0100     		nop
 1629              	.L48:
 1630              		.loc 1 725 18 discriminator 1
 1631 0110 37050200 		li	a0,131072
 1632 0114 97000000 		call	pkcau_flag_get
 1632      E7800000 
 1633 011c 2A87     		mv	a4,a0
 1634              		.loc 1 725 10 discriminator 1
 1635 011e 8547     		li	a5,1
 1636 0120 E318F7FE 		bne	a4,a5,.L48
 726:../Firmware/GD32VW55x_standard_peripheral/Source/gd32vw55x_pkcau.c ****     /* read results from RAM address */
 727:../Firmware/GD32VW55x_standard_peripheral/Source/gd32vw55x_pkcau.c ****     pkcau_memread(0x400, (uint8_t *)&res, 1);
 1637              		.loc 1 727 5
 1638 0124 9307F4FE 		addi	a5,s0,-17
 1639 0128 0546     		li	a2,1
 1640 012a BE85     		mv	a1,a5
 1641 012c 13050040 		li	a0,1024
 1642 0130 97000000 		call	pkcau_memread
 1642      E7800000 
 728:../Firmware/GD32VW55x_standard_peripheral/Source/gd32vw55x_pkcau.c ****     /* clear end flag */
 729:../Firmware/GD32VW55x_standard_peripheral/Source/gd32vw55x_pkcau.c ****     pkcau_flag_clear(PKCAU_FLAG_END);
 1643              		.loc 1 729 5
 1644 0138 37050200 		li	a0,131072
 1645 013c 97000000 		call	pkcau_flag_clear
 1645      E7800000 
 730:../Firmware/GD32VW55x_standard_peripheral/Source/gd32vw55x_pkcau.c ****     /* disable PKCAU */
 731:../Firmware/GD32VW55x_standard_peripheral/Source/gd32vw55x_pkcau.c ****     pkcau_disable();
 1646              		.loc 1 731 5
 1647 0144 97000000 		call	pkcau_disable
 1647      E7800000 
 732:../Firmware/GD32VW55x_standard_peripheral/Source/gd32vw55x_pkcau.c **** 
 733:../Firmware/GD32VW55x_standard_peripheral/Source/gd32vw55x_pkcau.c ****     return res;
 1648              		.loc 1 733 12
 1649 014c 8347F4FE 		lbu	a5,-17(s0)
 734:../Firmware/GD32VW55x_standard_peripheral/Source/gd32vw55x_pkcau.c **** }
 1650              		.loc 1 734 1
 1651 0150 3E85     		mv	a0,a5
 1652 0152 B250     		lw	ra,44(sp)
 1653              		.cfi_restore 1
 1654 0154 2254     		lw	s0,40(sp)
 1655              		.cfi_restore 8
 1656              		.cfi_def_cfa 2, 48
 1657 0156 4561     		addi	sp,sp,48
 1658              		.cfi_def_cfa_offset 0
 1659 0158 8280     		jr	ra
 1660              		.cfi_endproc
 1661              	.LFE369:
 1663              		.section	.text.pkcau_point_mul_operation,"ax",@progbits
 1664              		.align	1
 1665              		.globl	pkcau_point_mul_operation
 1667              	pkcau_point_mul_operation:
 1668              	.LFB370:
 735:../Firmware/GD32VW55x_standard_peripheral/Source/gd32vw55x_pkcau.c **** 
 736:../Firmware/GD32VW55x_standard_peripheral/Source/gd32vw55x_pkcau.c **** /*!
 737:../Firmware/GD32VW55x_standard_peripheral/Source/gd32vw55x_pkcau.c ****     \brief      execute point multiplication operation
 738:../Firmware/GD32VW55x_standard_peripheral/Source/gd32vw55x_pkcau.c ****                 This function can only be used when interrupt is not enabled
 739:../Firmware/GD32VW55x_standard_peripheral/Source/gd32vw55x_pkcau.c ****     \param[in]  point_para: PKCAU point struct
 740:../Firmware/GD32VW55x_standard_peripheral/Source/gd32vw55x_pkcau.c ****                   point_x: point coordinate x
 741:../Firmware/GD32VW55x_standard_peripheral/Source/gd32vw55x_pkcau.c ****                   point_x_len: point coordinate x length in byte
 742:../Firmware/GD32VW55x_standard_peripheral/Source/gd32vw55x_pkcau.c ****                   point_y: point coordinate y
 743:../Firmware/GD32VW55x_standard_peripheral/Source/gd32vw55x_pkcau.c ****                   point_y_len: point coordinate y length in byte
 744:../Firmware/GD32VW55x_standard_peripheral/Source/gd32vw55x_pkcau.c ****     \param[in]  curve_group_para: PKCAU ECC curve parameter struct
 745:../Firmware/GD32VW55x_standard_peripheral/Source/gd32vw55x_pkcau.c ****                   modulus_p: curve modulus p
 746:../Firmware/GD32VW55x_standard_peripheral/Source/gd32vw55x_pkcau.c ****                   modulus_p_len: curve modulus p length in byte
 747:../Firmware/GD32VW55x_standard_peripheral/Source/gd32vw55x_pkcau.c ****                   coff_a: curve coefficient a
 748:../Firmware/GD32VW55x_standard_peripheral/Source/gd32vw55x_pkcau.c ****                   coff_a_len: curve coefficient a length in byte
 749:../Firmware/GD32VW55x_standard_peripheral/Source/gd32vw55x_pkcau.c ****                   coff_b: curve coefficient b
 750:../Firmware/GD32VW55x_standard_peripheral/Source/gd32vw55x_pkcau.c ****                   coff_b_len: curve coefficient b length in byte
 751:../Firmware/GD32VW55x_standard_peripheral/Source/gd32vw55x_pkcau.c ****                   base_point_x: curve base point coordinate x
 752:../Firmware/GD32VW55x_standard_peripheral/Source/gd32vw55x_pkcau.c ****                   base_point_x_len: curve base point coordinate x length in byte
 753:../Firmware/GD32VW55x_standard_peripheral/Source/gd32vw55x_pkcau.c ****                   base_point_y: curve base point coordinate y
 754:../Firmware/GD32VW55x_standard_peripheral/Source/gd32vw55x_pkcau.c ****                   base_point_y_len: curve base point coordinate y length in byte
 755:../Firmware/GD32VW55x_standard_peripheral/Source/gd32vw55x_pkcau.c ****                   order_n: curve prime order n
 756:../Firmware/GD32VW55x_standard_peripheral/Source/gd32vw55x_pkcau.c ****                   order_n_len: curve prime order n length in byte
 757:../Firmware/GD32VW55x_standard_peripheral/Source/gd32vw55x_pkcau.c ****                   a_sign: curve coefficient a sign
 758:../Firmware/GD32VW55x_standard_peripheral/Source/gd32vw55x_pkcau.c **** 
 759:../Firmware/GD32VW55x_standard_peripheral/Source/gd32vw55x_pkcau.c ****                   multi_k: scalar multiplier k
 760:../Firmware/GD32VW55x_standard_peripheral/Source/gd32vw55x_pkcau.c ****                   multi_k_len: scalar multiplier k length in byte
 761:../Firmware/GD32VW55x_standard_peripheral/Source/gd32vw55x_pkcau.c ****                   integer_k: integer k length in byte
 762:../Firmware/GD32VW55x_standard_peripheral/Source/gd32vw55x_pkcau.c ****                   integer_k_len: integer k length in byte
 763:../Firmware/GD32VW55x_standard_peripheral/Source/gd32vw55x_pkcau.c ****                   private_key_d: private key d
 764:../Firmware/GD32VW55x_standard_peripheral/Source/gd32vw55x_pkcau.c ****                   private_key_d_len: private key d length in byte
 765:../Firmware/GD32VW55x_standard_peripheral/Source/gd32vw55x_pkcau.c ****                   mont_para: montgomery parameter R2 mod n
 766:../Firmware/GD32VW55x_standard_peripheral/Source/gd32vw55x_pkcau.c ****                   mont_para_len: montgomery parameter R2 mod n length in byte
 767:../Firmware/GD32VW55x_standard_peripheral/Source/gd32vw55x_pkcau.c **** 
 768:../Firmware/GD32VW55x_standard_peripheral/Source/gd32vw55x_pkcau.c ****     \param[in]  mode: point multiplication operation mode
 769:../Firmware/GD32VW55x_standard_peripheral/Source/gd32vw55x_pkcau.c ****                 only one parameter can be selected which is shown as below:
 770:../Firmware/GD32VW55x_standard_peripheral/Source/gd32vw55x_pkcau.c ****       \arg        PKCAU_MODE_ECC_SCALAR_MUL_FAST: montgomery parameter computation then ECC scalar 
 771:../Firmware/GD32VW55x_standard_peripheral/Source/gd32vw55x_pkcau.c ****       \arg        PKCAU_MODE_ECC_SCALAR_MUL: ECC scalar multiplication only
 772:../Firmware/GD32VW55x_standard_peripheral/Source/gd32vw55x_pkcau.c ****     \param[out] result: ecdsa signature, ecc scalar multiplication output structure
 773:../Firmware/GD32VW55x_standard_peripheral/Source/gd32vw55x_pkcau.c ****                   sign_extra: flag of extended ECDSA sign (extra outputs)
 774:../Firmware/GD32VW55x_standard_peripheral/Source/gd32vw55x_pkcau.c ****                   sign_r: pointer to signature part r
 775:../Firmware/GD32VW55x_standard_peripheral/Source/gd32vw55x_pkcau.c ****                   sign_s: pointer to signature part s
 776:../Firmware/GD32VW55x_standard_peripheral/Source/gd32vw55x_pkcau.c ****                   point_x: pointer to point kP coordinate x
 777:../Firmware/GD32VW55x_standard_peripheral/Source/gd32vw55x_pkcau.c ****                   point_y: pointer to point kP coordinate y
 778:../Firmware/GD32VW55x_standard_peripheral/Source/gd32vw55x_pkcau.c ****     \retval     none
 779:../Firmware/GD32VW55x_standard_peripheral/Source/gd32vw55x_pkcau.c **** */
 780:../Firmware/GD32VW55x_standard_peripheral/Source/gd32vw55x_pkcau.c **** void pkcau_point_mul_operation(pkcau_point_parameter_struct* point_para, const pkcau_ec_group_param
 781:../Firmware/GD32VW55x_standard_peripheral/Source/gd32vw55x_pkcau.c ****                                uint32_t mode, pkcau_ecc_out_struct* result)
 782:../Firmware/GD32VW55x_standard_peripheral/Source/gd32vw55x_pkcau.c **** {
 1669              		.loc 1 782 1
 1670              		.cfi_startproc
 1671 0000 0111     		addi	sp,sp,-32
 1672              		.cfi_def_cfa_offset 32
 1673 0002 06CE     		sw	ra,28(sp)
 1674 0004 22CC     		sw	s0,24(sp)
 1675              		.cfi_offset 1, -4
 1676              		.cfi_offset 8, -8
 1677 0006 0010     		addi	s0,sp,32
 1678              		.cfi_def_cfa 8, 0
 1679 0008 2326A4FE 		sw	a0,-20(s0)
 1680 000c 2324B4FE 		sw	a1,-24(s0)
 1681 0010 2322C4FE 		sw	a2,-28(s0)
 1682 0014 2320D4FE 		sw	a3,-32(s0)
 783:../Firmware/GD32VW55x_standard_peripheral/Source/gd32vw55x_pkcau.c ****     /* reset PKCAU */
 784:../Firmware/GD32VW55x_standard_peripheral/Source/gd32vw55x_pkcau.c ****     pkcau_deinit();
 1683              		.loc 1 784 5
 1684 0018 97000000 		call	pkcau_deinit
 1684      E7800000 
 785:../Firmware/GD32VW55x_standard_peripheral/Source/gd32vw55x_pkcau.c ****     /* enable PKCAU */
 786:../Firmware/GD32VW55x_standard_peripheral/Source/gd32vw55x_pkcau.c ****     pkcau_enable();
 1685              		.loc 1 786 5
 1686 0020 97000000 		call	pkcau_enable
 1686      E7800000 
 787:../Firmware/GD32VW55x_standard_peripheral/Source/gd32vw55x_pkcau.c ****     /* wait for PKCAU busy flag to reset */
 788:../Firmware/GD32VW55x_standard_peripheral/Source/gd32vw55x_pkcau.c ****     while(RESET != pkcau_flag_get(PKCAU_FLAG_BUSY));
 1687              		.loc 1 788 10
 1688 0028 0100     		nop
 1689              	.L51:
 1690              		.loc 1 788 20 discriminator 1
 1691 002a 4165     		li	a0,65536
 1692 002c 97000000 		call	pkcau_flag_get
 1692      E7800000 
 1693 0034 AA87     		mv	a5,a0
 1694              		.loc 1 788 10 discriminator 1
 1695 0036 F5FB     		bne	a5,zero,.L51
 789:../Firmware/GD32VW55x_standard_peripheral/Source/gd32vw55x_pkcau.c ****     /* clear end flag */
 790:../Firmware/GD32VW55x_standard_peripheral/Source/gd32vw55x_pkcau.c ****     pkcau_flag_clear(PKCAU_FLAG_END);
 1696              		.loc 1 790 5
 1697 0038 37050200 		li	a0,131072
 1698 003c 97000000 		call	pkcau_flag_clear
 1698      E7800000 
 791:../Firmware/GD32VW55x_standard_peripheral/Source/gd32vw55x_pkcau.c **** 
 792:../Firmware/GD32VW55x_standard_peripheral/Source/gd32vw55x_pkcau.c ****     /* write the length of scalar multiplier k, curve modulus p length in bit and curve coefficient
 793:../Firmware/GD32VW55x_standard_peripheral/Source/gd32vw55x_pkcau.c ****     pkcau_memcpy_value(0x00000400U, (curve_group_para->multi_k_len << 3));
 1699              		.loc 1 793 54
 1700 0044 832784FE 		lw	a5,-24(s0)
 1701 0048 9C5F     		lw	a5,56(a5)
 1702              		.loc 1 793 5
 1703 004a 8E07     		slli	a5,a5,3
 1704 004c BE85     		mv	a1,a5
 1705 004e 13050040 		li	a0,1024
 1706 0052 97000000 		call	pkcau_memcpy_value
 1706      E7800000 
 794:../Firmware/GD32VW55x_standard_peripheral/Source/gd32vw55x_pkcau.c ****     pkcau_memcpy_value(0x00000404U, (curve_group_para->modulus_p_len << 3));
 1707              		.loc 1 794 54
 1708 005a 832784FE 		lw	a5,-24(s0)
 1709 005e DC43     		lw	a5,4(a5)
 1710              		.loc 1 794 5
 1711 0060 8E07     		slli	a5,a5,3
 1712 0062 BE85     		mv	a1,a5
 1713 0064 13054040 		li	a0,1028
 1714 0068 97000000 		call	pkcau_memcpy_value
 1714      E7800000 
 795:../Firmware/GD32VW55x_standard_peripheral/Source/gd32vw55x_pkcau.c ****     pkcau_memcpy_value(0x00000408U, curve_group_para->a_sign);
 1715              		.loc 1 795 5
 1716 0070 832784FE 		lw	a5,-24(s0)
 1717 0074 9C5B     		lw	a5,48(a5)
 1718 0076 BE85     		mv	a1,a5
 1719 0078 13058040 		li	a0,1032
 1720 007c 97000000 		call	pkcau_memcpy_value
 1720      E7800000 
 796:../Firmware/GD32VW55x_standard_peripheral/Source/gd32vw55x_pkcau.c **** 
 797:../Firmware/GD32VW55x_standard_peripheral/Source/gd32vw55x_pkcau.c ****     /* write the curve coefficient a, curve modulus p, scalar multiplier k, point coordinate x and 
 798:../Firmware/GD32VW55x_standard_peripheral/Source/gd32vw55x_pkcau.c ****     pkcau_memcpy_operand(0x0000040CU, curve_group_para->coff_a, curve_group_para->coff_a_len);
 1721              		.loc 1 798 55
 1722 0084 832784FE 		lw	a5,-24(s0)
 1723 0088 9847     		lw	a4,8(a5)
 1724              		.loc 1 798 5
 1725 008a 832784FE 		lw	a5,-24(s0)
 1726 008e DC47     		lw	a5,12(a5)
 1727 0090 3E86     		mv	a2,a5
 1728 0092 BA85     		mv	a1,a4
 1729 0094 1305C040 		li	a0,1036
 1730 0098 97000000 		call	pkcau_memcpy_operand
 1730      E7800000 
 799:../Firmware/GD32VW55x_standard_peripheral/Source/gd32vw55x_pkcau.c ****     pkcau_memcpy_operand(0x00000460U, curve_group_para->modulus_p, curve_group_para->modulus_p_len)
 1731              		.loc 1 799 55
 1732 00a0 832784FE 		lw	a5,-24(s0)
 1733 00a4 9843     		lw	a4,0(a5)
 1734              		.loc 1 799 5
 1735 00a6 832784FE 		lw	a5,-24(s0)
 1736 00aa DC43     		lw	a5,4(a5)
 1737 00ac 3E86     		mv	a2,a5
 1738 00ae BA85     		mv	a1,a4
 1739 00b0 13050046 		li	a0,1120
 1740 00b4 97000000 		call	pkcau_memcpy_operand
 1740      E7800000 
 800:../Firmware/GD32VW55x_standard_peripheral/Source/gd32vw55x_pkcau.c ****     pkcau_memcpy_operand(0x00000508U, (uint8_t *)curve_group_para->multi_k, curve_group_para->multi
 1741              		.loc 1 800 66
 1742 00bc 832784FE 		lw	a5,-24(s0)
 1743 00c0 D85B     		lw	a4,52(a5)
 1744              		.loc 1 800 5
 1745 00c2 832784FE 		lw	a5,-24(s0)
 1746 00c6 9C5F     		lw	a5,56(a5)
 1747 00c8 3E86     		mv	a2,a5
 1748 00ca BA85     		mv	a1,a4
 1749 00cc 13058050 		li	a0,1288
 1750 00d0 97000000 		call	pkcau_memcpy_operand
 1750      E7800000 
 801:../Firmware/GD32VW55x_standard_peripheral/Source/gd32vw55x_pkcau.c ****     pkcau_memcpy_operand(0x0000055CU, (uint8_t *)point_para->point_x, point_para->point_x_len);
 1751              		.loc 1 801 5
 1752 00d8 8327C4FE 		lw	a5,-20(s0)
 1753 00dc 9843     		lw	a4,0(a5)
 1754 00de 8327C4FE 		lw	a5,-20(s0)
 1755 00e2 DC43     		lw	a5,4(a5)
 1756 00e4 3E86     		mv	a2,a5
 1757 00e6 BA85     		mv	a1,a4
 1758 00e8 1305C055 		li	a0,1372
 1759 00ec 97000000 		call	pkcau_memcpy_operand
 1759      E7800000 
 802:../Firmware/GD32VW55x_standard_peripheral/Source/gd32vw55x_pkcau.c ****     pkcau_memcpy_operand(0x000005B0U, (uint8_t *)point_para->point_y, point_para->point_y_len);
 1760              		.loc 1 802 5
 1761 00f4 8327C4FE 		lw	a5,-20(s0)
 1762 00f8 9847     		lw	a4,8(a5)
 1763 00fa 8327C4FE 		lw	a5,-20(s0)
 1764 00fe DC47     		lw	a5,12(a5)
 1765 0100 3E86     		mv	a2,a5
 1766 0102 BA85     		mv	a1,a4
 1767 0104 1305005B 		li	a0,1456
 1768 0108 97000000 		call	pkcau_memcpy_operand
 1768      E7800000 
 803:../Firmware/GD32VW55x_standard_peripheral/Source/gd32vw55x_pkcau.c ****     if(mode == PKCAU_MODE_ECC_SCALAR_MUL_FAST){
 1769              		.loc 1 803 7
 1770 0110 032744FE 		lw	a4,-28(s0)
 1771 0114 8967     		li	a5,8192
 1772 0116 93870720 		addi	a5,a5,512
 1773 011a 6310F702 		bne	a4,a5,.L52
 804:../Firmware/GD32VW55x_standard_peripheral/Source/gd32vw55x_pkcau.c ****         pkcau_memcpy_operand(0x000004B4U, curve_group_para->mont_para, curve_group_para->mont_para_
 1774              		.loc 1 804 59
 1775 011e 832784FE 		lw	a5,-24(s0)
 1776 0122 F847     		lw	a4,76(a5)
 1777              		.loc 1 804 9
 1778 0124 832784FE 		lw	a5,-24(s0)
 1779 0128 BC4B     		lw	a5,80(a5)
 1780 012a 3E86     		mv	a2,a5
 1781 012c BA85     		mv	a1,a4
 1782 012e 1305404B 		li	a0,1204
 1783 0132 97000000 		call	pkcau_memcpy_operand
 1783      E7800000 
 1784              	.L52:
 805:../Firmware/GD32VW55x_standard_peripheral/Source/gd32vw55x_pkcau.c ****     }
 806:../Firmware/GD32VW55x_standard_peripheral/Source/gd32vw55x_pkcau.c ****     /* configure the operation mode */
 807:../Firmware/GD32VW55x_standard_peripheral/Source/gd32vw55x_pkcau.c ****     pkcau_mode_set(mode);
 1785              		.loc 1 807 5
 1786 013a 032544FE 		lw	a0,-28(s0)
 1787 013e 97000000 		call	pkcau_mode_set
 1787      E7800000 
 808:../Firmware/GD32VW55x_standard_peripheral/Source/gd32vw55x_pkcau.c ****     /* start computation */
 809:../Firmware/GD32VW55x_standard_peripheral/Source/gd32vw55x_pkcau.c ****     pkcau_start();
 1788              		.loc 1 809 5
 1789 0146 97000000 		call	pkcau_start
 1789      E7800000 
 810:../Firmware/GD32VW55x_standard_peripheral/Source/gd32vw55x_pkcau.c **** 
 811:../Firmware/GD32VW55x_standard_peripheral/Source/gd32vw55x_pkcau.c ****     /* wait for PKCAU operation completed */
 812:../Firmware/GD32VW55x_standard_peripheral/Source/gd32vw55x_pkcau.c ****     while(SET != pkcau_flag_get(PKCAU_FLAG_END));
 1790              		.loc 1 812 10
 1791 014e 0100     		nop
 1792              	.L53:
 1793              		.loc 1 812 18 discriminator 1
 1794 0150 37050200 		li	a0,131072
 1795 0154 97000000 		call	pkcau_flag_get
 1795      E7800000 
 1796 015c 2A87     		mv	a4,a0
 1797              		.loc 1 812 10 discriminator 1
 1798 015e 8547     		li	a5,1
 1799 0160 E318F7FE 		bne	a4,a5,.L53
 813:../Firmware/GD32VW55x_standard_peripheral/Source/gd32vw55x_pkcau.c ****     /* read results from RAM address */
 814:../Firmware/GD32VW55x_standard_peripheral/Source/gd32vw55x_pkcau.c ****     pkcau_memread(0x55C, (uint8_t*)result->point_x, curve_group_para->modulus_p_len);
 1800              		.loc 1 814 5
 1801 0164 832704FE 		lw	a5,-32(s0)
 1802 0168 D847     		lw	a4,12(a5)
 1803 016a 832784FE 		lw	a5,-24(s0)
 1804 016e DC43     		lw	a5,4(a5)
 1805 0170 3E86     		mv	a2,a5
 1806 0172 BA85     		mv	a1,a4
 1807 0174 1305C055 		li	a0,1372
 1808 0178 97000000 		call	pkcau_memread
 1808      E7800000 
 815:../Firmware/GD32VW55x_standard_peripheral/Source/gd32vw55x_pkcau.c ****     pkcau_memread(0x5B0, (uint8_t*)result->point_y, curve_group_para->modulus_p_len);
 1809              		.loc 1 815 5
 1810 0180 832704FE 		lw	a5,-32(s0)
 1811 0184 984B     		lw	a4,16(a5)
 1812 0186 832784FE 		lw	a5,-24(s0)
 1813 018a DC43     		lw	a5,4(a5)
 1814 018c 3E86     		mv	a2,a5
 1815 018e BA85     		mv	a1,a4
 1816 0190 1305005B 		li	a0,1456
 1817 0194 97000000 		call	pkcau_memread
 1817      E7800000 
 816:../Firmware/GD32VW55x_standard_peripheral/Source/gd32vw55x_pkcau.c ****     /* clear end flag */
 817:../Firmware/GD32VW55x_standard_peripheral/Source/gd32vw55x_pkcau.c ****     pkcau_flag_clear(PKCAU_FLAG_END);
 1818              		.loc 1 817 5
 1819 019c 37050200 		li	a0,131072
 1820 01a0 97000000 		call	pkcau_flag_clear
 1820      E7800000 
 818:../Firmware/GD32VW55x_standard_peripheral/Source/gd32vw55x_pkcau.c ****     /* disable PKCAU */
 819:../Firmware/GD32VW55x_standard_peripheral/Source/gd32vw55x_pkcau.c ****     pkcau_disable();
 1821              		.loc 1 819 5
 1822 01a8 97000000 		call	pkcau_disable
 1822      E7800000 
 820:../Firmware/GD32VW55x_standard_peripheral/Source/gd32vw55x_pkcau.c **** }
 1823              		.loc 1 820 1
 1824 01b0 0100     		nop
 1825 01b2 F240     		lw	ra,28(sp)
 1826              		.cfi_restore 1
 1827 01b4 6244     		lw	s0,24(sp)
 1828              		.cfi_restore 8
 1829              		.cfi_def_cfa 2, 32
 1830 01b6 0561     		addi	sp,sp,32
 1831              		.cfi_def_cfa_offset 0
 1832 01b8 8280     		jr	ra
 1833              		.cfi_endproc
 1834              	.LFE370:
 1836              		.section	.text.pkcau_ecdsa_sign_operation,"ax",@progbits
 1837              		.align	1
 1838              		.globl	pkcau_ecdsa_sign_operation
 1840              	pkcau_ecdsa_sign_operation:
 1841              	.LFB371:
 821:../Firmware/GD32VW55x_standard_peripheral/Source/gd32vw55x_pkcau.c **** 
 822:../Firmware/GD32VW55x_standard_peripheral/Source/gd32vw55x_pkcau.c **** /*!
 823:../Firmware/GD32VW55x_standard_peripheral/Source/gd32vw55x_pkcau.c ****     \brief      execute ECDSA sign operation
 824:../Firmware/GD32VW55x_standard_peripheral/Source/gd32vw55x_pkcau.c ****                 This function can only be used when interrupt is not enabled
 825:../Firmware/GD32VW55x_standard_peripheral/Source/gd32vw55x_pkcau.c ****     \param[in]  hash_para: hash struct
 826:../Firmware/GD32VW55x_standard_peripheral/Source/gd32vw55x_pkcau.c ****                   hash_z: hash value z
 827:../Firmware/GD32VW55x_standard_peripheral/Source/gd32vw55x_pkcau.c ****                   hash_z_len: hash value z length in byte
 828:../Firmware/GD32VW55x_standard_peripheral/Source/gd32vw55x_pkcau.c ****     \param[in]  curve_group_para: PKCAU ECC curve paramter struct
 829:../Firmware/GD32VW55x_standard_peripheral/Source/gd32vw55x_pkcau.c ****                   modulus_p: curve modulus p
 830:../Firmware/GD32VW55x_standard_peripheral/Source/gd32vw55x_pkcau.c ****                   modulus_p_len: curve modulus p length in byte
 831:../Firmware/GD32VW55x_standard_peripheral/Source/gd32vw55x_pkcau.c ****                   coff_a: curve coefficient a
 832:../Firmware/GD32VW55x_standard_peripheral/Source/gd32vw55x_pkcau.c ****                   coff_a_len: curve coefficient a length in byte
 833:../Firmware/GD32VW55x_standard_peripheral/Source/gd32vw55x_pkcau.c ****                   coff_b: curve coefficient b
 834:../Firmware/GD32VW55x_standard_peripheral/Source/gd32vw55x_pkcau.c ****                   coff_b_len: curve coefficient b length in byte
 835:../Firmware/GD32VW55x_standard_peripheral/Source/gd32vw55x_pkcau.c ****                   base_point_x: curve base point coordinate x
 836:../Firmware/GD32VW55x_standard_peripheral/Source/gd32vw55x_pkcau.c ****                   base_point_x_len: curve base point coordinate x length in byte
 837:../Firmware/GD32VW55x_standard_peripheral/Source/gd32vw55x_pkcau.c ****                   base_point_y: curve base point coordinate y
 838:../Firmware/GD32VW55x_standard_peripheral/Source/gd32vw55x_pkcau.c ****                   base_point_y_len: curve base point coordinate y length in byte
 839:../Firmware/GD32VW55x_standard_peripheral/Source/gd32vw55x_pkcau.c ****                   order_n: curve prime order n
 840:../Firmware/GD32VW55x_standard_peripheral/Source/gd32vw55x_pkcau.c ****                   order_n_len: curve prime order n length in byte
 841:../Firmware/GD32VW55x_standard_peripheral/Source/gd32vw55x_pkcau.c ****                   a_sign: curve coefficient a sign
 842:../Firmware/GD32VW55x_standard_peripheral/Source/gd32vw55x_pkcau.c ****                   multi_k: scalar multiplier k
 843:../Firmware/GD32VW55x_standard_peripheral/Source/gd32vw55x_pkcau.c ****                   multi_k_len: scalar multiplier k length in byte
 844:../Firmware/GD32VW55x_standard_peripheral/Source/gd32vw55x_pkcau.c ****                   integer_k: integer k length in byte
 845:../Firmware/GD32VW55x_standard_peripheral/Source/gd32vw55x_pkcau.c ****                   integer_k_len: integer k length in byte
 846:../Firmware/GD32VW55x_standard_peripheral/Source/gd32vw55x_pkcau.c ****                   private_key_d: private key d
 847:../Firmware/GD32VW55x_standard_peripheral/Source/gd32vw55x_pkcau.c ****                   private_key_d_len: private key d length in byte
 848:../Firmware/GD32VW55x_standard_peripheral/Source/gd32vw55x_pkcau.c ****                   mont_para: montgomery parameter R2 mod n
 849:../Firmware/GD32VW55x_standard_peripheral/Source/gd32vw55x_pkcau.c ****                   mont_para_len: montgomery parameter R2 mod n length in byte
 850:../Firmware/GD32VW55x_standard_peripheral/Source/gd32vw55x_pkcau.c ****     \param[out] result: ecdsa signature, ecc scalar multiplication output structure
 851:../Firmware/GD32VW55x_standard_peripheral/Source/gd32vw55x_pkcau.c ****                   sign_extra: flag of extended ECDSA sign (extra outputs)
 852:../Firmware/GD32VW55x_standard_peripheral/Source/gd32vw55x_pkcau.c ****                   sign_r: pointer to signature part r
 853:../Firmware/GD32VW55x_standard_peripheral/Source/gd32vw55x_pkcau.c ****                   sign_s: pointer to signature part s
 854:../Firmware/GD32VW55x_standard_peripheral/Source/gd32vw55x_pkcau.c ****                   point_x: pointer to point kP coordinate x
 855:../Firmware/GD32VW55x_standard_peripheral/Source/gd32vw55x_pkcau.c ****                   point_y: pointer to point kP coordinate y
 856:../Firmware/GD32VW55x_standard_peripheral/Source/gd32vw55x_pkcau.c ****     \retval     flag indicating whether the signature operation was successful
 857:../Firmware/GD32VW55x_standard_peripheral/Source/gd32vw55x_pkcau.c **** */
 858:../Firmware/GD32VW55x_standard_peripheral/Source/gd32vw55x_pkcau.c **** uint8_t pkcau_ecdsa_sign_operation(pkcau_hash_parameter_struct* hash_para, \
 859:../Firmware/GD32VW55x_standard_peripheral/Source/gd32vw55x_pkcau.c ****                                    const pkcau_ec_group_parameter_struct* curve_group_para, \
 860:../Firmware/GD32VW55x_standard_peripheral/Source/gd32vw55x_pkcau.c ****                                    pkcau_ecc_out_struct* result)
 861:../Firmware/GD32VW55x_standard_peripheral/Source/gd32vw55x_pkcau.c **** {
 1842              		.loc 1 861 1
 1843              		.cfi_startproc
 1844 0000 7971     		addi	sp,sp,-48
 1845              		.cfi_def_cfa_offset 48
 1846 0002 06D6     		sw	ra,44(sp)
 1847 0004 22D4     		sw	s0,40(sp)
 1848              		.cfi_offset 1, -4
 1849              		.cfi_offset 8, -8
 1850 0006 0018     		addi	s0,sp,48
 1851              		.cfi_def_cfa 8, 0
 1852 0008 232EA4FC 		sw	a0,-36(s0)
 1853 000c 232CB4FC 		sw	a1,-40(s0)
 1854 0010 232AC4FC 		sw	a2,-44(s0)
 862:../Firmware/GD32VW55x_standard_peripheral/Source/gd32vw55x_pkcau.c ****     uint8_t res = 2;
 1855              		.loc 1 862 13
 1856 0014 8947     		li	a5,2
 1857 0016 A307F4FE 		sb	a5,-17(s0)
 863:../Firmware/GD32VW55x_standard_peripheral/Source/gd32vw55x_pkcau.c **** 
 864:../Firmware/GD32VW55x_standard_peripheral/Source/gd32vw55x_pkcau.c ****     /* reset PKCAU */
 865:../Firmware/GD32VW55x_standard_peripheral/Source/gd32vw55x_pkcau.c ****     pkcau_deinit();
 1858              		.loc 1 865 5
 1859 001a 97000000 		call	pkcau_deinit
 1859      E7800000 
 866:../Firmware/GD32VW55x_standard_peripheral/Source/gd32vw55x_pkcau.c ****     /* enable PKCAU */
 867:../Firmware/GD32VW55x_standard_peripheral/Source/gd32vw55x_pkcau.c ****     pkcau_enable();
 1860              		.loc 1 867 5
 1861 0022 97000000 		call	pkcau_enable
 1861      E7800000 
 868:../Firmware/GD32VW55x_standard_peripheral/Source/gd32vw55x_pkcau.c ****     /* wait for PKCAU busy flag to reset */
 869:../Firmware/GD32VW55x_standard_peripheral/Source/gd32vw55x_pkcau.c ****     while(RESET != pkcau_flag_get(PKCAU_FLAG_BUSY));
 1862              		.loc 1 869 10
 1863 002a 0100     		nop
 1864              	.L55:
 1865              		.loc 1 869 20 discriminator 1
 1866 002c 4165     		li	a0,65536
 1867 002e 97000000 		call	pkcau_flag_get
 1867      E7800000 
 1868 0036 AA87     		mv	a5,a0
 1869              		.loc 1 869 10 discriminator 1
 1870 0038 F5FB     		bne	a5,zero,.L55
 870:../Firmware/GD32VW55x_standard_peripheral/Source/gd32vw55x_pkcau.c ****     /* clear end flag */
 871:../Firmware/GD32VW55x_standard_peripheral/Source/gd32vw55x_pkcau.c ****     pkcau_flag_clear(PKCAU_FLAG_END);
 1871              		.loc 1 871 5
 1872 003a 37050200 		li	a0,131072
 1873 003e 97000000 		call	pkcau_flag_clear
 1873      E7800000 
 872:../Firmware/GD32VW55x_standard_peripheral/Source/gd32vw55x_pkcau.c **** 
 873:../Firmware/GD32VW55x_standard_peripheral/Source/gd32vw55x_pkcau.c **** 
 874:../Firmware/GD32VW55x_standard_peripheral/Source/gd32vw55x_pkcau.c ****     /* write the curve prime order n length, curve modulus p length in bit and curve coefficient a 
 875:../Firmware/GD32VW55x_standard_peripheral/Source/gd32vw55x_pkcau.c ****     pkcau_memcpy_value(0x00000400U, (curve_group_para->order_n_len << 3));
 1874              		.loc 1 875 54
 1875 0046 832784FD 		lw	a5,-40(s0)
 1876 004a DC57     		lw	a5,44(a5)
 1877              		.loc 1 875 5
 1878 004c 8E07     		slli	a5,a5,3
 1879 004e BE85     		mv	a1,a5
 1880 0050 13050040 		li	a0,1024
 1881 0054 97000000 		call	pkcau_memcpy_value
 1881      E7800000 
 876:../Firmware/GD32VW55x_standard_peripheral/Source/gd32vw55x_pkcau.c ****     pkcau_memcpy_value(0x00000404U, (curve_group_para->modulus_p_len << 3));
 1882              		.loc 1 876 54
 1883 005c 832784FD 		lw	a5,-40(s0)
 1884 0060 DC43     		lw	a5,4(a5)
 1885              		.loc 1 876 5
 1886 0062 8E07     		slli	a5,a5,3
 1887 0064 BE85     		mv	a1,a5
 1888 0066 13054040 		li	a0,1028
 1889 006a 97000000 		call	pkcau_memcpy_value
 1889      E7800000 
 877:../Firmware/GD32VW55x_standard_peripheral/Source/gd32vw55x_pkcau.c ****     pkcau_memcpy_value(0x00000408U, curve_group_para->a_sign);
 1890              		.loc 1 877 5
 1891 0072 832784FD 		lw	a5,-40(s0)
 1892 0076 9C5B     		lw	a5,48(a5)
 1893 0078 BE85     		mv	a1,a5
 1894 007a 13058040 		li	a0,1032
 1895 007e 97000000 		call	pkcau_memcpy_value
 1895      E7800000 
 878:../Firmware/GD32VW55x_standard_peripheral/Source/gd32vw55x_pkcau.c **** 
 879:../Firmware/GD32VW55x_standard_peripheral/Source/gd32vw55x_pkcau.c ****     /* write the curve coefficient a to PKCAU RAM */
 880:../Firmware/GD32VW55x_standard_peripheral/Source/gd32vw55x_pkcau.c ****     pkcau_memcpy_operand(0x0000040CU, curve_group_para->coff_a, curve_group_para->coff_a_len);
 1896              		.loc 1 880 55
 1897 0086 832784FD 		lw	a5,-40(s0)
 1898 008a 9847     		lw	a4,8(a5)
 1899              		.loc 1 880 5
 1900 008c 832784FD 		lw	a5,-40(s0)
 1901 0090 DC47     		lw	a5,12(a5)
 1902 0092 3E86     		mv	a2,a5
 1903 0094 BA85     		mv	a1,a4
 1904 0096 1305C040 		li	a0,1036
 1905 009a 97000000 		call	pkcau_memcpy_operand
 1905      E7800000 
 881:../Firmware/GD32VW55x_standard_peripheral/Source/gd32vw55x_pkcau.c ****     /* write the curve modulus p to PKCAU RAM */
 882:../Firmware/GD32VW55x_standard_peripheral/Source/gd32vw55x_pkcau.c ****     pkcau_memcpy_operand(0x00000460U, curve_group_para->modulus_p, curve_group_para->modulus_p_len)
 1906              		.loc 1 882 55
 1907 00a2 832784FD 		lw	a5,-40(s0)
 1908 00a6 9843     		lw	a4,0(a5)
 1909              		.loc 1 882 5
 1910 00a8 832784FD 		lw	a5,-40(s0)
 1911 00ac DC43     		lw	a5,4(a5)
 1912 00ae 3E86     		mv	a2,a5
 1913 00b0 BA85     		mv	a1,a4
 1914 00b2 13050046 		li	a0,1120
 1915 00b6 97000000 		call	pkcau_memcpy_operand
 1915      E7800000 
 883:../Firmware/GD32VW55x_standard_peripheral/Source/gd32vw55x_pkcau.c ****     /* write the integer k to PKCAU RAM */
 884:../Firmware/GD32VW55x_standard_peripheral/Source/gd32vw55x_pkcau.c ****     pkcau_memcpy_operand(0x00000508U, curve_group_para->integer_k, curve_group_para->integer_k_len)
 1916              		.loc 1 884 5
 1917 00be 832784FD 		lw	a5,-40(s0)
 1918 00c2 D85F     		lw	a4,60(a5)
 1919 00c4 832784FD 		lw	a5,-40(s0)
 1920 00c8 BC43     		lw	a5,64(a5)
 1921 00ca 3E86     		mv	a2,a5
 1922 00cc BA85     		mv	a1,a4
 1923 00ce 13058050 		li	a0,1288
 1924 00d2 97000000 		call	pkcau_memcpy_operand
 1924      E7800000 
 885:../Firmware/GD32VW55x_standard_peripheral/Source/gd32vw55x_pkcau.c ****     /* write the curve base point coordinate x to PKCAU RAM */
 886:../Firmware/GD32VW55x_standard_peripheral/Source/gd32vw55x_pkcau.c ****     pkcau_memcpy_operand(0x0000055CU, curve_group_para->base_point_x, curve_group_para->base_point_
 1925              		.loc 1 886 55
 1926 00da 832784FD 		lw	a5,-40(s0)
 1927 00de 984F     		lw	a4,24(a5)
 1928              		.loc 1 886 5
 1929 00e0 832784FD 		lw	a5,-40(s0)
 1930 00e4 DC4F     		lw	a5,28(a5)
 1931 00e6 3E86     		mv	a2,a5
 1932 00e8 BA85     		mv	a1,a4
 1933 00ea 1305C055 		li	a0,1372
 1934 00ee 97000000 		call	pkcau_memcpy_operand
 1934      E7800000 
 887:../Firmware/GD32VW55x_standard_peripheral/Source/gd32vw55x_pkcau.c ****     /* write the curve base point coordinate y to PKCAU RAM */
 888:../Firmware/GD32VW55x_standard_peripheral/Source/gd32vw55x_pkcau.c ****     pkcau_memcpy_operand(0x000005B0U, curve_group_para->base_point_y, curve_group_para->base_point_
 1935              		.loc 1 888 55
 1936 00f6 832784FD 		lw	a5,-40(s0)
 1937 00fa 9853     		lw	a4,32(a5)
 1938              		.loc 1 888 5
 1939 00fc 832784FD 		lw	a5,-40(s0)
 1940 0100 DC53     		lw	a5,36(a5)
 1941 0102 3E86     		mv	a2,a5
 1942 0104 BA85     		mv	a1,a4
 1943 0106 1305005B 		li	a0,1456
 1944 010a 97000000 		call	pkcau_memcpy_operand
 1944      E7800000 
 889:../Firmware/GD32VW55x_standard_peripheral/Source/gd32vw55x_pkcau.c ****     /* write the hash value z and hash value z length in byte to PKCAU RAM */
 890:../Firmware/GD32VW55x_standard_peripheral/Source/gd32vw55x_pkcau.c ****     pkcau_memcpy_operand(0x00000DE8U, hash_para->hash_z, hash_para->hash_z_len);
 1945              		.loc 1 890 5
 1946 0112 8327C4FD 		lw	a5,-36(s0)
 1947 0116 9843     		lw	a4,0(a5)
 1948 0118 8327C4FD 		lw	a5,-36(s0)
 1949 011c DC43     		lw	a5,4(a5)
 1950 011e 3E86     		mv	a2,a5
 1951 0120 BA85     		mv	a1,a4
 1952 0122 8567     		li	a5,4096
 1953 0124 138587DE 		addi	a0,a5,-536
 1954 0128 97000000 		call	pkcau_memcpy_operand
 1954      E7800000 
 891:../Firmware/GD32VW55x_standard_peripheral/Source/gd32vw55x_pkcau.c ****     /* write the private key d to PKCAU RAM */
 892:../Firmware/GD32VW55x_standard_peripheral/Source/gd32vw55x_pkcau.c ****     pkcau_memcpy_operand(0x00000E3CU, curve_group_para->private_key_d, curve_group_para->private_ke
 1955              		.loc 1 892 5
 1956 0130 832784FD 		lw	a5,-40(s0)
 1957 0134 F843     		lw	a4,68(a5)
 1958 0136 832784FD 		lw	a5,-40(s0)
 1959 013a BC47     		lw	a5,72(a5)
 1960 013c 3E86     		mv	a2,a5
 1961 013e BA85     		mv	a1,a4
 1962 0140 8567     		li	a5,4096
 1963 0142 1385C7E3 		addi	a0,a5,-452
 1964 0146 97000000 		call	pkcau_memcpy_operand
 1964      E7800000 
 893:../Firmware/GD32VW55x_standard_peripheral/Source/gd32vw55x_pkcau.c ****     /* write the curve prime order n to PKCAU RAM */
 894:../Firmware/GD32VW55x_standard_peripheral/Source/gd32vw55x_pkcau.c ****     pkcau_memcpy_operand(0x00000E94U, curve_group_para->order_n, curve_group_para->order_n_len);
 1965              		.loc 1 894 55
 1966 014e 832784FD 		lw	a5,-40(s0)
 1967 0152 9857     		lw	a4,40(a5)
 1968              		.loc 1 894 5
 1969 0154 832784FD 		lw	a5,-40(s0)
 1970 0158 DC57     		lw	a5,44(a5)
 1971 015a 3E86     		mv	a2,a5
 1972 015c BA85     		mv	a1,a4
 1973 015e 8567     		li	a5,4096
 1974 0160 138547E9 		addi	a0,a5,-364
 1975 0164 97000000 		call	pkcau_memcpy_operand
 1975      E7800000 
 895:../Firmware/GD32VW55x_standard_peripheral/Source/gd32vw55x_pkcau.c ****     /* configure the operation mode */
 896:../Firmware/GD32VW55x_standard_peripheral/Source/gd32vw55x_pkcau.c ****     pkcau_mode_set(PKCAU_MODE_ECDSA_SIGN);
 1976              		.loc 1 896 5
 1977 016c 8967     		li	a5,8192
 1978 016e 13850740 		addi	a0,a5,1024
 1979 0172 97000000 		call	pkcau_mode_set
 1979      E7800000 
 897:../Firmware/GD32VW55x_standard_peripheral/Source/gd32vw55x_pkcau.c ****     /* start computation */
 898:../Firmware/GD32VW55x_standard_peripheral/Source/gd32vw55x_pkcau.c ****     pkcau_start();
 1980              		.loc 1 898 5
 1981 017a 97000000 		call	pkcau_start
 1981      E7800000 
 899:../Firmware/GD32VW55x_standard_peripheral/Source/gd32vw55x_pkcau.c **** 
 900:../Firmware/GD32VW55x_standard_peripheral/Source/gd32vw55x_pkcau.c ****     /* wait for PKCAU operation completed */
 901:../Firmware/GD32VW55x_standard_peripheral/Source/gd32vw55x_pkcau.c ****     while(SET != pkcau_flag_get(PKCAU_FLAG_END));
 1982              		.loc 1 901 10
 1983 0182 0100     		nop
 1984              	.L56:
 1985              		.loc 1 901 18 discriminator 1
 1986 0184 37050200 		li	a0,131072
 1987 0188 97000000 		call	pkcau_flag_get
 1987      E7800000 
 1988 0190 2A87     		mv	a4,a0
 1989              		.loc 1 901 10 discriminator 1
 1990 0192 8547     		li	a5,1
 1991 0194 E318F7FE 		bne	a4,a5,.L56
 902:../Firmware/GD32VW55x_standard_peripheral/Source/gd32vw55x_pkcau.c ****     /* read results from RAM address */
 903:../Firmware/GD32VW55x_standard_peripheral/Source/gd32vw55x_pkcau.c ****     pkcau_memread(0x700, (uint8_t*)result->sign_r, curve_group_para->order_n_len);
 1992              		.loc 1 903 5
 1993 0198 832744FD 		lw	a5,-44(s0)
 1994 019c D843     		lw	a4,4(a5)
 1995 019e 832784FD 		lw	a5,-40(s0)
 1996 01a2 DC57     		lw	a5,44(a5)
 1997 01a4 3E86     		mv	a2,a5
 1998 01a6 BA85     		mv	a1,a4
 1999 01a8 13050070 		li	a0,1792
 2000 01ac 97000000 		call	pkcau_memread
 2000      E7800000 
 904:../Firmware/GD32VW55x_standard_peripheral/Source/gd32vw55x_pkcau.c ****     pkcau_memread(0x754, (uint8_t*)result->sign_s, curve_group_para->order_n_len);
 2001              		.loc 1 904 5
 2002 01b4 832744FD 		lw	a5,-44(s0)
 2003 01b8 9847     		lw	a4,8(a5)
 2004 01ba 832784FD 		lw	a5,-40(s0)
 2005 01be DC57     		lw	a5,44(a5)
 2006 01c0 3E86     		mv	a2,a5
 2007 01c2 BA85     		mv	a1,a4
 2008 01c4 13054075 		li	a0,1876
 2009 01c8 97000000 		call	pkcau_memread
 2009      E7800000 
 905:../Firmware/GD32VW55x_standard_peripheral/Source/gd32vw55x_pkcau.c ****     pkcau_memread(0xEE8, (uint8_t *)&res, 1);
 2010              		.loc 1 905 5
 2011 01d0 9307F4FE 		addi	a5,s0,-17
 2012 01d4 0546     		li	a2,1
 2013 01d6 BE85     		mv	a1,a5
 2014 01d8 8567     		li	a5,4096
 2015 01da 138587EE 		addi	a0,a5,-280
 2016 01de 97000000 		call	pkcau_memread
 2016      E7800000 
 906:../Firmware/GD32VW55x_standard_peripheral/Source/gd32vw55x_pkcau.c ****     if(0U != result->sign_extra) {
 2017              		.loc 1 906 20
 2018 01e6 832744FD 		lw	a5,-44(s0)
 2019 01ea 9C43     		lw	a5,0(a5)
 2020              		.loc 1 906 7
 2021 01ec 9DCF     		beq	a5,zero,.L57
 907:../Firmware/GD32VW55x_standard_peripheral/Source/gd32vw55x_pkcau.c ****         pkcau_memread(0x103C, (uint8_t*)result->point_x, curve_group_para->order_n_len);
 2022              		.loc 1 907 9
 2023 01ee 832744FD 		lw	a5,-44(s0)
 2024 01f2 D847     		lw	a4,12(a5)
 2025 01f4 832784FD 		lw	a5,-40(s0)
 2026 01f8 DC57     		lw	a5,44(a5)
 2027 01fa 3E86     		mv	a2,a5
 2028 01fc BA85     		mv	a1,a4
 2029 01fe 8567     		li	a5,4096
 2030 0200 1385C703 		addi	a0,a5,60
 2031 0204 97000000 		call	pkcau_memread
 2031      E7800000 
 908:../Firmware/GD32VW55x_standard_peripheral/Source/gd32vw55x_pkcau.c ****         pkcau_memread(0x1090, (uint8_t*)result->point_y, curve_group_para->order_n_len);
 2032              		.loc 1 908 9
 2033 020c 832744FD 		lw	a5,-44(s0)
 2034 0210 984B     		lw	a4,16(a5)
 2035 0212 832784FD 		lw	a5,-40(s0)
 2036 0216 DC57     		lw	a5,44(a5)
 2037 0218 3E86     		mv	a2,a5
 2038 021a BA85     		mv	a1,a4
 2039 021c 8567     		li	a5,4096
 2040 021e 13850709 		addi	a0,a5,144
 2041 0222 97000000 		call	pkcau_memread
 2041      E7800000 
 2042              	.L57:
 909:../Firmware/GD32VW55x_standard_peripheral/Source/gd32vw55x_pkcau.c ****     }
 910:../Firmware/GD32VW55x_standard_peripheral/Source/gd32vw55x_pkcau.c ****     /* clear end flag */
 911:../Firmware/GD32VW55x_standard_peripheral/Source/gd32vw55x_pkcau.c ****     pkcau_flag_clear(PKCAU_FLAG_END);
 2043              		.loc 1 911 5
 2044 022a 37050200 		li	a0,131072
 2045 022e 97000000 		call	pkcau_flag_clear
 2045      E7800000 
 912:../Firmware/GD32VW55x_standard_peripheral/Source/gd32vw55x_pkcau.c ****     /* disable PKCAU */
 913:../Firmware/GD32VW55x_standard_peripheral/Source/gd32vw55x_pkcau.c ****     pkcau_disable();
 2046              		.loc 1 913 5
 2047 0236 97000000 		call	pkcau_disable
 2047      E7800000 
 914:../Firmware/GD32VW55x_standard_peripheral/Source/gd32vw55x_pkcau.c **** 
 915:../Firmware/GD32VW55x_standard_peripheral/Source/gd32vw55x_pkcau.c ****     return res;
 2048              		.loc 1 915 12
 2049 023e 8347F4FE 		lbu	a5,-17(s0)
 916:../Firmware/GD32VW55x_standard_peripheral/Source/gd32vw55x_pkcau.c **** }
 2050              		.loc 1 916 1
 2051 0242 3E85     		mv	a0,a5
 2052 0244 B250     		lw	ra,44(sp)
 2053              		.cfi_restore 1
 2054 0246 2254     		lw	s0,40(sp)
 2055              		.cfi_restore 8
 2056              		.cfi_def_cfa 2, 48
 2057 0248 4561     		addi	sp,sp,48
 2058              		.cfi_def_cfa_offset 0
 2059 024a 8280     		jr	ra
 2060              		.cfi_endproc
 2061              	.LFE371:
 2063              		.section	.text.pkcau_ecdsa_verification_operation,"ax",@progbits
 2064              		.align	1
 2065              		.globl	pkcau_ecdsa_verification_operation
 2067              	pkcau_ecdsa_verification_operation:
 2068              	.LFB372:
 917:../Firmware/GD32VW55x_standard_peripheral/Source/gd32vw55x_pkcau.c **** 
 918:../Firmware/GD32VW55x_standard_peripheral/Source/gd32vw55x_pkcau.c **** /*!
 919:../Firmware/GD32VW55x_standard_peripheral/Source/gd32vw55x_pkcau.c ****     \brief      execute ECDSA verification operation
 920:../Firmware/GD32VW55x_standard_peripheral/Source/gd32vw55x_pkcau.c ****                 This function can only be used when interrupt is not enabled
 921:../Firmware/GD32VW55x_standard_peripheral/Source/gd32vw55x_pkcau.c ****     \param[in]  point_para: PKCAU point struct
 922:../Firmware/GD32VW55x_standard_peripheral/Source/gd32vw55x_pkcau.c ****                   point_x: point coordinate x
 923:../Firmware/GD32VW55x_standard_peripheral/Source/gd32vw55x_pkcau.c ****                   point_x_len: point coordinate x length in byte
 924:../Firmware/GD32VW55x_standard_peripheral/Source/gd32vw55x_pkcau.c ****                   point_y: point coordinate y
 925:../Firmware/GD32VW55x_standard_peripheral/Source/gd32vw55x_pkcau.c ****                   point_y_len: point coordinate y length in byte
 926:../Firmware/GD32VW55x_standard_peripheral/Source/gd32vw55x_pkcau.c ****     \param[in]  hash_para: hash struct
 927:../Firmware/GD32VW55x_standard_peripheral/Source/gd32vw55x_pkcau.c ****                   hash_z: hash value z
 928:../Firmware/GD32VW55x_standard_peripheral/Source/gd32vw55x_pkcau.c ****                   hash_z_len: hash value z length in byte
 929:../Firmware/GD32VW55x_standard_peripheral/Source/gd32vw55x_pkcau.c ****     \param[in]  signature_para: signature struct
 930:../Firmware/GD32VW55x_standard_peripheral/Source/gd32vw55x_pkcau.c ****                   sign_r: signature part r
 931:../Firmware/GD32VW55x_standard_peripheral/Source/gd32vw55x_pkcau.c ****                   sign_r_len: signature part r lnegth in byte
 932:../Firmware/GD32VW55x_standard_peripheral/Source/gd32vw55x_pkcau.c ****                   sign_s: signature part s
 933:../Firmware/GD32VW55x_standard_peripheral/Source/gd32vw55x_pkcau.c ****                   sign_s_len: signature part s lnegth in byte
 934:../Firmware/GD32VW55x_standard_peripheral/Source/gd32vw55x_pkcau.c ****     \param[in]  curve_group_para: PKCAU ECC curve paramter struct
 935:../Firmware/GD32VW55x_standard_peripheral/Source/gd32vw55x_pkcau.c ****                   modulus_p: curve modulus p
 936:../Firmware/GD32VW55x_standard_peripheral/Source/gd32vw55x_pkcau.c ****                   modulus_p_len: curve modulus p length in byte
 937:../Firmware/GD32VW55x_standard_peripheral/Source/gd32vw55x_pkcau.c ****                   coff_a: curve coefficient a
 938:../Firmware/GD32VW55x_standard_peripheral/Source/gd32vw55x_pkcau.c ****                   coff_a_len: curve coefficient a length in byte
 939:../Firmware/GD32VW55x_standard_peripheral/Source/gd32vw55x_pkcau.c ****                   coff_b: curve coefficient b
 940:../Firmware/GD32VW55x_standard_peripheral/Source/gd32vw55x_pkcau.c ****                   coff_b_len: curve coefficient b length in byte
 941:../Firmware/GD32VW55x_standard_peripheral/Source/gd32vw55x_pkcau.c ****                   base_point_x: curve base point coordinate x
 942:../Firmware/GD32VW55x_standard_peripheral/Source/gd32vw55x_pkcau.c ****                   base_point_x_len: curve base point coordinate x length in byte
 943:../Firmware/GD32VW55x_standard_peripheral/Source/gd32vw55x_pkcau.c ****                   base_point_y: curve base point coordinate y
 944:../Firmware/GD32VW55x_standard_peripheral/Source/gd32vw55x_pkcau.c ****                   base_point_y_len: curve base point coordinate y length in byte
 945:../Firmware/GD32VW55x_standard_peripheral/Source/gd32vw55x_pkcau.c ****                   order_n: curve prime order n
 946:../Firmware/GD32VW55x_standard_peripheral/Source/gd32vw55x_pkcau.c ****                   order_n_len: curve prime order n length in byte
 947:../Firmware/GD32VW55x_standard_peripheral/Source/gd32vw55x_pkcau.c ****                   a_sign: curve coefficient a sign
 948:../Firmware/GD32VW55x_standard_peripheral/Source/gd32vw55x_pkcau.c **** 
 949:../Firmware/GD32VW55x_standard_peripheral/Source/gd32vw55x_pkcau.c ****                   multi_k: scalar multiplier k
 950:../Firmware/GD32VW55x_standard_peripheral/Source/gd32vw55x_pkcau.c ****                   multi_k_len: scalar multiplier k length in byte
 951:../Firmware/GD32VW55x_standard_peripheral/Source/gd32vw55x_pkcau.c ****                   integer_k: integer k length in byte
 952:../Firmware/GD32VW55x_standard_peripheral/Source/gd32vw55x_pkcau.c ****                   integer_k_len: integer k length in byte
 953:../Firmware/GD32VW55x_standard_peripheral/Source/gd32vw55x_pkcau.c ****                   private_key_d: private key d
 954:../Firmware/GD32VW55x_standard_peripheral/Source/gd32vw55x_pkcau.c ****                   private_key_d_len: private key d length in byte
 955:../Firmware/GD32VW55x_standard_peripheral/Source/gd32vw55x_pkcau.c ****                   mont_para: montgomery parameter R2 mod n
 956:../Firmware/GD32VW55x_standard_peripheral/Source/gd32vw55x_pkcau.c ****                   mont_para_len: montgomery parameter R2 mod n length in byte
 957:../Firmware/GD32VW55x_standard_peripheral/Source/gd32vw55x_pkcau.c ****     \param[out] none
 958:../Firmware/GD32VW55x_standard_peripheral/Source/gd32vw55x_pkcau.c ****     \retval     flag indicating whether the signature verification operation was successful
 959:../Firmware/GD32VW55x_standard_peripheral/Source/gd32vw55x_pkcau.c **** */
 960:../Firmware/GD32VW55x_standard_peripheral/Source/gd32vw55x_pkcau.c **** uint8_t pkcau_ecdsa_verification_operation(pkcau_point_parameter_struct* point_para, \
 961:../Firmware/GD32VW55x_standard_peripheral/Source/gd32vw55x_pkcau.c ****                                            pkcau_hash_parameter_struct* hash_para, \
 962:../Firmware/GD32VW55x_standard_peripheral/Source/gd32vw55x_pkcau.c ****                                            pkcau_signature_parameter_struct* signature_para, \
 963:../Firmware/GD32VW55x_standard_peripheral/Source/gd32vw55x_pkcau.c ****                                            const pkcau_ec_group_parameter_struct* curve_group_para)
 964:../Firmware/GD32VW55x_standard_peripheral/Source/gd32vw55x_pkcau.c **** {
 2069              		.loc 1 964 1
 2070              		.cfi_startproc
 2071 0000 7971     		addi	sp,sp,-48
 2072              		.cfi_def_cfa_offset 48
 2073 0002 06D6     		sw	ra,44(sp)
 2074 0004 22D4     		sw	s0,40(sp)
 2075              		.cfi_offset 1, -4
 2076              		.cfi_offset 8, -8
 2077 0006 0018     		addi	s0,sp,48
 2078              		.cfi_def_cfa 8, 0
 2079 0008 232EA4FC 		sw	a0,-36(s0)
 2080 000c 232CB4FC 		sw	a1,-40(s0)
 2081 0010 232AC4FC 		sw	a2,-44(s0)
 2082 0014 2328D4FC 		sw	a3,-48(s0)
 965:../Firmware/GD32VW55x_standard_peripheral/Source/gd32vw55x_pkcau.c ****     uint8_t res = 1;
 2083              		.loc 1 965 13
 2084 0018 8547     		li	a5,1
 2085 001a A307F4FE 		sb	a5,-17(s0)
 966:../Firmware/GD32VW55x_standard_peripheral/Source/gd32vw55x_pkcau.c **** 
 967:../Firmware/GD32VW55x_standard_peripheral/Source/gd32vw55x_pkcau.c ****     /* reset PKCAU */
 968:../Firmware/GD32VW55x_standard_peripheral/Source/gd32vw55x_pkcau.c ****     pkcau_deinit();
 2086              		.loc 1 968 5
 2087 001e 97000000 		call	pkcau_deinit
 2087      E7800000 
 969:../Firmware/GD32VW55x_standard_peripheral/Source/gd32vw55x_pkcau.c ****     /* enable PKCAU */
 970:../Firmware/GD32VW55x_standard_peripheral/Source/gd32vw55x_pkcau.c ****     pkcau_enable();
 2088              		.loc 1 970 5
 2089 0026 97000000 		call	pkcau_enable
 2089      E7800000 
 971:../Firmware/GD32VW55x_standard_peripheral/Source/gd32vw55x_pkcau.c ****     /* wait for PKCAU busy flag to reset */
 972:../Firmware/GD32VW55x_standard_peripheral/Source/gd32vw55x_pkcau.c ****     while(RESET != pkcau_flag_get(PKCAU_FLAG_BUSY));
 2090              		.loc 1 972 10
 2091 002e 0100     		nop
 2092              	.L60:
 2093              		.loc 1 972 20 discriminator 1
 2094 0030 4165     		li	a0,65536
 2095 0032 97000000 		call	pkcau_flag_get
 2095      E7800000 
 2096 003a AA87     		mv	a5,a0
 2097              		.loc 1 972 10 discriminator 1
 2098 003c F5FB     		bne	a5,zero,.L60
 973:../Firmware/GD32VW55x_standard_peripheral/Source/gd32vw55x_pkcau.c ****     /* clear end flag */
 974:../Firmware/GD32VW55x_standard_peripheral/Source/gd32vw55x_pkcau.c ****     pkcau_flag_clear(PKCAU_FLAG_END);
 2099              		.loc 1 974 5
 2100 003e 37050200 		li	a0,131072
 2101 0042 97000000 		call	pkcau_flag_clear
 2101      E7800000 
 975:../Firmware/GD32VW55x_standard_peripheral/Source/gd32vw55x_pkcau.c **** 
 976:../Firmware/GD32VW55x_standard_peripheral/Source/gd32vw55x_pkcau.c ****     /* write the curve prime order n length, curve modulus p length in bit and curve coefficient a 
 977:../Firmware/GD32VW55x_standard_peripheral/Source/gd32vw55x_pkcau.c ****     pkcau_memcpy_value(0x00000404U, (curve_group_para->order_n_len << 3));
 2102              		.loc 1 977 54
 2103 004a 832704FD 		lw	a5,-48(s0)
 2104 004e DC57     		lw	a5,44(a5)
 2105              		.loc 1 977 5
 2106 0050 8E07     		slli	a5,a5,3
 2107 0052 BE85     		mv	a1,a5
 2108 0054 13054040 		li	a0,1028
 2109 0058 97000000 		call	pkcau_memcpy_value
 2109      E7800000 
 978:../Firmware/GD32VW55x_standard_peripheral/Source/gd32vw55x_pkcau.c ****     pkcau_memcpy_value(0x000004B4U, (curve_group_para->modulus_p_len << 3));
 2110              		.loc 1 978 54
 2111 0060 832704FD 		lw	a5,-48(s0)
 2112 0064 DC43     		lw	a5,4(a5)
 2113              		.loc 1 978 5
 2114 0066 8E07     		slli	a5,a5,3
 2115 0068 BE85     		mv	a1,a5
 2116 006a 1305404B 		li	a0,1204
 2117 006e 97000000 		call	pkcau_memcpy_value
 2117      E7800000 
 979:../Firmware/GD32VW55x_standard_peripheral/Source/gd32vw55x_pkcau.c ****     pkcau_memcpy_value(0x0000045CU, curve_group_para->a_sign);
 2118              		.loc 1 979 5
 2119 0076 832704FD 		lw	a5,-48(s0)
 2120 007a 9C5B     		lw	a5,48(a5)
 2121 007c BE85     		mv	a1,a5
 2122 007e 1305C045 		li	a0,1116
 2123 0082 97000000 		call	pkcau_memcpy_value
 2123      E7800000 
 980:../Firmware/GD32VW55x_standard_peripheral/Source/gd32vw55x_pkcau.c **** 
 981:../Firmware/GD32VW55x_standard_peripheral/Source/gd32vw55x_pkcau.c ****     /* write the curve coefficient a to PKCAU RAM */
 982:../Firmware/GD32VW55x_standard_peripheral/Source/gd32vw55x_pkcau.c ****     pkcau_memcpy_operand(0x00000460U, curve_group_para->coff_a, curve_group_para->coff_a_len);
 2124              		.loc 1 982 55
 2125 008a 832704FD 		lw	a5,-48(s0)
 2126 008e 9847     		lw	a4,8(a5)
 2127              		.loc 1 982 5
 2128 0090 832704FD 		lw	a5,-48(s0)
 2129 0094 DC47     		lw	a5,12(a5)
 2130 0096 3E86     		mv	a2,a5
 2131 0098 BA85     		mv	a1,a4
 2132 009a 13050046 		li	a0,1120
 2133 009e 97000000 		call	pkcau_memcpy_operand
 2133      E7800000 
 983:../Firmware/GD32VW55x_standard_peripheral/Source/gd32vw55x_pkcau.c ****     /* write the curve modulus p to PKCAU RAM */
 984:../Firmware/GD32VW55x_standard_peripheral/Source/gd32vw55x_pkcau.c ****     pkcau_memcpy_operand(0x000004B8U, curve_group_para->modulus_p, curve_group_para->modulus_p_len)
 2134              		.loc 1 984 55
 2135 00a6 832704FD 		lw	a5,-48(s0)
 2136 00aa 9843     		lw	a4,0(a5)
 2137              		.loc 1 984 5
 2138 00ac 832704FD 		lw	a5,-48(s0)
 2139 00b0 DC43     		lw	a5,4(a5)
 2140 00b2 3E86     		mv	a2,a5
 2141 00b4 BA85     		mv	a1,a4
 2142 00b6 1305804B 		li	a0,1208
 2143 00ba 97000000 		call	pkcau_memcpy_operand
 2143      E7800000 
 985:../Firmware/GD32VW55x_standard_peripheral/Source/gd32vw55x_pkcau.c ****     /* write the curve base point coordinate x to PKCAU RAM */
 986:../Firmware/GD32VW55x_standard_peripheral/Source/gd32vw55x_pkcau.c ****     pkcau_memcpy_operand(0x000005E8U, curve_group_para->base_point_x, curve_group_para->base_point_
 2144              		.loc 1 986 55
 2145 00c2 832704FD 		lw	a5,-48(s0)
 2146 00c6 984F     		lw	a4,24(a5)
 2147              		.loc 1 986 5
 2148 00c8 832704FD 		lw	a5,-48(s0)
 2149 00cc DC4F     		lw	a5,28(a5)
 2150 00ce 3E86     		mv	a2,a5
 2151 00d0 BA85     		mv	a1,a4
 2152 00d2 1305805E 		li	a0,1512
 2153 00d6 97000000 		call	pkcau_memcpy_operand
 2153      E7800000 
 987:../Firmware/GD32VW55x_standard_peripheral/Source/gd32vw55x_pkcau.c ****     /* write the curve base point coordinate y to PKCAU RAM */
 988:../Firmware/GD32VW55x_standard_peripheral/Source/gd32vw55x_pkcau.c ****     pkcau_memcpy_operand(0x0000063CU, curve_group_para->base_point_y, curve_group_para->base_point_
 2154              		.loc 1 988 55
 2155 00de 832704FD 		lw	a5,-48(s0)
 2156 00e2 9853     		lw	a4,32(a5)
 2157              		.loc 1 988 5
 2158 00e4 832704FD 		lw	a5,-48(s0)
 2159 00e8 DC53     		lw	a5,36(a5)
 2160 00ea 3E86     		mv	a2,a5
 2161 00ec BA85     		mv	a1,a4
 2162 00ee 1305C063 		li	a0,1596
 2163 00f2 97000000 		call	pkcau_memcpy_operand
 2163      E7800000 
 989:../Firmware/GD32VW55x_standard_peripheral/Source/gd32vw55x_pkcau.c ****     /* write the point coordinate x to PKCAU RAM */
 990:../Firmware/GD32VW55x_standard_peripheral/Source/gd32vw55x_pkcau.c ****     pkcau_memcpy_operand(0x00000F40U, point_para->point_x, point_para->point_x_len);
 2164              		.loc 1 990 5
 2165 00fa 8327C4FD 		lw	a5,-36(s0)
 2166 00fe 9843     		lw	a4,0(a5)
 2167 0100 8327C4FD 		lw	a5,-36(s0)
 2168 0104 DC43     		lw	a5,4(a5)
 2169 0106 3E86     		mv	a2,a5
 2170 0108 BA85     		mv	a1,a4
 2171 010a 8567     		li	a5,4096
 2172 010c 138507F4 		addi	a0,a5,-192
 2173 0110 97000000 		call	pkcau_memcpy_operand
 2173      E7800000 
 991:../Firmware/GD32VW55x_standard_peripheral/Source/gd32vw55x_pkcau.c ****     /* write the point coordinate y to PKCAU RAM */
 992:../Firmware/GD32VW55x_standard_peripheral/Source/gd32vw55x_pkcau.c ****     pkcau_memcpy_operand(0x00000F94U, point_para->point_y, point_para->point_y_len);
 2174              		.loc 1 992 5
 2175 0118 8327C4FD 		lw	a5,-36(s0)
 2176 011c 9847     		lw	a4,8(a5)
 2177 011e 8327C4FD 		lw	a5,-36(s0)
 2178 0122 DC47     		lw	a5,12(a5)
 2179 0124 3E86     		mv	a2,a5
 2180 0126 BA85     		mv	a1,a4
 2181 0128 8567     		li	a5,4096
 2182 012a 138547F9 		addi	a0,a5,-108
 2183 012e 97000000 		call	pkcau_memcpy_operand
 2183      E7800000 
 993:../Firmware/GD32VW55x_standard_peripheral/Source/gd32vw55x_pkcau.c ****     /* write the signature part r to PKCAU RAM */
 994:../Firmware/GD32VW55x_standard_peripheral/Source/gd32vw55x_pkcau.c ****     pkcau_memcpy_operand(0x000001098U, signature_para->sign_r, signature_para->sign_r_len);
 2184              		.loc 1 994 5
 2185 0136 832744FD 		lw	a5,-44(s0)
 2186 013a 9843     		lw	a4,0(a5)
 2187 013c 832744FD 		lw	a5,-44(s0)
 2188 0140 DC43     		lw	a5,4(a5)
 2189 0142 3E86     		mv	a2,a5
 2190 0144 BA85     		mv	a1,a4
 2191 0146 8567     		li	a5,4096
 2192 0148 13858709 		addi	a0,a5,152
 2193 014c 97000000 		call	pkcau_memcpy_operand
 2193      E7800000 
 995:../Firmware/GD32VW55x_standard_peripheral/Source/gd32vw55x_pkcau.c ****     /* write the signature part s to PKCAU RAM */
 996:../Firmware/GD32VW55x_standard_peripheral/Source/gd32vw55x_pkcau.c ****     pkcau_memcpy_operand(0x00000A44U, signature_para->sign_s, signature_para->sign_s_len);
 2194              		.loc 1 996 5
 2195 0154 832744FD 		lw	a5,-44(s0)
 2196 0158 9847     		lw	a4,8(a5)
 2197 015a 832744FD 		lw	a5,-44(s0)
 2198 015e DC47     		lw	a5,12(a5)
 2199 0160 3E86     		mv	a2,a5
 2200 0162 BA85     		mv	a1,a4
 2201 0164 8567     		li	a5,4096
 2202 0166 138547A4 		addi	a0,a5,-1468
 2203 016a 97000000 		call	pkcau_memcpy_operand
 2203      E7800000 
 997:../Firmware/GD32VW55x_standard_peripheral/Source/gd32vw55x_pkcau.c ****     /* write the hash value z and hash value z length in byte to PKCAU RAM */
 998:../Firmware/GD32VW55x_standard_peripheral/Source/gd32vw55x_pkcau.c ****     pkcau_memcpy_operand(0x00000FE8U, hash_para->hash_z, hash_para->hash_z_len);
 2204              		.loc 1 998 5
 2205 0172 832784FD 		lw	a5,-40(s0)
 2206 0176 9843     		lw	a4,0(a5)
 2207 0178 832784FD 		lw	a5,-40(s0)
 2208 017c DC43     		lw	a5,4(a5)
 2209 017e 3E86     		mv	a2,a5
 2210 0180 BA85     		mv	a1,a4
 2211 0182 8567     		li	a5,4096
 2212 0184 138587FE 		addi	a0,a5,-24
 2213 0188 97000000 		call	pkcau_memcpy_operand
 2213      E7800000 
 999:../Firmware/GD32VW55x_standard_peripheral/Source/gd32vw55x_pkcau.c ****     /* write the curve prime order n to PKCAU RAM */
1000:../Firmware/GD32VW55x_standard_peripheral/Source/gd32vw55x_pkcau.c ****     pkcau_memcpy_operand(0x00000D5CU, curve_group_para->order_n, curve_group_para->order_n_len);
 2214              		.loc 1 1000 55
 2215 0190 832704FD 		lw	a5,-48(s0)
 2216 0194 9857     		lw	a4,40(a5)
 2217              		.loc 1 1000 5
 2218 0196 832704FD 		lw	a5,-48(s0)
 2219 019a DC57     		lw	a5,44(a5)
 2220 019c 3E86     		mv	a2,a5
 2221 019e BA85     		mv	a1,a4
 2222 01a0 8567     		li	a5,4096
 2223 01a2 1385C7D5 		addi	a0,a5,-676
 2224 01a6 97000000 		call	pkcau_memcpy_operand
 2224      E7800000 
1001:../Firmware/GD32VW55x_standard_peripheral/Source/gd32vw55x_pkcau.c ****     /* configure the operation mode */
1002:../Firmware/GD32VW55x_standard_peripheral/Source/gd32vw55x_pkcau.c ****     pkcau_mode_set(PKCAU_MODE_ECDSA_VERIFICATION);
 2225              		.loc 1 1002 5
 2226 01ae 8967     		li	a5,8192
 2227 01b0 13850760 		addi	a0,a5,1536
 2228 01b4 97000000 		call	pkcau_mode_set
 2228      E7800000 
1003:../Firmware/GD32VW55x_standard_peripheral/Source/gd32vw55x_pkcau.c ****     /* start computation */
1004:../Firmware/GD32VW55x_standard_peripheral/Source/gd32vw55x_pkcau.c ****     pkcau_start();
 2229              		.loc 1 1004 5
 2230 01bc 97000000 		call	pkcau_start
 2230      E7800000 
1005:../Firmware/GD32VW55x_standard_peripheral/Source/gd32vw55x_pkcau.c **** 
1006:../Firmware/GD32VW55x_standard_peripheral/Source/gd32vw55x_pkcau.c ****     /* wait for PKCAU operation completed */
1007:../Firmware/GD32VW55x_standard_peripheral/Source/gd32vw55x_pkcau.c ****     while(SET != pkcau_flag_get(PKCAU_FLAG_END));
 2231              		.loc 1 1007 10
 2232 01c4 0100     		nop
 2233              	.L61:
 2234              		.loc 1 1007 18 discriminator 1
 2235 01c6 37050200 		li	a0,131072
 2236 01ca 97000000 		call	pkcau_flag_get
 2236      E7800000 
 2237 01d2 2A87     		mv	a4,a0
 2238              		.loc 1 1007 10 discriminator 1
 2239 01d4 8547     		li	a5,1
 2240 01d6 E318F7FE 		bne	a4,a5,.L61
1008:../Firmware/GD32VW55x_standard_peripheral/Source/gd32vw55x_pkcau.c ****     pkcau_memread(0x5B0, (uint8_t *)&res, 1);
 2241              		.loc 1 1008 5
 2242 01da 9307F4FE 		addi	a5,s0,-17
 2243 01de 0546     		li	a2,1
 2244 01e0 BE85     		mv	a1,a5
 2245 01e2 1305005B 		li	a0,1456
 2246 01e6 97000000 		call	pkcau_memread
 2246      E7800000 
1009:../Firmware/GD32VW55x_standard_peripheral/Source/gd32vw55x_pkcau.c ****     /* clear end flag */
1010:../Firmware/GD32VW55x_standard_peripheral/Source/gd32vw55x_pkcau.c ****     pkcau_flag_clear(PKCAU_FLAG_END);
 2247              		.loc 1 1010 5
 2248 01ee 37050200 		li	a0,131072
 2249 01f2 97000000 		call	pkcau_flag_clear
 2249      E7800000 
1011:../Firmware/GD32VW55x_standard_peripheral/Source/gd32vw55x_pkcau.c ****     /* disable PKCAU */
1012:../Firmware/GD32VW55x_standard_peripheral/Source/gd32vw55x_pkcau.c ****     pkcau_disable();
 2250              		.loc 1 1012 5
 2251 01fa 97000000 		call	pkcau_disable
 2251      E7800000 
1013:../Firmware/GD32VW55x_standard_peripheral/Source/gd32vw55x_pkcau.c **** 
1014:../Firmware/GD32VW55x_standard_peripheral/Source/gd32vw55x_pkcau.c ****     return res;
 2252              		.loc 1 1014 12
 2253 0202 8347F4FE 		lbu	a5,-17(s0)
1015:../Firmware/GD32VW55x_standard_peripheral/Source/gd32vw55x_pkcau.c **** }
 2254              		.loc 1 1015 1
 2255 0206 3E85     		mv	a0,a5
 2256 0208 B250     		lw	ra,44(sp)
 2257              		.cfi_restore 1
 2258 020a 2254     		lw	s0,40(sp)
 2259              		.cfi_restore 8
 2260              		.cfi_def_cfa 2, 48
 2261 020c 4561     		addi	sp,sp,48
 2262              		.cfi_def_cfa_offset 0
 2263 020e 8280     		jr	ra
 2264              		.cfi_endproc
 2265              	.LFE372:
 2267              		.section	.text.pkcau_flag_get,"ax",@progbits
 2268              		.align	1
 2269              		.globl	pkcau_flag_get
 2271              	pkcau_flag_get:
 2272              	.LFB373:
1016:../Firmware/GD32VW55x_standard_peripheral/Source/gd32vw55x_pkcau.c **** 
1017:../Firmware/GD32VW55x_standard_peripheral/Source/gd32vw55x_pkcau.c **** /*!
1018:../Firmware/GD32VW55x_standard_peripheral/Source/gd32vw55x_pkcau.c ****     \brief      get PKCAU flag status
1019:../Firmware/GD32VW55x_standard_peripheral/Source/gd32vw55x_pkcau.c ****     \param[in]  flag: PKCAU flags
1020:../Firmware/GD32VW55x_standard_peripheral/Source/gd32vw55x_pkcau.c ****                 only one parameter can be selected which is shown as below:
1021:../Firmware/GD32VW55x_standard_peripheral/Source/gd32vw55x_pkcau.c ****       \arg        PKCAU_FLAG_ADDRERR: address error flag
1022:../Firmware/GD32VW55x_standard_peripheral/Source/gd32vw55x_pkcau.c ****       \arg        PKCAU_FLAG_RAMERR: PKCAU RAM error flag
1023:../Firmware/GD32VW55x_standard_peripheral/Source/gd32vw55x_pkcau.c ****       \arg        PKCAU_FLAG_END: end of PKCAU operation flag
1024:../Firmware/GD32VW55x_standard_peripheral/Source/gd32vw55x_pkcau.c ****       \arg        PKCAU_FLAG_BUSY: busy flag
1025:../Firmware/GD32VW55x_standard_peripheral/Source/gd32vw55x_pkcau.c ****     \param[out] none
1026:../Firmware/GD32VW55x_standard_peripheral/Source/gd32vw55x_pkcau.c ****     \retval     FlagStatus: SET or RESET
1027:../Firmware/GD32VW55x_standard_peripheral/Source/gd32vw55x_pkcau.c **** */
1028:../Firmware/GD32VW55x_standard_peripheral/Source/gd32vw55x_pkcau.c **** FlagStatus pkcau_flag_get(uint32_t flag)
1029:../Firmware/GD32VW55x_standard_peripheral/Source/gd32vw55x_pkcau.c **** {
 2273              		.loc 1 1029 1
 2274              		.cfi_startproc
 2275 0000 0111     		addi	sp,sp,-32
 2276              		.cfi_def_cfa_offset 32
 2277 0002 22CE     		sw	s0,28(sp)
 2278              		.cfi_offset 8, -4
 2279 0004 0010     		addi	s0,sp,32
 2280              		.cfi_def_cfa 8, 0
 2281 0006 2326A4FE 		sw	a0,-20(s0)
1030:../Firmware/GD32VW55x_standard_peripheral/Source/gd32vw55x_pkcau.c ****     if(RESET != (PKCAU_STAT & flag)) {
 2282              		.loc 1 1030 18
 2283 000a B717064C 		li	a5,1275465728
 2284 000e 9107     		addi	a5,a5,4
 2285 0010 9843     		lw	a4,0(a5)
 2286              		.loc 1 1030 29
 2287 0012 8327C4FE 		lw	a5,-20(s0)
 2288 0016 F98F     		and	a5,a4,a5
 2289              		.loc 1 1030 7
 2290 0018 99C3     		beq	a5,zero,.L64
1031:../Firmware/GD32VW55x_standard_peripheral/Source/gd32vw55x_pkcau.c ****         return SET;
 2291              		.loc 1 1031 16
 2292 001a 8547     		li	a5,1
 2293 001c 11A0     		j	.L65
 2294              	.L64:
1032:../Firmware/GD32VW55x_standard_peripheral/Source/gd32vw55x_pkcau.c ****     } else {
1033:../Firmware/GD32VW55x_standard_peripheral/Source/gd32vw55x_pkcau.c ****         return RESET;
 2295              		.loc 1 1033 16
 2296 001e 8147     		li	a5,0
 2297              	.L65:
1034:../Firmware/GD32VW55x_standard_peripheral/Source/gd32vw55x_pkcau.c ****     }
1035:../Firmware/GD32VW55x_standard_peripheral/Source/gd32vw55x_pkcau.c **** }
 2298              		.loc 1 1035 1
 2299 0020 3E85     		mv	a0,a5
 2300 0022 7244     		lw	s0,28(sp)
 2301              		.cfi_restore 8
 2302              		.cfi_def_cfa 2, 32
 2303 0024 0561     		addi	sp,sp,32
 2304              		.cfi_def_cfa_offset 0
 2305 0026 8280     		jr	ra
 2306              		.cfi_endproc
 2307              	.LFE373:
 2309              		.section	.text.pkcau_flag_clear,"ax",@progbits
 2310              		.align	1
 2311              		.globl	pkcau_flag_clear
 2313              	pkcau_flag_clear:
 2314              	.LFB374:
1036:../Firmware/GD32VW55x_standard_peripheral/Source/gd32vw55x_pkcau.c **** 
1037:../Firmware/GD32VW55x_standard_peripheral/Source/gd32vw55x_pkcau.c **** /*!
1038:../Firmware/GD32VW55x_standard_peripheral/Source/gd32vw55x_pkcau.c ****     \brief      clear PKCAU flag status
1039:../Firmware/GD32VW55x_standard_peripheral/Source/gd32vw55x_pkcau.c ****     \param[in]  flag: PKCAU flags
1040:../Firmware/GD32VW55x_standard_peripheral/Source/gd32vw55x_pkcau.c ****                 one or more parameters can be selected which is shown as below:
1041:../Firmware/GD32VW55x_standard_peripheral/Source/gd32vw55x_pkcau.c ****       \arg        PKCAU_FLAG_ADDRERR: address error flag
1042:../Firmware/GD32VW55x_standard_peripheral/Source/gd32vw55x_pkcau.c ****       \arg        PKCAU_FLAG_RAMERR: PKCAU RAM error flag
1043:../Firmware/GD32VW55x_standard_peripheral/Source/gd32vw55x_pkcau.c ****       \arg        PKCAU_FLAG_END: end of PKCAU operation flag
1044:../Firmware/GD32VW55x_standard_peripheral/Source/gd32vw55x_pkcau.c ****     \param[out] none
1045:../Firmware/GD32VW55x_standard_peripheral/Source/gd32vw55x_pkcau.c ****     \retval     none
1046:../Firmware/GD32VW55x_standard_peripheral/Source/gd32vw55x_pkcau.c **** */
1047:../Firmware/GD32VW55x_standard_peripheral/Source/gd32vw55x_pkcau.c **** void pkcau_flag_clear(uint32_t flag)
1048:../Firmware/GD32VW55x_standard_peripheral/Source/gd32vw55x_pkcau.c **** {
 2315              		.loc 1 1048 1
 2316              		.cfi_startproc
 2317 0000 0111     		addi	sp,sp,-32
 2318              		.cfi_def_cfa_offset 32
 2319 0002 22CE     		sw	s0,28(sp)
 2320              		.cfi_offset 8, -4
 2321 0004 0010     		addi	s0,sp,32
 2322              		.cfi_def_cfa 8, 0
 2323 0006 2326A4FE 		sw	a0,-20(s0)
1049:../Firmware/GD32VW55x_standard_peripheral/Source/gd32vw55x_pkcau.c ****     switch(flag) {
 2324              		.loc 1 1049 5
 2325 000a 0327C4FE 		lw	a4,-20(s0)
 2326 000e B7071000 		li	a5,1048576
 2327 0012 6305F702 		beq	a4,a5,.L67
 2328 0016 0327C4FE 		lw	a4,-20(s0)
 2329 001a B7071000 		li	a5,1048576
 2330 001e 63E3E706 		bgtu	a4,a5,.L72
 2331 0022 0327C4FE 		lw	a4,-20(s0)
 2332 0026 B7070200 		li	a5,131072
 2333 002a 6301F704 		beq	a4,a5,.L69
 2334 002e 0327C4FE 		lw	a4,-20(s0)
 2335 0032 B7070800 		li	a5,524288
 2336 0036 630FF700 		beq	a4,a5,.L70
1050:../Firmware/GD32VW55x_standard_peripheral/Source/gd32vw55x_pkcau.c ****     /* clear address error flag */
1051:../Firmware/GD32VW55x_standard_peripheral/Source/gd32vw55x_pkcau.c ****     case PKCAU_FLAG_ADDRERR:
1052:../Firmware/GD32VW55x_standard_peripheral/Source/gd32vw55x_pkcau.c ****         PKCAU_STATC |= PKCAU_STATC_ADDRERRC;
1053:../Firmware/GD32VW55x_standard_peripheral/Source/gd32vw55x_pkcau.c ****         break;
1054:../Firmware/GD32VW55x_standard_peripheral/Source/gd32vw55x_pkcau.c ****     /* clear PKCAU RAM error flag */
1055:../Firmware/GD32VW55x_standard_peripheral/Source/gd32vw55x_pkcau.c ****     case PKCAU_FLAG_RAMERR:
1056:../Firmware/GD32VW55x_standard_peripheral/Source/gd32vw55x_pkcau.c ****         PKCAU_STATC |= PKCAU_STATC_RAMERRC;
1057:../Firmware/GD32VW55x_standard_peripheral/Source/gd32vw55x_pkcau.c ****         break;
1058:../Firmware/GD32VW55x_standard_peripheral/Source/gd32vw55x_pkcau.c ****     /* clear end of PKCAU operation flag */
1059:../Firmware/GD32VW55x_standard_peripheral/Source/gd32vw55x_pkcau.c ****     case PKCAU_FLAG_END:
1060:../Firmware/GD32VW55x_standard_peripheral/Source/gd32vw55x_pkcau.c ****         PKCAU_STATC |= PKCAU_STATC_ENDFC;
1061:../Firmware/GD32VW55x_standard_peripheral/Source/gd32vw55x_pkcau.c ****         break;
1062:../Firmware/GD32VW55x_standard_peripheral/Source/gd32vw55x_pkcau.c ****     default :
1063:../Firmware/GD32VW55x_standard_peripheral/Source/gd32vw55x_pkcau.c ****         break;
 2337              		.loc 1 1063 9
 2338 003a A9A0     		j	.L72
 2339              	.L67:
1052:../Firmware/GD32VW55x_standard_peripheral/Source/gd32vw55x_pkcau.c ****         break;
 2340              		.loc 1 1052 21
 2341 003c B717064C 		li	a5,1275465728
 2342 0040 A107     		addi	a5,a5,8
 2343 0042 9443     		lw	a3,0(a5)
 2344 0044 B717064C 		li	a5,1275465728
 2345 0048 A107     		addi	a5,a5,8
 2346 004a 37071000 		li	a4,1048576
 2347 004e 558F     		or	a4,a3,a4
 2348 0050 98C3     		sw	a4,0(a5)
1053:../Firmware/GD32VW55x_standard_peripheral/Source/gd32vw55x_pkcau.c ****     /* clear PKCAU RAM error flag */
 2349              		.loc 1 1053 9
 2350 0052 15A8     		j	.L71
 2351              	.L70:
1056:../Firmware/GD32VW55x_standard_peripheral/Source/gd32vw55x_pkcau.c ****         break;
 2352              		.loc 1 1056 21
 2353 0054 B717064C 		li	a5,1275465728
 2354 0058 A107     		addi	a5,a5,8
 2355 005a 9443     		lw	a3,0(a5)
 2356 005c B717064C 		li	a5,1275465728
 2357 0060 A107     		addi	a5,a5,8
 2358 0062 37070800 		li	a4,524288
 2359 0066 558F     		or	a4,a3,a4
 2360 0068 98C3     		sw	a4,0(a5)
1057:../Firmware/GD32VW55x_standard_peripheral/Source/gd32vw55x_pkcau.c ****     /* clear end of PKCAU operation flag */
 2361              		.loc 1 1057 9
 2362 006a 31A8     		j	.L71
 2363              	.L69:
1060:../Firmware/GD32VW55x_standard_peripheral/Source/gd32vw55x_pkcau.c ****         break;
 2364              		.loc 1 1060 21
 2365 006c B717064C 		li	a5,1275465728
 2366 0070 A107     		addi	a5,a5,8
 2367 0072 9443     		lw	a3,0(a5)
 2368 0074 B717064C 		li	a5,1275465728
 2369 0078 A107     		addi	a5,a5,8
 2370 007a 37070200 		li	a4,131072
 2371 007e 558F     		or	a4,a3,a4
 2372 0080 98C3     		sw	a4,0(a5)
1061:../Firmware/GD32VW55x_standard_peripheral/Source/gd32vw55x_pkcau.c ****     default :
 2373              		.loc 1 1061 9
 2374 0082 11A0     		j	.L71
 2375              	.L72:
 2376              		.loc 1 1063 9
 2377 0084 0100     		nop
 2378              	.L71:
1064:../Firmware/GD32VW55x_standard_peripheral/Source/gd32vw55x_pkcau.c ****     }
1065:../Firmware/GD32VW55x_standard_peripheral/Source/gd32vw55x_pkcau.c **** }
 2379              		.loc 1 1065 1
 2380 0086 0100     		nop
 2381 0088 7244     		lw	s0,28(sp)
 2382              		.cfi_restore 8
 2383              		.cfi_def_cfa 2, 32
 2384 008a 0561     		addi	sp,sp,32
 2385              		.cfi_def_cfa_offset 0
 2386 008c 8280     		jr	ra
 2387              		.cfi_endproc
 2388              	.LFE374:
 2390              		.section	.text.pkcau_interrupt_enable,"ax",@progbits
 2391              		.align	1
 2392              		.globl	pkcau_interrupt_enable
 2394              	pkcau_interrupt_enable:
 2395              	.LFB375:
1066:../Firmware/GD32VW55x_standard_peripheral/Source/gd32vw55x_pkcau.c **** 
1067:../Firmware/GD32VW55x_standard_peripheral/Source/gd32vw55x_pkcau.c **** /*!
1068:../Firmware/GD32VW55x_standard_peripheral/Source/gd32vw55x_pkcau.c ****     \brief      enable PKCAU interrupt
1069:../Firmware/GD32VW55x_standard_peripheral/Source/gd32vw55x_pkcau.c ****     \param[in]  interrupt: interrupt type
1070:../Firmware/GD32VW55x_standard_peripheral/Source/gd32vw55x_pkcau.c ****                 one or more parameters can be selected which is shown as below:
1071:../Firmware/GD32VW55x_standard_peripheral/Source/gd32vw55x_pkcau.c ****       \arg        PKCAU_INT_ADDRERR: address error interrupt
1072:../Firmware/GD32VW55x_standard_peripheral/Source/gd32vw55x_pkcau.c ****       \arg        PKCAU_INT_RAMERR: PKCAU RAM error interrupt
1073:../Firmware/GD32VW55x_standard_peripheral/Source/gd32vw55x_pkcau.c ****       \arg        PKCAU_INT_END: end of PKCAU operation interrupt
1074:../Firmware/GD32VW55x_standard_peripheral/Source/gd32vw55x_pkcau.c ****     \param[out] none
1075:../Firmware/GD32VW55x_standard_peripheral/Source/gd32vw55x_pkcau.c ****     \retval     none
1076:../Firmware/GD32VW55x_standard_peripheral/Source/gd32vw55x_pkcau.c **** */
1077:../Firmware/GD32VW55x_standard_peripheral/Source/gd32vw55x_pkcau.c **** void pkcau_interrupt_enable(uint32_t interrupt)
1078:../Firmware/GD32VW55x_standard_peripheral/Source/gd32vw55x_pkcau.c **** {
 2396              		.loc 1 1078 1
 2397              		.cfi_startproc
 2398 0000 0111     		addi	sp,sp,-32
 2399              		.cfi_def_cfa_offset 32
 2400 0002 22CE     		sw	s0,28(sp)
 2401              		.cfi_offset 8, -4
 2402 0004 0010     		addi	s0,sp,32
 2403              		.cfi_def_cfa 8, 0
 2404 0006 2326A4FE 		sw	a0,-20(s0)
1079:../Firmware/GD32VW55x_standard_peripheral/Source/gd32vw55x_pkcau.c ****     PKCAU_CTL |= interrupt;
 2405              		.loc 1 1079 15
 2406 000a B717064C 		li	a5,1275465728
 2407 000e 9443     		lw	a3,0(a5)
 2408 0010 B717064C 		li	a5,1275465728
 2409 0014 0327C4FE 		lw	a4,-20(s0)
 2410 0018 558F     		or	a4,a3,a4
 2411 001a 98C3     		sw	a4,0(a5)
1080:../Firmware/GD32VW55x_standard_peripheral/Source/gd32vw55x_pkcau.c **** }
 2412              		.loc 1 1080 1
 2413 001c 0100     		nop
 2414 001e 7244     		lw	s0,28(sp)
 2415              		.cfi_restore 8
 2416              		.cfi_def_cfa 2, 32
 2417 0020 0561     		addi	sp,sp,32
 2418              		.cfi_def_cfa_offset 0
 2419 0022 8280     		jr	ra
 2420              		.cfi_endproc
 2421              	.LFE375:
 2423              		.section	.text.pkcau_interrupt_disable,"ax",@progbits
 2424              		.align	1
 2425              		.globl	pkcau_interrupt_disable
 2427              	pkcau_interrupt_disable:
 2428              	.LFB376:
1081:../Firmware/GD32VW55x_standard_peripheral/Source/gd32vw55x_pkcau.c **** 
1082:../Firmware/GD32VW55x_standard_peripheral/Source/gd32vw55x_pkcau.c **** /*!
1083:../Firmware/GD32VW55x_standard_peripheral/Source/gd32vw55x_pkcau.c ****     \brief      disable PKCAU interrupt
1084:../Firmware/GD32VW55x_standard_peripheral/Source/gd32vw55x_pkcau.c ****     \param[in]  interrupt: interrupt type
1085:../Firmware/GD32VW55x_standard_peripheral/Source/gd32vw55x_pkcau.c ****                 one or more parameters can be selected which is shown as below:
1086:../Firmware/GD32VW55x_standard_peripheral/Source/gd32vw55x_pkcau.c ****       \arg        PKCAU_INT_ADDRERR: address error interrupt
1087:../Firmware/GD32VW55x_standard_peripheral/Source/gd32vw55x_pkcau.c ****       \arg        PKCAU_INT_RAMERR: PKCAU RAM error interrupt
1088:../Firmware/GD32VW55x_standard_peripheral/Source/gd32vw55x_pkcau.c ****       \arg        PKCAU_INT_END: end of PKCAU operation interrupt
1089:../Firmware/GD32VW55x_standard_peripheral/Source/gd32vw55x_pkcau.c ****     \param[out] none
1090:../Firmware/GD32VW55x_standard_peripheral/Source/gd32vw55x_pkcau.c ****     \retval     none
1091:../Firmware/GD32VW55x_standard_peripheral/Source/gd32vw55x_pkcau.c **** */
1092:../Firmware/GD32VW55x_standard_peripheral/Source/gd32vw55x_pkcau.c **** void pkcau_interrupt_disable(uint32_t interrupt)
1093:../Firmware/GD32VW55x_standard_peripheral/Source/gd32vw55x_pkcau.c **** {
 2429              		.loc 1 1093 1
 2430              		.cfi_startproc
 2431 0000 0111     		addi	sp,sp,-32
 2432              		.cfi_def_cfa_offset 32
 2433 0002 22CE     		sw	s0,28(sp)
 2434              		.cfi_offset 8, -4
 2435 0004 0010     		addi	s0,sp,32
 2436              		.cfi_def_cfa 8, 0
 2437 0006 2326A4FE 		sw	a0,-20(s0)
1094:../Firmware/GD32VW55x_standard_peripheral/Source/gd32vw55x_pkcau.c ****     PKCAU_CTL &= ~(interrupt);
 2438              		.loc 1 1094 15
 2439 000a B717064C 		li	a5,1275465728
 2440 000e 9443     		lw	a3,0(a5)
 2441              		.loc 1 1094 18
 2442 0010 8327C4FE 		lw	a5,-20(s0)
 2443 0014 13C7F7FF 		not	a4,a5
 2444              		.loc 1 1094 15
 2445 0018 B717064C 		li	a5,1275465728
 2446 001c 758F     		and	a4,a3,a4
 2447 001e 98C3     		sw	a4,0(a5)
1095:../Firmware/GD32VW55x_standard_peripheral/Source/gd32vw55x_pkcau.c **** }
 2448              		.loc 1 1095 1
 2449 0020 0100     		nop
 2450 0022 7244     		lw	s0,28(sp)
 2451              		.cfi_restore 8
 2452              		.cfi_def_cfa 2, 32
 2453 0024 0561     		addi	sp,sp,32
 2454              		.cfi_def_cfa_offset 0
 2455 0026 8280     		jr	ra
 2456              		.cfi_endproc
 2457              	.LFE376:
 2459              		.section	.text.pkcau_interrupt_flag_get,"ax",@progbits
 2460              		.align	1
 2461              		.globl	pkcau_interrupt_flag_get
 2463              	pkcau_interrupt_flag_get:
 2464              	.LFB377:
1096:../Firmware/GD32VW55x_standard_peripheral/Source/gd32vw55x_pkcau.c **** 
1097:../Firmware/GD32VW55x_standard_peripheral/Source/gd32vw55x_pkcau.c **** /*!
1098:../Firmware/GD32VW55x_standard_peripheral/Source/gd32vw55x_pkcau.c ****     \brief      get PKCAU interrupt flag status
1099:../Firmware/GD32VW55x_standard_peripheral/Source/gd32vw55x_pkcau.c ****     \param[in]  int_flag: PKCAU interrupt flags
1100:../Firmware/GD32VW55x_standard_peripheral/Source/gd32vw55x_pkcau.c ****                 only one parameter can be selected which is shown as below:
1101:../Firmware/GD32VW55x_standard_peripheral/Source/gd32vw55x_pkcau.c ****       \arg        PKCAU_INT_FLAG_ADDRERR: address error interrupt flag
1102:../Firmware/GD32VW55x_standard_peripheral/Source/gd32vw55x_pkcau.c ****       \arg        PKCAU_INT_FLAG_RAMERR: PKCAU RAM error interrupt flag
1103:../Firmware/GD32VW55x_standard_peripheral/Source/gd32vw55x_pkcau.c ****       \arg        PKCAU_INT_FLAG_END: end of PKCAU operation interrupt flag
1104:../Firmware/GD32VW55x_standard_peripheral/Source/gd32vw55x_pkcau.c ****     \param[out] none
1105:../Firmware/GD32VW55x_standard_peripheral/Source/gd32vw55x_pkcau.c ****     \retval     FlagStatus: SET or RESET
1106:../Firmware/GD32VW55x_standard_peripheral/Source/gd32vw55x_pkcau.c **** */
1107:../Firmware/GD32VW55x_standard_peripheral/Source/gd32vw55x_pkcau.c **** FlagStatus pkcau_interrupt_flag_get(uint32_t int_flag)
1108:../Firmware/GD32VW55x_standard_peripheral/Source/gd32vw55x_pkcau.c **** {
 2465              		.loc 1 1108 1
 2466              		.cfi_startproc
 2467 0000 7971     		addi	sp,sp,-48
 2468              		.cfi_def_cfa_offset 48
 2469 0002 22D6     		sw	s0,44(sp)
 2470              		.cfi_offset 8, -4
 2471 0004 0018     		addi	s0,sp,48
 2472              		.cfi_def_cfa 8, 0
 2473 0006 232EA4FC 		sw	a0,-36(s0)
1109:../Firmware/GD32VW55x_standard_peripheral/Source/gd32vw55x_pkcau.c ****     uint32_t reg1 = PKCAU_CTL;
 2474              		.loc 1 1109 21
 2475 000a B717064C 		li	a5,1275465728
 2476              		.loc 1 1109 14
 2477 000e 9C43     		lw	a5,0(a5)
 2478 0010 2326F4FE 		sw	a5,-20(s0)
1110:../Firmware/GD32VW55x_standard_peripheral/Source/gd32vw55x_pkcau.c ****     uint32_t reg2 = PKCAU_STAT;
 2479              		.loc 1 1110 21
 2480 0014 B717064C 		li	a5,1275465728
 2481 0018 9107     		addi	a5,a5,4
 2482              		.loc 1 1110 14
 2483 001a 9C43     		lw	a5,0(a5)
 2484 001c 2324F4FE 		sw	a5,-24(s0)
1111:../Firmware/GD32VW55x_standard_peripheral/Source/gd32vw55x_pkcau.c **** 
1112:../Firmware/GD32VW55x_standard_peripheral/Source/gd32vw55x_pkcau.c ****     switch(int_flag) {
 2485              		.loc 1 1112 5
 2486 0020 0327C4FD 		lw	a4,-36(s0)
 2487 0024 B7071000 		li	a5,1048576
 2488 0028 6305F702 		beq	a4,a5,.L76
 2489 002c 0327C4FD 		lw	a4,-36(s0)
 2490 0030 B7071000 		li	a5,1048576
 2491 0034 63ECE706 		bgtu	a4,a5,.L83
 2492 0038 0327C4FD 		lw	a4,-36(s0)
 2493 003c B7070200 		li	a5,131072
 2494 0040 6307F704 		beq	a4,a5,.L78
 2495 0044 0327C4FD 		lw	a4,-36(s0)
 2496 0048 B7070800 		li	a5,524288
 2497 004c 6302F702 		beq	a4,a5,.L79
1113:../Firmware/GD32VW55x_standard_peripheral/Source/gd32vw55x_pkcau.c ****     /* clear address error interrupt flag */
1114:../Firmware/GD32VW55x_standard_peripheral/Source/gd32vw55x_pkcau.c ****     case PKCAU_INT_FLAG_ADDRERR:
1115:../Firmware/GD32VW55x_standard_peripheral/Source/gd32vw55x_pkcau.c ****         reg1 = reg1 & PKCAU_CTL_ADDRERRIE;
1116:../Firmware/GD32VW55x_standard_peripheral/Source/gd32vw55x_pkcau.c ****         reg2 = reg2 & PKCAU_STAT_ADDRERR;
1117:../Firmware/GD32VW55x_standard_peripheral/Source/gd32vw55x_pkcau.c ****         break;
1118:../Firmware/GD32VW55x_standard_peripheral/Source/gd32vw55x_pkcau.c ****     /* clear RAM error interrupt flag */
1119:../Firmware/GD32VW55x_standard_peripheral/Source/gd32vw55x_pkcau.c ****     case PKCAU_INT_FLAG_RAMERR:
1120:../Firmware/GD32VW55x_standard_peripheral/Source/gd32vw55x_pkcau.c ****         reg1 = reg1 & PKCAU_CTL_RAMERRIE;
1121:../Firmware/GD32VW55x_standard_peripheral/Source/gd32vw55x_pkcau.c ****         reg2 = reg2 & PKCAU_STAT_RAMERR;
1122:../Firmware/GD32VW55x_standard_peripheral/Source/gd32vw55x_pkcau.c ****         break;
1123:../Firmware/GD32VW55x_standard_peripheral/Source/gd32vw55x_pkcau.c ****     /* clear end of PKCAU operation interrupt flag */
1124:../Firmware/GD32VW55x_standard_peripheral/Source/gd32vw55x_pkcau.c ****     case PKCAU_INT_FLAG_ENDF:
1125:../Firmware/GD32VW55x_standard_peripheral/Source/gd32vw55x_pkcau.c ****         reg1 = reg1 & PKCAU_CTL_ENDIE;
1126:../Firmware/GD32VW55x_standard_peripheral/Source/gd32vw55x_pkcau.c ****         reg2 = reg2 & PKCAU_STAT_ENDF;
1127:../Firmware/GD32VW55x_standard_peripheral/Source/gd32vw55x_pkcau.c ****         break;
1128:../Firmware/GD32VW55x_standard_peripheral/Source/gd32vw55x_pkcau.c ****     default :
1129:../Firmware/GD32VW55x_standard_peripheral/Source/gd32vw55x_pkcau.c ****         break;
 2498              		.loc 1 1129 9
 2499 0050 B1A8     		j	.L83
 2500              	.L76:
1115:../Firmware/GD32VW55x_standard_peripheral/Source/gd32vw55x_pkcau.c ****         reg2 = reg2 & PKCAU_STAT_ADDRERR;
 2501              		.loc 1 1115 14
 2502 0052 0327C4FE 		lw	a4,-20(s0)
 2503 0056 B7071000 		li	a5,1048576
 2504 005a F98F     		and	a5,a4,a5
 2505 005c 2326F4FE 		sw	a5,-20(s0)
1116:../Firmware/GD32VW55x_standard_peripheral/Source/gd32vw55x_pkcau.c ****         break;
 2506              		.loc 1 1116 14
 2507 0060 032784FE 		lw	a4,-24(s0)
 2508 0064 B7071000 		li	a5,1048576
 2509 0068 F98F     		and	a5,a4,a5
 2510 006a 2324F4FE 		sw	a5,-24(s0)
1117:../Firmware/GD32VW55x_standard_peripheral/Source/gd32vw55x_pkcau.c ****     /* clear RAM error interrupt flag */
 2511              		.loc 1 1117 9
 2512 006e 81A0     		j	.L80
 2513              	.L79:
1120:../Firmware/GD32VW55x_standard_peripheral/Source/gd32vw55x_pkcau.c ****         reg2 = reg2 & PKCAU_STAT_RAMERR;
 2514              		.loc 1 1120 14
 2515 0070 0327C4FE 		lw	a4,-20(s0)
 2516 0074 B7070800 		li	a5,524288
 2517 0078 F98F     		and	a5,a4,a5
 2518 007a 2326F4FE 		sw	a5,-20(s0)
1121:../Firmware/GD32VW55x_standard_peripheral/Source/gd32vw55x_pkcau.c ****         break;
 2519              		.loc 1 1121 14
 2520 007e 032784FE 		lw	a4,-24(s0)
 2521 0082 B7070800 		li	a5,524288
 2522 0086 F98F     		and	a5,a4,a5
 2523 0088 2324F4FE 		sw	a5,-24(s0)
1122:../Firmware/GD32VW55x_standard_peripheral/Source/gd32vw55x_pkcau.c ****     /* clear end of PKCAU operation interrupt flag */
 2524              		.loc 1 1122 9
 2525 008c 0DA0     		j	.L80
 2526              	.L78:
1125:../Firmware/GD32VW55x_standard_peripheral/Source/gd32vw55x_pkcau.c ****         reg2 = reg2 & PKCAU_STAT_ENDF;
 2527              		.loc 1 1125 14
 2528 008e 0327C4FE 		lw	a4,-20(s0)
 2529 0092 B7070200 		li	a5,131072
 2530 0096 F98F     		and	a5,a4,a5
 2531 0098 2326F4FE 		sw	a5,-20(s0)
1126:../Firmware/GD32VW55x_standard_peripheral/Source/gd32vw55x_pkcau.c ****         break;
 2532              		.loc 1 1126 14
 2533 009c 032784FE 		lw	a4,-24(s0)
 2534 00a0 B7070200 		li	a5,131072
 2535 00a4 F98F     		and	a5,a4,a5
 2536 00a6 2324F4FE 		sw	a5,-24(s0)
1127:../Firmware/GD32VW55x_standard_peripheral/Source/gd32vw55x_pkcau.c ****     default :
 2537              		.loc 1 1127 9
 2538 00aa 11A0     		j	.L80
 2539              	.L83:
 2540              		.loc 1 1129 9
 2541 00ac 0100     		nop
 2542              	.L80:
1130:../Firmware/GD32VW55x_standard_peripheral/Source/gd32vw55x_pkcau.c ****     }
1131:../Firmware/GD32VW55x_standard_peripheral/Source/gd32vw55x_pkcau.c ****     /*get PKCAU interrupt flag status */
1132:../Firmware/GD32VW55x_standard_peripheral/Source/gd32vw55x_pkcau.c ****     if(reg1 && reg2) {
 2543              		.loc 1 1132 7
 2544 00ae 8327C4FE 		lw	a5,-20(s0)
 2545 00b2 91C7     		beq	a5,zero,.L81
 2546              		.loc 1 1132 13 discriminator 1
 2547 00b4 832784FE 		lw	a5,-24(s0)
 2548 00b8 99C3     		beq	a5,zero,.L81
1133:../Firmware/GD32VW55x_standard_peripheral/Source/gd32vw55x_pkcau.c ****         return SET;
 2549              		.loc 1 1133 16
 2550 00ba 8547     		li	a5,1
 2551 00bc 11A0     		j	.L82
 2552              	.L81:
1134:../Firmware/GD32VW55x_standard_peripheral/Source/gd32vw55x_pkcau.c ****     } else {
1135:../Firmware/GD32VW55x_standard_peripheral/Source/gd32vw55x_pkcau.c ****         return RESET;
 2553              		.loc 1 1135 16
 2554 00be 8147     		li	a5,0
 2555              	.L82:
1136:../Firmware/GD32VW55x_standard_peripheral/Source/gd32vw55x_pkcau.c ****     }
1137:../Firmware/GD32VW55x_standard_peripheral/Source/gd32vw55x_pkcau.c **** }
 2556              		.loc 1 1137 1
 2557 00c0 3E85     		mv	a0,a5
 2558 00c2 3254     		lw	s0,44(sp)
 2559              		.cfi_restore 8
 2560              		.cfi_def_cfa 2, 48
 2561 00c4 4561     		addi	sp,sp,48
 2562              		.cfi_def_cfa_offset 0
 2563 00c6 8280     		jr	ra
 2564              		.cfi_endproc
 2565              	.LFE377:
 2567              		.section	.text.pkcau_interrupt_flag_clear,"ax",@progbits
 2568              		.align	1
 2569              		.globl	pkcau_interrupt_flag_clear
 2571              	pkcau_interrupt_flag_clear:
 2572              	.LFB378:
1138:../Firmware/GD32VW55x_standard_peripheral/Source/gd32vw55x_pkcau.c **** 
1139:../Firmware/GD32VW55x_standard_peripheral/Source/gd32vw55x_pkcau.c **** /*!
1140:../Firmware/GD32VW55x_standard_peripheral/Source/gd32vw55x_pkcau.c ****     \brief      clear PKCAU interrupt flag status
1141:../Firmware/GD32VW55x_standard_peripheral/Source/gd32vw55x_pkcau.c ****     \param[in]  int_flag: PKCAU interrupt flags
1142:../Firmware/GD32VW55x_standard_peripheral/Source/gd32vw55x_pkcau.c ****                 only one parameter can be selected which is shown as below:
1143:../Firmware/GD32VW55x_standard_peripheral/Source/gd32vw55x_pkcau.c ****       \arg        PKCAU_INT_FLAG_ADDRERR: address error interrupt flag
1144:../Firmware/GD32VW55x_standard_peripheral/Source/gd32vw55x_pkcau.c ****       \arg        PKCAU_INT_FLAG_RAMERR: PKCAU RAM error interrupt flag
1145:../Firmware/GD32VW55x_standard_peripheral/Source/gd32vw55x_pkcau.c ****       \arg        PKCAU_INT_FLAG_END: end of PKCAU operation interrupt flag
1146:../Firmware/GD32VW55x_standard_peripheral/Source/gd32vw55x_pkcau.c ****     \param[out] none
1147:../Firmware/GD32VW55x_standard_peripheral/Source/gd32vw55x_pkcau.c ****     \retval     none
1148:../Firmware/GD32VW55x_standard_peripheral/Source/gd32vw55x_pkcau.c **** */
1149:../Firmware/GD32VW55x_standard_peripheral/Source/gd32vw55x_pkcau.c **** void pkcau_interrupt_flag_clear(uint32_t int_flag)
1150:../Firmware/GD32VW55x_standard_peripheral/Source/gd32vw55x_pkcau.c **** {
 2573              		.loc 1 1150 1
 2574              		.cfi_startproc
 2575 0000 0111     		addi	sp,sp,-32
 2576              		.cfi_def_cfa_offset 32
 2577 0002 22CE     		sw	s0,28(sp)
 2578              		.cfi_offset 8, -4
 2579 0004 0010     		addi	s0,sp,32
 2580              		.cfi_def_cfa 8, 0
 2581 0006 2326A4FE 		sw	a0,-20(s0)
1151:../Firmware/GD32VW55x_standard_peripheral/Source/gd32vw55x_pkcau.c ****     switch(int_flag) {
 2582              		.loc 1 1151 5
 2583 000a 0327C4FE 		lw	a4,-20(s0)
 2584 000e B7071000 		li	a5,1048576
 2585 0012 6305F702 		beq	a4,a5,.L85
 2586 0016 0327C4FE 		lw	a4,-20(s0)
 2587 001a B7071000 		li	a5,1048576
 2588 001e 63E3E706 		bgtu	a4,a5,.L90
 2589 0022 0327C4FE 		lw	a4,-20(s0)
 2590 0026 B7070200 		li	a5,131072
 2591 002a 6301F704 		beq	a4,a5,.L87
 2592 002e 0327C4FE 		lw	a4,-20(s0)
 2593 0032 B7070800 		li	a5,524288
 2594 0036 630FF700 		beq	a4,a5,.L88
1152:../Firmware/GD32VW55x_standard_peripheral/Source/gd32vw55x_pkcau.c ****     /* clear address error interrupt flag */
1153:../Firmware/GD32VW55x_standard_peripheral/Source/gd32vw55x_pkcau.c ****     case PKCAU_INT_FLAG_ADDRERR:
1154:../Firmware/GD32VW55x_standard_peripheral/Source/gd32vw55x_pkcau.c ****         PKCAU_STATC |= PKCAU_STATC_ADDRERRC;
1155:../Firmware/GD32VW55x_standard_peripheral/Source/gd32vw55x_pkcau.c ****         break;
1156:../Firmware/GD32VW55x_standard_peripheral/Source/gd32vw55x_pkcau.c ****     /* clear PKCAU RAM error interrupt flag */
1157:../Firmware/GD32VW55x_standard_peripheral/Source/gd32vw55x_pkcau.c ****     case PKCAU_INT_FLAG_RAMERR:
1158:../Firmware/GD32VW55x_standard_peripheral/Source/gd32vw55x_pkcau.c ****         PKCAU_STATC |= PKCAU_STATC_RAMERRC;
1159:../Firmware/GD32VW55x_standard_peripheral/Source/gd32vw55x_pkcau.c ****         break;
1160:../Firmware/GD32VW55x_standard_peripheral/Source/gd32vw55x_pkcau.c ****     /* clear end of PKCAU operation interrupt flag */
1161:../Firmware/GD32VW55x_standard_peripheral/Source/gd32vw55x_pkcau.c ****     case PKCAU_INT_FLAG_ENDF:
1162:../Firmware/GD32VW55x_standard_peripheral/Source/gd32vw55x_pkcau.c ****         PKCAU_STATC |= PKCAU_STATC_ENDFC;
1163:../Firmware/GD32VW55x_standard_peripheral/Source/gd32vw55x_pkcau.c ****         break;
1164:../Firmware/GD32VW55x_standard_peripheral/Source/gd32vw55x_pkcau.c ****     default:
1165:../Firmware/GD32VW55x_standard_peripheral/Source/gd32vw55x_pkcau.c ****         break;
 2595              		.loc 1 1165 9
 2596 003a A9A0     		j	.L90
 2597              	.L85:
1154:../Firmware/GD32VW55x_standard_peripheral/Source/gd32vw55x_pkcau.c ****         break;
 2598              		.loc 1 1154 21
 2599 003c B717064C 		li	a5,1275465728
 2600 0040 A107     		addi	a5,a5,8
 2601 0042 9443     		lw	a3,0(a5)
 2602 0044 B717064C 		li	a5,1275465728
 2603 0048 A107     		addi	a5,a5,8
 2604 004a 37071000 		li	a4,1048576
 2605 004e 558F     		or	a4,a3,a4
 2606 0050 98C3     		sw	a4,0(a5)
1155:../Firmware/GD32VW55x_standard_peripheral/Source/gd32vw55x_pkcau.c ****     /* clear PKCAU RAM error interrupt flag */
 2607              		.loc 1 1155 9
 2608 0052 15A8     		j	.L89
 2609              	.L88:
1158:../Firmware/GD32VW55x_standard_peripheral/Source/gd32vw55x_pkcau.c ****         break;
 2610              		.loc 1 1158 21
 2611 0054 B717064C 		li	a5,1275465728
 2612 0058 A107     		addi	a5,a5,8
 2613 005a 9443     		lw	a3,0(a5)
 2614 005c B717064C 		li	a5,1275465728
 2615 0060 A107     		addi	a5,a5,8
 2616 0062 37070800 		li	a4,524288
 2617 0066 558F     		or	a4,a3,a4
 2618 0068 98C3     		sw	a4,0(a5)
1159:../Firmware/GD32VW55x_standard_peripheral/Source/gd32vw55x_pkcau.c ****     /* clear end of PKCAU operation interrupt flag */
 2619              		.loc 1 1159 9
 2620 006a 31A8     		j	.L89
 2621              	.L87:
1162:../Firmware/GD32VW55x_standard_peripheral/Source/gd32vw55x_pkcau.c ****         break;
 2622              		.loc 1 1162 21
 2623 006c B717064C 		li	a5,1275465728
 2624 0070 A107     		addi	a5,a5,8
 2625 0072 9443     		lw	a3,0(a5)
 2626 0074 B717064C 		li	a5,1275465728
 2627 0078 A107     		addi	a5,a5,8
 2628 007a 37070200 		li	a4,131072
 2629 007e 558F     		or	a4,a3,a4
 2630 0080 98C3     		sw	a4,0(a5)
1163:../Firmware/GD32VW55x_standard_peripheral/Source/gd32vw55x_pkcau.c ****     default:
 2631              		.loc 1 1163 9
 2632 0082 11A0     		j	.L89
 2633              	.L90:
 2634              		.loc 1 1165 9
 2635 0084 0100     		nop
 2636              	.L89:
1166:../Firmware/GD32VW55x_standard_peripheral/Source/gd32vw55x_pkcau.c ****     }
1167:../Firmware/GD32VW55x_standard_peripheral/Source/gd32vw55x_pkcau.c **** }
 2637              		.loc 1 1167 1
 2638 0086 0100     		nop
 2639 0088 7244     		lw	s0,28(sp)
 2640              		.cfi_restore 8
 2641              		.cfi_def_cfa 2, 32
 2642 008a 0561     		addi	sp,sp,32
 2643              		.cfi_def_cfa_offset 0
 2644 008c 8280     		jr	ra
 2645              		.cfi_endproc
 2646              	.LFE378:
 2648              		.section	.text.pkcau_memcpy_value,"ax",@progbits
 2649              		.align	1
 2651              	pkcau_memcpy_value:
 2652              	.LFB379:
1168:../Firmware/GD32VW55x_standard_peripheral/Source/gd32vw55x_pkcau.c **** 
1169:../Firmware/GD32VW55x_standard_peripheral/Source/gd32vw55x_pkcau.c **** /*!
1170:../Firmware/GD32VW55x_standard_peripheral/Source/gd32vw55x_pkcau.c ****     \brief      copy normal 32-bit value to PKCAU RAM
1171:../Firmware/GD32VW55x_standard_peripheral/Source/gd32vw55x_pkcau.c ****     \param[in]  offset: RAM address offset to PKCAU base address
1172:../Firmware/GD32VW55x_standard_peripheral/Source/gd32vw55x_pkcau.c ****     \param[in]  value: the value needed to write into PKCAU RAM
1173:../Firmware/GD32VW55x_standard_peripheral/Source/gd32vw55x_pkcau.c ****     \param[out] none
1174:../Firmware/GD32VW55x_standard_peripheral/Source/gd32vw55x_pkcau.c ****     \retval     none
1175:../Firmware/GD32VW55x_standard_peripheral/Source/gd32vw55x_pkcau.c **** */
1176:../Firmware/GD32VW55x_standard_peripheral/Source/gd32vw55x_pkcau.c **** static void pkcau_memcpy_value(uint32_t offset, uint32_t value)
1177:../Firmware/GD32VW55x_standard_peripheral/Source/gd32vw55x_pkcau.c **** {
 2653              		.loc 1 1177 1
 2654              		.cfi_startproc
 2655 0000 7971     		addi	sp,sp,-48
 2656              		.cfi_def_cfa_offset 48
 2657 0002 22D6     		sw	s0,44(sp)
 2658              		.cfi_offset 8, -4
 2659 0004 0018     		addi	s0,sp,48
 2660              		.cfi_def_cfa 8, 0
 2661 0006 232EA4FC 		sw	a0,-36(s0)
 2662 000a 232CB4FC 		sw	a1,-40(s0)
1178:../Firmware/GD32VW55x_standard_peripheral/Source/gd32vw55x_pkcau.c ****     uint32_t *addr = (uint32_t *)((uint32_t)(PKCAU_BASE + offset));
 2663              		.loc 1 1178 35
 2664 000e 0327C4FD 		lw	a4,-36(s0)
 2665 0012 B717064C 		li	a5,1275465728
 2666 0016 BA97     		add	a5,a4,a5
 2667              		.loc 1 1178 15
 2668 0018 2326F4FE 		sw	a5,-20(s0)
1179:../Firmware/GD32VW55x_standard_peripheral/Source/gd32vw55x_pkcau.c ****     *addr = value;
 2669              		.loc 1 1179 11
 2670 001c 8327C4FE 		lw	a5,-20(s0)
 2671 0020 032784FD 		lw	a4,-40(s0)
 2672 0024 98C3     		sw	a4,0(a5)
1180:../Firmware/GD32VW55x_standard_peripheral/Source/gd32vw55x_pkcau.c **** }
 2673              		.loc 1 1180 1
 2674 0026 0100     		nop
 2675 0028 3254     		lw	s0,44(sp)
 2676              		.cfi_restore 8
 2677              		.cfi_def_cfa 2, 48
 2678 002a 4561     		addi	sp,sp,48
 2679              		.cfi_def_cfa_offset 0
 2680 002c 8280     		jr	ra
 2681              		.cfi_endproc
 2682              	.LFE379:
 2684              		.section	.text.pkcau_memcpy_operand,"ax",@progbits
 2685              		.align	1
 2687              	pkcau_memcpy_operand:
 2688              	.LFB380:
1181:../Firmware/GD32VW55x_standard_peripheral/Source/gd32vw55x_pkcau.c **** 
1182:../Firmware/GD32VW55x_standard_peripheral/Source/gd32vw55x_pkcau.c **** /*!
1183:../Firmware/GD32VW55x_standard_peripheral/Source/gd32vw55x_pkcau.c ****     \brief      copy operand with EOS or ROS to PKCAU RAM
1184:../Firmware/GD32VW55x_standard_peripheral/Source/gd32vw55x_pkcau.c ****     \param[in]  offset: RAM address offset to PKCAU base address
1185:../Firmware/GD32VW55x_standard_peripheral/Source/gd32vw55x_pkcau.c ****     \param[in]  operand: the big endian operand vector, the left most byte of the value should be i
1186:../Firmware/GD32VW55x_standard_peripheral/Source/gd32vw55x_pkcau.c ****                 If input data is little endian, please flip it in application code.
1187:../Firmware/GD32VW55x_standard_peripheral/Source/gd32vw55x_pkcau.c ****     \param[in]  size: operand vector length in byte
1188:../Firmware/GD32VW55x_standard_peripheral/Source/gd32vw55x_pkcau.c ****     \retval     none
1189:../Firmware/GD32VW55x_standard_peripheral/Source/gd32vw55x_pkcau.c **** */
1190:../Firmware/GD32VW55x_standard_peripheral/Source/gd32vw55x_pkcau.c **** static void pkcau_memcpy_operand(uint32_t offset, const uint8_t operand[], uint32_t size)
1191:../Firmware/GD32VW55x_standard_peripheral/Source/gd32vw55x_pkcau.c **** {
 2689              		.loc 1 1191 1
 2690              		.cfi_startproc
 2691 0000 7971     		addi	sp,sp,-48
 2692              		.cfi_def_cfa_offset 48
 2693 0002 22D6     		sw	s0,44(sp)
 2694              		.cfi_offset 8, -4
 2695 0004 0018     		addi	s0,sp,48
 2696              		.cfi_def_cfa 8, 0
 2697 0006 232EA4FC 		sw	a0,-36(s0)
 2698 000a 232CB4FC 		sw	a1,-40(s0)
 2699 000e 232AC4FC 		sw	a2,-44(s0)
1192:../Firmware/GD32VW55x_standard_peripheral/Source/gd32vw55x_pkcau.c ****     uint32_t data = 0U, i = 0U, j = 0U;
 2700              		.loc 1 1192 14
 2701 0012 232604FE 		sw	zero,-20(s0)
 2702              		.loc 1 1192 25
 2703 0016 232404FE 		sw	zero,-24(s0)
 2704              		.loc 1 1192 33
 2705 001a 232204FE 		sw	zero,-28(s0)
1193:../Firmware/GD32VW55x_standard_peripheral/Source/gd32vw55x_pkcau.c **** 
1194:../Firmware/GD32VW55x_standard_peripheral/Source/gd32vw55x_pkcau.c ****     while(size >= 4U) {
 2706              		.loc 1 1194 10
 2707 001e 49A0     		j	.L93
 2708              	.L94:
1195:../Firmware/GD32VW55x_standard_peripheral/Source/gd32vw55x_pkcau.c ****         /* convert the big endian operand vector to little endian parameter to input to PKCAU RAM *
1196:../Firmware/GD32VW55x_standard_peripheral/Source/gd32vw55x_pkcau.c ****         data = (uint32_t)((uint32_t)operand[size-1U] | ((uint32_t)operand[size-2U] << 8U) | ((uint3
 2709              		.loc 1 1196 44
 2710 0020 832744FD 		lw	a5,-44(s0)
 2711 0024 FD17     		addi	a5,a5,-1
 2712 0026 032784FD 		lw	a4,-40(s0)
 2713 002a BA97     		add	a5,a4,a5
 2714 002c 83C70700 		lbu	a5,0(a5)
 2715              		.loc 1 1196 27
 2716 0030 BE86     		mv	a3,a5
 2717              		.loc 1 1196 74
 2718 0032 832744FD 		lw	a5,-44(s0)
 2719 0036 F917     		addi	a5,a5,-2
 2720 0038 032784FD 		lw	a4,-40(s0)
 2721 003c BA97     		add	a5,a4,a5
 2722 003e 83C70700 		lbu	a5,0(a5)
 2723              		.loc 1 1196 84
 2724 0042 A207     		slli	a5,a5,8
 2725              		.loc 1 1196 54
 2726 0044 33E7F600 		or	a4,a3,a5
 2727              		.loc 1 1196 111
 2728 0048 832744FD 		lw	a5,-44(s0)
 2729 004c F517     		addi	a5,a5,-3
 2730 004e 832684FD 		lw	a3,-40(s0)
 2731 0052 B697     		add	a5,a3,a5
 2732 0054 83C70700 		lbu	a5,0(a5)
 2733              		.loc 1 1196 121
 2734 0058 C207     		slli	a5,a5,16
 2735              		.loc 1 1196 91
 2736 005a 5D8F     		or	a4,a4,a5
 2737              		.loc 1 1196 149
 2738 005c 832744FD 		lw	a5,-44(s0)
 2739 0060 F117     		addi	a5,a5,-4
 2740 0062 832684FD 		lw	a3,-40(s0)
 2741 0066 B697     		add	a5,a3,a5
 2742 0068 83C70700 		lbu	a5,0(a5)
 2743              		.loc 1 1196 159
 2744 006c E207     		slli	a5,a5,24
 2745              		.loc 1 1196 14
 2746 006e D98F     		or	a5,a4,a5
 2747 0070 2326F4FE 		sw	a5,-20(s0)
1197:../Firmware/GD32VW55x_standard_peripheral/Source/gd32vw55x_pkcau.c ****         *(uint32_t*)((uint32_t)(PKCAU_BASE + offset + i)) = data;
 2748              		.loc 1 1197 22
 2749 0074 0327C4FD 		lw	a4,-36(s0)
 2750 0078 832784FE 		lw	a5,-24(s0)
 2751 007c 3E97     		add	a4,a4,a5
 2752 007e B717064C 		li	a5,1275465728
 2753 0082 BA97     		add	a5,a4,a5
 2754              		.loc 1 1197 10
 2755 0084 3E87     		mv	a4,a5
 2756              		.loc 1 1197 59
 2757 0086 8327C4FE 		lw	a5,-20(s0)
 2758 008a 1CC3     		sw	a5,0(a4)
1198:../Firmware/GD32VW55x_standard_peripheral/Source/gd32vw55x_pkcau.c ****         i = i + 4U;
 2759              		.loc 1 1198 11
 2760 008c 832784FE 		lw	a5,-24(s0)
 2761 0090 9107     		addi	a5,a5,4
 2762 0092 2324F4FE 		sw	a5,-24(s0)
1199:../Firmware/GD32VW55x_standard_peripheral/Source/gd32vw55x_pkcau.c ****         size -= 4U;
 2763              		.loc 1 1199 14
 2764 0096 832744FD 		lw	a5,-44(s0)
 2765 009a F117     		addi	a5,a5,-4
 2766 009c 232AF4FC 		sw	a5,-44(s0)
 2767              	.L93:
1194:../Firmware/GD32VW55x_standard_peripheral/Source/gd32vw55x_pkcau.c ****         /* convert the big endian operand vector to little endian parameter to input to PKCAU RAM *
 2768              		.loc 1 1194 10
 2769 00a0 032744FD 		lw	a4,-44(s0)
 2770 00a4 8D47     		li	a5,3
 2771 00a6 E3EDE7F6 		bgtu	a4,a5,.L94
1200:../Firmware/GD32VW55x_standard_peripheral/Source/gd32vw55x_pkcau.c ****     }
1201:../Firmware/GD32VW55x_standard_peripheral/Source/gd32vw55x_pkcau.c ****     /* convert the big endian operand vector to little endian parameter to input to PKCAU RAM which
