   1              		.file	"gd32vw55x_eclic.c"
   2              		.option nopic
   3              		.attribute arch, "rv32i2p0_m2p0_a2p0_c2p0"
   4              		.attribute unaligned_access, 0
   5              		.attribute stack_align, 16
   6              		.text
   7              	.Ltext0:
   8              		.cfi_sections	.debug_frame
   9              		.section	.text.eclic_global_interrupt_enable,"ax",@progbits
  10              		.align	1
  11              		.globl	eclic_global_interrupt_enable
  13              	eclic_global_interrupt_enable:
  14              	.LFB347:
  15              		.file 1 "../Firmware/GD32VW55x_standard_peripheral/Source/gd32vw55x_eclic.c"
   1:../Firmware/GD32VW55x_standard_peripheral/Source/gd32vw55x_eclic.c **** /*!
   2:../Firmware/GD32VW55x_standard_peripheral/Source/gd32vw55x_eclic.c ****     \file    gd32vw55x_eclic.c
   3:../Firmware/GD32VW55x_standard_peripheral/Source/gd32vw55x_eclic.c ****     \brief   ECLIC(Enhancement Core-Local Interrupt Controller) driver
   4:../Firmware/GD32VW55x_standard_peripheral/Source/gd32vw55x_eclic.c **** 
   5:../Firmware/GD32VW55x_standard_peripheral/Source/gd32vw55x_eclic.c ****     \version 2025-01-16, V1.4.0, firmware for GD32VW55x
   6:../Firmware/GD32VW55x_standard_peripheral/Source/gd32vw55x_eclic.c **** */
   7:../Firmware/GD32VW55x_standard_peripheral/Source/gd32vw55x_eclic.c **** 
   8:../Firmware/GD32VW55x_standard_peripheral/Source/gd32vw55x_eclic.c **** /*
   9:../Firmware/GD32VW55x_standard_peripheral/Source/gd32vw55x_eclic.c ****     Copyright (c) 2025, GigaDevice Semiconductor Inc.
  10:../Firmware/GD32VW55x_standard_peripheral/Source/gd32vw55x_eclic.c **** 
  11:../Firmware/GD32VW55x_standard_peripheral/Source/gd32vw55x_eclic.c ****     Redistribution and use in source and binary forms, with or without modification,
  12:../Firmware/GD32VW55x_standard_peripheral/Source/gd32vw55x_eclic.c **** are permitted provided that the following conditions are met:
  13:../Firmware/GD32VW55x_standard_peripheral/Source/gd32vw55x_eclic.c **** 
  14:../Firmware/GD32VW55x_standard_peripheral/Source/gd32vw55x_eclic.c ****     1. Redistributions of source code must retain the above copyright notice, this
  15:../Firmware/GD32VW55x_standard_peripheral/Source/gd32vw55x_eclic.c ****        list of conditions and the following disclaimer.
  16:../Firmware/GD32VW55x_standard_peripheral/Source/gd32vw55x_eclic.c ****     2. Redistributions in binary form must reproduce the above copyright notice,
  17:../Firmware/GD32VW55x_standard_peripheral/Source/gd32vw55x_eclic.c ****        this list of conditions and the following disclaimer in the documentation
  18:../Firmware/GD32VW55x_standard_peripheral/Source/gd32vw55x_eclic.c ****        and/or other materials provided with the distribution.
  19:../Firmware/GD32VW55x_standard_peripheral/Source/gd32vw55x_eclic.c ****     3. Neither the name of the copyright holder nor the names of its contributors
  20:../Firmware/GD32VW55x_standard_peripheral/Source/gd32vw55x_eclic.c ****        may be used to endorse or promote products derived from this software without
  21:../Firmware/GD32VW55x_standard_peripheral/Source/gd32vw55x_eclic.c ****        specific prior written permission.
  22:../Firmware/GD32VW55x_standard_peripheral/Source/gd32vw55x_eclic.c **** 
  23:../Firmware/GD32VW55x_standard_peripheral/Source/gd32vw55x_eclic.c ****     THIS SOFTWARE IS PROVIDED BY THE COPYRIGHT HOLDERS AND CONTRIBUTORS "AS IS"
  24:../Firmware/GD32VW55x_standard_peripheral/Source/gd32vw55x_eclic.c **** AND ANY EXPRESS OR IMPLIED WARRANTIES, INCLUDING, BUT NOT LIMITED TO, THE IMPLIED
  25:../Firmware/GD32VW55x_standard_peripheral/Source/gd32vw55x_eclic.c **** WARRANTIES OF MERCHANTABILITY AND FITNESS FOR A PARTICULAR PURPOSE ARE DISCLAIMED.
  26:../Firmware/GD32VW55x_standard_peripheral/Source/gd32vw55x_eclic.c **** IN NO EVENT SHALL THE COPYRIGHT HOLDER OR CONTRIBUTORS BE LIABLE FOR ANY DIRECT,
  27:../Firmware/GD32VW55x_standard_peripheral/Source/gd32vw55x_eclic.c **** INDIRECT, INCIDENTAL, SPECIAL, EXEMPLARY, OR CONSEQUENTIAL DAMAGES (INCLUDING, BUT
  28:../Firmware/GD32VW55x_standard_peripheral/Source/gd32vw55x_eclic.c **** NOT LIMITED TO, PROCUREMENT OF SUBSTITUTE GOODS OR SERVICES; LOSS OF USE, DATA, OR
  29:../Firmware/GD32VW55x_standard_peripheral/Source/gd32vw55x_eclic.c **** PROFITS; OR BUSINESS INTERRUPTION) HOWEVER CAUSED AND ON ANY THEORY OF LIABILITY,
  30:../Firmware/GD32VW55x_standard_peripheral/Source/gd32vw55x_eclic.c **** WHETHER IN CONTRACT, STRICT LIABILITY, OR TORT (INCLUDING NEGLIGENCE OR OTHERWISE)
  31:../Firmware/GD32VW55x_standard_peripheral/Source/gd32vw55x_eclic.c **** ARISING IN ANY WAY OUT OF THE USE OF THIS SOFTWARE, EVEN IF ADVISED OF THE POSSIBILITY
  32:../Firmware/GD32VW55x_standard_peripheral/Source/gd32vw55x_eclic.c **** OF SUCH DAMAGE.
  33:../Firmware/GD32VW55x_standard_peripheral/Source/gd32vw55x_eclic.c **** */
  34:../Firmware/GD32VW55x_standard_peripheral/Source/gd32vw55x_eclic.c **** 
  35:../Firmware/GD32VW55x_standard_peripheral/Source/gd32vw55x_eclic.c **** #include "gd32vw55x_eclic.h"
  36:../Firmware/GD32VW55x_standard_peripheral/Source/gd32vw55x_eclic.c **** #include "riscv_encoding.h"
  37:../Firmware/GD32VW55x_standard_peripheral/Source/gd32vw55x_eclic.c **** 
  38:../Firmware/GD32VW55x_standard_peripheral/Source/gd32vw55x_eclic.c **** /*!
  39:../Firmware/GD32VW55x_standard_peripheral/Source/gd32vw55x_eclic.c ****     \brief      enable the global interrupt
  40:../Firmware/GD32VW55x_standard_peripheral/Source/gd32vw55x_eclic.c ****     \param[in]  none
  41:../Firmware/GD32VW55x_standard_peripheral/Source/gd32vw55x_eclic.c ****     \param[out] none
  42:../Firmware/GD32VW55x_standard_peripheral/Source/gd32vw55x_eclic.c ****     \retval     none
  43:../Firmware/GD32VW55x_standard_peripheral/Source/gd32vw55x_eclic.c **** */
  44:../Firmware/GD32VW55x_standard_peripheral/Source/gd32vw55x_eclic.c **** void eclic_global_interrupt_enable(void)
  45:../Firmware/GD32VW55x_standard_peripheral/Source/gd32vw55x_eclic.c **** {
  16              		.loc 1 45 1
  17              		.cfi_startproc
  18 0000 4111     		addi	sp,sp,-16
  19              		.cfi_def_cfa_offset 16
  20 0002 22C6     		sw	s0,12(sp)
  21 0004 26C4     		sw	s1,8(sp)
  22              		.cfi_offset 8, -4
  23              		.cfi_offset 9, -8
  24 0006 0008     		addi	s0,sp,16
  25              		.cfi_def_cfa 8, 0
  26              	.LBB48:
  27              	.LBB49:
  28              	.LBB50:
  29              		.file 2 "../Firmware/RISCV/drivers/core_feature_base.h"
   1:../Firmware/RISCV/drivers/core_feature_base.h **** /*
   2:../Firmware/RISCV/drivers/core_feature_base.h ****  * Copyright (c) 2019 Nuclei Limited. All rights reserved.
   3:../Firmware/RISCV/drivers/core_feature_base.h ****  *
   4:../Firmware/RISCV/drivers/core_feature_base.h ****  * SPDX-License-Identifier: Apache-2.0
   5:../Firmware/RISCV/drivers/core_feature_base.h ****  *
   6:../Firmware/RISCV/drivers/core_feature_base.h ****  * Licensed under the Apache License, Version 2.0 (the License); you may
   7:../Firmware/RISCV/drivers/core_feature_base.h ****  * not use this file except in compliance with the License.
   8:../Firmware/RISCV/drivers/core_feature_base.h ****  * You may obtain a copy of the License at
   9:../Firmware/RISCV/drivers/core_feature_base.h ****  *
  10:../Firmware/RISCV/drivers/core_feature_base.h ****  * www.apache.org/licenses/LICENSE-2.0
  11:../Firmware/RISCV/drivers/core_feature_base.h ****  *
  12:../Firmware/RISCV/drivers/core_feature_base.h ****  * Unless required by applicable law or agreed to in writing, software
  13:../Firmware/RISCV/drivers/core_feature_base.h ****  * distributed under the License is distributed on an AS IS BASIS, WITHOUT
  14:../Firmware/RISCV/drivers/core_feature_base.h ****  * WARRANTIES OR CONDITIONS OF ANY KIND, either express or implied.
  15:../Firmware/RISCV/drivers/core_feature_base.h ****  * See the License for the specific language governing permissions and
  16:../Firmware/RISCV/drivers/core_feature_base.h ****  * limitations under the License.
  17:../Firmware/RISCV/drivers/core_feature_base.h ****  */
  18:../Firmware/RISCV/drivers/core_feature_base.h **** 
  19:../Firmware/RISCV/drivers/core_feature_base.h **** #ifndef __CORE_FEATURE_BASE__
  20:../Firmware/RISCV/drivers/core_feature_base.h **** #define __CORE_FEATURE_BASE__
  21:../Firmware/RISCV/drivers/core_feature_base.h **** /*!
  22:../Firmware/RISCV/drivers/core_feature_base.h ****  * @file     core_feature_base.h
  23:../Firmware/RISCV/drivers/core_feature_base.h ****  * @brief    Base core feature API for Nuclei N/NX Core
  24:../Firmware/RISCV/drivers/core_feature_base.h ****  */
  25:../Firmware/RISCV/drivers/core_feature_base.h **** #include <stdint.h>
  26:../Firmware/RISCV/drivers/core_feature_base.h **** #include "riscv_encoding.h"
  27:../Firmware/RISCV/drivers/core_feature_base.h **** 
  28:../Firmware/RISCV/drivers/core_feature_base.h **** #ifdef __cplusplus
  29:../Firmware/RISCV/drivers/core_feature_base.h ****  extern "C" {
  30:../Firmware/RISCV/drivers/core_feature_base.h **** #endif
  31:../Firmware/RISCV/drivers/core_feature_base.h **** 
  32:../Firmware/RISCV/drivers/core_feature_base.h **** /**
  33:../Firmware/RISCV/drivers/core_feature_base.h ****  * \defgroup NMSIS_Core_Registers     Register Define and Type Definitions
  34:../Firmware/RISCV/drivers/core_feature_base.h ****  * \brief   Type definitions and defines for core registers.
  35:../Firmware/RISCV/drivers/core_feature_base.h ****  *
  36:../Firmware/RISCV/drivers/core_feature_base.h ****  * @{
  37:../Firmware/RISCV/drivers/core_feature_base.h ****  */
  38:../Firmware/RISCV/drivers/core_feature_base.h **** #ifndef __RISCV_XLEN
  39:../Firmware/RISCV/drivers/core_feature_base.h ****   /** \brief Refer to the width of an integer register in bits(either 32 or 64) */
  40:../Firmware/RISCV/drivers/core_feature_base.h ****   #ifndef __riscv_xlen
  41:../Firmware/RISCV/drivers/core_feature_base.h ****     #define __RISCV_XLEN    32
  42:../Firmware/RISCV/drivers/core_feature_base.h ****   #else
  43:../Firmware/RISCV/drivers/core_feature_base.h ****     #define __RISCV_XLEN    __riscv_xlen
  44:../Firmware/RISCV/drivers/core_feature_base.h ****   #endif
  45:../Firmware/RISCV/drivers/core_feature_base.h **** #endif /* __RISCV_XLEN */
  46:../Firmware/RISCV/drivers/core_feature_base.h **** 
  47:../Firmware/RISCV/drivers/core_feature_base.h **** /** \brief Type of Control and Status Register(CSR), depends on the XLEN defined in RISC-V */
  48:../Firmware/RISCV/drivers/core_feature_base.h **** #if __RISCV_XLEN == 32
  49:../Firmware/RISCV/drivers/core_feature_base.h ****   typedef uint32_t rv_csr_t;
  50:../Firmware/RISCV/drivers/core_feature_base.h **** #elif __RISCV_XLEN == 64
  51:../Firmware/RISCV/drivers/core_feature_base.h ****   typedef uint64_t rv_csr_t;
  52:../Firmware/RISCV/drivers/core_feature_base.h **** #else
  53:../Firmware/RISCV/drivers/core_feature_base.h ****   typedef uint32_t rv_csr_t;
  54:../Firmware/RISCV/drivers/core_feature_base.h **** #endif
  55:../Firmware/RISCV/drivers/core_feature_base.h **** /** @} */ /* End of Doxygen Group NMSIS_Core_Registers */
  56:../Firmware/RISCV/drivers/core_feature_base.h **** /**
  57:../Firmware/RISCV/drivers/core_feature_base.h ****  * \defgroup NMSIS_Core_Base_Registers     Base Register Define and Type Definitions
  58:../Firmware/RISCV/drivers/core_feature_base.h ****  * \ingroup NMSIS_Core_Registers
  59:../Firmware/RISCV/drivers/core_feature_base.h ****  * \brief   Type definitions and defines for base core registers.
  60:../Firmware/RISCV/drivers/core_feature_base.h ****  *
  61:../Firmware/RISCV/drivers/core_feature_base.h ****  * @{
  62:../Firmware/RISCV/drivers/core_feature_base.h ****  */
  63:../Firmware/RISCV/drivers/core_feature_base.h **** /**
  64:../Firmware/RISCV/drivers/core_feature_base.h ****  * \brief  Union type to access MISA CSR register.
  65:../Firmware/RISCV/drivers/core_feature_base.h ****  */
  66:../Firmware/RISCV/drivers/core_feature_base.h **** typedef union {
  67:../Firmware/RISCV/drivers/core_feature_base.h ****     struct {
  68:../Firmware/RISCV/drivers/core_feature_base.h ****         rv_csr_t a:1;                           /*!< bit:     0  Atomic extension */
  69:../Firmware/RISCV/drivers/core_feature_base.h ****         rv_csr_t b:1;                           /*!< bit:     1  Tentatively reserved for Bit-Manip
  70:../Firmware/RISCV/drivers/core_feature_base.h ****         rv_csr_t c:1;                           /*!< bit:     2  Compressed extension */
  71:../Firmware/RISCV/drivers/core_feature_base.h ****         rv_csr_t d:1;                           /*!< bit:     3  Double-precision floating-point ex
  72:../Firmware/RISCV/drivers/core_feature_base.h ****         rv_csr_t e:1;                           /*!< bit:     4  RV32E base ISA */
  73:../Firmware/RISCV/drivers/core_feature_base.h ****         rv_csr_t f:1;                           /*!< bit:     5  Single-precision floating-point ex
  74:../Firmware/RISCV/drivers/core_feature_base.h ****         rv_csr_t g:1;                           /*!< bit:     6  Additional standard extensions pre
  75:../Firmware/RISCV/drivers/core_feature_base.h ****         rv_csr_t h:1;                           /*!< bit:     7  Hypervisor extension */
  76:../Firmware/RISCV/drivers/core_feature_base.h ****         rv_csr_t i:1;                           /*!< bit:     8  RV32I/64I/128I base ISA */
  77:../Firmware/RISCV/drivers/core_feature_base.h ****         rv_csr_t j:1;                           /*!< bit:     9  Tentatively reserved for Dynamical
  78:../Firmware/RISCV/drivers/core_feature_base.h ****         rv_csr_t _reserved1:1;                  /*!< bit:     10 Reserved  */
  79:../Firmware/RISCV/drivers/core_feature_base.h ****         rv_csr_t l:1;                           /*!< bit:     11 Tentatively reserved for Decimal F
  80:../Firmware/RISCV/drivers/core_feature_base.h ****         rv_csr_t m:1;                           /*!< bit:     12 Integer Multiply/Divide extension 
  81:../Firmware/RISCV/drivers/core_feature_base.h ****         rv_csr_t n:1;                           /*!< bit:     13 User-level interrupts supported  *
  82:../Firmware/RISCV/drivers/core_feature_base.h ****         rv_csr_t _reserved2:1;                  /*!< bit:     14 Reserved  */
  83:../Firmware/RISCV/drivers/core_feature_base.h ****         rv_csr_t p:1;                           /*!< bit:     15 Tentatively reserved for Packed-SI
  84:../Firmware/RISCV/drivers/core_feature_base.h ****         rv_csr_t q:1;                           /*!< bit:     16 Quad-precision floating-point exte
  85:../Firmware/RISCV/drivers/core_feature_base.h ****         rv_csr_t _resreved3:1;                  /*!< bit:     17 Reserved  */
  86:../Firmware/RISCV/drivers/core_feature_base.h ****         rv_csr_t s:1;                           /*!< bit:     18 Supervisor mode implemented  */
  87:../Firmware/RISCV/drivers/core_feature_base.h ****         rv_csr_t t:1;                           /*!< bit:     19 Tentatively reserved for Transacti
  88:../Firmware/RISCV/drivers/core_feature_base.h ****         rv_csr_t u:1;                           /*!< bit:     20 User mode implemented  */
  89:../Firmware/RISCV/drivers/core_feature_base.h ****         rv_csr_t v:1;                           /*!< bit:     21 Tentatively reserved for Vector ex
  90:../Firmware/RISCV/drivers/core_feature_base.h ****         rv_csr_t _reserved4:1;                  /*!< bit:     22 Reserved  */
  91:../Firmware/RISCV/drivers/core_feature_base.h ****         rv_csr_t x:1;                           /*!< bit:     23 Non-standard extensions present  *
  92:../Firmware/RISCV/drivers/core_feature_base.h **** #if defined(__RISCV_XLEN) && __RISCV_XLEN == 64
  93:../Firmware/RISCV/drivers/core_feature_base.h ****         rv_csr_t _reserved5:38;                 /*!< bit:     24..61 Reserved  */
  94:../Firmware/RISCV/drivers/core_feature_base.h ****         rv_csr_t mxl:2;                         /*!< bit:     62..63 Machine XLEN  */
  95:../Firmware/RISCV/drivers/core_feature_base.h **** #else
  96:../Firmware/RISCV/drivers/core_feature_base.h ****         rv_csr_t _reserved5:6;                  /*!< bit:     24..29 Reserved  */
  97:../Firmware/RISCV/drivers/core_feature_base.h ****         rv_csr_t mxl:2;                         /*!< bit:     30..31 Machine XLEN  */
  98:../Firmware/RISCV/drivers/core_feature_base.h **** #endif
  99:../Firmware/RISCV/drivers/core_feature_base.h ****     } b;                                        /*!< Structure used for bit  access */
 100:../Firmware/RISCV/drivers/core_feature_base.h ****     rv_csr_t d;                                 /*!< Type      used for csr data access */
 101:../Firmware/RISCV/drivers/core_feature_base.h **** } CSR_MISA_Type;
 102:../Firmware/RISCV/drivers/core_feature_base.h **** 
 103:../Firmware/RISCV/drivers/core_feature_base.h **** /**
 104:../Firmware/RISCV/drivers/core_feature_base.h ****  * \brief  Union type to access MSTATUS CSR register.
 105:../Firmware/RISCV/drivers/core_feature_base.h ****  */
 106:../Firmware/RISCV/drivers/core_feature_base.h **** typedef union {
 107:../Firmware/RISCV/drivers/core_feature_base.h ****     struct {
 108:../Firmware/RISCV/drivers/core_feature_base.h **** #if defined(__RISCV_XLEN) && __RISCV_XLEN == 64
 109:../Firmware/RISCV/drivers/core_feature_base.h ****         rv_csr_t _reserved0:3;                  /*!< bit:     0..2  Reserved */
 110:../Firmware/RISCV/drivers/core_feature_base.h ****         rv_csr_t mie:1;                         /*!< bit:     3  Machine mode interrupt enable flag
 111:../Firmware/RISCV/drivers/core_feature_base.h ****         rv_csr_t _reserved1:3;                  /*!< bit:     4..6  Reserved */
 112:../Firmware/RISCV/drivers/core_feature_base.h ****         rv_csr_t mpie:1;                        /*!< bit:     7  mirror of MIE flag */
 113:../Firmware/RISCV/drivers/core_feature_base.h ****         rv_csr_t _reserved2:3;                  /*!< bit:     8..10  Reserved */
 114:../Firmware/RISCV/drivers/core_feature_base.h ****         rv_csr_t mpp:2;                         /*!< bit:     11..12 mirror of Privilege Mode */
 115:../Firmware/RISCV/drivers/core_feature_base.h ****         rv_csr_t fs:2;                          /*!< bit:     13..14 FS status flag */
 116:../Firmware/RISCV/drivers/core_feature_base.h ****         rv_csr_t xs:2;                          /*!< bit:     15..16 XS status flag */
 117:../Firmware/RISCV/drivers/core_feature_base.h ****         rv_csr_t mprv:1;                        /*!< bit:     Machine mode PMP */
 118:../Firmware/RISCV/drivers/core_feature_base.h ****         rv_csr_t _reserved3:14;                 /*!< bit:     18..31 Reserved */
 119:../Firmware/RISCV/drivers/core_feature_base.h ****         rv_csr_t uxl:2;                         /*!< bit:     32..33 user mode xlen */
 120:../Firmware/RISCV/drivers/core_feature_base.h ****         rv_csr_t _reserved6:29;                 /*!< bit:     34..62 Reserved  */
 121:../Firmware/RISCV/drivers/core_feature_base.h ****         rv_csr_t sd:1;                          /*!< bit:     Dirty status for XS or FS */
 122:../Firmware/RISCV/drivers/core_feature_base.h **** #else
 123:../Firmware/RISCV/drivers/core_feature_base.h ****         rv_csr_t _reserved0:1;                  /*!< bit:     0  Reserved */
 124:../Firmware/RISCV/drivers/core_feature_base.h ****         rv_csr_t sie:1;                         /*!< bit:     1  supervisor interrupt enable flag *
 125:../Firmware/RISCV/drivers/core_feature_base.h ****         rv_csr_t _reserved1:1;                  /*!< bit:     2  Reserved */
 126:../Firmware/RISCV/drivers/core_feature_base.h ****         rv_csr_t mie:1;                         /*!< bit:     3  Machine mode interrupt enable flag
 127:../Firmware/RISCV/drivers/core_feature_base.h ****         rv_csr_t _reserved2:1;                  /*!< bit:     4  Reserved */
 128:../Firmware/RISCV/drivers/core_feature_base.h ****         rv_csr_t spie:1;                        /*!< bit:     3  Supervisor Privilede mode interrup
 129:../Firmware/RISCV/drivers/core_feature_base.h ****         rv_csr_t _reserved3:1;                  /*!< bit:     Reserved */
 130:../Firmware/RISCV/drivers/core_feature_base.h ****         rv_csr_t mpie:1;                        /*!< bit:     mirror of MIE flag */
 131:../Firmware/RISCV/drivers/core_feature_base.h ****         rv_csr_t _reserved4:3;                  /*!< bit:     Reserved */
 132:../Firmware/RISCV/drivers/core_feature_base.h ****         rv_csr_t mpp:2;                         /*!< bit:     mirror of Privilege Mode */
 133:../Firmware/RISCV/drivers/core_feature_base.h ****         rv_csr_t fs:2;                          /*!< bit:     FS status flag */
 134:../Firmware/RISCV/drivers/core_feature_base.h ****         rv_csr_t xs:2;                          /*!< bit:     XS status flag */
 135:../Firmware/RISCV/drivers/core_feature_base.h ****         rv_csr_t mprv:1;                        /*!< bit:     Machine mode PMP */
 136:../Firmware/RISCV/drivers/core_feature_base.h ****         rv_csr_t sum:1;                         /*!< bit:     Supervisor Mode load and store protec
 137:../Firmware/RISCV/drivers/core_feature_base.h ****         rv_csr_t _reserved6:12;                 /*!< bit:     19..30 Reserved  */
 138:../Firmware/RISCV/drivers/core_feature_base.h ****         rv_csr_t sd:1;                          /*!< bit:     Dirty status for XS or FS */
 139:../Firmware/RISCV/drivers/core_feature_base.h **** #endif
 140:../Firmware/RISCV/drivers/core_feature_base.h ****     } b;                                        /*!< Structure used for bit  access */
 141:../Firmware/RISCV/drivers/core_feature_base.h ****     rv_csr_t d;                                 /*!< Type      used for csr data access */
 142:../Firmware/RISCV/drivers/core_feature_base.h **** } CSR_MSTATUS_Type;
 143:../Firmware/RISCV/drivers/core_feature_base.h **** 
 144:../Firmware/RISCV/drivers/core_feature_base.h **** /**
 145:../Firmware/RISCV/drivers/core_feature_base.h ****  * \brief  Union type to access MTVEC CSR register.
 146:../Firmware/RISCV/drivers/core_feature_base.h ****  */
 147:../Firmware/RISCV/drivers/core_feature_base.h **** typedef union {
 148:../Firmware/RISCV/drivers/core_feature_base.h ****     struct {
 149:../Firmware/RISCV/drivers/core_feature_base.h ****         rv_csr_t mode:6;                        /*!< bit:     0..5   interrupt mode control */
 150:../Firmware/RISCV/drivers/core_feature_base.h **** #if defined(__RISCV_XLEN) && __RISCV_XLEN == 64
 151:../Firmware/RISCV/drivers/core_feature_base.h ****         rv_csr_t addr:58;                       /*!< bit:     6..63  mtvec address */
 152:../Firmware/RISCV/drivers/core_feature_base.h **** #else
 153:../Firmware/RISCV/drivers/core_feature_base.h ****         rv_csr_t addr:26;                       /*!< bit:     6..31  mtvec address */
 154:../Firmware/RISCV/drivers/core_feature_base.h **** #endif
 155:../Firmware/RISCV/drivers/core_feature_base.h ****     } b;                                        /*!< Structure used for bit  access */
 156:../Firmware/RISCV/drivers/core_feature_base.h ****     rv_csr_t d;                                 /*!< Type      used for csr data access */
 157:../Firmware/RISCV/drivers/core_feature_base.h **** } CSR_MTVEC_Type;
 158:../Firmware/RISCV/drivers/core_feature_base.h **** 
 159:../Firmware/RISCV/drivers/core_feature_base.h **** /**
 160:../Firmware/RISCV/drivers/core_feature_base.h ****  * \brief  Union type to access MCAUSE CSR register.
 161:../Firmware/RISCV/drivers/core_feature_base.h ****  */
 162:../Firmware/RISCV/drivers/core_feature_base.h **** typedef union {
 163:../Firmware/RISCV/drivers/core_feature_base.h ****     struct {
 164:../Firmware/RISCV/drivers/core_feature_base.h ****         rv_csr_t exccode:12;                    /*!< bit:     11..0  exception or interrupt code */
 165:../Firmware/RISCV/drivers/core_feature_base.h ****         rv_csr_t _reserved0:4;                  /*!< bit:     15..12  Reserved */
 166:../Firmware/RISCV/drivers/core_feature_base.h ****         rv_csr_t mpil:8;                        /*!< bit:     23..16  Previous interrupt level */
 167:../Firmware/RISCV/drivers/core_feature_base.h ****         rv_csr_t _reserved1:3;                  /*!< bit:     26..24  Reserved */
 168:../Firmware/RISCV/drivers/core_feature_base.h ****         rv_csr_t mpie:1;                        /*!< bit:     27  Interrupt enable flag before ente
 169:../Firmware/RISCV/drivers/core_feature_base.h ****         rv_csr_t mpp:2;                         /*!< bit:     29..28  Privilede mode flag before en
 170:../Firmware/RISCV/drivers/core_feature_base.h ****         rv_csr_t minhv:1;                       /*!< bit:     30  Machine interrupt vector table */
 171:../Firmware/RISCV/drivers/core_feature_base.h **** #if defined(__RISCV_XLEN) && __RISCV_XLEN == 64
 172:../Firmware/RISCV/drivers/core_feature_base.h ****         rv_csr_t _reserved2:32;                 /*!< bit:     31..62  Reserved */
 173:../Firmware/RISCV/drivers/core_feature_base.h ****         rv_csr_t interrupt:1;                   /*!< bit:     63  trap type. 0 means exception and 
 174:../Firmware/RISCV/drivers/core_feature_base.h **** #else
 175:../Firmware/RISCV/drivers/core_feature_base.h ****         rv_csr_t interrupt:1;                   /*!< bit:     31  trap type. 0 means exception and 
 176:../Firmware/RISCV/drivers/core_feature_base.h **** #endif
 177:../Firmware/RISCV/drivers/core_feature_base.h ****     } b;                                        /*!< Structure used for bit  access */
 178:../Firmware/RISCV/drivers/core_feature_base.h ****     rv_csr_t d;                                 /*!< Type      used for csr data access */
 179:../Firmware/RISCV/drivers/core_feature_base.h **** } CSR_MCAUSE_Type;
 180:../Firmware/RISCV/drivers/core_feature_base.h **** 
 181:../Firmware/RISCV/drivers/core_feature_base.h **** /**
 182:../Firmware/RISCV/drivers/core_feature_base.h ****  * \brief  Union type to access MCOUNTINHIBIT CSR register.
 183:../Firmware/RISCV/drivers/core_feature_base.h ****  */
 184:../Firmware/RISCV/drivers/core_feature_base.h **** typedef union {
 185:../Firmware/RISCV/drivers/core_feature_base.h ****     struct {
 186:../Firmware/RISCV/drivers/core_feature_base.h ****         rv_csr_t cy:1;                          /*!< bit:     0     1 means disable mcycle counter 
 187:../Firmware/RISCV/drivers/core_feature_base.h ****         rv_csr_t _reserved0:1;                  /*!< bit:     1     Reserved */
 188:../Firmware/RISCV/drivers/core_feature_base.h ****         rv_csr_t ir:1;                          /*!< bit:     2     1 means disable minstret counte
 189:../Firmware/RISCV/drivers/core_feature_base.h **** #if defined(__RISCV_XLEN) && __RISCV_XLEN == 64
 190:../Firmware/RISCV/drivers/core_feature_base.h ****         rv_csr_t _reserved1:61;                 /*!< bit:     3..63 Reserved */
 191:../Firmware/RISCV/drivers/core_feature_base.h **** #else
 192:../Firmware/RISCV/drivers/core_feature_base.h ****         rv_csr_t _reserved1:29;                 /*!< bit:     3..31 Reserved */
 193:../Firmware/RISCV/drivers/core_feature_base.h **** #endif
 194:../Firmware/RISCV/drivers/core_feature_base.h ****     } b;                                        /*!< Structure used for bit  access */
 195:../Firmware/RISCV/drivers/core_feature_base.h ****     rv_csr_t d;                                 /*!< Type      used for csr data access */
 196:../Firmware/RISCV/drivers/core_feature_base.h **** } CSR_MCOUNTINHIBIT_Type;
 197:../Firmware/RISCV/drivers/core_feature_base.h **** 
 198:../Firmware/RISCV/drivers/core_feature_base.h **** /**
 199:../Firmware/RISCV/drivers/core_feature_base.h ****  * \brief  Union type to access MSUBM CSR register.
 200:../Firmware/RISCV/drivers/core_feature_base.h ****  */
 201:../Firmware/RISCV/drivers/core_feature_base.h **** typedef union {
 202:../Firmware/RISCV/drivers/core_feature_base.h ****     struct {
 203:../Firmware/RISCV/drivers/core_feature_base.h ****         rv_csr_t _reserved0:6;                  /*!< bit:     0..5   Reserved */
 204:../Firmware/RISCV/drivers/core_feature_base.h ****         rv_csr_t typ:2;                         /*!< bit:     6..7   current trap type */
 205:../Firmware/RISCV/drivers/core_feature_base.h ****         rv_csr_t ptyp:2;                        /*!< bit:     8..9   previous trap type */
 206:../Firmware/RISCV/drivers/core_feature_base.h **** #if defined(__RISCV_XLEN) && __RISCV_XLEN == 64
 207:../Firmware/RISCV/drivers/core_feature_base.h ****         rv_csr_t _reserved1:54;                 /*!< bit:     10..63 Reserved */
 208:../Firmware/RISCV/drivers/core_feature_base.h **** #else
 209:../Firmware/RISCV/drivers/core_feature_base.h ****         rv_csr_t _reserved1:22;                 /*!< bit:     10..31 Reserved */
 210:../Firmware/RISCV/drivers/core_feature_base.h **** #endif
 211:../Firmware/RISCV/drivers/core_feature_base.h ****     } b;                                        /*!< Structure used for bit  access */
 212:../Firmware/RISCV/drivers/core_feature_base.h ****     rv_csr_t d;                                 /*!< Type      used for csr data access */
 213:../Firmware/RISCV/drivers/core_feature_base.h **** } CSR_MSUBM_Type;
 214:../Firmware/RISCV/drivers/core_feature_base.h **** 
 215:../Firmware/RISCV/drivers/core_feature_base.h **** /**
 216:../Firmware/RISCV/drivers/core_feature_base.h ****  * \brief  Union type to access MDCAUSE CSR register.
 217:../Firmware/RISCV/drivers/core_feature_base.h ****  */
 218:../Firmware/RISCV/drivers/core_feature_base.h **** typedef union {
 219:../Firmware/RISCV/drivers/core_feature_base.h ****     struct {
 220:../Firmware/RISCV/drivers/core_feature_base.h ****         rv_csr_t mdcause:2;                     /*!< bit:     0..1   More detailed exception inform
 221:../Firmware/RISCV/drivers/core_feature_base.h ****         rv_csr_t _reserved0:__RISCV_XLEN-2;     /*!< bit:     2..XLEN-1 Reserved */
 222:../Firmware/RISCV/drivers/core_feature_base.h ****     } b;                                        /*!< Structure used for bit  access */
 223:../Firmware/RISCV/drivers/core_feature_base.h ****     rv_csr_t d;                                 /*!< Type      used for csr data access */
 224:../Firmware/RISCV/drivers/core_feature_base.h **** } CSR_MDCAUSE_Type;
 225:../Firmware/RISCV/drivers/core_feature_base.h **** 
 226:../Firmware/RISCV/drivers/core_feature_base.h **** /**
 227:../Firmware/RISCV/drivers/core_feature_base.h ****  * \brief  Union type to access MMISC_CTRL CSR register.
 228:../Firmware/RISCV/drivers/core_feature_base.h ****  */
 229:../Firmware/RISCV/drivers/core_feature_base.h **** typedef union {
 230:../Firmware/RISCV/drivers/core_feature_base.h ****     struct {
 231:../Firmware/RISCV/drivers/core_feature_base.h ****         rv_csr_t _reserved0:3;                  /*!< bit:     0..2  Reserved */
 232:../Firmware/RISCV/drivers/core_feature_base.h ****         rv_csr_t bpu:1;                         /*!< bit:     3     dynamic prediction enable flag 
 233:../Firmware/RISCV/drivers/core_feature_base.h ****         rv_csr_t _reserved1:2;                  /*!< bit:     4..5  Reserved */
 234:../Firmware/RISCV/drivers/core_feature_base.h ****         rv_csr_t misalign:1;                    /*!< bit:     6     misaligned access support flag 
 235:../Firmware/RISCV/drivers/core_feature_base.h ****         rv_csr_t _reserved2:2;                  /*!< bit:     7..8  Reserved */
 236:../Firmware/RISCV/drivers/core_feature_base.h ****         rv_csr_t nmi_cause:1;                   /*!< bit:     9     mnvec control and nmi mcase exc
 237:../Firmware/RISCV/drivers/core_feature_base.h **** #if defined(__RISCV_XLEN) && __RISCV_XLEN == 64
 238:../Firmware/RISCV/drivers/core_feature_base.h ****         rv_csr_t _reserved3:54;                 /*!< bit:     10..63 Reserved */
 239:../Firmware/RISCV/drivers/core_feature_base.h **** #else
 240:../Firmware/RISCV/drivers/core_feature_base.h ****         rv_csr_t _reserved3:22;                 /*!< bit:     10..31 Reserved */
 241:../Firmware/RISCV/drivers/core_feature_base.h **** #endif
 242:../Firmware/RISCV/drivers/core_feature_base.h ****     } b;                                        /*!< Structure used for bit  access */
 243:../Firmware/RISCV/drivers/core_feature_base.h ****     rv_csr_t d;                                 /*!< Type      used for csr data access */
 244:../Firmware/RISCV/drivers/core_feature_base.h **** } CSR_MMISCCTRL_Type;
 245:../Firmware/RISCV/drivers/core_feature_base.h **** 
 246:../Firmware/RISCV/drivers/core_feature_base.h **** typedef CSR_MMISCCTRL_Type CSR_MMISCCTL_Type;
 247:../Firmware/RISCV/drivers/core_feature_base.h **** 
 248:../Firmware/RISCV/drivers/core_feature_base.h **** /**
 249:../Firmware/RISCV/drivers/core_feature_base.h ****  * \brief  Union type to access MCACHE_CTL CSR register.
 250:../Firmware/RISCV/drivers/core_feature_base.h ****  */
 251:../Firmware/RISCV/drivers/core_feature_base.h **** typedef union {
 252:../Firmware/RISCV/drivers/core_feature_base.h ****     struct {
 253:../Firmware/RISCV/drivers/core_feature_base.h ****         rv_csr_t ic_en:1;                       /*!< I-Cache enable */
 254:../Firmware/RISCV/drivers/core_feature_base.h ****         rv_csr_t ic_scpd_mod:1;                 /*!< Scratchpad mode, 0: Scratchpad as ICache Data 
 255:../Firmware/RISCV/drivers/core_feature_base.h ****         rv_csr_t ic_ecc_en:1;                   /*!< I-Cache ECC enable */
 256:../Firmware/RISCV/drivers/core_feature_base.h ****         rv_csr_t ic_ecc_excp_en:1;              /*!< I-Cache 2bit ECC error exception enable */
 257:../Firmware/RISCV/drivers/core_feature_base.h ****         rv_csr_t ic_rwtecc:1;                   /*!< Control I-Cache Tag Ram ECC code injection */
 258:../Firmware/RISCV/drivers/core_feature_base.h ****         rv_csr_t ic_rwdecc:1;                   /*!< Control I-Cache Data Ram ECC code injection */
 259:../Firmware/RISCV/drivers/core_feature_base.h ****         rv_csr_t _reserved0:10;
 260:../Firmware/RISCV/drivers/core_feature_base.h ****         rv_csr_t dc_en:1;                       /*!< DCache enable */
 261:../Firmware/RISCV/drivers/core_feature_base.h ****         rv_csr_t dc_ecc_en:1;                   /*!< D-Cache ECC enable */
 262:../Firmware/RISCV/drivers/core_feature_base.h ****         rv_csr_t dc_ecc_excp_en:1;              /*!< D-Cache 2bit ECC error exception enable */
 263:../Firmware/RISCV/drivers/core_feature_base.h ****         rv_csr_t dc_rwtecc:1;                   /*!< Control D-Cache Tag Ram ECC code injection */
 264:../Firmware/RISCV/drivers/core_feature_base.h ****         rv_csr_t dc_rwdecc:1;                   /*!< Control D-Cache Data Ram ECC code injection */
 265:../Firmware/RISCV/drivers/core_feature_base.h ****         rv_csr_t _reserved1:__RISCV_XLEN-21;
 266:../Firmware/RISCV/drivers/core_feature_base.h ****     } b;                                        /*!< Structure used for bit  access */
 267:../Firmware/RISCV/drivers/core_feature_base.h ****     rv_csr_t d;                                 /*!< Type      used for csr data access */
 268:../Firmware/RISCV/drivers/core_feature_base.h **** } CSR_MCACHECTL_Type;
 269:../Firmware/RISCV/drivers/core_feature_base.h **** 
 270:../Firmware/RISCV/drivers/core_feature_base.h **** /**
 271:../Firmware/RISCV/drivers/core_feature_base.h ****  * \brief  Union type to access MSAVESTATUS CSR register.
 272:../Firmware/RISCV/drivers/core_feature_base.h ****  */
 273:../Firmware/RISCV/drivers/core_feature_base.h **** typedef union {
 274:../Firmware/RISCV/drivers/core_feature_base.h ****     struct {
 275:../Firmware/RISCV/drivers/core_feature_base.h ****         rv_csr_t mpie1:1;                       /*!< bit:     0     interrupt enable flag of fisrt 
 276:../Firmware/RISCV/drivers/core_feature_base.h ****         rv_csr_t mpp1:2;                        /*!< bit:     1..2  privilede mode of fisrt level N
 277:../Firmware/RISCV/drivers/core_feature_base.h ****         rv_csr_t _reserved0:3;                  /*!< bit:     3..5  Reserved */
 278:../Firmware/RISCV/drivers/core_feature_base.h ****         rv_csr_t ptyp1:2;                       /*!< bit:     6..7  NMI/exception type of before fi
 279:../Firmware/RISCV/drivers/core_feature_base.h ****         rv_csr_t mpie2:1;                       /*!< bit:     8     interrupt enable flag of second
 280:../Firmware/RISCV/drivers/core_feature_base.h ****         rv_csr_t mpp2:2;                        /*!< bit:     9..10 privilede mode of second level 
 281:../Firmware/RISCV/drivers/core_feature_base.h ****         rv_csr_t _reserved1:3;                  /*!< bit:     11..13     Reserved */
 282:../Firmware/RISCV/drivers/core_feature_base.h ****         rv_csr_t ptyp2:2;                       /*!< bit:     14..15     NMI/exception type of befo
 283:../Firmware/RISCV/drivers/core_feature_base.h **** #if defined(__RISCV_XLEN) && __RISCV_XLEN == 64
 284:../Firmware/RISCV/drivers/core_feature_base.h ****         rv_csr_t _reserved2:48;                 /*!< bit:     16..63 Reserved*/
 285:../Firmware/RISCV/drivers/core_feature_base.h **** #else
 286:../Firmware/RISCV/drivers/core_feature_base.h ****         rv_csr_t _reserved2:16;                 /*!< bit:     16..31 Reserved*/
 287:../Firmware/RISCV/drivers/core_feature_base.h **** #endif
 288:../Firmware/RISCV/drivers/core_feature_base.h ****     } b;                                        /*!< Structure used for bit  access */
 289:../Firmware/RISCV/drivers/core_feature_base.h ****     rv_csr_t w;                                 /*!< Type      used for csr data access */
 290:../Firmware/RISCV/drivers/core_feature_base.h **** } CSR_MSAVESTATUS_Type;
 291:../Firmware/RISCV/drivers/core_feature_base.h **** 
 292:../Firmware/RISCV/drivers/core_feature_base.h **** /**
 293:../Firmware/RISCV/drivers/core_feature_base.h ****  * \brief  Union type to access MILM_CTL CSR register.
 294:../Firmware/RISCV/drivers/core_feature_base.h ****  */
 295:../Firmware/RISCV/drivers/core_feature_base.h **** typedef union {
 296:../Firmware/RISCV/drivers/core_feature_base.h ****     struct {
 297:../Firmware/RISCV/drivers/core_feature_base.h ****         rv_csr_t ilm_en:1;                      /*!< ILM enable */
 298:../Firmware/RISCV/drivers/core_feature_base.h ****         rv_csr_t ilm_ecc_en:1;                  /*!< ILM ECC eanble */
 299:../Firmware/RISCV/drivers/core_feature_base.h ****         rv_csr_t ilm_ecc_excp_en:1;             /*!< ILM ECC exception enable */
 300:../Firmware/RISCV/drivers/core_feature_base.h ****         rv_csr_t ilm_rwecc:1;                   /*!< Control mecc_code write to ilm, simulate error
 301:../Firmware/RISCV/drivers/core_feature_base.h ****         rv_csr_t _reserved0:6;                  /*!< Reserved */
 302:../Firmware/RISCV/drivers/core_feature_base.h ****         rv_csr_t ilm_bpa:__RISCV_XLEN-10;       /*!< ILM base address */
 303:../Firmware/RISCV/drivers/core_feature_base.h ****     } b;                                        /*!< Structure used for bit  access */
 304:../Firmware/RISCV/drivers/core_feature_base.h ****     rv_csr_t d;                                 /*!< Type      used for csr data access */
 305:../Firmware/RISCV/drivers/core_feature_base.h **** } CSR_MILMCTL_Type;
 306:../Firmware/RISCV/drivers/core_feature_base.h **** 
 307:../Firmware/RISCV/drivers/core_feature_base.h **** /**
 308:../Firmware/RISCV/drivers/core_feature_base.h ****  * \brief  Union type to access MDLM_CTL CSR register.
 309:../Firmware/RISCV/drivers/core_feature_base.h ****  */
 310:../Firmware/RISCV/drivers/core_feature_base.h **** typedef union {
 311:../Firmware/RISCV/drivers/core_feature_base.h ****     struct {
 312:../Firmware/RISCV/drivers/core_feature_base.h ****         rv_csr_t dlm_en:1;                      /*!< DLM enable */
 313:../Firmware/RISCV/drivers/core_feature_base.h ****         rv_csr_t dlm_ecc_en:1;                  /*!< DLM ECC eanble */
 314:../Firmware/RISCV/drivers/core_feature_base.h ****         rv_csr_t dlm_ecc_excp_en:1;             /*!< DLM ECC exception enable */
 315:../Firmware/RISCV/drivers/core_feature_base.h ****         rv_csr_t dlm_rwecc:1;                   /*!< Control mecc_code write to dlm, simulate error
 316:../Firmware/RISCV/drivers/core_feature_base.h ****         rv_csr_t _reserved0:6;                  /*!< Reserved */
 317:../Firmware/RISCV/drivers/core_feature_base.h ****         rv_csr_t dlm_bpa:__RISCV_XLEN-10;       /*!< DLM base address */
 318:../Firmware/RISCV/drivers/core_feature_base.h ****     } b;                                        /*!< Structure used for bit  access */
 319:../Firmware/RISCV/drivers/core_feature_base.h ****     rv_csr_t d;                                 /*!< Type      used for csr data access */
 320:../Firmware/RISCV/drivers/core_feature_base.h **** } CSR_MDLMCTL_Type;
 321:../Firmware/RISCV/drivers/core_feature_base.h **** 
 322:../Firmware/RISCV/drivers/core_feature_base.h **** /**
 323:../Firmware/RISCV/drivers/core_feature_base.h ****  * \brief  Union type to access MCFG_INFO CSR register.
 324:../Firmware/RISCV/drivers/core_feature_base.h ****  */
 325:../Firmware/RISCV/drivers/core_feature_base.h **** typedef union {
 326:../Firmware/RISCV/drivers/core_feature_base.h ****     struct {
 327:../Firmware/RISCV/drivers/core_feature_base.h ****         rv_csr_t tee:1;                         /*!< TEE present */
 328:../Firmware/RISCV/drivers/core_feature_base.h ****         rv_csr_t ecc:1;                         /*!< ECC present */
 329:../Firmware/RISCV/drivers/core_feature_base.h ****         rv_csr_t clic:1;                        /*!< CLIC present */
 330:../Firmware/RISCV/drivers/core_feature_base.h ****         rv_csr_t plic:1;                        /*!< PLIC present */
 331:../Firmware/RISCV/drivers/core_feature_base.h ****         rv_csr_t fio:1;                         /*!< FIO present */
 332:../Firmware/RISCV/drivers/core_feature_base.h ****         rv_csr_t ppi:1;                         /*!< PPI present */
 333:../Firmware/RISCV/drivers/core_feature_base.h ****         rv_csr_t nice:1;                        /*!< NICE present */
 334:../Firmware/RISCV/drivers/core_feature_base.h ****         rv_csr_t ilm:1;                         /*!< ILM present */
 335:../Firmware/RISCV/drivers/core_feature_base.h ****         rv_csr_t dlm:1;                         /*!< DLM present */
 336:../Firmware/RISCV/drivers/core_feature_base.h ****         rv_csr_t icache:1;                      /*!< ICache present */
 337:../Firmware/RISCV/drivers/core_feature_base.h ****         rv_csr_t dcache:1;                      /*!< DCache present */
 338:../Firmware/RISCV/drivers/core_feature_base.h ****         rv_csr_t _reserved0:__RISCV_XLEN-11;
 339:../Firmware/RISCV/drivers/core_feature_base.h ****     } b;                                        /*!< Structure used for bit  access */
 340:../Firmware/RISCV/drivers/core_feature_base.h ****     rv_csr_t d;                                 /*!< Type      used for csr data access */
 341:../Firmware/RISCV/drivers/core_feature_base.h **** } CSR_MCFGINFO_Type;
 342:../Firmware/RISCV/drivers/core_feature_base.h **** 
 343:../Firmware/RISCV/drivers/core_feature_base.h **** /**
 344:../Firmware/RISCV/drivers/core_feature_base.h ****  * \brief  Union type to access MICFG_INFO CSR register.
 345:../Firmware/RISCV/drivers/core_feature_base.h ****  */
 346:../Firmware/RISCV/drivers/core_feature_base.h **** typedef union {
 347:../Firmware/RISCV/drivers/core_feature_base.h ****     struct {
 348:../Firmware/RISCV/drivers/core_feature_base.h ****         rv_csr_t set:4;                         /*!< I-Cache sets per way */
 349:../Firmware/RISCV/drivers/core_feature_base.h ****         rv_csr_t way:3;                         /*!< I-Cache way */
 350:../Firmware/RISCV/drivers/core_feature_base.h ****         rv_csr_t lsize:3;                       /*!< I-Cache line size */
 351:../Firmware/RISCV/drivers/core_feature_base.h ****         rv_csr_t cache_ecc:1;                   /*!< I-Cache ECC present */
 352:../Firmware/RISCV/drivers/core_feature_base.h ****         rv_csr_t _reserved0:5;
 353:../Firmware/RISCV/drivers/core_feature_base.h ****         rv_csr_t lm_size:5;                     /*!< ILM size, need to be 2^n size */
 354:../Firmware/RISCV/drivers/core_feature_base.h ****         rv_csr_t lm_xonly:1;                    /*!< ILM Execute only permission */
 355:../Firmware/RISCV/drivers/core_feature_base.h ****         rv_csr_t lm_ecc:1;                      /*!< ILM ECC present */
 356:../Firmware/RISCV/drivers/core_feature_base.h ****         rv_csr_t _reserved1:__RISCV_XLEN-23;
 357:../Firmware/RISCV/drivers/core_feature_base.h ****     } b;                                        /*!< Structure used for bit  access */
 358:../Firmware/RISCV/drivers/core_feature_base.h ****     rv_csr_t d;                                 /*!< Type      used for csr data access */
 359:../Firmware/RISCV/drivers/core_feature_base.h **** } CSR_MICFGINFO_Type;
 360:../Firmware/RISCV/drivers/core_feature_base.h **** 
 361:../Firmware/RISCV/drivers/core_feature_base.h **** /**
 362:../Firmware/RISCV/drivers/core_feature_base.h ****  * \brief  Union type to access MDCFG_INFO CSR register.
 363:../Firmware/RISCV/drivers/core_feature_base.h ****  */
 364:../Firmware/RISCV/drivers/core_feature_base.h **** typedef union {
 365:../Firmware/RISCV/drivers/core_feature_base.h ****     struct {
 366:../Firmware/RISCV/drivers/core_feature_base.h ****         rv_csr_t set:4;                         /*!< D-Cache sets per way */
 367:../Firmware/RISCV/drivers/core_feature_base.h ****         rv_csr_t way:3;                         /*!< D-Cache way */
 368:../Firmware/RISCV/drivers/core_feature_base.h ****         rv_csr_t lsize:3;                       /*!< D-Cache line size */
 369:../Firmware/RISCV/drivers/core_feature_base.h ****         rv_csr_t cache_ecc:1;                   /*!< D-Cache ECC present */
 370:../Firmware/RISCV/drivers/core_feature_base.h ****         rv_csr_t _reserved0:5;
 371:../Firmware/RISCV/drivers/core_feature_base.h ****         rv_csr_t lm_size:5;                     /*!< DLM size, need to be 2^n size */
 372:../Firmware/RISCV/drivers/core_feature_base.h ****         rv_csr_t lm_xonly:1;                    /*!< DLM Execute only permission */
 373:../Firmware/RISCV/drivers/core_feature_base.h ****         rv_csr_t lm_ecc:1;                      /*!< DLM ECC present */
 374:../Firmware/RISCV/drivers/core_feature_base.h ****         rv_csr_t _reserved1:__RISCV_XLEN-23;
 375:../Firmware/RISCV/drivers/core_feature_base.h ****     } b;                                        /*!< Structure used for bit  access */
 376:../Firmware/RISCV/drivers/core_feature_base.h ****     rv_csr_t d;                                 /*!< Type      used for csr data access */
 377:../Firmware/RISCV/drivers/core_feature_base.h **** } CSR_MDCFGINFO_Type;
 378:../Firmware/RISCV/drivers/core_feature_base.h **** 
 379:../Firmware/RISCV/drivers/core_feature_base.h **** /**
 380:../Firmware/RISCV/drivers/core_feature_base.h ****  * \brief  Union type to access MPPICFG_INFO CSR register.
 381:../Firmware/RISCV/drivers/core_feature_base.h ****  */
 382:../Firmware/RISCV/drivers/core_feature_base.h **** typedef union {
 383:../Firmware/RISCV/drivers/core_feature_base.h ****     struct {
 384:../Firmware/RISCV/drivers/core_feature_base.h ****         rv_csr_t _reserved0:1;                  /*!< Reserved */
 385:../Firmware/RISCV/drivers/core_feature_base.h ****         rv_csr_t ppi_size:5;                    /*!< PPI size, need to be 2^n size */
 386:../Firmware/RISCV/drivers/core_feature_base.h ****         rv_csr_t _reserved1:4;                  /*!< Reserved */
 387:../Firmware/RISCV/drivers/core_feature_base.h ****         rv_csr_t ppi_bpa:__RISCV_XLEN-10;       /*!< PPI base address */
 388:../Firmware/RISCV/drivers/core_feature_base.h ****     } b;                                        /*!< Structure used for bit  access */
 389:../Firmware/RISCV/drivers/core_feature_base.h ****     rv_csr_t d;                                 /*!< Type      used for csr data access */
 390:../Firmware/RISCV/drivers/core_feature_base.h **** } CSR_MPPICFGINFO_Type;
 391:../Firmware/RISCV/drivers/core_feature_base.h **** 
 392:../Firmware/RISCV/drivers/core_feature_base.h **** /**
 393:../Firmware/RISCV/drivers/core_feature_base.h ****  * \brief  Union type to access MFIOCFG_INFO CSR register.
 394:../Firmware/RISCV/drivers/core_feature_base.h ****  */
 395:../Firmware/RISCV/drivers/core_feature_base.h **** typedef union {
 396:../Firmware/RISCV/drivers/core_feature_base.h ****     struct {
 397:../Firmware/RISCV/drivers/core_feature_base.h ****         rv_csr_t _reserved0:1;                  /*!< Reserved */
 398:../Firmware/RISCV/drivers/core_feature_base.h ****         rv_csr_t fio_size:5;                    /*!< FIO size, need to be 2^n size */
 399:../Firmware/RISCV/drivers/core_feature_base.h ****         rv_csr_t _reserved1:4;                  /*!< Reserved */
 400:../Firmware/RISCV/drivers/core_feature_base.h ****         rv_csr_t fio_bpa:__RISCV_XLEN-10;       /*!< FIO base address */
 401:../Firmware/RISCV/drivers/core_feature_base.h ****     } b;                                        /*!< Structure used for bit  access */
 402:../Firmware/RISCV/drivers/core_feature_base.h ****     rv_csr_t d;                                 /*!< Type      used for csr data access */
 403:../Firmware/RISCV/drivers/core_feature_base.h **** } CSR_MFIOCFGINFO_Type;
 404:../Firmware/RISCV/drivers/core_feature_base.h **** 
 405:../Firmware/RISCV/drivers/core_feature_base.h **** /**
 406:../Firmware/RISCV/drivers/core_feature_base.h ****  * \brief  Union type to access MECC_LOCK CSR register.
 407:../Firmware/RISCV/drivers/core_feature_base.h ****  */
 408:../Firmware/RISCV/drivers/core_feature_base.h **** typedef union {
 409:../Firmware/RISCV/drivers/core_feature_base.h ****     struct {
 410:../Firmware/RISCV/drivers/core_feature_base.h ****         rv_csr_t ecc_lock:1;                    /*!< RW permission, ECC Lock configure */
 411:../Firmware/RISCV/drivers/core_feature_base.h ****         rv_csr_t _reserved0:__RISCV_XLEN-1;     /*!< Reserved */
 412:../Firmware/RISCV/drivers/core_feature_base.h ****     } b;                                        /*!< Structure used for bit  access */
 413:../Firmware/RISCV/drivers/core_feature_base.h ****     rv_csr_t d;                                 /*!< Type      used for csr data access */
 414:../Firmware/RISCV/drivers/core_feature_base.h **** } CSR_MECCLOCK_Type;
 415:../Firmware/RISCV/drivers/core_feature_base.h **** 
 416:../Firmware/RISCV/drivers/core_feature_base.h **** /**
 417:../Firmware/RISCV/drivers/core_feature_base.h ****  * \brief  Union type to access MECC_CODE CSR register.
 418:../Firmware/RISCV/drivers/core_feature_base.h ****  */
 419:../Firmware/RISCV/drivers/core_feature_base.h **** typedef union {
 420:../Firmware/RISCV/drivers/core_feature_base.h ****     struct {
 421:../Firmware/RISCV/drivers/core_feature_base.h ****         rv_csr_t code:9;                        /*!< Used to inject ECC check code */
 422:../Firmware/RISCV/drivers/core_feature_base.h ****         rv_csr_t _reserved0:7;                  /*!< Reserved */
 423:../Firmware/RISCV/drivers/core_feature_base.h ****         rv_csr_t ramid:5;                       /*!< Indicate 2bit ECC error, software can clear th
 424:../Firmware/RISCV/drivers/core_feature_base.h ****         rv_csr_t _reserved1:3;                  /*!< Reserved */
 425:../Firmware/RISCV/drivers/core_feature_base.h ****         rv_csr_t sramid:5;                      /*!< Indicate 1bit ECC error, software can clear th
 426:../Firmware/RISCV/drivers/core_feature_base.h ****         rv_csr_t _reserved2:__RISCV_XLEN-29;    /*!< Reserved */
 427:../Firmware/RISCV/drivers/core_feature_base.h ****     } b;                                        /*!< Structure used for bit  access */
 428:../Firmware/RISCV/drivers/core_feature_base.h ****     rv_csr_t d;                                 /*!< Type      used for csr data access */
 429:../Firmware/RISCV/drivers/core_feature_base.h **** } CSR_MECCCODE_Type;
 430:../Firmware/RISCV/drivers/core_feature_base.h **** 
 431:../Firmware/RISCV/drivers/core_feature_base.h **** /** @} */ /* End of Doxygen Group NMSIS_Core_Base_Registers */
 432:../Firmware/RISCV/drivers/core_feature_base.h **** 
 433:../Firmware/RISCV/drivers/core_feature_base.h **** /* ###########################  Core Function Access  ########################### */
 434:../Firmware/RISCV/drivers/core_feature_base.h **** /**
 435:../Firmware/RISCV/drivers/core_feature_base.h ****  * \defgroup NMSIS_Core_CSR_Register_Access    Core CSR Register Access
 436:../Firmware/RISCV/drivers/core_feature_base.h ****  * \ingroup  NMSIS_Core
 437:../Firmware/RISCV/drivers/core_feature_base.h ****  * \brief    Functions to access the Core CSR Registers
 438:../Firmware/RISCV/drivers/core_feature_base.h ****  * \details
 439:../Firmware/RISCV/drivers/core_feature_base.h ****  *
 440:../Firmware/RISCV/drivers/core_feature_base.h ****  * The following functions or macros provide access to Core CSR registers.
 441:../Firmware/RISCV/drivers/core_feature_base.h ****  * - \ref NMSIS_Core_CSR_Encoding
 442:../Firmware/RISCV/drivers/core_feature_base.h ****  * - \ref NMSIS_Core_CSR_Registers
 443:../Firmware/RISCV/drivers/core_feature_base.h ****  *   @{
 444:../Firmware/RISCV/drivers/core_feature_base.h ****  */
 445:../Firmware/RISCV/drivers/core_feature_base.h **** 
 446:../Firmware/RISCV/drivers/core_feature_base.h **** 
 447:../Firmware/RISCV/drivers/core_feature_base.h **** #ifndef __ASSEMBLY__
 448:../Firmware/RISCV/drivers/core_feature_base.h **** 
 449:../Firmware/RISCV/drivers/core_feature_base.h **** /**
 450:../Firmware/RISCV/drivers/core_feature_base.h ****  * \brief CSR operation Macro for csrrw instruction.
 451:../Firmware/RISCV/drivers/core_feature_base.h ****  * \details
 452:../Firmware/RISCV/drivers/core_feature_base.h ****  * Read the content of csr register to __v,
 453:../Firmware/RISCV/drivers/core_feature_base.h ****  * then write content of val into csr register, then return __v
 454:../Firmware/RISCV/drivers/core_feature_base.h ****  * \param csr   CSR macro definition defined in
 455:../Firmware/RISCV/drivers/core_feature_base.h ****  *              \ref NMSIS_Core_CSR_Registers, eg. \ref CSR_MSTATUS
 456:../Firmware/RISCV/drivers/core_feature_base.h ****  * \param val   value to store into the CSR register
 457:../Firmware/RISCV/drivers/core_feature_base.h ****  * \return the CSR register value before written
 458:../Firmware/RISCV/drivers/core_feature_base.h ****  */
 459:../Firmware/RISCV/drivers/core_feature_base.h **** #define __RV_CSR_SWAP(csr, val)                                 \
 460:../Firmware/RISCV/drivers/core_feature_base.h ****     ({                                                          \
 461:../Firmware/RISCV/drivers/core_feature_base.h ****         register rv_csr_t __v = (unsigned long)(val);           \
 462:../Firmware/RISCV/drivers/core_feature_base.h ****         __ASM volatile("csrrw %0, " STRINGIFY(csr) ", %1"       \
 463:../Firmware/RISCV/drivers/core_feature_base.h ****                      : "=r"(__v)                                \
 464:../Firmware/RISCV/drivers/core_feature_base.h ****                      : "r"(__v)                                \
 465:../Firmware/RISCV/drivers/core_feature_base.h ****                      : "memory");                               \
 466:../Firmware/RISCV/drivers/core_feature_base.h ****         __v;                                                    \
 467:../Firmware/RISCV/drivers/core_feature_base.h ****     })
 468:../Firmware/RISCV/drivers/core_feature_base.h **** 
 469:../Firmware/RISCV/drivers/core_feature_base.h **** /**
 470:../Firmware/RISCV/drivers/core_feature_base.h ****  * \brief CSR operation Macro for csrr instruction.
 471:../Firmware/RISCV/drivers/core_feature_base.h ****  * \details
 472:../Firmware/RISCV/drivers/core_feature_base.h ****  * Read the content of csr register to __v and return it
 473:../Firmware/RISCV/drivers/core_feature_base.h ****  * \param csr   CSR macro definition defined in
 474:../Firmware/RISCV/drivers/core_feature_base.h ****  *              \ref NMSIS_Core_CSR_Registers, eg. \ref CSR_MSTATUS
 475:../Firmware/RISCV/drivers/core_feature_base.h ****  * \return the CSR register value
 476:../Firmware/RISCV/drivers/core_feature_base.h ****  */
 477:../Firmware/RISCV/drivers/core_feature_base.h **** #define __RV_CSR_READ(csr)                                      \
 478:../Firmware/RISCV/drivers/core_feature_base.h ****     ({                                                          \
 479:../Firmware/RISCV/drivers/core_feature_base.h ****         register rv_csr_t __v;                                  \
 480:../Firmware/RISCV/drivers/core_feature_base.h ****         __ASM volatile("csrr %0, " STRINGIFY(csr)               \
 481:../Firmware/RISCV/drivers/core_feature_base.h ****                      : "=r"(__v)                                \
 482:../Firmware/RISCV/drivers/core_feature_base.h ****                      :                                          \
 483:../Firmware/RISCV/drivers/core_feature_base.h ****                      : "memory");                               \
 484:../Firmware/RISCV/drivers/core_feature_base.h ****         __v;                                                    \
 485:../Firmware/RISCV/drivers/core_feature_base.h ****     })
 486:../Firmware/RISCV/drivers/core_feature_base.h **** 
 487:../Firmware/RISCV/drivers/core_feature_base.h **** /**
 488:../Firmware/RISCV/drivers/core_feature_base.h ****  * \brief CSR operation Macro for csrw instruction.
 489:../Firmware/RISCV/drivers/core_feature_base.h ****  * \details
 490:../Firmware/RISCV/drivers/core_feature_base.h ****  * Write the content of val to csr register
 491:../Firmware/RISCV/drivers/core_feature_base.h ****  * \param csr   CSR macro definition defined in
 492:../Firmware/RISCV/drivers/core_feature_base.h ****  *              \ref NMSIS_Core_CSR_Registers, eg. \ref CSR_MSTATUS
 493:../Firmware/RISCV/drivers/core_feature_base.h ****  * \param val   value to store into the CSR register
 494:../Firmware/RISCV/drivers/core_feature_base.h ****  */
 495:../Firmware/RISCV/drivers/core_feature_base.h **** #define __RV_CSR_WRITE(csr, val)                                \
 496:../Firmware/RISCV/drivers/core_feature_base.h ****     ({                                                          \
 497:../Firmware/RISCV/drivers/core_feature_base.h ****         register rv_csr_t __v = (rv_csr_t)(val);                \
 498:../Firmware/RISCV/drivers/core_feature_base.h ****         __ASM volatile("csrw " STRINGIFY(csr) ", %0"            \
 499:../Firmware/RISCV/drivers/core_feature_base.h ****                      :                                          \
 500:../Firmware/RISCV/drivers/core_feature_base.h ****                      : "r"(__v)                                \
 501:../Firmware/RISCV/drivers/core_feature_base.h ****                      : "memory");                               \
 502:../Firmware/RISCV/drivers/core_feature_base.h ****     })
 503:../Firmware/RISCV/drivers/core_feature_base.h **** 
 504:../Firmware/RISCV/drivers/core_feature_base.h **** /**
 505:../Firmware/RISCV/drivers/core_feature_base.h ****  * \brief CSR operation Macro for csrrs instruction.
 506:../Firmware/RISCV/drivers/core_feature_base.h ****  * \details
 507:../Firmware/RISCV/drivers/core_feature_base.h ****  * Read the content of csr register to __v,
 508:../Firmware/RISCV/drivers/core_feature_base.h ****  * then set csr register to be __v | val, then return __v
 509:../Firmware/RISCV/drivers/core_feature_base.h ****  * \param csr   CSR macro definition defined in
 510:../Firmware/RISCV/drivers/core_feature_base.h ****  *              \ref NMSIS_Core_CSR_Registers, eg. \ref CSR_MSTATUS
 511:../Firmware/RISCV/drivers/core_feature_base.h ****  * \param val   Mask value to be used wih csrrs instruction
 512:../Firmware/RISCV/drivers/core_feature_base.h ****  * \return the CSR register value before written
 513:../Firmware/RISCV/drivers/core_feature_base.h ****  */
 514:../Firmware/RISCV/drivers/core_feature_base.h **** #define __RV_CSR_READ_SET(csr, val)                             \
 515:../Firmware/RISCV/drivers/core_feature_base.h ****     ({                                                          \
 516:../Firmware/RISCV/drivers/core_feature_base.h ****         register rv_csr_t __v = (rv_csr_t)(val);                \
 517:../Firmware/RISCV/drivers/core_feature_base.h ****         __ASM volatile("csrrs %0, " STRINGIFY(csr) ", %1"       \
 518:../Firmware/RISCV/drivers/core_feature_base.h ****                      : "=r"(__v)                                \
 519:../Firmware/RISCV/drivers/core_feature_base.h ****                      : "r"(__v)                                \
 520:../Firmware/RISCV/drivers/core_feature_base.h ****                      : "memory");                               \
 521:../Firmware/RISCV/drivers/core_feature_base.h ****         __v;                                                    \
 522:../Firmware/RISCV/drivers/core_feature_base.h ****     })
 523:../Firmware/RISCV/drivers/core_feature_base.h **** 
 524:../Firmware/RISCV/drivers/core_feature_base.h **** /**
 525:../Firmware/RISCV/drivers/core_feature_base.h ****  * \brief CSR operation Macro for csrs instruction.
 526:../Firmware/RISCV/drivers/core_feature_base.h ****  * \details
 527:../Firmware/RISCV/drivers/core_feature_base.h ****  * Set csr register to be csr_content | val
 528:../Firmware/RISCV/drivers/core_feature_base.h ****  * \param csr   CSR macro definition defined in
 529:../Firmware/RISCV/drivers/core_feature_base.h ****  *              \ref NMSIS_Core_CSR_Registers, eg. \ref CSR_MSTATUS
 530:../Firmware/RISCV/drivers/core_feature_base.h ****  * \param val   Mask value to be used wih csrs instruction
 531:../Firmware/RISCV/drivers/core_feature_base.h ****  */
 532:../Firmware/RISCV/drivers/core_feature_base.h **** #define __RV_CSR_SET(csr, val)                                  \
 533:../Firmware/RISCV/drivers/core_feature_base.h ****     ({                                                          \
 534:../Firmware/RISCV/drivers/core_feature_base.h ****         register rv_csr_t __v = (rv_csr_t)(val);                \
 535:../Firmware/RISCV/drivers/core_feature_base.h ****         __ASM volatile("csrs " STRINGIFY(csr) ", %0"            \
 536:../Firmware/RISCV/drivers/core_feature_base.h ****                      :                                          \
 537:../Firmware/RISCV/drivers/core_feature_base.h ****                      : "r"(__v)                                \
 538:../Firmware/RISCV/drivers/core_feature_base.h ****                      : "memory");                               \
 539:../Firmware/RISCV/drivers/core_feature_base.h ****     })
 540:../Firmware/RISCV/drivers/core_feature_base.h **** 
 541:../Firmware/RISCV/drivers/core_feature_base.h **** /**
 542:../Firmware/RISCV/drivers/core_feature_base.h ****  * \brief CSR operation Macro for csrrc instruction.
 543:../Firmware/RISCV/drivers/core_feature_base.h ****  * \details
 544:../Firmware/RISCV/drivers/core_feature_base.h ****  * Read the content of csr register to __v,
 545:../Firmware/RISCV/drivers/core_feature_base.h ****  * then set csr register to be __v & ~val, then return __v
 546:../Firmware/RISCV/drivers/core_feature_base.h ****  * \param csr   CSR macro definition defined in
 547:../Firmware/RISCV/drivers/core_feature_base.h ****  *              \ref NMSIS_Core_CSR_Registers, eg. \ref CSR_MSTATUS
 548:../Firmware/RISCV/drivers/core_feature_base.h ****  * \param val   Mask value to be used wih csrrc instruction
 549:../Firmware/RISCV/drivers/core_feature_base.h ****  * \return the CSR register value before written
 550:../Firmware/RISCV/drivers/core_feature_base.h ****  */
 551:../Firmware/RISCV/drivers/core_feature_base.h **** #define __RV_CSR_READ_CLEAR(csr, val)                           \
 552:../Firmware/RISCV/drivers/core_feature_base.h ****     ({                                                          \
 553:../Firmware/RISCV/drivers/core_feature_base.h ****         register rv_csr_t __v = (rv_csr_t)(val);                \
 554:../Firmware/RISCV/drivers/core_feature_base.h ****         __ASM volatile("csrrc %0, " STRINGIFY(csr) ", %1"       \
 555:../Firmware/RISCV/drivers/core_feature_base.h ****                      : "=r"(__v)                                \
 556:../Firmware/RISCV/drivers/core_feature_base.h ****                      : "r"(__v)                                \
 557:../Firmware/RISCV/drivers/core_feature_base.h ****                      : "memory");                               \
 558:../Firmware/RISCV/drivers/core_feature_base.h ****         __v;                                                    \
 559:../Firmware/RISCV/drivers/core_feature_base.h ****     })
 560:../Firmware/RISCV/drivers/core_feature_base.h **** 
 561:../Firmware/RISCV/drivers/core_feature_base.h **** /**
 562:../Firmware/RISCV/drivers/core_feature_base.h ****  * \brief CSR operation Macro for csrc instruction.
 563:../Firmware/RISCV/drivers/core_feature_base.h ****  * \details
 564:../Firmware/RISCV/drivers/core_feature_base.h ****  * Set csr register to be csr_content & ~val
 565:../Firmware/RISCV/drivers/core_feature_base.h ****  * \param csr   CSR macro definition defined in
 566:../Firmware/RISCV/drivers/core_feature_base.h ****  *              \ref NMSIS_Core_CSR_Registers, eg. \ref CSR_MSTATUS
 567:../Firmware/RISCV/drivers/core_feature_base.h ****  * \param val   Mask value to be used wih csrc instruction
 568:../Firmware/RISCV/drivers/core_feature_base.h ****  */
 569:../Firmware/RISCV/drivers/core_feature_base.h **** #define __RV_CSR_CLEAR(csr, val)                                \
 570:../Firmware/RISCV/drivers/core_feature_base.h ****     ({                                                          \
 571:../Firmware/RISCV/drivers/core_feature_base.h ****         register rv_csr_t __v = (rv_csr_t)(val);                \
 572:../Firmware/RISCV/drivers/core_feature_base.h ****         __ASM volatile("csrc " STRINGIFY(csr) ", %0"            \
 573:../Firmware/RISCV/drivers/core_feature_base.h ****                      :                                          \
 574:../Firmware/RISCV/drivers/core_feature_base.h ****                      : "r"(__v)                                \
 575:../Firmware/RISCV/drivers/core_feature_base.h ****                      : "memory");                               \
 576:../Firmware/RISCV/drivers/core_feature_base.h ****     })
 577:../Firmware/RISCV/drivers/core_feature_base.h **** #endif /* __ASSEMBLY__ */
 578:../Firmware/RISCV/drivers/core_feature_base.h **** 
 579:../Firmware/RISCV/drivers/core_feature_base.h **** /**
 580:../Firmware/RISCV/drivers/core_feature_base.h ****  * \brief   Enable IRQ Interrupts
 581:../Firmware/RISCV/drivers/core_feature_base.h ****  * \details Enables IRQ interrupts by setting the MIE-bit in the MSTATUS Register.
 582:../Firmware/RISCV/drivers/core_feature_base.h ****  * \remarks
 583:../Firmware/RISCV/drivers/core_feature_base.h ****  *          Can only be executed in Privileged modes.
 584:../Firmware/RISCV/drivers/core_feature_base.h ****  */
 585:../Firmware/RISCV/drivers/core_feature_base.h **** __STATIC_FORCEINLINE void __enable_irq(void)
 586:../Firmware/RISCV/drivers/core_feature_base.h **** {
 587:../Firmware/RISCV/drivers/core_feature_base.h ****     __RV_CSR_SET(CSR_MSTATUS, MSTATUS_MIE);
  30              		.loc 2 587 5
  31 0008 A144     		li	s1,8
  32              	 #APP
  33              	# 587 "../Firmware/RISCV/drivers/core_feature_base.h" 1
 588              	}
  34              		csrs 0x300, s1
  35              	# 0 "" 2
  36              	 #NO_APP
  37              	.LBE50:
  38              		.loc 2 588 1
  39 000e 0100     		nop
  40              	.LBE49:
  41              	.LBE48:
  46:../Firmware/GD32VW55x_standard_peripheral/Source/gd32vw55x_eclic.c ****     __enable_irq();
  47:../Firmware/GD32VW55x_standard_peripheral/Source/gd32vw55x_eclic.c **** }
  42              		.loc 1 47 1
  43 0010 0100     		nop
  44 0012 3244     		lw	s0,12(sp)
  45              		.cfi_restore 8
  46              		.cfi_def_cfa 2, 16
  47 0014 A244     		lw	s1,8(sp)
  48              		.cfi_restore 9
  49 0016 4101     		addi	sp,sp,16
  50              		.cfi_def_cfa_offset 0
  51 0018 8280     		jr	ra
  52              		.cfi_endproc
  53              	.LFE347:
  55              		.section	.text.eclic_global_interrupt_disable,"ax",@progbits
  56              		.align	1
  57              		.globl	eclic_global_interrupt_disable
  59              	eclic_global_interrupt_disable:
  60              	.LFB348:
  48:../Firmware/GD32VW55x_standard_peripheral/Source/gd32vw55x_eclic.c **** 
  49:../Firmware/GD32VW55x_standard_peripheral/Source/gd32vw55x_eclic.c **** /*!
  50:../Firmware/GD32VW55x_standard_peripheral/Source/gd32vw55x_eclic.c ****     \brief      disable the global interrupt
  51:../Firmware/GD32VW55x_standard_peripheral/Source/gd32vw55x_eclic.c ****     \param[in]  none
  52:../Firmware/GD32VW55x_standard_peripheral/Source/gd32vw55x_eclic.c ****     \param[out] none
  53:../Firmware/GD32VW55x_standard_peripheral/Source/gd32vw55x_eclic.c ****     \retval     none
  54:../Firmware/GD32VW55x_standard_peripheral/Source/gd32vw55x_eclic.c **** */
  55:../Firmware/GD32VW55x_standard_peripheral/Source/gd32vw55x_eclic.c **** void eclic_global_interrupt_disable(void)
  56:../Firmware/GD32VW55x_standard_peripheral/Source/gd32vw55x_eclic.c **** {
  61              		.loc 1 56 1
  62              		.cfi_startproc
  63 0000 4111     		addi	sp,sp,-16
  64              		.cfi_def_cfa_offset 16
  65 0002 22C6     		sw	s0,12(sp)
  66 0004 26C4     		sw	s1,8(sp)
  67              		.cfi_offset 8, -4
  68              		.cfi_offset 9, -8
  69 0006 0008     		addi	s0,sp,16
  70              		.cfi_def_cfa 8, 0
  71              	.LBB51:
  72              	.LBB52:
  73              	.LBB53:
 589:../Firmware/RISCV/drivers/core_feature_base.h **** 
 590:../Firmware/RISCV/drivers/core_feature_base.h **** /**
 591:../Firmware/RISCV/drivers/core_feature_base.h ****  * \brief   Disable IRQ Interrupts
 592:../Firmware/RISCV/drivers/core_feature_base.h ****  * \details Disables IRQ interrupts by clearing the MIE-bit in the MSTATUS Register.
 593:../Firmware/RISCV/drivers/core_feature_base.h ****  * \remarks
 594:../Firmware/RISCV/drivers/core_feature_base.h ****  *          Can only be executed in Privileged modes.
 595:../Firmware/RISCV/drivers/core_feature_base.h ****  */
 596:../Firmware/RISCV/drivers/core_feature_base.h **** __STATIC_FORCEINLINE void __disable_irq(void)
 597:../Firmware/RISCV/drivers/core_feature_base.h **** {
 598:../Firmware/RISCV/drivers/core_feature_base.h ****     __RV_CSR_CLEAR(CSR_MSTATUS, MSTATUS_MIE);
  74              		.loc 2 598 5
  75 0008 A144     		li	s1,8
  76              	 #APP
  77              	# 598 "../Firmware/RISCV/drivers/core_feature_base.h" 1
 599              	}
  78              		csrc 0x300, s1
  79              	# 0 "" 2
  80              	 #NO_APP
  81              	.LBE53:
  82              		.loc 2 599 1
  83 000e 0100     		nop
  84              	.LBE52:
  85              	.LBE51:
  57:../Firmware/GD32VW55x_standard_peripheral/Source/gd32vw55x_eclic.c ****     __disable_irq();
  58:../Firmware/GD32VW55x_standard_peripheral/Source/gd32vw55x_eclic.c **** }
  86              		.loc 1 58 1
  87 0010 0100     		nop
  88 0012 3244     		lw	s0,12(sp)
  89              		.cfi_restore 8
  90              		.cfi_def_cfa 2, 16
  91 0014 A244     		lw	s1,8(sp)
  92              		.cfi_restore 9
  93 0016 4101     		addi	sp,sp,16
  94              		.cfi_def_cfa_offset 0
  95 0018 8280     		jr	ra
  96              		.cfi_endproc
  97              	.LFE348:
  99              		.section	.text.eclic_level_threshold_set,"ax",@progbits
 100              		.align	1
 101              		.globl	eclic_level_threshold_set
 103              	eclic_level_threshold_set:
 104              	.LFB349:
  59:../Firmware/GD32VW55x_standard_peripheral/Source/gd32vw55x_eclic.c **** 
  60:../Firmware/GD32VW55x_standard_peripheral/Source/gd32vw55x_eclic.c **** /*!
  61:../Firmware/GD32VW55x_standard_peripheral/Source/gd32vw55x_eclic.c ****     \brief      set machine mode interrupt level threshold
  62:../Firmware/GD32VW55x_standard_peripheral/Source/gd32vw55x_eclic.c ****     \param[in]  threshold: the level threshold needed to set (0 ~ 15)
  63:../Firmware/GD32VW55x_standard_peripheral/Source/gd32vw55x_eclic.c ****     \param[out] none
  64:../Firmware/GD32VW55x_standard_peripheral/Source/gd32vw55x_eclic.c ****     \retval     none
  65:../Firmware/GD32VW55x_standard_peripheral/Source/gd32vw55x_eclic.c **** */
  66:../Firmware/GD32VW55x_standard_peripheral/Source/gd32vw55x_eclic.c **** void eclic_level_threshold_set(uint8_t threshold)
  67:../Firmware/GD32VW55x_standard_peripheral/Source/gd32vw55x_eclic.c **** {
 105              		.loc 1 67 1
 106              		.cfi_startproc
 107 0000 7971     		addi	sp,sp,-48
 108              		.cfi_def_cfa_offset 48
 109 0002 22D6     		sw	s0,44(sp)
 110              		.cfi_offset 8, -4
 111 0004 0018     		addi	s0,sp,48
 112              		.cfi_def_cfa 8, 0
 113 0006 AA87     		mv	a5,a0
 114 0008 A30FF4FC 		sb	a5,-33(s0)
 115 000c 8347F4FD 		lbu	a5,-33(s0)
 116 0010 A307F4FE 		sb	a5,-17(s0)
 117              	.LBB54:
 118              	.LBB55:
 119              		.file 3 "../Firmware/RISCV/drivers/core_feature_eclic.h"
   1:../Firmware/RISCV/drivers/core_feature_eclic.h **** /*
   2:../Firmware/RISCV/drivers/core_feature_eclic.h ****  * Copyright (c) 2019 Nuclei Limited. All rights reserved.
   3:../Firmware/RISCV/drivers/core_feature_eclic.h ****  *
   4:../Firmware/RISCV/drivers/core_feature_eclic.h ****  * SPDX-License-Identifier: Apache-2.0
   5:../Firmware/RISCV/drivers/core_feature_eclic.h ****  *
   6:../Firmware/RISCV/drivers/core_feature_eclic.h ****  * Licensed under the Apache License, Version 2.0 (the License); you may
   7:../Firmware/RISCV/drivers/core_feature_eclic.h ****  * not use this file except in compliance with the License.
   8:../Firmware/RISCV/drivers/core_feature_eclic.h ****  * You may obtain a copy of the License at
   9:../Firmware/RISCV/drivers/core_feature_eclic.h ****  *
  10:../Firmware/RISCV/drivers/core_feature_eclic.h ****  * www.apache.org/licenses/LICENSE-2.0
  11:../Firmware/RISCV/drivers/core_feature_eclic.h ****  *
  12:../Firmware/RISCV/drivers/core_feature_eclic.h ****  * Unless required by applicable law or agreed to in writing, software
  13:../Firmware/RISCV/drivers/core_feature_eclic.h ****  * distributed under the License is distributed on an AS IS BASIS, WITHOUT
  14:../Firmware/RISCV/drivers/core_feature_eclic.h ****  * WARRANTIES OR CONDITIONS OF ANY KIND, either express or implied.
  15:../Firmware/RISCV/drivers/core_feature_eclic.h ****  * See the License for the specific language governing permissions and
  16:../Firmware/RISCV/drivers/core_feature_eclic.h ****  * limitations under the License.
  17:../Firmware/RISCV/drivers/core_feature_eclic.h ****  */
  18:../Firmware/RISCV/drivers/core_feature_eclic.h **** #ifndef __CORE_FEATURE_ECLIC__
  19:../Firmware/RISCV/drivers/core_feature_eclic.h **** #define __CORE_FEATURE_ECLIC__
  20:../Firmware/RISCV/drivers/core_feature_eclic.h **** /*!
  21:../Firmware/RISCV/drivers/core_feature_eclic.h ****  * @file     core_feature_eclic.h
  22:../Firmware/RISCV/drivers/core_feature_eclic.h ****  * @brief    ECLIC feature API header file for Nuclei N/NX Core
  23:../Firmware/RISCV/drivers/core_feature_eclic.h ****  */
  24:../Firmware/RISCV/drivers/core_feature_eclic.h **** /*
  25:../Firmware/RISCV/drivers/core_feature_eclic.h ****  * ECLIC Feature Configuration Macro:
  26:../Firmware/RISCV/drivers/core_feature_eclic.h ****  * 1. __ECLIC_PRESENT:  Define whether Enhanced Core Local Interrupt Controller (ECLIC) Unit is pre
  27:../Firmware/RISCV/drivers/core_feature_eclic.h ****  *   * 0: Not present
  28:../Firmware/RISCV/drivers/core_feature_eclic.h ****  *   * 1: Present
  29:../Firmware/RISCV/drivers/core_feature_eclic.h ****  * 2. __ECLIC_BASEADDR:  Base address of the ECLIC unit.
  30:../Firmware/RISCV/drivers/core_feature_eclic.h ****  * 3. ECLIC_GetInfoCtlbits():  Define the number of hardware bits are actually implemented in the c
  31:../Firmware/RISCV/drivers/core_feature_eclic.h ****  *   Valid number is 1 - 8.
  32:../Firmware/RISCV/drivers/core_feature_eclic.h ****  * 4. __ECLIC_INTNUM  : Define the external interrupt number of ECLIC Unit
  33:../Firmware/RISCV/drivers/core_feature_eclic.h ****  *
  34:../Firmware/RISCV/drivers/core_feature_eclic.h ****  */
  35:../Firmware/RISCV/drivers/core_feature_eclic.h **** #ifdef __cplusplus
  36:../Firmware/RISCV/drivers/core_feature_eclic.h ****  extern "C" {
  37:../Firmware/RISCV/drivers/core_feature_eclic.h **** #endif
  38:../Firmware/RISCV/drivers/core_feature_eclic.h **** 
  39:../Firmware/RISCV/drivers/core_feature_eclic.h **** #if defined(__ECLIC_PRESENT) && (__ECLIC_PRESENT == 1)
  40:../Firmware/RISCV/drivers/core_feature_eclic.h **** /**
  41:../Firmware/RISCV/drivers/core_feature_eclic.h ****  * \defgroup NMSIS_Core_ECLIC_Registers     Register Define and Type Definitions Of ECLIC
  42:../Firmware/RISCV/drivers/core_feature_eclic.h ****  * \ingroup NMSIS_Core_Registers
  43:../Firmware/RISCV/drivers/core_feature_eclic.h ****  * \brief   Type definitions and defines for eclic registers.
  44:../Firmware/RISCV/drivers/core_feature_eclic.h ****  *
  45:../Firmware/RISCV/drivers/core_feature_eclic.h ****  * @{
  46:../Firmware/RISCV/drivers/core_feature_eclic.h ****  */
  47:../Firmware/RISCV/drivers/core_feature_eclic.h **** 
  48:../Firmware/RISCV/drivers/core_feature_eclic.h **** /**
  49:../Firmware/RISCV/drivers/core_feature_eclic.h ****  * \brief  Union type to access CLICFG configure register.
  50:../Firmware/RISCV/drivers/core_feature_eclic.h ****  */
  51:../Firmware/RISCV/drivers/core_feature_eclic.h **** typedef union
  52:../Firmware/RISCV/drivers/core_feature_eclic.h **** {
  53:../Firmware/RISCV/drivers/core_feature_eclic.h ****     struct {
  54:../Firmware/RISCV/drivers/core_feature_eclic.h ****         uint8_t _reserved0:1;                   /*!< bit:     0   Overflow condition code flag */
  55:../Firmware/RISCV/drivers/core_feature_eclic.h ****         uint8_t nlbits:4;                       /*!< bit:     29  Carry condition code flag */
  56:../Firmware/RISCV/drivers/core_feature_eclic.h ****         uint8_t _reserved1:2;                   /*!< bit:     30  Zero condition code flag */
  57:../Firmware/RISCV/drivers/core_feature_eclic.h ****         uint8_t _reserved2:1;                   /*!< bit:     31  Negative condition code flag */
  58:../Firmware/RISCV/drivers/core_feature_eclic.h ****     } b;                                        /*!< Structure used for bit  access */
  59:../Firmware/RISCV/drivers/core_feature_eclic.h ****     uint8_t w;                                  /*!< Type      used for byte access */
  60:../Firmware/RISCV/drivers/core_feature_eclic.h **** } CLICCFG_Type;
  61:../Firmware/RISCV/drivers/core_feature_eclic.h **** 
  62:../Firmware/RISCV/drivers/core_feature_eclic.h **** /**
  63:../Firmware/RISCV/drivers/core_feature_eclic.h ****  * \brief  Union type to access CLICINFO information register.
  64:../Firmware/RISCV/drivers/core_feature_eclic.h ****  */
  65:../Firmware/RISCV/drivers/core_feature_eclic.h **** typedef union {
  66:../Firmware/RISCV/drivers/core_feature_eclic.h ****     struct {
  67:../Firmware/RISCV/drivers/core_feature_eclic.h ****         uint32_t numint:13;                     /*!< bit:  0..12   number of maximum interrupt inpu
  68:../Firmware/RISCV/drivers/core_feature_eclic.h ****         uint32_t version:8;                     /*!< bit:  13..20  20:17 for architecture version,1
  69:../Firmware/RISCV/drivers/core_feature_eclic.h ****         uint32_t intctlbits:4;                  /*!< bit:  21..24  specifies how many hardware bits
  70:../Firmware/RISCV/drivers/core_feature_eclic.h ****         uint32_t _reserved0:7;                  /*!< bit:  25..31  Reserved */
  71:../Firmware/RISCV/drivers/core_feature_eclic.h ****     } b;                                        /*!< Structure used for bit  access */
  72:../Firmware/RISCV/drivers/core_feature_eclic.h ****     uint32_t w;                                 /*!< Type      used for word access */
  73:../Firmware/RISCV/drivers/core_feature_eclic.h **** } CLICINFO_Type;
  74:../Firmware/RISCV/drivers/core_feature_eclic.h **** 
  75:../Firmware/RISCV/drivers/core_feature_eclic.h **** /**
  76:../Firmware/RISCV/drivers/core_feature_eclic.h ****  * \brief Access to the structure of a vector interrupt controller.
  77:../Firmware/RISCV/drivers/core_feature_eclic.h ****  */
  78:../Firmware/RISCV/drivers/core_feature_eclic.h **** typedef struct {
  79:../Firmware/RISCV/drivers/core_feature_eclic.h ****     __IOM uint8_t  INTIP;                       /*!< Offset: 0x000 (R/W)  Interrupt set pending reg
  80:../Firmware/RISCV/drivers/core_feature_eclic.h ****     __IOM uint8_t  INTIE;                       /*!< Offset: 0x001 (R/W)  Interrupt set enable regi
  81:../Firmware/RISCV/drivers/core_feature_eclic.h ****     __IOM uint8_t  INTATTR;                     /*!< Offset: 0x002 (R/W)  Interrupt set attributes 
  82:../Firmware/RISCV/drivers/core_feature_eclic.h ****     __IOM uint8_t  INTCTRL;                     /*!< Offset: 0x003 (R/W)  Interrupt configure regis
  83:../Firmware/RISCV/drivers/core_feature_eclic.h **** } CLIC_CTRL_Type;
  84:../Firmware/RISCV/drivers/core_feature_eclic.h **** 
  85:../Firmware/RISCV/drivers/core_feature_eclic.h **** typedef struct {
  86:../Firmware/RISCV/drivers/core_feature_eclic.h ****     __IOM uint8_t   CFG;                        /*!< Offset: 0x000 (R/W)  CLIC configuration regist
  87:../Firmware/RISCV/drivers/core_feature_eclic.h ****     uint8_t RESERVED0[3];
  88:../Firmware/RISCV/drivers/core_feature_eclic.h ****     __IM uint32_t  INFO;                        /*!< Offset: 0x004 (R/ )  CLIC information register
  89:../Firmware/RISCV/drivers/core_feature_eclic.h ****     uint8_t RESERVED1[3];
  90:../Firmware/RISCV/drivers/core_feature_eclic.h ****     __IOM uint8_t  MTH;                         /*!< Offset: 0x00B (R/W)  CLIC machine mode thresho
  91:../Firmware/RISCV/drivers/core_feature_eclic.h ****     uint32_t RESERVED2[0x3FD];
  92:../Firmware/RISCV/drivers/core_feature_eclic.h ****     CLIC_CTRL_Type CTRL[4096];                  /*!< Offset: 0x1000 (R/W) CLIC register structure f
  93:../Firmware/RISCV/drivers/core_feature_eclic.h **** } CLIC_Type;
  94:../Firmware/RISCV/drivers/core_feature_eclic.h **** 
  95:../Firmware/RISCV/drivers/core_feature_eclic.h **** #define CLIC_CLICCFG_NLBIT_Pos                 1U                                       /*!< CLIC C
  96:../Firmware/RISCV/drivers/core_feature_eclic.h **** #define CLIC_CLICCFG_NLBIT_Msk                 (0xFUL << CLIC_CLICCFG_NLBIT_Pos)        /*!< CLIC C
  97:../Firmware/RISCV/drivers/core_feature_eclic.h **** 
  98:../Firmware/RISCV/drivers/core_feature_eclic.h **** #define CLIC_CLICINFO_CTLBIT_Pos                21U                                     /*!< CLIC I
  99:../Firmware/RISCV/drivers/core_feature_eclic.h **** #define CLIC_CLICINFO_CTLBIT_Msk                (0xFUL << CLIC_CLICINFO_CTLBIT_Pos)     /*!< CLIC I
 100:../Firmware/RISCV/drivers/core_feature_eclic.h **** 
 101:../Firmware/RISCV/drivers/core_feature_eclic.h **** #define CLIC_CLICINFO_VER_Pos                  13U                                      /*!< CLIC C
 102:../Firmware/RISCV/drivers/core_feature_eclic.h **** #define CLIC_CLICINFO_VER_Msk                  (0xFFUL << CLIC_CLICCFG_NLBIT_Pos)       /*!< CLIC C
 103:../Firmware/RISCV/drivers/core_feature_eclic.h **** 
 104:../Firmware/RISCV/drivers/core_feature_eclic.h **** #define CLIC_CLICINFO_NUM_Pos                  0U                                       /*!< CLIC C
 105:../Firmware/RISCV/drivers/core_feature_eclic.h **** #define CLIC_CLICINFO_NUM_Msk                  (0xFFFUL << CLIC_CLICINFO_NUM_Pos)       /*!< CLIC C
 106:../Firmware/RISCV/drivers/core_feature_eclic.h **** 
 107:../Firmware/RISCV/drivers/core_feature_eclic.h **** #define CLIC_INTIP_IP_Pos                      0U                                       /*!< CLIC I
 108:../Firmware/RISCV/drivers/core_feature_eclic.h **** #define CLIC_INTIP_IP_Msk                      (0x1UL << CLIC_INTIP_IP_Pos)             /*!< CLIC I
 109:../Firmware/RISCV/drivers/core_feature_eclic.h **** 
 110:../Firmware/RISCV/drivers/core_feature_eclic.h **** #define CLIC_INTIE_IE_Pos                      0U                                       /*!< CLIC I
 111:../Firmware/RISCV/drivers/core_feature_eclic.h **** #define CLIC_INTIE_IE_Msk                      (0x1UL << CLIC_INTIE_IE_Pos)             /*!< CLIC I
 112:../Firmware/RISCV/drivers/core_feature_eclic.h **** 
 113:../Firmware/RISCV/drivers/core_feature_eclic.h **** #define CLIC_INTATTR_TRIG_Pos                  1U                                       /*!< CLIC I
 114:../Firmware/RISCV/drivers/core_feature_eclic.h **** #define CLIC_INTATTR_TRIG_Msk                  (0x3UL << CLIC_INTATTR_TRIG_Pos)         /*!< CLIC I
 115:../Firmware/RISCV/drivers/core_feature_eclic.h **** 
 116:../Firmware/RISCV/drivers/core_feature_eclic.h **** #define CLIC_INTATTR_SHV_Pos                   0U                                       /*!< CLIC I
 117:../Firmware/RISCV/drivers/core_feature_eclic.h **** #define CLIC_INTATTR_SHV_Msk                   (0x1UL << CLIC_INTATTR_SHV_Pos)          /*!< CLIC I
 118:../Firmware/RISCV/drivers/core_feature_eclic.h **** 
 119:../Firmware/RISCV/drivers/core_feature_eclic.h **** #define ECLIC_MAX_NLBITS                       8U                                       /*!< Max nl
 120:../Firmware/RISCV/drivers/core_feature_eclic.h **** #define ECLIC_MODE_MTVEC_Msk                   3U                                       /*!< ECLIC 
 121:../Firmware/RISCV/drivers/core_feature_eclic.h **** 
 122:../Firmware/RISCV/drivers/core_feature_eclic.h **** #define ECLIC_NON_VECTOR_INTERRUPT             0x0                                      /*!< Non-Ve
 123:../Firmware/RISCV/drivers/core_feature_eclic.h **** #define ECLIC_VECTOR_INTERRUPT                 0x1                                      /*!< Vector
 124:../Firmware/RISCV/drivers/core_feature_eclic.h **** 
 125:../Firmware/RISCV/drivers/core_feature_eclic.h **** /**\brief ECLIC Trigger Enum for different Trigger Type */
 126:../Firmware/RISCV/drivers/core_feature_eclic.h **** typedef enum ECLIC_TRIGGER {
 127:../Firmware/RISCV/drivers/core_feature_eclic.h ****     ECLIC_LEVEL_TRIGGER = 0x0,          /*!< Level Triggerred, trig[0] = 0 */
 128:../Firmware/RISCV/drivers/core_feature_eclic.h ****     ECLIC_POSTIVE_EDGE_TRIGGER = 0x1,   /*!< Postive/Rising Edge Triggered, trig[0] = 1, trig[1] = 
 129:../Firmware/RISCV/drivers/core_feature_eclic.h ****     ECLIC_NEGTIVE_EDGE_TRIGGER = 0x3,   /*!< Negtive/Falling Edge Triggered, trig[0] = 1, trig[1] =
 130:../Firmware/RISCV/drivers/core_feature_eclic.h ****     ECLIC_MAX_TRIGGER = 0x3             /*!< MAX Supported Trigger Mode */
 131:../Firmware/RISCV/drivers/core_feature_eclic.h **** } ECLIC_TRIGGER_Type;
 132:../Firmware/RISCV/drivers/core_feature_eclic.h **** 
 133:../Firmware/RISCV/drivers/core_feature_eclic.h **** #ifndef __ECLIC_BASEADDR
 134:../Firmware/RISCV/drivers/core_feature_eclic.h **** /* Base address of ECLIC(__ECLIC_BASEADDR) should be defined in <Device.h> */
 135:../Firmware/RISCV/drivers/core_feature_eclic.h **** #error "__ECLIC_BASEADDR is not defined, please check!"
 136:../Firmware/RISCV/drivers/core_feature_eclic.h **** #endif
 137:../Firmware/RISCV/drivers/core_feature_eclic.h **** 
 138:../Firmware/RISCV/drivers/core_feature_eclic.h **** #ifndef __ECLIC_INTCTLBITS
 139:../Firmware/RISCV/drivers/core_feature_eclic.h **** /* Define __ECLIC_INTCTLBITS to get via ECLIC->INFO if not defined */
 140:../Firmware/RISCV/drivers/core_feature_eclic.h **** #define __ECLIC_INTCTLBITS                  (__ECLIC_GetInfoCtlbits())
 141:../Firmware/RISCV/drivers/core_feature_eclic.h **** #endif
 142:../Firmware/RISCV/drivers/core_feature_eclic.h **** 
 143:../Firmware/RISCV/drivers/core_feature_eclic.h **** /* ECLIC Memory mapping of Device */
 144:../Firmware/RISCV/drivers/core_feature_eclic.h **** #define ECLIC_BASE                          __ECLIC_BASEADDR                            /*!< ECLIC 
 145:../Firmware/RISCV/drivers/core_feature_eclic.h **** #define ECLIC                               ((CLIC_Type *) ECLIC_BASE)                  /*!< CLIC c
 146:../Firmware/RISCV/drivers/core_feature_eclic.h **** 
 147:../Firmware/RISCV/drivers/core_feature_eclic.h **** /** @} */ /* end of group NMSIS_Core_ECLIC_Registers */
 148:../Firmware/RISCV/drivers/core_feature_eclic.h **** 
 149:../Firmware/RISCV/drivers/core_feature_eclic.h **** /* ##########################   ECLIC functions  #################################### */
 150:../Firmware/RISCV/drivers/core_feature_eclic.h **** /**
 151:../Firmware/RISCV/drivers/core_feature_eclic.h ****  * \defgroup   NMSIS_Core_IntExc        Interrupts and Exceptions
 152:../Firmware/RISCV/drivers/core_feature_eclic.h ****  * \brief Functions that manage interrupts and exceptions via the ECLIC.
 153:../Firmware/RISCV/drivers/core_feature_eclic.h ****  *
 154:../Firmware/RISCV/drivers/core_feature_eclic.h ****  * @{
 155:../Firmware/RISCV/drivers/core_feature_eclic.h ****  */
 156:../Firmware/RISCV/drivers/core_feature_eclic.h **** 
 157:../Firmware/RISCV/drivers/core_feature_eclic.h **** /**
 158:../Firmware/RISCV/drivers/core_feature_eclic.h ****  * \brief  Definition of IRQn numbers
 159:../Firmware/RISCV/drivers/core_feature_eclic.h ****  * \details
 160:../Firmware/RISCV/drivers/core_feature_eclic.h ****  * The core interrupt enumeration names for IRQn values are defined in the file <b><Device>.h</b>.
 161:../Firmware/RISCV/drivers/core_feature_eclic.h ****  * - Interrupt ID(IRQn) from 0 to 18 are reserved for core internal interrupts.
 162:../Firmware/RISCV/drivers/core_feature_eclic.h ****  * - Interrupt ID(IRQn) start from 19 represent device-specific external interrupts.
 163:../Firmware/RISCV/drivers/core_feature_eclic.h ****  * - The first device-specific interrupt has the IRQn value 19.
 164:../Firmware/RISCV/drivers/core_feature_eclic.h ****  *
 165:../Firmware/RISCV/drivers/core_feature_eclic.h ****  * The table below describes the core interrupt names and their availability in various Nuclei Core
 166:../Firmware/RISCV/drivers/core_feature_eclic.h ****  */
 167:../Firmware/RISCV/drivers/core_feature_eclic.h **** /* The following enum IRQn definition in this file
 168:../Firmware/RISCV/drivers/core_feature_eclic.h ****  * is only used for doxygen documentation generation,
 169:../Firmware/RISCV/drivers/core_feature_eclic.h ****  * The <Device>.h is the real file to define it by vendor
 170:../Firmware/RISCV/drivers/core_feature_eclic.h ****  */
 171:../Firmware/RISCV/drivers/core_feature_eclic.h **** #if defined(__ONLY_FOR_DOXYGEN_DOCUMENT_GENERATION__)
 172:../Firmware/RISCV/drivers/core_feature_eclic.h **** typedef enum IRQn {
 173:../Firmware/RISCV/drivers/core_feature_eclic.h ****     /* ========= Nuclei N/NX Core Specific Interrupt Numbers  =========== */
 174:../Firmware/RISCV/drivers/core_feature_eclic.h ****     /* Core Internal Interrupt IRQn definitions */
 175:../Firmware/RISCV/drivers/core_feature_eclic.h ****     Reserved0_IRQn            =   0,              /*!<  Internal reserved */
 176:../Firmware/RISCV/drivers/core_feature_eclic.h ****     Reserved1_IRQn            =   1,              /*!<  Internal reserved */
 177:../Firmware/RISCV/drivers/core_feature_eclic.h ****     Reserved2_IRQn            =   2,              /*!<  Internal reserved */
 178:../Firmware/RISCV/drivers/core_feature_eclic.h ****     SysTimerSW_IRQn           =   3,              /*!<  System Timer SW interrupt */
 179:../Firmware/RISCV/drivers/core_feature_eclic.h ****     Reserved3_IRQn            =   4,              /*!<  Internal reserved */
 180:../Firmware/RISCV/drivers/core_feature_eclic.h ****     Reserved4_IRQn            =   5,              /*!<  Internal reserved */
 181:../Firmware/RISCV/drivers/core_feature_eclic.h ****     Reserved5_IRQn            =   6,              /*!<  Internal reserved */
 182:../Firmware/RISCV/drivers/core_feature_eclic.h ****     SysTimer_IRQn             =   7,              /*!<  System Timer Interrupt */
 183:../Firmware/RISCV/drivers/core_feature_eclic.h ****     Reserved6_IRQn            =   8,              /*!<  Internal reserved */
 184:../Firmware/RISCV/drivers/core_feature_eclic.h ****     Reserved7_IRQn            =   9,              /*!<  Internal reserved */
 185:../Firmware/RISCV/drivers/core_feature_eclic.h ****     Reserved8_IRQn            =  10,              /*!<  Internal reserved */
 186:../Firmware/RISCV/drivers/core_feature_eclic.h ****     Reserved9_IRQn            =  11,              /*!<  Internal reserved */
 187:../Firmware/RISCV/drivers/core_feature_eclic.h ****     Reserved10_IRQn           =  12,              /*!<  Internal reserved */
 188:../Firmware/RISCV/drivers/core_feature_eclic.h ****     Reserved11_IRQn           =  13,              /*!<  Internal reserved */
 189:../Firmware/RISCV/drivers/core_feature_eclic.h ****     Reserved12_IRQn           =  14,              /*!<  Internal reserved */
 190:../Firmware/RISCV/drivers/core_feature_eclic.h ****     Reserved13_IRQn           =  15,              /*!<  Internal reserved */
 191:../Firmware/RISCV/drivers/core_feature_eclic.h ****     Reserved14_IRQn           =  16,              /*!<  Internal reserved */
 192:../Firmware/RISCV/drivers/core_feature_eclic.h ****     Reserved15_IRQn           =  17,              /*!<  Internal reserved */
 193:../Firmware/RISCV/drivers/core_feature_eclic.h ****     Reserved16_IRQn           =  18,              /*!<  Internal reserved */
 194:../Firmware/RISCV/drivers/core_feature_eclic.h **** 
 195:../Firmware/RISCV/drivers/core_feature_eclic.h ****     /* ========= Device Specific Interrupt Numbers  =================== */
 196:../Firmware/RISCV/drivers/core_feature_eclic.h ****     /* ToDo: add here your device specific external interrupt numbers.
 197:../Firmware/RISCV/drivers/core_feature_eclic.h ****      * 19~max(NUM_INTERRUPT, 1023) is reserved number for user.
 198:../Firmware/RISCV/drivers/core_feature_eclic.h ****      * Maxmum interrupt supported could get from clicinfo.NUM_INTERRUPT.
 199:../Firmware/RISCV/drivers/core_feature_eclic.h ****      * According the interrupt handlers defined in startup_Device.S
 200:../Firmware/RISCV/drivers/core_feature_eclic.h ****      * eg.: Interrupt for Timer#1       eclic_tim1_handler   ->   TIM1_IRQn */
 201:../Firmware/RISCV/drivers/core_feature_eclic.h ****     FirstDeviceSpecificInterrupt_IRQn    = 19,    /*!< First Device Specific Interrupt */
 202:../Firmware/RISCV/drivers/core_feature_eclic.h ****     SOC_INT_MAX,                                  /*!< Number of total interrupts */
 203:../Firmware/RISCV/drivers/core_feature_eclic.h **** } IRQn_Type;
 204:../Firmware/RISCV/drivers/core_feature_eclic.h **** #endif /* __ONLY_FOR_DOXYGEN_DOCUMENT_GENERATION__ */
 205:../Firmware/RISCV/drivers/core_feature_eclic.h **** 
 206:../Firmware/RISCV/drivers/core_feature_eclic.h **** #ifdef NMSIS_ECLIC_VIRTUAL
 207:../Firmware/RISCV/drivers/core_feature_eclic.h ****     #ifndef NMSIS_ECLIC_VIRTUAL_HEADER_FILE
 208:../Firmware/RISCV/drivers/core_feature_eclic.h ****         #define NMSIS_ECLIC_VIRTUAL_HEADER_FILE "nmsis_eclic_virtual.h"
 209:../Firmware/RISCV/drivers/core_feature_eclic.h ****     #endif
 210:../Firmware/RISCV/drivers/core_feature_eclic.h ****     #include NMSIS_ECLIC_VIRTUAL_HEADER_FILE
 211:../Firmware/RISCV/drivers/core_feature_eclic.h **** #else
 212:../Firmware/RISCV/drivers/core_feature_eclic.h ****     #define ECLIC_SetCfgNlbits            __ECLIC_SetCfgNlbits
 213:../Firmware/RISCV/drivers/core_feature_eclic.h ****     #define ECLIC_GetCfgNlbits            __ECLIC_GetCfgNlbits
 214:../Firmware/RISCV/drivers/core_feature_eclic.h ****     #define ECLIC_GetInfoVer              __ECLIC_GetInfoVer
 215:../Firmware/RISCV/drivers/core_feature_eclic.h ****     #define ECLIC_GetInfoCtlbits          __ECLIC_GetInfoCtlbits
 216:../Firmware/RISCV/drivers/core_feature_eclic.h ****     #define ECLIC_GetInfoNum              __ECLIC_GetInfoNum
 217:../Firmware/RISCV/drivers/core_feature_eclic.h ****     #define ECLIC_SetMth                  __ECLIC_SetMth
 218:../Firmware/RISCV/drivers/core_feature_eclic.h ****     #define ECLIC_GetMth                  __ECLIC_GetMth
 219:../Firmware/RISCV/drivers/core_feature_eclic.h ****     #define ECLIC_EnableIRQ               __ECLIC_EnableIRQ
 220:../Firmware/RISCV/drivers/core_feature_eclic.h ****     #define ECLIC_GetEnableIRQ            __ECLIC_GetEnableIRQ
 221:../Firmware/RISCV/drivers/core_feature_eclic.h ****     #define ECLIC_DisableIRQ              __ECLIC_DisableIRQ
 222:../Firmware/RISCV/drivers/core_feature_eclic.h ****     #define ECLIC_SetPendingIRQ           __ECLIC_SetPendingIRQ
 223:../Firmware/RISCV/drivers/core_feature_eclic.h ****     #define ECLIC_GetPendingIRQ           __ECLIC_GetPendingIRQ
 224:../Firmware/RISCV/drivers/core_feature_eclic.h ****     #define ECLIC_ClearPendingIRQ         __ECLIC_ClearPendingIRQ
 225:../Firmware/RISCV/drivers/core_feature_eclic.h ****     #define ECLIC_SetTrigIRQ              __ECLIC_SetTrigIRQ
 226:../Firmware/RISCV/drivers/core_feature_eclic.h ****     #define ECLIC_GetTrigIRQ              __ECLIC_GetTrigIRQ
 227:../Firmware/RISCV/drivers/core_feature_eclic.h ****     #define ECLIC_SetShvIRQ               __ECLIC_SetShvIRQ
 228:../Firmware/RISCV/drivers/core_feature_eclic.h ****     #define ECLIC_GetShvIRQ               __ECLIC_GetShvIRQ
 229:../Firmware/RISCV/drivers/core_feature_eclic.h ****     #define ECLIC_SetCtrlIRQ              __ECLIC_SetCtrlIRQ
 230:../Firmware/RISCV/drivers/core_feature_eclic.h ****     #define ECLIC_GetCtrlIRQ              __ECLIC_GetCtrlIRQ
 231:../Firmware/RISCV/drivers/core_feature_eclic.h ****     #define ECLIC_SetLevelIRQ             __ECLIC_SetLevelIRQ
 232:../Firmware/RISCV/drivers/core_feature_eclic.h ****     #define ECLIC_GetLevelIRQ             __ECLIC_GetLevelIRQ
 233:../Firmware/RISCV/drivers/core_feature_eclic.h ****     #define ECLIC_SetPriorityIRQ          __ECLIC_SetPriorityIRQ
 234:../Firmware/RISCV/drivers/core_feature_eclic.h ****     #define ECLIC_GetPriorityIRQ          __ECLIC_GetPriorityIRQ
 235:../Firmware/RISCV/drivers/core_feature_eclic.h **** 
 236:../Firmware/RISCV/drivers/core_feature_eclic.h **** #endif /* NMSIS_ECLIC_VIRTUAL */
 237:../Firmware/RISCV/drivers/core_feature_eclic.h **** 
 238:../Firmware/RISCV/drivers/core_feature_eclic.h **** #ifdef NMSIS_VECTAB_VIRTUAL
 239:../Firmware/RISCV/drivers/core_feature_eclic.h ****     #ifndef NMSIS_VECTAB_VIRTUAL_HEADER_FILE
 240:../Firmware/RISCV/drivers/core_feature_eclic.h ****         #define NMSIS_VECTAB_VIRTUAL_HEADER_FILE "nmsis_vectab_virtual.h"
 241:../Firmware/RISCV/drivers/core_feature_eclic.h ****     #endif
 242:../Firmware/RISCV/drivers/core_feature_eclic.h ****     #include NMSIS_VECTAB_VIRTUAL_HEADER_FILE
 243:../Firmware/RISCV/drivers/core_feature_eclic.h **** #else
 244:../Firmware/RISCV/drivers/core_feature_eclic.h ****     #define ECLIC_SetVector              __ECLIC_SetVector
 245:../Firmware/RISCV/drivers/core_feature_eclic.h ****     #define ECLIC_GetVector              __ECLIC_GetVector
 246:../Firmware/RISCV/drivers/core_feature_eclic.h **** #endif  /* (NMSIS_VECTAB_VIRTUAL) */
 247:../Firmware/RISCV/drivers/core_feature_eclic.h **** 
 248:../Firmware/RISCV/drivers/core_feature_eclic.h **** /**
 249:../Firmware/RISCV/drivers/core_feature_eclic.h ****  * \brief  Set nlbits value
 250:../Firmware/RISCV/drivers/core_feature_eclic.h ****  * \details
 251:../Firmware/RISCV/drivers/core_feature_eclic.h ****  * This function set the nlbits value of CLICCFG register.
 252:../Firmware/RISCV/drivers/core_feature_eclic.h ****  * \param [in]    nlbits    nlbits value
 253:../Firmware/RISCV/drivers/core_feature_eclic.h ****  * \remarks
 254:../Firmware/RISCV/drivers/core_feature_eclic.h ****  * - nlbits is used to set the width of level in the CLICINTCTL[i].
 255:../Firmware/RISCV/drivers/core_feature_eclic.h ****  * \sa
 256:../Firmware/RISCV/drivers/core_feature_eclic.h ****  * - \ref ECLIC_GetCfgNlbits
 257:../Firmware/RISCV/drivers/core_feature_eclic.h ****  */
 258:../Firmware/RISCV/drivers/core_feature_eclic.h **** __STATIC_FORCEINLINE void __ECLIC_SetCfgNlbits(uint32_t nlbits)
 259:../Firmware/RISCV/drivers/core_feature_eclic.h **** {
 260:../Firmware/RISCV/drivers/core_feature_eclic.h ****     ECLIC->CFG &= ~CLIC_CLICCFG_NLBIT_Msk;
 261:../Firmware/RISCV/drivers/core_feature_eclic.h ****     ECLIC->CFG |= (uint8_t)((nlbits <<CLIC_CLICCFG_NLBIT_Pos) & CLIC_CLICCFG_NLBIT_Msk);
 262:../Firmware/RISCV/drivers/core_feature_eclic.h **** }
 263:../Firmware/RISCV/drivers/core_feature_eclic.h **** 
 264:../Firmware/RISCV/drivers/core_feature_eclic.h **** /**
 265:../Firmware/RISCV/drivers/core_feature_eclic.h ****  * \brief  Get nlbits value
 266:../Firmware/RISCV/drivers/core_feature_eclic.h ****  * \details
 267:../Firmware/RISCV/drivers/core_feature_eclic.h ****  * This function get the nlbits value of CLICCFG register.
 268:../Firmware/RISCV/drivers/core_feature_eclic.h ****  * \return   nlbits value of CLICCFG register
 269:../Firmware/RISCV/drivers/core_feature_eclic.h ****  * \remarks
 270:../Firmware/RISCV/drivers/core_feature_eclic.h ****  * - nlbits is used to set the width of level in the CLICINTCTL[i].
 271:../Firmware/RISCV/drivers/core_feature_eclic.h ****  * \sa
 272:../Firmware/RISCV/drivers/core_feature_eclic.h ****  * - \ref ECLIC_SetCfgNlbits
 273:../Firmware/RISCV/drivers/core_feature_eclic.h ****  */
 274:../Firmware/RISCV/drivers/core_feature_eclic.h **** __STATIC_FORCEINLINE uint32_t __ECLIC_GetCfgNlbits(void)
 275:../Firmware/RISCV/drivers/core_feature_eclic.h **** {
 276:../Firmware/RISCV/drivers/core_feature_eclic.h ****     return ((uint32_t)((ECLIC->CFG & CLIC_CLICCFG_NLBIT_Msk) >> CLIC_CLICCFG_NLBIT_Pos));
 277:../Firmware/RISCV/drivers/core_feature_eclic.h **** }
 278:../Firmware/RISCV/drivers/core_feature_eclic.h **** 
 279:../Firmware/RISCV/drivers/core_feature_eclic.h **** /**
 280:../Firmware/RISCV/drivers/core_feature_eclic.h ****  * \brief  Get the ECLIC version number
 281:../Firmware/RISCV/drivers/core_feature_eclic.h ****  * \details
 282:../Firmware/RISCV/drivers/core_feature_eclic.h ****  * This function gets the hardware version information from CLICINFO register.
 283:../Firmware/RISCV/drivers/core_feature_eclic.h ****  * \return   hardware version number in CLICINFO register.
 284:../Firmware/RISCV/drivers/core_feature_eclic.h ****  * \remarks
 285:../Firmware/RISCV/drivers/core_feature_eclic.h ****  * - This function gets harware version information from CLICINFO register.
 286:../Firmware/RISCV/drivers/core_feature_eclic.h ****  * - Bit 20:17 for architecture version, bit 16:13 for implementation version.
 287:../Firmware/RISCV/drivers/core_feature_eclic.h ****  * \sa
 288:../Firmware/RISCV/drivers/core_feature_eclic.h ****  * - \ref ECLIC_GetInfoNum
 289:../Firmware/RISCV/drivers/core_feature_eclic.h **** */
 290:../Firmware/RISCV/drivers/core_feature_eclic.h **** __STATIC_FORCEINLINE uint32_t __ECLIC_GetInfoVer(void)
 291:../Firmware/RISCV/drivers/core_feature_eclic.h **** {
 292:../Firmware/RISCV/drivers/core_feature_eclic.h ****     return ((uint32_t)((ECLIC->INFO & CLIC_CLICINFO_VER_Msk) >> CLIC_CLICINFO_VER_Pos));
 293:../Firmware/RISCV/drivers/core_feature_eclic.h **** }
 294:../Firmware/RISCV/drivers/core_feature_eclic.h **** 
 295:../Firmware/RISCV/drivers/core_feature_eclic.h **** /**
 296:../Firmware/RISCV/drivers/core_feature_eclic.h ****  * \brief  Get CLICINTCTLBITS
 297:../Firmware/RISCV/drivers/core_feature_eclic.h ****  * \details
 298:../Firmware/RISCV/drivers/core_feature_eclic.h ****  * This function gets CLICINTCTLBITS from CLICINFO register.
 299:../Firmware/RISCV/drivers/core_feature_eclic.h ****  * \return  CLICINTCTLBITS from CLICINFO register.
 300:../Firmware/RISCV/drivers/core_feature_eclic.h ****  * \remarks
 301:../Firmware/RISCV/drivers/core_feature_eclic.h ****  * - In the CLICINTCTL[i] registers, with 2 <= CLICINTCTLBITS <= 8.
 302:../Firmware/RISCV/drivers/core_feature_eclic.h ****  * - The implemented bits are kept left-justified in the most-significant bits of each 8-bit
 303:../Firmware/RISCV/drivers/core_feature_eclic.h ****  *   CLICINTCTL[I] register, with the lower unimplemented bits treated as hardwired to 1.
 304:../Firmware/RISCV/drivers/core_feature_eclic.h ****  * \sa
 305:../Firmware/RISCV/drivers/core_feature_eclic.h ****  * - \ref ECLIC_GetInfoNum
 306:../Firmware/RISCV/drivers/core_feature_eclic.h ****  */
 307:../Firmware/RISCV/drivers/core_feature_eclic.h **** __STATIC_FORCEINLINE uint32_t __ECLIC_GetInfoCtlbits(void)
 308:../Firmware/RISCV/drivers/core_feature_eclic.h **** {
 309:../Firmware/RISCV/drivers/core_feature_eclic.h ****     return ((uint32_t)((ECLIC->INFO & CLIC_CLICINFO_CTLBIT_Msk) >> CLIC_CLICINFO_CTLBIT_Pos));
 310:../Firmware/RISCV/drivers/core_feature_eclic.h **** }
 311:../Firmware/RISCV/drivers/core_feature_eclic.h **** 
 312:../Firmware/RISCV/drivers/core_feature_eclic.h **** /**
 313:../Firmware/RISCV/drivers/core_feature_eclic.h ****  * \brief  Get number of maximum interrupt inputs supported
 314:../Firmware/RISCV/drivers/core_feature_eclic.h ****  * \details
 315:../Firmware/RISCV/drivers/core_feature_eclic.h ****  * This function gets number of maximum interrupt inputs supported from CLICINFO register.
 316:../Firmware/RISCV/drivers/core_feature_eclic.h ****  * \return  number of maximum interrupt inputs supported from CLICINFO register.
 317:../Firmware/RISCV/drivers/core_feature_eclic.h ****  * \remarks
 318:../Firmware/RISCV/drivers/core_feature_eclic.h ****  * - This function gets number of maximum interrupt inputs supported from CLICINFO register.
 319:../Firmware/RISCV/drivers/core_feature_eclic.h ****  * - The num_interrupt field specifies the actual number of maximum interrupt inputs supported in t
 320:../Firmware/RISCV/drivers/core_feature_eclic.h ****  * \sa
 321:../Firmware/RISCV/drivers/core_feature_eclic.h ****  * - \ref ECLIC_GetInfoCtlbits
 322:../Firmware/RISCV/drivers/core_feature_eclic.h ****  */
 323:../Firmware/RISCV/drivers/core_feature_eclic.h **** __STATIC_FORCEINLINE uint32_t __ECLIC_GetInfoNum(void)
 324:../Firmware/RISCV/drivers/core_feature_eclic.h **** {
 325:../Firmware/RISCV/drivers/core_feature_eclic.h ****     return ((uint32_t)((ECLIC->INFO & CLIC_CLICINFO_NUM_Msk) >> CLIC_CLICINFO_NUM_Pos));
 326:../Firmware/RISCV/drivers/core_feature_eclic.h **** }
 327:../Firmware/RISCV/drivers/core_feature_eclic.h **** 
 328:../Firmware/RISCV/drivers/core_feature_eclic.h **** /**
 329:../Firmware/RISCV/drivers/core_feature_eclic.h ****  * \brief  Set Machine Mode Interrupt Level Threshold
 330:../Firmware/RISCV/drivers/core_feature_eclic.h ****  * \details
 331:../Firmware/RISCV/drivers/core_feature_eclic.h ****  * This function sets machine mode interrupt level threshold.
 332:../Firmware/RISCV/drivers/core_feature_eclic.h ****  * \param [in]  mth       Interrupt Level Threshold.
 333:../Firmware/RISCV/drivers/core_feature_eclic.h ****  * \sa
 334:../Firmware/RISCV/drivers/core_feature_eclic.h ****  * - \ref ECLIC_GetMth
 335:../Firmware/RISCV/drivers/core_feature_eclic.h ****  */
 336:../Firmware/RISCV/drivers/core_feature_eclic.h **** __STATIC_FORCEINLINE void __ECLIC_SetMth(uint8_t mth)
 337:../Firmware/RISCV/drivers/core_feature_eclic.h **** {
 338:../Firmware/RISCV/drivers/core_feature_eclic.h ****     ECLIC->MTH = mth;
 120              		.loc 3 338 10
 121 0014 B70700D2 		li	a5,-771751936
 122              		.loc 3 338 16
 123 0018 0347F4FE 		lbu	a4,-17(s0)
 124 001c A385E700 		sb	a4,11(a5)
 339:../Firmware/RISCV/drivers/core_feature_eclic.h **** }
 125              		.loc 3 339 1
 126 0020 0100     		nop
 127              	.LBE55:
 128              	.LBE54:
  68:../Firmware/GD32VW55x_standard_peripheral/Source/gd32vw55x_eclic.c ****     ECLIC_SetMth(threshold);
  69:../Firmware/GD32VW55x_standard_peripheral/Source/gd32vw55x_eclic.c **** }
 129              		.loc 1 69 1
 130 0022 0100     		nop
 131 0024 3254     		lw	s0,44(sp)
 132              		.cfi_restore 8
 133              		.cfi_def_cfa 2, 48
 134 0026 4561     		addi	sp,sp,48
 135              		.cfi_def_cfa_offset 0
 136 0028 8280     		jr	ra
 137              		.cfi_endproc
 138              	.LFE349:
 140              		.section	.text.eclic_priority_group_set,"ax",@progbits
 141              		.align	1
 142              		.globl	eclic_priority_group_set
 144              	eclic_priority_group_set:
 145              	.LFB350:
  70:../Firmware/GD32VW55x_standard_peripheral/Source/gd32vw55x_eclic.c **** 
  71:../Firmware/GD32VW55x_standard_peripheral/Source/gd32vw55x_eclic.c **** /*!
  72:../Firmware/GD32VW55x_standard_peripheral/Source/gd32vw55x_eclic.c ****     \brief      set the priority group
  73:../Firmware/GD32VW55x_standard_peripheral/Source/gd32vw55x_eclic.c ****     \param[in]  prigroup: specify the priority group
  74:../Firmware/GD32VW55x_standard_peripheral/Source/gd32vw55x_eclic.c ****       \arg        ECLIC_PRIGROUP_LEVEL0_PRIO4
  75:../Firmware/GD32VW55x_standard_peripheral/Source/gd32vw55x_eclic.c ****       \arg        ECLIC_PRIGROUP_LEVEL1_PRIO3
  76:../Firmware/GD32VW55x_standard_peripheral/Source/gd32vw55x_eclic.c ****       \arg        ECLIC_PRIGROUP_LEVEL2_PRIO2
  77:../Firmware/GD32VW55x_standard_peripheral/Source/gd32vw55x_eclic.c ****       \arg        ECLIC_PRIGROUP_LEVEL3_PRIO1
  78:../Firmware/GD32VW55x_standard_peripheral/Source/gd32vw55x_eclic.c ****       \arg        ECLIC_PRIGROUP_LEVEL4_PRIO0
  79:../Firmware/GD32VW55x_standard_peripheral/Source/gd32vw55x_eclic.c ****     \param[out] none
  80:../Firmware/GD32VW55x_standard_peripheral/Source/gd32vw55x_eclic.c ****     \retval     none
  81:../Firmware/GD32VW55x_standard_peripheral/Source/gd32vw55x_eclic.c **** */
  82:../Firmware/GD32VW55x_standard_peripheral/Source/gd32vw55x_eclic.c **** void eclic_priority_group_set(uint8_t prigroup)
  83:../Firmware/GD32VW55x_standard_peripheral/Source/gd32vw55x_eclic.c **** {
 146              		.loc 1 83 1
 147              		.cfi_startproc
 148 0000 7971     		addi	sp,sp,-48
 149              		.cfi_def_cfa_offset 48
 150 0002 22D6     		sw	s0,44(sp)
 151              		.cfi_offset 8, -4
 152 0004 0018     		addi	s0,sp,48
 153              		.cfi_def_cfa 8, 0
 154 0006 AA87     		mv	a5,a0
 155 0008 A30FF4FC 		sb	a5,-33(s0)
  84:../Firmware/GD32VW55x_standard_peripheral/Source/gd32vw55x_eclic.c ****     ECLIC_SetCfgNlbits(prigroup);
 156              		.loc 1 84 5
 157 000c 8347F4FD 		lbu	a5,-33(s0)
 158 0010 2326F4FE 		sw	a5,-20(s0)
 159              	.LBB56:
 160              	.LBB57:
 260:../Firmware/RISCV/drivers/core_feature_eclic.h ****     ECLIC->CFG |= (uint8_t)((nlbits <<CLIC_CLICCFG_NLBIT_Pos) & CLIC_CLICCFG_NLBIT_Msk);
 161              		.loc 3 260 16
 162 0014 B70700D2 		li	a5,-771751936
 163 0018 83C70700 		lbu	a5,0(a5)
 164 001c 13F7F70F 		andi	a4,a5,0xff
 165 0020 B70700D2 		li	a5,-771751936
 166 0024 059B     		andi	a4,a4,-31
 167 0026 1377F70F 		andi	a4,a4,0xff
 168 002a 2380E700 		sb	a4,0(a5)
 261:../Firmware/RISCV/drivers/core_feature_eclic.h **** }
 169              		.loc 3 261 16
 170 002e B70700D2 		li	a5,-771751936
 171 0032 83C70700 		lbu	a5,0(a5)
 172 0036 93F7F70F 		andi	a5,a5,0xff
 173 003a 13978701 		slli	a4,a5,24
 174 003e 6187     		srai	a4,a4,24
 261:../Firmware/RISCV/drivers/core_feature_eclic.h **** }
 175              		.loc 3 261 37
 176 0040 8327C4FE 		lw	a5,-20(s0)
 177 0044 93F7F70F 		andi	a5,a5,0xff
 178 0048 8607     		slli	a5,a5,1
 179 004a 93F7F70F 		andi	a5,a5,0xff
 180 004e E207     		slli	a5,a5,24
 181 0050 E187     		srai	a5,a5,24
 261:../Firmware/RISCV/drivers/core_feature_eclic.h **** }
 182              		.loc 3 261 19
 183 0052 F98B     		andi	a5,a5,30
 184 0054 E207     		slli	a5,a5,24
 185 0056 E187     		srai	a5,a5,24
 261:../Firmware/RISCV/drivers/core_feature_eclic.h **** }
 186              		.loc 3 261 16
 187 0058 D98F     		or	a5,a4,a5
 188 005a 13978701 		slli	a4,a5,24
 189 005e 6187     		srai	a4,a4,24
 190 0060 B70700D2 		li	a5,-771751936
 191 0064 1377F70F 		andi	a4,a4,0xff
 192 0068 2380E700 		sb	a4,0(a5)
 262:../Firmware/RISCV/drivers/core_feature_eclic.h **** 
 193              		.loc 3 262 1
 194 006c 0100     		nop
 195              	.LBE57:
 196              	.LBE56:
  85:../Firmware/GD32VW55x_standard_peripheral/Source/gd32vw55x_eclic.c **** }
 197              		.loc 1 85 1
 198 006e 0100     		nop
 199 0070 3254     		lw	s0,44(sp)
 200              		.cfi_restore 8
 201              		.cfi_def_cfa 2, 48
 202 0072 4561     		addi	sp,sp,48
 203              		.cfi_def_cfa_offset 0
 204 0074 8280     		jr	ra
 205              		.cfi_endproc
 206              	.LFE350:
 208              		.section	.text.eclic_irq_enable,"ax",@progbits
 209              		.align	1
 210              		.globl	eclic_irq_enable
 212              	eclic_irq_enable:
 213              	.LFB351:
  86:../Firmware/GD32VW55x_standard_peripheral/Source/gd32vw55x_eclic.c **** 
  87:../Firmware/GD32VW55x_standard_peripheral/Source/gd32vw55x_eclic.c **** /*!
  88:../Firmware/GD32VW55x_standard_peripheral/Source/gd32vw55x_eclic.c ****     \brief      enable the interrupt request
  89:../Firmware/GD32VW55x_standard_peripheral/Source/gd32vw55x_eclic.c ****     \param[in]  source: interrupt request, detailed in IRQn_Type
  90:../Firmware/GD32VW55x_standard_peripheral/Source/gd32vw55x_eclic.c ****     \param[in]  level: the level needed to set (maximum is 15, refer to the priority group)
  91:../Firmware/GD32VW55x_standard_peripheral/Source/gd32vw55x_eclic.c ****     \param[in]  priority: the priority needed to set (maximum is 15, refer to the priority group)
  92:../Firmware/GD32VW55x_standard_peripheral/Source/gd32vw55x_eclic.c ****     \param[out] none
  93:../Firmware/GD32VW55x_standard_peripheral/Source/gd32vw55x_eclic.c ****     \retval     none
  94:../Firmware/GD32VW55x_standard_peripheral/Source/gd32vw55x_eclic.c **** */
  95:../Firmware/GD32VW55x_standard_peripheral/Source/gd32vw55x_eclic.c **** void eclic_irq_enable(IRQn_Type source, uint8_t level, uint8_t priority)
  96:../Firmware/GD32VW55x_standard_peripheral/Source/gd32vw55x_eclic.c **** {
 214              		.loc 1 96 1
 215              		.cfi_startproc
 216 0000 1D71     		addi	sp,sp,-96
 217              		.cfi_def_cfa_offset 96
 218 0002 A2CE     		sw	s0,92(sp)
 219              		.cfi_offset 8, -4
 220 0004 8010     		addi	s0,sp,96
 221              		.cfi_def_cfa 8, 0
 222 0006 2326A4FA 		sw	a0,-84(s0)
 223 000a AE87     		mv	a5,a1
 224 000c 3287     		mv	a4,a2
 225 000e A305F4FA 		sb	a5,-85(s0)
 226 0012 BA87     		mv	a5,a4
 227 0014 2305F4FA 		sb	a5,-86(s0)
 228 0018 8327C4FA 		lw	a5,-84(s0)
 229 001c 2326F4FC 		sw	a5,-52(s0)
 230 0020 8347B4FA 		lbu	a5,-85(s0)
 231 0024 A305F4FC 		sb	a5,-53(s0)
 232              	.LBB58:
 233              	.LBB59:
 234              	.LBB60:
 235              	.LBB61:
 276:../Firmware/RISCV/drivers/core_feature_eclic.h **** }
 236              		.loc 3 276 30
 237 0028 B70700D2 		li	a5,-771751936
 238 002c 83C70700 		lbu	a5,0(a5)
 239 0030 93F7F70F 		andi	a5,a5,0xff
 276:../Firmware/RISCV/drivers/core_feature_eclic.h **** }
 240              		.loc 3 276 13
 241 0034 8583     		srli	a5,a5,1
 242 0036 BD8B     		andi	a5,a5,15
 243              	.LBE61:
 244              	.LBE60:
 340:../Firmware/RISCV/drivers/core_feature_eclic.h **** 
 341:../Firmware/RISCV/drivers/core_feature_eclic.h **** /**
 342:../Firmware/RISCV/drivers/core_feature_eclic.h ****  * \brief  Get Machine Mode Interrupt Level Threshold
 343:../Firmware/RISCV/drivers/core_feature_eclic.h ****  * \details
 344:../Firmware/RISCV/drivers/core_feature_eclic.h ****  * This function gets machine mode interrupt level threshold.
 345:../Firmware/RISCV/drivers/core_feature_eclic.h ****  * \return       Interrupt Level Threshold.
 346:../Firmware/RISCV/drivers/core_feature_eclic.h ****  * \sa
 347:../Firmware/RISCV/drivers/core_feature_eclic.h ****  * - \ref ECLIC_SetMth
 348:../Firmware/RISCV/drivers/core_feature_eclic.h ****  */
 349:../Firmware/RISCV/drivers/core_feature_eclic.h **** __STATIC_FORCEINLINE uint8_t __ECLIC_GetMth(void)
 350:../Firmware/RISCV/drivers/core_feature_eclic.h **** {
 351:../Firmware/RISCV/drivers/core_feature_eclic.h ****     return (ECLIC->MTH);
 352:../Firmware/RISCV/drivers/core_feature_eclic.h **** }
 353:../Firmware/RISCV/drivers/core_feature_eclic.h **** 
 354:../Firmware/RISCV/drivers/core_feature_eclic.h **** 
 355:../Firmware/RISCV/drivers/core_feature_eclic.h **** /**
 356:../Firmware/RISCV/drivers/core_feature_eclic.h ****  * \brief  Enable a specific interrupt
 357:../Firmware/RISCV/drivers/core_feature_eclic.h ****  * \details
 358:../Firmware/RISCV/drivers/core_feature_eclic.h ****  * This function enables the specific interrupt \em IRQn.
 359:../Firmware/RISCV/drivers/core_feature_eclic.h ****  * \param [in]  IRQn  Interrupt number
 360:../Firmware/RISCV/drivers/core_feature_eclic.h ****  * \remarks
 361:../Firmware/RISCV/drivers/core_feature_eclic.h ****  * - IRQn must not be negative.
 362:../Firmware/RISCV/drivers/core_feature_eclic.h ****  * \sa
 363:../Firmware/RISCV/drivers/core_feature_eclic.h ****  * - \ref ECLIC_DisableIRQ
 364:../Firmware/RISCV/drivers/core_feature_eclic.h ****  */
 365:../Firmware/RISCV/drivers/core_feature_eclic.h **** __STATIC_FORCEINLINE void __ECLIC_EnableIRQ(IRQn_Type IRQn)
 366:../Firmware/RISCV/drivers/core_feature_eclic.h **** {
 367:../Firmware/RISCV/drivers/core_feature_eclic.h ****     ECLIC->CTRL[IRQn].INTIE |= CLIC_INTIE_IE_Msk;
 368:../Firmware/RISCV/drivers/core_feature_eclic.h **** }
 369:../Firmware/RISCV/drivers/core_feature_eclic.h **** 
 370:../Firmware/RISCV/drivers/core_feature_eclic.h **** /**
 371:../Firmware/RISCV/drivers/core_feature_eclic.h ****  * \brief  Get a specific interrupt enable status
 372:../Firmware/RISCV/drivers/core_feature_eclic.h ****  * \details
 373:../Firmware/RISCV/drivers/core_feature_eclic.h ****  * This function returns the interrupt enable status for the specific interrupt \em IRQn.
 374:../Firmware/RISCV/drivers/core_feature_eclic.h ****  * \param [in]  IRQn  Interrupt number
 375:../Firmware/RISCV/drivers/core_feature_eclic.h ****  * \returns
 376:../Firmware/RISCV/drivers/core_feature_eclic.h ****  * - 0  Interrupt is not enabled
 377:../Firmware/RISCV/drivers/core_feature_eclic.h ****  * - 1  Interrupt is pending
 378:../Firmware/RISCV/drivers/core_feature_eclic.h ****  * \remarks
 379:../Firmware/RISCV/drivers/core_feature_eclic.h ****  * - IRQn must not be negative.
 380:../Firmware/RISCV/drivers/core_feature_eclic.h ****  * \sa
 381:../Firmware/RISCV/drivers/core_feature_eclic.h ****  * - \ref ECLIC_EnableIRQ
 382:../Firmware/RISCV/drivers/core_feature_eclic.h ****  * - \ref ECLIC_DisableIRQ
 383:../Firmware/RISCV/drivers/core_feature_eclic.h ****  */
 384:../Firmware/RISCV/drivers/core_feature_eclic.h **** __STATIC_FORCEINLINE uint32_t __ECLIC_GetEnableIRQ(IRQn_Type IRQn)
 385:../Firmware/RISCV/drivers/core_feature_eclic.h **** {
 386:../Firmware/RISCV/drivers/core_feature_eclic.h ****     return((uint32_t) (ECLIC->CTRL[IRQn].INTIE) & CLIC_INTIE_IE_Msk);
 387:../Firmware/RISCV/drivers/core_feature_eclic.h **** }
 388:../Firmware/RISCV/drivers/core_feature_eclic.h **** 
 389:../Firmware/RISCV/drivers/core_feature_eclic.h **** /**
 390:../Firmware/RISCV/drivers/core_feature_eclic.h ****  * \brief  Disable a specific interrupt
 391:../Firmware/RISCV/drivers/core_feature_eclic.h ****  * \details
 392:../Firmware/RISCV/drivers/core_feature_eclic.h ****  * This function disables the specific interrupt \em IRQn.
 393:../Firmware/RISCV/drivers/core_feature_eclic.h ****  * \param [in]  IRQn  Number of the external interrupt to disable
 394:../Firmware/RISCV/drivers/core_feature_eclic.h ****  * \remarks
 395:../Firmware/RISCV/drivers/core_feature_eclic.h ****  * - IRQn must not be negative.
 396:../Firmware/RISCV/drivers/core_feature_eclic.h ****  * \sa
 397:../Firmware/RISCV/drivers/core_feature_eclic.h ****  * - \ref ECLIC_EnableIRQ
 398:../Firmware/RISCV/drivers/core_feature_eclic.h ****  */
 399:../Firmware/RISCV/drivers/core_feature_eclic.h **** __STATIC_FORCEINLINE void __ECLIC_DisableIRQ(IRQn_Type IRQn)
 400:../Firmware/RISCV/drivers/core_feature_eclic.h **** {
 401:../Firmware/RISCV/drivers/core_feature_eclic.h ****     ECLIC->CTRL[IRQn].INTIE &= ~CLIC_INTIE_IE_Msk;
 402:../Firmware/RISCV/drivers/core_feature_eclic.h **** }
 403:../Firmware/RISCV/drivers/core_feature_eclic.h **** 
 404:../Firmware/RISCV/drivers/core_feature_eclic.h **** /**
 405:../Firmware/RISCV/drivers/core_feature_eclic.h ****  * \brief  Get the pending specific interrupt
 406:../Firmware/RISCV/drivers/core_feature_eclic.h ****  * \details
 407:../Firmware/RISCV/drivers/core_feature_eclic.h ****  * This function returns the pending status of the specific interrupt \em IRQn.
 408:../Firmware/RISCV/drivers/core_feature_eclic.h ****  * \param [in]      IRQn  Interrupt number
 409:../Firmware/RISCV/drivers/core_feature_eclic.h ****  * \returns
 410:../Firmware/RISCV/drivers/core_feature_eclic.h ****  * - 0  Interrupt is not pending
 411:../Firmware/RISCV/drivers/core_feature_eclic.h ****  * - 1  Interrupt is pending
 412:../Firmware/RISCV/drivers/core_feature_eclic.h ****  * \remarks
 413:../Firmware/RISCV/drivers/core_feature_eclic.h ****  * - IRQn must not be negative.
 414:../Firmware/RISCV/drivers/core_feature_eclic.h ****  * \sa
 415:../Firmware/RISCV/drivers/core_feature_eclic.h ****  * - \ref ECLIC_SetPendingIRQ
 416:../Firmware/RISCV/drivers/core_feature_eclic.h ****  * - \ref ECLIC_ClearPendingIRQ
 417:../Firmware/RISCV/drivers/core_feature_eclic.h ****  */
 418:../Firmware/RISCV/drivers/core_feature_eclic.h **** __STATIC_FORCEINLINE int32_t __ECLIC_GetPendingIRQ(IRQn_Type IRQn)
 419:../Firmware/RISCV/drivers/core_feature_eclic.h **** {
 420:../Firmware/RISCV/drivers/core_feature_eclic.h ****     return((uint32_t)(ECLIC->CTRL[IRQn].INTIP) & CLIC_INTIP_IP_Msk);
 421:../Firmware/RISCV/drivers/core_feature_eclic.h **** }
 422:../Firmware/RISCV/drivers/core_feature_eclic.h **** 
 423:../Firmware/RISCV/drivers/core_feature_eclic.h **** /**
 424:../Firmware/RISCV/drivers/core_feature_eclic.h ****  * \brief  Set a specific interrupt to pending
 425:../Firmware/RISCV/drivers/core_feature_eclic.h ****  * \details
 426:../Firmware/RISCV/drivers/core_feature_eclic.h ****  * This function sets the pending bit for the specific interrupt \em IRQn.
 427:../Firmware/RISCV/drivers/core_feature_eclic.h ****  * \param [in]      IRQn  Interrupt number
 428:../Firmware/RISCV/drivers/core_feature_eclic.h ****  * \remarks
 429:../Firmware/RISCV/drivers/core_feature_eclic.h ****  * - IRQn must not be negative.
 430:../Firmware/RISCV/drivers/core_feature_eclic.h ****  * \sa
 431:../Firmware/RISCV/drivers/core_feature_eclic.h ****  * - \ref ECLIC_GetPendingIRQ
 432:../Firmware/RISCV/drivers/core_feature_eclic.h ****  * - \ref ECLIC_ClearPendingIRQ
 433:../Firmware/RISCV/drivers/core_feature_eclic.h ****  */
 434:../Firmware/RISCV/drivers/core_feature_eclic.h **** __STATIC_FORCEINLINE void __ECLIC_SetPendingIRQ(IRQn_Type IRQn)
 435:../Firmware/RISCV/drivers/core_feature_eclic.h **** {
 436:../Firmware/RISCV/drivers/core_feature_eclic.h ****     ECLIC->CTRL[IRQn].INTIP |= CLIC_INTIP_IP_Msk;
 437:../Firmware/RISCV/drivers/core_feature_eclic.h **** }
 438:../Firmware/RISCV/drivers/core_feature_eclic.h **** 
 439:../Firmware/RISCV/drivers/core_feature_eclic.h **** /**
 440:../Firmware/RISCV/drivers/core_feature_eclic.h ****  * \brief  Clear a specific interrupt from pending
 441:../Firmware/RISCV/drivers/core_feature_eclic.h ****  * \details
 442:../Firmware/RISCV/drivers/core_feature_eclic.h ****  * This function removes the pending state of the specific interrupt \em IRQn.
 443:../Firmware/RISCV/drivers/core_feature_eclic.h ****  * \em IRQn cannot be a negative number.
 444:../Firmware/RISCV/drivers/core_feature_eclic.h ****  * \param [in]      IRQn  Interrupt number
 445:../Firmware/RISCV/drivers/core_feature_eclic.h ****  * \remarks
 446:../Firmware/RISCV/drivers/core_feature_eclic.h ****  * - IRQn must not be negative.
 447:../Firmware/RISCV/drivers/core_feature_eclic.h ****  * \sa
 448:../Firmware/RISCV/drivers/core_feature_eclic.h ****  * - \ref ECLIC_SetPendingIRQ
 449:../Firmware/RISCV/drivers/core_feature_eclic.h ****  * - \ref ECLIC_GetPendingIRQ
 450:../Firmware/RISCV/drivers/core_feature_eclic.h ****  */
 451:../Firmware/RISCV/drivers/core_feature_eclic.h **** __STATIC_FORCEINLINE void __ECLIC_ClearPendingIRQ(IRQn_Type IRQn)
 452:../Firmware/RISCV/drivers/core_feature_eclic.h **** {
 453:../Firmware/RISCV/drivers/core_feature_eclic.h ****     ECLIC->CTRL[IRQn].INTIP &= ~ CLIC_INTIP_IP_Msk;
 454:../Firmware/RISCV/drivers/core_feature_eclic.h **** }
 455:../Firmware/RISCV/drivers/core_feature_eclic.h **** 
 456:../Firmware/RISCV/drivers/core_feature_eclic.h **** /**
 457:../Firmware/RISCV/drivers/core_feature_eclic.h ****  * \brief  Set trigger mode and polarity for a specific interrupt
 458:../Firmware/RISCV/drivers/core_feature_eclic.h ****  * \details
 459:../Firmware/RISCV/drivers/core_feature_eclic.h ****  * This function set trigger mode and polarity of the specific interrupt \em IRQn.
 460:../Firmware/RISCV/drivers/core_feature_eclic.h ****  * \param [in]      IRQn  Interrupt number
 461:../Firmware/RISCV/drivers/core_feature_eclic.h ****  * \param [in]      trig
 462:../Firmware/RISCV/drivers/core_feature_eclic.h ****  *                   - 00  level trigger, \ref ECLIC_LEVEL_TRIGGER
 463:../Firmware/RISCV/drivers/core_feature_eclic.h ****  *                   - 01  positive edge trigger, \ref ECLIC_POSTIVE_EDGE_TRIGGER
 464:../Firmware/RISCV/drivers/core_feature_eclic.h ****  *                   - 02  level trigger, \ref ECLIC_LEVEL_TRIGGER
 465:../Firmware/RISCV/drivers/core_feature_eclic.h ****  *                   - 03  negative edge trigger, \ref ECLIC_NEGTIVE_EDGE_TRIGGER
 466:../Firmware/RISCV/drivers/core_feature_eclic.h ****  * \remarks
 467:../Firmware/RISCV/drivers/core_feature_eclic.h ****  * - IRQn must not be negative.
 468:../Firmware/RISCV/drivers/core_feature_eclic.h ****  *
 469:../Firmware/RISCV/drivers/core_feature_eclic.h ****  * \sa
 470:../Firmware/RISCV/drivers/core_feature_eclic.h ****  * - \ref ECLIC_GetTrigIRQ
 471:../Firmware/RISCV/drivers/core_feature_eclic.h ****  */
 472:../Firmware/RISCV/drivers/core_feature_eclic.h **** __STATIC_FORCEINLINE void __ECLIC_SetTrigIRQ(IRQn_Type IRQn, uint32_t trig)
 473:../Firmware/RISCV/drivers/core_feature_eclic.h **** {
 474:../Firmware/RISCV/drivers/core_feature_eclic.h ****     ECLIC->CTRL[IRQn].INTATTR &= ~CLIC_INTATTR_TRIG_Msk;
 475:../Firmware/RISCV/drivers/core_feature_eclic.h ****     ECLIC->CTRL[IRQn].INTATTR |= (uint8_t)(trig<<CLIC_INTATTR_TRIG_Pos);
 476:../Firmware/RISCV/drivers/core_feature_eclic.h **** }
 477:../Firmware/RISCV/drivers/core_feature_eclic.h **** 
 478:../Firmware/RISCV/drivers/core_feature_eclic.h **** /**
 479:../Firmware/RISCV/drivers/core_feature_eclic.h ****  * \brief  Get trigger mode and polarity for a specific interrupt
 480:../Firmware/RISCV/drivers/core_feature_eclic.h ****  * \details
 481:../Firmware/RISCV/drivers/core_feature_eclic.h ****  * This function get trigger mode and polarity of the specific interrupt \em IRQn.
 482:../Firmware/RISCV/drivers/core_feature_eclic.h ****  * \param [in]      IRQn  Interrupt number
 483:../Firmware/RISCV/drivers/core_feature_eclic.h ****  * \return
 484:../Firmware/RISCV/drivers/core_feature_eclic.h ****  *                 - 00  level trigger, \ref ECLIC_LEVEL_TRIGGER
 485:../Firmware/RISCV/drivers/core_feature_eclic.h ****  *                 - 01  positive edge trigger, \ref ECLIC_POSTIVE_EDGE_TRIGGER
 486:../Firmware/RISCV/drivers/core_feature_eclic.h ****  *                 - 02  level trigger, \ref ECLIC_LEVEL_TRIGGER
 487:../Firmware/RISCV/drivers/core_feature_eclic.h ****  *                 - 03  negative edge trigger, \ref ECLIC_NEGTIVE_EDGE_TRIGGER
 488:../Firmware/RISCV/drivers/core_feature_eclic.h ****  * \remarks
 489:../Firmware/RISCV/drivers/core_feature_eclic.h ****  *     - IRQn must not be negative.
 490:../Firmware/RISCV/drivers/core_feature_eclic.h ****  * \sa
 491:../Firmware/RISCV/drivers/core_feature_eclic.h ****  *     - \ref ECLIC_SetTrigIRQ
 492:../Firmware/RISCV/drivers/core_feature_eclic.h ****  */
 493:../Firmware/RISCV/drivers/core_feature_eclic.h **** __STATIC_FORCEINLINE uint32_t __ECLIC_GetTrigIRQ(IRQn_Type IRQn)
 494:../Firmware/RISCV/drivers/core_feature_eclic.h **** {
 495:../Firmware/RISCV/drivers/core_feature_eclic.h ****     return ((int32_t)(((ECLIC->CTRL[IRQn].INTATTR) & CLIC_INTATTR_TRIG_Msk)>>CLIC_INTATTR_TRIG_Pos)
 496:../Firmware/RISCV/drivers/core_feature_eclic.h **** }
 497:../Firmware/RISCV/drivers/core_feature_eclic.h **** 
 498:../Firmware/RISCV/drivers/core_feature_eclic.h **** /**
 499:../Firmware/RISCV/drivers/core_feature_eclic.h ****  * \brief  Set interrupt working mode for a specific interrupt
 500:../Firmware/RISCV/drivers/core_feature_eclic.h ****  * \details
 501:../Firmware/RISCV/drivers/core_feature_eclic.h ****  * This function set selective hardware vector or non-vector working mode of the specific interrupt
 502:../Firmware/RISCV/drivers/core_feature_eclic.h ****  * \param [in]      IRQn  Interrupt number
 503:../Firmware/RISCV/drivers/core_feature_eclic.h ****  * \param [in]      shv
 504:../Firmware/RISCV/drivers/core_feature_eclic.h ****  *                        - 0  non-vector mode, \ref ECLIC_NON_VECTOR_INTERRUPT
 505:../Firmware/RISCV/drivers/core_feature_eclic.h ****  *                        - 1  vector mode, \ref ECLIC_VECTOR_INTERRUPT
 506:../Firmware/RISCV/drivers/core_feature_eclic.h ****  * \remarks
 507:../Firmware/RISCV/drivers/core_feature_eclic.h ****  * - IRQn must not be negative.
 508:../Firmware/RISCV/drivers/core_feature_eclic.h ****  * \sa
 509:../Firmware/RISCV/drivers/core_feature_eclic.h ****  * - \ref ECLIC_GetShvIRQ
 510:../Firmware/RISCV/drivers/core_feature_eclic.h ****  */
 511:../Firmware/RISCV/drivers/core_feature_eclic.h **** __STATIC_FORCEINLINE void __ECLIC_SetShvIRQ(IRQn_Type IRQn, uint32_t shv)
 512:../Firmware/RISCV/drivers/core_feature_eclic.h **** {
 513:../Firmware/RISCV/drivers/core_feature_eclic.h ****     ECLIC->CTRL[IRQn].INTATTR &= ~CLIC_INTATTR_SHV_Msk;
 514:../Firmware/RISCV/drivers/core_feature_eclic.h ****     ECLIC->CTRL[IRQn].INTATTR |= (uint8_t)(shv<<CLIC_INTATTR_SHV_Pos);
 515:../Firmware/RISCV/drivers/core_feature_eclic.h **** }
 516:../Firmware/RISCV/drivers/core_feature_eclic.h **** 
 517:../Firmware/RISCV/drivers/core_feature_eclic.h **** /**
 518:../Firmware/RISCV/drivers/core_feature_eclic.h ****  * \brief  Get interrupt working mode for a specific interrupt
 519:../Firmware/RISCV/drivers/core_feature_eclic.h ****  * \details
 520:../Firmware/RISCV/drivers/core_feature_eclic.h ****  * This function get selective hardware vector or non-vector working mode of the specific interrupt
 521:../Firmware/RISCV/drivers/core_feature_eclic.h ****  * \param [in]      IRQn  Interrupt number
 522:../Firmware/RISCV/drivers/core_feature_eclic.h ****  * \return       shv
 523:../Firmware/RISCV/drivers/core_feature_eclic.h ****  *                        - 0  non-vector mode, \ref ECLIC_NON_VECTOR_INTERRUPT
 524:../Firmware/RISCV/drivers/core_feature_eclic.h ****  *                        - 1  vector mode, \ref ECLIC_VECTOR_INTERRUPT
 525:../Firmware/RISCV/drivers/core_feature_eclic.h ****  * \remarks
 526:../Firmware/RISCV/drivers/core_feature_eclic.h ****  * - IRQn must not be negative.
 527:../Firmware/RISCV/drivers/core_feature_eclic.h ****  * \sa
 528:../Firmware/RISCV/drivers/core_feature_eclic.h ****  * - \ref ECLIC_SetShvIRQ
 529:../Firmware/RISCV/drivers/core_feature_eclic.h ****  */
 530:../Firmware/RISCV/drivers/core_feature_eclic.h **** __STATIC_FORCEINLINE uint32_t __ECLIC_GetShvIRQ(IRQn_Type IRQn)
 531:../Firmware/RISCV/drivers/core_feature_eclic.h **** {
 532:../Firmware/RISCV/drivers/core_feature_eclic.h ****     return ((int32_t)(((ECLIC->CTRL[IRQn].INTATTR) & CLIC_INTATTR_SHV_Msk)>>CLIC_INTATTR_SHV_Pos));
 533:../Firmware/RISCV/drivers/core_feature_eclic.h **** }
 534:../Firmware/RISCV/drivers/core_feature_eclic.h **** 
 535:../Firmware/RISCV/drivers/core_feature_eclic.h **** /**
 536:../Firmware/RISCV/drivers/core_feature_eclic.h ****  * \brief  Modify ECLIC Interrupt Input Control Register for a specific interrupt
 537:../Firmware/RISCV/drivers/core_feature_eclic.h ****  * \details
 538:../Firmware/RISCV/drivers/core_feature_eclic.h ****  * This function modify ECLIC Interrupt Input Control(CLICINTCTL[i]) register of the specific inter
 539:../Firmware/RISCV/drivers/core_feature_eclic.h ****  * \param [in]      IRQn  Interrupt number
 540:../Firmware/RISCV/drivers/core_feature_eclic.h ****  * \param [in]      intctrl  Set value for CLICINTCTL[i] register
 541:../Firmware/RISCV/drivers/core_feature_eclic.h ****  * \remarks
 542:../Firmware/RISCV/drivers/core_feature_eclic.h ****  * - IRQn must not be negative.
 543:../Firmware/RISCV/drivers/core_feature_eclic.h ****  * \sa
 544:../Firmware/RISCV/drivers/core_feature_eclic.h ****  * - \ref ECLIC_GetCtrlIRQ
 545:../Firmware/RISCV/drivers/core_feature_eclic.h ****  */
 546:../Firmware/RISCV/drivers/core_feature_eclic.h **** __STATIC_FORCEINLINE void __ECLIC_SetCtrlIRQ(IRQn_Type IRQn, uint8_t intctrl)
 547:../Firmware/RISCV/drivers/core_feature_eclic.h **** {
 548:../Firmware/RISCV/drivers/core_feature_eclic.h ****     ECLIC->CTRL[IRQn].INTCTRL = intctrl;
 549:../Firmware/RISCV/drivers/core_feature_eclic.h **** }
 550:../Firmware/RISCV/drivers/core_feature_eclic.h **** 
 551:../Firmware/RISCV/drivers/core_feature_eclic.h **** /**
 552:../Firmware/RISCV/drivers/core_feature_eclic.h ****  * \brief  Get ECLIC Interrupt Input Control Register value for a specific interrupt
 553:../Firmware/RISCV/drivers/core_feature_eclic.h ****  * \details
 554:../Firmware/RISCV/drivers/core_feature_eclic.h ****  * This function modify ECLIC Interrupt Input Control register of the specific interrupt \em IRQn.
 555:../Firmware/RISCV/drivers/core_feature_eclic.h ****  * \param [in]      IRQn  Interrupt number
 556:../Firmware/RISCV/drivers/core_feature_eclic.h ****  * \return       value of ECLIC Interrupt Input Control register
 557:../Firmware/RISCV/drivers/core_feature_eclic.h ****  * \remarks
 558:../Firmware/RISCV/drivers/core_feature_eclic.h ****  * - IRQn must not be negative.
 559:../Firmware/RISCV/drivers/core_feature_eclic.h ****  * \sa
 560:../Firmware/RISCV/drivers/core_feature_eclic.h ****  * - \ref ECLIC_SetCtrlIRQ
 561:../Firmware/RISCV/drivers/core_feature_eclic.h ****  */
 562:../Firmware/RISCV/drivers/core_feature_eclic.h **** __STATIC_FORCEINLINE uint8_t __ECLIC_GetCtrlIRQ(IRQn_Type IRQn)
 563:../Firmware/RISCV/drivers/core_feature_eclic.h **** {
 564:../Firmware/RISCV/drivers/core_feature_eclic.h ****     return (ECLIC->CTRL[IRQn].INTCTRL);
 565:../Firmware/RISCV/drivers/core_feature_eclic.h **** }
 566:../Firmware/RISCV/drivers/core_feature_eclic.h **** 
 567:../Firmware/RISCV/drivers/core_feature_eclic.h **** /**
 568:../Firmware/RISCV/drivers/core_feature_eclic.h ****  * \brief  Set ECLIC Interrupt level of a specific interrupt
 569:../Firmware/RISCV/drivers/core_feature_eclic.h ****  * \details
 570:../Firmware/RISCV/drivers/core_feature_eclic.h ****  * This function set interrupt level of the specific interrupt \em IRQn.
 571:../Firmware/RISCV/drivers/core_feature_eclic.h ****  * \param [in]      IRQn  Interrupt number
 572:../Firmware/RISCV/drivers/core_feature_eclic.h ****  * \param [in]      lvl_abs   Interrupt level
 573:../Firmware/RISCV/drivers/core_feature_eclic.h ****  * \remarks
 574:../Firmware/RISCV/drivers/core_feature_eclic.h ****  * - IRQn must not be negative.
 575:../Firmware/RISCV/drivers/core_feature_eclic.h ****  * - If lvl_abs to be set is larger than the max level allowed, it will be force to be max level.
 576:../Firmware/RISCV/drivers/core_feature_eclic.h ****  * - When you set level value you need use clciinfo.nlbits to get the width of level.
 577:../Firmware/RISCV/drivers/core_feature_eclic.h ****  *   Then we could know the maximum of level. CLICINTCTLBITS is how many total bits are
 578:../Firmware/RISCV/drivers/core_feature_eclic.h ****  *   present in the CLICINTCTL register.
 579:../Firmware/RISCV/drivers/core_feature_eclic.h ****  * \sa
 580:../Firmware/RISCV/drivers/core_feature_eclic.h ****  * - \ref ECLIC_GetLevelIRQ
 581:../Firmware/RISCV/drivers/core_feature_eclic.h ****  */
 582:../Firmware/RISCV/drivers/core_feature_eclic.h **** __STATIC_FORCEINLINE void __ECLIC_SetLevelIRQ(IRQn_Type IRQn, uint8_t lvl_abs)
 583:../Firmware/RISCV/drivers/core_feature_eclic.h **** {
 584:../Firmware/RISCV/drivers/core_feature_eclic.h ****     uint8_t nlbits = __ECLIC_GetCfgNlbits();
 245              		.loc 3 584 13
 246 0038 2305F4FC 		sb	a5,-54(s0)
 585:../Firmware/RISCV/drivers/core_feature_eclic.h ****     uint8_t intctlbits = (uint8_t)__ECLIC_INTCTLBITS;
 247              		.loc 3 585 13
 248 003c 9147     		li	a5,4
 249 003e A304F4FC 		sb	a5,-55(s0)
 586:../Firmware/RISCV/drivers/core_feature_eclic.h **** 
 587:../Firmware/RISCV/drivers/core_feature_eclic.h ****     if (nlbits == 0) {
 250              		.loc 3 587 8
 251 0042 8347A4FC 		lbu	a5,-54(s0)
 252 0046 F1C7     		beq	a5,zero,.L17
 588:../Firmware/RISCV/drivers/core_feature_eclic.h ****         return;
 589:../Firmware/RISCV/drivers/core_feature_eclic.h ****     }
 590:../Firmware/RISCV/drivers/core_feature_eclic.h **** 
 591:../Firmware/RISCV/drivers/core_feature_eclic.h ****     if (nlbits > intctlbits) {
 253              		.loc 3 591 8
 254 0048 0347A4FC 		lbu	a4,-54(s0)
 255 004c 834794FC 		lbu	a5,-55(s0)
 256 0050 63F6E700 		bleu	a4,a5,.L9
 592:../Firmware/RISCV/drivers/core_feature_eclic.h ****         nlbits = intctlbits;
 257              		.loc 3 592 16
 258 0054 834794FC 		lbu	a5,-55(s0)
 259 0058 2305F4FC 		sb	a5,-54(s0)
 260              	.L9:
 593:../Firmware/RISCV/drivers/core_feature_eclic.h ****     }
 594:../Firmware/RISCV/drivers/core_feature_eclic.h ****     uint8_t maxlvl = ((1 << nlbits) - 1);
 261              		.loc 3 594 26
 262 005c 8347A4FC 		lbu	a5,-54(s0)
 263 0060 0547     		li	a4,1
 264 0062 B317F700 		sll	a5,a4,a5
 265              		.loc 3 594 37
 266 0066 93F7F70F 		andi	a5,a5,0xff
 267              		.loc 3 594 13
 268 006a FD17     		addi	a5,a5,-1
 269 006c 2304F4FC 		sb	a5,-56(s0)
 595:../Firmware/RISCV/drivers/core_feature_eclic.h ****     if (lvl_abs > maxlvl) {
 270              		.loc 3 595 8
 271 0070 0347B4FC 		lbu	a4,-53(s0)
 272 0074 834784FC 		lbu	a5,-56(s0)
 273 0078 63F6E700 		bleu	a4,a5,.L10
 596:../Firmware/RISCV/drivers/core_feature_eclic.h ****         lvl_abs = maxlvl;
 274              		.loc 3 596 17
 275 007c 834784FC 		lbu	a5,-56(s0)
 276 0080 A305F4FC 		sb	a5,-53(s0)
 277              	.L10:
 597:../Firmware/RISCV/drivers/core_feature_eclic.h ****     }
 598:../Firmware/RISCV/drivers/core_feature_eclic.h ****     uint8_t lvl = lvl_abs << (ECLIC_MAX_NLBITS - nlbits);
 278              		.loc 3 598 27
 279 0084 0347B4FC 		lbu	a4,-53(s0)
 280              		.loc 3 598 48
 281 0088 8347A4FC 		lbu	a5,-54(s0)
 282 008c A146     		li	a3,8
 283 008e B387F640 		sub	a5,a3,a5
 284              		.loc 3 598 27
 285 0092 B317F700 		sll	a5,a4,a5
 286              		.loc 3 598 13
 287 0096 A303F4FC 		sb	a5,-57(s0)
 288 009a 8327C4FC 		lw	a5,-52(s0)
 289 009e 2320F4FC 		sw	a5,-64(s0)
 290              	.LBB62:
 291              	.LBB63:
 564:../Firmware/RISCV/drivers/core_feature_eclic.h **** }
 292              		.loc 3 564 18
 293 00a2 370700D2 		li	a4,-771751936
 564:../Firmware/RISCV/drivers/core_feature_eclic.h **** }
 294              		.loc 3 564 30
 295 00a6 832704FC 		lw	a5,-64(s0)
 296 00aa 93870740 		addi	a5,a5,1024
 297 00ae 8A07     		slli	a5,a5,2
 298 00b0 BA97     		add	a5,a4,a5
 299 00b2 83C73700 		lbu	a5,3(a5)
 300 00b6 93F7F70F 		andi	a5,a5,0xff
 301              	.LBE63:
 302              	.LBE62:
 599:../Firmware/RISCV/drivers/core_feature_eclic.h ****     uint8_t cur_ctrl = __ECLIC_GetCtrlIRQ(IRQn);
 303              		.loc 3 599 24
 304 00ba A30FF4FA 		sb	a5,-65(s0)
 600:../Firmware/RISCV/drivers/core_feature_eclic.h ****     cur_ctrl = cur_ctrl << nlbits;
 305              		.loc 3 600 25
 306 00be 0347F4FB 		lbu	a4,-65(s0)
 307 00c2 8347A4FC 		lbu	a5,-54(s0)
 308 00c6 B317F700 		sll	a5,a4,a5
 309              		.loc 3 600 14
 310 00ca A30FF4FA 		sb	a5,-65(s0)
 601:../Firmware/RISCV/drivers/core_feature_eclic.h ****     cur_ctrl = cur_ctrl >> nlbits;
 311              		.loc 3 601 25
 312 00ce 0347F4FB 		lbu	a4,-65(s0)
 313 00d2 8347A4FC 		lbu	a5,-54(s0)
 314 00d6 B357F740 		sra	a5,a4,a5
 315              		.loc 3 601 14
 316 00da A30FF4FA 		sb	a5,-65(s0)
 602:../Firmware/RISCV/drivers/core_feature_eclic.h ****     __ECLIC_SetCtrlIRQ(IRQn, (cur_ctrl | lvl));
 317              		.loc 3 602 5
 318 00de 034774FC 		lbu	a4,-57(s0)
 319 00e2 8347F4FB 		lbu	a5,-65(s0)
 320 00e6 D98F     		or	a5,a4,a5
 321 00e8 93F7F70F 		andi	a5,a5,0xff
 322 00ec 0327C4FC 		lw	a4,-52(s0)
 323 00f0 232CE4FA 		sw	a4,-72(s0)
 324 00f4 A30BF4FA 		sb	a5,-73(s0)
 325              	.LBB64:
 326              	.LBB65:
 548:../Firmware/RISCV/drivers/core_feature_eclic.h **** }
 327              		.loc 3 548 10
 328 00f8 370700D2 		li	a4,-771751936
 548:../Firmware/RISCV/drivers/core_feature_eclic.h **** }
 329              		.loc 3 548 31
 330 00fc 832784FB 		lw	a5,-72(s0)
 331 0100 93870740 		addi	a5,a5,1024
 332 0104 8A07     		slli	a5,a5,2
 333 0106 BA97     		add	a5,a4,a5
 334 0108 034774FB 		lbu	a4,-73(s0)
 335 010c A381E700 		sb	a4,3(a5)
 549:../Firmware/RISCV/drivers/core_feature_eclic.h **** 
 336              		.loc 3 549 1
 337 0110 11A0     		j	.L8
 338              	.L17:
 339              	.LBE65:
 340              	.LBE64:
 588:../Firmware/RISCV/drivers/core_feature_eclic.h ****     }
 341              		.loc 3 588 9
 342 0112 0100     		nop
 343              	.L8:
 344 0114 8327C4FA 		lw	a5,-84(s0)
 345 0118 2324F4FE 		sw	a5,-24(s0)
 346 011c 8347A4FA 		lbu	a5,-86(s0)
 347 0120 A303F4FE 		sb	a5,-25(s0)
 348              	.LBE59:
 349              	.LBE58:
 350              	.LBB66:
 351              	.LBB67:
 352              	.LBB68:
 353              	.LBB69:
 276:../Firmware/RISCV/drivers/core_feature_eclic.h **** }
 354              		.loc 3 276 30
 355 0124 B70700D2 		li	a5,-771751936
 356 0128 83C70700 		lbu	a5,0(a5)
 357 012c 93F7F70F 		andi	a5,a5,0xff
 276:../Firmware/RISCV/drivers/core_feature_eclic.h **** }
 358              		.loc 3 276 13
 359 0130 8583     		srli	a5,a5,1
 360 0132 BD8B     		andi	a5,a5,15
 361              	.LBE69:
 362              	.LBE68:
 603:../Firmware/RISCV/drivers/core_feature_eclic.h **** }
 604:../Firmware/RISCV/drivers/core_feature_eclic.h **** 
 605:../Firmware/RISCV/drivers/core_feature_eclic.h **** /**
 606:../Firmware/RISCV/drivers/core_feature_eclic.h ****  * \brief  Get ECLIC Interrupt level of a specific interrupt
 607:../Firmware/RISCV/drivers/core_feature_eclic.h ****  * \details
 608:../Firmware/RISCV/drivers/core_feature_eclic.h ****  * This function get interrupt level of the specific interrupt \em IRQn.
 609:../Firmware/RISCV/drivers/core_feature_eclic.h ****  * \param [in]      IRQn  Interrupt number
 610:../Firmware/RISCV/drivers/core_feature_eclic.h ****  * \return         Interrupt level
 611:../Firmware/RISCV/drivers/core_feature_eclic.h ****  * \remarks
 612:../Firmware/RISCV/drivers/core_feature_eclic.h ****  * - IRQn must not be negative.
 613:../Firmware/RISCV/drivers/core_feature_eclic.h ****  * \sa
 614:../Firmware/RISCV/drivers/core_feature_eclic.h ****  * - \ref ECLIC_SetLevelIRQ
 615:../Firmware/RISCV/drivers/core_feature_eclic.h ****  */
 616:../Firmware/RISCV/drivers/core_feature_eclic.h **** __STATIC_FORCEINLINE uint8_t __ECLIC_GetLevelIRQ(IRQn_Type IRQn)
 617:../Firmware/RISCV/drivers/core_feature_eclic.h **** {
 618:../Firmware/RISCV/drivers/core_feature_eclic.h ****     uint8_t nlbits = __ECLIC_GetCfgNlbits();
 619:../Firmware/RISCV/drivers/core_feature_eclic.h ****     uint8_t intctlbits = (uint8_t)__ECLIC_INTCTLBITS;
 620:../Firmware/RISCV/drivers/core_feature_eclic.h **** 
 621:../Firmware/RISCV/drivers/core_feature_eclic.h ****     if (nlbits == 0) {
 622:../Firmware/RISCV/drivers/core_feature_eclic.h ****         return 0;
 623:../Firmware/RISCV/drivers/core_feature_eclic.h ****     }
 624:../Firmware/RISCV/drivers/core_feature_eclic.h **** 
 625:../Firmware/RISCV/drivers/core_feature_eclic.h ****     if (nlbits > intctlbits) {
 626:../Firmware/RISCV/drivers/core_feature_eclic.h ****         nlbits = intctlbits;
 627:../Firmware/RISCV/drivers/core_feature_eclic.h ****     }
 628:../Firmware/RISCV/drivers/core_feature_eclic.h ****     uint8_t intctrl = __ECLIC_GetCtrlIRQ(IRQn);
 629:../Firmware/RISCV/drivers/core_feature_eclic.h ****     uint8_t lvl_abs = intctrl >> (ECLIC_MAX_NLBITS - nlbits);
 630:../Firmware/RISCV/drivers/core_feature_eclic.h ****     return lvl_abs;
 631:../Firmware/RISCV/drivers/core_feature_eclic.h **** }
 632:../Firmware/RISCV/drivers/core_feature_eclic.h **** 
 633:../Firmware/RISCV/drivers/core_feature_eclic.h **** /**
 634:../Firmware/RISCV/drivers/core_feature_eclic.h ****  * \brief  Get ECLIC Interrupt priority of a specific interrupt
 635:../Firmware/RISCV/drivers/core_feature_eclic.h ****  * \details
 636:../Firmware/RISCV/drivers/core_feature_eclic.h ****  * This function get interrupt priority of the specific interrupt \em IRQn.
 637:../Firmware/RISCV/drivers/core_feature_eclic.h ****  * \param [in]      IRQn  Interrupt number
 638:../Firmware/RISCV/drivers/core_feature_eclic.h ****  * \param [in]      pri   Interrupt priority
 639:../Firmware/RISCV/drivers/core_feature_eclic.h ****  * \remarks
 640:../Firmware/RISCV/drivers/core_feature_eclic.h ****  * - IRQn must not be negative.
 641:../Firmware/RISCV/drivers/core_feature_eclic.h ****  * - If pri to be set is larger than the max priority allowed, it will be force to be max priority.
 642:../Firmware/RISCV/drivers/core_feature_eclic.h ****  * - Priority width is CLICINTCTLBITS minus clciinfo.nlbits if clciinfo.nlbits
 643:../Firmware/RISCV/drivers/core_feature_eclic.h ****  *   is less than CLICINTCTLBITS. Otherwise priority width is 0.
 644:../Firmware/RISCV/drivers/core_feature_eclic.h ****  * \sa
 645:../Firmware/RISCV/drivers/core_feature_eclic.h ****  * - \ref ECLIC_GetPriorityIRQ
 646:../Firmware/RISCV/drivers/core_feature_eclic.h ****  */
 647:../Firmware/RISCV/drivers/core_feature_eclic.h **** __STATIC_FORCEINLINE void __ECLIC_SetPriorityIRQ(IRQn_Type IRQn, uint8_t pri)
 648:../Firmware/RISCV/drivers/core_feature_eclic.h **** {
 649:../Firmware/RISCV/drivers/core_feature_eclic.h ****     uint8_t nlbits = __ECLIC_GetCfgNlbits();
 363              		.loc 3 649 13
 364 0134 2303F4FE 		sb	a5,-26(s0)
 650:../Firmware/RISCV/drivers/core_feature_eclic.h ****     uint8_t intctlbits = (uint8_t)__ECLIC_INTCTLBITS;
 365              		.loc 3 650 13
 366 0138 9147     		li	a5,4
 367 013a A302F4FE 		sb	a5,-27(s0)
 651:../Firmware/RISCV/drivers/core_feature_eclic.h ****     if (nlbits < intctlbits) {
 368              		.loc 3 651 8
 369 013e 034764FE 		lbu	a4,-26(s0)
 370 0142 834754FE 		lbu	a5,-27(s0)
 371 0146 6376F70E 		bgeu	a4,a5,.L18
 372              	.LBB70:
 652:../Firmware/RISCV/drivers/core_feature_eclic.h ****         uint8_t maxpri = ((1 << (intctlbits - nlbits)) - 1);
 373              		.loc 3 652 45
 374 014a 034754FE 		lbu	a4,-27(s0)
 375 014e 834764FE 		lbu	a5,-26(s0)
 376 0152 B307F740 		sub	a5,a4,a5
 377              		.loc 3 652 30
 378 0156 0547     		li	a4,1
 379 0158 B317F700 		sll	a5,a4,a5
 380              		.loc 3 652 56
 381 015c 93F7F70F 		andi	a5,a5,0xff
 382              		.loc 3 652 17
 383 0160 FD17     		addi	a5,a5,-1
 384 0162 2302F4FE 		sb	a5,-28(s0)
 653:../Firmware/RISCV/drivers/core_feature_eclic.h ****         if (pri > maxpri) {
 385              		.loc 3 653 12
 386 0166 034774FE 		lbu	a4,-25(s0)
 387 016a 834744FE 		lbu	a5,-28(s0)
 388 016e 63F6E700 		bleu	a4,a5,.L14
 654:../Firmware/RISCV/drivers/core_feature_eclic.h ****             pri = maxpri;
 389              		.loc 3 654 17
 390 0172 834744FE 		lbu	a5,-28(s0)
 391 0176 A303F4FE 		sb	a5,-25(s0)
 392              	.L14:
 655:../Firmware/RISCV/drivers/core_feature_eclic.h ****         }
 656:../Firmware/RISCV/drivers/core_feature_eclic.h ****         pri = pri << (ECLIC_MAX_NLBITS - intctlbits);
 393              		.loc 3 656 19
 394 017a 034774FE 		lbu	a4,-25(s0)
 395              		.loc 3 656 40
 396 017e 834754FE 		lbu	a5,-27(s0)
 397 0182 A146     		li	a3,8
 398 0184 B387F640 		sub	a5,a3,a5
 399              		.loc 3 656 19
 400 0188 B317F700 		sll	a5,a4,a5
 401              		.loc 3 656 13
 402 018c A303F4FE 		sb	a5,-25(s0)
 657:../Firmware/RISCV/drivers/core_feature_eclic.h ****         uint8_t mask = ((uint8_t)(-1)) >> intctlbits;
 403              		.loc 3 657 40
 404 0190 834754FE 		lbu	a5,-27(s0)
 405 0194 1307F00F 		li	a4,255
 406 0198 B357F740 		sra	a5,a4,a5
 407              		.loc 3 657 17
 408 019c A301F4FE 		sb	a5,-29(s0)
 658:../Firmware/RISCV/drivers/core_feature_eclic.h ****         pri = pri | mask;
 409              		.loc 3 658 13
 410 01a0 034774FE 		lbu	a4,-25(s0)
 411 01a4 834734FE 		lbu	a5,-29(s0)
 412 01a8 D98F     		or	a5,a4,a5
 413 01aa A303F4FE 		sb	a5,-25(s0)
 414 01ae 832784FE 		lw	a5,-24(s0)
 415 01b2 232EF4FC 		sw	a5,-36(s0)
 416              	.LBB71:
 417              	.LBB72:
 564:../Firmware/RISCV/drivers/core_feature_eclic.h **** }
 418              		.loc 3 564 18
 419 01b6 370700D2 		li	a4,-771751936
 564:../Firmware/RISCV/drivers/core_feature_eclic.h **** }
 420              		.loc 3 564 30
 421 01ba 8327C4FD 		lw	a5,-36(s0)
 422 01be 93870740 		addi	a5,a5,1024
 423 01c2 8A07     		slli	a5,a5,2
 424 01c4 BA97     		add	a5,a4,a5
 425 01c6 83C73700 		lbu	a5,3(a5)
 426 01ca 93F7F70F 		andi	a5,a5,0xff
 427              	.LBE72:
 428              	.LBE71:
 659:../Firmware/RISCV/drivers/core_feature_eclic.h ****         uint8_t cur_ctrl = __ECLIC_GetCtrlIRQ(IRQn);
 429              		.loc 3 659 28
 430 01ce A30DF4FC 		sb	a5,-37(s0)
 660:../Firmware/RISCV/drivers/core_feature_eclic.h ****         cur_ctrl = cur_ctrl >> (ECLIC_MAX_NLBITS - nlbits);
 431              		.loc 3 660 29
 432 01d2 0347B4FD 		lbu	a4,-37(s0)
 433              		.loc 3 660 50
 434 01d6 834764FE 		lbu	a5,-26(s0)
 435 01da A146     		li	a3,8
 436 01dc B387F640 		sub	a5,a3,a5
 437              		.loc 3 660 29
 438 01e0 B357F740 		sra	a5,a4,a5
 439              		.loc 3 660 18
 440 01e4 A30DF4FC 		sb	a5,-37(s0)
 661:../Firmware/RISCV/drivers/core_feature_eclic.h ****         cur_ctrl = cur_ctrl << (ECLIC_MAX_NLBITS - nlbits);
 441              		.loc 3 661 29
 442 01e8 0347B4FD 		lbu	a4,-37(s0)
 443              		.loc 3 661 50
 444 01ec 834764FE 		lbu	a5,-26(s0)
 445 01f0 A146     		li	a3,8
 446 01f2 B387F640 		sub	a5,a3,a5
 447              		.loc 3 661 29
 448 01f6 B317F700 		sll	a5,a4,a5
 449              		.loc 3 661 18
 450 01fa A30DF4FC 		sb	a5,-37(s0)
 662:../Firmware/RISCV/drivers/core_feature_eclic.h ****         __ECLIC_SetCtrlIRQ(IRQn, (cur_ctrl | pri));
 451              		.loc 3 662 9
 452 01fe 034774FE 		lbu	a4,-25(s0)
 453 0202 8347B4FD 		lbu	a5,-37(s0)
 454 0206 D98F     		or	a5,a4,a5
 455 0208 93F7F70F 		andi	a5,a5,0xff
 456 020c 032784FE 		lw	a4,-24(s0)
 457 0210 232AE4FC 		sw	a4,-44(s0)
 458 0214 A309F4FC 		sb	a5,-45(s0)
 459              	.LBB73:
 460              	.LBB74:
 548:../Firmware/RISCV/drivers/core_feature_eclic.h **** }
 461              		.loc 3 548 10
 462 0218 370700D2 		li	a4,-771751936
 548:../Firmware/RISCV/drivers/core_feature_eclic.h **** }
 463              		.loc 3 548 31
 464 021c 832744FD 		lw	a5,-44(s0)
 465 0220 93870740 		addi	a5,a5,1024
 466 0224 8A07     		slli	a5,a5,2
 467 0226 BA97     		add	a5,a4,a5
 468 0228 034734FD 		lbu	a4,-45(s0)
 469 022c A381E700 		sb	a4,3(a5)
 549:../Firmware/RISCV/drivers/core_feature_eclic.h **** 
 470              		.loc 3 549 1
 471 0230 0100     		nop
 472              	.L18:
 473              	.LBE74:
 474              	.LBE73:
 475              	.LBE70:
 663:../Firmware/RISCV/drivers/core_feature_eclic.h ****     }
 664:../Firmware/RISCV/drivers/core_feature_eclic.h **** }
 476              		.loc 3 664 1
 477 0232 0100     		nop
 478 0234 8327C4FA 		lw	a5,-84(s0)
 479 0238 2326F4FE 		sw	a5,-20(s0)
 480              	.LBE67:
 481              	.LBE66:
 482              	.LBB75:
 483              	.LBB76:
 367:../Firmware/RISCV/drivers/core_feature_eclic.h **** }
 484              		.loc 3 367 29
 485 023c 370700D2 		li	a4,-771751936
 486 0240 8327C4FE 		lw	a5,-20(s0)
 487 0244 93870740 		addi	a5,a5,1024
 488 0248 8A07     		slli	a5,a5,2
 489 024a BA97     		add	a5,a4,a5
 490 024c 83C71700 		lbu	a5,1(a5)
 491 0250 93F7F70F 		andi	a5,a5,0xff
 492 0254 B70600D2 		li	a3,-771751936
 493 0258 93E71700 		ori	a5,a5,1
 494 025c 13F7F70F 		andi	a4,a5,0xff
 495 0260 8327C4FE 		lw	a5,-20(s0)
 496 0264 93870740 		addi	a5,a5,1024
 497 0268 8A07     		slli	a5,a5,2
 498 026a B697     		add	a5,a3,a5
 499 026c A380E700 		sb	a4,1(a5)
 368:../Firmware/RISCV/drivers/core_feature_eclic.h **** 
 500              		.loc 3 368 1
 501 0270 0100     		nop
 502              	.LBE76:
 503              	.LBE75:
  97:../Firmware/GD32VW55x_standard_peripheral/Source/gd32vw55x_eclic.c ****     /* level trigger, non-vector mode */
  98:../Firmware/GD32VW55x_standard_peripheral/Source/gd32vw55x_eclic.c ****     ECLIC_SetLevelIRQ(source, level);
  99:../Firmware/GD32VW55x_standard_peripheral/Source/gd32vw55x_eclic.c ****     ECLIC_SetPriorityIRQ(source, priority);
 100:../Firmware/GD32VW55x_standard_peripheral/Source/gd32vw55x_eclic.c ****     ECLIC_EnableIRQ(source);
 101:../Firmware/GD32VW55x_standard_peripheral/Source/gd32vw55x_eclic.c **** }
 504              		.loc 1 101 1
 505 0272 0100     		nop
 506 0274 7644     		lw	s0,92(sp)
 507              		.cfi_restore 8
 508              		.cfi_def_cfa 2, 96
 509 0276 2561     		addi	sp,sp,96
 510              		.cfi_def_cfa_offset 0
 511 0278 8280     		jr	ra
 512              		.cfi_endproc
 513              	.LFE351:
 515              		.section	.text.eclic_irq_disable,"ax",@progbits
 516              		.align	1
 517              		.globl	eclic_irq_disable
 519              	eclic_irq_disable:
 520              	.LFB352:
 102:../Firmware/GD32VW55x_standard_peripheral/Source/gd32vw55x_eclic.c **** 
 103:../Firmware/GD32VW55x_standard_peripheral/Source/gd32vw55x_eclic.c **** /*!
 104:../Firmware/GD32VW55x_standard_peripheral/Source/gd32vw55x_eclic.c ****     \brief      disable the interrupt request
 105:../Firmware/GD32VW55x_standard_peripheral/Source/gd32vw55x_eclic.c ****     \param[in]  source: interrupt request, detailed in IRQn_Type
 106:../Firmware/GD32VW55x_standard_peripheral/Source/gd32vw55x_eclic.c ****     \param[out] none
 107:../Firmware/GD32VW55x_standard_peripheral/Source/gd32vw55x_eclic.c ****     \retval     none
 108:../Firmware/GD32VW55x_standard_peripheral/Source/gd32vw55x_eclic.c **** */
 109:../Firmware/GD32VW55x_standard_peripheral/Source/gd32vw55x_eclic.c **** void eclic_irq_disable(IRQn_Type source)
 110:../Firmware/GD32VW55x_standard_peripheral/Source/gd32vw55x_eclic.c **** {
 521              		.loc 1 110 1
 522              		.cfi_startproc
 523 0000 7971     		addi	sp,sp,-48
 524              		.cfi_def_cfa_offset 48
 525 0002 22D6     		sw	s0,44(sp)
 526              		.cfi_offset 8, -4
 527 0004 0018     		addi	s0,sp,48
 528              		.cfi_def_cfa 8, 0
 529 0006 232EA4FC 		sw	a0,-36(s0)
 530 000a 8327C4FD 		lw	a5,-36(s0)
 531 000e 2326F4FE 		sw	a5,-20(s0)
 532              	.LBB77:
 533              	.LBB78:
 401:../Firmware/RISCV/drivers/core_feature_eclic.h **** }
 534              		.loc 3 401 29
 535 0012 370700D2 		li	a4,-771751936
 536 0016 8327C4FE 		lw	a5,-20(s0)
 537 001a 93870740 		addi	a5,a5,1024
 538 001e 8A07     		slli	a5,a5,2
 539 0020 BA97     		add	a5,a4,a5
 540 0022 83C71700 		lbu	a5,1(a5)
 541 0026 93F7F70F 		andi	a5,a5,0xff
 542 002a B70600D2 		li	a3,-771751936
 543 002e F99B     		andi	a5,a5,-2
 544 0030 13F7F70F 		andi	a4,a5,0xff
 545 0034 8327C4FE 		lw	a5,-20(s0)
 546 0038 93870740 		addi	a5,a5,1024
 547 003c 8A07     		slli	a5,a5,2
 548 003e B697     		add	a5,a3,a5
 549 0040 A380E700 		sb	a4,1(a5)
 402:../Firmware/RISCV/drivers/core_feature_eclic.h **** 
 550              		.loc 3 402 1
 551 0044 0100     		nop
 552              	.LBE78:
 553              	.LBE77:
 111:../Firmware/GD32VW55x_standard_peripheral/Source/gd32vw55x_eclic.c ****     ECLIC_DisableIRQ(source);
 112:../Firmware/GD32VW55x_standard_peripheral/Source/gd32vw55x_eclic.c **** }
 554              		.loc 1 112 1
 555 0046 0100     		nop
 556 0048 3254     		lw	s0,44(sp)
 557              		.cfi_restore 8
 558              		.cfi_def_cfa 2, 48
 559 004a 4561     		addi	sp,sp,48
 560              		.cfi_def_cfa_offset 0
 561 004c 8280     		jr	ra
 562              		.cfi_endproc
 563              	.LFE352:
 565              		.section	.text.eclic_system_reset,"ax",@progbits
 566              		.align	1
 567              		.globl	eclic_system_reset
 569              	eclic_system_reset:
 570              	.LFB353:
 113:../Firmware/GD32VW55x_standard_peripheral/Source/gd32vw55x_eclic.c **** 
 114:../Firmware/GD32VW55x_standard_peripheral/Source/gd32vw55x_eclic.c **** /*!
 115:../Firmware/GD32VW55x_standard_peripheral/Source/gd32vw55x_eclic.c ****     \brief      reset system
 116:../Firmware/GD32VW55x_standard_peripheral/Source/gd32vw55x_eclic.c ****     \param[in]  none
 117:../Firmware/GD32VW55x_standard_peripheral/Source/gd32vw55x_eclic.c ****     \param[out] none
 118:../Firmware/GD32VW55x_standard_peripheral/Source/gd32vw55x_eclic.c ****     \retval     none
 119:../Firmware/GD32VW55x_standard_peripheral/Source/gd32vw55x_eclic.c **** */
 120:../Firmware/GD32VW55x_standard_peripheral/Source/gd32vw55x_eclic.c **** void eclic_system_reset(void)
 121:../Firmware/GD32VW55x_standard_peripheral/Source/gd32vw55x_eclic.c **** {
 571              		.loc 1 121 1
 572              		.cfi_startproc
 573 0000 4111     		addi	sp,sp,-16
 574              		.cfi_def_cfa_offset 16
 575 0002 22C6     		sw	s0,12(sp)
 576              		.cfi_offset 8, -4
 577 0004 0008     		addi	s0,sp,16
 578              		.cfi_def_cfa 8, 0
 579              	.LBB79:
 580              	.LBB80:
 581              		.file 4 "../Firmware/RISCV/drivers/core_feature_timer.h"
   1:../Firmware/RISCV/drivers/core_feature_timer.h **** /*
   2:../Firmware/RISCV/drivers/core_feature_timer.h ****  * Copyright (c) 2019 Nuclei Limited. All rights reserved.
   3:../Firmware/RISCV/drivers/core_feature_timer.h ****  *
   4:../Firmware/RISCV/drivers/core_feature_timer.h ****  * SPDX-License-Identifier: Apache-2.0
   5:../Firmware/RISCV/drivers/core_feature_timer.h ****  *
   6:../Firmware/RISCV/drivers/core_feature_timer.h ****  * Licensed under the Apache License, Version 2.0 (the License); you may
   7:../Firmware/RISCV/drivers/core_feature_timer.h ****  * not use this file except in compliance with the License.
   8:../Firmware/RISCV/drivers/core_feature_timer.h ****  * You may obtain a copy of the License at
   9:../Firmware/RISCV/drivers/core_feature_timer.h ****  *
  10:../Firmware/RISCV/drivers/core_feature_timer.h ****  * www.apache.org/licenses/LICENSE-2.0
  11:../Firmware/RISCV/drivers/core_feature_timer.h ****  *
  12:../Firmware/RISCV/drivers/core_feature_timer.h ****  * Unless required by applicable law or agreed to in writing, software
  13:../Firmware/RISCV/drivers/core_feature_timer.h ****  * distributed under the License is distributed on an AS IS BASIS, WITHOUT
  14:../Firmware/RISCV/drivers/core_feature_timer.h ****  * WARRANTIES OR CONDITIONS OF ANY KIND, either express or implied.
  15:../Firmware/RISCV/drivers/core_feature_timer.h ****  * See the License for the specific language governing permissions and
  16:../Firmware/RISCV/drivers/core_feature_timer.h ****  * limitations under the License.
  17:../Firmware/RISCV/drivers/core_feature_timer.h ****  */
  18:../Firmware/RISCV/drivers/core_feature_timer.h **** #ifndef __CORE_FEATURE_TIMER_H__
  19:../Firmware/RISCV/drivers/core_feature_timer.h **** #define __CORE_FEATURE_TIMER_H__
  20:../Firmware/RISCV/drivers/core_feature_timer.h **** /*!
  21:../Firmware/RISCV/drivers/core_feature_timer.h ****  * @file     core_feature_timer.h
  22:../Firmware/RISCV/drivers/core_feature_timer.h ****  * @brief    System Timer feature API header file for Nuclei N/NX Core
  23:../Firmware/RISCV/drivers/core_feature_timer.h ****  */
  24:../Firmware/RISCV/drivers/core_feature_timer.h **** /*
  25:../Firmware/RISCV/drivers/core_feature_timer.h ****  * System Timer Feature Configuration Macro:
  26:../Firmware/RISCV/drivers/core_feature_timer.h ****  * 1. __SYSTIMER_PRESENT:  Define whether Private System Timer is present or not.
  27:../Firmware/RISCV/drivers/core_feature_timer.h ****  *   * 0: Not present
  28:../Firmware/RISCV/drivers/core_feature_timer.h ****  *   * 1: Present
  29:../Firmware/RISCV/drivers/core_feature_timer.h ****  * 2. __SYSTIMER_BASEADDR:  Define the base address of the System Timer.
  30:../Firmware/RISCV/drivers/core_feature_timer.h ****  */
  31:../Firmware/RISCV/drivers/core_feature_timer.h **** #ifdef __cplusplus
  32:../Firmware/RISCV/drivers/core_feature_timer.h ****  extern "C" {
  33:../Firmware/RISCV/drivers/core_feature_timer.h **** #endif
  34:../Firmware/RISCV/drivers/core_feature_timer.h **** 
  35:../Firmware/RISCV/drivers/core_feature_timer.h **** #if defined(__SYSTIMER_PRESENT) && (__SYSTIMER_PRESENT == 1)
  36:../Firmware/RISCV/drivers/core_feature_timer.h **** /**
  37:../Firmware/RISCV/drivers/core_feature_timer.h ****  * \defgroup NMSIS_Core_SysTimer_Registers     Register Define and Type Definitions Of System Timer
  38:../Firmware/RISCV/drivers/core_feature_timer.h ****  * \ingroup NMSIS_Core_Registers
  39:../Firmware/RISCV/drivers/core_feature_timer.h ****  * \brief   Type definitions and defines for system timer registers.
  40:../Firmware/RISCV/drivers/core_feature_timer.h ****  *
  41:../Firmware/RISCV/drivers/core_feature_timer.h ****  * @{
  42:../Firmware/RISCV/drivers/core_feature_timer.h ****  */
  43:../Firmware/RISCV/drivers/core_feature_timer.h **** /**
  44:../Firmware/RISCV/drivers/core_feature_timer.h ****  * \brief  Structure type to access the System Timer (SysTimer).
  45:../Firmware/RISCV/drivers/core_feature_timer.h ****  * \details
  46:../Firmware/RISCV/drivers/core_feature_timer.h ****  * Structure definition to access the system timer(SysTimer).
  47:../Firmware/RISCV/drivers/core_feature_timer.h ****  * \remarks
  48:../Firmware/RISCV/drivers/core_feature_timer.h ****  * - MSFTRST register is introduced in Nuclei N Core version 1.3(\ref __NUCLEI_N_REV >= 0x0103)
  49:../Firmware/RISCV/drivers/core_feature_timer.h ****  * - MSTOP register is renamed to MTIMECTL register in Nuclei N Core version 1.4(\ref __NUCLEI_N_RE
  50:../Firmware/RISCV/drivers/core_feature_timer.h ****  * - CMPCLREN and CLKSRC bit in MTIMECTL register is introduced in Nuclei N Core version 1.4(\ref _
  51:../Firmware/RISCV/drivers/core_feature_timer.h ****  */
  52:../Firmware/RISCV/drivers/core_feature_timer.h **** typedef struct {
  53:../Firmware/RISCV/drivers/core_feature_timer.h ****     __IOM uint64_t MTIMER;                  /*!< Offset: 0x000 (R/W)  System Timer current value 64
  54:../Firmware/RISCV/drivers/core_feature_timer.h ****     __IOM uint64_t MTIMERCMP;               /*!< Offset: 0x008 (R/W)  System Timer compare Value 64
  55:../Firmware/RISCV/drivers/core_feature_timer.h ****     __IOM uint32_t RESERVED0[0x3F8];        /*!< Offset: 0x010 - 0xFEC Reserved */
  56:../Firmware/RISCV/drivers/core_feature_timer.h ****     __IOM uint32_t MSFTRST;                 /*!< Offset: 0xFF0 (R/W)  System Timer Software Core Re
  57:../Firmware/RISCV/drivers/core_feature_timer.h ****     __IOM uint32_t RESERVED1;               /*!< Offset: 0xFF4 Reserved */
  58:../Firmware/RISCV/drivers/core_feature_timer.h ****     __IOM uint32_t MTIMECTL;                /*!< Offset: 0xFF8 (R/W)  System Timer Control Register
  59:../Firmware/RISCV/drivers/core_feature_timer.h ****     __IOM uint32_t MSIP;                    /*!< Offset: 0xFFC (R/W)  System Timer SW interrupt Reg
  60:../Firmware/RISCV/drivers/core_feature_timer.h **** } SysTimer_Type;
  61:../Firmware/RISCV/drivers/core_feature_timer.h **** 
  62:../Firmware/RISCV/drivers/core_feature_timer.h **** /* Timer Control / Status Register Definitions */
  63:../Firmware/RISCV/drivers/core_feature_timer.h **** #define SysTimer_MTIMECTL_TIMESTOP_Pos      0U                                          /*!< SysTic
  64:../Firmware/RISCV/drivers/core_feature_timer.h **** #define SysTimer_MTIMECTL_TIMESTOP_Msk      (1UL << SysTimer_MTIMECTL_TIMESTOP_Pos)     /*!< SysTic
  65:../Firmware/RISCV/drivers/core_feature_timer.h **** #define SysTimer_MTIMECTL_CMPCLREN_Pos      1U                                          /*!< SysTic
  66:../Firmware/RISCV/drivers/core_feature_timer.h **** #define SysTimer_MTIMECTL_CMPCLREN_Msk      (1UL << SysTimer_MTIMECTL_CMPCLREN_Pos)     /*!< SysTic
  67:../Firmware/RISCV/drivers/core_feature_timer.h **** #define SysTimer_MTIMECTL_CLKSRC_Pos        2U                                          /*!< SysTic
  68:../Firmware/RISCV/drivers/core_feature_timer.h **** #define SysTimer_MTIMECTL_CLKSRC_Msk        (1UL << SysTimer_MTIMECTL_CLKSRC_Pos)       /*!< SysTic
  69:../Firmware/RISCV/drivers/core_feature_timer.h **** 
  70:../Firmware/RISCV/drivers/core_feature_timer.h **** #define SysTimer_MSIP_MSIP_Pos              0U                                          /*!< SysTic
  71:../Firmware/RISCV/drivers/core_feature_timer.h **** #define SysTimer_MSIP_MSIP_Msk              (1UL << SysTimer_MSIP_MSIP_Pos)             /*!< SysTic
  72:../Firmware/RISCV/drivers/core_feature_timer.h **** 
  73:../Firmware/RISCV/drivers/core_feature_timer.h **** #define SysTimer_MTIMER_Msk                 (0xFFFFFFFFFFFFFFFFULL)                     /*!< SysTic
  74:../Firmware/RISCV/drivers/core_feature_timer.h **** #define SysTimer_MTIMERCMP_Msk              (0xFFFFFFFFFFFFFFFFULL)                     /*!< SysTic
  75:../Firmware/RISCV/drivers/core_feature_timer.h **** #define SysTimer_MTIMECTL_Msk               (0xFFFFFFFFUL)                              /*!< SysTic
  76:../Firmware/RISCV/drivers/core_feature_timer.h **** #define SysTimer_MSIP_Msk                   (0xFFFFFFFFUL)                              /*!< SysTic
  77:../Firmware/RISCV/drivers/core_feature_timer.h **** #define SysTimer_MSFTRST_Msk                (0xFFFFFFFFUL)                              /*!< SysTic
  78:../Firmware/RISCV/drivers/core_feature_timer.h **** 
  79:../Firmware/RISCV/drivers/core_feature_timer.h **** #define SysTimer_MSFRST_KEY                 (0x80000A5FUL)                              /*!< SysTic
  80:../Firmware/RISCV/drivers/core_feature_timer.h **** 
  81:../Firmware/RISCV/drivers/core_feature_timer.h **** #ifndef __SYSTIMER_BASEADDR
  82:../Firmware/RISCV/drivers/core_feature_timer.h **** /* Base address of SYSTIMER(__SYSTIMER_BASEADDR) should be defined in <Device.h> */
  83:../Firmware/RISCV/drivers/core_feature_timer.h **** #error "__SYSTIMER_BASEADDR is not defined, please check!"
  84:../Firmware/RISCV/drivers/core_feature_timer.h **** #endif
  85:../Firmware/RISCV/drivers/core_feature_timer.h **** /* System Timer Memory mapping of Device  */
  86:../Firmware/RISCV/drivers/core_feature_timer.h **** #define SysTimer_BASE                       __SYSTIMER_BASEADDR                         /*!< SysTic
  87:../Firmware/RISCV/drivers/core_feature_timer.h **** #define SysTimer                            ((SysTimer_Type *) SysTimer_BASE)           /*!< SysTic
  88:../Firmware/RISCV/drivers/core_feature_timer.h **** /** @} */ /* end of group NMSIS_Core_SysTimer_Registers */
  89:../Firmware/RISCV/drivers/core_feature_timer.h **** 
  90:../Firmware/RISCV/drivers/core_feature_timer.h **** /* ##################################    SysTimer function  #######################################
  91:../Firmware/RISCV/drivers/core_feature_timer.h **** /**
  92:../Firmware/RISCV/drivers/core_feature_timer.h ****  * \defgroup NMSIS_Core_SysTimer SysTimer Functions
  93:../Firmware/RISCV/drivers/core_feature_timer.h ****  * \brief    Functions that configure the Core System Timer.
  94:../Firmware/RISCV/drivers/core_feature_timer.h ****  * @{
  95:../Firmware/RISCV/drivers/core_feature_timer.h ****  */
  96:../Firmware/RISCV/drivers/core_feature_timer.h **** /**
  97:../Firmware/RISCV/drivers/core_feature_timer.h ****  * \brief  Set system timer load value
  98:../Firmware/RISCV/drivers/core_feature_timer.h ****  * \details
  99:../Firmware/RISCV/drivers/core_feature_timer.h ****  * This function set the system timer load value in MTIMER register.
 100:../Firmware/RISCV/drivers/core_feature_timer.h ****  * \param [in]  value   value to set system timer MTIMER register.
 101:../Firmware/RISCV/drivers/core_feature_timer.h ****  * \remarks
 102:../Firmware/RISCV/drivers/core_feature_timer.h ****  * - Load value is 64bits wide.
 103:../Firmware/RISCV/drivers/core_feature_timer.h ****  * - \ref SysTimer_GetLoadValue
 104:../Firmware/RISCV/drivers/core_feature_timer.h ****  */
 105:../Firmware/RISCV/drivers/core_feature_timer.h **** __STATIC_FORCEINLINE void SysTimer_SetLoadValue(uint64_t value)
 106:../Firmware/RISCV/drivers/core_feature_timer.h **** {
 107:../Firmware/RISCV/drivers/core_feature_timer.h ****     SysTimer->MTIMER = value;
 108:../Firmware/RISCV/drivers/core_feature_timer.h **** }
 109:../Firmware/RISCV/drivers/core_feature_timer.h **** 
 110:../Firmware/RISCV/drivers/core_feature_timer.h **** /**
 111:../Firmware/RISCV/drivers/core_feature_timer.h ****  * \brief  Get system timer load value
 112:../Firmware/RISCV/drivers/core_feature_timer.h ****  * \details
 113:../Firmware/RISCV/drivers/core_feature_timer.h ****  * This function get the system timer current value in MTIMER register.
 114:../Firmware/RISCV/drivers/core_feature_timer.h ****  * \return  current value(64bit) of system timer MTIMER register.
 115:../Firmware/RISCV/drivers/core_feature_timer.h ****  * \remarks
 116:../Firmware/RISCV/drivers/core_feature_timer.h ****  * - Load value is 64bits wide.
 117:../Firmware/RISCV/drivers/core_feature_timer.h ****  * - \ref SysTimer_SetLoadValue
 118:../Firmware/RISCV/drivers/core_feature_timer.h ****  */
 119:../Firmware/RISCV/drivers/core_feature_timer.h **** __STATIC_FORCEINLINE uint64_t SysTimer_GetLoadValue(void)
 120:../Firmware/RISCV/drivers/core_feature_timer.h **** {
 121:../Firmware/RISCV/drivers/core_feature_timer.h ****     return SysTimer->MTIMER;
 122:../Firmware/RISCV/drivers/core_feature_timer.h **** }
 123:../Firmware/RISCV/drivers/core_feature_timer.h **** 
 124:../Firmware/RISCV/drivers/core_feature_timer.h **** /**
 125:../Firmware/RISCV/drivers/core_feature_timer.h ****  * \brief  Set system timer compare value
 126:../Firmware/RISCV/drivers/core_feature_timer.h ****  * \details
 127:../Firmware/RISCV/drivers/core_feature_timer.h ****  * This function set the system Timer compare value in MTIMERCMP register.
 128:../Firmware/RISCV/drivers/core_feature_timer.h ****  * \param [in]  value   compare value to set system timer MTIMERCMP register.
 129:../Firmware/RISCV/drivers/core_feature_timer.h ****  * \remarks
 130:../Firmware/RISCV/drivers/core_feature_timer.h ****  * - Compare value is 64bits wide.
 131:../Firmware/RISCV/drivers/core_feature_timer.h ****  * - If compare value is larger than current value timer interrupt generate.
 132:../Firmware/RISCV/drivers/core_feature_timer.h ****  * - Modify the load value or compare value less to clear the interrupt.
 133:../Firmware/RISCV/drivers/core_feature_timer.h ****  * - \ref SysTimer_GetCompareValue
 134:../Firmware/RISCV/drivers/core_feature_timer.h ****  */
 135:../Firmware/RISCV/drivers/core_feature_timer.h **** __STATIC_FORCEINLINE void SysTimer_SetCompareValue(uint64_t value)
 136:../Firmware/RISCV/drivers/core_feature_timer.h **** {
 137:../Firmware/RISCV/drivers/core_feature_timer.h ****     SysTimer->MTIMERCMP = value;
 138:../Firmware/RISCV/drivers/core_feature_timer.h **** }
 139:../Firmware/RISCV/drivers/core_feature_timer.h **** 
 140:../Firmware/RISCV/drivers/core_feature_timer.h **** /**
 141:../Firmware/RISCV/drivers/core_feature_timer.h ****  * \brief  Get system timer compare value
 142:../Firmware/RISCV/drivers/core_feature_timer.h ****  * \details
 143:../Firmware/RISCV/drivers/core_feature_timer.h ****  * This function get the system timer compare value in MTIMERCMP register.
 144:../Firmware/RISCV/drivers/core_feature_timer.h ****  * \return  compare value of system timer MTIMERCMP register.
 145:../Firmware/RISCV/drivers/core_feature_timer.h ****  * \remarks
 146:../Firmware/RISCV/drivers/core_feature_timer.h ****  * - Compare value is 64bits wide.
 147:../Firmware/RISCV/drivers/core_feature_timer.h ****  * - \ref SysTimer_SetCompareValue
 148:../Firmware/RISCV/drivers/core_feature_timer.h ****  */
 149:../Firmware/RISCV/drivers/core_feature_timer.h **** __STATIC_FORCEINLINE uint64_t SysTimer_GetCompareValue(void)
 150:../Firmware/RISCV/drivers/core_feature_timer.h **** {
 151:../Firmware/RISCV/drivers/core_feature_timer.h ****     return SysTimer->MTIMERCMP;
 152:../Firmware/RISCV/drivers/core_feature_timer.h **** }
 153:../Firmware/RISCV/drivers/core_feature_timer.h **** 
 154:../Firmware/RISCV/drivers/core_feature_timer.h **** /**
 155:../Firmware/RISCV/drivers/core_feature_timer.h ****  * \brief  Enable system timer counter running
 156:../Firmware/RISCV/drivers/core_feature_timer.h ****  * \details
 157:../Firmware/RISCV/drivers/core_feature_timer.h ****  * Enable system timer counter running by clear
 158:../Firmware/RISCV/drivers/core_feature_timer.h ****  * TIMESTOP bit in MTIMECTL register.
 159:../Firmware/RISCV/drivers/core_feature_timer.h ****  */
 160:../Firmware/RISCV/drivers/core_feature_timer.h **** __STATIC_FORCEINLINE void SysTimer_Start(void)
 161:../Firmware/RISCV/drivers/core_feature_timer.h **** {
 162:../Firmware/RISCV/drivers/core_feature_timer.h ****     SysTimer->MTIMECTL &= ~(SysTimer_MTIMECTL_TIMESTOP_Msk);
 163:../Firmware/RISCV/drivers/core_feature_timer.h **** }
 164:../Firmware/RISCV/drivers/core_feature_timer.h **** 
 165:../Firmware/RISCV/drivers/core_feature_timer.h **** /**
 166:../Firmware/RISCV/drivers/core_feature_timer.h ****  * \brief  Stop system timer counter running
 167:../Firmware/RISCV/drivers/core_feature_timer.h ****  * \details
 168:../Firmware/RISCV/drivers/core_feature_timer.h ****  * Stop system timer counter running by set
 169:../Firmware/RISCV/drivers/core_feature_timer.h ****  * TIMESTOP bit in MTIMECTL register.
 170:../Firmware/RISCV/drivers/core_feature_timer.h ****  */
 171:../Firmware/RISCV/drivers/core_feature_timer.h **** __STATIC_FORCEINLINE void SysTimer_Stop(void)
 172:../Firmware/RISCV/drivers/core_feature_timer.h **** {
 173:../Firmware/RISCV/drivers/core_feature_timer.h ****     SysTimer->MTIMECTL |= SysTimer_MTIMECTL_TIMESTOP_Msk;
 174:../Firmware/RISCV/drivers/core_feature_timer.h **** }
 175:../Firmware/RISCV/drivers/core_feature_timer.h **** 
 176:../Firmware/RISCV/drivers/core_feature_timer.h **** /**
 177:../Firmware/RISCV/drivers/core_feature_timer.h ****  * \brief  Set system timer control value
 178:../Firmware/RISCV/drivers/core_feature_timer.h ****  * \details
 179:../Firmware/RISCV/drivers/core_feature_timer.h ****  * This function set the system timer MTIMECTL register value.
 180:../Firmware/RISCV/drivers/core_feature_timer.h ****  * \param [in]  mctl    value to set MTIMECTL register
 181:../Firmware/RISCV/drivers/core_feature_timer.h ****  * \remarks
 182:../Firmware/RISCV/drivers/core_feature_timer.h ****  * - Bit TIMESTOP is used to start and stop timer.
 183:../Firmware/RISCV/drivers/core_feature_timer.h ****  *   Clear TIMESTOP bit to 0 to start timer, otherwise to stop timer.
 184:../Firmware/RISCV/drivers/core_feature_timer.h ****  * - Bit CMPCLREN is used to enable auto MTIMER clear to zero when MTIMER >= MTIMERCMP.
 185:../Firmware/RISCV/drivers/core_feature_timer.h ****  *   Clear CMPCLREN bit to 0 to stop auto clear MTIMER feature, otherwise to enable it.
 186:../Firmware/RISCV/drivers/core_feature_timer.h ****  * - Bit CLKSRC is used to select timer clock source.
 187:../Firmware/RISCV/drivers/core_feature_timer.h ****  *   Clear CLKSRC bit to 0 to use *mtime_toggle_a*, otherwise use *core_clk_aon*
 188:../Firmware/RISCV/drivers/core_feature_timer.h ****  * - \ref SysTimer_GetControlValue
 189:../Firmware/RISCV/drivers/core_feature_timer.h ****  */
 190:../Firmware/RISCV/drivers/core_feature_timer.h **** __STATIC_FORCEINLINE void SysTimer_SetControlValue(uint32_t mctl)
 191:../Firmware/RISCV/drivers/core_feature_timer.h **** {
 192:../Firmware/RISCV/drivers/core_feature_timer.h ****     SysTimer->MTIMECTL = (mctl & SysTimer_MTIMECTL_Msk);
 193:../Firmware/RISCV/drivers/core_feature_timer.h **** }
 194:../Firmware/RISCV/drivers/core_feature_timer.h **** 
 195:../Firmware/RISCV/drivers/core_feature_timer.h **** /**
 196:../Firmware/RISCV/drivers/core_feature_timer.h ****  * \brief  Get system timer control value
 197:../Firmware/RISCV/drivers/core_feature_timer.h ****  * \details
 198:../Firmware/RISCV/drivers/core_feature_timer.h ****  * This function get the system timer MTIMECTL register value.
 199:../Firmware/RISCV/drivers/core_feature_timer.h ****  * \return  MTIMECTL register value
 200:../Firmware/RISCV/drivers/core_feature_timer.h ****  * \remarks
 201:../Firmware/RISCV/drivers/core_feature_timer.h ****  * - \ref SysTimer_SetControlValue
 202:../Firmware/RISCV/drivers/core_feature_timer.h ****  */
 203:../Firmware/RISCV/drivers/core_feature_timer.h **** __STATIC_FORCEINLINE uint32_t SysTimer_GetControlValue(void)
 204:../Firmware/RISCV/drivers/core_feature_timer.h **** {
 205:../Firmware/RISCV/drivers/core_feature_timer.h ****     return (SysTimer->MTIMECTL & SysTimer_MTIMECTL_Msk);
 206:../Firmware/RISCV/drivers/core_feature_timer.h **** }
 207:../Firmware/RISCV/drivers/core_feature_timer.h **** 
 208:../Firmware/RISCV/drivers/core_feature_timer.h **** /**
 209:../Firmware/RISCV/drivers/core_feature_timer.h ****  * \brief  Trigger or set software interrupt via system timer
 210:../Firmware/RISCV/drivers/core_feature_timer.h ****  * \details
 211:../Firmware/RISCV/drivers/core_feature_timer.h ****  * This function set the system timer MSIP bit in MSIP register.
 212:../Firmware/RISCV/drivers/core_feature_timer.h ****  * \remarks
 213:../Firmware/RISCV/drivers/core_feature_timer.h ****  * - Set system timer MSIP bit and generate a SW interrupt.
 214:../Firmware/RISCV/drivers/core_feature_timer.h ****  * - \ref SysTimer_ClearSWIRQ
 215:../Firmware/RISCV/drivers/core_feature_timer.h ****  * - \ref SysTimer_GetMsipValue
 216:../Firmware/RISCV/drivers/core_feature_timer.h ****  */
 217:../Firmware/RISCV/drivers/core_feature_timer.h **** __STATIC_FORCEINLINE void SysTimer_SetSWIRQ(void)
 218:../Firmware/RISCV/drivers/core_feature_timer.h **** {
 219:../Firmware/RISCV/drivers/core_feature_timer.h ****     SysTimer->MSIP |= SysTimer_MSIP_MSIP_Msk;
 220:../Firmware/RISCV/drivers/core_feature_timer.h **** }
 221:../Firmware/RISCV/drivers/core_feature_timer.h **** 
 222:../Firmware/RISCV/drivers/core_feature_timer.h **** /**
 223:../Firmware/RISCV/drivers/core_feature_timer.h ****  * \brief  Clear system timer software interrupt pending request
 224:../Firmware/RISCV/drivers/core_feature_timer.h ****  * \details
 225:../Firmware/RISCV/drivers/core_feature_timer.h ****  * This function clear the system timer MSIP bit in MSIP register.
 226:../Firmware/RISCV/drivers/core_feature_timer.h ****  * \remarks
 227:../Firmware/RISCV/drivers/core_feature_timer.h ****  * - Clear system timer MSIP bit in MSIP register to clear the software interrupt pending.
 228:../Firmware/RISCV/drivers/core_feature_timer.h ****  * - \ref SysTimer_SetSWIRQ
 229:../Firmware/RISCV/drivers/core_feature_timer.h ****  * - \ref SysTimer_GetMsipValue
 230:../Firmware/RISCV/drivers/core_feature_timer.h ****  */
 231:../Firmware/RISCV/drivers/core_feature_timer.h **** __STATIC_FORCEINLINE void SysTimer_ClearSWIRQ(void)
 232:../Firmware/RISCV/drivers/core_feature_timer.h **** {
 233:../Firmware/RISCV/drivers/core_feature_timer.h ****     SysTimer->MSIP &= ~SysTimer_MSIP_MSIP_Msk;
 234:../Firmware/RISCV/drivers/core_feature_timer.h **** }
 235:../Firmware/RISCV/drivers/core_feature_timer.h **** 
 236:../Firmware/RISCV/drivers/core_feature_timer.h **** /**
 237:../Firmware/RISCV/drivers/core_feature_timer.h ****  * \brief  Get system timer MSIP register value
 238:../Firmware/RISCV/drivers/core_feature_timer.h ****  * \details
 239:../Firmware/RISCV/drivers/core_feature_timer.h ****  * This function get the system timer MSIP register value.
 240:../Firmware/RISCV/drivers/core_feature_timer.h ****  * \return    Value of Timer MSIP register.
 241:../Firmware/RISCV/drivers/core_feature_timer.h ****  * \remarks
 242:../Firmware/RISCV/drivers/core_feature_timer.h ****  * - Bit0 is SW interrupt flag.
 243:../Firmware/RISCV/drivers/core_feature_timer.h ****  *   Bit0 is 1 then SW interrupt set. Bit0 is 0 then SW interrupt clear.
 244:../Firmware/RISCV/drivers/core_feature_timer.h ****  * - \ref SysTimer_SetSWIRQ
 245:../Firmware/RISCV/drivers/core_feature_timer.h ****  * - \ref SysTimer_ClearSWIRQ
 246:../Firmware/RISCV/drivers/core_feature_timer.h ****  */
 247:../Firmware/RISCV/drivers/core_feature_timer.h **** __STATIC_FORCEINLINE uint32_t SysTimer_GetMsipValue(void)
 248:../Firmware/RISCV/drivers/core_feature_timer.h **** {
 249:../Firmware/RISCV/drivers/core_feature_timer.h ****     return (uint32_t)(SysTimer->MSIP & SysTimer_MSIP_Msk);
 250:../Firmware/RISCV/drivers/core_feature_timer.h **** }
 251:../Firmware/RISCV/drivers/core_feature_timer.h **** 
 252:../Firmware/RISCV/drivers/core_feature_timer.h **** /**
 253:../Firmware/RISCV/drivers/core_feature_timer.h ****  * \brief  Set system timer MSIP register value
 254:../Firmware/RISCV/drivers/core_feature_timer.h ****  * \details
 255:../Firmware/RISCV/drivers/core_feature_timer.h ****  * This function set the system timer MSIP register value.
 256:../Firmware/RISCV/drivers/core_feature_timer.h ****  * \param [in]  msip   value to set MSIP register
 257:../Firmware/RISCV/drivers/core_feature_timer.h ****  */
 258:../Firmware/RISCV/drivers/core_feature_timer.h **** __STATIC_FORCEINLINE void SysTimer_SetMsipValue(uint32_t msip)
 259:../Firmware/RISCV/drivers/core_feature_timer.h **** {
 260:../Firmware/RISCV/drivers/core_feature_timer.h ****     SysTimer->MSIP = (msip & SysTimer_MSIP_Msk);
 261:../Firmware/RISCV/drivers/core_feature_timer.h **** }
 262:../Firmware/RISCV/drivers/core_feature_timer.h **** 
 263:../Firmware/RISCV/drivers/core_feature_timer.h **** /**
 264:../Firmware/RISCV/drivers/core_feature_timer.h ****  * \brief  Do software reset request
 265:../Firmware/RISCV/drivers/core_feature_timer.h ****  * \details
 266:../Firmware/RISCV/drivers/core_feature_timer.h ****  * This function will do software reset request through MTIMER
 267:../Firmware/RISCV/drivers/core_feature_timer.h ****  * - Software need to write \ref SysTimer_MSFRST_KEY to generate software reset request
 268:../Firmware/RISCV/drivers/core_feature_timer.h ****  * - The software request flag can be cleared by reset operation to clear
 269:../Firmware/RISCV/drivers/core_feature_timer.h ****  * \remarks
 270:../Firmware/RISCV/drivers/core_feature_timer.h ****  * - The software reset is sent to SoC, SoC need to generate reset signal and send back to Core
 271:../Firmware/RISCV/drivers/core_feature_timer.h ****  * - This function will not return, it will do while(1) to wait the Core reset happened
 272:../Firmware/RISCV/drivers/core_feature_timer.h ****  */
 273:../Firmware/RISCV/drivers/core_feature_timer.h **** __STATIC_FORCEINLINE void SysTimer_SoftwareReset(void)
 274:../Firmware/RISCV/drivers/core_feature_timer.h **** {
 275:../Firmware/RISCV/drivers/core_feature_timer.h ****     SysTimer->MSFTRST = SysTimer_MSFRST_KEY;
 582              		.loc 4 275 13
 583 0006 370700D1 		li	a4,-788529152
 584              		.loc 4 275 23
 585 000a 8567     		li	a5,4096
 586 000c BA97     		add	a5,a4,a5
 587 000e 37170080 		li	a4,-2147479552
 588 0012 1307F7A5 		addi	a4,a4,-1441
 589 0016 23A8E7FE 		sw	a4,-16(a5)
 590              	.L21:
 276:../Firmware/RISCV/drivers/core_feature_timer.h ****     while(1);
 591              		.loc 4 276 10
 592 001a 01A0     		j	.L21
 593              	.LBE80:
 594              	.LBE79:
 595              		.cfi_endproc
 596              	.LFE353:
 598              		.text
 599              	.Letext0:
 600              		.file 5 "e:\\gd32\\gd32embeddedbuilder_v1.5.2.30854\\tools\\nuclei_riscv_newlibc_prebuilt_win32_20
 601              		.file 6 "e:\\gd32\\gd32embeddedbuilder_v1.5.2.30854\\tools\\nuclei_riscv_newlibc_prebuilt_win32_20
 602              		.file 7 "../Firmware/GD32VW55x_standard_peripheral/gd32vw55x.h"