   1              		.file	"gd32vw55x_trng.c"
   2              		.option nopic
   3              		.attribute arch, "rv32i2p0_m2p0_a2p0_c2p0"
   4              		.attribute unaligned_access, 0
   5              		.attribute stack_align, 16
   6              		.text
   7              	.Ltext0:
   8              		.cfi_sections	.debug_frame
   9              		.section	.text.trng_deinit,"ax",@progbits
  10              		.align	1
  11              		.globl	trng_deinit
  13              	trng_deinit:
  14              	.LFB347:
  15              		.file 1 "../Firmware/GD32VW55x_standard_peripheral/Source/gd32vw55x_trng.c"
   1:../Firmware/GD32VW55x_standard_peripheral/Source/gd32vw55x_trng.c **** /*!
   2:../Firmware/GD32VW55x_standard_peripheral/Source/gd32vw55x_trng.c ****     \file    gd32vw55x_trng.c
   3:../Firmware/GD32VW55x_standard_peripheral/Source/gd32vw55x_trng.c ****     \brief   TRNG driver
   4:../Firmware/GD32VW55x_standard_peripheral/Source/gd32vw55x_trng.c **** 
   5:../Firmware/GD32VW55x_standard_peripheral/Source/gd32vw55x_trng.c ****     \version 2025-01-16, V1.4.0, firmware for GD32VW55x
   6:../Firmware/GD32VW55x_standard_peripheral/Source/gd32vw55x_trng.c **** */
   7:../Firmware/GD32VW55x_standard_peripheral/Source/gd32vw55x_trng.c **** 
   8:../Firmware/GD32VW55x_standard_peripheral/Source/gd32vw55x_trng.c **** /*
   9:../Firmware/GD32VW55x_standard_peripheral/Source/gd32vw55x_trng.c ****     Copyright (c) 2025, GigaDevice Semiconductor Inc.
  10:../Firmware/GD32VW55x_standard_peripheral/Source/gd32vw55x_trng.c **** 
  11:../Firmware/GD32VW55x_standard_peripheral/Source/gd32vw55x_trng.c ****     Redistribution and use in source and binary forms, with or without modification,
  12:../Firmware/GD32VW55x_standard_peripheral/Source/gd32vw55x_trng.c **** are permitted provided that the following conditions are met:
  13:../Firmware/GD32VW55x_standard_peripheral/Source/gd32vw55x_trng.c **** 
  14:../Firmware/GD32VW55x_standard_peripheral/Source/gd32vw55x_trng.c ****     1. Redistributions of source code must retain the above copyright notice, this
  15:../Firmware/GD32VW55x_standard_peripheral/Source/gd32vw55x_trng.c ****        list of conditions and the following disclaimer.
  16:../Firmware/GD32VW55x_standard_peripheral/Source/gd32vw55x_trng.c ****     2. Redistributions in binary form must reproduce the above copyright notice,
  17:../Firmware/GD32VW55x_standard_peripheral/Source/gd32vw55x_trng.c ****        this list of conditions and the following disclaimer in the documentation
  18:../Firmware/GD32VW55x_standard_peripheral/Source/gd32vw55x_trng.c ****        and/or other materials provided with the distribution.
  19:../Firmware/GD32VW55x_standard_peripheral/Source/gd32vw55x_trng.c ****     3. Neither the name of the copyright holder nor the names of its contributors
  20:../Firmware/GD32VW55x_standard_peripheral/Source/gd32vw55x_trng.c ****        may be used to endorse or promote products derived from this software without
  21:../Firmware/GD32VW55x_standard_peripheral/Source/gd32vw55x_trng.c ****        specific prior written permission.
  22:../Firmware/GD32VW55x_standard_peripheral/Source/gd32vw55x_trng.c **** 
  23:../Firmware/GD32VW55x_standard_peripheral/Source/gd32vw55x_trng.c ****     THIS SOFTWARE IS PROVIDED BY THE COPYRIGHT HOLDERS AND CONTRIBUTORS "AS IS"
  24:../Firmware/GD32VW55x_standard_peripheral/Source/gd32vw55x_trng.c **** AND ANY EXPRESS OR IMPLIED WARRANTIES, INCLUDING, BUT NOT LIMITED TO, THE IMPLIED
  25:../Firmware/GD32VW55x_standard_peripheral/Source/gd32vw55x_trng.c **** WARRANTIES OF MERCHANTABILITY AND FITNESS FOR A PARTICULAR PURPOSE ARE DISCLAIMED.
  26:../Firmware/GD32VW55x_standard_peripheral/Source/gd32vw55x_trng.c **** IN NO EVENT SHALL THE COPYRIGHT HOLDER OR CONTRIBUTORS BE LIABLE FOR ANY DIRECT,
  27:../Firmware/GD32VW55x_standard_peripheral/Source/gd32vw55x_trng.c **** INDIRECT, INCIDENTAL, SPECIAL, EXEMPLARY, OR CONSEQUENTIAL DAMAGES (INCLUDING, BUT
  28:../Firmware/GD32VW55x_standard_peripheral/Source/gd32vw55x_trng.c **** NOT LIMITED TO, PROCUREMENT OF SUBSTITUTE GOODS OR SERVICES; LOSS OF USE, DATA, OR
  29:../Firmware/GD32VW55x_standard_peripheral/Source/gd32vw55x_trng.c **** PROFITS; OR BUSINESS INTERRUPTION) HOWEVER CAUSED AND ON ANY THEORY OF LIABILITY,
  30:../Firmware/GD32VW55x_standard_peripheral/Source/gd32vw55x_trng.c **** WHETHER IN CONTRACT, STRICT LIABILITY, OR TORT (INCLUDING NEGLIGENCE OR OTHERWISE)
  31:../Firmware/GD32VW55x_standard_peripheral/Source/gd32vw55x_trng.c **** ARISING IN ANY WAY OUT OF THE USE OF THIS SOFTWARE, EVEN IF ADVISED OF THE POSSIBILITY
  32:../Firmware/GD32VW55x_standard_peripheral/Source/gd32vw55x_trng.c **** OF SUCH DAMAGE.
  33:../Firmware/GD32VW55x_standard_peripheral/Source/gd32vw55x_trng.c **** */
  34:../Firmware/GD32VW55x_standard_peripheral/Source/gd32vw55x_trng.c **** 
  35:../Firmware/GD32VW55x_standard_peripheral/Source/gd32vw55x_trng.c **** #include "gd32vw55x_trng.h"
  36:../Firmware/GD32VW55x_standard_peripheral/Source/gd32vw55x_trng.c **** 
  37:../Firmware/GD32VW55x_standard_peripheral/Source/gd32vw55x_trng.c **** /*!
  38:../Firmware/GD32VW55x_standard_peripheral/Source/gd32vw55x_trng.c ****     \brief      deinitialize the TRNG
  39:../Firmware/GD32VW55x_standard_peripheral/Source/gd32vw55x_trng.c ****     \param[in]  none
  40:../Firmware/GD32VW55x_standard_peripheral/Source/gd32vw55x_trng.c ****     \param[out] none
  41:../Firmware/GD32VW55x_standard_peripheral/Source/gd32vw55x_trng.c ****     \retval     none
  42:../Firmware/GD32VW55x_standard_peripheral/Source/gd32vw55x_trng.c **** */
  43:../Firmware/GD32VW55x_standard_peripheral/Source/gd32vw55x_trng.c **** void trng_deinit(void)
  44:../Firmware/GD32VW55x_standard_peripheral/Source/gd32vw55x_trng.c **** {
  16              		.loc 1 44 1
  17              		.cfi_startproc
  18 0000 4111     		addi	sp,sp,-16
  19              		.cfi_def_cfa_offset 16
  20 0002 06C6     		sw	ra,12(sp)
  21 0004 22C4     		sw	s0,8(sp)
  22              		.cfi_offset 1, -4
  23              		.cfi_offset 8, -8
  24 0006 0008     		addi	s0,sp,16
  25              		.cfi_def_cfa 8, 0
  45:../Firmware/GD32VW55x_standard_peripheral/Source/gd32vw55x_trng.c ****     rcu_periph_reset_enable(RCU_TRNGRST);
  26              		.loc 1 45 5
  27 0008 13056050 		li	a0,1286
  28 000c 97000000 		call	rcu_periph_reset_enable
  28      E7800000 
  46:../Firmware/GD32VW55x_standard_peripheral/Source/gd32vw55x_trng.c ****     rcu_periph_reset_disable(RCU_TRNGRST);
  29              		.loc 1 46 5
  30 0014 13056050 		li	a0,1286
  31 0018 97000000 		call	rcu_periph_reset_disable
  31      E7800000 
  47:../Firmware/GD32VW55x_standard_peripheral/Source/gd32vw55x_trng.c **** }
  32              		.loc 1 47 1
  33 0020 0100     		nop
  34 0022 B240     		lw	ra,12(sp)
  35              		.cfi_restore 1
  36 0024 2244     		lw	s0,8(sp)
  37              		.cfi_restore 8
  38              		.cfi_def_cfa 2, 16
  39 0026 4101     		addi	sp,sp,16
  40              		.cfi_def_cfa_offset 0
  41 0028 8280     		jr	ra
  42              		.cfi_endproc
  43              	.LFE347:
  45              		.section	.text.trng_enable,"ax",@progbits
  46              		.align	1
  47              		.globl	trng_enable
  49              	trng_enable:
  50              	.LFB348:
  48:../Firmware/GD32VW55x_standard_peripheral/Source/gd32vw55x_trng.c **** 
  49:../Firmware/GD32VW55x_standard_peripheral/Source/gd32vw55x_trng.c **** /*!
  50:../Firmware/GD32VW55x_standard_peripheral/Source/gd32vw55x_trng.c ****     \brief      enable the TRNG interface
  51:../Firmware/GD32VW55x_standard_peripheral/Source/gd32vw55x_trng.c ****     \param[in]  none
  52:../Firmware/GD32VW55x_standard_peripheral/Source/gd32vw55x_trng.c ****     \param[out] none
  53:../Firmware/GD32VW55x_standard_peripheral/Source/gd32vw55x_trng.c ****     \retval     none
  54:../Firmware/GD32VW55x_standard_peripheral/Source/gd32vw55x_trng.c **** */
  55:../Firmware/GD32VW55x_standard_peripheral/Source/gd32vw55x_trng.c **** void trng_enable(void)
  56:../Firmware/GD32VW55x_standard_peripheral/Source/gd32vw55x_trng.c **** {
  51              		.loc 1 56 1
  52              		.cfi_startproc
  53 0000 4111     		addi	sp,sp,-16
  54              		.cfi_def_cfa_offset 16
  55 0002 22C6     		sw	s0,12(sp)
  56              		.cfi_offset 8, -4
  57 0004 0008     		addi	s0,sp,16
  58              		.cfi_def_cfa 8, 0
  57:../Firmware/GD32VW55x_standard_peripheral/Source/gd32vw55x_trng.c ****     TRNG_CTL |= TRNG_CTL_TRNGEN;
  59              		.loc 1 57 14
  60 0006 B717064C 		li	a5,1275465728
  61 000a 93870780 		addi	a5,a5,-2048
  62 000e 9843     		lw	a4,0(a5)
  63 0010 B717064C 		li	a5,1275465728
  64 0014 93870780 		addi	a5,a5,-2048
  65 0018 13674700 		ori	a4,a4,4
  66 001c 98C3     		sw	a4,0(a5)
  58:../Firmware/GD32VW55x_standard_peripheral/Source/gd32vw55x_trng.c **** }
  67              		.loc 1 58 1
  68 001e 0100     		nop
  69 0020 3244     		lw	s0,12(sp)
  70              		.cfi_restore 8
  71              		.cfi_def_cfa 2, 16
  72 0022 4101     		addi	sp,sp,16
  73              		.cfi_def_cfa_offset 0
  74 0024 8280     		jr	ra
  75              		.cfi_endproc
  76              	.LFE348:
  78              		.section	.text.trng_disable,"ax",@progbits
  79              		.align	1
  80              		.globl	trng_disable
  82              	trng_disable:
  83              	.LFB349:
  59:../Firmware/GD32VW55x_standard_peripheral/Source/gd32vw55x_trng.c **** 
  60:../Firmware/GD32VW55x_standard_peripheral/Source/gd32vw55x_trng.c **** /*!
  61:../Firmware/GD32VW55x_standard_peripheral/Source/gd32vw55x_trng.c ****     \brief      disable the TRNG interface
  62:../Firmware/GD32VW55x_standard_peripheral/Source/gd32vw55x_trng.c ****     \param[in]  none
  63:../Firmware/GD32VW55x_standard_peripheral/Source/gd32vw55x_trng.c ****     \param[out] none
  64:../Firmware/GD32VW55x_standard_peripheral/Source/gd32vw55x_trng.c ****     \retval     none
  65:../Firmware/GD32VW55x_standard_peripheral/Source/gd32vw55x_trng.c **** */
  66:../Firmware/GD32VW55x_standard_peripheral/Source/gd32vw55x_trng.c **** void trng_disable(void)
  67:../Firmware/GD32VW55x_standard_peripheral/Source/gd32vw55x_trng.c **** {
  84              		.loc 1 67 1
  85              		.cfi_startproc
  86 0000 4111     		addi	sp,sp,-16
  87              		.cfi_def_cfa_offset 16
  88 0002 22C6     		sw	s0,12(sp)
  89              		.cfi_offset 8, -4
  90 0004 0008     		addi	s0,sp,16
  91              		.cfi_def_cfa 8, 0
  68:../Firmware/GD32VW55x_standard_peripheral/Source/gd32vw55x_trng.c ****     TRNG_CTL &= ~TRNG_CTL_TRNGEN;
  92              		.loc 1 68 14
  93 0006 B717064C 		li	a5,1275465728
  94 000a 93870780 		addi	a5,a5,-2048
  95 000e 9843     		lw	a4,0(a5)
  96 0010 B717064C 		li	a5,1275465728
  97 0014 93870780 		addi	a5,a5,-2048
  98 0018 6D9B     		andi	a4,a4,-5
  99 001a 98C3     		sw	a4,0(a5)
  69:../Firmware/GD32VW55x_standard_peripheral/Source/gd32vw55x_trng.c **** }
 100              		.loc 1 69 1
 101 001c 0100     		nop
 102 001e 3244     		lw	s0,12(sp)
 103              		.cfi_restore 8
 104              		.cfi_def_cfa 2, 16
 105 0020 4101     		addi	sp,sp,16
 106              		.cfi_def_cfa_offset 0
 107 0022 8280     		jr	ra
 108              		.cfi_endproc
 109              	.LFE349:
 111              		.section	.text.trng_get_true_random_data,"ax",@progbits
 112              		.align	1
 113              		.globl	trng_get_true_random_data
 115              	trng_get_true_random_data:
 116              	.LFB350:
  70:../Firmware/GD32VW55x_standard_peripheral/Source/gd32vw55x_trng.c **** 
  71:../Firmware/GD32VW55x_standard_peripheral/Source/gd32vw55x_trng.c **** /*!
  72:../Firmware/GD32VW55x_standard_peripheral/Source/gd32vw55x_trng.c ****     \brief      get the true random data
  73:../Firmware/GD32VW55x_standard_peripheral/Source/gd32vw55x_trng.c ****     \param[in]  none
  74:../Firmware/GD32VW55x_standard_peripheral/Source/gd32vw55x_trng.c ****     \param[out] none
  75:../Firmware/GD32VW55x_standard_peripheral/Source/gd32vw55x_trng.c ****     \retval     the generated random data
  76:../Firmware/GD32VW55x_standard_peripheral/Source/gd32vw55x_trng.c **** */
  77:../Firmware/GD32VW55x_standard_peripheral/Source/gd32vw55x_trng.c **** uint32_t trng_get_true_random_data(void)
  78:../Firmware/GD32VW55x_standard_peripheral/Source/gd32vw55x_trng.c **** {
 117              		.loc 1 78 1
 118              		.cfi_startproc
 119 0000 4111     		addi	sp,sp,-16
 120              		.cfi_def_cfa_offset 16
 121 0002 22C6     		sw	s0,12(sp)
 122              		.cfi_offset 8, -4
 123 0004 0008     		addi	s0,sp,16
 124              		.cfi_def_cfa 8, 0
  79:../Firmware/GD32VW55x_standard_peripheral/Source/gd32vw55x_trng.c ****     return (TRNG_DATA);
 125              		.loc 1 79 13
 126 0006 B717064C 		li	a5,1275465728
 127 000a 93878780 		addi	a5,a5,-2040
 128 000e 9C43     		lw	a5,0(a5)
  80:../Firmware/GD32VW55x_standard_peripheral/Source/gd32vw55x_trng.c **** }
 129              		.loc 1 80 1
 130 0010 3E85     		mv	a0,a5
 131 0012 3244     		lw	s0,12(sp)
 132              		.cfi_restore 8
 133              		.cfi_def_cfa 2, 16
 134 0014 4101     		addi	sp,sp,16
 135              		.cfi_def_cfa_offset 0
 136 0016 8280     		jr	ra
 137              		.cfi_endproc
 138              	.LFE350:
 140              		.section	.text.trng_interrupt_enable,"ax",@progbits
 141              		.align	1
 142              		.globl	trng_interrupt_enable
 144              	trng_interrupt_enable:
 145              	.LFB351:
  81:../Firmware/GD32VW55x_standard_peripheral/Source/gd32vw55x_trng.c **** 
  82:../Firmware/GD32VW55x_standard_peripheral/Source/gd32vw55x_trng.c **** /*!
  83:../Firmware/GD32VW55x_standard_peripheral/Source/gd32vw55x_trng.c ****     \brief      enable the TRNG interrupt
  84:../Firmware/GD32VW55x_standard_peripheral/Source/gd32vw55x_trng.c ****     \param[in]  none
  85:../Firmware/GD32VW55x_standard_peripheral/Source/gd32vw55x_trng.c ****     \param[out] none
  86:../Firmware/GD32VW55x_standard_peripheral/Source/gd32vw55x_trng.c ****     \retval     none
  87:../Firmware/GD32VW55x_standard_peripheral/Source/gd32vw55x_trng.c **** */
  88:../Firmware/GD32VW55x_standard_peripheral/Source/gd32vw55x_trng.c **** void trng_interrupt_enable(void)
  89:../Firmware/GD32VW55x_standard_peripheral/Source/gd32vw55x_trng.c **** {
 146              		.loc 1 89 1
 147              		.cfi_startproc
 148 0000 4111     		addi	sp,sp,-16
 149              		.cfi_def_cfa_offset 16
 150 0002 22C6     		sw	s0,12(sp)
 151              		.cfi_offset 8, -4
 152 0004 0008     		addi	s0,sp,16
 153              		.cfi_def_cfa 8, 0
  90:../Firmware/GD32VW55x_standard_peripheral/Source/gd32vw55x_trng.c ****     TRNG_CTL |= TRNG_CTL_IE;
 154              		.loc 1 90 14
 155 0006 B717064C 		li	a5,1275465728
 156 000a 93870780 		addi	a5,a5,-2048
 157 000e 9843     		lw	a4,0(a5)
 158 0010 B717064C 		li	a5,1275465728
 159 0014 93870780 		addi	a5,a5,-2048
 160 0018 13678700 		ori	a4,a4,8
 161 001c 98C3     		sw	a4,0(a5)
  91:../Firmware/GD32VW55x_standard_peripheral/Source/gd32vw55x_trng.c **** }
 162              		.loc 1 91 1
 163 001e 0100     		nop
 164 0020 3244     		lw	s0,12(sp)
 165              		.cfi_restore 8
 166              		.cfi_def_cfa 2, 16
 167 0022 4101     		addi	sp,sp,16
 168              		.cfi_def_cfa_offset 0
 169 0024 8280     		jr	ra
 170              		.cfi_endproc
 171              	.LFE351:
 173              		.section	.text.trng_interrupt_disable,"ax",@progbits
 174              		.align	1
 175              		.globl	trng_interrupt_disable
 177              	trng_interrupt_disable:
 178              	.LFB352:
  92:../Firmware/GD32VW55x_standard_peripheral/Source/gd32vw55x_trng.c **** 
  93:../Firmware/GD32VW55x_standard_peripheral/Source/gd32vw55x_trng.c **** /*!
  94:../Firmware/GD32VW55x_standard_peripheral/Source/gd32vw55x_trng.c ****     \brief      disable the TRNG interrupt
  95:../Firmware/GD32VW55x_standard_peripheral/Source/gd32vw55x_trng.c ****     \param[in]  none
  96:../Firmware/GD32VW55x_standard_peripheral/Source/gd32vw55x_trng.c ****     \param[out] none
  97:../Firmware/GD32VW55x_standard_peripheral/Source/gd32vw55x_trng.c ****     \retval     none
  98:../Firmware/GD32VW55x_standard_peripheral/Source/gd32vw55x_trng.c **** */
  99:../Firmware/GD32VW55x_standard_peripheral/Source/gd32vw55x_trng.c **** void trng_interrupt_disable(void)
 100:../Firmware/GD32VW55x_standard_peripheral/Source/gd32vw55x_trng.c **** {
 179              		.loc 1 100 1
 180              		.cfi_startproc
 181 0000 4111     		addi	sp,sp,-16
 182              		.cfi_def_cfa_offset 16
 183 0002 22C6     		sw	s0,12(sp)
 184              		.cfi_offset 8, -4
 185 0004 0008     		addi	s0,sp,16
 186              		.cfi_def_cfa 8, 0
 101:../Firmware/GD32VW55x_standard_peripheral/Source/gd32vw55x_trng.c ****     TRNG_CTL &= ~TRNG_CTL_IE;
 187              		.loc 1 101 14
 188 0006 B717064C 		li	a5,1275465728
 189 000a 93870780 		addi	a5,a5,-2048
 190 000e 9843     		lw	a4,0(a5)
 191 0010 B717064C 		li	a5,1275465728
 192 0014 93870780 		addi	a5,a5,-2048
 193 0018 5D9B     		andi	a4,a4,-9
 194 001a 98C3     		sw	a4,0(a5)
 102:../Firmware/GD32VW55x_standard_peripheral/Source/gd32vw55x_trng.c **** }
 195              		.loc 1 102 1
 196 001c 0100     		nop
 197 001e 3244     		lw	s0,12(sp)
 198              		.cfi_restore 8
 199              		.cfi_def_cfa 2, 16
 200 0020 4101     		addi	sp,sp,16
 201              		.cfi_def_cfa_offset 0
 202 0022 8280     		jr	ra
 203              		.cfi_endproc
 204              	.LFE352:
 206              		.section	.text.trng_flag_get,"ax",@progbits
 207              		.align	1
 208              		.globl	trng_flag_get
 210              	trng_flag_get:
 211              	.LFB353:
 103:../Firmware/GD32VW55x_standard_peripheral/Source/gd32vw55x_trng.c **** 
 104:../Firmware/GD32VW55x_standard_peripheral/Source/gd32vw55x_trng.c **** /*!
 105:../Firmware/GD32VW55x_standard_peripheral/Source/gd32vw55x_trng.c ****     \brief      get the TRNG status flags
 106:../Firmware/GD32VW55x_standard_peripheral/Source/gd32vw55x_trng.c ****     \param[in]  flag: TRNG status flag, refer to trng_flag_enum
 107:../Firmware/GD32VW55x_standard_peripheral/Source/gd32vw55x_trng.c ****                 only one parameter can be selected which is shown as below:
 108:../Firmware/GD32VW55x_standard_peripheral/Source/gd32vw55x_trng.c ****       \arg        TRNG_FLAG_DRDY: random data ready status
 109:../Firmware/GD32VW55x_standard_peripheral/Source/gd32vw55x_trng.c ****       \arg        TRNG_FLAG_CECS: clock error current status
 110:../Firmware/GD32VW55x_standard_peripheral/Source/gd32vw55x_trng.c ****       \arg        TRNG_FLAG_SECS: seed error current status
 111:../Firmware/GD32VW55x_standard_peripheral/Source/gd32vw55x_trng.c ****     \param[out] none
 112:../Firmware/GD32VW55x_standard_peripheral/Source/gd32vw55x_trng.c ****     \retval     FlagStatus: SET or RESET
 113:../Firmware/GD32VW55x_standard_peripheral/Source/gd32vw55x_trng.c **** */
 114:../Firmware/GD32VW55x_standard_peripheral/Source/gd32vw55x_trng.c **** FlagStatus trng_flag_get(trng_flag_enum flag)
 115:../Firmware/GD32VW55x_standard_peripheral/Source/gd32vw55x_trng.c **** {
 212              		.loc 1 115 1
 213              		.cfi_startproc
 214 0000 0111     		addi	sp,sp,-32
 215              		.cfi_def_cfa_offset 32
 216 0002 22CE     		sw	s0,28(sp)
 217              		.cfi_offset 8, -4
 218 0004 0010     		addi	s0,sp,32
 219              		.cfi_def_cfa 8, 0
 220 0006 2326A4FE 		sw	a0,-20(s0)
 116:../Firmware/GD32VW55x_standard_peripheral/Source/gd32vw55x_trng.c ****     if(RESET != (TRNG_STAT & flag)) {
 221              		.loc 1 116 18
 222 000a B717064C 		li	a5,1275465728
 223 000e 93874780 		addi	a5,a5,-2044
 224 0012 9843     		lw	a4,0(a5)
 225              		.loc 1 116 28
 226 0014 8327C4FE 		lw	a5,-20(s0)
 227 0018 F98F     		and	a5,a4,a5
 228              		.loc 1 116 7
 229 001a 99C3     		beq	a5,zero,.L9
 117:../Firmware/GD32VW55x_standard_peripheral/Source/gd32vw55x_trng.c ****         return SET;
 230              		.loc 1 117 16
 231 001c 8547     		li	a5,1
 232 001e 11A0     		j	.L10
 233              	.L9:
 118:../Firmware/GD32VW55x_standard_peripheral/Source/gd32vw55x_trng.c ****     } else {
 119:../Firmware/GD32VW55x_standard_peripheral/Source/gd32vw55x_trng.c ****         return RESET;
 234              		.loc 1 119 16
 235 0020 8147     		li	a5,0
 236              	.L10:
 120:../Firmware/GD32VW55x_standard_peripheral/Source/gd32vw55x_trng.c ****     }
 121:../Firmware/GD32VW55x_standard_peripheral/Source/gd32vw55x_trng.c **** }
 237              		.loc 1 121 1
 238 0022 3E85     		mv	a0,a5
 239 0024 7244     		lw	s0,28(sp)
 240              		.cfi_restore 8
 241              		.cfi_def_cfa 2, 32
 242 0026 0561     		addi	sp,sp,32
 243              		.cfi_def_cfa_offset 0
 244 0028 8280     		jr	ra
 245              		.cfi_endproc
 246              	.LFE353:
 248              		.section	.text.trng_interrupt_flag_get,"ax",@progbits
 249              		.align	1
 250              		.globl	trng_interrupt_flag_get
 252              	trng_interrupt_flag_get:
 253              	.LFB354:
 122:../Firmware/GD32VW55x_standard_peripheral/Source/gd32vw55x_trng.c **** 
 123:../Firmware/GD32VW55x_standard_peripheral/Source/gd32vw55x_trng.c **** /*!
 124:../Firmware/GD32VW55x_standard_peripheral/Source/gd32vw55x_trng.c ****     \brief      get the TRNG interrupt flags
 125:../Firmware/GD32VW55x_standard_peripheral/Source/gd32vw55x_trng.c ****     \param[in]  int_flag: TRNG interrupt flag, refer to trng_int_flag_enum
 126:../Firmware/GD32VW55x_standard_peripheral/Source/gd32vw55x_trng.c ****                 only one parameter can be selected which is shown as below:
 127:../Firmware/GD32VW55x_standard_peripheral/Source/gd32vw55x_trng.c ****       \arg        TRNG_INT_FLAG_CEIF: clock error interrupt flag
 128:../Firmware/GD32VW55x_standard_peripheral/Source/gd32vw55x_trng.c ****       \arg        TRNG_INT_FLAG_SEIF: seed error interrupt flag
 129:../Firmware/GD32VW55x_standard_peripheral/Source/gd32vw55x_trng.c ****     \param[out] none
 130:../Firmware/GD32VW55x_standard_peripheral/Source/gd32vw55x_trng.c ****     \retval     FlagStatus: SET or RESET
 131:../Firmware/GD32VW55x_standard_peripheral/Source/gd32vw55x_trng.c **** */
 132:../Firmware/GD32VW55x_standard_peripheral/Source/gd32vw55x_trng.c **** FlagStatus trng_interrupt_flag_get(trng_int_flag_enum int_flag)
 133:../Firmware/GD32VW55x_standard_peripheral/Source/gd32vw55x_trng.c **** {
 254              		.loc 1 133 1
 255              		.cfi_startproc
 256 0000 0111     		addi	sp,sp,-32
 257              		.cfi_def_cfa_offset 32
 258 0002 22CE     		sw	s0,28(sp)
 259              		.cfi_offset 8, -4
 260 0004 0010     		addi	s0,sp,32
 261              		.cfi_def_cfa 8, 0
 262 0006 2326A4FE 		sw	a0,-20(s0)
 134:../Firmware/GD32VW55x_standard_peripheral/Source/gd32vw55x_trng.c ****     if(RESET != (TRNG_STAT & int_flag)) {
 263              		.loc 1 134 18
 264 000a B717064C 		li	a5,1275465728
 265 000e 93874780 		addi	a5,a5,-2044
 266 0012 9843     		lw	a4,0(a5)
 267              		.loc 1 134 28
 268 0014 8327C4FE 		lw	a5,-20(s0)
 269 0018 F98F     		and	a5,a4,a5
 270              		.loc 1 134 7
 271 001a 99C3     		beq	a5,zero,.L12
 135:../Firmware/GD32VW55x_standard_peripheral/Source/gd32vw55x_trng.c ****         return SET;
 272              		.loc 1 135 16
 273 001c 8547     		li	a5,1
 274 001e 11A0     		j	.L13
 275              	.L12:
 136:../Firmware/GD32VW55x_standard_peripheral/Source/gd32vw55x_trng.c ****     } else {
 137:../Firmware/GD32VW55x_standard_peripheral/Source/gd32vw55x_trng.c ****         return RESET;
 276              		.loc 1 137 16
 277 0020 8147     		li	a5,0
 278              	.L13:
 138:../Firmware/GD32VW55x_standard_peripheral/Source/gd32vw55x_trng.c ****     }
 139:../Firmware/GD32VW55x_standard_peripheral/Source/gd32vw55x_trng.c **** }
 279              		.loc 1 139 1
 280 0022 3E85     		mv	a0,a5
 281 0024 7244     		lw	s0,28(sp)
 282              		.cfi_restore 8
 283              		.cfi_def_cfa 2, 32
 284 0026 0561     		addi	sp,sp,32
 285              		.cfi_def_cfa_offset 0
 286 0028 8280     		jr	ra
 287              		.cfi_endproc
 288              	.LFE354:
 290              		.section	.text.trng_interrupt_flag_clear,"ax",@progbits
 291              		.align	1
 292              		.globl	trng_interrupt_flag_clear
 294              	trng_interrupt_flag_clear:
 295              	.LFB355:
 140:../Firmware/GD32VW55x_standard_peripheral/Source/gd32vw55x_trng.c **** 
 141:../Firmware/GD32VW55x_standard_peripheral/Source/gd32vw55x_trng.c **** /*!
 142:../Firmware/GD32VW55x_standard_peripheral/Source/gd32vw55x_trng.c ****     \brief      clear the TRNG interrupt flags
 143:../Firmware/GD32VW55x_standard_peripheral/Source/gd32vw55x_trng.c ****     \param[in]  int_flag: TRNG interrupt flag, refer to trng_int_flag_enum
 144:../Firmware/GD32VW55x_standard_peripheral/Source/gd32vw55x_trng.c ****                 only one parameter can be selected which is shown as below:
 145:../Firmware/GD32VW55x_standard_peripheral/Source/gd32vw55x_trng.c ****       \arg        TRNG_INT_FLAG_CEIF: clock error interrupt flag
 146:../Firmware/GD32VW55x_standard_peripheral/Source/gd32vw55x_trng.c ****       \arg        TRNG_INT_FLAG_SEIF: seed error interrupt flag
 147:../Firmware/GD32VW55x_standard_peripheral/Source/gd32vw55x_trng.c ****     \param[out] none
 148:../Firmware/GD32VW55x_standard_peripheral/Source/gd32vw55x_trng.c ****     \retval     none
 149:../Firmware/GD32VW55x_standard_peripheral/Source/gd32vw55x_trng.c **** */
 150:../Firmware/GD32VW55x_standard_peripheral/Source/gd32vw55x_trng.c **** void trng_interrupt_flag_clear(trng_int_flag_enum int_flag)
 151:../Firmware/GD32VW55x_standard_peripheral/Source/gd32vw55x_trng.c **** {
 296              		.loc 1 151 1
 297              		.cfi_startproc
 298 0000 0111     		addi	sp,sp,-32
 299              		.cfi_def_cfa_offset 32
 300 0002 22CE     		sw	s0,28(sp)
 301              		.cfi_offset 8, -4
 302 0004 0010     		addi	s0,sp,32
 303              		.cfi_def_cfa 8, 0
 304 0006 2326A4FE 		sw	a0,-20(s0)
 152:../Firmware/GD32VW55x_standard_peripheral/Source/gd32vw55x_trng.c ****     TRNG_STAT &= ~(uint32_t)int_flag;
 305              		.loc 1 152 15
 306 000a B717064C 		li	a5,1275465728
 307 000e 93874780 		addi	a5,a5,-2044
 308 0012 9443     		lw	a3,0(a5)
 309              		.loc 1 152 18
 310 0014 8327C4FE 		lw	a5,-20(s0)
 311 0018 13C7F7FF 		not	a4,a5
 312              		.loc 1 152 15
 313 001c B717064C 		li	a5,1275465728
 314 0020 93874780 		addi	a5,a5,-2044
 315 0024 758F     		and	a4,a3,a4
 316 0026 98C3     		sw	a4,0(a5)
 153:../Firmware/GD32VW55x_standard_peripheral/Source/gd32vw55x_trng.c **** }
 317              		.loc 1 153 1
 318 0028 0100     		nop
 319 002a 7244     		lw	s0,28(sp)
 320              		.cfi_restore 8
 321              		.cfi_def_cfa 2, 32
 322 002c 0561     		addi	sp,sp,32
 323              		.cfi_def_cfa_offset 0
 324 002e 8280     		jr	ra
 325              		.cfi_endproc
 326              	.LFE355:
 328              		.text
 329              	.Letext0:
 330              		.file 2 "e:\\gd32\\gd32embeddedbuilder_v1.5.2.30854\\tools\\nuclei_riscv_newlibc_prebuilt_win32_20
 331              		.file 3 "e:\\gd32\\gd32embeddedbuilder_v1.5.2.30854\\tools\\nuclei_riscv_newlibc_prebuilt_win32_20
 332              		.file 4 "../Firmware/GD32VW55x_standard_peripheral/gd32vw55x.h"
 333              		.file 5 "../Firmware/GD32VW55x_standard_peripheral/Include/gd32vw55x_rcu.h"
 334              		.file 6 "../Firmware/GD32VW55x_standard_peripheral/Include/gd32vw55x_trng.h"