   1              		.file	"gd32vw55x_rcu.c"
   2              		.option nopic
   3              		.attribute arch, "rv32i2p0_m2p0_a2p0_c2p0"
   4              		.attribute unaligned_access, 0
   5              		.attribute stack_align, 16
   6              		.text
   7              	.Ltext0:
   8              		.cfi_sections	.debug_frame
   9              		.section	.text.rcu_deinit,"ax",@progbits
  10              		.align	1
  11              		.globl	rcu_deinit
  13              	rcu_deinit:
  14              	.LFB347:
  15              		.file 1 "../Firmware/GD32VW55x_standard_peripheral/Source/gd32vw55x_rcu.c"
   1:../Firmware/GD32VW55x_standard_peripheral/Source/gd32vw55x_rcu.c **** /*!
   2:../Firmware/GD32VW55x_standard_peripheral/Source/gd32vw55x_rcu.c ****     \file    gd32vw55x_rcu.c
   3:../Firmware/GD32VW55x_standard_peripheral/Source/gd32vw55x_rcu.c ****     \brief   RCU driver
   4:../Firmware/GD32VW55x_standard_peripheral/Source/gd32vw55x_rcu.c **** 
   5:../Firmware/GD32VW55x_standard_peripheral/Source/gd32vw55x_rcu.c ****     \version 2025-01-16, V1.4.0, firmware for GD32VW55x
   6:../Firmware/GD32VW55x_standard_peripheral/Source/gd32vw55x_rcu.c **** */
   7:../Firmware/GD32VW55x_standard_peripheral/Source/gd32vw55x_rcu.c **** 
   8:../Firmware/GD32VW55x_standard_peripheral/Source/gd32vw55x_rcu.c **** /*
   9:../Firmware/GD32VW55x_standard_peripheral/Source/gd32vw55x_rcu.c ****     Copyright (c) 2025, GigaDevice Semiconductor Inc.
  10:../Firmware/GD32VW55x_standard_peripheral/Source/gd32vw55x_rcu.c **** 
  11:../Firmware/GD32VW55x_standard_peripheral/Source/gd32vw55x_rcu.c ****     Redistribution and use in source and binary forms, with or without modification,
  12:../Firmware/GD32VW55x_standard_peripheral/Source/gd32vw55x_rcu.c **** are permitted provided that the following conditions are met:
  13:../Firmware/GD32VW55x_standard_peripheral/Source/gd32vw55x_rcu.c **** 
  14:../Firmware/GD32VW55x_standard_peripheral/Source/gd32vw55x_rcu.c ****     1. Redistributions of source code must retain the above copyright notice, this
  15:../Firmware/GD32VW55x_standard_peripheral/Source/gd32vw55x_rcu.c ****        list of conditions and the following disclaimer.
  16:../Firmware/GD32VW55x_standard_peripheral/Source/gd32vw55x_rcu.c ****     2. Redistributions in binary form must reproduce the above copyright notice,
  17:../Firmware/GD32VW55x_standard_peripheral/Source/gd32vw55x_rcu.c ****        this list of conditions and the following disclaimer in the documentation
  18:../Firmware/GD32VW55x_standard_peripheral/Source/gd32vw55x_rcu.c ****        and/or other materials provided with the distribution.
  19:../Firmware/GD32VW55x_standard_peripheral/Source/gd32vw55x_rcu.c ****     3. Neither the name of the copyright holder nor the names of its contributors
  20:../Firmware/GD32VW55x_standard_peripheral/Source/gd32vw55x_rcu.c ****        may be used to endorse or promote products derived from this software without
  21:../Firmware/GD32VW55x_standard_peripheral/Source/gd32vw55x_rcu.c ****        specific prior written permission.
  22:../Firmware/GD32VW55x_standard_peripheral/Source/gd32vw55x_rcu.c **** 
  23:../Firmware/GD32VW55x_standard_peripheral/Source/gd32vw55x_rcu.c ****     THIS SOFTWARE IS PROVIDED BY THE COPYRIGHT HOLDERS AND CONTRIBUTORS "AS IS"
  24:../Firmware/GD32VW55x_standard_peripheral/Source/gd32vw55x_rcu.c **** AND ANY EXPRESS OR IMPLIED WARRANTIES, INCLUDING, BUT NOT LIMITED TO, THE IMPLIED
  25:../Firmware/GD32VW55x_standard_peripheral/Source/gd32vw55x_rcu.c **** WARRANTIES OF MERCHANTABILITY AND FITNESS FOR A PARTICULAR PURPOSE ARE DISCLAIMED.
  26:../Firmware/GD32VW55x_standard_peripheral/Source/gd32vw55x_rcu.c **** IN NO EVENT SHALL THE COPYRIGHT HOLDER OR CONTRIBUTORS BE LIABLE FOR ANY DIRECT,
  27:../Firmware/GD32VW55x_standard_peripheral/Source/gd32vw55x_rcu.c **** INDIRECT, INCIDENTAL, SPECIAL, EXEMPLARY, OR CONSEQUENTIAL DAMAGES (INCLUDING, BUT
  28:../Firmware/GD32VW55x_standard_peripheral/Source/gd32vw55x_rcu.c **** NOT LIMITED TO, PROCUREMENT OF SUBSTITUTE GOODS OR SERVICES; LOSS OF USE, DATA, OR
  29:../Firmware/GD32VW55x_standard_peripheral/Source/gd32vw55x_rcu.c **** PROFITS; OR BUSINESS INTERRUPTION) HOWEVER CAUSED AND ON ANY THEORY OF LIABILITY,
  30:../Firmware/GD32VW55x_standard_peripheral/Source/gd32vw55x_rcu.c **** WHETHER IN CONTRACT, STRICT LIABILITY, OR TORT (INCLUDING NEGLIGENCE OR OTHERWISE)
  31:../Firmware/GD32VW55x_standard_peripheral/Source/gd32vw55x_rcu.c **** ARISING IN ANY WAY OUT OF THE USE OF THIS SOFTWARE, EVEN IF ADVISED OF THE POSSIBILITY
  32:../Firmware/GD32VW55x_standard_peripheral/Source/gd32vw55x_rcu.c **** OF SUCH DAMAGE.
  33:../Firmware/GD32VW55x_standard_peripheral/Source/gd32vw55x_rcu.c **** */
  34:../Firmware/GD32VW55x_standard_peripheral/Source/gd32vw55x_rcu.c **** 
  35:../Firmware/GD32VW55x_standard_peripheral/Source/gd32vw55x_rcu.c **** #include "gd32vw55x_rcu.h"
  36:../Firmware/GD32VW55x_standard_peripheral/Source/gd32vw55x_rcu.c **** 
  37:../Firmware/GD32VW55x_standard_peripheral/Source/gd32vw55x_rcu.c **** /* define clock source */
  38:../Firmware/GD32VW55x_standard_peripheral/Source/gd32vw55x_rcu.c **** #define SEL_IRC16M                  0x00U                            /* IRC16M is selected as CK_SY
  39:../Firmware/GD32VW55x_standard_peripheral/Source/gd32vw55x_rcu.c **** #define SEL_HXTAL                   0x01U                            /* HXTAL is selected as CK_SYS
  40:../Firmware/GD32VW55x_standard_peripheral/Source/gd32vw55x_rcu.c **** #define SEL_PLLDIG                  0x02U                            /* PLLDIG is selected as CK_SY
  41:../Firmware/GD32VW55x_standard_peripheral/Source/gd32vw55x_rcu.c **** 
  42:../Firmware/GD32VW55x_standard_peripheral/Source/gd32vw55x_rcu.c **** /* define startup timeout count */
  43:../Firmware/GD32VW55x_standard_peripheral/Source/gd32vw55x_rcu.c **** #define OSC_STARTUP_TIMEOUT         ((uint32_t)0x000FFFFFU)
  44:../Firmware/GD32VW55x_standard_peripheral/Source/gd32vw55x_rcu.c **** #define LXTAL_STARTUP_TIMEOUT       ((uint32_t)0x0FFFFFFFU)
  45:../Firmware/GD32VW55x_standard_peripheral/Source/gd32vw55x_rcu.c **** 
  46:../Firmware/GD32VW55x_standard_peripheral/Source/gd32vw55x_rcu.c **** /* RCU IRC16M adjust value mask and offset */
  47:../Firmware/GD32VW55x_standard_peripheral/Source/gd32vw55x_rcu.c **** #define RCU_IRC16M_ADJUST_MASK      ((uint32_t)0x0000001FU)
  48:../Firmware/GD32VW55x_standard_peripheral/Source/gd32vw55x_rcu.c **** #define RCU_IRC16M_ADJUST_OFFSET    ((uint32_t)0x00000003U)
  49:../Firmware/GD32VW55x_standard_peripheral/Source/gd32vw55x_rcu.c **** 
  50:../Firmware/GD32VW55x_standard_peripheral/Source/gd32vw55x_rcu.c **** /*!
  51:../Firmware/GD32VW55x_standard_peripheral/Source/gd32vw55x_rcu.c ****     \brief      deinitialize the RCU
  52:../Firmware/GD32VW55x_standard_peripheral/Source/gd32vw55x_rcu.c ****     \param[in]  none
  53:../Firmware/GD32VW55x_standard_peripheral/Source/gd32vw55x_rcu.c ****     \param[out] none
  54:../Firmware/GD32VW55x_standard_peripheral/Source/gd32vw55x_rcu.c ****     \retval     none
  55:../Firmware/GD32VW55x_standard_peripheral/Source/gd32vw55x_rcu.c **** */
  56:../Firmware/GD32VW55x_standard_peripheral/Source/gd32vw55x_rcu.c **** void rcu_deinit(void)
  57:../Firmware/GD32VW55x_standard_peripheral/Source/gd32vw55x_rcu.c **** {
  16              		.loc 1 57 1
  17              		.cfi_startproc
  18 0000 4111     		addi	sp,sp,-16
  19              		.cfi_def_cfa_offset 16
  20 0002 06C6     		sw	ra,12(sp)
  21 0004 22C4     		sw	s0,8(sp)
  22              		.cfi_offset 1, -4
  23              		.cfi_offset 8, -8
  24 0006 0008     		addi	s0,sp,16
  25              		.cfi_def_cfa 8, 0
  58:../Firmware/GD32VW55x_standard_peripheral/Source/gd32vw55x_rcu.c ****     /* enable IRC16M */
  59:../Firmware/GD32VW55x_standard_peripheral/Source/gd32vw55x_rcu.c ****     RCU_CTL |= RCU_CTL_IRC16MEN;
  26              		.loc 1 59 13
  27 0008 B7470240 		li	a5,1073889280
  28 000c 93870780 		addi	a5,a5,-2048
  29 0010 9843     		lw	a4,0(a5)
  30 0012 B7470240 		li	a5,1073889280
  31 0016 93870780 		addi	a5,a5,-2048
  32 001a 13671700 		ori	a4,a4,1
  33 001e 98C3     		sw	a4,0(a5)
  60:../Firmware/GD32VW55x_standard_peripheral/Source/gd32vw55x_rcu.c ****     rcu_osci_stab_wait(RCU_IRC16M);
  34              		.loc 1 60 5
  35 0020 0145     		li	a0,0
  36 0022 97000000 		call	rcu_osci_stab_wait
  36      E7800000 
  61:../Firmware/GD32VW55x_standard_peripheral/Source/gd32vw55x_rcu.c ****     RCU_CFG0 &= ~RCU_CFG0_SCS;
  37              		.loc 1 61 14
  38 002a B7470240 		li	a5,1073889280
  39 002e 93878780 		addi	a5,a5,-2040
  40 0032 9843     		lw	a4,0(a5)
  41 0034 B7470240 		li	a5,1073889280
  42 0038 93878780 		addi	a5,a5,-2040
  43 003c 719B     		andi	a4,a4,-4
  44 003e 98C3     		sw	a4,0(a5)
  62:../Firmware/GD32VW55x_standard_peripheral/Source/gd32vw55x_rcu.c ****     /* reset CFG0 register */
  63:../Firmware/GD32VW55x_standard_peripheral/Source/gd32vw55x_rcu.c ****     RCU_CFG0 &= ~(RCU_CFG0_SCS | RCU_CFG0_AHBPSC | RCU_CFG0_APB1PSC | RCU_CFG0_APB2PSC |
  45              		.loc 1 63 14
  46 0040 B7470240 		li	a5,1073889280
  47 0044 93878780 		addi	a5,a5,-2040
  48 0048 9443     		lw	a3,0(a5)
  49 004a B7470240 		li	a5,1073889280
  50 004e 93878780 		addi	a5,a5,-2040
  51 0052 370700F8 		li	a4,-134217728
  52 0056 1307C730 		addi	a4,a4,780
  53 005a 758F     		and	a4,a3,a4
  54 005c 98C3     		sw	a4,0(a5)
  64:../Firmware/GD32VW55x_standard_peripheral/Source/gd32vw55x_rcu.c ****                   RCU_CFG0_RTCDIV | RCU_CFG0_CKOUT0SEL  | RCU_CFG0_CKOUT0DIV);
  65:../Firmware/GD32VW55x_standard_peripheral/Source/gd32vw55x_rcu.c ****     /* reset CTL register */
  66:../Firmware/GD32VW55x_standard_peripheral/Source/gd32vw55x_rcu.c ****     RCU_CTL &= ~(RCU_CTL_HXTALREADY | RCU_CTL_HXTALEN | RCU_CTL_PLLDIGEN |
  55              		.loc 1 66 13
  56 005e B7470240 		li	a5,1073889280
  57 0062 93870780 		addi	a5,a5,-2048
  58 0066 9443     		lw	a3,0(a5)
  59 0068 B7470240 		li	a5,1073889280
  60 006c 93870780 		addi	a5,a5,-2048
  61 0070 37078F6F 		li	a4,1871642624
  62 0074 7D17     		addi	a4,a4,-1
  63 0076 758F     		and	a4,a3,a4
  64 0078 98C3     		sw	a4,0(a5)
  67:../Firmware/GD32VW55x_standard_peripheral/Source/gd32vw55x_rcu.c ****                  RCU_CTL_HXTALPU | RCU_CTL_PLLDIGPU | RCU_CTL_RFCKMEN);
  68:../Firmware/GD32VW55x_standard_peripheral/Source/gd32vw55x_rcu.c ****     /* reset CFG1 register */
  69:../Firmware/GD32VW55x_standard_peripheral/Source/gd32vw55x_rcu.c ****     RCU_CFG1 = 0x00000000U;
  65              		.loc 1 69 5
  66 007a B7470240 		li	a5,1073889280
  67 007e 9387C788 		addi	a5,a5,-1908
  68              		.loc 1 69 14
  69 0082 23A00700 		sw	zero,0(a5)
  70:../Firmware/GD32VW55x_standard_peripheral/Source/gd32vw55x_rcu.c ****     /* reset ADDCTL register */
  71:../Firmware/GD32VW55x_standard_peripheral/Source/gd32vw55x_rcu.c ****     RCU_ADDCTL = 0x00000000U;
  70              		.loc 1 71 5
  71 0086 B7470240 		li	a5,1073889280
  72 008a 93870789 		addi	a5,a5,-1904
  73              		.loc 1 71 16
  74 008e 23A00700 		sw	zero,0(a5)
  72:../Firmware/GD32VW55x_standard_peripheral/Source/gd32vw55x_rcu.c ****     /* reset PLL register */
  73:../Firmware/GD32VW55x_standard_peripheral/Source/gd32vw55x_rcu.c ****     RCU_PLL = 0x00000000U;
  75              		.loc 1 73 5
  76 0092 B7470240 		li	a5,1073889280
  77 0096 93874780 		addi	a5,a5,-2044
  78              		.loc 1 73 13
  79 009a 23A00700 		sw	zero,0(a5)
  74:../Firmware/GD32VW55x_standard_peripheral/Source/gd32vw55x_rcu.c ****     /* reset PLLDIGCFG0 register */
  75:../Firmware/GD32VW55x_standard_peripheral/Source/gd32vw55x_rcu.c ****     RCU_PLLDIGCFG0 = 0x00000000U;
  80              		.loc 1 75 5
  81 009e B7470240 		li	a5,1073889280
  82 00a2 93874788 		addi	a5,a5,-1916
  83              		.loc 1 75 20
  84 00a6 23A00700 		sw	zero,0(a5)
  76:../Firmware/GD32VW55x_standard_peripheral/Source/gd32vw55x_rcu.c ****     /* reset PLLDIGCFG1 register */
  77:../Firmware/GD32VW55x_standard_peripheral/Source/gd32vw55x_rcu.c ****     RCU_PLLDIGCFG1 = 0x00000000U;
  85              		.loc 1 77 5
  86 00aa B7470240 		li	a5,1073889280
  87 00ae 93874789 		addi	a5,a5,-1900
  88              		.loc 1 77 20
  89 00b2 23A00700 		sw	zero,0(a5)
  78:../Firmware/GD32VW55x_standard_peripheral/Source/gd32vw55x_rcu.c ****     /* reset INT register */
  79:../Firmware/GD32VW55x_standard_peripheral/Source/gd32vw55x_rcu.c ****     RCU_INT = 0x00000000U;
  90              		.loc 1 79 5
  91 00b6 B7470240 		li	a5,1073889280
  92 00ba 9387C780 		addi	a5,a5,-2036
  93              		.loc 1 79 13
  94 00be 23A00700 		sw	zero,0(a5)
  80:../Firmware/GD32VW55x_standard_peripheral/Source/gd32vw55x_rcu.c **** }
  95              		.loc 1 80 1
  96 00c2 0100     		nop
  97 00c4 B240     		lw	ra,12(sp)
  98              		.cfi_restore 1
  99 00c6 2244     		lw	s0,8(sp)
 100              		.cfi_restore 8
 101              		.cfi_def_cfa 2, 16
 102 00c8 4101     		addi	sp,sp,16
 103              		.cfi_def_cfa_offset 0
 104 00ca 8280     		jr	ra
 105              		.cfi_endproc
 106              	.LFE347:
 108              		.section	.text.rcu_irc16m_dfs_to_rf_enable,"ax",@progbits
 109              		.align	1
 110              		.globl	rcu_irc16m_dfs_to_rf_enable
 112              	rcu_irc16m_dfs_to_rf_enable:
 113              	.LFB348:
  81:../Firmware/GD32VW55x_standard_peripheral/Source/gd32vw55x_rcu.c **** 
  82:../Firmware/GD32VW55x_standard_peripheral/Source/gd32vw55x_rcu.c **** /*!
  83:../Firmware/GD32VW55x_standard_peripheral/Source/gd32vw55x_rcu.c ****     \brief      enable differential signal of IRC16M to RF module
  84:../Firmware/GD32VW55x_standard_peripheral/Source/gd32vw55x_rcu.c ****     \param[in]  none
  85:../Firmware/GD32VW55x_standard_peripheral/Source/gd32vw55x_rcu.c ****     \param[out] none
  86:../Firmware/GD32VW55x_standard_peripheral/Source/gd32vw55x_rcu.c ****     \retval     none
  87:../Firmware/GD32VW55x_standard_peripheral/Source/gd32vw55x_rcu.c **** */
  88:../Firmware/GD32VW55x_standard_peripheral/Source/gd32vw55x_rcu.c **** void rcu_irc16m_dfs_to_rf_enable(void)
  89:../Firmware/GD32VW55x_standard_peripheral/Source/gd32vw55x_rcu.c **** {
 114              		.loc 1 89 1
 115              		.cfi_startproc
 116 0000 4111     		addi	sp,sp,-16
 117              		.cfi_def_cfa_offset 16
 118 0002 22C6     		sw	s0,12(sp)
 119              		.cfi_offset 8, -4
 120 0004 0008     		addi	s0,sp,16
 121              		.cfi_def_cfa 8, 0
  90:../Firmware/GD32VW55x_standard_peripheral/Source/gd32vw55x_rcu.c ****     RCU_CTL |= RCU_CTL_IRC16MRFON;
 122              		.loc 1 90 13
 123 0006 B7470240 		li	a5,1073889280
 124 000a 93870780 		addi	a5,a5,-2048
 125 000e 9843     		lw	a4,0(a5)
 126 0010 B7470240 		li	a5,1073889280
 127 0014 93870780 		addi	a5,a5,-2048
 128 0018 13674700 		ori	a4,a4,4
 129 001c 98C3     		sw	a4,0(a5)
  91:../Firmware/GD32VW55x_standard_peripheral/Source/gd32vw55x_rcu.c **** }
 130              		.loc 1 91 1
 131 001e 0100     		nop
 132 0020 3244     		lw	s0,12(sp)
 133              		.cfi_restore 8
 134              		.cfi_def_cfa 2, 16
 135 0022 4101     		addi	sp,sp,16
 136              		.cfi_def_cfa_offset 0
 137 0024 8280     		jr	ra
 138              		.cfi_endproc
 139              	.LFE348:
 141              		.section	.text.rcu_irc16m_dfs_to_rf_disable,"ax",@progbits
 142              		.align	1
 143              		.globl	rcu_irc16m_dfs_to_rf_disable
 145              	rcu_irc16m_dfs_to_rf_disable:
 146              	.LFB349:
  92:../Firmware/GD32VW55x_standard_peripheral/Source/gd32vw55x_rcu.c **** 
  93:../Firmware/GD32VW55x_standard_peripheral/Source/gd32vw55x_rcu.c **** /*!
  94:../Firmware/GD32VW55x_standard_peripheral/Source/gd32vw55x_rcu.c ****     \brief      disable differential signal of IRC16M to RF module
  95:../Firmware/GD32VW55x_standard_peripheral/Source/gd32vw55x_rcu.c ****     \param[in]  none
  96:../Firmware/GD32VW55x_standard_peripheral/Source/gd32vw55x_rcu.c ****     \param[out] none
  97:../Firmware/GD32VW55x_standard_peripheral/Source/gd32vw55x_rcu.c ****     \retval     none
  98:../Firmware/GD32VW55x_standard_peripheral/Source/gd32vw55x_rcu.c **** */
  99:../Firmware/GD32VW55x_standard_peripheral/Source/gd32vw55x_rcu.c **** void rcu_irc16m_dfs_to_rf_disable(void)
 100:../Firmware/GD32VW55x_standard_peripheral/Source/gd32vw55x_rcu.c **** {
 147              		.loc 1 100 1
 148              		.cfi_startproc
 149 0000 4111     		addi	sp,sp,-16
 150              		.cfi_def_cfa_offset 16
 151 0002 22C6     		sw	s0,12(sp)
 152              		.cfi_offset 8, -4
 153 0004 0008     		addi	s0,sp,16
 154              		.cfi_def_cfa 8, 0
 101:../Firmware/GD32VW55x_standard_peripheral/Source/gd32vw55x_rcu.c ****     RCU_CTL &= ~RCU_CTL_IRC16MRFON;
 155              		.loc 1 101 13
 156 0006 B7470240 		li	a5,1073889280
 157 000a 93870780 		addi	a5,a5,-2048
 158 000e 9843     		lw	a4,0(a5)
 159 0010 B7470240 		li	a5,1073889280
 160 0014 93870780 		addi	a5,a5,-2048
 161 0018 6D9B     		andi	a4,a4,-5
 162 001a 98C3     		sw	a4,0(a5)
 102:../Firmware/GD32VW55x_standard_peripheral/Source/gd32vw55x_rcu.c **** }
 163              		.loc 1 102 1
 164 001c 0100     		nop
 165 001e 3244     		lw	s0,12(sp)
 166              		.cfi_restore 8
 167              		.cfi_def_cfa 2, 16
 168 0020 4101     		addi	sp,sp,16
 169              		.cfi_def_cfa_offset 0
 170 0022 8280     		jr	ra
 171              		.cfi_endproc
 172              	.LFE349:
 174              		.section	.text.rcu_periph_clock_enable,"ax",@progbits
 175              		.align	1
 176              		.globl	rcu_periph_clock_enable
 178              	rcu_periph_clock_enable:
 179              	.LFB350:
 103:../Firmware/GD32VW55x_standard_peripheral/Source/gd32vw55x_rcu.c **** 
 104:../Firmware/GD32VW55x_standard_peripheral/Source/gd32vw55x_rcu.c **** /*!
 105:../Firmware/GD32VW55x_standard_peripheral/Source/gd32vw55x_rcu.c ****     \brief      enable the peripherals clock
 106:../Firmware/GD32VW55x_standard_peripheral/Source/gd32vw55x_rcu.c ****     \param[in]  periph: RCU peripherals, refer to rcu_periph_enum
 107:../Firmware/GD32VW55x_standard_peripheral/Source/gd32vw55x_rcu.c ****                 only one parameter can be selected which is shown as below:
 108:../Firmware/GD32VW55x_standard_peripheral/Source/gd32vw55x_rcu.c ****       \arg        RCU_GPIOx (x=A,B,C): GPIO ports clock
 109:../Firmware/GD32VW55x_standard_peripheral/Source/gd32vw55x_rcu.c ****       \arg        RCU_CRC: CRC clock
 110:../Firmware/GD32VW55x_standard_peripheral/Source/gd32vw55x_rcu.c ****       \arg        RCU_WIFI: WIFI clock
 111:../Firmware/GD32VW55x_standard_peripheral/Source/gd32vw55x_rcu.c ****       \arg        RCU_WIFIRUN: WIFIRUN clock
 112:../Firmware/GD32VW55x_standard_peripheral/Source/gd32vw55x_rcu.c ****       \arg        RCU_SRAMx: (x=0,1,2,3):SRAM clock
 113:../Firmware/GD32VW55x_standard_peripheral/Source/gd32vw55x_rcu.c ****       \arg        RCU_DMA: DMA clock
 114:../Firmware/GD32VW55x_standard_peripheral/Source/gd32vw55x_rcu.c ****       \arg        RCU_BLE: Blue tooth clock
 115:../Firmware/GD32VW55x_standard_peripheral/Source/gd32vw55x_rcu.c ****       \arg        RCU_PKCAU: PKCAU clock
 116:../Firmware/GD32VW55x_standard_peripheral/Source/gd32vw55x_rcu.c ****       \arg        RCU_CAU: CAU clock
 117:../Firmware/GD32VW55x_standard_peripheral/Source/gd32vw55x_rcu.c ****       \arg        RCU_HAU: HAU clock
 118:../Firmware/GD32VW55x_standard_peripheral/Source/gd32vw55x_rcu.c ****       \arg        RCU_TRNG: TRNG clock
 119:../Firmware/GD32VW55x_standard_peripheral/Source/gd32vw55x_rcu.c ****       \arg        RCU_QSPI: QSPI clock
 120:../Firmware/GD32VW55x_standard_peripheral/Source/gd32vw55x_rcu.c ****       \arg        RCU_TIMERx (x=0,1,2,5,15,16): TIMER clock
 121:../Firmware/GD32VW55x_standard_peripheral/Source/gd32vw55x_rcu.c ****       \arg        RCU_WWDGT: WWDGT clock
 122:../Firmware/GD32VW55x_standard_peripheral/Source/gd32vw55x_rcu.c ****       \arg        RCU_SPI: SPI clock
 123:../Firmware/GD32VW55x_standard_peripheral/Source/gd32vw55x_rcu.c ****       \arg        RFI: RFI clock
 124:../Firmware/GD32VW55x_standard_peripheral/Source/gd32vw55x_rcu.c ****       \arg        RCU_USART0: USART clock
 125:../Firmware/GD32VW55x_standard_peripheral/Source/gd32vw55x_rcu.c ****       \arg        RCU_UARTx (x=1,2): UART clock
 126:../Firmware/GD32VW55x_standard_peripheral/Source/gd32vw55x_rcu.c ****       \arg        RCU_I2Cx (x=0,1): I2C clock
 127:../Firmware/GD32VW55x_standard_peripheral/Source/gd32vw55x_rcu.c ****       \arg        RCU_PMU: PMU clock
 128:../Firmware/GD32VW55x_standard_peripheral/Source/gd32vw55x_rcu.c ****       \arg        RCU_RTC: RTC clock
 129:../Firmware/GD32VW55x_standard_peripheral/Source/gd32vw55x_rcu.c ****       \arg        RCU_ADC : ADC clock
 130:../Firmware/GD32VW55x_standard_peripheral/Source/gd32vw55x_rcu.c ****       \arg        RCU_SYSCFG: SYSCFG clock
 131:../Firmware/GD32VW55x_standard_peripheral/Source/gd32vw55x_rcu.c ****       \arg        RCU_RF: RF clock
 132:../Firmware/GD32VW55x_standard_peripheral/Source/gd32vw55x_rcu.c ****     \param[out] none
 133:../Firmware/GD32VW55x_standard_peripheral/Source/gd32vw55x_rcu.c ****     \retval     none
 134:../Firmware/GD32VW55x_standard_peripheral/Source/gd32vw55x_rcu.c **** */
 135:../Firmware/GD32VW55x_standard_peripheral/Source/gd32vw55x_rcu.c **** void rcu_periph_clock_enable(rcu_periph_enum periph)
 136:../Firmware/GD32VW55x_standard_peripheral/Source/gd32vw55x_rcu.c **** {
 180              		.loc 1 136 1
 181              		.cfi_startproc
 182 0000 0111     		addi	sp,sp,-32
 183              		.cfi_def_cfa_offset 32
 184 0002 22CE     		sw	s0,28(sp)
 185              		.cfi_offset 8, -4
 186 0004 0010     		addi	s0,sp,32
 187              		.cfi_def_cfa 8, 0
 188 0006 2326A4FE 		sw	a0,-20(s0)
 137:../Firmware/GD32VW55x_standard_peripheral/Source/gd32vw55x_rcu.c ****     RCU_REG_VAL(periph) |= BIT(RCU_BIT_POS(periph));
 189              		.loc 1 137 25
 190 000a 8327C4FE 		lw	a5,-20(s0)
 191 000e 13D76700 		srli	a4,a5,6
 192 0012 B7470240 		li	a5,1073889280
 193 0016 93870780 		addi	a5,a5,-2048
 194 001a BA97     		add	a5,a4,a5
 195 001c 9843     		lw	a4,0(a5)
 196              		.loc 1 137 28
 197 001e 8327C4FE 		lw	a5,-20(s0)
 198 0022 FD8B     		andi	a5,a5,31
 199 0024 8546     		li	a3,1
 200 0026 B397F600 		sll	a5,a3,a5
 201              		.loc 1 137 25
 202 002a 8326C4FE 		lw	a3,-20(s0)
 203 002e 13D66600 		srli	a2,a3,6
 204 0032 B7460240 		li	a3,1073889280
 205 0036 93860680 		addi	a3,a3,-2048
 206 003a B296     		add	a3,a2,a3
 207 003c D98F     		or	a5,a4,a5
 208 003e 9CC2     		sw	a5,0(a3)
 138:../Firmware/GD32VW55x_standard_peripheral/Source/gd32vw55x_rcu.c **** }
 209              		.loc 1 138 1
 210 0040 0100     		nop
 211 0042 7244     		lw	s0,28(sp)
 212              		.cfi_restore 8
 213              		.cfi_def_cfa 2, 32
 214 0044 0561     		addi	sp,sp,32
 215              		.cfi_def_cfa_offset 0
 216 0046 8280     		jr	ra
 217              		.cfi_endproc
 218              	.LFE350:
 220              		.section	.text.rcu_periph_clock_disable,"ax",@progbits
 221              		.align	1
 222              		.globl	rcu_periph_clock_disable
 224              	rcu_periph_clock_disable:
 225              	.LFB351:
 139:../Firmware/GD32VW55x_standard_peripheral/Source/gd32vw55x_rcu.c **** 
 140:../Firmware/GD32VW55x_standard_peripheral/Source/gd32vw55x_rcu.c **** /*!
 141:../Firmware/GD32VW55x_standard_peripheral/Source/gd32vw55x_rcu.c ****     \brief      disable the peripherals clock
 142:../Firmware/GD32VW55x_standard_peripheral/Source/gd32vw55x_rcu.c ****     \param[in]  periph: RCU peripherals, refer to rcu_periph_enum
 143:../Firmware/GD32VW55x_standard_peripheral/Source/gd32vw55x_rcu.c ****                 only one parameter can be selected which is shown as below:
 144:../Firmware/GD32VW55x_standard_peripheral/Source/gd32vw55x_rcu.c ****       \arg        RCU_GPIOx (x=A,B,C): GPIO ports clock
 145:../Firmware/GD32VW55x_standard_peripheral/Source/gd32vw55x_rcu.c ****       \arg        RCU_CRC: CRC clock
 146:../Firmware/GD32VW55x_standard_peripheral/Source/gd32vw55x_rcu.c ****       \arg        RCU_WIFI: WIFI clock
 147:../Firmware/GD32VW55x_standard_peripheral/Source/gd32vw55x_rcu.c ****       \arg        RCU_WIFIRUN: WIFIRUN clock
 148:../Firmware/GD32VW55x_standard_peripheral/Source/gd32vw55x_rcu.c ****       \arg        RCU_SRAMx: (x=0,1,2):SRAM clock
 149:../Firmware/GD32VW55x_standard_peripheral/Source/gd32vw55x_rcu.c ****       \arg        RCU_DMA: DMA clock
 150:../Firmware/GD32VW55x_standard_peripheral/Source/gd32vw55x_rcu.c ****       \arg        RCU_BLE: Blue tooth clock
 151:../Firmware/GD32VW55x_standard_peripheral/Source/gd32vw55x_rcu.c ****       \arg        RCU_PKCAU: PKCAU clock
 152:../Firmware/GD32VW55x_standard_peripheral/Source/gd32vw55x_rcu.c ****       \arg        RCU_CAU: CAU clock
 153:../Firmware/GD32VW55x_standard_peripheral/Source/gd32vw55x_rcu.c ****       \arg        RCU_HAU: HAU clock
 154:../Firmware/GD32VW55x_standard_peripheral/Source/gd32vw55x_rcu.c ****       \arg        RCU_TRNG: TRNG clock
 155:../Firmware/GD32VW55x_standard_peripheral/Source/gd32vw55x_rcu.c ****       \arg        RCU_QSPI: QSPI clock
 156:../Firmware/GD32VW55x_standard_peripheral/Source/gd32vw55x_rcu.c ****       \arg        RCU_TIMERx (x=0,1,2,5,15,16): TIMER clock
 157:../Firmware/GD32VW55x_standard_peripheral/Source/gd32vw55x_rcu.c ****       \arg        RCU_WWDGT: WWDGT clock
 158:../Firmware/GD32VW55x_standard_peripheral/Source/gd32vw55x_rcu.c ****       \arg        RCU_SPI: SPI clock
 159:../Firmware/GD32VW55x_standard_peripheral/Source/gd32vw55x_rcu.c ****       \arg        RFI: RFI clock
 160:../Firmware/GD32VW55x_standard_peripheral/Source/gd32vw55x_rcu.c ****       \arg        RCU_USART0 : USART clock
 161:../Firmware/GD32VW55x_standard_peripheral/Source/gd32vw55x_rcu.c ****       \arg        RCU_UARTx (x=1,2): UART clock
 162:../Firmware/GD32VW55x_standard_peripheral/Source/gd32vw55x_rcu.c ****       \arg        RCU_I2Cx (x=0,1): I2C clock
 163:../Firmware/GD32VW55x_standard_peripheral/Source/gd32vw55x_rcu.c ****       \arg        RCU_PMU: PMU clock
 164:../Firmware/GD32VW55x_standard_peripheral/Source/gd32vw55x_rcu.c ****       \arg        RCU_RTC: RTC clock
 165:../Firmware/GD32VW55x_standard_peripheral/Source/gd32vw55x_rcu.c ****       \arg        RCU_ADC: ADC clock
 166:../Firmware/GD32VW55x_standard_peripheral/Source/gd32vw55x_rcu.c ****       \arg        RCU_SYSCFG: SYSCFG clock
 167:../Firmware/GD32VW55x_standard_peripheral/Source/gd32vw55x_rcu.c ****       \arg        RCU_RF: RF clock
 168:../Firmware/GD32VW55x_standard_peripheral/Source/gd32vw55x_rcu.c ****     \param[out] none
 169:../Firmware/GD32VW55x_standard_peripheral/Source/gd32vw55x_rcu.c ****     \retval     none
 170:../Firmware/GD32VW55x_standard_peripheral/Source/gd32vw55x_rcu.c **** */
 171:../Firmware/GD32VW55x_standard_peripheral/Source/gd32vw55x_rcu.c **** void rcu_periph_clock_disable(rcu_periph_enum periph)
 172:../Firmware/GD32VW55x_standard_peripheral/Source/gd32vw55x_rcu.c **** {
 226              		.loc 1 172 1
 227              		.cfi_startproc
 228 0000 0111     		addi	sp,sp,-32
 229              		.cfi_def_cfa_offset 32
 230 0002 22CE     		sw	s0,28(sp)
 231              		.cfi_offset 8, -4
 232 0004 0010     		addi	s0,sp,32
 233              		.cfi_def_cfa 8, 0
 234 0006 2326A4FE 		sw	a0,-20(s0)
 173:../Firmware/GD32VW55x_standard_peripheral/Source/gd32vw55x_rcu.c ****     RCU_REG_VAL(periph) &= ~BIT(RCU_BIT_POS(periph));
 235              		.loc 1 173 25
 236 000a 8327C4FE 		lw	a5,-20(s0)
 237 000e 13D76700 		srli	a4,a5,6
 238 0012 B7470240 		li	a5,1073889280
 239 0016 93870780 		addi	a5,a5,-2048
 240 001a BA97     		add	a5,a4,a5
 241 001c 9843     		lw	a4,0(a5)
 242              		.loc 1 173 29
 243 001e 8327C4FE 		lw	a5,-20(s0)
 244 0022 FD8B     		andi	a5,a5,31
 245 0024 8546     		li	a3,1
 246 0026 B397F600 		sll	a5,a3,a5
 247              		.loc 1 173 28
 248 002a 93C7F7FF 		not	a5,a5
 249              		.loc 1 173 25
 250 002e 8326C4FE 		lw	a3,-20(s0)
 251 0032 13D66600 		srli	a2,a3,6
 252 0036 B7460240 		li	a3,1073889280
 253 003a 93860680 		addi	a3,a3,-2048
 254 003e B296     		add	a3,a2,a3
 255 0040 F98F     		and	a5,a4,a5
 256 0042 9CC2     		sw	a5,0(a3)
 174:../Firmware/GD32VW55x_standard_peripheral/Source/gd32vw55x_rcu.c **** }
 257              		.loc 1 174 1
 258 0044 0100     		nop
 259 0046 7244     		lw	s0,28(sp)
 260              		.cfi_restore 8
 261              		.cfi_def_cfa 2, 32
 262 0048 0561     		addi	sp,sp,32
 263              		.cfi_def_cfa_offset 0
 264 004a 8280     		jr	ra
 265              		.cfi_endproc
 266              	.LFE351:
 268              		.section	.text.rcu_fmc_clock_sleep_enable,"ax",@progbits
 269              		.align	1
 270              		.globl	rcu_fmc_clock_sleep_enable
 272              	rcu_fmc_clock_sleep_enable:
 273              	.LFB352:
 175:../Firmware/GD32VW55x_standard_peripheral/Source/gd32vw55x_rcu.c **** 
 176:../Firmware/GD32VW55x_standard_peripheral/Source/gd32vw55x_rcu.c **** /*!
 177:../Firmware/GD32VW55x_standard_peripheral/Source/gd32vw55x_rcu.c ****     \brief      enabled FMC clock when sleep mode
 178:../Firmware/GD32VW55x_standard_peripheral/Source/gd32vw55x_rcu.c ****     \param[in]  none
 179:../Firmware/GD32VW55x_standard_peripheral/Source/gd32vw55x_rcu.c ****     \param[out] none
 180:../Firmware/GD32VW55x_standard_peripheral/Source/gd32vw55x_rcu.c ****     \retval     none
 181:../Firmware/GD32VW55x_standard_peripheral/Source/gd32vw55x_rcu.c **** */
 182:../Firmware/GD32VW55x_standard_peripheral/Source/gd32vw55x_rcu.c **** void rcu_fmc_clock_sleep_enable(void)
 183:../Firmware/GD32VW55x_standard_peripheral/Source/gd32vw55x_rcu.c **** {
 274              		.loc 1 183 1
 275              		.cfi_startproc
 276 0000 4111     		addi	sp,sp,-16
 277              		.cfi_def_cfa_offset 16
 278 0002 22C6     		sw	s0,12(sp)
 279              		.cfi_offset 8, -4
 280 0004 0008     		addi	s0,sp,16
 281              		.cfi_def_cfa 8, 0
 184:../Firmware/GD32VW55x_standard_peripheral/Source/gd32vw55x_rcu.c ****     RCU_AHB1SPEN |= RCU_AHB1SPEN_FMCSPEN;
 282              		.loc 1 184 18
 283 0006 B7470240 		li	a5,1073889280
 284 000a 93870785 		addi	a5,a5,-1968
 285 000e 9443     		lw	a3,0(a5)
 286 0010 B7470240 		li	a5,1073889280
 287 0014 93870785 		addi	a5,a5,-1968
 288 0018 2167     		li	a4,32768
 289 001a 558F     		or	a4,a3,a4
 290 001c 98C3     		sw	a4,0(a5)
 185:../Firmware/GD32VW55x_standard_peripheral/Source/gd32vw55x_rcu.c **** }
 291              		.loc 1 185 1
 292 001e 0100     		nop
 293 0020 3244     		lw	s0,12(sp)
 294              		.cfi_restore 8
 295              		.cfi_def_cfa 2, 16
 296 0022 4101     		addi	sp,sp,16
 297              		.cfi_def_cfa_offset 0
 298 0024 8280     		jr	ra
 299              		.cfi_endproc
 300              	.LFE352:
 302              		.section	.text.rcu_fmc_clock_sleep_disable,"ax",@progbits
 303              		.align	1
 304              		.globl	rcu_fmc_clock_sleep_disable
 306              	rcu_fmc_clock_sleep_disable:
 307              	.LFB353:
 186:../Firmware/GD32VW55x_standard_peripheral/Source/gd32vw55x_rcu.c **** 
 187:../Firmware/GD32VW55x_standard_peripheral/Source/gd32vw55x_rcu.c **** /*!
 188:../Firmware/GD32VW55x_standard_peripheral/Source/gd32vw55x_rcu.c ****     \brief      disabled FMC clock when sleep mode
 189:../Firmware/GD32VW55x_standard_peripheral/Source/gd32vw55x_rcu.c ****     \param[in]  none
 190:../Firmware/GD32VW55x_standard_peripheral/Source/gd32vw55x_rcu.c ****     \param[out] none
 191:../Firmware/GD32VW55x_standard_peripheral/Source/gd32vw55x_rcu.c ****     \retval     none
 192:../Firmware/GD32VW55x_standard_peripheral/Source/gd32vw55x_rcu.c **** */
 193:../Firmware/GD32VW55x_standard_peripheral/Source/gd32vw55x_rcu.c **** void rcu_fmc_clock_sleep_disable(void)
 194:../Firmware/GD32VW55x_standard_peripheral/Source/gd32vw55x_rcu.c **** {
 308              		.loc 1 194 1
 309              		.cfi_startproc
 310 0000 4111     		addi	sp,sp,-16
 311              		.cfi_def_cfa_offset 16
 312 0002 22C6     		sw	s0,12(sp)
 313              		.cfi_offset 8, -4
 314 0004 0008     		addi	s0,sp,16
 315              		.cfi_def_cfa 8, 0
 195:../Firmware/GD32VW55x_standard_peripheral/Source/gd32vw55x_rcu.c ****     RCU_AHB1SPEN &= ~RCU_AHB1SPEN_FMCSPEN;
 316              		.loc 1 195 18
 317 0006 B7470240 		li	a5,1073889280
 318 000a 93870785 		addi	a5,a5,-1968
 319 000e 9443     		lw	a3,0(a5)
 320 0010 B7470240 		li	a5,1073889280
 321 0014 93870785 		addi	a5,a5,-1968
 322 0018 6177     		li	a4,-32768
 323 001a 7D17     		addi	a4,a4,-1
 324 001c 758F     		and	a4,a3,a4
 325 001e 98C3     		sw	a4,0(a5)
 196:../Firmware/GD32VW55x_standard_peripheral/Source/gd32vw55x_rcu.c **** }
 326              		.loc 1 196 1
 327 0020 0100     		nop
 328 0022 3244     		lw	s0,12(sp)
 329              		.cfi_restore 8
 330              		.cfi_def_cfa 2, 16
 331 0024 4101     		addi	sp,sp,16
 332              		.cfi_def_cfa_offset 0
 333 0026 8280     		jr	ra
 334              		.cfi_endproc
 335              	.LFE353:
 337              		.section	.text.rcu_periph_reset_enable,"ax",@progbits
 338              		.align	1
 339              		.globl	rcu_periph_reset_enable
 341              	rcu_periph_reset_enable:
 342              	.LFB354:
 197:../Firmware/GD32VW55x_standard_peripheral/Source/gd32vw55x_rcu.c **** 
 198:../Firmware/GD32VW55x_standard_peripheral/Source/gd32vw55x_rcu.c **** /*!
 199:../Firmware/GD32VW55x_standard_peripheral/Source/gd32vw55x_rcu.c ****     \brief      reset the peripherals
 200:../Firmware/GD32VW55x_standard_peripheral/Source/gd32vw55x_rcu.c ****     \param[in]  periph_reset: RCU peripherals reset, refer to rcu_periph_reset_enum
 201:../Firmware/GD32VW55x_standard_peripheral/Source/gd32vw55x_rcu.c ****                 only one parameter can be selected which is shown as below:
 202:../Firmware/GD32VW55x_standard_peripheral/Source/gd32vw55x_rcu.c ****       \arg        RCU_GPIOxRST (x=A,B,C): reset GPIO ports
 203:../Firmware/GD32VW55x_standard_peripheral/Source/gd32vw55x_rcu.c ****       \arg        RCU_CRCRST: reset CRC
 204:../Firmware/GD32VW55x_standard_peripheral/Source/gd32vw55x_rcu.c ****       \arg        RCU_WIFIRST: reset WIFI
 205:../Firmware/GD32VW55x_standard_peripheral/Source/gd32vw55x_rcu.c ****       \arg        RCU_DMARST: reset DMA
 206:../Firmware/GD32VW55x_standard_peripheral/Source/gd32vw55x_rcu.c ****       \arg        RCU_BLERST:reset Blue tooth
 207:../Firmware/GD32VW55x_standard_peripheral/Source/gd32vw55x_rcu.c ****       \arg        RCU_PKCAURST: reset PKCAU
 208:../Firmware/GD32VW55x_standard_peripheral/Source/gd32vw55x_rcu.c ****       \arg        RCU_CAURST: reset CAU
 209:../Firmware/GD32VW55x_standard_peripheral/Source/gd32vw55x_rcu.c ****       \arg        RCU_HAURST: reset HAU
 210:../Firmware/GD32VW55x_standard_peripheral/Source/gd32vw55x_rcu.c ****       \arg        RCU_TRNGRST: reset TRNG
 211:../Firmware/GD32VW55x_standard_peripheral/Source/gd32vw55x_rcu.c ****       \arg        RCU_QSPIRST: reset QSPI
 212:../Firmware/GD32VW55x_standard_peripheral/Source/gd32vw55x_rcu.c ****       \arg        RCU_TIMERxRST (x=0,1,2,5,15,16): reset TIMER
 213:../Firmware/GD32VW55x_standard_peripheral/Source/gd32vw55x_rcu.c ****       \arg        RCU_WWDGTRST: reset WWDGT
 214:../Firmware/GD32VW55x_standard_peripheral/Source/gd32vw55x_rcu.c ****       \arg        RCU_SPIRST: reset SPI
 215:../Firmware/GD32VW55x_standard_peripheral/Source/gd32vw55x_rcu.c ****       \arg        RCU_RFIRST: reset RFI
 216:../Firmware/GD32VW55x_standard_peripheral/Source/gd32vw55x_rcu.c ****       \arg        RCU_USART0RST : reset USART
 217:../Firmware/GD32VW55x_standard_peripheral/Source/gd32vw55x_rcu.c ****       \arg        RCU_UARTxRST (x=1,2): reset UART
 218:../Firmware/GD32VW55x_standard_peripheral/Source/gd32vw55x_rcu.c ****       \arg        RCU_I2CxRST (x=0,1): reset I2C
 219:../Firmware/GD32VW55x_standard_peripheral/Source/gd32vw55x_rcu.c ****       \arg        RCU_PMURST: reset PMU
 220:../Firmware/GD32VW55x_standard_peripheral/Source/gd32vw55x_rcu.c ****       \arg        RCU_ADCRST : reset ADC
 221:../Firmware/GD32VW55x_standard_peripheral/Source/gd32vw55x_rcu.c ****       \arg        RCU_SYSCFGRST: reset SYSCFG
 222:../Firmware/GD32VW55x_standard_peripheral/Source/gd32vw55x_rcu.c ****       \arg        RCU_RFRST: reset RF
 223:../Firmware/GD32VW55x_standard_peripheral/Source/gd32vw55x_rcu.c ****     \param[out] none
 224:../Firmware/GD32VW55x_standard_peripheral/Source/gd32vw55x_rcu.c ****     \retval     none
 225:../Firmware/GD32VW55x_standard_peripheral/Source/gd32vw55x_rcu.c **** */
 226:../Firmware/GD32VW55x_standard_peripheral/Source/gd32vw55x_rcu.c **** void rcu_periph_reset_enable(rcu_periph_reset_enum periph_reset)
 227:../Firmware/GD32VW55x_standard_peripheral/Source/gd32vw55x_rcu.c **** {
 343              		.loc 1 227 1
 344              		.cfi_startproc
 345 0000 0111     		addi	sp,sp,-32
 346              		.cfi_def_cfa_offset 32
 347 0002 22CE     		sw	s0,28(sp)
 348              		.cfi_offset 8, -4
 349 0004 0010     		addi	s0,sp,32
 350              		.cfi_def_cfa 8, 0
 351 0006 2326A4FE 		sw	a0,-20(s0)
 228:../Firmware/GD32VW55x_standard_peripheral/Source/gd32vw55x_rcu.c ****     RCU_REG_VAL(periph_reset) |= BIT(RCU_BIT_POS(periph_reset));
 352              		.loc 1 228 31
 353 000a 8327C4FE 		lw	a5,-20(s0)
 354 000e 13D76700 		srli	a4,a5,6
 355 0012 B7470240 		li	a5,1073889280
 356 0016 93870780 		addi	a5,a5,-2048
 357 001a BA97     		add	a5,a4,a5
 358 001c 9843     		lw	a4,0(a5)
 359              		.loc 1 228 34
 360 001e 8327C4FE 		lw	a5,-20(s0)
 361 0022 FD8B     		andi	a5,a5,31
 362 0024 8546     		li	a3,1
 363 0026 B397F600 		sll	a5,a3,a5
 364              		.loc 1 228 31
 365 002a 8326C4FE 		lw	a3,-20(s0)
 366 002e 13D66600 		srli	a2,a3,6
 367 0032 B7460240 		li	a3,1073889280
 368 0036 93860680 		addi	a3,a3,-2048
 369 003a B296     		add	a3,a2,a3
 370 003c D98F     		or	a5,a4,a5
 371 003e 9CC2     		sw	a5,0(a3)
 229:../Firmware/GD32VW55x_standard_peripheral/Source/gd32vw55x_rcu.c **** }
 372              		.loc 1 229 1
 373 0040 0100     		nop
 374 0042 7244     		lw	s0,28(sp)
 375              		.cfi_restore 8
 376              		.cfi_def_cfa 2, 32
 377 0044 0561     		addi	sp,sp,32
 378              		.cfi_def_cfa_offset 0
 379 0046 8280     		jr	ra
 380              		.cfi_endproc
 381              	.LFE354:
 383              		.section	.text.rcu_periph_reset_disable,"ax",@progbits
 384              		.align	1
 385              		.globl	rcu_periph_reset_disable
 387              	rcu_periph_reset_disable:
 388              	.LFB355:
 230:../Firmware/GD32VW55x_standard_peripheral/Source/gd32vw55x_rcu.c **** 
 231:../Firmware/GD32VW55x_standard_peripheral/Source/gd32vw55x_rcu.c **** /*!
 232:../Firmware/GD32VW55x_standard_peripheral/Source/gd32vw55x_rcu.c ****     \brief      disable reset the peripheral
 233:../Firmware/GD32VW55x_standard_peripheral/Source/gd32vw55x_rcu.c ****     \param[in]  periph_reset: RCU peripherals reset, refer to rcu_periph_reset_enum
 234:../Firmware/GD32VW55x_standard_peripheral/Source/gd32vw55x_rcu.c ****                 only one parameter can be selected which is shown as below:
 235:../Firmware/GD32VW55x_standard_peripheral/Source/gd32vw55x_rcu.c ****       \arg        RCU_GPIOxRST (x=A,B,C): reset GPIO ports
 236:../Firmware/GD32VW55x_standard_peripheral/Source/gd32vw55x_rcu.c ****       \arg        RCU_CRCRST: reset CRC
 237:../Firmware/GD32VW55x_standard_peripheral/Source/gd32vw55x_rcu.c ****       \arg        RCU_WIFIRST: reset WIFI
 238:../Firmware/GD32VW55x_standard_peripheral/Source/gd32vw55x_rcu.c ****       \arg        RCU_DMARST: reset DMA
 239:../Firmware/GD32VW55x_standard_peripheral/Source/gd32vw55x_rcu.c ****       \arg        RCU_BLERST:reset Blue tooth
 240:../Firmware/GD32VW55x_standard_peripheral/Source/gd32vw55x_rcu.c ****       \arg        RCU_PKCAURST: reset PKCAU
 241:../Firmware/GD32VW55x_standard_peripheral/Source/gd32vw55x_rcu.c ****       \arg        RCU_CAURST: reset CAU
 242:../Firmware/GD32VW55x_standard_peripheral/Source/gd32vw55x_rcu.c ****       \arg        RCU_HAURST: reset HAU
 243:../Firmware/GD32VW55x_standard_peripheral/Source/gd32vw55x_rcu.c ****       \arg        RCU_TRNGRST: reset TRNG
 244:../Firmware/GD32VW55x_standard_peripheral/Source/gd32vw55x_rcu.c ****       \arg        RCU_QSPIRST: reset QSPI
 245:../Firmware/GD32VW55x_standard_peripheral/Source/gd32vw55x_rcu.c ****       \arg        RCU_TIMERxRST (x=0,1,2,5,15,16): reset TIMER
 246:../Firmware/GD32VW55x_standard_peripheral/Source/gd32vw55x_rcu.c ****       \arg        RCU_WWDGTRST: reset WWDGT
 247:../Firmware/GD32VW55x_standard_peripheral/Source/gd32vw55x_rcu.c ****       \arg        RCU_SPIRST: reset SPI
 248:../Firmware/GD32VW55x_standard_peripheral/Source/gd32vw55x_rcu.c ****       \arg        RCU_RFIRST: reset RFI
 249:../Firmware/GD32VW55x_standard_peripheral/Source/gd32vw55x_rcu.c ****       \arg        RCU_USART0RST: reset USART
 250:../Firmware/GD32VW55x_standard_peripheral/Source/gd32vw55x_rcu.c ****       \arg        RCU_UARTxRST (x=1,2): reset UART
 251:../Firmware/GD32VW55x_standard_peripheral/Source/gd32vw55x_rcu.c ****       \arg        RCU_I2CxRST (x=0,1): reset I2C
 252:../Firmware/GD32VW55x_standard_peripheral/Source/gd32vw55x_rcu.c ****       \arg        RCU_PMURST: reset PMU
 253:../Firmware/GD32VW55x_standard_peripheral/Source/gd32vw55x_rcu.c ****       \arg        RCU_ADCRST : reset ADC
 254:../Firmware/GD32VW55x_standard_peripheral/Source/gd32vw55x_rcu.c ****       \arg        RCU_SYSCFGRST: reset SYSCFG
 255:../Firmware/GD32VW55x_standard_peripheral/Source/gd32vw55x_rcu.c ****       \arg        RCU_RFRST: reset RF
 256:../Firmware/GD32VW55x_standard_peripheral/Source/gd32vw55x_rcu.c ****     \param[out] none
 257:../Firmware/GD32VW55x_standard_peripheral/Source/gd32vw55x_rcu.c ****     \retval     none
 258:../Firmware/GD32VW55x_standard_peripheral/Source/gd32vw55x_rcu.c **** */
 259:../Firmware/GD32VW55x_standard_peripheral/Source/gd32vw55x_rcu.c **** void rcu_periph_reset_disable(rcu_periph_reset_enum periph_reset)
 260:../Firmware/GD32VW55x_standard_peripheral/Source/gd32vw55x_rcu.c **** {
 389              		.loc 1 260 1
 390              		.cfi_startproc
 391 0000 0111     		addi	sp,sp,-32
 392              		.cfi_def_cfa_offset 32
 393 0002 22CE     		sw	s0,28(sp)
 394              		.cfi_offset 8, -4
 395 0004 0010     		addi	s0,sp,32
 396              		.cfi_def_cfa 8, 0
 397 0006 2326A4FE 		sw	a0,-20(s0)
 261:../Firmware/GD32VW55x_standard_peripheral/Source/gd32vw55x_rcu.c ****     RCU_REG_VAL(periph_reset) &= ~BIT(RCU_BIT_POS(periph_reset));
 398              		.loc 1 261 31
 399 000a 8327C4FE 		lw	a5,-20(s0)
 400 000e 13D76700 		srli	a4,a5,6
 401 0012 B7470240 		li	a5,1073889280
 402 0016 93870780 		addi	a5,a5,-2048
 403 001a BA97     		add	a5,a4,a5
 404 001c 9843     		lw	a4,0(a5)
 405              		.loc 1 261 35
 406 001e 8327C4FE 		lw	a5,-20(s0)
 407 0022 FD8B     		andi	a5,a5,31
 408 0024 8546     		li	a3,1
 409 0026 B397F600 		sll	a5,a3,a5
 410              		.loc 1 261 34
 411 002a 93C7F7FF 		not	a5,a5
 412              		.loc 1 261 31
 413 002e 8326C4FE 		lw	a3,-20(s0)
 414 0032 13D66600 		srli	a2,a3,6
 415 0036 B7460240 		li	a3,1073889280
 416 003a 93860680 		addi	a3,a3,-2048
 417 003e B296     		add	a3,a2,a3
 418 0040 F98F     		and	a5,a4,a5
 419 0042 9CC2     		sw	a5,0(a3)
 262:../Firmware/GD32VW55x_standard_peripheral/Source/gd32vw55x_rcu.c **** }
 420              		.loc 1 262 1
 421 0044 0100     		nop
 422 0046 7244     		lw	s0,28(sp)
 423              		.cfi_restore 8
 424              		.cfi_def_cfa 2, 32
 425 0048 0561     		addi	sp,sp,32
 426              		.cfi_def_cfa_offset 0
 427 004a 8280     		jr	ra
 428              		.cfi_endproc
 429              	.LFE355:
 431              		.section	.text.rcu_bkp_reset_enable,"ax",@progbits
 432              		.align	1
 433              		.globl	rcu_bkp_reset_enable
 435              	rcu_bkp_reset_enable:
 436              	.LFB356:
 263:../Firmware/GD32VW55x_standard_peripheral/Source/gd32vw55x_rcu.c **** 
 264:../Firmware/GD32VW55x_standard_peripheral/Source/gd32vw55x_rcu.c **** /*!
 265:../Firmware/GD32VW55x_standard_peripheral/Source/gd32vw55x_rcu.c ****     \brief      reset the BKP
 266:../Firmware/GD32VW55x_standard_peripheral/Source/gd32vw55x_rcu.c ****     \param[in]  none
 267:../Firmware/GD32VW55x_standard_peripheral/Source/gd32vw55x_rcu.c ****     \param[out] none
 268:../Firmware/GD32VW55x_standard_peripheral/Source/gd32vw55x_rcu.c ****     \retval     none
 269:../Firmware/GD32VW55x_standard_peripheral/Source/gd32vw55x_rcu.c **** */
 270:../Firmware/GD32VW55x_standard_peripheral/Source/gd32vw55x_rcu.c **** void rcu_bkp_reset_enable(void)
 271:../Firmware/GD32VW55x_standard_peripheral/Source/gd32vw55x_rcu.c **** {
 437              		.loc 1 271 1
 438              		.cfi_startproc
 439 0000 4111     		addi	sp,sp,-16
 440              		.cfi_def_cfa_offset 16
 441 0002 22C6     		sw	s0,12(sp)
 442              		.cfi_offset 8, -4
 443 0004 0008     		addi	s0,sp,16
 444              		.cfi_def_cfa 8, 0
 272:../Firmware/GD32VW55x_standard_peripheral/Source/gd32vw55x_rcu.c ****     RCU_BDCTL |= RCU_BDCTL_BKPRST;
 445              		.loc 1 272 15
 446 0006 B7470240 		li	a5,1073889280
 447 000a 93870787 		addi	a5,a5,-1936
 448 000e 9443     		lw	a3,0(a5)
 449 0010 B7470240 		li	a5,1073889280
 450 0014 93870787 		addi	a5,a5,-1936
 451 0018 4167     		li	a4,65536
 452 001a 558F     		or	a4,a3,a4
 453 001c 98C3     		sw	a4,0(a5)
 273:../Firmware/GD32VW55x_standard_peripheral/Source/gd32vw55x_rcu.c **** }
 454              		.loc 1 273 1
 455 001e 0100     		nop
 456 0020 3244     		lw	s0,12(sp)
 457              		.cfi_restore 8
 458              		.cfi_def_cfa 2, 16
 459 0022 4101     		addi	sp,sp,16
 460              		.cfi_def_cfa_offset 0
 461 0024 8280     		jr	ra
 462              		.cfi_endproc
 463              	.LFE356:
 465              		.section	.text.rcu_bkp_reset_disable,"ax",@progbits
 466              		.align	1
 467              		.globl	rcu_bkp_reset_disable
 469              	rcu_bkp_reset_disable:
 470              	.LFB357:
 274:../Firmware/GD32VW55x_standard_peripheral/Source/gd32vw55x_rcu.c **** 
 275:../Firmware/GD32VW55x_standard_peripheral/Source/gd32vw55x_rcu.c **** /*!
 276:../Firmware/GD32VW55x_standard_peripheral/Source/gd32vw55x_rcu.c ****     \brief      disable the BKP reset
 277:../Firmware/GD32VW55x_standard_peripheral/Source/gd32vw55x_rcu.c ****     \param[in]  none
 278:../Firmware/GD32VW55x_standard_peripheral/Source/gd32vw55x_rcu.c ****     \param[out] none
 279:../Firmware/GD32VW55x_standard_peripheral/Source/gd32vw55x_rcu.c ****     \retval     none
 280:../Firmware/GD32VW55x_standard_peripheral/Source/gd32vw55x_rcu.c **** */
 281:../Firmware/GD32VW55x_standard_peripheral/Source/gd32vw55x_rcu.c **** void rcu_bkp_reset_disable(void)
 282:../Firmware/GD32VW55x_standard_peripheral/Source/gd32vw55x_rcu.c **** {
 471              		.loc 1 282 1
 472              		.cfi_startproc
 473 0000 4111     		addi	sp,sp,-16
 474              		.cfi_def_cfa_offset 16
 475 0002 22C6     		sw	s0,12(sp)
 476              		.cfi_offset 8, -4
 477 0004 0008     		addi	s0,sp,16
 478              		.cfi_def_cfa 8, 0
 283:../Firmware/GD32VW55x_standard_peripheral/Source/gd32vw55x_rcu.c ****     RCU_BDCTL &= ~RCU_BDCTL_BKPRST;
 479              		.loc 1 283 15
 480 0006 B7470240 		li	a5,1073889280
 481 000a 93870787 		addi	a5,a5,-1936
 482 000e 9443     		lw	a3,0(a5)
 483 0010 B7470240 		li	a5,1073889280
 484 0014 93870787 		addi	a5,a5,-1936
 485 0018 4177     		li	a4,-65536
 486 001a 7D17     		addi	a4,a4,-1
 487 001c 758F     		and	a4,a3,a4
 488 001e 98C3     		sw	a4,0(a5)
 284:../Firmware/GD32VW55x_standard_peripheral/Source/gd32vw55x_rcu.c **** }
 489              		.loc 1 284 1
 490 0020 0100     		nop
 491 0022 3244     		lw	s0,12(sp)
 492              		.cfi_restore 8
 493              		.cfi_def_cfa 2, 16
 494 0024 4101     		addi	sp,sp,16
 495              		.cfi_def_cfa_offset 0
 496 0026 8280     		jr	ra
 497              		.cfi_endproc
 498              	.LFE357:
 500              		.section	.text.rcu_rfpll_cal_enable,"ax",@progbits
 501              		.align	1
 502              		.globl	rcu_rfpll_cal_enable
 504              	rcu_rfpll_cal_enable:
 505              	.LFB358:
 285:../Firmware/GD32VW55x_standard_peripheral/Source/gd32vw55x_rcu.c **** 
 286:../Firmware/GD32VW55x_standard_peripheral/Source/gd32vw55x_rcu.c **** /*!
 287:../Firmware/GD32VW55x_standard_peripheral/Source/gd32vw55x_rcu.c ****     \brief      enable the RF PLL calculation
 288:../Firmware/GD32VW55x_standard_peripheral/Source/gd32vw55x_rcu.c ****     \param[in]  none
 289:../Firmware/GD32VW55x_standard_peripheral/Source/gd32vw55x_rcu.c ****     \param[out] none
 290:../Firmware/GD32VW55x_standard_peripheral/Source/gd32vw55x_rcu.c ****     \retval     none
 291:../Firmware/GD32VW55x_standard_peripheral/Source/gd32vw55x_rcu.c **** */
 292:../Firmware/GD32VW55x_standard_peripheral/Source/gd32vw55x_rcu.c **** void rcu_rfpll_cal_enable(void)
 293:../Firmware/GD32VW55x_standard_peripheral/Source/gd32vw55x_rcu.c **** {
 506              		.loc 1 293 1
 507              		.cfi_startproc
 508 0000 4111     		addi	sp,sp,-16
 509              		.cfi_def_cfa_offset 16
 510 0002 22C6     		sw	s0,12(sp)
 511              		.cfi_offset 8, -4
 512 0004 0008     		addi	s0,sp,16
 513              		.cfi_def_cfa 8, 0
 294:../Firmware/GD32VW55x_standard_peripheral/Source/gd32vw55x_rcu.c ****     RCU_CFG1 |= RCU_CFG1_RFPLLCALEN;
 514              		.loc 1 294 14
 515 0006 B7470240 		li	a5,1073889280
 516 000a 9387C788 		addi	a5,a5,-1908
 517 000e 9443     		lw	a3,0(a5)
 518 0010 B7470240 		li	a5,1073889280
 519 0014 9387C788 		addi	a5,a5,-1908
 520 0018 1167     		li	a4,16384
 521 001a 558F     		or	a4,a3,a4
 522 001c 98C3     		sw	a4,0(a5)
 295:../Firmware/GD32VW55x_standard_peripheral/Source/gd32vw55x_rcu.c **** }
 523              		.loc 1 295 1
 524 001e 0100     		nop
 525 0020 3244     		lw	s0,12(sp)
 526              		.cfi_restore 8
 527              		.cfi_def_cfa 2, 16
 528 0022 4101     		addi	sp,sp,16
 529              		.cfi_def_cfa_offset 0
 530 0024 8280     		jr	ra
 531              		.cfi_endproc
 532              	.LFE358:
 534              		.section	.text.rcu_rfpll_cal_disable,"ax",@progbits
 535              		.align	1
 536              		.globl	rcu_rfpll_cal_disable
 538              	rcu_rfpll_cal_disable:
 539              	.LFB359:
 296:../Firmware/GD32VW55x_standard_peripheral/Source/gd32vw55x_rcu.c **** 
 297:../Firmware/GD32VW55x_standard_peripheral/Source/gd32vw55x_rcu.c **** /*!
 298:../Firmware/GD32VW55x_standard_peripheral/Source/gd32vw55x_rcu.c ****     \brief      disable the RF PLL calculation
 299:../Firmware/GD32VW55x_standard_peripheral/Source/gd32vw55x_rcu.c ****     \param[in]  none
 300:../Firmware/GD32VW55x_standard_peripheral/Source/gd32vw55x_rcu.c ****     \param[out] none
 301:../Firmware/GD32VW55x_standard_peripheral/Source/gd32vw55x_rcu.c ****     \retval     none
 302:../Firmware/GD32VW55x_standard_peripheral/Source/gd32vw55x_rcu.c **** */
 303:../Firmware/GD32VW55x_standard_peripheral/Source/gd32vw55x_rcu.c **** void rcu_rfpll_cal_disable(void)
 304:../Firmware/GD32VW55x_standard_peripheral/Source/gd32vw55x_rcu.c **** {
 540              		.loc 1 304 1
 541              		.cfi_startproc
 542 0000 4111     		addi	sp,sp,-16
 543              		.cfi_def_cfa_offset 16
 544 0002 22C6     		sw	s0,12(sp)
 545              		.cfi_offset 8, -4
 546 0004 0008     		addi	s0,sp,16
 547              		.cfi_def_cfa 8, 0
 305:../Firmware/GD32VW55x_standard_peripheral/Source/gd32vw55x_rcu.c ****     RCU_CFG1 &= ~RCU_CFG1_RFPLLCALEN;
 548              		.loc 1 305 14
 549 0006 B7470240 		li	a5,1073889280
 550 000a 9387C788 		addi	a5,a5,-1908
 551 000e 9443     		lw	a3,0(a5)
 552 0010 B7470240 		li	a5,1073889280
 553 0014 9387C788 		addi	a5,a5,-1908
 554 0018 7177     		li	a4,-16384
 555 001a 7D17     		addi	a4,a4,-1
 556 001c 758F     		and	a4,a3,a4
 557 001e 98C3     		sw	a4,0(a5)
 306:../Firmware/GD32VW55x_standard_peripheral/Source/gd32vw55x_rcu.c **** }
 558              		.loc 1 306 1
 559 0020 0100     		nop
 560 0022 3244     		lw	s0,12(sp)
 561              		.cfi_restore 8
 562              		.cfi_def_cfa 2, 16
 563 0024 4101     		addi	sp,sp,16
 564              		.cfi_def_cfa_offset 0
 565 0026 8280     		jr	ra
 566              		.cfi_endproc
 567              	.LFE359:
 569              		.section	.text.rcu_control_unit_powerup,"ax",@progbits
 570              		.align	1
 571              		.globl	rcu_control_unit_powerup
 573              	rcu_control_unit_powerup:
 574              	.LFB360:
 307:../Firmware/GD32VW55x_standard_peripheral/Source/gd32vw55x_rcu.c **** 
 308:../Firmware/GD32VW55x_standard_peripheral/Source/gd32vw55x_rcu.c **** /*!
 309:../Firmware/GD32VW55x_standard_peripheral/Source/gd32vw55x_rcu.c ****     \brief      power up rcu control unit
 310:../Firmware/GD32VW55x_standard_peripheral/Source/gd32vw55x_rcu.c ****     \param[in]  rcu_unit: rcu power up control unit select
 311:../Firmware/GD32VW55x_standard_peripheral/Source/gd32vw55x_rcu.c ****                 only one parameter can be selected which is shown as below:
 312:../Firmware/GD32VW55x_standard_peripheral/Source/gd32vw55x_rcu.c ****       \arg        RCU_UNIT_HXTAL: HXTAL
 313:../Firmware/GD32VW55x_standard_peripheral/Source/gd32vw55x_rcu.c ****       \arg        RCU_UNIT_PLLDIG: PLLDIG
 314:../Firmware/GD32VW55x_standard_peripheral/Source/gd32vw55x_rcu.c ****       \arg        RCU_UNIT_RFPLL: RFPLL
 315:../Firmware/GD32VW55x_standard_peripheral/Source/gd32vw55x_rcu.c ****       \arg        RCU_UNIT_LDOANA: LDOANA
 316:../Firmware/GD32VW55x_standard_peripheral/Source/gd32vw55x_rcu.c ****       \arg        RCU_UNIT_LDOCLK: LDOCLK
 317:../Firmware/GD32VW55x_standard_peripheral/Source/gd32vw55x_rcu.c ****       \arg        RCU_UNIT_BANDGAP: BANDGAP
 318:../Firmware/GD32VW55x_standard_peripheral/Source/gd32vw55x_rcu.c ****     \param[out] none
 319:../Firmware/GD32VW55x_standard_peripheral/Source/gd32vw55x_rcu.c ****     \retval     none
 320:../Firmware/GD32VW55x_standard_peripheral/Source/gd32vw55x_rcu.c **** */
 321:../Firmware/GD32VW55x_standard_peripheral/Source/gd32vw55x_rcu.c **** void rcu_control_unit_powerup(rcu_unit_enum rcu_unit)
 322:../Firmware/GD32VW55x_standard_peripheral/Source/gd32vw55x_rcu.c **** {
 575              		.loc 1 322 1
 576              		.cfi_startproc
 577 0000 0111     		addi	sp,sp,-32
 578              		.cfi_def_cfa_offset 32
 579 0002 22CE     		sw	s0,28(sp)
 580              		.cfi_offset 8, -4
 581 0004 0010     		addi	s0,sp,32
 582              		.cfi_def_cfa 8, 0
 583 0006 2326A4FE 		sw	a0,-20(s0)
 323:../Firmware/GD32VW55x_standard_peripheral/Source/gd32vw55x_rcu.c ****     RCU_REG_VAL(rcu_unit) |= BIT(RCU_BIT_POS(rcu_unit));
 584              		.loc 1 323 27
 585 000a 8327C4FE 		lw	a5,-20(s0)
 586 000e 13D76700 		srli	a4,a5,6
 587 0012 B7470240 		li	a5,1073889280
 588 0016 93870780 		addi	a5,a5,-2048
 589 001a BA97     		add	a5,a4,a5
 590 001c 9843     		lw	a4,0(a5)
 591              		.loc 1 323 30
 592 001e 8327C4FE 		lw	a5,-20(s0)
 593 0022 FD8B     		andi	a5,a5,31
 594 0024 8546     		li	a3,1
 595 0026 B397F600 		sll	a5,a3,a5
 596              		.loc 1 323 27
 597 002a 8326C4FE 		lw	a3,-20(s0)
 598 002e 13D66600 		srli	a2,a3,6
 599 0032 B7460240 		li	a3,1073889280
 600 0036 93860680 		addi	a3,a3,-2048
 601 003a B296     		add	a3,a2,a3
 602 003c D98F     		or	a5,a4,a5
 603 003e 9CC2     		sw	a5,0(a3)
 324:../Firmware/GD32VW55x_standard_peripheral/Source/gd32vw55x_rcu.c **** }
 604              		.loc 1 324 1
 605 0040 0100     		nop
 606 0042 7244     		lw	s0,28(sp)
 607              		.cfi_restore 8
 608              		.cfi_def_cfa 2, 32
 609 0044 0561     		addi	sp,sp,32
 610              		.cfi_def_cfa_offset 0
 611 0046 8280     		jr	ra
 612              		.cfi_endproc
 613              	.LFE360:
 615              		.section	.text.rcu_control_unit_powerdown,"ax",@progbits
 616              		.align	1
 617              		.globl	rcu_control_unit_powerdown
 619              	rcu_control_unit_powerdown:
 620              	.LFB361:
 325:../Firmware/GD32VW55x_standard_peripheral/Source/gd32vw55x_rcu.c **** 
 326:../Firmware/GD32VW55x_standard_peripheral/Source/gd32vw55x_rcu.c **** /*!
 327:../Firmware/GD32VW55x_standard_peripheral/Source/gd32vw55x_rcu.c ****     \brief      power down rcu control unit
 328:../Firmware/GD32VW55x_standard_peripheral/Source/gd32vw55x_rcu.c ****     \param[in]  rcu_unit: rcu power down control unit select
 329:../Firmware/GD32VW55x_standard_peripheral/Source/gd32vw55x_rcu.c ****                 only one parameter can be selected which is shown as below:
 330:../Firmware/GD32VW55x_standard_peripheral/Source/gd32vw55x_rcu.c ****       \arg        RCU_UNIT_HXTAL: HXTAL
 331:../Firmware/GD32VW55x_standard_peripheral/Source/gd32vw55x_rcu.c ****       \arg        RCU_UNIT_PLLDIG: PLLDIG
 332:../Firmware/GD32VW55x_standard_peripheral/Source/gd32vw55x_rcu.c ****       \arg        RCU_UNIT_RFPLL: RFPLL
 333:../Firmware/GD32VW55x_standard_peripheral/Source/gd32vw55x_rcu.c ****       \arg        RCU_UNIT_LDOANA: LDOANA
 334:../Firmware/GD32VW55x_standard_peripheral/Source/gd32vw55x_rcu.c ****       \arg        RCU_UNIT_LDOCLK: LDOCLK
 335:../Firmware/GD32VW55x_standard_peripheral/Source/gd32vw55x_rcu.c ****       \arg        RCU_UNIT_BANDGAP: BANDGAP
 336:../Firmware/GD32VW55x_standard_peripheral/Source/gd32vw55x_rcu.c ****     \param[out] none
 337:../Firmware/GD32VW55x_standard_peripheral/Source/gd32vw55x_rcu.c ****     \retval     none
 338:../Firmware/GD32VW55x_standard_peripheral/Source/gd32vw55x_rcu.c **** */
 339:../Firmware/GD32VW55x_standard_peripheral/Source/gd32vw55x_rcu.c **** void rcu_control_unit_powerdown(rcu_unit_enum rcu_unit)
 340:../Firmware/GD32VW55x_standard_peripheral/Source/gd32vw55x_rcu.c **** {
 621              		.loc 1 340 1
 622              		.cfi_startproc
 623 0000 0111     		addi	sp,sp,-32
 624              		.cfi_def_cfa_offset 32
 625 0002 22CE     		sw	s0,28(sp)
 626              		.cfi_offset 8, -4
 627 0004 0010     		addi	s0,sp,32
 628              		.cfi_def_cfa 8, 0
 629 0006 2326A4FE 		sw	a0,-20(s0)
 341:../Firmware/GD32VW55x_standard_peripheral/Source/gd32vw55x_rcu.c ****     RCU_REG_VAL(rcu_unit) &= ~BIT(RCU_BIT_POS(rcu_unit));
 630              		.loc 1 341 27
 631 000a 8327C4FE 		lw	a5,-20(s0)
 632 000e 13D76700 		srli	a4,a5,6
 633 0012 B7470240 		li	a5,1073889280
 634 0016 93870780 		addi	a5,a5,-2048
 635 001a BA97     		add	a5,a4,a5
 636 001c 9843     		lw	a4,0(a5)
 637              		.loc 1 341 31
 638 001e 8327C4FE 		lw	a5,-20(s0)
 639 0022 FD8B     		andi	a5,a5,31
 640 0024 8546     		li	a3,1
 641 0026 B397F600 		sll	a5,a3,a5
 642              		.loc 1 341 30
 643 002a 93C7F7FF 		not	a5,a5
 644              		.loc 1 341 27
 645 002e 8326C4FE 		lw	a3,-20(s0)
 646 0032 13D66600 		srli	a2,a3,6
 647 0036 B7460240 		li	a3,1073889280
 648 003a 93860680 		addi	a3,a3,-2048
 649 003e B296     		add	a3,a2,a3
 650 0040 F98F     		and	a5,a4,a5
 651 0042 9CC2     		sw	a5,0(a3)
 342:../Firmware/GD32VW55x_standard_peripheral/Source/gd32vw55x_rcu.c **** }
 652              		.loc 1 342 1
 653 0044 0100     		nop
 654 0046 7244     		lw	s0,28(sp)
 655              		.cfi_restore 8
 656              		.cfi_def_cfa 2, 32
 657 0048 0561     		addi	sp,sp,32
 658              		.cfi_def_cfa_offset 0
 659 004a 8280     		jr	ra
 660              		.cfi_endproc
 661              	.LFE361:
 663              		.section	.text.rcu_system_clock_source_config,"ax",@progbits
 664              		.align	1
 665              		.globl	rcu_system_clock_source_config
 667              	rcu_system_clock_source_config:
 668              	.LFB362:
 343:../Firmware/GD32VW55x_standard_peripheral/Source/gd32vw55x_rcu.c **** 
 344:../Firmware/GD32VW55x_standard_peripheral/Source/gd32vw55x_rcu.c **** /*!
 345:../Firmware/GD32VW55x_standard_peripheral/Source/gd32vw55x_rcu.c ****     \brief      configure the system clock source
 346:../Firmware/GD32VW55x_standard_peripheral/Source/gd32vw55x_rcu.c ****     \param[in]  ck_sys: system clock source select
 347:../Firmware/GD32VW55x_standard_peripheral/Source/gd32vw55x_rcu.c ****                 only one parameter can be selected which is shown as below:
 348:../Firmware/GD32VW55x_standard_peripheral/Source/gd32vw55x_rcu.c ****       \arg        RCU_CKSYSSRC_IRC16M: select CK_IRC16M as the CK_SYS source
 349:../Firmware/GD32VW55x_standard_peripheral/Source/gd32vw55x_rcu.c ****       \arg        RCU_CKSYSSRC_HXTAL: select CK_HXTAL as the CK_SYS source
 350:../Firmware/GD32VW55x_standard_peripheral/Source/gd32vw55x_rcu.c ****       \arg        RCU_CKSYSSRC_PLLDIG: select CK_PLLDIG as the CK_SYS source
 351:../Firmware/GD32VW55x_standard_peripheral/Source/gd32vw55x_rcu.c ****     \param[out] none
 352:../Firmware/GD32VW55x_standard_peripheral/Source/gd32vw55x_rcu.c ****     \retval     none
 353:../Firmware/GD32VW55x_standard_peripheral/Source/gd32vw55x_rcu.c **** */
 354:../Firmware/GD32VW55x_standard_peripheral/Source/gd32vw55x_rcu.c **** void rcu_system_clock_source_config(uint32_t ck_sys)
 355:../Firmware/GD32VW55x_standard_peripheral/Source/gd32vw55x_rcu.c **** {
 669              		.loc 1 355 1
 670              		.cfi_startproc
 671 0000 7971     		addi	sp,sp,-48
 672              		.cfi_def_cfa_offset 48
 673 0002 22D6     		sw	s0,44(sp)
 674              		.cfi_offset 8, -4
 675 0004 0018     		addi	s0,sp,48
 676              		.cfi_def_cfa 8, 0
 677 0006 232EA4FC 		sw	a0,-36(s0)
 356:../Firmware/GD32VW55x_standard_peripheral/Source/gd32vw55x_rcu.c ****     uint32_t reg;
 357:../Firmware/GD32VW55x_standard_peripheral/Source/gd32vw55x_rcu.c **** 
 358:../Firmware/GD32VW55x_standard_peripheral/Source/gd32vw55x_rcu.c ****     reg = RCU_CFG0;
 678              		.loc 1 358 11
 679 000a B7470240 		li	a5,1073889280
 680 000e 93878780 		addi	a5,a5,-2040
 681              		.loc 1 358 9
 682 0012 9C43     		lw	a5,0(a5)
 683 0014 2326F4FE 		sw	a5,-20(s0)
 359:../Firmware/GD32VW55x_standard_peripheral/Source/gd32vw55x_rcu.c ****     /* reset the SCS bits and set according to ck_sys */
 360:../Firmware/GD32VW55x_standard_peripheral/Source/gd32vw55x_rcu.c ****     reg &= ~RCU_CFG0_SCS;
 684              		.loc 1 360 9
 685 0018 8327C4FE 		lw	a5,-20(s0)
 686 001c F19B     		andi	a5,a5,-4
 687 001e 2326F4FE 		sw	a5,-20(s0)
 361:../Firmware/GD32VW55x_standard_peripheral/Source/gd32vw55x_rcu.c ****     RCU_CFG0 = (reg | ck_sys);
 688              		.loc 1 361 5
 689 0022 B7470240 		li	a5,1073889280
 690 0026 93878780 		addi	a5,a5,-2040
 691              		.loc 1 361 21
 692 002a 8326C4FE 		lw	a3,-20(s0)
 693 002e 0327C4FD 		lw	a4,-36(s0)
 694 0032 558F     		or	a4,a3,a4
 695              		.loc 1 361 14
 696 0034 98C3     		sw	a4,0(a5)
 362:../Firmware/GD32VW55x_standard_peripheral/Source/gd32vw55x_rcu.c **** }
 697              		.loc 1 362 1
 698 0036 0100     		nop
 699 0038 3254     		lw	s0,44(sp)
 700              		.cfi_restore 8
 701              		.cfi_def_cfa 2, 48
 702 003a 4561     		addi	sp,sp,48
 703              		.cfi_def_cfa_offset 0
 704 003c 8280     		jr	ra
 705              		.cfi_endproc
 706              	.LFE362:
 708              		.section	.text.rcu_system_clock_source_get,"ax",@progbits
 709              		.align	1
 710              		.globl	rcu_system_clock_source_get
 712              	rcu_system_clock_source_get:
 713              	.LFB363:
 363:../Firmware/GD32VW55x_standard_peripheral/Source/gd32vw55x_rcu.c **** 
 364:../Firmware/GD32VW55x_standard_peripheral/Source/gd32vw55x_rcu.c **** /*!
 365:../Firmware/GD32VW55x_standard_peripheral/Source/gd32vw55x_rcu.c ****     \brief      get the system clock source
 366:../Firmware/GD32VW55x_standard_peripheral/Source/gd32vw55x_rcu.c ****     \param[in]  none
 367:../Firmware/GD32VW55x_standard_peripheral/Source/gd32vw55x_rcu.c ****     \param[out] none
 368:../Firmware/GD32VW55x_standard_peripheral/Source/gd32vw55x_rcu.c ****     \retval     which clock is selected as CK_SYS source
 369:../Firmware/GD32VW55x_standard_peripheral/Source/gd32vw55x_rcu.c ****       \arg        RCU_SCSS_IRC16M: CK_IRC16M is selected as the CK_SYS source
 370:../Firmware/GD32VW55x_standard_peripheral/Source/gd32vw55x_rcu.c ****       \arg        RCU_SCSS_HXTAL: CK_HXTAL is selected as the CK_SYS source
 371:../Firmware/GD32VW55x_standard_peripheral/Source/gd32vw55x_rcu.c ****       \arg        RCU_CKSYSSRC_PLLDIG: CK_PLLDIG is selected as the CK_SYS source
 372:../Firmware/GD32VW55x_standard_peripheral/Source/gd32vw55x_rcu.c **** */
 373:../Firmware/GD32VW55x_standard_peripheral/Source/gd32vw55x_rcu.c **** uint32_t rcu_system_clock_source_get(void)
 374:../Firmware/GD32VW55x_standard_peripheral/Source/gd32vw55x_rcu.c **** {
 714              		.loc 1 374 1
 715              		.cfi_startproc
 716 0000 4111     		addi	sp,sp,-16
 717              		.cfi_def_cfa_offset 16
 718 0002 22C6     		sw	s0,12(sp)
 719              		.cfi_offset 8, -4
 720 0004 0008     		addi	s0,sp,16
 721              		.cfi_def_cfa 8, 0
 375:../Firmware/GD32VW55x_standard_peripheral/Source/gd32vw55x_rcu.c ****     return (RCU_CFG0 & RCU_CFG0_SCSS);
 722              		.loc 1 375 22
 723 0006 B7470240 		li	a5,1073889280
 724 000a 93878780 		addi	a5,a5,-2040
 725 000e 9C43     		lw	a5,0(a5)
 726 0010 B18B     		andi	a5,a5,12
 376:../Firmware/GD32VW55x_standard_peripheral/Source/gd32vw55x_rcu.c **** }
 727              		.loc 1 376 1
 728 0012 3E85     		mv	a0,a5
 729 0014 3244     		lw	s0,12(sp)
 730              		.cfi_restore 8
 731              		.cfi_def_cfa 2, 16
 732 0016 4101     		addi	sp,sp,16
 733              		.cfi_def_cfa_offset 0
 734 0018 8280     		jr	ra
 735              		.cfi_endproc
 736              	.LFE363:
 738              		.section	.text.rcu_ahb_clock_config,"ax",@progbits
 739              		.align	1
 740              		.globl	rcu_ahb_clock_config
 742              	rcu_ahb_clock_config:
 743              	.LFB364:
 377:../Firmware/GD32VW55x_standard_peripheral/Source/gd32vw55x_rcu.c **** 
 378:../Firmware/GD32VW55x_standard_peripheral/Source/gd32vw55x_rcu.c **** /*!
 379:../Firmware/GD32VW55x_standard_peripheral/Source/gd32vw55x_rcu.c ****     \brief      configure the AHB clock prescaler selection
 380:../Firmware/GD32VW55x_standard_peripheral/Source/gd32vw55x_rcu.c ****     \param[in]  ck_ahb: AHB clock prescaler selection
 381:../Firmware/GD32VW55x_standard_peripheral/Source/gd32vw55x_rcu.c ****                 only one parameter can be selected which is shown as below:
 382:../Firmware/GD32VW55x_standard_peripheral/Source/gd32vw55x_rcu.c ****       \arg        RCU_AHB_CKSYS_DIVx, x=1, 2, 4, 8, 16, 64, 128, 256, 512
 383:../Firmware/GD32VW55x_standard_peripheral/Source/gd32vw55x_rcu.c ****     \param[out] none
 384:../Firmware/GD32VW55x_standard_peripheral/Source/gd32vw55x_rcu.c ****     \retval     none
 385:../Firmware/GD32VW55x_standard_peripheral/Source/gd32vw55x_rcu.c **** */
 386:../Firmware/GD32VW55x_standard_peripheral/Source/gd32vw55x_rcu.c **** void rcu_ahb_clock_config(uint32_t ck_ahb)
 387:../Firmware/GD32VW55x_standard_peripheral/Source/gd32vw55x_rcu.c **** {
 744              		.loc 1 387 1
 745              		.cfi_startproc
 746 0000 7971     		addi	sp,sp,-48
 747              		.cfi_def_cfa_offset 48
 748 0002 22D6     		sw	s0,44(sp)
 749              		.cfi_offset 8, -4
 750 0004 0018     		addi	s0,sp,48
 751              		.cfi_def_cfa 8, 0
 752 0006 232EA4FC 		sw	a0,-36(s0)
 388:../Firmware/GD32VW55x_standard_peripheral/Source/gd32vw55x_rcu.c ****     uint32_t reg;
 389:../Firmware/GD32VW55x_standard_peripheral/Source/gd32vw55x_rcu.c **** 
 390:../Firmware/GD32VW55x_standard_peripheral/Source/gd32vw55x_rcu.c ****     reg = RCU_CFG0;
 753              		.loc 1 390 11
 754 000a B7470240 		li	a5,1073889280
 755 000e 93878780 		addi	a5,a5,-2040
 756              		.loc 1 390 9
 757 0012 9C43     		lw	a5,0(a5)
 758 0014 2326F4FE 		sw	a5,-20(s0)
 391:../Firmware/GD32VW55x_standard_peripheral/Source/gd32vw55x_rcu.c ****     /* reset the AHBPSC bits and set according to ck_ahb */
 392:../Firmware/GD32VW55x_standard_peripheral/Source/gd32vw55x_rcu.c ****     reg &= ~RCU_CFG0_AHBPSC;
 759              		.loc 1 392 9
 760 0018 8327C4FE 		lw	a5,-20(s0)
 761 001c 93F7F7F0 		andi	a5,a5,-241
 762 0020 2326F4FE 		sw	a5,-20(s0)
 393:../Firmware/GD32VW55x_standard_peripheral/Source/gd32vw55x_rcu.c ****     RCU_CFG0 = (reg | ck_ahb);
 763              		.loc 1 393 5
 764 0024 B7470240 		li	a5,1073889280
 765 0028 93878780 		addi	a5,a5,-2040
 766              		.loc 1 393 21
 767 002c 8326C4FE 		lw	a3,-20(s0)
 768 0030 0327C4FD 		lw	a4,-36(s0)
 769 0034 558F     		or	a4,a3,a4
 770              		.loc 1 393 14
 771 0036 98C3     		sw	a4,0(a5)
 394:../Firmware/GD32VW55x_standard_peripheral/Source/gd32vw55x_rcu.c **** }
 772              		.loc 1 394 1
 773 0038 0100     		nop
 774 003a 3254     		lw	s0,44(sp)
 775              		.cfi_restore 8
 776              		.cfi_def_cfa 2, 48
 777 003c 4561     		addi	sp,sp,48
 778              		.cfi_def_cfa_offset 0
 779 003e 8280     		jr	ra
 780              		.cfi_endproc
 781              	.LFE364:
 783              		.section	.text.rcu_apb1_clock_config,"ax",@progbits
 784              		.align	1
 785              		.globl	rcu_apb1_clock_config
 787              	rcu_apb1_clock_config:
 788              	.LFB365:
 395:../Firmware/GD32VW55x_standard_peripheral/Source/gd32vw55x_rcu.c **** 
 396:../Firmware/GD32VW55x_standard_peripheral/Source/gd32vw55x_rcu.c **** /*!
 397:../Firmware/GD32VW55x_standard_peripheral/Source/gd32vw55x_rcu.c ****     \brief      configure the APB1 clock prescaler selection
 398:../Firmware/GD32VW55x_standard_peripheral/Source/gd32vw55x_rcu.c ****     \param[in]  ck_apb1: APB1 clock prescaler selection
 399:../Firmware/GD32VW55x_standard_peripheral/Source/gd32vw55x_rcu.c ****                 only one parameter can be selected which is shown as below:
 400:../Firmware/GD32VW55x_standard_peripheral/Source/gd32vw55x_rcu.c ****       \arg        RCU_APB1_CKAHB_DIV1: select CK_AHB as CK_APB1
 401:../Firmware/GD32VW55x_standard_peripheral/Source/gd32vw55x_rcu.c ****       \arg        RCU_APB1_CKAHB_DIV2: select CK_AHB/2 as CK_APB1
 402:../Firmware/GD32VW55x_standard_peripheral/Source/gd32vw55x_rcu.c ****       \arg        RCU_APB1_CKAHB_DIV4: select CK_AHB/4 as CK_APB1
 403:../Firmware/GD32VW55x_standard_peripheral/Source/gd32vw55x_rcu.c ****       \arg        RCU_APB1_CKAHB_DIV8: select CK_AHB/8 as CK_APB1
 404:../Firmware/GD32VW55x_standard_peripheral/Source/gd32vw55x_rcu.c ****       \arg        RCU_APB1_CKAHB_DIV16: select CK_AHB/16 as CK_APB1
 405:../Firmware/GD32VW55x_standard_peripheral/Source/gd32vw55x_rcu.c ****     \param[out] none
 406:../Firmware/GD32VW55x_standard_peripheral/Source/gd32vw55x_rcu.c ****     \retval     none
 407:../Firmware/GD32VW55x_standard_peripheral/Source/gd32vw55x_rcu.c **** */
 408:../Firmware/GD32VW55x_standard_peripheral/Source/gd32vw55x_rcu.c **** void rcu_apb1_clock_config(uint32_t ck_apb1)
 409:../Firmware/GD32VW55x_standard_peripheral/Source/gd32vw55x_rcu.c **** {
 789              		.loc 1 409 1
 790              		.cfi_startproc
 791 0000 7971     		addi	sp,sp,-48
 792              		.cfi_def_cfa_offset 48
 793 0002 22D6     		sw	s0,44(sp)
 794              		.cfi_offset 8, -4
 795 0004 0018     		addi	s0,sp,48
 796              		.cfi_def_cfa 8, 0
 797 0006 232EA4FC 		sw	a0,-36(s0)
 410:../Firmware/GD32VW55x_standard_peripheral/Source/gd32vw55x_rcu.c ****     uint32_t reg;
 411:../Firmware/GD32VW55x_standard_peripheral/Source/gd32vw55x_rcu.c **** 
 412:../Firmware/GD32VW55x_standard_peripheral/Source/gd32vw55x_rcu.c ****     reg = RCU_CFG0;
 798              		.loc 1 412 11
 799 000a B7470240 		li	a5,1073889280
 800 000e 93878780 		addi	a5,a5,-2040
 801              		.loc 1 412 9
 802 0012 9C43     		lw	a5,0(a5)
 803 0014 2326F4FE 		sw	a5,-20(s0)
 413:../Firmware/GD32VW55x_standard_peripheral/Source/gd32vw55x_rcu.c ****     /* reset the APB1PSC and set according to ck_apb1 */
 414:../Firmware/GD32VW55x_standard_peripheral/Source/gd32vw55x_rcu.c ****     reg &= ~RCU_CFG0_APB1PSC;
 804              		.loc 1 414 9
 805 0018 0327C4FE 		lw	a4,-20(s0)
 806 001c F977     		li	a5,-8192
 807 001e 9387F73F 		addi	a5,a5,1023
 808 0022 F98F     		and	a5,a4,a5
 809 0024 2326F4FE 		sw	a5,-20(s0)
 415:../Firmware/GD32VW55x_standard_peripheral/Source/gd32vw55x_rcu.c ****     RCU_CFG0 = (reg | ck_apb1);
 810              		.loc 1 415 5
 811 0028 B7470240 		li	a5,1073889280
 812 002c 93878780 		addi	a5,a5,-2040
 813              		.loc 1 415 21
 814 0030 8326C4FE 		lw	a3,-20(s0)
 815 0034 0327C4FD 		lw	a4,-36(s0)
 816 0038 558F     		or	a4,a3,a4
 817              		.loc 1 415 14
 818 003a 98C3     		sw	a4,0(a5)
 416:../Firmware/GD32VW55x_standard_peripheral/Source/gd32vw55x_rcu.c **** }
 819              		.loc 1 416 1
 820 003c 0100     		nop
 821 003e 3254     		lw	s0,44(sp)
 822              		.cfi_restore 8
 823              		.cfi_def_cfa 2, 48
 824 0040 4561     		addi	sp,sp,48
 825              		.cfi_def_cfa_offset 0
 826 0042 8280     		jr	ra
 827              		.cfi_endproc
 828              	.LFE365:
 830              		.section	.text.rcu_apb2_clock_config,"ax",@progbits
 831              		.align	1
 832              		.globl	rcu_apb2_clock_config
 834              	rcu_apb2_clock_config:
 835              	.LFB366:
 417:../Firmware/GD32VW55x_standard_peripheral/Source/gd32vw55x_rcu.c **** 
 418:../Firmware/GD32VW55x_standard_peripheral/Source/gd32vw55x_rcu.c **** /*!
 419:../Firmware/GD32VW55x_standard_peripheral/Source/gd32vw55x_rcu.c ****     \brief      configure the APB2 clock prescaler selection
 420:../Firmware/GD32VW55x_standard_peripheral/Source/gd32vw55x_rcu.c ****     \param[in]  ck_apb2: APB2 clock prescaler selection
 421:../Firmware/GD32VW55x_standard_peripheral/Source/gd32vw55x_rcu.c ****                 only one parameter can be selected which is shown as below:
 422:../Firmware/GD32VW55x_standard_peripheral/Source/gd32vw55x_rcu.c ****       \arg        RCU_APB2_CKAHB_DIV1: select CK_AHB as CK_APB2
 423:../Firmware/GD32VW55x_standard_peripheral/Source/gd32vw55x_rcu.c ****       \arg        RCU_APB2_CKAHB_DIV2: select CK_AHB/2 as CK_APB2
 424:../Firmware/GD32VW55x_standard_peripheral/Source/gd32vw55x_rcu.c ****       \arg        RCU_APB2_CKAHB_DIV4: select CK_AHB/4 as CK_APB2
 425:../Firmware/GD32VW55x_standard_peripheral/Source/gd32vw55x_rcu.c ****       \arg        RCU_APB2_CKAHB_DIV8: select CK_AHB/8 as CK_APB2
 426:../Firmware/GD32VW55x_standard_peripheral/Source/gd32vw55x_rcu.c ****       \arg        RCU_APB2_CKAHB_DIV16: select CK_AHB/16 as CK_APB2
 427:../Firmware/GD32VW55x_standard_peripheral/Source/gd32vw55x_rcu.c ****     \param[out] none
 428:../Firmware/GD32VW55x_standard_peripheral/Source/gd32vw55x_rcu.c ****     \retval     none
 429:../Firmware/GD32VW55x_standard_peripheral/Source/gd32vw55x_rcu.c **** */
 430:../Firmware/GD32VW55x_standard_peripheral/Source/gd32vw55x_rcu.c **** void rcu_apb2_clock_config(uint32_t ck_apb2)
 431:../Firmware/GD32VW55x_standard_peripheral/Source/gd32vw55x_rcu.c **** {
 836              		.loc 1 431 1
 837              		.cfi_startproc
 838 0000 7971     		addi	sp,sp,-48
 839              		.cfi_def_cfa_offset 48
 840 0002 22D6     		sw	s0,44(sp)
 841              		.cfi_offset 8, -4
 842 0004 0018     		addi	s0,sp,48
 843              		.cfi_def_cfa 8, 0
 844 0006 232EA4FC 		sw	a0,-36(s0)
 432:../Firmware/GD32VW55x_standard_peripheral/Source/gd32vw55x_rcu.c ****     uint32_t reg;
 433:../Firmware/GD32VW55x_standard_peripheral/Source/gd32vw55x_rcu.c **** 
 434:../Firmware/GD32VW55x_standard_peripheral/Source/gd32vw55x_rcu.c ****     reg = RCU_CFG0;
 845              		.loc 1 434 11
 846 000a B7470240 		li	a5,1073889280
 847 000e 93878780 		addi	a5,a5,-2040
 848              		.loc 1 434 9
 849 0012 9C43     		lw	a5,0(a5)
 850 0014 2326F4FE 		sw	a5,-20(s0)
 435:../Firmware/GD32VW55x_standard_peripheral/Source/gd32vw55x_rcu.c ****     /* reset the APB2PSC and set according to ck_apb2 */
 436:../Firmware/GD32VW55x_standard_peripheral/Source/gd32vw55x_rcu.c ****     reg &= ~RCU_CFG0_APB2PSC;
 851              		.loc 1 436 9
 852 0018 0327C4FE 		lw	a4,-20(s0)
 853 001c C977     		li	a5,-57344
 854 001e FD17     		addi	a5,a5,-1
 855 0020 F98F     		and	a5,a4,a5
 856 0022 2326F4FE 		sw	a5,-20(s0)
 437:../Firmware/GD32VW55x_standard_peripheral/Source/gd32vw55x_rcu.c ****     RCU_CFG0 = (reg | ck_apb2);
 857              		.loc 1 437 5
 858 0026 B7470240 		li	a5,1073889280
 859 002a 93878780 		addi	a5,a5,-2040
 860              		.loc 1 437 21
 861 002e 8326C4FE 		lw	a3,-20(s0)
 862 0032 0327C4FD 		lw	a4,-36(s0)
 863 0036 558F     		or	a4,a3,a4
 864              		.loc 1 437 14
 865 0038 98C3     		sw	a4,0(a5)
 438:../Firmware/GD32VW55x_standard_peripheral/Source/gd32vw55x_rcu.c **** }
 866              		.loc 1 438 1
 867 003a 0100     		nop
 868 003c 3254     		lw	s0,44(sp)
 869              		.cfi_restore 8
 870              		.cfi_def_cfa 2, 48
 871 003e 4561     		addi	sp,sp,48
 872              		.cfi_def_cfa_offset 0
 873 0040 8280     		jr	ra
 874              		.cfi_endproc
 875              	.LFE366:
 877              		.section	.text.rcu_ckout0_config,"ax",@progbits
 878              		.align	1
 879              		.globl	rcu_ckout0_config
 881              	rcu_ckout0_config:
 882              	.LFB367:
 439:../Firmware/GD32VW55x_standard_peripheral/Source/gd32vw55x_rcu.c **** 
 440:../Firmware/GD32VW55x_standard_peripheral/Source/gd32vw55x_rcu.c **** /*!
 441:../Firmware/GD32VW55x_standard_peripheral/Source/gd32vw55x_rcu.c ****     \brief      configure the CK_OUT0 clock source and divider
 442:../Firmware/GD32VW55x_standard_peripheral/Source/gd32vw55x_rcu.c ****     \param[in]  ckout0_src: CK_OUT0 clock source selection
 443:../Firmware/GD32VW55x_standard_peripheral/Source/gd32vw55x_rcu.c ****                 only one parameter can be selected which is shown as below:
 444:../Firmware/GD32VW55x_standard_peripheral/Source/gd32vw55x_rcu.c ****       \arg        RCU_CKOUT0SRC_IRC16M: IRC16M selected
 445:../Firmware/GD32VW55x_standard_peripheral/Source/gd32vw55x_rcu.c ****       \arg        RCU_CKOUT0SRC_LXTAL: LXTAL selected
 446:../Firmware/GD32VW55x_standard_peripheral/Source/gd32vw55x_rcu.c ****       \arg        RCU_CKOUT0SRC_HXTAL: HXTAL selected
 447:../Firmware/GD32VW55x_standard_peripheral/Source/gd32vw55x_rcu.c ****       \arg        RCU_CKOUT0SRC_PLLDIG: CK_PLLDIG selected
 448:../Firmware/GD32VW55x_standard_peripheral/Source/gd32vw55x_rcu.c ****       \arg        RCU_CKOUT0SRC_IRC32K: IRC32K selected
 449:../Firmware/GD32VW55x_standard_peripheral/Source/gd32vw55x_rcu.c ****       \arg        RCU_CKOUT0SRC_CKSYS: system clock selected
 450:../Firmware/GD32VW55x_standard_peripheral/Source/gd32vw55x_rcu.c ****     \param[in]  ckout0_div: CK_OUT0 divider
 451:../Firmware/GD32VW55x_standard_peripheral/Source/gd32vw55x_rcu.c ****       \arg        RCU_CKOUT0_DIVx(x=1,2,3,4,5): CK_OUT0 is divided by x
 452:../Firmware/GD32VW55x_standard_peripheral/Source/gd32vw55x_rcu.c ****     \param[out] none
 453:../Firmware/GD32VW55x_standard_peripheral/Source/gd32vw55x_rcu.c ****     \retval     none
 454:../Firmware/GD32VW55x_standard_peripheral/Source/gd32vw55x_rcu.c **** */
 455:../Firmware/GD32VW55x_standard_peripheral/Source/gd32vw55x_rcu.c **** void rcu_ckout0_config(uint32_t ckout0_src, uint32_t ckout0_div)
 456:../Firmware/GD32VW55x_standard_peripheral/Source/gd32vw55x_rcu.c **** {
 883              		.loc 1 456 1
 884              		.cfi_startproc
 885 0000 7971     		addi	sp,sp,-48
 886              		.cfi_def_cfa_offset 48
 887 0002 22D6     		sw	s0,44(sp)
 888              		.cfi_offset 8, -4
 889 0004 0018     		addi	s0,sp,48
 890              		.cfi_def_cfa 8, 0
 891 0006 232EA4FC 		sw	a0,-36(s0)
 892 000a 232CB4FC 		sw	a1,-40(s0)
 457:../Firmware/GD32VW55x_standard_peripheral/Source/gd32vw55x_rcu.c ****     uint32_t reg;
 458:../Firmware/GD32VW55x_standard_peripheral/Source/gd32vw55x_rcu.c **** 
 459:../Firmware/GD32VW55x_standard_peripheral/Source/gd32vw55x_rcu.c ****     reg = RCU_CFG0;
 893              		.loc 1 459 11
 894 000e B7470240 		li	a5,1073889280
 895 0012 93878780 		addi	a5,a5,-2040
 896              		.loc 1 459 9
 897 0016 9C43     		lw	a5,0(a5)
 898 0018 2326F4FE 		sw	a5,-20(s0)
 460:../Firmware/GD32VW55x_standard_peripheral/Source/gd32vw55x_rcu.c ****     /* reset the CKOUT0SRC, CKOUT0DIV and set according to ckout0_src and ckout0_div */
 461:../Firmware/GD32VW55x_standard_peripheral/Source/gd32vw55x_rcu.c ****     reg &= ~(RCU_CFG0_CKOUT0SEL | RCU_CFG0_CKOUT0DIV );
 899              		.loc 1 461 9
 900 001c 0327C4FE 		lw	a4,-20(s0)
 901 0020 B70720F8 		li	a5,-132120576
 902 0024 FD17     		addi	a5,a5,-1
 903 0026 F98F     		and	a5,a4,a5
 904 0028 2326F4FE 		sw	a5,-20(s0)
 462:../Firmware/GD32VW55x_standard_peripheral/Source/gd32vw55x_rcu.c ****     RCU_CFG0 = (reg | ckout0_src | ckout0_div);
 905              		.loc 1 462 21
 906 002c 0327C4FE 		lw	a4,-20(s0)
 907 0030 8327C4FD 		lw	a5,-36(s0)
 908 0034 B366F700 		or	a3,a4,a5
 909              		.loc 1 462 5
 910 0038 B7470240 		li	a5,1073889280
 911 003c 93878780 		addi	a5,a5,-2040
 912              		.loc 1 462 34
 913 0040 032784FD 		lw	a4,-40(s0)
 914 0044 558F     		or	a4,a3,a4
 915              		.loc 1 462 14
 916 0046 98C3     		sw	a4,0(a5)
 463:../Firmware/GD32VW55x_standard_peripheral/Source/gd32vw55x_rcu.c **** }
 917              		.loc 1 463 1
 918 0048 0100     		nop
 919 004a 3254     		lw	s0,44(sp)
 920              		.cfi_restore 8
 921              		.cfi_def_cfa 2, 48
 922 004c 4561     		addi	sp,sp,48
 923              		.cfi_def_cfa_offset 0
 924 004e 8280     		jr	ra
 925              		.cfi_endproc
 926              	.LFE367:
 928              		.section	.text.rcu_ckout1_config,"ax",@progbits
 929              		.align	1
 930              		.globl	rcu_ckout1_config
 932              	rcu_ckout1_config:
 933              	.LFB368:
 464:../Firmware/GD32VW55x_standard_peripheral/Source/gd32vw55x_rcu.c **** 
 465:../Firmware/GD32VW55x_standard_peripheral/Source/gd32vw55x_rcu.c **** /*!
 466:../Firmware/GD32VW55x_standard_peripheral/Source/gd32vw55x_rcu.c ****     \brief      configure the CK_OUT1 clock source and divider
 467:../Firmware/GD32VW55x_standard_peripheral/Source/gd32vw55x_rcu.c ****     \param[in]  ckout1_src: CK_OUT1 clock source selection
 468:../Firmware/GD32VW55x_standard_peripheral/Source/gd32vw55x_rcu.c ****                 only one parameter can be selected which is shown as below:
 469:../Firmware/GD32VW55x_standard_peripheral/Source/gd32vw55x_rcu.c ****       \arg        RCU_CKOUT1SRC_CKSYS: system clock selected
 470:../Firmware/GD32VW55x_standard_peripheral/Source/gd32vw55x_rcu.c ****       \arg        RCU_CKOUT1SRC_IRC16M: IRC16M selected
 471:../Firmware/GD32VW55x_standard_peripheral/Source/gd32vw55x_rcu.c ****       \arg        RCU_CKOUT1SRC_HXTAL: HXTAL selected
 472:../Firmware/GD32VW55x_standard_peripheral/Source/gd32vw55x_rcu.c ****       \arg        RCU_CKOUT1SRC_PLLDIG: PLLDIG selected
 473:../Firmware/GD32VW55x_standard_peripheral/Source/gd32vw55x_rcu.c ****     \param[in]  ckout1_div: CK_OUT1 divider
 474:../Firmware/GD32VW55x_standard_peripheral/Source/gd32vw55x_rcu.c ****       \arg        RCU_CKOUT1_DIVx(x=1,2,3,4,5): CK_OUT1 is divided by x
 475:../Firmware/GD32VW55x_standard_peripheral/Source/gd32vw55x_rcu.c ****     \param[out] none
 476:../Firmware/GD32VW55x_standard_peripheral/Source/gd32vw55x_rcu.c ****     \retval     none
 477:../Firmware/GD32VW55x_standard_peripheral/Source/gd32vw55x_rcu.c **** */
 478:../Firmware/GD32VW55x_standard_peripheral/Source/gd32vw55x_rcu.c **** void rcu_ckout1_config(uint32_t ckout1_src, uint32_t ckout1_div)
 479:../Firmware/GD32VW55x_standard_peripheral/Source/gd32vw55x_rcu.c **** {
 934              		.loc 1 479 1
 935              		.cfi_startproc
 936 0000 7971     		addi	sp,sp,-48
 937              		.cfi_def_cfa_offset 48
 938 0002 22D6     		sw	s0,44(sp)
 939              		.cfi_offset 8, -4
 940 0004 0018     		addi	s0,sp,48
 941              		.cfi_def_cfa 8, 0
 942 0006 232EA4FC 		sw	a0,-36(s0)
 943 000a 232CB4FC 		sw	a1,-40(s0)
 480:../Firmware/GD32VW55x_standard_peripheral/Source/gd32vw55x_rcu.c ****     uint32_t reg;
 481:../Firmware/GD32VW55x_standard_peripheral/Source/gd32vw55x_rcu.c **** 
 482:../Firmware/GD32VW55x_standard_peripheral/Source/gd32vw55x_rcu.c ****     reg = RCU_CFG0;
 944              		.loc 1 482 11
 945 000e B7470240 		li	a5,1073889280
 946 0012 93878780 		addi	a5,a5,-2040
 947              		.loc 1 482 9
 948 0016 9C43     		lw	a5,0(a5)
 949 0018 2326F4FE 		sw	a5,-20(s0)
 483:../Firmware/GD32VW55x_standard_peripheral/Source/gd32vw55x_rcu.c ****     /* reset the CKOUT1SRC, CKOUT1DIV and set according to ckout1_src and ckout1_div */
 484:../Firmware/GD32VW55x_standard_peripheral/Source/gd32vw55x_rcu.c ****     reg &= ~(RCU_CFG0_CKOUT1SEL | RCU_CFG0_CKOUT1DIV);
 950              		.loc 1 484 9
 951 001c 0327C4FE 		lw	a4,-20(s0)
 952 0020 B7070008 		li	a5,134217728
 953 0024 FD17     		addi	a5,a5,-1
 954 0026 F98F     		and	a5,a4,a5
 955 0028 2326F4FE 		sw	a5,-20(s0)
 485:../Firmware/GD32VW55x_standard_peripheral/Source/gd32vw55x_rcu.c ****     RCU_CFG0 = (reg | ckout1_src | ckout1_div);
 956              		.loc 1 485 21
 957 002c 0327C4FE 		lw	a4,-20(s0)
 958 0030 8327C4FD 		lw	a5,-36(s0)
 959 0034 B366F700 		or	a3,a4,a5
 960              		.loc 1 485 5
 961 0038 B7470240 		li	a5,1073889280
 962 003c 93878780 		addi	a5,a5,-2040
 963              		.loc 1 485 34
 964 0040 032784FD 		lw	a4,-40(s0)
 965 0044 558F     		or	a4,a3,a4
 966              		.loc 1 485 14
 967 0046 98C3     		sw	a4,0(a5)
 486:../Firmware/GD32VW55x_standard_peripheral/Source/gd32vw55x_rcu.c **** }
 968              		.loc 1 486 1
 969 0048 0100     		nop
 970 004a 3254     		lw	s0,44(sp)
 971              		.cfi_restore 8
 972              		.cfi_def_cfa 2, 48
 973 004c 4561     		addi	sp,sp,48
 974              		.cfi_def_cfa_offset 0
 975 004e 8280     		jr	ra
 976              		.cfi_endproc
 977              	.LFE368:
 979              		.section	.text.rcu_plldig_config,"ax",@progbits
 980              		.align	1
 981              		.globl	rcu_plldig_config
 983              	rcu_plldig_config:
 984              	.LFB369:
 487:../Firmware/GD32VW55x_standard_peripheral/Source/gd32vw55x_rcu.c **** 
 488:../Firmware/GD32VW55x_standard_peripheral/Source/gd32vw55x_rcu.c **** /*!
 489:../Firmware/GD32VW55x_standard_peripheral/Source/gd32vw55x_rcu.c ****     \brief      configure the PLLDIG output clock frequency
 490:../Firmware/GD32VW55x_standard_peripheral/Source/gd32vw55x_rcu.c ****     \param[in]  plldig_clk: the PLLDIG VCO clock this parameter sselection
 491:../Firmware/GD32VW55x_standard_peripheral/Source/gd32vw55x_rcu.c ****                 only one parameter can be selected which is shown as below:
 492:../Firmware/GD32VW55x_standard_peripheral/Source/gd32vw55x_rcu.c ****       \arg        RCU_PLLDIG_192M: selected 192Mhz as PLLDIG output frequency
 493:../Firmware/GD32VW55x_standard_peripheral/Source/gd32vw55x_rcu.c ****       \arg        RCU_PLLDIG_240M: selected 240Mhz as PLLDIG output frequency
 494:../Firmware/GD32VW55x_standard_peripheral/Source/gd32vw55x_rcu.c ****       \arg        RCU_PLLDIG_320M: selected 320Mhz as PLLDIG output frequency
 495:../Firmware/GD32VW55x_standard_peripheral/Source/gd32vw55x_rcu.c ****       \arg        RCU_PLLDIG_480M: selected 480Mhz as PLLDIG output frequency
 496:../Firmware/GD32VW55x_standard_peripheral/Source/gd32vw55x_rcu.c ****     \param[out] none
 497:../Firmware/GD32VW55x_standard_peripheral/Source/gd32vw55x_rcu.c ****     \retval     none
 498:../Firmware/GD32VW55x_standard_peripheral/Source/gd32vw55x_rcu.c **** */
 499:../Firmware/GD32VW55x_standard_peripheral/Source/gd32vw55x_rcu.c **** void rcu_plldig_config(uint32_t plldig_clk)
 500:../Firmware/GD32VW55x_standard_peripheral/Source/gd32vw55x_rcu.c **** {
 985              		.loc 1 500 1
 986              		.cfi_startproc
 987 0000 0111     		addi	sp,sp,-32
 988              		.cfi_def_cfa_offset 32
 989 0002 22CE     		sw	s0,28(sp)
 990              		.cfi_offset 8, -4
 991 0004 0010     		addi	s0,sp,32
 992              		.cfi_def_cfa 8, 0
 993 0006 2326A4FE 		sw	a0,-20(s0)
 501:../Firmware/GD32VW55x_standard_peripheral/Source/gd32vw55x_rcu.c ****        RCU_PLLDIGCFG0 &= ~(RCU_PLLDIGCFG0_PLLDIGOSEL);
 994              		.loc 1 501 23
 995 000a B7470240 		li	a5,1073889280
 996 000e 93874788 		addi	a5,a5,-1916
 997 0012 9443     		lw	a3,0(a5)
 998 0014 B7470240 		li	a5,1073889280
 999 0018 93874788 		addi	a5,a5,-1916
 1000 001c 370700FD 		li	a4,-50331648
 1001 0020 7D17     		addi	a4,a4,-1
 1002 0022 758F     		and	a4,a3,a4
 1003 0024 98C3     		sw	a4,0(a5)
 502:../Firmware/GD32VW55x_standard_peripheral/Source/gd32vw55x_rcu.c ****        RCU_PLLDIGCFG0 |= plldig_clk;
 1004              		.loc 1 502 23
 1005 0026 B7470240 		li	a5,1073889280
 1006 002a 93874788 		addi	a5,a5,-1916
 1007 002e 9443     		lw	a3,0(a5)
 1008 0030 B7470240 		li	a5,1073889280
 1009 0034 93874788 		addi	a5,a5,-1916
 1010 0038 0327C4FE 		lw	a4,-20(s0)
 1011 003c 558F     		or	a4,a3,a4
 1012 003e 98C3     		sw	a4,0(a5)
 503:../Firmware/GD32VW55x_standard_peripheral/Source/gd32vw55x_rcu.c **** }
 1013              		.loc 1 503 1
 1014 0040 0100     		nop
 1015 0042 7244     		lw	s0,28(sp)
 1016              		.cfi_restore 8
 1017              		.cfi_def_cfa 2, 32
 1018 0044 0561     		addi	sp,sp,32
 1019              		.cfi_def_cfa_offset 0
 1020 0046 8280     		jr	ra
 1021              		.cfi_endproc
 1022              	.LFE369:
 1024              		.section	.text.rcu_plldigdiv_sys_config,"ax",@progbits
 1025              		.align	1
 1026              		.globl	rcu_plldigdiv_sys_config
 1028              	rcu_plldigdiv_sys_config:
 1029              	.LFB370:
 504:../Firmware/GD32VW55x_standard_peripheral/Source/gd32vw55x_rcu.c **** 
 505:../Firmware/GD32VW55x_standard_peripheral/Source/gd32vw55x_rcu.c **** /*!
 506:../Firmware/GD32VW55x_standard_peripheral/Source/gd32vw55x_rcu.c ****     \brief      configure PLLDIG clock divider factor for system clock
 507:../Firmware/GD32VW55x_standard_peripheral/Source/gd32vw55x_rcu.c ****     \param[in]  plldigdiv_sys: PLLDIG clock divider factor for system clock
 508:../Firmware/GD32VW55x_standard_peripheral/Source/gd32vw55x_rcu.c ****                 only one parameter can be selected which is shown as below:
 509:../Firmware/GD32VW55x_standard_peripheral/Source/gd32vw55x_rcu.c ****       \arg        RCU_PLLDIG_SYS_DIVx(x=1,2,3,...,64): PLLDIG clock divided by x for system clock
 510:../Firmware/GD32VW55x_standard_peripheral/Source/gd32vw55x_rcu.c ****     \param[out] none
 511:../Firmware/GD32VW55x_standard_peripheral/Source/gd32vw55x_rcu.c ****     \retval     none
 512:../Firmware/GD32VW55x_standard_peripheral/Source/gd32vw55x_rcu.c **** */
 513:../Firmware/GD32VW55x_standard_peripheral/Source/gd32vw55x_rcu.c **** void rcu_plldigdiv_sys_config(uint32_t plldigdiv_sys)
 514:../Firmware/GD32VW55x_standard_peripheral/Source/gd32vw55x_rcu.c **** {
 1030              		.loc 1 514 1
 1031              		.cfi_startproc
 1032 0000 7971     		addi	sp,sp,-48
 1033              		.cfi_def_cfa_offset 48
 1034 0002 22D6     		sw	s0,44(sp)
 1035              		.cfi_offset 8, -4
 1036 0004 0018     		addi	s0,sp,48
 1037              		.cfi_def_cfa 8, 0
 1038 0006 232EA4FC 		sw	a0,-36(s0)
 515:../Firmware/GD32VW55x_standard_peripheral/Source/gd32vw55x_rcu.c ****     uint32_t reg;
 516:../Firmware/GD32VW55x_standard_peripheral/Source/gd32vw55x_rcu.c **** 
 517:../Firmware/GD32VW55x_standard_peripheral/Source/gd32vw55x_rcu.c ****     reg = RCU_PLLDIGCFG0;
 1039              		.loc 1 517 11
 1040 000a B7470240 		li	a5,1073889280
 1041 000e 93874788 		addi	a5,a5,-1916
 1042              		.loc 1 517 9
 1043 0012 9C43     		lw	a5,0(a5)
 1044 0014 2326F4FE 		sw	a5,-20(s0)
 518:../Firmware/GD32VW55x_standard_peripheral/Source/gd32vw55x_rcu.c ****     /* reset the PLLDIGDIV_SYS bits and set according to plldigdiv_sys */
 519:../Firmware/GD32VW55x_standard_peripheral/Source/gd32vw55x_rcu.c ****     reg &= ~RCU_PLLDIGCFG0_PLLDIGDIV_SYS;
 1045              		.loc 1 519 9
 1046 0018 0327C4FE 		lw	a4,-20(s0)
 1047 001c B7070004 		li	a5,67108864
 1048 0020 FD17     		addi	a5,a5,-1
 1049 0022 F98F     		and	a5,a4,a5
 1050 0024 2326F4FE 		sw	a5,-20(s0)
 520:../Firmware/GD32VW55x_standard_peripheral/Source/gd32vw55x_rcu.c ****     RCU_PLLDIGCFG0 = (reg | plldigdiv_sys);
 1051              		.loc 1 520 5
 1052 0028 B7470240 		li	a5,1073889280
 1053 002c 93874788 		addi	a5,a5,-1916
 1054              		.loc 1 520 27
 1055 0030 8326C4FE 		lw	a3,-20(s0)
 1056 0034 0327C4FD 		lw	a4,-36(s0)
 1057 0038 558F     		or	a4,a3,a4
 1058              		.loc 1 520 20
 1059 003a 98C3     		sw	a4,0(a5)
 521:../Firmware/GD32VW55x_standard_peripheral/Source/gd32vw55x_rcu.c **** }
 1060              		.loc 1 521 1
 1061 003c 0100     		nop
 1062 003e 3254     		lw	s0,44(sp)
 1063              		.cfi_restore 8
 1064              		.cfi_def_cfa 2, 48
 1065 0040 4561     		addi	sp,sp,48
 1066              		.cfi_def_cfa_offset 0
 1067 0042 8280     		jr	ra
 1068              		.cfi_endproc
 1069              	.LFE370:
 1071              		.section	.text.rcu_rtc_clock_config,"ax",@progbits
 1072              		.align	1
 1073              		.globl	rcu_rtc_clock_config
 1075              	rcu_rtc_clock_config:
 1076              	.LFB371:
 522:../Firmware/GD32VW55x_standard_peripheral/Source/gd32vw55x_rcu.c **** 
 523:../Firmware/GD32VW55x_standard_peripheral/Source/gd32vw55x_rcu.c **** /*!
 524:../Firmware/GD32VW55x_standard_peripheral/Source/gd32vw55x_rcu.c ****     \brief      configure the RTC clock source selection
 525:../Firmware/GD32VW55x_standard_peripheral/Source/gd32vw55x_rcu.c ****     \param[in]  rtc_clock_source: RTC clock source selection
 526:../Firmware/GD32VW55x_standard_peripheral/Source/gd32vw55x_rcu.c ****                 only one parameter can be selected which is shown as below:
 527:../Firmware/GD32VW55x_standard_peripheral/Source/gd32vw55x_rcu.c ****       \arg        RCU_RTCSRC_NONE: no clock selected
 528:../Firmware/GD32VW55x_standard_peripheral/Source/gd32vw55x_rcu.c ****       \arg        RCU_RTCSRC_LXTAL: CK_LXTAL selected as RTC source clock
 529:../Firmware/GD32VW55x_standard_peripheral/Source/gd32vw55x_rcu.c ****       \arg        RCU_RTCSRC_IRC32K: CK_IRC32K selected as RTC source clock
 530:../Firmware/GD32VW55x_standard_peripheral/Source/gd32vw55x_rcu.c ****       \arg        RCU_RTCSRC_HXTAL_DIV_RTCDIV: CK_HXTAL/RTCDIV selected as RTC source clock
 531:../Firmware/GD32VW55x_standard_peripheral/Source/gd32vw55x_rcu.c ****     \param[out] none
 532:../Firmware/GD32VW55x_standard_peripheral/Source/gd32vw55x_rcu.c ****     \retval     none
 533:../Firmware/GD32VW55x_standard_peripheral/Source/gd32vw55x_rcu.c **** */
 534:../Firmware/GD32VW55x_standard_peripheral/Source/gd32vw55x_rcu.c **** void rcu_rtc_clock_config(uint32_t rtc_clock_source)
 535:../Firmware/GD32VW55x_standard_peripheral/Source/gd32vw55x_rcu.c **** {
 1077              		.loc 1 535 1
 1078              		.cfi_startproc
 1079 0000 7971     		addi	sp,sp,-48
 1080              		.cfi_def_cfa_offset 48
 1081 0002 22D6     		sw	s0,44(sp)
 1082              		.cfi_offset 8, -4
 1083 0004 0018     		addi	s0,sp,48
 1084              		.cfi_def_cfa 8, 0
 1085 0006 232EA4FC 		sw	a0,-36(s0)
 536:../Firmware/GD32VW55x_standard_peripheral/Source/gd32vw55x_rcu.c ****     uint32_t reg;
 537:../Firmware/GD32VW55x_standard_peripheral/Source/gd32vw55x_rcu.c **** 
 538:../Firmware/GD32VW55x_standard_peripheral/Source/gd32vw55x_rcu.c ****     reg = RCU_BDCTL;
 1086              		.loc 1 538 11
 1087 000a B7470240 		li	a5,1073889280
 1088 000e 93870787 		addi	a5,a5,-1936
 1089              		.loc 1 538 9
 1090 0012 9C43     		lw	a5,0(a5)
 1091 0014 2326F4FE 		sw	a5,-20(s0)
 539:../Firmware/GD32VW55x_standard_peripheral/Source/gd32vw55x_rcu.c ****     /* reset the RTCSRC bits and set according to rtc_clock_source */
 540:../Firmware/GD32VW55x_standard_peripheral/Source/gd32vw55x_rcu.c ****     reg &= ~RCU_BDCTL_RTCSRC;
 1092              		.loc 1 540 9
 1093 0018 8327C4FE 		lw	a5,-20(s0)
 1094 001c 93F7F7CF 		andi	a5,a5,-769
 1095 0020 2326F4FE 		sw	a5,-20(s0)
 541:../Firmware/GD32VW55x_standard_peripheral/Source/gd32vw55x_rcu.c ****     RCU_BDCTL = (reg | rtc_clock_source);
 1096              		.loc 1 541 5
 1097 0024 B7470240 		li	a5,1073889280
 1098 0028 93870787 		addi	a5,a5,-1936
 1099              		.loc 1 541 22
 1100 002c 8326C4FE 		lw	a3,-20(s0)
 1101 0030 0327C4FD 		lw	a4,-36(s0)
 1102 0034 558F     		or	a4,a3,a4
 1103              		.loc 1 541 15
 1104 0036 98C3     		sw	a4,0(a5)
 542:../Firmware/GD32VW55x_standard_peripheral/Source/gd32vw55x_rcu.c **** }
 1105              		.loc 1 542 1
 1106 0038 0100     		nop
 1107 003a 3254     		lw	s0,44(sp)
 1108              		.cfi_restore 8
 1109              		.cfi_def_cfa 2, 48
 1110 003c 4561     		addi	sp,sp,48
 1111              		.cfi_def_cfa_offset 0
 1112 003e 8280     		jr	ra
 1113              		.cfi_endproc
 1114              	.LFE371:
 1116              		.section	.text.rcu_rtc_div_config,"ax",@progbits
 1117              		.align	1
 1118              		.globl	rcu_rtc_div_config
 1120              	rcu_rtc_div_config:
 1121              	.LFB372:
 543:../Firmware/GD32VW55x_standard_peripheral/Source/gd32vw55x_rcu.c **** 
 544:../Firmware/GD32VW55x_standard_peripheral/Source/gd32vw55x_rcu.c **** /*!
 545:../Firmware/GD32VW55x_standard_peripheral/Source/gd32vw55x_rcu.c ****     \brief      configure the frequency division of RTC clock when HXTAL was selected as its clock 
 546:../Firmware/GD32VW55x_standard_peripheral/Source/gd32vw55x_rcu.c ****     \param[in]  rtc_div: RTC clock frequency division
 547:../Firmware/GD32VW55x_standard_peripheral/Source/gd32vw55x_rcu.c ****                 only one parameter can be selected which is shown as below:
 548:../Firmware/GD32VW55x_standard_peripheral/Source/gd32vw55x_rcu.c ****       \arg        RCU_RTC_HXTAL_DIVx: RTCDIV clock select CK_HXTAL/x, x = 1 2....31
 549:../Firmware/GD32VW55x_standard_peripheral/Source/gd32vw55x_rcu.c ****     \param[out] none
 550:../Firmware/GD32VW55x_standard_peripheral/Source/gd32vw55x_rcu.c ****     \retval     none
 551:../Firmware/GD32VW55x_standard_peripheral/Source/gd32vw55x_rcu.c **** */
 552:../Firmware/GD32VW55x_standard_peripheral/Source/gd32vw55x_rcu.c **** void rcu_rtc_div_config(uint32_t rtc_div)
 553:../Firmware/GD32VW55x_standard_peripheral/Source/gd32vw55x_rcu.c **** {
 1122              		.loc 1 553 1
 1123              		.cfi_startproc
 1124 0000 7971     		addi	sp,sp,-48
 1125              		.cfi_def_cfa_offset 48
 1126 0002 22D6     		sw	s0,44(sp)
 1127              		.cfi_offset 8, -4
 1128 0004 0018     		addi	s0,sp,48
 1129              		.cfi_def_cfa 8, 0
 1130 0006 232EA4FC 		sw	a0,-36(s0)
 554:../Firmware/GD32VW55x_standard_peripheral/Source/gd32vw55x_rcu.c ****     uint32_t reg;
 555:../Firmware/GD32VW55x_standard_peripheral/Source/gd32vw55x_rcu.c ****     reg = RCU_CFG0;
 1131              		.loc 1 555 11
 1132 000a B7470240 		li	a5,1073889280
 1133 000e 93878780 		addi	a5,a5,-2040
 1134              		.loc 1 555 9
 1135 0012 9C43     		lw	a5,0(a5)
 1136 0014 2326F4FE 		sw	a5,-20(s0)
 556:../Firmware/GD32VW55x_standard_peripheral/Source/gd32vw55x_rcu.c ****     /* reset the RTCDIV bits and set according to rtc_div value */
 557:../Firmware/GD32VW55x_standard_peripheral/Source/gd32vw55x_rcu.c ****     reg &= ~RCU_CFG0_RTCDIV;
 1137              		.loc 1 557 9
 1138 0018 0327C4FE 		lw	a4,-20(s0)
 1139 001c B707E1FF 		li	a5,-2031616
 1140 0020 FD17     		addi	a5,a5,-1
 1141 0022 F98F     		and	a5,a4,a5
 1142 0024 2326F4FE 		sw	a5,-20(s0)
 558:../Firmware/GD32VW55x_standard_peripheral/Source/gd32vw55x_rcu.c ****     RCU_CFG0 = (reg | rtc_div);
 1143              		.loc 1 558 5
 1144 0028 B7470240 		li	a5,1073889280
 1145 002c 93878780 		addi	a5,a5,-2040
 1146              		.loc 1 558 21
 1147 0030 8326C4FE 		lw	a3,-20(s0)
 1148 0034 0327C4FD 		lw	a4,-36(s0)
 1149 0038 558F     		or	a4,a3,a4
 1150              		.loc 1 558 14
 1151 003a 98C3     		sw	a4,0(a5)
 559:../Firmware/GD32VW55x_standard_peripheral/Source/gd32vw55x_rcu.c **** }
 1152              		.loc 1 559 1
 1153 003c 0100     		nop
 1154 003e 3254     		lw	s0,44(sp)
 1155              		.cfi_restore 8
 1156              		.cfi_def_cfa 2, 48
 1157 0040 4561     		addi	sp,sp,48
 1158              		.cfi_def_cfa_offset 0
 1159 0042 8280     		jr	ra
 1160              		.cfi_endproc
 1161              	.LFE372:
 1163              		.section	.text.rcu_trng_div_config,"ax",@progbits
 1164              		.align	1
 1165              		.globl	rcu_trng_div_config
 1167              	rcu_trng_div_config:
 1168              	.LFB373:
 560:../Firmware/GD32VW55x_standard_peripheral/Source/gd32vw55x_rcu.c **** 
 561:../Firmware/GD32VW55x_standard_peripheral/Source/gd32vw55x_rcu.c **** /*!
 562:../Firmware/GD32VW55x_standard_peripheral/Source/gd32vw55x_rcu.c ****     \brief      configure the frequency division of the TRNG source clock
 563:../Firmware/GD32VW55x_standard_peripheral/Source/gd32vw55x_rcu.c ****     \param[in]  trng_div: TRNG clock frequency division
 564:../Firmware/GD32VW55x_standard_peripheral/Source/gd32vw55x_rcu.c ****                 only one parameter can be selected which is shown as below:
 565:../Firmware/GD32VW55x_standard_peripheral/Source/gd32vw55x_rcu.c ****       \arg        RCU_TRNG_DIVx: TRNG clock select x, x = 1....32
 566:../Firmware/GD32VW55x_standard_peripheral/Source/gd32vw55x_rcu.c ****     \param[out] none
 567:../Firmware/GD32VW55x_standard_peripheral/Source/gd32vw55x_rcu.c ****     \retval     none
 568:../Firmware/GD32VW55x_standard_peripheral/Source/gd32vw55x_rcu.c **** */
 569:../Firmware/GD32VW55x_standard_peripheral/Source/gd32vw55x_rcu.c **** void rcu_trng_div_config(uint32_t trng_div)
 570:../Firmware/GD32VW55x_standard_peripheral/Source/gd32vw55x_rcu.c **** {
 1169              		.loc 1 570 1
 1170              		.cfi_startproc
 1171 0000 7971     		addi	sp,sp,-48
 1172              		.cfi_def_cfa_offset 48
 1173 0002 22D6     		sw	s0,44(sp)
 1174              		.cfi_offset 8, -4
 1175 0004 0018     		addi	s0,sp,48
 1176              		.cfi_def_cfa 8, 0
 1177 0006 232EA4FC 		sw	a0,-36(s0)
 571:../Firmware/GD32VW55x_standard_peripheral/Source/gd32vw55x_rcu.c ****     uint32_t reg;
 572:../Firmware/GD32VW55x_standard_peripheral/Source/gd32vw55x_rcu.c ****     reg = RCU_ADDCTL;
 1178              		.loc 1 572 11
 1179 000a B7470240 		li	a5,1073889280
 1180 000e 93870789 		addi	a5,a5,-1904
 1181              		.loc 1 572 9
 1182 0012 9C43     		lw	a5,0(a5)
 1183 0014 2326F4FE 		sw	a5,-20(s0)
 573:../Firmware/GD32VW55x_standard_peripheral/Source/gd32vw55x_rcu.c ****     /* reset the TRNGCKDIV bits and set according to trng_div value */
 574:../Firmware/GD32VW55x_standard_peripheral/Source/gd32vw55x_rcu.c ****     reg &= ~RCU_ADDCTL_TRNGCKDIV;
 1184              		.loc 1 574 9
 1185 0018 8327C4FE 		lw	a5,-20(s0)
 1186 001c 93F717FC 		andi	a5,a5,-63
 1187 0020 2326F4FE 		sw	a5,-20(s0)
 575:../Firmware/GD32VW55x_standard_peripheral/Source/gd32vw55x_rcu.c ****     RCU_ADDCTL = (reg | trng_div);
 1188              		.loc 1 575 5
 1189 0024 B7470240 		li	a5,1073889280
 1190 0028 93870789 		addi	a5,a5,-1904
 1191              		.loc 1 575 23
 1192 002c 8326C4FE 		lw	a3,-20(s0)
 1193 0030 0327C4FD 		lw	a4,-36(s0)
 1194 0034 558F     		or	a4,a3,a4
 1195              		.loc 1 575 16
 1196 0036 98C3     		sw	a4,0(a5)
 576:../Firmware/GD32VW55x_standard_peripheral/Source/gd32vw55x_rcu.c **** }
 1197              		.loc 1 576 1
 1198 0038 0100     		nop
 1199 003a 3254     		lw	s0,44(sp)
 1200              		.cfi_restore 8
 1201              		.cfi_def_cfa 2, 48
 1202 003c 4561     		addi	sp,sp,48
 1203              		.cfi_def_cfa_offset 0
 1204 003e 8280     		jr	ra
 1205              		.cfi_endproc
 1206              	.LFE373:
 1208              		.section	.text.rcu_i2c0_clock_config,"ax",@progbits
 1209              		.align	1
 1210              		.globl	rcu_i2c0_clock_config
 1212              	rcu_i2c0_clock_config:
 1213              	.LFB374:
 577:../Firmware/GD32VW55x_standard_peripheral/Source/gd32vw55x_rcu.c **** 
 578:../Firmware/GD32VW55x_standard_peripheral/Source/gd32vw55x_rcu.c **** /*!
 579:../Firmware/GD32VW55x_standard_peripheral/Source/gd32vw55x_rcu.c ****     \brief      configure the I2C0 clock source selection
 580:../Firmware/GD32VW55x_standard_peripheral/Source/gd32vw55x_rcu.c ****     \param[in]  i2c0_clock_source: I2C0 clock source selection
 581:../Firmware/GD32VW55x_standard_peripheral/Source/gd32vw55x_rcu.c ****                 only one parameter can be selected which is shown as below:
 582:../Firmware/GD32VW55x_standard_peripheral/Source/gd32vw55x_rcu.c ****       \arg        RCU_I2C0SRC_CKAPB1: CK_APB1 selected as I2C0 source clock
 583:../Firmware/GD32VW55x_standard_peripheral/Source/gd32vw55x_rcu.c ****       \arg        RCU_I2C0SRC_CKSYS: CK_SYS selected as I2C0 source clock
 584:../Firmware/GD32VW55x_standard_peripheral/Source/gd32vw55x_rcu.c ****       \arg        RCU_I2C0SRC_IRC16M: CK_IRC16M selected as I2C0 source clock
 585:../Firmware/GD32VW55x_standard_peripheral/Source/gd32vw55x_rcu.c ****     \param[out] none
 586:../Firmware/GD32VW55x_standard_peripheral/Source/gd32vw55x_rcu.c ****     \retval     none
 587:../Firmware/GD32VW55x_standard_peripheral/Source/gd32vw55x_rcu.c **** */
 588:../Firmware/GD32VW55x_standard_peripheral/Source/gd32vw55x_rcu.c **** void rcu_i2c0_clock_config(uint32_t i2c0_clock_source)
 589:../Firmware/GD32VW55x_standard_peripheral/Source/gd32vw55x_rcu.c **** {
 1214              		.loc 1 589 1
 1215              		.cfi_startproc
 1216 0000 7971     		addi	sp,sp,-48
 1217              		.cfi_def_cfa_offset 48
 1218 0002 22D6     		sw	s0,44(sp)
 1219              		.cfi_offset 8, -4
 1220 0004 0018     		addi	s0,sp,48
 1221              		.cfi_def_cfa 8, 0
 1222 0006 232EA4FC 		sw	a0,-36(s0)
 590:../Firmware/GD32VW55x_standard_peripheral/Source/gd32vw55x_rcu.c ****     uint32_t reg;
 591:../Firmware/GD32VW55x_standard_peripheral/Source/gd32vw55x_rcu.c **** 
 592:../Firmware/GD32VW55x_standard_peripheral/Source/gd32vw55x_rcu.c ****     reg = RCU_CFG1;
 1223              		.loc 1 592 11
 1224 000a B7470240 		li	a5,1073889280
 1225 000e 9387C788 		addi	a5,a5,-1908
 1226              		.loc 1 592 9
 1227 0012 9C43     		lw	a5,0(a5)
 1228 0014 2326F4FE 		sw	a5,-20(s0)
 593:../Firmware/GD32VW55x_standard_peripheral/Source/gd32vw55x_rcu.c ****     /* reset the I2C0SEL bit and set according to i2c0_clock_source */
 594:../Firmware/GD32VW55x_standard_peripheral/Source/gd32vw55x_rcu.c ****     reg &= ~RCU_CFG1_I2C0SEL;
 1229              		.loc 1 594 9
 1230 0018 0327C4FE 		lw	a4,-20(s0)
 1231 001c B70700F4 		li	a5,-201326592
 1232 0020 FD17     		addi	a5,a5,-1
 1233 0022 F98F     		and	a5,a4,a5
 1234 0024 2326F4FE 		sw	a5,-20(s0)
 595:../Firmware/GD32VW55x_standard_peripheral/Source/gd32vw55x_rcu.c ****     RCU_CFG1 = (reg | i2c0_clock_source);
 1235              		.loc 1 595 5
 1236 0028 B7470240 		li	a5,1073889280
 1237 002c 9387C788 		addi	a5,a5,-1908
 1238              		.loc 1 595 21
 1239 0030 8326C4FE 		lw	a3,-20(s0)
 1240 0034 0327C4FD 		lw	a4,-36(s0)
 1241 0038 558F     		or	a4,a3,a4
 1242              		.loc 1 595 14
 1243 003a 98C3     		sw	a4,0(a5)
 596:../Firmware/GD32VW55x_standard_peripheral/Source/gd32vw55x_rcu.c **** }
 1244              		.loc 1 596 1
 1245 003c 0100     		nop
 1246 003e 3254     		lw	s0,44(sp)
 1247              		.cfi_restore 8
 1248              		.cfi_def_cfa 2, 48
 1249 0040 4561     		addi	sp,sp,48
 1250              		.cfi_def_cfa_offset 0
 1251 0042 8280     		jr	ra
 1252              		.cfi_endproc
 1253              	.LFE374:
 1255              		.section	.text.rcu_usart0_clock_config,"ax",@progbits
 1256              		.align	1
 1257              		.globl	rcu_usart0_clock_config
 1259              	rcu_usart0_clock_config:
 1260              	.LFB375:
 597:../Firmware/GD32VW55x_standard_peripheral/Source/gd32vw55x_rcu.c **** 
 598:../Firmware/GD32VW55x_standard_peripheral/Source/gd32vw55x_rcu.c **** /*!
 599:../Firmware/GD32VW55x_standard_peripheral/Source/gd32vw55x_rcu.c ****     \brief      configure the USART0 clock source selection
 600:../Firmware/GD32VW55x_standard_peripheral/Source/gd32vw55x_rcu.c ****     \param[in]  usart0_clock_source: USART0 clock source selection
 601:../Firmware/GD32VW55x_standard_peripheral/Source/gd32vw55x_rcu.c ****                 only one parameter can be selected which is shown as below:
 602:../Firmware/GD32VW55x_standard_peripheral/Source/gd32vw55x_rcu.c ****       \arg        RCU_USART0SRC_CKAPB1: CK_APB1 selected as USART0 source clock
 603:../Firmware/GD32VW55x_standard_peripheral/Source/gd32vw55x_rcu.c ****       \arg        RCU_USART0SRC_CKSYS: CK_SYS selected as USART0 source clock
 604:../Firmware/GD32VW55x_standard_peripheral/Source/gd32vw55x_rcu.c ****       \arg        RCU_USART0SRC_LXTAL: CK_LXTAL selected as USART0 source clock
 605:../Firmware/GD32VW55x_standard_peripheral/Source/gd32vw55x_rcu.c ****       \arg        RCU_USART0SRC_IRC16M: CK_IRC16M selected as USART0 source clock
 606:../Firmware/GD32VW55x_standard_peripheral/Source/gd32vw55x_rcu.c ****     \param[out] none
 607:../Firmware/GD32VW55x_standard_peripheral/Source/gd32vw55x_rcu.c ****     \retval     none
 608:../Firmware/GD32VW55x_standard_peripheral/Source/gd32vw55x_rcu.c **** */
 609:../Firmware/GD32VW55x_standard_peripheral/Source/gd32vw55x_rcu.c **** void rcu_usart0_clock_config(uint32_t usart0_clock_source)
 610:../Firmware/GD32VW55x_standard_peripheral/Source/gd32vw55x_rcu.c **** {
 1261              		.loc 1 610 1
 1262              		.cfi_startproc
 1263 0000 7971     		addi	sp,sp,-48
 1264              		.cfi_def_cfa_offset 48
 1265 0002 22D6     		sw	s0,44(sp)
 1266              		.cfi_offset 8, -4
 1267 0004 0018     		addi	s0,sp,48
 1268              		.cfi_def_cfa 8, 0
 1269 0006 232EA4FC 		sw	a0,-36(s0)
 611:../Firmware/GD32VW55x_standard_peripheral/Source/gd32vw55x_rcu.c ****     uint32_t reg;
 612:../Firmware/GD32VW55x_standard_peripheral/Source/gd32vw55x_rcu.c **** 
 613:../Firmware/GD32VW55x_standard_peripheral/Source/gd32vw55x_rcu.c ****     reg = RCU_CFG1;
 1270              		.loc 1 613 11
 1271 000a B7470240 		li	a5,1073889280
 1272 000e 9387C788 		addi	a5,a5,-1908
 1273              		.loc 1 613 9
 1274 0012 9C43     		lw	a5,0(a5)
 1275 0014 2326F4FE 		sw	a5,-20(s0)
 614:../Firmware/GD32VW55x_standard_peripheral/Source/gd32vw55x_rcu.c ****     /* reset the USART0SEL bit and set according to usart0_clock_source */
 615:../Firmware/GD32VW55x_standard_peripheral/Source/gd32vw55x_rcu.c ****     reg &= ~RCU_CFG1_USART0SEL;
 1276              		.loc 1 615 9
 1277 0018 0327C4FE 		lw	a4,-20(s0)
 1278 001c B7070040 		li	a5,1073741824
 1279 0020 FD17     		addi	a5,a5,-1
 1280 0022 F98F     		and	a5,a4,a5
 1281 0024 2326F4FE 		sw	a5,-20(s0)
 616:../Firmware/GD32VW55x_standard_peripheral/Source/gd32vw55x_rcu.c ****     RCU_CFG1 = (reg | usart0_clock_source);
 1282              		.loc 1 616 5
 1283 0028 B7470240 		li	a5,1073889280
 1284 002c 9387C788 		addi	a5,a5,-1908
 1285              		.loc 1 616 21
 1286 0030 8326C4FE 		lw	a3,-20(s0)
 1287 0034 0327C4FD 		lw	a4,-36(s0)
 1288 0038 558F     		or	a4,a3,a4
 1289              		.loc 1 616 14
 1290 003a 98C3     		sw	a4,0(a5)
 617:../Firmware/GD32VW55x_standard_peripheral/Source/gd32vw55x_rcu.c **** }
 1291              		.loc 1 617 1
 1292 003c 0100     		nop
 1293 003e 3254     		lw	s0,44(sp)
 1294              		.cfi_restore 8
 1295              		.cfi_def_cfa 2, 48
 1296 0040 4561     		addi	sp,sp,48
 1297              		.cfi_def_cfa_offset 0
 1298 0042 8280     		jr	ra
 1299              		.cfi_endproc
 1300              	.LFE375:
 1302              		.section	.text.rcu_irc16m_div_config,"ax",@progbits
 1303              		.align	1
 1304              		.globl	rcu_irc16m_div_config
 1306              	rcu_irc16m_div_config:
 1307              	.LFB376:
 618:../Firmware/GD32VW55x_standard_peripheral/Source/gd32vw55x_rcu.c **** 
 619:../Firmware/GD32VW55x_standard_peripheral/Source/gd32vw55x_rcu.c **** /* configure IRC16M clock divider factor for system clock */
 620:../Firmware/GD32VW55x_standard_peripheral/Source/gd32vw55x_rcu.c **** /*!
 621:../Firmware/GD32VW55x_standard_peripheral/Source/gd32vw55x_rcu.c ****     \brief      configure IRC16M clock divider factor for system clock
 622:../Firmware/GD32VW55x_standard_peripheral/Source/gd32vw55x_rcu.c ****     \param[in]  irc16m_div: IRC16M clock divider factor for system clock
 623:../Firmware/GD32VW55x_standard_peripheral/Source/gd32vw55x_rcu.c ****                 only one parameter can be selected which is shown as below:
 624:../Firmware/GD32VW55x_standard_peripheral/Source/gd32vw55x_rcu.c ****       \arg        RCU_IRC16M_DIVx(x=1,2,3,...,512): IRC16M clock divided by x for system clock
 625:../Firmware/GD32VW55x_standard_peripheral/Source/gd32vw55x_rcu.c ****     \param[out] none
 626:../Firmware/GD32VW55x_standard_peripheral/Source/gd32vw55x_rcu.c ****     \retval     none
 627:../Firmware/GD32VW55x_standard_peripheral/Source/gd32vw55x_rcu.c **** */
 628:../Firmware/GD32VW55x_standard_peripheral/Source/gd32vw55x_rcu.c **** void rcu_irc16m_div_config(uint32_t irc16m_div)
 629:../Firmware/GD32VW55x_standard_peripheral/Source/gd32vw55x_rcu.c **** {
 1308              		.loc 1 629 1
 1309              		.cfi_startproc
 1310 0000 7971     		addi	sp,sp,-48
 1311              		.cfi_def_cfa_offset 48
 1312 0002 22D6     		sw	s0,44(sp)
 1313              		.cfi_offset 8, -4
 1314 0004 0018     		addi	s0,sp,48
 1315              		.cfi_def_cfa 8, 0
 1316 0006 232EA4FC 		sw	a0,-36(s0)
 630:../Firmware/GD32VW55x_standard_peripheral/Source/gd32vw55x_rcu.c ****     uint32_t reg;
 631:../Firmware/GD32VW55x_standard_peripheral/Source/gd32vw55x_rcu.c ****     reg = RCU_CFG1;
 1317              		.loc 1 631 11
 1318 000a B7470240 		li	a5,1073889280
 1319 000e 9387C788 		addi	a5,a5,-1908
 1320              		.loc 1 631 9
 1321 0012 9C43     		lw	a5,0(a5)
 1322 0014 2326F4FE 		sw	a5,-20(s0)
 632:../Firmware/GD32VW55x_standard_peripheral/Source/gd32vw55x_rcu.c ****     /* reset the IRC16MDIV bits and set according to irc16m_div */
 633:../Firmware/GD32VW55x_standard_peripheral/Source/gd32vw55x_rcu.c ****     reg &= ~RCU_CFG1_IRC16MDIV;
 1323              		.loc 1 633 9
 1324 0018 8327C4FE 		lw	a5,-20(s0)
 1325 001c 93F707E0 		andi	a5,a5,-512
 1326 0020 2326F4FE 		sw	a5,-20(s0)
 634:../Firmware/GD32VW55x_standard_peripheral/Source/gd32vw55x_rcu.c ****     RCU_CFG1 = (reg | irc16m_div);
 1327              		.loc 1 634 5
 1328 0024 B7470240 		li	a5,1073889280
 1329 0028 9387C788 		addi	a5,a5,-1908
 1330              		.loc 1 634 21
 1331 002c 8326C4FE 		lw	a3,-20(s0)
 1332 0030 0327C4FD 		lw	a4,-36(s0)
 1333 0034 558F     		or	a4,a3,a4
 1334              		.loc 1 634 14
 1335 0036 98C3     		sw	a4,0(a5)
 635:../Firmware/GD32VW55x_standard_peripheral/Source/gd32vw55x_rcu.c **** }
 1336              		.loc 1 635 1
 1337 0038 0100     		nop
 1338 003a 3254     		lw	s0,44(sp)
 1339              		.cfi_restore 8
 1340              		.cfi_def_cfa 2, 48
 1341 003c 4561     		addi	sp,sp,48
 1342              		.cfi_def_cfa_offset 0
 1343 003e 8280     		jr	ra
 1344              		.cfi_endproc
 1345              	.LFE376:
 1347              		.section	.text.rcu_timer_clock_prescaler_config,"ax",@progbits
 1348              		.align	1
 1349              		.globl	rcu_timer_clock_prescaler_config
 1351              	rcu_timer_clock_prescaler_config:
 1352              	.LFB377:
 636:../Firmware/GD32VW55x_standard_peripheral/Source/gd32vw55x_rcu.c **** 
 637:../Firmware/GD32VW55x_standard_peripheral/Source/gd32vw55x_rcu.c **** /*!
 638:../Firmware/GD32VW55x_standard_peripheral/Source/gd32vw55x_rcu.c ****     \brief      configure the TIMER clock prescaler selection
 639:../Firmware/GD32VW55x_standard_peripheral/Source/gd32vw55x_rcu.c ****     \param[in]  timer_clock_prescaler: TIMER clock selection
 640:../Firmware/GD32VW55x_standard_peripheral/Source/gd32vw55x_rcu.c ****                 only one parameter can be selected which is shown as below:
 641:../Firmware/GD32VW55x_standard_peripheral/Source/gd32vw55x_rcu.c ****       \arg        RCU_TIMER_PSC_MUL2: if APB1PSC/APB2PSC in RCU_CFG0 register is 0b0xx(CK_APBx = CK
 642:../Firmware/GD32VW55x_standard_peripheral/Source/gd32vw55x_rcu.c ****                                       or 0b100(CK_APBx = CK_AHB/2), the TIMER clock is equal to CK_
 643:../Firmware/GD32VW55x_standard_peripheral/Source/gd32vw55x_rcu.c ****                                       or else, the TIMER clock is twice the corresponding APB clock
 644:../Firmware/GD32VW55x_standard_peripheral/Source/gd32vw55x_rcu.c ****                                       TIMER in APB2 domain: CK_TIMERx = 2 x CK_APB2)
 645:../Firmware/GD32VW55x_standard_peripheral/Source/gd32vw55x_rcu.c ****       \arg        RCU_TIMER_PSC_MUL4: if APB1PSC/APB2PSC in RCU_CFG0 register is 0b0xx(CK_APBx = CK
 646:../Firmware/GD32VW55x_standard_peripheral/Source/gd32vw55x_rcu.c ****                                       0b100(CK_APBx = CK_AHB/2), or 0b101(CK_APBx = CK_AHB/4), the 
 647:../Firmware/GD32VW55x_standard_peripheral/Source/gd32vw55x_rcu.c ****                                       or else, the TIMER clock is four timers the corresponding APB
 648:../Firmware/GD32VW55x_standard_peripheral/Source/gd32vw55x_rcu.c ****                                       TIMER in APB2 domain: CK_TIMERx = 4 x CK_APB2)
 649:../Firmware/GD32VW55x_standard_peripheral/Source/gd32vw55x_rcu.c ****     \param[out] none
 650:../Firmware/GD32VW55x_standard_peripheral/Source/gd32vw55x_rcu.c ****     \retval     none
 651:../Firmware/GD32VW55x_standard_peripheral/Source/gd32vw55x_rcu.c **** */
 652:../Firmware/GD32VW55x_standard_peripheral/Source/gd32vw55x_rcu.c **** void rcu_timer_clock_prescaler_config(uint32_t timer_clock_prescaler)
 653:../Firmware/GD32VW55x_standard_peripheral/Source/gd32vw55x_rcu.c **** {
 1353              		.loc 1 653 1
 1354              		.cfi_startproc
 1355 0000 0111     		addi	sp,sp,-32
 1356              		.cfi_def_cfa_offset 32
 1357 0002 22CE     		sw	s0,28(sp)
 1358              		.cfi_offset 8, -4
 1359 0004 0010     		addi	s0,sp,32
 1360              		.cfi_def_cfa 8, 0
 1361 0006 2326A4FE 		sw	a0,-20(s0)
 654:../Firmware/GD32VW55x_standard_peripheral/Source/gd32vw55x_rcu.c ****     /* configure the TIMERSEL bit and select the TIMER clock prescaler */
 655:../Firmware/GD32VW55x_standard_peripheral/Source/gd32vw55x_rcu.c ****     if(timer_clock_prescaler == RCU_TIMER_PSC_MUL2){
 1362              		.loc 1 655 7
 1363 000a 0327C4FE 		lw	a4,-20(s0)
 1364 000e B70700FF 		li	a5,-16777216
 1365 0012 FD17     		addi	a5,a5,-1
 1366 0014 6310F702 		bne	a4,a5,.L33
 656:../Firmware/GD32VW55x_standard_peripheral/Source/gd32vw55x_rcu.c ****         RCU_CFG1 &= timer_clock_prescaler;
 1367              		.loc 1 656 18
 1368 0018 B7470240 		li	a5,1073889280
 1369 001c 9387C788 		addi	a5,a5,-1908
 1370 0020 9443     		lw	a3,0(a5)
 1371 0022 B7470240 		li	a5,1073889280
 1372 0026 9387C788 		addi	a5,a5,-1908
 1373 002a 0327C4FE 		lw	a4,-20(s0)
 1374 002e 758F     		and	a4,a3,a4
 1375 0030 98C3     		sw	a4,0(a5)
 657:../Firmware/GD32VW55x_standard_peripheral/Source/gd32vw55x_rcu.c ****     }else{
 658:../Firmware/GD32VW55x_standard_peripheral/Source/gd32vw55x_rcu.c ****         RCU_CFG1 |= timer_clock_prescaler;
 659:../Firmware/GD32VW55x_standard_peripheral/Source/gd32vw55x_rcu.c ****     }
 660:../Firmware/GD32VW55x_standard_peripheral/Source/gd32vw55x_rcu.c **** }
 1376              		.loc 1 660 1
 1377 0032 31A8     		j	.L35
 1378              	.L33:
 658:../Firmware/GD32VW55x_standard_peripheral/Source/gd32vw55x_rcu.c ****     }
 1379              		.loc 1 658 18
 1380 0034 B7470240 		li	a5,1073889280
 1381 0038 9387C788 		addi	a5,a5,-1908
 1382 003c 9443     		lw	a3,0(a5)
 1383 003e B7470240 		li	a5,1073889280
 1384 0042 9387C788 		addi	a5,a5,-1908
 1385 0046 0327C4FE 		lw	a4,-20(s0)
 1386 004a 558F     		or	a4,a3,a4
 1387 004c 98C3     		sw	a4,0(a5)
 1388              	.L35:
 1389              		.loc 1 660 1
 1390 004e 0100     		nop
 1391 0050 7244     		lw	s0,28(sp)
 1392              		.cfi_restore 8
 1393              		.cfi_def_cfa 2, 32
 1394 0052 0561     		addi	sp,sp,32
 1395              		.cfi_def_cfa_offset 0
 1396 0054 8280     		jr	ra
 1397              		.cfi_endproc
 1398              	.LFE377:
 1400              		.section	.text.rcu_flag_get,"ax",@progbits
 1401              		.align	1
 1402              		.globl	rcu_flag_get
 1404              	rcu_flag_get:
 1405              	.LFB378:
 661:../Firmware/GD32VW55x_standard_peripheral/Source/gd32vw55x_rcu.c **** 
 662:../Firmware/GD32VW55x_standard_peripheral/Source/gd32vw55x_rcu.c **** /*!
 663:../Firmware/GD32VW55x_standard_peripheral/Source/gd32vw55x_rcu.c ****     \brief      get the clock stabilization and periphral reset flags
 664:../Firmware/GD32VW55x_standard_peripheral/Source/gd32vw55x_rcu.c ****     \param[in]  flag: the clock stabilization and periphral reset flags, refer to rcu_flag_enum
 665:../Firmware/GD32VW55x_standard_peripheral/Source/gd32vw55x_rcu.c ****                 only one parameter can be selected which is shown as below:
 666:../Firmware/GD32VW55x_standard_peripheral/Source/gd32vw55x_rcu.c ****       \arg        RCU_FLAG_IRC16MSTB: IRC16M stabilization flag
 667:../Firmware/GD32VW55x_standard_peripheral/Source/gd32vw55x_rcu.c ****       \arg        RCU_FLAG_HXTALSTB: HXTAL stabilization flag
 668:../Firmware/GD32VW55x_standard_peripheral/Source/gd32vw55x_rcu.c ****       \arg        RCU_FLAG_PLLDIGSTB: PLLDIG stabilization flag
 669:../Firmware/GD32VW55x_standard_peripheral/Source/gd32vw55x_rcu.c ****       \arg        RCU_FLAG_LXTALSTB: LXTAL stabilization flag
 670:../Firmware/GD32VW55x_standard_peripheral/Source/gd32vw55x_rcu.c ****       \arg        RCU_FLAG_IRC32KSTB: IRC32K stabilization flag
 671:../Firmware/GD32VW55x_standard_peripheral/Source/gd32vw55x_rcu.c ****       \arg        RCU_FLAG_EPRST: external PIN reset flag
 672:../Firmware/GD32VW55x_standard_peripheral/Source/gd32vw55x_rcu.c ****       \arg        RCU_FLAG_PORRST: power reset flag
 673:../Firmware/GD32VW55x_standard_peripheral/Source/gd32vw55x_rcu.c ****       \arg        RCU_FLAG_SWRST: software reset flag
 674:../Firmware/GD32VW55x_standard_peripheral/Source/gd32vw55x_rcu.c ****       \arg        RCU_FLAG_FWDGTRST: free watchdog timer reset flag
 675:../Firmware/GD32VW55x_standard_peripheral/Source/gd32vw55x_rcu.c ****       \arg        RCU_FLAG_WWDGTRST: window watchdog timer reset flag
 676:../Firmware/GD32VW55x_standard_peripheral/Source/gd32vw55x_rcu.c ****       \arg        RCU_FLAG_LPRST: low-power reset flag
 677:../Firmware/GD32VW55x_standard_peripheral/Source/gd32vw55x_rcu.c ****     \param[out] none
 678:../Firmware/GD32VW55x_standard_peripheral/Source/gd32vw55x_rcu.c ****     \retval     none
 679:../Firmware/GD32VW55x_standard_peripheral/Source/gd32vw55x_rcu.c **** */
 680:../Firmware/GD32VW55x_standard_peripheral/Source/gd32vw55x_rcu.c **** FlagStatus rcu_flag_get(rcu_flag_enum flag)
 681:../Firmware/GD32VW55x_standard_peripheral/Source/gd32vw55x_rcu.c **** {
 1406              		.loc 1 681 1
 1407              		.cfi_startproc
 1408 0000 0111     		addi	sp,sp,-32
 1409              		.cfi_def_cfa_offset 32
 1410 0002 22CE     		sw	s0,28(sp)
 1411              		.cfi_offset 8, -4
 1412 0004 0010     		addi	s0,sp,32
 1413              		.cfi_def_cfa 8, 0
 1414 0006 2326A4FE 		sw	a0,-20(s0)
 682:../Firmware/GD32VW55x_standard_peripheral/Source/gd32vw55x_rcu.c ****     /* get the rcu flag */
 683:../Firmware/GD32VW55x_standard_peripheral/Source/gd32vw55x_rcu.c ****     if(RESET != (RCU_REG_VAL(flag) & BIT(RCU_BIT_POS(flag)))){
 1415              		.loc 1 683 18
 1416 000a 8327C4FE 		lw	a5,-20(s0)
 1417 000e 13D76700 		srli	a4,a5,6
 1418 0012 B7470240 		li	a5,1073889280
 1419 0016 93870780 		addi	a5,a5,-2048
 1420 001a BA97     		add	a5,a4,a5
 1421 001c 9843     		lw	a4,0(a5)
 1422              		.loc 1 683 38
 1423 001e 8327C4FE 		lw	a5,-20(s0)
 1424 0022 FD8B     		andi	a5,a5,31
 1425              		.loc 1 683 14
 1426 0024 B357F700 		srl	a5,a4,a5
 1427 0028 858B     		andi	a5,a5,1
 1428              		.loc 1 683 7
 1429 002a 99C3     		beq	a5,zero,.L37
 684:../Firmware/GD32VW55x_standard_peripheral/Source/gd32vw55x_rcu.c ****         return SET;
 1430              		.loc 1 684 16
 1431 002c 8547     		li	a5,1
 1432 002e 11A0     		j	.L38
 1433              	.L37:
 685:../Firmware/GD32VW55x_standard_peripheral/Source/gd32vw55x_rcu.c ****     }else{
 686:../Firmware/GD32VW55x_standard_peripheral/Source/gd32vw55x_rcu.c ****         return RESET;
 1434              		.loc 1 686 16
 1435 0030 8147     		li	a5,0
 1436              	.L38:
 687:../Firmware/GD32VW55x_standard_peripheral/Source/gd32vw55x_rcu.c ****     }
 688:../Firmware/GD32VW55x_standard_peripheral/Source/gd32vw55x_rcu.c **** }
 1437              		.loc 1 688 1
 1438 0032 3E85     		mv	a0,a5
 1439 0034 7244     		lw	s0,28(sp)
 1440              		.cfi_restore 8
 1441              		.cfi_def_cfa 2, 32
 1442 0036 0561     		addi	sp,sp,32
 1443              		.cfi_def_cfa_offset 0
 1444 0038 8280     		jr	ra
 1445              		.cfi_endproc
 1446              	.LFE378:
 1448              		.section	.text.rcu_all_reset_flag_clear,"ax",@progbits
 1449              		.align	1
 1450              		.globl	rcu_all_reset_flag_clear
 1452              	rcu_all_reset_flag_clear:
 1453              	.LFB379:
 689:../Firmware/GD32VW55x_standard_peripheral/Source/gd32vw55x_rcu.c **** 
 690:../Firmware/GD32VW55x_standard_peripheral/Source/gd32vw55x_rcu.c **** /*!
 691:../Firmware/GD32VW55x_standard_peripheral/Source/gd32vw55x_rcu.c ****     \brief      clear all the reset flag
 692:../Firmware/GD32VW55x_standard_peripheral/Source/gd32vw55x_rcu.c ****     \param[in]  none
 693:../Firmware/GD32VW55x_standard_peripheral/Source/gd32vw55x_rcu.c ****     \param[out] none
 694:../Firmware/GD32VW55x_standard_peripheral/Source/gd32vw55x_rcu.c ****     \retval     none
 695:../Firmware/GD32VW55x_standard_peripheral/Source/gd32vw55x_rcu.c **** */
 696:../Firmware/GD32VW55x_standard_peripheral/Source/gd32vw55x_rcu.c **** void rcu_all_reset_flag_clear(void)
 697:../Firmware/GD32VW55x_standard_peripheral/Source/gd32vw55x_rcu.c **** {
 1454              		.loc 1 697 1
 1455              		.cfi_startproc
 1456 0000 4111     		addi	sp,sp,-16
 1457              		.cfi_def_cfa_offset 16
 1458 0002 22C6     		sw	s0,12(sp)
 1459              		.cfi_offset 8, -4
 1460 0004 0008     		addi	s0,sp,16
 1461              		.cfi_def_cfa 8, 0
 698:../Firmware/GD32VW55x_standard_peripheral/Source/gd32vw55x_rcu.c ****     RCU_RSTSCK |= RCU_RSTSCK_RSTFC;
 1462              		.loc 1 698 16
 1463 0006 B7470240 		li	a5,1073889280
 1464 000a 93874787 		addi	a5,a5,-1932
 1465 000e 9443     		lw	a3,0(a5)
 1466 0010 B7470240 		li	a5,1073889280
 1467 0014 93874787 		addi	a5,a5,-1932
 1468 0018 37070001 		li	a4,16777216
 1469 001c 558F     		or	a4,a3,a4
 1470 001e 98C3     		sw	a4,0(a5)
 699:../Firmware/GD32VW55x_standard_peripheral/Source/gd32vw55x_rcu.c **** }
 1471              		.loc 1 699 1
 1472 0020 0100     		nop
 1473 0022 3244     		lw	s0,12(sp)
 1474              		.cfi_restore 8
 1475              		.cfi_def_cfa 2, 16
 1476 0024 4101     		addi	sp,sp,16
 1477              		.cfi_def_cfa_offset 0
 1478 0026 8280     		jr	ra
 1479              		.cfi_endproc
 1480              	.LFE379:
 1482              		.section	.text.rcu_interrupt_flag_get,"ax",@progbits
 1483              		.align	1
 1484              		.globl	rcu_interrupt_flag_get
 1486              	rcu_interrupt_flag_get:
 1487              	.LFB380:
 700:../Firmware/GD32VW55x_standard_peripheral/Source/gd32vw55x_rcu.c **** 
 701:../Firmware/GD32VW55x_standard_peripheral/Source/gd32vw55x_rcu.c **** /*!
 702:../Firmware/GD32VW55x_standard_peripheral/Source/gd32vw55x_rcu.c ****     \brief      get the clock stabilization interrupt and ckm flags
 703:../Firmware/GD32VW55x_standard_peripheral/Source/gd32vw55x_rcu.c ****     \param[in]  int_flag: interrupt and ckm flags, refer to rcu_int_flag_enum
 704:../Firmware/GD32VW55x_standard_peripheral/Source/gd32vw55x_rcu.c ****                 only one parameter can be selected which is shown as below:
 705:../Firmware/GD32VW55x_standard_peripheral/Source/gd32vw55x_rcu.c ****       \arg        RCU_INT_FLAG_IRC32KSTB: IRC32K stabilization interrupt flag
 706:../Firmware/GD32VW55x_standard_peripheral/Source/gd32vw55x_rcu.c ****       \arg        RCU_INT_FLAG_LXTALSTB: LXTAL stabilization interrupt flag
 707:../Firmware/GD32VW55x_standard_peripheral/Source/gd32vw55x_rcu.c ****       \arg        RCU_INT_FLAG_IRC16MSTB: IRC16M stabilization interrupt flag
 708:../Firmware/GD32VW55x_standard_peripheral/Source/gd32vw55x_rcu.c ****       \arg        RCU_INT_FLAG_HXTALSTB: HXTAL stabilization interrupt flag
 709:../Firmware/GD32VW55x_standard_peripheral/Source/gd32vw55x_rcu.c ****       \arg        RCU_INT_FLAG_PLLDIGSTB: PLLDIG stabilization interrupt flag
 710:../Firmware/GD32VW55x_standard_peripheral/Source/gd32vw55x_rcu.c ****       \arg        RCU_INT_FLAG_CKM: HXTAL clock stuck interrupt flag
 711:../Firmware/GD32VW55x_standard_peripheral/Source/gd32vw55x_rcu.c ****     \param[out] none
 712:../Firmware/GD32VW55x_standard_peripheral/Source/gd32vw55x_rcu.c ****     \retval     FlagStatus: SET or RESET
 713:../Firmware/GD32VW55x_standard_peripheral/Source/gd32vw55x_rcu.c **** */
 714:../Firmware/GD32VW55x_standard_peripheral/Source/gd32vw55x_rcu.c **** FlagStatus rcu_interrupt_flag_get(rcu_int_flag_enum int_flag)
 715:../Firmware/GD32VW55x_standard_peripheral/Source/gd32vw55x_rcu.c **** {
 1488              		.loc 1 715 1
 1489              		.cfi_startproc
 1490 0000 0111     		addi	sp,sp,-32
 1491              		.cfi_def_cfa_offset 32
 1492 0002 22CE     		sw	s0,28(sp)
 1493              		.cfi_offset 8, -4
 1494 0004 0010     		addi	s0,sp,32
 1495              		.cfi_def_cfa 8, 0
 1496 0006 2326A4FE 		sw	a0,-20(s0)
 716:../Firmware/GD32VW55x_standard_peripheral/Source/gd32vw55x_rcu.c ****     /* get the rcu interrupt flag */
 717:../Firmware/GD32VW55x_standard_peripheral/Source/gd32vw55x_rcu.c ****     if(RESET != (RCU_REG_VAL(int_flag) & BIT(RCU_BIT_POS(int_flag)))){
 1497              		.loc 1 717 18
 1498 000a 8327C4FE 		lw	a5,-20(s0)
 1499 000e 13D76700 		srli	a4,a5,6
 1500 0012 B7470240 		li	a5,1073889280
 1501 0016 93870780 		addi	a5,a5,-2048
 1502 001a BA97     		add	a5,a4,a5
 1503 001c 9843     		lw	a4,0(a5)
 1504              		.loc 1 717 42
 1505 001e 8327C4FE 		lw	a5,-20(s0)
 1506 0022 FD8B     		andi	a5,a5,31
 1507              		.loc 1 717 14
 1508 0024 B357F700 		srl	a5,a4,a5
 1509 0028 858B     		andi	a5,a5,1
 1510              		.loc 1 717 7
 1511 002a 99C3     		beq	a5,zero,.L41
 718:../Firmware/GD32VW55x_standard_peripheral/Source/gd32vw55x_rcu.c ****         return SET;
 1512              		.loc 1 718 16
 1513 002c 8547     		li	a5,1
 1514 002e 11A0     		j	.L42
 1515              	.L41:
 719:../Firmware/GD32VW55x_standard_peripheral/Source/gd32vw55x_rcu.c ****     }else{
 720:../Firmware/GD32VW55x_standard_peripheral/Source/gd32vw55x_rcu.c ****         return RESET;
 1516              		.loc 1 720 16
 1517 0030 8147     		li	a5,0
 1518              	.L42:
 721:../Firmware/GD32VW55x_standard_peripheral/Source/gd32vw55x_rcu.c ****     }
 722:../Firmware/GD32VW55x_standard_peripheral/Source/gd32vw55x_rcu.c **** }
 1519              		.loc 1 722 1
 1520 0032 3E85     		mv	a0,a5
 1521 0034 7244     		lw	s0,28(sp)
 1522              		.cfi_restore 8
 1523              		.cfi_def_cfa 2, 32
 1524 0036 0561     		addi	sp,sp,32
 1525              		.cfi_def_cfa_offset 0
 1526 0038 8280     		jr	ra
 1527              		.cfi_endproc
 1528              	.LFE380:
 1530              		.section	.text.rcu_interrupt_flag_clear,"ax",@progbits
 1531              		.align	1
 1532              		.globl	rcu_interrupt_flag_clear
 1534              	rcu_interrupt_flag_clear:
 1535              	.LFB381:
 723:../Firmware/GD32VW55x_standard_peripheral/Source/gd32vw55x_rcu.c **** 
 724:../Firmware/GD32VW55x_standard_peripheral/Source/gd32vw55x_rcu.c **** /*!
 725:../Firmware/GD32VW55x_standard_peripheral/Source/gd32vw55x_rcu.c ****     \brief      clear the interrupt flags
 726:../Firmware/GD32VW55x_standard_peripheral/Source/gd32vw55x_rcu.c ****     \param[in]  int_flag: clock stabilization and stuck interrupt flags clear, refer to rcu_int_fla
 727:../Firmware/GD32VW55x_standard_peripheral/Source/gd32vw55x_rcu.c ****                 only one parameter can be selected which is shown as below:
 728:../Firmware/GD32VW55x_standard_peripheral/Source/gd32vw55x_rcu.c ****       \arg        RCU_INT_FLAG_IRC32KSTB_CLR: IRC32K stabilization interrupt flag clear
 729:../Firmware/GD32VW55x_standard_peripheral/Source/gd32vw55x_rcu.c ****       \arg        RCU_INT_FLAG_LXTALSTB_CLR: LXTAL stabilization interrupt flag clear
 730:../Firmware/GD32VW55x_standard_peripheral/Source/gd32vw55x_rcu.c ****       \arg        RCU_INT_FLAG_IRC16MSTB_CLR: IRC16M stabilization interrupt flag clear
 731:../Firmware/GD32VW55x_standard_peripheral/Source/gd32vw55x_rcu.c ****       \arg        RCU_INT_FLAG_HXTALSTB_CLR: HXTAL stabilization interrupt flag clear
 732:../Firmware/GD32VW55x_standard_peripheral/Source/gd32vw55x_rcu.c ****       \arg        RCU_INT_FLAG_PLLDIGSTB_CLR: PLLDIG stabilization interrupt flag clear
 733:../Firmware/GD32VW55x_standard_peripheral/Source/gd32vw55x_rcu.c ****       \arg        RCU_INT_FLAG_CKM_CLR: clock stuck interrupt flag clear
 734:../Firmware/GD32VW55x_standard_peripheral/Source/gd32vw55x_rcu.c ****     \param[out] none
 735:../Firmware/GD32VW55x_standard_peripheral/Source/gd32vw55x_rcu.c ****     \retval     none
 736:../Firmware/GD32VW55x_standard_peripheral/Source/gd32vw55x_rcu.c **** */
 737:../Firmware/GD32VW55x_standard_peripheral/Source/gd32vw55x_rcu.c **** void rcu_interrupt_flag_clear(rcu_int_flag_clear_enum int_flag)
 738:../Firmware/GD32VW55x_standard_peripheral/Source/gd32vw55x_rcu.c **** {
 1536              		.loc 1 738 1
 1537              		.cfi_startproc
 1538 0000 0111     		addi	sp,sp,-32
 1539              		.cfi_def_cfa_offset 32
 1540 0002 22CE     		sw	s0,28(sp)
 1541              		.cfi_offset 8, -4
 1542 0004 0010     		addi	s0,sp,32
 1543              		.cfi_def_cfa 8, 0
 1544 0006 2326A4FE 		sw	a0,-20(s0)
 739:../Firmware/GD32VW55x_standard_peripheral/Source/gd32vw55x_rcu.c ****     RCU_REG_VAL(int_flag) |= BIT(RCU_BIT_POS(int_flag));
 1545              		.loc 1 739 27
 1546 000a 8327C4FE 		lw	a5,-20(s0)
 1547 000e 13D76700 		srli	a4,a5,6
 1548 0012 B7470240 		li	a5,1073889280
 1549 0016 93870780 		addi	a5,a5,-2048
 1550 001a BA97     		add	a5,a4,a5
 1551 001c 9843     		lw	a4,0(a5)
 1552              		.loc 1 739 30
 1553 001e 8327C4FE 		lw	a5,-20(s0)
 1554 0022 FD8B     		andi	a5,a5,31
 1555 0024 8546     		li	a3,1
 1556 0026 B397F600 		sll	a5,a3,a5
 1557              		.loc 1 739 27
 1558 002a 8326C4FE 		lw	a3,-20(s0)
 1559 002e 13D66600 		srli	a2,a3,6
 1560 0032 B7460240 		li	a3,1073889280
 1561 0036 93860680 		addi	a3,a3,-2048
 1562 003a B296     		add	a3,a2,a3
 1563 003c D98F     		or	a5,a4,a5
 1564 003e 9CC2     		sw	a5,0(a3)
 740:../Firmware/GD32VW55x_standard_peripheral/Source/gd32vw55x_rcu.c **** }
 1565              		.loc 1 740 1
 1566 0040 0100     		nop
 1567 0042 7244     		lw	s0,28(sp)
 1568              		.cfi_restore 8
 1569              		.cfi_def_cfa 2, 32
 1570 0044 0561     		addi	sp,sp,32
 1571              		.cfi_def_cfa_offset 0
 1572 0046 8280     		jr	ra
 1573              		.cfi_endproc
 1574              	.LFE381:
 1576              		.section	.text.rcu_interrupt_enable,"ax",@progbits
 1577              		.align	1
 1578              		.globl	rcu_interrupt_enable
 1580              	rcu_interrupt_enable:
 1581              	.LFB382:
 741:../Firmware/GD32VW55x_standard_peripheral/Source/gd32vw55x_rcu.c **** 
 742:../Firmware/GD32VW55x_standard_peripheral/Source/gd32vw55x_rcu.c **** /*!
 743:../Firmware/GD32VW55x_standard_peripheral/Source/gd32vw55x_rcu.c ****     \brief      enable the stabilization interrupt
 744:../Firmware/GD32VW55x_standard_peripheral/Source/gd32vw55x_rcu.c ****     \param[in]  interrupt: clock stabilization interrupt, refer to rcu_int_enum
 745:../Firmware/GD32VW55x_standard_peripheral/Source/gd32vw55x_rcu.c ****                 Only one parameter can be selected which is shown as below:
 746:../Firmware/GD32VW55x_standard_peripheral/Source/gd32vw55x_rcu.c ****       \arg        RCU_INT_IRC32KSTB: IRC32K stabilization interrupt enable
 747:../Firmware/GD32VW55x_standard_peripheral/Source/gd32vw55x_rcu.c ****       \arg        RCU_INT_LXTALSTB: LXTAL stabilization interrupt enable
 748:../Firmware/GD32VW55x_standard_peripheral/Source/gd32vw55x_rcu.c ****       \arg        RCU_INT_IRC16MSTB: IRC16M stabilization interrupt enable
 749:../Firmware/GD32VW55x_standard_peripheral/Source/gd32vw55x_rcu.c ****       \arg        RCU_INT_HXTALSTB: HXTAL stabilization interrupt enable
 750:../Firmware/GD32VW55x_standard_peripheral/Source/gd32vw55x_rcu.c ****       \arg        RCU_INT_PLLDIGSTB: PLLDIG stabilization interrupt enable
 751:../Firmware/GD32VW55x_standard_peripheral/Source/gd32vw55x_rcu.c ****     \param[out] none
 752:../Firmware/GD32VW55x_standard_peripheral/Source/gd32vw55x_rcu.c ****     \retval     none
 753:../Firmware/GD32VW55x_standard_peripheral/Source/gd32vw55x_rcu.c **** */
 754:../Firmware/GD32VW55x_standard_peripheral/Source/gd32vw55x_rcu.c **** void rcu_interrupt_enable(rcu_int_enum interrupt)
 755:../Firmware/GD32VW55x_standard_peripheral/Source/gd32vw55x_rcu.c **** {
 1582              		.loc 1 755 1
 1583              		.cfi_startproc
 1584 0000 0111     		addi	sp,sp,-32
 1585              		.cfi_def_cfa_offset 32
 1586 0002 22CE     		sw	s0,28(sp)
 1587              		.cfi_offset 8, -4
 1588 0004 0010     		addi	s0,sp,32
 1589              		.cfi_def_cfa 8, 0
 1590 0006 2326A4FE 		sw	a0,-20(s0)
 756:../Firmware/GD32VW55x_standard_peripheral/Source/gd32vw55x_rcu.c ****     RCU_REG_VAL(interrupt) |= BIT(RCU_BIT_POS(interrupt));
 1591              		.loc 1 756 28
 1592 000a 8327C4FE 		lw	a5,-20(s0)
 1593 000e 13D76700 		srli	a4,a5,6
 1594 0012 B7470240 		li	a5,1073889280
 1595 0016 93870780 		addi	a5,a5,-2048
 1596 001a BA97     		add	a5,a4,a5
 1597 001c 9843     		lw	a4,0(a5)
 1598              		.loc 1 756 31
 1599 001e 8327C4FE 		lw	a5,-20(s0)
 1600 0022 FD8B     		andi	a5,a5,31
 1601 0024 8546     		li	a3,1
 1602 0026 B397F600 		sll	a5,a3,a5
 1603              		.loc 1 756 28
 1604 002a 8326C4FE 		lw	a3,-20(s0)
 1605 002e 13D66600 		srli	a2,a3,6
 1606 0032 B7460240 		li	a3,1073889280
 1607 0036 93860680 		addi	a3,a3,-2048
 1608 003a B296     		add	a3,a2,a3
 1609 003c D98F     		or	a5,a4,a5
 1610 003e 9CC2     		sw	a5,0(a3)
 757:../Firmware/GD32VW55x_standard_peripheral/Source/gd32vw55x_rcu.c **** }
 1611              		.loc 1 757 1
 1612 0040 0100     		nop
 1613 0042 7244     		lw	s0,28(sp)
 1614              		.cfi_restore 8
 1615              		.cfi_def_cfa 2, 32
 1616 0044 0561     		addi	sp,sp,32
 1617              		.cfi_def_cfa_offset 0
 1618 0046 8280     		jr	ra
 1619              		.cfi_endproc
 1620              	.LFE382:
 1622              		.section	.text.rcu_interrupt_disable,"ax",@progbits
 1623              		.align	1
 1624              		.globl	rcu_interrupt_disable
 1626              	rcu_interrupt_disable:
 1627              	.LFB383:
 758:../Firmware/GD32VW55x_standard_peripheral/Source/gd32vw55x_rcu.c **** 
 759:../Firmware/GD32VW55x_standard_peripheral/Source/gd32vw55x_rcu.c **** /*!
 760:../Firmware/GD32VW55x_standard_peripheral/Source/gd32vw55x_rcu.c ****     \brief      disable the stabilization interrupt
 761:../Firmware/GD32VW55x_standard_peripheral/Source/gd32vw55x_rcu.c ****     \param[in]  interrupt: clock stabilization interrupt, refer to rcu_int_enum
 762:../Firmware/GD32VW55x_standard_peripheral/Source/gd32vw55x_rcu.c ****                 only one parameter can be selected which is shown as below:
 763:../Firmware/GD32VW55x_standard_peripheral/Source/gd32vw55x_rcu.c ****       \arg        RCU_INT_IRC32KSTB: IRC32K stabilization interrupt disable
 764:../Firmware/GD32VW55x_standard_peripheral/Source/gd32vw55x_rcu.c ****       \arg        RCU_INT_LXTALSTB: LXTAL stabilization interrupt disable
 765:../Firmware/GD32VW55x_standard_peripheral/Source/gd32vw55x_rcu.c ****       \arg        RCU_INT_IRC16MSTB: IRC16M stabilization interrupt disable
 766:../Firmware/GD32VW55x_standard_peripheral/Source/gd32vw55x_rcu.c ****       \arg        RCU_INT_HXTALSTB: HXTAL stabilization interrupt disable
 767:../Firmware/GD32VW55x_standard_peripheral/Source/gd32vw55x_rcu.c ****       \arg        RCU_INT_PLLDIGSTB: PLLDIG stabilization interrupt disable
 768:../Firmware/GD32VW55x_standard_peripheral/Source/gd32vw55x_rcu.c ****     \param[out] none
 769:../Firmware/GD32VW55x_standard_peripheral/Source/gd32vw55x_rcu.c ****     \retval     none
 770:../Firmware/GD32VW55x_standard_peripheral/Source/gd32vw55x_rcu.c **** */
 771:../Firmware/GD32VW55x_standard_peripheral/Source/gd32vw55x_rcu.c **** void rcu_interrupt_disable(rcu_int_enum interrupt)
 772:../Firmware/GD32VW55x_standard_peripheral/Source/gd32vw55x_rcu.c **** {
 1628              		.loc 1 772 1
 1629              		.cfi_startproc
 1630 0000 0111     		addi	sp,sp,-32
 1631              		.cfi_def_cfa_offset 32
 1632 0002 22CE     		sw	s0,28(sp)
 1633              		.cfi_offset 8, -4
 1634 0004 0010     		addi	s0,sp,32
 1635              		.cfi_def_cfa 8, 0
 1636 0006 2326A4FE 		sw	a0,-20(s0)
 773:../Firmware/GD32VW55x_standard_peripheral/Source/gd32vw55x_rcu.c ****     RCU_REG_VAL(interrupt) &= ~BIT(RCU_BIT_POS(interrupt));
 1637              		.loc 1 773 28
 1638 000a 8327C4FE 		lw	a5,-20(s0)
 1639 000e 13D76700 		srli	a4,a5,6
 1640 0012 B7470240 		li	a5,1073889280
 1641 0016 93870780 		addi	a5,a5,-2048
 1642 001a BA97     		add	a5,a4,a5
 1643 001c 9843     		lw	a4,0(a5)
 1644              		.loc 1 773 32
 1645 001e 8327C4FE 		lw	a5,-20(s0)
 1646 0022 FD8B     		andi	a5,a5,31
 1647 0024 8546     		li	a3,1
 1648 0026 B397F600 		sll	a5,a3,a5
 1649              		.loc 1 773 31
 1650 002a 93C7F7FF 		not	a5,a5
 1651              		.loc 1 773 28
 1652 002e 8326C4FE 		lw	a3,-20(s0)
 1653 0032 13D66600 		srli	a2,a3,6
 1654 0036 B7460240 		li	a3,1073889280
 1655 003a 93860680 		addi	a3,a3,-2048
 1656 003e B296     		add	a3,a2,a3
 1657 0040 F98F     		and	a5,a4,a5
 1658 0042 9CC2     		sw	a5,0(a3)
 774:../Firmware/GD32VW55x_standard_peripheral/Source/gd32vw55x_rcu.c **** }
 1659              		.loc 1 774 1
 1660 0044 0100     		nop
 1661 0046 7244     		lw	s0,28(sp)
 1662              		.cfi_restore 8
 1663              		.cfi_def_cfa 2, 32
 1664 0048 0561     		addi	sp,sp,32
 1665              		.cfi_def_cfa_offset 0
 1666 004a 8280     		jr	ra
 1667              		.cfi_endproc
 1668              	.LFE383:
 1670              		.section	.text.rcu_lxtal_drive_capability_config,"ax",@progbits
 1671              		.align	1
 1672              		.globl	rcu_lxtal_drive_capability_config
 1674              	rcu_lxtal_drive_capability_config:
 1675              	.LFB384:
 775:../Firmware/GD32VW55x_standard_peripheral/Source/gd32vw55x_rcu.c **** 
 776:../Firmware/GD32VW55x_standard_peripheral/Source/gd32vw55x_rcu.c **** /*!
 777:../Firmware/GD32VW55x_standard_peripheral/Source/gd32vw55x_rcu.c ****     \brief      configure the LXTAL drive capability
 778:../Firmware/GD32VW55x_standard_peripheral/Source/gd32vw55x_rcu.c ****     \param[in]  lxtal_dricap: drive capability of LXTAL
 779:../Firmware/GD32VW55x_standard_peripheral/Source/gd32vw55x_rcu.c ****                 only one parameter can be selected which is shown as below:
 780:../Firmware/GD32VW55x_standard_peripheral/Source/gd32vw55x_rcu.c ****       \arg        RCU_LXTALDRI_LOWER_DRIVE: lower driving capability
 781:../Firmware/GD32VW55x_standard_peripheral/Source/gd32vw55x_rcu.c ****       \arg        RCU_LXTALDRI_HIGH_DRIVE: high driving capability
 782:../Firmware/GD32VW55x_standard_peripheral/Source/gd32vw55x_rcu.c ****       \arg        RCU_LXTALDRI_HIGHER_DRIVE: higher driving capability
 783:../Firmware/GD32VW55x_standard_peripheral/Source/gd32vw55x_rcu.c ****       \arg        RCU_LXTALDRI_HIGHEST_DRIVE: highest driving capability
 784:../Firmware/GD32VW55x_standard_peripheral/Source/gd32vw55x_rcu.c ****     \param[out] none
 785:../Firmware/GD32VW55x_standard_peripheral/Source/gd32vw55x_rcu.c ****     \retval     none
 786:../Firmware/GD32VW55x_standard_peripheral/Source/gd32vw55x_rcu.c **** */
 787:../Firmware/GD32VW55x_standard_peripheral/Source/gd32vw55x_rcu.c **** void rcu_lxtal_drive_capability_config(uint32_t lxtal_dricap)
 788:../Firmware/GD32VW55x_standard_peripheral/Source/gd32vw55x_rcu.c **** {
 1676              		.loc 1 788 1
 1677              		.cfi_startproc
 1678 0000 7971     		addi	sp,sp,-48
 1679              		.cfi_def_cfa_offset 48
 1680 0002 22D6     		sw	s0,44(sp)
 1681              		.cfi_offset 8, -4
 1682 0004 0018     		addi	s0,sp,48
 1683              		.cfi_def_cfa 8, 0
 1684 0006 232EA4FC 		sw	a0,-36(s0)
 789:../Firmware/GD32VW55x_standard_peripheral/Source/gd32vw55x_rcu.c ****     uint32_t reg;
 790:../Firmware/GD32VW55x_standard_peripheral/Source/gd32vw55x_rcu.c **** 
 791:../Firmware/GD32VW55x_standard_peripheral/Source/gd32vw55x_rcu.c ****     reg = RCU_BDCTL;
 1685              		.loc 1 791 11
 1686 000a B7470240 		li	a5,1073889280
 1687 000e 93870787 		addi	a5,a5,-1936
 1688              		.loc 1 791 9
 1689 0012 9C43     		lw	a5,0(a5)
 1690 0014 2326F4FE 		sw	a5,-20(s0)
 792:../Firmware/GD32VW55x_standard_peripheral/Source/gd32vw55x_rcu.c **** 
 793:../Firmware/GD32VW55x_standard_peripheral/Source/gd32vw55x_rcu.c ****     /* reset the LXTALDRI bits and set according to lxtal_dricap */
 794:../Firmware/GD32VW55x_standard_peripheral/Source/gd32vw55x_rcu.c ****     reg &= ~RCU_BDCTL_LXTALDRI;
 1691              		.loc 1 794 9
 1692 0018 8327C4FE 		lw	a5,-20(s0)
 1693 001c 9D9B     		andi	a5,a5,-25
 1694 001e 2326F4FE 		sw	a5,-20(s0)
 795:../Firmware/GD32VW55x_standard_peripheral/Source/gd32vw55x_rcu.c ****     RCU_BDCTL = (reg | lxtal_dricap);
 1695              		.loc 1 795 5
 1696 0022 B7470240 		li	a5,1073889280
 1697 0026 93870787 		addi	a5,a5,-1936
 1698              		.loc 1 795 22
 1699 002a 8326C4FE 		lw	a3,-20(s0)
 1700 002e 0327C4FD 		lw	a4,-36(s0)
 1701 0032 558F     		or	a4,a3,a4
 1702              		.loc 1 795 15
 1703 0034 98C3     		sw	a4,0(a5)
 796:../Firmware/GD32VW55x_standard_peripheral/Source/gd32vw55x_rcu.c **** }
 1704              		.loc 1 796 1
 1705 0036 0100     		nop
 1706 0038 3254     		lw	s0,44(sp)
 1707              		.cfi_restore 8
 1708              		.cfi_def_cfa 2, 48
 1709 003a 4561     		addi	sp,sp,48
 1710              		.cfi_def_cfa_offset 0
 1711 003c 8280     		jr	ra
 1712              		.cfi_endproc
 1713              	.LFE384:
 1715              		.section	.text.rcu_osci_stab_wait,"ax",@progbits
 1716              		.align	1
 1717              		.globl	rcu_osci_stab_wait
 1719              	rcu_osci_stab_wait:
 1720              	.LFB385:
 797:../Firmware/GD32VW55x_standard_peripheral/Source/gd32vw55x_rcu.c **** 
 798:../Firmware/GD32VW55x_standard_peripheral/Source/gd32vw55x_rcu.c **** /*!
 799:../Firmware/GD32VW55x_standard_peripheral/Source/gd32vw55x_rcu.c ****     \brief      wait for oscillator stabilization flags is SET or oscillator startup is timeout
 800:../Firmware/GD32VW55x_standard_peripheral/Source/gd32vw55x_rcu.c ****     \param[in]  osci: oscillator types, refer to rcu_osci_type_enum
 801:../Firmware/GD32VW55x_standard_peripheral/Source/gd32vw55x_rcu.c ****                 only one parameter can be selected which is shown as below:
 802:../Firmware/GD32VW55x_standard_peripheral/Source/gd32vw55x_rcu.c ****       \arg        RCU_HXTAL: HXTAL
 803:../Firmware/GD32VW55x_standard_peripheral/Source/gd32vw55x_rcu.c ****       \arg        RCU_LXTAL: LXTAL
 804:../Firmware/GD32VW55x_standard_peripheral/Source/gd32vw55x_rcu.c ****       \arg        RCU_IRC16M: IRC16M
 805:../Firmware/GD32VW55x_standard_peripheral/Source/gd32vw55x_rcu.c ****       \arg        RCU_IRC32K: IRC32K
 806:../Firmware/GD32VW55x_standard_peripheral/Source/gd32vw55x_rcu.c ****       \arg        RCU_PLLDIG_CK: PLLDIG
 807:../Firmware/GD32VW55x_standard_peripheral/Source/gd32vw55x_rcu.c ****     \param[out] none
 808:../Firmware/GD32VW55x_standard_peripheral/Source/gd32vw55x_rcu.c ****     \retval     ErrStatus: SUCCESS or ERROR
 809:../Firmware/GD32VW55x_standard_peripheral/Source/gd32vw55x_rcu.c **** */
 810:../Firmware/GD32VW55x_standard_peripheral/Source/gd32vw55x_rcu.c **** ErrStatus rcu_osci_stab_wait(rcu_osci_type_enum osci)
 811:../Firmware/GD32VW55x_standard_peripheral/Source/gd32vw55x_rcu.c **** {
 1721              		.loc 1 811 1
 1722              		.cfi_startproc
 1723 0000 7971     		addi	sp,sp,-48
 1724              		.cfi_def_cfa_offset 48
 1725 0002 06D6     		sw	ra,44(sp)
 1726 0004 22D4     		sw	s0,40(sp)
 1727              		.cfi_offset 1, -4
 1728              		.cfi_offset 8, -8
 1729 0006 0018     		addi	s0,sp,48
 1730              		.cfi_def_cfa 8, 0
 1731 0008 232EA4FC 		sw	a0,-36(s0)
 812:../Firmware/GD32VW55x_standard_peripheral/Source/gd32vw55x_rcu.c ****     uint32_t stb_cnt = 0U;
 1732              		.loc 1 812 14
 1733 000c 232604FE 		sw	zero,-20(s0)
 813:../Firmware/GD32VW55x_standard_peripheral/Source/gd32vw55x_rcu.c ****     ErrStatus reval = ERROR;
 1734              		.loc 1 813 15
 1735 0010 232404FE 		sw	zero,-24(s0)
 814:../Firmware/GD32VW55x_standard_peripheral/Source/gd32vw55x_rcu.c ****     FlagStatus osci_stat = RESET;
 1736              		.loc 1 814 16
 1737 0014 232204FE 		sw	zero,-28(s0)
 815:../Firmware/GD32VW55x_standard_peripheral/Source/gd32vw55x_rcu.c **** 
 816:../Firmware/GD32VW55x_standard_peripheral/Source/gd32vw55x_rcu.c ****     switch(osci){
 1738              		.loc 1 816 5
 1739 0018 0327C4FD 		lw	a4,-36(s0)
 1740 001c 8967     		li	a5,8192
 1741 001e 938707D0 		addi	a5,a5,-768
 1742 0022 630EF712 		beq	a4,a5,.L66
 1743 0026 0327C4FD 		lw	a4,-36(s0)
 1744 002a 8967     		li	a5,8192
 1745 002c 938707D0 		addi	a5,a5,-768
 1746 0030 63EFE718 		bgtu	a4,a5,.L75
 1747 0034 0327C4FD 		lw	a4,-36(s0)
 1748 0038 8967     		li	a5,8192
 1749 003a 938707C0 		addi	a5,a5,-1024
 1750 003e 630BF708 		beq	a4,a5,.L58
 1751 0042 0327C4FD 		lw	a4,-36(s0)
 1752 0046 8967     		li	a5,8192
 1753 0048 938707C0 		addi	a5,a5,-1024
 1754 004c 63E1E718 		bgtu	a4,a5,.L75
 1755 0050 0327C4FD 		lw	a4,-36(s0)
 1756 0054 D547     		li	a5,21
 1757 0056 6307F714 		beq	a4,a5,.L70
 1758 005a 0327C4FD 		lw	a4,-36(s0)
 1759 005e D547     		li	a5,21
 1760 0060 63E7E716 		bgtu	a4,a5,.L75
 1761 0064 8327C4FD 		lw	a5,-36(s0)
 1762 0068 CDCB     		beq	a5,zero,.L62
 1763 006a 0327C4FD 		lw	a4,-36(s0)
 1764 006e C147     		li	a5,16
 1765 0070 631FF714 		bne	a4,a5,.L75
 817:../Firmware/GD32VW55x_standard_peripheral/Source/gd32vw55x_rcu.c ****     /* wait HXTAL stable */
 818:../Firmware/GD32VW55x_standard_peripheral/Source/gd32vw55x_rcu.c ****     case RCU_HXTAL:
 819:../Firmware/GD32VW55x_standard_peripheral/Source/gd32vw55x_rcu.c ****         while((RESET == osci_stat) && (HXTAL_STARTUP_TIMEOUT != stb_cnt)){
 1766              		.loc 1 819 14
 1767 0074 29A8     		j	.L53
 1768              	.L55:
 820:../Firmware/GD32VW55x_standard_peripheral/Source/gd32vw55x_rcu.c ****             osci_stat = rcu_flag_get(RCU_FLAG_HXTALSTB);
 1769              		.loc 1 820 25
 1770 0076 4545     		li	a0,17
 1771 0078 97000000 		call	rcu_flag_get
 1771      E7800000 
 1772 0080 2322A4FE 		sw	a0,-28(s0)
 821:../Firmware/GD32VW55x_standard_peripheral/Source/gd32vw55x_rcu.c ****             stb_cnt++;
 1773              		.loc 1 821 20
 1774 0084 8327C4FE 		lw	a5,-20(s0)
 1775 0088 8507     		addi	a5,a5,1
 1776 008a 2326F4FE 		sw	a5,-20(s0)
 1777              	.L53:
 819:../Firmware/GD32VW55x_standard_peripheral/Source/gd32vw55x_rcu.c ****             osci_stat = rcu_flag_get(RCU_FLAG_HXTALSTB);
 1778              		.loc 1 819 14
 1779 008e 832744FE 		lw	a5,-28(s0)
 1780 0092 99E7     		bne	a5,zero,.L54
 819:../Firmware/GD32VW55x_standard_peripheral/Source/gd32vw55x_rcu.c ****             osci_stat = rcu_flag_get(RCU_FLAG_HXTALSTB);
 1781              		.loc 1 819 36 discriminator 1
 1782 0094 0327C4FE 		lw	a4,-20(s0)
 1783 0098 C167     		li	a5,65536
 1784 009a FD17     		addi	a5,a5,-1
 1785 009c E31DF7FC 		bne	a4,a5,.L55
 1786              	.L54:
 822:../Firmware/GD32VW55x_standard_peripheral/Source/gd32vw55x_rcu.c ****         }
 823:../Firmware/GD32VW55x_standard_peripheral/Source/gd32vw55x_rcu.c **** 
 824:../Firmware/GD32VW55x_standard_peripheral/Source/gd32vw55x_rcu.c ****         /* check whether flag is set */
 825:../Firmware/GD32VW55x_standard_peripheral/Source/gd32vw55x_rcu.c ****         if(RESET != rcu_flag_get(RCU_FLAG_HXTALSTB)){
 1787              		.loc 1 825 21
 1788 00a0 4545     		li	a0,17
 1789 00a2 97000000 		call	rcu_flag_get
 1789      E7800000 
 1790 00aa AA87     		mv	a5,a0
 1791              		.loc 1 825 11
 1792 00ac 63830712 		beq	a5,zero,.L76
 826:../Firmware/GD32VW55x_standard_peripheral/Source/gd32vw55x_rcu.c ****             reval = SUCCESS;
 1793              		.loc 1 826 19
 1794 00b0 8547     		li	a5,1
 1795 00b2 2324F4FE 		sw	a5,-24(s0)
 827:../Firmware/GD32VW55x_standard_peripheral/Source/gd32vw55x_rcu.c ****         }
 828:../Firmware/GD32VW55x_standard_peripheral/Source/gd32vw55x_rcu.c ****         break;
 1796              		.loc 1 828 9
 1797 00b6 31AA     		j	.L76
 1798              	.L60:
 829:../Firmware/GD32VW55x_standard_peripheral/Source/gd32vw55x_rcu.c ****     /* wait LXTAL stable */
 830:../Firmware/GD32VW55x_standard_peripheral/Source/gd32vw55x_rcu.c ****     case RCU_LXTAL:
 831:../Firmware/GD32VW55x_standard_peripheral/Source/gd32vw55x_rcu.c ****         while((RESET == osci_stat) && (LXTAL_STARTUP_TIMEOUT != stb_cnt)){
 832:../Firmware/GD32VW55x_standard_peripheral/Source/gd32vw55x_rcu.c ****             osci_stat = rcu_flag_get(RCU_FLAG_LXTALSTB);
 1799              		.loc 1 832 25
 1800 00b8 8967     		li	a5,8192
 1801 00ba 138517C0 		addi	a0,a5,-1023
 1802 00be 97000000 		call	rcu_flag_get
 1802      E7800000 
 1803 00c6 2322A4FE 		sw	a0,-28(s0)
 833:../Firmware/GD32VW55x_standard_peripheral/Source/gd32vw55x_rcu.c ****             stb_cnt++;
 1804              		.loc 1 833 20
 1805 00ca 8327C4FE 		lw	a5,-20(s0)
 1806 00ce 8507     		addi	a5,a5,1
 1807 00d0 2326F4FE 		sw	a5,-20(s0)
 1808              	.L58:
 831:../Firmware/GD32VW55x_standard_peripheral/Source/gd32vw55x_rcu.c ****             osci_stat = rcu_flag_get(RCU_FLAG_LXTALSTB);
 1809              		.loc 1 831 14
 1810 00d4 832744FE 		lw	a5,-28(s0)
 1811 00d8 81EB     		bne	a5,zero,.L59
 831:../Firmware/GD32VW55x_standard_peripheral/Source/gd32vw55x_rcu.c ****             osci_stat = rcu_flag_get(RCU_FLAG_LXTALSTB);
 1812              		.loc 1 831 36 discriminator 1
 1813 00da 0327C4FE 		lw	a4,-20(s0)
 1814 00de B7070010 		li	a5,268435456
 1815 00e2 FD17     		addi	a5,a5,-1
 1816 00e4 E31AF7FC 		bne	a4,a5,.L60
 1817              	.L59:
 834:../Firmware/GD32VW55x_standard_peripheral/Source/gd32vw55x_rcu.c ****         }
 835:../Firmware/GD32VW55x_standard_peripheral/Source/gd32vw55x_rcu.c **** 
 836:../Firmware/GD32VW55x_standard_peripheral/Source/gd32vw55x_rcu.c ****         /* check whether flag is set */
 837:../Firmware/GD32VW55x_standard_peripheral/Source/gd32vw55x_rcu.c ****         if(RESET != rcu_flag_get(RCU_FLAG_LXTALSTB)){
 1818              		.loc 1 837 21
 1819 00e8 8967     		li	a5,8192
 1820 00ea 138517C0 		addi	a0,a5,-1023
 1821 00ee 97000000 		call	rcu_flag_get
 1821      E7800000 
 1822 00f6 AA87     		mv	a5,a0
 1823              		.loc 1 837 11
 1824 00f8 F9CF     		beq	a5,zero,.L77
 838:../Firmware/GD32VW55x_standard_peripheral/Source/gd32vw55x_rcu.c ****             reval = SUCCESS;
 1825              		.loc 1 838 19
 1826 00fa 8547     		li	a5,1
 1827 00fc 2324F4FE 		sw	a5,-24(s0)
 839:../Firmware/GD32VW55x_standard_peripheral/Source/gd32vw55x_rcu.c ****         }
 840:../Firmware/GD32VW55x_standard_peripheral/Source/gd32vw55x_rcu.c ****         break;
 1828              		.loc 1 840 9
 1829 0100 D9A8     		j	.L77
 1830              	.L64:
 841:../Firmware/GD32VW55x_standard_peripheral/Source/gd32vw55x_rcu.c ****     /* wait IRC16M stable */
 842:../Firmware/GD32VW55x_standard_peripheral/Source/gd32vw55x_rcu.c ****     case RCU_IRC16M:
 843:../Firmware/GD32VW55x_standard_peripheral/Source/gd32vw55x_rcu.c ****         while((RESET == osci_stat) && (IRC16M_STARTUP_TIMEOUT != stb_cnt)){
 844:../Firmware/GD32VW55x_standard_peripheral/Source/gd32vw55x_rcu.c ****             osci_stat = rcu_flag_get(RCU_FLAG_IRC16MSTB);
 1831              		.loc 1 844 25
 1832 0102 0545     		li	a0,1
 1833 0104 97000000 		call	rcu_flag_get
 1833      E7800000 
 1834 010c 2322A4FE 		sw	a0,-28(s0)
 845:../Firmware/GD32VW55x_standard_peripheral/Source/gd32vw55x_rcu.c ****             stb_cnt++;
 1835              		.loc 1 845 20
 1836 0110 8327C4FE 		lw	a5,-20(s0)
 1837 0114 8507     		addi	a5,a5,1
 1838 0116 2326F4FE 		sw	a5,-20(s0)
 1839              	.L62:
 843:../Firmware/GD32VW55x_standard_peripheral/Source/gd32vw55x_rcu.c ****             osci_stat = rcu_flag_get(RCU_FLAG_IRC16MSTB);
 1840              		.loc 1 843 14
 1841 011a 832744FE 		lw	a5,-28(s0)
 1842 011e 99E7     		bne	a5,zero,.L63
 843:../Firmware/GD32VW55x_standard_peripheral/Source/gd32vw55x_rcu.c ****             osci_stat = rcu_flag_get(RCU_FLAG_IRC16MSTB);
 1843              		.loc 1 843 36 discriminator 1
 1844 0120 0327C4FE 		lw	a4,-20(s0)
 1845 0124 93070050 		li	a5,1280
 1846 0128 E31DF7FC 		bne	a4,a5,.L64
 1847              	.L63:
 846:../Firmware/GD32VW55x_standard_peripheral/Source/gd32vw55x_rcu.c ****         }
 847:../Firmware/GD32VW55x_standard_peripheral/Source/gd32vw55x_rcu.c **** 
 848:../Firmware/GD32VW55x_standard_peripheral/Source/gd32vw55x_rcu.c ****         /* check whether flag is set */
 849:../Firmware/GD32VW55x_standard_peripheral/Source/gd32vw55x_rcu.c ****         if(RESET != rcu_flag_get(RCU_FLAG_IRC16MSTB)){
 1848              		.loc 1 849 21
 1849 012c 0545     		li	a0,1
 1850 012e 97000000 		call	rcu_flag_get
 1850      E7800000 
 1851 0136 AA87     		mv	a5,a0
 1852              		.loc 1 849 11
 1853 0138 CDC3     		beq	a5,zero,.L78
 850:../Firmware/GD32VW55x_standard_peripheral/Source/gd32vw55x_rcu.c ****             reval = SUCCESS;
 1854              		.loc 1 850 19
 1855 013a 8547     		li	a5,1
 1856 013c 2324F4FE 		sw	a5,-24(s0)
 851:../Firmware/GD32VW55x_standard_peripheral/Source/gd32vw55x_rcu.c ****         }
 852:../Firmware/GD32VW55x_standard_peripheral/Source/gd32vw55x_rcu.c ****         break;
 1857              		.loc 1 852 9
 1858 0140 69A8     		j	.L78
 1859              	.L68:
 853:../Firmware/GD32VW55x_standard_peripheral/Source/gd32vw55x_rcu.c ****     /* wait IRC32K stable */
 854:../Firmware/GD32VW55x_standard_peripheral/Source/gd32vw55x_rcu.c ****     case RCU_IRC32K:
 855:../Firmware/GD32VW55x_standard_peripheral/Source/gd32vw55x_rcu.c ****         while((RESET == osci_stat) && (OSC_STARTUP_TIMEOUT != stb_cnt)){
 856:../Firmware/GD32VW55x_standard_peripheral/Source/gd32vw55x_rcu.c ****             osci_stat = rcu_flag_get(RCU_FLAG_IRC32KSTB);
 1860              		.loc 1 856 25
 1861 0142 8967     		li	a5,8192
 1862 0144 138517D0 		addi	a0,a5,-767
 1863 0148 97000000 		call	rcu_flag_get
 1863      E7800000 
 1864 0150 2322A4FE 		sw	a0,-28(s0)
 857:../Firmware/GD32VW55x_standard_peripheral/Source/gd32vw55x_rcu.c ****             stb_cnt++;
 1865              		.loc 1 857 20
 1866 0154 8327C4FE 		lw	a5,-20(s0)
 1867 0158 8507     		addi	a5,a5,1
 1868 015a 2326F4FE 		sw	a5,-20(s0)
 1869              	.L66:
 855:../Firmware/GD32VW55x_standard_peripheral/Source/gd32vw55x_rcu.c ****             osci_stat = rcu_flag_get(RCU_FLAG_IRC32KSTB);
 1870              		.loc 1 855 14
 1871 015e 832744FE 		lw	a5,-28(s0)
 1872 0162 81EB     		bne	a5,zero,.L67
 855:../Firmware/GD32VW55x_standard_peripheral/Source/gd32vw55x_rcu.c ****             osci_stat = rcu_flag_get(RCU_FLAG_IRC32KSTB);
 1873              		.loc 1 855 36 discriminator 1
 1874 0164 0327C4FE 		lw	a4,-20(s0)
 1875 0168 B7071000 		li	a5,1048576
 1876 016c FD17     		addi	a5,a5,-1
 1877 016e E31AF7FC 		bne	a4,a5,.L68
 1878              	.L67:
 858:../Firmware/GD32VW55x_standard_peripheral/Source/gd32vw55x_rcu.c ****         }
 859:../Firmware/GD32VW55x_standard_peripheral/Source/gd32vw55x_rcu.c **** 
 860:../Firmware/GD32VW55x_standard_peripheral/Source/gd32vw55x_rcu.c ****         /* check whether flag is set */
 861:../Firmware/GD32VW55x_standard_peripheral/Source/gd32vw55x_rcu.c ****         if(RESET != rcu_flag_get(RCU_FLAG_IRC32KSTB)){
 1879              		.loc 1 861 21
 1880 0172 8967     		li	a5,8192
 1881 0174 138517D0 		addi	a0,a5,-767
 1882 0178 97000000 		call	rcu_flag_get
 1882      E7800000 
 1883 0180 AA87     		mv	a5,a0
 1884              		.loc 1 861 11
 1885 0182 B1CF     		beq	a5,zero,.L79
 862:../Firmware/GD32VW55x_standard_peripheral/Source/gd32vw55x_rcu.c ****             reval = SUCCESS;
 1886              		.loc 1 862 19
 1887 0184 8547     		li	a5,1
 1888 0186 2324F4FE 		sw	a5,-24(s0)
 863:../Firmware/GD32VW55x_standard_peripheral/Source/gd32vw55x_rcu.c ****         }
 864:../Firmware/GD32VW55x_standard_peripheral/Source/gd32vw55x_rcu.c ****         break;
 1889              		.loc 1 864 9
 1890 018a 91A8     		j	.L79
 1891              	.L72:
 865:../Firmware/GD32VW55x_standard_peripheral/Source/gd32vw55x_rcu.c ****     /* wait PLLDIG stable */
 866:../Firmware/GD32VW55x_standard_peripheral/Source/gd32vw55x_rcu.c ****     case RCU_PLLDIG_CK:
 867:../Firmware/GD32VW55x_standard_peripheral/Source/gd32vw55x_rcu.c ****         while((RESET == osci_stat) && (OSC_STARTUP_TIMEOUT != stb_cnt)){
 868:../Firmware/GD32VW55x_standard_peripheral/Source/gd32vw55x_rcu.c ****             osci_stat = rcu_flag_get(RCU_FLAG_PLLDIGSTB);
 1892              		.loc 1 868 25
 1893 018c 5D45     		li	a0,23
 1894 018e 97000000 		call	rcu_flag_get
 1894      E7800000 
 1895 0196 2322A4FE 		sw	a0,-28(s0)
 869:../Firmware/GD32VW55x_standard_peripheral/Source/gd32vw55x_rcu.c ****             stb_cnt++;
 1896              		.loc 1 869 20
 1897 019a 8327C4FE 		lw	a5,-20(s0)
 1898 019e 8507     		addi	a5,a5,1
 1899 01a0 2326F4FE 		sw	a5,-20(s0)
 1900              	.L70:
 867:../Firmware/GD32VW55x_standard_peripheral/Source/gd32vw55x_rcu.c ****             osci_stat = rcu_flag_get(RCU_FLAG_PLLDIGSTB);
 1901              		.loc 1 867 14
 1902 01a4 832744FE 		lw	a5,-28(s0)
 1903 01a8 81EB     		bne	a5,zero,.L71
 867:../Firmware/GD32VW55x_standard_peripheral/Source/gd32vw55x_rcu.c ****             osci_stat = rcu_flag_get(RCU_FLAG_PLLDIGSTB);
 1904              		.loc 1 867 36 discriminator 1
 1905 01aa 0327C4FE 		lw	a4,-20(s0)
 1906 01ae B7071000 		li	a5,1048576
 1907 01b2 FD17     		addi	a5,a5,-1
 1908 01b4 E31CF7FC 		bne	a4,a5,.L72
 1909              	.L71:
 870:../Firmware/GD32VW55x_standard_peripheral/Source/gd32vw55x_rcu.c ****         }
 871:../Firmware/GD32VW55x_standard_peripheral/Source/gd32vw55x_rcu.c **** 
 872:../Firmware/GD32VW55x_standard_peripheral/Source/gd32vw55x_rcu.c ****         /* check whether flag is set */
 873:../Firmware/GD32VW55x_standard_peripheral/Source/gd32vw55x_rcu.c ****         if(RESET != rcu_flag_get(RCU_FLAG_PLLDIGSTB)){
 1910              		.loc 1 873 21
 1911 01b8 5D45     		li	a0,23
 1912 01ba 97000000 		call	rcu_flag_get
 1912      E7800000 
 1913 01c2 AA87     		mv	a5,a0
 1914              		.loc 1 873 11
 1915 01c4 99CF     		beq	a5,zero,.L80
 874:../Firmware/GD32VW55x_standard_peripheral/Source/gd32vw55x_rcu.c ****             reval = SUCCESS;
 1916              		.loc 1 874 19
 1917 01c6 8547     		li	a5,1
 1918 01c8 2324F4FE 		sw	a5,-24(s0)
 875:../Firmware/GD32VW55x_standard_peripheral/Source/gd32vw55x_rcu.c ****         }
 876:../Firmware/GD32VW55x_standard_peripheral/Source/gd32vw55x_rcu.c ****         break;
 1919              		.loc 1 876 9
 1920 01cc 19A8     		j	.L80
 1921              	.L75:
 877:../Firmware/GD32VW55x_standard_peripheral/Source/gd32vw55x_rcu.c ****     default:
 878:../Firmware/GD32VW55x_standard_peripheral/Source/gd32vw55x_rcu.c ****         break;
 1922              		.loc 1 878 9
 1923 01ce 0100     		nop
 1924 01d0 11A8     		j	.L57
 1925              	.L76:
 828:../Firmware/GD32VW55x_standard_peripheral/Source/gd32vw55x_rcu.c ****     /* wait LXTAL stable */
 1926              		.loc 1 828 9
 1927 01d2 0100     		nop
 1928 01d4 01A8     		j	.L57
 1929              	.L77:
 840:../Firmware/GD32VW55x_standard_peripheral/Source/gd32vw55x_rcu.c ****     /* wait IRC16M stable */
 1930              		.loc 1 840 9
 1931 01d6 0100     		nop
 1932 01d8 31A0     		j	.L57
 1933              	.L78:
 852:../Firmware/GD32VW55x_standard_peripheral/Source/gd32vw55x_rcu.c ****     /* wait IRC32K stable */
 1934              		.loc 1 852 9
 1935 01da 0100     		nop
 1936 01dc 21A0     		j	.L57
 1937              	.L79:
 864:../Firmware/GD32VW55x_standard_peripheral/Source/gd32vw55x_rcu.c ****     /* wait PLLDIG stable */
 1938              		.loc 1 864 9
 1939 01de 0100     		nop
 1940 01e0 11A0     		j	.L57
 1941              	.L80:
 876:../Firmware/GD32VW55x_standard_peripheral/Source/gd32vw55x_rcu.c ****     default:
 1942              		.loc 1 876 9
 1943 01e2 0100     		nop
 1944              	.L57:
 879:../Firmware/GD32VW55x_standard_peripheral/Source/gd32vw55x_rcu.c ****     }
 880:../Firmware/GD32VW55x_standard_peripheral/Source/gd32vw55x_rcu.c **** 
 881:../Firmware/GD32VW55x_standard_peripheral/Source/gd32vw55x_rcu.c ****     /* return value */
 882:../Firmware/GD32VW55x_standard_peripheral/Source/gd32vw55x_rcu.c ****     return reval;
 1945              		.loc 1 882 12
 1946 01e4 832784FE 		lw	a5,-24(s0)
 883:../Firmware/GD32VW55x_standard_peripheral/Source/gd32vw55x_rcu.c **** }
 1947              		.loc 1 883 1
 1948 01e8 3E85     		mv	a0,a5
 1949 01ea B250     		lw	ra,44(sp)
 1950              		.cfi_restore 1
 1951 01ec 2254     		lw	s0,40(sp)
 1952              		.cfi_restore 8
 1953              		.cfi_def_cfa 2, 48
 1954 01ee 4561     		addi	sp,sp,48
 1955              		.cfi_def_cfa_offset 0
 1956 01f0 8280     		jr	ra
 1957              		.cfi_endproc
 1958              	.LFE385:
 1960              		.section	.text.rcu_osci_on,"ax",@progbits
 1961              		.align	1
 1962              		.globl	rcu_osci_on
 1964              	rcu_osci_on:
 1965              	.LFB386:
 884:../Firmware/GD32VW55x_standard_peripheral/Source/gd32vw55x_rcu.c **** 
 885:../Firmware/GD32VW55x_standard_peripheral/Source/gd32vw55x_rcu.c **** /*!
 886:../Firmware/GD32VW55x_standard_peripheral/Source/gd32vw55x_rcu.c ****     \brief      turn on the oscillator
 887:../Firmware/GD32VW55x_standard_peripheral/Source/gd32vw55x_rcu.c ****     \param[in]  osci: oscillator types, refer to rcu_osci_type_enum
 888:../Firmware/GD32VW55x_standard_peripheral/Source/gd32vw55x_rcu.c ****                 only one parameter can be selected which is shown as below:
 889:../Firmware/GD32VW55x_standard_peripheral/Source/gd32vw55x_rcu.c ****       \arg        RCU_HXTAL: HXTAL
 890:../Firmware/GD32VW55x_standard_peripheral/Source/gd32vw55x_rcu.c ****       \arg        RCU_LXTAL: LXTAL
 891:../Firmware/GD32VW55x_standard_peripheral/Source/gd32vw55x_rcu.c ****       \arg        RCU_IRC16M: IRC16M
 892:../Firmware/GD32VW55x_standard_peripheral/Source/gd32vw55x_rcu.c ****       \arg        RCU_IRC32K: IRC32K
 893:../Firmware/GD32VW55x_standard_peripheral/Source/gd32vw55x_rcu.c ****       \arg        RCU_PLLDIG_CK: PLLDIG
 894:../Firmware/GD32VW55x_standard_peripheral/Source/gd32vw55x_rcu.c ****     \param[out] none
 895:../Firmware/GD32VW55x_standard_peripheral/Source/gd32vw55x_rcu.c ****     \retval     none
 896:../Firmware/GD32VW55x_standard_peripheral/Source/gd32vw55x_rcu.c **** */
 897:../Firmware/GD32VW55x_standard_peripheral/Source/gd32vw55x_rcu.c **** void rcu_osci_on(rcu_osci_type_enum osci)
 898:../Firmware/GD32VW55x_standard_peripheral/Source/gd32vw55x_rcu.c **** {
 1966              		.loc 1 898 1
 1967              		.cfi_startproc
 1968 0000 0111     		addi	sp,sp,-32
 1969              		.cfi_def_cfa_offset 32
 1970 0002 22CE     		sw	s0,28(sp)
 1971              		.cfi_offset 8, -4
 1972 0004 0010     		addi	s0,sp,32
 1973              		.cfi_def_cfa 8, 0
 1974 0006 2326A4FE 		sw	a0,-20(s0)
 899:../Firmware/GD32VW55x_standard_peripheral/Source/gd32vw55x_rcu.c ****     RCU_REG_VAL(osci) |= BIT(RCU_BIT_POS(osci));
 1975              		.loc 1 899 23
 1976 000a 8327C4FE 		lw	a5,-20(s0)
 1977 000e 13D76700 		srli	a4,a5,6
 1978 0012 B7470240 		li	a5,1073889280
 1979 0016 93870780 		addi	a5,a5,-2048
 1980 001a BA97     		add	a5,a4,a5
 1981 001c 9843     		lw	a4,0(a5)
 1982              		.loc 1 899 26
 1983 001e 8327C4FE 		lw	a5,-20(s0)
 1984 0022 FD8B     		andi	a5,a5,31
 1985 0024 8546     		li	a3,1
 1986 0026 B397F600 		sll	a5,a3,a5
 1987              		.loc 1 899 23
 1988 002a 8326C4FE 		lw	a3,-20(s0)
 1989 002e 13D66600 		srli	a2,a3,6
 1990 0032 B7460240 		li	a3,1073889280
 1991 0036 93860680 		addi	a3,a3,-2048
 1992 003a B296     		add	a3,a2,a3
 1993 003c D98F     		or	a5,a4,a5
 1994 003e 9CC2     		sw	a5,0(a3)
 900:../Firmware/GD32VW55x_standard_peripheral/Source/gd32vw55x_rcu.c **** }
 1995              		.loc 1 900 1
 1996 0040 0100     		nop
 1997 0042 7244     		lw	s0,28(sp)
 1998              		.cfi_restore 8
 1999              		.cfi_def_cfa 2, 32
 2000 0044 0561     		addi	sp,sp,32
 2001              		.cfi_def_cfa_offset 0
 2002 0046 8280     		jr	ra
 2003              		.cfi_endproc
 2004              	.LFE386:
 2006              		.section	.text.rcu_osci_off,"ax",@progbits
 2007              		.align	1
 2008              		.globl	rcu_osci_off
 2010              	rcu_osci_off:
 2011              	.LFB387:
 901:../Firmware/GD32VW55x_standard_peripheral/Source/gd32vw55x_rcu.c **** 
 902:../Firmware/GD32VW55x_standard_peripheral/Source/gd32vw55x_rcu.c **** /*!
 903:../Firmware/GD32VW55x_standard_peripheral/Source/gd32vw55x_rcu.c ****     \brief      turn off the oscillator
 904:../Firmware/GD32VW55x_standard_peripheral/Source/gd32vw55x_rcu.c ****     \param[in]  osci: oscillator types, refer to rcu_osci_type_enum
 905:../Firmware/GD32VW55x_standard_peripheral/Source/gd32vw55x_rcu.c ****                 only one parameter can be selected which is shown as below:
 906:../Firmware/GD32VW55x_standard_peripheral/Source/gd32vw55x_rcu.c ****       \arg        RCU_HXTAL: HXTAL
 907:../Firmware/GD32VW55x_standard_peripheral/Source/gd32vw55x_rcu.c ****       \arg        RCU_LXTAL: LXTAL
 908:../Firmware/GD32VW55x_standard_peripheral/Source/gd32vw55x_rcu.c ****       \arg        RCU_IRC16M: IRC16M
 909:../Firmware/GD32VW55x_standard_peripheral/Source/gd32vw55x_rcu.c ****       \arg        RCU_IRC32K: IRC32K
 910:../Firmware/GD32VW55x_standard_peripheral/Source/gd32vw55x_rcu.c ****       \arg        RCU_PLLDIG_CK: PLLDIG
 911:../Firmware/GD32VW55x_standard_peripheral/Source/gd32vw55x_rcu.c ****     \param[out] none
 912:../Firmware/GD32VW55x_standard_peripheral/Source/gd32vw55x_rcu.c ****     \retval     none
 913:../Firmware/GD32VW55x_standard_peripheral/Source/gd32vw55x_rcu.c **** */
 914:../Firmware/GD32VW55x_standard_peripheral/Source/gd32vw55x_rcu.c **** void rcu_osci_off(rcu_osci_type_enum osci)
 915:../Firmware/GD32VW55x_standard_peripheral/Source/gd32vw55x_rcu.c **** {
 2012              		.loc 1 915 1
 2013              		.cfi_startproc
 2014 0000 0111     		addi	sp,sp,-32
 2015              		.cfi_def_cfa_offset 32
 2016 0002 22CE     		sw	s0,28(sp)
 2017              		.cfi_offset 8, -4
 2018 0004 0010     		addi	s0,sp,32
 2019              		.cfi_def_cfa 8, 0
 2020 0006 2326A4FE 		sw	a0,-20(s0)
 916:../Firmware/GD32VW55x_standard_peripheral/Source/gd32vw55x_rcu.c ****     RCU_REG_VAL(osci) &= ~BIT(RCU_BIT_POS(osci));
 2021              		.loc 1 916 23
 2022 000a 8327C4FE 		lw	a5,-20(s0)
 2023 000e 13D76700 		srli	a4,a5,6
 2024 0012 B7470240 		li	a5,1073889280
 2025 0016 93870780 		addi	a5,a5,-2048
 2026 001a BA97     		add	a5,a4,a5
 2027 001c 9843     		lw	a4,0(a5)
 2028              		.loc 1 916 27
 2029 001e 8327C4FE 		lw	a5,-20(s0)
 2030 0022 FD8B     		andi	a5,a5,31
 2031 0024 8546     		li	a3,1
 2032 0026 B397F600 		sll	a5,a3,a5
 2033              		.loc 1 916 26
 2034 002a 93C7F7FF 		not	a5,a5
 2035              		.loc 1 916 23
 2036 002e 8326C4FE 		lw	a3,-20(s0)
 2037 0032 13D66600 		srli	a2,a3,6
 2038 0036 B7460240 		li	a3,1073889280
 2039 003a 93860680 		addi	a3,a3,-2048
 2040 003e B296     		add	a3,a2,a3
 2041 0040 F98F     		and	a5,a4,a5
 2042 0042 9CC2     		sw	a5,0(a3)
 917:../Firmware/GD32VW55x_standard_peripheral/Source/gd32vw55x_rcu.c **** }
 2043              		.loc 1 917 1
 2044 0044 0100     		nop
 2045 0046 7244     		lw	s0,28(sp)
 2046              		.cfi_restore 8
 2047              		.cfi_def_cfa 2, 32
 2048 0048 0561     		addi	sp,sp,32
 2049              		.cfi_def_cfa_offset 0
 2050 004a 8280     		jr	ra
 2051              		.cfi_endproc
 2052              	.LFE387:
 2054              		.section	.text.rcu_osci_bypass_mode_enable,"ax",@progbits
 2055              		.align	1
 2056              		.globl	rcu_osci_bypass_mode_enable
 2058              	rcu_osci_bypass_mode_enable:
 2059              	.LFB388:
 918:../Firmware/GD32VW55x_standard_peripheral/Source/gd32vw55x_rcu.c **** 
 919:../Firmware/GD32VW55x_standard_peripheral/Source/gd32vw55x_rcu.c **** /*!
 920:../Firmware/GD32VW55x_standard_peripheral/Source/gd32vw55x_rcu.c ****     \brief      enable the oscillator bypass mode, HXTALEN or LXTALEN must be reset before it
 921:../Firmware/GD32VW55x_standard_peripheral/Source/gd32vw55x_rcu.c ****     \param[in]  osci: oscillator types, refer to rcu_osci_type_enum
 922:../Firmware/GD32VW55x_standard_peripheral/Source/gd32vw55x_rcu.c ****                 only one parameter can be selected which is shown as below:
 923:../Firmware/GD32VW55x_standard_peripheral/Source/gd32vw55x_rcu.c ****       \arg        RCU_HXTAL: high speed crystal oscillator(HXTAL)
 924:../Firmware/GD32VW55x_standard_peripheral/Source/gd32vw55x_rcu.c ****       \arg        RCU_LXTAL: low speed crystal oscillator(LXTAL)
 925:../Firmware/GD32VW55x_standard_peripheral/Source/gd32vw55x_rcu.c ****     \param[out] none
 926:../Firmware/GD32VW55x_standard_peripheral/Source/gd32vw55x_rcu.c ****     \retval     none
 927:../Firmware/GD32VW55x_standard_peripheral/Source/gd32vw55x_rcu.c **** */
 928:../Firmware/GD32VW55x_standard_peripheral/Source/gd32vw55x_rcu.c **** void rcu_osci_bypass_mode_enable(rcu_osci_type_enum osci)
 929:../Firmware/GD32VW55x_standard_peripheral/Source/gd32vw55x_rcu.c **** {
 2060              		.loc 1 929 1
 2061              		.cfi_startproc
 2062 0000 7971     		addi	sp,sp,-48
 2063              		.cfi_def_cfa_offset 48
 2064 0002 22D6     		sw	s0,44(sp)
 2065              		.cfi_offset 8, -4
 2066 0004 0018     		addi	s0,sp,48
 2067              		.cfi_def_cfa 8, 0
 2068 0006 232EA4FC 		sw	a0,-36(s0)
 930:../Firmware/GD32VW55x_standard_peripheral/Source/gd32vw55x_rcu.c ****     uint32_t reg;
 931:../Firmware/GD32VW55x_standard_peripheral/Source/gd32vw55x_rcu.c **** 
 932:../Firmware/GD32VW55x_standard_peripheral/Source/gd32vw55x_rcu.c ****     switch(osci){
 2069              		.loc 1 932 5
 2070 000a 0327C4FD 		lw	a4,-36(s0)
 2071 000e C147     		li	a5,16
 2072 0010 630AF700 		beq	a4,a5,.L84
 2073 0014 0327C4FD 		lw	a4,-36(s0)
 2074 0018 8967     		li	a5,8192
 2075 001a 938707C0 		addi	a5,a5,-1024
 2076 001e 6302F704 		beq	a4,a5,.L85
 933:../Firmware/GD32VW55x_standard_peripheral/Source/gd32vw55x_rcu.c ****     /* enable HXTAL to bypass mode */
 934:../Firmware/GD32VW55x_standard_peripheral/Source/gd32vw55x_rcu.c ****     case RCU_HXTAL:
 935:../Firmware/GD32VW55x_standard_peripheral/Source/gd32vw55x_rcu.c ****         reg = RCU_CTL;
 936:../Firmware/GD32VW55x_standard_peripheral/Source/gd32vw55x_rcu.c ****         RCU_CTL &= ~RCU_CTL_HXTALEN;
 937:../Firmware/GD32VW55x_standard_peripheral/Source/gd32vw55x_rcu.c ****         RCU_CTL = (reg | RCU_CTL_HXTALBPS);
 938:../Firmware/GD32VW55x_standard_peripheral/Source/gd32vw55x_rcu.c ****         break;
 939:../Firmware/GD32VW55x_standard_peripheral/Source/gd32vw55x_rcu.c ****     /* enable LXTAL to bypass mode */
 940:../Firmware/GD32VW55x_standard_peripheral/Source/gd32vw55x_rcu.c ****     case RCU_LXTAL:
 941:../Firmware/GD32VW55x_standard_peripheral/Source/gd32vw55x_rcu.c ****         reg = RCU_BDCTL;
 942:../Firmware/GD32VW55x_standard_peripheral/Source/gd32vw55x_rcu.c ****         RCU_BDCTL &= ~RCU_BDCTL_LXTALEN;
 943:../Firmware/GD32VW55x_standard_peripheral/Source/gd32vw55x_rcu.c ****         RCU_BDCTL = (reg | RCU_BDCTL_LXTALBPS);
 944:../Firmware/GD32VW55x_standard_peripheral/Source/gd32vw55x_rcu.c ****         break;
 945:../Firmware/GD32VW55x_standard_peripheral/Source/gd32vw55x_rcu.c ****     default:
 946:../Firmware/GD32VW55x_standard_peripheral/Source/gd32vw55x_rcu.c ****         break;
 2077              		.loc 1 946 9
 2078 0022 A5A8     		j	.L87
 2079              	.L84:
 935:../Firmware/GD32VW55x_standard_peripheral/Source/gd32vw55x_rcu.c ****         RCU_CTL &= ~RCU_CTL_HXTALEN;
 2080              		.loc 1 935 15
 2081 0024 B7470240 		li	a5,1073889280
 2082 0028 93870780 		addi	a5,a5,-2048
 935:../Firmware/GD32VW55x_standard_peripheral/Source/gd32vw55x_rcu.c ****         RCU_CTL &= ~RCU_CTL_HXTALEN;
 2083              		.loc 1 935 13
 2084 002c 9C43     		lw	a5,0(a5)
 2085 002e 2326F4FE 		sw	a5,-20(s0)
 936:../Firmware/GD32VW55x_standard_peripheral/Source/gd32vw55x_rcu.c ****         RCU_CTL = (reg | RCU_CTL_HXTALBPS);
 2086              		.loc 1 936 17
 2087 0032 B7470240 		li	a5,1073889280
 2088 0036 93870780 		addi	a5,a5,-2048
 2089 003a 9443     		lw	a3,0(a5)
 2090 003c B7470240 		li	a5,1073889280
 2091 0040 93870780 		addi	a5,a5,-2048
 2092 0044 4177     		li	a4,-65536
 2093 0046 7D17     		addi	a4,a4,-1
 2094 0048 758F     		and	a4,a3,a4
 2095 004a 98C3     		sw	a4,0(a5)
 937:../Firmware/GD32VW55x_standard_peripheral/Source/gd32vw55x_rcu.c ****         break;
 2096              		.loc 1 937 9
 2097 004c B7470240 		li	a5,1073889280
 2098 0050 93870780 		addi	a5,a5,-2048
 937:../Firmware/GD32VW55x_standard_peripheral/Source/gd32vw55x_rcu.c ****         break;
 2099              		.loc 1 937 24
 2100 0054 8326C4FE 		lw	a3,-20(s0)
 2101 0058 37070400 		li	a4,262144
 2102 005c 558F     		or	a4,a3,a4
 937:../Firmware/GD32VW55x_standard_peripheral/Source/gd32vw55x_rcu.c ****         break;
 2103              		.loc 1 937 17
 2104 005e 98C3     		sw	a4,0(a5)
 938:../Firmware/GD32VW55x_standard_peripheral/Source/gd32vw55x_rcu.c ****     /* enable LXTAL to bypass mode */
 2105              		.loc 1 938 9
 2106 0060 2DA8     		j	.L87
 2107              	.L85:
 941:../Firmware/GD32VW55x_standard_peripheral/Source/gd32vw55x_rcu.c ****         RCU_BDCTL &= ~RCU_BDCTL_LXTALEN;
 2108              		.loc 1 941 15
 2109 0062 B7470240 		li	a5,1073889280
 2110 0066 93870787 		addi	a5,a5,-1936
 941:../Firmware/GD32VW55x_standard_peripheral/Source/gd32vw55x_rcu.c ****         RCU_BDCTL &= ~RCU_BDCTL_LXTALEN;
 2111              		.loc 1 941 13
 2112 006a 9C43     		lw	a5,0(a5)
 2113 006c 2326F4FE 		sw	a5,-20(s0)
 942:../Firmware/GD32VW55x_standard_peripheral/Source/gd32vw55x_rcu.c ****         RCU_BDCTL = (reg | RCU_BDCTL_LXTALBPS);
 2114              		.loc 1 942 19
 2115 0070 B7470240 		li	a5,1073889280
 2116 0074 93870787 		addi	a5,a5,-1936
 2117 0078 9843     		lw	a4,0(a5)
 2118 007a B7470240 		li	a5,1073889280
 2119 007e 93870787 		addi	a5,a5,-1936
 2120 0082 799B     		andi	a4,a4,-2
 2121 0084 98C3     		sw	a4,0(a5)
 943:../Firmware/GD32VW55x_standard_peripheral/Source/gd32vw55x_rcu.c ****         break;
 2122              		.loc 1 943 9
 2123 0086 B7470240 		li	a5,1073889280
 2124 008a 93870787 		addi	a5,a5,-1936
 943:../Firmware/GD32VW55x_standard_peripheral/Source/gd32vw55x_rcu.c ****         break;
 2125              		.loc 1 943 26
 2126 008e 0327C4FE 		lw	a4,-20(s0)
 2127 0092 13674700 		ori	a4,a4,4
 943:../Firmware/GD32VW55x_standard_peripheral/Source/gd32vw55x_rcu.c ****         break;
 2128              		.loc 1 943 19
 2129 0096 98C3     		sw	a4,0(a5)
 944:../Firmware/GD32VW55x_standard_peripheral/Source/gd32vw55x_rcu.c ****     default:
 2130              		.loc 1 944 9
 2131 0098 0100     		nop
 2132              	.L87:
 947:../Firmware/GD32VW55x_standard_peripheral/Source/gd32vw55x_rcu.c ****     }
 948:../Firmware/GD32VW55x_standard_peripheral/Source/gd32vw55x_rcu.c **** }
 2133              		.loc 1 948 1
 2134 009a 0100     		nop
 2135 009c 3254     		lw	s0,44(sp)
 2136              		.cfi_restore 8
 2137              		.cfi_def_cfa 2, 48
 2138 009e 4561     		addi	sp,sp,48
 2139              		.cfi_def_cfa_offset 0
 2140 00a0 8280     		jr	ra
 2141              		.cfi_endproc
 2142              	.LFE388:
 2144              		.section	.text.rcu_osci_bypass_mode_disable,"ax",@progbits
 2145              		.align	1
 2146              		.globl	rcu_osci_bypass_mode_disable
 2148              	rcu_osci_bypass_mode_disable:
 2149              	.LFB389:
 949:../Firmware/GD32VW55x_standard_peripheral/Source/gd32vw55x_rcu.c **** 
 950:../Firmware/GD32VW55x_standard_peripheral/Source/gd32vw55x_rcu.c **** /*!
 951:../Firmware/GD32VW55x_standard_peripheral/Source/gd32vw55x_rcu.c ****     \brief      disable the oscillator bypass mode, HXTALEN or LXTALEN must be reset before it
 952:../Firmware/GD32VW55x_standard_peripheral/Source/gd32vw55x_rcu.c ****     \param[in]  osci: oscillator types, refer to rcu_osci_type_enum
 953:../Firmware/GD32VW55x_standard_peripheral/Source/gd32vw55x_rcu.c ****                 only one parameter can be selected which is shown as below:
 954:../Firmware/GD32VW55x_standard_peripheral/Source/gd32vw55x_rcu.c ****       \arg        RCU_HXTAL: high speed crystal oscillator(HXTAL)
 955:../Firmware/GD32VW55x_standard_peripheral/Source/gd32vw55x_rcu.c ****       \arg        RCU_LXTAL: low speed crystal oscillator(LXTAL)
 956:../Firmware/GD32VW55x_standard_peripheral/Source/gd32vw55x_rcu.c ****     \param[out] none
 957:../Firmware/GD32VW55x_standard_peripheral/Source/gd32vw55x_rcu.c ****     \retval     none
 958:../Firmware/GD32VW55x_standard_peripheral/Source/gd32vw55x_rcu.c **** */
 959:../Firmware/GD32VW55x_standard_peripheral/Source/gd32vw55x_rcu.c **** void rcu_osci_bypass_mode_disable(rcu_osci_type_enum osci)
 960:../Firmware/GD32VW55x_standard_peripheral/Source/gd32vw55x_rcu.c **** {
 2150              		.loc 1 960 1
 2151              		.cfi_startproc
 2152 0000 7971     		addi	sp,sp,-48
 2153              		.cfi_def_cfa_offset 48
 2154 0002 22D6     		sw	s0,44(sp)
 2155              		.cfi_offset 8, -4
 2156 0004 0018     		addi	s0,sp,48
 2157              		.cfi_def_cfa 8, 0
 2158 0006 232EA4FC 		sw	a0,-36(s0)
 961:../Firmware/GD32VW55x_standard_peripheral/Source/gd32vw55x_rcu.c ****     uint32_t reg;
 962:../Firmware/GD32VW55x_standard_peripheral/Source/gd32vw55x_rcu.c **** 
 963:../Firmware/GD32VW55x_standard_peripheral/Source/gd32vw55x_rcu.c ****     switch(osci){
 2159              		.loc 1 963 5
 2160 000a 0327C4FD 		lw	a4,-36(s0)
 2161 000e C147     		li	a5,16
 2162 0010 630AF700 		beq	a4,a5,.L89
 2163 0014 0327C4FD 		lw	a4,-36(s0)
 2164 0018 8967     		li	a5,8192
 2165 001a 938707C0 		addi	a5,a5,-1024
 2166 001e 6303F704 		beq	a4,a5,.L90
 964:../Firmware/GD32VW55x_standard_peripheral/Source/gd32vw55x_rcu.c ****     /* disable HXTAL to bypass mode */
 965:../Firmware/GD32VW55x_standard_peripheral/Source/gd32vw55x_rcu.c ****     case RCU_HXTAL:
 966:../Firmware/GD32VW55x_standard_peripheral/Source/gd32vw55x_rcu.c ****         reg = RCU_CTL;
 967:../Firmware/GD32VW55x_standard_peripheral/Source/gd32vw55x_rcu.c ****         RCU_CTL &= ~RCU_CTL_HXTALEN;
 968:../Firmware/GD32VW55x_standard_peripheral/Source/gd32vw55x_rcu.c ****         RCU_CTL = (reg & ~RCU_CTL_HXTALBPS);
 969:../Firmware/GD32VW55x_standard_peripheral/Source/gd32vw55x_rcu.c ****         break;
 970:../Firmware/GD32VW55x_standard_peripheral/Source/gd32vw55x_rcu.c ****     /* disable LXTAL to bypass mode */
 971:../Firmware/GD32VW55x_standard_peripheral/Source/gd32vw55x_rcu.c ****     case RCU_LXTAL:
 972:../Firmware/GD32VW55x_standard_peripheral/Source/gd32vw55x_rcu.c ****         reg = RCU_BDCTL;
 973:../Firmware/GD32VW55x_standard_peripheral/Source/gd32vw55x_rcu.c ****         RCU_BDCTL &= ~RCU_BDCTL_LXTALEN;
 974:../Firmware/GD32VW55x_standard_peripheral/Source/gd32vw55x_rcu.c ****         RCU_BDCTL = (reg & ~RCU_BDCTL_LXTALBPS);
 975:../Firmware/GD32VW55x_standard_peripheral/Source/gd32vw55x_rcu.c ****         break;
 976:../Firmware/GD32VW55x_standard_peripheral/Source/gd32vw55x_rcu.c ****     default:
 977:../Firmware/GD32VW55x_standard_peripheral/Source/gd32vw55x_rcu.c ****         break;
 2167              		.loc 1 977 9
 2168 0022 A5A8     		j	.L92
 2169              	.L89:
 966:../Firmware/GD32VW55x_standard_peripheral/Source/gd32vw55x_rcu.c ****         RCU_CTL &= ~RCU_CTL_HXTALEN;
 2170              		.loc 1 966 15
 2171 0024 B7470240 		li	a5,1073889280
 2172 0028 93870780 		addi	a5,a5,-2048
 966:../Firmware/GD32VW55x_standard_peripheral/Source/gd32vw55x_rcu.c ****         RCU_CTL &= ~RCU_CTL_HXTALEN;
 2173              		.loc 1 966 13
 2174 002c 9C43     		lw	a5,0(a5)
 2175 002e 2326F4FE 		sw	a5,-20(s0)
 967:../Firmware/GD32VW55x_standard_peripheral/Source/gd32vw55x_rcu.c ****         RCU_CTL = (reg & ~RCU_CTL_HXTALBPS);
 2176              		.loc 1 967 17
 2177 0032 B7470240 		li	a5,1073889280
 2178 0036 93870780 		addi	a5,a5,-2048
 2179 003a 9443     		lw	a3,0(a5)
 2180 003c B7470240 		li	a5,1073889280
 2181 0040 93870780 		addi	a5,a5,-2048
 2182 0044 4177     		li	a4,-65536
 2183 0046 7D17     		addi	a4,a4,-1
 2184 0048 758F     		and	a4,a3,a4
 2185 004a 98C3     		sw	a4,0(a5)
 968:../Firmware/GD32VW55x_standard_peripheral/Source/gd32vw55x_rcu.c ****         break;
 2186              		.loc 1 968 9
 2187 004c B7470240 		li	a5,1073889280
 2188 0050 93870780 		addi	a5,a5,-2048
 968:../Firmware/GD32VW55x_standard_peripheral/Source/gd32vw55x_rcu.c ****         break;
 2189              		.loc 1 968 24
 2190 0054 8326C4FE 		lw	a3,-20(s0)
 2191 0058 3707FCFF 		li	a4,-262144
 2192 005c 7D17     		addi	a4,a4,-1
 2193 005e 758F     		and	a4,a3,a4
 968:../Firmware/GD32VW55x_standard_peripheral/Source/gd32vw55x_rcu.c ****         break;
 2194              		.loc 1 968 17
 2195 0060 98C3     		sw	a4,0(a5)
 969:../Firmware/GD32VW55x_standard_peripheral/Source/gd32vw55x_rcu.c ****     /* disable LXTAL to bypass mode */
 2196              		.loc 1 969 9
 2197 0062 25A8     		j	.L92
 2198              	.L90:
 972:../Firmware/GD32VW55x_standard_peripheral/Source/gd32vw55x_rcu.c ****         RCU_BDCTL &= ~RCU_BDCTL_LXTALEN;
 2199              		.loc 1 972 15
 2200 0064 B7470240 		li	a5,1073889280
 2201 0068 93870787 		addi	a5,a5,-1936
 972:../Firmware/GD32VW55x_standard_peripheral/Source/gd32vw55x_rcu.c ****         RCU_BDCTL &= ~RCU_BDCTL_LXTALEN;
 2202              		.loc 1 972 13
 2203 006c 9C43     		lw	a5,0(a5)
 2204 006e 2326F4FE 		sw	a5,-20(s0)
 973:../Firmware/GD32VW55x_standard_peripheral/Source/gd32vw55x_rcu.c ****         RCU_BDCTL = (reg & ~RCU_BDCTL_LXTALBPS);
 2205              		.loc 1 973 19
 2206 0072 B7470240 		li	a5,1073889280
 2207 0076 93870787 		addi	a5,a5,-1936
 2208 007a 9843     		lw	a4,0(a5)
 2209 007c B7470240 		li	a5,1073889280
 2210 0080 93870787 		addi	a5,a5,-1936
 2211 0084 799B     		andi	a4,a4,-2
 2212 0086 98C3     		sw	a4,0(a5)
 974:../Firmware/GD32VW55x_standard_peripheral/Source/gd32vw55x_rcu.c ****         break;
 2213              		.loc 1 974 9
 2214 0088 B7470240 		li	a5,1073889280
 2215 008c 93870787 		addi	a5,a5,-1936
 974:../Firmware/GD32VW55x_standard_peripheral/Source/gd32vw55x_rcu.c ****         break;
 2216              		.loc 1 974 26
 2217 0090 0327C4FE 		lw	a4,-20(s0)
 2218 0094 6D9B     		andi	a4,a4,-5
 974:../Firmware/GD32VW55x_standard_peripheral/Source/gd32vw55x_rcu.c ****         break;
 2219              		.loc 1 974 19
 2220 0096 98C3     		sw	a4,0(a5)
 975:../Firmware/GD32VW55x_standard_peripheral/Source/gd32vw55x_rcu.c ****     default:
 2221              		.loc 1 975 9
 2222 0098 0100     		nop
 2223              	.L92:
 978:../Firmware/GD32VW55x_standard_peripheral/Source/gd32vw55x_rcu.c ****     }
 979:../Firmware/GD32VW55x_standard_peripheral/Source/gd32vw55x_rcu.c **** }
 2224              		.loc 1 979 1
 2225 009a 0100     		nop
 2226 009c 3254     		lw	s0,44(sp)
 2227              		.cfi_restore 8
 2228              		.cfi_def_cfa 2, 48
 2229 009e 4561     		addi	sp,sp,48
 2230              		.cfi_def_cfa_offset 0
 2231 00a0 8280     		jr	ra
 2232              		.cfi_endproc
 2233              	.LFE389:
 2235              		.section	.text.rcu_rf_hxtal_clock_monitor_enable,"ax",@progbits
 2236              		.align	1
 2237              		.globl	rcu_rf_hxtal_clock_monitor_enable
 2239              	rcu_rf_hxtal_clock_monitor_enable:
 2240              	.LFB390:
 980:../Firmware/GD32VW55x_standard_peripheral/Source/gd32vw55x_rcu.c **** 
 981:../Firmware/GD32VW55x_standard_peripheral/Source/gd32vw55x_rcu.c **** /*!
 982:../Firmware/GD32VW55x_standard_peripheral/Source/gd32vw55x_rcu.c ****     \brief      enable the RF HXTAL clock monitor
 983:../Firmware/GD32VW55x_standard_peripheral/Source/gd32vw55x_rcu.c ****     \param[in]  none
 984:../Firmware/GD32VW55x_standard_peripheral/Source/gd32vw55x_rcu.c ****     \param[out] none
 985:../Firmware/GD32VW55x_standard_peripheral/Source/gd32vw55x_rcu.c ****     \retval     none
 986:../Firmware/GD32VW55x_standard_peripheral/Source/gd32vw55x_rcu.c **** */
 987:../Firmware/GD32VW55x_standard_peripheral/Source/gd32vw55x_rcu.c **** void rcu_rf_hxtal_clock_monitor_enable(void)
 988:../Firmware/GD32VW55x_standard_peripheral/Source/gd32vw55x_rcu.c **** {
 2241              		.loc 1 988 1
 2242              		.cfi_startproc
 2243 0000 4111     		addi	sp,sp,-16
 2244              		.cfi_def_cfa_offset 16
 2245 0002 22C6     		sw	s0,12(sp)
 2246              		.cfi_offset 8, -4
 2247 0004 0008     		addi	s0,sp,16
 2248              		.cfi_def_cfa 8, 0
 989:../Firmware/GD32VW55x_standard_peripheral/Source/gd32vw55x_rcu.c ****     RCU_CTL |= RCU_CTL_RFCKMEN;
 2249              		.loc 1 989 13
 2250 0006 B7470240 		li	a5,1073889280
 2251 000a 93870780 		addi	a5,a5,-2048
 2252 000e 9443     		lw	a3,0(a5)
 2253 0010 B7470240 		li	a5,1073889280
 2254 0014 93870780 		addi	a5,a5,-2048
 2255 0018 37074000 		li	a4,4194304
 2256 001c 558F     		or	a4,a3,a4
 2257 001e 98C3     		sw	a4,0(a5)
 990:../Firmware/GD32VW55x_standard_peripheral/Source/gd32vw55x_rcu.c **** }
 2258              		.loc 1 990 1
 2259 0020 0100     		nop
 2260 0022 3244     		lw	s0,12(sp)
 2261              		.cfi_restore 8
 2262              		.cfi_def_cfa 2, 16
 2263 0024 4101     		addi	sp,sp,16
 2264              		.cfi_def_cfa_offset 0
 2265 0026 8280     		jr	ra
 2266              		.cfi_endproc
 2267              	.LFE390:
 2269              		.section	.text.rcu_rf_hxtal_clock_monitor_disable,"ax",@progbits
 2270              		.align	1
 2271              		.globl	rcu_rf_hxtal_clock_monitor_disable
 2273              	rcu_rf_hxtal_clock_monitor_disable:
 2274              	.LFB391:
 991:../Firmware/GD32VW55x_standard_peripheral/Source/gd32vw55x_rcu.c **** 
 992:../Firmware/GD32VW55x_standard_peripheral/Source/gd32vw55x_rcu.c **** /*!
 993:../Firmware/GD32VW55x_standard_peripheral/Source/gd32vw55x_rcu.c ****     \brief      disable the RF HXTAL clock monitor
 994:../Firmware/GD32VW55x_standard_peripheral/Source/gd32vw55x_rcu.c ****     \param[in]  none
 995:../Firmware/GD32VW55x_standard_peripheral/Source/gd32vw55x_rcu.c ****     \param[out] none
 996:../Firmware/GD32VW55x_standard_peripheral/Source/gd32vw55x_rcu.c ****     \retval     none
 997:../Firmware/GD32VW55x_standard_peripheral/Source/gd32vw55x_rcu.c **** */
 998:../Firmware/GD32VW55x_standard_peripheral/Source/gd32vw55x_rcu.c **** void rcu_rf_hxtal_clock_monitor_disable(void)
 999:../Firmware/GD32VW55x_standard_peripheral/Source/gd32vw55x_rcu.c **** {
 2275              		.loc 1 999 1
 2276              		.cfi_startproc
 2277 0000 4111     		addi	sp,sp,-16
 2278              		.cfi_def_cfa_offset 16
 2279 0002 22C6     		sw	s0,12(sp)
 2280              		.cfi_offset 8, -4
 2281 0004 0008     		addi	s0,sp,16
 2282              		.cfi_def_cfa 8, 0
1000:../Firmware/GD32VW55x_standard_peripheral/Source/gd32vw55x_rcu.c ****     RCU_CTL &= ~RCU_CTL_RFCKMEN;
 2283              		.loc 1 1000 13
 2284 0006 B7470240 		li	a5,1073889280
 2285 000a 93870780 		addi	a5,a5,-2048
 2286 000e 9443     		lw	a3,0(a5)
 2287 0010 B7470240 		li	a5,1073889280
 2288 0014 93870780 		addi	a5,a5,-2048
 2289 0018 3707C0FF 		li	a4,-4194304
 2290 001c 7D17     		addi	a4,a4,-1
 2291 001e 758F     		and	a4,a3,a4
 2292 0020 98C3     		sw	a4,0(a5)
1001:../Firmware/GD32VW55x_standard_peripheral/Source/gd32vw55x_rcu.c **** }
 2293              		.loc 1 1001 1
 2294 0022 0100     		nop
 2295 0024 3244     		lw	s0,12(sp)
 2296              		.cfi_restore 8
 2297              		.cfi_def_cfa 2, 16
 2298 0026 4101     		addi	sp,sp,16
 2299              		.cfi_def_cfa_offset 0
 2300 0028 8280     		jr	ra
 2301              		.cfi_endproc
 2302              	.LFE391:
 2304              		.section	.text.rcu_irc16m_adjust_value_set,"ax",@progbits
 2305              		.align	1
 2306              		.globl	rcu_irc16m_adjust_value_set
 2308              	rcu_irc16m_adjust_value_set:
 2309              	.LFB392:
1002:../Firmware/GD32VW55x_standard_peripheral/Source/gd32vw55x_rcu.c **** 
1003:../Firmware/GD32VW55x_standard_peripheral/Source/gd32vw55x_rcu.c **** /*!
1004:../Firmware/GD32VW55x_standard_peripheral/Source/gd32vw55x_rcu.c ****     \brief      set the IRC16M adjust value
1005:../Firmware/GD32VW55x_standard_peripheral/Source/gd32vw55x_rcu.c ****     \param[in]  irc16m_adjval: IRC16M adjust value, must be between 0 and 0x1F
1006:../Firmware/GD32VW55x_standard_peripheral/Source/gd32vw55x_rcu.c ****       \arg        0x00 - 0x1F
1007:../Firmware/GD32VW55x_standard_peripheral/Source/gd32vw55x_rcu.c ****     \param[out] none
1008:../Firmware/GD32VW55x_standard_peripheral/Source/gd32vw55x_rcu.c ****     \retval     none
1009:../Firmware/GD32VW55x_standard_peripheral/Source/gd32vw55x_rcu.c **** */
1010:../Firmware/GD32VW55x_standard_peripheral/Source/gd32vw55x_rcu.c **** void rcu_irc16m_adjust_value_set(uint32_t irc16m_adjval)
1011:../Firmware/GD32VW55x_standard_peripheral/Source/gd32vw55x_rcu.c **** {
 2310              		.loc 1 1011 1
 2311              		.cfi_startproc
 2312 0000 7971     		addi	sp,sp,-48
 2313              		.cfi_def_cfa_offset 48
 2314 0002 22D6     		sw	s0,44(sp)
 2315              		.cfi_offset 8, -4
 2316 0004 0018     		addi	s0,sp,48
 2317              		.cfi_def_cfa 8, 0
 2318 0006 232EA4FC 		sw	a0,-36(s0)
1012:../Firmware/GD32VW55x_standard_peripheral/Source/gd32vw55x_rcu.c ****     uint32_t reg;
1013:../Firmware/GD32VW55x_standard_peripheral/Source/gd32vw55x_rcu.c **** 
1014:../Firmware/GD32VW55x_standard_peripheral/Source/gd32vw55x_rcu.c ****     reg = RCU_CTL;
 2319              		.loc 1 1014 11
 2320 000a B7470240 		li	a5,1073889280
 2321 000e 93870780 		addi	a5,a5,-2048
 2322              		.loc 1 1014 9
 2323 0012 9C43     		lw	a5,0(a5)
 2324 0014 2326F4FE 		sw	a5,-20(s0)
1015:../Firmware/GD32VW55x_standard_peripheral/Source/gd32vw55x_rcu.c ****     /* reset the IRC16MADJ bits and set according to irc16m_adjval */
1016:../Firmware/GD32VW55x_standard_peripheral/Source/gd32vw55x_rcu.c ****     reg &= ~RCU_CTL_IRC16MADJ;
 2325              		.loc 1 1016 9
 2326 0018 8327C4FE 		lw	a5,-20(s0)
 2327 001c 93F777F0 		andi	a5,a5,-249
 2328 0020 2326F4FE 		sw	a5,-20(s0)
1017:../Firmware/GD32VW55x_standard_peripheral/Source/gd32vw55x_rcu.c ****     RCU_CTL = (reg | ((irc16m_adjval & RCU_IRC16M_ADJUST_MASK) << RCU_IRC16M_ADJUST_OFFSET));
 2329              		.loc 1 1017 64
 2330 0024 8327C4FD 		lw	a5,-36(s0)
 2331 0028 8E07     		slli	a5,a5,3
 2332 002a 93F6F70F 		andi	a3,a5,255
 2333              		.loc 1 1017 5
 2334 002e B7470240 		li	a5,1073889280
 2335 0032 93870780 		addi	a5,a5,-2048
 2336              		.loc 1 1017 20
 2337 0036 0327C4FE 		lw	a4,-20(s0)
 2338 003a 558F     		or	a4,a3,a4
 2339              		.loc 1 1017 13
 2340 003c 98C3     		sw	a4,0(a5)
1018:../Firmware/GD32VW55x_standard_peripheral/Source/gd32vw55x_rcu.c **** }
 2341              		.loc 1 1018 1
 2342 003e 0100     		nop
 2343 0040 3254     		lw	s0,44(sp)
 2344              		.cfi_restore 8
 2345              		.cfi_def_cfa 2, 48
 2346 0042 4561     		addi	sp,sp,48
 2347              		.cfi_def_cfa_offset 0
 2348 0044 8280     		jr	ra
 2349              		.cfi_endproc
 2350              	.LFE392:
 2352              		.section	.text.rcu_voltage_key_unlock,"ax",@progbits
 2353              		.align	1
 2354              		.globl	rcu_voltage_key_unlock
 2356              	rcu_voltage_key_unlock:
 2357              	.LFB393:
1019:../Firmware/GD32VW55x_standard_peripheral/Source/gd32vw55x_rcu.c **** 
1020:../Firmware/GD32VW55x_standard_peripheral/Source/gd32vw55x_rcu.c **** /*!
1021:../Firmware/GD32VW55x_standard_peripheral/Source/gd32vw55x_rcu.c ****     \brief      unlock the voltage key
1022:../Firmware/GD32VW55x_standard_peripheral/Source/gd32vw55x_rcu.c ****     \param[in]  none
1023:../Firmware/GD32VW55x_standard_peripheral/Source/gd32vw55x_rcu.c ****     \param[out] none
1024:../Firmware/GD32VW55x_standard_peripheral/Source/gd32vw55x_rcu.c ****     \retval     none
1025:../Firmware/GD32VW55x_standard_peripheral/Source/gd32vw55x_rcu.c **** */
1026:../Firmware/GD32VW55x_standard_peripheral/Source/gd32vw55x_rcu.c **** void rcu_voltage_key_unlock(void)
1027:../Firmware/GD32VW55x_standard_peripheral/Source/gd32vw55x_rcu.c **** {
 2358              		.loc 1 1027 1
 2359              		.cfi_startproc
 2360 0000 4111     		addi	sp,sp,-16
 2361              		.cfi_def_cfa_offset 16
 2362 0002 22C6     		sw	s0,12(sp)
 2363              		.cfi_offset 8, -4
 2364 0004 0008     		addi	s0,sp,16
 2365              		.cfi_def_cfa 8, 0
1028:../Firmware/GD32VW55x_standard_peripheral/Source/gd32vw55x_rcu.c ****     RCU_VKEY = RCU_VKEY_UNLOCK;
 2366              		.loc 1 1028 5
 2367 0006 B7470240 		li	a5,1073889280
 2368 000a 93870790 		addi	a5,a5,-1792
 2369              		.loc 1 1028 14
 2370 000e 37472B1A 		li	a4,439042048
 2371 0012 1307D7C4 		addi	a4,a4,-947
 2372 0016 98C3     		sw	a4,0(a5)
1029:../Firmware/GD32VW55x_standard_peripheral/Source/gd32vw55x_rcu.c **** }
 2373              		.loc 1 1029 1
 2374 0018 0100     		nop
 2375 001a 3244     		lw	s0,12(sp)
 2376              		.cfi_restore 8
 2377              		.cfi_def_cfa 2, 16
 2378 001c 4101     		addi	sp,sp,16
 2379              		.cfi_def_cfa_offset 0
 2380 001e 8280     		jr	ra
 2381              		.cfi_endproc
 2382              	.LFE393:
 2384              		.section	.text.rcu_deepsleep_voltage_set,"ax",@progbits
 2385              		.align	1
 2386              		.globl	rcu_deepsleep_voltage_set
 2388              	rcu_deepsleep_voltage_set:
 2389              	.LFB394:
1030:../Firmware/GD32VW55x_standard_peripheral/Source/gd32vw55x_rcu.c **** 
1031:../Firmware/GD32VW55x_standard_peripheral/Source/gd32vw55x_rcu.c **** /*!
1032:../Firmware/GD32VW55x_standard_peripheral/Source/gd32vw55x_rcu.c ****     \brief      deep-sleep mode voltage select
1033:../Firmware/GD32VW55x_standard_peripheral/Source/gd32vw55x_rcu.c ****     \param[in]  dsvol: deep sleep mode voltage
1034:../Firmware/GD32VW55x_standard_peripheral/Source/gd32vw55x_rcu.c ****                 only one parameter can be selected which is shown as below:
1035:../Firmware/GD32VW55x_standard_peripheral/Source/gd32vw55x_rcu.c ****       \arg        RCU_DEEPSLEEP_V_1_1: the core voltage is 1.1V
1036:../Firmware/GD32VW55x_standard_peripheral/Source/gd32vw55x_rcu.c ****       \arg        RCU_DEEPSLEEP_V_1_0: the core voltage is 1.0V
1037:../Firmware/GD32VW55x_standard_peripheral/Source/gd32vw55x_rcu.c ****       \arg        RCU_DEEPSLEEP_V_0_9: the core voltage is 0.9V
1038:../Firmware/GD32VW55x_standard_peripheral/Source/gd32vw55x_rcu.c ****     \param[out] none
1039:../Firmware/GD32VW55x_standard_peripheral/Source/gd32vw55x_rcu.c ****     \retval     none
1040:../Firmware/GD32VW55x_standard_peripheral/Source/gd32vw55x_rcu.c **** */
1041:../Firmware/GD32VW55x_standard_peripheral/Source/gd32vw55x_rcu.c **** void rcu_deepsleep_voltage_set(uint32_t dsvol)
1042:../Firmware/GD32VW55x_standard_peripheral/Source/gd32vw55x_rcu.c **** {
 2390              		.loc 1 1042 1
 2391              		.cfi_startproc
 2392 0000 0111     		addi	sp,sp,-32
 2393              		.cfi_def_cfa_offset 32
 2394 0002 22CE     		sw	s0,28(sp)
 2395              		.cfi_offset 8, -4
 2396 0004 0010     		addi	s0,sp,32
 2397              		.cfi_def_cfa 8, 0
 2398 0006 2326A4FE 		sw	a0,-20(s0)
1043:../Firmware/GD32VW55x_standard_peripheral/Source/gd32vw55x_rcu.c ****     dsvol &= RCU_DSV_DSLPVS;
 2399              		.loc 1 1043 11
 2400 000a 8327C4FE 		lw	a5,-20(s0)
 2401 000e 8D8B     		andi	a5,a5,3
 2402 0010 2326F4FE 		sw	a5,-20(s0)
1044:../Firmware/GD32VW55x_standard_peripheral/Source/gd32vw55x_rcu.c ****     RCU_DSV = dsvol;
 2403              		.loc 1 1044 5
 2404 0014 B7470240 		li	a5,1073889280
 2405 0018 93874793 		addi	a5,a5,-1740
 2406              		.loc 1 1044 13
 2407 001c 0327C4FE 		lw	a4,-20(s0)
 2408 0020 98C3     		sw	a4,0(a5)
1045:../Firmware/GD32VW55x_standard_peripheral/Source/gd32vw55x_rcu.c **** }
 2409              		.loc 1 1045 1
 2410 0022 0100     		nop
 2411 0024 7244     		lw	s0,28(sp)
 2412              		.cfi_restore 8
 2413              		.cfi_def_cfa 2, 32
 2414 0026 0561     		addi	sp,sp,32
 2415              		.cfi_def_cfa_offset 0
 2416 0028 8280     		jr	ra
 2417              		.cfi_endproc
 2418              	.LFE394:
 2420              		.section	.rodata
 2421              		.align	2
 2422              	.LC1:
 2423 0000 00       		.string	""
 2424 0001 00       		.string	""
 2425 0002 00       		.string	""
 2426 0003 00       		.string	""
 2427 0004 00       		.string	""
 2428 0005 00       		.string	""
 2429 0006 00       		.string	""
 2430 0007 00       		.string	""
 2431 0008 01020304 		.ascii	"\001\002\003\004\006\007\b\t"
 2431      06070809 
 2432              		.align	2
 2433              	.LC0:
 2434 0010 00B0710B 		.word	192000000
 2435 0014 001C4E0E 		.word	240000000
 2436 0018 00D01213 		.word	320000000
 2437 001c 00389C1C 		.word	480000000
 2438              		.section	.text.rcu_clock_freq_get,"ax",@progbits
 2439              		.align	1
 2440              		.globl	rcu_clock_freq_get
 2442              	rcu_clock_freq_get:
 2443              	.LFB395:
1046:../Firmware/GD32VW55x_standard_peripheral/Source/gd32vw55x_rcu.c **** 
1047:../Firmware/GD32VW55x_standard_peripheral/Source/gd32vw55x_rcu.c **** /*!
1048:../Firmware/GD32VW55x_standard_peripheral/Source/gd32vw55x_rcu.c ****     \brief      get the system clock, bus and peripheral clock frequency
1049:../Firmware/GD32VW55x_standard_peripheral/Source/gd32vw55x_rcu.c ****     \param[in]  clock: the clock frequency which to get
1050:../Firmware/GD32VW55x_standard_peripheral/Source/gd32vw55x_rcu.c ****                 only one parameter can be selected which is shown as below:
1051:../Firmware/GD32VW55x_standard_peripheral/Source/gd32vw55x_rcu.c ****       \arg        CK_SYS: system clock frequency
1052:../Firmware/GD32VW55x_standard_peripheral/Source/gd32vw55x_rcu.c ****       \arg        CK_AHB: AHB clock frequency
1053:../Firmware/GD32VW55x_standard_peripheral/Source/gd32vw55x_rcu.c ****       \arg        CK_APB1: APB1 clock frequency
1054:../Firmware/GD32VW55x_standard_peripheral/Source/gd32vw55x_rcu.c ****       \arg        CK_APB2: APB2 clock frequency
1055:../Firmware/GD32VW55x_standard_peripheral/Source/gd32vw55x_rcu.c ****       \arg        CK_USART0: USART0 clock frequency
1056:../Firmware/GD32VW55x_standard_peripheral/Source/gd32vw55x_rcu.c ****       \arg        CK_I2C0: I2C0 clock frequency
1057:../Firmware/GD32VW55x_standard_peripheral/Source/gd32vw55x_rcu.c ****     \param[out] none
1058:../Firmware/GD32VW55x_standard_peripheral/Source/gd32vw55x_rcu.c ****     \retval     clock frequency of system, AHB, APB1, APB2
1059:../Firmware/GD32VW55x_standard_peripheral/Source/gd32vw55x_rcu.c **** */
1060:../Firmware/GD32VW55x_standard_peripheral/Source/gd32vw55x_rcu.c **** uint32_t rcu_clock_freq_get(rcu_clock_freq_enum clock)
1061:../Firmware/GD32VW55x_standard_peripheral/Source/gd32vw55x_rcu.c **** {
 2444              		.loc 1 1061 1
 2445              		.cfi_startproc
 2446 0000 1971     		addi	sp,sp,-128
 2447              		.cfi_def_cfa_offset 128
 2448 0002 A2DE     		sw	s0,124(sp)
 2449              		.cfi_offset 8, -4
 2450 0004 0001     		addi	s0,sp,128
 2451              		.cfi_def_cfa 8, 0
 2452 0006 2326A4F8 		sw	a0,-116(s0)
1062:../Firmware/GD32VW55x_standard_peripheral/Source/gd32vw55x_rcu.c ****     uint32_t sws, ck_freq = 0U;
 2453              		.loc 1 1062 19
 2454 000a 232604FE 		sw	zero,-20(s0)
1063:../Firmware/GD32VW55x_standard_peripheral/Source/gd32vw55x_rcu.c ****     uint32_t cksys_freq, ahb_freq, apb1_freq, apb2_freq;
1064:../Firmware/GD32VW55x_standard_peripheral/Source/gd32vw55x_rcu.c ****     uint32_t usart0_freq = 0U,i2c0_freq = 0U;
 2455              		.loc 1 1064 14
 2456 000e 232204FE 		sw	zero,-28(s0)
 2457              		.loc 1 1064 31
 2458 0012 232004FE 		sw	zero,-32(s0)
1065:../Firmware/GD32VW55x_standard_peripheral/Source/gd32vw55x_rcu.c ****     uint32_t plldigpsc, idx, clk_exp;
1066:../Firmware/GD32VW55x_standard_peripheral/Source/gd32vw55x_rcu.c **** 
1067:../Firmware/GD32VW55x_standard_peripheral/Source/gd32vw55x_rcu.c ****     /* exponent of AHB, APB1 and APB2 clock divider */
1068:../Firmware/GD32VW55x_standard_peripheral/Source/gd32vw55x_rcu.c ****     const uint8_t ahb_exp[16] = {0, 0, 0, 0, 0, 0, 0, 0, 1, 2, 3, 4, 6, 7, 8, 9};
 2459              		.loc 1 1068 19
 2460 0016 97070000 		lla	a5,.LC1
 2460      93870700 
 2461 001e 9043     		lw	a2,0(a5)
 2462 0020 D443     		lw	a3,4(a5)
 2463 0022 9847     		lw	a4,8(a5)
 2464 0024 DC47     		lw	a5,12(a5)
 2465 0026 232AC4FA 		sw	a2,-76(s0)
 2466 002a 232CD4FA 		sw	a3,-72(s0)
 2467 002e 232EE4FA 		sw	a4,-68(s0)
 2468 0032 2320F4FC 		sw	a5,-64(s0)
1069:../Firmware/GD32VW55x_standard_peripheral/Source/gd32vw55x_rcu.c ****     const uint8_t apb1_exp[8] = {0, 0, 0, 0, 1, 2, 3, 4};
 2469              		.loc 1 1069 19
 2470 0036 232604FA 		sw	zero,-84(s0)
 2471 003a B7070304 		li	a5,67305472
 2472 003e 93871720 		addi	a5,a5,513
 2473 0042 2328F4FA 		sw	a5,-80(s0)
1070:../Firmware/GD32VW55x_standard_peripheral/Source/gd32vw55x_rcu.c ****     const uint8_t apb2_exp[8] = {0, 0, 0, 0, 1, 2, 3, 4};
 2474              		.loc 1 1070 19
 2475 0046 232204FA 		sw	zero,-92(s0)
 2476 004a B7070304 		li	a5,67305472
 2477 004e 93871720 		addi	a5,a5,513
 2478 0052 2324F4FA 		sw	a5,-88(s0)
1071:../Firmware/GD32VW55x_standard_peripheral/Source/gd32vw55x_rcu.c **** 
1072:../Firmware/GD32VW55x_standard_peripheral/Source/gd32vw55x_rcu.c ****     const uint32_t plldig_oclk[4] = {192000000,240000000,320000000,480000000};
 2479              		.loc 1 1072 20
 2480 0056 97070000 		lla	a5,.LC0
 2480      93870700 
 2481 005e 9043     		lw	a2,0(a5)
 2482 0060 D443     		lw	a3,4(a5)
 2483 0062 9847     		lw	a4,8(a5)
 2484 0064 DC47     		lw	a5,12(a5)
 2485 0066 232AC4F8 		sw	a2,-108(s0)
 2486 006a 232CD4F8 		sw	a3,-104(s0)
 2487 006e 232EE4F8 		sw	a4,-100(s0)
 2488 0072 2320F4FA 		sw	a5,-96(s0)
1073:../Firmware/GD32VW55x_standard_peripheral/Source/gd32vw55x_rcu.c **** 
1074:../Firmware/GD32VW55x_standard_peripheral/Source/gd32vw55x_rcu.c ****     sws = GET_BITS(RCU_CFG0, 2, 3);
 2489              		.loc 1 1074 11
 2490 0076 B7470240 		li	a5,1073889280
 2491 007a 93878780 		addi	a5,a5,-2040
 2492 007e 9C43     		lw	a5,0(a5)
 2493 0080 8983     		srli	a5,a5,2
 2494              		.loc 1 1074 9
 2495 0082 8D8B     		andi	a5,a5,3
 2496 0084 232EF4FC 		sw	a5,-36(s0)
1075:../Firmware/GD32VW55x_standard_peripheral/Source/gd32vw55x_rcu.c ****     switch(sws){
 2497              		.loc 1 1075 5
 2498 0088 0327C4FD 		lw	a4,-36(s0)
 2499 008c 8947     		li	a5,2
 2500 008e 630EF702 		beq	a4,a5,.L99
 2501 0092 0327C4FD 		lw	a4,-36(s0)
 2502 0096 8947     		li	a5,2
 2503 0098 63ECE706 		bgtu	a4,a5,.L100
 2504 009c 8327C4FD 		lw	a5,-36(s0)
 2505 00a0 99C7     		beq	a5,zero,.L101
 2506 00a2 0327C4FD 		lw	a4,-36(s0)
 2507 00a6 8547     		li	a5,1
 2508 00a8 630AF700 		beq	a4,a5,.L102
 2509 00ac 95A0     		j	.L100
 2510              	.L101:
1076:../Firmware/GD32VW55x_standard_peripheral/Source/gd32vw55x_rcu.c ****     /* IRC16M is selected as CK_SYS */
1077:../Firmware/GD32VW55x_standard_peripheral/Source/gd32vw55x_rcu.c ****     case SEL_IRC16M:
1078:../Firmware/GD32VW55x_standard_peripheral/Source/gd32vw55x_rcu.c ****         cksys_freq = IRC16M_VALUE;
 2511              		.loc 1 1078 20
 2512 00ae B727F400 		li	a5,15998976
 2513 00b2 93870740 		addi	a5,a5,1024
 2514 00b6 2324F4FE 		sw	a5,-24(s0)
1079:../Firmware/GD32VW55x_standard_peripheral/Source/gd32vw55x_rcu.c ****         break;
 2515              		.loc 1 1079 9
 2516 00ba 95A0     		j	.L103
 2517              	.L102:
1080:../Firmware/GD32VW55x_standard_peripheral/Source/gd32vw55x_rcu.c ****     /* HXTAL is selected as CK_SYS */
1081:../Firmware/GD32VW55x_standard_peripheral/Source/gd32vw55x_rcu.c ****     case SEL_HXTAL:
1082:../Firmware/GD32VW55x_standard_peripheral/Source/gd32vw55x_rcu.c ****         cksys_freq = HXTAL_VALUE;
 2518              		.loc 1 1082 20
 2519 00bc B7676202 		li	a5,40001536
 2520 00c0 938707A0 		addi	a5,a5,-1536
 2521 00c4 2324F4FE 		sw	a5,-24(s0)
1083:../Firmware/GD32VW55x_standard_peripheral/Source/gd32vw55x_rcu.c ****         break;
 2522              		.loc 1 1083 9
 2523 00c8 99A8     		j	.L103
 2524              	.L99:
1084:../Firmware/GD32VW55x_standard_peripheral/Source/gd32vw55x_rcu.c ****     /* PLLP is selected as CK_SYS */
1085:../Firmware/GD32VW55x_standard_peripheral/Source/gd32vw55x_rcu.c ****     case SEL_PLLDIG:
1086:../Firmware/GD32VW55x_standard_peripheral/Source/gd32vw55x_rcu.c ****         idx = GET_BITS(RCU_PLLDIGCFG0,24,25);
 2525              		.loc 1 1086 15
 2526 00ca B7470240 		li	a5,1073889280
 2527 00ce 93874788 		addi	a5,a5,-1916
 2528 00d2 9C43     		lw	a5,0(a5)
 2529 00d4 E183     		srli	a5,a5,24
 2530              		.loc 1 1086 13
 2531 00d6 8D8B     		andi	a5,a5,3
 2532 00d8 232CF4FC 		sw	a5,-40(s0)
1087:../Firmware/GD32VW55x_standard_peripheral/Source/gd32vw55x_rcu.c ****         plldigpsc = GET_BITS(RCU_PLLDIGCFG0,26U,31U)+1;
 2533              		.loc 1 1087 21
 2534 00dc B7470240 		li	a5,1073889280
 2535 00e0 93874788 		addi	a5,a5,-1916
 2536 00e4 9C43     		lw	a5,0(a5)
 2537 00e6 E983     		srli	a5,a5,26
 2538 00e8 93F7F703 		andi	a5,a5,63
 2539              		.loc 1 1087 19
 2540 00ec 8507     		addi	a5,a5,1
 2541 00ee 232AF4FC 		sw	a5,-44(s0)
1088:../Firmware/GD32VW55x_standard_peripheral/Source/gd32vw55x_rcu.c ****         cksys_freq = plldig_oclk[idx]/plldigpsc;
 2542              		.loc 1 1088 33
 2543 00f2 832784FD 		lw	a5,-40(s0)
 2544 00f6 8A07     		slli	a5,a5,2
 2545 00f8 130704FF 		addi	a4,s0,-16
 2546 00fc BA97     		add	a5,a4,a5
 2547 00fe 03A747FA 		lw	a4,-92(a5)
 2548              		.loc 1 1088 20
 2549 0102 832744FD 		lw	a5,-44(s0)
 2550 0106 B357F702 		divu	a5,a4,a5
 2551 010a 2324F4FE 		sw	a5,-24(s0)
1089:../Firmware/GD32VW55x_standard_peripheral/Source/gd32vw55x_rcu.c ****         break;
 2552              		.loc 1 1089 9
 2553 010e 01A8     		j	.L103
 2554              	.L100:
1090:../Firmware/GD32VW55x_standard_peripheral/Source/gd32vw55x_rcu.c ****     /* IRC16M is selected as CK_SYS */
1091:../Firmware/GD32VW55x_standard_peripheral/Source/gd32vw55x_rcu.c ****     default:
1092:../Firmware/GD32VW55x_standard_peripheral/Source/gd32vw55x_rcu.c ****         cksys_freq = IRC16M_VALUE;
 2555              		.loc 1 1092 20
 2556 0110 B727F400 		li	a5,15998976
 2557 0114 93870740 		addi	a5,a5,1024
 2558 0118 2324F4FE 		sw	a5,-24(s0)
1093:../Firmware/GD32VW55x_standard_peripheral/Source/gd32vw55x_rcu.c ****         break;
 2559              		.loc 1 1093 9
 2560 011c 0100     		nop
 2561              	.L103:
1094:../Firmware/GD32VW55x_standard_peripheral/Source/gd32vw55x_rcu.c ****     }
1095:../Firmware/GD32VW55x_standard_peripheral/Source/gd32vw55x_rcu.c ****     /* calculate AHB clock frequency */
1096:../Firmware/GD32VW55x_standard_peripheral/Source/gd32vw55x_rcu.c ****     idx = GET_BITS(RCU_CFG0, 4, 7);
 2562              		.loc 1 1096 11
 2563 011e B7470240 		li	a5,1073889280
 2564 0122 93878780 		addi	a5,a5,-2040
 2565 0126 9C43     		lw	a5,0(a5)
 2566 0128 9183     		srli	a5,a5,4
 2567              		.loc 1 1096 9
 2568 012a BD8B     		andi	a5,a5,15
 2569 012c 232CF4FC 		sw	a5,-40(s0)
1097:../Firmware/GD32VW55x_standard_peripheral/Source/gd32vw55x_rcu.c ****     clk_exp = ahb_exp[idx];
 2570              		.loc 1 1097 22
 2571 0130 832784FD 		lw	a5,-40(s0)
 2572 0134 130704FF 		addi	a4,s0,-16
 2573 0138 BA97     		add	a5,a4,a5
 2574 013a 83C747FC 		lbu	a5,-60(a5)
 2575              		.loc 1 1097 13
 2576 013e 2328F4FC 		sw	a5,-48(s0)
1098:../Firmware/GD32VW55x_standard_peripheral/Source/gd32vw55x_rcu.c ****     ahb_freq = cksys_freq >> clk_exp;
 2577              		.loc 1 1098 14
 2578 0142 832704FD 		lw	a5,-48(s0)
 2579 0146 032784FE 		lw	a4,-24(s0)
 2580 014a B357F700 		srl	a5,a4,a5
 2581 014e 2326F4FC 		sw	a5,-52(s0)
1099:../Firmware/GD32VW55x_standard_peripheral/Source/gd32vw55x_rcu.c **** 
1100:../Firmware/GD32VW55x_standard_peripheral/Source/gd32vw55x_rcu.c ****     /* calculate APB1 clock frequency */
1101:../Firmware/GD32VW55x_standard_peripheral/Source/gd32vw55x_rcu.c ****     idx = GET_BITS(RCU_CFG0, 10, 12);
 2582              		.loc 1 1101 11
 2583 0152 B7470240 		li	a5,1073889280
 2584 0156 93878780 		addi	a5,a5,-2040
 2585 015a 9C43     		lw	a5,0(a5)
 2586 015c A983     		srli	a5,a5,10
 2587              		.loc 1 1101 9
 2588 015e 9D8B     		andi	a5,a5,7
 2589 0160 232CF4FC 		sw	a5,-40(s0)
1102:../Firmware/GD32VW55x_standard_peripheral/Source/gd32vw55x_rcu.c ****     clk_exp = apb1_exp[idx];
 2590              		.loc 1 1102 23
 2591 0164 832784FD 		lw	a5,-40(s0)
 2592 0168 130704FF 		addi	a4,s0,-16
 2593 016c BA97     		add	a5,a4,a5
 2594 016e 83C7C7FB 		lbu	a5,-68(a5)
 2595              		.loc 1 1102 13
 2596 0172 2328F4FC 		sw	a5,-48(s0)
1103:../Firmware/GD32VW55x_standard_peripheral/Source/gd32vw55x_rcu.c ****     apb1_freq = ahb_freq >> clk_exp;
 2597              		.loc 1 1103 15
 2598 0176 832704FD 		lw	a5,-48(s0)
 2599 017a 0327C4FC 		lw	a4,-52(s0)
 2600 017e B357F700 		srl	a5,a4,a5
 2601 0182 2324F4FC 		sw	a5,-56(s0)
1104:../Firmware/GD32VW55x_standard_peripheral/Source/gd32vw55x_rcu.c **** 
1105:../Firmware/GD32VW55x_standard_peripheral/Source/gd32vw55x_rcu.c ****     /* calculate APB2 clock frequency */
1106:../Firmware/GD32VW55x_standard_peripheral/Source/gd32vw55x_rcu.c ****     idx = GET_BITS(RCU_CFG0, 13, 15);
 2602              		.loc 1 1106 11
 2603 0186 B7470240 		li	a5,1073889280
 2604 018a 93878780 		addi	a5,a5,-2040
 2605 018e 9C43     		lw	a5,0(a5)
 2606 0190 B583     		srli	a5,a5,13
 2607              		.loc 1 1106 9
 2608 0192 9D8B     		andi	a5,a5,7
 2609 0194 232CF4FC 		sw	a5,-40(s0)
1107:../Firmware/GD32VW55x_standard_peripheral/Source/gd32vw55x_rcu.c ****     clk_exp = apb2_exp[idx];
 2610              		.loc 1 1107 23
 2611 0198 832784FD 		lw	a5,-40(s0)
 2612 019c 130704FF 		addi	a4,s0,-16
 2613 01a0 BA97     		add	a5,a4,a5
 2614 01a2 83C747FB 		lbu	a5,-76(a5)
 2615              		.loc 1 1107 13
 2616 01a6 2328F4FC 		sw	a5,-48(s0)
1108:../Firmware/GD32VW55x_standard_peripheral/Source/gd32vw55x_rcu.c ****     apb2_freq = ahb_freq >> clk_exp;
 2617              		.loc 1 1108 15
 2618 01aa 832704FD 		lw	a5,-48(s0)
 2619 01ae 0327C4FC 		lw	a4,-52(s0)
 2620 01b2 B357F700 		srl	a5,a4,a5
 2621 01b6 2322F4FC 		sw	a5,-60(s0)
 2622 01ba 0327C4F8 		lw	a4,-116(s0)
 2623 01be 9547     		li	a5,5
 2624 01c0 63E2E714 		bgtu	a4,a5,.L121
 2625 01c4 8327C4F8 		lw	a5,-116(s0)
 2626 01c8 13972700 		slli	a4,a5,2
 2627 01cc 97070000 		lla	a5,.L106
 2627      93870700 
 2628 01d4 BA97     		add	a5,a4,a5
 2629 01d6 9843     		lw	a4,0(a5)
 2630 01d8 97070000 		lla	a5,.L106
 2630      93870700 
 2631 01e0 BA97     		add	a5,a4,a5
 2632 01e2 8287     		jr	a5
 2633              		.section	.rodata.rcu_clock_freq_get,"a",@progbits
 2634              		.align	2
 2635              		.align	2
 2636              	.L106:
 2637 0000 00000000 		.word	.L111-.L106
 2638 0004 00000000 		.word	.L110-.L106
 2639 0008 00000000 		.word	.L109-.L106
 2640 000c 00000000 		.word	.L108-.L106
 2641 0010 00000000 		.word	.L107-.L106
 2642 0014 00000000 		.word	.L105-.L106
 2643              		.section	.text.rcu_clock_freq_get
 2644              	.L111:
1109:../Firmware/GD32VW55x_standard_peripheral/Source/gd32vw55x_rcu.c **** 
1110:../Firmware/GD32VW55x_standard_peripheral/Source/gd32vw55x_rcu.c ****     /* return the clocks frequency */
1111:../Firmware/GD32VW55x_standard_peripheral/Source/gd32vw55x_rcu.c ****     switch(clock){
1112:../Firmware/GD32VW55x_standard_peripheral/Source/gd32vw55x_rcu.c ****     case CK_SYS:
1113:../Firmware/GD32VW55x_standard_peripheral/Source/gd32vw55x_rcu.c ****         ck_freq = cksys_freq;
 2645              		.loc 1 1113 17
 2646 01e4 832784FE 		lw	a5,-24(s0)
 2647 01e8 2326F4FE 		sw	a5,-20(s0)
1114:../Firmware/GD32VW55x_standard_peripheral/Source/gd32vw55x_rcu.c ****         break;
 2648              		.loc 1 1114 9
 2649 01ec 29AA     		j	.L112
 2650              	.L110:
1115:../Firmware/GD32VW55x_standard_peripheral/Source/gd32vw55x_rcu.c ****     case CK_AHB:
1116:../Firmware/GD32VW55x_standard_peripheral/Source/gd32vw55x_rcu.c ****         ck_freq = ahb_freq;
 2651              		.loc 1 1116 17
 2652 01ee 8327C4FC 		lw	a5,-52(s0)
 2653 01f2 2326F4FE 		sw	a5,-20(s0)
1117:../Firmware/GD32VW55x_standard_peripheral/Source/gd32vw55x_rcu.c ****         break;
 2654              		.loc 1 1117 9
 2655 01f6 01AA     		j	.L112
 2656              	.L109:
1118:../Firmware/GD32VW55x_standard_peripheral/Source/gd32vw55x_rcu.c ****     case CK_APB1:
1119:../Firmware/GD32VW55x_standard_peripheral/Source/gd32vw55x_rcu.c ****         ck_freq = apb1_freq;
 2657              		.loc 1 1119 17
 2658 01f8 832784FC 		lw	a5,-56(s0)
 2659 01fc 2326F4FE 		sw	a5,-20(s0)
1120:../Firmware/GD32VW55x_standard_peripheral/Source/gd32vw55x_rcu.c ****         break;
 2660              		.loc 1 1120 9
 2661 0200 19A2     		j	.L112
 2662              	.L108:
1121:../Firmware/GD32VW55x_standard_peripheral/Source/gd32vw55x_rcu.c ****     case CK_APB2:
1122:../Firmware/GD32VW55x_standard_peripheral/Source/gd32vw55x_rcu.c ****         ck_freq = apb2_freq;
 2663              		.loc 1 1122 17
 2664 0202 832744FC 		lw	a5,-60(s0)
 2665 0206 2326F4FE 		sw	a5,-20(s0)
1123:../Firmware/GD32VW55x_standard_peripheral/Source/gd32vw55x_rcu.c ****         break;
 2666              		.loc 1 1123 9
 2667 020a F5A8     		j	.L112
 2668              	.L107:
1124:../Firmware/GD32VW55x_standard_peripheral/Source/gd32vw55x_rcu.c ****     case CK_USART0:
1125:../Firmware/GD32VW55x_standard_peripheral/Source/gd32vw55x_rcu.c ****         /* calculate USART0 clock frequency */
1126:../Firmware/GD32VW55x_standard_peripheral/Source/gd32vw55x_rcu.c ****         if(RCU_USART0SRC_CKAPB1 == (RCU_CFG1 & RCU_CFG1_USART0SEL)){
 2669              		.loc 1 1126 37
 2670 020c B7470240 		li	a5,1073889280
 2671 0210 9387C788 		addi	a5,a5,-1908
 2672 0214 9843     		lw	a4,0(a5)
 2673              		.loc 1 1126 46
 2674 0216 B70700C0 		li	a5,-1073741824
 2675 021a F98F     		and	a5,a4,a5
 2676              		.loc 1 1126 11
 2677 021c 91E7     		bne	a5,zero,.L113
1127:../Firmware/GD32VW55x_standard_peripheral/Source/gd32vw55x_rcu.c ****             usart0_freq = apb1_freq;
 2678              		.loc 1 1127 25
 2679 021e 832784FC 		lw	a5,-56(s0)
 2680 0222 2322F4FE 		sw	a5,-28(s0)
 2681 0226 A5A0     		j	.L114
 2682              	.L113:
1128:../Firmware/GD32VW55x_standard_peripheral/Source/gd32vw55x_rcu.c ****         }else if(RCU_USART0SRC_CKSYS == (RCU_CFG1 & RCU_CFG1_USART0SEL)){
 2683              		.loc 1 1128 42
 2684 0228 B7470240 		li	a5,1073889280
 2685 022c 9387C788 		addi	a5,a5,-1908
 2686 0230 9843     		lw	a4,0(a5)
 2687              		.loc 1 1128 51
 2688 0232 B70700C0 		li	a5,-1073741824
 2689 0236 7D8F     		and	a4,a4,a5
 2690              		.loc 1 1128 17
 2691 0238 B7070040 		li	a5,1073741824
 2692 023c 6317F700 		bne	a4,a5,.L115
1129:../Firmware/GD32VW55x_standard_peripheral/Source/gd32vw55x_rcu.c ****             usart0_freq = cksys_freq;
 2693              		.loc 1 1129 25
 2694 0240 832784FE 		lw	a5,-24(s0)
 2695 0244 2322F4FE 		sw	a5,-28(s0)
 2696 0248 99A0     		j	.L114
 2697              	.L115:
1130:../Firmware/GD32VW55x_standard_peripheral/Source/gd32vw55x_rcu.c ****         }else if(RCU_USART0SRC_LXTAL == (RCU_CFG1 & RCU_CFG1_USART0SEL)){
 2698              		.loc 1 1130 42
 2699 024a B7470240 		li	a5,1073889280
 2700 024e 9387C788 		addi	a5,a5,-1908
 2701 0252 9843     		lw	a4,0(a5)
 2702              		.loc 1 1130 51
 2703 0254 B70700C0 		li	a5,-1073741824
 2704 0258 7D8F     		and	a4,a4,a5
 2705              		.loc 1 1130 17
 2706 025a B7070080 		li	a5,-2147483648
 2707 025e 6316F700 		bne	a4,a5,.L116
1131:../Firmware/GD32VW55x_standard_peripheral/Source/gd32vw55x_rcu.c ****             usart0_freq = LXTAL_VALUE;
 2708              		.loc 1 1131 25
 2709 0262 A167     		li	a5,32768
 2710 0264 2322F4FE 		sw	a5,-28(s0)
 2711 0268 1DA0     		j	.L114
 2712              	.L116:
1132:../Firmware/GD32VW55x_standard_peripheral/Source/gd32vw55x_rcu.c ****         }else if(RCU_USART0SRC_IRC16M == (RCU_CFG1 & RCU_CFG1_USART0SEL)){
 2713              		.loc 1 1132 43
 2714 026a B7470240 		li	a5,1073889280
 2715 026e 9387C788 		addi	a5,a5,-1908
 2716 0272 9843     		lw	a4,0(a5)
 2717              		.loc 1 1132 52
 2718 0274 B70700C0 		li	a5,-1073741824
 2719 0278 7D8F     		and	a4,a4,a5
 2720              		.loc 1 1132 17
 2721 027a B70700C0 		li	a5,-1073741824
 2722 027e 6318F700 		bne	a4,a5,.L114
1133:../Firmware/GD32VW55x_standard_peripheral/Source/gd32vw55x_rcu.c ****             usart0_freq = IRC16M_VALUE;
 2723              		.loc 1 1133 25
 2724 0282 B727F400 		li	a5,15998976
 2725 0286 93870740 		addi	a5,a5,1024
 2726 028a 2322F4FE 		sw	a5,-28(s0)
 2727              	.L114:
1134:../Firmware/GD32VW55x_standard_peripheral/Source/gd32vw55x_rcu.c ****         }else{
1135:../Firmware/GD32VW55x_standard_peripheral/Source/gd32vw55x_rcu.c ****         }
1136:../Firmware/GD32VW55x_standard_peripheral/Source/gd32vw55x_rcu.c ****         ck_freq = usart0_freq;
 2728              		.loc 1 1136 17
 2729 028e 832744FE 		lw	a5,-28(s0)
 2730 0292 2326F4FE 		sw	a5,-20(s0)
1137:../Firmware/GD32VW55x_standard_peripheral/Source/gd32vw55x_rcu.c ****         break;
 2731              		.loc 1 1137 9
 2732 0296 85A8     		j	.L112
 2733              	.L105:
1138:../Firmware/GD32VW55x_standard_peripheral/Source/gd32vw55x_rcu.c ****     case CK_I2C0:
1139:../Firmware/GD32VW55x_standard_peripheral/Source/gd32vw55x_rcu.c ****         /* calculate I2C0 clock frequency */
1140:../Firmware/GD32VW55x_standard_peripheral/Source/gd32vw55x_rcu.c ****         if(RCU_I2C0SRC_CKAPB1 == (RCU_CFG1 & RCU_CFG1_I2C0SEL)){
 2734              		.loc 1 1140 35
 2735 0298 B7470240 		li	a5,1073889280
 2736 029c 9387C788 		addi	a5,a5,-1908
 2737 02a0 9843     		lw	a4,0(a5)
 2738              		.loc 1 1140 44
 2739 02a2 B707000C 		li	a5,201326592
 2740 02a6 F98F     		and	a5,a4,a5
 2741              		.loc 1 1140 11
 2742 02a8 91E7     		bne	a5,zero,.L117
1141:../Firmware/GD32VW55x_standard_peripheral/Source/gd32vw55x_rcu.c ****             i2c0_freq = apb1_freq;
 2743              		.loc 1 1141 23
 2744 02aa 832784FC 		lw	a5,-56(s0)
 2745 02ae 2320F4FE 		sw	a5,-32(s0)
 2746 02b2 A1A0     		j	.L118
 2747              	.L117:
1142:../Firmware/GD32VW55x_standard_peripheral/Source/gd32vw55x_rcu.c ****         }else if(RCU_I2C0SRC_CKSYS == (RCU_CFG1 & RCU_CFG1_I2C0SEL)){
 2748              		.loc 1 1142 40
 2749 02b4 B7470240 		li	a5,1073889280
 2750 02b8 9387C788 		addi	a5,a5,-1908
 2751 02bc 9843     		lw	a4,0(a5)
 2752              		.loc 1 1142 49
 2753 02be B707000C 		li	a5,201326592
 2754 02c2 7D8F     		and	a4,a4,a5
 2755              		.loc 1 1142 17
 2756 02c4 B7070004 		li	a5,67108864
 2757 02c8 6317F700 		bne	a4,a5,.L119
1143:../Firmware/GD32VW55x_standard_peripheral/Source/gd32vw55x_rcu.c ****             i2c0_freq = cksys_freq;
 2758              		.loc 1 1143 23
 2759 02cc 832784FE 		lw	a5,-24(s0)
 2760 02d0 2320F4FE 		sw	a5,-32(s0)
 2761 02d4 1DA0     		j	.L118
 2762              	.L119:
1144:../Firmware/GD32VW55x_standard_peripheral/Source/gd32vw55x_rcu.c ****         }else if(RCU_I2C0SRC_IRC16M == (RCU_CFG1 & RCU_CFG1_I2C0SEL)){
 2763              		.loc 1 1144 41
 2764 02d6 B7470240 		li	a5,1073889280
 2765 02da 9387C788 		addi	a5,a5,-1908
 2766 02de 9843     		lw	a4,0(a5)
 2767              		.loc 1 1144 50
 2768 02e0 B707000C 		li	a5,201326592
 2769 02e4 7D8F     		and	a4,a4,a5
 2770              		.loc 1 1144 17
 2771 02e6 B7070008 		li	a5,134217728
 2772 02ea 6318F700 		bne	a4,a5,.L118
1145:../Firmware/GD32VW55x_standard_peripheral/Source/gd32vw55x_rcu.c ****             i2c0_freq = IRC16M_VALUE;
 2773              		.loc 1 1145 23
 2774 02ee B727F400 		li	a5,15998976
 2775 02f2 93870740 		addi	a5,a5,1024
 2776 02f6 2320F4FE 		sw	a5,-32(s0)
 2777              	.L118:
1146:../Firmware/GD32VW55x_standard_peripheral/Source/gd32vw55x_rcu.c ****         }else{
1147:../Firmware/GD32VW55x_standard_peripheral/Source/gd32vw55x_rcu.c ****         }
1148:../Firmware/GD32VW55x_standard_peripheral/Source/gd32vw55x_rcu.c ****         ck_freq = i2c0_freq;
 2778              		.loc 1 1148 17
 2779 02fa 832704FE 		lw	a5,-32(s0)
 2780 02fe 2326F4FE 		sw	a5,-20(s0)
1149:../Firmware/GD32VW55x_standard_peripheral/Source/gd32vw55x_rcu.c ****         break;
 2781              		.loc 1 1149 9
 2782 0302 11A0     		j	.L112
 2783              	.L121:
1150:../Firmware/GD32VW55x_standard_peripheral/Source/gd32vw55x_rcu.c ****     default:
1151:../Firmware/GD32VW55x_standard_peripheral/Source/gd32vw55x_rcu.c ****         break;
 2784              		.loc 1 1151 9
 2785 0304 0100     		nop
 2786              	.L112:
1152:../Firmware/GD32VW55x_standard_peripheral/Source/gd32vw55x_rcu.c ****     }
1153:../Firmware/GD32VW55x_standard_peripheral/Source/gd32vw55x_rcu.c ****     return ck_freq;
 2787              		.loc 1 1153 12
 2788 0306 8327C4FE 		lw	a5,-20(s0)
1154:../Firmware/GD32VW55x_standard_peripheral/Source/gd32vw55x_rcu.c **** }
 2789              		.loc 1 1154 1
 2790 030a 3E85     		mv	a0,a5
 2791 030c 7654     		lw	s0,124(sp)
 2792              		.cfi_restore 8
 2793              		.cfi_def_cfa 2, 128
 2794 030e 0961     		addi	sp,sp,128
 2795              		.cfi_def_cfa_offset 0
 2796 0310 8280     		jr	ra
 2797              		.cfi_endproc
 2798              	.LFE395:
 2800              		.text
 2801              	.Letext0:
 2802              		.file 2 "e:\\gd32\\gd32embeddedbuilder_v1.5.2.30854\\tools\\nuclei_riscv_newlibc_prebuilt_win32_20
 2803              		.file 3 "e:\\gd32\\gd32embeddedbuilder_v1.5.2.30854\\tools\\nuclei_riscv_newlibc_prebuilt_win32_20
 2804              		.file 4 "../Firmware/GD32VW55x_standard_peripheral/gd32vw55x.h"
 2805              		.file 5 "../Firmware/GD32VW55x_standard_peripheral/Include/gd32vw55x_rcu.h"
DEFINED SYMBOLS
                            *ABS*:0000000000000000 gd32vw55x_rcu.c
C:\Users\CYMR90~1\AppData\Local\Temp\ccx4ZXSQ.s:13     .text.rcu_deinit:0000000000000000 rcu_deinit
C:\Users\CYMR90~1\AppData\Local\Temp\ccx4ZXSQ.s:17     .text.rcu_deinit:0000000000000000 .L0 
C:\Users\CYMR90~1\AppData\Local\Temp\ccx4ZXSQ.s:18     .text.rcu_deinit:0000000000000000 .L0 
C:\Users\CYMR90~1\AppData\Local\Temp\ccx4ZXSQ.s:19     .text.rcu_deinit:0000000000000002 .L0 
C:\Users\CYMR90~1\AppData\Local\Temp\ccx4ZXSQ.s:22     .text.rcu_deinit:0000000000000006 .L0 
C:\Users\CYMR90~1\AppData\Local\Temp\ccx4ZXSQ.s:23     .text.rcu_deinit:0000000000000006 .L0 
C:\Users\CYMR90~1\AppData\Local\Temp\ccx4ZXSQ.s:25     .text.rcu_deinit:0000000000000008 .L0 
C:\Users\CYMR90~1\AppData\Local\Temp\ccx4ZXSQ.s:27     .text.rcu_deinit:0000000000000008 .L0 
C:\Users\CYMR90~1\AppData\Local\Temp\ccx4ZXSQ.s:35     .text.rcu_deinit:0000000000000020 .L0 
C:\Users\CYMR90~1\AppData\Local\Temp\ccx4ZXSQ.s:1719   .text.rcu_osci_stab_wait:0000000000000000 rcu_osci_stab_wait
C:\Users\CYMR90~1\AppData\Local\Temp\ccx4ZXSQ.s:38     .text.rcu_deinit:000000000000002a .L0 
C:\Users\CYMR90~1\AppData\Local\Temp\ccx4ZXSQ.s:46     .text.rcu_deinit:0000000000000040 .L0 
C:\Users\CYMR90~1\AppData\Local\Temp\ccx4ZXSQ.s:56     .text.rcu_deinit:000000000000005e .L0 
C:\Users\CYMR90~1\AppData\Local\Temp\ccx4ZXSQ.s:66     .text.rcu_deinit:000000000000007a .L0 
C:\Users\CYMR90~1\AppData\Local\Temp\ccx4ZXSQ.s:69     .text.rcu_deinit:0000000000000082 .L0 
C:\Users\CYMR90~1\AppData\Local\Temp\ccx4ZXSQ.s:71     .text.rcu_deinit:0000000000000086 .L0 
C:\Users\CYMR90~1\AppData\Local\Temp\ccx4ZXSQ.s:74     .text.rcu_deinit:000000000000008e .L0 
C:\Users\CYMR90~1\AppData\Local\Temp\ccx4ZXSQ.s:76     .text.rcu_deinit:0000000000000092 .L0 
C:\Users\CYMR90~1\AppData\Local\Temp\ccx4ZXSQ.s:79     .text.rcu_deinit:000000000000009a .L0 
C:\Users\CYMR90~1\AppData\Local\Temp\ccx4ZXSQ.s:81     .text.rcu_deinit:000000000000009e .L0 
C:\Users\CYMR90~1\AppData\Local\Temp\ccx4ZXSQ.s:84     .text.rcu_deinit:00000000000000a6 .L0 
C:\Users\CYMR90~1\AppData\Local\Temp\ccx4ZXSQ.s:86     .text.rcu_deinit:00000000000000aa .L0 
C:\Users\CYMR90~1\AppData\Local\Temp\ccx4ZXSQ.s:89     .text.rcu_deinit:00000000000000b2 .L0 
C:\Users\CYMR90~1\AppData\Local\Temp\ccx4ZXSQ.s:91     .text.rcu_deinit:00000000000000b6 .L0 
C:\Users\CYMR90~1\AppData\Local\Temp\ccx4ZXSQ.s:94     .text.rcu_deinit:00000000000000be .L0 
C:\Users\CYMR90~1\AppData\Local\Temp\ccx4ZXSQ.s:96     .text.rcu_deinit:00000000000000c2 .L0 
C:\Users\CYMR90~1\AppData\Local\Temp\ccx4ZXSQ.s:98     .text.rcu_deinit:00000000000000c6 .L0 
C:\Users\CYMR90~1\AppData\Local\Temp\ccx4ZXSQ.s:100    .text.rcu_deinit:00000000000000c8 .L0 
C:\Users\CYMR90~1\AppData\Local\Temp\ccx4ZXSQ.s:101    .text.rcu_deinit:00000000000000c8 .L0 
C:\Users\CYMR90~1\AppData\Local\Temp\ccx4ZXSQ.s:103    .text.rcu_deinit:00000000000000ca .L0 
C:\Users\CYMR90~1\AppData\Local\Temp\ccx4ZXSQ.s:105    .text.rcu_deinit:00000000000000cc .L0 
C:\Users\CYMR90~1\AppData\Local\Temp\ccx4ZXSQ.s:112    .text.rcu_irc16m_dfs_to_rf_enable:0000000000000000 rcu_irc16m_dfs_to_rf_enable
C:\Users\CYMR90~1\AppData\Local\Temp\ccx4ZXSQ.s:115    .text.rcu_irc16m_dfs_to_rf_enable:0000000000000000 .L0 
C:\Users\CYMR90~1\AppData\Local\Temp\ccx4ZXSQ.s:116    .text.rcu_irc16m_dfs_to_rf_enable:0000000000000000 .L0 
C:\Users\CYMR90~1\AppData\Local\Temp\ccx4ZXSQ.s:117    .text.rcu_irc16m_dfs_to_rf_enable:0000000000000002 .L0 
C:\Users\CYMR90~1\AppData\Local\Temp\ccx4ZXSQ.s:119    .text.rcu_irc16m_dfs_to_rf_enable:0000000000000004 .L0 
C:\Users\CYMR90~1\AppData\Local\Temp\ccx4ZXSQ.s:121    .text.rcu_irc16m_dfs_to_rf_enable:0000000000000006 .L0 
C:\Users\CYMR90~1\AppData\Local\Temp\ccx4ZXSQ.s:123    .text.rcu_irc16m_dfs_to_rf_enable:0000000000000006 .L0 
C:\Users\CYMR90~1\AppData\Local\Temp\ccx4ZXSQ.s:131    .text.rcu_irc16m_dfs_to_rf_enable:000000000000001e .L0 
C:\Users\CYMR90~1\AppData\Local\Temp\ccx4ZXSQ.s:133    .text.rcu_irc16m_dfs_to_rf_enable:0000000000000022 .L0 
C:\Users\CYMR90~1\AppData\Local\Temp\ccx4ZXSQ.s:134    .text.rcu_irc16m_dfs_to_rf_enable:0000000000000022 .L0 
C:\Users\CYMR90~1\AppData\Local\Temp\ccx4ZXSQ.s:136    .text.rcu_irc16m_dfs_to_rf_enable:0000000000000024 .L0 
C:\Users\CYMR90~1\AppData\Local\Temp\ccx4ZXSQ.s:138    .text.rcu_irc16m_dfs_to_rf_enable:0000000000000026 .L0 
C:\Users\CYMR90~1\AppData\Local\Temp\ccx4ZXSQ.s:145    .text.rcu_irc16m_dfs_to_rf_disable:0000000000000000 rcu_irc16m_dfs_to_rf_disable
C:\Users\CYMR90~1\AppData\Local\Temp\ccx4ZXSQ.s:148    .text.rcu_irc16m_dfs_to_rf_disable:0000000000000000 .L0 
C:\Users\CYMR90~1\AppData\Local\Temp\ccx4ZXSQ.s:149    .text.rcu_irc16m_dfs_to_rf_disable:0000000000000000 .L0 
C:\Users\CYMR90~1\AppData\Local\Temp\ccx4ZXSQ.s:150    .text.rcu_irc16m_dfs_to_rf_disable:0000000000000002 .L0 
C:\Users\CYMR90~1\AppData\Local\Temp\ccx4ZXSQ.s:152    .text.rcu_irc16m_dfs_to_rf_disable:0000000000000004 .L0 
C:\Users\CYMR90~1\AppData\Local\Temp\ccx4ZXSQ.s:154    .text.rcu_irc16m_dfs_to_rf_disable:0000000000000006 .L0 
C:\Users\CYMR90~1\AppData\Local\Temp\ccx4ZXSQ.s:156    .text.rcu_irc16m_dfs_to_rf_disable:0000000000000006 .L0 
C:\Users\CYMR90~1\AppData\Local\Temp\ccx4ZXSQ.s:164    .text.rcu_irc16m_dfs_to_rf_disable:000000000000001c .L0 
C:\Users\CYMR90~1\AppData\Local\Temp\ccx4ZXSQ.s:166    .text.rcu_irc16m_dfs_to_rf_disable:0000000000000020 .L0 
C:\Users\CYMR90~1\AppData\Local\Temp\ccx4ZXSQ.s:167    .text.rcu_irc16m_dfs_to_rf_disable:0000000000000020 .L0 
C:\Users\CYMR90~1\AppData\Local\Temp\ccx4ZXSQ.s:169    .text.rcu_irc16m_dfs_to_rf_disable:0000000000000022 .L0 
C:\Users\CYMR90~1\AppData\Local\Temp\ccx4ZXSQ.s:171    .text.rcu_irc16m_dfs_to_rf_disable:0000000000000024 .L0 
C:\Users\CYMR90~1\AppData\Local\Temp\ccx4ZXSQ.s:178    .text.rcu_periph_clock_enable:0000000000000000 rcu_periph_clock_enable
C:\Users\CYMR90~1\AppData\Local\Temp\ccx4ZXSQ.s:181    .text.rcu_periph_clock_enable:0000000000000000 .L0 
C:\Users\CYMR90~1\AppData\Local\Temp\ccx4ZXSQ.s:182    .text.rcu_periph_clock_enable:0000000000000000 .L0 
C:\Users\CYMR90~1\AppData\Local\Temp\ccx4ZXSQ.s:183    .text.rcu_periph_clock_enable:0000000000000002 .L0 
C:\Users\CYMR90~1\AppData\Local\Temp\ccx4ZXSQ.s:185    .text.rcu_periph_clock_enable:0000000000000004 .L0 
C:\Users\CYMR90~1\AppData\Local\Temp\ccx4ZXSQ.s:187    .text.rcu_periph_clock_enable:0000000000000006 .L0 
C:\Users\CYMR90~1\AppData\Local\Temp\ccx4ZXSQ.s:190    .text.rcu_periph_clock_enable:000000000000000a .L0 
C:\Users\CYMR90~1\AppData\Local\Temp\ccx4ZXSQ.s:197    .text.rcu_periph_clock_enable:000000000000001e .L0 
C:\Users\CYMR90~1\AppData\Local\Temp\ccx4ZXSQ.s:202    .text.rcu_periph_clock_enable:000000000000002a .L0 
C:\Users\CYMR90~1\AppData\Local\Temp\ccx4ZXSQ.s:210    .text.rcu_periph_clock_enable:0000000000000040 .L0 
C:\Users\CYMR90~1\AppData\Local\Temp\ccx4ZXSQ.s:212    .text.rcu_periph_clock_enable:0000000000000044 .L0 
C:\Users\CYMR90~1\AppData\Local\Temp\ccx4ZXSQ.s:213    .text.rcu_periph_clock_enable:0000000000000044 .L0 
C:\Users\CYMR90~1\AppData\Local\Temp\ccx4ZXSQ.s:215    .text.rcu_periph_clock_enable:0000000000000046 .L0 
C:\Users\CYMR90~1\AppData\Local\Temp\ccx4ZXSQ.s:217    .text.rcu_periph_clock_enable:0000000000000048 .L0 
C:\Users\CYMR90~1\AppData\Local\Temp\ccx4ZXSQ.s:224    .text.rcu_periph_clock_disable:0000000000000000 rcu_periph_clock_disable
C:\Users\CYMR90~1\AppData\Local\Temp\ccx4ZXSQ.s:227    .text.rcu_periph_clock_disable:0000000000000000 .L0 
C:\Users\CYMR90~1\AppData\Local\Temp\ccx4ZXSQ.s:228    .text.rcu_periph_clock_disable:0000000000000000 .L0 
C:\Users\CYMR90~1\AppData\Local\Temp\ccx4ZXSQ.s:229    .text.rcu_periph_clock_disable:0000000000000002 .L0 
C:\Users\CYMR90~1\AppData\Local\Temp\ccx4ZXSQ.s:231    .text.rcu_periph_clock_disable:0000000000000004 .L0 
C:\Users\CYMR90~1\AppData\Local\Temp\ccx4ZXSQ.s:233    .text.rcu_periph_clock_disable:0000000000000006 .L0 
C:\Users\CYMR90~1\AppData\Local\Temp\ccx4ZXSQ.s:236    .text.rcu_periph_clock_disable:000000000000000a .L0 
C:\Users\CYMR90~1\AppData\Local\Temp\ccx4ZXSQ.s:243    .text.rcu_periph_clock_disable:000000000000001e .L0 
C:\Users\CYMR90~1\AppData\Local\Temp\ccx4ZXSQ.s:248    .text.rcu_periph_clock_disable:000000000000002a .L0 
C:\Users\CYMR90~1\AppData\Local\Temp\ccx4ZXSQ.s:250    .text.rcu_periph_clock_disable:000000000000002e .L0 
C:\Users\CYMR90~1\AppData\Local\Temp\ccx4ZXSQ.s:258    .text.rcu_periph_clock_disable:0000000000000044 .L0 
C:\Users\CYMR90~1\AppData\Local\Temp\ccx4ZXSQ.s:260    .text.rcu_periph_clock_disable:0000000000000048 .L0 
C:\Users\CYMR90~1\AppData\Local\Temp\ccx4ZXSQ.s:261    .text.rcu_periph_clock_disable:0000000000000048 .L0 
C:\Users\CYMR90~1\AppData\Local\Temp\ccx4ZXSQ.s:263    .text.rcu_periph_clock_disable:000000000000004a .L0 
C:\Users\CYMR90~1\AppData\Local\Temp\ccx4ZXSQ.s:265    .text.rcu_periph_clock_disable:000000000000004c .L0 
C:\Users\CYMR90~1\AppData\Local\Temp\ccx4ZXSQ.s:272    .text.rcu_fmc_clock_sleep_enable:0000000000000000 rcu_fmc_clock_sleep_enable
C:\Users\CYMR90~1\AppData\Local\Temp\ccx4ZXSQ.s:275    .text.rcu_fmc_clock_sleep_enable:0000000000000000 .L0 
C:\Users\CYMR90~1\AppData\Local\Temp\ccx4ZXSQ.s:276    .text.rcu_fmc_clock_sleep_enable:0000000000000000 .L0 
C:\Users\CYMR90~1\AppData\Local\Temp\ccx4ZXSQ.s:277    .text.rcu_fmc_clock_sleep_enable:0000000000000002 .L0 
C:\Users\CYMR90~1\AppData\Local\Temp\ccx4ZXSQ.s:279    .text.rcu_fmc_clock_sleep_enable:0000000000000004 .L0 
C:\Users\CYMR90~1\AppData\Local\Temp\ccx4ZXSQ.s:281    .text.rcu_fmc_clock_sleep_enable:0000000000000006 .L0 
C:\Users\CYMR90~1\AppData\Local\Temp\ccx4ZXSQ.s:283    .text.rcu_fmc_clock_sleep_enable:0000000000000006 .L0 
C:\Users\CYMR90~1\AppData\Local\Temp\ccx4ZXSQ.s:292    .text.rcu_fmc_clock_sleep_enable:000000000000001e .L0 
C:\Users\CYMR90~1\AppData\Local\Temp\ccx4ZXSQ.s:294    .text.rcu_fmc_clock_sleep_enable:0000000000000022 .L0 
C:\Users\CYMR90~1\AppData\Local\Temp\ccx4ZXSQ.s:295    .text.rcu_fmc_clock_sleep_enable:0000000000000022 .L0 
C:\Users\CYMR90~1\AppData\Local\Temp\ccx4ZXSQ.s:297    .text.rcu_fmc_clock_sleep_enable:0000000000000024 .L0 
C:\Users\CYMR90~1\AppData\Local\Temp\ccx4ZXSQ.s:299    .text.rcu_fmc_clock_sleep_enable:0000000000000026 .L0 
C:\Users\CYMR90~1\AppData\Local\Temp\ccx4ZXSQ.s:306    .text.rcu_fmc_clock_sleep_disable:0000000000000000 rcu_fmc_clock_sleep_disable
C:\Users\CYMR90~1\AppData\Local\Temp\ccx4ZXSQ.s:309    .text.rcu_fmc_clock_sleep_disable:0000000000000000 .L0 
C:\Users\CYMR90~1\AppData\Local\Temp\ccx4ZXSQ.s:310    .text.rcu_fmc_clock_sleep_disable:0000000000000000 .L0 
C:\Users\CYMR90~1\AppData\Local\Temp\ccx4ZXSQ.s:311    .text.rcu_fmc_clock_sleep_disable:0000000000000002 .L0 
C:\Users\CYMR90~1\AppData\Local\Temp\ccx4ZXSQ.s:313    .text.rcu_fmc_clock_sleep_disable:0000000000000004 .L0 
C:\Users\CYMR90~1\AppData\Local\Temp\ccx4ZXSQ.s:315    .text.rcu_fmc_clock_sleep_disable:0000000000000006 .L0 
C:\Users\CYMR90~1\AppData\Local\Temp\ccx4ZXSQ.s:317    .text.rcu_fmc_clock_sleep_disable:0000000000000006 .L0 
C:\Users\CYMR90~1\AppData\Local\Temp\ccx4ZXSQ.s:327    .text.rcu_fmc_clock_sleep_disable:0000000000000020 .L0 
C:\Users\CYMR90~1\AppData\Local\Temp\ccx4ZXSQ.s:329    .text.rcu_fmc_clock_sleep_disable:0000000000000024 .L0 
C:\Users\CYMR90~1\AppData\Local\Temp\ccx4ZXSQ.s:330    .text.rcu_fmc_clock_sleep_disable:0000000000000024 .L0 
C:\Users\CYMR90~1\AppData\Local\Temp\ccx4ZXSQ.s:332    .text.rcu_fmc_clock_sleep_disable:0000000000000026 .L0 
C:\Users\CYMR90~1\AppData\Local\Temp\ccx4ZXSQ.s:334    .text.rcu_fmc_clock_sleep_disable:0000000000000028 .L0 
C:\Users\CYMR90~1\AppData\Local\Temp\ccx4ZXSQ.s:341    .text.rcu_periph_reset_enable:0000000000000000 rcu_periph_reset_enable
C:\Users\CYMR90~1\AppData\Local\Temp\ccx4ZXSQ.s:344    .text.rcu_periph_reset_enable:0000000000000000 .L0 
C:\Users\CYMR90~1\AppData\Local\Temp\ccx4ZXSQ.s:345    .text.rcu_periph_reset_enable:0000000000000000 .L0 
C:\Users\CYMR90~1\AppData\Local\Temp\ccx4ZXSQ.s:346    .text.rcu_periph_reset_enable:0000000000000002 .L0 
C:\Users\CYMR90~1\AppData\Local\Temp\ccx4ZXSQ.s:348    .text.rcu_periph_reset_enable:0000000000000004 .L0 
C:\Users\CYMR90~1\AppData\Local\Temp\ccx4ZXSQ.s:350    .text.rcu_periph_reset_enable:0000000000000006 .L0 
C:\Users\CYMR90~1\AppData\Local\Temp\ccx4ZXSQ.s:353    .text.rcu_periph_reset_enable:000000000000000a .L0 
C:\Users\CYMR90~1\AppData\Local\Temp\ccx4ZXSQ.s:360    .text.rcu_periph_reset_enable:000000000000001e .L0 
C:\Users\CYMR90~1\AppData\Local\Temp\ccx4ZXSQ.s:365    .text.rcu_periph_reset_enable:000000000000002a .L0 
C:\Users\CYMR90~1\AppData\Local\Temp\ccx4ZXSQ.s:373    .text.rcu_periph_reset_enable:0000000000000040 .L0 
C:\Users\CYMR90~1\AppData\Local\Temp\ccx4ZXSQ.s:375    .text.rcu_periph_reset_enable:0000000000000044 .L0 
C:\Users\CYMR90~1\AppData\Local\Temp\ccx4ZXSQ.s:376    .text.rcu_periph_reset_enable:0000000000000044 .L0 
C:\Users\CYMR90~1\AppData\Local\Temp\ccx4ZXSQ.s:378    .text.rcu_periph_reset_enable:0000000000000046 .L0 
C:\Users\CYMR90~1\AppData\Local\Temp\ccx4ZXSQ.s:380    .text.rcu_periph_reset_enable:0000000000000048 .L0 
C:\Users\CYMR90~1\AppData\Local\Temp\ccx4ZXSQ.s:387    .text.rcu_periph_reset_disable:0000000000000000 rcu_periph_reset_disable
C:\Users\CYMR90~1\AppData\Local\Temp\ccx4ZXSQ.s:390    .text.rcu_periph_reset_disable:0000000000000000 .L0 
C:\Users\CYMR90~1\AppData\Local\Temp\ccx4ZXSQ.s:391    .text.rcu_periph_reset_disable:0000000000000000 .L0 
C:\Users\CYMR90~1\AppData\Local\Temp\ccx4ZXSQ.s:392    .text.rcu_periph_reset_disable:0000000000000002 .L0 
C:\Users\CYMR90~1\AppData\Local\Temp\ccx4ZXSQ.s:394    .text.rcu_periph_reset_disable:0000000000000004 .L0 
C:\Users\CYMR90~1\AppData\Local\Temp\ccx4ZXSQ.s:396    .text.rcu_periph_reset_disable:0000000000000006 .L0 
C:\Users\CYMR90~1\AppData\Local\Temp\ccx4ZXSQ.s:399    .text.rcu_periph_reset_disable:000000000000000a .L0 
C:\Users\CYMR90~1\AppData\Local\Temp\ccx4ZXSQ.s:406    .text.rcu_periph_reset_disable:000000000000001e .L0 
C:\Users\CYMR90~1\AppData\Local\Temp\ccx4ZXSQ.s:411    .text.rcu_periph_reset_disable:000000000000002a .L0 
C:\Users\CYMR90~1\AppData\Local\Temp\ccx4ZXSQ.s:413    .text.rcu_periph_reset_disable:000000000000002e .L0 
C:\Users\CYMR90~1\AppData\Local\Temp\ccx4ZXSQ.s:421    .text.rcu_periph_reset_disable:0000000000000044 .L0 
C:\Users\CYMR90~1\AppData\Local\Temp\ccx4ZXSQ.s:423    .text.rcu_periph_reset_disable:0000000000000048 .L0 
C:\Users\CYMR90~1\AppData\Local\Temp\ccx4ZXSQ.s:424    .text.rcu_periph_reset_disable:0000000000000048 .L0 
C:\Users\CYMR90~1\AppData\Local\Temp\ccx4ZXSQ.s:426    .text.rcu_periph_reset_disable:000000000000004a .L0 
C:\Users\CYMR90~1\AppData\Local\Temp\ccx4ZXSQ.s:428    .text.rcu_periph_reset_disable:000000000000004c .L0 
C:\Users\CYMR90~1\AppData\Local\Temp\ccx4ZXSQ.s:435    .text.rcu_bkp_reset_enable:0000000000000000 rcu_bkp_reset_enable
C:\Users\CYMR90~1\AppData\Local\Temp\ccx4ZXSQ.s:438    .text.rcu_bkp_reset_enable:0000000000000000 .L0 
C:\Users\CYMR90~1\AppData\Local\Temp\ccx4ZXSQ.s:439    .text.rcu_bkp_reset_enable:0000000000000000 .L0 
C:\Users\CYMR90~1\AppData\Local\Temp\ccx4ZXSQ.s:440    .text.rcu_bkp_reset_enable:0000000000000002 .L0 
C:\Users\CYMR90~1\AppData\Local\Temp\ccx4ZXSQ.s:442    .text.rcu_bkp_reset_enable:0000000000000004 .L0 
C:\Users\CYMR90~1\AppData\Local\Temp\ccx4ZXSQ.s:444    .text.rcu_bkp_reset_enable:0000000000000006 .L0 
C:\Users\CYMR90~1\AppData\Local\Temp\ccx4ZXSQ.s:446    .text.rcu_bkp_reset_enable:0000000000000006 .L0 
C:\Users\CYMR90~1\AppData\Local\Temp\ccx4ZXSQ.s:455    .text.rcu_bkp_reset_enable:000000000000001e .L0 
C:\Users\CYMR90~1\AppData\Local\Temp\ccx4ZXSQ.s:457    .text.rcu_bkp_reset_enable:0000000000000022 .L0 
C:\Users\CYMR90~1\AppData\Local\Temp\ccx4ZXSQ.s:458    .text.rcu_bkp_reset_enable:0000000000000022 .L0 
C:\Users\CYMR90~1\AppData\Local\Temp\ccx4ZXSQ.s:460    .text.rcu_bkp_reset_enable:0000000000000024 .L0 
C:\Users\CYMR90~1\AppData\Local\Temp\ccx4ZXSQ.s:462    .text.rcu_bkp_reset_enable:0000000000000026 .L0 
C:\Users\CYMR90~1\AppData\Local\Temp\ccx4ZXSQ.s:469    .text.rcu_bkp_reset_disable:0000000000000000 rcu_bkp_reset_disable
C:\Users\CYMR90~1\AppData\Local\Temp\ccx4ZXSQ.s:472    .text.rcu_bkp_reset_disable:0000000000000000 .L0 
C:\Users\CYMR90~1\AppData\Local\Temp\ccx4ZXSQ.s:473    .text.rcu_bkp_reset_disable:0000000000000000 .L0 
C:\Users\CYMR90~1\AppData\Local\Temp\ccx4ZXSQ.s:474    .text.rcu_bkp_reset_disable:0000000000000002 .L0 
C:\Users\CYMR90~1\AppData\Local\Temp\ccx4ZXSQ.s:476    .text.rcu_bkp_reset_disable:0000000000000004 .L0 
C:\Users\CYMR90~1\AppData\Local\Temp\ccx4ZXSQ.s:478    .text.rcu_bkp_reset_disable:0000000000000006 .L0 
C:\Users\CYMR90~1\AppData\Local\Temp\ccx4ZXSQ.s:480    .text.rcu_bkp_reset_disable:0000000000000006 .L0 
C:\Users\CYMR90~1\AppData\Local\Temp\ccx4ZXSQ.s:490    .text.rcu_bkp_reset_disable:0000000000000020 .L0 
C:\Users\CYMR90~1\AppData\Local\Temp\ccx4ZXSQ.s:492    .text.rcu_bkp_reset_disable:0000000000000024 .L0 
C:\Users\CYMR90~1\AppData\Local\Temp\ccx4ZXSQ.s:493    .text.rcu_bkp_reset_disable:0000000000000024 .L0 
C:\Users\CYMR90~1\AppData\Local\Temp\ccx4ZXSQ.s:495    .text.rcu_bkp_reset_disable:0000000000000026 .L0 
C:\Users\CYMR90~1\AppData\Local\Temp\ccx4ZXSQ.s:497    .text.rcu_bkp_reset_disable:0000000000000028 .L0 
C:\Users\CYMR90~1\AppData\Local\Temp\ccx4ZXSQ.s:504    .text.rcu_rfpll_cal_enable:0000000000000000 rcu_rfpll_cal_enable
C:\Users\CYMR90~1\AppData\Local\Temp\ccx4ZXSQ.s:507    .text.rcu_rfpll_cal_enable:0000000000000000 .L0 
C:\Users\CYMR90~1\AppData\Local\Temp\ccx4ZXSQ.s:508    .text.rcu_rfpll_cal_enable:0000000000000000 .L0 
C:\Users\CYMR90~1\AppData\Local\Temp\ccx4ZXSQ.s:509    .text.rcu_rfpll_cal_enable:0000000000000002 .L0 
C:\Users\CYMR90~1\AppData\Local\Temp\ccx4ZXSQ.s:511    .text.rcu_rfpll_cal_enable:0000000000000004 .L0 
C:\Users\CYMR90~1\AppData\Local\Temp\ccx4ZXSQ.s:513    .text.rcu_rfpll_cal_enable:0000000000000006 .L0 
C:\Users\CYMR90~1\AppData\Local\Temp\ccx4ZXSQ.s:515    .text.rcu_rfpll_cal_enable:0000000000000006 .L0 
C:\Users\CYMR90~1\AppData\Local\Temp\ccx4ZXSQ.s:524    .text.rcu_rfpll_cal_enable:000000000000001e .L0 
C:\Users\CYMR90~1\AppData\Local\Temp\ccx4ZXSQ.s:526    .text.rcu_rfpll_cal_enable:0000000000000022 .L0 
C:\Users\CYMR90~1\AppData\Local\Temp\ccx4ZXSQ.s:527    .text.rcu_rfpll_cal_enable:0000000000000022 .L0 
C:\Users\CYMR90~1\AppData\Local\Temp\ccx4ZXSQ.s:529    .text.rcu_rfpll_cal_enable:0000000000000024 .L0 
C:\Users\CYMR90~1\AppData\Local\Temp\ccx4ZXSQ.s:531    .text.rcu_rfpll_cal_enable:0000000000000026 .L0 
C:\Users\CYMR90~1\AppData\Local\Temp\ccx4ZXSQ.s:538    .text.rcu_rfpll_cal_disable:0000000000000000 rcu_rfpll_cal_disable
C:\Users\CYMR90~1\AppData\Local\Temp\ccx4ZXSQ.s:541    .text.rcu_rfpll_cal_disable:0000000000000000 .L0 
C:\Users\CYMR90~1\AppData\Local\Temp\ccx4ZXSQ.s:542    .text.rcu_rfpll_cal_disable:0000000000000000 .L0 
C:\Users\CYMR90~1\AppData\Local\Temp\ccx4ZXSQ.s:543    .text.rcu_rfpll_cal_disable:0000000000000002 .L0 
C:\Users\CYMR90~1\AppData\Local\Temp\ccx4ZXSQ.s:545    .text.rcu_rfpll_cal_disable:0000000000000004 .L0 
C:\Users\CYMR90~1\AppData\Local\Temp\ccx4ZXSQ.s:547    .text.rcu_rfpll_cal_disable:0000000000000006 .L0 
C:\Users\CYMR90~1\AppData\Local\Temp\ccx4ZXSQ.s:549    .text.rcu_rfpll_cal_disable:0000000000000006 .L0 
C:\Users\CYMR90~1\AppData\Local\Temp\ccx4ZXSQ.s:559    .text.rcu_rfpll_cal_disable:0000000000000020 .L0 
C:\Users\CYMR90~1\AppData\Local\Temp\ccx4ZXSQ.s:561    .text.rcu_rfpll_cal_disable:0000000000000024 .L0 
C:\Users\CYMR90~1\AppData\Local\Temp\ccx4ZXSQ.s:562    .text.rcu_rfpll_cal_disable:0000000000000024 .L0 
C:\Users\CYMR90~1\AppData\Local\Temp\ccx4ZXSQ.s:564    .text.rcu_rfpll_cal_disable:0000000000000026 .L0 
C:\Users\CYMR90~1\AppData\Local\Temp\ccx4ZXSQ.s:566    .text.rcu_rfpll_cal_disable:0000000000000028 .L0 
C:\Users\CYMR90~1\AppData\Local\Temp\ccx4ZXSQ.s:573    .text.rcu_control_unit_powerup:0000000000000000 rcu_control_unit_powerup
C:\Users\CYMR90~1\AppData\Local\Temp\ccx4ZXSQ.s:576    .text.rcu_control_unit_powerup:0000000000000000 .L0 
C:\Users\CYMR90~1\AppData\Local\Temp\ccx4ZXSQ.s:577    .text.rcu_control_unit_powerup:0000000000000000 .L0 
C:\Users\CYMR90~1\AppData\Local\Temp\ccx4ZXSQ.s:578    .text.rcu_control_unit_powerup:0000000000000002 .L0 
C:\Users\CYMR90~1\AppData\Local\Temp\ccx4ZXSQ.s:580    .text.rcu_control_unit_powerup:0000000000000004 .L0 
C:\Users\CYMR90~1\AppData\Local\Temp\ccx4ZXSQ.s:582    .text.rcu_control_unit_powerup:0000000000000006 .L0 
C:\Users\CYMR90~1\AppData\Local\Temp\ccx4ZXSQ.s:585    .text.rcu_control_unit_powerup:000000000000000a .L0 
C:\Users\CYMR90~1\AppData\Local\Temp\ccx4ZXSQ.s:592    .text.rcu_control_unit_powerup:000000000000001e .L0 
C:\Users\CYMR90~1\AppData\Local\Temp\ccx4ZXSQ.s:597    .text.rcu_control_unit_powerup:000000000000002a .L0 
C:\Users\CYMR90~1\AppData\Local\Temp\ccx4ZXSQ.s:605    .text.rcu_control_unit_powerup:0000000000000040 .L0 
C:\Users\CYMR90~1\AppData\Local\Temp\ccx4ZXSQ.s:607    .text.rcu_control_unit_powerup:0000000000000044 .L0 
C:\Users\CYMR90~1\AppData\Local\Temp\ccx4ZXSQ.s:608    .text.rcu_control_unit_powerup:0000000000000044 .L0 
C:\Users\CYMR90~1\AppData\Local\Temp\ccx4ZXSQ.s:610    .text.rcu_control_unit_powerup:0000000000000046 .L0 
C:\Users\CYMR90~1\AppData\Local\Temp\ccx4ZXSQ.s:612    .text.rcu_control_unit_powerup:0000000000000048 .L0 
C:\Users\CYMR90~1\AppData\Local\Temp\ccx4ZXSQ.s:619    .text.rcu_control_unit_powerdown:0000000000000000 rcu_control_unit_powerdown
C:\Users\CYMR90~1\AppData\Local\Temp\ccx4ZXSQ.s:622    .text.rcu_control_unit_powerdown:0000000000000000 .L0 
C:\Users\CYMR90~1\AppData\Local\Temp\ccx4ZXSQ.s:623    .text.rcu_control_unit_powerdown:0000000000000000 .L0 
C:\Users\CYMR90~1\AppData\Local\Temp\ccx4ZXSQ.s:624    .text.rcu_control_unit_powerdown:0000000000000002 .L0 
C:\Users\CYMR90~1\AppData\Local\Temp\ccx4ZXSQ.s:626    .text.rcu_control_unit_powerdown:0000000000000004 .L0 
C:\Users\CYMR90~1\AppData\Local\Temp\ccx4ZXSQ.s:628    .text.rcu_control_unit_powerdown:0000000000000006 .L0 
C:\Users\CYMR90~1\AppData\Local\Temp\ccx4ZXSQ.s:631    .text.rcu_control_unit_powerdown:000000000000000a .L0 
C:\Users\CYMR90~1\AppData\Local\Temp\ccx4ZXSQ.s:638    .text.rcu_control_unit_powerdown:000000000000001e .L0 
C:\Users\CYMR90~1\AppData\Local\Temp\ccx4ZXSQ.s:643    .text.rcu_control_unit_powerdown:000000000000002a .L0 
C:\Users\CYMR90~1\AppData\Local\Temp\ccx4ZXSQ.s:645    .text.rcu_control_unit_powerdown:000000000000002e .L0 
C:\Users\CYMR90~1\AppData\Local\Temp\ccx4ZXSQ.s:653    .text.rcu_control_unit_powerdown:0000000000000044 .L0 
C:\Users\CYMR90~1\AppData\Local\Temp\ccx4ZXSQ.s:655    .text.rcu_control_unit_powerdown:0000000000000048 .L0 
C:\Users\CYMR90~1\AppData\Local\Temp\ccx4ZXSQ.s:656    .text.rcu_control_unit_powerdown:0000000000000048 .L0 
C:\Users\CYMR90~1\AppData\Local\Temp\ccx4ZXSQ.s:658    .text.rcu_control_unit_powerdown:000000000000004a .L0 
C:\Users\CYMR90~1\AppData\Local\Temp\ccx4ZXSQ.s:660    .text.rcu_control_unit_powerdown:000000000000004c .L0 
C:\Users\CYMR90~1\AppData\Local\Temp\ccx4ZXSQ.s:667    .text.rcu_system_clock_source_config:0000000000000000 rcu_system_clock_source_config
C:\Users\CYMR90~1\AppData\Local\Temp\ccx4ZXSQ.s:670    .text.rcu_system_clock_source_config:0000000000000000 .L0 
C:\Users\CYMR90~1\AppData\Local\Temp\ccx4ZXSQ.s:671    .text.rcu_system_clock_source_config:0000000000000000 .L0 
C:\Users\CYMR90~1\AppData\Local\Temp\ccx4ZXSQ.s:672    .text.rcu_system_clock_source_config:0000000000000002 .L0 
C:\Users\CYMR90~1\AppData\Local\Temp\ccx4ZXSQ.s:674    .text.rcu_system_clock_source_config:0000000000000004 .L0 
C:\Users\CYMR90~1\AppData\Local\Temp\ccx4ZXSQ.s:676    .text.rcu_system_clock_source_config:0000000000000006 .L0 
C:\Users\CYMR90~1\AppData\Local\Temp\ccx4ZXSQ.s:679    .text.rcu_system_clock_source_config:000000000000000a .L0 
C:\Users\CYMR90~1\AppData\Local\Temp\ccx4ZXSQ.s:682    .text.rcu_system_clock_source_config:0000000000000012 .L0 
C:\Users\CYMR90~1\AppData\Local\Temp\ccx4ZXSQ.s:685    .text.rcu_system_clock_source_config:0000000000000018 .L0 
C:\Users\CYMR90~1\AppData\Local\Temp\ccx4ZXSQ.s:689    .text.rcu_system_clock_source_config:0000000000000022 .L0 
C:\Users\CYMR90~1\AppData\Local\Temp\ccx4ZXSQ.s:692    .text.rcu_system_clock_source_config:000000000000002a .L0 
C:\Users\CYMR90~1\AppData\Local\Temp\ccx4ZXSQ.s:696    .text.rcu_system_clock_source_config:0000000000000034 .L0 
C:\Users\CYMR90~1\AppData\Local\Temp\ccx4ZXSQ.s:698    .text.rcu_system_clock_source_config:0000000000000036 .L0 
C:\Users\CYMR90~1\AppData\Local\Temp\ccx4ZXSQ.s:700    .text.rcu_system_clock_source_config:000000000000003a .L0 
C:\Users\CYMR90~1\AppData\Local\Temp\ccx4ZXSQ.s:701    .text.rcu_system_clock_source_config:000000000000003a .L0 
C:\Users\CYMR90~1\AppData\Local\Temp\ccx4ZXSQ.s:703    .text.rcu_system_clock_source_config:000000000000003c .L0 
C:\Users\CYMR90~1\AppData\Local\Temp\ccx4ZXSQ.s:705    .text.rcu_system_clock_source_config:000000000000003e .L0 
C:\Users\CYMR90~1\AppData\Local\Temp\ccx4ZXSQ.s:712    .text.rcu_system_clock_source_get:0000000000000000 rcu_system_clock_source_get
C:\Users\CYMR90~1\AppData\Local\Temp\ccx4ZXSQ.s:715    .text.rcu_system_clock_source_get:0000000000000000 .L0 
C:\Users\CYMR90~1\AppData\Local\Temp\ccx4ZXSQ.s:716    .text.rcu_system_clock_source_get:0000000000000000 .L0 
C:\Users\CYMR90~1\AppData\Local\Temp\ccx4ZXSQ.s:717    .text.rcu_system_clock_source_get:0000000000000002 .L0 
C:\Users\CYMR90~1\AppData\Local\Temp\ccx4ZXSQ.s:719    .text.rcu_system_clock_source_get:0000000000000004 .L0 
C:\Users\CYMR90~1\AppData\Local\Temp\ccx4ZXSQ.s:721    .text.rcu_system_clock_source_get:0000000000000006 .L0 
C:\Users\CYMR90~1\AppData\Local\Temp\ccx4ZXSQ.s:723    .text.rcu_system_clock_source_get:0000000000000006 .L0 
C:\Users\CYMR90~1\AppData\Local\Temp\ccx4ZXSQ.s:728    .text.rcu_system_clock_source_get:0000000000000012 .L0 
C:\Users\CYMR90~1\AppData\Local\Temp\ccx4ZXSQ.s:730    .text.rcu_system_clock_source_get:0000000000000016 .L0 
C:\Users\CYMR90~1\AppData\Local\Temp\ccx4ZXSQ.s:731    .text.rcu_system_clock_source_get:0000000000000016 .L0 
C:\Users\CYMR90~1\AppData\Local\Temp\ccx4ZXSQ.s:733    .text.rcu_system_clock_source_get:0000000000000018 .L0 
C:\Users\CYMR90~1\AppData\Local\Temp\ccx4ZXSQ.s:735    .text.rcu_system_clock_source_get:000000000000001a .L0 
C:\Users\CYMR90~1\AppData\Local\Temp\ccx4ZXSQ.s:742    .text.rcu_ahb_clock_config:0000000000000000 rcu_ahb_clock_config
C:\Users\CYMR90~1\AppData\Local\Temp\ccx4ZXSQ.s:745    .text.rcu_ahb_clock_config:0000000000000000 .L0 
C:\Users\CYMR90~1\AppData\Local\Temp\ccx4ZXSQ.s:746    .text.rcu_ahb_clock_config:0000000000000000 .L0 
C:\Users\CYMR90~1\AppData\Local\Temp\ccx4ZXSQ.s:747    .text.rcu_ahb_clock_config:0000000000000002 .L0 
C:\Users\CYMR90~1\AppData\Local\Temp\ccx4ZXSQ.s:749    .text.rcu_ahb_clock_config:0000000000000004 .L0 
C:\Users\CYMR90~1\AppData\Local\Temp\ccx4ZXSQ.s:751    .text.rcu_ahb_clock_config:0000000000000006 .L0 
C:\Users\CYMR90~1\AppData\Local\Temp\ccx4ZXSQ.s:754    .text.rcu_ahb_clock_config:000000000000000a .L0 
C:\Users\CYMR90~1\AppData\Local\Temp\ccx4ZXSQ.s:757    .text.rcu_ahb_clock_config:0000000000000012 .L0 
C:\Users\CYMR90~1\AppData\Local\Temp\ccx4ZXSQ.s:760    .text.rcu_ahb_clock_config:0000000000000018 .L0 
C:\Users\CYMR90~1\AppData\Local\Temp\ccx4ZXSQ.s:764    .text.rcu_ahb_clock_config:0000000000000024 .L0 
C:\Users\CYMR90~1\AppData\Local\Temp\ccx4ZXSQ.s:767    .text.rcu_ahb_clock_config:000000000000002c .L0 
C:\Users\CYMR90~1\AppData\Local\Temp\ccx4ZXSQ.s:771    .text.rcu_ahb_clock_config:0000000000000036 .L0 
C:\Users\CYMR90~1\AppData\Local\Temp\ccx4ZXSQ.s:773    .text.rcu_ahb_clock_config:0000000000000038 .L0 
C:\Users\CYMR90~1\AppData\Local\Temp\ccx4ZXSQ.s:775    .text.rcu_ahb_clock_config:000000000000003c .L0 
C:\Users\CYMR90~1\AppData\Local\Temp\ccx4ZXSQ.s:776    .text.rcu_ahb_clock_config:000000000000003c .L0 
C:\Users\CYMR90~1\AppData\Local\Temp\ccx4ZXSQ.s:778    .text.rcu_ahb_clock_config:000000000000003e .L0 
C:\Users\CYMR90~1\AppData\Local\Temp\ccx4ZXSQ.s:780    .text.rcu_ahb_clock_config:0000000000000040 .L0 
C:\Users\CYMR90~1\AppData\Local\Temp\ccx4ZXSQ.s:787    .text.rcu_apb1_clock_config:0000000000000000 rcu_apb1_clock_config
C:\Users\CYMR90~1\AppData\Local\Temp\ccx4ZXSQ.s:790    .text.rcu_apb1_clock_config:0000000000000000 .L0 
C:\Users\CYMR90~1\AppData\Local\Temp\ccx4ZXSQ.s:791    .text.rcu_apb1_clock_config:0000000000000000 .L0 
C:\Users\CYMR90~1\AppData\Local\Temp\ccx4ZXSQ.s:792    .text.rcu_apb1_clock_config:0000000000000002 .L0 
C:\Users\CYMR90~1\AppData\Local\Temp\ccx4ZXSQ.s:794    .text.rcu_apb1_clock_config:0000000000000004 .L0 
C:\Users\CYMR90~1\AppData\Local\Temp\ccx4ZXSQ.s:796    .text.rcu_apb1_clock_config:0000000000000006 .L0 
C:\Users\CYMR90~1\AppData\Local\Temp\ccx4ZXSQ.s:799    .text.rcu_apb1_clock_config:000000000000000a .L0 
C:\Users\CYMR90~1\AppData\Local\Temp\ccx4ZXSQ.s:802    .text.rcu_apb1_clock_config:0000000000000012 .L0 
C:\Users\CYMR90~1\AppData\Local\Temp\ccx4ZXSQ.s:805    .text.rcu_apb1_clock_config:0000000000000018 .L0 
C:\Users\CYMR90~1\AppData\Local\Temp\ccx4ZXSQ.s:811    .text.rcu_apb1_clock_config:0000000000000028 .L0 
C:\Users\CYMR90~1\AppData\Local\Temp\ccx4ZXSQ.s:814    .text.rcu_apb1_clock_config:0000000000000030 .L0 
C:\Users\CYMR90~1\AppData\Local\Temp\ccx4ZXSQ.s:818    .text.rcu_apb1_clock_config:000000000000003a .L0 
C:\Users\CYMR90~1\AppData\Local\Temp\ccx4ZXSQ.s:820    .text.rcu_apb1_clock_config:000000000000003c .L0 
C:\Users\CYMR90~1\AppData\Local\Temp\ccx4ZXSQ.s:822    .text.rcu_apb1_clock_config:0000000000000040 .L0 
C:\Users\CYMR90~1\AppData\Local\Temp\ccx4ZXSQ.s:823    .text.rcu_apb1_clock_config:0000000000000040 .L0 
C:\Users\CYMR90~1\AppData\Local\Temp\ccx4ZXSQ.s:825    .text.rcu_apb1_clock_config:0000000000000042 .L0 
C:\Users\CYMR90~1\AppData\Local\Temp\ccx4ZXSQ.s:827    .text.rcu_apb1_clock_config:0000000000000044 .L0 
C:\Users\CYMR90~1\AppData\Local\Temp\ccx4ZXSQ.s:834    .text.rcu_apb2_clock_config:0000000000000000 rcu_apb2_clock_config
C:\Users\CYMR90~1\AppData\Local\Temp\ccx4ZXSQ.s:837    .text.rcu_apb2_clock_config:0000000000000000 .L0 
C:\Users\CYMR90~1\AppData\Local\Temp\ccx4ZXSQ.s:838    .text.rcu_apb2_clock_config:0000000000000000 .L0 
C:\Users\CYMR90~1\AppData\Local\Temp\ccx4ZXSQ.s:839    .text.rcu_apb2_clock_config:0000000000000002 .L0 
C:\Users\CYMR90~1\AppData\Local\Temp\ccx4ZXSQ.s:841    .text.rcu_apb2_clock_config:0000000000000004 .L0 
C:\Users\CYMR90~1\AppData\Local\Temp\ccx4ZXSQ.s:843    .text.rcu_apb2_clock_config:0000000000000006 .L0 
C:\Users\CYMR90~1\AppData\Local\Temp\ccx4ZXSQ.s:846    .text.rcu_apb2_clock_config:000000000000000a .L0 
C:\Users\CYMR90~1\AppData\Local\Temp\ccx4ZXSQ.s:849    .text.rcu_apb2_clock_config:0000000000000012 .L0 
C:\Users\CYMR90~1\AppData\Local\Temp\ccx4ZXSQ.s:852    .text.rcu_apb2_clock_config:0000000000000018 .L0 
C:\Users\CYMR90~1\AppData\Local\Temp\ccx4ZXSQ.s:858    .text.rcu_apb2_clock_config:0000000000000026 .L0 
C:\Users\CYMR90~1\AppData\Local\Temp\ccx4ZXSQ.s:861    .text.rcu_apb2_clock_config:000000000000002e .L0 
C:\Users\CYMR90~1\AppData\Local\Temp\ccx4ZXSQ.s:865    .text.rcu_apb2_clock_config:0000000000000038 .L0 
C:\Users\CYMR90~1\AppData\Local\Temp\ccx4ZXSQ.s:867    .text.rcu_apb2_clock_config:000000000000003a .L0 
C:\Users\CYMR90~1\AppData\Local\Temp\ccx4ZXSQ.s:869    .text.rcu_apb2_clock_config:000000000000003e .L0 
C:\Users\CYMR90~1\AppData\Local\Temp\ccx4ZXSQ.s:870    .text.rcu_apb2_clock_config:000000000000003e .L0 
C:\Users\CYMR90~1\AppData\Local\Temp\ccx4ZXSQ.s:872    .text.rcu_apb2_clock_config:0000000000000040 .L0 
C:\Users\CYMR90~1\AppData\Local\Temp\ccx4ZXSQ.s:874    .text.rcu_apb2_clock_config:0000000000000042 .L0 
C:\Users\CYMR90~1\AppData\Local\Temp\ccx4ZXSQ.s:881    .text.rcu_ckout0_config:0000000000000000 rcu_ckout0_config
C:\Users\CYMR90~1\AppData\Local\Temp\ccx4ZXSQ.s:884    .text.rcu_ckout0_config:0000000000000000 .L0 
C:\Users\CYMR90~1\AppData\Local\Temp\ccx4ZXSQ.s:885    .text.rcu_ckout0_config:0000000000000000 .L0 
C:\Users\CYMR90~1\AppData\Local\Temp\ccx4ZXSQ.s:886    .text.rcu_ckout0_config:0000000000000002 .L0 
C:\Users\CYMR90~1\AppData\Local\Temp\ccx4ZXSQ.s:888    .text.rcu_ckout0_config:0000000000000004 .L0 
C:\Users\CYMR90~1\AppData\Local\Temp\ccx4ZXSQ.s:890    .text.rcu_ckout0_config:0000000000000006 .L0 
C:\Users\CYMR90~1\AppData\Local\Temp\ccx4ZXSQ.s:894    .text.rcu_ckout0_config:000000000000000e .L0 
C:\Users\CYMR90~1\AppData\Local\Temp\ccx4ZXSQ.s:897    .text.rcu_ckout0_config:0000000000000016 .L0 
C:\Users\CYMR90~1\AppData\Local\Temp\ccx4ZXSQ.s:900    .text.rcu_ckout0_config:000000000000001c .L0 
C:\Users\CYMR90~1\AppData\Local\Temp\ccx4ZXSQ.s:906    .text.rcu_ckout0_config:000000000000002c .L0 
C:\Users\CYMR90~1\AppData\Local\Temp\ccx4ZXSQ.s:910    .text.rcu_ckout0_config:0000000000000038 .L0 
C:\Users\CYMR90~1\AppData\Local\Temp\ccx4ZXSQ.s:913    .text.rcu_ckout0_config:0000000000000040 .L0 
C:\Users\CYMR90~1\AppData\Local\Temp\ccx4ZXSQ.s:916    .text.rcu_ckout0_config:0000000000000046 .L0 
C:\Users\CYMR90~1\AppData\Local\Temp\ccx4ZXSQ.s:918    .text.rcu_ckout0_config:0000000000000048 .L0 
C:\Users\CYMR90~1\AppData\Local\Temp\ccx4ZXSQ.s:920    .text.rcu_ckout0_config:000000000000004c .L0 
C:\Users\CYMR90~1\AppData\Local\Temp\ccx4ZXSQ.s:921    .text.rcu_ckout0_config:000000000000004c .L0 
C:\Users\CYMR90~1\AppData\Local\Temp\ccx4ZXSQ.s:923    .text.rcu_ckout0_config:000000000000004e .L0 
C:\Users\CYMR90~1\AppData\Local\Temp\ccx4ZXSQ.s:925    .text.rcu_ckout0_config:0000000000000050 .L0 
C:\Users\CYMR90~1\AppData\Local\Temp\ccx4ZXSQ.s:932    .text.rcu_ckout1_config:0000000000000000 rcu_ckout1_config
C:\Users\CYMR90~1\AppData\Local\Temp\ccx4ZXSQ.s:935    .text.rcu_ckout1_config:0000000000000000 .L0 
C:\Users\CYMR90~1\AppData\Local\Temp\ccx4ZXSQ.s:936    .text.rcu_ckout1_config:0000000000000000 .L0 
C:\Users\CYMR90~1\AppData\Local\Temp\ccx4ZXSQ.s:937    .text.rcu_ckout1_config:0000000000000002 .L0 
C:\Users\CYMR90~1\AppData\Local\Temp\ccx4ZXSQ.s:939    .text.rcu_ckout1_config:0000000000000004 .L0 
C:\Users\CYMR90~1\AppData\Local\Temp\ccx4ZXSQ.s:941    .text.rcu_ckout1_config:0000000000000006 .L0 
C:\Users\CYMR90~1\AppData\Local\Temp\ccx4ZXSQ.s:945    .text.rcu_ckout1_config:000000000000000e .L0 
C:\Users\CYMR90~1\AppData\Local\Temp\ccx4ZXSQ.s:948    .text.rcu_ckout1_config:0000000000000016 .L0 
C:\Users\CYMR90~1\AppData\Local\Temp\ccx4ZXSQ.s:951    .text.rcu_ckout1_config:000000000000001c .L0 
C:\Users\CYMR90~1\AppData\Local\Temp\ccx4ZXSQ.s:957    .text.rcu_ckout1_config:000000000000002c .L0 
C:\Users\CYMR90~1\AppData\Local\Temp\ccx4ZXSQ.s:961    .text.rcu_ckout1_config:0000000000000038 .L0 
C:\Users\CYMR90~1\AppData\Local\Temp\ccx4ZXSQ.s:964    .text.rcu_ckout1_config:0000000000000040 .L0 
C:\Users\CYMR90~1\AppData\Local\Temp\ccx4ZXSQ.s:967    .text.rcu_ckout1_config:0000000000000046 .L0 
C:\Users\CYMR90~1\AppData\Local\Temp\ccx4ZXSQ.s:969    .text.rcu_ckout1_config:0000000000000048 .L0 
C:\Users\CYMR90~1\AppData\Local\Temp\ccx4ZXSQ.s:971    .text.rcu_ckout1_config:000000000000004c .L0 
C:\Users\CYMR90~1\AppData\Local\Temp\ccx4ZXSQ.s:972    .text.rcu_ckout1_config:000000000000004c .L0 
C:\Users\CYMR90~1\AppData\Local\Temp\ccx4ZXSQ.s:974    .text.rcu_ckout1_config:000000000000004e .L0 
C:\Users\CYMR90~1\AppData\Local\Temp\ccx4ZXSQ.s:976    .text.rcu_ckout1_config:0000000000000050 .L0 
C:\Users\CYMR90~1\AppData\Local\Temp\ccx4ZXSQ.s:983    .text.rcu_plldig_config:0000000000000000 rcu_plldig_config
C:\Users\CYMR90~1\AppData\Local\Temp\ccx4ZXSQ.s:986    .text.rcu_plldig_config:0000000000000000 .L0 
C:\Users\CYMR90~1\AppData\Local\Temp\ccx4ZXSQ.s:987    .text.rcu_plldig_config:0000000000000000 .L0 
C:\Users\CYMR90~1\AppData\Local\Temp\ccx4ZXSQ.s:988    .text.rcu_plldig_config:0000000000000002 .L0 
C:\Users\CYMR90~1\AppData\Local\Temp\ccx4ZXSQ.s:990    .text.rcu_plldig_config:0000000000000004 .L0 
C:\Users\CYMR90~1\AppData\Local\Temp\ccx4ZXSQ.s:992    .text.rcu_plldig_config:0000000000000006 .L0 
C:\Users\CYMR90~1\AppData\Local\Temp\ccx4ZXSQ.s:995    .text.rcu_plldig_config:000000000000000a .L0 
C:\Users\CYMR90~1\AppData\Local\Temp\ccx4ZXSQ.s:1005   .text.rcu_plldig_config:0000000000000026 .L0 
C:\Users\CYMR90~1\AppData\Local\Temp\ccx4ZXSQ.s:1014   .text.rcu_plldig_config:0000000000000040 .L0 
C:\Users\CYMR90~1\AppData\Local\Temp\ccx4ZXSQ.s:1016   .text.rcu_plldig_config:0000000000000044 .L0 
C:\Users\CYMR90~1\AppData\Local\Temp\ccx4ZXSQ.s:1017   .text.rcu_plldig_config:0000000000000044 .L0 
C:\Users\CYMR90~1\AppData\Local\Temp\ccx4ZXSQ.s:1019   .text.rcu_plldig_config:0000000000000046 .L0 
C:\Users\CYMR90~1\AppData\Local\Temp\ccx4ZXSQ.s:1021   .text.rcu_plldig_config:0000000000000048 .L0 
C:\Users\CYMR90~1\AppData\Local\Temp\ccx4ZXSQ.s:1028   .text.rcu_plldigdiv_sys_config:0000000000000000 rcu_plldigdiv_sys_config
C:\Users\CYMR90~1\AppData\Local\Temp\ccx4ZXSQ.s:1031   .text.rcu_plldigdiv_sys_config:0000000000000000 .L0 
C:\Users\CYMR90~1\AppData\Local\Temp\ccx4ZXSQ.s:1032   .text.rcu_plldigdiv_sys_config:0000000000000000 .L0 
C:\Users\CYMR90~1\AppData\Local\Temp\ccx4ZXSQ.s:1033   .text.rcu_plldigdiv_sys_config:0000000000000002 .L0 
C:\Users\CYMR90~1\AppData\Local\Temp\ccx4ZXSQ.s:1035   .text.rcu_plldigdiv_sys_config:0000000000000004 .L0 
C:\Users\CYMR90~1\AppData\Local\Temp\ccx4ZXSQ.s:1037   .text.rcu_plldigdiv_sys_config:0000000000000006 .L0 
C:\Users\CYMR90~1\AppData\Local\Temp\ccx4ZXSQ.s:1040   .text.rcu_plldigdiv_sys_config:000000000000000a .L0 
C:\Users\CYMR90~1\AppData\Local\Temp\ccx4ZXSQ.s:1043   .text.rcu_plldigdiv_sys_config:0000000000000012 .L0 
C:\Users\CYMR90~1\AppData\Local\Temp\ccx4ZXSQ.s:1046   .text.rcu_plldigdiv_sys_config:0000000000000018 .L0 
C:\Users\CYMR90~1\AppData\Local\Temp\ccx4ZXSQ.s:1052   .text.rcu_plldigdiv_sys_config:0000000000000028 .L0 
C:\Users\CYMR90~1\AppData\Local\Temp\ccx4ZXSQ.s:1055   .text.rcu_plldigdiv_sys_config:0000000000000030 .L0 
C:\Users\CYMR90~1\AppData\Local\Temp\ccx4ZXSQ.s:1059   .text.rcu_plldigdiv_sys_config:000000000000003a .L0 
C:\Users\CYMR90~1\AppData\Local\Temp\ccx4ZXSQ.s:1061   .text.rcu_plldigdiv_sys_config:000000000000003c .L0 
C:\Users\CYMR90~1\AppData\Local\Temp\ccx4ZXSQ.s:1063   .text.rcu_plldigdiv_sys_config:0000000000000040 .L0 
C:\Users\CYMR90~1\AppData\Local\Temp\ccx4ZXSQ.s:1064   .text.rcu_plldigdiv_sys_config:0000000000000040 .L0 
C:\Users\CYMR90~1\AppData\Local\Temp\ccx4ZXSQ.s:1066   .text.rcu_plldigdiv_sys_config:0000000000000042 .L0 
C:\Users\CYMR90~1\AppData\Local\Temp\ccx4ZXSQ.s:1068   .text.rcu_plldigdiv_sys_config:0000000000000044 .L0 
C:\Users\CYMR90~1\AppData\Local\Temp\ccx4ZXSQ.s:1075   .text.rcu_rtc_clock_config:0000000000000000 rcu_rtc_clock_config
C:\Users\CYMR90~1\AppData\Local\Temp\ccx4ZXSQ.s:1078   .text.rcu_rtc_clock_config:0000000000000000 .L0 
C:\Users\CYMR90~1\AppData\Local\Temp\ccx4ZXSQ.s:1079   .text.rcu_rtc_clock_config:0000000000000000 .L0 
C:\Users\CYMR90~1\AppData\Local\Temp\ccx4ZXSQ.s:1080   .text.rcu_rtc_clock_config:0000000000000002 .L0 
C:\Users\CYMR90~1\AppData\Local\Temp\ccx4ZXSQ.s:1082   .text.rcu_rtc_clock_config:0000000000000004 .L0 
C:\Users\CYMR90~1\AppData\Local\Temp\ccx4ZXSQ.s:1084   .text.rcu_rtc_clock_config:0000000000000006 .L0 
C:\Users\CYMR90~1\AppData\Local\Temp\ccx4ZXSQ.s:1087   .text.rcu_rtc_clock_config:000000000000000a .L0 
C:\Users\CYMR90~1\AppData\Local\Temp\ccx4ZXSQ.s:1090   .text.rcu_rtc_clock_config:0000000000000012 .L0 
C:\Users\CYMR90~1\AppData\Local\Temp\ccx4ZXSQ.s:1093   .text.rcu_rtc_clock_config:0000000000000018 .L0 
C:\Users\CYMR90~1\AppData\Local\Temp\ccx4ZXSQ.s:1097   .text.rcu_rtc_clock_config:0000000000000024 .L0 
C:\Users\CYMR90~1\AppData\Local\Temp\ccx4ZXSQ.s:1100   .text.rcu_rtc_clock_config:000000000000002c .L0 
C:\Users\CYMR90~1\AppData\Local\Temp\ccx4ZXSQ.s:1104   .text.rcu_rtc_clock_config:0000000000000036 .L0 
C:\Users\CYMR90~1\AppData\Local\Temp\ccx4ZXSQ.s:1106   .text.rcu_rtc_clock_config:0000000000000038 .L0 
C:\Users\CYMR90~1\AppData\Local\Temp\ccx4ZXSQ.s:1108   .text.rcu_rtc_clock_config:000000000000003c .L0 
C:\Users\CYMR90~1\AppData\Local\Temp\ccx4ZXSQ.s:1109   .text.rcu_rtc_clock_config:000000000000003c .L0 
C:\Users\CYMR90~1\AppData\Local\Temp\ccx4ZXSQ.s:1111   .text.rcu_rtc_clock_config:000000000000003e .L0 
C:\Users\CYMR90~1\AppData\Local\Temp\ccx4ZXSQ.s:1113   .text.rcu_rtc_clock_config:0000000000000040 .L0 
C:\Users\CYMR90~1\AppData\Local\Temp\ccx4ZXSQ.s:1120   .text.rcu_rtc_div_config:0000000000000000 rcu_rtc_div_config
C:\Users\CYMR90~1\AppData\Local\Temp\ccx4ZXSQ.s:1123   .text.rcu_rtc_div_config:0000000000000000 .L0 
C:\Users\CYMR90~1\AppData\Local\Temp\ccx4ZXSQ.s:1124   .text.rcu_rtc_div_config:0000000000000000 .L0 
C:\Users\CYMR90~1\AppData\Local\Temp\ccx4ZXSQ.s:1125   .text.rcu_rtc_div_config:0000000000000002 .L0 
C:\Users\CYMR90~1\AppData\Local\Temp\ccx4ZXSQ.s:1127   .text.rcu_rtc_div_config:0000000000000004 .L0 
C:\Users\CYMR90~1\AppData\Local\Temp\ccx4ZXSQ.s:1129   .text.rcu_rtc_div_config:0000000000000006 .L0 
C:\Users\CYMR90~1\AppData\Local\Temp\ccx4ZXSQ.s:1132   .text.rcu_rtc_div_config:000000000000000a .L0 
C:\Users\CYMR90~1\AppData\Local\Temp\ccx4ZXSQ.s:1135   .text.rcu_rtc_div_config:0000000000000012 .L0 
C:\Users\CYMR90~1\AppData\Local\Temp\ccx4ZXSQ.s:1138   .text.rcu_rtc_div_config:0000000000000018 .L0 
C:\Users\CYMR90~1\AppData\Local\Temp\ccx4ZXSQ.s:1144   .text.rcu_rtc_div_config:0000000000000028 .L0 
C:\Users\CYMR90~1\AppData\Local\Temp\ccx4ZXSQ.s:1147   .text.rcu_rtc_div_config:0000000000000030 .L0 
C:\Users\CYMR90~1\AppData\Local\Temp\ccx4ZXSQ.s:1151   .text.rcu_rtc_div_config:000000000000003a .L0 
C:\Users\CYMR90~1\AppData\Local\Temp\ccx4ZXSQ.s:1153   .text.rcu_rtc_div_config:000000000000003c .L0 
C:\Users\CYMR90~1\AppData\Local\Temp\ccx4ZXSQ.s:1155   .text.rcu_rtc_div_config:0000000000000040 .L0 
C:\Users\CYMR90~1\AppData\Local\Temp\ccx4ZXSQ.s:1156   .text.rcu_rtc_div_config:0000000000000040 .L0 
C:\Users\CYMR90~1\AppData\Local\Temp\ccx4ZXSQ.s:1158   .text.rcu_rtc_div_config:0000000000000042 .L0 
C:\Users\CYMR90~1\AppData\Local\Temp\ccx4ZXSQ.s:1160   .text.rcu_rtc_div_config:0000000000000044 .L0 
C:\Users\CYMR90~1\AppData\Local\Temp\ccx4ZXSQ.s:1167   .text.rcu_trng_div_config:0000000000000000 rcu_trng_div_config
C:\Users\CYMR90~1\AppData\Local\Temp\ccx4ZXSQ.s:1170   .text.rcu_trng_div_config:0000000000000000 .L0 
C:\Users\CYMR90~1\AppData\Local\Temp\ccx4ZXSQ.s:1171   .text.rcu_trng_div_config:0000000000000000 .L0 
C:\Users\CYMR90~1\AppData\Local\Temp\ccx4ZXSQ.s:1172   .text.rcu_trng_div_config:0000000000000002 .L0 
C:\Users\CYMR90~1\AppData\Local\Temp\ccx4ZXSQ.s:1174   .text.rcu_trng_div_config:0000000000000004 .L0 
C:\Users\CYMR90~1\AppData\Local\Temp\ccx4ZXSQ.s:1176   .text.rcu_trng_div_config:0000000000000006 .L0 
C:\Users\CYMR90~1\AppData\Local\Temp\ccx4ZXSQ.s:1179   .text.rcu_trng_div_config:000000000000000a .L0 
C:\Users\CYMR90~1\AppData\Local\Temp\ccx4ZXSQ.s:1182   .text.rcu_trng_div_config:0000000000000012 .L0 
C:\Users\CYMR90~1\AppData\Local\Temp\ccx4ZXSQ.s:1185   .text.rcu_trng_div_config:0000000000000018 .L0 
C:\Users\CYMR90~1\AppData\Local\Temp\ccx4ZXSQ.s:1189   .text.rcu_trng_div_config:0000000000000024 .L0 
C:\Users\CYMR90~1\AppData\Local\Temp\ccx4ZXSQ.s:1192   .text.rcu_trng_div_config:000000000000002c .L0 
C:\Users\CYMR90~1\AppData\Local\Temp\ccx4ZXSQ.s:1196   .text.rcu_trng_div_config:0000000000000036 .L0 
C:\Users\CYMR90~1\AppData\Local\Temp\ccx4ZXSQ.s:1198   .text.rcu_trng_div_config:0000000000000038 .L0 
C:\Users\CYMR90~1\AppData\Local\Temp\ccx4ZXSQ.s:1200   .text.rcu_trng_div_config:000000000000003c .L0 
C:\Users\CYMR90~1\AppData\Local\Temp\ccx4ZXSQ.s:1201   .text.rcu_trng_div_config:000000000000003c .L0 
C:\Users\CYMR90~1\AppData\Local\Temp\ccx4ZXSQ.s:1203   .text.rcu_trng_div_config:000000000000003e .L0 
C:\Users\CYMR90~1\AppData\Local\Temp\ccx4ZXSQ.s:1205   .text.rcu_trng_div_config:0000000000000040 .L0 
C:\Users\CYMR90~1\AppData\Local\Temp\ccx4ZXSQ.s:1212   .text.rcu_i2c0_clock_config:0000000000000000 rcu_i2c0_clock_config
C:\Users\CYMR90~1\AppData\Local\Temp\ccx4ZXSQ.s:1215   .text.rcu_i2c0_clock_config:0000000000000000 .L0 
C:\Users\CYMR90~1\AppData\Local\Temp\ccx4ZXSQ.s:1216   .text.rcu_i2c0_clock_config:0000000000000000 .L0 
C:\Users\CYMR90~1\AppData\Local\Temp\ccx4ZXSQ.s:1217   .text.rcu_i2c0_clock_config:0000000000000002 .L0 
C:\Users\CYMR90~1\AppData\Local\Temp\ccx4ZXSQ.s:1219   .text.rcu_i2c0_clock_config:0000000000000004 .L0 
C:\Users\CYMR90~1\AppData\Local\Temp\ccx4ZXSQ.s:1221   .text.rcu_i2c0_clock_config:0000000000000006 .L0 
C:\Users\CYMR90~1\AppData\Local\Temp\ccx4ZXSQ.s:1224   .text.rcu_i2c0_clock_config:000000000000000a .L0 
C:\Users\CYMR90~1\AppData\Local\Temp\ccx4ZXSQ.s:1227   .text.rcu_i2c0_clock_config:0000000000000012 .L0 
C:\Users\CYMR90~1\AppData\Local\Temp\ccx4ZXSQ.s:1230   .text.rcu_i2c0_clock_config:0000000000000018 .L0 
C:\Users\CYMR90~1\AppData\Local\Temp\ccx4ZXSQ.s:1236   .text.rcu_i2c0_clock_config:0000000000000028 .L0 
C:\Users\CYMR90~1\AppData\Local\Temp\ccx4ZXSQ.s:1239   .text.rcu_i2c0_clock_config:0000000000000030 .L0 
C:\Users\CYMR90~1\AppData\Local\Temp\ccx4ZXSQ.s:1243   .text.rcu_i2c0_clock_config:000000000000003a .L0 
C:\Users\CYMR90~1\AppData\Local\Temp\ccx4ZXSQ.s:1245   .text.rcu_i2c0_clock_config:000000000000003c .L0 
C:\Users\CYMR90~1\AppData\Local\Temp\ccx4ZXSQ.s:1247   .text.rcu_i2c0_clock_config:0000000000000040 .L0 
C:\Users\CYMR90~1\AppData\Local\Temp\ccx4ZXSQ.s:1248   .text.rcu_i2c0_clock_config:0000000000000040 .L0 
C:\Users\CYMR90~1\AppData\Local\Temp\ccx4ZXSQ.s:1250   .text.rcu_i2c0_clock_config:0000000000000042 .L0 
C:\Users\CYMR90~1\AppData\Local\Temp\ccx4ZXSQ.s:1252   .text.rcu_i2c0_clock_config:0000000000000044 .L0 
C:\Users\CYMR90~1\AppData\Local\Temp\ccx4ZXSQ.s:1259   .text.rcu_usart0_clock_config:0000000000000000 rcu_usart0_clock_config
C:\Users\CYMR90~1\AppData\Local\Temp\ccx4ZXSQ.s:1262   .text.rcu_usart0_clock_config:0000000000000000 .L0 
C:\Users\CYMR90~1\AppData\Local\Temp\ccx4ZXSQ.s:1263   .text.rcu_usart0_clock_config:0000000000000000 .L0 
C:\Users\CYMR90~1\AppData\Local\Temp\ccx4ZXSQ.s:1264   .text.rcu_usart0_clock_config:0000000000000002 .L0 
C:\Users\CYMR90~1\AppData\Local\Temp\ccx4ZXSQ.s:1266   .text.rcu_usart0_clock_config:0000000000000004 .L0 
C:\Users\CYMR90~1\AppData\Local\Temp\ccx4ZXSQ.s:1268   .text.rcu_usart0_clock_config:0000000000000006 .L0 
C:\Users\CYMR90~1\AppData\Local\Temp\ccx4ZXSQ.s:1271   .text.rcu_usart0_clock_config:000000000000000a .L0 
C:\Users\CYMR90~1\AppData\Local\Temp\ccx4ZXSQ.s:1274   .text.rcu_usart0_clock_config:0000000000000012 .L0 
C:\Users\CYMR90~1\AppData\Local\Temp\ccx4ZXSQ.s:1277   .text.rcu_usart0_clock_config:0000000000000018 .L0 
C:\Users\CYMR90~1\AppData\Local\Temp\ccx4ZXSQ.s:1283   .text.rcu_usart0_clock_config:0000000000000028 .L0 
C:\Users\CYMR90~1\AppData\Local\Temp\ccx4ZXSQ.s:1286   .text.rcu_usart0_clock_config:0000000000000030 .L0 
C:\Users\CYMR90~1\AppData\Local\Temp\ccx4ZXSQ.s:1290   .text.rcu_usart0_clock_config:000000000000003a .L0 
C:\Users\CYMR90~1\AppData\Local\Temp\ccx4ZXSQ.s:1292   .text.rcu_usart0_clock_config:000000000000003c .L0 
C:\Users\CYMR90~1\AppData\Local\Temp\ccx4ZXSQ.s:1294   .text.rcu_usart0_clock_config:0000000000000040 .L0 
C:\Users\CYMR90~1\AppData\Local\Temp\ccx4ZXSQ.s:1295   .text.rcu_usart0_clock_config:0000000000000040 .L0 
C:\Users\CYMR90~1\AppData\Local\Temp\ccx4ZXSQ.s:1297   .text.rcu_usart0_clock_config:0000000000000042 .L0 
C:\Users\CYMR90~1\AppData\Local\Temp\ccx4ZXSQ.s:1299   .text.rcu_usart0_clock_config:0000000000000044 .L0 
C:\Users\CYMR90~1\AppData\Local\Temp\ccx4ZXSQ.s:1306   .text.rcu_irc16m_div_config:0000000000000000 rcu_irc16m_div_config
C:\Users\CYMR90~1\AppData\Local\Temp\ccx4ZXSQ.s:1309   .text.rcu_irc16m_div_config:0000000000000000 .L0 
C:\Users\CYMR90~1\AppData\Local\Temp\ccx4ZXSQ.s:1310   .text.rcu_irc16m_div_config:0000000000000000 .L0 
C:\Users\CYMR90~1\AppData\Local\Temp\ccx4ZXSQ.s:1311   .text.rcu_irc16m_div_config:0000000000000002 .L0 
C:\Users\CYMR90~1\AppData\Local\Temp\ccx4ZXSQ.s:1313   .text.rcu_irc16m_div_config:0000000000000004 .L0 
C:\Users\CYMR90~1\AppData\Local\Temp\ccx4ZXSQ.s:1315   .text.rcu_irc16m_div_config:0000000000000006 .L0 
C:\Users\CYMR90~1\AppData\Local\Temp\ccx4ZXSQ.s:1318   .text.rcu_irc16m_div_config:000000000000000a .L0 
C:\Users\CYMR90~1\AppData\Local\Temp\ccx4ZXSQ.s:1321   .text.rcu_irc16m_div_config:0000000000000012 .L0 
C:\Users\CYMR90~1\AppData\Local\Temp\ccx4ZXSQ.s:1324   .text.rcu_irc16m_div_config:0000000000000018 .L0 
C:\Users\CYMR90~1\AppData\Local\Temp\ccx4ZXSQ.s:1328   .text.rcu_irc16m_div_config:0000000000000024 .L0 
C:\Users\CYMR90~1\AppData\Local\Temp\ccx4ZXSQ.s:1331   .text.rcu_irc16m_div_config:000000000000002c .L0 
C:\Users\CYMR90~1\AppData\Local\Temp\ccx4ZXSQ.s:1335   .text.rcu_irc16m_div_config:0000000000000036 .L0 
C:\Users\CYMR90~1\AppData\Local\Temp\ccx4ZXSQ.s:1337   .text.rcu_irc16m_div_config:0000000000000038 .L0 
C:\Users\CYMR90~1\AppData\Local\Temp\ccx4ZXSQ.s:1339   .text.rcu_irc16m_div_config:000000000000003c .L0 
C:\Users\CYMR90~1\AppData\Local\Temp\ccx4ZXSQ.s:1340   .text.rcu_irc16m_div_config:000000000000003c .L0 
C:\Users\CYMR90~1\AppData\Local\Temp\ccx4ZXSQ.s:1342   .text.rcu_irc16m_div_config:000000000000003e .L0 
C:\Users\CYMR90~1\AppData\Local\Temp\ccx4ZXSQ.s:1344   .text.rcu_irc16m_div_config:0000000000000040 .L0 
C:\Users\CYMR90~1\AppData\Local\Temp\ccx4ZXSQ.s:1351   .text.rcu_timer_clock_prescaler_config:0000000000000000 rcu_timer_clock_prescaler_config
C:\Users\CYMR90~1\AppData\Local\Temp\ccx4ZXSQ.s:1354   .text.rcu_timer_clock_prescaler_config:0000000000000000 .L0 
C:\Users\CYMR90~1\AppData\Local\Temp\ccx4ZXSQ.s:1355   .text.rcu_timer_clock_prescaler_config:0000000000000000 .L0 
C:\Users\CYMR90~1\AppData\Local\Temp\ccx4ZXSQ.s:1356   .text.rcu_timer_clock_prescaler_config:0000000000000002 .L0 
C:\Users\CYMR90~1\AppData\Local\Temp\ccx4ZXSQ.s:1358   .text.rcu_timer_clock_prescaler_config:0000000000000004 .L0 
C:\Users\CYMR90~1\AppData\Local\Temp\ccx4ZXSQ.s:1360   .text.rcu_timer_clock_prescaler_config:0000000000000006 .L0 
C:\Users\CYMR90~1\AppData\Local\Temp\ccx4ZXSQ.s:1363   .text.rcu_timer_clock_prescaler_config:000000000000000a .L0 
C:\Users\CYMR90~1\AppData\Local\Temp\ccx4ZXSQ.s:1368   .text.rcu_timer_clock_prescaler_config:0000000000000018 .L0 
C:\Users\CYMR90~1\AppData\Local\Temp\ccx4ZXSQ.s:1377   .text.rcu_timer_clock_prescaler_config:0000000000000032 .L0 
C:\Users\CYMR90~1\AppData\Local\Temp\ccx4ZXSQ.s:1380   .text.rcu_timer_clock_prescaler_config:0000000000000034 .L0 
C:\Users\CYMR90~1\AppData\Local\Temp\ccx4ZXSQ.s:1390   .text.rcu_timer_clock_prescaler_config:000000000000004e .L0 
C:\Users\CYMR90~1\AppData\Local\Temp\ccx4ZXSQ.s:1392   .text.rcu_timer_clock_prescaler_config:0000000000000052 .L0 
C:\Users\CYMR90~1\AppData\Local\Temp\ccx4ZXSQ.s:1393   .text.rcu_timer_clock_prescaler_config:0000000000000052 .L0 
C:\Users\CYMR90~1\AppData\Local\Temp\ccx4ZXSQ.s:1395   .text.rcu_timer_clock_prescaler_config:0000000000000054 .L0 
C:\Users\CYMR90~1\AppData\Local\Temp\ccx4ZXSQ.s:1397   .text.rcu_timer_clock_prescaler_config:0000000000000056 .L0 
C:\Users\CYMR90~1\AppData\Local\Temp\ccx4ZXSQ.s:1404   .text.rcu_flag_get:0000000000000000 rcu_flag_get
C:\Users\CYMR90~1\AppData\Local\Temp\ccx4ZXSQ.s:1407   .text.rcu_flag_get:0000000000000000 .L0 
C:\Users\CYMR90~1\AppData\Local\Temp\ccx4ZXSQ.s:1408   .text.rcu_flag_get:0000000000000000 .L0 
C:\Users\CYMR90~1\AppData\Local\Temp\ccx4ZXSQ.s:1409   .text.rcu_flag_get:0000000000000002 .L0 
C:\Users\CYMR90~1\AppData\Local\Temp\ccx4ZXSQ.s:1411   .text.rcu_flag_get:0000000000000004 .L0 
C:\Users\CYMR90~1\AppData\Local\Temp\ccx4ZXSQ.s:1413   .text.rcu_flag_get:0000000000000006 .L0 
C:\Users\CYMR90~1\AppData\Local\Temp\ccx4ZXSQ.s:1416   .text.rcu_flag_get:000000000000000a .L0 
C:\Users\CYMR90~1\AppData\Local\Temp\ccx4ZXSQ.s:1423   .text.rcu_flag_get:000000000000001e .L0 
C:\Users\CYMR90~1\AppData\Local\Temp\ccx4ZXSQ.s:1426   .text.rcu_flag_get:0000000000000024 .L0 
C:\Users\CYMR90~1\AppData\Local\Temp\ccx4ZXSQ.s:1429   .text.rcu_flag_get:000000000000002a .L0 
C:\Users\CYMR90~1\AppData\Local\Temp\ccx4ZXSQ.s:1431   .text.rcu_flag_get:000000000000002c .L0 
C:\Users\CYMR90~1\AppData\Local\Temp\ccx4ZXSQ.s:1435   .text.rcu_flag_get:0000000000000030 .L0 
C:\Users\CYMR90~1\AppData\Local\Temp\ccx4ZXSQ.s:1438   .text.rcu_flag_get:0000000000000032 .L0 
C:\Users\CYMR90~1\AppData\Local\Temp\ccx4ZXSQ.s:1440   .text.rcu_flag_get:0000000000000036 .L0 
C:\Users\CYMR90~1\AppData\Local\Temp\ccx4ZXSQ.s:1441   .text.rcu_flag_get:0000000000000036 .L0 
C:\Users\CYMR90~1\AppData\Local\Temp\ccx4ZXSQ.s:1443   .text.rcu_flag_get:0000000000000038 .L0 
C:\Users\CYMR90~1\AppData\Local\Temp\ccx4ZXSQ.s:1445   .text.rcu_flag_get:000000000000003a .L0 
C:\Users\CYMR90~1\AppData\Local\Temp\ccx4ZXSQ.s:1452   .text.rcu_all_reset_flag_clear:0000000000000000 rcu_all_reset_flag_clear
C:\Users\CYMR90~1\AppData\Local\Temp\ccx4ZXSQ.s:1455   .text.rcu_all_reset_flag_clear:0000000000000000 .L0 
C:\Users\CYMR90~1\AppData\Local\Temp\ccx4ZXSQ.s:1456   .text.rcu_all_reset_flag_clear:0000000000000000 .L0 
C:\Users\CYMR90~1\AppData\Local\Temp\ccx4ZXSQ.s:1457   .text.rcu_all_reset_flag_clear:0000000000000002 .L0 
C:\Users\CYMR90~1\AppData\Local\Temp\ccx4ZXSQ.s:1459   .text.rcu_all_reset_flag_clear:0000000000000004 .L0 
C:\Users\CYMR90~1\AppData\Local\Temp\ccx4ZXSQ.s:1461   .text.rcu_all_reset_flag_clear:0000000000000006 .L0 
C:\Users\CYMR90~1\AppData\Local\Temp\ccx4ZXSQ.s:1463   .text.rcu_all_reset_flag_clear:0000000000000006 .L0 
C:\Users\CYMR90~1\AppData\Local\Temp\ccx4ZXSQ.s:1472   .text.rcu_all_reset_flag_clear:0000000000000020 .L0 
C:\Users\CYMR90~1\AppData\Local\Temp\ccx4ZXSQ.s:1474   .text.rcu_all_reset_flag_clear:0000000000000024 .L0 
C:\Users\CYMR90~1\AppData\Local\Temp\ccx4ZXSQ.s:1475   .text.rcu_all_reset_flag_clear:0000000000000024 .L0 
C:\Users\CYMR90~1\AppData\Local\Temp\ccx4ZXSQ.s:1477   .text.rcu_all_reset_flag_clear:0000000000000026 .L0 
C:\Users\CYMR90~1\AppData\Local\Temp\ccx4ZXSQ.s:1479   .text.rcu_all_reset_flag_clear:0000000000000028 .L0 
C:\Users\CYMR90~1\AppData\Local\Temp\ccx4ZXSQ.s:1486   .text.rcu_interrupt_flag_get:0000000000000000 rcu_interrupt_flag_get
C:\Users\CYMR90~1\AppData\Local\Temp\ccx4ZXSQ.s:1489   .text.rcu_interrupt_flag_get:0000000000000000 .L0 
C:\Users\CYMR90~1\AppData\Local\Temp\ccx4ZXSQ.s:1490   .text.rcu_interrupt_flag_get:0000000000000000 .L0 
C:\Users\CYMR90~1\AppData\Local\Temp\ccx4ZXSQ.s:1491   .text.rcu_interrupt_flag_get:0000000000000002 .L0 
C:\Users\CYMR90~1\AppData\Local\Temp\ccx4ZXSQ.s:1493   .text.rcu_interrupt_flag_get:0000000000000004 .L0 
C:\Users\CYMR90~1\AppData\Local\Temp\ccx4ZXSQ.s:1495   .text.rcu_interrupt_flag_get:0000000000000006 .L0 
C:\Users\CYMR90~1\AppData\Local\Temp\ccx4ZXSQ.s:1498   .text.rcu_interrupt_flag_get:000000000000000a .L0 
C:\Users\CYMR90~1\AppData\Local\Temp\ccx4ZXSQ.s:1505   .text.rcu_interrupt_flag_get:000000000000001e .L0 
C:\Users\CYMR90~1\AppData\Local\Temp\ccx4ZXSQ.s:1508   .text.rcu_interrupt_flag_get:0000000000000024 .L0 
C:\Users\CYMR90~1\AppData\Local\Temp\ccx4ZXSQ.s:1511   .text.rcu_interrupt_flag_get:000000000000002a .L0 
C:\Users\CYMR90~1\AppData\Local\Temp\ccx4ZXSQ.s:1513   .text.rcu_interrupt_flag_get:000000000000002c .L0 
C:\Users\CYMR90~1\AppData\Local\Temp\ccx4ZXSQ.s:1517   .text.rcu_interrupt_flag_get:0000000000000030 .L0 
C:\Users\CYMR90~1\AppData\Local\Temp\ccx4ZXSQ.s:1520   .text.rcu_interrupt_flag_get:0000000000000032 .L0 
C:\Users\CYMR90~1\AppData\Local\Temp\ccx4ZXSQ.s:1522   .text.rcu_interrupt_flag_get:0000000000000036 .L0 
C:\Users\CYMR90~1\AppData\Local\Temp\ccx4ZXSQ.s:1523   .text.rcu_interrupt_flag_get:0000000000000036 .L0 
C:\Users\CYMR90~1\AppData\Local\Temp\ccx4ZXSQ.s:1525   .text.rcu_interrupt_flag_get:0000000000000038 .L0 
C:\Users\CYMR90~1\AppData\Local\Temp\ccx4ZXSQ.s:1527   .text.rcu_interrupt_flag_get:000000000000003a .L0 
C:\Users\CYMR90~1\AppData\Local\Temp\ccx4ZXSQ.s:1534   .text.rcu_interrupt_flag_clear:0000000000000000 rcu_interrupt_flag_clear
C:\Users\CYMR90~1\AppData\Local\Temp\ccx4ZXSQ.s:1537   .text.rcu_interrupt_flag_clear:0000000000000000 .L0 
C:\Users\CYMR90~1\AppData\Local\Temp\ccx4ZXSQ.s:1538   .text.rcu_interrupt_flag_clear:0000000000000000 .L0 
C:\Users\CYMR90~1\AppData\Local\Temp\ccx4ZXSQ.s:1539   .text.rcu_interrupt_flag_clear:0000000000000002 .L0 
C:\Users\CYMR90~1\AppData\Local\Temp\ccx4ZXSQ.s:1541   .text.rcu_interrupt_flag_clear:0000000000000004 .L0 
C:\Users\CYMR90~1\AppData\Local\Temp\ccx4ZXSQ.s:1543   .text.rcu_interrupt_flag_clear:0000000000000006 .L0 
C:\Users\CYMR90~1\AppData\Local\Temp\ccx4ZXSQ.s:1546   .text.rcu_interrupt_flag_clear:000000000000000a .L0 
C:\Users\CYMR90~1\AppData\Local\Temp\ccx4ZXSQ.s:1553   .text.rcu_interrupt_flag_clear:000000000000001e .L0 
C:\Users\CYMR90~1\AppData\Local\Temp\ccx4ZXSQ.s:1558   .text.rcu_interrupt_flag_clear:000000000000002a .L0 
C:\Users\CYMR90~1\AppData\Local\Temp\ccx4ZXSQ.s:1566   .text.rcu_interrupt_flag_clear:0000000000000040 .L0 
C:\Users\CYMR90~1\AppData\Local\Temp\ccx4ZXSQ.s:1568   .text.rcu_interrupt_flag_clear:0000000000000044 .L0 
C:\Users\CYMR90~1\AppData\Local\Temp\ccx4ZXSQ.s:1569   .text.rcu_interrupt_flag_clear:0000000000000044 .L0 
C:\Users\CYMR90~1\AppData\Local\Temp\ccx4ZXSQ.s:1571   .text.rcu_interrupt_flag_clear:0000000000000046 .L0 
C:\Users\CYMR90~1\AppData\Local\Temp\ccx4ZXSQ.s:1573   .text.rcu_interrupt_flag_clear:0000000000000048 .L0 
C:\Users\CYMR90~1\AppData\Local\Temp\ccx4ZXSQ.s:1580   .text.rcu_interrupt_enable:0000000000000000 rcu_interrupt_enable
C:\Users\CYMR90~1\AppData\Local\Temp\ccx4ZXSQ.s:1583   .text.rcu_interrupt_enable:0000000000000000 .L0 
C:\Users\CYMR90~1\AppData\Local\Temp\ccx4ZXSQ.s:1584   .text.rcu_interrupt_enable:0000000000000000 .L0 
C:\Users\CYMR90~1\AppData\Local\Temp\ccx4ZXSQ.s:1585   .text.rcu_interrupt_enable:0000000000000002 .L0 
C:\Users\CYMR90~1\AppData\Local\Temp\ccx4ZXSQ.s:1587   .text.rcu_interrupt_enable:0000000000000004 .L0 
C:\Users\CYMR90~1\AppData\Local\Temp\ccx4ZXSQ.s:1589   .text.rcu_interrupt_enable:0000000000000006 .L0 
C:\Users\CYMR90~1\AppData\Local\Temp\ccx4ZXSQ.s:1592   .text.rcu_interrupt_enable:000000000000000a .L0 
C:\Users\CYMR90~1\AppData\Local\Temp\ccx4ZXSQ.s:1599   .text.rcu_interrupt_enable:000000000000001e .L0 
C:\Users\CYMR90~1\AppData\Local\Temp\ccx4ZXSQ.s:1604   .text.rcu_interrupt_enable:000000000000002a .L0 
C:\Users\CYMR90~1\AppData\Local\Temp\ccx4ZXSQ.s:1612   .text.rcu_interrupt_enable:0000000000000040 .L0 
C:\Users\CYMR90~1\AppData\Local\Temp\ccx4ZXSQ.s:1614   .text.rcu_interrupt_enable:0000000000000044 .L0 
C:\Users\CYMR90~1\AppData\Local\Temp\ccx4ZXSQ.s:1615   .text.rcu_interrupt_enable:0000000000000044 .L0 
C:\Users\CYMR90~1\AppData\Local\Temp\ccx4ZXSQ.s:1617   .text.rcu_interrupt_enable:0000000000000046 .L0 
C:\Users\CYMR90~1\AppData\Local\Temp\ccx4ZXSQ.s:1619   .text.rcu_interrupt_enable:0000000000000048 .L0 
C:\Users\CYMR90~1\AppData\Local\Temp\ccx4ZXSQ.s:1626   .text.rcu_interrupt_disable:0000000000000000 rcu_interrupt_disable
C:\Users\CYMR90~1\AppData\Local\Temp\ccx4ZXSQ.s:1629   .text.rcu_interrupt_disable:0000000000000000 .L0 
C:\Users\CYMR90~1\AppData\Local\Temp\ccx4ZXSQ.s:1630   .text.rcu_interrupt_disable:0000000000000000 .L0 
C:\Users\CYMR90~1\AppData\Local\Temp\ccx4ZXSQ.s:1631   .text.rcu_interrupt_disable:0000000000000002 .L0 
C:\Users\CYMR90~1\AppData\Local\Temp\ccx4ZXSQ.s:1633   .text.rcu_interrupt_disable:0000000000000004 .L0 
C:\Users\CYMR90~1\AppData\Local\Temp\ccx4ZXSQ.s:1635   .text.rcu_interrupt_disable:0000000000000006 .L0 
C:\Users\CYMR90~1\AppData\Local\Temp\ccx4ZXSQ.s:1638   .text.rcu_interrupt_disable:000000000000000a .L0 
C:\Users\CYMR90~1\AppData\Local\Temp\ccx4ZXSQ.s:1645   .text.rcu_interrupt_disable:000000000000001e .L0 
C:\Users\CYMR90~1\AppData\Local\Temp\ccx4ZXSQ.s:1650   .text.rcu_interrupt_disable:000000000000002a .L0 
C:\Users\CYMR90~1\AppData\Local\Temp\ccx4ZXSQ.s:1652   .text.rcu_interrupt_disable:000000000000002e .L0 
C:\Users\CYMR90~1\AppData\Local\Temp\ccx4ZXSQ.s:1660   .text.rcu_interrupt_disable:0000000000000044 .L0 
C:\Users\CYMR90~1\AppData\Local\Temp\ccx4ZXSQ.s:1662   .text.rcu_interrupt_disable:0000000000000048 .L0 
C:\Users\CYMR90~1\AppData\Local\Temp\ccx4ZXSQ.s:1663   .text.rcu_interrupt_disable:0000000000000048 .L0 
C:\Users\CYMR90~1\AppData\Local\Temp\ccx4ZXSQ.s:1665   .text.rcu_interrupt_disable:000000000000004a .L0 
C:\Users\CYMR90~1\AppData\Local\Temp\ccx4ZXSQ.s:1667   .text.rcu_interrupt_disable:000000000000004c .L0 
C:\Users\CYMR90~1\AppData\Local\Temp\ccx4ZXSQ.s:1674   .text.rcu_lxtal_drive_capability_config:0000000000000000 rcu_lxtal_drive_capability_config
C:\Users\CYMR90~1\AppData\Local\Temp\ccx4ZXSQ.s:1677   .text.rcu_lxtal_drive_capability_config:0000000000000000 .L0 
C:\Users\CYMR90~1\AppData\Local\Temp\ccx4ZXSQ.s:1678   .text.rcu_lxtal_drive_capability_config:0000000000000000 .L0 
C:\Users\CYMR90~1\AppData\Local\Temp\ccx4ZXSQ.s:1679   .text.rcu_lxtal_drive_capability_config:0000000000000002 .L0 
C:\Users\CYMR90~1\AppData\Local\Temp\ccx4ZXSQ.s:1681   .text.rcu_lxtal_drive_capability_config:0000000000000004 .L0 
C:\Users\CYMR90~1\AppData\Local\Temp\ccx4ZXSQ.s:1683   .text.rcu_lxtal_drive_capability_config:0000000000000006 .L0 
C:\Users\CYMR90~1\AppData\Local\Temp\ccx4ZXSQ.s:1686   .text.rcu_lxtal_drive_capability_config:000000000000000a .L0 
C:\Users\CYMR90~1\AppData\Local\Temp\ccx4ZXSQ.s:1689   .text.rcu_lxtal_drive_capability_config:0000000000000012 .L0 
C:\Users\CYMR90~1\AppData\Local\Temp\ccx4ZXSQ.s:1692   .text.rcu_lxtal_drive_capability_config:0000000000000018 .L0 
C:\Users\CYMR90~1\AppData\Local\Temp\ccx4ZXSQ.s:1696   .text.rcu_lxtal_drive_capability_config:0000000000000022 .L0 
C:\Users\CYMR90~1\AppData\Local\Temp\ccx4ZXSQ.s:1699   .text.rcu_lxtal_drive_capability_config:000000000000002a .L0 
C:\Users\CYMR90~1\AppData\Local\Temp\ccx4ZXSQ.s:1703   .text.rcu_lxtal_drive_capability_config:0000000000000034 .L0 
C:\Users\CYMR90~1\AppData\Local\Temp\ccx4ZXSQ.s:1705   .text.rcu_lxtal_drive_capability_config:0000000000000036 .L0 
C:\Users\CYMR90~1\AppData\Local\Temp\ccx4ZXSQ.s:1707   .text.rcu_lxtal_drive_capability_config:000000000000003a .L0 
C:\Users\CYMR90~1\AppData\Local\Temp\ccx4ZXSQ.s:1708   .text.rcu_lxtal_drive_capability_config:000000000000003a .L0 
C:\Users\CYMR90~1\AppData\Local\Temp\ccx4ZXSQ.s:1710   .text.rcu_lxtal_drive_capability_config:000000000000003c .L0 
C:\Users\CYMR90~1\AppData\Local\Temp\ccx4ZXSQ.s:1712   .text.rcu_lxtal_drive_capability_config:000000000000003e .L0 
C:\Users\CYMR90~1\AppData\Local\Temp\ccx4ZXSQ.s:1722   .text.rcu_osci_stab_wait:0000000000000000 .L0 
C:\Users\CYMR90~1\AppData\Local\Temp\ccx4ZXSQ.s:1723   .text.rcu_osci_stab_wait:0000000000000000 .L0 
C:\Users\CYMR90~1\AppData\Local\Temp\ccx4ZXSQ.s:1724   .text.rcu_osci_stab_wait:0000000000000002 .L0 
C:\Users\CYMR90~1\AppData\Local\Temp\ccx4ZXSQ.s:1727   .text.rcu_osci_stab_wait:0000000000000006 .L0 
C:\Users\CYMR90~1\AppData\Local\Temp\ccx4ZXSQ.s:1728   .text.rcu_osci_stab_wait:0000000000000006 .L0 
C:\Users\CYMR90~1\AppData\Local\Temp\ccx4ZXSQ.s:1730   .text.rcu_osci_stab_wait:0000000000000008 .L0 
C:\Users\CYMR90~1\AppData\Local\Temp\ccx4ZXSQ.s:1733   .text.rcu_osci_stab_wait:000000000000000c .L0 
C:\Users\CYMR90~1\AppData\Local\Temp\ccx4ZXSQ.s:1735   .text.rcu_osci_stab_wait:0000000000000010 .L0 
C:\Users\CYMR90~1\AppData\Local\Temp\ccx4ZXSQ.s:1737   .text.rcu_osci_stab_wait:0000000000000014 .L0 
C:\Users\CYMR90~1\AppData\Local\Temp\ccx4ZXSQ.s:1739   .text.rcu_osci_stab_wait:0000000000000018 .L0 
C:\Users\CYMR90~1\AppData\Local\Temp\ccx4ZXSQ.s:1767   .text.rcu_osci_stab_wait:0000000000000074 .L0 
C:\Users\CYMR90~1\AppData\Local\Temp\ccx4ZXSQ.s:1770   .text.rcu_osci_stab_wait:0000000000000076 .L0 
C:\Users\CYMR90~1\AppData\Local\Temp\ccx4ZXSQ.s:1774   .text.rcu_osci_stab_wait:0000000000000084 .L0 
C:\Users\CYMR90~1\AppData\Local\Temp\ccx4ZXSQ.s:1779   .text.rcu_osci_stab_wait:000000000000008e .L0 
C:\Users\CYMR90~1\AppData\Local\Temp\ccx4ZXSQ.s:1782   .text.rcu_osci_stab_wait:0000000000000094 .L0 
C:\Users\CYMR90~1\AppData\Local\Temp\ccx4ZXSQ.s:1788   .text.rcu_osci_stab_wait:00000000000000a0 .L0 
C:\Users\CYMR90~1\AppData\Local\Temp\ccx4ZXSQ.s:1792   .text.rcu_osci_stab_wait:00000000000000ac .L0 
C:\Users\CYMR90~1\AppData\Local\Temp\ccx4ZXSQ.s:1794   .text.rcu_osci_stab_wait:00000000000000b0 .L0 
C:\Users\CYMR90~1\AppData\Local\Temp\ccx4ZXSQ.s:1797   .text.rcu_osci_stab_wait:00000000000000b6 .L0 
C:\Users\CYMR90~1\AppData\Local\Temp\ccx4ZXSQ.s:1800   .text.rcu_osci_stab_wait:00000000000000b8 .L0 
C:\Users\CYMR90~1\AppData\Local\Temp\ccx4ZXSQ.s:1805   .text.rcu_osci_stab_wait:00000000000000ca .L0 
C:\Users\CYMR90~1\AppData\Local\Temp\ccx4ZXSQ.s:1810   .text.rcu_osci_stab_wait:00000000000000d4 .L0 
C:\Users\CYMR90~1\AppData\Local\Temp\ccx4ZXSQ.s:1813   .text.rcu_osci_stab_wait:00000000000000da .L0 
C:\Users\CYMR90~1\AppData\Local\Temp\ccx4ZXSQ.s:1819   .text.rcu_osci_stab_wait:00000000000000e8 .L0 
C:\Users\CYMR90~1\AppData\Local\Temp\ccx4ZXSQ.s:1824   .text.rcu_osci_stab_wait:00000000000000f8 .L0 
C:\Users\CYMR90~1\AppData\Local\Temp\ccx4ZXSQ.s:1826   .text.rcu_osci_stab_wait:00000000000000fa .L0 
C:\Users\CYMR90~1\AppData\Local\Temp\ccx4ZXSQ.s:1829   .text.rcu_osci_stab_wait:0000000000000100 .L0 
C:\Users\CYMR90~1\AppData\Local\Temp\ccx4ZXSQ.s:1832   .text.rcu_osci_stab_wait:0000000000000102 .L0 
C:\Users\CYMR90~1\AppData\Local\Temp\ccx4ZXSQ.s:1836   .text.rcu_osci_stab_wait:0000000000000110 .L0 
C:\Users\CYMR90~1\AppData\Local\Temp\ccx4ZXSQ.s:1841   .text.rcu_osci_stab_wait:000000000000011a .L0 
C:\Users\CYMR90~1\AppData\Local\Temp\ccx4ZXSQ.s:1844   .text.rcu_osci_stab_wait:0000000000000120 .L0 
C:\Users\CYMR90~1\AppData\Local\Temp\ccx4ZXSQ.s:1849   .text.rcu_osci_stab_wait:000000000000012c .L0 
C:\Users\CYMR90~1\AppData\Local\Temp\ccx4ZXSQ.s:1853   .text.rcu_osci_stab_wait:0000000000000138 .L0 
C:\Users\CYMR90~1\AppData\Local\Temp\ccx4ZXSQ.s:1855   .text.rcu_osci_stab_wait:000000000000013a .L0 
C:\Users\CYMR90~1\AppData\Local\Temp\ccx4ZXSQ.s:1858   .text.rcu_osci_stab_wait:0000000000000140 .L0 
C:\Users\CYMR90~1\AppData\Local\Temp\ccx4ZXSQ.s:1861   .text.rcu_osci_stab_wait:0000000000000142 .L0 
C:\Users\CYMR90~1\AppData\Local\Temp\ccx4ZXSQ.s:1866   .text.rcu_osci_stab_wait:0000000000000154 .L0 
C:\Users\CYMR90~1\AppData\Local\Temp\ccx4ZXSQ.s:1871   .text.rcu_osci_stab_wait:000000000000015e .L0 
C:\Users\CYMR90~1\AppData\Local\Temp\ccx4ZXSQ.s:1874   .text.rcu_osci_stab_wait:0000000000000164 .L0 
C:\Users\CYMR90~1\AppData\Local\Temp\ccx4ZXSQ.s:1880   .text.rcu_osci_stab_wait:0000000000000172 .L0 
C:\Users\CYMR90~1\AppData\Local\Temp\ccx4ZXSQ.s:1885   .text.rcu_osci_stab_wait:0000000000000182 .L0 
C:\Users\CYMR90~1\AppData\Local\Temp\ccx4ZXSQ.s:1887   .text.rcu_osci_stab_wait:0000000000000184 .L0 
C:\Users\CYMR90~1\AppData\Local\Temp\ccx4ZXSQ.s:1890   .text.rcu_osci_stab_wait:000000000000018a .L0 
C:\Users\CYMR90~1\AppData\Local\Temp\ccx4ZXSQ.s:1893   .text.rcu_osci_stab_wait:000000000000018c .L0 
C:\Users\CYMR90~1\AppData\Local\Temp\ccx4ZXSQ.s:1897   .text.rcu_osci_stab_wait:000000000000019a .L0 
C:\Users\CYMR90~1\AppData\Local\Temp\ccx4ZXSQ.s:1902   .text.rcu_osci_stab_wait:00000000000001a4 .L0 
C:\Users\CYMR90~1\AppData\Local\Temp\ccx4ZXSQ.s:1905   .text.rcu_osci_stab_wait:00000000000001aa .L0 
C:\Users\CYMR90~1\AppData\Local\Temp\ccx4ZXSQ.s:1911   .text.rcu_osci_stab_wait:00000000000001b8 .L0 
C:\Users\CYMR90~1\AppData\Local\Temp\ccx4ZXSQ.s:1915   .text.rcu_osci_stab_wait:00000000000001c4 .L0 
C:\Users\CYMR90~1\AppData\Local\Temp\ccx4ZXSQ.s:1917   .text.rcu_osci_stab_wait:00000000000001c6 .L0 
C:\Users\CYMR90~1\AppData\Local\Temp\ccx4ZXSQ.s:1920   .text.rcu_osci_stab_wait:00000000000001cc .L0 
C:\Users\CYMR90~1\AppData\Local\Temp\ccx4ZXSQ.s:1923   .text.rcu_osci_stab_wait:00000000000001ce .L0 
C:\Users\CYMR90~1\AppData\Local\Temp\ccx4ZXSQ.s:1927   .text.rcu_osci_stab_wait:00000000000001d2 .L0 
C:\Users\CYMR90~1\AppData\Local\Temp\ccx4ZXSQ.s:1931   .text.rcu_osci_stab_wait:00000000000001d6 .L0 
C:\Users\CYMR90~1\AppData\Local\Temp\ccx4ZXSQ.s:1935   .text.rcu_osci_stab_wait:00000000000001da .L0 
C:\Users\CYMR90~1\AppData\Local\Temp\ccx4ZXSQ.s:1939   .text.rcu_osci_stab_wait:00000000000001de .L0 
C:\Users\CYMR90~1\AppData\Local\Temp\ccx4ZXSQ.s:1943   .text.rcu_osci_stab_wait:00000000000001e2 .L0 
C:\Users\CYMR90~1\AppData\Local\Temp\ccx4ZXSQ.s:1946   .text.rcu_osci_stab_wait:00000000000001e4 .L0 
C:\Users\CYMR90~1\AppData\Local\Temp\ccx4ZXSQ.s:1948   .text.rcu_osci_stab_wait:00000000000001e8 .L0 
C:\Users\CYMR90~1\AppData\Local\Temp\ccx4ZXSQ.s:1950   .text.rcu_osci_stab_wait:00000000000001ec .L0 
C:\Users\CYMR90~1\AppData\Local\Temp\ccx4ZXSQ.s:1952   .text.rcu_osci_stab_wait:00000000000001ee .L0 
C:\Users\CYMR90~1\AppData\Local\Temp\ccx4ZXSQ.s:1953   .text.rcu_osci_stab_wait:00000000000001ee .L0 
C:\Users\CYMR90~1\AppData\Local\Temp\ccx4ZXSQ.s:1955   .text.rcu_osci_stab_wait:00000000000001f0 .L0 
C:\Users\CYMR90~1\AppData\Local\Temp\ccx4ZXSQ.s:1957   .text.rcu_osci_stab_wait:00000000000001f2 .L0 
C:\Users\CYMR90~1\AppData\Local\Temp\ccx4ZXSQ.s:1964   .text.rcu_osci_on:0000000000000000 rcu_osci_on
C:\Users\CYMR90~1\AppData\Local\Temp\ccx4ZXSQ.s:1967   .text.rcu_osci_on:0000000000000000 .L0 
C:\Users\CYMR90~1\AppData\Local\Temp\ccx4ZXSQ.s:1968   .text.rcu_osci_on:0000000000000000 .L0 
C:\Users\CYMR90~1\AppData\Local\Temp\ccx4ZXSQ.s:1969   .text.rcu_osci_on:0000000000000002 .L0 
C:\Users\CYMR90~1\AppData\Local\Temp\ccx4ZXSQ.s:1971   .text.rcu_osci_on:0000000000000004 .L0 
C:\Users\CYMR90~1\AppData\Local\Temp\ccx4ZXSQ.s:1973   .text.rcu_osci_on:0000000000000006 .L0 
C:\Users\CYMR90~1\AppData\Local\Temp\ccx4ZXSQ.s:1976   .text.rcu_osci_on:000000000000000a .L0 
C:\Users\CYMR90~1\AppData\Local\Temp\ccx4ZXSQ.s:1983   .text.rcu_osci_on:000000000000001e .L0 
C:\Users\CYMR90~1\AppData\Local\Temp\ccx4ZXSQ.s:1988   .text.rcu_osci_on:000000000000002a .L0 
C:\Users\CYMR90~1\AppData\Local\Temp\ccx4ZXSQ.s:1996   .text.rcu_osci_on:0000000000000040 .L0 
C:\Users\CYMR90~1\AppData\Local\Temp\ccx4ZXSQ.s:1998   .text.rcu_osci_on:0000000000000044 .L0 
C:\Users\CYMR90~1\AppData\Local\Temp\ccx4ZXSQ.s:1999   .text.rcu_osci_on:0000000000000044 .L0 
C:\Users\CYMR90~1\AppData\Local\Temp\ccx4ZXSQ.s:2001   .text.rcu_osci_on:0000000000000046 .L0 
C:\Users\CYMR90~1\AppData\Local\Temp\ccx4ZXSQ.s:2003   .text.rcu_osci_on:0000000000000048 .L0 
C:\Users\CYMR90~1\AppData\Local\Temp\ccx4ZXSQ.s:2010   .text.rcu_osci_off:0000000000000000 rcu_osci_off
C:\Users\CYMR90~1\AppData\Local\Temp\ccx4ZXSQ.s:2013   .text.rcu_osci_off:0000000000000000 .L0 
C:\Users\CYMR90~1\AppData\Local\Temp\ccx4ZXSQ.s:2014   .text.rcu_osci_off:0000000000000000 .L0 
C:\Users\CYMR90~1\AppData\Local\Temp\ccx4ZXSQ.s:2015   .text.rcu_osci_off:0000000000000002 .L0 
C:\Users\CYMR90~1\AppData\Local\Temp\ccx4ZXSQ.s:2017   .text.rcu_osci_off:0000000000000004 .L0 
C:\Users\CYMR90~1\AppData\Local\Temp\ccx4ZXSQ.s:2019   .text.rcu_osci_off:0000000000000006 .L0 
C:\Users\CYMR90~1\AppData\Local\Temp\ccx4ZXSQ.s:2022   .text.rcu_osci_off:000000000000000a .L0 
C:\Users\CYMR90~1\AppData\Local\Temp\ccx4ZXSQ.s:2029   .text.rcu_osci_off:000000000000001e .L0 
C:\Users\CYMR90~1\AppData\Local\Temp\ccx4ZXSQ.s:2034   .text.rcu_osci_off:000000000000002a .L0 
C:\Users\CYMR90~1\AppData\Local\Temp\ccx4ZXSQ.s:2036   .text.rcu_osci_off:000000000000002e .L0 
C:\Users\CYMR90~1\AppData\Local\Temp\ccx4ZXSQ.s:2044   .text.rcu_osci_off:0000000000000044 .L0 
C:\Users\CYMR90~1\AppData\Local\Temp\ccx4ZXSQ.s:2046   .text.rcu_osci_off:0000000000000048 .L0 
C:\Users\CYMR90~1\AppData\Local\Temp\ccx4ZXSQ.s:2047   .text.rcu_osci_off:0000000000000048 .L0 
C:\Users\CYMR90~1\AppData\Local\Temp\ccx4ZXSQ.s:2049   .text.rcu_osci_off:000000000000004a .L0 
C:\Users\CYMR90~1\AppData\Local\Temp\ccx4ZXSQ.s:2051   .text.rcu_osci_off:000000000000004c .L0 
C:\Users\CYMR90~1\AppData\Local\Temp\ccx4ZXSQ.s:2058   .text.rcu_osci_bypass_mode_enable:0000000000000000 rcu_osci_bypass_mode_enable
C:\Users\CYMR90~1\AppData\Local\Temp\ccx4ZXSQ.s:2061   .text.rcu_osci_bypass_mode_enable:0000000000000000 .L0 
C:\Users\CYMR90~1\AppData\Local\Temp\ccx4ZXSQ.s:2062   .text.rcu_osci_bypass_mode_enable:0000000000000000 .L0 
C:\Users\CYMR90~1\AppData\Local\Temp\ccx4ZXSQ.s:2063   .text.rcu_osci_bypass_mode_enable:0000000000000002 .L0 
C:\Users\CYMR90~1\AppData\Local\Temp\ccx4ZXSQ.s:2065   .text.rcu_osci_bypass_mode_enable:0000000000000004 .L0 
C:\Users\CYMR90~1\AppData\Local\Temp\ccx4ZXSQ.s:2067   .text.rcu_osci_bypass_mode_enable:0000000000000006 .L0 
C:\Users\CYMR90~1\AppData\Local\Temp\ccx4ZXSQ.s:2070   .text.rcu_osci_bypass_mode_enable:000000000000000a .L0 
C:\Users\CYMR90~1\AppData\Local\Temp\ccx4ZXSQ.s:2078   .text.rcu_osci_bypass_mode_enable:0000000000000022 .L0 
C:\Users\CYMR90~1\AppData\Local\Temp\ccx4ZXSQ.s:2081   .text.rcu_osci_bypass_mode_enable:0000000000000024 .L0 
C:\Users\CYMR90~1\AppData\Local\Temp\ccx4ZXSQ.s:2084   .text.rcu_osci_bypass_mode_enable:000000000000002c .L0 
C:\Users\CYMR90~1\AppData\Local\Temp\ccx4ZXSQ.s:2087   .text.rcu_osci_bypass_mode_enable:0000000000000032 .L0 
C:\Users\CYMR90~1\AppData\Local\Temp\ccx4ZXSQ.s:2097   .text.rcu_osci_bypass_mode_enable:000000000000004c .L0 
C:\Users\CYMR90~1\AppData\Local\Temp\ccx4ZXSQ.s:2100   .text.rcu_osci_bypass_mode_enable:0000000000000054 .L0 
C:\Users\CYMR90~1\AppData\Local\Temp\ccx4ZXSQ.s:2104   .text.rcu_osci_bypass_mode_enable:000000000000005e .L0 
C:\Users\CYMR90~1\AppData\Local\Temp\ccx4ZXSQ.s:2106   .text.rcu_osci_bypass_mode_enable:0000000000000060 .L0 
C:\Users\CYMR90~1\AppData\Local\Temp\ccx4ZXSQ.s:2109   .text.rcu_osci_bypass_mode_enable:0000000000000062 .L0 
C:\Users\CYMR90~1\AppData\Local\Temp\ccx4ZXSQ.s:2112   .text.rcu_osci_bypass_mode_enable:000000000000006a .L0 
C:\Users\CYMR90~1\AppData\Local\Temp\ccx4ZXSQ.s:2115   .text.rcu_osci_bypass_mode_enable:0000000000000070 .L0 
C:\Users\CYMR90~1\AppData\Local\Temp\ccx4ZXSQ.s:2123   .text.rcu_osci_bypass_mode_enable:0000000000000086 .L0 
C:\Users\CYMR90~1\AppData\Local\Temp\ccx4ZXSQ.s:2126   .text.rcu_osci_bypass_mode_enable:000000000000008e .L0 
C:\Users\CYMR90~1\AppData\Local\Temp\ccx4ZXSQ.s:2129   .text.rcu_osci_bypass_mode_enable:0000000000000096 .L0 
C:\Users\CYMR90~1\AppData\Local\Temp\ccx4ZXSQ.s:2131   .text.rcu_osci_bypass_mode_enable:0000000000000098 .L0 
C:\Users\CYMR90~1\AppData\Local\Temp\ccx4ZXSQ.s:2134   .text.rcu_osci_bypass_mode_enable:000000000000009a .L0 
C:\Users\CYMR90~1\AppData\Local\Temp\ccx4ZXSQ.s:2136   .text.rcu_osci_bypass_mode_enable:000000000000009e .L0 
C:\Users\CYMR90~1\AppData\Local\Temp\ccx4ZXSQ.s:2137   .text.rcu_osci_bypass_mode_enable:000000000000009e .L0 
C:\Users\CYMR90~1\AppData\Local\Temp\ccx4ZXSQ.s:2139   .text.rcu_osci_bypass_mode_enable:00000000000000a0 .L0 
C:\Users\CYMR90~1\AppData\Local\Temp\ccx4ZXSQ.s:2141   .text.rcu_osci_bypass_mode_enable:00000000000000a2 .L0 
C:\Users\CYMR90~1\AppData\Local\Temp\ccx4ZXSQ.s:2148   .text.rcu_osci_bypass_mode_disable:0000000000000000 rcu_osci_bypass_mode_disable
C:\Users\CYMR90~1\AppData\Local\Temp\ccx4ZXSQ.s:2151   .text.rcu_osci_bypass_mode_disable:0000000000000000 .L0 
C:\Users\CYMR90~1\AppData\Local\Temp\ccx4ZXSQ.s:2152   .text.rcu_osci_bypass_mode_disable:0000000000000000 .L0 
C:\Users\CYMR90~1\AppData\Local\Temp\ccx4ZXSQ.s:2153   .text.rcu_osci_bypass_mode_disable:0000000000000002 .L0 
C:\Users\CYMR90~1\AppData\Local\Temp\ccx4ZXSQ.s:2155   .text.rcu_osci_bypass_mode_disable:0000000000000004 .L0 
C:\Users\CYMR90~1\AppData\Local\Temp\ccx4ZXSQ.s:2157   .text.rcu_osci_bypass_mode_disable:0000000000000006 .L0 
C:\Users\CYMR90~1\AppData\Local\Temp\ccx4ZXSQ.s:2160   .text.rcu_osci_bypass_mode_disable:000000000000000a .L0 
C:\Users\CYMR90~1\AppData\Local\Temp\ccx4ZXSQ.s:2168   .text.rcu_osci_bypass_mode_disable:0000000000000022 .L0 
C:\Users\CYMR90~1\AppData\Local\Temp\ccx4ZXSQ.s:2171   .text.rcu_osci_bypass_mode_disable:0000000000000024 .L0 
C:\Users\CYMR90~1\AppData\Local\Temp\ccx4ZXSQ.s:2174   .text.rcu_osci_bypass_mode_disable:000000000000002c .L0 
C:\Users\CYMR90~1\AppData\Local\Temp\ccx4ZXSQ.s:2177   .text.rcu_osci_bypass_mode_disable:0000000000000032 .L0 
C:\Users\CYMR90~1\AppData\Local\Temp\ccx4ZXSQ.s:2187   .text.rcu_osci_bypass_mode_disable:000000000000004c .L0 
C:\Users\CYMR90~1\AppData\Local\Temp\ccx4ZXSQ.s:2190   .text.rcu_osci_bypass_mode_disable:0000000000000054 .L0 
C:\Users\CYMR90~1\AppData\Local\Temp\ccx4ZXSQ.s:2195   .text.rcu_osci_bypass_mode_disable:0000000000000060 .L0 
C:\Users\CYMR90~1\AppData\Local\Temp\ccx4ZXSQ.s:2197   .text.rcu_osci_bypass_mode_disable:0000000000000062 .L0 
C:\Users\CYMR90~1\AppData\Local\Temp\ccx4ZXSQ.s:2200   .text.rcu_osci_bypass_mode_disable:0000000000000064 .L0 
C:\Users\CYMR90~1\AppData\Local\Temp\ccx4ZXSQ.s:2203   .text.rcu_osci_bypass_mode_disable:000000000000006c .L0 
C:\Users\CYMR90~1\AppData\Local\Temp\ccx4ZXSQ.s:2206   .text.rcu_osci_bypass_mode_disable:0000000000000072 .L0 
C:\Users\CYMR90~1\AppData\Local\Temp\ccx4ZXSQ.s:2214   .text.rcu_osci_bypass_mode_disable:0000000000000088 .L0 
C:\Users\CYMR90~1\AppData\Local\Temp\ccx4ZXSQ.s:2217   .text.rcu_osci_bypass_mode_disable:0000000000000090 .L0 
C:\Users\CYMR90~1\AppData\Local\Temp\ccx4ZXSQ.s:2220   .text.rcu_osci_bypass_mode_disable:0000000000000096 .L0 
C:\Users\CYMR90~1\AppData\Local\Temp\ccx4ZXSQ.s:2222   .text.rcu_osci_bypass_mode_disable:0000000000000098 .L0 
C:\Users\CYMR90~1\AppData\Local\Temp\ccx4ZXSQ.s:2225   .text.rcu_osci_bypass_mode_disable:000000000000009a .L0 
C:\Users\CYMR90~1\AppData\Local\Temp\ccx4ZXSQ.s:2227   .text.rcu_osci_bypass_mode_disable:000000000000009e .L0 
C:\Users\CYMR90~1\AppData\Local\Temp\ccx4ZXSQ.s:2228   .text.rcu_osci_bypass_mode_disable:000000000000009e .L0 
C:\Users\CYMR90~1\AppData\Local\Temp\ccx4ZXSQ.s:2230   .text.rcu_osci_bypass_mode_disable:00000000000000a0 .L0 
C:\Users\CYMR90~1\AppData\Local\Temp\ccx4ZXSQ.s:2232   .text.rcu_osci_bypass_mode_disable:00000000000000a2 .L0 
C:\Users\CYMR90~1\AppData\Local\Temp\ccx4ZXSQ.s:2239   .text.rcu_rf_hxtal_clock_monitor_enable:0000000000000000 rcu_rf_hxtal_clock_monitor_enable
C:\Users\CYMR90~1\AppData\Local\Temp\ccx4ZXSQ.s:2242   .text.rcu_rf_hxtal_clock_monitor_enable:0000000000000000 .L0 
C:\Users\CYMR90~1\AppData\Local\Temp\ccx4ZXSQ.s:2243   .text.rcu_rf_hxtal_clock_monitor_enable:0000000000000000 .L0 
C:\Users\CYMR90~1\AppData\Local\Temp\ccx4ZXSQ.s:2244   .text.rcu_rf_hxtal_clock_monitor_enable:0000000000000002 .L0 
C:\Users\CYMR90~1\AppData\Local\Temp\ccx4ZXSQ.s:2246   .text.rcu_rf_hxtal_clock_monitor_enable:0000000000000004 .L0 
C:\Users\CYMR90~1\AppData\Local\Temp\ccx4ZXSQ.s:2248   .text.rcu_rf_hxtal_clock_monitor_enable:0000000000000006 .L0 
C:\Users\CYMR90~1\AppData\Local\Temp\ccx4ZXSQ.s:2250   .text.rcu_rf_hxtal_clock_monitor_enable:0000000000000006 .L0 
C:\Users\CYMR90~1\AppData\Local\Temp\ccx4ZXSQ.s:2259   .text.rcu_rf_hxtal_clock_monitor_enable:0000000000000020 .L0 
C:\Users\CYMR90~1\AppData\Local\Temp\ccx4ZXSQ.s:2261   .text.rcu_rf_hxtal_clock_monitor_enable:0000000000000024 .L0 
C:\Users\CYMR90~1\AppData\Local\Temp\ccx4ZXSQ.s:2262   .text.rcu_rf_hxtal_clock_monitor_enable:0000000000000024 .L0 
C:\Users\CYMR90~1\AppData\Local\Temp\ccx4ZXSQ.s:2264   .text.rcu_rf_hxtal_clock_monitor_enable:0000000000000026 .L0 
C:\Users\CYMR90~1\AppData\Local\Temp\ccx4ZXSQ.s:2266   .text.rcu_rf_hxtal_clock_monitor_enable:0000000000000028 .L0 
C:\Users\CYMR90~1\AppData\Local\Temp\ccx4ZXSQ.s:2273   .text.rcu_rf_hxtal_clock_monitor_disable:0000000000000000 rcu_rf_hxtal_clock_monitor_disable
C:\Users\CYMR90~1\AppData\Local\Temp\ccx4ZXSQ.s:2276   .text.rcu_rf_hxtal_clock_monitor_disable:0000000000000000 .L0 
C:\Users\CYMR90~1\AppData\Local\Temp\ccx4ZXSQ.s:2277   .text.rcu_rf_hxtal_clock_monitor_disable:0000000000000000 .L0 
C:\Users\CYMR90~1\AppData\Local\Temp\ccx4ZXSQ.s:2278   .text.rcu_rf_hxtal_clock_monitor_disable:0000000000000002 .L0 
C:\Users\CYMR90~1\AppData\Local\Temp\ccx4ZXSQ.s:2280   .text.rcu_rf_hxtal_clock_monitor_disable:0000000000000004 .L0 
C:\Users\CYMR90~1\AppData\Local\Temp\ccx4ZXSQ.s:2282   .text.rcu_rf_hxtal_clock_monitor_disable:0000000000000006 .L0 
C:\Users\CYMR90~1\AppData\Local\Temp\ccx4ZXSQ.s:2284   .text.rcu_rf_hxtal_clock_monitor_disable:0000000000000006 .L0 
C:\Users\CYMR90~1\AppData\Local\Temp\ccx4ZXSQ.s:2294   .text.rcu_rf_hxtal_clock_monitor_disable:0000000000000022 .L0 
C:\Users\CYMR90~1\AppData\Local\Temp\ccx4ZXSQ.s:2296   .text.rcu_rf_hxtal_clock_monitor_disable:0000000000000026 .L0 
C:\Users\CYMR90~1\AppData\Local\Temp\ccx4ZXSQ.s:2297   .text.rcu_rf_hxtal_clock_monitor_disable:0000000000000026 .L0 
C:\Users\CYMR90~1\AppData\Local\Temp\ccx4ZXSQ.s:2299   .text.rcu_rf_hxtal_clock_monitor_disable:0000000000000028 .L0 
C:\Users\CYMR90~1\AppData\Local\Temp\ccx4ZXSQ.s:2301   .text.rcu_rf_hxtal_clock_monitor_disable:000000000000002a .L0 
C:\Users\CYMR90~1\AppData\Local\Temp\ccx4ZXSQ.s:2308   .text.rcu_irc16m_adjust_value_set:0000000000000000 rcu_irc16m_adjust_value_set
C:\Users\CYMR90~1\AppData\Local\Temp\ccx4ZXSQ.s:2311   .text.rcu_irc16m_adjust_value_set:0000000000000000 .L0 
C:\Users\CYMR90~1\AppData\Local\Temp\ccx4ZXSQ.s:2312   .text.rcu_irc16m_adjust_value_set:0000000000000000 .L0 
C:\Users\CYMR90~1\AppData\Local\Temp\ccx4ZXSQ.s:2313   .text.rcu_irc16m_adjust_value_set:0000000000000002 .L0 
C:\Users\CYMR90~1\AppData\Local\Temp\ccx4ZXSQ.s:2315   .text.rcu_irc16m_adjust_value_set:0000000000000004 .L0 
C:\Users\CYMR90~1\AppData\Local\Temp\ccx4ZXSQ.s:2317   .text.rcu_irc16m_adjust_value_set:0000000000000006 .L0 
C:\Users\CYMR90~1\AppData\Local\Temp\ccx4ZXSQ.s:2320   .text.rcu_irc16m_adjust_value_set:000000000000000a .L0 
C:\Users\CYMR90~1\AppData\Local\Temp\ccx4ZXSQ.s:2323   .text.rcu_irc16m_adjust_value_set:0000000000000012 .L0 
C:\Users\CYMR90~1\AppData\Local\Temp\ccx4ZXSQ.s:2326   .text.rcu_irc16m_adjust_value_set:0000000000000018 .L0 
C:\Users\CYMR90~1\AppData\Local\Temp\ccx4ZXSQ.s:2330   .text.rcu_irc16m_adjust_value_set:0000000000000024 .L0 
C:\Users\CYMR90~1\AppData\Local\Temp\ccx4ZXSQ.s:2334   .text.rcu_irc16m_adjust_value_set:000000000000002e .L0 
C:\Users\CYMR90~1\AppData\Local\Temp\ccx4ZXSQ.s:2337   .text.rcu_irc16m_adjust_value_set:0000000000000036 .L0 
C:\Users\CYMR90~1\AppData\Local\Temp\ccx4ZXSQ.s:2340   .text.rcu_irc16m_adjust_value_set:000000000000003c .L0 
C:\Users\CYMR90~1\AppData\Local\Temp\ccx4ZXSQ.s:2342   .text.rcu_irc16m_adjust_value_set:000000000000003e .L0 
C:\Users\CYMR90~1\AppData\Local\Temp\ccx4ZXSQ.s:2344   .text.rcu_irc16m_adjust_value_set:0000000000000042 .L0 
C:\Users\CYMR90~1\AppData\Local\Temp\ccx4ZXSQ.s:2345   .text.rcu_irc16m_adjust_value_set:0000000000000042 .L0 
C:\Users\CYMR90~1\AppData\Local\Temp\ccx4ZXSQ.s:2347   .text.rcu_irc16m_adjust_value_set:0000000000000044 .L0 
C:\Users\CYMR90~1\AppData\Local\Temp\ccx4ZXSQ.s:2349   .text.rcu_irc16m_adjust_value_set:0000000000000046 .L0 
C:\Users\CYMR90~1\AppData\Local\Temp\ccx4ZXSQ.s:2356   .text.rcu_voltage_key_unlock:0000000000000000 rcu_voltage_key_unlock
C:\Users\CYMR90~1\AppData\Local\Temp\ccx4ZXSQ.s:2359   .text.rcu_voltage_key_unlock:0000000000000000 .L0 
C:\Users\CYMR90~1\AppData\Local\Temp\ccx4ZXSQ.s:2360   .text.rcu_voltage_key_unlock:0000000000000000 .L0 
C:\Users\CYMR90~1\AppData\Local\Temp\ccx4ZXSQ.s:2361   .text.rcu_voltage_key_unlock:0000000000000002 .L0 
C:\Users\CYMR90~1\AppData\Local\Temp\ccx4ZXSQ.s:2363   .text.rcu_voltage_key_unlock:0000000000000004 .L0 
C:\Users\CYMR90~1\AppData\Local\Temp\ccx4ZXSQ.s:2365   .text.rcu_voltage_key_unlock:0000000000000006 .L0 
C:\Users\CYMR90~1\AppData\Local\Temp\ccx4ZXSQ.s:2367   .text.rcu_voltage_key_unlock:0000000000000006 .L0 
C:\Users\CYMR90~1\AppData\Local\Temp\ccx4ZXSQ.s:2370   .text.rcu_voltage_key_unlock:000000000000000e .L0 
C:\Users\CYMR90~1\AppData\Local\Temp\ccx4ZXSQ.s:2374   .text.rcu_voltage_key_unlock:0000000000000018 .L0 
C:\Users\CYMR90~1\AppData\Local\Temp\ccx4ZXSQ.s:2376   .text.rcu_voltage_key_unlock:000000000000001c .L0 
C:\Users\CYMR90~1\AppData\Local\Temp\ccx4ZXSQ.s:2377   .text.rcu_voltage_key_unlock:000000000000001c .L0 
C:\Users\CYMR90~1\AppData\Local\Temp\ccx4ZXSQ.s:2379   .text.rcu_voltage_key_unlock:000000000000001e .L0 
C:\Users\CYMR90~1\AppData\Local\Temp\ccx4ZXSQ.s:2381   .text.rcu_voltage_key_unlock:0000000000000020 .L0 
C:\Users\CYMR90~1\AppData\Local\Temp\ccx4ZXSQ.s:2388   .text.rcu_deepsleep_voltage_set:0000000000000000 rcu_deepsleep_voltage_set
C:\Users\CYMR90~1\AppData\Local\Temp\ccx4ZXSQ.s:2391   .text.rcu_deepsleep_voltage_set:0000000000000000 .L0 
C:\Users\CYMR90~1\AppData\Local\Temp\ccx4ZXSQ.s:2392   .text.rcu_deepsleep_voltage_set:0000000000000000 .L0 
C:\Users\CYMR90~1\AppData\Local\Temp\ccx4ZXSQ.s:2393   .text.rcu_deepsleep_voltage_set:0000000000000002 .L0 
C:\Users\CYMR90~1\AppData\Local\Temp\ccx4ZXSQ.s:2395   .text.rcu_deepsleep_voltage_set:0000000000000004 .L0 
C:\Users\CYMR90~1\AppData\Local\Temp\ccx4ZXSQ.s:2397   .text.rcu_deepsleep_voltage_set:0000000000000006 .L0 
C:\Users\CYMR90~1\AppData\Local\Temp\ccx4ZXSQ.s:2400   .text.rcu_deepsleep_voltage_set:000000000000000a .L0 
C:\Users\CYMR90~1\AppData\Local\Temp\ccx4ZXSQ.s:2404   .text.rcu_deepsleep_voltage_set:0000000000000014 .L0 
C:\Users\CYMR90~1\AppData\Local\Temp\ccx4ZXSQ.s:2407   .text.rcu_deepsleep_voltage_set:000000000000001c .L0 
C:\Users\CYMR90~1\AppData\Local\Temp\ccx4ZXSQ.s:2410   .text.rcu_deepsleep_voltage_set:0000000000000022 .L0 
C:\Users\CYMR90~1\AppData\Local\Temp\ccx4ZXSQ.s:2412   .text.rcu_deepsleep_voltage_set:0000000000000026 .L0 
C:\Users\CYMR90~1\AppData\Local\Temp\ccx4ZXSQ.s:2413   .text.rcu_deepsleep_voltage_set:0000000000000026 .L0 
C:\Users\CYMR90~1\AppData\Local\Temp\ccx4ZXSQ.s:2415   .text.rcu_deepsleep_voltage_set:0000000000000028 .L0 
C:\Users\CYMR90~1\AppData\Local\Temp\ccx4ZXSQ.s:2417   .text.rcu_deepsleep_voltage_set:000000000000002a .L0 
C:\Users\CYMR90~1\AppData\Local\Temp\ccx4ZXSQ.s:2442   .text.rcu_clock_freq_get:0000000000000000 rcu_clock_freq_get
C:\Users\CYMR90~1\AppData\Local\Temp\ccx4ZXSQ.s:2445   .text.rcu_clock_freq_get:0000000000000000 .L0 
C:\Users\CYMR90~1\AppData\Local\Temp\ccx4ZXSQ.s:2446   .text.rcu_clock_freq_get:0000000000000000 .L0 
C:\Users\CYMR90~1\AppData\Local\Temp\ccx4ZXSQ.s:2447   .text.rcu_clock_freq_get:0000000000000002 .L0 
C:\Users\CYMR90~1\AppData\Local\Temp\ccx4ZXSQ.s:2449   .text.rcu_clock_freq_get:0000000000000004 .L0 
C:\Users\CYMR90~1\AppData\Local\Temp\ccx4ZXSQ.s:2451   .text.rcu_clock_freq_get:0000000000000006 .L0 
C:\Users\CYMR90~1\AppData\Local\Temp\ccx4ZXSQ.s:2454   .text.rcu_clock_freq_get:000000000000000a .L0 
C:\Users\CYMR90~1\AppData\Local\Temp\ccx4ZXSQ.s:2456   .text.rcu_clock_freq_get:000000000000000e .L0 
C:\Users\CYMR90~1\AppData\Local\Temp\ccx4ZXSQ.s:2458   .text.rcu_clock_freq_get:0000000000000012 .L0 
C:\Users\CYMR90~1\AppData\Local\Temp\ccx4ZXSQ.s:2460   .text.rcu_clock_freq_get:0000000000000016 .L0 
C:\Users\CYMR90~1\AppData\Local\Temp\ccx4ZXSQ.s:2470   .text.rcu_clock_freq_get:0000000000000036 .L0 
C:\Users\CYMR90~1\AppData\Local\Temp\ccx4ZXSQ.s:2475   .text.rcu_clock_freq_get:0000000000000046 .L0 
C:\Users\CYMR90~1\AppData\Local\Temp\ccx4ZXSQ.s:2480   .text.rcu_clock_freq_get:0000000000000056 .L0 
C:\Users\CYMR90~1\AppData\Local\Temp\ccx4ZXSQ.s:2490   .text.rcu_clock_freq_get:0000000000000076 .L0 
C:\Users\CYMR90~1\AppData\Local\Temp\ccx4ZXSQ.s:2495   .text.rcu_clock_freq_get:0000000000000082 .L0 
C:\Users\CYMR90~1\AppData\Local\Temp\ccx4ZXSQ.s:2498   .text.rcu_clock_freq_get:0000000000000088 .L0 
C:\Users\CYMR90~1\AppData\Local\Temp\ccx4ZXSQ.s:2512   .text.rcu_clock_freq_get:00000000000000ae .L0 
C:\Users\CYMR90~1\AppData\Local\Temp\ccx4ZXSQ.s:2516   .text.rcu_clock_freq_get:00000000000000ba .L0 
C:\Users\CYMR90~1\AppData\Local\Temp\ccx4ZXSQ.s:2519   .text.rcu_clock_freq_get:00000000000000bc .L0 
C:\Users\CYMR90~1\AppData\Local\Temp\ccx4ZXSQ.s:2523   .text.rcu_clock_freq_get:00000000000000c8 .L0 
C:\Users\CYMR90~1\AppData\Local\Temp\ccx4ZXSQ.s:2526   .text.rcu_clock_freq_get:00000000000000ca .L0 
C:\Users\CYMR90~1\AppData\Local\Temp\ccx4ZXSQ.s:2531   .text.rcu_clock_freq_get:00000000000000d6 .L0 
C:\Users\CYMR90~1\AppData\Local\Temp\ccx4ZXSQ.s:2534   .text.rcu_clock_freq_get:00000000000000dc .L0 
C:\Users\CYMR90~1\AppData\Local\Temp\ccx4ZXSQ.s:2540   .text.rcu_clock_freq_get:00000000000000ec .L0 
C:\Users\CYMR90~1\AppData\Local\Temp\ccx4ZXSQ.s:2543   .text.rcu_clock_freq_get:00000000000000f2 .L0 
C:\Users\CYMR90~1\AppData\Local\Temp\ccx4ZXSQ.s:2549   .text.rcu_clock_freq_get:0000000000000102 .L0 
C:\Users\CYMR90~1\AppData\Local\Temp\ccx4ZXSQ.s:2553   .text.rcu_clock_freq_get:000000000000010e .L0 
C:\Users\CYMR90~1\AppData\Local\Temp\ccx4ZXSQ.s:2556   .text.rcu_clock_freq_get:0000000000000110 .L0 
C:\Users\CYMR90~1\AppData\Local\Temp\ccx4ZXSQ.s:2560   .text.rcu_clock_freq_get:000000000000011c .L0 
C:\Users\CYMR90~1\AppData\Local\Temp\ccx4ZXSQ.s:2563   .text.rcu_clock_freq_get:000000000000011e .L0 
C:\Users\CYMR90~1\AppData\Local\Temp\ccx4ZXSQ.s:2568   .text.rcu_clock_freq_get:000000000000012a .L0 
C:\Users\CYMR90~1\AppData\Local\Temp\ccx4ZXSQ.s:2571   .text.rcu_clock_freq_get:0000000000000130 .L0 
C:\Users\CYMR90~1\AppData\Local\Temp\ccx4ZXSQ.s:2576   .text.rcu_clock_freq_get:000000000000013e .L0 
C:\Users\CYMR90~1\AppData\Local\Temp\ccx4ZXSQ.s:2578   .text.rcu_clock_freq_get:0000000000000142 .L0 
C:\Users\CYMR90~1\AppData\Local\Temp\ccx4ZXSQ.s:2583   .text.rcu_clock_freq_get:0000000000000152 .L0 
C:\Users\CYMR90~1\AppData\Local\Temp\ccx4ZXSQ.s:2588   .text.rcu_clock_freq_get:000000000000015e .L0 
C:\Users\CYMR90~1\AppData\Local\Temp\ccx4ZXSQ.s:2591   .text.rcu_clock_freq_get:0000000000000164 .L0 
C:\Users\CYMR90~1\AppData\Local\Temp\ccx4ZXSQ.s:2596   .text.rcu_clock_freq_get:0000000000000172 .L0 
C:\Users\CYMR90~1\AppData\Local\Temp\ccx4ZXSQ.s:2598   .text.rcu_clock_freq_get:0000000000000176 .L0 
C:\Users\CYMR90~1\AppData\Local\Temp\ccx4ZXSQ.s:2603   .text.rcu_clock_freq_get:0000000000000186 .L0 
C:\Users\CYMR90~1\AppData\Local\Temp\ccx4ZXSQ.s:2608   .text.rcu_clock_freq_get:0000000000000192 .L0 
C:\Users\CYMR90~1\AppData\Local\Temp\ccx4ZXSQ.s:2611   .text.rcu_clock_freq_get:0000000000000198 .L0 
C:\Users\CYMR90~1\AppData\Local\Temp\ccx4ZXSQ.s:2616   .text.rcu_clock_freq_get:00000000000001a6 .L0 
C:\Users\CYMR90~1\AppData\Local\Temp\ccx4ZXSQ.s:2618   .text.rcu_clock_freq_get:00000000000001aa .L0 
C:\Users\CYMR90~1\AppData\Local\Temp\ccx4ZXSQ.s:2646   .text.rcu_clock_freq_get:00000000000001e4 .L0 
C:\Users\CYMR90~1\AppData\Local\Temp\ccx4ZXSQ.s:2649   .text.rcu_clock_freq_get:00000000000001ec .L0 
C:\Users\CYMR90~1\AppData\Local\Temp\ccx4ZXSQ.s:2652   .text.rcu_clock_freq_get:00000000000001ee .L0 
C:\Users\CYMR90~1\AppData\Local\Temp\ccx4ZXSQ.s:2655   .text.rcu_clock_freq_get:00000000000001f6 .L0 
C:\Users\CYMR90~1\AppData\Local\Temp\ccx4ZXSQ.s:2658   .text.rcu_clock_freq_get:00000000000001f8 .L0 
C:\Users\CYMR90~1\AppData\Local\Temp\ccx4ZXSQ.s:2661   .text.rcu_clock_freq_get:0000000000000200 .L0 
C:\Users\CYMR90~1\AppData\Local\Temp\ccx4ZXSQ.s:2664   .text.rcu_clock_freq_get:0000000000000202 .L0 
C:\Users\CYMR90~1\AppData\Local\Temp\ccx4ZXSQ.s:2667   .text.rcu_clock_freq_get:000000000000020a .L0 
C:\Users\CYMR90~1\AppData\Local\Temp\ccx4ZXSQ.s:2670   .text.rcu_clock_freq_get:000000000000020c .L0 
C:\Users\CYMR90~1\AppData\Local\Temp\ccx4ZXSQ.s:2674   .text.rcu_clock_freq_get:0000000000000216 .L0 
C:\Users\CYMR90~1\AppData\Local\Temp\ccx4ZXSQ.s:2677   .text.rcu_clock_freq_get:000000000000021c .L0 
C:\Users\CYMR90~1\AppData\Local\Temp\ccx4ZXSQ.s:2679   .text.rcu_clock_freq_get:000000000000021e .L0 
C:\Users\CYMR90~1\AppData\Local\Temp\ccx4ZXSQ.s:2684   .text.rcu_clock_freq_get:0000000000000228 .L0 
C:\Users\CYMR90~1\AppData\Local\Temp\ccx4ZXSQ.s:2688   .text.rcu_clock_freq_get:0000000000000232 .L0 
C:\Users\CYMR90~1\AppData\Local\Temp\ccx4ZXSQ.s:2691   .text.rcu_clock_freq_get:0000000000000238 .L0 
C:\Users\CYMR90~1\AppData\Local\Temp\ccx4ZXSQ.s:2694   .text.rcu_clock_freq_get:0000000000000240 .L0 
C:\Users\CYMR90~1\AppData\Local\Temp\ccx4ZXSQ.s:2699   .text.rcu_clock_freq_get:000000000000024a .L0 
C:\Users\CYMR90~1\AppData\Local\Temp\ccx4ZXSQ.s:2703   .text.rcu_clock_freq_get:0000000000000254 .L0 
C:\Users\CYMR90~1\AppData\Local\Temp\ccx4ZXSQ.s:2706   .text.rcu_clock_freq_get:000000000000025a .L0 
C:\Users\CYMR90~1\AppData\Local\Temp\ccx4ZXSQ.s:2709   .text.rcu_clock_freq_get:0000000000000262 .L0 
C:\Users\CYMR90~1\AppData\Local\Temp\ccx4ZXSQ.s:2714   .text.rcu_clock_freq_get:000000000000026a .L0 
C:\Users\CYMR90~1\AppData\Local\Temp\ccx4ZXSQ.s:2718   .text.rcu_clock_freq_get:0000000000000274 .L0 
C:\Users\CYMR90~1\AppData\Local\Temp\ccx4ZXSQ.s:2721   .text.rcu_clock_freq_get:000000000000027a .L0 
C:\Users\CYMR90~1\AppData\Local\Temp\ccx4ZXSQ.s:2724   .text.rcu_clock_freq_get:0000000000000282 .L0 
C:\Users\CYMR90~1\AppData\Local\Temp\ccx4ZXSQ.s:2729   .text.rcu_clock_freq_get:000000000000028e .L0 
C:\Users\CYMR90~1\AppData\Local\Temp\ccx4ZXSQ.s:2732   .text.rcu_clock_freq_get:0000000000000296 .L0 
C:\Users\CYMR90~1\AppData\Local\Temp\ccx4ZXSQ.s:2735   .text.rcu_clock_freq_get:0000000000000298 .L0 
C:\Users\CYMR90~1\AppData\Local\Temp\ccx4ZXSQ.s:2739   .text.rcu_clock_freq_get:00000000000002a2 .L0 
C:\Users\CYMR90~1\AppData\Local\Temp\ccx4ZXSQ.s:2742   .text.rcu_clock_freq_get:00000000000002a8 .L0 
C:\Users\CYMR90~1\AppData\Local\Temp\ccx4ZXSQ.s:2744   .text.rcu_clock_freq_get:00000000000002aa .L0 
C:\Users\CYMR90~1\AppData\Local\Temp\ccx4ZXSQ.s:2749   .text.rcu_clock_freq_get:00000000000002b4 .L0 
C:\Users\CYMR90~1\AppData\Local\Temp\ccx4ZXSQ.s:2753   .text.rcu_clock_freq_get:00000000000002be .L0 
C:\Users\CYMR90~1\AppData\Local\Temp\ccx4ZXSQ.s:2756   .text.rcu_clock_freq_get:00000000000002c4 .L0 
C:\Users\CYMR90~1\AppData\Local\Temp\ccx4ZXSQ.s:2759   .text.rcu_clock_freq_get:00000000000002cc .L0 
C:\Users\CYMR90~1\AppData\Local\Temp\ccx4ZXSQ.s:2764   .text.rcu_clock_freq_get:00000000000002d6 .L0 
C:\Users\CYMR90~1\AppData\Local\Temp\ccx4ZXSQ.s:2768   .text.rcu_clock_freq_get:00000000000002e0 .L0 
C:\Users\CYMR90~1\AppData\Local\Temp\ccx4ZXSQ.s:2771   .text.rcu_clock_freq_get:00000000000002e6 .L0 
C:\Users\CYMR90~1\AppData\Local\Temp\ccx4ZXSQ.s:2774   .text.rcu_clock_freq_get:00000000000002ee .L0 
C:\Users\CYMR90~1\AppData\Local\Temp\ccx4ZXSQ.s:2779   .text.rcu_clock_freq_get:00000000000002fa .L0 
C:\Users\CYMR90~1\AppData\Local\Temp\ccx4ZXSQ.s:2782   .text.rcu_clock_freq_get:0000000000000302 .L0 
C:\Users\CYMR90~1\AppData\Local\Temp\ccx4ZXSQ.s:2785   .text.rcu_clock_freq_get:0000000000000304 .L0 
C:\Users\CYMR90~1\AppData\Local\Temp\ccx4ZXSQ.s:2788   .text.rcu_clock_freq_get:0000000000000306 .L0 
C:\Users\CYMR90~1\AppData\Local\Temp\ccx4ZXSQ.s:2790   .text.rcu_clock_freq_get:000000000000030a .L0 
C:\Users\CYMR90~1\AppData\Local\Temp\ccx4ZXSQ.s:2792   .text.rcu_clock_freq_get:000000000000030e .L0 
C:\Users\CYMR90~1\AppData\Local\Temp\ccx4ZXSQ.s:2793   .text.rcu_clock_freq_get:000000000000030e .L0 
C:\Users\CYMR90~1\AppData\Local\Temp\ccx4ZXSQ.s:2795   .text.rcu_clock_freq_get:0000000000000310 .L0 
C:\Users\CYMR90~1\AppData\Local\Temp\ccx4ZXSQ.s:2797   .text.rcu_clock_freq_get:0000000000000312 .L0 
C:\Users\CYMR90~1\AppData\Local\Temp\ccx4ZXSQ.s:108    .text.rcu_deinit:00000000000000cc .L0 
C:\Users\CYMR90~1\AppData\Local\Temp\ccx4ZXSQ.s:141    .text.rcu_irc16m_dfs_to_rf_enable:0000000000000026 .L0 
C:\Users\CYMR90~1\AppData\Local\Temp\ccx4ZXSQ.s:174    .text.rcu_irc16m_dfs_to_rf_disable:0000000000000024 .L0 
C:\Users\CYMR90~1\AppData\Local\Temp\ccx4ZXSQ.s:220    .text.rcu_periph_clock_enable:0000000000000048 .L0 
C:\Users\CYMR90~1\AppData\Local\Temp\ccx4ZXSQ.s:268    .text.rcu_periph_clock_disable:000000000000004c .L0 
C:\Users\CYMR90~1\AppData\Local\Temp\ccx4ZXSQ.s:302    .text.rcu_fmc_clock_sleep_enable:0000000000000026 .L0 
C:\Users\CYMR90~1\AppData\Local\Temp\ccx4ZXSQ.s:337    .text.rcu_fmc_clock_sleep_disable:0000000000000028 .L0 
C:\Users\CYMR90~1\AppData\Local\Temp\ccx4ZXSQ.s:383    .text.rcu_periph_reset_enable:0000000000000048 .L0 
C:\Users\CYMR90~1\AppData\Local\Temp\ccx4ZXSQ.s:431    .text.rcu_periph_reset_disable:000000000000004c .L0 
C:\Users\CYMR90~1\AppData\Local\Temp\ccx4ZXSQ.s:465    .text.rcu_bkp_reset_enable:0000000000000026 .L0 
C:\Users\CYMR90~1\AppData\Local\Temp\ccx4ZXSQ.s:500    .text.rcu_bkp_reset_disable:0000000000000028 .L0 
C:\Users\CYMR90~1\AppData\Local\Temp\ccx4ZXSQ.s:534    .text.rcu_rfpll_cal_enable:0000000000000026 .L0 
C:\Users\CYMR90~1\AppData\Local\Temp\ccx4ZXSQ.s:569    .text.rcu_rfpll_cal_disable:0000000000000028 .L0 
C:\Users\CYMR90~1\AppData\Local\Temp\ccx4ZXSQ.s:615    .text.rcu_control_unit_powerup:0000000000000048 .L0 
C:\Users\CYMR90~1\AppData\Local\Temp\ccx4ZXSQ.s:663    .text.rcu_control_unit_powerdown:000000000000004c .L0 
C:\Users\CYMR90~1\AppData\Local\Temp\ccx4ZXSQ.s:708    .text.rcu_system_clock_source_config:000000000000003e .L0 
C:\Users\CYMR90~1\AppData\Local\Temp\ccx4ZXSQ.s:738    .text.rcu_system_clock_source_get:000000000000001a .L0 
C:\Users\CYMR90~1\AppData\Local\Temp\ccx4ZXSQ.s:783    .text.rcu_ahb_clock_config:0000000000000040 .L0 
C:\Users\CYMR90~1\AppData\Local\Temp\ccx4ZXSQ.s:830    .text.rcu_apb1_clock_config:0000000000000044 .L0 
C:\Users\CYMR90~1\AppData\Local\Temp\ccx4ZXSQ.s:877    .text.rcu_apb2_clock_config:0000000000000042 .L0 
C:\Users\CYMR90~1\AppData\Local\Temp\ccx4ZXSQ.s:928    .text.rcu_ckout0_config:0000000000000050 .L0 
C:\Users\CYMR90~1\AppData\Local\Temp\ccx4ZXSQ.s:979    .text.rcu_ckout1_config:0000000000000050 .L0 
C:\Users\CYMR90~1\AppData\Local\Temp\ccx4ZXSQ.s:1024   .text.rcu_plldig_config:0000000000000048 .L0 
C:\Users\CYMR90~1\AppData\Local\Temp\ccx4ZXSQ.s:1071   .text.rcu_plldigdiv_sys_config:0000000000000044 .L0 
C:\Users\CYMR90~1\AppData\Local\Temp\ccx4ZXSQ.s:1116   .text.rcu_rtc_clock_config:0000000000000040 .L0 
C:\Users\CYMR90~1\AppData\Local\Temp\ccx4ZXSQ.s:1163   .text.rcu_rtc_div_config:0000000000000044 .L0 
C:\Users\CYMR90~1\AppData\Local\Temp\ccx4ZXSQ.s:1208   .text.rcu_trng_div_config:0000000000000040 .L0 
C:\Users\CYMR90~1\AppData\Local\Temp\ccx4ZXSQ.s:1255   .text.rcu_i2c0_clock_config:0000000000000044 .L0 
C:\Users\CYMR90~1\AppData\Local\Temp\ccx4ZXSQ.s:1302   .text.rcu_usart0_clock_config:0000000000000044 .L0 
C:\Users\CYMR90~1\AppData\Local\Temp\ccx4ZXSQ.s:1347   .text.rcu_irc16m_div_config:0000000000000040 .L0 
C:\Users\CYMR90~1\AppData\Local\Temp\ccx4ZXSQ.s:1400   .text.rcu_timer_clock_prescaler_config:0000000000000056 .L0 
C:\Users\CYMR90~1\AppData\Local\Temp\ccx4ZXSQ.s:1448   .text.rcu_flag_get:000000000000003a .L0 
C:\Users\CYMR90~1\AppData\Local\Temp\ccx4ZXSQ.s:1482   .text.rcu_all_reset_flag_clear:0000000000000028 .L0 
C:\Users\CYMR90~1\AppData\Local\Temp\ccx4ZXSQ.s:1530   .text.rcu_interrupt_flag_get:000000000000003a .L0 
C:\Users\CYMR90~1\AppData\Local\Temp\ccx4ZXSQ.s:1576   .text.rcu_interrupt_flag_clear:0000000000000048 .L0 
C:\Users\CYMR90~1\AppData\Local\Temp\ccx4ZXSQ.s:1622   .text.rcu_interrupt_enable:0000000000000048 .L0 
C:\Users\CYMR90~1\AppData\Local\Temp\ccx4ZXSQ.s:1670   .text.rcu_interrupt_disable:000000000000004c .L0 
C:\Users\CYMR90~1\AppData\Local\Temp\ccx4ZXSQ.s:1715   .text.rcu_lxtal_drive_capability_config:000000000000003e .L0 
C:\Users\CYMR90~1\AppData\Local\Temp\ccx4ZXSQ.s:1960   .text.rcu_osci_stab_wait:00000000000001f2 .L0 
C:\Users\CYMR90~1\AppData\Local\Temp\ccx4ZXSQ.s:2006   .text.rcu_osci_on:0000000000000048 .L0 
C:\Users\CYMR90~1\AppData\Local\Temp\ccx4ZXSQ.s:2054   .text.rcu_osci_off:000000000000004c .L0 
C:\Users\CYMR90~1\AppData\Local\Temp\ccx4ZXSQ.s:2144   .text.rcu_osci_bypass_mode_enable:00000000000000a2 .L0 
C:\Users\CYMR90~1\AppData\Local\Temp\ccx4ZXSQ.s:2235   .text.rcu_osci_bypass_mode_disable:00000000000000a2 .L0 
C:\Users\CYMR90~1\AppData\Local\Temp\ccx4ZXSQ.s:2269   .text.rcu_rf_hxtal_clock_monitor_enable:0000000000000028 .L0 
C:\Users\CYMR90~1\AppData\Local\Temp\ccx4ZXSQ.s:2304   .text.rcu_rf_hxtal_clock_monitor_disable:000000000000002a .L0 
C:\Users\CYMR90~1\AppData\Local\Temp\ccx4ZXSQ.s:2352   .text.rcu_irc16m_adjust_value_set:0000000000000046 .L0 
C:\Users\CYMR90~1\AppData\Local\Temp\ccx4ZXSQ.s:2384   .text.rcu_voltage_key_unlock:0000000000000020 .L0 
C:\Users\CYMR90~1\AppData\Local\Temp\ccx4ZXSQ.s:2420   .text.rcu_deepsleep_voltage_set:000000000000002a .L0 
C:\Users\CYMR90~1\AppData\Local\Temp\ccx4ZXSQ.s:2800   .text.rcu_clock_freq_get:0000000000000312 .L0 
                     .debug_frame:0000000000000000 .L0 
C:\Users\CYMR90~1\AppData\Local\Temp\ccx4ZXSQ.s:1378   .text.rcu_timer_clock_prescaler_config:0000000000000034 .L33
C:\Users\CYMR90~1\AppData\Local\Temp\ccx4ZXSQ.s:1388   .text.rcu_timer_clock_prescaler_config:000000000000004e .L35
C:\Users\CYMR90~1\AppData\Local\Temp\ccx4ZXSQ.s:1433   .text.rcu_flag_get:0000000000000030 .L37
C:\Users\CYMR90~1\AppData\Local\Temp\ccx4ZXSQ.s:1436   .text.rcu_flag_get:0000000000000032 .L38
C:\Users\CYMR90~1\AppData\Local\Temp\ccx4ZXSQ.s:1515   .text.rcu_interrupt_flag_get:0000000000000030 .L41
C:\Users\CYMR90~1\AppData\Local\Temp\ccx4ZXSQ.s:1518   .text.rcu_interrupt_flag_get:0000000000000032 .L42
C:\Users\CYMR90~1\AppData\Local\Temp\ccx4ZXSQ.s:1869   .text.rcu_osci_stab_wait:000000000000015e .L66
C:\Users\CYMR90~1\AppData\Local\Temp\ccx4ZXSQ.s:1921   .text.rcu_osci_stab_wait:00000000000001ce .L75
C:\Users\CYMR90~1\AppData\Local\Temp\ccx4ZXSQ.s:1808   .text.rcu_osci_stab_wait:00000000000000d4 .L58
C:\Users\CYMR90~1\AppData\Local\Temp\ccx4ZXSQ.s:1900   .text.rcu_osci_stab_wait:00000000000001a4 .L70
C:\Users\CYMR90~1\AppData\Local\Temp\ccx4ZXSQ.s:1839   .text.rcu_osci_stab_wait:000000000000011a .L62
C:\Users\CYMR90~1\AppData\Local\Temp\ccx4ZXSQ.s:1777   .text.rcu_osci_stab_wait:000000000000008e .L53
C:\Users\CYMR90~1\AppData\Local\Temp\ccx4ZXSQ.s:1786   .text.rcu_osci_stab_wait:00000000000000a0 .L54
C:\Users\CYMR90~1\AppData\Local\Temp\ccx4ZXSQ.s:1768   .text.rcu_osci_stab_wait:0000000000000076 .L55
C:\Users\CYMR90~1\AppData\Local\Temp\ccx4ZXSQ.s:1925   .text.rcu_osci_stab_wait:00000000000001d2 .L76
C:\Users\CYMR90~1\AppData\Local\Temp\ccx4ZXSQ.s:1817   .text.rcu_osci_stab_wait:00000000000000e8 .L59
C:\Users\CYMR90~1\AppData\Local\Temp\ccx4ZXSQ.s:1798   .text.rcu_osci_stab_wait:00000000000000b8 .L60
C:\Users\CYMR90~1\AppData\Local\Temp\ccx4ZXSQ.s:1929   .text.rcu_osci_stab_wait:00000000000001d6 .L77
C:\Users\CYMR90~1\AppData\Local\Temp\ccx4ZXSQ.s:1847   .text.rcu_osci_stab_wait:000000000000012c .L63
C:\Users\CYMR90~1\AppData\Local\Temp\ccx4ZXSQ.s:1830   .text.rcu_osci_stab_wait:0000000000000102 .L64
C:\Users\CYMR90~1\AppData\Local\Temp\ccx4ZXSQ.s:1933   .text.rcu_osci_stab_wait:00000000000001da .L78
C:\Users\CYMR90~1\AppData\Local\Temp\ccx4ZXSQ.s:1878   .text.rcu_osci_stab_wait:0000000000000172 .L67
C:\Users\CYMR90~1\AppData\Local\Temp\ccx4ZXSQ.s:1859   .text.rcu_osci_stab_wait:0000000000000142 .L68
C:\Users\CYMR90~1\AppData\Local\Temp\ccx4ZXSQ.s:1937   .text.rcu_osci_stab_wait:00000000000001de .L79
C:\Users\CYMR90~1\AppData\Local\Temp\ccx4ZXSQ.s:1909   .text.rcu_osci_stab_wait:00000000000001b8 .L71
C:\Users\CYMR90~1\AppData\Local\Temp\ccx4ZXSQ.s:1891   .text.rcu_osci_stab_wait:000000000000018c .L72
C:\Users\CYMR90~1\AppData\Local\Temp\ccx4ZXSQ.s:1941   .text.rcu_osci_stab_wait:00000000000001e2 .L80
C:\Users\CYMR90~1\AppData\Local\Temp\ccx4ZXSQ.s:1944   .text.rcu_osci_stab_wait:00000000000001e4 .L57
C:\Users\CYMR90~1\AppData\Local\Temp\ccx4ZXSQ.s:2079   .text.rcu_osci_bypass_mode_enable:0000000000000024 .L84
C:\Users\CYMR90~1\AppData\Local\Temp\ccx4ZXSQ.s:2107   .text.rcu_osci_bypass_mode_enable:0000000000000062 .L85
C:\Users\CYMR90~1\AppData\Local\Temp\ccx4ZXSQ.s:2132   .text.rcu_osci_bypass_mode_enable:000000000000009a .L87
C:\Users\CYMR90~1\AppData\Local\Temp\ccx4ZXSQ.s:2169   .text.rcu_osci_bypass_mode_disable:0000000000000024 .L89
C:\Users\CYMR90~1\AppData\Local\Temp\ccx4ZXSQ.s:2198   .text.rcu_osci_bypass_mode_disable:0000000000000064 .L90
C:\Users\CYMR90~1\AppData\Local\Temp\ccx4ZXSQ.s:2223   .text.rcu_osci_bypass_mode_disable:000000000000009a .L92
C:\Users\CYMR90~1\AppData\Local\Temp\ccx4ZXSQ.s:2422   .rodata:0000000000000000 .LC1
C:\Users\CYMR90~1\AppData\Local\Temp\ccx4ZXSQ.s:2460   .text.rcu_clock_freq_get:0000000000000016 .L0 
C:\Users\CYMR90~1\AppData\Local\Temp\ccx4ZXSQ.s:2433   .rodata:0000000000000010 .LC0
C:\Users\CYMR90~1\AppData\Local\Temp\ccx4ZXSQ.s:2480   .text.rcu_clock_freq_get:0000000000000056 .L0 
C:\Users\CYMR90~1\AppData\Local\Temp\ccx4ZXSQ.s:2636   .rodata.rcu_clock_freq_get:0000000000000000 .L106
C:\Users\CYMR90~1\AppData\Local\Temp\ccx4ZXSQ.s:2627   .text.rcu_clock_freq_get:00000000000001cc .L0 
C:\Users\CYMR90~1\AppData\Local\Temp\ccx4ZXSQ.s:2630   .text.rcu_clock_freq_get:00000000000001d8 .L0 
C:\Users\CYMR90~1\AppData\Local\Temp\ccx4ZXSQ.s:2524   .text.rcu_clock_freq_get:00000000000000ca .L99
C:\Users\CYMR90~1\AppData\Local\Temp\ccx4ZXSQ.s:2554   .text.rcu_clock_freq_get:0000000000000110 .L100
C:\Users\CYMR90~1\AppData\Local\Temp\ccx4ZXSQ.s:2510   .text.rcu_clock_freq_get:00000000000000ae .L101
C:\Users\CYMR90~1\AppData\Local\Temp\ccx4ZXSQ.s:2517   .text.rcu_clock_freq_get:00000000000000bc .L102
C:\Users\CYMR90~1\AppData\Local\Temp\ccx4ZXSQ.s:2561   .text.rcu_clock_freq_get:000000000000011e .L103
C:\Users\CYMR90~1\AppData\Local\Temp\ccx4ZXSQ.s:2783   .text.rcu_clock_freq_get:0000000000000304 .L121
C:\Users\CYMR90~1\AppData\Local\Temp\ccx4ZXSQ.s:2786   .text.rcu_clock_freq_get:0000000000000306 .L112
C:\Users\CYMR90~1\AppData\Local\Temp\ccx4ZXSQ.s:2682   .text.rcu_clock_freq_get:0000000000000228 .L113
C:\Users\CYMR90~1\AppData\Local\Temp\ccx4ZXSQ.s:2727   .text.rcu_clock_freq_get:000000000000028e .L114
C:\Users\CYMR90~1\AppData\Local\Temp\ccx4ZXSQ.s:2697   .text.rcu_clock_freq_get:000000000000024a .L115
C:\Users\CYMR90~1\AppData\Local\Temp\ccx4ZXSQ.s:2712   .text.rcu_clock_freq_get:000000000000026a .L116
C:\Users\CYMR90~1\AppData\Local\Temp\ccx4ZXSQ.s:2747   .text.rcu_clock_freq_get:00000000000002b4 .L117
C:\Users\CYMR90~1\AppData\Local\Temp\ccx4ZXSQ.s:2777   .text.rcu_clock_freq_get:00000000000002fa .L118
C:\Users\CYMR90~1\AppData\Local\Temp\ccx4ZXSQ.s:2762   .text.rcu_clock_freq_get:00000000000002d6 .L119
C:\Users\CYMR90~1\AppData\Local\Temp\ccx4ZXSQ.s:2644   .text.rcu_clock_freq_get:00000000000001e4 .L111
C:\Users\CYMR90~1\AppData\Local\Temp\ccx4ZXSQ.s:2650   .text.rcu_clock_freq_get:00000000000001ee .L110
C:\Users\CYMR90~1\AppData\Local\Temp\ccx4ZXSQ.s:2656   .text.rcu_clock_freq_get:00000000000001f8 .L109
C:\Users\CYMR90~1\AppData\Local\Temp\ccx4ZXSQ.s:2662   .text.rcu_clock_freq_get:0000000000000202 .L108
C:\Users\CYMR90~1\AppData\Local\Temp\ccx4ZXSQ.s:2668   .text.rcu_clock_freq_get:000000000000020c .L107
C:\Users\CYMR90~1\AppData\Local\Temp\ccx4ZXSQ.s:2733   .text.rcu_clock_freq_get:0000000000000298 .L105
C:\Users\CYMR90~1\AppData\Local\Temp\ccx4ZXSQ.s:4612   .debug_abbrev:0000000000000000 .Ldebug_abbrev0
C:\Users\CYMR90~1\AppData\Local\Temp\ccx4ZXSQ.s:25763  .debug_str:000000000000b29b .LASF5796
C:\Users\CYMR90~1\AppData\Local\Temp\ccx4ZXSQ.s:29974  .debug_str:000000000001bea1 .LASF5797
C:\Users\CYMR90~1\AppData\Local\Temp\ccx4ZXSQ.s:26087  .debug_str:000000000000c82c .LASF5798
C:\Users\CYMR90~1\AppData\Local\Temp\ccx4ZXSQ.s:5168   .debug_ranges:0000000000000000 .Ldebug_ranges0
C:\Users\CYMR90~1\AppData\Local\Temp\ccx4ZXSQ.s:22927  .debug_line:0000000000000000 .Ldebug_line0
C:\Users\CYMR90~1\AppData\Local\Temp\ccx4ZXSQ.s:5270   .debug_macro:0000000000000000 .Ldebug_macro0
C:\Users\CYMR90~1\AppData\Local\Temp\ccx4ZXSQ.s:26967  .debug_str:000000000000fe86 .LASF5563
C:\Users\CYMR90~1\AppData\Local\Temp\ccx4ZXSQ.s:22943  .debug_str:00000000000000f5 .LASF5564
C:\Users\CYMR90~1\AppData\Local\Temp\ccx4ZXSQ.s:23897  .debug_str:0000000000003c5f .LASF5565
C:\Users\CYMR90~1\AppData\Local\Temp\ccx4ZXSQ.s:29238  .debug_str:0000000000018f27 .LASF5566
C:\Users\CYMR90~1\AppData\Local\Temp\ccx4ZXSQ.s:25229  .debug_str:0000000000009148 .LASF5569
C:\Users\CYMR90~1\AppData\Local\Temp\ccx4ZXSQ.s:28691  .debug_str:0000000000016bcd .LASF5567
C:\Users\CYMR90~1\AppData\Local\Temp\ccx4ZXSQ.s:30616  .debug_str:000000000001e865 .LASF5568
C:\Users\CYMR90~1\AppData\Local\Temp\ccx4ZXSQ.s:26617  .debug_str:000000000000e8e6 .LASF5570
C:\Users\CYMR90~1\AppData\Local\Temp\ccx4ZXSQ.s:32246  .debug_str:0000000000024acc .LASF5571
C:\Users\CYMR90~1\AppData\Local\Temp\ccx4ZXSQ.s:31030  .debug_str:00000000000200eb .LASF5572
C:\Users\CYMR90~1\AppData\Local\Temp\ccx4ZXSQ.s:29454  .debug_str:0000000000019d30 .LASF5573
C:\Users\CYMR90~1\AppData\Local\Temp\ccx4ZXSQ.s:23083  .debug_str:00000000000008d3 .LASF5574
C:\Users\CYMR90~1\AppData\Local\Temp\ccx4ZXSQ.s:32610  .debug_str:00000000000263de .LASF5575
C:\Users\CYMR90~1\AppData\Local\Temp\ccx4ZXSQ.s:31052  .debug_str:0000000000020240 .LASF855
C:\Users\CYMR90~1\AppData\Local\Temp\ccx4ZXSQ.s:28455  .debug_str:0000000000015d2b .LASF5576
C:\Users\CYMR90~1\AppData\Local\Temp\ccx4ZXSQ.s:32536  .debug_str:0000000000025e8f .LASF5577
C:\Users\CYMR90~1\AppData\Local\Temp\ccx4ZXSQ.s:32726  .debug_str:0000000000026b5f .LASF5578
C:\Users\CYMR90~1\AppData\Local\Temp\ccx4ZXSQ.s:30492  .debug_str:000000000001e055 .LASF5579
C:\Users\CYMR90~1\AppData\Local\Temp\ccx4ZXSQ.s:25609  .debug_str:000000000000a852 .LASF5580
C:\Users\CYMR90~1\AppData\Local\Temp\ccx4ZXSQ.s:30826  .debug_str:000000000001f497 .LASF5581
C:\Users\CYMR90~1\AppData\Local\Temp\ccx4ZXSQ.s:26673  .debug_str:000000000000ecb8 .LASF5582
C:\Users\CYMR90~1\AppData\Local\Temp\ccx4ZXSQ.s:34460  .debug_str:000000000002d72a .LASF5583
C:\Users\CYMR90~1\AppData\Local\Temp\ccx4ZXSQ.s:25773  .debug_str:000000000000b3d3 .LASF5584
C:\Users\CYMR90~1\AppData\Local\Temp\ccx4ZXSQ.s:33484  .debug_str:0000000000029b69 .LASF5585
C:\Users\CYMR90~1\AppData\Local\Temp\ccx4ZXSQ.s:30816  .debug_str:000000000001f430 .LASF5586
C:\Users\CYMR90~1\AppData\Local\Temp\ccx4ZXSQ.s:31658  .debug_str:0000000000022789 .LASF5587
C:\Users\CYMR90~1\AppData\Local\Temp\ccx4ZXSQ.s:34468  .debug_str:000000000002d7c7 .LASF5588
C:\Users\CYMR90~1\AppData\Local\Temp\ccx4ZXSQ.s:32904  .debug_str:00000000000275e8 .LASF5589
C:\Users\CYMR90~1\AppData\Local\Temp\ccx4ZXSQ.s:33976  .debug_str:000000000002b7bc .LASF5590
C:\Users\CYMR90~1\AppData\Local\Temp\ccx4ZXSQ.s:28607  .debug_str:0000000000016699 .LASF5591
C:\Users\CYMR90~1\AppData\Local\Temp\ccx4ZXSQ.s:23735  .debug_str:000000000000318a .LASF5592
C:\Users\CYMR90~1\AppData\Local\Temp\ccx4ZXSQ.s:30244  .debug_str:000000000001cee0 .LASF5593
C:\Users\CYMR90~1\AppData\Local\Temp\ccx4ZXSQ.s:32800  .debug_str:0000000000026fcb .LASF5594
C:\Users\CYMR90~1\AppData\Local\Temp\ccx4ZXSQ.s:24821  .debug_str:000000000000766b .LASF5595
C:\Users\CYMR90~1\AppData\Local\Temp\ccx4ZXSQ.s:26133  .debug_str:000000000000cae2 .LASF5596
C:\Users\CYMR90~1\AppData\Local\Temp\ccx4ZXSQ.s:34454  .debug_str:000000000002d654 .LASF5597
C:\Users\CYMR90~1\AppData\Local\Temp\ccx4ZXSQ.s:24611  .debug_str:000000000000687e .LASF5598
C:\Users\CYMR90~1\AppData\Local\Temp\ccx4ZXSQ.s:33418  .debug_str:000000000002971a .LASF5599
C:\Users\CYMR90~1\AppData\Local\Temp\ccx4ZXSQ.s:33346  .debug_str:000000000002931d .LASF5600
C:\Users\CYMR90~1\AppData\Local\Temp\ccx4ZXSQ.s:31356  .debug_str:000000000002150e .LASF5601
C:\Users\CYMR90~1\AppData\Local\Temp\ccx4ZXSQ.s:24105  .debug_str:000000000000495a .LASF5602
C:\Users\CYMR90~1\AppData\Local\Temp\ccx4ZXSQ.s:29682  .debug_str:000000000001ac68 .LASF5603
C:\Users\CYMR90~1\AppData\Local\Temp\ccx4ZXSQ.s:26427  .debug_str:000000000000ddb9 .LASF5604
C:\Users\CYMR90~1\AppData\Local\Temp\ccx4ZXSQ.s:34288  .debug_str:000000000002cbac .LASF5605
C:\Users\CYMR90~1\AppData\Local\Temp\ccx4ZXSQ.s:29390  .debug_str:0000000000019984 .LASF5606
C:\Users\CYMR90~1\AppData\Local\Temp\ccx4ZXSQ.s:24847  .debug_str:00000000000077f9 .LASF5607
C:\Users\CYMR90~1\AppData\Local\Temp\ccx4ZXSQ.s:34262  .debug_str:000000000002ca18 .LASF5608
C:\Users\CYMR90~1\AppData\Local\Temp\ccx4ZXSQ.s:31644  .debug_str:00000000000226ac .LASF5609
C:\Users\CYMR90~1\AppData\Local\Temp\ccx4ZXSQ.s:23985  .debug_str:00000000000041e2 .LASF5610
C:\Users\CYMR90~1\AppData\Local\Temp\ccx4ZXSQ.s:32242  .debug_str:0000000000024aa2 .LASF5611
C:\Users\CYMR90~1\AppData\Local\Temp\ccx4ZXSQ.s:27443  .debug_str:0000000000011cba .LASF5612
C:\Users\CYMR90~1\AppData\Local\Temp\ccx4ZXSQ.s:29874  .debug_str:000000000001b8e2 .LASF5613
C:\Users\CYMR90~1\AppData\Local\Temp\ccx4ZXSQ.s:23619  .debug_str:0000000000002a5e .LASF5614
C:\Users\CYMR90~1\AppData\Local\Temp\ccx4ZXSQ.s:26115  .debug_str:000000000000c9e6 .LASF5615
C:\Users\CYMR90~1\AppData\Local\Temp\ccx4ZXSQ.s:24393  .debug_str:0000000000005b64 .LASF5616
C:\Users\CYMR90~1\AppData\Local\Temp\ccx4ZXSQ.s:26123  .debug_str:000000000000ca42 .LASF5617
C:\Users\CYMR90~1\AppData\Local\Temp\ccx4ZXSQ.s:29656  .debug_str:000000000001a972 .LASF5618
C:\Users\CYMR90~1\AppData\Local\Temp\ccx4ZXSQ.s:33870  .debug_str:000000000002b1da .LASF5619
C:\Users\CYMR90~1\AppData\Local\Temp\ccx4ZXSQ.s:23041  .debug_str:00000000000006b1 .LASF5620
C:\Users\CYMR90~1\AppData\Local\Temp\ccx4ZXSQ.s:22973  .debug_str:00000000000002c3 .LASF5621
C:\Users\CYMR90~1\AppData\Local\Temp\ccx4ZXSQ.s:22975  .debug_str:00000000000002cd .LASF5622
C:\Users\CYMR90~1\AppData\Local\Temp\ccx4ZXSQ.s:22977  .debug_str:00000000000002d7 .LASF5623
C:\Users\CYMR90~1\AppData\Local\Temp\ccx4ZXSQ.s:25081  .debug_str:0000000000008835 .LASF5624
C:\Users\CYMR90~1\AppData\Local\Temp\ccx4ZXSQ.s:23881  .debug_str:0000000000003b42 .LASF5625
C:\Users\CYMR90~1\AppData\Local\Temp\ccx4ZXSQ.s:34328  .debug_str:000000000002ce95 .LASF5626
C:\Users\CYMR90~1\AppData\Local\Temp\ccx4ZXSQ.s:28906  .debug_str:0000000000017b43 .LASF5627
C:\Users\CYMR90~1\AppData\Local\Temp\ccx4ZXSQ.s:28049  .debug_str:0000000000014430 .LASF5628
C:\Users\CYMR90~1\AppData\Local\Temp\ccx4ZXSQ.s:29336  .debug_str:00000000000195af .LASF5629
C:\Users\CYMR90~1\AppData\Local\Temp\ccx4ZXSQ.s:32032  .debug_str:0000000000023d7e .LASF5630
C:\Users\CYMR90~1\AppData\Local\Temp\ccx4ZXSQ.s:25161  .debug_str:0000000000008cbd .LASF5631
C:\Users\CYMR90~1\AppData\Local\Temp\ccx4ZXSQ.s:31354  .debug_str:0000000000021503 .LASF5632
C:\Users\CYMR90~1\AppData\Local\Temp\ccx4ZXSQ.s:25065  .debug_str:0000000000008744 .LASF5633
C:\Users\CYMR90~1\AppData\Local\Temp\ccx4ZXSQ.s:31362  .debug_str:000000000002155d .LASF5634
C:\Users\CYMR90~1\AppData\Local\Temp\ccx4ZXSQ.s:32344  .debug_str:00000000000250fd .LASF5635
C:\Users\CYMR90~1\AppData\Local\Temp\ccx4ZXSQ.s:31056  .debug_str:000000000002025a .LASF5636
C:\Users\CYMR90~1\AppData\Local\Temp\ccx4ZXSQ.s:28359  .debug_str:000000000001579a .LASF5637
C:\Users\CYMR90~1\AppData\Local\Temp\ccx4ZXSQ.s:23921  .debug_str:0000000000003da0 .LASF5638
C:\Users\CYMR90~1\AppData\Local\Temp\ccx4ZXSQ.s:25827  .debug_str:000000000000b72c .LASF5639
C:\Users\CYMR90~1\AppData\Local\Temp\ccx4ZXSQ.s:25829  .debug_str:000000000000b735 .LASF5640
C:\Users\CYMR90~1\AppData\Local\Temp\ccx4ZXSQ.s:30626  .debug_str:000000000001e8dd .LASF5641
C:\Users\CYMR90~1\AppData\Local\Temp\ccx4ZXSQ.s:32370  .debug_str:00000000000252d5 .LASF5642
C:\Users\CYMR90~1\AppData\Local\Temp\ccx4ZXSQ.s:25059  .debug_str:00000000000086d5 .LASF5643
C:\Users\CYMR90~1\AppData\Local\Temp\ccx4ZXSQ.s:28361  .debug_str:00000000000157a4 .LASF5644
C:\Users\CYMR90~1\AppData\Local\Temp\ccx4ZXSQ.s:27233  .debug_str:0000000000010f78 .LASF5645
C:\Users\CYMR90~1\AppData\Local\Temp\ccx4ZXSQ.s:26813  .debug_str:000000000000f4f3 .LASF5646
C:\Users\CYMR90~1\AppData\Local\Temp\ccx4ZXSQ.s:34490  .debug_str:000000000002d90b .LASF5647
C:\Users\CYMR90~1\AppData\Local\Temp\ccx4ZXSQ.s:24867  .debug_str:000000000000793c .LASF5648
C:\Users\CYMR90~1\AppData\Local\Temp\ccx4ZXSQ.s:24869  .debug_str:0000000000007948 .LASF5649
C:\Users\CYMR90~1\AppData\Local\Temp\ccx4ZXSQ.s:34494  .debug_str:000000000002d94b .LASF5650
C:\Users\CYMR90~1\AppData\Local\Temp\ccx4ZXSQ.s:26077  .debug_str:000000000000c797 .LASF5651
C:\Users\CYMR90~1\AppData\Local\Temp\ccx4ZXSQ.s:26991  .debug_str:000000000000ffd8 .LASF5652
C:\Users\CYMR90~1\AppData\Local\Temp\ccx4ZXSQ.s:33028  .debug_str:0000000000027e1f .LASF5653
C:\Users\CYMR90~1\AppData\Local\Temp\ccx4ZXSQ.s:26711  .debug_str:000000000000eeeb .LASF5654
C:\Users\CYMR90~1\AppData\Local\Temp\ccx4ZXSQ.s:28087  .debug_str:0000000000014656 .LASF5655
C:\Users\CYMR90~1\AppData\Local\Temp\ccx4ZXSQ.s:33634  .debug_str:000000000002a41a .LASF5656
C:\Users\CYMR90~1\AppData\Local\Temp\ccx4ZXSQ.s:23651  .debug_str:0000000000002c9a .LASF5657
C:\Users\CYMR90~1\AppData\Local\Temp\ccx4ZXSQ.s:32154  .debug_str:00000000000244fc .LASF5658
C:\Users\CYMR90~1\AppData\Local\Temp\ccx4ZXSQ.s:25871  .debug_str:000000000000ba16 .LASF5659
C:\Users\CYMR90~1\AppData\Local\Temp\ccx4ZXSQ.s:29154  .debug_str:0000000000018a03 .LASF5660
C:\Users\CYMR90~1\AppData\Local\Temp\ccx4ZXSQ.s:25335  .debug_str:000000000000973d .LASF5661
C:\Users\CYMR90~1\AppData\Local\Temp\ccx4ZXSQ.s:24549  .debug_str:00000000000064a3 .LASF5662
C:\Users\CYMR90~1\AppData\Local\Temp\ccx4ZXSQ.s:25927  .debug_str:000000000000bdc1 .LASF5663
C:\Users\CYMR90~1\AppData\Local\Temp\ccx4ZXSQ.s:31924  .debug_str:0000000000023760 .LASF5664
C:\Users\CYMR90~1\AppData\Local\Temp\ccx4ZXSQ.s:24227  .debug_str:000000000000515e .LASF5665
C:\Users\CYMR90~1\AppData\Local\Temp\ccx4ZXSQ.s:33856  .debug_str:000000000002b105 .LASF5666
C:\Users\CYMR90~1\AppData\Local\Temp\ccx4ZXSQ.s:23081  .debug_str:00000000000008bd .LASF5667
C:\Users\CYMR90~1\AppData\Local\Temp\ccx4ZXSQ.s:33570  .debug_str:000000000002a085 .LASF5668
C:\Users\CYMR90~1\AppData\Local\Temp\ccx4ZXSQ.s:29880  .debug_str:000000000001b936 .LASF5669
C:\Users\CYMR90~1\AppData\Local\Temp\ccx4ZXSQ.s:28791  .debug_str:00000000000172e9 .LASF5670
C:\Users\CYMR90~1\AppData\Local\Temp\ccx4ZXSQ.s:26261  .debug_str:000000000000d31d .LASF5671
C:\Users\CYMR90~1\AppData\Local\Temp\ccx4ZXSQ.s:28021  .debug_str:00000000000142b1 .LASF5672
C:\Users\CYMR90~1\AppData\Local\Temp\ccx4ZXSQ.s:33166  .debug_str:0000000000028660 .LASF5673
C:\Users\CYMR90~1\AppData\Local\Temp\ccx4ZXSQ.s:34318  .debug_str:000000000002ce01 .LASF5674
C:\Users\CYMR90~1\AppData\Local\Temp\ccx4ZXSQ.s:28561  .debug_str:000000000001634f .LASF5675
C:\Users\CYMR90~1\AppData\Local\Temp\ccx4ZXSQ.s:31274  .debug_str:0000000000021017 .LASF5676
C:\Users\CYMR90~1\AppData\Local\Temp\ccx4ZXSQ.s:32794  .debug_str:0000000000026f72 .LASF5677
C:\Users\CYMR90~1\AppData\Local\Temp\ccx4ZXSQ.s:28978  .debug_str:0000000000017f7a .LASF5678
C:\Users\CYMR90~1\AppData\Local\Temp\ccx4ZXSQ.s:26011  .debug_str:000000000000c38a .LASF5679
C:\Users\CYMR90~1\AppData\Local\Temp\ccx4ZXSQ.s:33994  .debug_str:000000000002b8c1 .LASF5680
C:\Users\CYMR90~1\AppData\Local\Temp\ccx4ZXSQ.s:26601  .debug_str:000000000000e7f1 .LASF5681
C:\Users\CYMR90~1\AppData\Local\Temp\ccx4ZXSQ.s:29516  .debug_str:000000000001a19a .LASF5682
C:\Users\CYMR90~1\AppData\Local\Temp\ccx4ZXSQ.s:27401  .debug_str:00000000000119e5 .LASF5683
C:\Users\CYMR90~1\AppData\Local\Temp\ccx4ZXSQ.s:32676  .debug_str:000000000002680c .LASF5684
C:\Users\CYMR90~1\AppData\Local\Temp\ccx4ZXSQ.s:26291  .debug_str:000000000000d4ff .LASF5685
C:\Users\CYMR90~1\AppData\Local\Temp\ccx4ZXSQ.s:33900  .debug_str:000000000002b35c .LASF5686
C:\Users\CYMR90~1\AppData\Local\Temp\ccx4ZXSQ.s:27101  .debug_str:00000000000106c2 .LASF5687
C:\Users\CYMR90~1\AppData\Local\Temp\ccx4ZXSQ.s:28011  .debug_str:0000000000014211 .LASF5688
C:\Users\CYMR90~1\AppData\Local\Temp\ccx4ZXSQ.s:23133  .debug_str:0000000000000c59 .LASF5689
C:\Users\CYMR90~1\AppData\Local\Temp\ccx4ZXSQ.s:23047  .debug_str:00000000000006f8 .LASF5690
C:\Users\CYMR90~1\AppData\Local\Temp\ccx4ZXSQ.s:33952  .debug_str:000000000002b671 .LASF5691
C:\Users\CYMR90~1\AppData\Local\Temp\ccx4ZXSQ.s:29498  .debug_str:000000000001a061 .LASF5692
C:\Users\CYMR90~1\AppData\Local\Temp\ccx4ZXSQ.s:26455  .debug_str:000000000000df50 .LASF5693
C:\Users\CYMR90~1\AppData\Local\Temp\ccx4ZXSQ.s:27185  .debug_str:0000000000010c1d .LASF5694
C:\Users\CYMR90~1\AppData\Local\Temp\ccx4ZXSQ.s:30590  .debug_str:000000000001e6aa .LASF5695
C:\Users\CYMR90~1\AppData\Local\Temp\ccx4ZXSQ.s:23999  .debug_str:00000000000042a7 .LASF5696
C:\Users\CYMR90~1\AppData\Local\Temp\ccx4ZXSQ.s:25449  .debug_str:0000000000009e65 .LASF5697
C:\Users\CYMR90~1\AppData\Local\Temp\ccx4ZXSQ.s:25385  .debug_str:0000000000009a49 .LASF5698
C:\Users\CYMR90~1\AppData\Local\Temp\ccx4ZXSQ.s:27569  .debug_str:0000000000012581 .LASF5699
C:\Users\CYMR90~1\AppData\Local\Temp\ccx4ZXSQ.s:27573  .debug_str:00000000000125c6 .LASF5700
C:\Users\CYMR90~1\AppData\Local\Temp\ccx4ZXSQ.s:26523  .debug_str:000000000000e318 .LASF5701
C:\Users\CYMR90~1\AppData\Local\Temp\ccx4ZXSQ.s:30366  .debug_str:000000000001d8a4 .LASF5702
C:\Users\CYMR90~1\AppData\Local\Temp\ccx4ZXSQ.s:26493  .debug_str:000000000000e126 .LASF5703
C:\Users\CYMR90~1\AppData\Local\Temp\ccx4ZXSQ.s:26475  .debug_str:000000000000e054 .LASF5730
C:\Users\CYMR90~1\AppData\Local\Temp\ccx4ZXSQ.s:2443   .text.rcu_clock_freq_get:0000000000000000 .LFB395
C:\Users\CYMR90~1\AppData\Local\Temp\ccx4ZXSQ.s:2798   .text.rcu_clock_freq_get:0000000000000312 .LFE395
C:\Users\CYMR90~1\AppData\Local\Temp\ccx4ZXSQ.s:23449  .debug_str:0000000000002020 .LASF5717
C:\Users\CYMR90~1\AppData\Local\Temp\ccx4ZXSQ.s:24029  .debug_str:0000000000004448 .LASF5704
C:\Users\CYMR90~1\AppData\Local\Temp\ccx4ZXSQ.s:32090  .debug_str:0000000000024133 .LASF5705
C:\Users\CYMR90~1\AppData\Local\Temp\ccx4ZXSQ.s:28385  .debug_str:000000000001590e .LASF5706
C:\Users\CYMR90~1\AppData\Local\Temp\ccx4ZXSQ.s:26355  .debug_str:000000000000d972 .LASF5707
C:\Users\CYMR90~1\AppData\Local\Temp\ccx4ZXSQ.s:29894  .debug_str:000000000001b9d7 .LASF5708
C:\Users\CYMR90~1\AppData\Local\Temp\ccx4ZXSQ.s:32192  .debug_str:0000000000024713 .LASF5709
C:\Users\CYMR90~1\AppData\Local\Temp\ccx4ZXSQ.s:24205  .debug_str:000000000000501e .LASF5710
C:\Users\CYMR90~1\AppData\Local\Temp\ccx4ZXSQ.s:30416  .debug_str:000000000001db7b .LASF5711
C:\Users\CYMR90~1\AppData\Local\Temp\ccx4ZXSQ.s:25971  .debug_str:000000000000c08a .LASF5712
C:\Users\CYMR90~1\AppData\Local\Temp\ccx4ZXSQ.s:32138  .debug_str:0000000000024419 .LASF5713
C:\Users\CYMR90~1\AppData\Local\Temp\ccx4ZXSQ.s:31048  .debug_str:000000000002020f .LASF5714
C:\Users\CYMR90~1\AppData\Local\Temp\ccx4ZXSQ.s:32844  .debug_str:000000000002726f .LASF5715
C:\Users\CYMR90~1\AppData\Local\Temp\ccx4ZXSQ.s:26335  .debug_str:000000000000d7d0 .LASF5716
C:\Users\CYMR90~1\AppData\Local\Temp\ccx4ZXSQ.s:25587  .debug_str:000000000000a71c .LASF5719
C:\Users\CYMR90~1\AppData\Local\Temp\ccx4ZXSQ.s:2389   .text.rcu_deepsleep_voltage_set:0000000000000000 .LFB394
C:\Users\CYMR90~1\AppData\Local\Temp\ccx4ZXSQ.s:2418   .text.rcu_deepsleep_voltage_set:000000000000002a .LFE394
C:\Users\CYMR90~1\AppData\Local\Temp\ccx4ZXSQ.s:29958  .debug_str:000000000001bdae .LASF5718
C:\Users\CYMR90~1\AppData\Local\Temp\ccx4ZXSQ.s:29312  .debug_str:000000000001942f .LASF5722
C:\Users\CYMR90~1\AppData\Local\Temp\ccx4ZXSQ.s:2357   .text.rcu_voltage_key_unlock:0000000000000000 .LFB393
C:\Users\CYMR90~1\AppData\Local\Temp\ccx4ZXSQ.s:2382   .text.rcu_voltage_key_unlock:0000000000000020 .LFE393
C:\Users\CYMR90~1\AppData\Local\Temp\ccx4ZXSQ.s:29558  .debug_str:000000000001a40a .LASF5720
C:\Users\CYMR90~1\AppData\Local\Temp\ccx4ZXSQ.s:2309   .text.rcu_irc16m_adjust_value_set:0000000000000000 .LFB392
C:\Users\CYMR90~1\AppData\Local\Temp\ccx4ZXSQ.s:2350   .text.rcu_irc16m_adjust_value_set:0000000000000046 .LFE392
C:\Users\CYMR90~1\AppData\Local\Temp\ccx4ZXSQ.s:31864  .debug_str:00000000000233a8 .LASF5721
C:\Users\CYMR90~1\AppData\Local\Temp\ccx4ZXSQ.s:33704  .debug_str:000000000002a7f7 .LASF5723
C:\Users\CYMR90~1\AppData\Local\Temp\ccx4ZXSQ.s:2274   .text.rcu_rf_hxtal_clock_monitor_disable:0000000000000000 .LFB391
C:\Users\CYMR90~1\AppData\Local\Temp\ccx4ZXSQ.s:2302   .text.rcu_rf_hxtal_clock_monitor_disable:000000000000002a .LFE391
C:\Users\CYMR90~1\AppData\Local\Temp\ccx4ZXSQ.s:31120  .debug_str:000000000002061a .LASF5724
C:\Users\CYMR90~1\AppData\Local\Temp\ccx4ZXSQ.s:2240   .text.rcu_rf_hxtal_clock_monitor_enable:0000000000000000 .LFB390
C:\Users\CYMR90~1\AppData\Local\Temp\ccx4ZXSQ.s:2267   .text.rcu_rf_hxtal_clock_monitor_enable:0000000000000028 .LFE390
C:\Users\CYMR90~1\AppData\Local\Temp\ccx4ZXSQ.s:32850  .debug_str:00000000000272b7 .LASF5725
C:\Users\CYMR90~1\AppData\Local\Temp\ccx4ZXSQ.s:2149   .text.rcu_osci_bypass_mode_disable:0000000000000000 .LFB389
C:\Users\CYMR90~1\AppData\Local\Temp\ccx4ZXSQ.s:2233   .text.rcu_osci_bypass_mode_disable:00000000000000a2 .LFE389
C:\Users\CYMR90~1\AppData\Local\Temp\ccx4ZXSQ.s:29342  .debug_str:00000000000195dc .LASF5726
C:\Users\CYMR90~1\AppData\Local\Temp\ccx4ZXSQ.s:25865  .debug_str:000000000000b9b8 .LASF5727
C:\Users\CYMR90~1\AppData\Local\Temp\ccx4ZXSQ.s:2059   .text.rcu_osci_bypass_mode_enable:0000000000000000 .LFB388
C:\Users\CYMR90~1\AppData\Local\Temp\ccx4ZXSQ.s:2142   .text.rcu_osci_bypass_mode_enable:00000000000000a2 .LFE388
C:\Users\CYMR90~1\AppData\Local\Temp\ccx4ZXSQ.s:30870  .debug_str:000000000001f736 .LASF5728
C:\Users\CYMR90~1\AppData\Local\Temp\ccx4ZXSQ.s:2011   .text.rcu_osci_off:0000000000000000 .LFB387
C:\Users\CYMR90~1\AppData\Local\Temp\ccx4ZXSQ.s:2052   .text.rcu_osci_off:000000000000004c .LFE387
C:\Users\CYMR90~1\AppData\Local\Temp\ccx4ZXSQ.s:34228  .debug_str:000000000002c7c3 .LASF5729
C:\Users\CYMR90~1\AppData\Local\Temp\ccx4ZXSQ.s:1965   .text.rcu_osci_on:0000000000000000 .LFB386
C:\Users\CYMR90~1\AppData\Local\Temp\ccx4ZXSQ.s:2004   .text.rcu_osci_on:0000000000000048 .LFE386
C:\Users\CYMR90~1\AppData\Local\Temp\ccx4ZXSQ.s:27361  .debug_str:0000000000011754 .LASF5731
C:\Users\CYMR90~1\AppData\Local\Temp\ccx4ZXSQ.s:1720   .text.rcu_osci_stab_wait:0000000000000000 .LFB385
C:\Users\CYMR90~1\AppData\Local\Temp\ccx4ZXSQ.s:1958   .text.rcu_osci_stab_wait:00000000000001f2 .LFE385
C:\Users\CYMR90~1\AppData\Local\Temp\ccx4ZXSQ.s:32558  .debug_str:000000000002601a .LASF5732
C:\Users\CYMR90~1\AppData\Local\Temp\ccx4ZXSQ.s:24483  .debug_str:00000000000060dd .LASF5733
C:\Users\CYMR90~1\AppData\Local\Temp\ccx4ZXSQ.s:30126  .debug_str:000000000001c7f7 .LASF5734
C:\Users\CYMR90~1\AppData\Local\Temp\ccx4ZXSQ.s:32106  .debug_str:000000000002422a .LASF5735
C:\Users\CYMR90~1\AppData\Local\Temp\ccx4ZXSQ.s:1675   .text.rcu_lxtal_drive_capability_config:0000000000000000 .LFB384
C:\Users\CYMR90~1\AppData\Local\Temp\ccx4ZXSQ.s:1713   .text.rcu_lxtal_drive_capability_config:000000000000003e .LFE384
C:\Users\CYMR90~1\AppData\Local\Temp\ccx4ZXSQ.s:24509  .debug_str:0000000000006282 .LASF5736
C:\Users\CYMR90~1\AppData\Local\Temp\ccx4ZXSQ.s:29290  .debug_str:0000000000019217 .LASF5737
C:\Users\CYMR90~1\AppData\Local\Temp\ccx4ZXSQ.s:1627   .text.rcu_interrupt_disable:0000000000000000 .LFB383
C:\Users\CYMR90~1\AppData\Local\Temp\ccx4ZXSQ.s:1668   .text.rcu_interrupt_disable:000000000000004c .LFE383
C:\Users\CYMR90~1\AppData\Local\Temp\ccx4ZXSQ.s:29816  .debug_str:000000000001b4bc .LASF5738
C:\Users\CYMR90~1\AppData\Local\Temp\ccx4ZXSQ.s:25467  .debug_str:0000000000009f5e .LASF5739
C:\Users\CYMR90~1\AppData\Local\Temp\ccx4ZXSQ.s:1581   .text.rcu_interrupt_enable:0000000000000000 .LFB382
C:\Users\CYMR90~1\AppData\Local\Temp\ccx4ZXSQ.s:1620   .text.rcu_interrupt_enable:0000000000000048 .LFE382
C:\Users\CYMR90~1\AppData\Local\Temp\ccx4ZXSQ.s:31506  .debug_str:0000000000021e1c .LASF5740
C:\Users\CYMR90~1\AppData\Local\Temp\ccx4ZXSQ.s:1535   .text.rcu_interrupt_flag_clear:0000000000000000 .LFB381
C:\Users\CYMR90~1\AppData\Local\Temp\ccx4ZXSQ.s:1574   .text.rcu_interrupt_flag_clear:0000000000000048 .LFE381
C:\Users\CYMR90~1\AppData\Local\Temp\ccx4ZXSQ.s:28171  .debug_str:0000000000014b4f .LASF5741
C:\Users\CYMR90~1\AppData\Local\Temp\ccx4ZXSQ.s:32920  .debug_str:000000000002768a .LASF5742
C:\Users\CYMR90~1\AppData\Local\Temp\ccx4ZXSQ.s:1487   .text.rcu_interrupt_flag_get:0000000000000000 .LFB380
C:\Users\CYMR90~1\AppData\Local\Temp\ccx4ZXSQ.s:1528   .text.rcu_interrupt_flag_get:000000000000003a .LFE380
C:\Users\CYMR90~1\AppData\Local\Temp\ccx4ZXSQ.s:27731  .debug_str:0000000000012fb7 .LASF5743
C:\Users\CYMR90~1\AppData\Local\Temp\ccx4ZXSQ.s:1453   .text.rcu_all_reset_flag_clear:0000000000000000 .LFB379
C:\Users\CYMR90~1\AppData\Local\Temp\ccx4ZXSQ.s:1480   .text.rcu_all_reset_flag_clear:0000000000000028 .LFE379
C:\Users\CYMR90~1\AppData\Local\Temp\ccx4ZXSQ.s:28591  .debug_str:0000000000016586 .LASF5744
C:\Users\CYMR90~1\AppData\Local\Temp\ccx4ZXSQ.s:1405   .text.rcu_flag_get:0000000000000000 .LFB378
C:\Users\CYMR90~1\AppData\Local\Temp\ccx4ZXSQ.s:1446   .text.rcu_flag_get:000000000000003a .LFE378
C:\Users\CYMR90~1\AppData\Local\Temp\ccx4ZXSQ.s:25601  .debug_str:000000000000a7ea .LASF5745
C:\Users\CYMR90~1\AppData\Local\Temp\ccx4ZXSQ.s:25907  .debug_str:000000000000bc99 .LASF5746
C:\Users\CYMR90~1\AppData\Local\Temp\ccx4ZXSQ.s:1352   .text.rcu_timer_clock_prescaler_config:0000000000000000 .LFB377
C:\Users\CYMR90~1\AppData\Local\Temp\ccx4ZXSQ.s:1398   .text.rcu_timer_clock_prescaler_config:0000000000000056 .LFE377
C:\Users\CYMR90~1\AppData\Local\Temp\ccx4ZXSQ.s:27955  .debug_str:0000000000013e98 .LASF5747
C:\Users\CYMR90~1\AppData\Local\Temp\ccx4ZXSQ.s:24647  .debug_str:0000000000006ad3 .LASF5748
C:\Users\CYMR90~1\AppData\Local\Temp\ccx4ZXSQ.s:1307   .text.rcu_irc16m_div_config:0000000000000000 .LFB376
C:\Users\CYMR90~1\AppData\Local\Temp\ccx4ZXSQ.s:1345   .text.rcu_irc16m_div_config:0000000000000040 .LFE376
C:\Users\CYMR90~1\AppData\Local\Temp\ccx4ZXSQ.s:29548  .debug_str:000000000001a382 .LASF5749
C:\Users\CYMR90~1\AppData\Local\Temp\ccx4ZXSQ.s:25617  .debug_str:000000000000a8a3 .LASF5750
C:\Users\CYMR90~1\AppData\Local\Temp\ccx4ZXSQ.s:1260   .text.rcu_usart0_clock_config:0000000000000000 .LFB375
C:\Users\CYMR90~1\AppData\Local\Temp\ccx4ZXSQ.s:1300   .text.rcu_usart0_clock_config:0000000000000044 .LFE375
C:\Users\CYMR90~1\AppData\Local\Temp\ccx4ZXSQ.s:31678  .debug_str:00000000000228b5 .LASF5751
C:\Users\CYMR90~1\AppData\Local\Temp\ccx4ZXSQ.s:33814  .debug_str:000000000002ae52 .LASF5752
C:\Users\CYMR90~1\AppData\Local\Temp\ccx4ZXSQ.s:1213   .text.rcu_i2c0_clock_config:0000000000000000 .LFB374
C:\Users\CYMR90~1\AppData\Local\Temp\ccx4ZXSQ.s:1253   .text.rcu_i2c0_clock_config:0000000000000044 .LFE374
C:\Users\CYMR90~1\AppData\Local\Temp\ccx4ZXSQ.s:23627  .debug_str:0000000000002ada .LASF5753
C:\Users\CYMR90~1\AppData\Local\Temp\ccx4ZXSQ.s:26013  .debug_str:000000000000c39b .LASF5754
C:\Users\CYMR90~1\AppData\Local\Temp\ccx4ZXSQ.s:1168   .text.rcu_trng_div_config:0000000000000000 .LFB373
C:\Users\CYMR90~1\AppData\Local\Temp\ccx4ZXSQ.s:1206   .text.rcu_trng_div_config:0000000000000040 .LFE373
C:\Users\CYMR90~1\AppData\Local\Temp\ccx4ZXSQ.s:24527  .debug_str:0000000000006378 .LASF5755
C:\Users\CYMR90~1\AppData\Local\Temp\ccx4ZXSQ.s:33520  .debug_str:0000000000029d55 .LASF5756
C:\Users\CYMR90~1\AppData\Local\Temp\ccx4ZXSQ.s:1121   .text.rcu_rtc_div_config:0000000000000000 .LFB372
C:\Users\CYMR90~1\AppData\Local\Temp\ccx4ZXSQ.s:1161   .text.rcu_rtc_div_config:0000000000000044 .LFE372
C:\Users\CYMR90~1\AppData\Local\Temp\ccx4ZXSQ.s:29648  .debug_str:000000000001a902 .LASF5757
C:\Users\CYMR90~1\AppData\Local\Temp\ccx4ZXSQ.s:28822  .debug_str:0000000000017659 .LASF5758
C:\Users\CYMR90~1\AppData\Local\Temp\ccx4ZXSQ.s:1076   .text.rcu_rtc_clock_config:0000000000000000 .LFB371
C:\Users\CYMR90~1\AppData\Local\Temp\ccx4ZXSQ.s:1114   .text.rcu_rtc_clock_config:0000000000000040 .LFE371
C:\Users\CYMR90~1\AppData\Local\Temp\ccx4ZXSQ.s:29338  .debug_str:00000000000195b7 .LASF5759
C:\Users\CYMR90~1\AppData\Local\Temp\ccx4ZXSQ.s:26007  .debug_str:000000000000c34b .LASF5760
C:\Users\CYMR90~1\AppData\Local\Temp\ccx4ZXSQ.s:1029   .text.rcu_plldigdiv_sys_config:0000000000000000 .LFB370
C:\Users\CYMR90~1\AppData\Local\Temp\ccx4ZXSQ.s:1069   .text.rcu_plldigdiv_sys_config:0000000000000044 .LFE370
C:\Users\CYMR90~1\AppData\Local\Temp\ccx4ZXSQ.s:33788  .debug_str:000000000002aca0 .LASF5761
C:\Users\CYMR90~1\AppData\Local\Temp\ccx4ZXSQ.s:24945  .debug_str:0000000000007e48 .LASF5762
C:\Users\CYMR90~1\AppData\Local\Temp\ccx4ZXSQ.s:984    .text.rcu_plldig_config:0000000000000000 .LFB369
C:\Users\CYMR90~1\AppData\Local\Temp\ccx4ZXSQ.s:1022   .text.rcu_plldig_config:0000000000000048 .LFE369
C:\Users\CYMR90~1\AppData\Local\Temp\ccx4ZXSQ.s:31352  .debug_str:00000000000214f8 .LASF5763
C:\Users\CYMR90~1\AppData\Local\Temp\ccx4ZXSQ.s:28848  .debug_str:00000000000177bf .LASF5764
C:\Users\CYMR90~1\AppData\Local\Temp\ccx4ZXSQ.s:933    .text.rcu_ckout1_config:0000000000000000 .LFB368
C:\Users\CYMR90~1\AppData\Local\Temp\ccx4ZXSQ.s:977    .text.rcu_ckout1_config:0000000000000050 .LFE368
C:\Users\CYMR90~1\AppData\Local\Temp\ccx4ZXSQ.s:23063  .debug_str:00000000000007ec .LASF5765
C:\Users\CYMR90~1\AppData\Local\Temp\ccx4ZXSQ.s:29882  .debug_str:000000000001b947 .LASF5766
C:\Users\CYMR90~1\AppData\Local\Temp\ccx4ZXSQ.s:25637  .debug_str:000000000000a9bd .LASF5767
C:\Users\CYMR90~1\AppData\Local\Temp\ccx4ZXSQ.s:882    .text.rcu_ckout0_config:0000000000000000 .LFB367
C:\Users\CYMR90~1\AppData\Local\Temp\ccx4ZXSQ.s:926    .text.rcu_ckout0_config:0000000000000050 .LFE367
C:\Users\CYMR90~1\AppData\Local\Temp\ccx4ZXSQ.s:31460  .debug_str:0000000000021ab7 .LASF5768
C:\Users\CYMR90~1\AppData\Local\Temp\ccx4ZXSQ.s:28067  .debug_str:0000000000014528 .LASF5769
C:\Users\CYMR90~1\AppData\Local\Temp\ccx4ZXSQ.s:29466  .debug_str:0000000000019dc1 .LASF5770
C:\Users\CYMR90~1\AppData\Local\Temp\ccx4ZXSQ.s:835    .text.rcu_apb2_clock_config:0000000000000000 .LFB366
C:\Users\CYMR90~1\AppData\Local\Temp\ccx4ZXSQ.s:875    .text.rcu_apb2_clock_config:0000000000000042 .LFE366
C:\Users\CYMR90~1\AppData\Local\Temp\ccx4ZXSQ.s:27335  .debug_str:00000000000115c0 .LASF5771
C:\Users\CYMR90~1\AppData\Local\Temp\ccx4ZXSQ.s:28872  .debug_str:00000000000178f7 .LASF5772
C:\Users\CYMR90~1\AppData\Local\Temp\ccx4ZXSQ.s:788    .text.rcu_apb1_clock_config:0000000000000000 .LFB365
C:\Users\CYMR90~1\AppData\Local\Temp\ccx4ZXSQ.s:828    .text.rcu_apb1_clock_config:0000000000000044 .LFE365
C:\Users\CYMR90~1\AppData\Local\Temp\ccx4ZXSQ.s:25373  .debug_str:00000000000099bb .LASF5773
C:\Users\CYMR90~1\AppData\Local\Temp\ccx4ZXSQ.s:32410  .debug_str:0000000000025560 .LASF5774
C:\Users\CYMR90~1\AppData\Local\Temp\ccx4ZXSQ.s:743    .text.rcu_ahb_clock_config:0000000000000000 .LFB364
C:\Users\CYMR90~1\AppData\Local\Temp\ccx4ZXSQ.s:781    .text.rcu_ahb_clock_config:0000000000000040 .LFE364
C:\Users\CYMR90~1\AppData\Local\Temp\ccx4ZXSQ.s:33710  .debug_str:000000000002a861 .LASF5775
C:\Users\CYMR90~1\AppData\Local\Temp\ccx4ZXSQ.s:23397  .debug_str:0000000000001cf8 .LASF5799
C:\Users\CYMR90~1\AppData\Local\Temp\ccx4ZXSQ.s:713    .text.rcu_system_clock_source_get:0000000000000000 .LFB363
C:\Users\CYMR90~1\AppData\Local\Temp\ccx4ZXSQ.s:736    .text.rcu_system_clock_source_get:000000000000001a .LFE363
C:\Users\CYMR90~1\AppData\Local\Temp\ccx4ZXSQ.s:25175  .debug_str:0000000000008d99 .LASF5776
C:\Users\CYMR90~1\AppData\Local\Temp\ccx4ZXSQ.s:668    .text.rcu_system_clock_source_config:0000000000000000 .LFB362
C:\Users\CYMR90~1\AppData\Local\Temp\ccx4ZXSQ.s:706    .text.rcu_system_clock_source_config:000000000000003e .LFE362
C:\Users\CYMR90~1\AppData\Local\Temp\ccx4ZXSQ.s:33782  .debug_str:000000000002ac55 .LASF5777
C:\Users\CYMR90~1\AppData\Local\Temp\ccx4ZXSQ.s:23653  .debug_str:0000000000002ca9 .LASF5778
C:\Users\CYMR90~1\AppData\Local\Temp\ccx4ZXSQ.s:620    .text.rcu_control_unit_powerdown:0000000000000000 .LFB361
C:\Users\CYMR90~1\AppData\Local\Temp\ccx4ZXSQ.s:661    .text.rcu_control_unit_powerdown:000000000000004c .LFE361
C:\Users\CYMR90~1\AppData\Local\Temp\ccx4ZXSQ.s:24253  .debug_str:00000000000052c8 .LASF5779
C:\Users\CYMR90~1\AppData\Local\Temp\ccx4ZXSQ.s:31648  .debug_str:000000000002270e .LASF5780
C:\Users\CYMR90~1\AppData\Local\Temp\ccx4ZXSQ.s:574    .text.rcu_control_unit_powerup:0000000000000000 .LFB360
C:\Users\CYMR90~1\AppData\Local\Temp\ccx4ZXSQ.s:613    .text.rcu_control_unit_powerup:0000000000000048 .LFE360
C:\Users\CYMR90~1\AppData\Local\Temp\ccx4ZXSQ.s:33684  .debug_str:000000000002a700 .LASF5781
C:\Users\CYMR90~1\AppData\Local\Temp\ccx4ZXSQ.s:539    .text.rcu_rfpll_cal_disable:0000000000000000 .LFB359
C:\Users\CYMR90~1\AppData\Local\Temp\ccx4ZXSQ.s:567    .text.rcu_rfpll_cal_disable:0000000000000028 .LFE359
C:\Users\CYMR90~1\AppData\Local\Temp\ccx4ZXSQ.s:29168  .debug_str:0000000000018aeb .LASF5782
C:\Users\CYMR90~1\AppData\Local\Temp\ccx4ZXSQ.s:505    .text.rcu_rfpll_cal_enable:0000000000000000 .LFB358
C:\Users\CYMR90~1\AppData\Local\Temp\ccx4ZXSQ.s:532    .text.rcu_rfpll_cal_enable:0000000000000026 .LFE358
C:\Users\CYMR90~1\AppData\Local\Temp\ccx4ZXSQ.s:29644  .debug_str:000000000001a8e0 .LASF5783
C:\Users\CYMR90~1\AppData\Local\Temp\ccx4ZXSQ.s:470    .text.rcu_bkp_reset_disable:0000000000000000 .LFB357
C:\Users\CYMR90~1\AppData\Local\Temp\ccx4ZXSQ.s:498    .text.rcu_bkp_reset_disable:0000000000000028 .LFE357
C:\Users\CYMR90~1\AppData\Local\Temp\ccx4ZXSQ.s:27275  .debug_str:000000000001121e .LASF5784
C:\Users\CYMR90~1\AppData\Local\Temp\ccx4ZXSQ.s:436    .text.rcu_bkp_reset_enable:0000000000000000 .LFB356
C:\Users\CYMR90~1\AppData\Local\Temp\ccx4ZXSQ.s:463    .text.rcu_bkp_reset_enable:0000000000000026 .LFE356
C:\Users\CYMR90~1\AppData\Local\Temp\ccx4ZXSQ.s:29824  .debug_str:000000000001b518 .LASF5785
C:\Users\CYMR90~1\AppData\Local\Temp\ccx4ZXSQ.s:388    .text.rcu_periph_reset_disable:0000000000000000 .LFB355
C:\Users\CYMR90~1\AppData\Local\Temp\ccx4ZXSQ.s:429    .text.rcu_periph_reset_disable:000000000000004c .LFE355
C:\Users\CYMR90~1\AppData\Local\Temp\ccx4ZXSQ.s:24363  .debug_str:0000000000005993 .LASF5786
C:\Users\CYMR90~1\AppData\Local\Temp\ccx4ZXSQ.s:31204  .debug_str:0000000000020b71 .LASF5787
C:\Users\CYMR90~1\AppData\Local\Temp\ccx4ZXSQ.s:342    .text.rcu_periph_reset_enable:0000000000000000 .LFB354
C:\Users\CYMR90~1\AppData\Local\Temp\ccx4ZXSQ.s:381    .text.rcu_periph_reset_enable:0000000000000048 .LFE354
C:\Users\CYMR90~1\AppData\Local\Temp\ccx4ZXSQ.s:30376  .debug_str:000000000001d90e .LASF5788
C:\Users\CYMR90~1\AppData\Local\Temp\ccx4ZXSQ.s:307    .text.rcu_fmc_clock_sleep_disable:0000000000000000 .LFB353
C:\Users\CYMR90~1\AppData\Local\Temp\ccx4ZXSQ.s:335    .text.rcu_fmc_clock_sleep_disable:0000000000000028 .LFE353
C:\Users\CYMR90~1\AppData\Local\Temp\ccx4ZXSQ.s:25685  .debug_str:000000000000ad8e .LASF5789
C:\Users\CYMR90~1\AppData\Local\Temp\ccx4ZXSQ.s:273    .text.rcu_fmc_clock_sleep_enable:0000000000000000 .LFB352
C:\Users\CYMR90~1\AppData\Local\Temp\ccx4ZXSQ.s:300    .text.rcu_fmc_clock_sleep_enable:0000000000000026 .LFE352
C:\Users\CYMR90~1\AppData\Local\Temp\ccx4ZXSQ.s:27351  .debug_str:00000000000116cf .LASF5790
C:\Users\CYMR90~1\AppData\Local\Temp\ccx4ZXSQ.s:225    .text.rcu_periph_clock_disable:0000000000000000 .LFB351
C:\Users\CYMR90~1\AppData\Local\Temp\ccx4ZXSQ.s:266    .text.rcu_periph_clock_disable:000000000000004c .LFE351
C:\Users\CYMR90~1\AppData\Local\Temp\ccx4ZXSQ.s:33904  .debug_str:000000000002b38f .LASF5791
C:\Users\CYMR90~1\AppData\Local\Temp\ccx4ZXSQ.s:26507  .debug_str:000000000000e222 .LASF5792
C:\Users\CYMR90~1\AppData\Local\Temp\ccx4ZXSQ.s:179    .text.rcu_periph_clock_enable:0000000000000000 .LFB350
C:\Users\CYMR90~1\AppData\Local\Temp\ccx4ZXSQ.s:218    .text.rcu_periph_clock_enable:0000000000000048 .LFE350
C:\Users\CYMR90~1\AppData\Local\Temp\ccx4ZXSQ.s:25611  .debug_str:000000000000a85d .LASF5793
C:\Users\CYMR90~1\AppData\Local\Temp\ccx4ZXSQ.s:146    .text.rcu_irc16m_dfs_to_rf_disable:0000000000000000 .LFB349
C:\Users\CYMR90~1\AppData\Local\Temp\ccx4ZXSQ.s:172    .text.rcu_irc16m_dfs_to_rf_disable:0000000000000024 .LFE349
C:\Users\CYMR90~1\AppData\Local\Temp\ccx4ZXSQ.s:33858  .debug_str:000000000002b11c .LASF5794
C:\Users\CYMR90~1\AppData\Local\Temp\ccx4ZXSQ.s:113    .text.rcu_irc16m_dfs_to_rf_enable:0000000000000000 .LFB348
C:\Users\CYMR90~1\AppData\Local\Temp\ccx4ZXSQ.s:139    .text.rcu_irc16m_dfs_to_rf_enable:0000000000000026 .LFE348
C:\Users\CYMR90~1\AppData\Local\Temp\ccx4ZXSQ.s:32916  .debug_str:000000000002766a .LASF5795
C:\Users\CYMR90~1\AppData\Local\Temp\ccx4ZXSQ.s:14     .text.rcu_deinit:0000000000000000 .LFB347
C:\Users\CYMR90~1\AppData\Local\Temp\ccx4ZXSQ.s:106    .text.rcu_deinit:00000000000000cc .LFE347
C:\Users\CYMR90~1\AppData\Local\Temp\ccx4ZXSQ.s:2807   .debug_info:0000000000000000 .Ldebug_info0
C:\Users\CYMR90~1\AppData\Local\Temp\ccx4ZXSQ.s:5912   .debug_macro:0000000000000000 .Ldebug_macro2
C:\Users\CYMR90~1\AppData\Local\Temp\ccx4ZXSQ.s:29410  .debug_str:0000000000019a98 .LASF314
C:\Users\CYMR90~1\AppData\Local\Temp\ccx4ZXSQ.s:28866  .debug_str:00000000000178b8 .LASF315
C:\Users\CYMR90~1\AppData\Local\Temp\ccx4ZXSQ.s:6859   .debug_macro:0000000000000000 .Ldebug_macro3
C:\Users\CYMR90~1\AppData\Local\Temp\ccx4ZXSQ.s:25179  .debug_str:0000000000008ddb .LASF369
C:\Users\CYMR90~1\AppData\Local\Temp\ccx4ZXSQ.s:24719  .debug_str:0000000000006f8e .LASF370
C:\Users\CYMR90~1\AppData\Local\Temp\ccx4ZXSQ.s:29114  .debug_str:00000000000187b8 .LASF371
C:\Users\CYMR90~1\AppData\Local\Temp\ccx4ZXSQ.s:7023   .debug_macro:0000000000000000 .Ldebug_macro4
C:\Users\CYMR90~1\AppData\Local\Temp\ccx4ZXSQ.s:7043   .debug_macro:0000000000000000 .Ldebug_macro5
C:\Users\CYMR90~1\AppData\Local\Temp\ccx4ZXSQ.s:27745  .debug_str:00000000000130ce .LASF390
C:\Users\CYMR90~1\AppData\Local\Temp\ccx4ZXSQ.s:7087   .debug_macro:0000000000000000 .Ldebug_macro6
C:\Users\CYMR90~1\AppData\Local\Temp\ccx4ZXSQ.s:7101   .debug_macro:0000000000000000 .Ldebug_macro7
C:\Users\CYMR90~1\AppData\Local\Temp\ccx4ZXSQ.s:7169   .debug_macro:0000000000000000 .Ldebug_macro8
C:\Users\CYMR90~1\AppData\Local\Temp\ccx4ZXSQ.s:7195   .debug_macro:0000000000000000 .Ldebug_macro9
C:\Users\CYMR90~1\AppData\Local\Temp\ccx4ZXSQ.s:7224   .debug_macro:0000000000000000 .Ldebug_macro10
C:\Users\CYMR90~1\AppData\Local\Temp\ccx4ZXSQ.s:29250  .debug_str:0000000000018fdb .LASF433
C:\Users\CYMR90~1\AppData\Local\Temp\ccx4ZXSQ.s:7238   .debug_macro:0000000000000000 .Ldebug_macro11
C:\Users\CYMR90~1\AppData\Local\Temp\ccx4ZXSQ.s:7282   .debug_macro:0000000000000000 .Ldebug_macro12
C:\Users\CYMR90~1\AppData\Local\Temp\ccx4ZXSQ.s:7308   .debug_macro:0000000000000000 .Ldebug_macro13
C:\Users\CYMR90~1\AppData\Local\Temp\ccx4ZXSQ.s:32894  .debug_str:0000000000027566 .LASF569
C:\Users\CYMR90~1\AppData\Local\Temp\ccx4ZXSQ.s:7679   .debug_macro:0000000000000000 .Ldebug_macro14
C:\Users\CYMR90~1\AppData\Local\Temp\ccx4ZXSQ.s:27255  .debug_str:00000000000110a3 .LASF572
C:\Users\CYMR90~1\AppData\Local\Temp\ccx4ZXSQ.s:32210  .debug_str:0000000000024825 .LASF573
C:\Users\CYMR90~1\AppData\Local\Temp\ccx4ZXSQ.s:7690   .debug_macro:0000000000000000 .Ldebug_macro15
C:\Users\CYMR90~1\AppData\Local\Temp\ccx4ZXSQ.s:7704   .debug_macro:0000000000000000 .Ldebug_macro16
C:\Users\CYMR90~1\AppData\Local\Temp\ccx4ZXSQ.s:24905  .debug_str:0000000000007baf .LASF578
C:\Users\CYMR90~1\AppData\Local\Temp\ccx4ZXSQ.s:7736   .debug_macro:0000000000000000 .Ldebug_macro17
C:\Users\CYMR90~1\AppData\Local\Temp\ccx4ZXSQ.s:7762   .debug_macro:0000000000000000 .Ldebug_macro18
C:\Users\CYMR90~1\AppData\Local\Temp\ccx4ZXSQ.s:7773   .debug_macro:0000000000000000 .Ldebug_macro19
C:\Users\CYMR90~1\AppData\Local\Temp\ccx4ZXSQ.s:7817   .debug_macro:0000000000000000 .Ldebug_macro20
C:\Users\CYMR90~1\AppData\Local\Temp\ccx4ZXSQ.s:7987   .debug_macro:0000000000000000 .Ldebug_macro21
C:\Users\CYMR90~1\AppData\Local\Temp\ccx4ZXSQ.s:7998   .debug_macro:0000000000000000 .Ldebug_macro22
C:\Users\CYMR90~1\AppData\Local\Temp\ccx4ZXSQ.s:27987  .debug_str:0000000000014070 .LASF675
C:\Users\CYMR90~1\AppData\Local\Temp\ccx4ZXSQ.s:8054   .debug_macro:0000000000000000 .Ldebug_macro23
C:\Users\CYMR90~1\AppData\Local\Temp\ccx4ZXSQ.s:8071   .debug_macro:0000000000000000 .Ldebug_macro24
C:\Users\CYMR90~1\AppData\Local\Temp\ccx4ZXSQ.s:31022  .debug_str:000000000002007b .LASF693
C:\Users\CYMR90~1\AppData\Local\Temp\ccx4ZXSQ.s:29122  .debug_str:0000000000018815 .LASF694
C:\Users\CYMR90~1\AppData\Local\Temp\ccx4ZXSQ.s:8115   .debug_macro:0000000000000000 .Ldebug_macro25
C:\Users\CYMR90~1\AppData\Local\Temp\ccx4ZXSQ.s:24175  .debug_str:0000000000004e4a .LASF700
C:\Users\CYMR90~1\AppData\Local\Temp\ccx4ZXSQ.s:25319  .debug_str:000000000000965c .LASF701
C:\Users\CYMR90~1\AppData\Local\Temp\ccx4ZXSQ.s:8135   .debug_macro:0000000000000000 .Ldebug_macro26
C:\Users\CYMR90~1\AppData\Local\Temp\ccx4ZXSQ.s:8146   .debug_macro:0000000000000000 .Ldebug_macro27
C:\Users\CYMR90~1\AppData\Local\Temp\ccx4ZXSQ.s:8190   .debug_macro:0000000000000000 .Ldebug_macro28
C:\Users\CYMR90~1\AppData\Local\Temp\ccx4ZXSQ.s:31640  .debug_str:0000000000022687 .LASF749
C:\Users\CYMR90~1\AppData\Local\Temp\ccx4ZXSQ.s:8291   .debug_macro:0000000000000000 .Ldebug_macro29
C:\Users\CYMR90~1\AppData\Local\Temp\ccx4ZXSQ.s:8308   .debug_macro:0000000000000000 .Ldebug_macro30
C:\Users\CYMR90~1\AppData\Local\Temp\ccx4ZXSQ.s:23005  .debug_str:00000000000004bd .LASF763
C:\Users\CYMR90~1\AppData\Local\Temp\ccx4ZXSQ.s:24353  .debug_str:00000000000058f2 .LASF764
C:\Users\CYMR90~1\AppData\Local\Temp\ccx4ZXSQ.s:8340   .debug_macro:0000000000000000 .Ldebug_macro31
C:\Users\CYMR90~1\AppData\Local\Temp\ccx4ZXSQ.s:8354   .debug_macro:0000000000000000 .Ldebug_macro32
C:\Users\CYMR90~1\AppData\Local\Temp\ccx4ZXSQ.s:8524   .debug_macro:0000000000000000 .Ldebug_macro33
C:\Users\CYMR90~1\AppData\Local\Temp\ccx4ZXSQ.s:26895  .debug_str:000000000000f9e3 .LASF850
C:\Users\CYMR90~1\AppData\Local\Temp\ccx4ZXSQ.s:29986  .debug_str:000000000001bf83 .LASF851
C:\Users\CYMR90~1\AppData\Local\Temp\ccx4ZXSQ.s:8610   .debug_macro:0000000000000000 .Ldebug_macro34
C:\Users\CYMR90~1\AppData\Local\Temp\ccx4ZXSQ.s:8735   .debug_macro:0000000000000000 .Ldebug_macro35
C:\Users\CYMR90~1\AppData\Local\Temp\ccx4ZXSQ.s:23303  .debug_str:0000000000001646 .LASF951
C:\Users\CYMR90~1\AppData\Local\Temp\ccx4ZXSQ.s:8947   .debug_macro:0000000000000000 .Ldebug_macro36
C:\Users\CYMR90~1\AppData\Local\Temp\ccx4ZXSQ.s:23211  .debug_str:0000000000001116 .LASF957
C:\Users\CYMR90~1\AppData\Local\Temp\ccx4ZXSQ.s:24595  .debug_str:0000000000006795 .LASF958
C:\Users\CYMR90~1\AppData\Local\Temp\ccx4ZXSQ.s:30864  .debug_str:000000000001f6cf .LASF959
C:\Users\CYMR90~1\AppData\Local\Temp\ccx4ZXSQ.s:8967   .debug_macro:0000000000000000 .Ldebug_macro37
C:\Users\CYMR90~1\AppData\Local\Temp\ccx4ZXSQ.s:9059   .debug_macro:0000000000000000 .Ldebug_macro38
C:\Users\CYMR90~1\AppData\Local\Temp\ccx4ZXSQ.s:10705  .debug_macro:0000000000000000 .Ldebug_macro39
C:\Users\CYMR90~1\AppData\Local\Temp\ccx4ZXSQ.s:10797  .debug_macro:0000000000000000 .Ldebug_macro40
C:\Users\CYMR90~1\AppData\Local\Temp\ccx4ZXSQ.s:10853  .debug_macro:0000000000000000 .Ldebug_macro41
C:\Users\CYMR90~1\AppData\Local\Temp\ccx4ZXSQ.s:10867  .debug_macro:0000000000000000 .Ldebug_macro42
C:\Users\CYMR90~1\AppData\Local\Temp\ccx4ZXSQ.s:28653  .debug_str:00000000000169ae .LASF1655
C:\Users\CYMR90~1\AppData\Local\Temp\ccx4ZXSQ.s:25453  .debug_str:0000000000009e92 .LASF1656
C:\Users\CYMR90~1\AppData\Local\Temp\ccx4ZXSQ.s:11091  .debug_macro:0000000000000000 .Ldebug_macro43
C:\Users\CYMR90~1\AppData\Local\Temp\ccx4ZXSQ.s:11138  .debug_macro:0000000000000000 .Ldebug_macro44
C:\Users\CYMR90~1\AppData\Local\Temp\ccx4ZXSQ.s:11293  .debug_macro:0000000000000000 .Ldebug_macro45
C:\Users\CYMR90~1\AppData\Local\Temp\ccx4ZXSQ.s:11349  .debug_macro:0000000000000000 .Ldebug_macro46
C:\Users\CYMR90~1\AppData\Local\Temp\ccx4ZXSQ.s:11360  .debug_macro:0000000000000000 .Ldebug_macro47
C:\Users\CYMR90~1\AppData\Local\Temp\ccx4ZXSQ.s:33686  .debug_str:000000000002a716 .LASF1782
C:\Users\CYMR90~1\AppData\Local\Temp\ccx4ZXSQ.s:28409  .debug_str:0000000000015a9d .LASF1783
C:\Users\CYMR90~1\AppData\Local\Temp\ccx4ZXSQ.s:11491  .debug_macro:0000000000000000 .Ldebug_macro48
C:\Users\CYMR90~1\AppData\Local\Temp\ccx4ZXSQ.s:12063  .debug_macro:0000000000000000 .Ldebug_macro49
C:\Users\CYMR90~1\AppData\Local\Temp\ccx4ZXSQ.s:12350  .debug_macro:0000000000000000 .Ldebug_macro50
C:\Users\CYMR90~1\AppData\Local\Temp\ccx4ZXSQ.s:12379  .debug_macro:0000000000000000 .Ldebug_macro51
C:\Users\CYMR90~1\AppData\Local\Temp\ccx4ZXSQ.s:12456  .debug_macro:0000000000000000 .Ldebug_macro52
C:\Users\CYMR90~1\AppData\Local\Temp\ccx4ZXSQ.s:12989  .debug_macro:0000000000000000 .Ldebug_macro53
C:\Users\CYMR90~1\AppData\Local\Temp\ccx4ZXSQ.s:13012  .debug_macro:0000000000000000 .Ldebug_macro54
C:\Users\CYMR90~1\AppData\Local\Temp\ccx4ZXSQ.s:13278  .debug_macro:0000000000000000 .Ldebug_macro55
C:\Users\CYMR90~1\AppData\Local\Temp\ccx4ZXSQ.s:13757  .debug_macro:0000000000000000 .Ldebug_macro56
C:\Users\CYMR90~1\AppData\Local\Temp\ccx4ZXSQ.s:14086  .debug_macro:0000000000000000 .Ldebug_macro57
C:\Users\CYMR90~1\AppData\Local\Temp\ccx4ZXSQ.s:14175  .debug_macro:0000000000000000 .Ldebug_macro58
C:\Users\CYMR90~1\AppData\Local\Temp\ccx4ZXSQ.s:14990  .debug_macro:0000000000000000 .Ldebug_macro59
C:\Users\CYMR90~1\AppData\Local\Temp\ccx4ZXSQ.s:15181  .debug_macro:0000000000000000 .Ldebug_macro60
C:\Users\CYMR90~1\AppData\Local\Temp\ccx4ZXSQ.s:15684  .debug_macro:0000000000000000 .Ldebug_macro61
C:\Users\CYMR90~1\AppData\Local\Temp\ccx4ZXSQ.s:15830  .debug_macro:0000000000000000 .Ldebug_macro62
C:\Users\CYMR90~1\AppData\Local\Temp\ccx4ZXSQ.s:16360  .debug_macro:0000000000000000 .Ldebug_macro63
C:\Users\CYMR90~1\AppData\Local\Temp\ccx4ZXSQ.s:16782  .debug_macro:0000000000000000 .Ldebug_macro64
C:\Users\CYMR90~1\AppData\Local\Temp\ccx4ZXSQ.s:17858  .debug_macro:0000000000000000 .Ldebug_macro65
C:\Users\CYMR90~1\AppData\Local\Temp\ccx4ZXSQ.s:18127  .debug_macro:0000000000000000 .Ldebug_macro66
C:\Users\CYMR90~1\AppData\Local\Temp\ccx4ZXSQ.s:18399  .debug_macro:0000000000000000 .Ldebug_macro67
C:\Users\CYMR90~1\AppData\Local\Temp\ccx4ZXSQ.s:19427  .debug_macro:0000000000000000 .Ldebug_macro68
C:\Users\CYMR90~1\AppData\Local\Temp\ccx4ZXSQ.s:19471  .debug_macro:0000000000000000 .Ldebug_macro69
C:\Users\CYMR90~1\AppData\Local\Temp\ccx4ZXSQ.s:20097  .debug_macro:0000000000000000 .Ldebug_macro70
C:\Users\CYMR90~1\AppData\Local\Temp\ccx4ZXSQ.s:20156  .debug_macro:0000000000000000 .Ldebug_macro71
C:\Users\CYMR90~1\AppData\Local\Temp\ccx4ZXSQ.s:23079  .debug_str:00000000000008ac .LASF5556
C:\Users\CYMR90~1\AppData\Local\Temp\ccx4ZXSQ.s:33352  .debug_str:0000000000029359 .LASF5557
C:\Users\CYMR90~1\AppData\Local\Temp\ccx4ZXSQ.s:29946  .debug_str:000000000001bcef .LASF5558
C:\Users\CYMR90~1\AppData\Local\Temp\ccx4ZXSQ.s:26965  .debug_str:000000000000fe5a .LASF5559
C:\Users\CYMR90~1\AppData\Local\Temp\ccx4ZXSQ.s:34172  .debug_str:000000000002c45a .LASF5560
C:\Users\CYMR90~1\AppData\Local\Temp\ccx4ZXSQ.s:31376  .debug_str:0000000000021622 .LASF5561
C:\Users\CYMR90~1\AppData\Local\Temp\ccx4ZXSQ.s:25689  .debug_str:000000000000adc6 .LASF5562
C:\Users\CYMR90~1\AppData\Local\Temp\ccx4ZXSQ.s:24335  .debug_str:00000000000057b7 .LASF0
C:\Users\CYMR90~1\AppData\Local\Temp\ccx4ZXSQ.s:28850  .debug_str:00000000000177d1 .LASF1
C:\Users\CYMR90~1\AppData\Local\Temp\ccx4ZXSQ.s:27063  .debug_str:000000000001045e .LASF2
C:\Users\CYMR90~1\AppData\Local\Temp\ccx4ZXSQ.s:27131  .debug_str:00000000000108df .LASF3
C:\Users\CYMR90~1\AppData\Local\Temp\ccx4ZXSQ.s:28459  .debug_str:0000000000015d49 .LASF4
C:\Users\CYMR90~1\AppData\Local\Temp\ccx4ZXSQ.s:34096  .debug_str:000000000002bf66 .LASF5
C:\Users\CYMR90~1\AppData\Local\Temp\ccx4ZXSQ.s:24569  .debug_str:00000000000065f8 .LASF6
C:\Users\CYMR90~1\AppData\Local\Temp\ccx4ZXSQ.s:33410  .debug_str:00000000000296bc .LASF7
C:\Users\CYMR90~1\AppData\Local\Temp\ccx4ZXSQ.s:32328  .debug_str:0000000000025007 .LASF8
C:\Users\CYMR90~1\AppData\Local\Temp\ccx4ZXSQ.s:30212  .debug_str:000000000001ccd2 .LASF9
C:\Users\CYMR90~1\AppData\Local\Temp\ccx4ZXSQ.s:29542  .debug_str:000000000001a338 .LASF10
C:\Users\CYMR90~1\AppData\Local\Temp\ccx4ZXSQ.s:29396  .debug_str:00000000000199bc .LASF11
C:\Users\CYMR90~1\AppData\Local\Temp\ccx4ZXSQ.s:33934  .debug_str:000000000002b550 .LASF12
C:\Users\CYMR90~1\AppData\Local\Temp\ccx4ZXSQ.s:32286  .debug_str:0000000000024d6c .LASF13
C:\Users\CYMR90~1\AppData\Local\Temp\ccx4ZXSQ.s:25613  .debug_str:000000000000a87a .LASF14
C:\Users\CYMR90~1\AppData\Local\Temp\ccx4ZXSQ.s:30814  .debug_str:000000000001f419 .LASF15
C:\Users\CYMR90~1\AppData\Local\Temp\ccx4ZXSQ.s:31576  .debug_str:0000000000022290 .LASF16
C:\Users\CYMR90~1\AppData\Local\Temp\ccx4ZXSQ.s:25663  .debug_str:000000000000ab81 .LASF17
C:\Users\CYMR90~1\AppData\Local\Temp\ccx4ZXSQ.s:32626  .debug_str:00000000000264dd .LASF18
C:\Users\CYMR90~1\AppData\Local\Temp\ccx4ZXSQ.s:27341  .debug_str:0000000000011617 .LASF19
C:\Users\CYMR90~1\AppData\Local\Temp\ccx4ZXSQ.s:23625  .debug_str:0000000000002ac7 .LASF20
C:\Users\CYMR90~1\AppData\Local\Temp\ccx4ZXSQ.s:29202  .debug_str:0000000000018d07 .LASF21
C:\Users\CYMR90~1\AppData\Local\Temp\ccx4ZXSQ.s:29200  .debug_str:0000000000018ced .LASF22
C:\Users\CYMR90~1\AppData\Local\Temp\ccx4ZXSQ.s:31888  .debug_str:0000000000023563 .LASF23
C:\Users\CYMR90~1\AppData\Local\Temp\ccx4ZXSQ.s:30162  .debug_str:000000000001ca09 .LASF24
C:\Users\CYMR90~1\AppData\Local\Temp\ccx4ZXSQ.s:23871  .debug_str:0000000000003ac1 .LASF25
C:\Users\CYMR90~1\AppData\Local\Temp\ccx4ZXSQ.s:28585  .debug_str:0000000000016536 .LASF26
C:\Users\CYMR90~1\AppData\Local\Temp\ccx4ZXSQ.s:31892  .debug_str:000000000002358f .LASF27
C:\Users\CYMR90~1\AppData\Local\Temp\ccx4ZXSQ.s:31584  .debug_str:00000000000222e8 .LASF28
C:\Users\CYMR90~1\AppData\Local\Temp\ccx4ZXSQ.s:24283  .debug_str:0000000000005494 .LASF29
C:\Users\CYMR90~1\AppData\Local\Temp\ccx4ZXSQ.s:30592  .debug_str:000000000001e6b8 .LASF30
C:\Users\CYMR90~1\AppData\Local\Temp\ccx4ZXSQ.s:23245  .debug_str:0000000000001305 .LASF31
C:\Users\CYMR90~1\AppData\Local\Temp\ccx4ZXSQ.s:31058  .debug_str:0000000000020262 .LASF32
C:\Users\CYMR90~1\AppData\Local\Temp\ccx4ZXSQ.s:25493  .debug_str:000000000000a0ee .LASF33
C:\Users\CYMR90~1\AppData\Local\Temp\ccx4ZXSQ.s:25339  .debug_str:000000000000976f .LASF34
C:\Users\CYMR90~1\AppData\Local\Temp\ccx4ZXSQ.s:26705  .debug_str:000000000000eea4 .LASF35
C:\Users\CYMR90~1\AppData\Local\Temp\ccx4ZXSQ.s:29654  .debug_str:000000000001a954 .LASF36
C:\Users\CYMR90~1\AppData\Local\Temp\ccx4ZXSQ.s:24817  .debug_str:000000000000761d .LASF37
C:\Users\CYMR90~1\AppData\Local\Temp\ccx4ZXSQ.s:27061  .debug_str:000000000001043b .LASF38
C:\Users\CYMR90~1\AppData\Local\Temp\ccx4ZXSQ.s:23831  .debug_str:00000000000037f3 .LASF39
C:\Users\CYMR90~1\AppData\Local\Temp\ccx4ZXSQ.s:23615  .debug_str:0000000000002a1f .LASF40
C:\Users\CYMR90~1\AppData\Local\Temp\ccx4ZXSQ.s:27243  .debug_str:0000000000010ff1 .LASF41
C:\Users\CYMR90~1\AppData\Local\Temp\ccx4ZXSQ.s:27679  .debug_str:0000000000012c71 .LASF42
C:\Users\CYMR90~1\AppData\Local\Temp\ccx4ZXSQ.s:27939  .debug_str:0000000000013dae .LASF43
C:\Users\CYMR90~1\AppData\Local\Temp\ccx4ZXSQ.s:23671  .debug_str:0000000000002da2 .LASF44
C:\Users\CYMR90~1\AppData\Local\Temp\ccx4ZXSQ.s:27543  .debug_str:0000000000012407 .LASF45
C:\Users\CYMR90~1\AppData\Local\Temp\ccx4ZXSQ.s:24111  .debug_str:00000000000049a8 .LASF46
C:\Users\CYMR90~1\AppData\Local\Temp\ccx4ZXSQ.s:30598  .debug_str:000000000001e71d .LASF47
C:\Users\CYMR90~1\AppData\Local\Temp\ccx4ZXSQ.s:32330  .debug_str:000000000002501c .LASF48
C:\Users\CYMR90~1\AppData\Local\Temp\ccx4ZXSQ.s:26441  .debug_str:000000000000de5b .LASF49
C:\Users\CYMR90~1\AppData\Local\Temp\ccx4ZXSQ.s:23457  .debug_str:0000000000002080 .LASF50
C:\Users\CYMR90~1\AppData\Local\Temp\ccx4ZXSQ.s:22945  .debug_str:0000000000000103 .LASF51
C:\Users\CYMR90~1\AppData\Local\Temp\ccx4ZXSQ.s:33698  .debug_str:000000000002a7ab .LASF52
C:\Users\CYMR90~1\AppData\Local\Temp\ccx4ZXSQ.s:31960  .debug_str:0000000000023964 .LASF53
C:\Users\CYMR90~1\AppData\Local\Temp\ccx4ZXSQ.s:28019  .debug_str:0000000000014288 .LASF54
C:\Users\CYMR90~1\AppData\Local\Temp\ccx4ZXSQ.s:27027  .debug_str:00000000000101eb .LASF55
C:\Users\CYMR90~1\AppData\Local\Temp\ccx4ZXSQ.s:24917  .debug_str:0000000000007c69 .LASF56
C:\Users\CYMR90~1\AppData\Local\Temp\ccx4ZXSQ.s:28437  .debug_str:0000000000015c16 .LASF57
C:\Users\CYMR90~1\AppData\Local\Temp\ccx4ZXSQ.s:23197  .debug_str:0000000000001063 .LASF58
C:\Users\CYMR90~1\AppData\Local\Temp\ccx4ZXSQ.s:32630  .debug_str:000000000002651d .LASF59
C:\Users\CYMR90~1\AppData\Local\Temp\ccx4ZXSQ.s:27949  .debug_str:0000000000013e19 .LASF60
C:\Users\CYMR90~1\AppData\Local\Temp\ccx4ZXSQ.s:29932  .debug_str:000000000001bc42 .LASF61
C:\Users\CYMR90~1\AppData\Local\Temp\ccx4ZXSQ.s:23689  .debug_str:0000000000002ec6 .LASF62
C:\Users\CYMR90~1\AppData\Local\Temp\ccx4ZXSQ.s:26433  .debug_str:000000000000ddf1 .LASF63
C:\Users\CYMR90~1\AppData\Local\Temp\ccx4ZXSQ.s:26159  .debug_str:000000000000cc88 .LASF64
C:\Users\CYMR90~1\AppData\Local\Temp\ccx4ZXSQ.s:29630  .debug_str:000000000001a817 .LASF65
C:\Users\CYMR90~1\AppData\Local\Temp\ccx4ZXSQ.s:28253  .debug_str:000000000001509f .LASF66
C:\Users\CYMR90~1\AppData\Local\Temp\ccx4ZXSQ.s:33474  .debug_str:0000000000029aa9 .LASF67
C:\Users\CYMR90~1\AppData\Local\Temp\ccx4ZXSQ.s:33936  .debug_str:000000000002b563 .LASF68
C:\Users\CYMR90~1\AppData\Local\Temp\ccx4ZXSQ.s:27493  .debug_str:0000000000012087 .LASF69
C:\Users\CYMR90~1\AppData\Local\Temp\ccx4ZXSQ.s:23545  .debug_str:0000000000002591 .LASF70
C:\Users\CYMR90~1\AppData\Local\Temp\ccx4ZXSQ.s:24123  .debug_str:0000000000004b1a .LASF71
C:\Users\CYMR90~1\AppData\Local\Temp\ccx4ZXSQ.s:27531  .debug_str:0000000000012344 .LASF72
C:\Users\CYMR90~1\AppData\Local\Temp\ccx4ZXSQ.s:27139  .debug_str:0000000000010951 .LASF73
C:\Users\CYMR90~1\AppData\Local\Temp\ccx4ZXSQ.s:27763  .debug_str:000000000001320b .LASF74
C:\Users\CYMR90~1\AppData\Local\Temp\ccx4ZXSQ.s:27603  .debug_str:000000000001278f .LASF75
C:\Users\CYMR90~1\AppData\Local\Temp\ccx4ZXSQ.s:27699  .debug_str:0000000000012ddc .LASF76
C:\Users\CYMR90~1\AppData\Local\Temp\ccx4ZXSQ.s:32244  .debug_str:0000000000024ab1 .LASF77
C:\Users\CYMR90~1\AppData\Local\Temp\ccx4ZXSQ.s:30134  .debug_str:000000000001c865 .LASF78
C:\Users\CYMR90~1\AppData\Local\Temp\ccx4ZXSQ.s:30562  .debug_str:000000000001e46d .LASF79
C:\Users\CYMR90~1\AppData\Local\Temp\ccx4ZXSQ.s:33456  .debug_str:0000000000029956 .LASF80
C:\Users\CYMR90~1\AppData\Local\Temp\ccx4ZXSQ.s:25445  .debug_str:0000000000009e32 .LASF81
C:\Users\CYMR90~1\AppData\Local\Temp\ccx4ZXSQ.s:25649  .debug_str:000000000000aa55 .LASF82
C:\Users\CYMR90~1\AppData\Local\Temp\ccx4ZXSQ.s:33584  .debug_str:000000000002a162 .LASF83
C:\Users\CYMR90~1\AppData\Local\Temp\ccx4ZXSQ.s:25383  .debug_str:0000000000009a36 .LASF84
C:\Users\CYMR90~1\AppData\Local\Temp\ccx4ZXSQ.s:24637  .debug_str:0000000000006a2c .LASF85
C:\Users\CYMR90~1\AppData\Local\Temp\ccx4ZXSQ.s:29832  .debug_str:000000000001b5d6 .LASF86
C:\Users\CYMR90~1\AppData\Local\Temp\ccx4ZXSQ.s:33616  .debug_str:000000000002a303 .LASF87
C:\Users\CYMR90~1\AppData\Local\Temp\ccx4ZXSQ.s:30996  .debug_str:000000000001fed9 .LASF88
C:\Users\CYMR90~1\AppData\Local\Temp\ccx4ZXSQ.s:29750  .debug_str:000000000001b0e6 .LASF89
C:\Users\CYMR90~1\AppData\Local\Temp\ccx4ZXSQ.s:31026  .debug_str:00000000000200ae .LASF90
C:\Users\CYMR90~1\AppData\Local\Temp\ccx4ZXSQ.s:33836  .debug_str:000000000002afd4 .LASF91
C:\Users\CYMR90~1\AppData\Local\Temp\ccx4ZXSQ.s:32640  .debug_str:00000000000265cb .LASF92
C:\Users\CYMR90~1\AppData\Local\Temp\ccx4ZXSQ.s:25525  .debug_str:000000000000a310 .LASF93
C:\Users\CYMR90~1\AppData\Local\Temp\ccx4ZXSQ.s:30440  .debug_str:000000000001dcd4 .LASF94
C:\Users\CYMR90~1\AppData\Local\Temp\ccx4ZXSQ.s:27979  .debug_str:0000000000013ff8 .LASF95
C:\Users\CYMR90~1\AppData\Local\Temp\ccx4ZXSQ.s:27961  .debug_str:0000000000013ede .LASF96
C:\Users\CYMR90~1\AppData\Local\Temp\ccx4ZXSQ.s:34146  .debug_str:000000000002c28d .LASF97
C:\Users\CYMR90~1\AppData\Local\Temp\ccx4ZXSQ.s:27619  .debug_str:00000000000128c0 .LASF98
C:\Users\CYMR90~1\AppData\Local\Temp\ccx4ZXSQ.s:31602  .debug_str:000000000002240f .LASF99
C:\Users\CYMR90~1\AppData\Local\Temp\ccx4ZXSQ.s:25859  .debug_str:000000000000b8e8 .LASF100
C:\Users\CYMR90~1\AppData\Local\Temp\ccx4ZXSQ.s:27077  .debug_str:0000000000010522 .LASF101
C:\Users\CYMR90~1\AppData\Local\Temp\ccx4ZXSQ.s:28499  .debug_str:0000000000015f80 .LASF102
C:\Users\CYMR90~1\AppData\Local\Temp\ccx4ZXSQ.s:27369  .debug_str:00000000000117cc .LASF103
C:\Users\CYMR90~1\AppData\Local\Temp\ccx4ZXSQ.s:26349  .debug_str:000000000000d87c .LASF104
C:\Users\CYMR90~1\AppData\Local\Temp\ccx4ZXSQ.s:27553  .debug_str:000000000001249e .LASF105
C:\Users\CYMR90~1\AppData\Local\Temp\ccx4ZXSQ.s:24613  .debug_str:000000000000688c .LASF106
C:\Users\CYMR90~1\AppData\Local\Temp\ccx4ZXSQ.s:27363  .debug_str:0000000000011767 .LASF107
C:\Users\CYMR90~1\AppData\Local\Temp\ccx4ZXSQ.s:26345  .debug_str:000000000000d853 .LASF108
C:\Users\CYMR90~1\AppData\Local\Temp\ccx4ZXSQ.s:27817  .debug_str:0000000000013560 .LASF109
C:\Users\CYMR90~1\AppData\Local\Temp\ccx4ZXSQ.s:26729  .debug_str:000000000000f003 .LASF110
C:\Users\CYMR90~1\AppData\Local\Temp\ccx4ZXSQ.s:29258  .debug_str:0000000000019033 .LASF111
C:\Users\CYMR90~1\AppData\Local\Temp\ccx4ZXSQ.s:25791  .debug_str:000000000000b4fb .LASF112
C:\Users\CYMR90~1\AppData\Local\Temp\ccx4ZXSQ.s:25521  .debug_str:000000000000a2b3 .LASF113
C:\Users\CYMR90~1\AppData\Local\Temp\ccx4ZXSQ.s:28531  .debug_str:00000000000161a3 .LASF114
C:\Users\CYMR90~1\AppData\Local\Temp\ccx4ZXSQ.s:33514  .debug_str:0000000000029cfb .LASF115
C:\Users\CYMR90~1\AppData\Local\Temp\ccx4ZXSQ.s:32134  .debug_str:00000000000243dc .LASF116
C:\Users\CYMR90~1\AppData\Local\Temp\ccx4ZXSQ.s:25271  .debug_str:000000000000939f .LASF117
C:\Users\CYMR90~1\AppData\Local\Temp\ccx4ZXSQ.s:29998  .debug_str:000000000001c023 .LASF118
C:\Users\CYMR90~1\AppData\Local\Temp\ccx4ZXSQ.s:34256  .debug_str:000000000002c9cf .LASF119
C:\Users\CYMR90~1\AppData\Local\Temp\ccx4ZXSQ.s:26645  .debug_str:000000000000ea83 .LASF120
C:\Users\CYMR90~1\AppData\Local\Temp\ccx4ZXSQ.s:32228  .debug_str:0000000000024906 .LASF121
C:\Users\CYMR90~1\AppData\Local\Temp\ccx4ZXSQ.s:26113  .debug_str:000000000000c9bb .LASF122
C:\Users\CYMR90~1\AppData\Local\Temp\ccx4ZXSQ.s:26231  .debug_str:000000000000d196 .LASF123
C:\Users\CYMR90~1\AppData\Local\Temp\ccx4ZXSQ.s:23799  .debug_str:00000000000035f9 .LASF124
C:\Users\CYMR90~1\AppData\Local\Temp\ccx4ZXSQ.s:24085  .debug_str:00000000000047e6 .LASF125
C:\Users\CYMR90~1\AppData\Local\Temp\ccx4ZXSQ.s:33198  .debug_str:000000000002888f .LASF126
C:\Users\CYMR90~1\AppData\Local\Temp\ccx4ZXSQ.s:27559  .debug_str:00000000000124dc .LASF127
C:\Users\CYMR90~1\AppData\Local\Temp\ccx4ZXSQ.s:30410  .debug_str:000000000001db20 .LASF128
C:\Users\CYMR90~1\AppData\Local\Temp\ccx4ZXSQ.s:25347  .debug_str:00000000000097e7 .LASF129
C:\Users\CYMR90~1\AppData\Local\Temp\ccx4ZXSQ.s:32752  .debug_str:0000000000026cc0 .LASF130
C:\Users\CYMR90~1\AppData\Local\Temp\ccx4ZXSQ.s:33068  .debug_str:000000000002807e .LASF131
C:\Users\CYMR90~1\AppData\Local\Temp\ccx4ZXSQ.s:32874  .debug_str:000000000002740b .LASF132
C:\Users\CYMR90~1\AppData\Local\Temp\ccx4ZXSQ.s:26623  .debug_str:000000000000e921 .LASF133
C:\Users\CYMR90~1\AppData\Local\Temp\ccx4ZXSQ.s:32152  .debug_str:00000000000244dc .LASF134
C:\Users\CYMR90~1\AppData\Local\Temp\ccx4ZXSQ.s:24077  .debug_str:0000000000004768 .LASF135
C:\Users\CYMR90~1\AppData\Local\Temp\ccx4ZXSQ.s:24967  .debug_str:0000000000007f9c .LASF136
C:\Users\CYMR90~1\AppData\Local\Temp\ccx4ZXSQ.s:33928  .debug_str:000000000002b4f9 .LASF137
C:\Users\CYMR90~1\AppData\Local\Temp\ccx4ZXSQ.s:31994  .debug_str:0000000000023b23 .LASF138
C:\Users\CYMR90~1\AppData\Local\Temp\ccx4ZXSQ.s:33406  .debug_str:0000000000029688 .LASF139
C:\Users\CYMR90~1\AppData\Local\Temp\ccx4ZXSQ.s:32510  .debug_str:0000000000025cbe .LASF140
C:\Users\CYMR90~1\AppData\Local\Temp\ccx4ZXSQ.s:30090  .debug_str:000000000001c5eb .LASF141
C:\Users\CYMR90~1\AppData\Local\Temp\ccx4ZXSQ.s:25485  .debug_str:000000000000a06c .LASF142
C:\Users\CYMR90~1\AppData\Local\Temp\ccx4ZXSQ.s:34002  .debug_str:000000000002b921 .LASF143
C:\Users\CYMR90~1\AppData\Local\Temp\ccx4ZXSQ.s:29224  .debug_str:0000000000018e50 .LASF144
C:\Users\CYMR90~1\AppData\Local\Temp\ccx4ZXSQ.s:28267  .debug_str:000000000001519b .LASF145
C:\Users\CYMR90~1\AppData\Local\Temp\ccx4ZXSQ.s:26191  .debug_str:000000000000cf4c .LASF146
C:\Users\CYMR90~1\AppData\Local\Temp\ccx4ZXSQ.s:24121  .debug_str:0000000000004b03 .LASF147
C:\Users\CYMR90~1\AppData\Local\Temp\ccx4ZXSQ.s:26773  .debug_str:000000000000f2b5 .LASF148
C:\Users\CYMR90~1\AppData\Local\Temp\ccx4ZXSQ.s:29204  .debug_str:0000000000018d1b .LASF149
C:\Users\CYMR90~1\AppData\Local\Temp\ccx4ZXSQ.s:23035  .debug_str:0000000000000678 .LASF150
C:\Users\CYMR90~1\AppData\Local\Temp\ccx4ZXSQ.s:31586  .debug_str:0000000000022302 .LASF151
C:\Users\CYMR90~1\AppData\Local\Temp\ccx4ZXSQ.s:27805  .debug_str:0000000000013490 .LASF152
C:\Users\CYMR90~1\AppData\Local\Temp\ccx4ZXSQ.s:32516  .debug_str:0000000000025d11 .LASF153
C:\Users\CYMR90~1\AppData\Local\Temp\ccx4ZXSQ.s:30306  .debug_str:000000000001d355 .LASF154
C:\Users\CYMR90~1\AppData\Local\Temp\ccx4ZXSQ.s:27199  .debug_str:0000000000010d6a .LASF155
C:\Users\CYMR90~1\AppData\Local\Temp\ccx4ZXSQ.s:30320  .debug_str:000000000001d462 .LASF156
C:\Users\CYMR90~1\AppData\Local\Temp\ccx4ZXSQ.s:30446  .debug_str:000000000001dd3c .LASF157
C:\Users\CYMR90~1\AppData\Local\Temp\ccx4ZXSQ.s:26043  .debug_str:000000000000c580 .LASF158
C:\Users\CYMR90~1\AppData\Local\Temp\ccx4ZXSQ.s:25069  .debug_str:000000000000875d .LASF159
C:\Users\CYMR90~1\AppData\Local\Temp\ccx4ZXSQ.s:29940  .debug_str:000000000001bcad .LASF160
C:\Users\CYMR90~1\AppData\Local\Temp\ccx4ZXSQ.s:31412  .debug_str:0000000000021843 .LASF161
C:\Users\CYMR90~1\AppData\Local\Temp\ccx4ZXSQ.s:29532  .debug_str:000000000001a280 .LASF162
C:\Users\CYMR90~1\AppData\Local\Temp\ccx4ZXSQ.s:32142  .debug_str:000000000002443e .LASF163
C:\Users\CYMR90~1\AppData\Local\Temp\ccx4ZXSQ.s:33820  .debug_str:000000000002aee0 .LASF164
C:\Users\CYMR90~1\AppData\Local\Temp\ccx4ZXSQ.s:24809  .debug_str:00000000000075bc .LASF165
C:\Users\CYMR90~1\AppData\Local\Temp\ccx4ZXSQ.s:33502  .debug_str:0000000000029c6c .LASF166
C:\Users\CYMR90~1\AppData\Local\Temp\ccx4ZXSQ.s:33324  .debug_str:0000000000029195 .LASF167
C:\Users\CYMR90~1\AppData\Local\Temp\ccx4ZXSQ.s:32066  .debug_str:0000000000023f86 .LASF168
C:\Users\CYMR90~1\AppData\Local\Temp\ccx4ZXSQ.s:28992  .debug_str:0000000000018071 .LASF169
C:\Users\CYMR90~1\AppData\Local\Temp\ccx4ZXSQ.s:32936  .debug_str:0000000000027796 .LASF170
C:\Users\CYMR90~1\AppData\Local\Temp\ccx4ZXSQ.s:28615  .debug_str:00000000000166f7 .LASF171
C:\Users\CYMR90~1\AppData\Local\Temp\ccx4ZXSQ.s:30218  .debug_str:000000000001cd35 .LASF172
C:\Users\CYMR90~1\AppData\Local\Temp\ccx4ZXSQ.s:25477  .debug_str:0000000000009ff8 .LASF173
C:\Users\CYMR90~1\AppData\Local\Temp\ccx4ZXSQ.s:31952  .debug_str:00000000000238f7 .LASF174
C:\Users\CYMR90~1\AppData\Local\Temp\ccx4ZXSQ.s:24463  .debug_str:0000000000005f79 .LASF175
C:\Users\CYMR90~1\AppData\Local\Temp\ccx4ZXSQ.s:25311  .debug_str:00000000000095f3 .LASF176
C:\Users\CYMR90~1\AppData\Local\Temp\ccx4ZXSQ.s:23949  .debug_str:0000000000003f76 .LASF177
C:\Users\CYMR90~1\AppData\Local\Temp\ccx4ZXSQ.s:29406  .debug_str:0000000000019a56 .LASF178
C:\Users\CYMR90~1\AppData\Local\Temp\ccx4ZXSQ.s:26285  .debug_str:000000000000d4aa .LASF179
C:\Users\CYMR90~1\AppData\Local\Temp\ccx4ZXSQ.s:23451  .debug_str:0000000000002026 .LASF180
C:\Users\CYMR90~1\AppData\Local\Temp\ccx4ZXSQ.s:34142  .debug_str:000000000002c262 .LASF181
C:\Users\CYMR90~1\AppData\Local\Temp\ccx4ZXSQ.s:23231  .debug_str:000000000000125a .LASF182
C:\Users\CYMR90~1\AppData\Local\Temp\ccx4ZXSQ.s:27919  .debug_str:0000000000013c33 .LASF183
C:\Users\CYMR90~1\AppData\Local\Temp\ccx4ZXSQ.s:28333  .debug_str:00000000000155d7 .LASF184
C:\Users\CYMR90~1\AppData\Local\Temp\ccx4ZXSQ.s:33336  .debug_str:000000000002926a .LASF185
C:\Users\CYMR90~1\AppData\Local\Temp\ccx4ZXSQ.s:28904  .debug_str:0000000000017b07 .LASF186
C:\Users\CYMR90~1\AppData\Local\Temp\ccx4ZXSQ.s:24793  .debug_str:0000000000007465 .LASF187
C:\Users\CYMR90~1\AppData\Local\Temp\ccx4ZXSQ.s:30974  .debug_str:000000000001fdc2 .LASF188
C:\Users\CYMR90~1\AppData\Local\Temp\ccx4ZXSQ.s:26665  .debug_str:000000000000ec43 .LASF189
C:\Users\CYMR90~1\AppData\Local\Temp\ccx4ZXSQ.s:28025  .debug_str:00000000000142e1 .LASF190
C:\Users\CYMR90~1\AppData\Local\Temp\ccx4ZXSQ.s:29218  .debug_str:0000000000018e01 .LASF191
C:\Users\CYMR90~1\AppData\Local\Temp\ccx4ZXSQ.s:28777  .debug_str:000000000001718c .LASF192
C:\Users\CYMR90~1\AppData\Local\Temp\ccx4ZXSQ.s:31700  .debug_str:00000000000229e5 .LASF193
C:\Users\CYMR90~1\AppData\Local\Temp\ccx4ZXSQ.s:24417  .debug_str:0000000000005cc6 .LASF194
C:\Users\CYMR90~1\AppData\Local\Temp\ccx4ZXSQ.s:23765  .debug_str:00000000000033b4 .LASF195
C:\Users\CYMR90~1\AppData\Local\Temp\ccx4ZXSQ.s:26489  .debug_str:000000000000e0f7 .LASF196
C:\Users\CYMR90~1\AppData\Local\Temp\ccx4ZXSQ.s:27435  .debug_str:0000000000011c28 .LASF197
C:\Users\CYMR90~1\AppData\Local\Temp\ccx4ZXSQ.s:24267  .debug_str:0000000000005389 .LASF198
C:\Users\CYMR90~1\AppData\Local\Temp\ccx4ZXSQ.s:33230  .debug_str:0000000000028adc .LASF199
C:\Users\CYMR90~1\AppData\Local\Temp\ccx4ZXSQ.s:31348  .debug_str:000000000002149c .LASF200
C:\Users\CYMR90~1\AppData\Local\Temp\ccx4ZXSQ.s:30454  .debug_str:000000000001dd9a .LASF201
C:\Users\CYMR90~1\AppData\Local\Temp\ccx4ZXSQ.s:30696  .debug_str:000000000001eced .LASF202
C:\Users\CYMR90~1\AppData\Local\Temp\ccx4ZXSQ.s:33674  .debug_str:000000000002a65f .LASF203
C:\Users\CYMR90~1\AppData\Local\Temp\ccx4ZXSQ.s:23781  .debug_str:00000000000034d4 .LASF204
C:\Users\CYMR90~1\AppData\Local\Temp\ccx4ZXSQ.s:26899  .debug_str:000000000000fa0f .LASF205
C:\Users\CYMR90~1\AppData\Local\Temp\ccx4ZXSQ.s:33416  .debug_str:0000000000029704 .LASF206
C:\Users\CYMR90~1\AppData\Local\Temp\ccx4ZXSQ.s:28143  .debug_str:00000000000149d5 .LASF207
C:\Users\CYMR90~1\AppData\Local\Temp\ccx4ZXSQ.s:31014  .debug_str:0000000000020000 .LASF208
C:\Users\CYMR90~1\AppData\Local\Temp\ccx4ZXSQ.s:26107  .debug_str:000000000000c976 .LASF209
C:\Users\CYMR90~1\AppData\Local\Temp\ccx4ZXSQ.s:34352  .debug_str:000000000002cfcd .LASF210
C:\Users\CYMR90~1\AppData\Local\Temp\ccx4ZXSQ.s:28115  .debug_str:0000000000014826 .LASF211
C:\Users\CYMR90~1\AppData\Local\Temp\ccx4ZXSQ.s:30856  .debug_str:000000000001f643 .LASF212
C:\Users\CYMR90~1\AppData\Local\Temp\ccx4ZXSQ.s:29426  .debug_str:0000000000019b80 .LASF213
C:\Users\CYMR90~1\AppData\Local\Temp\ccx4ZXSQ.s:24505  .debug_str:000000000000622c .LASF214
C:\Users\CYMR90~1\AppData\Local\Temp\ccx4ZXSQ.s:28123  .debug_str:0000000000014896 .LASF215
C:\Users\CYMR90~1\AppData\Local\Temp\ccx4ZXSQ.s:28501  .debug_str:0000000000015f9c .LASF216
C:\Users\CYMR90~1\AppData\Local\Temp\ccx4ZXSQ.s:31124  .debug_str:0000000000020662 .LASF217
C:\Users\CYMR90~1\AppData\Local\Temp\ccx4ZXSQ.s:26975  .debug_str:000000000000fed3 .LASF218
C:\Users\CYMR90~1\AppData\Local\Temp\ccx4ZXSQ.s:32518  .debug_str:0000000000025d4d .LASF219
C:\Users\CYMR90~1\AppData\Local\Temp\ccx4ZXSQ.s:32322  .debug_str:0000000000024fae .LASF220
C:\Users\CYMR90~1\AppData\Local\Temp\ccx4ZXSQ.s:31850  .debug_str:00000000000232bd .LASF221
C:\Users\CYMR90~1\AppData\Local\Temp\ccx4ZXSQ.s:28421  .debug_str:0000000000015b47 .LASF222
C:\Users\CYMR90~1\AppData\Local\Temp\ccx4ZXSQ.s:24473  .debug_str:0000000000005ffb .LASF223
C:\Users\CYMR90~1\AppData\Local\Temp\ccx4ZXSQ.s:25169  .debug_str:0000000000008d28 .LASF224
C:\Users\CYMR90~1\AppData\Local\Temp\ccx4ZXSQ.s:34012  .debug_str:000000000002b9a5 .LASF225
C:\Users\CYMR90~1\AppData\Local\Temp\ccx4ZXSQ.s:26565  .debug_str:000000000000e5dc .LASF226
C:\Users\CYMR90~1\AppData\Local\Temp\ccx4ZXSQ.s:30302  .debug_str:000000000001d327 .LASF227
C:\Users\CYMR90~1\AppData\Local\Temp\ccx4ZXSQ.s:30140  .debug_str:000000000001c8a3 .LASF228
C:\Users\CYMR90~1\AppData\Local\Temp\ccx4ZXSQ.s:26503  .debug_str:000000000000e1c9 .LASF229
C:\Users\CYMR90~1\AppData\Local\Temp\ccx4ZXSQ.s:30896  .debug_str:000000000001f8c1 .LASF230
C:\Users\CYMR90~1\AppData\Local\Temp\ccx4ZXSQ.s:25223  .debug_str:00000000000090b7 .LASF231
C:\Users\CYMR90~1\AppData\Local\Temp\ccx4ZXSQ.s:26657  .debug_str:000000000000eb52 .LASF232
C:\Users\CYMR90~1\AppData\Local\Temp\ccx4ZXSQ.s:25125  .debug_str:0000000000008a8b .LASF233
C:\Users\CYMR90~1\AppData\Local\Temp\ccx4ZXSQ.s:27189  .debug_str:0000000000010c33 .LASF234
C:\Users\CYMR90~1\AppData\Local\Temp\ccx4ZXSQ.s:26897  .debug_str:000000000000f9f5 .LASF235
C:\Users\CYMR90~1\AppData\Local\Temp\ccx4ZXSQ.s:32074  .debug_str:0000000000024032 .LASF236
C:\Users\CYMR90~1\AppData\Local\Temp\ccx4ZXSQ.s:26915  .debug_str:000000000000faf8 .LASF237
C:\Users\CYMR90~1\AppData\Local\Temp\ccx4ZXSQ.s:32748  .debug_str:0000000000026c84 .LASF238
C:\Users\CYMR90~1\AppData\Local\Temp\ccx4ZXSQ.s:32054  .debug_str:0000000000023ebd .LASF239
C:\Users\CYMR90~1\AppData\Local\Temp\ccx4ZXSQ.s:32282  .debug_str:0000000000024d3a .LASF240
C:\Users\CYMR90~1\AppData\Local\Temp\ccx4ZXSQ.s:24931  .debug_str:0000000000007d95 .LASF241
C:\Users\CYMR90~1\AppData\Local\Temp\ccx4ZXSQ.s:26587  .debug_str:000000000000e710 .LASF242
C:\Users\CYMR90~1\AppData\Local\Temp\ccx4ZXSQ.s:27601  .debug_str:0000000000012750 .LASF243
C:\Users\CYMR90~1\AppData\Local\Temp\ccx4ZXSQ.s:32084  .debug_str:00000000000240aa .LASF244
C:\Users\CYMR90~1\AppData\Local\Temp\ccx4ZXSQ.s:27789  .debug_str:0000000000013370 .LASF245
C:\Users\CYMR90~1\AppData\Local\Temp\ccx4ZXSQ.s:30908  .debug_str:000000000001f9a6 .LASF246
C:\Users\CYMR90~1\AppData\Local\Temp\ccx4ZXSQ.s:29186  .debug_str:0000000000018be1 .LASF247
C:\Users\CYMR90~1\AppData\Local\Temp\ccx4ZXSQ.s:28703  .debug_str:0000000000016c74 .LASF248
C:\Users\CYMR90~1\AppData\Local\Temp\ccx4ZXSQ.s:30238  .debug_str:000000000001ce8c .LASF249
C:\Users\CYMR90~1\AppData\Local\Temp\ccx4ZXSQ.s:29592  .debug_str:000000000001a5e3 .LASF250
C:\Users\CYMR90~1\AppData\Local\Temp\ccx4ZXSQ.s:30164  .debug_str:000000000001ca18 .LASF251
C:\Users\CYMR90~1\AppData\Local\Temp\ccx4ZXSQ.s:31900  .debug_str:0000000000023615 .LASF252
C:\Users\CYMR90~1\AppData\Local\Temp\ccx4ZXSQ.s:26469  .debug_str:000000000000dffc .LASF253
C:\Users\CYMR90~1\AppData\Local\Temp\ccx4ZXSQ.s:32600  .debug_str:000000000002634b .LASF254
C:\Users\CYMR90~1\AppData\Local\Temp\ccx4ZXSQ.s:26331  .debug_str:000000000000d760 .LASF255
C:\Users\CYMR90~1\AppData\Local\Temp\ccx4ZXSQ.s:29494  .debug_str:000000000001a02e .LASF256
C:\Users\CYMR90~1\AppData\Local\Temp\ccx4ZXSQ.s:26583  .debug_str:000000000000e6de .LASF257
C:\Users\CYMR90~1\AppData\Local\Temp\ccx4ZXSQ.s:23171  .debug_str:0000000000000e55 .LASF258
C:\Users\CYMR90~1\AppData\Local\Temp\ccx4ZXSQ.s:23099  .debug_str:00000000000009ba .LASF259
C:\Users\CYMR90~1\AppData\Local\Temp\ccx4ZXSQ.s:23119  .debug_str:0000000000000b15 .LASF260
C:\Users\CYMR90~1\AppData\Local\Temp\ccx4ZXSQ.s:31894  .debug_str:00000000000235a9 .LASF261
C:\Users\CYMR90~1\AppData\Local\Temp\ccx4ZXSQ.s:33208  .debug_str:0000000000028916 .LASF262
C:\Users\CYMR90~1\AppData\Local\Temp\ccx4ZXSQ.s:28097  .debug_str:00000000000146f9 .LASF263
C:\Users\CYMR90~1\AppData\Local\Temp\ccx4ZXSQ.s:30110  .debug_str:000000000001c716 .LASF264
C:\Users\CYMR90~1\AppData\Local\Temp\ccx4ZXSQ.s:27031  .debug_str:0000000000010232 .LASF265
C:\Users\CYMR90~1\AppData\Local\Temp\ccx4ZXSQ.s:26505  .debug_str:000000000000e20a .LASF266
C:\Users\CYMR90~1\AppData\Local\Temp\ccx4ZXSQ.s:25803  .debug_str:000000000000b5d8 .LASF267
C:\Users\CYMR90~1\AppData\Local\Temp\ccx4ZXSQ.s:30222  .debug_str:000000000001cd6e .LASF268
C:\Users\CYMR90~1\AppData\Local\Temp\ccx4ZXSQ.s:26139  .debug_str:000000000000cb4f .LASF269
C:\Users\CYMR90~1\AppData\Local\Temp\ccx4ZXSQ.s:27099  .debug_str:00000000000106a9 .LASF270
C:\Users\CYMR90~1\AppData\Local\Temp\ccx4ZXSQ.s:28383  .debug_str:00000000000158f3 .LASF271
C:\Users\CYMR90~1\AppData\Local\Temp\ccx4ZXSQ.s:32854  .debug_str:00000000000272ed .LASF272
C:\Users\CYMR90~1\AppData\Local\Temp\ccx4ZXSQ.s:24683  .debug_str:0000000000006d0c .LASF273
C:\Users\CYMR90~1\AppData\Local\Temp\ccx4ZXSQ.s:23563  .debug_str:0000000000002690 .LASF274
C:\Users\CYMR90~1\AppData\Local\Temp\ccx4ZXSQ.s:24777  .debug_str:000000000000735b .LASF275
C:\Users\CYMR90~1\AppData\Local\Temp\ccx4ZXSQ.s:26197  .debug_str:000000000000cf95 .LASF276
C:\Users\CYMR90~1\AppData\Local\Temp\ccx4ZXSQ.s:26025  .debug_str:000000000000c455 .LASF277
C:\Users\CYMR90~1\AppData\Local\Temp\ccx4ZXSQ.s:23257  .debug_str:0000000000001391 .LASF278
C:\Users\CYMR90~1\AppData\Local\Temp\ccx4ZXSQ.s:24599  .debug_str:00000000000067bf .LASF279
C:\Users\CYMR90~1\AppData\Local\Temp\ccx4ZXSQ.s:33526  .debug_str:0000000000029daa .LASF280
C:\Users\CYMR90~1\AppData\Local\Temp\ccx4ZXSQ.s:25499  .debug_str:000000000000a138 .LASF281
C:\Users\CYMR90~1\AppData\Local\Temp\ccx4ZXSQ.s:24565  .debug_str:00000000000065bb .LASF282
C:\Users\CYMR90~1\AppData\Local\Temp\ccx4ZXSQ.s:24467  .debug_str:0000000000005fa9 .LASF283
C:\Users\CYMR90~1\AppData\Local\Temp\ccx4ZXSQ.s:24225  .debug_str:000000000000514e .LASF284
C:\Users\CYMR90~1\AppData\Local\Temp\ccx4ZXSQ.s:32388  .debug_str:00000000000253d7 .LASF285
C:\Users\CYMR90~1\AppData\Local\Temp\ccx4ZXSQ.s:33242  .debug_str:0000000000028bc1 .LASF286
C:\Users\CYMR90~1\AppData\Local\Temp\ccx4ZXSQ.s:33510  .debug_str:0000000000029cc9 .LASF287
C:\Users\CYMR90~1\AppData\Local\Temp\ccx4ZXSQ.s:33428  .debug_str:000000000002979c .LASF288
C:\Users\CYMR90~1\AppData\Local\Temp\ccx4ZXSQ.s:34282  .debug_str:000000000002cb5e .LASF289
C:\Users\CYMR90~1\AppData\Local\Temp\ccx4ZXSQ.s:29132  .debug_str:00000000000188ba .LASF290
C:\Users\CYMR90~1\AppData\Local\Temp\ccx4ZXSQ.s:28147  .debug_str:00000000000149fb .LASF291
C:\Users\CYMR90~1\AppData\Local\Temp\ccx4ZXSQ.s:32426  .debug_str:000000000002567a .LASF292
C:\Users\CYMR90~1\AppData\Local\Temp\ccx4ZXSQ.s:23865  .debug_str:0000000000003a59 .LASF293
C:\Users\CYMR90~1\AppData\Local\Temp\ccx4ZXSQ.s:31358  .debug_str:000000000002151b .LASF294
C:\Users\CYMR90~1\AppData\Local\Temp\ccx4ZXSQ.s:24145  .debug_str:0000000000004c52 .LASF295
C:\Users\CYMR90~1\AppData\Local\Temp\ccx4ZXSQ.s:33868  .debug_str:000000000002b1b9 .LASF296
C:\Users\CYMR90~1\AppData\Local\Temp\ccx4ZXSQ.s:34060  .debug_str:000000000002bcf9 .LASF297
C:\Users\CYMR90~1\AppData\Local\Temp\ccx4ZXSQ.s:29010  .debug_str:00000000000181b9 .LASF298
C:\Users\CYMR90~1\AppData\Local\Temp\ccx4ZXSQ.s:23103  .debug_str:0000000000000a1f .LASF299
C:\Users\CYMR90~1\AppData\Local\Temp\ccx4ZXSQ.s:26995  .debug_str:000000000000fff7 .LASF300
C:\Users\CYMR90~1\AppData\Local\Temp\ccx4ZXSQ.s:29774  .debug_str:000000000001b243 .LASF301
C:\Users\CYMR90~1\AppData\Local\Temp\ccx4ZXSQ.s:28261  .debug_str:000000000001510d .LASF302
C:\Users\CYMR90~1\AppData\Local\Temp\ccx4ZXSQ.s:27739  .debug_str:000000000001306a .LASF303
C:\Users\CYMR90~1\AppData\Local\Temp\ccx4ZXSQ.s:23483  .debug_str:00000000000021c8 .LASF304
C:\Users\CYMR90~1\AppData\Local\Temp\ccx4ZXSQ.s:26147  .debug_str:000000000000cbe7 .LASF305
C:\Users\CYMR90~1\AppData\Local\Temp\ccx4ZXSQ.s:31570  .debug_str:000000000002223f .LASF306
C:\Users\CYMR90~1\AppData\Local\Temp\ccx4ZXSQ.s:27017  .debug_str:0000000000010153 .LASF307
C:\Users\CYMR90~1\AppData\Local\Temp\ccx4ZXSQ.s:25945  .debug_str:000000000000bf27 .LASF308
C:\Users\CYMR90~1\AppData\Local\Temp\ccx4ZXSQ.s:32024  .debug_str:0000000000023cfb .LASF309
C:\Users\CYMR90~1\AppData\Local\Temp\ccx4ZXSQ.s:26567  .debug_str:000000000000e5f5 .LASF310
C:\Users\CYMR90~1\AppData\Local\Temp\ccx4ZXSQ.s:32744  .debug_str:0000000000026c59 .LASF311
C:\Users\CYMR90~1\AppData\Local\Temp\ccx4ZXSQ.s:32238  .debug_str:0000000000024a7a .LASF312
C:\Users\CYMR90~1\AppData\Local\Temp\ccx4ZXSQ.s:26269  .debug_str:000000000000d384 .LASF313
C:\Users\CYMR90~1\AppData\Local\Temp\ccx4ZXSQ.s:29278  .debug_str:0000000000019172 .LASF316
C:\Users\CYMR90~1\AppData\Local\Temp\ccx4ZXSQ.s:29646  .debug_str:000000000001a8f6 .LASF317
C:\Users\CYMR90~1\AppData\Local\Temp\ccx4ZXSQ.s:30004  .debug_str:000000000001c061 .LASF318
C:\Users\CYMR90~1\AppData\Local\Temp\ccx4ZXSQ.s:27007  .debug_str:00000000000100d1 .LASF319
C:\Users\CYMR90~1\AppData\Local\Temp\ccx4ZXSQ.s:25885  .debug_str:000000000000bb02 .LASF320
C:\Users\CYMR90~1\AppData\Local\Temp\ccx4ZXSQ.s:33472  .debug_str:0000000000029a9d .LASF321
C:\Users\CYMR90~1\AppData\Local\Temp\ccx4ZXSQ.s:26467  .debug_str:000000000000dfef .LASF322
C:\Users\CYMR90~1\AppData\Local\Temp\ccx4ZXSQ.s:32696  .debug_str:000000000002692b .LASF323
C:\Users\CYMR90~1\AppData\Local\Temp\ccx4ZXSQ.s:22963  .debug_str:0000000000000230 .LASF324
C:\Users\CYMR90~1\AppData\Local\Temp\ccx4ZXSQ.s:33890  .debug_str:000000000002b2dd .LASF325
C:\Users\CYMR90~1\AppData\Local\Temp\ccx4ZXSQ.s:23919  .debug_str:0000000000003d90 .LASF326
C:\Users\CYMR90~1\AppData\Local\Temp\ccx4ZXSQ.s:28085  .debug_str:0000000000014641 .LASF327
C:\Users\CYMR90~1\AppData\Local\Temp\ccx4ZXSQ.s:27741  .debug_str:000000000001307f .LASF328
C:\Users\CYMR90~1\AppData\Local\Temp\ccx4ZXSQ.s:30686  .debug_str:000000000001ec30 .LASF329
C:\Users\CYMR90~1\AppData\Local\Temp\ccx4ZXSQ.s:30678  .debug_str:000000000001ebdf .LASF330
C:\Users\CYMR90~1\AppData\Local\Temp\ccx4ZXSQ.s:32896  .debug_str:0000000000027578 .LASF331
C:\Users\CYMR90~1\AppData\Local\Temp\ccx4ZXSQ.s:33454  .debug_str:0000000000029947 .LASF332
C:\Users\CYMR90~1\AppData\Local\Temp\ccx4ZXSQ.s:33638  .debug_str:000000000002a45b .LASF333
C:\Users\CYMR90~1\AppData\Local\Temp\ccx4ZXSQ.s:29620  .debug_str:000000000001a782 .LASF334
C:\Users\CYMR90~1\AppData\Local\Temp\ccx4ZXSQ.s:29056  .debug_str:000000000001845b .LASF335
C:\Users\CYMR90~1\AppData\Local\Temp\ccx4ZXSQ.s:33492  .debug_str:0000000000029bdd .LASF336
C:\Users\CYMR90~1\AppData\Local\Temp\ccx4ZXSQ.s:27661  .debug_str:0000000000012b5e .LASF337
C:\Users\CYMR90~1\AppData\Local\Temp\ccx4ZXSQ.s:31420  .debug_str:00000000000218a9 .LASF338
C:\Users\CYMR90~1\AppData\Local\Temp\ccx4ZXSQ.s:25619  .debug_str:000000000000a8bb .LASF339
C:\Users\CYMR90~1\AppData\Local\Temp\ccx4ZXSQ.s:27873  .debug_str:0000000000013904 .LASF340
C:\Users\CYMR90~1\AppData\Local\Temp\ccx4ZXSQ.s:23153  .debug_str:0000000000000d65 .LASF341
C:\Users\CYMR90~1\AppData\Local\Temp\ccx4ZXSQ.s:25953  .debug_str:000000000000bf87 .LASF342
C:\Users\CYMR90~1\AppData\Local\Temp\ccx4ZXSQ.s:23237  .debug_str:00000000000012a5 .LASF343
C:\Users\CYMR90~1\AppData\Local\Temp\ccx4ZXSQ.s:33606  .debug_str:000000000002a272 .LASF344
C:\Users\CYMR90~1\AppData\Local\Temp\ccx4ZXSQ.s:34202  .debug_str:000000000002c616 .LASF345
C:\Users\CYMR90~1\AppData\Local\Temp\ccx4ZXSQ.s:26887  .debug_str:000000000000f96d .LASF346
C:\Users\CYMR90~1\AppData\Local\Temp\ccx4ZXSQ.s:23091  .debug_str:0000000000000950 .LASF347
C:\Users\CYMR90~1\AppData\Local\Temp\ccx4ZXSQ.s:31216  .debug_str:0000000000020c15 .LASF348
C:\Users\CYMR90~1\AppData\Local\Temp\ccx4ZXSQ.s:33220  .debug_str:00000000000289fe .LASF349
C:\Users\CYMR90~1\AppData\Local\Temp\ccx4ZXSQ.s:30680  .debug_str:000000000001ebeb .LASF350
C:\Users\CYMR90~1\AppData\Local\Temp\ccx4ZXSQ.s:23013  .debug_str:0000000000000551 .LASF351
C:\Users\CYMR90~1\AppData\Local\Temp\ccx4ZXSQ.s:30978  .debug_str:000000000001fdef .LASF352
C:\Users\CYMR90~1\AppData\Local\Temp\ccx4ZXSQ.s:32688  .debug_str:00000000000268c1 .LASF353
C:\Users\CYMR90~1\AppData\Local\Temp\ccx4ZXSQ.s:30290  .debug_str:000000000001d288 .LASF354
C:\Users\CYMR90~1\AppData\Local\Temp\ccx4ZXSQ.s:30468  .debug_str:000000000001de90 .LASF355
C:\Users\CYMR90~1\AppData\Local\Temp\ccx4ZXSQ.s:32562  .debug_str:000000000002604b .LASF356
C:\Users\CYMR90~1\AppData\Local\Temp\ccx4ZXSQ.s:29576  .debug_str:000000000001a51b .LASF357
C:\Users\CYMR90~1\AppData\Local\Temp\ccx4ZXSQ.s:33128  .debug_str:00000000000283d2 .LASF358
C:\Users\CYMR90~1\AppData\Local\Temp\ccx4ZXSQ.s:27729  .debug_str:0000000000012fa6 .LASF359
C:\Users\CYMR90~1\AppData\Local\Temp\ccx4ZXSQ.s:25721  .debug_str:000000000000afea .LASF360
C:\Users\CYMR90~1\AppData\Local\Temp\ccx4ZXSQ.s:30858  .debug_str:000000000001f65b .LASF361
C:\Users\CYMR90~1\AppData\Local\Temp\ccx4ZXSQ.s:27465  .debug_str:0000000000011e26 .LASF362
C:\Users\CYMR90~1\AppData\Local\Temp\ccx4ZXSQ.s:33398  .debug_str:0000000000029623 .LASF363
C:\Users\CYMR90~1\AppData\Local\Temp\ccx4ZXSQ.s:25253  .debug_str:00000000000092b3 .LASF364
C:\Users\CYMR90~1\AppData\Local\Temp\ccx4ZXSQ.s:33290  .debug_str:0000000000028f09 .LASF365
C:\Users\CYMR90~1\AppData\Local\Temp\ccx4ZXSQ.s:24641  .debug_str:0000000000006a91 .LASF366
C:\Users\CYMR90~1\AppData\Local\Temp\ccx4ZXSQ.s:27863  .debug_str:0000000000013840 .LASF367
C:\Users\CYMR90~1\AppData\Local\Temp\ccx4ZXSQ.s:24939  .debug_str:0000000000007e05 .LASF368
C:\Users\CYMR90~1\AppData\Local\Temp\ccx4ZXSQ.s:29102  .debug_str:0000000000018710 .LASF372
C:\Users\CYMR90~1\AppData\Local\Temp\ccx4ZXSQ.s:32938  .debug_str:00000000000277db .LASF373
C:\Users\CYMR90~1\AppData\Local\Temp\ccx4ZXSQ.s:25701  .debug_str:000000000000aeb9 .LASF374
C:\Users\CYMR90~1\AppData\Local\Temp\ccx4ZXSQ.s:28890  .debug_str:0000000000017a1b .LASF375
C:\Users\CYMR90~1\AppData\Local\Temp\ccx4ZXSQ.s:29086  .debug_str:0000000000018622 .LASF376
C:\Users\CYMR90~1\AppData\Local\Temp\ccx4ZXSQ.s:31666  .debug_str:0000000000022809 .LASF377
C:\Users\CYMR90~1\AppData\Local\Temp\ccx4ZXSQ.s:30304  .debug_str:000000000001d340 .LASF378
C:\Users\CYMR90~1\AppData\Local\Temp\ccx4ZXSQ.s:34052  .debug_str:000000000002bc73 .LASF379
C:\Users\CYMR90~1\AppData\Local\Temp\ccx4ZXSQ.s:23579  .debug_str:00000000000027a7 .LASF380
C:\Users\CYMR90~1\AppData\Local\Temp\ccx4ZXSQ.s:33926  .debug_str:000000000002b4e3 .LASF381
C:\Users\CYMR90~1\AppData\Local\Temp\ccx4ZXSQ.s:30016  .debug_str:000000000001c109 .LASF382
C:\Users\CYMR90~1\AppData\Local\Temp\ccx4ZXSQ.s:24695  .debug_str:0000000000006de9 .LASF383
C:\Users\CYMR90~1\AppData\Local\Temp\ccx4ZXSQ.s:26109  .debug_str:000000000000c991 .LASF384
C:\Users\CYMR90~1\AppData\Local\Temp\ccx4ZXSQ.s:29514  .debug_str:000000000001a177 .LASF385
C:\Users\CYMR90~1\AppData\Local\Temp\ccx4ZXSQ.s:27135  .debug_str:0000000000010921 .LASF386
C:\Users\CYMR90~1\AppData\Local\Temp\ccx4ZXSQ.s:23515  .debug_str:00000000000023c4 .LASF387
C:\Users\CYMR90~1\AppData\Local\Temp\ccx4ZXSQ.s:26731  .debug_str:000000000000f023 .LASF388
C:\Users\CYMR90~1\AppData\Local\Temp\ccx4ZXSQ.s:25221  .debug_str:00000000000090a3 .LASF389
C:\Users\CYMR90~1\AppData\Local\Temp\ccx4ZXSQ.s:24009  .debug_str:0000000000004333 .LASF391
C:\Users\CYMR90~1\AppData\Local\Temp\ccx4ZXSQ.s:27143  .debug_str:000000000001098e .LASF392
C:\Users\CYMR90~1\AppData\Local\Temp\ccx4ZXSQ.s:31312  .debug_str:000000000002124e .LASF393
C:\Users\CYMR90~1\AppData\Local\Temp\ccx4ZXSQ.s:33082  .debug_str:0000000000028131 .LASF394
C:\Users\CYMR90~1\AppData\Local\Temp\ccx4ZXSQ.s:23539  .debug_str:0000000000002507 .LASF395
C:\Users\CYMR90~1\AppData\Local\Temp\ccx4ZXSQ.s:25745  .debug_str:000000000000b13c .LASF396
C:\Users\CYMR90~1\AppData\Local\Temp\ccx4ZXSQ.s:29626  .debug_str:000000000001a7e2 .LASF397
C:\Users\CYMR90~1\AppData\Local\Temp\ccx4ZXSQ.s:33866  .debug_str:000000000002b1a7 .LASF398
C:\Users\CYMR90~1\AppData\Local\Temp\ccx4ZXSQ.s:28449  .debug_str:0000000000015ce7 .LASF399
C:\Users\CYMR90~1\AppData\Local\Temp\ccx4ZXSQ.s:30936  .debug_str:000000000001fb60 .LASF400
C:\Users\CYMR90~1\AppData\Local\Temp\ccx4ZXSQ.s:25211  .debug_str:0000000000008f9e .LASF401
C:\Users\CYMR90~1\AppData\Local\Temp\ccx4ZXSQ.s:28946  .debug_str:0000000000017d6f .LASF402
C:\Users\CYMR90~1\AppData\Local\Temp\ccx4ZXSQ.s:24531  .debug_str:0000000000006399 .LASF403
C:\Users\CYMR90~1\AppData\Local\Temp\ccx4ZXSQ.s:25677  .debug_str:000000000000ad08 .LASF404
C:\Users\CYMR90~1\AppData\Local\Temp\ccx4ZXSQ.s:26787  .debug_str:000000000000f36f .LASF405
C:\Users\CYMR90~1\AppData\Local\Temp\ccx4ZXSQ.s:30204  .debug_str:000000000001cc66 .LASF406
C:\Users\CYMR90~1\AppData\Local\Temp\ccx4ZXSQ.s:28357  .debug_str:000000000001578a .LASF407
C:\Users\CYMR90~1\AppData\Local\Temp\ccx4ZXSQ.s:29358  .debug_str:00000000000196a2 .LASF408
C:\Users\CYMR90~1\AppData\Local\Temp\ccx4ZXSQ.s:31616  .debug_str:0000000000022519 .LASF409
C:\Users\CYMR90~1\AppData\Local\Temp\ccx4ZXSQ.s:24487  .debug_str:0000000000006109 .LASF410
C:\Users\CYMR90~1\AppData\Local\Temp\ccx4ZXSQ.s:28557  .debug_str:000000000001630a .LASF411
C:\Users\CYMR90~1\AppData\Local\Temp\ccx4ZXSQ.s:31740  .debug_str:0000000000022c46 .LASF412
C:\Users\CYMR90~1\AppData\Local\Temp\ccx4ZXSQ.s:24673  .debug_str:0000000000006c71 .LASF413
C:\Users\CYMR90~1\AppData\Local\Temp\ccx4ZXSQ.s:33486  .debug_str:0000000000029b76 .LASF414
C:\Users\CYMR90~1\AppData\Local\Temp\ccx4ZXSQ.s:26889  .debug_str:000000000000f97b .LASF415
C:\Users\CYMR90~1\AppData\Local\Temp\ccx4ZXSQ.s:32806  .debug_str:0000000000027021 .LASF416
C:\Users\CYMR90~1\AppData\Local\Temp\ccx4ZXSQ.s:34350  .debug_str:000000000002cfc2 .LASF417
C:\Users\CYMR90~1\AppData\Local\Temp\ccx4ZXSQ.s:25143  .debug_str:0000000000008ba8 .LASF418
C:\Users\CYMR90~1\AppData\Local\Temp\ccx4ZXSQ.s:33702  .debug_str:000000000002a7ed .LASF419
C:\Users\CYMR90~1\AppData\Local\Temp\ccx4ZXSQ.s:24741  .debug_str:0000000000007110 .LASF420
C:\Users\CYMR90~1\AppData\Local\Temp\ccx4ZXSQ.s:33912  .debug_str:000000000002b3e5 .LASF421
C:\Users\CYMR90~1\AppData\Local\Temp\ccx4ZXSQ.s:26037  .debug_str:000000000000c530 .LASF422
C:\Users\CYMR90~1\AppData\Local\Temp\ccx4ZXSQ.s:26243  .debug_str:000000000000d237 .LASF423
C:\Users\CYMR90~1\AppData\Local\Temp\ccx4ZXSQ.s:30834  .debug_str:000000000001f510 .LASF424
C:\Users\CYMR90~1\AppData\Local\Temp\ccx4ZXSQ.s:29394  .debug_str:00000000000199a3 .LASF425
C:\Users\CYMR90~1\AppData\Local\Temp\ccx4ZXSQ.s:22983  .debug_str:0000000000000339 .LASF426
C:\Users\CYMR90~1\AppData\Local\Temp\ccx4ZXSQ.s:33404  .debug_str:0000000000029665 .LASF427
C:\Users\CYMR90~1\AppData\Local\Temp\ccx4ZXSQ.s:28645  .debug_str:000000000001692a .LASF428
C:\Users\CYMR90~1\AppData\Local\Temp\ccx4ZXSQ.s:30608  .debug_str:000000000001e7df .LASF429
C:\Users\CYMR90~1\AppData\Local\Temp\ccx4ZXSQ.s:27075  .debug_str:0000000000010519 .LASF430
C:\Users\CYMR90~1\AppData\Local\Temp\ccx4ZXSQ.s:28844  .debug_str:0000000000017798 .LASF431
C:\Users\CYMR90~1\AppData\Local\Temp\ccx4ZXSQ.s:31686  .debug_str:000000000002290b .LASF432
C:\Users\CYMR90~1\AppData\Local\Temp\ccx4ZXSQ.s:26225  .debug_str:000000000000d131 .LASF434
C:\Users\CYMR90~1\AppData\Local\Temp\ccx4ZXSQ.s:24199  .debug_str:0000000000004fcf .LASF435
C:\Users\CYMR90~1\AppData\Local\Temp\ccx4ZXSQ.s:29030  .debug_str:00000000000182d6 .LASF436
C:\Users\CYMR90~1\AppData\Local\Temp\ccx4ZXSQ.s:24763  .debug_str:0000000000007279 .LASF437
C:\Users\CYMR90~1\AppData\Local\Temp\ccx4ZXSQ.s:33420  .debug_str:0000000000029727 .LASF438
C:\Users\CYMR90~1\AppData\Local\Temp\ccx4ZXSQ.s:22937  .debug_str:0000000000000099 .LASF439
C:\Users\CYMR90~1\AppData\Local\Temp\ccx4ZXSQ.s:30874  .debug_str:000000000001f76f .LASF440
C:\Users\CYMR90~1\AppData\Local\Temp\ccx4ZXSQ.s:26479  .debug_str:000000000000e08d .LASF441
C:\Users\CYMR90~1\AppData\Local\Temp\ccx4ZXSQ.s:31928  .debug_str:0000000000023797 .LASF442
C:\Users\CYMR90~1\AppData\Local\Temp\ccx4ZXSQ.s:30810  .debug_str:000000000001f3d2 .LASF443
C:\Users\CYMR90~1\AppData\Local\Temp\ccx4ZXSQ.s:27223  .debug_str:0000000000010ed4 .LASF444
C:\Users\CYMR90~1\AppData\Local\Temp\ccx4ZXSQ.s:34344  .debug_str:000000000002cf76 .LASF445
C:\Users\CYMR90~1\AppData\Local\Temp\ccx4ZXSQ.s:34280  .debug_str:000000000002cb58 .LASF446
C:\Users\CYMR90~1\AppData\Local\Temp\ccx4ZXSQ.s:33896  .debug_str:000000000002b325 .LASF447
C:\Users\CYMR90~1\AppData\Local\Temp\ccx4ZXSQ.s:31902  .debug_str:0000000000023627 .LASF448
C:\Users\CYMR90~1\AppData\Local\Temp\ccx4ZXSQ.s:24021  .debug_str:00000000000043de .LASF449
C:\Users\CYMR90~1\AppData\Local\Temp\ccx4ZXSQ.s:24785  .debug_str:00000000000073e9 .LASF450
C:\Users\CYMR90~1\AppData\Local\Temp\ccx4ZXSQ.s:25417  .debug_str:0000000000009c67 .LASF451
C:\Users\CYMR90~1\AppData\Local\Temp\ccx4ZXSQ.s:28269  .debug_str:00000000000151af .LASF452
C:\Users\CYMR90~1\AppData\Local\Temp\ccx4ZXSQ.s:23461  .debug_str:00000000000020b3 .LASF453
C:\Users\CYMR90~1\AppData\Local\Temp\ccx4ZXSQ.s:34286  .debug_str:000000000002cb98 .LASF454
C:\Users\CYMR90~1\AppData\Local\Temp\ccx4ZXSQ.s:26653  .debug_str:000000000000eb10 .LASF455
C:\Users\CYMR90~1\AppData\Local\Temp\ccx4ZXSQ.s:31512  .debug_str:0000000000021e7a .LASF456
C:\Users\CYMR90~1\AppData\Local\Temp\ccx4ZXSQ.s:26325  .debug_str:000000000000d71c .LASF457
C:\Users\CYMR90~1\AppData\Local\Temp\ccx4ZXSQ.s:24543  .debug_str:0000000000006449 .LASF458
C:\Users\CYMR90~1\AppData\Local\Temp\ccx4ZXSQ.s:27291  .debug_str:000000000001139b .LASF459
C:\Users\CYMR90~1\AppData\Local\Temp\ccx4ZXSQ.s:31266  .debug_str:0000000000020f9b .LASF460
C:\Users\CYMR90~1\AppData\Local\Temp\ccx4ZXSQ.s:32414  .debug_str:000000000002559b .LASF461
C:\Users\CYMR90~1\AppData\Local\Temp\ccx4ZXSQ.s:28805  .debug_str:0000000000017398 .LASF462
C:\Users\CYMR90~1\AppData\Local\Temp\ccx4ZXSQ.s:29676  .debug_str:000000000001ac1a .LASF463
C:\Users\CYMR90~1\AppData\Local\Temp\ccx4ZXSQ.s:28371  .debug_str:000000000001583b .LASF464
C:\Users\CYMR90~1\AppData\Local\Temp\ccx4ZXSQ.s:27673  .debug_str:0000000000012c16 .LASF465
C:\Users\CYMR90~1\AppData\Local\Temp\ccx4ZXSQ.s:24693  .debug_str:0000000000006dd3 .LASF466
C:\Users\CYMR90~1\AppData\Local\Temp\ccx4ZXSQ.s:25273  .debug_str:00000000000093ae .LASF467
C:\Users\CYMR90~1\AppData\Local\Temp\ccx4ZXSQ.s:27433  .debug_str:0000000000011c11 .LASF468
C:\Users\CYMR90~1\AppData\Local\Temp\ccx4ZXSQ.s:23815  .debug_str:000000000000370c .LASF469
C:\Users\CYMR90~1\AppData\Local\Temp\ccx4ZXSQ.s:27179  .debug_str:0000000000010ba3 .LASF470
C:\Users\CYMR90~1\AppData\Local\Temp\ccx4ZXSQ.s:27051  .debug_str:0000000000010379 .LASF471
C:\Users\CYMR90~1\AppData\Local\Temp\ccx4ZXSQ.s:26627  .debug_str:000000000000e96d .LASF472
C:\Users\CYMR90~1\AppData\Local\Temp\ccx4ZXSQ.s:23173  .debug_str:0000000000000e93 .LASF473
C:\Users\CYMR90~1\AppData\Local\Temp\ccx4ZXSQ.s:24811  .debug_str:00000000000075d3 .LASF474
C:\Users\CYMR90~1\AppData\Local\Temp\ccx4ZXSQ.s:23121  .debug_str:0000000000000b53 .LASF475
C:\Users\CYMR90~1\AppData\Local\Temp\ccx4ZXSQ.s:23987  .debug_str:00000000000041f0 .LASF476
C:\Users\CYMR90~1\AppData\Local\Temp\ccx4ZXSQ.s:23347  .debug_str:00000000000019af .LASF477
C:\Users\CYMR90~1\AppData\Local\Temp\ccx4ZXSQ.s:28587  .debug_str:0000000000016553 .LASF478
C:\Users\CYMR90~1\AppData\Local\Temp\ccx4ZXSQ.s:25905  .debug_str:000000000000bc82 .LASF479
C:\Users\CYMR90~1\AppData\Local\Temp\ccx4ZXSQ.s:33908  .debug_str:000000000002b3b5 .LASF480
C:\Users\CYMR90~1\AppData\Local\Temp\ccx4ZXSQ.s:29182  .debug_str:0000000000018bad .LASF481
C:\Users\CYMR90~1\AppData\Local\Temp\ccx4ZXSQ.s:25815  .debug_str:000000000000b689 .LASF482
C:\Users\CYMR90~1\AppData\Local\Temp\ccx4ZXSQ.s:24587  .debug_str:0000000000006716 .LASF483
C:\Users\CYMR90~1\AppData\Local\Temp\ccx4ZXSQ.s:23087  .debug_str:0000000000000909 .LASF484
C:\Users\CYMR90~1\AppData\Local\Temp\ccx4ZXSQ.s:29130  .debug_str:0000000000018897 .LASF485
C:\Users\CYMR90~1\AppData\Local\Temp\ccx4ZXSQ.s:24209  .debug_str:0000000000005045 .LASF486
C:\Users\CYMR90~1\AppData\Local\Temp\ccx4ZXSQ.s:28023  .debug_str:00000000000142cb .LASF487
C:\Users\CYMR90~1\AppData\Local\Temp\ccx4ZXSQ.s:27209  .debug_str:0000000000010e17 .LASF488
C:\Users\CYMR90~1\AppData\Local\Temp\ccx4ZXSQ.s:27793  .debug_str:00000000000133d2 .LASF489
C:\Users\CYMR90~1\AppData\Local\Temp\ccx4ZXSQ.s:26199  .debug_str:000000000000cfd6 .LASF490
C:\Users\CYMR90~1\AppData\Local\Temp\ccx4ZXSQ.s:25141  .debug_str:0000000000008b9a .LASF491
C:\Users\CYMR90~1\AppData\Local\Temp\ccx4ZXSQ.s:26847  .debug_str:000000000000f706 .LASF492
C:\Users\CYMR90~1\AppData\Local\Temp\ccx4ZXSQ.s:25147  .debug_str:0000000000008be6 .LASF493
C:\Users\CYMR90~1\AppData\Local\Temp\ccx4ZXSQ.s:27055  .debug_str:00000000000103c9 .LASF494
C:\Users\CYMR90~1\AppData\Local\Temp\ccx4ZXSQ.s:29384  .debug_str:0000000000019920 .LASF495
C:\Users\CYMR90~1\AppData\Local\Temp\ccx4ZXSQ.s:34366  .debug_str:000000000002d0aa .LASF496
C:\Users\CYMR90~1\AppData\Local\Temp\ccx4ZXSQ.s:34304  .debug_str:000000000002ccfd .LASF497
C:\Users\CYMR90~1\AppData\Local\Temp\ccx4ZXSQ.s:26893  .debug_str:000000000000f9c2 .LASF498
C:\Users\CYMR90~1\AppData\Local\Temp\ccx4ZXSQ.s:33508  .debug_str:0000000000029ca4 .LASF499
C:\Users\CYMR90~1\AppData\Local\Temp\ccx4ZXSQ.s:33610  .debug_str:000000000002a295 .LASF500
C:\Users\CYMR90~1\AppData\Local\Temp\ccx4ZXSQ.s:28231  .debug_str:0000000000014f51 .LASF501
C:\Users\CYMR90~1\AppData\Local\Temp\ccx4ZXSQ.s:33564  .debug_str:000000000002a021 .LASF502
C:\Users\CYMR90~1\AppData\Local\Temp\ccx4ZXSQ.s:28175  .debug_str:0000000000014b91 .LASF503
C:\Users\CYMR90~1\AppData\Local\Temp\ccx4ZXSQ.s:23675  .debug_str:0000000000002de7 .LASF504
C:\Users\CYMR90~1\AppData\Local\Temp\ccx4ZXSQ.s:32182  .debug_str:000000000002465d .LASF505
C:\Users\CYMR90~1\AppData\Local\Temp\ccx4ZXSQ.s:33078  .debug_str:00000000000280f6 .LASF506
C:\Users\CYMR90~1\AppData\Local\Temp\ccx4ZXSQ.s:32646  .debug_str:0000000000026635 .LASF507
C:\Users\CYMR90~1\AppData\Local\Temp\ccx4ZXSQ.s:29300  .debug_str:00000000000192c5 .LASF508
C:\Users\CYMR90~1\AppData\Local\Temp\ccx4ZXSQ.s:31600  .debug_str:00000000000223d1 .LASF509
C:\Users\CYMR90~1\AppData\Local\Temp\ccx4ZXSQ.s:33310  .debug_str:0000000000029071 .LASF510
C:\Users\CYMR90~1\AppData\Local\Temp\ccx4ZXSQ.s:29078  .debug_str:0000000000018599 .LASF511
C:\Users\CYMR90~1\AppData\Local\Temp\ccx4ZXSQ.s:32926  .debug_str:00000000000276e6 .LASF512
C:\Users\CYMR90~1\AppData\Local\Temp\ccx4ZXSQ.s:33050  .debug_str:0000000000027f7b .LASF513
C:\Users\CYMR90~1\AppData\Local\Temp\ccx4ZXSQ.s:33490  .debug_str:0000000000029ba2 .LASF514
C:\Users\CYMR90~1\AppData\Local\Temp\ccx4ZXSQ.s:27953  .debug_str:0000000000013e65 .LASF515
C:\Users\CYMR90~1\AppData\Local\Temp\ccx4ZXSQ.s:33370  .debug_str:0000000000029475 .LASF516
C:\Users\CYMR90~1\AppData\Local\Temp\ccx4ZXSQ.s:29452  .debug_str:0000000000019d1c .LASF517
C:\Users\CYMR90~1\AppData\Local\Temp\ccx4ZXSQ.s:33318  .debug_str:0000000000029125 .LASF518
C:\Users\CYMR90~1\AppData\Local\Temp\ccx4ZXSQ.s:30120  .debug_str:000000000001c7a0 .LASF519
C:\Users\CYMR90~1\AppData\Local\Temp\ccx4ZXSQ.s:34274  .debug_str:000000000002caf1 .LASF520
C:\Users\CYMR90~1\AppData\Local\Temp\ccx4ZXSQ.s:30406  .debug_str:000000000001dad7 .LASF521
C:\Users\CYMR90~1\AppData\Local\Temp\ccx4ZXSQ.s:32544  .debug_str:0000000000025ee8 .LASF522
C:\Users\CYMR90~1\AppData\Local\Temp\ccx4ZXSQ.s:27841  .debug_str:00000000000136cd .LASF523
C:\Users\CYMR90~1\AppData\Local\Temp\ccx4ZXSQ.s:32096  .debug_str:000000000002417a .LASF524
C:\Users\CYMR90~1\AppData\Local\Temp\ccx4ZXSQ.s:25355  .debug_str:0000000000009853 .LASF525
C:\Users\CYMR90~1\AppData\Local\Temp\ccx4ZXSQ.s:34296  .debug_str:000000000002cc11 .LASF526
C:\Users\CYMR90~1\AppData\Local\Temp\ccx4ZXSQ.s:26659  .debug_str:000000000000eb95 .LASF527
C:\Users\CYMR90~1\AppData\Local\Temp\ccx4ZXSQ.s:27697  .debug_str:0000000000012d9e .LASF528
C:\Users\CYMR90~1\AppData\Local\Temp\ccx4ZXSQ.s:28565  .debug_str:000000000001639c .LASF529
C:\Users\CYMR90~1\AppData\Local\Temp\ccx4ZXSQ.s:28599  .debug_str:00000000000165f1 .LASF530
C:\Users\CYMR90~1\AppData\Local\Temp\ccx4ZXSQ.s:27627  .debug_str:0000000000012945 .LASF531
C:\Users\CYMR90~1\AppData\Local\Temp\ccx4ZXSQ.s:23737  .debug_str:0000000000003195 .LASF532
C:\Users\CYMR90~1\AppData\Local\Temp\ccx4ZXSQ.s:26333  .debug_str:000000000000d778 .LASF533
C:\Users\CYMR90~1\AppData\Local\Temp\ccx4ZXSQ.s:34136  .debug_str:000000000002c1a5 .LASF534
C:\Users\CYMR90~1\AppData\Local\Temp\ccx4ZXSQ.s:26845  .debug_str:000000000000f6ba .LASF535
C:\Users\CYMR90~1\AppData\Local\Temp\ccx4ZXSQ.s:32270  .debug_str:0000000000024c5e .LASF536
C:\Users\CYMR90~1\AppData\Local\Temp\ccx4ZXSQ.s:33770  .debug_str:000000000002abc1 .LASF537
C:\Users\CYMR90~1\AppData\Local\Temp\ccx4ZXSQ.s:27451  .debug_str:0000000000011d23 .LASF538
C:\Users\CYMR90~1\AppData\Local\Temp\ccx4ZXSQ.s:32460  .debug_str:0000000000025890 .LASF539
C:\Users\CYMR90~1\AppData\Local\Temp\ccx4ZXSQ.s:30184  .debug_str:000000000001cb54 .LASF540
C:\Users\CYMR90~1\AppData\Local\Temp\ccx4ZXSQ.s:31810  .debug_str:000000000002304b .LASF541
C:\Users\CYMR90~1\AppData\Local\Temp\ccx4ZXSQ.s:30500  .debug_str:000000000001e0aa .LASF542
C:\Users\CYMR90~1\AppData\Local\Temp\ccx4ZXSQ.s:24101  .debug_str:00000000000048f8 .LASF543
C:\Users\CYMR90~1\AppData\Local\Temp\ccx4ZXSQ.s:26595  .debug_str:000000000000e778 .LASF544
C:\Users\CYMR90~1\AppData\Local\Temp\ccx4ZXSQ.s:33550  .debug_str:0000000000029f3d .LASF545
C:\Users\CYMR90~1\AppData\Local\Temp\ccx4ZXSQ.s:27963  .debug_str:0000000000013ef0 .LASF546
C:\Users\CYMR90~1\AppData\Local\Temp\ccx4ZXSQ.s:31792  .debug_str:0000000000022f15 .LASF547
C:\Users\CYMR90~1\AppData\Local\Temp\ccx4ZXSQ.s:34048  .debug_str:000000000002bc32 .LASF548
C:\Users\CYMR90~1\AppData\Local\Temp\ccx4ZXSQ.s:23787  .debug_str:0000000000003524 .LASF549
C:\Users\CYMR90~1\AppData\Local\Temp\ccx4ZXSQ.s:24971  .debug_str:0000000000007fe7 .LASF550
C:\Users\CYMR90~1\AppData\Local\Temp\ccx4ZXSQ.s:32812  .debug_str:0000000000027067 .LASF551
C:\Users\CYMR90~1\AppData\Local\Temp\ccx4ZXSQ.s:24511  .debug_str:000000000000628f .LASF552
C:\Users\CYMR90~1\AppData\Local\Temp\ccx4ZXSQ.s:33790  .debug_str:000000000002acae .LASF553
C:\Users\CYMR90~1\AppData\Local\Temp\ccx4ZXSQ.s:25983  .debug_str:000000000000c144 .LASF554
C:\Users\CYMR90~1\AppData\Local\Temp\ccx4ZXSQ.s:26179  .debug_str:000000000000ce45 .LASF555
C:\Users\CYMR90~1\AppData\Local\Temp\ccx4ZXSQ.s:24639  .debug_str:0000000000006a3e .LASF556
C:\Users\CYMR90~1\AppData\Local\Temp\ccx4ZXSQ.s:24341  .debug_str:0000000000005803 .LASF557
C:\Users\CYMR90~1\AppData\Local\Temp\ccx4ZXSQ.s:27571  .debug_str:0000000000012589 .LASF558
C:\Users\CYMR90~1\AppData\Local\Temp\ccx4ZXSQ.s:29328  .debug_str:0000000000019507 .LASF559
C:\Users\CYMR90~1\AppData\Local\Temp\ccx4ZXSQ.s:33360  .debug_str:00000000000293cd .LASF560
C:\Users\CYMR90~1\AppData\Local\Temp\ccx4ZXSQ.s:25979  .debug_str:000000000000c0e0 .LASF561
C:\Users\CYMR90~1\AppData\Local\Temp\ccx4ZXSQ.s:27003  .debug_str:0000000000010060 .LASF562
C:\Users\CYMR90~1\AppData\Local\Temp\ccx4ZXSQ.s:26375  .debug_str:000000000000da90 .LASF563
C:\Users\CYMR90~1\AppData\Local\Temp\ccx4ZXSQ.s:25659  .debug_str:000000000000ab04 .LASF564
C:\Users\CYMR90~1\AppData\Local\Temp\ccx4ZXSQ.s:31540  .debug_str:0000000000022012 .LASF565
C:\Users\CYMR90~1\AppData\Local\Temp\ccx4ZXSQ.s:30746  .debug_str:000000000001efee .LASF566
C:\Users\CYMR90~1\AppData\Local\Temp\ccx4ZXSQ.s:27995  .debug_str:00000000000140df .LASF567
C:\Users\CYMR90~1\AppData\Local\Temp\ccx4ZXSQ.s:24513  .debug_str:00000000000062a3 .LASF568
C:\Users\CYMR90~1\AppData\Local\Temp\ccx4ZXSQ.s:23149  .debug_str:0000000000000d3e .LASF570
C:\Users\CYMR90~1\AppData\Local\Temp\ccx4ZXSQ.s:28962  .debug_str:0000000000017e62 .LASF571
C:\Users\CYMR90~1\AppData\Local\Temp\ccx4ZXSQ.s:30116  .debug_str:000000000001c77a .LASF574
C:\Users\CYMR90~1\AppData\Local\Temp\ccx4ZXSQ.s:24067  .debug_str:00000000000046cd .LASF575
C:\Users\CYMR90~1\AppData\Local\Temp\ccx4ZXSQ.s:28181  .debug_str:0000000000014c1b .LASF576
C:\Users\CYMR90~1\AppData\Local\Temp\ccx4ZXSQ.s:25067  .debug_str:000000000000874f .LASF577
C:\Users\CYMR90~1\AppData\Local\Temp\ccx4ZXSQ.s:31442  .debug_str:00000000000219c9 .LASF579
C:\Users\CYMR90~1\AppData\Local\Temp\ccx4ZXSQ.s:30622  .debug_str:000000000001e8b9 .LASF580
C:\Users\CYMR90~1\AppData\Local\Temp\ccx4ZXSQ.s:32180  .debug_str:0000000000024654 .LASF581
C:\Users\CYMR90~1\AppData\Local\Temp\ccx4ZXSQ.s:24469  .debug_str:0000000000005fc0 .LASF582
C:\Users\CYMR90~1\AppData\Local\Temp\ccx4ZXSQ.s:27161  .debug_str:0000000000010a93 .LASF583
C:\Users\CYMR90~1\AppData\Local\Temp\ccx4ZXSQ.s:23623  .debug_str:0000000000002aad .LASF584
C:\Users\CYMR90~1\AppData\Local\Temp\ccx4ZXSQ.s:33644  .debug_str:000000000002a499 .LASF585
C:\Users\CYMR90~1\AppData\Local\Temp\ccx4ZXSQ.s:31842  .debug_str:0000000000023264 .LASF586
C:\Users\CYMR90~1\AppData\Local\Temp\ccx4ZXSQ.s:30000  .debug_str:000000000001c03f .LASF587
C:\Users\CYMR90~1\AppData\Local\Temp\ccx4ZXSQ.s:25657  .debug_str:000000000000aaf4 .LASF588
C:\Users\CYMR90~1\AppData\Local\Temp\ccx4ZXSQ.s:29234  .debug_str:0000000000018ee4 .LASF589
C:\Users\CYMR90~1\AppData\Local\Temp\ccx4ZXSQ.s:29622  .debug_str:000000000001a78b .LASF590
C:\Users\CYMR90~1\AppData\Local\Temp\ccx4ZXSQ.s:34378  .debug_str:000000000002d19b .LASF591
C:\Users\CYMR90~1\AppData\Local\Temp\ccx4ZXSQ.s:32956  .debug_str:0000000000027912 .LASF592
C:\Users\CYMR90~1\AppData\Local\Temp\ccx4ZXSQ.s:32170  .debug_str:00000000000245c8 .LASF593
C:\Users\CYMR90~1\AppData\Local\Temp\ccx4ZXSQ.s:27127  .debug_str:00000000000108a9 .LASF594
C:\Users\CYMR90~1\AppData\Local\Temp\ccx4ZXSQ.s:30838  .debug_str:000000000001f53b .LASF595
C:\Users\CYMR90~1\AppData\Local\Temp\ccx4ZXSQ.s:27755  .debug_str:000000000001315d .LASF596
C:\Users\CYMR90~1\AppData\Local\Temp\ccx4ZXSQ.s:24813  .debug_str:00000000000075f2 .LASF597
C:\Users\CYMR90~1\AppData\Local\Temp\ccx4ZXSQ.s:33180  .debug_str:000000000002876d .LASF598
C:\Users\CYMR90~1\AppData\Local\Temp\ccx4ZXSQ.s:27911  .debug_str:0000000000013bc7 .LASF599
C:\Users\CYMR90~1\AppData\Local\Temp\ccx4ZXSQ.s:30956  .debug_str:000000000001fc88 .LASF600
C:\Users\CYMR90~1\AppData\Local\Temp\ccx4ZXSQ.s:30192  .debug_str:000000000001cbc0 .LASF601
C:\Users\CYMR90~1\AppData\Local\Temp\ccx4ZXSQ.s:32654  .debug_str:00000000000266c8 .LASF602
C:\Users\CYMR90~1\AppData\Local\Temp\ccx4ZXSQ.s:33378  .debug_str:0000000000029508 .LASF603
C:\Users\CYMR90~1\AppData\Local\Temp\ccx4ZXSQ.s:33266  .debug_str:0000000000028da9 .LASF604
C:\Users\CYMR90~1\AppData\Local\Temp\ccx4ZXSQ.s:27861  .debug_str:0000000000013828 .LASF605
C:\Users\CYMR90~1\AppData\Local\Temp\ccx4ZXSQ.s:31982  .debug_str:0000000000023a9a .LASF606
C:\Users\CYMR90~1\AppData\Local\Temp\ccx4ZXSQ.s:25427  .debug_str:0000000000009d21 .LASF607
C:\Users\CYMR90~1\AppData\Local\Temp\ccx4ZXSQ.s:24921  .debug_str:0000000000007cb2 .LASF608
C:\Users\CYMR90~1\AppData\Local\Temp\ccx4ZXSQ.s:25723  .debug_str:000000000000aff8 .LASF609
C:\Users\CYMR90~1\AppData\Local\Temp\ccx4ZXSQ.s:30038  .debug_str:000000000001c23e .LASF610
C:\Users\CYMR90~1\AppData\Local\Temp\ccx4ZXSQ.s:24433  .debug_str:0000000000005db8 .LASF611
C:\Users\CYMR90~1\AppData\Local\Temp\ccx4ZXSQ.s:31764  .debug_str:0000000000022d9b .LASF612
C:\Users\CYMR90~1\AppData\Local\Temp\ccx4ZXSQ.s:28429  .debug_str:0000000000015b98 .LASF613
C:\Users\CYMR90~1\AppData\Local\Temp\ccx4ZXSQ.s:24991  .debug_str:00000000000081d3 .LASF614
C:\Users\CYMR90~1\AppData\Local\Temp\ccx4ZXSQ.s:23039  .debug_str:00000000000006a5 .LASF615
C:\Users\CYMR90~1\AppData\Local\Temp\ccx4ZXSQ.s:28673  .debug_str:0000000000016aad .LASF616
C:\Users\CYMR90~1\AppData\Local\Temp\ccx4ZXSQ.s:29658  .debug_str:000000000001a97a .LASF617
C:\Users\CYMR90~1\AppData\Local\Temp\ccx4ZXSQ.s:28807  .debug_str:00000000000173a7 .LASF618
C:\Users\CYMR90~1\AppData\Local\Temp\ccx4ZXSQ.s:31848  .debug_str:00000000000232a3 .LASF619
C:\Users\CYMR90~1\AppData\Local\Temp\ccx4ZXSQ.s:25999  .debug_str:000000000000c2d7 .LASF620
C:\Users\CYMR90~1\AppData\Local\Temp\ccx4ZXSQ.s:24717  .debug_str:0000000000006f78 .LASF621
C:\Users\CYMR90~1\AppData\Local\Temp\ccx4ZXSQ.s:32046  .debug_str:0000000000023e3b .LASF622
C:\Users\CYMR90~1\AppData\Local\Temp\ccx4ZXSQ.s:31140  .debug_str:0000000000020796 .LASF623
C:\Users\CYMR90~1\AppData\Local\Temp\ccx4ZXSQ.s:33136  .debug_str:0000000000028447 .LASF624
C:\Users\CYMR90~1\AppData\Local\Temp\ccx4ZXSQ.s:33748  .debug_str:000000000002aa8e .LASF625
C:\Users\CYMR90~1\AppData\Local\Temp\ccx4ZXSQ.s:28093  .debug_str:0000000000014698 .LASF626
C:\Users\CYMR90~1\AppData\Local\Temp\ccx4ZXSQ.s:34014  .debug_str:000000000002b9bc .LASF627
C:\Users\CYMR90~1\AppData\Local\Temp\ccx4ZXSQ.s:28521  .debug_str:0000000000016100 .LASF628
C:\Users\CYMR90~1\AppData\Local\Temp\ccx4ZXSQ.s:31790  .debug_str:0000000000022edd .LASF629
C:\Users\CYMR90~1\AppData\Local\Temp\ccx4ZXSQ.s:27113  .debug_str:00000000000107b1 .LASF630
C:\Users\CYMR90~1\AppData\Local\Temp\ccx4ZXSQ.s:30260  .debug_str:000000000001d07b .LASF631
C:\Users\CYMR90~1\AppData\Local\Temp\ccx4ZXSQ.s:31754  .debug_str:0000000000022d0a .LASF632
C:\Users\CYMR90~1\AppData\Local\Temp\ccx4ZXSQ.s:28886  .debug_str:00000000000179d6 .LASF633
C:\Users\CYMR90~1\AppData\Local\Temp\ccx4ZXSQ.s:23549  .debug_str:00000000000025b8 .LASF634
C:\Users\CYMR90~1\AppData\Local\Temp\ccx4ZXSQ.s:29564  .debug_str:000000000001a455 .LASF635
C:\Users\CYMR90~1\AppData\Local\Temp\ccx4ZXSQ.s:28731  .debug_str:0000000000016e85 .LASF636
C:\Users\CYMR90~1\AppData\Local\Temp\ccx4ZXSQ.s:30370  .debug_str:000000000001d8bd .LASF637
C:\Users\CYMR90~1\AppData\Local\Temp\ccx4ZXSQ.s:23857  .debug_str:00000000000039b2 .LASF638
C:\Users\CYMR90~1\AppData\Local\Temp\ccx4ZXSQ.s:27519  .debug_str:0000000000012296 .LASF639
C:\Users\CYMR90~1\AppData\Local\Temp\ccx4ZXSQ.s:25003  .debug_str:000000000000827b .LASF640
C:\Users\CYMR90~1\AppData\Local\Temp\ccx4ZXSQ.s:27737  .debug_str:000000000001302e .LASF641
C:\Users\CYMR90~1\AppData\Local\Temp\ccx4ZXSQ.s:25895  .debug_str:000000000000bba2 .LASF642
C:\Users\CYMR90~1\AppData\Local\Temp\ccx4ZXSQ.s:33116  .debug_str:00000000000282eb .LASF643
C:\Users\CYMR90~1\AppData\Local\Temp\ccx4ZXSQ.s:26283  .debug_str:000000000000d468 .LASF644
C:\Users\CYMR90~1\AppData\Local\Temp\ccx4ZXSQ.s:24037  .debug_str:00000000000044b0 .LASF645
C:\Users\CYMR90~1\AppData\Local\Temp\ccx4ZXSQ.s:24875  .debug_str:000000000000798d .LASF646
C:\Users\CYMR90~1\AppData\Local\Temp\ccx4ZXSQ.s:23777  .debug_str:0000000000003477 .LASF647
C:\Users\CYMR90~1\AppData\Local\Temp\ccx4ZXSQ.s:24157  .debug_str:0000000000004cfd .LASF648
C:\Users\CYMR90~1\AppData\Local\Temp\ccx4ZXSQ.s:29432  .debug_str:0000000000019bee .LASF649
C:\Users\CYMR90~1\AppData\Local\Temp\ccx4ZXSQ.s:27431  .debug_str:0000000000011bb9 .LASF650
C:\Users\CYMR90~1\AppData\Local\Temp\ccx4ZXSQ.s:33760  .debug_str:000000000002ab38 .LASF651
C:\Users\CYMR90~1\AppData\Local\Temp\ccx4ZXSQ.s:27013  .debug_str:0000000000010117 .LASF652
C:\Users\CYMR90~1\AppData\Local\Temp\ccx4ZXSQ.s:23017  .debug_str:0000000000000571 .LASF653
C:\Users\CYMR90~1\AppData\Local\Temp\ccx4ZXSQ.s:33998  .debug_str:000000000002b8e8 .LASF654
C:\Users\CYMR90~1\AppData\Local\Temp\ccx4ZXSQ.s:25243  .debug_str:000000000000922b .LASF655
C:\Users\CYMR90~1\AppData\Local\Temp\ccx4ZXSQ.s:33196  .debug_str:0000000000028877 .LASF656
C:\Users\CYMR90~1\AppData\Local\Temp\ccx4ZXSQ.s:23077  .debug_str:000000000000089e .LASF657
C:\Users\CYMR90~1\AppData\Local\Temp\ccx4ZXSQ.s:33816  .debug_str:000000000002ae68 .LASF658
C:\Users\CYMR90~1\AppData\Local\Temp\ccx4ZXSQ.s:27831  .debug_str:0000000000013643 .LASF659
C:\Users\CYMR90~1\AppData\Local\Temp\ccx4ZXSQ.s:30300  .debug_str:000000000001d314 .LASF660
C:\Users\CYMR90~1\AppData\Local\Temp\ccx4ZXSQ.s:26697  .debug_str:000000000000ee3b .LASF661
C:\Users\CYMR90~1\AppData\Local\Temp\ccx4ZXSQ.s:30984  .debug_str:000000000001fe3a .LASF662
C:\Users\CYMR90~1\AppData\Local\Temp\ccx4ZXSQ.s:32970  .debug_str:00000000000279e0 .LASF663
C:\Users\CYMR90~1\AppData\Local\Temp\ccx4ZXSQ.s:28135  .debug_str:0000000000014953 .LASF664
C:\Users\CYMR90~1\AppData\Local\Temp\ccx4ZXSQ.s:27395  .debug_str:000000000001199a .LASF665
C:\Users\CYMR90~1\AppData\Local\Temp\ccx4ZXSQ.s:29340  .debug_str:00000000000195c8 .LASF666
C:\Users\CYMR90~1\AppData\Local\Temp\ccx4ZXSQ.s:24447  .debug_str:0000000000005e79 .LASF667
C:\Users\CYMR90~1\AppData\Local\Temp\ccx4ZXSQ.s:34514  .debug_str:000000000002da58 .LASF668
C:\Users\CYMR90~1\AppData\Local\Temp\ccx4ZXSQ.s:24839  .debug_str:000000000000777a .LASF669
C:\Users\CYMR90~1\AppData\Local\Temp\ccx4ZXSQ.s:31636  .debug_str:0000000000022641 .LASF670
C:\Users\CYMR90~1\AppData\Local\Temp\ccx4ZXSQ.s:27813  .debug_str:0000000000013530 .LASF671
C:\Users\CYMR90~1\AppData\Local\Temp\ccx4ZXSQ.s:31036  .debug_str:000000000002012d .LASF672
C:\Users\CYMR90~1\AppData\Local\Temp\ccx4ZXSQ.s:31766  .debug_str:0000000000022db4 .LASF673
C:\Users\CYMR90~1\AppData\Local\Temp\ccx4ZXSQ.s:23415  .debug_str:0000000000001df5 .LASF674
C:\Users\CYMR90~1\AppData\Local\Temp\ccx4ZXSQ.s:28505  .debug_str:0000000000015ffb .LASF676
C:\Users\CYMR90~1\AppData\Local\Temp\ccx4ZXSQ.s:32196  .debug_str:0000000000024742 .LASF677
C:\Users\CYMR90~1\AppData\Local\Temp\ccx4ZXSQ.s:29578  .debug_str:000000000001a527 .LASF678
C:\Users\CYMR90~1\AppData\Local\Temp\ccx4ZXSQ.s:32292  .debug_str:0000000000024deb .LASF679
C:\Users\CYMR90~1\AppData\Local\Temp\ccx4ZXSQ.s:30742  .debug_str:000000000001efc2 .LASF680
C:\Users\CYMR90~1\AppData\Local\Temp\ccx4ZXSQ.s:33658  .debug_str:000000000002a57b .LASF681
C:\Users\CYMR90~1\AppData\Local\Temp\ccx4ZXSQ.s:27517  .debug_str:0000000000012279 .LASF682
C:\Users\CYMR90~1\AppData\Local\Temp\ccx4ZXSQ.s:23957  .debug_str:0000000000003fe7 .LASF683
C:\Users\CYMR90~1\AppData\Local\Temp\ccx4ZXSQ.s:34098  .debug_str:000000000002bf72 .LASF684
C:\Users\CYMR90~1\AppData\Local\Temp\ccx4ZXSQ.s:30042  .debug_str:000000000001c26b .LASF685
C:\Users\CYMR90~1\AppData\Local\Temp\ccx4ZXSQ.s:31498  .debug_str:0000000000021d9a .LASF686
C:\Users\CYMR90~1\AppData\Local\Temp\ccx4ZXSQ.s:28787  .debug_str:000000000001720d .LASF687
C:\Users\CYMR90~1\AppData\Local\Temp\ccx4ZXSQ.s:27323  .debug_str:0000000000011535 .LASF688
C:\Users\CYMR90~1\AppData\Local\Temp\ccx4ZXSQ.s:23837  .debug_str:0000000000003861 .LASF689
C:\Users\CYMR90~1\AppData\Local\Temp\ccx4ZXSQ.s:24725  .debug_str:0000000000007017 .LASF690
C:\Users\CYMR90~1\AppData\Local\Temp\ccx4ZXSQ.s:27681  .debug_str:0000000000012c8a .LASF691
C:\Users\CYMR90~1\AppData\Local\Temp\ccx4ZXSQ.s:28545  .debug_str:0000000000016256 .LASF692
C:\Users\CYMR90~1\AppData\Local\Temp\ccx4ZXSQ.s:24415  .debug_str:0000000000005cb4 .LASF695
C:\Users\CYMR90~1\AppData\Local\Temp\ccx4ZXSQ.s:28960  .debug_str:0000000000017e4b .LASF696
C:\Users\CYMR90~1\AppData\Local\Temp\ccx4ZXSQ.s:26315  .debug_str:000000000000d662 .LASF697
C:\Users\CYMR90~1\AppData\Local\Temp\ccx4ZXSQ.s:30014  .debug_str:000000000001c0f7 .LASF698
C:\Users\CYMR90~1\AppData\Local\Temp\ccx4ZXSQ.s:32232  .debug_str:0000000000024939 .LASF699
C:\Users\CYMR90~1\AppData\Local\Temp\ccx4ZXSQ.s:28265  .debug_str:000000000001512c .LASF702
C:\Users\CYMR90~1\AppData\Local\Temp\ccx4ZXSQ.s:25407  .debug_str:0000000000009b7f .LASF703
C:\Users\CYMR90~1\AppData\Local\Temp\ccx4ZXSQ.s:30928  .debug_str:000000000001fae8 .LASF704
C:\Users\CYMR90~1\AppData\Local\Temp\ccx4ZXSQ.s:24233  .debug_str:00000000000051a2 .LASF705
C:\Users\CYMR90~1\AppData\Local\Temp\ccx4ZXSQ.s:28613  .debug_str:00000000000166e9 .LASF706
C:\Users\CYMR90~1\AppData\Local\Temp\ccx4ZXSQ.s:26891  .debug_str:000000000000f99c .LASF707
C:\Users\CYMR90~1\AppData\Local\Temp\ccx4ZXSQ.s:33394  .debug_str:00000000000295f7 .LASF708
C:\Users\CYMR90~1\AppData\Local\Temp\ccx4ZXSQ.s:32620  .debug_str:0000000000026472 .LASF709
C:\Users\CYMR90~1\AppData\Local\Temp\ccx4ZXSQ.s:26537  .debug_str:000000000000e420 .LASF710
C:\Users\CYMR90~1\AppData\Local\Temp\ccx4ZXSQ.s:27053  .debug_str:0000000000010396 .LASF711
C:\Users\CYMR90~1\AppData\Local\Temp\ccx4ZXSQ.s:28763  .debug_str:0000000000017072 .LASF712
C:\Users\CYMR90~1\AppData\Local\Temp\ccx4ZXSQ.s:25653  .debug_str:000000000000aa9a .LASF713
C:\Users\CYMR90~1\AppData\Local\Temp\ccx4ZXSQ.s:34218  .debug_str:000000000002c704 .LASF714
C:\Users\CYMR90~1\AppData\Local\Temp\ccx4ZXSQ.s:24987  .debug_str:000000000000816e .LASF715
C:\Users\CYMR90~1\AppData\Local\Temp\ccx4ZXSQ.s:25937  .debug_str:000000000000be4c .LASF716
C:\Users\CYMR90~1\AppData\Local\Temp\ccx4ZXSQ.s:31158  .debug_str:00000000000208ce .LASF717
C:\Users\CYMR90~1\AppData\Local\Temp\ccx4ZXSQ.s:32570  .debug_str:00000000000260e0 .LASF718
C:\Users\CYMR90~1\AppData\Local\Temp\ccx4ZXSQ.s:32338  .debug_str:00000000000250a0 .LASF719
C:\Users\CYMR90~1\AppData\Local\Temp\ccx4ZXSQ.s:29272  .debug_str:0000000000019120 .LASF720
C:\Users\CYMR90~1\AppData\Local\Temp\ccx4ZXSQ.s:26795  .debug_str:000000000000f3df .LASF721
C:\Users\CYMR90~1\AppData\Local\Temp\ccx4ZXSQ.s:31270  .debug_str:0000000000020fcf .LASF722
C:\Users\CYMR90~1\AppData\Local\Temp\ccx4ZXSQ.s:30206  .debug_str:000000000001cc76 .LASF723
C:\Users\CYMR90~1\AppData\Local\Temp\ccx4ZXSQ.s:30794  .debug_str:000000000001f2e1 .LASF724
C:\Users\CYMR90~1\AppData\Local\Temp\ccx4ZXSQ.s:31746  .debug_str:0000000000022c9d .LASF725
C:\Users\CYMR90~1\AppData\Local\Temp\ccx4ZXSQ.s:27925  .debug_str:0000000000013cb3 .LASF726
C:\Users\CYMR90~1\AppData\Local\Temp\ccx4ZXSQ.s:25647  .debug_str:000000000000aa40 .LASF727
C:\Users\CYMR90~1\AppData\Local\Temp\ccx4ZXSQ.s:32714  .debug_str:0000000000026a8e .LASF728
C:\Users\CYMR90~1\AppData\Local\Temp\ccx4ZXSQ.s:31042  .debug_str:00000000000201ab .LASF729
C:\Users\CYMR90~1\AppData\Local\Temp\ccx4ZXSQ.s:33258  .debug_str:0000000000028d45 .LASF730
C:\Users\CYMR90~1\AppData\Local\Temp\ccx4ZXSQ.s:27899  .debug_str:0000000000013aff .LASF731
C:\Users\CYMR90~1\AppData\Local\Temp\ccx4ZXSQ.s:32656  .debug_str:0000000000026703 .LASF732
C:\Users\CYMR90~1\AppData\Local\Temp\ccx4ZXSQ.s:34430  .debug_str:000000000002d51f .LASF733
C:\Users\CYMR90~1\AppData\Local\Temp\ccx4ZXSQ.s:27377  .debug_str:0000000000011847 .LASF734
C:\Users\CYMR90~1\AppData\Local\Temp\ccx4ZXSQ.s:27301  .debug_str:000000000001140d .LASF735
C:\Users\CYMR90~1\AppData\Local\Temp\ccx4ZXSQ.s:34354  .debug_str:000000000002cfe3 .LASF736
C:\Users\CYMR90~1\AppData\Local\Temp\ccx4ZXSQ.s:26251  .debug_str:000000000000d299 .LASF737
C:\Users\CYMR90~1\AppData\Local\Temp\ccx4ZXSQ.s:30368  .debug_str:000000000001d8ac .LASF738
C:\Users\CYMR90~1\AppData\Local\Temp\ccx4ZXSQ.s:34104  .debug_str:000000000002bfc2 .LASF739
C:\Users\CYMR90~1\AppData\Local\Temp\ccx4ZXSQ.s:23383  .debug_str:0000000000001bff .LASF740
C:\Users\CYMR90~1\AppData\Local\Temp\ccx4ZXSQ.s:26185  .debug_str:000000000000ceb5 .LASF741
C:\Users\CYMR90~1\AppData\Local\Temp\ccx4ZXSQ.s:23359  .debug_str:0000000000001a98 .LASF742
C:\Users\CYMR90~1\AppData\Local\Temp\ccx4ZXSQ.s:27331  .debug_str:0000000000011591 .LASF743
C:\Users\CYMR90~1\AppData\Local\Temp\ccx4ZXSQ.s:23819  .debug_str:0000000000003749 .LASF744
C:\Users\CYMR90~1\AppData\Local\Temp\ccx4ZXSQ.s:25251  .debug_str:000000000000929e .LASF745
C:\Users\CYMR90~1\AppData\Local\Temp\ccx4ZXSQ.s:31758  .debug_str:0000000000022d59 .LASF746
C:\Users\CYMR90~1\AppData\Local\Temp\ccx4ZXSQ.s:23251  .debug_str:000000000000134a .LASF747
C:\Users\CYMR90~1\AppData\Local\Temp\ccx4ZXSQ.s:23241  .debug_str:00000000000012c8 .LASF748
C:\Users\CYMR90~1\AppData\Local\Temp\ccx4ZXSQ.s:24395  .debug_str:0000000000005b6e .LASF750
C:\Users\CYMR90~1\AppData\Local\Temp\ccx4ZXSQ.s:27257  .debug_str:00000000000110b5 .LASF751
C:\Users\CYMR90~1\AppData\Local\Temp\ccx4ZXSQ.s:33546  .debug_str:0000000000029efb .LASF752
C:\Users\CYMR90~1\AppData\Local\Temp\ccx4ZXSQ.s:27187  .debug_str:0000000000010c28 .LASF753
C:\Users\CYMR90~1\AppData\Local\Temp\ccx4ZXSQ.s:24273  .debug_str:00000000000053fb .LASF754
C:\Users\CYMR90~1\AppData\Local\Temp\ccx4ZXSQ.s:25917  .debug_str:000000000000bd32 .LASF755
C:\Users\CYMR90~1\AppData\Local\Temp\ccx4ZXSQ.s:29540  .debug_str:000000000001a320 .LASF756
C:\Users\CYMR90~1\AppData\Local\Temp\ccx4ZXSQ.s:25393  .debug_str:0000000000009ab1 .LASF757
C:\Users\CYMR90~1\AppData\Local\Temp\ccx4ZXSQ.s:32602  .debug_str:0000000000026368 .LASF758
C:\Users\CYMR90~1\AppData\Local\Temp\ccx4ZXSQ.s:34474  .debug_str:000000000002d81c .LASF759
C:\Users\CYMR90~1\AppData\Local\Temp\ccx4ZXSQ.s:29914  .debug_str:000000000001bb04 .LASF760
C:\Users\CYMR90~1\AppData\Local\Temp\ccx4ZXSQ.s:34200  .debug_str:000000000002c5de .LASF761
C:\Users\CYMR90~1\AppData\Local\Temp\ccx4ZXSQ.s:25837  .debug_str:000000000000b77c .LASF762
C:\Users\CYMR90~1\AppData\Local\Temp\ccx4ZXSQ.s:29924  .debug_str:000000000001bbbe .LASF765
C:\Users\CYMR90~1\AppData\Local\Temp\ccx4ZXSQ.s:28581  .debug_str:00000000000164b4 .LASF766
C:\Users\CYMR90~1\AppData\Local\Temp\ccx4ZXSQ.s:31646  .debug_str:00000000000226b7 .LASF767
C:\Users\CYMR90~1\AppData\Local\Temp\ccx4ZXSQ.s:28571  .debug_str:0000000000016435 .LASF768
C:\Users\CYMR90~1\AppData\Local\Temp\ccx4ZXSQ.s:23609  .debug_str:00000000000029d6 .LASF769
C:\Users\CYMR90~1\AppData\Local\Temp\ccx4ZXSQ.s:30058  .debug_str:000000000001c3a6 .LASF770
C:\Users\CYMR90~1\AppData\Local\Temp\ccx4ZXSQ.s:28669  .debug_str:0000000000016a87 .LASF771
C:\Users\CYMR90~1\AppData\Local\Temp\ccx4ZXSQ.s:32300  .debug_str:0000000000024e59 .LASF772
C:\Users\CYMR90~1\AppData\Local\Temp\ccx4ZXSQ.s:31940  .debug_str:0000000000023834 .LASF773
C:\Users\CYMR90~1\AppData\Local\Temp\ccx4ZXSQ.s:30390  .debug_str:000000000001d9df .LASF774
C:\Users\CYMR90~1\AppData\Local\Temp\ccx4ZXSQ.s:32658  .debug_str:0000000000026719 .LASF775
C:\Users\CYMR90~1\AppData\Local\Temp\ccx4ZXSQ.s:25543  .debug_str:000000000000a45a .LASF776
C:\Users\CYMR90~1\AppData\Local\Temp\ccx4ZXSQ.s:25559  .debug_str:000000000000a55e .LASF777
C:\Users\CYMR90~1\AppData\Local\Temp\ccx4ZXSQ.s:30732  .debug_str:000000000001ef21 .LASF778
C:\Users\CYMR90~1\AppData\Local\Temp\ccx4ZXSQ.s:27129  .debug_str:00000000000108d1 .LASF779
C:\Users\CYMR90~1\AppData\Local\Temp\ccx4ZXSQ.s:30992  .debug_str:000000000001feaf .LASF780
C:\Users\CYMR90~1\AppData\Local\Temp\ccx4ZXSQ.s:31642  .debug_str:000000000002269e .LASF781
C:\Users\CYMR90~1\AppData\Local\Temp\ccx4ZXSQ.s:27637  .debug_str:00000000000129f6 .LASF782
C:\Users\CYMR90~1\AppData\Local\Temp\ccx4ZXSQ.s:28793  .debug_str:00000000000172fb .LASF783
C:\Users\CYMR90~1\AppData\Local\Temp\ccx4ZXSQ.s:27535  .debug_str:0000000000012394 .LASF784
C:\Users\CYMR90~1\AppData\Local\Temp\ccx4ZXSQ.s:27947  .debug_str:0000000000013e10 .LASF785
C:\Users\CYMR90~1\AppData\Local\Temp\ccx4ZXSQ.s:27751  .debug_str:0000000000013127 .LASF786
C:\Users\CYMR90~1\AppData\Local\Temp\ccx4ZXSQ.s:28279  .debug_str:000000000001524b .LASF787
C:\Users\CYMR90~1\AppData\Local\Temp\ccx4ZXSQ.s:30666  .debug_str:000000000001eb26 .LASF788
C:\Users\CYMR90~1\AppData\Local\Temp\ccx4ZXSQ.s:26969  .debug_str:000000000000fe93 .LASF789
C:\Users\CYMR90~1\AppData\Local\Temp\ccx4ZXSQ.s:24327  .debug_str:0000000000005745 .LASF790
C:\Users\CYMR90~1\AppData\Local\Temp\ccx4ZXSQ.s:33016  .debug_str:0000000000027d6d .LASF791
C:\Users\CYMR90~1\AppData\Local\Temp\ccx4ZXSQ.s:25113  .debug_str:00000000000089df .LASF792
C:\Users\CYMR90~1\AppData\Local\Temp\ccx4ZXSQ.s:34436  .debug_str:000000000002d56d .LASF793
C:\Users\CYMR90~1\AppData\Local\Temp\ccx4ZXSQ.s:24893  .debug_str:0000000000007b03 .LASF794
C:\Users\CYMR90~1\AppData\Local\Temp\ccx4ZXSQ.s:33272  .debug_str:0000000000028df8 .LASF795
C:\Users\CYMR90~1\AppData\Local\Temp\ccx4ZXSQ.s:31244  .debug_str:0000000000020ddb .LASF796
C:\Users\CYMR90~1\AppData\Local\Temp\ccx4ZXSQ.s:33990  .debug_str:000000000002b89b .LASF797
C:\Users\CYMR90~1\AppData\Local\Temp\ccx4ZXSQ.s:24707  .debug_str:0000000000006ed5 .LASF798
C:\Users\CYMR90~1\AppData\Local\Temp\ccx4ZXSQ.s:33332  .debug_str:000000000002923a .LASF799
C:\Users\CYMR90~1\AppData\Local\Temp\ccx4ZXSQ.s:24289  .debug_str:00000000000054f2 .LASF800
C:\Users\CYMR90~1\AppData\Local\Temp\ccx4ZXSQ.s:29678  .debug_str:000000000001ac27 .LASF801
C:\Users\CYMR90~1\AppData\Local\Temp\ccx4ZXSQ.s:29710  .debug_str:000000000001ae0e .LASF802
C:\Users\CYMR90~1\AppData\Local\Temp\ccx4ZXSQ.s:25463  .debug_str:0000000000009f20 .LASF803
C:\Users\CYMR90~1\AppData\Local\Temp\ccx4ZXSQ.s:28029  .debug_str:0000000000014311 .LASF804
C:\Users\CYMR90~1\AppData\Local\Temp\ccx4ZXSQ.s:24721  .debug_str:0000000000006f9c .LASF805
C:\Users\CYMR90~1\AppData\Local\Temp\ccx4ZXSQ.s:27485  .debug_str:0000000000011fe4 .LASF806
C:\Users\CYMR90~1\AppData\Local\Temp\ccx4ZXSQ.s:30688  .debug_str:000000000001ec3c .LASF807
C:\Users\CYMR90~1\AppData\Local\Temp\ccx4ZXSQ.s:30264  .debug_str:000000000001d0c0 .LASF808
C:\Users\CYMR90~1\AppData\Local\Temp\ccx4ZXSQ.s:32722  .debug_str:0000000000026b0d .LASF809
C:\Users\CYMR90~1\AppData\Local\Temp\ccx4ZXSQ.s:34204  .debug_str:000000000002c620 .LASF810
C:\Users\CYMR90~1\AppData\Local\Temp\ccx4ZXSQ.s:25139  .debug_str:0000000000008b61 .LASF811
C:\Users\CYMR90~1\AppData\Local\Temp\ccx4ZXSQ.s:24017  .debug_str:00000000000043ab .LASF812
C:\Users\CYMR90~1\AppData\Local\Temp\ccx4ZXSQ.s:34240  .debug_str:000000000002c8f8 .LASF813
C:\Users\CYMR90~1\AppData\Local\Temp\ccx4ZXSQ.s:24391  .debug_str:0000000000005b4d .LASF814
C:\Users\CYMR90~1\AppData\Local\Temp\ccx4ZXSQ.s:24615  .debug_str:00000000000068a3 .LASF815
C:\Users\CYMR90~1\AppData\Local\Temp\ccx4ZXSQ.s:30028  .debug_str:000000000001c1b5 .LASF816
C:\Users\CYMR90~1\AppData\Local\Temp\ccx4ZXSQ.s:25315  .debug_str:0000000000009624 .LASF817
C:\Users\CYMR90~1\AppData\Local\Temp\ccx4ZXSQ.s:30172  .debug_str:000000000001ca9e .LASF818
C:\Users\CYMR90~1\AppData\Local\Temp\ccx4ZXSQ.s:32638  .debug_str:00000000000265a4 .LASF819
C:\Users\CYMR90~1\AppData\Local\Temp\ccx4ZXSQ.s:23123  .debug_str:0000000000000b8c .LASF820
C:\Users\CYMR90~1\AppData\Local\Temp\ccx4ZXSQ.s:33818  .debug_str:000000000002ae78 .LASF821
C:\Users\CYMR90~1\AppData\Local\Temp\ccx4ZXSQ.s:32296  .debug_str:0000000000024e29 .LASF822
C:\Users\CYMR90~1\AppData\Local\Temp\ccx4ZXSQ.s:25281  .debug_str:0000000000009416 .LASF823
C:\Users\CYMR90~1\AppData\Local\Temp\ccx4ZXSQ.s:28717  .debug_str:0000000000016dbc .LASF824
C:\Users\CYMR90~1\AppData\Local\Temp\ccx4ZXSQ.s:30372  .debug_str:000000000001d8e7 .LASF825
C:\Users\CYMR90~1\AppData\Local\Temp\ccx4ZXSQ.s:28503  .debug_str:0000000000015fda .LASF826
C:\Users\CYMR90~1\AppData\Local\Temp\ccx4ZXSQ.s:23905  .debug_str:0000000000003cc2 .LASF827
C:\Users\CYMR90~1\AppData\Local\Temp\ccx4ZXSQ.s:26777  .debug_str:000000000000f2e8 .LASF828
C:\Users\CYMR90~1\AppData\Local\Temp\ccx4ZXSQ.s:25471  .debug_str:0000000000009f81 .LASF829
C:\Users\CYMR90~1\AppData\Local\Temp\ccx4ZXSQ.s:32588  .debug_str:0000000000026269 .LASF830
C:\Users\CYMR90~1\AppData\Local\Temp\ccx4ZXSQ.s:25923  .debug_str:000000000000bd8d .LASF831
C:\Users\CYMR90~1\AppData\Local\Temp\ccx4ZXSQ.s:26721  .debug_str:000000000000ef8a .LASF832
C:\Users\CYMR90~1\AppData\Local\Temp\ccx4ZXSQ.s:24477  .debug_str:000000000000602c .LASF833
C:\Users\CYMR90~1\AppData\Local\Temp\ccx4ZXSQ.s:27379  .debug_str:0000000000011858 .LASF834
C:\Users\CYMR90~1\AppData\Local\Temp\ccx4ZXSQ.s:29190  .debug_str:0000000000018c4d .LASF835
C:\Users\CYMR90~1\AppData\Local\Temp\ccx4ZXSQ.s:27285  .debug_str:00000000000112b6 .LASF836
C:\Users\CYMR90~1\AppData\Local\Temp\ccx4ZXSQ.s:31150  .debug_str:000000000002085e .LASF837
C:\Users\CYMR90~1\AppData\Local\Temp\ccx4ZXSQ.s:25183  .debug_str:0000000000008e14 .LASF838
C:\Users\CYMR90~1\AppData\Local\Temp\ccx4ZXSQ.s:24315  .debug_str:00000000000056a6 .LASF839
C:\Users\CYMR90~1\AppData\Local\Temp\ccx4ZXSQ.s:27175  .debug_str:0000000000010b6c .LASF840
C:\Users\CYMR90~1\AppData\Local\Temp\ccx4ZXSQ.s:26065  .debug_str:000000000000c6df .LASF841
C:\Users\CYMR90~1\AppData\Local\Temp\ccx4ZXSQ.s:30282  .debug_str:000000000001d1fc .LASF842
C:\Users\CYMR90~1\AppData\Local\Temp\ccx4ZXSQ.s:23193  .debug_str:000000000000103e .LASF843
C:\Users\CYMR90~1\AppData\Local\Temp\ccx4ZXSQ.s:23547  .debug_str:00000000000025a8 .LASF844
C:\Users\CYMR90~1\AppData\Local\Temp\ccx4ZXSQ.s:32162  .debug_str:0000000000024560 .LASF845
C:\Users\CYMR90~1\AppData\Local\Temp\ccx4ZXSQ.s:22933  .debug_str:0000000000000068 .LASF846
C:\Users\CYMR90~1\AppData\Local\Temp\ccx4ZXSQ.s:24977  .debug_str:00000000000080ef .LASF847
C:\Users\CYMR90~1\AppData\Local\Temp\ccx4ZXSQ.s:30998  .debug_str:000000000001fefd .LASF848
C:\Users\CYMR90~1\AppData\Local\Temp\ccx4ZXSQ.s:24941  .debug_str:0000000000007e17 .LASF849
C:\Users\CYMR90~1\AppData\Local\Temp\ccx4ZXSQ.s:26371  .debug_str:000000000000da62 .LASF852
C:\Users\CYMR90~1\AppData\Local\Temp\ccx4ZXSQ.s:33388  .debug_str:000000000002959f .LASF853
C:\Users\CYMR90~1\AppData\Local\Temp\ccx4ZXSQ.s:28339  .debug_str:0000000000015665 .LASF854
C:\Users\CYMR90~1\AppData\Local\Temp\ccx4ZXSQ.s:31652  .debug_str:0000000000022750 .LASF856
C:\Users\CYMR90~1\AppData\Local\Temp\ccx4ZXSQ.s:30520  .debug_str:000000000001e211 .LASF857
C:\Users\CYMR90~1\AppData\Local\Temp\ccx4ZXSQ.s:33206  .debug_str:000000000002890c .LASF858
C:\Users\CYMR90~1\AppData\Local\Temp\ccx4ZXSQ.s:26359  .debug_str:000000000000d993 .LASF859
C:\Users\CYMR90~1\AppData\Local\Temp\ccx4ZXSQ.s:27329  .debug_str:0000000000011587 .LASF860
C:\Users\CYMR90~1\AppData\Local\Temp\ccx4ZXSQ.s:31580  .debug_str:00000000000222b9 .LASF861
C:\Users\CYMR90~1\AppData\Local\Temp\ccx4ZXSQ.s:30724  .debug_str:000000000001eed1 .LASF862
C:\Users\CYMR90~1\AppData\Local\Temp\ccx4ZXSQ.s:23297  .debug_str:0000000000001605 .LASF863
C:\Users\CYMR90~1\AppData\Local\Temp\ccx4ZXSQ.s:23963  .debug_str:0000000000004032 .LASF864
C:\Users\CYMR90~1\AppData\Local\Temp\ccx4ZXSQ.s:24361  .debug_str:0000000000005986 .LASF865
C:\Users\CYMR90~1\AppData\Local\Temp\ccx4ZXSQ.s:25595  .debug_str:000000000000a795 .LASF866
C:\Users\CYMR90~1\AppData\Local\Temp\ccx4ZXSQ.s:25045  .debug_str:00000000000085f0 .LASF867
C:\Users\CYMR90~1\AppData\Local\Temp\ccx4ZXSQ.s:30450  .debug_str:000000000001dd6c .LASF868
C:\Users\CYMR90~1\AppData\Local\Temp\ccx4ZXSQ.s:31086  .debug_str:0000000000020465 .LASF869
C:\Users\CYMR90~1\AppData\Local\Temp\ccx4ZXSQ.s:32174  .debug_str:000000000002460b .LASF870
C:\Users\CYMR90~1\AppData\Local\Temp\ccx4ZXSQ.s:25219  .debug_str:0000000000009097 .LASF871
C:\Users\CYMR90~1\AppData\Local\Temp\ccx4ZXSQ.s:25673  .debug_str:000000000000ace5 .LASF872
C:\Users\CYMR90~1\AppData\Local\Temp\ccx4ZXSQ.s:30272  .debug_str:000000000001d158 .LASF873
C:\Users\CYMR90~1\AppData\Local\Temp\ccx4ZXSQ.s:32898  .debug_str:0000000000027581 .LASF874
C:\Users\CYMR90~1\AppData\Local\Temp\ccx4ZXSQ.s:27555  .debug_str:00000000000124ac .LASF875
C:\Users\CYMR90~1\AppData\Local\Temp\ccx4ZXSQ.s:28243  .debug_str:0000000000015031 .LASF876
C:\Users\CYMR90~1\AppData\Local\Temp\ccx4ZXSQ.s:25469  .debug_str:0000000000009f73 .LASF877
C:\Users\CYMR90~1\AppData\Local\Temp\ccx4ZXSQ.s:29962  .debug_str:000000000001bdef .LASF878
C:\Users\CYMR90~1\AppData\Local\Temp\ccx4ZXSQ.s:33666  .debug_str:000000000002a5fe .LASF879
C:\Users\CYMR90~1\AppData\Local\Temp\ccx4ZXSQ.s:28908  .debug_str:0000000000017b4d .LASF880
C:\Users\CYMR90~1\AppData\Local\Temp\ccx4ZXSQ.s:24291  .debug_str:000000000000550b .LASF881
C:\Users\CYMR90~1\AppData\Local\Temp\ccx4ZXSQ.s:27773  .debug_str:00000000000132ac .LASF882
C:\Users\CYMR90~1\AppData\Local\Temp\ccx4ZXSQ.s:30968  .debug_str:000000000001fd70 .LASF883
C:\Users\CYMR90~1\AppData\Local\Temp\ccx4ZXSQ.s:31164  .debug_str:0000000000020935 .LASF884
C:\Users\CYMR90~1\AppData\Local\Temp\ccx4ZXSQ.s:34502  .debug_str:000000000002d98e .LASF885
C:\Users\CYMR90~1\AppData\Local\Temp\ccx4ZXSQ.s:29970  .debug_str:000000000001be69 .LASF886
C:\Users\CYMR90~1\AppData\Local\Temp\ccx4ZXSQ.s:25331  .debug_str:000000000000970c .LASF887
C:\Users\CYMR90~1\AppData\Local\Temp\ccx4ZXSQ.s:32126  .debug_str:0000000000024372 .LASF888
C:\Users\CYMR90~1\AppData\Local\Temp\ccx4ZXSQ.s:27709  .debug_str:0000000000012e79 .LASF889
C:\Users\CYMR90~1\AppData\Local\Temp\ccx4ZXSQ.s:32058  .debug_str:0000000000023ef4 .LASF890
C:\Users\CYMR90~1\AppData\Local\Temp\ccx4ZXSQ.s:24117  .debug_str:0000000000004ab6 .LASF891
C:\Users\CYMR90~1\AppData\Local\Temp\ccx4ZXSQ.s:26669  .debug_str:000000000000ec76 .LASF892
C:\Users\CYMR90~1\AppData\Local\Temp\ccx4ZXSQ.s:32838  .debug_str:0000000000027220 .LASF893
C:\Users\CYMR90~1\AppData\Local\Temp\ccx4ZXSQ.s:32212  .debug_str:0000000000024834 .LASF894
C:\Users\CYMR90~1\AppData\Local\Temp\ccx4ZXSQ.s:23265  .debug_str:000000000000140c .LASF895
C:\Users\CYMR90~1\AppData\Local\Temp\ccx4ZXSQ.s:28095  .debug_str:00000000000146d0 .LASF896
C:\Users\CYMR90~1\AppData\Local\Temp\ccx4ZXSQ.s:24203  .debug_str:0000000000004ffa .LASF897
C:\Users\CYMR90~1\AppData\Local\Temp\ccx4ZXSQ.s:25457  .debug_str:0000000000009ec7 .LASF898
C:\Users\CYMR90~1\AppData\Local\Temp\ccx4ZXSQ.s:33148  .debug_str:0000000000028539 .LASF899
C:\Users\CYMR90~1\AppData\Local\Temp\ccx4ZXSQ.s:25789  .debug_str:000000000000b4e1 .LASF900
C:\Users\CYMR90~1\AppData\Local\Temp\ccx4ZXSQ.s:30020  .debug_str:000000000001c12d .LASF901
C:\Users\CYMR90~1\AppData\Local\Temp\ccx4ZXSQ.s:33682  .debug_str:000000000002a6d5 .LASF902
C:\Users\CYMR90~1\AppData\Local\Temp\ccx4ZXSQ.s:32406  .debug_str:0000000000025500 .LASF903
C:\Users\CYMR90~1\AppData\Local\Temp\ccx4ZXSQ.s:33294  .debug_str:0000000000028f56 .LASF904
C:\Users\CYMR90~1\AppData\Local\Temp\ccx4ZXSQ.s:27759  .debug_str:00000000000131c7 .LASF905
C:\Users\CYMR90~1\AppData\Local\Temp\ccx4ZXSQ.s:25101  .debug_str:0000000000008945 .LASF906
C:\Users\CYMR90~1\AppData\Local\Temp\ccx4ZXSQ.s:33864  .debug_str:000000000002b18b .LASF907
C:\Users\CYMR90~1\AppData\Local\Temp\ccx4ZXSQ.s:30154  .debug_str:000000000001c990 .LASF908
C:\Users\CYMR90~1\AppData\Local\Temp\ccx4ZXSQ.s:33120  .debug_str:000000000002834b .LASF909
C:\Users\CYMR90~1\AppData\Local\Temp\ccx4ZXSQ.s:27303  .debug_str:000000000001141e .LASF910
C:\Users\CYMR90~1\AppData\Local\Temp\ccx4ZXSQ.s:23645  .debug_str:0000000000002c28 .LASF911
C:\Users\CYMR90~1\AppData\Local\Temp\ccx4ZXSQ.s:23235  .debug_str:000000000000128b .LASF912
C:\Users\CYMR90~1\AppData\Local\Temp\ccx4ZXSQ.s:31500  .debug_str:0000000000021dbe .LASF913
C:\Users\CYMR90~1\AppData\Local\Temp\ccx4ZXSQ.s:32386  .debug_str:00000000000253ac .LASF914
C:\Users\CYMR90~1\AppData\Local\Temp\ccx4ZXSQ.s:26195  .debug_str:000000000000cf6f .LASF915
C:\Users\CYMR90~1\AppData\Local\Temp\ccx4ZXSQ.s:26527  .debug_str:000000000000e361 .LASF916
C:\Users\CYMR90~1\AppData\Local\Temp\ccx4ZXSQ.s:27105  .debug_str:00000000000106e3 .LASF917
C:\Users\CYMR90~1\AppData\Local\Temp\ccx4ZXSQ.s:33940  .debug_str:000000000002b58c .LASF918
C:\Users\CYMR90~1\AppData\Local\Temp\ccx4ZXSQ.s:23221  .debug_str:00000000000011ac .LASF919
C:\Users\CYMR90~1\AppData\Local\Temp\ccx4ZXSQ.s:25775  .debug_str:000000000000b3e0 .LASF920
C:\Users\CYMR90~1\AppData\Local\Temp\ccx4ZXSQ.s:32340  .debug_str:00000000000250b5 .LASF921
C:\Users\CYMR90~1\AppData\Local\Temp\ccx4ZXSQ.s:29702  .debug_str:000000000001ad84 .LASF922
C:\Users\CYMR90~1\AppData\Local\Temp\ccx4ZXSQ.s:32878  .debug_str:0000000000027452 .LASF923
C:\Users\CYMR90~1\AppData\Local\Temp\ccx4ZXSQ.s:28832  .debug_str:00000000000176e8 .LASF924
C:\Users\CYMR90~1\AppData\Local\Temp\ccx4ZXSQ.s:23599  .debug_str:000000000000291d .LASF925
C:\Users\CYMR90~1\AppData\Local\Temp\ccx4ZXSQ.s:29916  .debug_str:000000000001bb3e .LASF926
C:\Users\CYMR90~1\AppData\Local\Temp\ccx4ZXSQ.s:23337  .debug_str:00000000000018f3 .LASF927
C:\Users\CYMR90~1\AppData\Local\Temp\ccx4ZXSQ.s:28271  .debug_str:00000000000151cb .LASF928
C:\Users\CYMR90~1\AppData\Local\Temp\ccx4ZXSQ.s:31032  .debug_str:00000000000200f4 .LASF929
C:\Users\CYMR90~1\AppData\Local\Temp\ccx4ZXSQ.s:24605  .debug_str:0000000000006815 .LASF930
C:\Users\CYMR90~1\AppData\Local\Temp\ccx4ZXSQ.s:34428  .debug_str:000000000002d501 .LASF931
C:\Users\CYMR90~1\AppData\Local\Temp\ccx4ZXSQ.s:34284  .debug_str:000000000002cb80 .LASF932
C:\Users\CYMR90~1\AppData\Local\Temp\ccx4ZXSQ.s:33660  .debug_str:000000000002a58b .LASF933
C:\Users\CYMR90~1\AppData\Local\Temp\ccx4ZXSQ.s:28633  .debug_str:0000000000016871 .LASF934
C:\Users\CYMR90~1\AppData\Local\Temp\ccx4ZXSQ.s:29468  .debug_str:0000000000019dd7 .LASF935
C:\Users\CYMR90~1\AppData\Local\Temp\ccx4ZXSQ.s:28509  .debug_str:0000000000016035 .LASF936
C:\Users\CYMR90~1\AppData\Local\Temp\ccx4ZXSQ.s:32482  .debug_str:0000000000025a78 .LASF937
C:\Users\CYMR90~1\AppData\Local\Temp\ccx4ZXSQ.s:23143  .debug_str:0000000000000cd9 .LASF938
C:\Users\CYMR90~1\AppData\Local\Temp\ccx4ZXSQ.s:31308  .debug_str:000000000002121f .LASF939
C:\Users\CYMR90~1\AppData\Local\Temp\ccx4ZXSQ.s:32572  .debug_str:00000000000260ec .LASF940
C:\Users\CYMR90~1\AppData\Local\Temp\ccx4ZXSQ.s:25925  .debug_str:000000000000bdab .LASF941
C:\Users\CYMR90~1\AppData\Local\Temp\ccx4ZXSQ.s:29690  .debug_str:000000000001accb .LASF942
C:\Users\CYMR90~1\AppData\Local\Temp\ccx4ZXSQ.s:26709  .debug_str:000000000000eed3 .LASF943
C:\Users\CYMR90~1\AppData\Local\Temp\ccx4ZXSQ.s:32702  .debug_str:00000000000269be .LASF944
C:\Users\CYMR90~1\AppData\Local\Temp\ccx4ZXSQ.s:30108  .debug_str:000000000001c6fe .LASF945
C:\Users\CYMR90~1\AppData\Local\Temp\ccx4ZXSQ.s:26909  .debug_str:000000000000fa9c .LASF946
C:\Users\CYMR90~1\AppData\Local\Temp\ccx4ZXSQ.s:28984  .debug_str:0000000000017fdb .LASF947
C:\Users\CYMR90~1\AppData\Local\Temp\ccx4ZXSQ.s:33236  .debug_str:0000000000028b50 .LASF948
C:\Users\CYMR90~1\AppData\Local\Temp\ccx4ZXSQ.s:27281  .debug_str:0000000000011278 .LASF949
C:\Users\CYMR90~1\AppData\Local\Temp\ccx4ZXSQ.s:26259  .debug_str:000000000000d301 .LASF950
C:\Users\CYMR90~1\AppData\Local\Temp\ccx4ZXSQ.s:24789  .debug_str:0000000000007439 .LASF952
C:\Users\CYMR90~1\AppData\Local\Temp\ccx4ZXSQ.s:28431  .debug_str:0000000000015baf .LASF953
C:\Users\CYMR90~1\AppData\Local\Temp\ccx4ZXSQ.s:26297  .debug_str:000000000000d548 .LASF954
C:\Users\CYMR90~1\AppData\Local\Temp\ccx4ZXSQ.s:34418  .debug_str:000000000002d460 .LASF955
C:\Users\CYMR90~1\AppData\Local\Temp\ccx4ZXSQ.s:33560  .debug_str:0000000000029fa4 .LASF956
C:\Users\CYMR90~1\AppData\Local\Temp\ccx4ZXSQ.s:33648  .debug_str:000000000002a4d1 .LASF960
C:\Users\CYMR90~1\AppData\Local\Temp\ccx4ZXSQ.s:25357  .debug_str:00000000000098df .LASF961
C:\Users\CYMR90~1\AppData\Local\Temp\ccx4ZXSQ.s:32908  .debug_str:0000000000027617 .LASF962
C:\Users\CYMR90~1\AppData\Local\Temp\ccx4ZXSQ.s:27527  .debug_str:0000000000012318 .LASF963
C:\Users\CYMR90~1\AppData\Local\Temp\ccx4ZXSQ.s:24815  .debug_str:0000000000007616 .LASF964
C:\Users\CYMR90~1\AppData\Local\Temp\ccx4ZXSQ.s:31682  .debug_str:00000000000228e5 .LASF965
C:\Users\CYMR90~1\AppData\Local\Temp\ccx4ZXSQ.s:29908  .debug_str:000000000001ba9a .LASF966
C:\Users\CYMR90~1\AppData\Local\Temp\ccx4ZXSQ.s:32846  .debug_str:0000000000027278 .LASF967
C:\Users\CYMR90~1\AppData\Local\Temp\ccx4ZXSQ.s:33982  .debug_str:000000000002b807 .LASF968
C:\Users\CYMR90~1\AppData\Local\Temp\ccx4ZXSQ.s:24535  .debug_str:00000000000063c8 .LASF969
C:\Users\CYMR90~1\AppData\Local\Temp\ccx4ZXSQ.s:28133  .debug_str:0000000000014931 .LASF970
C:\Users\CYMR90~1\AppData\Local\Temp\ccx4ZXSQ.s:34074  .debug_str:000000000002bdda .LASF971
C:\Users\CYMR90~1\AppData\Local\Temp\ccx4ZXSQ.s:26719  .debug_str:000000000000ef64 .LASF972
C:\Users\CYMR90~1\AppData\Local\Temp\ccx4ZXSQ.s:26687  .debug_str:000000000000eda4 .LASF973
C:\Users\CYMR90~1\AppData\Local\Temp\ccx4ZXSQ.s:26321  .debug_str:000000000000d6ad .LASF974
C:\Users\CYMR90~1\AppData\Local\Temp\ccx4ZXSQ.s:24481  .debug_str:0000000000006078 .LASF975
C:\Users\CYMR90~1\AppData\Local\Temp\ccx4ZXSQ.s:34456  .debug_str:000000000002d662 .LASF976
C:\Users\CYMR90~1\AppData\Local\Temp\ccx4ZXSQ.s:26253  .debug_str:000000000000d2aa .LASF977
C:\Users\CYMR90~1\AppData\Local\Temp\ccx4ZXSQ.s:34488  .debug_str:000000000002d8f9 .LASF978
C:\Users\CYMR90~1\AppData\Local\Temp\ccx4ZXSQ.s:32684  .debug_str:0000000000026885 .LASF979
C:\Users\CYMR90~1\AppData\Local\Temp\ccx4ZXSQ.s:32742  .debug_str:0000000000026c43 .LASF980
C:\Users\CYMR90~1\AppData\Local\Temp\ccx4ZXSQ.s:26775  .debug_str:000000000000f2ce .LASF981
C:\Users\CYMR90~1\AppData\Local\Temp\ccx4ZXSQ.s:24241  .debug_str:0000000000005228 .LASF982
C:\Users\CYMR90~1\AppData\Local\Temp\ccx4ZXSQ.s:27551  .debug_str:000000000001248f .LASF983
C:\Users\CYMR90~1\AppData\Local\Temp\ccx4ZXSQ.s:30348  .debug_str:000000000001d6f1 .LASF984
C:\Users\CYMR90~1\AppData\Local\Temp\ccx4ZXSQ.s:30362  .debug_str:000000000001d7dd .LASF985
C:\Users\CYMR90~1\AppData\Local\Temp\ccx4ZXSQ.s:31974  .debug_str:0000000000023a48 .LASF986
C:\Users\CYMR90~1\AppData\Local\Temp\ccx4ZXSQ.s:28577  .debug_str:0000000000016490 .LASF987
C:\Users\CYMR90~1\AppData\Local\Temp\ccx4ZXSQ.s:23667  .debug_str:0000000000002d69 .LASF988
C:\Users\CYMR90~1\AppData\Local\Temp\ccx4ZXSQ.s:31886  .debug_str:000000000002354c .LASF989
C:\Users\CYMR90~1\AppData\Local\Temp\ccx4ZXSQ.s:29286  .debug_str:00000000000191e1 .LASF990
C:\Users\CYMR90~1\AppData\Local\Temp\ccx4ZXSQ.s:26249  .debug_str:000000000000d282 .LASF991
C:\Users\CYMR90~1\AppData\Local\Temp\ccx4ZXSQ.s:32848  .debug_str:00000000000272a0 .LASF992
C:\Users\CYMR90~1\AppData\Local\Temp\ccx4ZXSQ.s:24835  .debug_str:0000000000007741 .LASF993
C:\Users\CYMR90~1\AppData\Local\Temp\ccx4ZXSQ.s:32666  .debug_str:0000000000026769 .LASF994
C:\Users\CYMR90~1\AppData\Local\Temp\ccx4ZXSQ.s:29374  .debug_str:0000000000019889 .LASF995
C:\Users\CYMR90~1\AppData\Local\Temp\ccx4ZXSQ.s:33466  .debug_str:0000000000029a48 .LASF996
C:\Users\CYMR90~1\AppData\Local\Temp\ccx4ZXSQ.s:30564  .debug_str:000000000001e47f .LASF997
C:\Users\CYMR90~1\AppData\Local\Temp\ccx4ZXSQ.s:30632  .debug_str:000000000001e918 .LASF998
C:\Users\CYMR90~1\AppData\Local\Temp\ccx4ZXSQ.s:23557  .debug_str:0000000000002630 .LASF999
C:\Users\CYMR90~1\AppData\Local\Temp\ccx4ZXSQ.s:23911  .debug_str:0000000000003d1a .LASF1000
C:\Users\CYMR90~1\AppData\Local\Temp\ccx4ZXSQ.s:32312  .debug_str:0000000000024f17 .LASF1001
C:\Users\CYMR90~1\AppData\Local\Temp\ccx4ZXSQ.s:27115  .debug_str:00000000000107e7 .LASF1002
C:\Users\CYMR90~1\AppData\Local\Temp\ccx4ZXSQ.s:24195  .debug_str:0000000000004fa1 .LASF1003
C:\Users\CYMR90~1\AppData\Local\Temp\ccx4ZXSQ.s:30156  .debug_str:000000000001c9bb .LASF1004
C:\Users\CYMR90~1\AppData\Local\Temp\ccx4ZXSQ.s:27501  .debug_str:00000000000120f0 .LASF1005
C:\Users\CYMR90~1\AppData\Local\Temp\ccx4ZXSQ.s:26209  .debug_str:000000000000d04a .LASF1006
C:\Users\CYMR90~1\AppData\Local\Temp\ccx4ZXSQ.s:34170  .debug_str:000000000002c43c .LASF1007
C:\Users\CYMR90~1\AppData\Local\Temp\ccx4ZXSQ.s:31676  .debug_str:0000000000022899 .LASF1008
C:\Users\CYMR90~1\AppData\Local\Temp\ccx4ZXSQ.s:29064  .debug_str:00000000000184b0 .LASF1009
C:\Users\CYMR90~1\AppData\Local\Temp\ccx4ZXSQ.s:29214  .debug_str:0000000000018d9b .LASF1010
C:\Users\CYMR90~1\AppData\Local\Temp\ccx4ZXSQ.s:26543  .debug_str:000000000000e479 .LASF1011
C:\Users\CYMR90~1\AppData\Local\Temp\ccx4ZXSQ.s:30418  .debug_str:000000000001db85 .LASF1012
C:\Users\CYMR90~1\AppData\Local\Temp\ccx4ZXSQ.s:31890  .debug_str:0000000000023577 .LASF1013
C:\Users\CYMR90~1\AppData\Local\Temp\ccx4ZXSQ.s:29486  .debug_str:0000000000019f5b .LASF1014
C:\Users\CYMR90~1\AppData\Local\Temp\ccx4ZXSQ.s:23909  .debug_str:0000000000003d04 .LASF1015
C:\Users\CYMR90~1\AppData\Local\Temp\ccx4ZXSQ.s:24399  .debug_str:0000000000005ba4 .LASF1016
C:\Users\CYMR90~1\AppData\Local\Temp\ccx4ZXSQ.s:24351  .debug_str:00000000000058db .LASF1017
C:\Users\CYMR90~1\AppData\Local\Temp\ccx4ZXSQ.s:33006  .debug_str:0000000000027c2d .LASF1018
C:\Users\CYMR90~1\AppData\Local\Temp\ccx4ZXSQ.s:26783  .debug_str:000000000000f33b .LASF1019
C:\Users\CYMR90~1\AppData\Local\Temp\ccx4ZXSQ.s:23553  .debug_str:00000000000025fd .LASF1020
C:\Users\CYMR90~1\AppData\Local\Temp\ccx4ZXSQ.s:29100  .debug_str:00000000000186f3 .LASF1021
C:\Users\CYMR90~1\AppData\Local\Temp\ccx4ZXSQ.s:26063  .debug_str:000000000000c6c7 .LASF1022
C:\Users\CYMR90~1\AppData\Local\Temp\ccx4ZXSQ.s:32928  .debug_str:0000000000027711 .LASF1023
C:\Users\CYMR90~1\AppData\Local\Temp\ccx4ZXSQ.s:25265  .debug_str:0000000000009359 .LASF1024
C:\Users\CYMR90~1\AppData\Local\Temp\ccx4ZXSQ.s:27825  .debug_str:00000000000135dd .LASF1025
C:\Users\CYMR90~1\AppData\Local\Temp\ccx4ZXSQ.s:27307  .debug_str:000000000001145f .LASF1026
C:\Users\CYMR90~1\AppData\Local\Temp\ccx4ZXSQ.s:28263  .debug_str:0000000000015117 .LASF1027
C:\Users\CYMR90~1\AppData\Local\Temp\ccx4ZXSQ.s:30498  .debug_str:000000000001e095 .LASF1028
C:\Users\CYMR90~1\AppData\Local\Temp\ccx4ZXSQ.s:30888  .debug_str:000000000001f84f .LASF1029
C:\Users\CYMR90~1\AppData\Local\Temp\ccx4ZXSQ.s:32188  .debug_str:00000000000246e4 .LASF1030
C:\Users\CYMR90~1\AppData\Local\Temp\ccx4ZXSQ.s:31264  .debug_str:0000000000020f89 .LASF1031
C:\Users\CYMR90~1\AppData\Local\Temp\ccx4ZXSQ.s:33562  .debug_str:000000000002a00c .LASF1032
C:\Users\CYMR90~1\AppData\Local\Temp\ccx4ZXSQ.s:25415  .debug_str:0000000000009c56 .LASF1033
C:\Users\CYMR90~1\AppData\Local\Temp\ccx4ZXSQ.s:24249  .debug_str:000000000000529c .LASF1034
C:\Users\CYMR90~1\AppData\Local\Temp\ccx4ZXSQ.s:29418  .debug_str:0000000000019b0a .LASF1035
C:\Users\CYMR90~1\AppData\Local\Temp\ccx4ZXSQ.s:32014  .debug_str:0000000000023c52 .LASF1036
C:\Users\CYMR90~1\AppData\Local\Temp\ccx4ZXSQ.s:31988  .debug_str:0000000000023adf .LASF1037
C:\Users\CYMR90~1\AppData\Local\Temp\ccx4ZXSQ.s:26947  .debug_str:000000000000fd73 .LASF1038
C:\Users\CYMR90~1\AppData\Local\Temp\ccx4ZXSQ.s:30604  .debug_str:000000000001e78f .LASF1039
C:\Users\CYMR90~1\AppData\Local\Temp\ccx4ZXSQ.s:28447  .debug_str:0000000000015cd5 .LASF1040
C:\Users\CYMR90~1\AppData\Local\Temp\ccx4ZXSQ.s:26861  .debug_str:000000000000f7e1 .LASF1041
C:\Users\CYMR90~1\AppData\Local\Temp\ccx4ZXSQ.s:32732  .debug_str:0000000000026baa .LASF1042
C:\Users\CYMR90~1\AppData\Local\Temp\ccx4ZXSQ.s:27317  .debug_str:00000000000114dd .LASF1043
C:\Users\CYMR90~1\AppData\Local\Temp\ccx4ZXSQ.s:22953  .debug_str:000000000000019a .LASF1044
C:\Users\CYMR90~1\AppData\Local\Temp\ccx4ZXSQ.s:25275  .debug_str:00000000000093c6 .LASF1045
C:\Users\CYMR90~1\AppData\Local\Temp\ccx4ZXSQ.s:29614  .debug_str:000000000001a72b .LASF1046
C:\Users\CYMR90~1\AppData\Local\Temp\ccx4ZXSQ.s:28699  .debug_str:0000000000016c2e .LASF1047
C:\Users\CYMR90~1\AppData\Local\Temp\ccx4ZXSQ.s:32036  .debug_str:0000000000023d9e .LASF1048
C:\Users\CYMR90~1\AppData\Local\Temp\ccx4ZXSQ.s:30854  .debug_str:000000000001f62b .LASF1049
C:\Users\CYMR90~1\AppData\Local\Temp\ccx4ZXSQ.s:23743  .debug_str:0000000000003247 .LASF1050
C:\Users\CYMR90~1\AppData\Local\Temp\ccx4ZXSQ.s:23895  .debug_str:0000000000003c4d .LASF1051
C:\Users\CYMR90~1\AppData\Local\Temp\ccx4ZXSQ.s:31070  .debug_str:0000000000020348 .LASF1052
C:\Users\CYMR90~1\AppData\Local\Temp\ccx4ZXSQ.s:25787  .debug_str:000000000000b4cf .LASF1053
C:\Users\CYMR90~1\AppData\Local\Temp\ccx4ZXSQ.s:31932  .debug_str:00000000000237d3 .LASF1054
C:\Users\CYMR90~1\AppData\Local\Temp\ccx4ZXSQ.s:27799  .debug_str:000000000001343b .LASF1055
C:\Users\CYMR90~1\AppData\Local\Temp\ccx4ZXSQ.s:26715  .debug_str:000000000000ef12 .LASF1056
C:\Users\CYMR90~1\AppData\Local\Temp\ccx4ZXSQ.s:33188  .debug_str:00000000000287f9 .LASF1057
C:\Users\CYMR90~1\AppData\Local\Temp\ccx4ZXSQ.s:33774  .debug_str:000000000002abe6 .LASF1058
C:\Users\CYMR90~1\AppData\Local\Temp\ccx4ZXSQ.s:32478  .debug_str:0000000000025a35 .LASF1059
C:\Users\CYMR90~1\AppData\Local\Temp\ccx4ZXSQ.s:25607  .debug_str:000000000000a835 .LASF1060
C:\Users\CYMR90~1\AppData\Local\Temp\ccx4ZXSQ.s:25079  .debug_str:0000000000008817 .LASF1061
C:\Users\CYMR90~1\AppData\Local\Temp\ccx4ZXSQ.s:23105  .debug_str:0000000000000a34 .LASF1062
C:\Users\CYMR90~1\AppData\Local\Temp\ccx4ZXSQ.s:28169  .debug_str:0000000000014b32 .LASF1063
C:\Users\CYMR90~1\AppData\Local\Temp\ccx4ZXSQ.s:23959  .debug_str:0000000000003ffe .LASF1064
C:\Users\CYMR90~1\AppData\Local\Temp\ccx4ZXSQ.s:23037  .debug_str:000000000000068e .LASF1065
C:\Users\CYMR90~1\AppData\Local\Temp\ccx4ZXSQ.s:34496  .debug_str:000000000002d952 .LASF1066
C:\Users\CYMR90~1\AppData\Local\Temp\ccx4ZXSQ.s:32316  .debug_str:0000000000024f4f .LASF1067
C:\Users\CYMR90~1\AppData\Local\Temp\ccx4ZXSQ.s:28767  .debug_str:00000000000170d2 .LASF1068
C:\Users\CYMR90~1\AppData\Local\Temp\ccx4ZXSQ.s:30380  .debug_str:000000000001d946 .LASF1069
C:\Users\CYMR90~1\AppData\Local\Temp\ccx4ZXSQ.s:23157  .debug_str:0000000000000d93 .LASF1070
C:\Users\CYMR90~1\AppData\Local\Temp\ccx4ZXSQ.s:25549  .debug_str:000000000000a4ae .LASF1071
C:\Users\CYMR90~1\AppData\Local\Temp\ccx4ZXSQ.s:31836  .debug_str:0000000000023206 .LASF1072
C:\Users\CYMR90~1\AppData\Local\Temp\ccx4ZXSQ.s:30344  .debug_str:000000000001d6af .LASF1073
C:\Users\CYMR90~1\AppData\Local\Temp\ccx4ZXSQ.s:33432  .debug_str:00000000000297e2 .LASF1074
C:\Users\CYMR90~1\AppData\Local\Temp\ccx4ZXSQ.s:28916  .debug_str:0000000000017bae .LASF1075
C:\Users\CYMR90~1\AppData\Local\Temp\ccx4ZXSQ.s:23593  .debug_str:00000000000028cd .LASF1076
C:\Users\CYMR90~1\AppData\Local\Temp\ccx4ZXSQ.s:34226  .debug_str:000000000002c7a9 .LASF1077
C:\Users\CYMR90~1\AppData\Local\Temp\ccx4ZXSQ.s:24573  .debug_str:0000000000006630 .LASF1078
C:\Users\CYMR90~1\AppData\Local\Temp\ccx4ZXSQ.s:31306  .debug_str:000000000002120d .LASF1079
C:\Users\CYMR90~1\AppData\Local\Temp\ccx4ZXSQ.s:31398  .debug_str:000000000002176e .LASF1080
C:\Users\CYMR90~1\AppData\Local\Temp\ccx4ZXSQ.s:30132  .debug_str:000000000001c853 .LASF1081
C:\Users\CYMR90~1\AppData\Local\Temp\ccx4ZXSQ.s:33038  .debug_str:0000000000027eb9 .LASF1082
C:\Users\CYMR90~1\AppData\Local\Temp\ccx4ZXSQ.s:28375  .debug_str:0000000000015888 .LASF1083
C:\Users\CYMR90~1\AppData\Local\Temp\ccx4ZXSQ.s:31522  .debug_str:0000000000021f1e .LASF1084
C:\Users\CYMR90~1\AppData\Local\Temp\ccx4ZXSQ.s:24269  .debug_str:00000000000053c3 .LASF1085
C:\Users\CYMR90~1\AppData\Local\Temp\ccx4ZXSQ.s:23373  .debug_str:0000000000001b6e .LASF1086
C:\Users\CYMR90~1\AppData\Local\Temp\ccx4ZXSQ.s:26591  .debug_str:000000000000e74d .LASF1087
C:\Users\CYMR90~1\AppData\Local\Temp\ccx4ZXSQ.s:32740  .debug_str:0000000000026c34 .LASF1088
C:\Users\CYMR90~1\AppData\Local\Temp\ccx4ZXSQ.s:31832  .debug_str:00000000000231d4 .LASF1089
C:\Users\CYMR90~1\AppData\Local\Temp\ccx4ZXSQ.s:23213  .debug_str:000000000000112a .LASF1090
C:\Users\CYMR90~1\AppData\Local\Temp\ccx4ZXSQ.s:34414  .debug_str:000000000002d408 .LASF1091
C:\Users\CYMR90~1\AppData\Local\Temp\ccx4ZXSQ.s:33146  .debug_str:0000000000028521 .LASF1092
C:\Users\CYMR90~1\AppData\Local\Temp\ccx4ZXSQ.s:26927  .debug_str:000000000000fb90 .LASF1093
C:\Users\CYMR90~1\AppData\Local\Temp\ccx4ZXSQ.s:32782  .debug_str:0000000000026e82 .LASF1094
C:\Users\CYMR90~1\AppData\Local\Temp\ccx4ZXSQ.s:28463  .debug_str:0000000000015d80 .LASF1095
C:\Users\CYMR90~1\AppData\Local\Temp\ccx4ZXSQ.s:29938  .debug_str:000000000001bc8d .LASF1096
C:\Users\CYMR90~1\AppData\Local\Temp\ccx4ZXSQ.s:30502  .debug_str:000000000001e0e7 .LASF1097
C:\Users\CYMR90~1\AppData\Local\Temp\ccx4ZXSQ.s:24561  .debug_str:000000000000657d .LASF1098
C:\Users\CYMR90~1\AppData\Local\Temp\ccx4ZXSQ.s:27821  .debug_str:0000000000013590 .LASF1099
C:\Users\CYMR90~1\AppData\Local\Temp\ccx4ZXSQ.s:27109  .debug_str:0000000000010765 .LASF1100
C:\Users\CYMR90~1\AppData\Local\Temp\ccx4ZXSQ.s:32112  .debug_str:0000000000024282 .LASF1101
C:\Users\CYMR90~1\AppData\Local\Temp\ccx4ZXSQ.s:26267  .debug_str:000000000000d369 .LASF1102
C:\Users\CYMR90~1\AppData\Local\Temp\ccx4ZXSQ.s:31772  .debug_str:0000000000022df5 .LASF1103
C:\Users\CYMR90~1\AppData\Local\Temp\ccx4ZXSQ.s:33382  .debug_str:000000000002954d .LASF1104
C:\Users\CYMR90~1\AppData\Local\Temp\ccx4ZXSQ.s:31198  .debug_str:0000000000020b21 .LASF1105
C:\Users\CYMR90~1\AppData\Local\Temp\ccx4ZXSQ.s:27997  .debug_str:000000000001410e .LASF1106
C:\Users\CYMR90~1\AppData\Local\Temp\ccx4ZXSQ.s:24375  .debug_str:0000000000005a30 .LASF1107
C:\Users\CYMR90~1\AppData\Local\Temp\ccx4ZXSQ.s:29850  .debug_str:000000000001b6c2 .LASF1108
C:\Users\CYMR90~1\AppData\Local\Temp\ccx4ZXSQ.s:31438  .debug_str:000000000002199c .LASF1109
C:\Users\CYMR90~1\AppData\Local\Temp\ccx4ZXSQ.s:25579  .debug_str:000000000000a6a4 .LASF1110
C:\Users\CYMR90~1\AppData\Local\Temp\ccx4ZXSQ.s:23429  .debug_str:0000000000001ee4 .LASF1111
C:\Users\CYMR90~1\AppData\Local\Temp\ccx4ZXSQ.s:24667  .debug_str:0000000000006c1a .LASF1112
C:\Users\CYMR90~1\AppData\Local\Temp\ccx4ZXSQ.s:25813  .debug_str:000000000000b668 .LASF1113
C:\Users\CYMR90~1\AppData\Local\Temp\ccx4ZXSQ.s:24319  .debug_str:00000000000056ce .LASF1114
C:\Users\CYMR90~1\AppData\Local\Temp\ccx4ZXSQ.s:25361  .debug_str:0000000000009906 .LASF1115
C:\Users\CYMR90~1\AppData\Local\Temp\ccx4ZXSQ.s:33228  .debug_str:0000000000028ac3 .LASF1116
C:\Users\CYMR90~1\AppData\Local\Temp\ccx4ZXSQ.s:33726  .debug_str:000000000002a924 .LASF1117
C:\Users\CYMR90~1\AppData\Local\Temp\ccx4ZXSQ.s:24479  .debug_str:0000000000006056 .LASF1118
C:\Users\CYMR90~1\AppData\Local\Temp\ccx4ZXSQ.s:29080  .debug_str:00000000000185c5 .LASF1119
C:\Users\CYMR90~1\AppData\Local\Temp\ccx4ZXSQ.s:25043  .debug_str:00000000000085d3 .LASF1120
C:\Users\CYMR90~1\AppData\Local\Temp\ccx4ZXSQ.s:25257  .debug_str:00000000000092e0 .LASF1121
C:\Users\CYMR90~1\AppData\Local\Temp\ccx4ZXSQ.s:27929  .debug_str:0000000000013ce2 .LASF1122
C:\Users\CYMR90~1\AppData\Local\Temp\ccx4ZXSQ.s:27579  .debug_str:00000000000125fb .LASF1123
C:\Users\CYMR90~1\AppData\Local\Temp\ccx4ZXSQ.s:26569  .debug_str:000000000000e60d .LASF1124
C:\Users\CYMR90~1\AppData\Local\Temp\ccx4ZXSQ.s:28381  .debug_str:00000000000158dd .LASF1125
C:\Users\CYMR90~1\AppData\Local\Temp\ccx4ZXSQ.s:28483  .debug_str:0000000000015eb5 .LASF1126
C:\Users\CYMR90~1\AppData\Local\Temp\ccx4ZXSQ.s:31918  .debug_str:00000000000236fc .LASF1127
C:\Users\CYMR90~1\AppData\Local\Temp\ccx4ZXSQ.s:33036  .debug_str:0000000000027ea4 .LASF1128
C:\Users\CYMR90~1\AppData\Local\Temp\ccx4ZXSQ.s:24365  .debug_str:00000000000059a0 .LASF1129
C:\Users\CYMR90~1\AppData\Local\Temp\ccx4ZXSQ.s:28481  .debug_str:0000000000015ea0 .LASF1130
C:\Users\CYMR90~1\AppData\Local\Temp\ccx4ZXSQ.s:33558  .debug_str:0000000000029f8f .LASF1131
C:\Users\CYMR90~1\AppData\Local\Temp\ccx4ZXSQ.s:33974  .debug_str:000000000002b7a4 .LASF1132
C:\Users\CYMR90~1\AppData\Local\Temp\ccx4ZXSQ.s:29184  .debug_str:0000000000018bc8 .LASF1133
C:\Users\CYMR90~1\AppData\Local\Temp\ccx4ZXSQ.s:32082  .debug_str:0000000000024094 .LASF1134
C:\Users\CYMR90~1\AppData\Local\Temp\ccx4ZXSQ.s:24929  .debug_str:0000000000007d7f .LASF1135
C:\Users\CYMR90~1\AppData\Local\Temp\ccx4ZXSQ.s:24139  .debug_str:0000000000004c00 .LASF1136
C:\Users\CYMR90~1\AppData\Local\Temp\ccx4ZXSQ.s:23965  .debug_str:000000000000403d .LASF1137
C:\Users\CYMR90~1\AppData\Local\Temp\ccx4ZXSQ.s:33568  .debug_str:000000000002a06b .LASF1138
C:\Users\CYMR90~1\AppData\Local\Temp\ccx4ZXSQ.s:23071  .debug_str:0000000000000849 .LASF1139
C:\Users\CYMR90~1\AppData\Local\Temp\ccx4ZXSQ.s:33554  .debug_str:0000000000029f62 .LASF1140
C:\Users\CYMR90~1\AppData\Local\Temp\ccx4ZXSQ.s:23009  .debug_str:000000000000050d .LASF1141
C:\Users\CYMR90~1\AppData\Local\Temp\ccx4ZXSQ.s:27611  .debug_str:0000000000012822 .LASF1142
C:\Users\CYMR90~1\AppData\Local\Temp\ccx4ZXSQ.s:26597  .debug_str:000000000000e7c0 .LASF1143
C:\Users\CYMR90~1\AppData\Local\Temp\ccx4ZXSQ.s:33090  .debug_str:0000000000028178 .LASF1144
C:\Users\CYMR90~1\AppData\Local\Temp\ccx4ZXSQ.s:31242  .debug_str:0000000000020dc1 .LASF1145
C:\Users\CYMR90~1\AppData\Local\Temp\ccx4ZXSQ.s:26097  .debug_str:000000000000c8e0 .LASF1146
C:\Users\CYMR90~1\AppData\Local\Temp\ccx4ZXSQ.s:34410  .debug_str:000000000002d3c6 .LASF1147
C:\Users\CYMR90~1\AppData\Local\Temp\ccx4ZXSQ.s:28940  .debug_str:0000000000017d06 .LASF1148
C:\Users\CYMR90~1\AppData\Local\Temp\ccx4ZXSQ.s:29194  .debug_str:0000000000018c9b .LASF1149
C:\Users\CYMR90~1\AppData\Local\Temp\ccx4ZXSQ.s:29960  .debug_str:000000000001bdb4 .LASF1150
C:\Users\CYMR90~1\AppData\Local\Temp\ccx4ZXSQ.s:23431  .debug_str:0000000000001f02 .LASF1151
C:\Users\CYMR90~1\AppData\Local\Temp\ccx4ZXSQ.s:30404  .debug_str:000000000001dac0 .LASF1152
C:\Users\CYMR90~1\AppData\Local\Temp\ccx4ZXSQ.s:25389  .debug_str:0000000000009a5a .LASF1153
C:\Users\CYMR90~1\AppData\Local\Temp\ccx4ZXSQ.s:31536  .debug_str:0000000000021fd0 .LASF1154
C:\Users\CYMR90~1\AppData\Local\Temp\ccx4ZXSQ.s:30762  .debug_str:000000000001f106 .LASF1155
C:\Users\CYMR90~1\AppData\Local\Temp\ccx4ZXSQ.s:28291  .debug_str:00000000000152ee .LASF1156
C:\Users\CYMR90~1\AppData\Local\Temp\ccx4ZXSQ.s:30600  .debug_str:000000000001e73f .LASF1157
C:\Users\CYMR90~1\AppData\Local\Temp\ccx4ZXSQ.s:25835  .debug_str:000000000000b76a .LASF1158
C:\Users\CYMR90~1\AppData\Local\Temp\ccx4ZXSQ.s:33746  .debug_str:000000000002aa7c .LASF1159
C:\Users\CYMR90~1\AppData\Local\Temp\ccx4ZXSQ.s:23321  .debug_str:0000000000001783 .LASF1160
C:\Users\CYMR90~1\AppData\Local\Temp\ccx4ZXSQ.s:33828  .debug_str:000000000002af61 .LASF1161
C:\Users\CYMR90~1\AppData\Local\Temp\ccx4ZXSQ.s:33506  .debug_str:0000000000029c9c .LASF1162
C:\Users\CYMR90~1\AppData\Local\Temp\ccx4ZXSQ.s:30488  .debug_str:000000000001e029 .LASF1163
C:\Users\CYMR90~1\AppData\Local\Temp\ccx4ZXSQ.s:29580  .debug_str:000000000001a538 .LASF1164
C:\Users\CYMR90~1\AppData\Local\Temp\ccx4ZXSQ.s:26405  .debug_str:000000000000dc83 .LASF1165
C:\Users\CYMR90~1\AppData\Local\Temp\ccx4ZXSQ.s:31168  .debug_str:0000000000020971 .LASF1166
C:\Users\CYMR90~1\AppData\Local\Temp\ccx4ZXSQ.s:27313  .debug_str:00000000000114af .LASF1167
C:\Users\CYMR90~1\AppData\Local\Temp\ccx4ZXSQ.s:25387  .debug_str:0000000000009a50 .LASF1168
C:\Users\CYMR90~1\AppData\Local\Temp\ccx4ZXSQ.s:28423  .debug_str:0000000000015b58 .LASF1169
C:\Users\CYMR90~1\AppData\Local\Temp\ccx4ZXSQ.s:29794  .debug_str:000000000001b383 .LASF1170
C:\Users\CYMR90~1\AppData\Local\Temp\ccx4ZXSQ.s:29488  .debug_str:0000000000019f72 .LASF1171
C:\Users\CYMR90~1\AppData\Local\Temp\ccx4ZXSQ.s:33768  .debug_str:000000000002abb4 .LASF1172
C:\Users\CYMR90~1\AppData\Local\Temp\ccx4ZXSQ.s:28711  .debug_str:0000000000016cd9 .LASF1173
C:\Users\CYMR90~1\AppData\Local\Temp\ccx4ZXSQ.s:23141  .debug_str:0000000000000ccb .LASF1174
C:\Users\CYMR90~1\AppData\Local\Temp\ccx4ZXSQ.s:23533  .debug_str:00000000000024bd .LASF1175
C:\Users\CYMR90~1\AppData\Local\Temp\ccx4ZXSQ.s:27903  .debug_str:0000000000013b52 .LASF1176
C:\Users\CYMR90~1\AppData\Local\Temp\ccx4ZXSQ.s:26205  .debug_str:000000000000d01a .LASF1177
C:\Users\CYMR90~1\AppData\Local\Temp\ccx4ZXSQ.s:30550  .debug_str:000000000001e3ce .LASF1178
C:\Users\CYMR90~1\AppData\Local\Temp\ccx4ZXSQ.s:26829  .debug_str:000000000000f5cb .LASF1179
C:\Users\CYMR90~1\AppData\Local\Temp\ccx4ZXSQ.s:26391  .debug_str:000000000000dbd4 .LASF1180
C:\Users\CYMR90~1\AppData\Local\Temp\ccx4ZXSQ.s:32274  .debug_str:0000000000024cc5 .LASF1181
C:\Users\CYMR90~1\AppData\Local\Temp\ccx4ZXSQ.s:33512  .debug_str:0000000000029ce7 .LASF1182
C:\Users\CYMR90~1\AppData\Local\Temp\ccx4ZXSQ.s:23709  .debug_str:0000000000002ffd .LASF1183
C:\Users\CYMR90~1\AppData\Local\Temp\ccx4ZXSQ.s:30876  .debug_str:000000000001f784 .LASF1184
C:\Users\CYMR90~1\AppData\Local\Temp\ccx4ZXSQ.s:31334  .debug_str:00000000000213b6 .LASF1185
C:\Users\CYMR90~1\AppData\Local\Temp\ccx4ZXSQ.s:32520  .debug_str:0000000000025d66 .LASF1186
C:\Users\CYMR90~1\AppData\Local\Temp\ccx4ZXSQ.s:26319  .debug_str:000000000000d699 .LASF1187
C:\Users\CYMR90~1\AppData\Local\Temp\ccx4ZXSQ.s:30636  .debug_str:000000000001e951 .LASF1188
C:\Users\CYMR90~1\AppData\Local\Temp\ccx4ZXSQ.s:31884  .debug_str:0000000000023538 .LASF1189
C:\Users\CYMR90~1\AppData\Local\Temp\ccx4ZXSQ.s:24933  .debug_str:0000000000007db0 .LASF1190
C:\Users\CYMR90~1\AppData\Local\Temp\ccx4ZXSQ.s:31866  .debug_str:00000000000233b6 .LASF1191
C:\Users\CYMR90~1\AppData\Local\Temp\ccx4ZXSQ.s:26183  .debug_str:000000000000cea3 .LASF1192
C:\Users\CYMR90~1\AppData\Local\Temp\ccx4ZXSQ.s:31524  .debug_str:0000000000021f30 .LASF1193
C:\Users\CYMR90~1\AppData\Local\Temp\ccx4ZXSQ.s:26437  .debug_str:000000000000de39 .LASF1194
C:\Users\CYMR90~1\AppData\Local\Temp\ccx4ZXSQ.s:30060  .debug_str:000000000001c3b3 .LASF1195
C:\Users\CYMR90~1\AppData\Local\Temp\ccx4ZXSQ.s:28047  .debug_str:0000000000014425 .LASF1196
C:\Users\CYMR90~1\AppData\Local\Temp\ccx4ZXSQ.s:31560  .debug_str:000000000002219d .LASF1197
C:\Users\CYMR90~1\AppData\Local\Temp\ccx4ZXSQ.s:33766  .debug_str:000000000002aba5 .LASF1198
C:\Users\CYMR90~1\AppData\Local\Temp\ccx4ZXSQ.s:28735  .debug_str:0000000000016ecf .LASF1199
C:\Users\CYMR90~1\AppData\Local\Temp\ccx4ZXSQ.s:33772  .debug_str:000000000002abdb .LASF1200
C:\Users\CYMR90~1\AppData\Local\Temp\ccx4ZXSQ.s:25645  .debug_str:000000000000aa34 .LASF1201
C:\Users\CYMR90~1\AppData\Local\Temp\ccx4ZXSQ.s:25291  .debug_str:00000000000094d3 .LASF1202
C:\Users\CYMR90~1\AppData\Local\Temp\ccx4ZXSQ.s:28928  .debug_str:0000000000017c6d .LASF1203
C:\Users\CYMR90~1\AppData\Local\Temp\ccx4ZXSQ.s:32864  .debug_str:000000000002738a .LASF1204
C:\Users\CYMR90~1\AppData\Local\Temp\ccx4ZXSQ.s:27957  .debug_str:0000000000013eae .LASF1205
C:\Users\CYMR90~1\AppData\Local\Temp\ccx4ZXSQ.s:26993  .debug_str:000000000000ffeb .LASF1206
C:\Users\CYMR90~1\AppData\Local\Temp\ccx4ZXSQ.s:33742  .debug_str:000000000002aa4a .LASF1207
C:\Users\CYMR90~1\AppData\Local\Temp\ccx4ZXSQ.s:32368  .debug_str:00000000000252c9 .LASF1208
C:\Users\CYMR90~1\AppData\Local\Temp\ccx4ZXSQ.s:26919  .debug_str:000000000000fb33 .LASF1209
C:\Users\CYMR90~1\AppData\Local\Temp\ccx4ZXSQ.s:24263  .debug_str:000000000000535b .LASF1210
C:\Users\CYMR90~1\AppData\Local\Temp\ccx4ZXSQ.s:24367  .debug_str:00000000000059b6 .LASF1211
C:\Users\CYMR90~1\AppData\Local\Temp\ccx4ZXSQ.s:25085  .debug_str:0000000000008865 .LASF1212
C:\Users\CYMR90~1\AppData\Local\Temp\ccx4ZXSQ.s:24661  .debug_str:0000000000006b9a .LASF1213
C:\Users\CYMR90~1\AppData\Local\Temp\ccx4ZXSQ.s:23543  .debug_str:0000000000002579 .LASF1214
C:\Users\CYMR90~1\AppData\Local\Temp\ccx4ZXSQ.s:25431  .debug_str:0000000000009d63 .LASF1215
C:\Users\CYMR90~1\AppData\Local\Temp\ccx4ZXSQ.s:23481  .debug_str:00000000000021b2 .LASF1216
C:\Users\CYMR90~1\AppData\Local\Temp\ccx4ZXSQ.s:31984  .debug_str:0000000000023ab2 .LASF1217
C:\Users\CYMR90~1\AppData\Local\Temp\ccx4ZXSQ.s:31998  .debug_str:0000000000023b57 .LASF1218
C:\Users\CYMR90~1\AppData\Local\Temp\ccx4ZXSQ.s:32424  .debug_str:000000000002566a .LASF1219
C:\Users\CYMR90~1\AppData\Local\Temp\ccx4ZXSQ.s:29942  .debug_str:000000000001bcc1 .LASF1220
C:\Users\CYMR90~1\AppData\Local\Temp\ccx4ZXSQ.s:26481  .debug_str:000000000000e0a2 .LASF1221
C:\Users\CYMR90~1\AppData\Local\Temp\ccx4ZXSQ.s:28225  .debug_str:0000000000014eff .LASF1222
C:\Users\CYMR90~1\AppData\Local\Temp\ccx4ZXSQ.s:23727  .debug_str:0000000000003113 .LASF1223
C:\Users\CYMR90~1\AppData\Local\Temp\ccx4ZXSQ.s:29674  .debug_str:000000000001ac0b .LASF1224
C:\Users\CYMR90~1\AppData\Local\Temp\ccx4ZXSQ.s:33054  .debug_str:0000000000027fbd .LASF1225
C:\Users\CYMR90~1\AppData\Local\Temp\ccx4ZXSQ.s:25933  .debug_str:000000000000be19 .LASF1226
C:\Users\CYMR90~1\AppData\Local\Temp\ccx4ZXSQ.s:24805  .debug_str:000000000000756c .LASF1227
C:\Users\CYMR90~1\AppData\Local\Temp\ccx4ZXSQ.s:23827  .debug_str:00000000000037c5 .LASF1228
C:\Users\CYMR90~1\AppData\Local\Temp\ccx4ZXSQ.s:34476  .debug_str:000000000002d836 .LASF1229
C:\Users\CYMR90~1\AppData\Local\Temp\ccx4ZXSQ.s:33488  .debug_str:0000000000029b8c .LASF1230
C:\Users\CYMR90~1\AppData\Local\Temp\ccx4ZXSQ.s:32488  .debug_str:0000000000025acd .LASF1231
C:\Users\CYMR90~1\AppData\Local\Temp\ccx4ZXSQ.s:29844  .debug_str:000000000001b673 .LASF1232
C:\Users\CYMR90~1\AppData\Local\Temp\ccx4ZXSQ.s:31396  .debug_str:0000000000021757 .LASF1233
C:\Users\CYMR90~1\AppData\Local\Temp\ccx4ZXSQ.s:30426  .debug_str:000000000001dbe8 .LASF1234
C:\Users\CYMR90~1\AppData\Local\Temp\ccx4ZXSQ.s:29446  .debug_str:0000000000019cdb .LASF1235
C:\Users\CYMR90~1\AppData\Local\Temp\ccx4ZXSQ.s:28117  .debug_str:000000000001483e .LASF1236
C:\Users\CYMR90~1\AppData\Local\Temp\ccx4ZXSQ.s:27491  .debug_str:0000000000012070 .LASF1237
C:\Users\CYMR90~1\AppData\Local\Temp\ccx4ZXSQ.s:28824  .debug_str:000000000001766e .LASF1238
C:\Users\CYMR90~1\AppData\Local\Temp\ccx4ZXSQ.s:25507  .debug_str:000000000000a1ac .LASF1239
C:\Users\CYMR90~1\AppData\Local\Temp\ccx4ZXSQ.s:24475  .debug_str:0000000000006015 .LASF1240
C:\Users\CYMR90~1\AppData\Local\Temp\ccx4ZXSQ.s:23503  .debug_str:000000000000230e .LASF1241
C:\Users\CYMR90~1\AppData\Local\Temp\ccx4ZXSQ.s:34174  .debug_str:000000000002c488 .LASF1242
C:\Users\CYMR90~1\AppData\Local\Temp\ccx4ZXSQ.s:23023  .debug_str:00000000000005c1 .LASF1243
C:\Users\CYMR90~1\AppData\Local\Temp\ccx4ZXSQ.s:33632  .debug_str:000000000002a403 .LASF1244
C:\Users\CYMR90~1\AppData\Local\Temp\ccx4ZXSQ.s:32648  .debug_str:000000000002665f .LASF1245
C:\Users\CYMR90~1\AppData\Local\Temp\ccx4ZXSQ.s:31668  .debug_str:0000000000022820 .LASF1246
C:\Users\CYMR90~1\AppData\Local\Temp\ccx4ZXSQ.s:30672  .debug_str:000000000001eb6e .LASF1247
C:\Users\CYMR90~1\AppData\Local\Temp\ccx4ZXSQ.s:29736  .debug_str:000000000001b007 .LASF1248
C:\Users\CYMR90~1\AppData\Local\Temp\ccx4ZXSQ.s:28779  .debug_str:000000000001719c .LASF1249
C:\Users\CYMR90~1\AppData\Local\Temp\ccx4ZXSQ.s:28944  .debug_str:0000000000017d58 .LASF1250
C:\Users\CYMR90~1\AppData\Local\Temp\ccx4ZXSQ.s:26835  .debug_str:000000000000f610 .LASF1251
C:\Users\CYMR90~1\AppData\Local\Temp\ccx4ZXSQ.s:29040  .debug_str:000000000001836d .LASF1252
C:\Users\CYMR90~1\AppData\Local\Temp\ccx4ZXSQ.s:26329  .debug_str:000000000000d749 .LASF1253
C:\Users\CYMR90~1\AppData\Local\Temp\ccx4ZXSQ.s:25305  .debug_str:0000000000009594 .LASF1254
C:\Users\CYMR90~1\AppData\Local\Temp\ccx4ZXSQ.s:23281  .debug_str:000000000000152e .LASF1255
C:\Users\CYMR90~1\AppData\Local\Temp\ccx4ZXSQ.s:26241  .debug_str:000000000000d229 .LASF1256
C:\Users\CYMR90~1\AppData\Local\Temp\ccx4ZXSQ.s:24429  .debug_str:0000000000005d90 .LASF1257
C:\Users\CYMR90~1\AppData\Local\Temp\ccx4ZXSQ.s:29314  .debug_str:0000000000019446 .LASF1258
C:\Users\CYMR90~1\AppData\Local\Temp\ccx4ZXSQ.s:29316  .debug_str:0000000000019459 .LASF1259
C:\Users\CYMR90~1\AppData\Local\Temp\ccx4ZXSQ.s:31870  .debug_str:00000000000233e6 .LASF1260
C:\Users\CYMR90~1\AppData\Local\Temp\ccx4ZXSQ.s:29936  .debug_str:000000000001bc7a .LASF1261
C:\Users\CYMR90~1\AppData\Local\Temp\ccx4ZXSQ.s:27287  .debug_str:000000000001137c .LASF1262
C:\Users\CYMR90~1\AppData\Local\Temp\ccx4ZXSQ.s:24323  .debug_str:0000000000005711 .LASF1263
C:\Users\CYMR90~1\AppData\Local\Temp\ccx4ZXSQ.s:26573  .debug_str:000000000000e63f .LASF1264
C:\Users\CYMR90~1\AppData\Local\Temp\ccx4ZXSQ.s:28801  .debug_str:0000000000017374 .LASF1265
C:\Users\CYMR90~1\AppData\Local\Temp\ccx4ZXSQ.s:26621  .debug_str:000000000000e90f .LASF1266
C:\Users\CYMR90~1\AppData\Local\Temp\ccx4ZXSQ.s:31896  .debug_str:00000000000235ea .LASF1267
C:\Users\CYMR90~1\AppData\Local\Temp\ccx4ZXSQ.s:32076  .debug_str:000000000002404a .LASF1268
C:\Users\CYMR90~1\AppData\Local\Temp\ccx4ZXSQ.s:27425  .debug_str:0000000000011b71 .LASF1269
C:\Users\CYMR90~1\AppData\Local\Temp\ccx4ZXSQ.s:24039  .debug_str:00000000000044ee .LASF1270
C:\Users\CYMR90~1\AppData\Local\Temp\ccx4ZXSQ.s:29042  .debug_str:0000000000018384 .LASF1271
C:\Users\CYMR90~1\AppData\Local\Temp\ccx4ZXSQ.s:33592  .debug_str:000000000002a1ba .LASF1272
C:\Users\CYMR90~1\AppData\Local\Temp\ccx4ZXSQ.s:30552  .debug_str:000000000001e3db .LASF1273
C:\Users\CYMR90~1\AppData\Local\Temp\ccx4ZXSQ.s:23095  .debug_str:000000000000098e .LASF1274
C:\Users\CYMR90~1\AppData\Local\Temp\ccx4ZXSQ.s:29324  .debug_str:00000000000194dc .LASF1275
C:\Users\CYMR90~1\AppData\Local\Temp\ccx4ZXSQ.s:23203  .debug_str:00000000000010b5 .LASF1276
C:\Users\CYMR90~1\AppData\Local\Temp\ccx4ZXSQ.s:25531  .debug_str:000000000000a36b .LASF1277
C:\Users\CYMR90~1\AppData\Local\Temp\ccx4ZXSQ.s:24495  .debug_str:0000000000006198 .LASF1278
C:\Users\CYMR90~1\AppData\Local\Temp\ccx4ZXSQ.s:23531  .debug_str:00000000000024ab .LASF1279
C:\Users\CYMR90~1\AppData\Local\Temp\ccx4ZXSQ.s:34194  .debug_str:000000000002c59c .LASF1280
C:\Users\CYMR90~1\AppData\Local\Temp\ccx4ZXSQ.s:24387  .debug_str:0000000000005b0e .LASF1281
C:\Users\CYMR90~1\AppData\Local\Temp\ccx4ZXSQ.s:23421  .debug_str:0000000000001e60 .LASF1282
C:\Users\CYMR90~1\AppData\Local\Temp\ccx4ZXSQ.s:30716  .debug_str:000000000001ee73 .LASF1283
C:\Users\CYMR90~1\AppData\Local\Temp\ccx4ZXSQ.s:33086  .debug_str:0000000000028156 .LASF1284
C:\Users\CYMR90~1\AppData\Local\Temp\ccx4ZXSQ.s:32100  .debug_str:00000000000241da .LASF1285
C:\Users\CYMR90~1\AppData\Local\Temp\ccx4ZXSQ.s:31110  .debug_str:00000000000205a6 .LASF1286
C:\Users\CYMR90~1\AppData\Local\Temp\ccx4ZXSQ.s:30124  .debug_str:000000000001c7e4 .LASF1287
C:\Users\CYMR90~1\AppData\Local\Temp\ccx4ZXSQ.s:29148  .debug_str:00000000000189b4 .LASF1288
C:\Users\CYMR90~1\AppData\Local\Temp\ccx4ZXSQ.s:28157  .debug_str:0000000000014aa4 .LASF1289
C:\Users\CYMR90~1\AppData\Local\Temp\ccx4ZXSQ.s:27213  .debug_str:0000000000010e48 .LASF1290
C:\Users\CYMR90~1\AppData\Local\Temp\ccx4ZXSQ.s:31620  .debug_str:0000000000022556 .LASF1291
C:\Users\CYMR90~1\AppData\Local\Temp\ccx4ZXSQ.s:30624  .debug_str:000000000001e8c9 .LASF1292
C:\Users\CYMR90~1\AppData\Local\Temp\ccx4ZXSQ.s:29672  .debug_str:000000000001abf7 .LASF1293
C:\Users\CYMR90~1\AppData\Local\Temp\ccx4ZXSQ.s:28665  .debug_str:0000000000016a5b .LASF1294
C:\Users\CYMR90~1\AppData\Local\Temp\ccx4ZXSQ.s:27717  .debug_str:0000000000012efd .LASF1295
C:\Users\CYMR90~1\AppData\Local\Temp\ccx4ZXSQ.s:26727  .debug_str:000000000000efef .LASF1296
C:\Users\CYMR90~1\AppData\Local\Temp\ccx4ZXSQ.s:26075  .debug_str:000000000000c785 .LASF1297
C:\Users\CYMR90~1\AppData\Local\Temp\ccx4ZXSQ.s:31078  .debug_str:00000000000203bc .LASF1298
C:\Users\CYMR90~1\AppData\Local\Temp\ccx4ZXSQ.s:30098  .debug_str:000000000001c670 .LASF1299
C:\Users\CYMR90~1\AppData\Local\Temp\ccx4ZXSQ.s:29060  .debug_str:000000000001847d .LASF1300
C:\Users\CYMR90~1\AppData\Local\Temp\ccx4ZXSQ.s:30070  .debug_str:000000000001c480 .LASF1301
C:\Users\CYMR90~1\AppData\Local\Temp\ccx4ZXSQ.s:30104  .debug_str:000000000001c6ae .LASF1302
C:\Users\CYMR90~1\AppData\Local\Temp\ccx4ZXSQ.s:28709  .debug_str:0000000000016cc6 .LASF1303
C:\Users\CYMR90~1\AppData\Local\Temp\ccx4ZXSQ.s:29590  .debug_str:000000000001a5d2 .LASF1304
C:\Users\CYMR90~1\AppData\Local\Temp\ccx4ZXSQ.s:29560  .debug_str:000000000001a426 .LASF1305
C:\Users\CYMR90~1\AppData\Local\Temp\ccx4ZXSQ.s:25197  .debug_str:0000000000008ee8 .LASF1306
C:\Users\CYMR90~1\AppData\Local\Temp\ccx4ZXSQ.s:24171  .debug_str:0000000000004e18 .LASF1307
C:\Users\CYMR90~1\AppData\Local\Temp\ccx4ZXSQ.s:23215  .debug_str:000000000000113c .LASF1308
C:\Users\CYMR90~1\AppData\Local\Temp\ccx4ZXSQ.s:33846  .debug_str:000000000002b07c .LASF1309
C:\Users\CYMR90~1\AppData\Local\Temp\ccx4ZXSQ.s:32858  .debug_str:000000000002732b .LASF1310
C:\Users\CYMR90~1\AppData\Local\Temp\ccx4ZXSQ.s:31872  .debug_str:00000000000233f7 .LASF1311
C:\Users\CYMR90~1\AppData\Local\Temp\ccx4ZXSQ.s:28027  .debug_str:00000000000142fa .LASF1312
C:\Users\CYMR90~1\AppData\Local\Temp\ccx4ZXSQ.s:26585  .debug_str:000000000000e6f8 .LASF1313
C:\Users\CYMR90~1\AppData\Local\Temp\ccx4ZXSQ.s:27877  .debug_str:0000000000013933 .LASF1314
C:\Users\CYMR90~1\AppData\Local\Temp\ccx4ZXSQ.s:34072  .debug_str:000000000002bdc2 .LASF1315
C:\Users\CYMR90~1\AppData\Local\Temp\ccx4ZXSQ.s:33074  .debug_str:00000000000280c3 .LASF1316
C:\Users\CYMR90~1\AppData\Local\Temp\ccx4ZXSQ.s:32092  .debug_str:000000000002413e .LASF1317
C:\Users\CYMR90~1\AppData\Local\Temp\ccx4ZXSQ.s:31102  .debug_str:0000000000020539 .LASF1318
C:\Users\CYMR90~1\AppData\Local\Temp\ccx4ZXSQ.s:30136  .debug_str:000000000001c87e .LASF1319
C:\Users\CYMR90~1\AppData\Local\Temp\ccx4ZXSQ.s:29158  .debug_str:0000000000018a5c .LASF1320
C:\Users\CYMR90~1\AppData\Local\Temp\ccx4ZXSQ.s:28167  .debug_str:0000000000014b1a .LASF1321
C:\Users\CYMR90~1\AppData\Local\Temp\ccx4ZXSQ.s:27221  .debug_str:0000000000010ebc .LASF1322
C:\Users\CYMR90~1\AppData\Local\Temp\ccx4ZXSQ.s:27691  .debug_str:0000000000012d47 .LASF1323
C:\Users\CYMR90~1\AppData\Local\Temp\ccx4ZXSQ.s:26079  .debug_str:000000000000c7a7 .LASF1324
C:\Users\CYMR90~1\AppData\Local\Temp\ccx4ZXSQ.s:25697  .debug_str:000000000000ae6c .LASF1325
C:\Users\CYMR90~1\AppData\Local\Temp\ccx4ZXSQ.s:24669  .debug_str:0000000000006c36 .LASF1326
C:\Users\CYMR90~1\AppData\Local\Temp\ccx4ZXSQ.s:23685  .debug_str:0000000000002e89 .LASF1327
C:\Users\CYMR90~1\AppData\Local\Temp\ccx4ZXSQ.s:34346  .debug_str:000000000002cf91 .LASF1328
C:\Users\CYMR90~1\AppData\Local\Temp\ccx4ZXSQ.s:33412  .debug_str:00000000000296d2 .LASF1329
C:\Users\CYMR90~1\AppData\Local\Temp\ccx4ZXSQ.s:32404  .debug_str:00000000000254e8 .LASF1330
C:\Users\CYMR90~1\AppData\Local\Temp\ccx4ZXSQ.s:31436  .debug_str:0000000000021984 .LASF1331
C:\Users\CYMR90~1\AppData\Local\Temp\ccx4ZXSQ.s:30462  .debug_str:000000000001de3c .LASF1332
C:\Users\CYMR90~1\AppData\Local\Temp\ccx4ZXSQ.s:30898  .debug_str:000000000001f8fd .LASF1333
C:\Users\CYMR90~1\AppData\Local\Temp\ccx4ZXSQ.s:29952  .debug_str:000000000001bd4e .LASF1334
C:\Users\CYMR90~1\AppData\Local\Temp\ccx4ZXSQ.s:28627  .debug_str:0000000000016807 .LASF1335
C:\Users\CYMR90~1\AppData\Local\Temp\ccx4ZXSQ.s:26237  .debug_str:000000000000d1fe .LASF1336
C:\Users\CYMR90~1\AppData\Local\Temp\ccx4ZXSQ.s:31118  .debug_str:0000000000020605 .LASF1337
C:\Users\CYMR90~1\AppData\Local\Temp\ccx4ZXSQ.s:27577  .debug_str:00000000000125e6 .LASF1338
C:\Users\CYMR90~1\AppData\Local\Temp\ccx4ZXSQ.s:23325  .debug_str:00000000000017bb .LASF1339
C:\Users\CYMR90~1\AppData\Local\Temp\ccx4ZXSQ.s:25481  .debug_str:000000000000a033 .LASF1340
C:\Users\CYMR90~1\AppData\Local\Temp\ccx4ZXSQ.s:24445  .debug_str:0000000000005e64 .LASF1341
C:\Users\CYMR90~1\AppData\Local\Temp\ccx4ZXSQ.s:23471  .debug_str:0000000000002129 .LASF1342
C:\Users\CYMR90~1\AppData\Local\Temp\ccx4ZXSQ.s:34152  .debug_str:000000000002c2e3 .LASF1343
C:\Users\CYMR90~1\AppData\Local\Temp\ccx4ZXSQ.s:33938  .debug_str:000000000002b576 .LASF1344
C:\Users\CYMR90~1\AppData\Local\Temp\ccx4ZXSQ.s:32946  .debug_str:000000000002785e .LASF1345
C:\Users\CYMR90~1\AppData\Local\Temp\ccx4ZXSQ.s:25189  .debug_str:0000000000008e69 .LASF1346
C:\Users\CYMR90~1\AppData\Local\Temp\ccx4ZXSQ.s:33364  .debug_str:0000000000029430 .LASF1347
C:\Users\CYMR90~1\AppData\Local\Temp\ccx4ZXSQ.s:30002  .debug_str:000000000001c04b .LASF1348
C:\Users\CYMR90~1\AppData\Local\Temp\ccx4ZXSQ.s:30542  .debug_str:000000000001e34e .LASF1349
C:\Users\CYMR90~1\AppData\Local\Temp\ccx4ZXSQ.s:28039  .debug_str:00000000000143b7 .LASF1350
C:\Users\CYMR90~1\AppData\Local\Temp\ccx4ZXSQ.s:31268  .debug_str:0000000000020fb9 .LASF1351
C:\Users\CYMR90~1\AppData\Local\Temp\ccx4ZXSQ.s:26093  .debug_str:000000000000c8b5 .LASF1352
C:\Users\CYMR90~1\AppData\Local\Temp\ccx4ZXSQ.s:24979  .debug_str:0000000000008101 .LASF1353
C:\Users\CYMR90~1\AppData\Local\Temp\ccx4ZXSQ.s:25563  .debug_str:000000000000a593 .LASF1354
C:\Users\CYMR90~1\AppData\Local\Temp\ccx4ZXSQ.s:24525  .debug_str:0000000000006362 .LASF1355
C:\Users\CYMR90~1\AppData\Local\Temp\ccx4ZXSQ.s:23555  .debug_str:000000000000261a .LASF1356
C:\Users\CYMR90~1\AppData\Local\Temp\ccx4ZXSQ.s:34224  .debug_str:000000000002c793 .LASF1357
C:\Users\CYMR90~1\AppData\Local\Temp\ccx4ZXSQ.s:28129  .debug_str:0000000000014906 .LASF1358
C:\Users\CYMR90~1\AppData\Local\Temp\ccx4ZXSQ.s:24663  .debug_str:0000000000006bde .LASF1359
C:\Users\CYMR90~1\AppData\Local\Temp\ccx4ZXSQ.s:31314  .debug_str:0000000000021276 .LASF1360
C:\Users\CYMR90~1\AppData\Local\Temp\ccx4ZXSQ.s:30242  .debug_str:000000000001ceca .LASF1361
C:\Users\CYMR90~1\AppData\Local\Temp\ccx4ZXSQ.s:29256  .debug_str:000000000001901d .LASF1362
C:\Users\CYMR90~1\AppData\Local\Temp\ccx4ZXSQ.s:33376  .debug_str:00000000000294f2 .LASF1363
C:\Users\CYMR90~1\AppData\Local\Temp\ccx4ZXSQ.s:28547  .debug_str:0000000000016270 .LASF1364
C:\Users\CYMR90~1\AppData\Local\Temp\ccx4ZXSQ.s:25103  .debug_str:000000000000895f .LASF1365
C:\Users\CYMR90~1\AppData\Local\Temp\ccx4ZXSQ.s:32976  .debug_str:0000000000027a39 .LASF1366
C:\Users\CYMR90~1\AppData\Local\Temp\ccx4ZXSQ.s:26219  .debug_str:000000000000d0e4 .LASF1367
C:\Users\CYMR90~1\AppData\Local\Temp\ccx4ZXSQ.s:31210  .debug_str:0000000000020bbf .LASF1368
C:\Users\CYMR90~1\AppData\Local\Temp\ccx4ZXSQ.s:29422  .debug_str:0000000000019b36 .LASF1369
C:\Users\CYMR90~1\AppData\Local\Temp\ccx4ZXSQ.s:34112  .debug_str:000000000002c038 .LASF1370
C:\Users\CYMR90~1\AppData\Local\Temp\ccx4ZXSQ.s:30470  .debug_str:000000000001dea3 .LASF1371
C:\Users\CYMR90~1\AppData\Local\Temp\ccx4ZXSQ.s:23597  .debug_str:000000000000290a .LASF1372
C:\Users\CYMR90~1\AppData\Local\Temp\ccx4ZXSQ.s:26281  .debug_str:000000000000d451 .LASF1373
C:\Users\CYMR90~1\AppData\Local\Temp\ccx4ZXSQ.s:29464  .debug_str:0000000000019daa .LASF1374
C:\Users\CYMR90~1\AppData\Local\Temp\ccx4ZXSQ.s:34242  .debug_str:000000000002c90b .LASF1375
C:\Users\CYMR90~1\AppData\Local\Temp\ccx4ZXSQ.s:24197  .debug_str:0000000000004fb8 .LASF1376
C:\Users\CYMR90~1\AppData\Local\Temp\ccx4ZXSQ.s:27479  .debug_str:0000000000011f0f .LASF1377
C:\Users\CYMR90~1\AppData\Local\Temp\ccx4ZXSQ.s:30630  .debug_str:000000000001e901 .LASF1378
C:\Users\CYMR90~1\AppData\Local\Temp\ccx4ZXSQ.s:33842  .debug_str:000000000002b03f .LASF1379
C:\Users\CYMR90~1\AppData\Local\Temp\ccx4ZXSQ.s:33804  .debug_str:000000000002adbc .LASF1380
C:\Users\CYMR90~1\AppData\Local\Temp\ccx4ZXSQ.s:25317  .debug_str:0000000000009644 .LASF1381
C:\Users\CYMR90~1\AppData\Local\Temp\ccx4ZXSQ.s:28519  .debug_str:00000000000160e8 .LASF1382
C:\Users\CYMR90~1\AppData\Local\Temp\ccx4ZXSQ.s:31714  .debug_str:0000000000022ac0 .LASF1383
C:\Users\CYMR90~1\AppData\Local\Temp\ccx4ZXSQ.s:23299  .debug_str:000000000000160e .LASF1384
C:\Users\CYMR90~1\AppData\Local\Temp\ccx4ZXSQ.s:26555  .debug_str:000000000000e540 .LASF1385
C:\Users\CYMR90~1\AppData\Local\Temp\ccx4ZXSQ.s:29770  .debug_str:000000000001b212 .LASF1386
C:\Users\CYMR90~1\AppData\Local\Temp\ccx4ZXSQ.s:32934  .debug_str:000000000002777e .LASF1387
C:\Users\CYMR90~1\AppData\Local\Temp\ccx4ZXSQ.s:34000  .debug_str:000000000002b909 .LASF1388
C:\Users\CYMR90~1\AppData\Local\Temp\ccx4ZXSQ.s:27675  .debug_str:0000000000012c39 .LASF1389
C:\Users\CYMR90~1\AppData\Local\Temp\ccx4ZXSQ.s:26999  .debug_str:0000000000010031 .LASF1390
C:\Users\CYMR90~1\AppData\Local\Temp\ccx4ZXSQ.s:30080  .debug_str:000000000001c536 .LASF1391
C:\Users\CYMR90~1\AppData\Local\Temp\ccx4ZXSQ.s:33280  .debug_str:0000000000028e7f .LASF1392
C:\Users\CYMR90~1\AppData\Local\Temp\ccx4ZXSQ.s:24845  .debug_str:00000000000077e1 .LASF1393
C:\Users\CYMR90~1\AppData\Local\Temp\ccx4ZXSQ.s:28069  .debug_str:0000000000014533 .LASF1394
C:\Users\CYMR90~1\AppData\Local\Temp\ccx4ZXSQ.s:31284  .debug_str:00000000000210b3 .LASF1395
C:\Users\CYMR90~1\AppData\Local\Temp\ccx4ZXSQ.s:34534  .debug_str:000000000002db7a .LASF1396
C:\Users\CYMR90~1\AppData\Local\Temp\ccx4ZXSQ.s:26157  .debug_str:000000000000cc70 .LASF1397
C:\Users\CYMR90~1\AppData\Local\Temp\ccx4ZXSQ.s:29344  .debug_str:00000000000195e1 .LASF1398
C:\Users\CYMR90~1\AppData\Local\Temp\ccx4ZXSQ.s:27371  .debug_str:00000000000117f1 .LASF1399
C:\Users\CYMR90~1\AppData\Local\Temp\ccx4ZXSQ.s:28689  .debug_str:0000000000016bb5 .LASF1400
C:\Users\CYMR90~1\AppData\Local\Temp\ccx4ZXSQ.s:23249  .debug_str:0000000000001332 .LASF1401
C:\Users\CYMR90~1\AppData\Local\Temp\ccx4ZXSQ.s:31192  .debug_str:0000000000020ae4 .LASF1402
C:\Users\CYMR90~1\AppData\Local\Temp\ccx4ZXSQ.s:25973  .debug_str:000000000000c092 .LASF1403
C:\Users\CYMR90~1\AppData\Local\Temp\ccx4ZXSQ.s:30946  .debug_str:000000000001fc00 .LASF1404
C:\Users\CYMR90~1\AppData\Local\Temp\ccx4ZXSQ.s:23979  .debug_str:000000000000419e .LASF1405
C:\Users\CYMR90~1\AppData\Local\Temp\ccx4ZXSQ.s:33762  .debug_str:000000000002ab55 .LASF1406
C:\Users\CYMR90~1\AppData\Local\Temp\ccx4ZXSQ.s:31914  .debug_str:00000000000236be .LASF1407
C:\Users\CYMR90~1\AppData\Local\Temp\ccx4ZXSQ.s:32080  .debug_str:000000000002407c .LASF1408
C:\Users\CYMR90~1\AppData\Local\Temp\ccx4ZXSQ.s:23637  .debug_str:0000000000002b7b .LASF1409
C:\Users\CYMR90~1\AppData\Local\Temp\ccx4ZXSQ.s:26905  .debug_str:000000000000fa6a .LASF1410
C:\Users\CYMR90~1\AppData\Local\Temp\ccx4ZXSQ.s:33504  .debug_str:0000000000029c83 .LASF1411
C:\Users\CYMR90~1\AppData\Local\Temp\ccx4ZXSQ.s:25091  .debug_str:00000000000088ba .LASF1412
C:\Users\CYMR90~1\AppData\Local\Temp\ccx4ZXSQ.s:29586  .debug_str:000000000001a593 .LASF1413
C:\Users\CYMR90~1\AppData\Local\Temp\ccx4ZXSQ.s:31494  .debug_str:0000000000021d63 .LASF1414
C:\Users\CYMR90~1\AppData\Local\Temp\ccx4ZXSQ.s:23097  .debug_str:00000000000009a1 .LASF1415
C:\Users\CYMR90~1\AppData\Local\Temp\ccx4ZXSQ.s:26247  .debug_str:000000000000d269 .LASF1416
C:\Users\CYMR90~1\AppData\Local\Temp\ccx4ZXSQ.s:29444  .debug_str:0000000000019cc2 .LASF1417
C:\Users\CYMR90~1\AppData\Local\Temp\ccx4ZXSQ.s:32614  .debug_str:000000000002641b .LASF1418
C:\Users\CYMR90~1\AppData\Local\Temp\ccx4ZXSQ.s:24179  .debug_str:0000000000004e82 .LASF1419
C:\Users\CYMR90~1\AppData\Local\Temp\ccx4ZXSQ.s:27357  .debug_str:0000000000011725 .LASF1420
C:\Users\CYMR90~1\AppData\Local\Temp\ccx4ZXSQ.s:26683  .debug_str:000000000000ed63 .LASF1421
C:\Users\CYMR90~1\AppData\Local\Temp\ccx4ZXSQ.s:27487  .debug_str:000000000001203f .LASF1422
C:\Users\CYMR90~1\AppData\Local\Temp\ccx4ZXSQ.s:33052  .debug_str:0000000000027fa4 .LASF1423
C:\Users\CYMR90~1\AppData\Local\Temp\ccx4ZXSQ.s:23713  .debug_str:0000000000003036 .LASF1424
C:\Users\CYMR90~1\AppData\Local\Temp\ccx4ZXSQ.s:27881  .debug_str:0000000000013961 .LASF1425
C:\Users\CYMR90~1\AppData\Local\Temp\ccx4ZXSQ.s:30938  .debug_str:000000000001fb70 .LASF1426
C:\Users\CYMR90~1\AppData\Local\Temp\ccx4ZXSQ.s:34232  .debug_str:000000000002c875 .LASF1427
C:\Users\CYMR90~1\AppData\Local\Temp\ccx4ZXSQ.s:25833  .debug_str:000000000000b751 .LASF1428
C:\Users\CYMR90~1\AppData\Local\Temp\ccx4ZXSQ.s:29016  .debug_str:0000000000018228 .LASF1429
C:\Users\CYMR90~1\AppData\Local\Temp\ccx4ZXSQ.s:32204  .debug_str:00000000000247c3 .LASF1430
C:\Users\CYMR90~1\AppData\Local\Temp\ccx4ZXSQ.s:30948  .debug_str:000000000001fc18 .LASF1431
C:\Users\CYMR90~1\AppData\Local\Temp\ccx4ZXSQ.s:23051  .debug_str:000000000000072c .LASF1432
C:\Users\CYMR90~1\AppData\Local\Temp\ccx4ZXSQ.s:32166  .debug_str:000000000002459c .LASF1433
C:\Users\CYMR90~1\AppData\Local\Temp\ccx4ZXSQ.s:31196  .debug_str:0000000000020b0e .LASF1434
C:\Users\CYMR90~1\AppData\Local\Temp\ccx4ZXSQ.s:30200  .debug_str:000000000001cc32 .LASF1435
C:\Users\CYMR90~1\AppData\Local\Temp\ccx4ZXSQ.s:29220  .debug_str:0000000000018e17 .LASF1436
C:\Users\CYMR90~1\AppData\Local\Temp\ccx4ZXSQ.s:28649  .debug_str:000000000001697c .LASF1437
C:\Users\CYMR90~1\AppData\Local\Temp\ccx4ZXSQ.s:33084  .debug_str:0000000000028142 .LASF1438
C:\Users\CYMR90~1\AppData\Local\Temp\ccx4ZXSQ.s:32098  .debug_str:00000000000241c6 .LASF1439
C:\Users\CYMR90~1\AppData\Local\Temp\ccx4ZXSQ.s:31108  .debug_str:0000000000020592 .LASF1440
C:\Users\CYMR90~1\AppData\Local\Temp\ccx4ZXSQ.s:30122  .debug_str:000000000001c7d0 .LASF1441
C:\Users\CYMR90~1\AppData\Local\Temp\ccx4ZXSQ.s:29146  .debug_str:00000000000189a0 .LASF1442
C:\Users\CYMR90~1\AppData\Local\Temp\ccx4ZXSQ.s:28155  .debug_str:0000000000014a90 .LASF1443
C:\Users\CYMR90~1\AppData\Local\Temp\ccx4ZXSQ.s:27211  .debug_str:0000000000010e34 .LASF1444
C:\Users\CYMR90~1\AppData\Local\Temp\ccx4ZXSQ.s:34190  .debug_str:000000000002c56f .LASF1445
C:\Users\CYMR90~1\AppData\Local\Temp\ccx4ZXSQ.s:25205  .debug_str:0000000000008f56 .LASF1446
C:\Users\CYMR90~1\AppData\Local\Temp\ccx4ZXSQ.s:26819  .debug_str:000000000000f533 .LASF1447
C:\Users\CYMR90~1\AppData\Local\Temp\ccx4ZXSQ.s:32442  .debug_str:0000000000025779 .LASF1448
C:\Users\CYMR90~1\AppData\Local\Temp\ccx4ZXSQ.s:31472  .debug_str:0000000000021b78 .LASF1449
C:\Users\CYMR90~1\AppData\Local\Temp\ccx4ZXSQ.s:30484  .debug_str:000000000001dfee .LASF1450
C:\Users\CYMR90~1\AppData\Local\Temp\ccx4ZXSQ.s:29512  .debug_str:000000000001a162 .LASF1451
C:\Users\CYMR90~1\AppData\Local\Temp\ccx4ZXSQ.s:28517  .debug_str:00000000000160d3 .LASF1452
C:\Users\CYMR90~1\AppData\Local\Temp\ccx4ZXSQ.s:25831  .debug_str:000000000000b73e .LASF1453
C:\Users\CYMR90~1\AppData\Local\Temp\ccx4ZXSQ.s:28219  .debug_str:0000000000014eb1 .LASF1454
C:\Users\CYMR90~1\AppData\Local\Temp\ccx4ZXSQ.s:25625  .debug_str:000000000000a90b .LASF1455
C:\Users\CYMR90~1\AppData\Local\Temp\ccx4ZXSQ.s:30852  .debug_str:000000000001f618 .LASF1456
C:\Users\CYMR90~1\AppData\Local\Temp\ccx4ZXSQ.s:32496  .debug_str:0000000000025b55 .LASF1457
C:\Users\CYMR90~1\AppData\Local\Temp\ccx4ZXSQ.s:24143  .debug_str:0000000000004c42 .LASF1458
C:\Users\CYMR90~1\AppData\Local\Temp\ccx4ZXSQ.s:30932  .debug_str:000000000001fb22 .LASF1459
C:\Users\CYMR90~1\AppData\Local\Temp\ccx4ZXSQ.s:27695  .debug_str:0000000000012d88 .LASF1460
C:\Users\CYMR90~1\AppData\Local\Temp\ccx4ZXSQ.s:25735  .debug_str:000000000000b0a8 .LASF1461
C:\Users\CYMR90~1\AppData\Local\Temp\ccx4ZXSQ.s:26957  .debug_str:000000000000fdf6 .LASF1462
C:\Users\CYMR90~1\AppData\Local\Temp\ccx4ZXSQ.s:27483  .debug_str:0000000000011fd4 .LASF1463
C:\Users\CYMR90~1\AppData\Local\Temp\ccx4ZXSQ.s:28579  .debug_str:000000000001649c .LASF1464
C:\Users\CYMR90~1\AppData\Local\Temp\ccx4ZXSQ.s:33962  .debug_str:000000000002b6fd .LASF1465
C:\Users\CYMR90~1\AppData\Local\Temp\ccx4ZXSQ.s:29784  .debug_str:000000000001b2fa .LASF1466
C:\Users\CYMR90~1\AppData\Local\Temp\ccx4ZXSQ.s:28159  .debug_str:0000000000014ab7 .LASF1467
C:\Users\CYMR90~1\AppData\Local\Temp\ccx4ZXSQ.s:32966  .debug_str:00000000000279b7 .LASF1468
C:\Users\CYMR90~1\AppData\Local\Temp\ccx4ZXSQ.s:27147  .debug_str:00000000000109c2 .LASF1469
C:\Users\CYMR90~1\AppData\Local\Temp\ccx4ZXSQ.s:24127  .debug_str:0000000000004b4a .LASF1470
C:\Users\CYMR90~1\AppData\Local\Temp\ccx4ZXSQ.s:27455  .debug_str:0000000000011d7b .LASF1471
C:\Users\CYMR90~1\AppData\Local\Temp\ccx4ZXSQ.s:27407  .debug_str:0000000000011a4f .LASF1472
C:\Users\CYMR90~1\AppData\Local\Temp\ccx4ZXSQ.s:32392  .debug_str:0000000000025422 .LASF1473
C:\Users\CYMR90~1\AppData\Local\Temp\ccx4ZXSQ.s:33058  .debug_str:0000000000027ff5 .LASF1474
C:\Users\CYMR90~1\AppData\Local\Temp\ccx4ZXSQ.s:23151  .debug_str:0000000000000d4f .LASF1475
C:\Users\CYMR90~1\AppData\Local\Temp\ccx4ZXSQ.s:25093  .debug_str:00000000000088d3 .LASF1476
C:\Users\CYMR90~1\AppData\Local\Temp\ccx4ZXSQ.s:23663  .debug_str:0000000000002d38 .LASF1477
C:\Users\CYMR90~1\AppData\Local\Temp\ccx4ZXSQ.s:33248  .debug_str:0000000000028c0f .LASF1478
C:\Users\CYMR90~1\AppData\Local\Temp\ccx4ZXSQ.s:32240  .debug_str:0000000000024a8b .LASF1479
C:\Users\CYMR90~1\AppData\Local\Temp\ccx4ZXSQ.s:23791  .debug_str:0000000000003569 .LASF1480
C:\Users\CYMR90~1\AppData\Local\Temp\ccx4ZXSQ.s:26101  .debug_str:000000000000c911 .LASF1481
C:\Users\CYMR90~1\AppData\Local\Temp\ccx4ZXSQ.s:32360  .debug_str:0000000000025260 .LASF1482
C:\Users\CYMR90~1\AppData\Local\Temp\ccx4ZXSQ.s:25409  .debug_str:0000000000009bee .LASF1483
C:\Users\CYMR90~1\AppData\Local\Temp\ccx4ZXSQ.s:24185  .debug_str:0000000000004edb .LASF1484
C:\Users\CYMR90~1\AppData\Local\Temp\ccx4ZXSQ.s:26693  .debug_str:000000000000ee05 .LASF1485
C:\Users\CYMR90~1\AppData\Local\Temp\ccx4ZXSQ.s:28127  .debug_str:00000000000148f3 .LASF1486
C:\Users\CYMR90~1\AppData\Local\Temp\ccx4ZXSQ.s:29766  .debug_str:000000000001b1e3 .LASF1487
C:\Users\CYMR90~1\AppData\Local\Temp\ccx4ZXSQ.s:22961  .debug_str:000000000000021d .LASF1488
C:\Users\CYMR90~1\AppData\Local\Temp\ccx4ZXSQ.s:28533  .debug_str:00000000000161b8 .LASF1489
C:\Users\CYMR90~1\AppData\Local\Temp\ccx4ZXSQ.s:26487  .debug_str:000000000000e0e0 .LASF1490
C:\Users\CYMR90~1\AppData\Local\Temp\ccx4ZXSQ.s:33470  .debug_str:0000000000029a86 .LASF1491
C:\Users\CYMR90~1\AppData\Local\Temp\ccx4ZXSQ.s:23629  .debug_str:0000000000002aec .LASF1492
C:\Users\CYMR90~1\AppData\Local\Temp\ccx4ZXSQ.s:31426  .debug_str:0000000000021905 .LASF1493
C:\Users\CYMR90~1\AppData\Local\Temp\ccx4ZXSQ.s:33692  .debug_str:000000000002a762 .LASF1494
C:\Users\CYMR90~1\AppData\Local\Temp\ccx4ZXSQ.s:24829  .debug_str:00000000000076eb .LASF1495
C:\Users\CYMR90~1\AppData\Local\Temp\ccx4ZXSQ.s:32728  .debug_str:0000000000026b68 .LASF1496
C:\Users\CYMR90~1\AppData\Local\Temp\ccx4ZXSQ.s:33444  .debug_str:00000000000298b5 .LASF1497
C:\Users\CYMR90~1\AppData\Local\Temp\ccx4ZXSQ.s:24617  .debug_str:00000000000068be .LASF1498
C:\Users\CYMR90~1\AppData\Local\Temp\ccx4ZXSQ.s:25503  .debug_str:000000000000a173 .LASF1499
C:\Users\CYMR90~1\AppData\Local\Temp\ccx4ZXSQ.s:34398  .debug_str:000000000002d2f4 .LASF1500
C:\Users\CYMR90~1\AppData\Local\Temp\ccx4ZXSQ.s:33604  .debug_str:000000000002a25e .LASF1501
C:\Users\CYMR90~1\AppData\Local\Temp\ccx4ZXSQ.s:31324  .debug_str:0000000000021340 .LASF1502
C:\Users\CYMR90~1\AppData\Local\Temp\ccx4ZXSQ.s:24597  .debug_str:00000000000067a6 .LASF1503
C:\Users\CYMR90~1\AppData\Local\Temp\ccx4ZXSQ.s:33694  .debug_str:000000000002a770 .LASF1504
C:\Users\CYMR90~1\AppData\Local\Temp\ccx4ZXSQ.s:30684  .debug_str:000000000001ec1c .LASF1505
C:\Users\CYMR90~1\AppData\Local\Temp\ccx4ZXSQ.s:29978  .debug_str:000000000001bf01 .LASF1506
C:\Users\CYMR90~1\AppData\Local\Temp\ccx4ZXSQ.s:25899  .debug_str:000000000000bc0c .LASF1507
C:\Users\CYMR90~1\AppData\Local\Temp\ccx4ZXSQ.s:31526  .debug_str:0000000000021f3b .LASF1508
C:\Users\CYMR90~1\AppData\Local\Temp\ccx4ZXSQ.s:27643  .debug_str:0000000000012a34 .LASF1509
C:\Users\CYMR90~1\AppData\Local\Temp\ccx4ZXSQ.s:33348  .debug_str:0000000000029328 .LASF1510
C:\Users\CYMR90~1\AppData\Local\Temp\ccx4ZXSQ.s:32114  .debug_str:00000000000242a2 .LASF1511
C:\Users\CYMR90~1\AppData\Local\Temp\ccx4ZXSQ.s:23841  .debug_str:000000000000389f .LASF1512
C:\Users\CYMR90~1\AppData\Local\Temp\ccx4ZXSQ.s:28603  .debug_str:000000000001666b .LASF1513
C:\Users\CYMR90~1\AppData\Local\Temp\ccx4ZXSQ.s:32522  .debug_str:0000000000025d7a .LASF1514
C:\Users\CYMR90~1\AppData\Local\Temp\ccx4ZXSQ.s:30910  .debug_str:000000000001f9e7 .LASF1515
C:\Users\CYMR90~1\AppData\Local\Temp\ccx4ZXSQ.s:34132  .debug_str:000000000002c171 .LASF1516
C:\Users\CYMR90~1\AppData\Local\Temp\ccx4ZXSQ.s:30734  .debug_str:000000000001ef2f .LASF1517
C:\Users\CYMR90~1\AppData\Local\Temp\ccx4ZXSQ.s:32762  .debug_str:0000000000026d5c .LASF1518
C:\Users\CYMR90~1\AppData\Local\Temp\ccx4ZXSQ.s:27635  .debug_str:00000000000129db .LASF1519
C:\Users\CYMR90~1\AppData\Local\Temp\ccx4ZXSQ.s:31138  .debug_str:000000000002077b .LASF1520
C:\Users\CYMR90~1\AppData\Local\Temp\ccx4ZXSQ.s:30158  .debug_str:000000000001c9d1 .LASF1521
C:\Users\CYMR90~1\AppData\Local\Temp\ccx4ZXSQ.s:23783  .debug_str:00000000000034ed .LASF1522
C:\Users\CYMR90~1\AppData\Local\Temp\ccx4ZXSQ.s:29420  .debug_str:0000000000019b1a .LASF1523
C:\Users\CYMR90~1\AppData\Local\Temp\ccx4ZXSQ.s:32116  .debug_str:00000000000242b8 .LASF1524
C:\Users\CYMR90~1\AppData\Local\Temp\ccx4ZXSQ.s:24255  .debug_str:00000000000052d1 .LASF1525
C:\Users\CYMR90~1\AppData\Local\Temp\ccx4ZXSQ.s:30096  .debug_str:000000000001c655 .LASF1526
C:\Users\CYMR90~1\AppData\Local\Temp\ccx4ZXSQ.s:26131  .debug_str:000000000000cac7 .LASF1527
C:\Users\CYMR90~1\AppData\Local\Temp\ccx4ZXSQ.s:31868  .debug_str:00000000000233ca .LASF1528
C:\Users\CYMR90~1\AppData\Local\Temp\ccx4ZXSQ.s:33142  .debug_str:0000000000028491 .LASF1529
C:\Users\CYMR90~1\AppData\Local\Temp\ccx4ZXSQ.s:32352  .debug_str:000000000002515b .LASF1530
C:\Users\CYMR90~1\AppData\Local\Temp\ccx4ZXSQ.s:32418  .debug_str:00000000000255de .LASF1531
C:\Users\CYMR90~1\AppData\Local\Temp\ccx4ZXSQ.s:29858  .debug_str:000000000001b735 .LASF1532
C:\Users\CYMR90~1\AppData\Local\Temp\ccx4ZXSQ.s:29370  .debug_str:0000000000019775 .LASF1533
C:\Users\CYMR90~1\AppData\Local\Temp\ccx4ZXSQ.s:32234  .debug_str:000000000002494b .LASF1534
C:\Users\CYMR90~1\AppData\Local\Temp\ccx4ZXSQ.s:25665  .debug_str:000000000000ab93 .LASF1535
C:\Users\CYMR90~1\AppData\Local\Temp\ccx4ZXSQ.s:32422  .debug_str:000000000002565e .LASF1536
C:\Users\CYMR90~1\AppData\Local\Temp\ccx4ZXSQ.s:31770  .debug_str:0000000000022de5 .LASF1537
C:\Users\CYMR90~1\AppData\Local\Temp\ccx4ZXSQ.s:33642  .debug_str:000000000002a47b .LASF1538
C:\Users\CYMR90~1\AppData\Local\Temp\ccx4ZXSQ.s:32900  .debug_str:000000000002758a .LASF1539
C:\Users\CYMR90~1\AppData\Local\Temp\ccx4ZXSQ.s:27511  .debug_str:0000000000012212 .LASF1540
C:\Users\CYMR90~1\AppData\Local\Temp\ccx4ZXSQ.s:33630  .debug_str:000000000002a3e6 .LASF1541
C:\Users\CYMR90~1\AppData\Local\Temp\ccx4ZXSQ.s:26461  .debug_str:000000000000df93 .LASF1542
C:\Users\CYMR90~1\AppData\Local\Temp\ccx4ZXSQ.s:23753  .debug_str:00000000000032b9 .LASF1543
C:\Users\CYMR90~1\AppData\Local\Temp\ccx4ZXSQ.s:27049  .debug_str:000000000001034c .LASF1544
C:\Users\CYMR90~1\AppData\Local\Temp\ccx4ZXSQ.s:25021  .debug_str:000000000000843d .LASF1545
C:\Users\CYMR90~1\AppData\Local\Temp\ccx4ZXSQ.s:25511  .debug_str:000000000000a1e6 .LASF1546
C:\Users\CYMR90~1\AppData\Local\Temp\ccx4ZXSQ.s:26187  .debug_str:000000000000cec8 .LASF1547
C:\Users\CYMR90~1\AppData\Local\Temp\ccx4ZXSQ.s:33224  .debug_str:0000000000028a39 .LASF1548
C:\Users\CYMR90~1\AppData\Local\Temp\ccx4ZXSQ.s:32700  .debug_str:000000000002695c .LASF1549
C:\Users\CYMR90~1\AppData\Local\Temp\ccx4ZXSQ.s:30046  .debug_str:000000000001c2a8 .LASF1550
C:\Users\CYMR90~1\AppData\Local\Temp\ccx4ZXSQ.s:27367  .debug_str:00000000000117a3 .LASF1551
C:\Users\CYMR90~1\AppData\Local\Temp\ccx4ZXSQ.s:30018  .debug_str:000000000001c117 .LASF1552
C:\Users\CYMR90~1\AppData\Local\Temp\ccx4ZXSQ.s:23217  .debug_str:0000000000001153 .LASF1553
C:\Users\CYMR90~1\AppData\Local\Temp\ccx4ZXSQ.s:23525  .debug_str:0000000000002440 .LASF1554
C:\Users\CYMR90~1\AppData\Local\Temp\ccx4ZXSQ.s:30770  .debug_str:000000000001f176 .LASF1555
C:\Users\CYMR90~1\AppData\Local\Temp\ccx4ZXSQ.s:29318  .debug_str:0000000000019468 .LASF1556
C:\Users\CYMR90~1\AppData\Local\Temp\ccx4ZXSQ.s:29346  .debug_str:00000000000195f9 .LASF1557
C:\Users\CYMR90~1\AppData\Local\Temp\ccx4ZXSQ.s:33720  .debug_str:000000000002a8d5 .LASF1558
C:\Users\CYMR90~1\AppData\Local\Temp\ccx4ZXSQ.s:27205  .debug_str:0000000000010de5 .LASF1559
C:\Users\CYMR90~1\AppData\Local\Temp\ccx4ZXSQ.s:32124  .debug_str:0000000000024325 .LASF1560
C:\Users\CYMR90~1\AppData\Local\Temp\ccx4ZXSQ.s:32554  .debug_str:0000000000025fb6 .LASF1561
C:\Users\CYMR90~1\AppData\Local\Temp\ccx4ZXSQ.s:28601  .debug_str:0000000000016654 .LASF1562
C:\Users\CYMR90~1\AppData\Local\Temp\ccx4ZXSQ.s:24439  .debug_str:0000000000005e14 .LASF1563
C:\Users\CYMR90~1\AppData\Local\Temp\ccx4ZXSQ.s:34230  .debug_str:000000000002c7cf .LASF1564
C:\Users\CYMR90~1\AppData\Local\Temp\ccx4ZXSQ.s:24625  .debug_str:0000000000006927 .LASF1565
C:\Users\CYMR90~1\AppData\Local\Temp\ccx4ZXSQ.s:30482  .debug_str:000000000001df60 .LASF1566
C:\Users\CYMR90~1\AppData\Local\Temp\ccx4ZXSQ.s:29720  .debug_str:000000000001aead .LASF1567
C:\Users\CYMR90~1\AppData\Local\Temp\ccx4ZXSQ.s:31260  .debug_str:0000000000020ee4 .LASF1568
C:\Users\CYMR90~1\AppData\Local\Temp\ccx4ZXSQ.s:27509  .debug_str:000000000001216b .LASF1569
C:\Users\CYMR90~1\AppData\Local\Temp\ccx4ZXSQ.s:32582  .debug_str:0000000000026196 .LASF1570
C:\Users\CYMR90~1\AppData\Local\Temp\ccx4ZXSQ.s:27901  .debug_str:0000000000013b12 .LASF1571
C:\Users\CYMR90~1\AppData\Local\Temp\ccx4ZXSQ.s:24307  .debug_str:000000000000561a .LASF1572
C:\Users\CYMR90~1\AppData\Local\Temp\ccx4ZXSQ.s:28325  .debug_str:0000000000015563 .LASF1573
C:\Users\CYMR90~1\AppData\Local\Temp\ccx4ZXSQ.s:33334  .debug_str:0000000000029253 .LASF1574
C:\Users\CYMR90~1\AppData\Local\Temp\ccx4ZXSQ.s:28814  .debug_str:00000000000175d1 .LASF1575
C:\Users\CYMR90~1\AppData\Local\Temp\ccx4ZXSQ.s:26849  .debug_str:000000000000f716 .LASF1576
C:\Users\CYMR90~1\AppData\Local\Temp\ccx4ZXSQ.s:30774  .debug_str:000000000001f1b8 .LASF1577
C:\Users\CYMR90~1\AppData\Local\Temp\ccx4ZXSQ.s:33834  .debug_str:000000000002afa3 .LASF1578
C:\Users\CYMR90~1\AppData\Local\Temp\ccx4ZXSQ.s:23535  .debug_str:00000000000024cb .LASF1579
C:\Users\CYMR90~1\AppData\Local\Temp\ccx4ZXSQ.s:30312  .debug_str:000000000001d3ea .LASF1580
C:\Users\CYMR90~1\AppData\Local\Temp\ccx4ZXSQ.s:27641  .debug_str:0000000000012a1d .LASF1581
C:\Users\CYMR90~1\AppData\Local\Temp\ccx4ZXSQ.s:26377  .debug_str:000000000000dad6 .LASF1582
C:\Users\CYMR90~1\AppData\Local\Temp\ccx4ZXSQ.s:25011  .debug_str:0000000000008313 .LASF1583
C:\Users\CYMR90~1\AppData\Local\Temp\ccx4ZXSQ.s:33014  .debug_str:0000000000027cad .LASF1584
C:\Users\CYMR90~1\AppData\Local\Temp\ccx4ZXSQ.s:30582  .debug_str:000000000001e5a7 .LASF1585
C:\Users\CYMR90~1\AppData\Local\Temp\ccx4ZXSQ.s:34458  .debug_str:000000000002d674 .LASF1586
C:\Users\CYMR90~1\AppData\Local\Temp\ccx4ZXSQ.s:26351  .debug_str:000000000000d894 .LASF1587
C:\Users\CYMR90~1\AppData\Local\Temp\ccx4ZXSQ.s:24973  .debug_str:0000000000008016 .LASF1588
C:\Users\CYMR90~1\AppData\Local\Temp\ccx4ZXSQ.s:28789  .debug_str:0000000000017231 .LASF1589
C:\Users\CYMR90~1\AppData\Local\Temp\ccx4ZXSQ.s:25861  .debug_str:000000000000b8fb .LASF1590
C:\Users\CYMR90~1\AppData\Local\Temp\ccx4ZXSQ.s:28715  .debug_str:0000000000016d08 .LASF1591
C:\Users\CYMR90~1\AppData\Local\Temp\ccx4ZXSQ.s:25215  .debug_str:0000000000008fd4 .LASF1592
C:\Users\CYMR90~1\AppData\Local\Temp\ccx4ZXSQ.s:27893  .debug_str:0000000000013a2d .LASF1593
C:\Users\CYMR90~1\AppData\Local\Temp\ccx4ZXSQ.s:27197  .debug_str:0000000000010cb6 .LASF1594
C:\Users\CYMR90~1\AppData\Local\Temp\ccx4ZXSQ.s:33256  .debug_str:0000000000028c8d .LASF1595
C:\Users\CYMR90~1\AppData\Local\Temp\ccx4ZXSQ.s:23183  .debug_str:0000000000000f1c .LASF1596
C:\Users\CYMR90~1\AppData\Local\Temp\ccx4ZXSQ.s:30340  .debug_str:000000000001d5dc .LASF1597
C:\Users\CYMR90~1\AppData\Local\Temp\ccx4ZXSQ.s:24115  .debug_str:0000000000004a02 .LASF1598
C:\Users\CYMR90~1\AppData\Local\Temp\ccx4ZXSQ.s:32498  .debug_str:0000000000025b64 .LASF1599
C:\Users\CYMR90~1\AppData\Local\Temp\ccx4ZXSQ.s:23331  .debug_str:0000000000001802 .LASF1600
C:\Users\CYMR90~1\AppData\Local\Temp\ccx4ZXSQ.s:26929  .debug_str:000000000000fba8 .LASF1601
C:\Users\CYMR90~1\AppData\Local\Temp\ccx4ZXSQ.s:31486  .debug_str:0000000000021c4f .LASF1602
C:\Users\CYMR90~1\AppData\Local\Temp\ccx4ZXSQ.s:30364  .debug_str:000000000001d7ec .LASF1603
C:\Users\CYMR90~1\AppData\Local\Temp\ccx4ZXSQ.s:30254  .debug_str:000000000001cf76 .LASF1604
C:\Users\CYMR90~1\AppData\Local\Temp\ccx4ZXSQ.s:32476  .debug_str:0000000000025989 .LASF1605
C:\Users\CYMR90~1\AppData\Local\Temp\ccx4ZXSQ.s:32396  .debug_str:000000000002545c .LASF1606
C:\Users\CYMR90~1\AppData\Local\Temp\ccx4ZXSQ.s:32346  .debug_str:0000000000025107 .LASF1607
C:\Users\CYMR90~1\AppData\Local\Temp\ccx4ZXSQ.s:29262  .debug_str:000000000001906f .LASF1608
C:\Users\CYMR90~1\AppData\Local\Temp\ccx4ZXSQ.s:24091  .debug_str:0000000000004850 .LASF1609
C:\Users\CYMR90~1\AppData\Local\Temp\ccx4ZXSQ.s:31696  .debug_str:00000000000229a9 .LASF1610
C:\Users\CYMR90~1\AppData\Local\Temp\ccx4ZXSQ.s:34356  .debug_str:000000000002cff4 .LASF1611
C:\Users\CYMR90~1\AppData\Local\Temp\ccx4ZXSQ.s:30196  .debug_str:000000000001cbf6 .LASF1612
C:\Users\CYMR90~1\AppData\Local\Temp\ccx4ZXSQ.s:28207  .debug_str:0000000000014e11 .LASF1613
C:\Users\CYMR90~1\AppData\Local\Temp\ccx4ZXSQ.s:25497  .debug_str:000000000000a115 .LASF1614
C:\Users\CYMR90~1\AppData\Local\Temp\ccx4ZXSQ.s:29866  .debug_str:000000000001b85b .LASF1615
C:\Users\CYMR90~1\AppData\Local\Temp\ccx4ZXSQ.s:31582  .debug_str:00000000000222c5 .LASF1616
C:\Users\CYMR90~1\AppData\Local\Temp\ccx4ZXSQ.s:28297  .debug_str:0000000000015344 .LASF1617
C:\Users\CYMR90~1\AppData\Local\Temp\ccx4ZXSQ.s:30266  .debug_str:000000000001d0ef .LASF1618
C:\Users\CYMR90~1\AppData\Local\Temp\ccx4ZXSQ.s:24137  .debug_str:0000000000004be2 .LASF1619
C:\Users\CYMR90~1\AppData\Local\Temp\ccx4ZXSQ.s:25903  .debug_str:000000000000bc3c .LASF1620
C:\Users\CYMR90~1\AppData\Local\Temp\ccx4ZXSQ.s:26769  .debug_str:000000000000f27e .LASF1621
C:\Users\CYMR90~1\AppData\Local\Temp\ccx4ZXSQ.s:23691  .debug_str:0000000000002ee8 .LASF1622
C:\Users\CYMR90~1\AppData\Local\Temp\ccx4ZXSQ.s:31292  .debug_str:0000000000021112 .LASF1623
C:\Users\CYMR90~1\AppData\Local\Temp\ccx4ZXSQ.s:27895  .debug_str:0000000000013ac8 .LASF1624
C:\Users\CYMR90~1\AppData\Local\Temp\ccx4ZXSQ.s:26005  .debug_str:000000000000c334 .LASF1625
C:\Users\CYMR90~1\AppData\Local\Temp\ccx4ZXSQ.s:31992  .debug_str:0000000000023b0e .LASF1626
C:\Users\CYMR90~1\AppData\Local\Temp\ccx4ZXSQ.s:24621  .debug_str:00000000000068f9 .LASF1627
C:\Users\CYMR90~1\AppData\Local\Temp\ccx4ZXSQ.s:31028  .debug_str:00000000000200d4 .LASF1628
C:\Users\CYMR90~1\AppData\Local\Temp\ccx4ZXSQ.s:25747  .debug_str:000000000000b169 .LASF1629
C:\Users\CYMR90~1\AppData\Local\Temp\ccx4ZXSQ.s:31780  .debug_str:0000000000022e51 .LASF1630
C:\Users\CYMR90~1\AppData\Local\Temp\ccx4ZXSQ.s:25199  .debug_str:0000000000008eff .LASF1631
C:\Users\CYMR90~1\AppData\Local\Temp\ccx4ZXSQ.s:23287  .debug_str:000000000000157e .LASF1632
C:\Users\CYMR90~1\AppData\Local\Temp\ccx4ZXSQ.s:29992  .debug_str:000000000001bfd8 .LASF1633
C:\Users\CYMR90~1\AppData\Local\Temp\ccx4ZXSQ.s:28956  .debug_str:0000000000017e10 .LASF1634
C:\Users\CYMR90~1\AppData\Local\Temp\ccx4ZXSQ.s:25989  .debug_str:000000000000c1e4 .LASF1635
C:\Users\CYMR90~1\AppData\Local\Temp\ccx4ZXSQ.s:26095  .debug_str:000000000000c8cb .LASF1636
C:\Users\CYMR90~1\AppData\Local\Temp\ccx4ZXSQ.s:27327  .debug_str:0000000000011572 .LASF1637
C:\Users\CYMR90~1\AppData\Local\Temp\ccx4ZXSQ.s:26171  .debug_str:000000000000cdb5 .LASF1638
C:\Users\CYMR90~1\AppData\Local\Temp\ccx4ZXSQ.s:25875  .debug_str:000000000000ba4a .LASF1639
C:\Users\CYMR90~1\AppData\Local\Temp\ccx4ZXSQ.s:29164  .debug_str:0000000000018ab4 .LASF1640
C:\Users\CYMR90~1\AppData\Local\Temp\ccx4ZXSQ.s:27153  .debug_str:0000000000010a1e .LASF1641
C:\Users\CYMR90~1\AppData\Local\Temp\ccx4ZXSQ.s:32336  .debug_str:000000000002508b .LASF1642
C:\Users\CYMR90~1\AppData\Local\Temp\ccx4ZXSQ.s:27521  .debug_str:00000000000122d0 .LASF1643
C:\Users\CYMR90~1\AppData\Local\Temp\ccx4ZXSQ.s:31178  .debug_str:0000000000020a04 .LASF1644
C:\Users\CYMR90~1\AppData\Local\Temp\ccx4ZXSQ.s:34324  .debug_str:000000000002ce67 .LASF1645
C:\Users\CYMR90~1\AppData\Local\Temp\ccx4ZXSQ.s:23681  .debug_str:0000000000002e60 .LASF1646
C:\Users\CYMR90~1\AppData\Local\Temp\ccx4ZXSQ.s:28753  .debug_str:0000000000016fde .LASF1647
C:\Users\CYMR90~1\AppData\Local\Temp\ccx4ZXSQ.s:28860  .debug_str:0000000000017877 .LASF1648
C:\Users\CYMR90~1\AppData\Local\Temp\ccx4ZXSQ.s:23475  .debug_str:000000000000215d .LASF1649
C:\Users\CYMR90~1\AppData\Local\Temp\ccx4ZXSQ.s:25037  .debug_str:0000000000008574 .LASF1650
C:\Users\CYMR90~1\AppData\Local\Temp\ccx4ZXSQ.s:32012  .debug_str:0000000000023c3c .LASF1651
C:\Users\CYMR90~1\AppData\Local\Temp\ccx4ZXSQ.s:27259  .debug_str:00000000000110c3 .LASF1652
C:\Users\CYMR90~1\AppData\Local\Temp\ccx4ZXSQ.s:24927  .debug_str:0000000000007d0a .LASF1653
C:\Users\CYMR90~1\AppData\Local\Temp\ccx4ZXSQ.s:23223  .debug_str:00000000000011d0 .LASF1654
C:\Users\CYMR90~1\AppData\Local\Temp\ccx4ZXSQ.s:29058  .debug_str:0000000000018465 .LASF1657
C:\Users\CYMR90~1\AppData\Local\Temp\ccx4ZXSQ.s:33886  .debug_str:000000000002b2b7 .LASF1658
C:\Users\CYMR90~1\AppData\Local\Temp\ccx4ZXSQ.s:27289  .debug_str:000000000001138a .LASF1659
C:\Users\CYMR90~1\AppData\Local\Temp\ccx4ZXSQ.s:29392  .debug_str:0000000000019992 .LASF1660
C:\Users\CYMR90~1\AppData\Local\Temp\ccx4ZXSQ.s:34128  .debug_str:000000000002c134 .LASF1661
C:\Users\CYMR90~1\AppData\Local\Temp\ccx4ZXSQ.s:34160  .debug_str:000000000002c377 .LASF1662
C:\Users\CYMR90~1\AppData\Local\Temp\ccx4ZXSQ.s:31374  .debug_str:000000000002160a .LASF1663
C:\Users\CYMR90~1\AppData\Local\Temp\ccx4ZXSQ.s:28259  .debug_str:00000000000150e9 .LASF1664
C:\Users\CYMR90~1\AppData\Local\Temp\ccx4ZXSQ.s:30526  .debug_str:000000000001e254 .LASF1665
C:\Users\CYMR90~1\AppData\Local\Temp\ccx4ZXSQ.s:31466  .debug_str:0000000000021b17 .LASF1666
C:\Users\CYMR90~1\AppData\Local\Temp\ccx4ZXSQ.s:32578  .debug_str:0000000000026152 .LASF1667
C:\Users\CYMR90~1\AppData\Local\Temp\ccx4ZXSQ.s:26677  .debug_str:000000000000eced .LASF1668
C:\Users\CYMR90~1\AppData\Local\Temp\ccx4ZXSQ.s:23925  .debug_str:0000000000003dc2 .LASF1669
C:\Users\CYMR90~1\AppData\Local\Temp\ccx4ZXSQ.s:25237  .debug_str:00000000000091b6 .LASF1670
C:\Users\CYMR90~1\AppData\Local\Temp\ccx4ZXSQ.s:24153  .debug_str:0000000000004ccf .LASF1671
C:\Users\CYMR90~1\AppData\Local\Temp\ccx4ZXSQ.s:23021  .debug_str:00000000000005a7 .LASF1672
C:\Users\CYMR90~1\AppData\Local\Temp\ccx4ZXSQ.s:28179  .debug_str:0000000000014be2 .LASF1673
C:\Users\CYMR90~1\AppData\Local\Temp\ccx4ZXSQ.s:27595  .debug_str:00000000000126f0 .LASF1674
C:\Users\CYMR90~1\AppData\Local\Temp\ccx4ZXSQ.s:26717  .debug_str:000000000000ef27 .LASF1675
C:\Users\CYMR90~1\AppData\Local\Temp\ccx4ZXSQ.s:32358  .debug_str:0000000000025246 .LASF1676
C:\Users\CYMR90~1\AppData\Local\Temp\ccx4ZXSQ.s:27721  .debug_str:0000000000012f26 .LASF1677
C:\Users\CYMR90~1\AppData\Local\Temp\ccx4ZXSQ.s:34326  .debug_str:000000000002ce7c .LASF1678
C:\Users\CYMR90~1\AppData\Local\Temp\ccx4ZXSQ.s:23581  .debug_str:00000000000027be .LASF1679
C:\Users\CYMR90~1\AppData\Local\Temp\ccx4ZXSQ.s:31724  .debug_str:0000000000022b4e .LASF1680
C:\Users\CYMR90~1\AppData\Local\Temp\ccx4ZXSQ.s:28445  .debug_str:0000000000015ca6 .LASF1681
C:\Users\CYMR90~1\AppData\Local\Temp\ccx4ZXSQ.s:27069  .debug_str:00000000000104bd .LASF1682
C:\Users\CYMR90~1\AppData\Local\Temp\ccx4ZXSQ.s:31464  .debug_str:0000000000021ae8 .LASF1683
C:\Users\CYMR90~1\AppData\Local\Temp\ccx4ZXSQ.s:31954  .debug_str:000000000002390f .LASF1684
C:\Users\CYMR90~1\AppData\Local\Temp\ccx4ZXSQ.s:32892  .debug_str:000000000002752f .LASF1685
C:\Users\CYMR90~1\AppData\Local\Temp\ccx4ZXSQ.s:27237  .debug_str:0000000000010fac .LASF1686
C:\Users\CYMR90~1\AppData\Local\Temp\ccx4ZXSQ.s:31272  .debug_str:0000000000020fe2 .LASF1687
C:\Users\CYMR90~1\AppData\Local\Temp\ccx4ZXSQ.s:33620  .debug_str:000000000002a33b .LASF1688
C:\Users\CYMR90~1\AppData\Local\Temp\ccx4ZXSQ.s:25737  .debug_str:000000000000b0bf .LASF1689
C:\Users\CYMR90~1\AppData\Local\Temp\ccx4ZXSQ.s:29948  .debug_str:000000000001bd00 .LASF1690
C:\Users\CYMR90~1\AppData\Local\Temp\ccx4ZXSQ.s:27983  .debug_str:000000000001403f .LASF1691
C:\Users\CYMR90~1\AppData\Local\Temp\ccx4ZXSQ.s:31680  .debug_str:00000000000228c9 .LASF1692
C:\Users\CYMR90~1\AppData\Local\Temp\ccx4ZXSQ.s:29248  .debug_str:0000000000018fba .LASF1693
C:\Users\CYMR90~1\AppData\Local\Temp\ccx4ZXSQ.s:25031  .debug_str:0000000000008500 .LASF1694
C:\Users\CYMR90~1\AppData\Local\Temp\ccx4ZXSQ.s:27149  .debug_str:00000000000109d2 .LASF1695
C:\Users\CYMR90~1\AppData\Local\Temp\ccx4ZXSQ.s:26663  .debug_str:000000000000ec1f .LASF1696
C:\Users\CYMR90~1\AppData\Local\Temp\ccx4ZXSQ.s:28305  .debug_str:00000000000153de .LASF1697
C:\Users\CYMR90~1\AppData\Local\Temp\ccx4ZXSQ.s:30924  .debug_str:000000000001faa7 .LASF1698
C:\Users\CYMR90~1\AppData\Local\Temp\ccx4ZXSQ.s:29430  .debug_str:0000000000019bd2 .LASF1699
C:\Users\CYMR90~1\AppData\Local\Temp\ccx4ZXSQ.s:31386  .debug_str:00000000000216d5 .LASF1700
C:\Users\CYMR90~1\AppData\Local\Temp\ccx4ZXSQ.s:30920  .debug_str:000000000001fa6a .LASF1701
C:\Users\CYMR90~1\AppData\Local\Temp\ccx4ZXSQ.s:32184  .debug_str:000000000002469a .LASF1702
C:\Users\CYMR90~1\AppData\Local\Temp\ccx4ZXSQ.s:32144  .debug_str:0000000000024458 .LASF1703
C:\Users\CYMR90~1\AppData\Local\Temp\ccx4ZXSQ.s:31670  .debug_str:0000000000022837 .LASF1704
C:\Users\CYMR90~1\AppData\Local\Temp\ccx4ZXSQ.s:30076  .debug_str:000000000001c4db .LASF1705
C:\Users\CYMR90~1\AppData\Local\Temp\ccx4ZXSQ.s:31528  .debug_str:0000000000021f4f .LASF1706
C:\Users\CYMR90~1\AppData\Local\Temp\ccx4ZXSQ.s:28938  .debug_str:0000000000017ce2 .LASF1707
C:\Users\CYMR90~1\AppData\Local\Temp\ccx4ZXSQ.s:27897  .debug_str:0000000000013adb .LASF1708
C:\Users\CYMR90~1\AppData\Local\Temp\ccx4ZXSQ.s:30664  .debug_str:000000000001eb04 .LASF1709
C:\Users\CYMR90~1\AppData\Local\Temp\ccx4ZXSQ.s:29166  .debug_str:0000000000018ac9 .LASF1710
C:\Users\CYMR90~1\AppData\Local\Temp\ccx4ZXSQ.s:33092  .debug_str:000000000002818f .LASF1711
C:\Users\CYMR90~1\AppData\Local\Temp\ccx4ZXSQ.s:27541  .debug_str:00000000000123e3 .LASF1712
C:\Users\CYMR90~1\AppData\Local\Temp\ccx4ZXSQ.s:24547  .debug_str:000000000000647d .LASF1713
C:\Users\CYMR90~1\AppData\Local\Temp\ccx4ZXSQ.s:26977  .debug_str:000000000000feea .LASF1714
C:\Users\CYMR90~1\AppData\Local\Temp\ccx4ZXSQ.s:23813  .debug_str:00000000000036e0 .LASF1715
C:\Users\CYMR90~1\AppData\Local\Temp\ccx4ZXSQ.s:27235  .debug_str:0000000000010f80 .LASF1716
C:\Users\CYMR90~1\AppData\Local\Temp\ccx4ZXSQ.s:30634  .debug_str:000000000001e92f .LASF1717
C:\Users\CYMR90~1\AppData\Local\Temp\ccx4ZXSQ.s:29128  .debug_str:0000000000018875 .LASF1718
C:\Users\CYMR90~1\AppData\Local\Temp\ccx4ZXSQ.s:27481  .debug_str:0000000000011f26 .LASF1719
C:\Users\CYMR90~1\AppData\Local\Temp\ccx4ZXSQ.s:29490  .debug_str:0000000000019f7f .LASF1720
C:\Users\CYMR90~1\AppData\Local\Temp\ccx4ZXSQ.s:27975  .debug_str:0000000000013fbc .LASF1721
C:\Users\CYMR90~1\AppData\Local\Temp\ccx4ZXSQ.s:23513  .debug_str:00000000000023a2 .LASF1722
C:\Users\CYMR90~1\AppData\Local\Temp\ccx4ZXSQ.s:29830  .debug_str:000000000001b58f .LASF1723
C:\Users\CYMR90~1\AppData\Local\Temp\ccx4ZXSQ.s:23571  .debug_str:000000000000272f .LASF1724
C:\Users\CYMR90~1\AppData\Local\Temp\ccx4ZXSQ.s:28513  .debug_str:0000000000016076 .LASF1725
C:\Users\CYMR90~1\AppData\Local\Temp\ccx4ZXSQ.s:33424  .debug_str:0000000000029761 .LASF1726
C:\Users\CYMR90~1\AppData\Local\Temp\ccx4ZXSQ.s:31816  .debug_str:000000000002309a .LASF1727
C:\Users\CYMR90~1\AppData\Local\Temp\ccx4ZXSQ.s:33060  .debug_str:0000000000028009 .LASF1728
C:\Users\CYMR90~1\AppData\Local\Temp\ccx4ZXSQ.s:30310  .debug_str:000000000001d3b3 .LASF1729
C:\Users\CYMR90~1\AppData\Local\Temp\ccx4ZXSQ.s:34234  .debug_str:000000000002c88e .LASF1730
C:\Users\CYMR90~1\AppData\Local\Temp\ccx4ZXSQ.s:32882  .debug_str:0000000000027494 .LASF1731
C:\Users\CYMR90~1\AppData\Local\Temp\ccx4ZXSQ.s:27411  .debug_str:0000000000011a7e .LASF1732
C:\Users\CYMR90~1\AppData\Local\Temp\ccx4ZXSQ.s:25351  .debug_str:000000000000980e .LASF1733
C:\Users\CYMR90~1\AppData\Local\Temp\ccx4ZXSQ.s:23291  .debug_str:00000000000015b5 .LASF1734
C:\Users\CYMR90~1\AppData\Local\Temp\ccx4ZXSQ.s:28892  .debug_str:0000000000017a2e .LASF1735
C:\Users\CYMR90~1\AppData\Local\Temp\ccx4ZXSQ.s:31096  .debug_str:00000000000204dd .LASF1736
C:\Users\CYMR90~1\AppData\Local\Temp\ccx4ZXSQ.s:25343  .debug_str:0000000000009798 .LASF1737
C:\Users\CYMR90~1\AppData\Local\Temp\ccx4ZXSQ.s:25053  .debug_str:0000000000008663 .LASF1738
C:\Users\CYMR90~1\AppData\Local\Temp\ccx4ZXSQ.s:32888  .debug_str:0000000000027500 .LASF1739
C:\Users\CYMR90~1\AppData\Local\Temp\ccx4ZXSQ.s:26743  .debug_str:000000000000f0e7 .LASF1740
C:\Users\CYMR90~1\AppData\Local\Temp\ccx4ZXSQ.s:25699  .debug_str:000000000000ae84 .LASF1741
C:\Users\CYMR90~1\AppData\Local\Temp\ccx4ZXSQ.s:30944  .debug_str:000000000001fbcd .LASF1742
C:\Users\CYMR90~1\AppData\Local\Temp\ccx4ZXSQ.s:30588  .debug_str:000000000001e67a .LASF1743
C:\Users\CYMR90~1\AppData\Local\Temp\ccx4ZXSQ.s:33178  .debug_str:0000000000028715 .LASF1744
C:\Users\CYMR90~1\AppData\Local\Temp\ccx4ZXSQ.s:25061  .debug_str:00000000000086e0 .LASF1745
C:\Users\CYMR90~1\AppData\Local\Temp\ccx4ZXSQ.s:27039  .debug_str:00000000000102a0 .LASF1746
C:\Users\CYMR90~1\AppData\Local\Temp\ccx4ZXSQ.s:32186  .debug_str:00000000000246c2 .LASF1747
C:\Users\CYMR90~1\AppData\Local\Temp\ccx4ZXSQ.s:31788  .debug_str:0000000000022eba .LASF1748
C:\Users\CYMR90~1\AppData\Local\Temp\ccx4ZXSQ.s:27231  .debug_str:0000000000010f55 .LASF1749
C:\Users\CYMR90~1\AppData\Local\Temp\ccx4ZXSQ.s:25869  .debug_str:000000000000b9f3 .LASF1750
C:\Users\CYMR90~1\AppData\Local\Temp\ccx4ZXSQ.s:29066  .debug_str:00000000000184cc .LASF1751
C:\Users\CYMR90~1\AppData\Local\Temp\ccx4ZXSQ.s:24187  .debug_str:0000000000004eef .LASF1752
C:\Users\CYMR90~1\AppData\Local\Temp\ccx4ZXSQ.s:29810  .debug_str:000000000001b46b .LASF1753
C:\Users\CYMR90~1\AppData\Local\Temp\ccx4ZXSQ.s:29700  .debug_str:000000000001ad5e .LASF1754
C:\Users\CYMR90~1\AppData\Local\Temp\ccx4ZXSQ.s:26161  .debug_str:000000000000ccb4 .LASF1755
C:\Users\CYMR90~1\AppData\Local\Temp\ccx4ZXSQ.s:27791  .debug_str:00000000000133af .LASF1756
C:\Users\CYMR90~1\AppData\Local\Temp\ccx4ZXSQ.s:29898  .debug_str:000000000001b9ff .LASF1757
C:\Users\CYMR90~1\AppData\Local\Temp\ccx4ZXSQ.s:26837  .debug_str:000000000000f627 .LASF1758
C:\Users\CYMR90~1\AppData\Local\Temp\ccx4ZXSQ.s:24861  .debug_str:00000000000078da .LASF1759
C:\Users\CYMR90~1\AppData\Local\Temp\ccx4ZXSQ.s:29642  .debug_str:000000000001a8b7 .LASF1760
C:\Users\CYMR90~1\AppData\Local\Temp\ccx4ZXSQ.s:25163  .debug_str:0000000000008cc6 .LASF1761
C:\Users\CYMR90~1\AppData\Local\Temp\ccx4ZXSQ.s:23351  .debug_str:00000000000019f7 .LASF1762
C:\Users\CYMR90~1\AppData\Local\Temp\ccx4ZXSQ.s:32374  .debug_str:00000000000252f4 .LASF1763
C:\Users\CYMR90~1\AppData\Local\Temp\ccx4ZXSQ.s:24899  .debug_str:0000000000007b51 .LASF1764
C:\Users\CYMR90~1\AppData\Local\Temp\ccx4ZXSQ.s:24563  .debug_str:0000000000006594 .LASF1765
C:\Users\CYMR90~1\AppData\Local\Temp\ccx4ZXSQ.s:23333  .debug_str:00000000000018b8 .LASF1766
C:\Users\CYMR90~1\AppData\Local\Temp\ccx4ZXSQ.s:30024  .debug_str:000000000001c170 .LASF1767
C:\Users\CYMR90~1\AppData\Local\Temp\ccx4ZXSQ.s:23395  .debug_str:0000000000001ccd .LASF1768
C:\Users\CYMR90~1\AppData\Local\Temp\ccx4ZXSQ.s:32584  .debug_str:0000000000026224 .LASF1769
C:\Users\CYMR90~1\AppData\Local\Temp\ccx4ZXSQ.s:34308  .debug_str:000000000002cd5c .LASF1770
C:\Users\CYMR90~1\AppData\Local\Temp\ccx4ZXSQ.s:26045  .debug_str:000000000000c597 .LASF1771
C:\Users\CYMR90~1\AppData\Local\Temp\ccx4ZXSQ.s:24571  .debug_str:0000000000006609 .LASF1772
C:\Users\CYMR90~1\AppData\Local\Temp\ccx4ZXSQ.s:34370  .debug_str:000000000002d0ed .LASF1773
C:\Users\CYMR90~1\AppData\Local\Temp\ccx4ZXSQ.s:23113  .debug_str:0000000000000aa3 .LASF1774
C:\Users\CYMR90~1\AppData\Local\Temp\ccx4ZXSQ.s:33322  .debug_str:000000000002916e .LASF1775
C:\Users\CYMR90~1\AppData\Local\Temp\ccx4ZXSQ.s:28199  .debug_str:0000000000014d73 .LASF1776
C:\Users\CYMR90~1\AppData\Local\Temp\ccx4ZXSQ.s:26913  .debug_str:000000000000fad1 .LASF1777
C:\Users\CYMR90~1\AppData\Local\Temp\ccx4ZXSQ.s:29054  .debug_str:0000000000018434 .LASF1778
C:\Users\CYMR90~1\AppData\Local\Temp\ccx4ZXSQ.s:24279  .debug_str:0000000000005457 .LASF1779
C:\Users\CYMR90~1\AppData\Local\Temp\ccx4ZXSQ.s:32628  .debug_str:00000000000264f4 .LASF1780
C:\Users\CYMR90~1\AppData\Local\Temp\ccx4ZXSQ.s:31822  .debug_str:0000000000023129 .LASF1781
C:\Users\CYMR90~1\AppData\Local\Temp\ccx4ZXSQ.s:30318  .debug_str:000000000001d455 .LASF1784
C:\Users\CYMR90~1\AppData\Local\Temp\ccx4ZXSQ.s:29440  .debug_str:0000000000019c88 .LASF1785
C:\Users\CYMR90~1\AppData\Local\Temp\ccx4ZXSQ.s:29284  .debug_str:00000000000191bf .LASF1786
C:\Users\CYMR90~1\AppData\Local\Temp\ccx4ZXSQ.s:28245  .debug_str:000000000001503b .LASF1787
C:\Users\CYMR90~1\AppData\Local\Temp\ccx4ZXSQ.s:33754  .debug_str:000000000002aad6 .LASF1788
C:\Users\CYMR90~1\AppData\Local\Temp\ccx4ZXSQ.s:29838  .debug_str:000000000001b61a .LASF1789
C:\Users\CYMR90~1\AppData\Local\Temp\ccx4ZXSQ.s:23863  .debug_str:0000000000003a36 .LASF1790
C:\Users\CYMR90~1\AppData\Local\Temp\ccx4ZXSQ.s:22957  .debug_str:00000000000001e7 .LASF1791
C:\Users\CYMR90~1\AppData\Local\Temp\ccx4ZXSQ.s:32978  .debug_str:0000000000027a4d .LASF1792
C:\Users\CYMR90~1\AppData\Local\Temp\ccx4ZXSQ.s:32042  .debug_str:0000000000023df4 .LASF1793
C:\Users\CYMR90~1\AppData\Local\Temp\ccx4ZXSQ.s:33956  .debug_str:000000000002b691 .LASF1794
C:\Users\CYMR90~1\AppData\Local\Temp\ccx4ZXSQ.s:33260  .debug_str:0000000000028d58 .LASF1795
C:\Users\CYMR90~1\AppData\Local\Temp\ccx4ZXSQ.s:27909  .debug_str:0000000000013ba5 .LASF1796
C:\Users\CYMR90~1\AppData\Local\Temp\ccx4ZXSQ.s:28183  .debug_str:0000000000014c24 .LASF1797
C:\Users\CYMR90~1\AppData\Local\Temp\ccx4ZXSQ.s:27293  .debug_str:00000000000113a7 .LASF1798
C:\Users\CYMR90~1\AppData\Local\Temp\ccx4ZXSQ.s:26071  .debug_str:000000000000c740 .LASF1799
C:\Users\CYMR90~1\AppData\Local\Temp\ccx4ZXSQ.s:28970  .debug_str:0000000000017eec .LASF1800
C:\Users\CYMR90~1\AppData\Local\Temp\ccx4ZXSQ.s:29276  .debug_str:000000000001914e .LASF1801
C:\Users\CYMR90~1\AppData\Local\Temp\ccx4ZXSQ.s:28329  .debug_str:000000000001559d .LASF1802
C:\Users\CYMR90~1\AppData\Local\Temp\ccx4ZXSQ.s:27349  .debug_str:00000000000116ab .LASF1803
C:\Users\CYMR90~1\AppData\Local\Temp\ccx4ZXSQ.s:26815  .debug_str:000000000000f4fb .LASF1804
C:\Users\CYMR90~1\AppData\Local\Temp\ccx4ZXSQ.s:31618  .debug_str:000000000002252f .LASF1805
C:\Users\CYMR90~1\AppData\Local\Temp\ccx4ZXSQ.s:28209  .debug_str:0000000000014e35 .LASF1806
C:\Users\CYMR90~1\AppData\Local\Temp\ccx4ZXSQ.s:31220  .debug_str:0000000000020c3c .LASF1807
C:\Users\CYMR90~1\AppData\Local\Temp\ccx4ZXSQ.s:28353  .debug_str:0000000000015739 .LASF1808
C:\Users\CYMR90~1\AppData\Local\Temp\ccx4ZXSQ.s:33252  .debug_str:0000000000028c4c .LASF1809
C:\Users\CYMR90~1\AppData\Local\Temp\ccx4ZXSQ.s:30422  .debug_str:000000000001dbb7 .LASF1810
C:\Users\CYMR90~1\AppData\Local\Temp\ccx4ZXSQ.s:29072  .debug_str:0000000000018541 .LASF1811
C:\Users\CYMR90~1\AppData\Local\Temp\ccx4ZXSQ.s:23313  .debug_str:0000000000001701 .LASF1812
C:\Users\CYMR90~1\AppData\Local\Temp\ccx4ZXSQ.s:26049  .debug_str:000000000000c5f2 .LASF1813
C:\Users\CYMR90~1\AppData\Local\Temp\ccx4ZXSQ.s:27525  .debug_str:0000000000012302 .LASF1814
C:\Users\CYMR90~1\AppData\Local\Temp\ccx4ZXSQ.s:30402  .debug_str:000000000001daaa .LASF1815
C:\Users\CYMR90~1\AppData\Local\Temp\ccx4ZXSQ.s:29034  .debug_str:0000000000018319 .LASF1816
C:\Users\CYMR90~1\AppData\Local\Temp\ccx4ZXSQ.s:30408  .debug_str:000000000001db0d .LASF1817
C:\Users\CYMR90~1\AppData\Local\Temp\ccx4ZXSQ.s:30868  .debug_str:000000000001f721 .LASF1818
C:\Users\CYMR90~1\AppData\Local\Temp\ccx4ZXSQ.s:27037  .debug_str:000000000001028b .LASF1819
C:\Users\CYMR90~1\AppData\Local\Temp\ccx4ZXSQ.s:25675  .debug_str:000000000000acf1 .LASF1820
C:\Users\CYMR90~1\AppData\Local\Temp\ccx4ZXSQ.s:24591  .debug_str:0000000000006751 .LASF1821
C:\Users\CYMR90~1\AppData\Local\Temp\ccx4ZXSQ.s:24993  .debug_str:00000000000081e9 .LASF1822
C:\Users\CYMR90~1\AppData\Local\Temp\ccx4ZXSQ.s:30792  .debug_str:000000000001f2ca .LASF1823
C:\Users\CYMR90~1\AppData\Local\Temp\ccx4ZXSQ.s:33532  .debug_str:0000000000029e0f .LASF1824
C:\Users\CYMR90~1\AppData\Local\Temp\ccx4ZXSQ.s:25941  .debug_str:000000000000bef4 .LASF1825
C:\Users\CYMR90~1\AppData\Local\Temp\ccx4ZXSQ.s:31454  .debug_str:0000000000021a6d .LASF1826
C:\Users\CYMR90~1\AppData\Local\Temp\ccx4ZXSQ.s:33894  .debug_str:000000000002b30f .LASF1827
C:\Users\CYMR90~1\AppData\Local\Temp\ccx4ZXSQ.s:26785  .debug_str:000000000000f35b .LASF1828
C:\Users\CYMR90~1\AppData\Local\Temp\ccx4ZXSQ.s:26857  .debug_str:000000000000f7a5 .LASF1829
C:\Users\CYMR90~1\AppData\Local\Temp\ccx4ZXSQ.s:33264  .debug_str:0000000000028d95 .LASF1830
C:\Users\CYMR90~1\AppData\Local\Temp\ccx4ZXSQ.s:25371  .debug_str:00000000000099a5 .LASF1831
C:\Users\CYMR90~1\AppData\Local\Temp\ccx4ZXSQ.s:32918  .debug_str:0000000000027675 .LASF1832
C:\Users\CYMR90~1\AppData\Local\Temp\ccx4ZXSQ.s:26213  .debug_str:000000000000d081 .LASF1833
C:\Users\CYMR90~1\AppData\Local\Temp\ccx4ZXSQ.s:32530  .debug_str:0000000000025e22 .LASF1834
C:\Users\CYMR90~1\AppData\Local\Temp\ccx4ZXSQ.s:28667  .debug_str:0000000000016a6f .LASF1835
C:\Users\CYMR90~1\AppData\Local\Temp\ccx4ZXSQ.s:32776  .debug_str:0000000000026e2b .LASF1836
C:\Users\CYMR90~1\AppData\Local\Temp\ccx4ZXSQ.s:28637  .debug_str:00000000000168be .LASF1837
C:\Users\CYMR90~1\AppData\Local\Temp\ccx4ZXSQ.s:29368  .debug_str:000000000001975d .LASF1838
C:\Users\CYMR90~1\AppData\Local\Temp\ccx4ZXSQ.s:27297  .debug_str:00000000000113df .LASF1839
C:\Users\CYMR90~1\AppData\Local\Temp\ccx4ZXSQ.s:30350  .debug_str:000000000001d702 .LASF1840
C:\Users\CYMR90~1\AppData\Local\Temp\ccx4ZXSQ.s:29606  .debug_str:000000000001a6b3 .LASF1841
C:\Users\CYMR90~1\AppData\Local\Temp\ccx4ZXSQ.s:32458  .debug_str:0000000000025877 .LASF1842
C:\Users\CYMR90~1\AppData\Local\Temp\ccx4ZXSQ.s:32872  .debug_str:00000000000273f3 .LASF1843
C:\Users\CYMR90~1\AppData\Local\Temp\ccx4ZXSQ.s:34094  .debug_str:000000000002bf4e .LASF1844
C:\Users\CYMR90~1\AppData\Local\Temp\ccx4ZXSQ.s:33948  .debug_str:000000000002b617 .LASF1845
C:\Users\CYMR90~1\AppData\Local\Temp\ccx4ZXSQ.s:25099  .debug_str:000000000000892e .LASF1846
C:\Users\CYMR90~1\AppData\Local\Temp\ccx4ZXSQ.s:30566  .debug_str:000000000001e496 .LASF1847
C:\Users\CYMR90~1\AppData\Local\Temp\ccx4ZXSQ.s:23227  .debug_str:0000000000001221 .LASF1848
C:\Users\CYMR90~1\AppData\Local\Temp\ccx4ZXSQ.s:31742  .debug_str:0000000000022c57 .LASF1849
C:\Users\CYMR90~1\AppData\Local\Temp\ccx4ZXSQ.s:30954  .debug_str:000000000001fc6b .LASF1850
C:\Users\CYMR90~1\AppData\Local\Temp\ccx4ZXSQ.s:25155  .debug_str:0000000000008c4c .LASF1851
C:\Users\CYMR90~1\AppData\Local\Temp\ccx4ZXSQ.s:32820  .debug_str:00000000000270fb .LASF1852
C:\Users\CYMR90~1\AppData\Local\Temp\ccx4ZXSQ.s:26463  .debug_str:000000000000dfb0 .LASF1853
C:\Users\CYMR90~1\AppData\Local\Temp\ccx4ZXSQ.s:23759  .debug_str:000000000000334d .LASF1854
C:\Users\CYMR90~1\AppData\Local\Temp\ccx4ZXSQ.s:30444  .debug_str:000000000001dd22 .LASF1855
C:\Users\CYMR90~1\AppData\Local\Temp\ccx4ZXSQ.s:33098  .debug_str:00000000000281ef .LASF1856
C:\Users\CYMR90~1\AppData\Local\Temp\ccx4ZXSQ.s:25247  .debug_str:000000000000926b .LASF1857
C:\Users\CYMR90~1\AppData\Local\Temp\ccx4ZXSQ.s:26143  .debug_str:000000000000cba8 .LASF1858
C:\Users\CYMR90~1\AppData\Local\Temp\ccx4ZXSQ.s:33200  .debug_str:00000000000288ad .LASF1859
C:\Users\CYMR90~1\AppData\Local\Temp\ccx4ZXSQ.s:28363  .debug_str:00000000000157ae .LASF1860
C:\Users\CYMR90~1\AppData\Local\Temp\ccx4ZXSQ.s:29306  .debug_str:00000000000193ad .LASF1861
C:\Users\CYMR90~1\AppData\Local\Temp\ccx4ZXSQ.s:27087  .debug_str:00000000000105be .LASF1862
C:\Users\CYMR90~1\AppData\Local\Temp\ccx4ZXSQ.s:24749  .debug_str:0000000000007173 .LASF1863
C:\Users\CYMR90~1\AppData\Local\Temp\ccx4ZXSQ.s:29212  .debug_str:0000000000018d7a .LASF1864
C:\Users\CYMR90~1\AppData\Local\Temp\ccx4ZXSQ.s:24389  .debug_str:0000000000005b21 .LASF1865
C:\Users\CYMR90~1\AppData\Local\Temp\ccx4ZXSQ.s:31926  .debug_str:0000000000023777 .LASF1866
C:\Users\CYMR90~1\AppData\Local\Temp\ccx4ZXSQ.s:31146  .debug_str:0000000000020807 .LASF1867
C:\Users\CYMR90~1\AppData\Local\Temp\ccx4ZXSQ.s:26069  .debug_str:000000000000c710 .LASF1868
C:\Users\CYMR90~1\AppData\Local\Temp\ccx4ZXSQ.s:23093  .debug_str:000000000000095d .LASF1869
C:\Users\CYMR90~1\AppData\Local\Temp\ccx4ZXSQ.s:25077  .debug_str:00000000000087df .LASF1870
C:\Users\CYMR90~1\AppData\Local\Temp\ccx4ZXSQ.s:33478  .debug_str:0000000000029ad9 .LASF1871
C:\Users\CYMR90~1\AppData\Local\Temp\ccx4ZXSQ.s:32560  .debug_str:0000000000026022 .LASF1872
C:\Users\CYMR90~1\AppData\Local\Temp\ccx4ZXSQ.s:28830  .debug_str:00000000000176bf .LASF1873
C:\Users\CYMR90~1\AppData\Local\Temp\ccx4ZXSQ.s:24935  .debug_str:0000000000007dc4 .LASF1874
C:\Users\CYMR90~1\AppData\Local\Temp\ccx4ZXSQ.s:25845  .debug_str:000000000000b7f6 .LASF1875
C:\Users\CYMR90~1\AppData\Local\Temp\ccx4ZXSQ.s:33656  .debug_str:000000000002a552 .LASF1876
C:\Users\CYMR90~1\AppData\Local\Temp\ccx4ZXSQ.s:23779  .debug_str:00000000000034ab .LASF1877
C:\Users\CYMR90~1\AppData\Local\Temp\ccx4ZXSQ.s:25881  .debug_str:000000000000ba9f .LASF1878
C:\Users\CYMR90~1\AppData\Local\Temp\ccx4ZXSQ.s:26917  .debug_str:000000000000fb0a .LASF1879
C:\Users\CYMR90~1\AppData\Local\Temp\ccx4ZXSQ.s:25201  .debug_str:0000000000008f16 .LASF1880
C:\Users\CYMR90~1\AppData\Local\Temp\ccx4ZXSQ.s:30934  .debug_str:000000000001fb37 .LASF1881
C:\Users\CYMR90~1\AppData\Local\Temp\ccx4ZXSQ.s:23205  .debug_str:00000000000010c3 .LASF1882
C:\Users\CYMR90~1\AppData\Local\Temp\ccx4ZXSQ.s:31344  .debug_str:000000000002144c .LASF1883
C:\Users\CYMR90~1\AppData\Local\Temp\ccx4ZXSQ.s:34090  .debug_str:000000000002bf06 .LASF1884
C:\Users\CYMR90~1\AppData\Local\Temp\ccx4ZXSQ.s:31046  .debug_str:00000000000201e4 .LASF1885
C:\Users\CYMR90~1\AppData\Local\Temp\ccx4ZXSQ.s:33216  .debug_str:00000000000289a7 .LASF1886
C:\Users\CYMR90~1\AppData\Local\Temp\ccx4ZXSQ.s:25429  .debug_str:0000000000009d39 .LASF1887
C:\Users\CYMR90~1\AppData\Local\Temp\ccx4ZXSQ.s:25231  .debug_str:0000000000009152 .LASF1888
C:\Users\CYMR90~1\AppData\Local\Temp\ccx4ZXSQ.s:34124  .debug_str:000000000002c0f2 .LASF1889
C:\Users\CYMR90~1\AppData\Local\Temp\ccx4ZXSQ.s:29456  .debug_str:0000000000019d3b .LASF1890
C:\Users\CYMR90~1\AppData\Local\Temp\ccx4ZXSQ.s:25421  .debug_str:0000000000009c93 .LASF1891
C:\Users\CYMR90~1\AppData\Local\Temp\ccx4ZXSQ.s:25517  .debug_str:000000000000a26a .LASF1892
C:\Users\CYMR90~1\AppData\Local\Temp\ccx4ZXSQ.s:24701  .debug_str:0000000000006e4b .LASF1893
C:\Users\CYMR90~1\AppData\Local\Temp\ccx4ZXSQ.s:25225  .debug_str:00000000000090f6 .LASF1894
C:\Users\CYMR90~1\AppData\Local\Temp\ccx4ZXSQ.s:28769  .debug_str:00000000000170ec .LASF1895
C:\Users\CYMR90~1\AppData\Local\Temp\ccx4ZXSQ.s:29526  .debug_str:000000000001a218 .LASF1896
C:\Users\CYMR90~1\AppData\Local\Temp\ccx4ZXSQ.s:23411  .debug_str:0000000000001da9 .LASF1897
C:\Users\CYMR90~1\AppData\Local\Temp\ccx4ZXSQ.s:32944  .debug_str:0000000000027838 .LASF1898
C:\Users\CYMR90~1\AppData\Local\Temp\ccx4ZXSQ.s:29706  .debug_str:000000000001add0 .LASF1899
C:\Users\CYMR90~1\AppData\Local\Temp\ccx4ZXSQ.s:26353  .debug_str:000000000000d94c .LASF1900
C:\Users\CYMR90~1\AppData\Local\Temp\ccx4ZXSQ.s:23003  .debug_str:0000000000000496 .LASF1901
C:\Users\CYMR90~1\AppData\Local\Temp\ccx4ZXSQ.s:23847  .debug_str:000000000000390e .LASF1902
C:\Users\CYMR90~1\AppData\Local\Temp\ccx4ZXSQ.s:25965  .debug_str:000000000000c023 .LASF1903
C:\Users\CYMR90~1\AppData\Local\Temp\ccx4ZXSQ.s:34372  .debug_str:000000000002d114 .LASF1904
C:\Users\CYMR90~1\AppData\Local\Temp\ccx4ZXSQ.s:28773  .debug_str:000000000001712d .LASF1905
C:\Users\CYMR90~1\AppData\Local\Temp\ccx4ZXSQ.s:25391  .debug_str:0000000000009a75 .LASF1906
C:\Users\CYMR90~1\AppData\Local\Temp\ccx4ZXSQ.s:33292  .debug_str:0000000000028f1a .LASF1907
C:\Users\CYMR90~1\AppData\Local\Temp\ccx4ZXSQ.s:30274  .debug_str:000000000001d165 .LASF1908
C:\Users\CYMR90~1\AppData\Local\Temp\ccx4ZXSQ.s:24377  .debug_str:0000000000005a4f .LASF1909
C:\Users\CYMR90~1\AppData\Local\Temp\ccx4ZXSQ.s:33646  .debug_str:000000000002a4b1 .LASF1910
C:\Users\CYMR90~1\AppData\Local\Temp\ccx4ZXSQ.s:29884  .debug_str:000000000001b952 .LASF1911
C:\Users\CYMR90~1\AppData\Local\Temp\ccx4ZXSQ.s:23159  .debug_str:0000000000000dae .LASF1912
C:\Users\CYMR90~1\AppData\Local\Temp\ccx4ZXSQ.s:25867  .debug_str:000000000000b9d4 .LASF1913
C:\Users\CYMR90~1\AppData\Local\Temp\ccx4ZXSQ.s:25695  .debug_str:000000000000ae2c .LASF1914
C:\Users\CYMR90~1\AppData\Local\Temp\ccx4ZXSQ.s:31250  .debug_str:0000000000020e2b .LASF1915
C:\Users\CYMR90~1\AppData\Local\Temp\ccx4ZXSQ.s:32534  .debug_str:0000000000025e63 .LASF1916
C:\Users\CYMR90~1\AppData\Local\Temp\ccx4ZXSQ.s:29070  .debug_str:0000000000018515 .LASF1917
C:\Users\CYMR90~1\AppData\Local\Temp\ccx4ZXSQ.s:25597  .debug_str:000000000000a79c .LASF1918
C:\Users\CYMR90~1\AppData\Local\Temp\ccx4ZXSQ.s:33706  .debug_str:000000000002a81a .LASF1919
C:\Users\CYMR90~1\AppData\Local\Temp\ccx4ZXSQ.s:30246  .debug_str:000000000001ceeb .LASF1920
C:\Users\CYMR90~1\AppData\Local\Temp\ccx4ZXSQ.s:25913  .debug_str:000000000000bce9 .LASF1921
C:\Users\CYMR90~1\AppData\Local\Temp\ccx4ZXSQ.s:24775  .debug_str:000000000000732f .LASF1922
C:\Users\CYMR90~1\AppData\Local\Temp\ccx4ZXSQ.s:31318  .debug_str:00000000000212c4 .LASF1923
C:\Users\CYMR90~1\AppData\Local\Temp\ccx4ZXSQ.s:33434  .debug_str:00000000000297fe .LASF1924
C:\Users\CYMR90~1\AppData\Local\Temp\ccx4ZXSQ.s:25717  .debug_str:000000000000af9a .LASF1925
C:\Users\CYMR90~1\AppData\Local\Temp\ccx4ZXSQ.s:31142  .debug_str:00000000000207b3 .LASF1926
C:\Users\CYMR90~1\AppData\Local\Temp\ccx4ZXSQ.s:30128  .debug_str:000000000001c801 .LASF1927
C:\Users\CYMR90~1\AppData\Local\Temp\ccx4ZXSQ.s:23885  .debug_str:0000000000003b6f .LASF1928
C:\Users\CYMR90~1\AppData\Local\Temp\ccx4ZXSQ.s:24825  .debug_str:000000000000768f .LASF1929
C:\Users\CYMR90~1\AppData\Local\Temp\ccx4ZXSQ.s:31068  .debug_str:0000000000020319 .LASF1930
C:\Users\CYMR90~1\AppData\Local\Temp\ccx4ZXSQ.s:34406  .debug_str:000000000002d36f .LASF1931
C:\Users\CYMR90~1\AppData\Local\Temp\ccx4ZXSQ.s:34082  .debug_str:000000000002be6c .LASF1932
C:\Users\CYMR90~1\AppData\Local\Temp\ccx4ZXSQ.s:24949  .debug_str:0000000000007e72 .LASF1933
C:\Users\CYMR90~1\AppData\Local\Temp\ccx4ZXSQ.s:27067  .debug_str:000000000001048d .LASF1934
C:\Users\CYMR90~1\AppData\Local\Temp\ccx4ZXSQ.s:30210  .debug_str:000000000001ccad .LASF1935
C:\Users\CYMR90~1\AppData\Local\Temp\ccx4ZXSQ.s:24419  .debug_str:0000000000005ce0 .LASF1936
C:\Users\CYMR90~1\AppData\Local\Temp\ccx4ZXSQ.s:30062  .debug_str:000000000001c3be .LASF1937
C:\Users\CYMR90~1\AppData\Local\Temp\ccx4ZXSQ.s:29014  .debug_str:00000000000181fc .LASF1938
C:\Users\CYMR90~1\AppData\Local\Temp\ccx4ZXSQ.s:28307  .debug_str:000000000001540a .LASF1939
C:\Users\CYMR90~1\AppData\Local\Temp\ccx4ZXSQ.s:25145  .debug_str:0000000000008bbe .LASF1940
C:\Users\CYMR90~1\AppData\Local\Temp\ccx4ZXSQ.s:33496  .debug_str:0000000000029c0d .LASF1941
C:\Users\CYMR90~1\AppData\Local\Temp\ccx4ZXSQ.s:30332  .debug_str:000000000001d545 .LASF1942
C:\Users\CYMR90~1\AppData\Local\Temp\ccx4ZXSQ.s:26105  .debug_str:000000000000c957 .LASF1943
C:\Users\CYMR90~1\AppData\Local\Temp\ccx4ZXSQ.s:27279  .debug_str:0000000000011259 .LASF1944
C:\Users\CYMR90~1\AppData\Local\Temp\ccx4ZXSQ.s:31182  .debug_str:0000000000020a40 .LASF1945
C:\Users\CYMR90~1\AppData\Local\Temp\ccx4ZXSQ.s:28017  .debug_str:0000000000014269 .LASF1946
C:\Users\CYMR90~1\AppData\Local\Temp\ccx4ZXSQ.s:24713  .debug_str:0000000000006f33 .LASF1947
C:\Users\CYMR90~1\AppData\Local\Temp\ccx4ZXSQ.s:23603  .debug_str:0000000000002967 .LASF1948
C:\Users\CYMR90~1\AppData\Local\Temp\ccx4ZXSQ.s:29944  .debug_str:000000000001bcd0 .LASF1949
C:\Users\CYMR90~1\AppData\Local\Temp\ccx4ZXSQ.s:26803  .debug_str:000000000000f446 .LASF1950
C:\Users\CYMR90~1\AppData\Local\Temp\ccx4ZXSQ.s:23473  .debug_str:000000000000213e .LASF1951
C:\Users\CYMR90~1\AppData\Local\Temp\ccx4ZXSQ.s:31942  .debug_str:0000000000023842 .LASF1952
C:\Users\CYMR90~1\AppData\Local\Temp\ccx4ZXSQ.s:24801  .debug_str:0000000000007528 .LASF1953
C:\Users\CYMR90~1\AppData\Local\Temp\ccx4ZXSQ.s:28141  .debug_str:00000000000149ba .LASF1954
C:\Users\CYMR90~1\AppData\Local\Temp\ccx4ZXSQ.s:31468  .debug_str:0000000000021b3a .LASF1955
C:\Users\CYMR90~1\AppData\Local\Temp\ccx4ZXSQ.s:32140  .debug_str:0000000000024421 .LASF1956
C:\Users\CYMR90~1\AppData\Local\Temp\ccx4ZXSQ.s:23527  .debug_str:000000000000246a .LASF1957
C:\Users\CYMR90~1\AppData\Local\Temp\ccx4ZXSQ.s:33920  .debug_str:000000000002b46a .LASF1958
C:\Users\CYMR90~1\AppData\Local\Temp\ccx4ZXSQ.s:24955  .debug_str:0000000000007ee3 .LASF1959
C:\Users\CYMR90~1\AppData\Local\Temp\ccx4ZXSQ.s:33480  .debug_str:0000000000029b18 .LASF1960
C:\Users\CYMR90~1\AppData\Local\Temp\ccx4ZXSQ.s:30284  .debug_str:000000000001d21d .LASF1961
C:\Users\CYMR90~1\AppData\Local\Temp\ccx4ZXSQ.s:25751  .debug_str:000000000000b1a0 .LASF1962
C:\Users\CYMR90~1\AppData\Local\Temp\ccx4ZXSQ.s:28549  .debug_str:0000000000016286 .LASF1963
C:\Users\CYMR90~1\AppData\Local\Temp\ccx4ZXSQ.s:32512  .debug_str:0000000000025cd6 .LASF1964
C:\Users\CYMR90~1\AppData\Local\Temp\ccx4ZXSQ.s:24779  .debug_str:000000000000739a .LASF1965
C:\Users\CYMR90~1\AppData\Local\Temp\ccx4ZXSQ.s:30432  .debug_str:000000000001dc40 .LASF1966
C:\Users\CYMR90~1\AppData\Local\Temp\ccx4ZXSQ.s:34020  .debug_str:000000000002ba23 .LASF1967
C:\Users\CYMR90~1\AppData\Local\Temp\ccx4ZXSQ.s:31520  .debug_str:0000000000021efc .LASF1968
C:\Users\CYMR90~1\AppData\Local\Temp\ccx4ZXSQ.s:31830  .debug_str:00000000000231b1 .LASF1969
C:\Users\CYMR90~1\AppData\Local\Temp\ccx4ZXSQ.s:24759  .debug_str:0000000000007230 .LASF1970
C:\Users\CYMR90~1\AppData\Local\Temp\ccx4ZXSQ.s:23455  .debug_str:000000000000205a .LASF1971
C:\Users\CYMR90~1\AppData\Local\Temp\ccx4ZXSQ.s:32552  .debug_str:0000000000025f8e .LASF1972
C:\Users\CYMR90~1\AppData\Local\Temp\ccx4ZXSQ.s:29546  .debug_str:000000000001a371 .LASF1973
C:\Users\CYMR90~1\AppData\Local\Temp\ccx4ZXSQ.s:29352  .debug_str:0000000000019667 .LASF1974
C:\Users\CYMR90~1\AppData\Local\Temp\ccx4ZXSQ.s:26117  .debug_str:000000000000c9f0 .LASF1975
C:\Users\CYMR90~1\AppData\Local\Temp\ccx4ZXSQ.s:24975  .debug_str:00000000000080cc .LASF1976
C:\Users\CYMR90~1\AppData\Local\Temp\ccx4ZXSQ.s:25337  .debug_str:000000000000974f .LASF1977
C:\Users\CYMR90~1\AppData\Local\Temp\ccx4ZXSQ.s:33728  .debug_str:000000000002a941 .LASF1978
C:\Users\CYMR90~1\AppData\Local\Temp\ccx4ZXSQ.s:24237  .debug_str:00000000000051dc .LASF1979
C:\Users\CYMR90~1\AppData\Local\Temp\ccx4ZXSQ.s:32446  .debug_str:00000000000257ac .LASF1980
C:\Users\CYMR90~1\AppData\Local\Temp\ccx4ZXSQ.s:32298  .debug_str:0000000000024e36 .LASF1981
C:\Users\CYMR90~1\AppData\Local\Temp\ccx4ZXSQ.s:32148  .debug_str:00000000000244a8 .LASF1982
C:\Users\CYMR90~1\AppData\Local\Temp\ccx4ZXSQ.s:32994  .debug_str:0000000000027b2b .LASF1983
C:\Users\CYMR90~1\AppData\Local\Temp\ccx4ZXSQ.s:33924  .debug_str:000000000002b4c0 .LASF1984
C:\Users\CYMR90~1\AppData\Local\Temp\ccx4ZXSQ.s:24925  .debug_str:0000000000007ce7 .LASF1985
C:\Users\CYMR90~1\AppData\Local\Temp\ccx4ZXSQ.s:29980  .debug_str:000000000001bf1a .LASF1986
C:\Users\CYMR90~1\AppData\Local\Temp\ccx4ZXSQ.s:28221  .debug_str:0000000000014ec1 .LASF1987
C:\Users\CYMR90~1\AppData\Local\Temp\ccx4ZXSQ.s:29244  .debug_str:0000000000018f81 .LASF1988
C:\Users\CYMR90~1\AppData\Local\Temp\ccx4ZXSQ.s:26207  .debug_str:000000000000d027 .LASF1989
C:\Users\CYMR90~1\AppData\Local\Temp\ccx4ZXSQ.s:25193  .debug_str:0000000000008ea5 .LASF1990
C:\Users\CYMR90~1\AppData\Local\Temp\ccx4ZXSQ.s:26273  .debug_str:000000000000d3bb .LASF1991
C:\Users\CYMR90~1\AppData\Local\Temp\ccx4ZXSQ.s:29598  .debug_str:000000000001a643 .LASF1992
C:\Users\CYMR90~1\AppData\Local\Temp\ccx4ZXSQ.s:29984  .debug_str:000000000001bf61 .LASF1993
C:\Users\CYMR90~1\AppData\Local\Temp\ccx4ZXSQ.s:23201  .debug_str:0000000000001093 .LASF1994
C:\Users\CYMR90~1\AppData\Local\Temp\ccx4ZXSQ.s:32568  .debug_str:00000000000260a9 .LASF1995
C:\Users\CYMR90~1\AppData\Local\Temp\ccx4ZXSQ.s:23845  .debug_str:00000000000038da .LASF1996
C:\Users\CYMR90~1\AppData\Local\Temp\ccx4ZXSQ.s:33046  .debug_str:0000000000027f39 .LASF1997
C:\Users\CYMR90~1\AppData\Local\Temp\ccx4ZXSQ.s:25117  .debug_str:0000000000008a0f .LASF1998
C:\Users\CYMR90~1\AppData\Local\Temp\ccx4ZXSQ.s:29172  .debug_str:0000000000018b24 .LASF1999
C:\Users\CYMR90~1\AppData\Local\Temp\ccx4ZXSQ.s:28655  .debug_str:00000000000169c6 .LASF2000
C:\Users\CYMR90~1\AppData\Local\Temp\ccx4ZXSQ.s:27447  .debug_str:0000000000011ce6 .LASF2001
C:\Users\CYMR90~1\AppData\Local\Temp\ccx4ZXSQ.s:31840  .debug_str:000000000002324e .LASF2002
C:\Users\CYMR90~1\AppData\Local\Temp\ccx4ZXSQ.s:33270  .debug_str:0000000000028dda .LASF2003
C:\Users\CYMR90~1\AppData\Local\Temp\ccx4ZXSQ.s:26971  .debug_str:000000000000fe9f .LASF2004
C:\Users\CYMR90~1\AppData\Local\Temp\ccx4ZXSQ.s:31726  .debug_str:0000000000022b63 .LASF2005
C:\Users\CYMR90~1\AppData\Local\Temp\ccx4ZXSQ.s:28862  .debug_str:000000000001788b .LASF2006
C:\Users\CYMR90~1\AppData\Local\Temp\ccx4ZXSQ.s:34176  .debug_str:000000000002c49f .LASF2007
C:\Users\CYMR90~1\AppData\Local\Temp\ccx4ZXSQ.s:24281  .debug_str:000000000000547f .LASF2008
C:\Users\CYMR90~1\AppData\Local\Temp\ccx4ZXSQ.s:27941  .debug_str:0000000000013dc6 .LASF2009
C:\Users\CYMR90~1\AppData\Local\Temp\ccx4ZXSQ.s:30718  .debug_str:000000000001ee86 .LASF2010
C:\Users\CYMR90~1\AppData\Local\Temp\ccx4ZXSQ.s:26239  .debug_str:000000000000d214 .LASF2011
C:\Users\CYMR90~1\AppData\Local\Temp\ccx4ZXSQ.s:28415  .debug_str:0000000000015ada .LASF2012
C:\Users\CYMR90~1\AppData\Local\Temp\ccx4ZXSQ.s:32026  .debug_str:0000000000023d14 .LASF2013
C:\Users\CYMR90~1\AppData\Local\Temp\ccx4ZXSQ.s:31778  .debug_str:0000000000022e39 .LASF2014
C:\Users\CYMR90~1\AppData\Local\Temp\ccx4ZXSQ.s:29684  .debug_str:000000000001ac74 .LASF2015
C:\Users\CYMR90~1\AppData\Local\Temp\ccx4ZXSQ.s:29378  .debug_str:00000000000198ce .LASF2016
C:\Users\CYMR90~1\AppData\Local\Temp\ccx4ZXSQ.s:31934  .debug_str:00000000000237eb .LASF2017
C:\Users\CYMR90~1\AppData\Local\Temp\ccx4ZXSQ.s:34084  .debug_str:000000000002be9c .LASF2018
C:\Users\CYMR90~1\AppData\Local\Temp\ccx4ZXSQ.s:30476  .debug_str:000000000001df04 .LASF2019
C:\Users\CYMR90~1\AppData\Local\Temp\ccx4ZXSQ.s:24655  .debug_str:0000000000006b4e .LASF2020
C:\Users\CYMR90~1\AppData\Local\Temp\ccx4ZXSQ.s:31978  .debug_str:0000000000023a6a .LASF2021
C:\Users\CYMR90~1\AppData\Local\Temp\ccx4ZXSQ.s:32984  .debug_str:0000000000027aad .LASF2022
C:\Users\CYMR90~1\AppData\Local\Temp\ccx4ZXSQ.s:27319  .debug_str:0000000000011505 .LASF2023
C:\Users\CYMR90~1\AppData\Local\Temp\ccx4ZXSQ.s:30130  .debug_str:000000000001c82f .LASF2024
C:\Users\CYMR90~1\AppData\Local\Temp\ccx4ZXSQ.s:25939  .debug_str:000000000000bed9 .LASF2025
C:\Users\CYMR90~1\AppData\Local\Temp\ccx4ZXSQ.s:34032  .debug_str:000000000002bac7 .LASF2026
C:\Users\CYMR90~1\AppData\Local\Temp\ccx4ZXSQ.s:23803  .debug_str:0000000000003638 .LASF2027
C:\Users\CYMR90~1\AppData\Local\Temp\ccx4ZXSQ.s:32040  .debug_str:0000000000023dd6 .LASF2028
C:\Users\CYMR90~1\AppData\Local\Temp\ccx4ZXSQ.s:31034  .debug_str:0000000000020110 .LASF2029
C:\Users\CYMR90~1\AppData\Local\Temp\ccx4ZXSQ.s:27597  .debug_str:000000000001270d .LASF2030
C:\Users\CYMR90~1\AppData\Local\Temp\ccx4ZXSQ.s:29074  .debug_str:0000000000018556 .LASF2031
C:\Users\CYMR90~1\AppData\Local\Temp\ccx4ZXSQ.s:25687  .debug_str:000000000000ada9 .LASF2032
C:\Users\CYMR90~1\AppData\Local\Temp\ccx4ZXSQ.s:26933  .debug_str:000000000000fc94 .LASF2033
C:\Users\CYMR90~1\AppData\Local\Temp\ccx4ZXSQ.s:25915  .debug_str:000000000000bd15 .LASF2034
C:\Users\CYMR90~1\AppData\Local\Temp\ccx4ZXSQ.s:27523  .debug_str:00000000000122e5 .LASF2035
C:\Users\CYMR90~1\AppData\Local\Temp\ccx4ZXSQ.s:31502  .debug_str:0000000000021dda .LASF2036
C:\Users\CYMR90~1\AppData\Local\Temp\ccx4ZXSQ.s:31908  .debug_str:000000000002366d .LASF2037
C:\Users\CYMR90~1\AppData\Local\Temp\ccx4ZXSQ.s:32492  .debug_str:0000000000025afa .LASF2038
C:\Users\CYMR90~1\AppData\Local\Temp\ccx4ZXSQ.s:27621  .debug_str:00000000000128da .LASF2039
C:\Users\CYMR90~1\AppData\Local\Temp\ccx4ZXSQ.s:29624  .debug_str:000000000001a7c2 .LASF2040
C:\Users\CYMR90~1\AppData\Local\Temp\ccx4ZXSQ.s:26271  .debug_str:000000000000d39b .LASF2041
C:\Users\CYMR90~1\AppData\Local\Temp\ccx4ZXSQ.s:23613  .debug_str:0000000000002a00 .LASF2042
C:\Users\CYMR90~1\AppData\Local\Temp\ccx4ZXSQ.s:24379  .debug_str:0000000000005a8d .LASF2043
C:\Users\CYMR90~1\AppData\Local\Temp\ccx4ZXSQ.s:34462  .debug_str:000000000002d734 .LASF2044
C:\Users\CYMR90~1\AppData\Local\Temp\ccx4ZXSQ.s:27915  .debug_str:0000000000013bfe .LASF2045
C:\Users\CYMR90~1\AppData\Local\Temp\ccx4ZXSQ.s:31794  .debug_str:0000000000022f28 .LASF2046
C:\Users\CYMR90~1\AppData\Local\Temp\ccx4ZXSQ.s:33446  .debug_str:00000000000298c9 .LASF2047
C:\Users\CYMR90~1\AppData\Local\Temp\ccx4ZXSQ.s:30106  .debug_str:000000000001c6bc .LASF2048
C:\Users\CYMR90~1\AppData\Local\Temp\ccx4ZXSQ.s:30674  .debug_str:000000000001eb85 .LASF2049
C:\Users\CYMR90~1\AppData\Local\Temp\ccx4ZXSQ.s:24441  .debug_str:0000000000005e2e .LASF2050
C:\Users\CYMR90~1\AppData\Local\Temp\ccx4ZXSQ.s:23789  .debug_str:000000000000353e .LASF2051
C:\Users\CYMR90~1\AppData\Local\Temp\ccx4ZXSQ.s:25807  .debug_str:000000000000b606 .LASF2052
C:\Users\CYMR90~1\AppData\Local\Temp\ccx4ZXSQ.s:32528  .debug_str:0000000000025ddb .LASF2053
C:\Users\CYMR90~1\AppData\Local\Temp\ccx4ZXSQ.s:33876  .debug_str:000000000002b217 .LASF2054
C:\Users\CYMR90~1\AppData\Local\Temp\ccx4ZXSQ.s:24247  .debug_str:0000000000005276 .LASF2055
C:\Users\CYMR90~1\AppData\Local\Temp\ccx4ZXSQ.s:32876  .debug_str:000000000002742a .LASF2056
C:\Users\CYMR90~1\AppData\Local\Temp\ccx4ZXSQ.s:30846  .debug_str:000000000001f5ad .LASF2057
C:\Users\CYMR90~1\AppData\Local\Temp\ccx4ZXSQ.s:28924  .debug_str:0000000000017c32 .LASF2058
C:\Users\CYMR90~1\AppData\Local\Temp\ccx4ZXSQ.s:26843  .debug_str:000000000000f69a .LASF2059
C:\Users\CYMR90~1\AppData\Local\Temp\ccx4ZXSQ.s:26531  .debug_str:000000000000e3b4 .LASF2060
C:\Users\CYMR90~1\AppData\Local\Temp\ccx4ZXSQ.s:31304  .debug_str:00000000000211ed .LASF2061
C:\Users\CYMR90~1\AppData\Local\Temp\ccx4ZXSQ.s:28045  .debug_str:0000000000014404 .LASF2062
C:\Users\CYMR90~1\AppData\Local\Temp\ccx4ZXSQ.s:23583  .debug_str:00000000000027f7 .LASF2063
C:\Users\CYMR90~1\AppData\Local\Temp\ccx4ZXSQ.s:29828  .debug_str:000000000001b563 .LASF2064
C:\Users\CYMR90~1\AppData\Local\Temp\ccx4ZXSQ.s:28687  .debug_str:0000000000016b92 .LASF2065
C:\Users\CYMR90~1\AppData\Local\Temp\ccx4ZXSQ.s:25353  .debug_str:000000000000982f .LASF2066
C:\Users\CYMR90~1\AppData\Local\Temp\ccx4ZXSQ.s:25839  .debug_str:000000000000b798 .LASF2067
C:\Users\CYMR90~1\AppData\Local\Temp\ccx4ZXSQ.s:29020  .debug_str:000000000001825d .LASF2068
C:\Users\CYMR90~1\AppData\Local\Temp\ccx4ZXSQ.s:28629  .debug_str:000000000001681d .LASF2069
C:\Users\CYMR90~1\AppData\Local\Temp\ccx4ZXSQ.s:26411  .debug_str:000000000000dcb6 .LASF2070
C:\Users\CYMR90~1\AppData\Local\Temp\ccx4ZXSQ.s:24413  .debug_str:0000000000005c99 .LASF2071
C:\Users\CYMR90~1\AppData\Local\Temp\ccx4ZXSQ.s:27775  .debug_str:00000000000132c5 .LASF2072
C:\Users\CYMR90~1\AppData\Local\Temp\ccx4ZXSQ.s:26765  .debug_str:000000000000f24b .LASF2073
C:\Users\CYMR90~1\AppData\Local\Temp\ccx4ZXSQ.s:25981  .debug_str:000000000000c131 .LASF2074
C:\Users\CYMR90~1\AppData\Local\Temp\ccx4ZXSQ.s:34258  .debug_str:000000000002c9df .LASF2075
C:\Users\CYMR90~1\AppData\Local\Temp\ccx4ZXSQ.s:25217  .debug_str:000000000000908a .LASF2076
C:\Users\CYMR90~1\AppData\Local\Temp\ccx4ZXSQ.s:33522  .debug_str:0000000000029d68 .LASF2077
C:\Users\CYMR90~1\AppData\Local\Temp\ccx4ZXSQ.s:24261  .debug_str:0000000000005339 .LASF2078
C:\Users\CYMR90~1\AppData\Local\Temp\ccx4ZXSQ.s:23363  .debug_str:0000000000001ac1 .LASF2079
C:\Users\CYMR90~1\AppData\Local\Temp\ccx4ZXSQ.s:32068  .debug_str:0000000000023fcd .LASF2080
C:\Users\CYMR90~1\AppData\Local\Temp\ccx4ZXSQ.s:33414  .debug_str:00000000000296ea .LASF2081
C:\Users\CYMR90~1\AppData\Local\Temp\ccx4ZXSQ.s:33498  .debug_str:0000000000029c35 .LASF2082
C:\Users\CYMR90~1\AppData\Local\Temp\ccx4ZXSQ.s:27645  .debug_str:0000000000012a48 .LASF2083
C:\Users\CYMR90~1\AppData\Local\Temp\ccx4ZXSQ.s:24997  .debug_str:0000000000008229 .LASF2084
C:\Users\CYMR90~1\AppData\Local\Temp\ccx4ZXSQ.s:31946  .debug_str:0000000000023887 .LASF2085
C:\Users\CYMR90~1\AppData\Local\Temp\ccx4ZXSQ.s:23255  .debug_str:0000000000001375 .LASF2086
C:\Users\CYMR90~1\AppData\Local\Temp\ccx4ZXSQ.s:23107  .debug_str:0000000000000a51 .LASF2087
C:\Users\CYMR90~1\AppData\Local\Temp\ccx4ZXSQ.s:29888  .debug_str:000000000001b98a .LASF2088
C:\Users\CYMR90~1\AppData\Local\Temp\ccx4ZXSQ.s:31004  .debug_str:000000000001ff68 .LASF2089
C:\Users\CYMR90~1\AppData\Local\Temp\ccx4ZXSQ.s:28852  .debug_str:00000000000177ea .LASF2090
C:\Users\CYMR90~1\AppData\Local\Temp\ccx4ZXSQ.s:27581  .debug_str:0000000000012610 .LASF2091
C:\Users\CYMR90~1\AppData\Local\Temp\ccx4ZXSQ.s:28950  .debug_str:0000000000017dab .LASF2092
C:\Users\CYMR90~1\AppData\Local\Temp\ccx4ZXSQ.s:28077  .debug_str:00000000000145cc .LASF2093
C:\Users\CYMR90~1\AppData\Local\Temp\ccx4ZXSQ.s:34252  .debug_str:000000000002c98b .LASF2094
C:\Users\CYMR90~1\AppData\Local\Temp\ccx4ZXSQ.s:24007  .debug_str:0000000000004315 .LASF2095
C:\Users\CYMR90~1\AppData\Local\Temp\ccx4ZXSQ.s:25473  .debug_str:0000000000009fac .LASF2096
C:\Users\CYMR90~1\AppData\Local\Temp\ccx4ZXSQ.s:23755  .debug_str:00000000000032ea .LASF2097
C:\Users\CYMR90~1\AppData\Local\Temp\ccx4ZXSQ.s:32686  .debug_str:0000000000026899 .LASF2098
C:\Users\CYMR90~1\AppData\Local\Temp\ccx4ZXSQ.s:27103  .debug_str:00000000000106d2 .LASF2099
C:\Users\CYMR90~1\AppData\Local\Temp\ccx4ZXSQ.s:25847  .debug_str:000000000000b81f .LASF2100
C:\Users\CYMR90~1\AppData\Local\Temp\ccx4ZXSQ.s:24589  .debug_str:000000000000672e .LASF2101
C:\Users\CYMR90~1\AppData\Local\Temp\ccx4ZXSQ.s:23669  .debug_str:0000000000002d7f .LASF2102
C:\Users\CYMR90~1\AppData\Local\Temp\ccx4ZXSQ.s:25509  .debug_str:000000000000a1c3 .LASF2103
C:\Users\CYMR90~1\AppData\Local\Temp\ccx4ZXSQ.s:34206  .debug_str:000000000002c652 .LASF2104
C:\Users\CYMR90~1\AppData\Local\Temp\ccx4ZXSQ.s:28948  .debug_str:0000000000017d87 .LASF2105
C:\Users\CYMR90~1\AppData\Local\Temp\ccx4ZXSQ.s:23775  .debug_str:0000000000003453 .LASF2106
C:\Users\CYMR90~1\AppData\Local\Temp\ccx4ZXSQ.s:33468  .debug_str:0000000000029a60 .LASF2107
C:\Users\CYMR90~1\AppData\Local\Temp\ccx4ZXSQ.s:32276  .debug_str:0000000000024cd9 .LASF2108
C:\Users\CYMR90~1\AppData\Local\Temp\ccx4ZXSQ.s:23793  .debug_str:000000000000357c .LASF2109
C:\Users\CYMR90~1\AppData\Local\Temp\ccx4ZXSQ.s:26317  .debug_str:000000000000d674 .LASF2110
C:\Users\CYMR90~1\AppData\Local\Temp\ccx4ZXSQ.s:28896  .debug_str:0000000000017a66 .LASF2111
C:\Users\CYMR90~1\AppData\Local\Temp\ccx4ZXSQ.s:31024  .debug_str:000000000002008a .LASF2112
C:\Users\CYMR90~1\AppData\Local\Temp\ccx4ZXSQ.s:33628  .debug_str:000000000002a3c0 .LASF2113
C:\Users\CYMR90~1\AppData\Local\Temp\ccx4ZXSQ.s:33030  .debug_str:0000000000027e31 .LASF2114
C:\Users\CYMR90~1\AppData\Local\Temp\ccx4ZXSQ.s:27967  .debug_str:0000000000013f22 .LASF2115
C:\Users\CYMR90~1\AppData\Local\Temp\ccx4ZXSQ.s:29820  .debug_str:000000000001b4de .LASF2116
C:\Users\CYMR90~1\AppData\Local\Temp\ccx4ZXSQ.s:28153  .debug_str:0000000000014a6c .LASF2117
C:\Users\CYMR90~1\AppData\Local\Temp\ccx4ZXSQ.s:32290  .debug_str:0000000000024dc7 .LASF2118
C:\Users\CYMR90~1\AppData\Local\Temp\ccx4ZXSQ.s:30964  .debug_str:000000000001fd0a .LASF2119
C:\Users\CYMR90~1\AppData\Local\Temp\ccx4ZXSQ.s:23617  .debug_str:0000000000002a37 .LASF2120
C:\Users\CYMR90~1\AppData\Local\Temp\ccx4ZXSQ.s:31408  .debug_str:00000000000217f6 .LASF2121
C:\Users\CYMR90~1\AppData\Local\Temp\ccx4ZXSQ.s:25071  .debug_str:0000000000008775 .LASF2122
C:\Users\CYMR90~1\AppData\Local\Temp\ccx4ZXSQ.s:28015  .debug_str:0000000000014245 .LASF2123
C:\Users\CYMR90~1\AppData\Local\Temp\ccx4ZXSQ.s:30704  .debug_str:000000000001ed7b .LASF2124
C:\Users\CYMR90~1\AppData\Local\Temp\ccx4ZXSQ.s:27869  .debug_str:00000000000138ba .LASF2125
C:\Users\CYMR90~1\AppData\Local\Temp\ccx4ZXSQ.s:29012  .debug_str:00000000000181d5 .LASF2126
C:\Users\CYMR90~1\AppData\Local\Temp\ccx4ZXSQ.s:33008  .debug_str:0000000000027c45 .LASF2127
C:\Users\CYMR90~1\AppData\Local\Temp\ccx4ZXSQ.s:31514  .debug_str:0000000000021e88 .LASF2128
C:\Users\CYMR90~1\AppData\Local\Temp\ccx4ZXSQ.s:27315  .debug_str:00000000000114b9 .LASF2129
C:\Users\CYMR90~1\AppData\Local\Temp\ccx4ZXSQ.s:31424  .debug_str:00000000000218e1 .LASF2130
C:\Users\CYMR90~1\AppData\Local\Temp\ccx4ZXSQ.s:29232  .debug_str:0000000000018ebe .LASF2131
C:\Users\CYMR90~1\AppData\Local\Temp\ccx4ZXSQ.s:31246  .debug_str:0000000000020de6 .LASF2132
C:\Users\CYMR90~1\AppData\Local\Temp\ccx4ZXSQ.s:27515  .debug_str:0000000000012252 .LASF2133
C:\Users\CYMR90~1\AppData\Local\Temp\ccx4ZXSQ.s:23763  .debug_str:000000000000338f .LASF2134
C:\Users\CYMR90~1\AppData\Local\Temp\ccx4ZXSQ.s:23499  .debug_str:00000000000022cf .LASF2135
C:\Users\CYMR90~1\AppData\Local\Temp\ccx4ZXSQ.s:29398  .debug_str:00000000000199cf .LASF2136
C:\Users\CYMR90~1\AppData\Local\Temp\ccx4ZXSQ.s:33738  .debug_str:000000000002a9eb .LASF2137
C:\Users\CYMR90~1\AppData\Local\Temp\ccx4ZXSQ.s:25073  .debug_str:000000000000879a .LASF2138
C:\Users\CYMR90~1\AppData\Local\Temp\ccx4ZXSQ.s:31612  .debug_str:00000000000224d1 .LASF2139
C:\Users\CYMR90~1\AppData\Local\Temp\ccx4ZXSQ.s:27423  .debug_str:0000000000011b4c .LASF2140
C:\Users\CYMR90~1\AppData\Local\Temp\ccx4ZXSQ.s:26881  .debug_str:000000000000f915 .LASF2141
C:\Users\CYMR90~1\AppData\Local\Temp\ccx4ZXSQ.s:30982  .debug_str:000000000001fe16 .LASF2142
C:\Users\CYMR90~1\AppData\Local\Temp\ccx4ZXSQ.s:31538  .debug_str:0000000000021fec .LASF2143
C:\Users\CYMR90~1\AppData\Local\Temp\ccx4ZXSQ.s:27707  .debug_str:0000000000012e52 .LASF2144
C:\Users\CYMR90~1\AppData\Local\Temp\ccx4ZXSQ.s:23795  .debug_str:00000000000035a3 .LASF2145
C:\Users\CYMR90~1\AppData\Local\Temp\ccx4ZXSQ.s:22947  .debug_str:0000000000000121 .LASF2146
C:\Users\CYMR90~1\AppData\Local\Temp\ccx4ZXSQ.s:26737  .debug_str:000000000000f07d .LASF2147
C:\Users\CYMR90~1\AppData\Local\Temp\ccx4ZXSQ.s:28958  .debug_str:0000000000017e27 .LASF2148
C:\Users\CYMR90~1\AppData\Local\Temp\ccx4ZXSQ.s:28401  .debug_str:0000000000015a15 .LASF2149
C:\Users\CYMR90~1\AppData\Local\Temp\ccx4ZXSQ.s:33032  .debug_str:0000000000027e58 .LASF2150
C:\Users\CYMR90~1\AppData\Local\Temp\ccx4ZXSQ.s:27969  .debug_str:0000000000013f49 .LASF2151
C:\Users\CYMR90~1\AppData\Local\Temp\ccx4ZXSQ.s:26495  .debug_str:000000000000e13a .LASF2152
C:\Users\CYMR90~1\AppData\Local\Temp\ccx4ZXSQ.s:33582  .debug_str:000000000002a14c .LASF2153
C:\Users\CYMR90~1\AppData\Local\Temp\ccx4ZXSQ.s:28733  .debug_str:0000000000016eb9 .LASF2154
C:\Users\CYMR90~1\AppData\Local\Temp\ccx4ZXSQ.s:23317  .debug_str:0000000000001751 .LASF2155
C:\Users\CYMR90~1\AppData\Local\Temp\ccx4ZXSQ.s:23873  .debug_str:0000000000003ada .LASF2156
C:\Users\CYMR90~1\AppData\Local\Temp\ccx4ZXSQ.s:32996  .debug_str:0000000000027b4e .LASF2157
C:\Users\CYMR90~1\AppData\Local\Temp\ccx4ZXSQ.s:27353  .debug_str:00000000000116e8 .LASF2158
C:\Users\CYMR90~1\AppData\Local\Temp\ccx4ZXSQ.s:29298  .debug_str:00000000000192ae .LASF2159
C:\Users\CYMR90~1\AppData\Local\Temp\ccx4ZXSQ.s:32788  .debug_str:0000000000026f03 .LASF2160
C:\Users\CYMR90~1\AppData\Local\Temp\ccx4ZXSQ.s:25249  .debug_str:0000000000009287 .LASF2161
C:\Users\CYMR90~1\AppData\Local\Temp\ccx4ZXSQ.s:33718  .debug_str:000000000002a8be .LASF2162
C:\Users\CYMR90~1\AppData\Local\Temp\ccx4ZXSQ.s:34446  .debug_str:000000000002d5e6 .LASF2163
C:\Users\CYMR90~1\AppData\Local\Temp\ccx4ZXSQ.s:23907  .debug_str:0000000000003cec .LASF2164
C:\Users\CYMR90~1\AppData\Local\Temp\ccx4ZXSQ.s:32048  .debug_str:0000000000023e5a .LASF2165
C:\Users\CYMR90~1\AppData\Local\Temp\ccx4ZXSQ.s:29382  .debug_str:0000000000019908 .LASF2166
C:\Users\CYMR90~1\AppData\Local\Temp\ccx4ZXSQ.s:26875  .debug_str:000000000000f8be .LASF2167
C:\Users\CYMR90~1\AppData\Local\Temp\ccx4ZXSQ.s:25107  .debug_str:0000000000008989 .LASF2168
C:\Users\CYMR90~1\AppData\Local\Temp\ccx4ZXSQ.s:30528  .debug_str:000000000001e278 .LASF2169
C:\Users\CYMR90~1\AppData\Local\Temp\ccx4ZXSQ.s:28675  .debug_str:0000000000016ae0 .LASF2170
C:\Users\CYMR90~1\AppData\Local\Temp\ccx4ZXSQ.s:26651  .debug_str:000000000000eaf8 .LASF2171
C:\Users\CYMR90~1\AppData\Local\Temp\ccx4ZXSQ.s:26791  .debug_str:000000000000f39c .LASF2172
C:\Users\CYMR90~1\AppData\Local\Temp\ccx4ZXSQ.s:30986  .debug_str:000000000001fe4d .LASF2173
C:\Users\CYMR90~1\AppData\Local\Temp\ccx4ZXSQ.s:28617  .debug_str:0000000000016740 .LASF2174
C:\Users\CYMR90~1\AppData\Local\Temp\ccx4ZXSQ.s:27575  .debug_str:00000000000125ce .LASF2175
C:\Users\CYMR90~1\AppData\Local\Temp\ccx4ZXSQ.s:30768  .debug_str:000000000001f15a .LASF2176
C:\Users\CYMR90~1\AppData\Local\Temp\ccx4ZXSQ.s:25849  .debug_str:000000000000b82e .LASF2177
C:\Users\CYMR90~1\AppData\Local\Temp\ccx4ZXSQ.s:31684  .debug_str:00000000000228f4 .LASF2178
C:\Users\CYMR90~1\AppData\Local\Temp\ccx4ZXSQ.s:26509  .debug_str:000000000000e23a .LASF2179
C:\Users\CYMR90~1\AppData\Local\Temp\ccx4ZXSQ.s:24943  .debug_str:0000000000007e2a .LASF2180
C:\Users\CYMR90~1\AppData\Local\Temp\ccx4ZXSQ.s:27811  .debug_str:0000000000013512 .LASF2181
C:\Users\CYMR90~1\AppData\Local\Temp\ccx4ZXSQ.s:26681  .debug_str:000000000000ed49 .LASF2182
C:\Users\CYMR90~1\AppData\Local\Temp\ccx4ZXSQ.s:28651  .debug_str:0000000000016990 .LASF2183
C:\Users\CYMR90~1\AppData\Local\Temp\ccx4ZXSQ.s:24027  .debug_str:0000000000004428 .LASF2184
C:\Users\CYMR90~1\AppData\Local\Temp\ccx4ZXSQ.s:26959  .debug_str:000000000000fe0a .LASF2185
C:\Users\CYMR90~1\AppData\Local\Temp\ccx4ZXSQ.s:33992  .debug_str:000000000002b8a6 .LASF2186
C:\Users\CYMR90~1\AppData\Local\Temp\ccx4ZXSQ.s:30780  .debug_str:000000000001f215 .LASF2187
C:\Users\CYMR90~1\AppData\Local\Temp\ccx4ZXSQ.s:25455  .debug_str:0000000000009eac .LASF2188
C:\Users\CYMR90~1\AppData\Local\Temp\ccx4ZXSQ.s:29724  .debug_str:000000000001af67 .LASF2189
C:\Users\CYMR90~1\AppData\Local\Temp\ccx4ZXSQ.s:23967  .debug_str:0000000000004054 .LASF2190
C:\Users\CYMR90~1\AppData\Local\Temp\ccx4ZXSQ.s:25557  .debug_str:000000000000a522 .LASF2191
C:\Users\CYMR90~1\AppData\Local\Temp\ccx4ZXSQ.s:30866  .debug_str:000000000001f6e5 .LASF2192
C:\Users\CYMR90~1\AppData\Local\Temp\ccx4ZXSQ.s:23887  .debug_str:0000000000003b9e .LASF2193
C:\Users\CYMR90~1\AppData\Local\Temp\ccx4ZXSQ.s:27453  .debug_str:0000000000011d3c .LASF2194
C:\Users\CYMR90~1\AppData\Local\Temp\ccx4ZXSQ.s:23643  .debug_str:0000000000002be9 .LASF2195
C:\Users\CYMR90~1\AppData\Local\Temp\ccx4ZXSQ.s:24887  .debug_str:0000000000007a70 .LASF2196
C:\Users\CYMR90~1\AppData\Local\Temp\ccx4ZXSQ.s:28323  .debug_str:0000000000015522 .LASF2197
C:\Users\CYMR90~1\AppData\Local\Temp\ccx4ZXSQ.s:25171  .debug_str:0000000000008d44 .LASF2198
C:\Users\CYMR90~1\AppData\Local\Temp\ccx4ZXSQ.s:31240  .debug_str:0000000000020d9d .LASF2199
C:\Users\CYMR90~1\AppData\Local\Temp\ccx4ZXSQ.s:25703  .debug_str:000000000000aec6 .LASF2200
C:\Users\CYMR90~1\AppData\Local\Temp\ccx4ZXSQ.s:31756  .debug_str:0000000000022d35 .LASF2201
C:\Users\CYMR90~1\AppData\Local\Temp\ccx4ZXSQ.s:31072  .debug_str:000000000002035a .LASF2202
C:\Users\CYMR90~1\AppData\Local\Temp\ccx4ZXSQ.s:32258  .debug_str:0000000000024ba5 .LASF2203
C:\Users\CYMR90~1\AppData\Local\Temp\ccx4ZXSQ.s:32860  .debug_str:0000000000027342 .LASF2204
C:\Users\CYMR90~1\AppData\Local\Temp\ccx4ZXSQ.s:32690  .debug_str:00000000000268cc .LASF2205
C:\Users\CYMR90~1\AppData\Local\Temp\ccx4ZXSQ.s:32306  .debug_str:0000000000024e9d .LASF2206
C:\Users\CYMR90~1\AppData\Local\Temp\ccx4ZXSQ.s:31370  .debug_str:00000000000215c9 .LASF2207
C:\Users\CYMR90~1\AppData\Local\Temp\ccx4ZXSQ.s:27155  .debug_str:0000000000010a33 .LASF2208
C:\Users\CYMR90~1\AppData\Local\Temp\ccx4ZXSQ.s:29348  .debug_str:000000000001960d .LASF2209
C:\Users\CYMR90~1\AppData\Local\Temp\ccx4ZXSQ.s:31222  .debug_str:0000000000020c50 .LASF2210
C:\Users\CYMR90~1\AppData\Local\Temp\ccx4ZXSQ.s:25993  .debug_str:000000000000c233 .LASF2211
C:\Users\CYMR90~1\AppData\Local\Temp\ccx4ZXSQ.s:24653  .debug_str:0000000000006b26 .LASF2212
C:\Users\CYMR90~1\AppData\Local\Temp\ccx4ZXSQ.s:27337  .debug_str:00000000000115c8 .LASF2213
C:\Users\CYMR90~1\AppData\Local\Temp\ccx4ZXSQ.s:34260  .debug_str:000000000002c9f0 .LASF2214
C:\Users\CYMR90~1\AppData\Local\Temp\ccx4ZXSQ.s:28063  .debug_str:00000000000144db .LASF2215
C:\Users\CYMR90~1\AppData\Local\Temp\ccx4ZXSQ.s:25661  .debug_str:000000000000ab42 .LASF2216
C:\Users\CYMR90~1\AppData\Local\Temp\ccx4ZXSQ.s:29976  .debug_str:000000000001bee2 .LASF2217
C:\Users\CYMR90~1\AppData\Local\Temp\ccx4ZXSQ.s:29270  .debug_str:00000000000190fe .LASF2218
C:\Users\CYMR90~1\AppData\Local\Temp\ccx4ZXSQ.s:34024  .debug_str:000000000002ba60 .LASF2219
C:\Users\CYMR90~1\AppData\Local\Temp\ccx4ZXSQ.s:30556  .debug_str:000000000001e418 .LASF2220
C:\Users\CYMR90~1\AppData\Local\Temp\ccx4ZXSQ.s:29362  .debug_str:00000000000196de .LASF2221
C:\Users\CYMR90~1\AppData\Local\Temp\ccx4ZXSQ.s:27747  .debug_str:00000000000130e0 .LASF2222
C:\Users\CYMR90~1\AppData\Local\Temp\ccx4ZXSQ.s:30022  .debug_str:000000000001c149 .LASF2223
C:\Users\CYMR90~1\AppData\Local\Temp\ccx4ZXSQ.s:32682  .debug_str:000000000002685e .LASF2224
C:\Users\CYMR90~1\AppData\Local\Temp\ccx4ZXSQ.s:22979  .debug_str:00000000000002e1 .LASF2225
C:\Users\CYMR90~1\AppData\Local\Temp\ccx4ZXSQ.s:24109  .debug_str:0000000000004982 .LASF2226
C:\Users\CYMR90~1\AppData\Local\Temp\ccx4ZXSQ.s:29680  .debug_str:000000000001ac41 .LASF2227
C:\Users\CYMR90~1\AppData\Local\Temp\ccx4ZXSQ.s:28820  .debug_str:0000000000017632 .LASF2228
C:\Users\CYMR90~1\AppData\Local\Temp\ccx4ZXSQ.s:30606  .debug_str:000000000001e7a5 .LASF2229
C:\Users\CYMR90~1\AppData\Local\Temp\ccx4ZXSQ.s:24075  .debug_str:0000000000004747 .LASF2230
C:\Users\CYMR90~1\AppData\Local\Temp\ccx4ZXSQ.s:30836  .debug_str:000000000001f51a .LASF2231
C:\Users\CYMR90~1\AppData\Local\Temp\ccx4ZXSQ.s:23375  .debug_str:0000000000001b80 .LASF2232
C:\Users\CYMR90~1\AppData\Local\Temp\ccx4ZXSQ.s:29534  .debug_str:000000000001a298 .LASF2233
C:\Users\CYMR90~1\AppData\Local\Temp\ccx4ZXSQ.s:26175  .debug_str:000000000000cdf9 .LASF2234
C:\Users\CYMR90~1\AppData\Local\Temp\ccx4ZXSQ.s:24313  .debug_str:0000000000005687 .LASF2235
C:\Users\CYMR90~1\AppData\Local\Temp\ccx4ZXSQ.s:34212  .debug_str:000000000002c6af .LASF2236
C:\Users\CYMR90~1\AppData\Local\Temp\ccx4ZXSQ.s:26655  .debug_str:000000000000eb33 .LASF2237
C:\Users\CYMR90~1\AppData\Local\Temp\ccx4ZXSQ.s:31492  .debug_str:0000000000021d3e .LASF2238
C:\Users\CYMR90~1\AppData\Local\Temp\ccx4ZXSQ.s:30508  .debug_str:000000000001e13a .LASF2239
C:\Users\CYMR90~1\AppData\Local\Temp\ccx4ZXSQ.s:30438  .debug_str:000000000001dca3 .LASF2240
C:\Users\CYMR90~1\AppData\Local\Temp\ccx4ZXSQ.s:23427  .debug_str:0000000000001eb2 .LASF2241
C:\Users\CYMR90~1\AppData\Local\Temp\ccx4ZXSQ.s:31508  .debug_str:0000000000021e35 .LASF2242
C:\Users\CYMR90~1\AppData\Local\Temp\ccx4ZXSQ.s:30010  .debug_str:000000000001c0a0 .LASF2243
C:\Users\CYMR90~1\AppData\Local\Temp\ccx4ZXSQ.s:26389  .debug_str:000000000000dba1 .LASF2244
C:\Users\CYMR90~1\AppData\Local\Temp\ccx4ZXSQ.s:25523  .debug_str:000000000000a2dc .LASF2245
C:\Users\CYMR90~1\AppData\Local\Temp\ccx4ZXSQ.s:25651  .debug_str:000000000000aa67 .LASF2246
C:\Users\CYMR90~1\AppData\Local\Temp\ccx4ZXSQ.s:28397  .debug_str:00000000000159c0 .LASF2247
C:\Users\CYMR90~1\AppData\Local\Temp\ccx4ZXSQ.s:23797  .debug_str:00000000000035ca .LASF2248
C:\Users\CYMR90~1\AppData\Local\Temp\ccx4ZXSQ.s:30860  .debug_str:000000000001f66e .LASF2249
C:\Users\CYMR90~1\AppData\Local\Temp\ccx4ZXSQ.s:29950  .debug_str:000000000001bd1f .LASF2250
C:\Users\CYMR90~1\AppData\Local\Temp\ccx4ZXSQ.s:28990  .debug_str:0000000000018042 .LASF2251
C:\Users\CYMR90~1\AppData\Local\Temp\ccx4ZXSQ.s:32264  .debug_str:0000000000024bfd .LASF2252
C:\Users\CYMR90~1\AppData\Local\Temp\ccx4ZXSQ.s:27753  .debug_str:0000000000013130 .LASF2253
C:\Users\CYMR90~1\AppData\Local\Temp\ccx4ZXSQ.s:26453  .debug_str:000000000000df22 .LASF2254
C:\Users\CYMR90~1\AppData\Local\Temp\ccx4ZXSQ.s:25157  .debug_str:0000000000008c69 .LASF2255
C:\Users\CYMR90~1\AppData\Local\Temp\ccx4ZXSQ.s:27133  .debug_str:00000000000108f1 .LASF2256
C:\Users\CYMR90~1\AppData\Local\Temp\ccx4ZXSQ.s:26539  .debug_str:000000000000e434 .LASF2257
C:\Users\CYMR90~1\AppData\Local\Temp\ccx4ZXSQ.s:31748  .debug_str:0000000000022cb0 .LASF2258
C:\Users\CYMR90~1\AppData\Local\Temp\ccx4ZXSQ.s:27669  .debug_str:0000000000012bc2 .LASF2259
C:\Users\CYMR90~1\AppData\Local\Temp\ccx4ZXSQ.s:27333  .debug_str:00000000000115a4 .LASF2260
C:\Users\CYMR90~1\AppData\Local\Temp\ccx4ZXSQ.s:28453  .debug_str:0000000000015d0f .LASF2261
C:\Users\CYMR90~1\AppData\Local\Temp\ccx4ZXSQ.s:23479  .debug_str:0000000000002196 .LASF2262
C:\Users\CYMR90~1\AppData\Local\Temp\ccx4ZXSQ.s:26703  .debug_str:000000000000ee88 .LASF2263
C:\Users\CYMR90~1\AppData\Local\Temp\ccx4ZXSQ.s:30628  .debug_str:000000000001e8e5 .LASF2264
C:\Users\CYMR90~1\AppData\Local\Temp\ccx4ZXSQ.s:29638  .debug_str:000000000001a87b .LASF2265
C:\Users\CYMR90~1\AppData\Local\Temp\ccx4ZXSQ.s:26547  .debug_str:000000000000e4ae .LASF2266
C:\Users\CYMR90~1\AppData\Local\Temp\ccx4ZXSQ.s:25863  .debug_str:000000000000b998 .LASF2267
C:\Users\CYMR90~1\AppData\Local\Temp\ccx4ZXSQ.s:28998  .debug_str:00000000000180fc .LASF2268
C:\Users\CYMR90~1\AppData\Local\Temp\ccx4ZXSQ.s:33942  .debug_str:000000000002b5ae .LASF2269
C:\Users\CYMR90~1\AppData\Local\Temp\ccx4ZXSQ.s:24129  .debug_str:0000000000004b5c .LASF2270
C:\Users\CYMR90~1\AppData\Local\Temp\ccx4ZXSQ.s:30102  .debug_str:000000000001c691 .LASF2271
C:\Users\CYMR90~1\AppData\Local\Temp\ccx4ZXSQ.s:30530  .debug_str:000000000001e290 .LASF2272
C:\Users\CYMR90~1\AppData\Local\Temp\ccx4ZXSQ.s:28277  .debug_str:000000000001522e .LASF2273
C:\Users\CYMR90~1\AppData\Local\Temp\ccx4ZXSQ.s:33286  .debug_str:0000000000028eca .LASF2274
C:\Users\CYMR90~1\AppData\Local\Temp\ccx4ZXSQ.s:29846  .debug_str:000000000001b689 .LASF2275
C:\Users\CYMR90~1\AppData\Local\Temp\ccx4ZXSQ.s:26459  .debug_str:000000000000df75 .LASF2276
C:\Users\CYMR90~1\AppData\Local\Temp\ccx4ZXSQ.s:23901  .debug_str:0000000000003c86 .LASF2277
C:\Users\CYMR90~1\AppData\Local\Temp\ccx4ZXSQ.s:23161  .debug_str:0000000000000dcd .LASF2278
C:\Users\CYMR90~1\AppData\Local\Temp\ccx4ZXSQ.s:33140  .debug_str:0000000000028473 .LASF2279
C:\Users\CYMR90~1\AppData\Local\Temp\ccx4ZXSQ.s:31496  .debug_str:0000000000021d7c .LASF2280
C:\Users\CYMR90~1\AppData\Local\Temp\ccx4ZXSQ.s:24317  .debug_str:00000000000056bb .LASF2281
C:\Users\CYMR90~1\AppData\Local\Temp\ccx4ZXSQ.s:29570  .debug_str:000000000001a4c8 .LASF2282
C:\Users\CYMR90~1\AppData\Local\Temp\ccx4ZXSQ.s:28882  .debug_str:0000000000017990 .LASF2283
C:\Users\CYMR90~1\AppData\Local\Temp\ccx4ZXSQ.s:30298  .debug_str:000000000001d2ee .LASF2284
C:\Users\CYMR90~1\AppData\Local\Temp\ccx4ZXSQ.s:29808  .debug_str:000000000001b445 .LASF2285
C:\Users\CYMR90~1\AppData\Local\Temp\ccx4ZXSQ.s:33056  .debug_str:0000000000027fcf .LASF2286
C:\Users\CYMR90~1\AppData\Local\Temp\ccx4ZXSQ.s:27339  .debug_str:00000000000115f0 .LASF2287
C:\Users\CYMR90~1\AppData\Local\Temp\ccx4ZXSQ.s:31650  .debug_str:0000000000022727 .LASF2288
C:\Users\CYMR90~1\AppData\Local\Temp\ccx4ZXSQ.s:33596  .debug_str:000000000002a1e0 .LASF2289
C:\Users\CYMR90~1\AppData\Local\Temp\ccx4ZXSQ.s:27565  .debug_str:0000000000012542 .LASF2290
C:\Users\CYMR90~1\AppData\Local\Temp\ccx4ZXSQ.s:34078  .debug_str:000000000002be17 .LASF2291
C:\Users\CYMR90~1\AppData\Local\Temp\ccx4ZXSQ.s:30720  .debug_str:000000000001ee9b .LASF2292
C:\Users\CYMR90~1\AppData\Local\Temp\ccx4ZXSQ.s:24211  .debug_str:0000000000005058 .LASF2293
C:\Users\CYMR90~1\AppData\Local\Temp\ccx4ZXSQ.s:27615  .debug_str:000000000001285e .LASF2294
C:\Users\CYMR90~1\AppData\Local\Temp\ccx4ZXSQ.s:34038  .debug_str:000000000002bb5e .LASF2295
C:\Users\CYMR90~1\AppData\Local\Temp\ccx4ZXSQ.s:26529  .debug_str:000000000000e389 .LASF2296
C:\Users\CYMR90~1\AppData\Local\Temp\ccx4ZXSQ.s:26497  .debug_str:000000000000e15f .LASF2297
C:\Users\CYMR90~1\AppData\Local\Temp\ccx4ZXSQ.s:25841  .debug_str:000000000000b7a9 .LASF2298
C:\Users\CYMR90~1\AppData\Local\Temp\ccx4ZXSQ.s:28075  .debug_str:00000000000145a1 .LASF2299
C:\Users\CYMR90~1\AppData\Local\Temp\ccx4ZXSQ.s:33300  .debug_str:0000000000028fbf .LASF2300
C:\Users\CYMR90~1\AppData\Local\Temp\ccx4ZXSQ.s:26853  .debug_str:000000000000f752 .LASF2301
C:\Users\CYMR90~1\AppData\Local\Temp\ccx4ZXSQ.s:30052  .debug_str:000000000001c340 .LASF2302
C:\Users\CYMR90~1\AppData\Local\Temp\ccx4ZXSQ.s:32400  .debug_str:00000000000254a0 .LASF2303
C:\Users\CYMR90~1\AppData\Local\Temp\ccx4ZXSQ.s:26451  .debug_str:000000000000defb .LASF2304
C:\Users\CYMR90~1\AppData\Local\Temp\ccx4ZXSQ.s:31542  .debug_str:0000000000022027 .LASF2305
C:\Users\CYMR90~1\AppData\Local\Temp\ccx4ZXSQ.s:23243  .debug_str:00000000000012de .LASF2306
C:\Users\CYMR90~1\AppData\Local\Temp\ccx4ZXSQ.s:29748  .debug_str:000000000001b0bf .LASF2307
C:\Users\CYMR90~1\AppData\Local\Temp\ccx4ZXSQ.s:30258  .debug_str:000000000001d052 .LASF2308
C:\Users\CYMR90~1\AppData\Local\Temp\ccx4ZXSQ.s:23741  .debug_str:000000000000321e .LASF2309
C:\Users\CYMR90~1\AppData\Local\Temp\ccx4ZXSQ.s:32704  .debug_str:00000000000269d8 .LASF2310
C:\Users\CYMR90~1\AppData\Local\Temp\ccx4ZXSQ.s:33536  .debug_str:0000000000029e47 .LASF2311
C:\Users\CYMR90~1\AppData\Local\Temp\ccx4ZXSQ.s:28111  .debug_str:00000000000147cb .LASF2312
C:\Users\CYMR90~1\AppData\Local\Temp\ccx4ZXSQ.s:33254  .debug_str:0000000000028c61 .LASF2313
C:\Users\CYMR90~1\AppData\Local\Temp\ccx4ZXSQ.s:24843  .debug_str:00000000000077b5 .LASF2314
C:\Users\CYMR90~1\AppData\Local\Temp\ccx4ZXSQ.s:31322  .debug_str:0000000000021314 .LASF2315
C:\Users\CYMR90~1\AppData\Local\Temp\ccx4ZXSQ.s:24911  .debug_str:0000000000007bf9 .LASF2316
C:\Users\CYMR90~1\AppData\Local\Temp\ccx4ZXSQ.s:30068  .debug_str:000000000001c454 .LASF2317
C:\Users\CYMR90~1\AppData\Local\Temp\ccx4ZXSQ.s:33296  .debug_str:0000000000028f7e .LASF2318
C:\Users\CYMR90~1\AppData\Local\Temp\ccx4ZXSQ.s:26741  .debug_str:000000000000f0bb .LASF2319
C:\Users\CYMR90~1\AppData\Local\Temp\ccx4ZXSQ.s:24141  .debug_str:0000000000004c18 .LASF2320
C:\Users\CYMR90~1\AppData\Local\Temp\ccx4ZXSQ.s:23661  .debug_str:0000000000002d22 .LASF2321
C:\Users\CYMR90~1\AppData\Local\Temp\ccx4ZXSQ.s:34536  .debug_str:000000000002db92 .LASF2322
C:\Users\CYMR90~1\AppData\Local\Temp\ccx4ZXSQ.s:24507  .debug_str:000000000000626c .LASF2323
C:\Users\CYMR90~1\AppData\Local\Temp\ccx4ZXSQ.s:28237  .debug_str:0000000000014fcf .LASF2324
C:\Users\CYMR90~1\AppData\Local\Temp\ccx4ZXSQ.s:34106  .debug_str:000000000002bfd3 .LASF2325
C:\Users\CYMR90~1\AppData\Local\Temp\ccx4ZXSQ.s:25627  .debug_str:000000000000a920 .LASF2326
C:\Users\CYMR90~1\AppData\Local\Temp\ccx4ZXSQ.s:29226  .debug_str:0000000000018e60 .LASF2327
C:\Users\CYMR90~1\AppData\Local\Temp\ccx4ZXSQ.s:23517  .debug_str:00000000000023da .LASF2328
C:\Users\CYMR90~1\AppData\Local\Temp\ccx4ZXSQ.s:28145  .debug_str:00000000000149e5 .LASF2329
C:\Users\CYMR90~1\AppData\Local\Temp\ccx4ZXSQ.s:27239  .debug_str:0000000000010fc4 .LASF2330
C:\Users\CYMR90~1\AppData\Local\Temp\ccx4ZXSQ.s:26099  .debug_str:000000000000c8f8 .LASF2331
C:\Users\CYMR90~1\AppData\Local\Temp\ccx4ZXSQ.s:27177  .debug_str:0000000000010b87 .LASF2332
C:\Users\CYMR90~1\AppData\Local\Temp\ccx4ZXSQ.s:31452  .debug_str:0000000000021a50 .LASF2333
C:\Users\CYMR90~1\AppData\Local\Temp\ccx4ZXSQ.s:32886  .debug_str:00000000000274e9 .LASF2334
C:\Users\CYMR90~1\AppData\Local\Temp\ccx4ZXSQ.s:27191  .debug_str:0000000000010c4c .LASF2335
C:\Users\CYMR90~1\AppData\Local\Temp\ccx4ZXSQ.s:27607  .debug_str:00000000000127df .LASF2336
C:\Users\CYMR90~1\AppData\Local\Temp\ccx4ZXSQ.s:26631  .debug_str:000000000000e9ae .LASF2337
C:\Users\CYMR90~1\AppData\Local\Temp\ccx4ZXSQ.s:24519  .debug_str:0000000000006314 .LASF2338
C:\Users\CYMR90~1\AppData\Local\Temp\ccx4ZXSQ.s:23559  .debug_str:0000000000002646 .LASF2339
C:\Users\CYMR90~1\AppData\Local\Temp\ccx4ZXSQ.s:30494  .debug_str:000000000001e05b .LASF2340
C:\Users\CYMR90~1\AppData\Local\Temp\ccx4ZXSQ.s:32760  .debug_str:0000000000026d44 .LASF2341
C:\Users\CYMR90~1\AppData\Local\Temp\ccx4ZXSQ.s:31098  .debug_str:00000000000204ff .LASF2342
C:\Users\CYMR90~1\AppData\Local\Temp\ccx4ZXSQ.s:31114  .debug_str:00000000000205d7 .LASF2343
C:\Users\CYMR90~1\AppData\Local\Temp\ccx4ZXSQ.s:32168  .debug_str:00000000000245af .LASF2344
C:\Users\CYMR90~1\AppData\Local\Temp\ccx4ZXSQ.s:32998  .debug_str:0000000000027b64 .LASF2345
C:\Users\CYMR90~1\AppData\Local\Temp\ccx4ZXSQ.s:30174  .debug_str:000000000001cac2 .LASF2346
C:\Users\CYMR90~1\AppData\Local\Temp\ccx4ZXSQ.s:30354  .debug_str:000000000001d740 .LASF2347
C:\Users\CYMR90~1\AppData\Local\Temp\ccx4ZXSQ.s:25131  .debug_str:0000000000008af0 .LASF2348
C:\Users\CYMR90~1\AppData\Local\Temp\ccx4ZXSQ.s:28007  .debug_str:00000000000141e0 .LASF2349
C:\Users\CYMR90~1\AppData\Local\Temp\ccx4ZXSQ.s:31592  .debug_str:0000000000022354 .LASF2350
C:\Users\CYMR90~1\AppData\Local\Temp\ccx4ZXSQ.s:33906  .debug_str:000000000002b396 .LASF2351
C:\Users\CYMR90~1\AppData\Local\Temp\ccx4ZXSQ.s:32384  .debug_str:000000000002538d .LASF2352
C:\Users\CYMR90~1\AppData\Local\Temp\ccx4ZXSQ.s:24681  .debug_str:0000000000006cf2 .LASF2353
C:\Users\CYMR90~1\AppData\Local\Temp\ccx4ZXSQ.s:27079  .debug_str:0000000000010538 .LASF2354
C:\Users\CYMR90~1\AppData\Local\Temp\ccx4ZXSQ.s:24619  .debug_str:00000000000068d5 .LASF2355
C:\Users\CYMR90~1\AppData\Local\Temp\ccx4ZXSQ.s:34316  .debug_str:000000000002cdda .LASF2356
C:\Users\CYMR90~1\AppData\Local\Temp\ccx4ZXSQ.s:33722  .debug_str:000000000002a8e3 .LASF2357
C:\Users\CYMR90~1\AppData\Local\Temp\ccx4ZXSQ.s:26367  .debug_str:000000000000da23 .LASF2358
C:\Users\CYMR90~1\AppData\Local\Temp\ccx4ZXSQ.s:25363  .debug_str:0000000000009922 .LASF2359
C:\Users\CYMR90~1\AppData\Local\Temp\ccx4ZXSQ.s:23893  .debug_str:0000000000003c27 .LASF2360
C:\Users\CYMR90~1\AppData\Local\Temp\ccx4ZXSQ.s:27091  .debug_str:0000000000010611 .LASF2361
C:\Users\CYMR90~1\AppData\Local\Temp\ccx4ZXSQ.s:25817  .debug_str:000000000000b6a2 .LASF2362
C:\Users\CYMR90~1\AppData\Local\Temp\ccx4ZXSQ.s:24551  .debug_str:00000000000064b2 .LASF2363
C:\Users\CYMR90~1\AppData\Local\Temp\ccx4ZXSQ.s:32172  .debug_str:00000000000245e6 .LASF2364
C:\Users\CYMR90~1\AppData\Local\Temp\ccx4ZXSQ.s:31330  .debug_str:0000000000021380 .LASF2365
C:\Users\CYMR90~1\AppData\Local\Temp\ccx4ZXSQ.s:27663  .debug_str:0000000000012b6c .LASF2366
C:\Users\CYMR90~1\AppData\Local\Temp\ccx4ZXSQ.s:32420  .debug_str:000000000002563d .LASF2367
C:\Users\CYMR90~1\AppData\Local\Temp\ccx4ZXSQ.s:33070  .debug_str:0000000000028096 .LASF2368
C:\Users\CYMR90~1\AppData\Local\Temp\ccx4ZXSQ.s:25349  .debug_str:00000000000097ff .LASF2369
C:\Users\CYMR90~1\AppData\Local\Temp\ccx4ZXSQ.s:26733  .debug_str:000000000000f032 .LASF2370
C:\Users\CYMR90~1\AppData\Local\Temp\ccx4ZXSQ.s:24691  .debug_str:0000000000006daf .LASF2371
C:\Users\CYMR90~1\AppData\Local\Temp\ccx4ZXSQ.s:27151  .debug_str:00000000000109fa .LASF2372
C:\Users\CYMR90~1\AppData\Local\Temp\ccx4ZXSQ.s:23289  .debug_str:0000000000001591 .LASF2373
C:\Users\CYMR90~1\AppData\Local\Temp\ccx4ZXSQ.s:32832  .debug_str:00000000000271c5 .LASF2374
C:\Users\CYMR90~1\AppData\Local\Temp\ccx4ZXSQ.s:23101  .debug_str:00000000000009fd .LASF2375
C:\Users\CYMR90~1\AppData\Local\Temp\ccx4ZXSQ.s:27567  .debug_str:0000000000012568 .LASF2376
C:\Users\CYMR90~1\AppData\Local\Temp\ccx4ZXSQ.s:30798  .debug_str:000000000001f319 .LASF2377
C:\Users\CYMR90~1\AppData\Local\Temp\ccx4ZXSQ.s:34138  .debug_str:000000000002c21c .LASF2378
C:\Users\CYMR90~1\AppData\Local\Temp\ccx4ZXSQ.s:25819  .debug_str:000000000000b6c7 .LASF2379
C:\Users\CYMR90~1\AppData\Local\Temp\ccx4ZXSQ.s:24731  .debug_str:0000000000007066 .LASF2380
C:\Users\CYMR90~1\AppData\Local\Temp\ccx4ZXSQ.s:32376  .debug_str:000000000002531b .LASF2381
C:\Users\CYMR90~1\AppData\Local\Temp\ccx4ZXSQ.s:32130  .debug_str:00000000000243a6 .LASF2382
C:\Users\CYMR90~1\AppData\Local\Temp\ccx4ZXSQ.s:27325  .debug_str:0000000000011559 .LASF2383
C:\Users\CYMR90~1\AppData\Local\Temp\ccx4ZXSQ.s:30576  .debug_str:000000000001e557 .LASF2384
C:\Users\CYMR90~1\AppData\Local\Temp\ccx4ZXSQ.s:33874  .debug_str:000000000002b1fe .LASF2385
C:\Users\CYMR90~1\AppData\Local\Temp\ccx4ZXSQ.s:23407  .debug_str:0000000000001d7b .LASF2386
C:\Users\CYMR90~1\AppData\Local\Temp\ccx4ZXSQ.s:28247  .debug_str:000000000001505d .LASF2387
C:\Users\CYMR90~1\AppData\Local\Temp\ccx4ZXSQ.s:33072  .debug_str:00000000000280a8 .LASF2388
C:\Users\CYMR90~1\AppData\Local\Temp\ccx4ZXSQ.s:29902  .debug_str:000000000001ba40 .LASF2389
C:\Users\CYMR90~1\AppData\Local\Temp\ccx4ZXSQ.s:31106  .debug_str:0000000000020577 .LASF2390
C:\Users\CYMR90~1\AppData\Local\Temp\ccx4ZXSQ.s:24285  .debug_str:00000000000054bb .LASF2391
C:\Users\CYMR90~1\AppData\Local\Temp\ccx4ZXSQ.s:29152  .debug_str:00000000000189e8 .LASF2392
C:\Users\CYMR90~1\AppData\Local\Temp\ccx4ZXSQ.s:33978  .debug_str:000000000002b7c7 .LASF2393
C:\Users\CYMR90~1\AppData\Local\Temp\ccx4ZXSQ.s:30030  .debug_str:000000000001c1d1 .LASF2394
C:\Users\CYMR90~1\AppData\Local\Temp\ccx4ZXSQ.s:33134  .debug_str:000000000002842c .LASF2395
C:\Users\CYMR90~1\AppData\Local\Temp\ccx4ZXSQ.s:26381  .debug_str:000000000000db06 .LASF2396
C:\Users\CYMR90~1\AppData\Local\Temp\ccx4ZXSQ.s:31170  .debug_str:000000000002097c .LASF2397
C:\Users\CYMR90~1\AppData\Local\Temp\ccx4ZXSQ.s:24337  .debug_str:00000000000057c2 .LASF2398
C:\Users\CYMR90~1\AppData\Local\Temp\ccx4ZXSQ.s:29206  .debug_str:0000000000018d2f .LASF2399
C:\Users\CYMR90~1\AppData\Local\Temp\ccx4ZXSQ.s:34034  .debug_str:000000000002bb2d .LASF2400
C:\Users\CYMR90~1\AppData\Local\Temp\ccx4ZXSQ.s:33910  .debug_str:000000000002b3ce .LASF2401
C:\Users\CYMR90~1\AppData\Local\Temp\ccx4ZXSQ.s:25603  .debug_str:000000000000a7ef .LASF2402
C:\Users\CYMR90~1\AppData\Local\Temp\ccx4ZXSQ.s:28900  .debug_str:0000000000017aad .LASF2403
C:\Users\CYMR90~1\AppData\Local\Temp\ccx4ZXSQ.s:32176  .debug_str:0000000000024617 .LASF2404
C:\Users\CYMR90~1\AppData\Local\Temp\ccx4ZXSQ.s:23923  .debug_str:0000000000003dab .LASF2405
C:\Users\CYMR90~1\AppData\Local\Temp\ccx4ZXSQ.s:27201  .debug_str:0000000000010da4 .LASF2406
C:\Users\CYMR90~1\AppData\Local\Temp\ccx4ZXSQ.s:30466  .debug_str:000000000001de79 .LASF2407
C:\Users\CYMR90~1\AppData\Local\Temp\ccx4ZXSQ.s:33750  .debug_str:000000000002aaac .LASF2408
C:\Users\CYMR90~1\AppData\Local\Temp\ccx4ZXSQ.s:28001  .debug_str:0000000000014157 .LASF2409
C:\Users\CYMR90~1\AppData\Local\Temp\ccx4ZXSQ.s:26357  .debug_str:000000000000d97c .LASF2410
C:\Users\CYMR90~1\AppData\Local\Temp\ccx4ZXSQ.s:29796  .debug_str:000000000001b390 .LASF2411
C:\Users\CYMR90~1\AppData\Local\Temp\ccx4ZXSQ.s:22967  .debug_str:0000000000000267 .LASF2412
C:\Users\CYMR90~1\AppData\Local\Temp\ccx4ZXSQ.s:22989  .debug_str:00000000000003ad .LASF2413
C:\Users\CYMR90~1\AppData\Local\Temp\ccx4ZXSQ.s:32604  .debug_str:0000000000026382 .LASF2414
C:\Users\CYMR90~1\AppData\Local\Temp\ccx4ZXSQ.s:25857  .debug_str:000000000000b8cf .LASF2415
C:\Users\CYMR90~1\AppData\Local\Temp\ccx4ZXSQ.s:30644  .debug_str:000000000001e9d0 .LASF2416
C:\Users\CYMR90~1\AppData\Local\Temp\ccx4ZXSQ.s:26201  .debug_str:000000000000cfef .LASF2417
C:\Users\CYMR90~1\AppData\Local\Temp\ccx4ZXSQ.s:28693  .debug_str:0000000000016bdb .LASF2418
C:\Users\CYMR90~1\AppData\Local\Temp\ccx4ZXSQ.s:26767  .debug_str:000000000000f265 .LASF2419
C:\Users\CYMR90~1\AppData\Local\Temp\ccx4ZXSQ.s:27875  .debug_str:000000000001391a .LASF2420
C:\Users\CYMR90~1\AppData\Local\Temp\ccx4ZXSQ.s:32662  .debug_str:000000000002673d .LASF2421
C:\Users\CYMR90~1\AppData\Local\Temp\ccx4ZXSQ.s:25909  .debug_str:000000000000bcba .LASF2422
C:\Users\CYMR90~1\AppData\Local\Temp\ccx4ZXSQ.s:30694  .debug_str:000000000001ecd4 .LASF2423
C:\Users\CYMR90~1\AppData\Local\Temp\ccx4ZXSQ.s:23889  .debug_str:0000000000003bdc .LASF2424
C:\Users\CYMR90~1\AppData\Local\Temp\ccx4ZXSQ.s:28755  .debug_str:0000000000016ff3 .LASF2425
C:\Users\CYMR90~1\AppData\Local\Temp\ccx4ZXSQ.s:25731  .debug_str:000000000000b06f .LASF2426
C:\Users\CYMR90~1\AppData\Local\Temp\ccx4ZXSQ.s:28930  .debug_str:0000000000017c79 .LASF2427
C:\Users\CYMR90~1\AppData\Local\Temp\ccx4ZXSQ.s:32208  .debug_str:000000000002480e .LASF2428
C:\Users\CYMR90~1\AppData\Local\Temp\ccx4ZXSQ.s:23875  .debug_str:0000000000003af0 .LASF2429
C:\Users\CYMR90~1\AppData\Local\Temp\ccx4ZXSQ.s:27241  .debug_str:0000000000010fda .LASF2430
C:\Users\CYMR90~1\AppData\Local\Temp\ccx4ZXSQ.s:27495  .debug_str:000000000001209b .LASF2431
C:\Users\CYMR90~1\AppData\Local\Temp\ccx4ZXSQ.s:33786  .debug_str:000000000002ac89 .LASF2432
C:\Users\CYMR90~1\AppData\Local\Temp\ccx4ZXSQ.s:24083  .debug_str:00000000000047cf .LASF2433
C:\Users\CYMR90~1\AppData\Local\Temp\ccx4ZXSQ.s:34076  .debug_str:000000000002be00 .LASF2434
C:\Users\CYMR90~1\AppData\Local\Temp\ccx4ZXSQ.s:31976  .debug_str:0000000000023a53 .LASF2435
C:\Users\CYMR90~1\AppData\Local\Temp\ccx4ZXSQ.s:33356  .debug_str:0000000000029385 .LASF2436
C:\Users\CYMR90~1\AppData\Local\Temp\ccx4ZXSQ.s:26605  .debug_str:000000000000e828 .LASF2437
C:\Users\CYMR90~1\AppData\Local\Temp\ccx4ZXSQ.s:31390  .debug_str:0000000000021704 .LASF2438
C:\Users\CYMR90~1\AppData\Local\Temp\ccx4ZXSQ.s:27217  .debug_str:0000000000010e7d .LASF2439
C:\Users\CYMR90~1\AppData\Local\Temp\ccx4ZXSQ.s:29450  .debug_str:0000000000019d03 .LASF2440
C:\Users\CYMR90~1\AppData\Local\Temp\ccx4ZXSQ.s:29834  .debug_str:000000000001b5eb .LASF2441
C:\Users\CYMR90~1\AppData\Local\Temp\ccx4ZXSQ.s:27503  .debug_str:0000000000012108 .LASF2442
C:\Users\CYMR90~1\AppData\Local\Temp\ccx4ZXSQ.s:32272  .debug_str:0000000000024cac .LASF2443
C:\Users\CYMR90~1\AppData\Local\Temp\ccx4ZXSQ.s:30330  .debug_str:000000000001d52c .LASF2444
C:\Users\CYMR90~1\AppData\Local\Temp\ccx4ZXSQ.s:31446  .debug_str:00000000000219e5 .LASF2445
C:\Users\CYMR90~1\AppData\Local\Temp\ccx4ZXSQ.s:24623  .debug_str:000000000000690e .LASF2446
C:\Users\CYMR90~1\AppData\Local\Temp\ccx4ZXSQ.s:29496  .debug_str:000000000001a048 .LASF2447
C:\Users\CYMR90~1\AppData\Local\Temp\ccx4ZXSQ.s:34312  .debug_str:000000000002cd9b .LASF2448
C:\Users\CYMR90~1\AppData\Local\Temp\ccx4ZXSQ.s:27561  .debug_str:00000000000124f4 .LASF2449
C:\Users\CYMR90~1\AppData\Local\Temp\ccx4ZXSQ.s:32326  .debug_str:0000000000024fee .LASF2450
C:\Users\CYMR90~1\AppData\Local\Temp\ccx4ZXSQ.s:31132  .debug_str:0000000000020717 .LASF2451
C:\Users\CYMR90~1\AppData\Local\Temp\ccx4ZXSQ.s:32440  .debug_str:0000000000025762 .LASF2452
C:\Users\CYMR90~1\AppData\Local\Temp\ccx4ZXSQ.s:30766  .debug_str:000000000001f143 .LASF2453
C:\Users\CYMR90~1\AppData\Local\Temp\ccx4ZXSQ.s:29120  .debug_str:00000000000187fe .LASF2454
C:\Users\CYMR90~1\AppData\Local\Temp\ccx4ZXSQ.s:32606  .debug_str:000000000002639b .LASF2455
C:\Users\CYMR90~1\AppData\Local\Temp\ccx4ZXSQ.s:25795  .debug_str:000000000000b556 .LASF2456
C:\Users\CYMR90~1\AppData\Local\Temp\ccx4ZXSQ.s:24079  .debug_str:0000000000004792 .LASF2457
C:\Users\CYMR90~1\AppData\Local\Temp\ccx4ZXSQ.s:34066  .debug_str:000000000002bd58 .LASF2458
C:\Users\CYMR90~1\AppData\Local\Temp\ccx4ZXSQ.s:32366  .debug_str:00000000000252b2 .LASF2459
C:\Users\CYMR90~1\AppData\Local\Temp\ccx4ZXSQ.s:25799  .debug_str:000000000000b5ab .LASF2460
C:\Users\CYMR90~1\AppData\Local\Temp\ccx4ZXSQ.s:32284  .debug_str:0000000000024d53 .LASF2461
C:\Users\CYMR90~1\AppData\Local\Temp\ccx4ZXSQ.s:34134  .debug_str:000000000002c18c .LASF2462
C:\Users\CYMR90~1\AppData\Local\Temp\ccx4ZXSQ.s:30342  .debug_str:000000000001d696 .LASF2463
C:\Users\CYMR90~1\AppData\Local\Temp\ccx4ZXSQ.s:23521  .debug_str:000000000000240b .LASF2464
C:\Users\CYMR90~1\AppData\Local\Temp\ccx4ZXSQ.s:34192  .debug_str:000000000002c583 .LASF2465
C:\Users\CYMR90~1\AppData\Local\Temp\ccx4ZXSQ.s:33204  .debug_str:00000000000288f3 .LASF2466
C:\Users\CYMR90~1\AppData\Local\Temp\ccx4ZXSQ.s:26443  .debug_str:000000000000de7b .LASF2467
C:\Users\CYMR90~1\AppData\Local\Temp\ccx4ZXSQ.s:31236  .debug_str:0000000000020d55 .LASF2468
C:\Users\CYMR90~1\AppData\Local\Temp\ccx4ZXSQ.s:29282  .debug_str:00000000000191a6 .LASF2469
C:\Users\CYMR90~1\AppData\Local\Temp\ccx4ZXSQ.s:23953  .debug_str:0000000000003faa .LASF2470
C:\Users\CYMR90~1\AppData\Local\Temp\ccx4ZXSQ.s:23573  .debug_str:0000000000002751 .LASF2471
C:\Users\CYMR90~1\AppData\Local\Temp\ccx4ZXSQ.s:28427  .debug_str:0000000000015b7f .LASF2472
C:\Users\CYMR90~1\AppData\Local\Temp\ccx4ZXSQ.s:24019  .debug_str:00000000000043c5 .LASF2473
C:\Users\CYMR90~1\AppData\Local\Temp\ccx4ZXSQ.s:26501  .debug_str:000000000000e1b0 .LASF2474
C:\Users\CYMR90~1\AppData\Local\Temp\ccx4ZXSQ.s:31294  .debug_str:0000000000021129 .LASF2475
C:\Users\CYMR90~1\AppData\Local\Temp\ccx4ZXSQ.s:33476  .debug_str:0000000000029ac0 .LASF2476
C:\Users\CYMR90~1\AppData\Local\Temp\ccx4ZXSQ.s:24515  .debug_str:00000000000062d8 .LASF2477
C:\Users\CYMR90~1\AppData\Local\Temp\ccx4ZXSQ.s:28465  .debug_str:0000000000015d9a .LASF2478
C:\Users\CYMR90~1\AppData\Local\Temp\ccx4ZXSQ.s:33244  .debug_str:0000000000028bdf .LASF2479
C:\Users\CYMR90~1\AppData\Local\Temp\ccx4ZXSQ.s:31562  .debug_str:00000000000221ac .LASF2480
C:\Users\CYMR90~1\AppData\Local\Temp\ccx4ZXSQ.s:29906  .debug_str:000000000001ba81 .LASF2481
C:\Users\CYMR90~1\AppData\Local\Temp\ccx4ZXSQ.s:30034  .debug_str:000000000001c1ff .LASF2482
C:\Users\CYMR90~1\AppData\Local\Temp\ccx4ZXSQ.s:33326  .debug_str:00000000000291d7 .LASF2483
C:\Users\CYMR90~1\AppData\Local\Temp\ccx4ZXSQ.s:25001  .debug_str:0000000000008262 .LASF2484
C:\Users\CYMR90~1\AppData\Local\Temp\ccx4ZXSQ.s:28215  .debug_str:0000000000014e81 .LASF2485
C:\Users\CYMR90~1\AppData\Local\Temp\ccx4ZXSQ.s:27927  .debug_str:0000000000013cc7 .LASF2486
C:\Users\CYMR90~1\AppData\Local\Temp\ccx4ZXSQ.s:32718  .debug_str:0000000000026ac5 .LASF2487
C:\Users\CYMR90~1\AppData\Local\Temp\ccx4ZXSQ.s:25961  .debug_str:000000000000bff1 .LASF2488
C:\Users\CYMR90~1\AppData\Local\Temp\ccx4ZXSQ.s:30744  .debug_str:000000000001efd3 .LASF2489
C:\Users\CYMR90~1\AppData\Local\Temp\ccx4ZXSQ.s:23943  .debug_str:0000000000003f17 .LASF2490
C:\Users\CYMR90~1\AppData\Local\Temp\ccx4ZXSQ.s:28816  .debug_str:00000000000175ed .LASF2491
C:\Users\CYMR90~1\AppData\Local\Temp\ccx4ZXSQ.s:33614  .debug_str:000000000002a2e8 .LASF2492
C:\Users\CYMR90~1\AppData\Local\Temp\ccx4ZXSQ.s:26865  .debug_str:000000000000f808 .LASF2493
C:\Users\CYMR90~1\AppData\Local\Temp\ccx4ZXSQ.s:24849  .debug_str:0000000000007806 .LASF2494
C:\Users\CYMR90~1\AppData\Local\Temp\ccx4ZXSQ.s:26019  .debug_str:000000000000c3f1 .LASF2495
C:\Users\CYMR90~1\AppData\Local\Temp\ccx4ZXSQ.s:30788  .debug_str:000000000001f294 .LASF2496
C:\Users\CYMR90~1\AppData\Local\Temp\ccx4ZXSQ.s:23991  .debug_str:0000000000004229 .LASF2497
C:\Users\CYMR90~1\AppData\Local\Temp\ccx4ZXSQ.s:23377  .debug_str:0000000000001ba1 .LASF2498
C:\Users\CYMR90~1\AppData\Local\Temp\ccx4ZXSQ.s:33668  .debug_str:000000000002a60c .LASF2499
C:\Users\CYMR90~1\AppData\Local\Temp\ccx4ZXSQ.s:26921  .debug_str:000000000000fb3f .LASF2500
C:\Users\CYMR90~1\AppData\Local\Temp\ccx4ZXSQ.s:26643  .debug_str:000000000000ea70 .LASF2501
C:\Users\CYMR90~1\AppData\Local\Temp\ccx4ZXSQ.s:29918  .debug_str:000000000001bb67 .LASF2502
C:\Users\CYMR90~1\AppData\Local\Temp\ccx4ZXSQ.s:33214  .debug_str:0000000000028994 .LASF2503
C:\Users\CYMR90~1\AppData\Local\Temp\ccx4ZXSQ.s:24865  .debug_str:0000000000007929 .LASF2504
C:\Users\CYMR90~1\AppData\Local\Temp\ccx4ZXSQ.s:28099  .debug_str:0000000000014711 .LASF2505
C:\Users\CYMR90~1\AppData\Local\Temp\ccx4ZXSQ.s:31388  .debug_str:00000000000216f1 .LASF2506
C:\Users\CYMR90~1\AppData\Local\Temp\ccx4ZXSQ.s:33600  .debug_str:000000000002a225 .LASF2507
C:\Users\CYMR90~1\AppData\Local\Temp\ccx4ZXSQ.s:26409  .debug_str:000000000000dca3 .LASF2508
C:\Users\CYMR90~1\AppData\Local\Temp\ccx4ZXSQ.s:29696  .debug_str:000000000001ad25 .LASF2509
C:\Users\CYMR90~1\AppData\Local\Temp\ccx4ZXSQ.s:32964  .debug_str:00000000000279a4 .LASF2510
C:\Users\CYMR90~1\AppData\Local\Temp\ccx4ZXSQ.s:33298  .debug_str:0000000000028faa .LASF2511
C:\Users\CYMR90~1\AppData\Local\Temp\ccx4ZXSQ.s:26549  .debug_str:000000000000e4ce .LASF2512
C:\Users\CYMR90~1\AppData\Local\Temp\ccx4ZXSQ.s:31332  .debug_str:00000000000213a1 .LASF2513
C:\Users\CYMR90~1\AppData\Local\Temp\ccx4ZXSQ.s:24499  .debug_str:00000000000061d6 .LASF2514
C:\Users\CYMR90~1\AppData\Local\Temp\ccx4ZXSQ.s:29388  .debug_str:000000000001996f .LASF2515
C:\Users\CYMR90~1\AppData\Local\Temp\ccx4ZXSQ.s:30178  .debug_str:000000000001cafe .LASF2516
C:\Users\CYMR90~1\AppData\Local\Temp\ccx4ZXSQ.s:27441  .debug_str:0000000000011ca5 .LASF2517
C:\Users\CYMR90~1\AppData\Local\Temp\ccx4ZXSQ.s:32218  .debug_str:000000000002487e .LASF2518
C:\Users\CYMR90~1\AppData\Local\Temp\ccx4ZXSQ.s:30276  .debug_str:000000000001d1a0 .LASF2519
C:\Users\CYMR90~1\AppData\Local\Temp\ccx4ZXSQ.s:31478  .debug_str:0000000000021bc8 .LASF2520
C:\Users\CYMR90~1\AppData\Local\Temp\ccx4ZXSQ.s:24659  .debug_str:0000000000006b85 .LASF2521
C:\Users\CYMR90~1\AppData\Local\Temp\ccx4ZXSQ.s:29524  .debug_str:000000000001a203 .LASF2522
C:\Users\CYMR90~1\AppData\Local\Temp\ccx4ZXSQ.s:34342  .debug_str:000000000002cf61 .LASF2523
C:\Users\CYMR90~1\AppData\Local\Temp\ccx4ZXSQ.s:27587  .debug_str:000000000001266c .LASF2524
C:\Users\CYMR90~1\AppData\Local\Temp\ccx4ZXSQ.s:32348  .debug_str:0000000000025129 .LASF2525
C:\Users\CYMR90~1\AppData\Local\Temp\ccx4ZXSQ.s:27785  .debug_str:0000000000013340 .LASF2526
C:\Users\CYMR90~1\AppData\Local\Temp\ccx4ZXSQ.s:23823  .debug_str:0000000000003787 .LASF2527
C:\Users\CYMR90~1\AppData\Local\Temp\ccx4ZXSQ.s:29178  .debug_str:0000000000018b68 .LASF2528
C:\Users\CYMR90~1\AppData\Local\Temp\ccx4ZXSQ.s:25425  .debug_str:0000000000009cfe .LASF2529
C:\Users\CYMR90~1\AppData\Local\Temp\ccx4ZXSQ.s:24167  .debug_str:0000000000004dca .LASF2530
C:\Users\CYMR90~1\AppData\Local\Temp\ccx4ZXSQ.s:32678  .debug_str:000000000002681b .LASF2531
C:\Users\CYMR90~1\AppData\Local\Temp\ccx4ZXSQ.s:28593  .debug_str:0000000000016593 .LASF2532
C:\Users\CYMR90~1\AppData\Local\Temp\ccx4ZXSQ.s:28337  .debug_str:0000000000015641 .LASF2533
C:\Users\CYMR90~1\AppData\Local\Temp\ccx4ZXSQ.s:28739  .debug_str:0000000000016efc .LASF2534
C:\Users\CYMR90~1\AppData\Local\Temp\ccx4ZXSQ.s:25491  .debug_str:000000000000a0ca .LASF2535
C:\Users\CYMR90~1\AppData\Local\Temp\ccx4ZXSQ.s:24703  .debug_str:0000000000006e77 .LASF2536
C:\Users\CYMR90~1\AppData\Local\Temp\ccx4ZXSQ.s:33430  .debug_str:00000000000297be .LASF2537
C:\Users\CYMR90~1\AppData\Local\Temp\ccx4ZXSQ.s:23059  .debug_str:00000000000007a4 .LASF2538
C:\Users\CYMR90~1\AppData\Local\Temp\ccx4ZXSQ.s:24895  .debug_str:0000000000007b0e .LASF2539
C:\Users\CYMR90~1\AppData\Local\Temp\ccx4ZXSQ.s:23869  .debug_str:0000000000003a9d .LASF2540
C:\Users\CYMR90~1\AppData\Local\Temp\ccx4ZXSQ.s:32564  .debug_str:000000000002605d .LASF2541
C:\Users\CYMR90~1\AppData\Local\Temp\ccx4ZXSQ.s:27589  .debug_str:0000000000012681 .LASF2542
C:\Users\CYMR90~1\AppData\Local\Temp\ccx4ZXSQ.s:26327  .debug_str:000000000000d727 .LASF2543
C:\Users\CYMR90~1\AppData\Local\Temp\ccx4ZXSQ.s:31062  .debug_str:00000000000202ab .LASF2544
C:\Users\CYMR90~1\AppData\Local\Temp\ccx4ZXSQ.s:30144  .debug_str:000000000001c905 .LASF2545
C:\Users\CYMR90~1\AppData\Local\Temp\ccx4ZXSQ.s:23915  .debug_str:0000000000003d47 .LASF2546
C:\Users\CYMR90~1\AppData\Local\Temp\ccx4ZXSQ.s:32724  .debug_str:0000000000026b3d .LASF2547
C:\Users\CYMR90~1\AppData\Local\Temp\ccx4ZXSQ.s:26293  .debug_str:000000000000d50f .LASF2548
C:\Users\CYMR90~1\AppData\Local\Temp\ccx4ZXSQ.s:25327  .debug_str:00000000000096d0 .LASF2549
C:\Users\CYMR90~1\AppData\Local\Temp\ccx4ZXSQ.s:24257  .debug_str:00000000000052ec .LASF2550
C:\Users\CYMR90~1\AppData\Local\Temp\ccx4ZXSQ.s:33080  .debug_str:000000000002810f .LASF2551
C:\Users\CYMR90~1\AppData\Local\Temp\ccx4ZXSQ.s:33386  .debug_str:000000000002957d .LASF2552
C:\Users\CYMR90~1\AppData\Local\Temp\ccx4ZXSQ.s:27437  .debug_str:0000000000011c40 .LASF2553
C:\Users\CYMR90~1\AppData\Local\Temp\ccx4ZXSQ.s:31430  .debug_str:000000000002192e .LASF2554
C:\Users\CYMR90~1\AppData\Local\Temp\ccx4ZXSQ.s:28511  .debug_str:0000000000016054 .LASF2555
C:\Users\CYMR90~1\AppData\Local\Temp\ccx4ZXSQ.s:29082  .debug_str:00000000000185e2 .LASF2556
C:\Users\CYMR90~1\AppData\Local\Temp\ccx4ZXSQ.s:27907  .debug_str:0000000000013b83 .LASF2557
C:\Users\CYMR90~1\AppData\Local\Temp\ccx4ZXSQ.s:28403  .debug_str:0000000000015a3b .LASF2558
C:\Users\CYMR90~1\AppData\Local\Temp\ccx4ZXSQ.s:27083  .debug_str:0000000000010577 .LASF2559
C:\Users\CYMR90~1\AppData\Local\Temp\ccx4ZXSQ.s:27381  .debug_str:0000000000011882 .LASF2560
C:\Users\CYMR90~1\AppData\Local\Temp\ccx4ZXSQ.s:26447  .debug_str:000000000000dec0 .LASF2561
C:\Users\CYMR90~1\AppData\Local\Temp\ccx4ZXSQ.s:25405  .debug_str:0000000000009b5c .LASF2562
C:\Users\CYMR90~1\AppData\Local\Temp\ccx4ZXSQ.s:34100  .debug_str:000000000002bf89 .LASF2563
C:\Users\CYMR90~1\AppData\Local\Temp\ccx4ZXSQ.s:28255  .debug_str:00000000000150bd .LASF2564
C:\Users\CYMR90~1\AppData\Local\Temp\ccx4ZXSQ.s:33426  .debug_str:0000000000029781 .LASF2565
C:\Users\CYMR90~1\AppData\Local\Temp\ccx4ZXSQ.s:32120  .debug_str:00000000000242eb .LASF2566
C:\Users\CYMR90~1\AppData\Local\Temp\ccx4ZXSQ.s:28912  .debug_str:0000000000017b80 .LASF2567
C:\Users\CYMR90~1\AppData\Local\Temp\ccx4ZXSQ.s:28525  .debug_str:000000000001614c .LASF2568
C:\Users\CYMR90~1\AppData\Local\Temp\ccx4ZXSQ.s:28663  .debug_str:0000000000016a49 .LASF2569
C:\Users\CYMR90~1\AppData\Local\Temp\ccx4ZXSQ.s:24541  .debug_str:0000000000006436 .LASF2570
C:\Users\CYMR90~1\AppData\Local\Temp\ccx4ZXSQ.s:26311  .debug_str:000000000000d62a .LASF2571
C:\Users\CYMR90~1\AppData\Local\Temp\ccx4ZXSQ.s:30840  .debug_str:000000000001f55b .LASF2572
C:\Users\CYMR90~1\AppData\Local\Temp\ccx4ZXSQ.s:24783  .debug_str:00000000000073d4 .LASF2573
C:\Users\CYMR90~1\AppData\Local\Temp\ccx4ZXSQ.s:23207  .debug_str:00000000000010ee .LASF2574
C:\Users\CYMR90~1\AppData\Local\Temp\ccx4ZXSQ.s:29786  .debug_str:000000000001b30d .LASF2575
C:\Users\CYMR90~1\AppData\Local\Temp\ccx4ZXSQ.s:26111  .debug_str:000000000000c9a5 .LASF2576
C:\Users\CYMR90~1\AppData\Local\Temp\ccx4ZXSQ.s:28643  .debug_str:0000000000016914 .LASF2577
C:\Users\CYMR90~1\AppData\Local\Temp\ccx4ZXSQ.s:26017  .debug_str:000000000000c3d9 .LASF2578
C:\Users\CYMR90~1\AppData\Local\Temp\ccx4ZXSQ.s:26153  .debug_str:000000000000cc34 .LASF2579
C:\Users\CYMR90~1\AppData\Local\Temp\ccx4ZXSQ.s:30188  .debug_str:000000000001cb89 .LASF2580
C:\Users\CYMR90~1\AppData\Local\Temp\ccx4ZXSQ.s:24201  .debug_str:0000000000004fe4 .LASF2581
C:\Users\CYMR90~1\AppData\Local\Temp\ccx4ZXSQ.s:30040  .debug_str:000000000001c256 .LASF2582
C:\Users\CYMR90~1\AppData\Local\Temp\ccx4ZXSQ.s:28515  .debug_str:00000000000160bd .LASF2583
C:\Users\CYMR90~1\AppData\Local\Temp\ccx4ZXSQ.s:33566  .debug_str:000000000002a054 .LASF2584
C:\Users\CYMR90~1\AppData\Local\Temp\ccx4ZXSQ.s:31716  .debug_str:0000000000022ad8 .LASF2585
C:\Users\CYMR90~1\AppData\Local\Temp\ccx4ZXSQ.s:24173  .debug_str:0000000000004e2f .LASF2586
C:\Users\CYMR90~1\AppData\Local\Temp\ccx4ZXSQ.s:31456  .debug_str:0000000000021a85 .LASF2587
C:\Users\CYMR90~1\AppData\Local\Temp\ccx4ZXSQ.s:33852  .debug_str:000000000002b0c6 .LASF2588
C:\Users\CYMR90~1\AppData\Local\Temp\ccx4ZXSQ.s:29254  .debug_str:0000000000018ffd .LASF2589
C:\Users\CYMR90~1\AppData\Local\Temp\ccx4ZXSQ.s:24915  .debug_str:0000000000007c47 .LASF2590
C:\Users\CYMR90~1\AppData\Local\Temp\ccx4ZXSQ.s:25403  .debug_str:0000000000009b3c .LASF2591
C:\Users\CYMR90~1\AppData\Local\Temp\ccx4ZXSQ.s:27767  .debug_str:0000000000013247 .LASF2592
C:\Users\CYMR90~1\AppData\Local\Temp\ccx4ZXSQ.s:25465  .debug_str:0000000000009f3c .LASF2593
C:\Users\CYMR90~1\AppData\Local\Temp\ccx4ZXSQ.s:23955  .debug_str:0000000000003fc3 .LASF2594
C:\Users\CYMR90~1\AppData\Local\Temp\ccx4ZXSQ.s:30050  .debug_str:000000000001c31e .LASF2595
C:\Users\CYMR90~1\AppData\Local\Temp\ccx4ZXSQ.s:29170  .debug_str:0000000000018b00 .LASF2596
C:\Users\CYMR90~1\AppData\Local\Temp\ccx4ZXSQ.s:25527  .debug_str:000000000000a32e .LASF2597
C:\Users\CYMR90~1\AppData\Local\Temp\ccx4ZXSQ.s:34438  .debug_str:000000000002d57d .LASF2598
C:\Users\CYMR90~1\AppData\Local\Temp\ccx4ZXSQ.s:23403  .debug_str:0000000000001d41 .LASF2599
C:\Users\CYMR90~1\AppData\Local\Temp\ccx4ZXSQ.s:28013  .debug_str:0000000000014221 .LASF2600
C:\Users\CYMR90~1\AppData\Local\Temp\ccx4ZXSQ.s:31690  .debug_str:000000000002293c .LASF2601
C:\Users\CYMR90~1\AppData\Local\Temp\ccx4ZXSQ.s:34210  .debug_str:000000000002c691 .LASF2602
C:\Users\CYMR90~1\AppData\Local\Temp\ccx4ZXSQ.s:27445  .debug_str:0000000000011cc9 .LASF2603
C:\Users\CYMR90~1\AppData\Local\Temp\ccx4ZXSQ.s:26757  .debug_str:000000000000f1e9 .LASF2604
C:\Users\CYMR90~1\AppData\Local\Temp\ccx4ZXSQ.s:30324  .debug_str:000000000001d4c7 .LASF2605
C:\Users\CYMR90~1\AppData\Local\Temp\ccx4ZXSQ.s:29562  .debug_str:000000000001a439 .LASF2606
C:\Users\CYMR90~1\AppData\Local\Temp\ccx4ZXSQ.s:24217  .debug_str:00000000000050bf .LASF2607
C:\Users\CYMR90~1\AppData\Local\Temp\ccx4ZXSQ.s:24135  .debug_str:0000000000004bc7 .LASF2608
C:\Users\CYMR90~1\AppData\Local\Temp\ccx4ZXSQ.s:34478  .debug_str:000000000002d84c .LASF2609
C:\Users\CYMR90~1\AppData\Local\Temp\ccx4ZXSQ.s:30962  .debug_str:000000000001fcec .LASF2610
C:\Users\CYMR90~1\AppData\Local\Temp\ccx4ZXSQ.s:25075  .debug_str:00000000000087c1 .LASF2611
C:\Users\CYMR90~1\AppData\Local\Temp\ccx4ZXSQ.s:25063  .debug_str:0000000000008729 .LASF2612
C:\Users\CYMR90~1\AppData\Local\Temp\ccx4ZXSQ.s:27653  .debug_str:0000000000012ade .LASF2613
C:\Users\CYMR90~1\AppData\Local\Temp\ccx4ZXSQ.s:27397  .debug_str:00000000000119ad .LASF2614
C:\Users\CYMR90~1\AppData\Local\Temp\ccx4ZXSQ.s:28661  .debug_str:0000000000016a25 .LASF2615
C:\Users\CYMR90~1\AppData\Local\Temp\ccx4ZXSQ.s:29996  .debug_str:000000000001c009 .LASF2616
C:\Users\CYMR90~1\AppData\Local\Temp\ccx4ZXSQ.s:33362  .debug_str:0000000000029414 .LASF2617
C:\Users\CYMR90~1\AppData\Local\Temp\ccx4ZXSQ.s:31568  .debug_str:000000000002221a .LASF2618
C:\Users\CYMR90~1\AppData\Local\Temp\ccx4ZXSQ.s:30580  .debug_str:000000000001e582 .LASF2619
C:\Users\CYMR90~1\AppData\Local\Temp\ccx4ZXSQ.s:29536  .debug_str:000000000001a2d5 .LASF2620
C:\Users\CYMR90~1\AppData\Local\Temp\ccx4ZXSQ.s:28619  .debug_str:000000000001675e .LASF2621
C:\Users\CYMR90~1\AppData\Local\Temp\ccx4ZXSQ.s:27671  .debug_str:0000000000012bf1 .LASF2622
C:\Users\CYMR90~1\AppData\Local\Temp\ccx4ZXSQ.s:31958  .debug_str:000000000002393f .LASF2623
C:\Users\CYMR90~1\AppData\Local\Temp\ccx4ZXSQ.s:28443  .debug_str:0000000000015c81 .LASF2624
C:\Users\CYMR90~1\AppData\Local\Temp\ccx4ZXSQ.s:24059  .debug_str:0000000000004635 .LASF2625
C:\Users\CYMR90~1\AppData\Local\Temp\ccx4ZXSQ.s:23751  .debug_str:000000000000329f .LASF2626
C:\Users\CYMR90~1\AppData\Local\Temp\ccx4ZXSQ.s:25329  .debug_str:00000000000096f2 .LASF2627
C:\Users\CYMR90~1\AppData\Local\Temp\ccx4ZXSQ.s:23155  .debug_str:0000000000000d77 .LASF2628
C:\Users\CYMR90~1\AppData\Local\Temp\ccx4ZXSQ.s:26545  .debug_str:000000000000e490 .LASF2629
C:\Users\CYMR90~1\AppData\Local\Temp\ccx4ZXSQ.s:25137  .debug_str:0000000000008b46 .LASF2630
C:\Users\CYMR90~1\AppData\Local\Temp\ccx4ZXSQ.s:23445  .debug_str:0000000000001fe8 .LASF2631
C:\Users\CYMR90~1\AppData\Local\Temp\ccx4ZXSQ.s:25977  .debug_str:000000000000c0c1 .LASF2632
C:\Users\CYMR90~1\AppData\Local\Temp\ccx4ZXSQ.s:23261  .debug_str:00000000000013c7 .LASF2633
C:\Users\CYMR90~1\AppData\Local\Temp\ccx4ZXSQ.s:29666  .debug_str:000000000001aba2 .LASF2634
C:\Users\CYMR90~1\AppData\Local\Temp\ccx4ZXSQ.s:29448  .debug_str:0000000000019cf2 .LASF2635
C:\Users\CYMR90~1\AppData\Local\Temp\ccx4ZXSQ.s:27933  .debug_str:0000000000013d34 .LASF2636
C:\Users\CYMR90~1\AppData\Local\Temp\ccx4ZXSQ.s:32548  .debug_str:0000000000025f41 .LASF2637
C:\Users\CYMR90~1\AppData\Local\Temp\ccx4ZXSQ.s:25535  .debug_str:000000000000a3b5 .LASF2638
C:\Users\CYMR90~1\AppData\Local\Temp\ccx4ZXSQ.s:29712  .debug_str:000000000001ae2a .LASF2639
C:\Users\CYMR90~1\AppData\Local\Temp\ccx4ZXSQ.s:30374  .debug_str:000000000001d8f5 .LASF2640
C:\Users\CYMR90~1\AppData\Local\Temp\ccx4ZXSQ.s:28846  .debug_str:00000000000177a7 .LASF2641
C:\Users\CYMR90~1\AppData\Local\Temp\ccx4ZXSQ.s:32842  .debug_str:0000000000027256 .LASF2642
C:\Users\CYMR90~1\AppData\Local\Temp\ccx4ZXSQ.s:27879  .debug_str:000000000001394b .LASF2643
C:\Users\CYMR90~1\AppData\Local\Temp\ccx4ZXSQ.s:23015  .debug_str:000000000000055b .LASF2644
C:\Users\CYMR90~1\AppData\Local\Temp\ccx4ZXSQ.s:33740  .debug_str:000000000002aa11 .LASF2645
C:\Users\CYMR90~1\AppData\Local\Temp\ccx4ZXSQ.s:28473  .debug_str:0000000000015e06 .LASF2646
C:\Users\CYMR90~1\AppData\Local\Temp\ccx4ZXSQ.s:23145  .debug_str:0000000000000cf3 .LASF2647
C:\Users\CYMR90~1\AppData\Local\Temp\ccx4ZXSQ.s:30486  .debug_str:000000000001e003 .LASF2648
C:\Users\CYMR90~1\AppData\Local\Temp\ccx4ZXSQ.s:31066  .debug_str:00000000000202f3 .LASF2649
C:\Users\CYMR90~1\AppData\Local\Temp\ccx4ZXSQ.s:32398  .debug_str:000000000002547a .LASF2650
C:\Users\CYMR90~1\AppData\Local\Temp\ccx4ZXSQ.s:24321  .debug_str:00000000000056ea .LASF2651
C:\Users\CYMR90~1\AppData\Local\Temp\ccx4ZXSQ.s:23917  .debug_str:0000000000003d69 .LASF2652
C:\Users\CYMR90~1\AppData\Local\Temp\ccx4ZXSQ.s:28139  .debug_str:000000000001498d .LASF2653
C:\Users\CYMR90~1\AppData\Local\Temp\ccx4ZXSQ.s:26055  .debug_str:000000000000c647 .LASF2654
C:\Users\CYMR90~1\AppData\Local\Temp\ccx4ZXSQ.s:30950  .debug_str:000000000001fc31 .LASF2655
C:\Users\CYMR90~1\AppData\Local\Temp\ccx4ZXSQ.s:26629  .debug_str:000000000000e989 .LASF2656
C:\Users\CYMR90~1\AppData\Local\Temp\ccx4ZXSQ.s:31862  .debug_str:000000000002337e .LASF2657
C:\Users\CYMR90~1\AppData\Local\Temp\ccx4ZXSQ.s:34422  .debug_str:000000000002d49f .LASF2658
C:\Users\CYMR90~1\AppData\Local\Temp\ccx4ZXSQ.s:24437  .debug_str:0000000000005df6 .LASF2659
C:\Users\CYMR90~1\AppData\Local\Temp\ccx4ZXSQ.s:29694  .debug_str:000000000001ad07 .LASF2660
C:\Users\CYMR90~1\AppData\Local\Temp\ccx4ZXSQ.s:25753  .debug_str:000000000000b1df .LASF2661
C:\Users\CYMR90~1\AppData\Local\Temp\ccx4ZXSQ.s:32542  .debug_str:0000000000025ed6 .LASF2662
C:\Users\CYMR90~1\AppData\Local\Temp\ccx4ZXSQ.s:23699  .debug_str:0000000000002f57 .LASF2663
C:\Users\CYMR90~1\AppData\Local\Temp\ccx4ZXSQ.s:34298  .debug_str:000000000002cc70 .LASF2664
C:\Users\CYMR90~1\AppData\Local\Temp\ccx4ZXSQ.s:23301  .debug_str:0000000000001626 .LASF2665
C:\Users\CYMR90~1\AppData\Local\Temp\ccx4ZXSQ.s:23057  .debug_str:0000000000000777 .LASF2666
C:\Users\CYMR90~1\AppData\Local\Temp\ccx4ZXSQ.s:31734  .debug_str:0000000000022bda .LASF2667
C:\Users\CYMR90~1\AppData\Local\Temp\ccx4ZXSQ.s:28033  .debug_str:000000000001435b .LASF2668
C:\Users\CYMR90~1\AppData\Local\Temp\ccx4ZXSQ.s:27829  .debug_str:0000000000013616 .LASF2669
C:\Users\CYMR90~1\AppData\Local\Temp\ccx4ZXSQ.s:30750  .debug_str:000000000001f01a .LASF2670
C:\Users\CYMR90~1\AppData\Local\Temp\ccx4ZXSQ.s:25897  .debug_str:000000000000bbde .LASF2671
C:\Users\CYMR90~1\AppData\Local\Temp\ccx4ZXSQ.s:24711  .debug_str:0000000000006f06 .LASF2672
C:\Users\CYMR90~1\AppData\Local\Temp\ccx4ZXSQ.s:31060  .debug_str:000000000002027d .LASF2673
C:\Users\CYMR90~1\AppData\Local\Temp\ccx4ZXSQ.s:33622  .debug_str:000000000002a34f .LASF2674
C:\Users\CYMR90~1\AppData\Local\Temp\ccx4ZXSQ.s:28996  .debug_str:00000000000180cc .LASF2675
C:\Users\CYMR90~1\AppData\Local\Temp\ccx4ZXSQ.s:30392  .debug_str:000000000001d9ed .LASF2676
C:\Users\CYMR90~1\AppData\Local\Temp\ccx4ZXSQ.s:28203  .debug_str:0000000000014dc2 .LASF2677
C:\Users\CYMR90~1\AppData\Local\Temp\ccx4ZXSQ.s:26449  .debug_str:000000000000dee3 .LASF2678
C:\Users\CYMR90~1\AppData\Local\Temp\ccx4ZXSQ.s:29876  .debug_str:000000000001b8ec .LASF2679
C:\Users\CYMR90~1\AppData\Local\Temp\ccx4ZXSQ.s:34016  .debug_str:000000000002b9f2 .LASF2680
C:\Users\CYMR90~1\AppData\Local\Temp\ccx4ZXSQ.s:24231  .debug_str:000000000000518a .LASF2681
C:\Users\CYMR90~1\AppData\Local\Temp\ccx4ZXSQ.s:24879  .debug_str:00000000000079e6 .LASF2682
C:\Users\CYMR90~1\AppData\Local\Temp\ccx4ZXSQ.s:33438  .debug_str:0000000000029868 .LASF2683
C:\Users\CYMR90~1\AppData\Local\Temp\ccx4ZXSQ.s:27245  .debug_str:000000000001100b .LASF2684
C:\Users\CYMR90~1\AppData\Local\Temp\ccx4ZXSQ.s:32474  .debug_str:000000000002596f .LASF2685
C:\Users\CYMR90~1\AppData\Local\Temp\ccx4ZXSQ.s:26301  .debug_str:000000000000d576 .LASF2686
C:\Users\CYMR90~1\AppData\Local\Temp\ccx4ZXSQ.s:31628  .debug_str:00000000000225c1 .LASF2687
C:\Users\CYMR90~1\AppData\Local\Temp\ccx4ZXSQ.s:24855  .debug_str:000000000000786b .LASF2688
C:\Users\CYMR90~1\AppData\Local\Temp\ccx4ZXSQ.s:30268  .debug_str:000000000001d110 .LASF2689
C:\Users\CYMR90~1\AppData\Local\Temp\ccx4ZXSQ.s:23899  .debug_str:0000000000003c6b .LASF2690
C:\Users\CYMR90~1\AppData\Local\Temp\ccx4ZXSQ.s:29326  .debug_str:00000000000194ec .LASF2691
C:\Users\CYMR90~1\AppData\Local\Temp\ccx4ZXSQ.s:23073  .debug_str:0000000000000863 .LASF2692
C:\Users\CYMR90~1\AppData\Local\Temp\ccx4ZXSQ.s:31162  .debug_str:000000000002091a .LASF2693
C:\Users\CYMR90~1\AppData\Local\Temp\ccx4ZXSQ.s:33350  .debug_str:0000000000029343 .LASF2694
C:\Users\CYMR90~1\AppData\Local\Temp\ccx4ZXSQ.s:25027  .debug_str:00000000000084c4 .LASF2695
C:\Users\CYMR90~1\AppData\Local\Temp\ccx4ZXSQ.s:23025  .debug_str:00000000000005d8 .LASF2696
C:\Users\CYMR90~1\AppData\Local\Temp\ccx4ZXSQ.s:31624  .debug_str:0000000000022585 .LASF2697
C:\Users\CYMR90~1\AppData\Local\Temp\ccx4ZXSQ.s:23209  .debug_str:0000000000001100 .LASF2698
C:\Users\CYMR90~1\AppData\Local\Temp\ccx4ZXSQ.s:26557  .debug_str:000000000000e558 .LASF2699
C:\Users\CYMR90~1\AppData\Local\Temp\ccx4ZXSQ.s:29840  .debug_str:000000000001b63e .LASF2700
C:\Users\CYMR90~1\AppData\Local\Temp\ccx4ZXSQ.s:33108  .debug_str:0000000000028280 .LASF2701
C:\Users\CYMR90~1\AppData\Local\Temp\ccx4ZXSQ.s:24757  .debug_str:000000000000721a .LASF2702
C:\Users\CYMR90~1\AppData\Local\Temp\ccx4ZXSQ.s:28091  .debug_str:0000000000014682 .LASF2703
C:\Users\CYMR90~1\AppData\Local\Temp\ccx4ZXSQ.s:24431  .debug_str:0000000000005da0 .LASF2704
C:\Users\CYMR90~1\AppData\Local\Temp\ccx4ZXSQ.s:29320  .debug_str:000000000001948f .LASF2705
C:\Users\CYMR90~1\AppData\Local\Temp\ccx4ZXSQ.s:34144  .debug_str:000000000002c275 .LASF2706
C:\Users\CYMR90~1\AppData\Local\Temp\ccx4ZXSQ.s:27373  .debug_str:0000000000011809 .LASF2707
C:\Users\CYMR90~1\AppData\Local\Temp\ccx4ZXSQ.s:32156  .debug_str:000000000002450c .LASF2708
C:\Users\CYMR90~1\AppData\Local\Temp\ccx4ZXSQ.s:25381  .debug_str:0000000000009a1e .LASF2709
C:\Users\CYMR90~1\AppData\Local\Temp\ccx4ZXSQ.s:25765  .debug_str:000000000000b368 .LASF2710
C:\Users\CYMR90~1\AppData\Local\Temp\ccx4ZXSQ.s:26457  .debug_str:000000000000df5b .LASF2711
C:\Users\CYMR90~1\AppData\Local\Temp\ccx4ZXSQ.s:31874  .debug_str:000000000002340e .LASF2712
C:\Users\CYMR90~1\AppData\Local\Temp\ccx4ZXSQ.s:29048  .debug_str:00000000000183d9 .LASF2713
C:\Users\CYMR90~1\AppData\Local\Temp\ccx4ZXSQ.s:26347  .debug_str:000000000000d862 .LASF2714
C:\Users\CYMR90~1\AppData\Local\Temp\ccx4ZXSQ.s:25633  .debug_str:000000000000a984 .LASF2715
C:\Users\CYMR90~1\AppData\Local\Temp\ccx4ZXSQ.s:30980  .debug_str:000000000001fdfa .LASF2716
C:\Users\CYMR90~1\AppData\Local\Temp\ccx4ZXSQ.s:24727  .debug_str:0000000000007031 .LASF2717
C:\Users\CYMR90~1\AppData\Local\Temp\ccx4ZXSQ.s:30054  .debug_str:000000000001c36b .LASF2718
C:\Users\CYMR90~1\AppData\Local\Temp\ccx4ZXSQ.s:26151  .debug_str:000000000000cc18 .LASF2719
C:\Users\CYMR90~1\AppData\Local\Temp\ccx4ZXSQ.s:25877  .debug_str:000000000000ba5d .LASF2720
C:\Users\CYMR90~1\AppData\Local\Temp\ccx4ZXSQ.s:31232  .debug_str:0000000000020d17 .LASF2721
C:\Users\CYMR90~1\AppData\Local\Temp\ccx4ZXSQ.s:24983  .debug_str:000000000000813b .LASF2722
C:\Users\CYMR90~1\AppData\Local\Temp\ccx4ZXSQ.s:30292  .debug_str:000000000001d297 .LASF2723
C:\Users\CYMR90~1\AppData\Local\Temp\ccx4ZXSQ.s:24013  .debug_str:0000000000004375 .LASF2724
C:\Users\CYMR90~1\AppData\Local\Temp\ccx4ZXSQ.s:32132  .debug_str:00000000000243bf .LASF2725
C:\Users\CYMR90~1\AppData\Local\Temp\ccx4ZXSQ.s:29356  .debug_str:000000000001968a .LASF2726
C:\Users\CYMR90~1\AppData\Local\Temp\ccx4ZXSQ.s:23467  .debug_str:00000000000020fc .LASF2727
C:\Users\CYMR90~1\AppData\Local\Temp\ccx4ZXSQ.s:23829  .debug_str:00000000000037db .LASF2728
C:\Users\CYMR90~1\AppData\Local\Temp\ccx4ZXSQ.s:32618  .debug_str:000000000002645a .LASF2729
C:\Users\CYMR90~1\AppData\Local\Temp\ccx4ZXSQ.s:29900  .debug_str:000000000001ba28 .LASF2730
C:\Users\CYMR90~1\AppData\Local\Temp\ccx4ZXSQ.s:29036  .debug_str:0000000000018330 .LASF2731
C:\Users\CYMR90~1\AppData\Local\Temp\ccx4ZXSQ.s:30754  .debug_str:000000000001f067 .LASF2732
C:\Users\CYMR90~1\AppData\Local\Temp\ccx4ZXSQ.s:28089  .debug_str:0000000000014668 .LASF2733
C:\Users\CYMR90~1\AppData\Local\Temp\ccx4ZXSQ.s:33460  .debug_str:000000000002999a .LASF2734
C:\Users\CYMR90~1\AppData\Local\Temp\ccx4ZXSQ.s:27173  .debug_str:0000000000010b52 .LASF2735
C:\Users\CYMR90~1\AppData\Local\Temp\ccx4ZXSQ.s:29802  .debug_str:000000000001b3f1 .LASF2736
C:\Users\CYMR90~1\AppData\Local\Temp\ccx4ZXSQ.s:23501  .debug_str:00000000000022f3 .LASF2737
C:\Users\CYMR90~1\AppData\Local\Temp\ccx4ZXSQ.s:28838  .debug_str:0000000000017740 .LASF2738
C:\Users\CYMR90~1\AppData\Local\Temp\ccx4ZXSQ.s:28121  .debug_str:000000000001487b .LASF2739
C:\Users\CYMR90~1\AppData\Local\Temp\ccx4ZXSQ.s:27891  .debug_str:0000000000013a12 .LASF2740
C:\Users\CYMR90~1\AppData\Local\Temp\ccx4ZXSQ.s:26761  .debug_str:000000000000f21a .LASF2741
C:\Users\CYMR90~1\AppData\Local\Temp\ccx4ZXSQ.s:34018  .debug_str:000000000002ba0a .LASF2742
C:\Users\CYMR90~1\AppData\Local\Temp\ccx4ZXSQ.s:25707  .debug_str:000000000000af01 .LASF2743
C:\Users\CYMR90~1\AppData\Local\Temp\ccx4ZXSQ.s:28994  .debug_str:00000000000180b3 .LASF2744
C:\Users\CYMR90~1\AppData\Local\Temp\ccx4ZXSQ.s:32268  .debug_str:0000000000024c45 .LASF2745
C:\Users\CYMR90~1\AppData\Local\Temp\ccx4ZXSQ.s:23941  .debug_str:0000000000003efe .LASF2746
C:\Users\CYMR90~1\AppData\Local\Temp\ccx4ZXSQ.s:27305  .debug_str:0000000000011446 .LASF2747
C:\Users\CYMR90~1\AppData\Local\Temp\ccx4ZXSQ.s:30558  .debug_str:000000000001e43e .LASF2748
C:\Users\CYMR90~1\AppData\Local\Temp\ccx4ZXSQ.s:33756  .debug_str:000000000002aafa .LASF2749
C:\Users\CYMR90~1\AppData\Local\Temp\ccx4ZXSQ.s:25459  .debug_str:0000000000009eed .LASF2750
C:\Users\CYMR90~1\AppData\Local\Temp\ccx4ZXSQ.s:28759  .debug_str:0000000000017032 .LASF2751
C:\Users\CYMR90~1\AppData\Local\Temp\ccx4ZXSQ.s:30790  .debug_str:000000000001f2af .LASF2752
C:\Users\CYMR90~1\AppData\Local\Temp\ccx4ZXSQ.s:23993  .debug_str:0000000000004244 .LASF2753
C:\Users\CYMR90~1\AppData\Local\Temp\ccx4ZXSQ.s:28868  .debug_str:00000000000178c5 .LASF2754
C:\Users\CYMR90~1\AppData\Local\Temp\ccx4ZXSQ.s:33670  .debug_str:000000000002a627 .LASF2755
C:\Users\CYMR90~1\AppData\Local\Temp\ccx4ZXSQ.s:26923  .debug_str:000000000000fb5a .LASF2756
C:\Users\CYMR90~1\AppData\Local\Temp\ccx4ZXSQ.s:31710  .debug_str:0000000000022a8e .LASF2757
C:\Users\CYMR90~1\AppData\Local\Temp\ccx4ZXSQ.s:24901  .debug_str:0000000000007b78 .LASF2758
C:\Users\CYMR90~1\AppData\Local\Temp\ccx4ZXSQ.s:28217  .debug_str:0000000000014e9a .LASF2759
C:\Users\CYMR90~1\AppData\Local\Temp\ccx4ZXSQ.s:31418  .debug_str:0000000000021892 .LASF2760
C:\Users\CYMR90~1\AppData\Local\Temp\ccx4ZXSQ.s:23109  .debug_str:0000000000000a6d .LASF2761
C:\Users\CYMR90~1\AppData\Local\Temp\ccx4ZXSQ.s:26439  .debug_str:000000000000de44 .LASF2762
C:\Users\CYMR90~1\AppData\Local\Temp\ccx4ZXSQ.s:29730  .debug_str:000000000001afb8 .LASF2763
C:\Users\CYMR90~1\AppData\Local\Temp\ccx4ZXSQ.s:32990  .debug_str:0000000000027b00 .LASF2764
C:\Users\CYMR90~1\AppData\Local\Temp\ccx4ZXSQ.s:33102  .debug_str:000000000002821e .LASF2765
C:\Users\CYMR90~1\AppData\Local\Temp\ccx4ZXSQ.s:27991  .debug_str:00000000000140a4 .LASF2766
C:\Users\CYMR90~1\AppData\Local\Temp\ccx4ZXSQ.s:31278  .debug_str:0000000000021052 .LASF2767
C:\Users\CYMR90~1\AppData\Local\Temp\ccx4ZXSQ.s:28543  .debug_str:000000000001623d .LASF2768
C:\Users\CYMR90~1\AppData\Local\Temp\ccx4ZXSQ.s:33366  .debug_str:0000000000029446 .LASF2769
C:\Users\CYMR90~1\AppData\Local\Temp\ccx4ZXSQ.s:26613  .debug_str:000000000000e8b5 .LASF2770
C:\Users\CYMR90~1\AppData\Local\Temp\ccx4ZXSQ.s:24579  .debug_str:000000000000668c .LASF2771
C:\Users\CYMR90~1\AppData\Local\Temp\ccx4ZXSQ.s:29458  .debug_str:0000000000019d66 .LASF2772
C:\Users\CYMR90~1\AppData\Local\Temp\ccx4ZXSQ.s:27943  .debug_str:0000000000013ddc .LASF2773
C:\Users\CYMR90~1\AppData\Local\Temp\ccx4ZXSQ.s:31224  .debug_str:0000000000020c79 .LASF2774
C:\Users\CYMR90~1\AppData\Local\Temp\ccx4ZXSQ.s:34520  .debug_str:000000000002daa5 .LASF2775
C:\Users\CYMR90~1\AppData\Local\Temp\ccx4ZXSQ.s:30146  .debug_str:000000000001c927 .LASF2776
C:\Users\CYMR90~1\AppData\Local\Temp\ccx4ZXSQ.s:32254  .debug_str:0000000000024b6e .LASF2777
C:\Users\CYMR90~1\AppData\Local\Temp\ccx4ZXSQ.s:32692  .debug_str:00000000000268f0 .LASF2778
C:\Users\CYMR90~1\AppData\Local\Temp\ccx4ZXSQ.s:28936  .debug_str:0000000000017ccd .LASF2779
C:\Users\CYMR90~1\AppData\Local\Temp\ccx4ZXSQ.s:27719  .debug_str:0000000000012f11 .LASF2780
C:\Users\CYMR90~1\AppData\Local\Temp\ccx4ZXSQ.s:30952  .debug_str:000000000001fc56 .LASF2781
C:\Users\CYMR90~1\AppData\Local\Temp\ccx4ZXSQ.s:34278  .debug_str:000000000002cb43 .LASF2782
C:\Users\CYMR90~1\AppData\Local\Temp\ccx4ZXSQ.s:31712  .debug_str:0000000000022aa9 .LASF2783
C:\Users\CYMR90~1\AppData\Local\Temp\ccx4ZXSQ.s:33734  .debug_str:000000000002a9b9 .LASF2784
C:\Users\CYMR90~1\AppData\Local\Temp\ccx4ZXSQ.s:23913  .debug_str:0000000000003d30 .LASF2785
C:\Users\CYMR90~1\AppData\Local\Temp\ccx4ZXSQ.s:28781  .debug_str:00000000000171b3 .LASF2786
C:\Users\CYMR90~1\AppData\Local\Temp\ccx4ZXSQ.s:33586  .debug_str:000000000002a179 .LASF2787
C:\Users\CYMR90~1\AppData\Local\Temp\ccx4ZXSQ.s:24057  .debug_str:000000000000461e .LASF2788
C:\Users\CYMR90~1\AppData\Local\Temp\ccx4ZXSQ.s:28747  .debug_str:0000000000016f87 .LASF2789
C:\Users\CYMR90~1\AppData\Local\Temp\ccx4ZXSQ.s:33556  .debug_str:0000000000029f7a .LASF2790
C:\Users\CYMR90~1\AppData\Local\Temp\ccx4ZXSQ.s:26817  .debug_str:000000000000f51e .LASF2791
C:\Users\CYMR90~1\AppData\Local\Temp\ccx4ZXSQ.s:31596  .debug_str:0000000000022395 .LASF2792
C:\Users\CYMR90~1\AppData\Local\Temp\ccx4ZXSQ.s:30232  .debug_str:000000000001ce36 .LASF2793
C:\Users\CYMR90~1\AppData\Local\Temp\ccx4ZXSQ.s:23417  .debug_str:0000000000001e0a .LASF2794
C:\Users\CYMR90~1\AppData\Local\Temp\ccx4ZXSQ.s:28257  .debug_str:00000000000150d4 .LASF2795
C:\Users\CYMR90~1\AppData\Local\Temp\ccx4ZXSQ.s:28053  .debug_str:0000000000014448 .LASF2796
C:\Users\CYMR90~1\AppData\Local\Temp\ccx4ZXSQ.s:26341  .debug_str:000000000000d821 .LASF2797
C:\Users\CYMR90~1\AppData\Local\Temp\ccx4ZXSQ.s:31116  .debug_str:00000000000205f0 .LASF2798
C:\Users\CYMR90~1\AppData\Local\Temp\ccx4ZXSQ.s:25947  .debug_str:000000000000bf37 .LASF2799
C:\Users\CYMR90~1\AppData\Local\Temp\ccx4ZXSQ.s:30736  .debug_str:000000000001ef45 .LASF2800
C:\Users\CYMR90~1\AppData\Local\Temp\ccx4ZXSQ.s:23931  .debug_str:0000000000003e33 .LASF2801
C:\Users\CYMR90~1\AppData\Local\Temp\ccx4ZXSQ.s:28795  .debug_str:0000000000017309 .LASF2802
C:\Users\CYMR90~1\AppData\Local\Temp\ccx4ZXSQ.s:25293  .debug_str:00000000000094e0 .LASF2803
C:\Users\CYMR90~1\AppData\Local\Temp\ccx4ZXSQ.s:32226  .debug_str:00000000000248f0 .LASF2804
C:\Users\CYMR90~1\AppData\Local\Temp\ccx4ZXSQ.s:23423  .debug_str:0000000000001e73 .LASF2805
C:\Users\CYMR90~1\AppData\Local\Temp\ccx4ZXSQ.s:26781  .debug_str:000000000000f326 .LASF2806
C:\Users\CYMR90~1\AppData\Local\Temp\ccx4ZXSQ.s:33044  .debug_str:0000000000027f24 .LASF2807
C:\Users\CYMR90~1\AppData\Local\Temp\ccx4ZXSQ.s:33338  .debug_str:00000000000292a4 .LASF2808
C:\Users\CYMR90~1\AppData\Local\Temp\ccx4ZXSQ.s:24909  .debug_str:0000000000007be4 .LASF2809
C:\Users\CYMR90~1\AppData\Local\Temp\ccx4ZXSQ.s:28227  .debug_str:0000000000014f0c .LASF2810
C:\Users\CYMR90~1\AppData\Local\Temp\ccx4ZXSQ.s:31510  .debug_str:0000000000021e65 .LASF2811
C:\Users\CYMR90~1\AppData\Local\Temp\ccx4ZXSQ.s:23195  .debug_str:000000000000104e .LASF2812
C:\Users\CYMR90~1\AppData\Local\Temp\ccx4ZXSQ.s:26541  .debug_str:000000000000e464 .LASF2813
C:\Users\CYMR90~1\AppData\Local\Temp\ccx4ZXSQ.s:29822  .debug_str:000000000001b503 .LASF2814
C:\Users\CYMR90~1\AppData\Local\Temp\ccx4ZXSQ.s:29096  .debug_str:00000000000186ca .LASF2815
C:\Users\CYMR90~1\AppData\Local\Temp\ccx4ZXSQ.s:28836  .debug_str:0000000000017729 .LASF2816
C:\Users\CYMR90~1\AppData\Local\Temp\ccx4ZXSQ.s:27171  .debug_str:0000000000010b3b .LASF2817
C:\Users\CYMR90~1\AppData\Local\Temp\ccx4ZXSQ.s:31956  .debug_str:0000000000023928 .LASF2818
C:\Users\CYMR90~1\AppData\Local\Temp\ccx4ZXSQ.s:32576  .debug_str:000000000002613b .LASF2819
C:\Users\CYMR90~1\AppData\Local\Temp\ccx4ZXSQ.s:30006  .debug_str:000000000001c071 .LASF2820
C:\Users\CYMR90~1\AppData\Local\Temp\ccx4ZXSQ.s:27359  .debug_str:000000000001173e .LASF2821
C:\Users\CYMR90~1\AppData\Local\Temp\ccx4ZXSQ.s:33780  .debug_str:000000000002ac3a .LASF2822
C:\Users\CYMR90~1\AppData\Local\Temp\ccx4ZXSQ.s:24675  .debug_str:0000000000006c81 .LASF2823
C:\Users\CYMR90~1\AppData\Local\Temp\ccx4ZXSQ.s:25109  .debug_str:00000000000089a0 .LASF2824
C:\Users\CYMR90~1\AppData\Local\Temp\ccx4ZXSQ.s:26121  .debug_str:000000000000ca25 .LASF2825
C:\Users\CYMR90~1\AppData\Local\Temp\ccx4ZXSQ.s:23507  .debug_str:000000000000233e .LASF2826
C:\Users\CYMR90~1\AppData\Local\Temp\ccx4ZXSQ.s:23843  .debug_str:00000000000038bd .LASF2827
C:\Users\CYMR90~1\AppData\Local\Temp\ccx4ZXSQ.s:24923  .debug_str:0000000000007cca .LASF2828
C:\Users\CYMR90~1\AppData\Local\Temp\ccx4ZXSQ.s:24207  .debug_str:0000000000005028 .LASF2829
C:\Users\CYMR90~1\AppData\Local\Temp\ccx4ZXSQ.s:27713  .debug_str:0000000000012eae .LASF2830
C:\Users\CYMR90~1\AppData\Local\Temp\ccx4ZXSQ.s:24251  .debug_str:00000000000052ad .LASF2831
C:\Users\CYMR90~1\AppData\Local\Temp\ccx4ZXSQ.s:31290  .debug_str:00000000000210f5 .LASF2832
C:\Users\CYMR90~1\AppData\Local\Temp\ccx4ZXSQ.s:32320  .debug_str:0000000000024f90 .LASF2833
C:\Users\CYMR90~1\AppData\Local\Temp\ccx4ZXSQ.s:26751  .debug_str:000000000000f17e .LASF2834
C:\Users\CYMR90~1\AppData\Local\Temp\ccx4ZXSQ.s:25757  .debug_str:000000000000b234 .LASF2835
C:\Users\CYMR90~1\AppData\Local\Temp\ccx4ZXSQ.s:23259  .debug_str:00000000000013a9 .LASF2836
C:\Users\CYMR90~1\AppData\Local\Temp\ccx4ZXSQ.s:26163  .debug_str:000000000000ccda .LASF2837
C:\Users\CYMR90~1\AppData\Local\Temp\ccx4ZXSQ.s:29716  .debug_str:000000000001ae78 .LASF2838
C:\Users\CYMR90~1\AppData\Local\Temp\ccx4ZXSQ.s:31286  .debug_str:00000000000210cb .LASF2839
C:\Users\CYMR90~1\AppData\Local\Temp\ccx4ZXSQ.s:22959  .debug_str:000000000000020a .LASF2840
C:\Users\CYMR90~1\AppData\Local\Temp\ccx4ZXSQ.s:26299  .debug_str:000000000000d563 .LASF2841
C:\Users\CYMR90~1\AppData\Local\Temp\ccx4ZXSQ.s:29566  .debug_str:000000000001a48f .LASF2842
C:\Users\CYMR90~1\AppData\Local\Temp\ccx4ZXSQ.s:29252  .debug_str:0000000000018fea .LASF2843
C:\Users\CYMR90~1\AppData\Local\Temp\ccx4ZXSQ.s:33114  .debug_str:00000000000282d8 .LASF2844
C:\Users\CYMR90~1\AppData\Local\Temp\ccx4ZXSQ.s:31444  .debug_str:00000000000219d2 .LASF2845
C:\Users\CYMR90~1\AppData\Local\Temp\ccx4ZXSQ.s:29812  .debug_str:000000000001b491 .LASF2846
C:\Users\CYMR90~1\AppData\Local\Temp\ccx4ZXSQ.s:34336  .debug_str:000000000002cf06 .LASF2847
C:\Users\CYMR90~1\AppData\Local\Temp\ccx4ZXSQ.s:23295  .debug_str:00000000000015f0 .LASF2848
C:\Users\CYMR90~1\AppData\Local\Temp\ccx4ZXSQ.s:28131  .debug_str:000000000001491c .LASF2849
C:\Users\CYMR90~1\AppData\Local\Temp\ccx4ZXSQ.s:26277  .debug_str:000000000000d416 .LASF2850
C:\Users\CYMR90~1\AppData\Local\Temp\ccx4ZXSQ.s:34010  .debug_str:000000000002b990 .LASF2851
C:\Users\CYMR90~1\AppData\Local\Temp\ccx4ZXSQ.s:30150  .debug_str:000000000001c955 .LASF2852
C:\Users\CYMR90~1\AppData\Local\Temp\ccx4ZXSQ.s:28413  .debug_str:0000000000015ac5 .LASF2853
C:\Users\CYMR90~1\AppData\Local\Temp\ccx4ZXSQ.s:31750  .debug_str:0000000000022cdf .LASF2854
C:\Users\CYMR90~1\AppData\Local\Temp\ccx4ZXSQ.s:23409  .debug_str:0000000000001d96 .LASF2855
C:\Users\CYMR90~1\AppData\Local\Temp\ccx4ZXSQ.s:25047  .debug_str:00000000000085f8 .LASF2856
C:\Users\CYMR90~1\AppData\Local\Temp\ccx4ZXSQ.s:30032  .debug_str:000000000001c1ec .LASF2857
C:\Users\CYMR90~1\AppData\Local\Temp\ccx4ZXSQ.s:33268  .debug_str:0000000000028dc7 .LASF2858
C:\Users\CYMR90~1\AppData\Local\Temp\ccx4ZXSQ.s:26689  .debug_str:000000000000edcc .LASF2859
C:\Users\CYMR90~1\AppData\Local\Temp\ccx4ZXSQ.s:28211  .debug_str:0000000000014e57 .LASF2860
C:\Users\CYMR90~1\AppData\Local\Temp\ccx4ZXSQ.s:28249  .debug_str:0000000000015078 .LASF2861
C:\Users\CYMR90~1\AppData\Local\Temp\ccx4ZXSQ.s:23187  .debug_str:0000000000000fef .LASF2862
C:\Users\CYMR90~1\AppData\Local\Temp\ccx4ZXSQ.s:23335  .debug_str:00000000000018e0 .LASF2863
C:\Users\CYMR90~1\AppData\Local\Temp\ccx4ZXSQ.s:28803  .debug_str:0000000000017383 .LASF2864
C:\Users\CYMR90~1\AppData\Local\Temp\ccx4ZXSQ.s:29892  .debug_str:000000000001b9c2 .LASF2865
C:\Users\CYMR90~1\AppData\Local\Temp\ccx4ZXSQ.s:26863  .debug_str:000000000000f7f3 .LASF2866
C:\Users\CYMR90~1\AppData\Local\Temp\ccx4ZXSQ.s:28061  .debug_str:00000000000144c6 .LASF2867
C:\Users\CYMR90~1\AppData\Local\Temp\ccx4ZXSQ.s:31814  .debug_str:0000000000023085 .LASF2868
C:\Users\CYMR90~1\AppData\Local\Temp\ccx4ZXSQ.s:29722  .debug_str:000000000001af52 .LASF2869
C:\Users\CYMR90~1\AppData\Local\Temp\ccx4ZXSQ.s:28966  .debug_str:0000000000017e94 .LASF2870
C:\Users\CYMR90~1\AppData\Local\Temp\ccx4ZXSQ.s:26633  .debug_str:000000000000e9c8 .LASF2871
C:\Users\CYMR90~1\AppData\Local\Temp\ccx4ZXSQ.s:27843  .debug_str:00000000000136fa .LASF2872
C:\Users\CYMR90~1\AppData\Local\Temp\ccx4ZXSQ.s:27803  .debug_str:0000000000013477 .LASF2873
C:\Users\CYMR90~1\AppData\Local\Temp\ccx4ZXSQ.s:23745  .debug_str:0000000000003259 .LASF2874
C:\Users\CYMR90~1\AppData\Local\Temp\ccx4ZXSQ.s:23621  .debug_str:0000000000002a74 .LASF2875
C:\Users\CYMR90~1\AppData\Local\Temp\ccx4ZXSQ.s:31406  .debug_str:00000000000217db .LASF2876
C:\Users\CYMR90~1\AppData\Local\Temp\ccx4ZXSQ.s:32402  .debug_str:00000000000254cb .LASF2877
C:\Users\CYMR90~1\AppData\Local\Temp\ccx4ZXSQ.s:32086  .debug_str:00000000000240ee .LASF2878
C:\Users\CYMR90~1\AppData\Local\Temp\ccx4ZXSQ.s:25821  .debug_str:000000000000b6e0 .LASF2879
C:\Users\CYMR90~1\AppData\Local\Temp\ccx4ZXSQ.s:29098  .debug_str:00000000000186e1 .LASF2880
C:\Users\CYMR90~1\AppData\Local\Temp\ccx4ZXSQ.s:32378  .debug_str:0000000000025334 .LASF2881
C:\Users\CYMR90~1\AppData\Local\Temp\ccx4ZXSQ.s:24049  .debug_str:0000000000004590 .LASF2882
C:\Users\CYMR90~1\AppData\Local\Temp\ccx4ZXSQ.s:26203  .debug_str:000000000000d008 .LASF2883
C:\Users\CYMR90~1\AppData\Local\Temp\ccx4ZXSQ.s:30578  .debug_str:000000000001e570 .LASF2884
C:\Users\CYMR90~1\AppData\Local\Temp\ccx4ZXSQ.s:34442  .debug_str:000000000002d5c7 .LASF2885
C:\Users\CYMR90~1\AppData\Local\Temp\ccx4ZXSQ.s:25573  .debug_str:000000000000a625 .LASF2886
C:\Users\CYMR90~1\AppData\Local\Temp\ccx4ZXSQ.s:28874  .debug_str:000000000001790d .LASF2887
C:\Users\CYMR90~1\AppData\Local\Temp\ccx4ZXSQ.s:32150  .debug_str:00000000000244ca .LASF2888
C:\Users\CYMR90~1\AppData\Local\Temp\ccx4ZXSQ.s:30296  .debug_str:000000000001d2da .LASF2889
C:\Users\CYMR90~1\AppData\Local\Temp\ccx4ZXSQ.s:23465  .debug_str:00000000000020e8 .LASF2890
C:\Users\CYMR90~1\AppData\Local\Temp\ccx4ZXSQ.s:28315  .debug_str:00000000000154a5 .LASF2891
C:\Users\CYMR90~1\AppData\Local\Temp\ccx4ZXSQ.s:33150  .debug_str:0000000000028558 .LASF2892
C:\Users\CYMR90~1\AppData\Local\Temp\ccx4ZXSQ.s:26397  .debug_str:000000000000dc1f .LASF2893
C:\Users\CYMR90~1\AppData\Local\Temp\ccx4ZXSQ.s:31190  .debug_str:0000000000020ad0 .LASF2894
C:\Users\CYMR90~1\AppData\Local\Temp\ccx4ZXSQ.s:33826  .debug_str:000000000002af49 .LASF2895
C:\Users\CYMR90~1\AppData\Local\Temp\ccx4ZXSQ.s:34046  .debug_str:000000000002bbef .LASF2896
C:\Users\CYMR90~1\AppData\Local\Temp\ccx4ZXSQ.s:29760  .debug_str:000000000001b175 .LASF2897
C:\Users\CYMR90~1\AppData\Local\Temp\ccx4ZXSQ.s:24795  .debug_str:00000000000074a6 .LASF2898
C:\Users\CYMR90~1\AppData\Local\Temp\ccx4ZXSQ.s:25119  .debug_str:0000000000008a32 .LASF2899
C:\Users\CYMR90~1\AppData\Local\Temp\ccx4ZXSQ.s:29156  .debug_str:0000000000018a15 .LASF2900
C:\Users\CYMR90~1\AppData\Local\Temp\ccx4ZXSQ.s:34148  .debug_str:000000000002c2a2 .LASF2901
C:\Users\CYMR90~1\AppData\Local\Temp\ccx4ZXSQ.s:27585  .debug_str:000000000001264b .LASF2902
C:\Users\CYMR90~1\AppData\Local\Temp\ccx4ZXSQ.s:34426  .debug_str:000000000002d4e0 .LASF2903
C:\Users\CYMR90~1\AppData\Local\Temp\ccx4ZXSQ.s:24489  .debug_str:000000000000611a .LASF2904
C:\Users\CYMR90~1\AppData\Local\Temp\ccx4ZXSQ.s:31432  .debug_str:0000000000021950 .LASF2905
C:\Users\CYMR90~1\AppData\Local\Temp\ccx4ZXSQ.s:32830  .debug_str:00000000000271a5 .LASF2906
C:\Users\CYMR90~1\AppData\Local\Temp\ccx4ZXSQ.s:34250  .debug_str:000000000002c96b .LASF2907
C:\Users\CYMR90~1\AppData\Local\Temp\ccx4ZXSQ.s:24003  .debug_str:00000000000042cf .LASF2908
C:\Users\CYMR90~1\AppData\Local\Temp\ccx4ZXSQ.s:27849  .debug_str:0000000000013769 .LASF2909
C:\Users\CYMR90~1\AppData\Local\Temp\ccx4ZXSQ.s:33342  .debug_str:00000000000292d2 .LASF2910
C:\Users\CYMR90~1\AppData\Local\Temp\ccx4ZXSQ.s:31252  .debug_str:0000000000020e59 .LASF2911
C:\Users\CYMR90~1\AppData\Local\Temp\ccx4ZXSQ.s:28898  .debug_str:0000000000017a8a .LASF2912
C:\Users\CYMR90~1\AppData\Local\Temp\ccx4ZXSQ.s:29664  .debug_str:000000000001ab64 .LASF2913
C:\Users\CYMR90~1\AppData\Local\Temp\ccx4ZXSQ.s:33968  .debug_str:000000000002b745 .LASF2914
C:\Users\CYMR90~1\AppData\Local\Temp\ccx4ZXSQ.s:31856  .debug_str:000000000002330a .LASF2915
C:\Users\CYMR90~1\AppData\Local\Temp\ccx4ZXSQ.s:30100  .debug_str:000000000001c681 .LASF2916
C:\Users\CYMR90~1\AppData\Local\Temp\ccx4ZXSQ.s:28051  .debug_str:0000000000014438 .LASF2917
C:\Users\CYMR90~1\AppData\Local\Temp\ccx4ZXSQ.s:30654  .debug_str:000000000001ea7c .LASF2918
C:\Users\CYMR90~1\AppData\Local\Temp\ccx4ZXSQ.s:27781  .debug_str:0000000000013312 .LASF2919
C:\Users\CYMR90~1\AppData\Local\Temp\ccx4ZXSQ.s:26485  .debug_str:000000000000e0d0 .LASF2920
C:\Users\CYMR90~1\AppData\Local\Temp\ccx4ZXSQ.s:25567  .debug_str:000000000000a5ca .LASF2921
C:\Users\CYMR90~1\AppData\Local\Temp\ccx4ZXSQ.s:24631  .debug_str:00000000000069db .LASF2922
C:\Users\CYMR90~1\AppData\Local\Temp\ccx4ZXSQ.s:23749  .debug_str:000000000000328f .LASF2923
C:\Users\CYMR90~1\AppData\Local\Temp\ccx4ZXSQ.s:34498  .debug_str:000000000002d966 .LASF2924
C:\Users\CYMR90~1\AppData\Local\Temp\ccx4ZXSQ.s:33590  .debug_str:000000000002a1aa .LASF2925
C:\Users\CYMR90~1\AppData\Local\Temp\ccx4ZXSQ.s:32304  .debug_str:0000000000024e8b .LASF2926
C:\Users\CYMR90~1\AppData\Local\Temp\ccx4ZXSQ.s:23969  .debug_str:00000000000040f1 .LASF2927
C:\Users\CYMR90~1\AppData\Local\Temp\ccx4ZXSQ.s:32220  .debug_str:0000000000024893 .LASF2928
C:\Users\CYMR90~1\AppData\Local\Temp\ccx4ZXSQ.s:30596  .debug_str:000000000001e70b .LASF2929
C:\Users\CYMR90~1\AppData\Local\Temp\ccx4ZXSQ.s:25495  .debug_str:000000000000a103 .LASF2930
C:\Users\CYMR90~1\AppData\Local\Temp\ccx4ZXSQ.s:25589  .debug_str:000000000000a736 .LASF2931
C:\Users\CYMR90~1\AppData\Local\Temp\ccx4ZXSQ.s:31938  .debug_str:0000000000023823 .LASF2932
C:\Users\CYMR90~1\AppData\Local\Temp\ccx4ZXSQ.s:34444  .debug_str:000000000002d5d9 .LASF2933
C:\Users\CYMR90~1\AppData\Local\Temp\ccx4ZXSQ.s:32382  .debug_str:000000000002536c .LASF2934
C:\Users\CYMR90~1\AppData\Local\Temp\ccx4ZXSQ.s:28487  .debug_str:0000000000015ee0 .LASF2935
C:\Users\CYMR90~1\AppData\Local\Temp\ccx4ZXSQ.s:31234  .debug_str:0000000000020d34 .LASF2936
C:\Users\CYMR90~1\AppData\Local\Temp\ccx4ZXSQ.s:29688  .debug_str:000000000001acaa .LASF2937
C:\Users\CYMR90~1\AppData\Local\Temp\ccx4ZXSQ.s:29726  .debug_str:000000000001af80 .LASF2938
C:\Users\CYMR90~1\AppData\Local\Temp\ccx4ZXSQ.s:29764  .debug_str:000000000001b1c2 .LASF2939
C:\Users\CYMR90~1\AppData\Local\Temp\ccx4ZXSQ.s:28713  .debug_str:0000000000016ce7 .LASF2940
C:\Users\CYMR90~1\AppData\Local\Temp\ccx4ZXSQ.s:27701  .debug_str:0000000000012dec .LASF2941
C:\Users\CYMR90~1\AppData\Local\Temp\ccx4ZXSQ.s:28083  .debug_str:0000000000014620 .LASF2942
C:\Users\CYMR90~1\AppData\Local\Temp\ccx4ZXSQ.s:32746  .debug_str:0000000000026c63 .LASF2943
C:\Users\CYMR90~1\AppData\Local\Temp\ccx4ZXSQ.s:29928  .debug_str:000000000001bbf3 .LASF2944
C:\Users\CYMR90~1\AppData\Local\Temp\ccx4ZXSQ.s:24471  .debug_str:0000000000005fd8 .LASF2945
C:\Users\CYMR90~1\AppData\Local\Temp\ccx4ZXSQ.s:26483  .debug_str:000000000000e0ae .LASF2946
C:\Users\CYMR90~1\AppData\Local\Temp\ccx4ZXSQ.s:31556  .debug_str:0000000000022141 .LASF2947
C:\Users\CYMR90~1\AppData\Local\Temp\ccx4ZXSQ.s:33122  .debug_str:0000000000028371 .LASF2948
C:\Users\CYMR90~1\AppData\Local\Temp\ccx4ZXSQ.s:26035  .debug_str:000000000000c51c .LASF2949
C:\Users\CYMR90~1\AppData\Local\Temp\ccx4ZXSQ.s:26615  .debug_str:000000000000e8ce .LASF2950
C:\Users\CYMR90~1\AppData\Local\Temp\ccx4ZXSQ.s:30702  .debug_str:000000000001ed68 .LASF2951
C:\Users\CYMR90~1\AppData\Local\Temp\ccx4ZXSQ.s:24229  .debug_str:0000000000005174 .LASF2952
C:\Users\CYMR90~1\AppData\Local\Temp\ccx4ZXSQ.s:34004  .debug_str:000000000002b937 .LASF2953
C:\Users\CYMR90~1\AppData\Local\Temp\ccx4ZXSQ.s:31054  .debug_str:0000000000020245 .LASF2954
C:\Users\CYMR90~1\AppData\Local\Temp\ccx4ZXSQ.s:32992  .debug_str:0000000000027b17 .LASF2955
C:\Users\CYMR90~1\AppData\Local\Temp\ccx4ZXSQ.s:31394  .debug_str:0000000000021743 .LASF2956
C:\Users\CYMR90~1\AppData\Local\Temp\ccx4ZXSQ.s:34524  .debug_str:000000000002dad9 .LASF2957
C:\Users\CYMR90~1\AppData\Local\Temp\ccx4ZXSQ.s:23721  .debug_str:00000000000030c4 .LASF2958
C:\Users\CYMR90~1\AppData\Local\Temp\ccx4ZXSQ.s:23447  .debug_str:000000000000200a .LASF2959
C:\Users\CYMR90~1\AppData\Local\Temp\ccx4ZXSQ.s:30726  .debug_str:000000000001eed9 .LASF2960
C:\Users\CYMR90~1\AppData\Local\Temp\ccx4ZXSQ.s:23697  .debug_str:0000000000002f40 .LASF2961
C:\Users\CYMR90~1\AppData\Local\Temp\ccx4ZXSQ.s:27985  .debug_str:000000000001405a .LASF2962
C:\Users\CYMR90~1\AppData\Local\Temp\ccx4ZXSQ.s:34294  .debug_str:000000000002cbfb .LASF2963
C:\Users\CYMR90~1\AppData\Local\Temp\ccx4ZXSQ.s:32890  .debug_str:000000000002751b .LASF2964
C:\Users\CYMR90~1\AppData\Local\Temp\ccx4ZXSQ.s:24457  .debug_str:0000000000005f13 .LASF2965
C:\Users\CYMR90~1\AppData\Local\Temp\ccx4ZXSQ.s:33100  .debug_str:0000000000028209 .LASF2966
C:\Users\CYMR90~1\AppData\Local\Temp\ccx4ZXSQ.s:30278  .debug_str:000000000001d1b5 .LASF2967
C:\Users\CYMR90~1\AppData\Local\Temp\ccx4ZXSQ.s:31302  .debug_str:00000000000211c7 .LASF2968
C:\Users\CYMR90~1\AppData\Local\Temp\ccx4ZXSQ.s:26983  .debug_str:000000000000ff4b .LASF2969
C:\Users\CYMR90~1\AppData\Local\Temp\ccx4ZXSQ.s:26103  .debug_str:000000000000c925 .LASF2970
C:\Users\CYMR90~1\AppData\Local\Temp\ccx4ZXSQ.s:29994  .debug_str:000000000001bfed .LASF2971
C:\Users\CYMR90~1\AppData\Local\Temp\ccx4ZXSQ.s:33304  .debug_str:000000000002900a .LASF2972
C:\Users\CYMR90~1\AppData\Local\Temp\ccx4ZXSQ.s:31702  .debug_str:00000000000229fd .LASF2973
C:\Users\CYMR90~1\AppData\Local\Temp\ccx4ZXSQ.s:32644  .debug_str:00000000000265f8 .LASF2974
C:\Users\CYMR90~1\AppData\Local\Temp\ccx4ZXSQ.s:24061  .debug_str:0000000000004651 .LASF2975
C:\Users\CYMR90~1\AppData\Local\Temp\ccx4ZXSQ.s:29062  .debug_str:000000000001848e .LASF2976
C:\Users\CYMR90~1\AppData\Local\Temp\ccx4ZXSQ.s:31614  .debug_str:00000000000224f8 .LASF2977
C:\Users\CYMR90~1\AppData\Local\Temp\ccx4ZXSQ.s:24963  .debug_str:0000000000007f57 .LASF2978
C:\Users\CYMR90~1\AppData\Local\Temp\ccx4ZXSQ.s:30474  .debug_str:000000000001ded9 .LASF2979
C:\Users\CYMR90~1\AppData\Local\Temp\ccx4ZXSQ.s:26421  .debug_str:000000000000dd57 .LASF2980
C:\Users\CYMR90~1\AppData\Local\Temp\ccx4ZXSQ.s:34070  .debug_str:000000000002bd95 .LASF2981
C:\Users\CYMR90~1\AppData\Local\Temp\ccx4ZXSQ.s:29090  .debug_str:0000000000018652 .LASF2982
C:\Users\CYMR90~1\AppData\Local\Temp\ccx4ZXSQ.s:23927  .debug_str:0000000000003dea .LASF2983
C:\Users\CYMR90~1\AppData\Local\Temp\ccx4ZXSQ.s:29322  .debug_str:00000000000194a7 .LASF2984
C:\Users\CYMR90~1\AppData\Local\Temp\ccx4ZXSQ.s:22951  .debug_str:0000000000000178 .LASF2985
C:\Users\CYMR90~1\AppData\Local\Temp\ccx4ZXSQ.s:26807  .debug_str:000000000000f47f .LASF2986
C:\Users\CYMR90~1\AppData\Local\Temp\ccx4ZXSQ.s:28295  .debug_str:0000000000015323 .LASF2987
C:\Users\CYMR90~1\AppData\Local\Temp\ccx4ZXSQ.s:28193  .debug_str:0000000000014d0b .LASF2988
C:\Users\CYMR90~1\AppData\Local\Temp\ccx4ZXSQ.s:26833  .debug_str:000000000000f5f5 .LASF2989
C:\Users\CYMR90~1\AppData\Local\Temp\ccx4ZXSQ.s:26513  .debug_str:000000000000e26b .LASF2990
C:\Users\CYMR90~1\AppData\Local\Temp\ccx4ZXSQ.s:32102  .debug_str:00000000000241ed .LASF2991
C:\Users\CYMR90~1\AppData\Local\Temp\ccx4ZXSQ.s:28910  .debug_str:0000000000017b5b .LASF2992
C:\Users\CYMR90~1\AppData\Local\Temp\ccx4ZXSQ.s:27981  .debug_str:0000000000014010 .LASF2993
C:\Users\CYMR90~1\AppData\Local\Temp\ccx4ZXSQ.s:25185  .debug_str:0000000000008e32 .LASF2994
C:\Users\CYMR90~1\AppData\Local\Temp\ccx4ZXSQ.s:33808  .debug_str:000000000002adf8 .LASF2995
C:\Users\CYMR90~1\AppData\Local\Temp\ccx4ZXSQ.s:28293  .debug_str:0000000000015305 .LASF2996
C:\Users\CYMR90~1\AppData\Local\Temp\ccx4ZXSQ.s:28393  .debug_str:000000000001597c .LASF2997
C:\Users\CYMR90~1\AppData\Local\Temp\ccx4ZXSQ.s:24299  .debug_str:000000000000557d .LASF2998
C:\Users\CYMR90~1\AppData\Local\Temp\ccx4ZXSQ.s:28583  .debug_str:0000000000016509 .LASF2999
C:\Users\CYMR90~1\AppData\Local\Temp\ccx4ZXSQ.s:31838  .debug_str:0000000000023221 .LASF3000
C:\Users\CYMR90~1\AppData\Local\Temp\ccx4ZXSQ.s:27195  .debug_str:0000000000010c89 .LASF3001
C:\Users\CYMR90~1\AppData\Local\Temp\ccx4ZXSQ.s:28559  .debug_str:0000000000016321 .LASF3002
C:\Users\CYMR90~1\AppData\Local\Temp\ccx4ZXSQ.s:28439  .debug_str:0000000000015c2d .LASF3003
C:\Users\CYMR90~1\AppData\Local\Temp\ccx4ZXSQ.s:31296  .debug_str:0000000000021142 .LASF3004
C:\Users\CYMR90~1\AppData\Local\Temp\ccx4ZXSQ.s:34358  .debug_str:000000000002d019 .LASF3005
C:\Users\CYMR90~1\AppData\Local\Temp\ccx4ZXSQ.s:32222  .debug_str:00000000000248a5 .LASF3006
C:\Users\CYMR90~1\AppData\Local\Temp\ccx4ZXSQ.s:31606  .debug_str:0000000000022459 .LASF3007
C:\Users\CYMR90~1\AppData\Local\Temp\ccx4ZXSQ.s:24259  .debug_str:000000000000530e .LASF3008
C:\Users\CYMR90~1\AppData\Local\Temp\ccx4ZXSQ.s:34504  .debug_str:000000000002d9a8 .LASF3009
C:\Users\CYMR90~1\AppData\Local\Temp\ccx4ZXSQ.s:26707  .debug_str:000000000000eebf .LASF3010
C:\Users\CYMR90~1\AppData\Local\Temp\ccx4ZXSQ.s:30118  .debug_str:000000000001c789 .LASF3011
C:\Users\CYMR90~1\AppData\Local\Temp\ccx4ZXSQ.s:23293  .debug_str:00000000000015d9 .LASF3012
C:\Users\CYMR90~1\AppData\Local\Temp\ccx4ZXSQ.s:27321  .debug_str:000000000001151e .LASF3013
C:\Users\CYMR90~1\AppData\Local\Temp\ccx4ZXSQ.s:26419  .debug_str:000000000000dd3e .LASF3014
C:\Users\CYMR90~1\AppData\Local\Temp\ccx4ZXSQ.s:23469  .debug_str:0000000000002114 .LASF3015
C:\Users\CYMR90~1\AppData\Local\Temp\ccx4ZXSQ.s:30844  .debug_str:000000000001f597 .LASF3016
C:\Users\CYMR90~1\AppData\Local\Temp\ccx4ZXSQ.s:26057  .debug_str:000000000000c675 .LASF3017
C:\Users\CYMR90~1\AppData\Local\Temp\ccx4ZXSQ.s:24781  .debug_str:00000000000073bd .LASF3018
C:\Users\CYMR90~1\AppData\Local\Temp\ccx4ZXSQ.s:29246  .debug_str:0000000000018fa4 .LASF3019
C:\Users\CYMR90~1\AppData\Local\Temp\ccx4ZXSQ.s:27033  .debug_str:000000000001024d .LASF3020
C:\Users\CYMR90~1\AppData\Local\Temp\ccx4ZXSQ.s:23707  .debug_str:0000000000002fe6 .LASF3021
C:\Users\CYMR90~1\AppData\Local\Temp\ccx4ZXSQ.s:26119  .debug_str:000000000000ca11 .LASF3022
C:\Users\CYMR90~1\AppData\Local\Temp\ccx4ZXSQ.s:26639  .debug_str:000000000000ea2a .LASF3023
C:\Users\CYMR90~1\AppData\Local\Temp\ccx4ZXSQ.s:34102  .debug_str:000000000002bfac .LASF3024
C:\Users\CYMR90~1\AppData\Local\Temp\ccx4ZXSQ.s:24745  .debug_str:0000000000007134 .LASF3025
C:\Users\CYMR90~1\AppData\Local\Temp\ccx4ZXSQ.s:31186  .debug_str:0000000000020a91 .LASF3026
C:\Users\CYMR90~1\AppData\Local\Temp\ccx4ZXSQ.s:27021  .debug_str:000000000001017a .LASF3027
C:\Users\CYMR90~1\AppData\Local\Temp\ccx4ZXSQ.s:28922  .debug_str:0000000000017c1b .LASF3028
C:\Users\CYMR90~1\AppData\Local\Temp\ccx4ZXSQ.s:24213  .debug_str:0000000000005081 .LASF3029
C:\Users\CYMR90~1\AppData\Local\Temp\ccx4ZXSQ.s:34026  .debug_str:000000000002ba80 .LASF3030
C:\Users\CYMR90~1\AppData\Local\Temp\ccx4ZXSQ.s:26593  .debug_str:000000000000e75f .LASF3031
C:\Users\CYMR90~1\AppData\Local\Temp\ccx4ZXSQ.s:25643  .debug_str:000000000000aa1b .LASF3032
C:\Users\CYMR90~1\AppData\Local\Temp\ccx4ZXSQ.s:32450  .debug_str:00000000000257f5 .LASF3033
C:\Users\CYMR90~1\AppData\Local\Temp\ccx4ZXSQ.s:26763  .debug_str:000000000000f235 .LASF3034
C:\Users\CYMR90~1\AppData\Local\Temp\ccx4ZXSQ.s:26563  .debug_str:000000000000e5c4 .LASF3035
C:\Users\CYMR90~1\AppData\Local\Temp\ccx4ZXSQ.s:33232  .debug_str:0000000000028b1b .LASF3036
C:\Users\CYMR90~1\AppData\Local\Temp\ccx4ZXSQ.s:25153  .debug_str:0000000000008c34 .LASF3037
C:\Users\CYMR90~1\AppData\Local\Temp\ccx4ZXSQ.s:34178  .debug_str:000000000002c4b4 .LASF3038
C:\Users\CYMR90~1\AppData\Local\Temp\ccx4ZXSQ.s:33320  .debug_str:0000000000029154 .LASF3039
C:\Users\CYMR90~1\AppData\Local\Temp\ccx4ZXSQ.s:22969  .debug_str:0000000000000280 .LASF3040
C:\Users\CYMR90~1\AppData\Local\Temp\ccx4ZXSQ.s:23977  .debug_str:0000000000004181 .LASF3041
C:\Users\CYMR90~1\AppData\Local\Temp\ccx4ZXSQ.s:30176  .debug_str:000000000001cadf .LASF3042
C:\Users\CYMR90~1\AppData\Local\Temp\ccx4ZXSQ.s:23961  .debug_str:0000000000004015 .LASF3043
C:\Users\CYMR90~1\AppData\Local\Temp\ccx4ZXSQ.s:32466  .debug_str:00000000000258ec .LASF3044
C:\Users\CYMR90~1\AppData\Local\Temp\ccx4ZXSQ.s:26425  .debug_str:000000000000dd9b .LASF3045
C:\Users\CYMR90~1\AppData\Local\Temp\ccx4ZXSQ.s:29574  .debug_str:000000000001a4fd .LASF3046
C:\Users\CYMR90~1\AppData\Local\Temp\ccx4ZXSQ.s:23229  .debug_str:000000000000123c .LASF3047
C:\Users\CYMR90~1\AppData\Local\Temp\ccx4ZXSQ.s:26805  .debug_str:000000000000f465 .LASF3048
C:\Users\CYMR90~1\AppData\Local\Temp\ccx4ZXSQ.s:30180  .debug_str:000000000001cb13 .LASF3049
C:\Users\CYMR90~1\AppData\Local\Temp\ccx4ZXSQ.s:33598  .debug_str:000000000002a206 .LASF3050
C:\Users\CYMR90~1\AppData\Local\Temp\ccx4ZXSQ.s:23369  .debug_str:0000000000001b26 .LASF3051
C:\Users\CYMR90~1\AppData\Local\Temp\ccx4ZXSQ.s:25489  .debug_str:000000000000a0af .LASF3052
C:\Users\CYMR90~1\AppData\Local\Temp\ccx4ZXSQ.s:33022  .debug_str:0000000000027dc2 .LASF3053
C:\Users\CYMR90~1\AppData\Local\Temp\ccx4ZXSQ.s:25035  .debug_str:0000000000008559 .LASF3054
C:\Users\CYMR90~1\AppData\Local\Temp\ccx4ZXSQ.s:26599  .debug_str:000000000000e7d8 .LASF3055
C:\Users\CYMR90~1\AppData\Local\Temp\ccx4ZXSQ.s:32224  .debug_str:00000000000248d1 .LASF3056
C:\Users\CYMR90~1\AppData\Local\Temp\ccx4ZXSQ.s:28387  .debug_str:0000000000015917 .LASF3057
C:\Users\CYMR90~1\AppData\Local\Temp\ccx4ZXSQ.s:25439  .debug_str:0000000000009dd2 .LASF3058
C:\Users\CYMR90~1\AppData\Local\Temp\ccx4ZXSQ.s:30960  .debug_str:000000000001fcd9 .LASF3059
C:\Users\CYMR90~1\AppData\Local\Temp\ccx4ZXSQ.s:25009  .debug_str:00000000000082fe .LASF3060
C:\Users\CYMR90~1\AppData\Local\Temp\ccx4ZXSQ.s:33218  .debug_str:00000000000289e6 .LASF3061
C:\Users\CYMR90~1\AppData\Local\Temp\ccx4ZXSQ.s:32870  .debug_str:00000000000273de .LASF3062
C:\Users\CYMR90~1\AppData\Local\Temp\ccx4ZXSQ.s:27429  .debug_str:0000000000011ba2 .LASF3063
C:\Users\CYMR90~1\AppData\Local\Temp\ccx4ZXSQ.s:32354  .debug_str:000000000002521b .LASF3064
C:\Users\CYMR90~1\AppData\Local\Temp\ccx4ZXSQ.s:31434  .debug_str:0000000000021970 .LASF3065
C:\Users\CYMR90~1\AppData\Local\Temp\ccx4ZXSQ.s:27309  .debug_str:0000000000011474 .LASF3066
C:\Users\CYMR90~1\AppData\Local\Temp\ccx4ZXSQ.s:32962  .debug_str:000000000002798c .LASF3067
C:\Users\CYMR90~1\AppData\Local\Temp\ccx4ZXSQ.s:32108  .debug_str:000000000002424c .LASF3068
C:\Users\CYMR90~1\AppData\Local\Temp\ccx4ZXSQ.s:28864  .debug_str:00000000000178a0 .LASF3069
C:\Users\CYMR90~1\AppData\Local\Temp\ccx4ZXSQ.s:28605  .debug_str:0000000000016680 .LASF3070
C:\Users\CYMR90~1\AppData\Local\Temp\ccx4ZXSQ.s:30918  .debug_str:000000000001fa52 .LASF3071
C:\Users\CYMR90~1\AppData\Local\Temp\ccx4ZXSQ.s:27271  .debug_str:00000000000111de .LASF3072
C:\Users\CYMR90~1\AppData\Local\Temp\ccx4ZXSQ.s:27399  .debug_str:00000000000119d1 .LASF3073
C:\Users\CYMR90~1\AppData\Local\Temp\ccx4ZXSQ.s:26779  .debug_str:000000000000f30a .LASF3074
C:\Users\CYMR90~1\AppData\Local\Temp\ccx4ZXSQ.s:26907  .debug_str:000000000000fa82 .LASF3075
C:\Users\CYMR90~1\AppData\Local\Temp\ccx4ZXSQ.s:30642  .debug_str:000000000001e9b9 .LASF3076
C:\Users\CYMR90~1\AppData\Local\Temp\ccx4ZXSQ.s:33340  .debug_str:00000000000292b9 .LASF3077
C:\Users\CYMR90~1\AppData\Local\Temp\ccx4ZXSQ.s:28727  .debug_str:0000000000016e4b .LASF3078
C:\Users\CYMR90~1\AppData\Local\Temp\ccx4ZXSQ.s:32216  .debug_str:0000000000024864 .LASF3079
C:\Users\CYMR90~1\AppData\Local\Temp\ccx4ZXSQ.s:23505  .debug_str:0000000000002325 .LASF3080
C:\Users\CYMR90~1\AppData\Local\Temp\ccx4ZXSQ.s:24773  .debug_str:0000000000007315 .LASF3081
C:\Users\CYMR90~1\AppData\Local\Temp\ccx4ZXSQ.s:33396  .debug_str:0000000000029608 .LASF3082
C:\Users\CYMR90~1\AppData\Local\Temp\ccx4ZXSQ.s:25545  .debug_str:000000000000a468 .LASF3083
C:\Users\CYMR90~1\AppData\Local\Temp\ccx4ZXSQ.s:33594  .debug_str:000000000002a1c9 .LASF3084
C:\Users\CYMR90~1\AppData\Local\Temp\ccx4ZXSQ.s:26739  .debug_str:000000000000f0a1 .LASF3085
C:\Users\CYMR90~1\AppData\Local\Temp\ccx4ZXSQ.s:28451  .debug_str:0000000000015cf5 .LASF3086
C:\Users\CYMR90~1\AppData\Local\Temp\ccx4ZXSQ.s:31372  .debug_str:00000000000215f1 .LASF3087
C:\Users\CYMR90~1\AppData\Local\Temp\ccx4ZXSQ.s:29216  .debug_str:0000000000018db2 .LASF3088
C:\Users\CYMR90~1\AppData\Local\Temp\ccx4ZXSQ.s:31230  .debug_str:0000000000020cc2 .LASF3089
C:\Users\CYMR90~1\AppData\Local\Temp\ccx4ZXSQ.s:33482  .debug_str:0000000000029b38 .LASF3090
C:\Users\CYMR90~1\AppData\Local\Temp\ccx4ZXSQ.s:31882  .debug_str:000000000002349a .LASF3091
C:\Users\CYMR90~1\AppData\Local\Temp\ccx4ZXSQ.s:26137  .debug_str:000000000000cb08 .LASF3092
C:\Users\CYMR90~1\AppData\Local\Temp\ccx4ZXSQ.s:34306  .debug_str:000000000002cd22 .LASF3093
C:\Users\CYMR90~1\AppData\Local\Temp\ccx4ZXSQ.s:31012  .debug_str:000000000001ffd4 .LASF3094
C:\Users\CYMR90~1\AppData\Local\Temp\ccx4ZXSQ.s:33004  .debug_str:0000000000027c01 .LASF3095
C:\Users\CYMR90~1\AppData\Local\Temp\ccx4ZXSQ.s:32734  .debug_str:0000000000026bd3 .LASF3096
C:\Users\CYMR90~1\AppData\Local\Temp\ccx4ZXSQ.s:26033  .debug_str:000000000000c4f4 .LASF3097
C:\Users\CYMR90~1\AppData\Local\Temp\ccx4ZXSQ.s:28497  .debug_str:0000000000015f65 .LASF3098
C:\Users\CYMR90~1\AppData\Local\Temp\ccx4ZXSQ.s:28395  .debug_str:00000000000159a7 .LASF3099
C:\Users\CYMR90~1\AppData\Local\Temp\ccx4ZXSQ.s:28399  .debug_str:00000000000159f4 .LASF3100
C:\Users\CYMR90~1\AppData\Local\Temp\ccx4ZXSQ.s:25375  .debug_str:00000000000099c3 .LASF3101
C:\Users\CYMR90~1\AppData\Local\Temp\ccx4ZXSQ.s:31572  .debug_str:000000000002224d .LASF3102
C:\Users\CYMR90~1\AppData\Local\Temp\ccx4ZXSQ.s:34448  .debug_str:000000000002d5fd .LASF3103
C:\Users\CYMR90~1\AppData\Local\Temp\ccx4ZXSQ.s:26961  .debug_str:000000000000fe2a .LASF3104
C:\Users\CYMR90~1\AppData\Local\Temp\ccx4ZXSQ.s:23719  .debug_str:0000000000003098 .LASF3105
C:\Users\CYMR90~1\AppData\Local\Temp\ccx4ZXSQ.s:26823  .debug_str:000000000000f56e .LASF3106
C:\Users\CYMR90~1\AppData\Local\Temp\ccx4ZXSQ.s:31254  .debug_str:0000000000020e7e .LASF3107
C:\Users\CYMR90~1\AppData\Local\Temp\ccx4ZXSQ.s:28475  .debug_str:0000000000015e2b .LASF3108
C:\Users\CYMR90~1\AppData\Local\Temp\ccx4ZXSQ.s:27473  .debug_str:0000000000011e94 .LASF3109
C:\Users\CYMR90~1\AppData\Local\Temp\ccx4ZXSQ.s:30114  .debug_str:000000000001c752 .LASF3110
C:\Users\CYMR90~1\AppData\Local\Temp\ccx4ZXSQ.s:29126  .debug_str:000000000001884d .LASF3111
C:\Users\CYMR90~1\AppData\Local\Temp\ccx4ZXSQ.s:31084  .debug_str:000000000002043d .LASF3112
C:\Users\CYMR90~1\AppData\Local\Temp\ccx4ZXSQ.s:27273  .debug_str:00000000000111f6 .LASF3113
C:\Users\CYMR90~1\AppData\Local\Temp\ccx4ZXSQ.s:33274  .debug_str:0000000000028e03 .LASF3114
C:\Users\CYMR90~1\AppData\Local\Temp\ccx4ZXSQ.s:25255  .debug_str:00000000000092b8 .LASF3115
C:\Users\CYMR90~1\AppData\Local\Temp\ccx4ZXSQ.s:24311  .debug_str:000000000000565f .LASF3116
C:\Users\CYMR90~1\AppData\Local\Temp\ccx4ZXSQ.s:23349  .debug_str:00000000000019cf .LASF3117
C:\Users\CYMR90~1\AppData\Local\Temp\ccx4ZXSQ.s:33988  .debug_str:000000000002b873 .LASF3118
C:\Users\CYMR90~1\AppData\Local\Temp\ccx4ZXSQ.s:31518  .debug_str:0000000000021ed3 .LASF3119
C:\Users\CYMR90~1\AppData\Local\Temp\ccx4ZXSQ.s:30536  .debug_str:000000000001e2f6 .LASF3120
C:\Users\CYMR90~1\AppData\Local\Temp\ccx4ZXSQ.s:24435  .debug_str:0000000000005dcd .LASF3121
C:\Users\CYMR90~1\AppData\Local\Temp\ccx4ZXSQ.s:28647  .debug_str:0000000000016953 .LASF3122
C:\Users\CYMR90~1\AppData\Local\Temp\ccx4ZXSQ.s:27693  .debug_str:0000000000012d5f .LASF3123
C:\Users\CYMR90~1\AppData\Local\Temp\ccx4ZXSQ.s:26699  .debug_str:000000000000ee4e .LASF3124
C:\Users\CYMR90~1\AppData\Local\Temp\ccx4ZXSQ.s:26839  .debug_str:000000000000f64e .LASF3125
C:\Users\CYMR90~1\AppData\Local\Temp\ccx4ZXSQ.s:32954  .debug_str:00000000000278e5 .LASF3126
C:\Users\CYMR90~1\AppData\Local\Temp\ccx4ZXSQ.s:32730  .debug_str:0000000000026b7d .LASF3127
C:\Users\CYMR90~1\AppData\Local\Temp\ccx4ZXSQ.s:27167  .debug_str:0000000000010aec .LASF3128
C:\Users\CYMR90~1\AppData\Local\Temp\ccx4ZXSQ.s:25985  .debug_str:000000000000c191 .LASF3129
C:\Users\CYMR90~1\AppData\Local\Temp\ccx4ZXSQ.s:24827  .debug_str:00000000000076be .LASF3130
C:\Users\CYMR90~1\AppData\Local\Temp\ccx4ZXSQ.s:30358  .debug_str:000000000001d78b .LASF3131
C:\Users\CYMR90~1\AppData\Local\Temp\ccx4ZXSQ.s:32004  .debug_str:0000000000023bae .LASF3132
C:\Users\CYMR90~1\AppData\Local\Temp\ccx4ZXSQ.s:26173  .debug_str:000000000000cdc8 .LASF3133
C:\Users\CYMR90~1\AppData\Local\Temp\ccx4ZXSQ.s:24381  .debug_str:0000000000005aac .LASF3134
C:\Users\CYMR90~1\AppData\Local\Temp\ccx4ZXSQ.s:24163  .debug_str:0000000000004d7d .LASF3135
C:\Users\CYMR90~1\AppData\Local\Temp\ccx4ZXSQ.s:30270  .debug_str:000000000001d12b .LASF3136
C:\Users\CYMR90~1\AppData\Local\Temp\ccx4ZXSQ.s:28743  .debug_str:0000000000016f41 .LASF3137
C:\Users\CYMR90~1\AppData\Local\Temp\ccx4ZXSQ.s:23647  .debug_str:0000000000002c47 .LASF3138
C:\Users\CYMR90~1\AppData\Local\Temp\ccx4ZXSQ.s:34382  .debug_str:000000000002d1de .LASF3139
C:\Users\CYMR90~1\AppData\Local\Temp\ccx4ZXSQ.s:33314  .debug_str:00000000000290bf .LASF3140
C:\Users\CYMR90~1\AppData\Local\Temp\ccx4ZXSQ.s:24131  .debug_str:0000000000004b79 .LASF3141
C:\Users\CYMR90~1\AppData\Local\Temp\ccx4ZXSQ.s:30094  .debug_str:000000000001c627 .LASF3142
C:\Users\CYMR90~1\AppData\Local\Temp\ccx4ZXSQ.s:27277  .debug_str:0000000000011233 .LASF3143
C:\Users\CYMR90~1\AppData\Local\Temp\ccx4ZXSQ.s:30420  .debug_str:000000000001db9d .LASF3144
C:\Users\CYMR90~1\AppData\Local\Temp\ccx4ZXSQ.s:23031  .debug_str:000000000000064b .LASF3145
C:\Users\CYMR90~1\AppData\Local\Temp\ccx4ZXSQ.s:27867  .debug_str:000000000001389e .LASF3146
C:\Users\CYMR90~1\AppData\Local\Temp\ccx4ZXSQ.s:32680  .debug_str:000000000002683c .LASF3147
C:\Users\CYMR90~1\AppData\Local\Temp\ccx4ZXSQ.s:27777  .debug_str:00000000000132de .LASF3148
C:\Users\CYMR90~1\AppData\Local\Temp\ccx4ZXSQ.s:24533  .debug_str:00000000000063a8 .LASF3149
C:\Users\CYMR90~1\AppData\Local\Temp\ccx4ZXSQ.s:29088  .debug_str:000000000001863a .LASF3150
C:\Users\CYMR90~1\AppData\Local\Temp\ccx4ZXSQ.s:27537  .debug_str:00000000000123a2 .LASF3151
C:\Users\CYMR90~1\AppData\Local\Temp\ccx4ZXSQ.s:26029  .debug_str:000000000000c4b2 .LASF3152
C:\Users\CYMR90~1\AppData\Local\Temp\ccx4ZXSQ.s:27193  .debug_str:0000000000010c67 .LASF3153
C:\Users\CYMR90~1\AppData\Local\Temp\ccx4ZXSQ.s:26395  .debug_str:000000000000dc01 .LASF3154
C:\Users\CYMR90~1\AppData\Local\Temp\ccx4ZXSQ.s:25325  .debug_str:00000000000096b0 .LASF3155
C:\Users\CYMR90~1\AppData\Local\Temp\ccx4ZXSQ.s:32364  .debug_str:0000000000025290 .LASF3156
C:\Users\CYMR90~1\AppData\Local\Temp\ccx4ZXSQ.s:27583  .debug_str:000000000001262b .LASF3157
C:\Users\CYMR90~1\AppData\Local\Temp\ccx4ZXSQ.s:31972  .debug_str:0000000000023a28 .LASF3158
C:\Users\CYMR90~1\AppData\Local\Temp\ccx4ZXSQ.s:25671  .debug_str:000000000000accd .LASF3159
C:\Users\CYMR90~1\AppData\Local\Temp\ccx4ZXSQ.s:26511  .debug_str:000000000000e258 .LASF3160
C:\Users\CYMR90~1\AppData\Local\Temp\ccx4ZXSQ.s:32914  .debug_str:0000000000027659 .LASF3161
C:\Users\CYMR90~1\AppData\Local\Temp\ccx4ZXSQ.s:26423  .debug_str:000000000000dd76 .LASF3162
C:\Users\CYMR90~1\AppData\Local\Temp\ccx4ZXSQ.s:24427  .debug_str:0000000000005d6a .LASF3163
C:\Users\CYMR90~1\AppData\Local\Temp\ccx4ZXSQ.s:30784  .debug_str:000000000001f248 .LASF3164
C:\Users\CYMR90~1\AppData\Local\Temp\ccx4ZXSQ.s:24729  .debug_str:000000000000704d .LASF3165
C:\Users\CYMR90~1\AppData\Local\Temp\ccx4ZXSQ.s:26725  .debug_str:000000000000efd8 .LASF3166
C:\Users\CYMR90~1\AppData\Local\Temp\ccx4ZXSQ.s:23185  .debug_str:0000000000000fd2 .LASF3167
C:\Users\CYMR90~1\AppData\Local\Temp\ccx4ZXSQ.s:34126  .debug_str:000000000002c11c .LASF3168
C:\Users\CYMR90~1\AppData\Local\Temp\ccx4ZXSQ.s:33708  .debug_str:000000000002a846 .LASF3169
C:\Users\CYMR90~1\AppData\Local\Temp\ccx4ZXSQ.s:31094  .debug_str:00000000000204c1 .LASF3170
C:\Users\CYMR90~1\AppData\Local\Temp\ccx4ZXSQ.s:32214  .debug_str:000000000002484c .LASF3171
C:\Users\CYMR90~1\AppData\Local\Temp\ccx4ZXSQ.s:30658  .debug_str:000000000001eab6 .LASF3172
C:\Users\CYMR90~1\AppData\Local\Temp\ccx4ZXSQ.s:29022  .debug_str:000000000001826a .LASF3173
C:\Users\CYMR90~1\AppData\Local\Temp\ccx4ZXSQ.s:33062  .debug_str:0000000000028023 .LASF3174
C:\Users\CYMR90~1\AppData\Local\Temp\ccx4ZXSQ.s:28161  .debug_str:0000000000014acb .LASF3175
C:\Users\CYMR90~1\AppData\Local\Temp\ccx4ZXSQ.s:28749  .debug_str:0000000000016f9c .LASF3176
C:\Users\CYMR90~1\AppData\Local\Temp\ccx4ZXSQ.s:23439  .debug_str:0000000000001f84 .LASF3177
C:\Users\CYMR90~1\AppData\Local\Temp\ccx4ZXSQ.s:31040  .debug_str:0000000000020171 .LASF3178
C:\Users\CYMR90~1\AppData\Local\Temp\ccx4ZXSQ.s:30988  .debug_str:000000000001fe6b .LASF3179
C:\Users\CYMR90~1\AppData\Local\Temp\ccx4ZXSQ.s:30066  .debug_str:000000000001c432 .LASF3180
C:\Users\CYMR90~1\AppData\Local\Temp\ccx4ZXSQ.s:23601  .debug_str:0000000000002943 .LASF3181
C:\Users\CYMR90~1\AppData\Local\Temp\ccx4ZXSQ.s:32540  .debug_str:0000000000025eb7 .LASF3182
C:\Users\CYMR90~1\AppData\Local\Temp\ccx4ZXSQ.s:26313  .debug_str:000000000000d63d .LASF3183
C:\Users\CYMR90~1\AppData\Local\Temp\ccx4ZXSQ.s:23975  .debug_str:000000000000415b .LASF3184
C:\Users\CYMR90~1\AppData\Local\Temp\ccx4ZXSQ.s:23703  .debug_str:0000000000002f9b .LASF3185
C:\Users\CYMR90~1\AppData\Local\Temp\ccx4ZXSQ.s:25149  .debug_str:0000000000008bfa .LASF3186
C:\Users\CYMR90~1\AppData\Local\Temp\ccx4ZXSQ.s:30648  .debug_str:000000000001ea04 .LASF3187
C:\Users\CYMR90~1\AppData\Local\Temp\ccx4ZXSQ.s:31808  .debug_str:0000000000023025 .LASF3188
C:\Users\CYMR90~1\AppData\Local\Temp\ccx4ZXSQ.s:25537  .debug_str:000000000000a3dc .LASF3189
C:\Users\CYMR90~1\AppData\Local\Temp\ccx4ZXSQ.s:26519  .debug_str:000000000000e2bc .LASF3190
C:\Users\CYMR90~1\AppData\Local\Temp\ccx4ZXSQ.s:28537  .debug_str:00000000000161ec .LASF3191
C:\Users\CYMR90~1\AppData\Local\Temp\ccx4ZXSQ.s:24545  .debug_str:0000000000006456 .LASF3192
C:\Users\CYMR90~1\AppData\Local\Temp\ccx4ZXSQ.s:32146  .debug_str:000000000002447c .LASF3193
C:\Users\CYMR90~1\AppData\Local\Temp\ccx4ZXSQ.s:29472  .debug_str:0000000000019e31 .LASF3194
C:\Users\CYMR90~1\AppData\Local\Temp\ccx4ZXSQ.s:26021  .debug_str:000000000000c40c .LASF3195
C:\Users\CYMR90~1\AppData\Local\Temp\ccx4ZXSQ.s:31258  .debug_str:0000000000020ec0 .LASF3196
C:\Users\CYMR90~1\AppData\Local\Temp\ccx4ZXSQ.s:23339  .debug_str:0000000000001917 .LASF3197
C:\Users\CYMR90~1\AppData\Local\Temp\ccx4ZXSQ.s:33308  .debug_str:000000000002904d .LASF3198
C:\Users\CYMR90~1\AppData\Local\Temp\ccx4ZXSQ.s:30752  .debug_str:000000000001f049 .LASF3199
C:\Users\CYMR90~1\AppData\Local\Temp\ccx4ZXSQ.s:30044  .debug_str:000000000001c282 .LASF3200
C:\Users\CYMR90~1\AppData\Local\Temp\ccx4ZXSQ.s:33190  .debug_str:000000000002880e .LASF3201
C:\Users\CYMR90~1\AppData\Local\Temp\ccx4ZXSQ.s:23463  .debug_str:00000000000020c9 .LASF3202
C:\Users\CYMR90~1\AppData\Local\Temp\ccx4ZXSQ.s:26753  .debug_str:000000000000f19c .LASF3203
C:\Users\CYMR90~1\AppData\Local\Temp\ccx4ZXSQ.s:26793  .debug_str:000000000000f3b5 .LASF3204
C:\Users\CYMR90~1\AppData\Local\Temp\ccx4ZXSQ.s:32818  .debug_str:00000000000270d3 .LASF3205
C:\Users\CYMR90~1\AppData\Local\Temp\ccx4ZXSQ.s:33194  .debug_str:0000000000028853 .LASF3206
C:\Users\CYMR90~1\AppData\Local\Temp\ccx4ZXSQ.s:29118  .debug_str:00000000000187ed .LASF3207
C:\Users\CYMR90~1\AppData\Local\Temp\ccx4ZXSQ.s:31912  .debug_str:00000000000236b1 .LASF3208
C:\Users\CYMR90~1\AppData\Local\Temp\ccx4ZXSQ.s:23309  .debug_str:00000000000016ac .LASF3209
C:\Users\CYMR90~1\AppData\Local\Temp\ccx4ZXSQ.s:23595  .debug_str:00000000000028e7 .LASF3210
C:\Users\CYMR90~1\AppData\Local\Temp\ccx4ZXSQ.s:23701  .debug_str:0000000000002f77 .LASF3211
C:\Users\CYMR90~1\AppData\Local\Temp\ccx4ZXSQ.s:24517  .debug_str:00000000000062f1 .LASF3212
C:\Users\CYMR90~1\AppData\Local\Temp\ccx4ZXSQ.s:27871  .debug_str:00000000000138e0 .LASF3213
C:\Users\CYMR90~1\AppData\Local\Temp\ccx4ZXSQ.s:26385  .debug_str:000000000000db52 .LASF3214
C:\Users\CYMR90~1\AppData\Local\Temp\ccx4ZXSQ.s:31480  .debug_str:0000000000021bdd .LASF3215
C:\Users\CYMR90~1\AppData\Local\Temp\ccx4ZXSQ.s:29482  .debug_str:0000000000019f10 .LASF3216
C:\Users\CYMR90~1\AppData\Local\Temp\ccx4ZXSQ.s:25513  .debug_str:000000000000a21f .LASF3217
C:\Users\CYMR90~1\AppData\Local\Temp\ccx4ZXSQ.s:25259  .debug_str:00000000000092f5 .LASF3218
C:\Users\CYMR90~1\AppData\Local\Temp\ccx4ZXSQ.s:25879  .debug_str:000000000000ba7a .LASF3219
C:\Users\CYMR90~1\AppData\Local\Temp\ccx4ZXSQ.s:24055  .debug_str:00000000000045fa .LASF3220
C:\Users\CYMR90~1\AppData\Local\Temp\ccx4ZXSQ.s:27295  .debug_str:00000000000113c9 .LASF3221
C:\Users\CYMR90~1\AppData\Local\Temp\ccx4ZXSQ.s:29006  .debug_str:000000000001817e .LASF3222
C:\Users\CYMR90~1\AppData\Local\Temp\ccx4ZXSQ.s:25127  .debug_str:0000000000008aa2 .LASF3223
C:\Users\CYMR90~1\AppData\Local\Temp\ccx4ZXSQ.s:25963  .debug_str:000000000000c00c .LASF3224
C:\Users\CYMR90~1\AppData\Local\Temp\ccx4ZXSQ.s:25911  .debug_str:000000000000bcd3 .LASF3225
C:\Users\CYMR90~1\AppData\Local\Temp\ccx4ZXSQ.s:28914  .debug_str:0000000000017b96 .LASF3226
C:\Users\CYMR90~1\AppData\Local\Temp\ccx4ZXSQ.s:32910  .debug_str:0000000000027620 .LASF3227
C:\Users\CYMR90~1\AppData\Local\Temp\ccx4ZXSQ.s:25615  .debug_str:000000000000a88d .LASF3228
C:\Users\CYMR90~1\AppData\Local\Temp\ccx4ZXSQ.s:23569  .debug_str:0000000000002719 .LASF3229
C:\Users\CYMR90~1\AppData\Local\Temp\ccx4ZXSQ.s:30782  .debug_str:000000000001f22e .LASF3230
C:\Users\CYMR90~1\AppData\Local\Temp\ccx4ZXSQ.s:33970  .debug_str:000000000002b76b .LASF3231
C:\Users\CYMR90~1\AppData\Local\Temp\ccx4ZXSQ.s:29296  .debug_str:000000000001929a .LASF3232
C:\Users\CYMR90~1\AppData\Local\Temp\ccx4ZXSQ.s:23381  .debug_str:0000000000001beb .LASF3233
C:\Users\CYMR90~1\AppData\Local\Temp\ccx4ZXSQ.s:34394  .debug_str:000000000002d2ba .LASF3234
C:\Users\CYMR90~1\AppData\Local\Temp\ccx4ZXSQ.s:28457  .debug_str:0000000000015d33 .LASF3235
C:\Users\CYMR90~1\AppData\Local\Temp\ccx4ZXSQ.s:32310  .debug_str:0000000000024f00 .LASF3236
C:\Users\CYMR90~1\AppData\Local\Temp\ccx4ZXSQ.s:25551  .debug_str:000000000000a4c9 .LASF3237
C:\Users\CYMR90~1\AppData\Local\Temp\ccx4ZXSQ.s:23405  .debug_str:0000000000001d63 .LASF3238
C:\Users\CYMR90~1\AppData\Local\Temp\ccx4ZXSQ.s:24539  .debug_str:000000000000641d .LASF3239
C:\Users\CYMR90~1\AppData\Local\Temp\ccx4ZXSQ.s:29912  .debug_str:000000000001baef .LASF3240
C:\Users\CYMR90~1\AppData\Local\Temp\ccx4ZXSQ.s:23983  .debug_str:00000000000041ca .LASF3241
C:\Users\CYMR90~1\AppData\Local\Temp\ccx4ZXSQ.s:25267  .debug_str:0000000000009370 .LASF3242
C:\Users\CYMR90~1\AppData\Local\Temp\ccx4ZXSQ.s:24287  .debug_str:00000000000054d6 .LASF3243
C:\Users\CYMR90~1\AppData\Local\Temp\ccx4ZXSQ.s:33882  .debug_str:000000000002b276 .LASF3244
C:\Users\CYMR90~1\AppData\Local\Temp\ccx4ZXSQ.s:26041  .debug_str:000000000000c564 .LASF3245
C:\Users\CYMR90~1\AppData\Local\Temp\ccx4ZXSQ.s:23611  .debug_str:00000000000029e4 .LASF3246
C:\Users\CYMR90~1\AppData\Local\Temp\ccx4ZXSQ.s:31768  .debug_str:0000000000022dc8 .LASF3247
C:\Users\CYMR90~1\AppData\Local\Temp\ccx4ZXSQ.s:28349  .debug_str:00000000000156f3 .LASF3248
C:\Users\CYMR90~1\AppData\Local\Temp\ccx4ZXSQ.s:24823  .debug_str:0000000000007677 .LASF3249
C:\Users\CYMR90~1\AppData\Local\Temp\ccx4ZXSQ.s:29890  .debug_str:000000000001b9a4 .LASF3250
C:\Users\CYMR90~1\AppData\Local\Temp\ccx4ZXSQ.s:24425  .debug_str:0000000000005d4b .LASF3251
C:\Users\CYMR90~1\AppData\Local\Temp\ccx4ZXSQ.s:25359  .debug_str:00000000000098e9 .LASF3252
C:\Users\CYMR90~1\AppData\Local\Temp\ccx4ZXSQ.s:27711  .debug_str:0000000000012e92 .LASF3253
C:\Users\CYMR90~1\AppData\Local\Temp\ccx4ZXSQ.s:31786  .debug_str:0000000000022e9c .LASF3254
C:\Users\CYMR90~1\AppData\Local\Temp\ccx4ZXSQ.s:33176  .debug_str:00000000000286fa .LASF3255
C:\Users\CYMR90~1\AppData\Local\Temp\ccx4ZXSQ.s:29106  .debug_str:0000000000018746 .LASF3256
C:\Users\CYMR90~1\AppData\Local\Temp\ccx4ZXSQ.s:27923  .debug_str:0000000000013c93 .LASF3257
C:\Users\CYMR90~1\AppData\Local\Temp\ccx4ZXSQ.s:31784  .debug_str:0000000000022e83 .LASF3258
C:\Users\CYMR90~1\AppData\Local\Temp\ccx4ZXSQ.s:33608  .debug_str:000000000002a27b .LASF3259
C:\Users\CYMR90~1\AppData\Local\Temp\ccx4ZXSQ.s:29752  .debug_str:000000000001b0fc .LASF3260
C:\Users\CYMR90~1\AppData\Local\Temp\ccx4ZXSQ.s:24689  .debug_str:0000000000006d92 .LASF3261
C:\Users\CYMR90~1\AppData\Local\Temp\ccx4ZXSQ.s:24293  .debug_str:000000000000551a .LASF3262
C:\Users\CYMR90~1\AppData\Local\Temp\ccx4ZXSQ.s:30700  .debug_str:000000000001ed4b .LASF3263
C:\Users\CYMR90~1\AppData\Local\Temp\ccx4ZXSQ.s:26619  .debug_str:000000000000e8f1 .LASF3264
C:\Users\CYMR90~1\AppData\Local\Temp\ccx4ZXSQ.s:31990  .debug_str:0000000000023af1 .LASF3265
C:\Users\CYMR90~1\AppData\Local\Temp\ccx4ZXSQ.s:28968  .debug_str:0000000000017ecd .LASF3266
C:\Users\CYMR90~1\AppData\Local\Temp\ccx4ZXSQ.s:32430  .debug_str:00000000000256b3 .LASF3267
C:\Users\CYMR90~1\AppData\Local\Temp\ccx4ZXSQ.s:31824  .debug_str:000000000002314a .LASF3268
C:\Users\CYMR90~1\AppData\Local\Temp\ccx4ZXSQ.s:29018  .debug_str:0000000000018241 .LASF3269
C:\Users\CYMR90~1\AppData\Local\Temp\ccx4ZXSQ.s:34058  .debug_str:000000000002bcdc .LASF3270
C:\Users\CYMR90~1\AppData\Local\Temp\ccx4ZXSQ.s:34362  .debug_str:000000000002d069 .LASF3271
C:\Users\CYMR90~1\AppData\Local\Temp\ccx4ZXSQ.s:32750  .debug_str:0000000000026ca0 .LASF3272
C:\Users\CYMR90~1\AppData\Local\Temp\ccx4ZXSQ.s:23935  .debug_str:0000000000003e83 .LASF3273
C:\Users\CYMR90~1\AppData\Local\Temp\ccx4ZXSQ.s:26841  .debug_str:000000000000f67d .LASF3274
C:\Users\CYMR90~1\AppData\Local\Temp\ccx4ZXSQ.s:23903  .debug_str:0000000000003ca4 .LASF3275
C:\Users\CYMR90~1\AppData\Local\Temp\ccx4ZXSQ.s:29044  .debug_str:0000000000018397 .LASF3276
C:\Users\CYMR90~1\AppData\Local\Temp\ccx4ZXSQ.s:27229  .debug_str:0000000000010f39 .LASF3277
C:\Users\CYMR90~1\AppData\Local\Temp\ccx4ZXSQ.s:24657  .debug_str:0000000000006b69 .LASF3278
C:\Users\CYMR90~1\AppData\Local\Temp\ccx4ZXSQ.s:27633  .debug_str:00000000000129bf .LASF3279
C:\Users\CYMR90~1\AppData\Local\Temp\ccx4ZXSQ.s:31092  .debug_str:00000000000204a4 .LASF3280
C:\Users\CYMR90~1\AppData\Local\Temp\ccx4ZXSQ.s:24919  .debug_str:0000000000007c96 .LASF3281
C:\Users\CYMR90~1\AppData\Local\Temp\ccx4ZXSQ.s:25623  .debug_str:000000000000a8ef .LASF3282
C:\Users\CYMR90~1\AppData\Local\Temp\ccx4ZXSQ.s:28105  .debug_str:0000000000014763 .LASF3283
C:\Users\CYMR90~1\AppData\Local\Temp\ccx4ZXSQ.s:30706  .debug_str:000000000001ed9f .LASF3284
C:\Users\CYMR90~1\AppData\Local\Temp\ccx4ZXSQ.s:24095  .debug_str:00000000000048a6 .LASF3285
C:\Users\CYMR90~1\AppData\Local\Temp\ccx4ZXSQ.s:31256  .debug_str:0000000000020eaa .LASF3286
C:\Users\CYMR90~1\AppData\Local\Temp\ccx4ZXSQ.s:31622  .debug_str:000000000002256a .LASF3287
C:\Users\CYMR90~1\AppData\Local\Temp\ccx4ZXSQ.s:25419  .debug_str:0000000000009c76 .LASF3288
C:\Users\CYMR90~1\AppData\Local\Temp\ccx4ZXSQ.s:24733  .debug_str:000000000000707f .LASF3289
C:\Users\CYMR90~1\AppData\Local\Temp\ccx4ZXSQ.s:25277  .debug_str:00000000000093de .LASF3290
C:\Users\CYMR90~1\AppData\Local\Temp\ccx4ZXSQ.s:23679  .debug_str:0000000000002e40 .LASF3291
C:\Users\CYMR90~1\AppData\Local\Temp\ccx4ZXSQ.s:34214  .debug_str:000000000002c6ce .LASF3292
C:\Users\CYMR90~1\AppData\Local\Temp\ccx4ZXSQ.s:24523  .debug_str:0000000000006344 .LASF3293
C:\Users\CYMR90~1\AppData\Local\Temp\ccx4ZXSQ.s:23067  .debug_str:0000000000000811 .LASF3294
C:\Users\CYMR90~1\AppData\Local\Temp\ccx4ZXSQ.s:24103  .debug_str:000000000000493b .LASF3295
C:\Users\CYMR90~1\AppData\Local\Temp\ccx4ZXSQ.s:31722  .debug_str:0000000000022b2f .LASF3296
C:\Users\CYMR90~1\AppData\Local\Temp\ccx4ZXSQ.s:29476  .debug_str:0000000000019e91 .LASF3297
C:\Users\CYMR90~1\AppData\Local\Temp\ccx4ZXSQ.s:31338  .debug_str:00000000000213e3 .LASF3298
C:\Users\CYMR90~1\AppData\Local\Temp\ccx4ZXSQ.s:22999  .debug_str:0000000000000442 .LASF3299
C:\Users\CYMR90~1\AppData\Local\Temp\ccx4ZXSQ.s:30926  .debug_str:000000000001facb .LASF3300
C:\Users\CYMR90~1\AppData\Local\Temp\ccx4ZXSQ.s:29740  .debug_str:000000000001b041 .LASF3301
C:\Users\CYMR90~1\AppData\Local\Temp\ccx4ZXSQ.s:24577  .debug_str:000000000000666c .LASF3302
C:\Users\CYMR90~1\AppData\Local\Temp\ccx4ZXSQ.s:30262  .debug_str:000000000001d0a2 .LASF3303
C:\Users\CYMR90~1\AppData\Local\Temp\ccx4ZXSQ.s:29084  .debug_str:0000000000018604 .LASF3304
C:\Users\CYMR90~1\AppData\Local\Temp\ccx4ZXSQ.s:27591  .debug_str:00000000000126a3 .LASF3305
C:\Users\CYMR90~1\AppData\Local\Temp\ccx4ZXSQ.s:25505  .debug_str:000000000000a18c .LASF3306
C:\Users\CYMR90~1\AppData\Local\Temp\ccx4ZXSQ.s:30568  .debug_str:000000000001e4b3 .LASF3307
C:\Users\CYMR90~1\AppData\Local\Temp\ccx4ZXSQ.s:34310  .debug_str:000000000002cd83 .LASF3308
C:\Users\CYMR90~1\AppData\Local\Temp\ccx4ZXSQ.s:29492  .debug_str:000000000001a016 .LASF3309
C:\Users\CYMR90~1\AppData\Local\Temp\ccx4ZXSQ.s:29814  .debug_str:000000000001b4a4 .LASF3310
C:\Users\CYMR90~1\AppData\Local\Temp\ccx4ZXSQ.s:32356  .debug_str:000000000002522e .LASF3311
C:\Users\CYMR90~1\AppData\Local\Temp\ccx4ZXSQ.s:33778  .debug_str:000000000002ac22 .LASF3312
C:\Users\CYMR90~1\AppData\Local\Temp\ccx4ZXSQ.s:27467  .debug_str:0000000000011e34 .LASF3313
C:\Users\CYMR90~1\AppData\Local\Temp\ccx4ZXSQ.s:30516  .debug_str:000000000001e1e2 .LASF3314
C:\Users\CYMR90~1\AppData\Local\Temp\ccx4ZXSQ.s:26517  .debug_str:000000000000e2a4 .LASF3315
C:\Users\CYMR90~1\AppData\Local\Temp\ccx4ZXSQ.s:33548  .debug_str:0000000000029f08 .LASF3316
C:\Users\CYMR90~1\AppData\Local\Temp\ccx4ZXSQ.s:24837  .debug_str:0000000000007759 .LASF3317
C:\Users\CYMR90~1\AppData\Local\Temp\ccx4ZXSQ.s:33830  .debug_str:000000000002af69 .LASF3318
C:\Users\CYMR90~1\AppData\Local\Temp\ccx4ZXSQ.s:32590  .debug_str:0000000000026288 .LASF3319
C:\Users\CYMR90~1\AppData\Local\Temp\ccx4ZXSQ.s:23861  .debug_str:0000000000003a12 .LASF3320
C:\Users\CYMR90~1\AppData\Local\Temp\ccx4ZXSQ.s:27159  .debug_str:0000000000010a72 .LASF3321
C:\Users\CYMR90~1\AppData\Local\Temp\ccx4ZXSQ.s:33278  .debug_str:0000000000028e51 .LASF3322
C:\Users\CYMR90~1\AppData\Local\Temp\ccx4ZXSQ.s:27655  .debug_str:0000000000012afb .LASF3323
C:\Users\CYMR90~1\AppData\Local\Temp\ccx4ZXSQ.s:25683  .debug_str:000000000000ad6f .LASF3324
C:\Users\CYMR90~1\AppData\Local\Temp\ccx4ZXSQ.s:34118  .debug_str:000000000002c088 .LASF3325
C:\Users\CYMR90~1\AppData\Local\Temp\ccx4ZXSQ.s:25771  .debug_str:000000000000b3b4 .LASF3326
C:\Users\CYMR90~1\AppData\Local\Temp\ccx4ZXSQ.s:27119  .debug_str:0000000000010819 .LASF3327
C:\Users\CYMR90~1\AppData\Local\Temp\ccx4ZXSQ.s:33862  .debug_str:000000000002b153 .LASF3328
C:\Users\CYMR90~1\AppData\Local\Temp\ccx4ZXSQ.s:24607  .debug_str:0000000000006832 .LASF3329
C:\Users\CYMR90~1\AppData\Local\Temp\ccx4ZXSQ.s:25519  .debug_str:000000000000a294 .LASF3330
C:\Users\CYMR90~1\AppData\Local\Temp\ccx4ZXSQ.s:31448  .debug_str:00000000000219fe .LASF3331
C:\Users\CYMR90~1\AppData\Local\Temp\ccx4ZXSQ.s:32836  .debug_str:0000000000027202 .LASF3332
C:\Users\CYMR90~1\AppData\Local\Temp\ccx4ZXSQ.s:26361  .debug_str:000000000000d998 .LASF3333
C:\Users\CYMR90~1\AppData\Local\Temp\ccx4ZXSQ.s:32202  .debug_str:00000000000247a0 .LASF3334
C:\Users\CYMR90~1\AppData\Local\Temp\ccx4ZXSQ.s:28233  .debug_str:0000000000014f7e .LASF3335
C:\Users\CYMR90~1\AppData\Local\Temp\ccx4ZXSQ.s:27043  .debug_str:00000000000102e2 .LASF3336
C:\Users\CYMR90~1\AppData\Local\Temp\ccx4ZXSQ.s:30250  .debug_str:000000000001cf33 .LASF3337
C:\Users\CYMR90~1\AppData\Local\Temp\ccx4ZXSQ.s:33110  .debug_str:0000000000028296 .LASF3338
C:\Users\CYMR90~1\AppData\Local\Temp\ccx4ZXSQ.s:23883  .debug_str:0000000000003b4a .LASF3339
C:\Users\CYMR90~1\AppData\Local\Temp\ccx4ZXSQ.s:30496  .debug_str:000000000001e072 .LASF3340
C:\Users\CYMR90~1\AppData\Local\Temp\ccx4ZXSQ.s:33288  .debug_str:0000000000028ee8 .LASF3341
C:\Users\CYMR90~1\AppData\Local\Temp\ccx4ZXSQ.s:23273  .debug_str:00000000000014b4 .LASF3342
C:\Users\CYMR90~1\AppData\Local\Temp\ccx4ZXSQ.s:31692  .debug_str:0000000000022959 .LASF3343
C:\Users\CYMR90~1\AppData\Local\Temp\ccx4ZXSQ.s:28435  .debug_str:0000000000015bf0 .LASF3344
C:\Users\CYMR90~1\AppData\Local\Temp\ccx4ZXSQ.s:25263  .debug_str:0000000000009331 .LASF3345
C:\Users\CYMR90~1\AppData\Local\Temp\ccx4ZXSQ.s:30396  .debug_str:000000000001da3d .LASF3346
C:\Users\CYMR90~1\AppData\Local\Temp\ccx4ZXSQ.s:27797  .debug_str:000000000001341a .LASF3347
C:\Users\CYMR90~1\AppData\Local\Temp\ccx4ZXSQ.s:25749  .debug_str:000000000000b17e .LASF3348
C:\Users\CYMR90~1\AppData\Local\Temp\ccx4ZXSQ.s:30322  .debug_str:000000000001d4a0 .LASF3349
C:\Users\CYMR90~1\AppData\Local\Temp\ccx4ZXSQ.s:32454  .debug_str:000000000002582a .LASF3350
C:\Users\CYMR90~1\AppData\Local\Temp\ccx4ZXSQ.s:24181  .debug_str:0000000000004e9b .LASF3351
C:\Users\CYMR90~1\AppData\Local\Temp\ccx4ZXSQ.s:33794  .debug_str:000000000002ad00 .LASF3352
C:\Users\CYMR90~1\AppData\Local\Temp\ccx4ZXSQ.s:29550  .debug_str:000000000001a38d .LASF3353
C:\Users\CYMR90~1\AppData\Local\Temp\ccx4ZXSQ.s:29594  .debug_str:000000000001a5fe .LASF3354
C:\Users\CYMR90~1\AppData\Local\Temp\ccx4ZXSQ.s:29604  .debug_str:000000000001a698 .LASF3355
C:\Users\CYMR90~1\AppData\Local\Temp\ccx4ZXSQ.s:32958  .debug_str:0000000000027939 .LASF3356
C:\Users\CYMR90~1\AppData\Local\Temp\ccx4ZXSQ.s:27683  .debug_str:0000000000012ca4 .LASF3357
C:\Users\CYMR90~1\AppData\Local\Temp\ccx4ZXSQ.s:33764  .debug_str:000000000002ab6d .LASF3358
C:\Users\CYMR90~1\AppData\Local\Temp\ccx4ZXSQ.s:27391  .debug_str:000000000001193f .LASF3359
C:\Users\CYMR90~1\AppData\Local\Temp\ccx4ZXSQ.s:33040  .debug_str:0000000000027ecb .LASF3360
C:\Users\CYMR90~1\AppData\Local\Temp\ccx4ZXSQ.s:24073  .debug_str:0000000000004710 .LASF3361
C:\Users\CYMR90~1\AppData\Local\Temp\ccx4ZXSQ.s:27267  .debug_str:000000000001117f .LASF3362
C:\Users\CYMR90~1\AppData\Local\Temp\ccx4ZXSQ.s:30676  .debug_str:000000000001eba8 .LASF3363
C:\Users\CYMR90~1\AppData\Local\Temp\ccx4ZXSQ.s:27617  .debug_str:0000000000012887 .LASF3364
C:\Users\CYMR90~1\AppData\Local\Temp\ccx4ZXSQ.s:27605  .debug_str:00000000000127a8 .LASF3365
C:\Users\CYMR90~1\AppData\Local\Temp\ccx4ZXSQ.s:27795  .debug_str:00000000000133e1 .LASF3366
C:\Users\CYMR90~1\AppData\Local\Temp\ccx4ZXSQ.s:31922  .debug_str:000000000002372d .LASF3367
C:\Users\CYMR90~1\AppData\Local\Temp\ccx4ZXSQ.s:28625  .debug_str:00000000000167d2 .LASF3368
C:\Users\CYMR90~1\AppData\Local\Temp\ccx4ZXSQ.s:30226  .debug_str:000000000001cdb0 .LASF3369
C:\Users\CYMR90~1\AppData\Local\Temp\ccx4ZXSQ.s:25991  .debug_str:000000000000c1f9 .LASF3370
C:\Users\CYMR90~1\AppData\Local\Temp\ccx4ZXSQ.s:24953  .debug_str:0000000000007ebe .LASF3371
C:\Users\CYMR90~1\AppData\Local\Temp\ccx4ZXSQ.s:24235  .debug_str:00000000000051b5 .LASF3372
C:\Users\CYMR90~1\AppData\Local\Temp\ccx4ZXSQ.s:27749  .debug_str:0000000000013106 .LASF3373
C:\Users\CYMR90~1\AppData\Local\Temp\ccx4ZXSQ.s:25007  .debug_str:00000000000082ce .LASF3374
C:\Users\CYMR90~1\AppData\Local\Temp\ccx4ZXSQ.s:23323  .debug_str:000000000000178b .LASF3375
C:\Users\CYMR90~1\AppData\Local\Temp\ccx4ZXSQ.s:33240  .debug_str:0000000000028b8f .LASF3376
C:\Users\CYMR90~1\AppData\Local\Temp\ccx4ZXSQ.s:29878  .debug_str:000000000001b904 .LASF3377
C:\Users\CYMR90~1\AppData\Local\Temp\ccx4ZXSQ.s:26275  .debug_str:000000000000d3dd .LASF3378
C:\Users\CYMR90~1\AppData\Local\Temp\ccx4ZXSQ.s:28191  .debug_str:0000000000014cd2 .LASF3379
C:\Users\CYMR90~1\AppData\Local\Temp\ccx4ZXSQ.s:29196  .debug_str:0000000000018cbb .LASF3380
C:\Users\CYMR90~1\AppData\Local\Temp\ccx4ZXSQ.s:33104  .debug_str:0000000000028235 .LASF3381
C:\Users\CYMR90~1\AppData\Local\Temp\ccx4ZXSQ.s:30730  .debug_str:000000000001ef0f .LASF3382
C:\Users\CYMR90~1\AppData\Local\Temp\ccx4ZXSQ.s:24629  .debug_str:00000000000069c8 .LASF3383
C:\Users\CYMR90~1\AppData\Local\Temp\ccx4ZXSQ.s:25621  .debug_str:000000000000a8cc .LASF3384
C:\Users\CYMR90~1\AppData\Local\Temp\ccx4ZXSQ.s:28683  .debug_str:0000000000016b54 .LASF3385
C:\Users\CYMR90~1\AppData\Local\Temp\ccx4ZXSQ.s:29652  .debug_str:000000000001a930 .LASF3386
C:\Users\CYMR90~1\AppData\Local\Temp\ccx4ZXSQ.s:30990  .debug_str:000000000001fe8a .LASF3387
C:\Users\CYMR90~1\AppData\Local\Temp\ccx4ZXSQ.s:27073  .debug_str:00000000000104f4 .LASF3388
C:\Users\CYMR90~1\AppData\Local\Temp\ccx4ZXSQ.s:34388  .debug_str:000000000002d24a .LASF3389
C:\Users\CYMR90~1\AppData\Local\Temp\ccx4ZXSQ.s:29008  .debug_str:0000000000018195 .LASF3390
C:\Users\CYMR90~1\AppData\Local\Temp\ccx4ZXSQ.s:31720  .debug_str:0000000000022b0b .LASF3391
C:\Users\CYMR90~1\AppData\Local\Temp\ccx4ZXSQ.s:25951  .debug_str:000000000000bf63 .LASF3392
C:\Users\CYMR90~1\AppData\Local\Temp\ccx4ZXSQ.s:32006  .debug_str:0000000000023bdb .LASF3393
C:\Users\CYMR90~1\AppData\Local\Temp\ccx4ZXSQ.s:28071  .debug_str:000000000001454b .LASF3394
C:\Users\CYMR90~1\AppData\Local\Temp\ccx4ZXSQ.s:30882  .debug_str:000000000001f7d5 .LASF3395
C:\Users\CYMR90~1\AppData\Local\Temp\ccx4ZXSQ.s:26825  .debug_str:000000000000f590 .LASF3396
C:\Users\CYMR90~1\AppData\Local\Temp\ccx4ZXSQ.s:33758  .debug_str:000000000002ab13 .LASF3397
C:\Users\CYMR90~1\AppData\Local\Temp\ccx4ZXSQ.s:27157  .debug_str:0000000000010a5b .LASF3398
C:\Users\CYMR90~1\AppData\Local\Temp\ccx4ZXSQ.s:33368  .debug_str:000000000002945f .LASF3399
C:\Users\CYMR90~1\AppData\Local\Temp\ccx4ZXSQ.s:28369  .debug_str:0000000000015825 .LASF3400
C:\Users\CYMR90~1\AppData\Local\Temp\ccx4ZXSQ.s:27497  .debug_str:00000000000120b2 .LASF3401
C:\Users\CYMR90~1\AppData\Local\Temp\ccx4ZXSQ.s:25301  .debug_str:0000000000009561 .LASF3402
C:\Users\CYMR90~1\AppData\Local\Temp\ccx4ZXSQ.s:25705  .debug_str:000000000000aeea .LASF3403
C:\Users\CYMR90~1\AppData\Local\Temp\ccx4ZXSQ.s:34518  .debug_str:000000000002da8d .LASF3404
C:\Users\CYMR90~1\AppData\Local\Temp\ccx4ZXSQ.s:24023  .debug_str:00000000000043e7 .LASF3405
C:\Users\CYMR90~1\AppData\Local\Temp\ccx4ZXSQ.s:34030  .debug_str:000000000002baaf .LASF3406
C:\Users\CYMR90~1\AppData\Local\Temp\ccx4ZXSQ.s:26431  .debug_str:000000000000dddb .LASF3407
C:\Users\CYMR90~1\AppData\Local\Temp\ccx4ZXSQ.s:29176  .debug_str:0000000000018b52 .LASF3408
C:\Users\CYMR90~1\AppData\Local\Temp\ccx4ZXSQ.s:28623  .debug_str:00000000000167ba .LASF3409
C:\Users\CYMR90~1\AppData\Local\Temp\ccx4ZXSQ.s:32018  .debug_str:0000000000023c84 .LASF3410
C:\Users\CYMR90~1\AppData\Local\Temp\ccx4ZXSQ.s:23239  .debug_str:00000000000012b2 .LASF3411
C:\Users\CYMR90~1\AppData\Local\Temp\ccx4ZXSQ.s:29836  .debug_str:000000000001b604 .LASF3412
C:\Users\CYMR90~1\AppData\Local\Temp\ccx4ZXSQ.s:31876  .debug_str:0000000000023428 .LASF3413
C:\Users\CYMR90~1\AppData\Local\Temp\ccx4ZXSQ.s:24443  .debug_str:0000000000005e4d .LASF3414
C:\Users\CYMR90~1\AppData\Local\Temp\ccx4ZXSQ.s:32190  .debug_str:00000000000246f9 .LASF3415
C:\Users\CYMR90~1\AppData\Local\Temp\ccx4ZXSQ.s:32624  .debug_str:00000000000264c2 .LASF3416
C:\Users\CYMR90~1\AppData\Local\Temp\ccx4ZXSQ.s:31328  .debug_str:000000000002136a .LASF3417
C:\Users\CYMR90~1\AppData\Local\Temp\ccx4ZXSQ.s:28523  .debug_str:0000000000016138 .LASF3418
C:\Users\CYMR90~1\AppData\Local\Temp\ccx4ZXSQ.s:28251  .debug_str:000000000001508b .LASF3419
C:\Users\CYMR90~1\AppData\Local\Temp\ccx4ZXSQ.s:29000  .debug_str:000000000001811c .LASF3420
C:\Users\CYMR90~1\AppData\Local\Temp\ccx4ZXSQ.s:31226  .debug_str:0000000000020c8e .LASF3421
C:\Users\CYMR90~1\AppData\Local\Temp\ccx4ZXSQ.s:24831  .debug_str:0000000000007700 .LASF3422
C:\Users\CYMR90~1\AppData\Local\Temp\ccx4ZXSQ.s:22993  .debug_str:00000000000003e9 .LASF3423
C:\Users\CYMR90~1\AppData\Local\Temp\ccx4ZXSQ.s:33392  .debug_str:00000000000295df .LASF3424
C:\Users\CYMR90~1\AppData\Local\Temp\ccx4ZXSQ.s:23137  .debug_str:0000000000000c8f .LASF3425
C:\Users\CYMR90~1\AppData\Local\Temp\ccx4ZXSQ.s:31698  .debug_str:00000000000229cd .LASF3426
C:\Users\CYMR90~1\AppData\Local\Temp\ccx4ZXSQ.s:27703  .debug_str:0000000000012e0d .LASF3427
C:\Users\CYMR90~1\AppData\Local\Temp\ccx4ZXSQ.s:25401  .debug_str:0000000000009b20 .LASF3428
C:\Users\CYMR90~1\AppData\Local\Temp\ccx4ZXSQ.s:26303  .debug_str:000000000000d590 .LASF3429
C:\Users\CYMR90~1\AppData\Local\Temp\ccx4ZXSQ.s:32008  .debug_str:0000000000023c01 .LASF3430
C:\Users\CYMR90~1\AppData\Local\Temp\ccx4ZXSQ.s:29922  .debug_str:000000000001bba0 .LASF3431
C:\Users\CYMR90~1\AppData\Local\Temp\ccx4ZXSQ.s:28681  .debug_str:0000000000016b37 .LASF3432
C:\Users\CYMR90~1\AppData\Local\Temp\ccx4ZXSQ.s:32452  .debug_str:000000000002580c .LASF3433
C:\Users\CYMR90~1\AppData\Local\Temp\ccx4ZXSQ.s:26955  .debug_str:000000000000fdd9 .LASF3434
C:\Users\CYMR90~1\AppData\Local\Temp\ccx4ZXSQ.s:31920  .debug_str:0000000000023711 .LASF3435
C:\Users\CYMR90~1\AppData\Local\Temp\ccx4ZXSQ.s:27889  .debug_str:00000000000139f4 .LASF3436
C:\Users\CYMR90~1\AppData\Local\Temp\ccx4ZXSQ.s:30448  .debug_str:000000000001dd51 .LASF3437
C:\Users\CYMR90~1\AppData\Local\Temp\ccx4ZXSQ.s:33154  .debug_str:0000000000028590 .LASF3438
C:\Users\CYMR90~1\AppData\Local\Temp\ccx4ZXSQ.s:34432  .debug_str:000000000002d52f .LASF3439
C:\Users\CYMR90~1\AppData\Local\Temp\ccx4ZXSQ.s:23387  .debug_str:0000000000001c40 .LASF3440
C:\Users\CYMR90~1\AppData\Local\Temp\ccx4ZXSQ.s:23951  .debug_str:0000000000003f90 .LASF3441
C:\Users\CYMR90~1\AppData\Local\Temp\ccx4ZXSQ.s:34108  .debug_str:000000000002bfec .LASF3442
C:\Users\CYMR90~1\AppData\Local\Temp\ccx4ZXSQ.s:25779  .debug_str:000000000000b442 .LASF3443
C:\Users\CYMR90~1\AppData\Local\Temp\ccx4ZXSQ.s:28043  .debug_str:00000000000143e2 .LASF3444
C:\Users\CYMR90~1\AppData\Local\Temp\ccx4ZXSQ.s:31800  .debug_str:0000000000022f95 .LASF3445
C:\Users\CYMR90~1\AppData\Local\Temp\ccx4ZXSQ.s:32974  .debug_str:0000000000027a21 .LASF3446
C:\Users\CYMR90~1\AppData\Local\Temp\ccx4ZXSQ.s:24423  .debug_str:0000000000005d21 .LASF3447
C:\Users\CYMR90~1\AppData\Local\Temp\ccx4ZXSQ.s:25889  .debug_str:000000000000bb34 .LASF3448
C:\Users\CYMR90~1\AppData\Local\Temp\ccx4ZXSQ.s:24357  .debug_str:0000000000005926 .LASF3449
C:\Users\CYMR90~1\AppData\Local\Temp\ccx4ZXSQ.s:27609  .debug_str:00000000000127f9 .LASF3450
C:\Users\CYMR90~1\AppData\Local\Temp\ccx4ZXSQ.s:33144  .debug_str:00000000000284f3 .LASF3451
C:\Users\CYMR90~1\AppData\Local\Temp\ccx4ZXSQ.s:29438  .debug_str:0000000000019c5b .LASF3452
C:\Users\CYMR90~1\AppData\Local\Temp\ccx4ZXSQ.s:28189  .debug_str:0000000000014c97 .LASF3453
C:\Users\CYMR90~1\AppData\Local\Temp\ccx4ZXSQ.s:34470  .debug_str:000000000002d7d3 .LASF3454
C:\Users\CYMR90~1\AppData\Local\Temp\ccx4ZXSQ.s:30958  .debug_str:000000000001fcb2 .LASF3455
C:\Users\CYMR90~1\AppData\Local\Temp\ccx4ZXSQ.s:27539  .debug_str:00000000000123bc .LASF3456
C:\Users\CYMR90~1\AppData\Local\Temp\ccx4ZXSQ.s:24841  .debug_str:000000000000778e .LASF3457
C:\Users\CYMR90~1\AppData\Local\Temp\ccx4ZXSQ.s:32060  .debug_str:0000000000023f15 .LASF3458
C:\Users\CYMR90~1\AppData\Local\Temp\ccx4ZXSQ.s:28573  .debug_str:0000000000016443 .LASF3459
C:\Users\CYMR90~1\AppData\Local\Temp\ccx4ZXSQ.s:25087  .debug_str:0000000000008876 .LASF3460
C:\Users\CYMR90~1\AppData\Local\Temp\ccx4ZXSQ.s:29124  .debug_str:0000000000018826 .LASF3461
C:\Users\CYMR90~1\AppData\Local\Temp\ccx4ZXSQ.s:34166  .debug_str:000000000002c3db .LASF3462
C:\Users\CYMR90~1\AppData\Local\Temp\ccx4ZXSQ.s:32698  .debug_str:0000000000026938 .LASF3463
C:\Users\CYMR90~1\AppData\Local\Temp\ccx4ZXSQ.s:23343  .debug_str:0000000000001963 .LASF3464
C:\Users\CYMR90~1\AppData\Local\Temp\ccx4ZXSQ.s:24397  .debug_str:0000000000005b7d .LASF3465
C:\Users\CYMR90~1\AppData\Local\Temp\ccx4ZXSQ.s:30738  .debug_str:000000000001ef5b .LASF3466
C:\Users\CYMR90~1\AppData\Local\Temp\ccx4ZXSQ.s:30966  .debug_str:000000000001fd30 .LASF3467
C:\Users\CYMR90~1\AppData\Local\Temp\ccx4ZXSQ.s:32110  .debug_str:0000000000024263 .LASF3468
C:\Users\CYMR90~1\AppData\Local\Temp\ccx4ZXSQ.s:32480  .debug_str:0000000000025a57 .LASF3469
C:\Users\CYMR90~1\AppData\Local\Temp\ccx4ZXSQ.s:29230  .debug_str:0000000000018e9c .LASF3470
C:\Users\CYMR90~1\AppData\Local\Temp\ccx4ZXSQ.s:34412  .debug_str:000000000002d3e6 .LASF3471
C:\Users\CYMR90~1\AppData\Local\Temp\ccx4ZXSQ.s:25855  .debug_str:000000000000b890 .LASF3472
C:\Users\CYMR90~1\AppData\Local\Temp\ccx4ZXSQ.s:29104  .debug_str:0000000000018726 .LASF3473
C:\Users\CYMR90~1\AppData\Local\Temp\ccx4ZXSQ.s:23275  .debug_str:00000000000014d3 .LASF3474
C:\Users\CYMR90~1\AppData\Local\Temp\ccx4ZXSQ.s:30202  .debug_str:000000000001cc45 .LASF3475
C:\Users\CYMR90~1\AppData\Local\Temp\ccx4ZXSQ.s:26085  .debug_str:000000000000c80b .LASF3476
C:\Users\CYMR90~1\AppData\Local\Temp\ccx4ZXSQ.s:26365  .debug_str:000000000000d9e3 .LASF3477
C:\Users\CYMR90~1\AppData\Local\Temp\ccx4ZXSQ.s:34162  .debug_str:000000000002c390 .LASF3478
C:\Users\CYMR90~1\AppData\Local\Temp\ccx4ZXSQ.s:31174  .debug_str:00000000000209be .LASF3479
C:\Users\CYMR90~1\AppData\Local\Temp\ccx4ZXSQ.s:26855  .debug_str:000000000000f77d .LASF3480
C:\Users\CYMR90~1\AppData\Local\Temp\ccx4ZXSQ.s:32622  .debug_str:000000000002649a .LASF3481
C:\Users\CYMR90~1\AppData\Local\Temp\ccx4ZXSQ.s:31550  .debug_str:00000000000220b8 .LASF3482
C:\Users\CYMR90~1\AppData\Local\Temp\ccx4ZXSQ.s:27125  .debug_str:0000000000010883 .LASF3483
C:\Users\CYMR90~1\AppData\Local\Temp\ccx4ZXSQ.s:31172  .debug_str:0000000000020997 .LASF3484
C:\Users\CYMR90~1\AppData\Local\Temp\ccx4ZXSQ.s:28201  .debug_str:0000000000014d9b .LASF3485
C:\Users\CYMR90~1\AppData\Local\Temp\ccx4ZXSQ.s:34040  .debug_str:000000000002bb87 .LASF3486
C:\Users\CYMR90~1\AppData\Local\Temp\ccx4ZXSQ.s:23007  .debug_str:00000000000004cd .LASF3487
C:\Users\CYMR90~1\AppData\Local\Temp\ccx4ZXSQ.s:31206  .debug_str:0000000000020b89 .LASF3488
C:\Users\CYMR90~1\AppData\Local\Temp\ccx4ZXSQ.s:32754  .debug_str:0000000000026ce8 .LASF3489
C:\Users\CYMR90~1\AppData\Local\Temp\ccx4ZXSQ.s:34472  .debug_str:000000000002d7fa .LASF3490
C:\Users\CYMR90~1\AppData\Local\Temp\ccx4ZXSQ.s:25487  .debug_str:000000000000a08d .LASF3491
C:\Users\CYMR90~1\AppData\Local\Temp\ccx4ZXSQ.s:29474  .debug_str:0000000000019e54 .LASF3492
C:\Users\CYMR90~1\AppData\Local\Temp\ccx4ZXSQ.s:26831  .debug_str:000000000000f5d6 .LASF3493
C:\Users\CYMR90~1\AppData\Local\Temp\ccx4ZXSQ.s:30880  .debug_str:000000000001f7b7 .LASF3494
C:\Users\CYMR90~1\AppData\Local\Temp\ccx4ZXSQ.s:29288  .debug_str:00000000000191f8 .LASF3495
C:\Users\CYMR90~1\AppData\Local\Temp\ccx4ZXSQ.s:24723  .debug_str:0000000000006ff7 .LASF3496
C:\Users\CYMR90~1\AppData\Local\Temp\ccx4ZXSQ.s:30078  .debug_str:000000000001c505 .LASF3497
C:\Users\CYMR90~1\AppData\Local\Temp\ccx4ZXSQ.s:23939  .debug_str:0000000000003ed1 .LASF3498
C:\Users\CYMR90~1\AppData\Local\Temp\ccx4ZXSQ.s:25761  .debug_str:000000000000b270 .LASF3499
C:\Users\CYMR90~1\AppData\Local\Temp\ccx4ZXSQ.s:26851  .debug_str:000000000000f72f .LASF3500
C:\Users\CYMR90~1\AppData\Local\Temp\ccx4ZXSQ.s:31632  .debug_str:00000000000225ff .LASF3501
C:\Users\CYMR90~1\AppData\Local\Temp\ccx4ZXSQ.s:25955  .debug_str:000000000000bf98 .LASF3502
C:\Users\CYMR90~1\AppData\Local\Temp\ccx4ZXSQ.s:30638  .debug_str:000000000001e965 .LASF3503
C:\Users\CYMR90~1\AppData\Local\Temp\ccx4ZXSQ.s:30532  .debug_str:000000000001e2ad .LASF3504
C:\Users\CYMR90~1\AppData\Local\Temp\ccx4ZXSQ.s:31654  .debug_str:0000000000022756 .LASF3505
C:\Users\CYMR90~1\AppData\Local\Temp\ccx4ZXSQ.s:25727  .debug_str:000000000000b031 .LASF3506
C:\Users\CYMR90~1\AppData\Local\Temp\ccx4ZXSQ.s:28163  .debug_str:0000000000014ae5 .LASF3507
C:\Users\CYMR90~1\AppData\Local\Temp\ccx4ZXSQ.s:24493  .debug_str:000000000000617a .LASF3508
C:\Users\CYMR90~1\AppData\Local\Temp\ccx4ZXSQ.s:31384  .debug_str:00000000000216b5 .LASF3509
C:\Users\CYMR90~1\AppData\Local\Temp\ccx4ZXSQ.s:27783  .debug_str:0000000000013322 .LASF3510
C:\Users\CYMR90~1\AppData\Local\Temp\ccx4ZXSQ.s:29896  .debug_str:000000000001b9e1 .LASF3511
C:\Users\CYMR90~1\AppData\Local\Temp\ccx4ZXSQ.s:29768  .debug_str:000000000001b1f8 .LASF3512
C:\Users\CYMR90~1\AppData\Local\Temp\ccx4ZXSQ.s:24245  .debug_str:000000000000525c .LASF3513
C:\Users\CYMR90~1\AppData\Local\Temp\ccx4ZXSQ.s:31248  .debug_str:0000000000020e0d .LASF3514
C:\Users\CYMR90~1\AppData\Local\Temp\ccx4ZXSQ.s:27855  .debug_str:00000000000137c3 .LASF3515
C:\Users\CYMR90~1\AppData\Local\Temp\ccx4ZXSQ.s:25599  .debug_str:000000000000a7c8 .LASF3516
C:\Users\CYMR90~1\AppData\Local\Temp\ccx4ZXSQ.s:30252  .debug_str:000000000001cf58 .LASF3517
C:\Users\CYMR90~1\AppData\Local\Temp\ccx4ZXSQ.s:24769  .debug_str:00000000000072d3 .LASF3518
C:\Users\CYMR90~1\AppData\Local\Temp\ccx4ZXSQ.s:32952  .debug_str:00000000000278c3 .LASF3519
C:\Users\CYMR90~1\AppData\Local\Temp\ccx4ZXSQ.s:24161  .debug_str:0000000000004d59 .LASF3520
C:\Users\CYMR90~1\AppData\Local\Temp\ccx4ZXSQ.s:25691  .debug_str:000000000000adf7 .LASF3521
C:\Users\CYMR90~1\AppData\Local\Temp\ccx4ZXSQ.s:26401  .debug_str:000000000000dc50 .LASF3522
C:\Users\CYMR90~1\AppData\Local\Temp\ccx4ZXSQ.s:32044  .debug_str:0000000000023e17 .LASF3523
C:\Users\CYMR90~1\AppData\Local\Temp\ccx4ZXSQ.s:30570  .debug_str:000000000001e4e9 .LASF3524
C:\Users\CYMR90~1\AppData\Local\Temp\ccx4ZXSQ.s:23019  .debug_str:0000000000000584 .LASF3525
C:\Users\CYMR90~1\AppData\Local\Temp\ccx4ZXSQ.s:24097  .debug_str:00000000000048bc .LASF3526
C:\Users\CYMR90~1\AppData\Local\Temp\ccx4ZXSQ.s:26589  .debug_str:000000000000e72a .LASF3527
C:\Users\CYMR90~1\AppData\Local\Temp\ccx4ZXSQ.s:24671  .debug_str:0000000000006c4e .LASF3528
C:\Users\CYMR90~1\AppData\Local\Temp\ccx4ZXSQ.s:27993  .debug_str:00000000000140bb .LASF3529
C:\Users\CYMR90~1\AppData\Local\Temp\ccx4ZXSQ.s:27629  .debug_str:0000000000012968 .LASF3530
C:\Users\CYMR90~1\AppData\Local\Temp\ccx4ZXSQ.s:23715  .debug_str:000000000000304f .LASF3531
C:\Users\CYMR90~1\AppData\Local\Temp\ccx4ZXSQ.s:24295  .debug_str:0000000000005538 .LASF3532
C:\Users\CYMR90~1\AppData\Local\Temp\ccx4ZXSQ.s:23805  .debug_str:0000000000003656 .LASF3533
C:\Users\CYMR90~1\AppData\Local\Temp\ccx4ZXSQ.s:22971  .debug_str:000000000000029b .LASF3534
C:\Users\CYMR90~1\AppData\Local\Temp\ccx4ZXSQ.s:25297  .debug_str:000000000000951c .LASF3535
C:\Users\CYMR90~1\AppData\Local\Temp\ccx4ZXSQ.s:28775  .debug_str:0000000000017169 .LASF3536
C:\Users\CYMR90~1\AppData\Local\Temp\ccx4ZXSQ.s:23705  .debug_str:0000000000002fc2 .LASF3537
C:\Users\CYMR90~1\AppData\Local\Temp\ccx4ZXSQ.s:32906  .debug_str:00000000000275f3 .LASF3538
C:\Users\CYMR90~1\AppData\Local\Temp\ccx4ZXSQ.s:28639  .debug_str:00000000000168d9 .LASF3539
C:\Users\CYMR90~1\AppData\Local\Temp\ccx4ZXSQ.s:29304  .debug_str:0000000000019386 .LASF3540
C:\Users\CYMR90~1\AppData\Local\Temp\ccx4ZXSQ.s:32052  .debug_str:0000000000023e96 .LASF3541
C:\Users\CYMR90~1\AppData\Local\Temp\ccx4ZXSQ.s:31834  .debug_str:00000000000231e2 .LASF3542
C:\Users\CYMR90~1\AppData\Local\Temp\ccx4ZXSQ.s:27827  .debug_str:00000000000135f2 .LASF3543
C:\Users\CYMR90~1\AppData\Local\Temp\ccx4ZXSQ.s:30490  .debug_str:000000000001e031 .LASF3544
C:\Users\CYMR90~1\AppData\Local\Temp\ccx4ZXSQ.s:33806  .debug_str:000000000002add4 .LASF3545
C:\Users\CYMR90~1\AppData\Local\Temp\ccx4ZXSQ.s:28657  .debug_str:00000000000169dd .LASF3546
C:\Users\CYMR90~1\AppData\Local\Temp\ccx4ZXSQ.s:24771  .debug_str:00000000000072f1 .LASF3547
C:\Users\CYMR90~1\AppData\Local\Temp\ccx4ZXSQ.s:27345  .debug_str:0000000000011659 .LASF3548
C:\Users\CYMR90~1\AppData\Local\Temp\ccx4ZXSQ.s:30620  .debug_str:000000000001e895 .LASF3549
C:\Users\CYMR90~1\AppData\Local\Temp\ccx4ZXSQ.s:25479  .debug_str:000000000000a00f .LASF3550
C:\Users\CYMR90~1\AppData\Local\Temp\ccx4ZXSQ.s:25287  .debug_str:0000000000009489 .LASF3551
C:\Users\CYMR90~1\AppData\Local\Temp\ccx4ZXSQ.s:30464  .debug_str:000000000001de54 .LASF3552
C:\Users\CYMR90~1\AppData\Local\Temp\ccx4ZXSQ.s:25887  .debug_str:000000000000bb0f .LASF3553
C:\Users\CYMR90~1\AppData\Local\Temp\ccx4ZXSQ.s:28980  .debug_str:0000000000017f8c .LASF3554
C:\Users\CYMR90~1\AppData\Local\Temp\ccx4ZXSQ.s:32122  .debug_str:0000000000024300 .LASF3555
C:\Users\CYMR90~1\AppData\Local\Temp\ccx4ZXSQ.s:27761  .debug_str:00000000000131e6 .LASF3556
C:\Users\CYMR90~1\AppData\Local\Temp\ccx4ZXSQ.s:31346  .debug_str:0000000000021477 .LASF3557
C:\Users\CYMR90~1\AppData\Local\Temp\ccx4ZXSQ.s:25809  .debug_str:000000000000b625 .LASF3558
C:\Users\CYMR90~1\AppData\Local\Temp\ccx4ZXSQ.s:24501  .debug_str:00000000000061eb .LASF3559
C:\Users\CYMR90~1\AppData\Local\Temp\ccx4ZXSQ.s:28477  .debug_str:0000000000015e55 .LASF3560
C:\Users\CYMR90~1\AppData\Local\Temp\ccx4ZXSQ.s:27807  .debug_str:00000000000134c7 .LASF3561
C:\Users\CYMR90~1\AppData\Local\Temp\ccx4ZXSQ.s:34196  .debug_str:000000000002c5ae .LASF3562
C:\Users\CYMR90~1\AppData\Local\Temp\ccx4ZXSQ.s:29434  .debug_str:0000000000019c2d .LASF3563
C:\Users\CYMR90~1\AppData\Local\Temp\ccx4ZXSQ.s:25245  .debug_str:0000000000009253 .LASF3564
C:\Users\CYMR90~1\AppData\Local\Temp\ccx4ZXSQ.s:33580  .debug_str:000000000002a133 .LASF3565
C:\Users\CYMR90~1\AppData\Local\Temp\ccx4ZXSQ.s:32810  .debug_str:000000000002704e .LASF3566
C:\Users\CYMR90~1\AppData\Local\Temp\ccx4ZXSQ.s:29772  .debug_str:000000000001b22a .LASF3567
C:\Users\CYMR90~1\AppData\Local\Temp\ccx4ZXSQ.s:23277  .debug_str:00000000000014f4 .LASF3568
C:\Users\CYMR90~1\AppData\Local\Temp\ccx4ZXSQ.s:30806  .debug_str:000000000001f398 .LASF3569
C:\Users\CYMR90~1\AppData\Local\Temp\ccx4ZXSQ.s:31534  .debug_str:0000000000021fb8 .LASF3570
C:\Users\CYMR90~1\AppData\Local\Temp\ccx4ZXSQ.s:25279  .debug_str:00000000000093fd .LASF3571
C:\Users\CYMR90~1\AppData\Local\Temp\ccx4ZXSQ.s:32198  .debug_str:0000000000024753 .LASF3572
C:\Users\CYMR90~1\AppData\Local\Temp\ccx4ZXSQ.s:34264  .debug_str:000000000002ca23 .LASF3573
C:\Users\CYMR90~1\AppData\Local\Temp\ccx4ZXSQ.s:28555  .debug_str:00000000000162f1 .LASF3574
C:\Users\CYMR90~1\AppData\Local\Temp\ccx4ZXSQ.s:25767  .debug_str:000000000000b382 .LASF3575
C:\Users\CYMR90~1\AppData\Local\Temp\ccx4ZXSQ.s:31310  .debug_str:0000000000021237 .LASF3576
C:\Users\CYMR90~1\AppData\Local\Temp\ccx4ZXSQ.s:26713  .debug_str:000000000000eefe .LASF3577
C:\Users\CYMR90~1\AppData\Local\Temp\ccx4ZXSQ.s:28894  .debug_str:0000000000017a51 .LASF3578
C:\Users\CYMR90~1\AppData\Local\Temp\ccx4ZXSQ.s:29520  .debug_str:000000000001a1d0 .LASF3579
C:\Users\CYMR90~1\AppData\Local\Temp\ccx4ZXSQ.s:25713  .debug_str:000000000000af64 .LASF3580
C:\Users\CYMR90~1\AppData\Local\Temp\ccx4ZXSQ.s:28283  .debug_str:000000000001526c .LASF3581
C:\Users\CYMR90~1\AppData\Local\Temp\ccx4ZXSQ.s:30708  .debug_str:000000000001edb7 .LASF3582
C:\Users\CYMR90~1\AppData\Local\Temp\ccx4ZXSQ.s:26211  .debug_str:000000000000d06a .LASF3583
C:\Users\CYMR90~1\AppData\Local\Temp\ccx4ZXSQ.s:26953  .debug_str:000000000000fdc4 .LASF3584
C:\Users\CYMR90~1\AppData\Local\Temp\ccx4ZXSQ.s:30538  .debug_str:000000000001e31f .LASF3585
C:\Users\CYMR90~1\AppData\Local\Temp\ccx4ZXSQ.s:27839  .debug_str:00000000000136b5 .LASF3586
C:\Users\CYMR90~1\AppData\Local\Temp\ccx4ZXSQ.s:29442  .debug_str:0000000000019caa .LASF3587
C:\Users\CYMR90~1\AppData\Local\Temp\ccx4ZXSQ.s:33186  .debug_str:00000000000287e4 .LASF3588
C:\Users\CYMR90~1\AppData\Local\Temp\ccx4ZXSQ.s:32826  .debug_str:0000000000027178 .LASF3589
C:\Users\CYMR90~1\AppData\Local\Temp\ccx4ZXSQ.s:23683  .debug_str:0000000000002e75 .LASF3590
C:\Users\CYMR90~1\AppData\Local\Temp\ccx4ZXSQ.s:23459  .debug_str:000000000000209f .LASF3591
C:\Users\CYMR90~1\AppData\Local\Temp\ccx4ZXSQ.s:33138  .debug_str:000000000002845f .LASF3592
C:\Users\CYMR90~1\AppData\Local\Temp\ccx4ZXSQ.s:25105  .debug_str:0000000000008975 .LASF3593
C:\Users\CYMR90~1\AppData\Local\Temp\ccx4ZXSQ.s:33888  .debug_str:000000000002b2c8 .LASF3594
C:\Users\CYMR90~1\AppData\Local\Temp\ccx4ZXSQ.s:24951  .debug_str:0000000000007ea7 .LASF3595
C:\Users\CYMR90~1\AppData\Local\Temp\ccx4ZXSQ.s:23033  .debug_str:0000000000000663 .LASF3596
C:\Users\CYMR90~1\AppData\Local\Temp\ccx4ZXSQ.s:32372  .debug_str:00000000000252dd .LASF3597
C:\Users\CYMR90~1\AppData\Local\Temp\ccx4ZXSQ.s:23399  .debug_str:0000000000001d14 .LASF3598
C:\Users\CYMR90~1\AppData\Local\Temp\ccx4ZXSQ.s:26885  .debug_str:000000000000f955 .LASF3599
C:\Users\CYMR90~1\AppData\Local\Temp\ccx4ZXSQ.s:31980  .debug_str:0000000000023a85 .LASF3600
C:\Users\CYMR90~1\AppData\Local\Temp\ccx4ZXSQ.s:26053  .debug_str:000000000000c632 .LASF3601
C:\Users\CYMR90~1\AppData\Local\Temp\ccx4ZXSQ.s:26059  .debug_str:000000000000c68d .LASF3602
C:\Users\CYMR90~1\AppData\Local\Temp\ccx4ZXSQ.s:24521  .debug_str:000000000000632e .LASF3603
C:\Users\CYMR90~1\AppData\Local\Temp\ccx4ZXSQ.s:24155  .debug_str:0000000000004ce7 .LASF3604
C:\Users\CYMR90~1\AppData\Local\Temp\ccx4ZXSQ.s:32736  .debug_str:0000000000026bfc .LASF3605
C:\Users\CYMR90~1\AppData\Local\Temp\ccx4ZXSQ.s:26473  .debug_str:000000000000e03d .LASF3606
C:\Users\CYMR90~1\AppData\Local\Temp\ccx4ZXSQ.s:27913  .debug_str:0000000000013be7 .LASF3607
C:\Users\CYMR90~1\AppData\Local\Temp\ccx4ZXSQ.s:25165  .debug_str:0000000000008cef .LASF3608
C:\Users\CYMR90~1\AppData\Local\Temp\ccx4ZXSQ.s:28485  .debug_str:0000000000015ecb .LASF3609
C:\Users\CYMR90~1\AppData\Local\Temp\ccx4ZXSQ.s:32514  .debug_str:0000000000025cf9 .LASF3610
C:\Users\CYMR90~1\AppData\Local\Temp\ccx4ZXSQ.s:25227  .debug_str:0000000000009132 .LASF3611
C:\Users\CYMR90~1\AppData\Local\Temp\ccx4ZXSQ.s:26827  .debug_str:000000000000f5b5 .LASF3612
C:\Users\CYMR90~1\AppData\Local\Temp\ccx4ZXSQ.s:23181  .debug_str:0000000000000f06 .LASF3613
C:\Users\CYMR90~1\AppData\Local\Temp\ccx4ZXSQ.s:30970  .debug_str:000000000001fd8a .LASF3614
C:\Users\CYMR90~1\AppData\Local\Temp\ccx4ZXSQ.s:25935  .debug_str:000000000000be2f .LASF3615
C:\Users\CYMR90~1\AppData\Local\Temp\ccx4ZXSQ.s:31076  .debug_str:00000000000203a4 .LASF3616
C:\Users\CYMR90~1\AppData\Local\Temp\ccx4ZXSQ.s:30008  .debug_str:000000000001c088 .LASF3617
C:\Users\CYMR90~1\AppData\Local\Temp\ccx4ZXSQ.s:27723  .debug_str:0000000000012f5f .LASF3618
C:\Users\CYMR90~1\AppData\Local\Temp\ccx4ZXSQ.s:23551  .debug_str:00000000000025e3 .LASF3619
C:\Users\CYMR90~1\AppData\Local\Temp\ccx4ZXSQ.s:30436  .debug_str:000000000001dc89 .LASF3620
C:\Users\CYMR90~1\AppData\Local\Temp\ccx4ZXSQ.s:31854  .debug_str:00000000000232f2 .LASF3621
C:\Users\CYMR90~1\AppData\Local\Temp\ccx4ZXSQ.s:33872  .debug_str:000000000002b1e3 .LASF3622
C:\Users\CYMR90~1\AppData\Local\Temp\ccx4ZXSQ.s:29670  .debug_str:000000000001abdb .LASF3623
C:\Users\CYMR90~1\AppData\Local\Temp\ccx4ZXSQ.s:23069  .debug_str:0000000000000830 .LASF3624
C:\Users\CYMR90~1\AppData\Local\Temp\ccx4ZXSQ.s:33538  .debug_str:0000000000029e70 .LASF3625
C:\Users\CYMR90~1\AppData\Local\Temp\ccx4ZXSQ.s:28737  .debug_str:0000000000016ee0 .LASF3626
C:\Users\CYMR90~1\AppData\Local\Temp\ccx4ZXSQ.s:29402  .debug_str:0000000000019a17 .LASF3627
C:\Users\CYMR90~1\AppData\Local\Temp\ccx4ZXSQ.s:24331  .debug_str:0000000000005778 .LASF3628
C:\Users\CYMR90~1\AppData\Local\Temp\ccx4ZXSQ.s:25095  .debug_str:00000000000088e7 .LASF3629
C:\Users\CYMR90~1\AppData\Local\Temp\ccx4ZXSQ.s:27065  .debug_str:0000000000010470 .LASF3630
C:\Users\CYMR90~1\AppData\Local\Temp\ccx4ZXSQ.s:32598  .debug_str:0000000000026332 .LASF3631
C:\Users\CYMR90~1\AppData\Local\Temp\ccx4ZXSQ.s:31656  .debug_str:0000000000022770 .LASF3632
C:\Users\CYMR90~1\AppData\Local\Temp\ccx4ZXSQ.s:26429  .debug_str:000000000000ddc5 .LASF3633
C:\Users\CYMR90~1\AppData\Local\Temp\ccx4ZXSQ.s:34036  .debug_str:000000000002bb48 .LASF3634
C:\Users\CYMR90~1\AppData\Local\Temp\ccx4ZXSQ.s:25805  .debug_str:000000000000b5ea .LASF3635
C:\Users\CYMR90~1\AppData\Local\Temp\ccx4ZXSQ.s:31262  .debug_str:0000000000020f70 .LASF3636
C:\Users\CYMR90~1\AppData\Local\Temp\ccx4ZXSQ.s:28595  .debug_str:00000000000165b5 .LASF3637
C:\Users\CYMR90~1\AppData\Local\Temp\ccx4ZXSQ.s:23167  .debug_str:0000000000000e25 .LASF3638
C:\Users\CYMR90~1\AppData\Local\Temp\ccx4ZXSQ.s:34008  .debug_str:000000000002b979 .LASF3639
C:\Users\CYMR90~1\AppData\Local\Temp\ccx4ZXSQ.s:31458  .debug_str:0000000000021a9f .LASF3640
C:\Users\CYMR90~1\AppData\Local\Temp\ccx4ZXSQ.s:31802  .debug_str:0000000000022fb4 .LASF3641
C:\Users\CYMR90~1\AppData\Local\Temp\ccx4ZXSQ.s:28725  .debug_str:0000000000016e33 .LASF3642
C:\Users\CYMR90~1\AppData\Local\Temp\ccx4ZXSQ.s:25151  .debug_str:0000000000008c21 .LASF3643
C:\Users\CYMR90~1\AppData\Local\Temp\ccx4ZXSQ.s:32556  .debug_str:0000000000026003 .LASF3644
C:\Users\CYMR90~1\AppData\Local\Temp\ccx4ZXSQ.s:29728  .debug_str:000000000001afa1 .LASF3645
C:\Users\CYMR90~1\AppData\Local\Temp\ccx4ZXSQ.s:23177  .debug_str:0000000000000ed6 .LASF3646
C:\Users\CYMR90~1\AppData\Local\Temp\ccx4ZXSQ.s:31776  .debug_str:0000000000022e24 .LASF3647
C:\Users\CYMR90~1\AppData\Local\Temp\ccx4ZXSQ.s:33518  .debug_str:0000000000029d3d .LASF3648
C:\Users\CYMR90~1\AppData\Local\Temp\ccx4ZXSQ.s:23639  .debug_str:0000000000002b93 .LASF3649
C:\Users\CYMR90~1\AppData\Local\Temp\ccx4ZXSQ.s:26759  .debug_str:000000000000f202 .LASF3650
C:\Users\CYMR90~1\AppData\Local\Temp\ccx4ZXSQ.s:24937  .debug_str:0000000000007ded .LASF3651
C:\Users\CYMR90~1\AppData\Local\Temp\ccx4ZXSQ.s:23877  .debug_str:0000000000003b07 .LASF3652
C:\Users\CYMR90~1\AppData\Local\Temp\ccx4ZXSQ.s:28035  .debug_str:0000000000014389 .LASF3653
C:\Users\CYMR90~1\AppData\Local\Temp\ccx4ZXSQ.s:32464  .debug_str:00000000000258d6 .LASF3654
C:\Users\CYMR90~1\AppData\Local\Temp\ccx4ZXSQ.s:27019  .debug_str:0000000000010164 .LASF3655
C:\Users\CYMR90~1\AppData\Local\Temp\ccx4ZXSQ.s:28041  .debug_str:00000000000143cd .LASF3656
C:\Users\CYMR90~1\AppData\Local\Temp\ccx4ZXSQ.s:24449  .debug_str:0000000000005e8d .LASF3657
C:\Users\CYMR90~1\AppData\Local\Temp\ccx4ZXSQ.s:24035  .debug_str:000000000000449a .LASF3658
C:\Users\CYMR90~1\AppData\Local\Temp\ccx4ZXSQ.s:32260  .debug_str:0000000000024bc9 .LASF3659
C:\Users\CYMR90~1\AppData\Local\Temp\ccx4ZXSQ.s:23723  .debug_str:00000000000030d9 .LASF3660
C:\Users\CYMR90~1\AppData\Local\Temp\ccx4ZXSQ.s:32056  .debug_str:0000000000023edb .LASF3661
C:\Users\CYMR90~1\AppData\Local\Temp\ccx4ZXSQ.s:30802  .debug_str:000000000001f358 .LASF3662
C:\Users\CYMR90~1\AppData\Local\Temp\ccx4ZXSQ.s:23045  .debug_str:00000000000006e1 .LASF3663
C:\Users\CYMR90~1\AppData\Local\Temp\ccx4ZXSQ.s:33996  .debug_str:000000000002b8d3 .LASF3664
C:\Users\CYMR90~1\AppData\Local\Temp\ccx4ZXSQ.s:30288  .debug_str:000000000001d26f .LASF3665
C:\Users\CYMR90~1\AppData\Local\Temp\ccx4ZXSQ.s:23329  .debug_str:00000000000017e9 .LASF3666
C:\Users\CYMR90~1\AppData\Local\Temp\ccx4ZXSQ.s:30670  .debug_str:000000000001eb55 .LASF3667
C:\Users\CYMR90~1\AppData\Local\Temp\ccx4ZXSQ.s:33026  .debug_str:0000000000027e04 .LASF3668
C:\Users\CYMR90~1\AppData\Local\Temp\ccx4ZXSQ.s:24897  .debug_str:0000000000007b32 .LASF3669
C:\Users\CYMR90~1\AppData\Local\Temp\ccx4ZXSQ.s:34348  .debug_str:000000000002cfa9 .LASF3670
C:\Users\CYMR90~1\AppData\Local\Temp\ccx4ZXSQ.s:33690  .debug_str:000000000002a749 .LASF3671
C:\Users\CYMR90~1\AppData\Local\Temp\ccx4ZXSQ.s:24957  .debug_str:0000000000007f01 .LASF3672
C:\Users\CYMR90~1\AppData\Local\Temp\ccx4ZXSQ.s:24015  .debug_str:0000000000004392 .LASF3673
C:\Users\CYMR90~1\AppData\Local\Temp\ccx4ZXSQ.s:32880  .debug_str:000000000002747b .LASF3674
C:\Users\CYMR90~1\AppData\Local\Temp\ccx4ZXSQ.s:30198  .debug_str:000000000001cc19 .LASF3675
C:\Users\CYMR90~1\AppData\Local\Temp\ccx4ZXSQ.s:32852  .debug_str:00000000000272d4 .LASF3676
C:\Users\CYMR90~1\AppData\Local\Temp\ccx4ZXSQ.s:24603  .debug_str:00000000000067fc .LASF3677
C:\Users\CYMR90~1\AppData\Local\Temp\ccx4ZXSQ.s:26951  .debug_str:000000000000fdab .LASF3678
C:\Users\CYMR90~1\AppData\Local\Temp\ccx4ZXSQ.s:30772  .debug_str:000000000001f19f .LASF3679
C:\Users\CYMR90~1\AppData\Local\Temp\ccx4ZXSQ.s:23169  .debug_str:0000000000000e3b .LASF3680
C:\Users\CYMR90~1\AppData\Local\Temp\ccx4ZXSQ.s:32000  .debug_str:0000000000023b79 .LASF3681
C:\Users\CYMR90~1\AppData\Local\Temp\ccx4ZXSQ.s:29334  .debug_str:0000000000019595 .LASF3682
C:\Users\CYMR90~1\AppData\Local\Temp\ccx4ZXSQ.s:32266  .debug_str:0000000000024c2b .LASF3683
C:\Users\CYMR90~1\AppData\Local\Temp\ccx4ZXSQ.s:23733  .debug_str:0000000000003170 .LASF3684
C:\Users\CYMR90~1\AppData\Local\Temp\ccx4ZXSQ.s:32674  .debug_str:00000000000267f2 .LASF3685
C:\Users\CYMR90~1\AppData\Local\Temp\ccx4ZXSQ.s:28491  .debug_str:0000000000015f1b .LASF3686
C:\Users\CYMR90~1\AppData\Local\Temp\ccx4ZXSQ.s:27165  .debug_str:0000000000010ad2 .LASF3687
C:\Users\CYMR90~1\AppData\Local\Temp\ccx4ZXSQ.s:24403  .debug_str:0000000000005bd2 .LASF3688
C:\Users\CYMR90~1\AppData\Local\Temp\ccx4ZXSQ.s:33282  .debug_str:0000000000028e97 .LASF3689
C:\Users\CYMR90~1\AppData\Local\Temp\ccx4ZXSQ.s:32950  .debug_str:000000000002788a .LASF3690
C:\Users\CYMR90~1\AppData\Local\Temp\ccx4ZXSQ.s:25639  .debug_str:000000000000a9cf .LASF3691
C:\Users\CYMR90~1\AppData\Local\Temp\ccx4ZXSQ.s:24705  .debug_str:0000000000006e9b .LASF3692
C:\Users\CYMR90~1\AppData\Local\Temp\ccx4ZXSQ.s:24169  .debug_str:0000000000004dec .LASF3693
C:\Users\CYMR90~1\AppData\Local\Temp\ccx4ZXSQ.s:27405  .debug_str:0000000000011a13 .LASF3694
C:\Users\CYMR90~1\AppData\Local\Temp\ccx4ZXSQ.s:34140  .debug_str:000000000002c235 .LASF3695
C:\Users\CYMR90~1\AppData\Local\Temp\ccx4ZXSQ.s:27857  .debug_str:00000000000137e3 .LASF3696
C:\Users\CYMR90~1\AppData\Local\Temp\ccx4ZXSQ.s:33752  .debug_str:000000000002aac3 .LASF3697
C:\Users\CYMR90~1\AppData\Local\Temp\ccx4ZXSQ.s:32822  .debug_str:0000000000027115 .LASF3698
C:\Users\CYMR90~1\AppData\Local\Temp\ccx4ZXSQ.s:33048  .debug_str:0000000000027f4f .LASF3699
C:\Users\CYMR90~1\AppData\Local\Temp\ccx4ZXSQ.s:28149  .debug_str:0000000000014a1a .LASF3700
C:\Users\CYMR90~1\AppData\Local\Temp\ccx4ZXSQ.s:23443  .debug_str:0000000000001fbb .LASF3701
C:\Users\CYMR90~1\AppData\Local\Temp\ccx4ZXSQ.s:29552  .debug_str:000000000001a3a7 .LASF3702
C:\Users\CYMR90~1\AppData\Local\Temp\ccx4ZXSQ.s:25013  .debug_str:00000000000083cb .LASF3703
C:\Users\CYMR90~1\AppData\Local\Temp\ccx4ZXSQ.s:29556  .debug_str:000000000001a3f1 .LASF3704
C:\Users\CYMR90~1\AppData\Local\Temp\ccx4ZXSQ.s:29862  .debug_str:000000000001b815 .LASF3705
C:\Users\CYMR90~1\AppData\Local\Temp\ccx4ZXSQ.s:31846  .debug_str:000000000002328a .LASF3706
C:\Users\CYMR90~1\AppData\Local\Temp\ccx4ZXSQ.s:32774  .debug_str:0000000000026e12 .LASF3707
C:\Users\CYMR90~1\AppData\Local\Temp\ccx4ZXSQ.s:23435  .debug_str:0000000000001f41 .LASF3708
C:\Users\CYMR90~1\AppData\Local\Temp\ccx4ZXSQ.s:28671  .debug_str:0000000000016a94 .LASF3709
C:\Users\CYMR90~1\AppData\Local\Temp\ccx4ZXSQ.s:23747  .debug_str:0000000000003276 .LASF3710
C:\Users\CYMR90~1\AppData\Local\Temp\ccx4ZXSQ.s:31090  .debug_str:000000000002048b .LASF3711
C:\Users\CYMR90~1\AppData\Local\Temp\ccx4ZXSQ.s:32436  .debug_str:0000000000025729 .LASF3712
C:\Users\CYMR90~1\AppData\Local\Temp\ccx4ZXSQ.s:23233  .debug_str:0000000000001272 .LASF3713
C:\Users\CYMR90~1\AppData\Local\Temp\ccx4ZXSQ.s:32494  .debug_str:0000000000025b18 .LASF3714
C:\Users\CYMR90~1\AppData\Local\Temp\ccx4ZXSQ.s:25129  .debug_str:0000000000008ab8 .LASF3715
C:\Users\CYMR90~1\AppData\Local\Temp\ccx4ZXSQ.s:33736  .debug_str:000000000002a9d0 .LASF3716
C:\Users\CYMR90~1\AppData\Local\Temp\ccx4ZXSQ.s:30424  .debug_str:000000000001dbcc .LASF3717
C:\Users\CYMR90~1\AppData\Local\Temp\ccx4ZXSQ.s:31404  .debug_str:00000000000217bd .LASF3718
C:\Users\CYMR90~1\AppData\Local\Temp\ccx4ZXSQ.s:29806  .debug_str:000000000001b428 .LASF3719
C:\Users\CYMR90~1\AppData\Local\Temp\ccx4ZXSQ.s:24421  .debug_str:0000000000005d06 .LASF3720
C:\Users\CYMR90~1\AppData\Local\Temp\ccx4ZXSQ.s:33380  .debug_str:0000000000029530 .LASF3721
C:\Users\CYMR90~1\AppData\Local\Temp\ccx4ZXSQ.s:32128  .debug_str:000000000002438b .LASF3722
C:\Users\CYMR90~1\AppData\Local\Temp\ccx4ZXSQ.s:28373  .debug_str:000000000001584c .LASF3723
C:\Users\CYMR90~1\AppData\Local\Temp\ccx4ZXSQ.s:26661  .debug_str:000000000000ebf2 .LASF3724
C:\Users\CYMR90~1\AppData\Local\Temp\ccx4ZXSQ.s:23711  .debug_str:0000000000003011 .LASF3725
C:\Users\CYMR90~1\AppData\Local\Temp\ccx4ZXSQ.s:22955  .debug_str:00000000000001c8 .LASF3726
C:\Users\CYMR90~1\AppData\Local\Temp\ccx4ZXSQ.s:29500  .debug_str:000000000001a06b .LASF3727
C:\Users\CYMR90~1\AppData\Local\Temp\ccx4ZXSQ.s:27249  .debug_str:000000000001104b .LASF3728
C:\Users\CYMR90~1\AppData\Local\Temp\ccx4ZXSQ.s:24031  .debug_str:0000000000004450 .LASF3729
C:\Users\CYMR90~1\AppData\Local\Temp\ccx4ZXSQ.s:24401  .debug_str:0000000000005bba .LASF3730
C:\Users\CYMR90~1\AppData\Local\Temp\ccx4ZXSQ.s:32834  .debug_str:00000000000271ea .LASF3731
C:\Users\CYMR90~1\AppData\Local\Temp\ccx4ZXSQ.s:22991  .debug_str:00000000000003c6 .LASF3732
C:\Users\CYMR90~1\AppData\Local\Temp\ccx4ZXSQ.s:33374  .debug_str:00000000000294c1 .LASF3733
C:\Users\CYMR90~1\AppData\Local\Temp\ccx4ZXSQ.s:33500  .debug_str:0000000000029c4e .LASF3734
C:\Users\CYMR90~1\AppData\Local\Temp\ccx4ZXSQ.s:24065  .debug_str:000000000000469f .LASF3735
C:\Users\CYMR90~1\AppData\Local\Temp\ccx4ZXSQ.s:25759  .debug_str:000000000000b252 .LASF3736
C:\Users\CYMR90~1\AppData\Local\Temp\ccx4ZXSQ.s:23011  .debug_str:0000000000000523 .LASF3737
C:\Users\CYMR90~1\AppData\Local\Temp\ccx4ZXSQ.s:30758  .debug_str:000000000001f0b7 .LASF3738
C:\Users\CYMR90~1\AppData\Local\Temp\ccx4ZXSQ.s:28856  .debug_str:000000000001782c .LASF3739
C:\Users\CYMR90~1\AppData\Local\Temp\ccx4ZXSQ.s:23567  .debug_str:00000000000026f6 .LASF3740
C:\Users\CYMR90~1\AppData\Local\Temp\ccx4ZXSQ.s:32948  .debug_str:0000000000027874 .LASF3741
C:\Users\CYMR90~1\AppData\Local\Temp\ccx4ZXSQ.s:34302  .debug_str:000000000002cccb .LASF3742
C:\Users\CYMR90~1\AppData\Local\Temp\ccx4ZXSQ.s:30842  .debug_str:000000000001f56f .LASF3743
C:\Users\CYMR90~1\AppData\Local\Temp\ccx4ZXSQ.s:26125  .debug_str:000000000000ca4c .LASF3744
C:\Users\CYMR90~1\AppData\Local\Temp\ccx4ZXSQ.s:31852  .debug_str:00000000000232d3 .LASF3745
C:\Users\CYMR90~1\AppData\Local\Temp\ccx4ZXSQ.s:26023  .debug_str:000000000000c437 .LASF3746
C:\Users\CYMR90~1\AppData\Local\Temp\ccx4ZXSQ.s:31844  .debug_str:000000000002326c .LASF3747
C:\Users\CYMR90~1\AppData\Local\Temp\ccx4ZXSQ.s:28301  .debug_str:000000000001538a .LASF3748
C:\Users\CYMR90~1\AppData\Local\Temp\ccx4ZXSQ.s:24465  .debug_str:0000000000005f8f .LASF3749
C:\Users\CYMR90~1\AppData\Local\Temp\ccx4ZXSQ.s:27365  .debug_str:0000000000011782 .LASF3750
C:\Users\CYMR90~1\AppData\Local\Temp\ccx4ZXSQ.s:26525  .debug_str:000000000000e322 .LASF3751
C:\Users\CYMR90~1\AppData\Local\Temp\ccx4ZXSQ.s:24119  .debug_str:0000000000004ad2 .LASF3752
C:\Users\CYMR90~1\AppData\Local\Temp\ccx4ZXSQ.s:25423  .debug_str:0000000000009cbd .LASF3753
C:\Users\CYMR90~1\AppData\Local\Temp\ccx4ZXSQ.s:28031  .debug_str:0000000000014329 .LASF3754
C:\Users\CYMR90~1\AppData\Local\Temp\ccx4ZXSQ.s:23933  .debug_str:0000000000003e49 .LASF3755
C:\Users\CYMR90~1\AppData\Local\Temp\ccx4ZXSQ.s:32706  .debug_str:0000000000026a01 .LASF3756
C:\Users\CYMR90~1\AppData\Local\Temp\ccx4ZXSQ.s:22929  .debug_str:0000000000000000 .LASF3757
C:\Users\CYMR90~1\AppData\Local\Temp\ccx4ZXSQ.s:27347  .debug_str:000000000001167d .LASF3758
C:\Users\CYMR90~1\AppData\Local\Temp\ccx4ZXSQ.s:25797  .debug_str:000000000000b56d .LASF3759
C:\Users\CYMR90~1\AppData\Local\Temp\ccx4ZXSQ.s:28799  .debug_str:0000000000017345 .LASF3760
C:\Users\CYMR90~1\AppData\Local\Temp\ccx4ZXSQ.s:23353  .debug_str:0000000000001a1e .LASF3761
C:\Users\CYMR90~1\AppData\Local\Temp\ccx4ZXSQ.s:24679  .debug_str:0000000000006cc2 .LASF3762
C:\Users\CYMR90~1\AppData\Local\Temp\ccx4ZXSQ.s:26625  .debug_str:000000000000e941 .LASF3763
C:\Users\CYMR90~1\AppData\Local\Temp\ccx4ZXSQ.s:30890  .debug_str:000000000001f866 .LASF3764
C:\Users\CYMR90~1\AppData\Local\Temp\ccx4ZXSQ.s:28299  .debug_str:0000000000015365 .LASF3765
C:\Users\CYMR90~1\AppData\Local\Temp\ccx4ZXSQ.s:33572  .debug_str:000000000002a09c .LASF3766
C:\Users\CYMR90~1\AppData\Local\Temp\ccx4ZXSQ.s:29360  .debug_str:00000000000196b7 .LASF3767
C:\Users\CYMR90~1\AppData\Local\Temp\ccx4ZXSQ.s:30710  .debug_str:000000000001edce .LASF3768
C:\Users\CYMR90~1\AppData\Local\Temp\ccx4ZXSQ.s:23561  .debug_str:0000000000002660 .LASF3769
C:\Users\CYMR90~1\AppData\Local\Temp\ccx4ZXSQ.s:30872  .debug_str:000000000001f743 .LASF3770
C:\Users\CYMR90~1\AppData\Local\Temp\ccx4ZXSQ.s:28173  .debug_str:0000000000014b58 .LASF3771
C:\Users\CYMR90~1\AppData\Local\Temp\ccx4ZXSQ.s:25777  .debug_str:000000000000b409 .LASF3772
C:\Users\CYMR90~1\AppData\Local\Temp\ccx4ZXSQ.s:29776  .debug_str:000000000001b25a .LASF3773
C:\Users\CYMR90~1\AppData\Local\Temp\ccx4ZXSQ.s:25181  .debug_str:0000000000008de6 .LASF3774
C:\Users\CYMR90~1\AppData\Local\Temp\ccx4ZXSQ.s:28461  .debug_str:0000000000015d5b .LASF3775
C:\Users\CYMR90~1\AppData\Local\Temp\ccx4ZXSQ.s:29424  .debug_str:0000000000019b48 .LASF3776
C:\Users\CYMR90~1\AppData\Local\Temp\ccx4ZXSQ.s:26015  .debug_str:000000000000c3af .LASF3777
C:\Users\CYMR90~1\AppData\Local\Temp\ccx4ZXSQ.s:29478  .debug_str:0000000000019eb1 .LASF3778
C:\Users\CYMR90~1\AppData\Local\Temp\ccx4ZXSQ.s:24833  .debug_str:0000000000007716 .LASF3779
C:\Users\CYMR90~1\AppData\Local\Temp\ccx4ZXSQ.s:29502  .debug_str:000000000001a0a6 .LASF3780
C:\Users\CYMR90~1\AppData\Local\Temp\ccx4ZXSQ.s:24011  .debug_str:0000000000004349 .LASF3781
C:\Users\CYMR90~1\AppData\Local\Temp\ccx4ZXSQ.s:25655  .debug_str:000000000000aabb .LASF3782
C:\Users\CYMR90~1\AppData\Local\Temp\ccx4ZXSQ.s:26387  .debug_str:000000000000db76 .LASF3783
C:\Users\CYMR90~1\AppData\Local\Temp\ccx4ZXSQ.s:31298  .debug_str:000000000002116e .LASF3784
C:\Users\CYMR90~1\AppData\Local\Temp\ccx4ZXSQ.s:30884  .debug_str:000000000001f7fd .LASF3785
C:\Users\CYMR90~1\AppData\Local\Temp\ccx4ZXSQ.s:26521  .debug_str:000000000000e2dc .LASF3786
C:\Users\CYMR90~1\AppData\Local\Temp\ccx4ZXSQ.s:29964  .debug_str:000000000001bdfd .LASF3787
C:\Users\CYMR90~1\AppData\Local\Temp\ccx4ZXSQ.s:33802  .debug_str:000000000002ad81 .LASF3788
C:\Users\CYMR90~1\AppData\Local\Temp\ccx4ZXSQ.s:26141  .debug_str:000000000000cb6d .LASF3789
C:\Users\CYMR90~1\AppData\Local\Temp\ccx4ZXSQ.s:27999  .debug_str:0000000000014124 .LASF3790
C:\Users\CYMR90~1\AppData\Local\Temp\ccx4ZXSQ.s:31744  .debug_str:0000000000022c72 .LASF3791
C:\Users\CYMR90~1\AppData\Local\Temp\ccx4ZXSQ.s:33916  .debug_str:000000000002b424 .LASF3792
C:\Users\CYMR90~1\AppData\Local\Temp\ccx4ZXSQ.s:27035  .debug_str:0000000000010263 .LASF3793
C:\Users\CYMR90~1\AppData\Local\Temp\ccx4ZXSQ.s:31806  .debug_str:0000000000022ff2 .LASF3794
C:\Users\CYMR90~1\AppData\Local\Temp\ccx4ZXSQ.s:34156  .debug_str:000000000002c31c .LASF3795
C:\Users\CYMR90~1\AppData\Local\Temp\ccx4ZXSQ.s:32302  .debug_str:0000000000024e66 .LASF3796
C:\Users\CYMR90~1\AppData\Local\Temp\ccx4ZXSQ.s:28741  .debug_str:0000000000016f1d .LASF3797
C:\Users\CYMR90~1\AppData\Local\Temp\ccx4ZXSQ.s:30256  .debug_str:000000000001d02e .LASF3798
C:\Users\CYMR90~1\AppData\Local\Temp\ccx4ZXSQ.s:29530  .debug_str:000000000001a258 .LASF3799
C:\Users\CYMR90~1\AppData\Local\Temp\ccx4ZXSQ.s:27181  .debug_str:0000000000010bc3 .LASF3800
C:\Users\CYMR90~1\AppData\Local\Temp\ccx4ZXSQ.s:27639  .debug_str:0000000000012a04 .LASF3801
C:\Users\CYMR90~1\AppData\Local\Temp\ccx4ZXSQ.s:23809  .debug_str:000000000000369e .LASF3802
C:\Users\CYMR90~1\AppData\Local\Temp\ccx4ZXSQ.s:26265  .debug_str:000000000000d350 .LASF3803
C:\Users\CYMR90~1\AppData\Local\Temp\ccx4ZXSQ.s:27689  .debug_str:0000000000012d2e .LASF3804
C:\Users\CYMR90~1\AppData\Local\Temp\ccx4ZXSQ.s:25541  .debug_str:000000000000a41d .LASF3805
C:\Users\CYMR90~1\AppData\Local\Temp\ccx4ZXSQ.s:31378  .debug_str:0000000000021651 .LASF3806
C:\Users\CYMR90~1\AppData\Local\Temp\ccx4ZXSQ.s:29634  .debug_str:000000000001a84d .LASF3807
C:\Users\CYMR90~1\AppData\Local\Temp\ccx4ZXSQ.s:23163  .debug_str:0000000000000deb .LASF3808
C:\Users\CYMR90~1\AppData\Local\Temp\ccx4ZXSQ.s:33172  .debug_str:00000000000286bd .LASF3809
C:\Users\CYMR90~1\AppData\Local\Temp\ccx4ZXSQ.s:34416  .debug_str:000000000002d424 .LASF3810
C:\Users\CYMR90~1\AppData\Local\Temp\ccx4ZXSQ.s:26415  .debug_str:000000000000dcf9 .LASF3811
C:\Users\CYMR90~1\AppData\Local\Temp\ccx4ZXSQ.s:29144  .debug_str:0000000000018981 .LASF3812
C:\Users\CYMR90~1\AppData\Local\Temp\ccx4ZXSQ.s:30048  .debug_str:000000000001c300 .LASF3813
C:\Users\CYMR90~1\AppData\Local\Temp\ccx4ZXSQ.s:24047  .debug_str:0000000000004572 .LASF3814
C:\Users\CYMR90~1\AppData\Local\Temp\ccx4ZXSQ.s:28609  .debug_str:00000000000166a6 .LASF3815
C:\Users\CYMR90~1\AppData\Local\Temp\ccx4ZXSQ.s:33878  .debug_str:000000000002b23b .LASF3816
C:\Users\CYMR90~1\AppData\Local\Temp\ccx4ZXSQ.s:31366  .debug_str:0000000000021581 .LASF3817
C:\Users\CYMR90~1\AppData\Local\Temp\ccx4ZXSQ.s:33880  .debug_str:000000000002b259 .LASF3818
C:\Users\CYMR90~1\AppData\Local\Temp\ccx4ZXSQ.s:30186  .debug_str:000000000001cb6e .LASF3819
C:\Users\CYMR90~1\AppData\Local\Temp\ccx4ZXSQ.s:23263  .debug_str:00000000000013f1 .LASF3820
C:\Users\CYMR90~1\AppData\Local\Temp\ccx4ZXSQ.s:32574  .debug_str:0000000000026104 .LASF3821
C:\Users\CYMR90~1\AppData\Local\Temp\ccx4ZXSQ.s:30082  .debug_str:000000000001c54e .LASF3822
C:\Users\CYMR90~1\AppData\Local\Temp\ccx4ZXSQ.s:24459  .debug_str:0000000000005f27 .LASF3823
C:\Users\CYMR90~1\AppData\Local\Temp\ccx4ZXSQ.s:26649  .debug_str:000000000000eacb .LASF3824
C:\Users\CYMR90~1\AppData\Local\Temp\ccx4ZXSQ.s:31238  .debug_str:0000000000020d6e .LASF3825
C:\Users\CYMR90~1\AppData\Local\Temp\ccx4ZXSQ.s:25739  .debug_str:000000000000b0d7 .LASF3826
C:\Users\CYMR90~1\AppData\Local\Temp\ccx4ZXSQ.s:32960  .debug_str:000000000002796b .LASF3827
C:\Users\CYMR90~1\AppData\Local\Temp\ccx4ZXSQ.s:28355  .debug_str:000000000001574d .LASF3828
C:\Users\CYMR90~1\AppData\Local\Temp\ccx4ZXSQ.s:33950  .debug_str:000000000002b62e .LASF3829
C:\Users\CYMR90~1\AppData\Local\Temp\ccx4ZXSQ.s:27169  .debug_str:0000000000010b19 .LASF3830
C:\Users\CYMR90~1\AppData\Local\Temp\ccx4ZXSQ.s:31100  .debug_str:0000000000020517 .LASF3831
C:\Users\CYMR90~1\AppData\Local\Temp\ccx4ZXSQ.s:26749  .debug_str:000000000000f15c .LASF3832
C:\Users\CYMR90~1\AppData\Local\Temp\ccx4ZXSQ.s:24371  .debug_str:00000000000059e9 .LASF3833
C:\Users\CYMR90~1\AppData\Local\Temp\ccx4ZXSQ.s:26217  .debug_str:000000000000d0c2 .LASF3834
C:\Users\CYMR90~1\AppData\Local\Temp\ccx4ZXSQ.s:31416  .debug_str:0000000000021870 .LASF3835
C:\Users\CYMR90~1\AppData\Local\Temp\ccx4ZXSQ.s:34236  .debug_str:000000000002c8ba .LASF3836
C:\Users\CYMR90~1\AppData\Local\Temp\ccx4ZXSQ.s:26943  .debug_str:000000000000fd36 .LASF3837
C:\Users\CYMR90~1\AppData\Local\Temp\ccx4ZXSQ.s:25307  .debug_str:00000000000095ab .LASF3838
C:\Users\CYMR90~1\AppData\Local\Temp\ccx4ZXSQ.s:33914  .debug_str:000000000002b402 .LASF3839
C:\Users\CYMR90~1\AppData\Local\Temp\ccx4ZXSQ.s:32064  .debug_str:0000000000023f62 .LASF3840
C:\Users\CYMR90~1\AppData\Local\Temp\ccx4ZXSQ.s:33372  .debug_str:000000000002949d .LASF3841
C:\Users\CYMR90~1\AppData\Local\Temp\ccx4ZXSQ.s:24685  .debug_str:0000000000006d4b .LASF3842
C:\Users\CYMR90~1\AppData\Local\Temp\ccx4ZXSQ.s:29692  .debug_str:000000000001ace3 .LASF3843
C:\Users\CYMR90~1\AppData\Local\Temp\ccx4ZXSQ.s:33534  .debug_str:0000000000029e26 .LASF3844
C:\Users\CYMR90~1\AppData\Local\Temp\ccx4ZXSQ.s:31360  .debug_str:000000000002153a .LASF3845
C:\Users\CYMR90~1\AppData\Local\Temp\ccx4ZXSQ.s:32538  .debug_str:0000000000025e98 .LASF3846
C:\Users\CYMR90~1\AppData\Local\Temp\ccx4ZXSQ.s:29610  .debug_str:000000000001a6f2 .LASF3847
C:\Users\CYMR90~1\AppData\Local\Temp\ccx4ZXSQ.s:29734  .debug_str:000000000001afe8 .LASF3848
C:\Users\CYMR90~1\AppData\Local\Temp\ccx4ZXSQ.s:26945  .debug_str:000000000000fd58 .LASF3849
C:\Users\CYMR90~1\AppData\Local\Temp\ccx4ZXSQ.s:23523  .debug_str:0000000000002424 .LASF3850
C:\Users\CYMR90~1\AppData\Local\Temp\ccx4ZXSQ.s:25641  .debug_str:000000000000a9fa .LASF3851
C:\Users\CYMR90~1\AppData\Local\Temp\ccx4ZXSQ.s:30728  .debug_str:000000000001eeee .LASF3852
C:\Users\CYMR90~1\AppData\Local\Temp\ccx4ZXSQ.s:28926  .debug_str:0000000000017c4f .LASF3853
C:\Users\CYMR90~1\AppData\Local\Temp\ccx4ZXSQ.s:26339  .debug_str:000000000000d7f6 .LASF3854
C:\Users\CYMR90~1\AppData\Local\Temp\ccx4ZXSQ.s:34290  .debug_str:000000000002cbb7 .LASF3855
C:\Users\CYMR90~1\AppData\Local\Temp\ccx4ZXSQ.s:28761  .debug_str:000000000001704b .LASF3856
C:\Users\CYMR90~1\AppData\Local\Temp\ccx4ZXSQ.s:33944  .debug_str:000000000002b5ce .LASF3857
C:\Users\CYMR90~1\AppData\Local\Temp\ccx4ZXSQ.s:23739  .debug_str:00000000000031f8 .LASF3858
C:\Users\CYMR90~1\AppData\Local\Temp\ccx4ZXSQ.s:30972  .debug_str:000000000001fda6 .LASF3859
C:\Users\CYMR90~1\AppData\Local\Temp\ccx4ZXSQ.s:28771  .debug_str:0000000000017111 .LASF3860
C:\Users\CYMR90~1\AppData\Local\Temp\ccx4ZXSQ.s:25195  .debug_str:0000000000008ec8 .LASF3861
C:\Users\CYMR90~1\AppData\Local\Temp\ccx4ZXSQ.s:33042  .debug_str:0000000000027f04 .LASF3862
C:\Users\CYMR90~1\AppData\Local\Temp\ccx4ZXSQ.s:31950  .debug_str:00000000000238d5 .LASF3863
C:\Users\CYMR90~1\AppData\Local\Temp\ccx4ZXSQ.s:23497  .debug_str:00000000000022ad .LASF3864
C:\Users\CYMR90~1\AppData\Local\Temp\ccx4ZXSQ.s:24643  .debug_str:0000000000006a9d .LASF3865
C:\Users\CYMR90~1\AppData\Local\Temp\ccx4ZXSQ.s:23665  .debug_str:0000000000002d4e .LASF3866
C:\Users\CYMR90~1\AppData\Local\Temp\ccx4ZXSQ.s:30660  .debug_str:000000000001eace .LASF3867
C:\Users\CYMR90~1\AppData\Local\Temp\ccx4ZXSQ.s:25019  .debug_str:0000000000008420 .LASF3868
C:\Users\CYMR90~1\AppData\Local\Temp\ccx4ZXSQ.s:26399  .debug_str:000000000000dc33 .LASF3869
C:\Users\CYMR90~1\AppData\Local\Temp\ccx4ZXSQ.s:30236  .debug_str:000000000001ce71 .LASF3870
C:\Users\CYMR90~1\AppData\Local\Temp\ccx4ZXSQ.s:30334  .debug_str:000000000001d56d .LASF3871
C:\Users\CYMR90~1\AppData\Local\Temp\ccx4ZXSQ.s:30480  .debug_str:000000000001df40 .LASF3872
C:\Users\CYMR90~1\AppData\Local\Temp\ccx4ZXSQ.s:33284  .debug_str:0000000000028eb1 .LASF3873
C:\Users\CYMR90~1\AppData\Local\Temp\ccx4ZXSQ.s:26973  .debug_str:000000000000feba .LASF3874
C:\Users\CYMR90~1\AppData\Local\Temp\ccx4ZXSQ.s:33688  .debug_str:000000000002a72a .LASF3875
C:\Users\CYMR90~1\AppData\Local\Temp\ccx4ZXSQ.s:30384  .debug_str:000000000001d985 .LASF3876
C:\Users\CYMR90~1\AppData\Local\Temp\ccx4ZXSQ.s:33850  .debug_str:000000000002b0ab .LASF3877
C:\Users\CYMR90~1\AppData\Local\Temp\ccx4ZXSQ.s:25825  .debug_str:000000000000b71b .LASF3878
C:\Users\CYMR90~1\AppData\Local\Temp\ccx4ZXSQ.s:30138  .debug_str:000000000001c896 .LASF3879
C:\Users\CYMR90~1\AppData\Local\Temp\ccx4ZXSQ.s:27215  .debug_str:0000000000010e5b .LASF3880
C:\Users\CYMR90~1\AppData\Local\Temp\ccx4ZXSQ.s:23565  .debug_str:00000000000026d4 .LASF3881
C:\Users\CYMR90~1\AppData\Local\Temp\ccx4ZXSQ.s:31936  .debug_str:0000000000023801 .LASF3882
C:\Users\CYMR90~1\AppData\Local\Temp\ccx4ZXSQ.s:24385  .debug_str:0000000000005aec .LASF3883
C:\Users\CYMR90~1\AppData\Local\Temp\ccx4ZXSQ.s:23135  .debug_str:0000000000000c6a .LASF3884
C:\Users\CYMR90~1\AppData\Local\Temp\ccx4ZXSQ.s:24215  .debug_str:000000000000509d .LASF3885
C:\Users\CYMR90~1\AppData\Local\Temp\ccx4ZXSQ.s:24871  .debug_str:0000000000007954 .LASF3886
C:\Users\CYMR90~1\AppData\Local\Temp\ccx4ZXSQ.s:32758  .debug_str:0000000000026d2f .LASF3887
C:\Users\CYMR90~1\AppData\Local\Temp\ccx4ZXSQ.s:34062  .debug_str:000000000002bd15 .LASF3888
C:\Users\CYMR90~1\AppData\Local\Temp\ccx4ZXSQ.s:22981  .debug_str:0000000000000322 .LASF3889
C:\Users\CYMR90~1\AppData\Local\Temp\ccx4ZXSQ.s:29602  .debug_str:000000000001a681 .LASF3890
C:\Users\CYMR90~1\AppData\Local\Temp\ccx4ZXSQ.s:25585  .debug_str:000000000000a706 .LASF3891
C:\Users\CYMR90~1\AppData\Local\Temp\ccx4ZXSQ.s:25235  .debug_str:00000000000091a3 .LASF3892
C:\Users\CYMR90~1\AppData\Local\Temp\ccx4ZXSQ.s:31088  .debug_str:0000000000020475 .LASF3893
C:\Users\CYMR90~1\AppData\Local\Temp\ccx4ZXSQ.s:31718  .debug_str:0000000000022af3 .LASF3894
C:\Users\CYMR90~1\AppData\Local\Temp\ccx4ZXSQ.s:27665  .debug_str:0000000000012b93 .LASF3895
C:\Users\CYMR90~1\AppData\Local\Temp\ccx4ZXSQ.s:31008  .debug_str:000000000001ff9a .LASF3896
C:\Users\CYMR90~1\AppData\Local\Temp\ccx4ZXSQ.s:28870  .debug_str:00000000000178e0 .LASF3897
C:\Users\CYMR90~1\AppData\Local\Temp\ccx4ZXSQ.s:28589  .debug_str:000000000001656f .LASF3898
C:\Users\CYMR90~1\AppData\Local\Temp\ccx4ZXSQ.s:28151  .debug_str:0000000000014a55 .LASF3899
C:\Users\CYMR90~1\AppData\Local\Temp\ccx4ZXSQ.s:24985  .debug_str:0000000000008158 .LASF3900
C:\Users\CYMR90~1\AppData\Local\Temp\ccx4ZXSQ.s:30976  .debug_str:000000000001fdd8 .LASF3901
C:\Users\CYMR90~1\AppData\Local\Temp\ccx4ZXSQ.s:30518  .debug_str:000000000001e1fa .LASF3902
C:\Users\CYMR90~1\AppData\Local\Temp\ccx4ZXSQ.s:34486  .debug_str:000000000002d8e2 .LASF3903
C:\Users\CYMR90~1\AppData\Local\Temp\ccx4ZXSQ.s:26635  .debug_str:000000000000e9e4 .LASF3904
C:\Users\CYMR90~1\AppData\Local\Temp\ccx4ZXSQ.s:29174  .debug_str:0000000000018b3c .LASF3905
C:\Users\CYMR90~1\AppData\Local\Temp\ccx4ZXSQ.s:23357  .debug_str:0000000000001a81 .LASF3906
C:\Users\CYMR90~1\AppData\Local\Temp\ccx4ZXSQ.s:23997  .debug_str:0000000000004291 .LASF3907
C:\Users\CYMR90~1\AppData\Local\Temp\ccx4ZXSQ.s:24001  .debug_str:00000000000042ba .LASF3908
C:\Users\CYMR90~1\AppData\Local\Temp\ccx4ZXSQ.s:27299  .debug_str:00000000000113f9 .LASF3909
C:\Users\CYMR90~1\AppData\Local\Temp\ccx4ZXSQ.s:31904  .debug_str:0000000000023634 .LASF3910
C:\Users\CYMR90~1\AppData\Local\Temp\ccx4ZXSQ.s:28281  .debug_str:0000000000015254 .LASF3911
C:\Users\CYMR90~1\AppData\Local\Temp\ccx4ZXSQ.s:31996  .debug_str:0000000000023b3f .LASF3912
C:\Users\CYMR90~1\AppData\Local\Temp\ccx4ZXSQ.s:30586  .debug_str:000000000001e664 .LASF3913
C:\Users\CYMR90~1\AppData\Local\Temp\ccx4ZXSQ.s:27265  .debug_str:000000000001116a .LASF3914
C:\Users\CYMR90~1\AppData\Local\Temp\ccx4ZXSQ.s:32642  .debug_str:00000000000265df .LASF3915
C:\Users\CYMR90~1\AppData\Local\Temp\ccx4ZXSQ.s:32262  .debug_str:0000000000024bde .LASF3916
C:\Users\CYMR90~1\AppData\Local\Temp\ccx4ZXSQ.s:27123  .debug_str:000000000001086a .LASF3917
C:\Users\CYMR90~1\AppData\Local\Temp\ccx4ZXSQ.s:28467  .debug_str:0000000000015db3 .LASF3918
C:\Users\CYMR90~1\AppData\Local\Temp\ccx4ZXSQ.s:34088  .debug_str:000000000002bed8 .LASF3919
C:\Users\CYMR90~1\AppData\Local\Temp\ccx4ZXSQ.s:32308  .debug_str:0000000000024ede .LASF3920
C:\Users\CYMR90~1\AppData\Local\Temp\ccx4ZXSQ.s:28351  .debug_str:000000000001570f .LASF3921
C:\Users\CYMR90~1\AppData\Local\Temp\ccx4ZXSQ.s:30546  .debug_str:000000000001e388 .LASF3922
C:\Users\CYMR90~1\AppData\Local\Temp\ccx4ZXSQ.s:26383  .debug_str:000000000000db21 .LASF3923
C:\Users\CYMR90~1\AppData\Local\Temp\ccx4ZXSQ.s:25191  .debug_str:0000000000008e7f .LASF3924
C:\Users\CYMR90~1\AppData\Local\Temp\ccx4ZXSQ.s:27269  .debug_str:00000000000111b8 .LASF3925
C:\Users\CYMR90~1\AppData\Local\Temp\ccx4ZXSQ.s:32408  .debug_str:0000000000025526 .LASF3926
C:\Users\CYMR90~1\AppData\Local\Temp\ccx4ZXSQ.s:28934  .debug_str:0000000000017cab .LASF3927
C:\Users\CYMR90~1\AppData\Local\Temp\ccx4ZXSQ.s:28701  .debug_str:0000000000016c49 .LASF3928
C:\Users\CYMR90~1\AppData\Local\Temp\ccx4ZXSQ.s:23947  .debug_str:0000000000003f58 .LASF3929
C:\Users\CYMR90~1\AppData\Local\Temp\ccx4ZXSQ.s:33064  .debug_str:000000000002803e .LASF3930
C:\Users\CYMR90~1\AppData\Local\Temp\ccx4ZXSQ.s:26607  .debug_str:000000000000e841 .LASF3931
C:\Users\CYMR90~1\AppData\Local\Temp\ccx4ZXSQ.s:23989  .debug_str:000000000000420e .LASF3932
C:\Users\CYMR90~1\AppData\Local\Temp\ccx4ZXSQ.s:29032  .debug_str:00000000000182ea .LASF3933
C:\Users\CYMR90~1\AppData\Local\Temp\ccx4ZXSQ.s:26603  .debug_str:000000000000e802 .LASF3934
C:\Users\CYMR90~1\AppData\Local\Temp\ccx4ZXSQ.s:23509  .debug_str:000000000000235b .LASF3935
C:\Users\CYMR90~1\AppData\Local\Temp\ccx4ZXSQ.s:33922  .debug_str:000000000002b488 .LASF3936
C:\Users\CYMR90~1\AppData\Local\Temp\ccx4ZXSQ.s:26551  .debug_str:000000000000e4e3 .LASF3937
C:\Users\CYMR90~1\AppData\Local\Temp\ccx4ZXSQ.s:23695  .debug_str:0000000000002f2a .LASF3938
C:\Users\CYMR90~1\AppData\Local\Temp\ccx4ZXSQ.s:27823  .debug_str:00000000000135c7 .LASF3939
C:\Users\CYMR90~1\AppData\Local\Temp\ccx4ZXSQ.s:33640  .debug_str:000000000002a465 .LASF3940
C:\Users\CYMR90~1\AppData\Local\Temp\ccx4ZXSQ.s:26027  .debug_str:000000000000c49b .LASF3941
C:\Users\CYMR90~1\AppData\Local\Temp\ccx4ZXSQ.s:29636  .debug_str:000000000001a864 .LASF3942
C:\Users\CYMR90~1\AppData\Local\Temp\ccx4ZXSQ.s:32580  .debug_str:000000000002617f .LASF3943
C:\Users\CYMR90~1\AppData\Local\Temp\ccx4ZXSQ.s:33234  .debug_str:0000000000028b38 .LASF3944
C:\Users\CYMR90~1\AppData\Local\Temp\ccx4ZXSQ.s:34452  .debug_str:000000000002d63c .LASF3945
C:\Users\CYMR90~1\AppData\Local\Temp\ccx4ZXSQ.s:25719  .debug_str:000000000000afc8 .LASF3946
C:\Users\CYMR90~1\AppData\Local\Temp\ccx4ZXSQ.s:32038  .debug_str:0000000000023db5 .LASF3947
C:\Users\CYMR90~1\AppData\Local\Temp\ccx4ZXSQ.s:26067  .debug_str:000000000000c6f4 .LASF3948
C:\Users\CYMR90~1\AppData\Local\Temp\ccx4ZXSQ.s:27183  .debug_str:0000000000010c01 .LASF3949
C:\Users\CYMR90~1\AppData\Local\Temp\ccx4ZXSQ.s:34334  .debug_str:000000000002cee9 .LASF3950
C:\Users\CYMR90~1\AppData\Local\Temp\ccx4ZXSQ.s:32444  .debug_str:000000000002578e .LASF3951
C:\Users\CYMR90~1\AppData\Local\Temp\ccx4ZXSQ.s:32350  .debug_str:000000000002513e .LASF3952
C:\Users\CYMR90~1\AppData\Local\Temp\ccx4ZXSQ.s:24735  .debug_str:0000000000007098 .LASF3953
C:\Users\CYMR90~1\AppData\Local\Temp\ccx4ZXSQ.s:28729  .debug_str:0000000000016e62 .LASF3954
C:\Users\CYMR90~1\AppData\Local\Temp\ccx4ZXSQ.s:33132  .debug_str:0000000000028406 .LASF3955
C:\Users\CYMR90~1\AppData\Local\Temp\ccx4ZXSQ.s:30314  .debug_str:000000000001d3fe .LASF3956
C:\Users\CYMR90~1\AppData\Local\Temp\ccx4ZXSQ.s:32922  .debug_str:00000000000276a1 .LASF3957
C:\Users\CYMR90~1\AppData\Local\Temp\ccx4ZXSQ.s:29038  .debug_str:000000000001834a .LASF3958
C:\Users\CYMR90~1\AppData\Local\Temp\ccx4ZXSQ.s:33676  .debug_str:000000000002a676 .LASF3959
C:\Users\CYMR90~1\AppData\Local\Temp\ccx4ZXSQ.s:25039  .debug_str:0000000000008587 .LASF3960
C:\Users\CYMR90~1\AppData\Local\Temp\ccx4ZXSQ.s:27385  .debug_str:00000000000118c9 .LASF3961
C:\Users\CYMR90~1\AppData\Local\Temp\ccx4ZXSQ.s:23511  .debug_str:0000000000002380 .LASF3962
C:\Users\CYMR90~1\AppData\Local\Temp\ccx4ZXSQ.s:30808  .debug_str:000000000001f3b0 .LASF3963
C:\Users\CYMR90~1\AppData\Local\Temp\ccx4ZXSQ.s:28721  .debug_str:0000000000016def .LASF3964
C:\Users\CYMR90~1\AppData\Local\Temp\ccx4ZXSQ.s:27815  .debug_str:0000000000013544 .LASF3965
C:\Users\CYMR90~1\AppData\Local\Temp\ccx4ZXSQ.s:23981  .debug_str:00000000000041b6 .LASF3966
C:\Users\CYMR90~1\AppData\Local\Temp\ccx4ZXSQ.s:32664  .debug_str:0000000000026756 .LASF3967
C:\Users\CYMR90~1\AppData\Local\Temp\ccx4ZXSQ.s:26685  .debug_str:000000000000ed7c .LASF3968
C:\Users\CYMR90~1\AppData\Local\Temp\ccx4ZXSQ.s:31554  .debug_str:0000000000022116 .LASF3969
C:\Users\CYMR90~1\AppData\Local\Temp\ccx4ZXSQ.s:28185  .debug_str:0000000000014c46 .LASF3970
C:\Users\CYMR90~1\AppData\Local\Temp\ccx4ZXSQ.s:25785  .debug_str:000000000000b4a4 .LASF3971
C:\Users\CYMR90~1\AppData\Local\Temp\ccx4ZXSQ.s:31368  .debug_str:000000000002159e .LASF3972
C:\Users\CYMR90~1\AppData\Local\Temp\ccx4ZXSQ.s:32770  .debug_str:0000000000026dc2 .LASF3973
C:\Users\CYMR90~1\AppData\Local\Temp\ccx4ZXSQ.s:31050  .debug_str:0000000000020218 .LASF3974
C:\Users\CYMR90~1\AppData\Local\Temp\ccx4ZXSQ.s:31660  .debug_str:0000000000022794 .LASF3975
C:\Users\CYMR90~1\AppData\Local\Temp\ccx4ZXSQ.s:29864  .debug_str:000000000001b82e .LASF3976
C:\Users\CYMR90~1\AppData\Local\Temp\ccx4ZXSQ.s:31212  .debug_str:0000000000020bd0 .LASF3977
C:\Users\CYMR90~1\AppData\Local\Temp\ccx4ZXSQ.s:32720  .debug_str:0000000000026ae0 .LASF3978
C:\Users\CYMR90~1\AppData\Local\Temp\ccx4ZXSQ.s:29868  .debug_str:000000000001b87f .LASF3979
C:\Users\CYMR90~1\AppData\Local\Temp\ccx4ZXSQ.s:30916  .debug_str:000000000001fa30 .LASF3980
C:\Users\CYMR90~1\AppData\Local\Temp\ccx4ZXSQ.s:34516  .debug_str:000000000002da6b .LASF3981
C:\Users\CYMR90~1\AppData\Local\Temp\ccx4ZXSQ.s:24601  .debug_str:00000000000067d9 .LASF3982
C:\Users\CYMR90~1\AppData\Local\Temp\ccx4ZXSQ.s:25015  .debug_str:00000000000083e4 .LASF3983
C:\Users\CYMR90~1\AppData\Local\Temp\ccx4ZXSQ.s:23115  .debug_str:0000000000000acf .LASF3984
C:\Users\CYMR90~1\AppData\Local\Temp\ccx4ZXSQ.s:31860  .debug_str:000000000002335c .LASF3985
C:\Users\CYMR90~1\AppData\Local\Temp\ccx4ZXSQ.s:28205  .debug_str:0000000000014dee .LASF3986
C:\Users\CYMR90~1\AppData\Local\Temp\ccx4ZXSQ.s:23117  .debug_str:0000000000000af1 .LASF3987
C:\Users\CYMR90~1\AppData\Local\Temp\ccx4ZXSQ.s:27977  .debug_str:0000000000013fd6 .LASF3988
C:\Users\CYMR90~1\AppData\Local\Temp\ccx4ZXSQ.s:33524  .debug_str:0000000000029d88 .LASF3989
C:\Users\CYMR90~1\AppData\Local\Temp\ccx4ZXSQ.s:27885  .debug_str:00000000000139aa .LASF3990
C:\Users\CYMR90~1\AppData\Local\Temp\ccx4ZXSQ.s:30360  .debug_str:000000000001d7b8 .LASF3991
C:\Users\CYMR90~1\AppData\Local\Temp\ccx4ZXSQ.s:28327  .debug_str:000000000001557a .LASF3992
C:\Users\CYMR90~1\AppData\Local\Temp\ccx4ZXSQ.s:23487  .debug_str:00000000000021f6 .LASF3993
C:\Users\CYMR90~1\AppData\Local\Temp\ccx4ZXSQ.s:24995  .debug_str:0000000000008205 .LASF3994
C:\Users\CYMR90~1\AppData\Local\Temp\ccx4ZXSQ.s:25873  .debug_str:000000000000ba25 .LASF3995
C:\Users\CYMR90~1\AppData\Local\Temp\ccx4ZXSQ.s:29800  .debug_str:000000000001b3d5 .LASF3996
C:\Users\CYMR90~1\AppData\Local\Temp\ccx4ZXSQ.s:31228  .debug_str:0000000000020ca5 .LASF3997
C:\Users\CYMR90~1\AppData\Local\Temp\ccx4ZXSQ.s:24071  .debug_str:00000000000046f4 .LASF3998
C:\Users\CYMR90~1\AppData\Local\Temp\ccx4ZXSQ.s:25123  .debug_str:0000000000008a70 .LASF3999
C:\Users\CYMR90~1\AppData\Local\Temp\ccx4ZXSQ.s:26811  .debug_str:000000000000f4d1 .LASF4000
C:\Users\CYMR90~1\AppData\Local\Temp\ccx4ZXSQ.s:30640  .debug_str:000000000001e997 .LASF4001
C:\Users\CYMR90~1\AppData\Local\Temp\ccx4ZXSQ.s:32278  .debug_str:0000000000024d00 .LASF4002
C:\Users\CYMR90~1\AppData\Local\Temp\ccx4ZXSQ.s:33822  .debug_str:000000000002aef5 .LASF4003
C:\Users\CYMR90~1\AppData\Local\Temp\ccx4ZXSQ.s:29180  .debug_str:0000000000018b89 .LASF4004
C:\Users\CYMR90~1\AppData\Local\Temp\ccx4ZXSQ.s:31630  .debug_str:00000000000225db .LASF4005
C:\Users\CYMR90~1\AppData\Local\Temp\ccx4ZXSQ.s:25399  .debug_str:0000000000009afc .LASF4006
C:\Users\CYMR90~1\AppData\Local\Temp\ccx4ZXSQ.s:32078  .debug_str:0000000000024058 .LASF4007
C:\Users\CYMR90~1\AppData\Local\Temp\ccx4ZXSQ.s:28347  .debug_str:00000000000156ca .LASF4008
C:\Users\CYMR90~1\AppData\Local\Temp\ccx4ZXSQ.s:31798  .debug_str:0000000000022f6c .LASF4009
C:\Users\CYMR90~1\AppData\Local\Temp\ccx4ZXSQ.s:25823  .debug_str:000000000000b6f2 .LASF4010
C:\Users\CYMR90~1\AppData\Local\Temp\ccx4ZXSQ.s:33516  .debug_str:0000000000029d14 .LASF4011
C:\Users\CYMR90~1\AppData\Local\Temp\ccx4ZXSQ.s:28441  .debug_str:0000000000015c58 .LASF4012
C:\Users\CYMR90~1\AppData\Local\Temp\ccx4ZXSQ.s:31564  .debug_str:00000000000221c5 .LASF4013
C:\Users\CYMR90~1\AppData\Local\Temp\ccx4ZXSQ.s:33932  .debug_str:000000000002b525 .LASF4014
C:\Users\CYMR90~1\AppData\Local\Temp\ccx4ZXSQ.s:23089  .debug_str:0000000000000925 .LASF4015
C:\Users\CYMR90~1\AppData\Local\Temp\ccx4ZXSQ.s:28982  .debug_str:0000000000017fb1 .LASF4016
C:\Users\CYMR90~1\AppData\Local\Temp\ccx4ZXSQ.s:30850  .debug_str:000000000001f5ee .LASF4017
C:\Users\CYMR90~1\AppData\Local\Temp\ccx4ZXSQ.s:25555  .debug_str:000000000000a4f8 .LASF4018
C:\Users\CYMR90~1\AppData\Local\Temp\ccx4ZXSQ.s:24345  .debug_str:0000000000005869 .LASF4019
C:\Users\CYMR90~1\AppData\Local\Temp\ccx4ZXSQ.s:26941  .debug_str:000000000000fd0c .LASF4020
C:\Users\CYMR90~1\AppData\Local\Temp\ccx4ZXSQ.s:29260  .debug_str:0000000000019047 .LASF4021
C:\Users\CYMR90~1\AppData\Local\Temp\ccx4ZXSQ.s:23587  .debug_str:0000000000002854 .LASF4022
C:\Users\CYMR90~1\AppData\Local\Temp\ccx4ZXSQ.s:29508  .debug_str:000000000001a11f .LASF4023
C:\Users\CYMR90~1\AppData\Local\Temp\ccx4ZXSQ.s:30906  .debug_str:000000000001f97c .LASF4024
C:\Users\CYMR90~1\AppData\Local\Temp\ccx4ZXSQ.s:32940  .debug_str:00000000000277f3 .LASF4025
C:\Users\CYMR90~1\AppData\Local\Temp\ccx4ZXSQ.s:24583  .debug_str:00000000000066d7 .LASF4026
C:\Users\CYMR90~1\AppData\Local\Temp\ccx4ZXSQ.s:27735  .debug_str:0000000000013015 .LASF4027
C:\Users\CYMR90~1\AppData\Local\Temp\ccx4ZXSQ.s:30148  .debug_str:000000000001c93c .LASF4028
C:\Users\CYMR90~1\AppData\Local\Temp\ccx4ZXSQ.s:29510  .debug_str:000000000001a14b .LASF4029
C:\Users\CYMR90~1\AppData\Local\Temp\ccx4ZXSQ.s:28317  .debug_str:00000000000154b9 .LASF4030
C:\Users\CYMR90~1\AppData\Local\Temp\ccx4ZXSQ.s:25997  .debug_str:000000000000c29a .LASF4031
C:\Users\CYMR90~1\AppData\Local\Temp\ccx4ZXSQ.s:29092  .debug_str:0000000000018681 .LASF4032
C:\Users\CYMR90~1\AppData\Local\Temp\ccx4ZXSQ.s:28079  .debug_str:00000000000145e8 .LASF4033
C:\Users\CYMR90~1\AppData\Local\Temp\ccx4ZXSQ.s:32526  .debug_str:0000000000025db8 .LASF4034
C:\Users\CYMR90~1\AppData\Local\Temp\ccx4ZXSQ.s:31350  .debug_str:00000000000214d6 .LASF4035
C:\Users\CYMR90~1\AppData\Local\Temp\ccx4ZXSQ.s:34450  .debug_str:000000000002d61a .LASF4036
C:\Users\CYMR90~1\AppData\Local\Temp\ccx4ZXSQ.s:23717  .debug_str:0000000000003076 .LASF4037
C:\Users\CYMR90~1\AppData\Local\Temp\ccx4ZXSQ.s:24913  .debug_str:0000000000007c25 .LASF4038
C:\Users\CYMR90~1\AppData\Local\Temp\ccx4ZXSQ.s:33714  .debug_str:000000000002a883 .LASF4039
C:\Users\CYMR90~1\AppData\Local\Temp\ccx4ZXSQ.s:28469  .debug_str:0000000000015dcc .LASF4040
C:\Users\CYMR90~1\AppData\Local\Temp\ccx4ZXSQ.s:26979  .debug_str:000000000000ff10 .LASF4041
C:\Users\CYMR90~1\AppData\Local\Temp\ccx4ZXSQ.s:23657  .debug_str:0000000000002ce6 .LASF4042
C:\Users\CYMR90~1\AppData\Local\Temp\ccx4ZXSQ.s:27009  .debug_str:00000000000100dd .LASF4043
C:\Users\CYMR90~1\AppData\Local\Temp\ccx4ZXSQ.s:28884  .debug_str:00000000000179b4 .LASF4044
C:\Users\CYMR90~1\AppData\Local\Temp\ccx4ZXSQ.s:32294  .debug_str:0000000000024e06 .LASF4045
C:\Users\CYMR90~1\AppData\Local\Temp\ccx4ZXSQ.s:23165  .debug_str:0000000000000e02 .LASF4046
C:\Users\CYMR90~1\AppData\Local\Temp\ccx4ZXSQ.s:25435  .debug_str:0000000000009d97 .LASF4047
C:\Users\CYMR90~1\AppData\Local\Temp\ccx4ZXSQ.s:28341  .debug_str:000000000001566c .LASF4048
C:\Users\CYMR90~1\AppData\Local\Temp\ccx4ZXSQ.s:25177  .debug_str:0000000000008db8 .LASF4049
C:\Users\CYMR90~1\AppData\Local\Temp\ccx4ZXSQ.s:25111  .debug_str:00000000000089bc .LASF4050
C:\Users\CYMR90~1\AppData\Local\Temp\ccx4ZXSQ.s:33980  .debug_str:000000000002b7e2 .LASF4051
C:\Users\CYMR90~1\AppData\Local\Temp\ccx4ZXSQ.s:32236  .debug_str:0000000000024a43 .LASF4052
C:\Users\CYMR90~1\AppData\Local\Temp\ccx4ZXSQ.s:33964  .debug_str:000000000002b710 .LASF4053
C:\Users\CYMR90~1\AppData\Local\Temp\ccx4ZXSQ.s:29708  .debug_str:000000000001adf6 .LASF4054
C:\Users\CYMR90~1\AppData\Local\Temp\ccx4ZXSQ.s:33448  .debug_str:00000000000298e8 .LASF4055
C:\Users\CYMR90~1\AppData\Local\Temp\ccx4ZXSQ.s:33130  .debug_str:00000000000283e4 .LASF4056
C:\Users\CYMR90~1\AppData\Local\Temp\ccx4ZXSQ.s:25411  .debug_str:0000000000009c02 .LASF4057
C:\Users\CYMR90~1\AppData\Local\Temp\ccx4ZXSQ.s:32866  .debug_str:0000000000027396 .LASF4058
C:\Users\CYMR90~1\AppData\Local\Temp\ccx4ZXSQ.s:29138  .debug_str:0000000000018918 .LASF4059
C:\Users\CYMR90~1\AppData\Local\Temp\ccx4ZXSQ.s:29046  .debug_str:00000000000183b6 .LASF4060
C:\Users\CYMR90~1\AppData\Local\Temp\ccx4ZXSQ.s:26145  .debug_str:000000000000cbc4 .LASF4061
C:\Users\CYMR90~1\AppData\Local\Temp\ccx4ZXSQ.s:26869  .debug_str:000000000000f83b .LASF4062
C:\Users\CYMR90~1\AppData\Local\Temp\ccx4ZXSQ.s:30338  .debug_str:000000000001d5b1 .LASF4063
C:\Users\CYMR90~1\AppData\Local\Temp\ccx4ZXSQ.s:30554  .debug_str:000000000001e3ec .LASF4064
C:\Users\CYMR90~1\AppData\Local\Temp\ccx4ZXSQ.s:26169  .debug_str:000000000000cd86 .LASF4065
C:\Users\CYMR90~1\AppData\Local\Temp\ccx4ZXSQ.s:32502  .debug_str:0000000000025c36 .LASF4066
C:\Users\CYMR90~1\AppData\Local\Temp\ccx4ZXSQ.s:25547  .debug_str:000000000000a482 .LASF4067
C:\Users\CYMR90~1\AppData\Local\Temp\ccx4ZXSQ.s:32318  .debug_str:0000000000024f63 .LASF4068
C:\Users\CYMR90~1\AppData\Local\Temp\ccx4ZXSQ.s:30086  .debug_str:000000000001c598 .LASF4069
C:\Users\CYMR90~1\AppData\Local\Temp\ccx4ZXSQ.s:28988  .debug_str:0000000000018015 .LASF4070
C:\Users\CYMR90~1\AppData\Local\Temp\ccx4ZXSQ.s:27203  .debug_str:0000000000010dbb .LASF4071
C:\Users\CYMR90~1\AppData\Local\Temp\ccx4ZXSQ.s:23437  .debug_str:0000000000001f5a .LASF4072
C:\Users\CYMR90~1\AppData\Local\Temp\ccx4ZXSQ.s:30650  .debug_str:000000000001ea2c .LASF4073
C:\Users\CYMR90~1\AppData\Local\Temp\ccx4ZXSQ.s:30170  .debug_str:000000000001ca73 .LASF4074
C:\Users\CYMR90~1\AppData\Local\Temp\ccx4ZXSQ.s:28235  .debug_str:0000000000014fa3 .LASF4075
C:\Users\CYMR90~1\AppData\Local\Temp\ccx4ZXSQ.s:24063  .debug_str:0000000000004673 .LASF4076
C:\Users\CYMR90~1\AppData\Local\Temp\ccx4ZXSQ.s:29798  .debug_str:000000000001b3a9 .LASF4077
C:\Users\CYMR90~1\AppData\Local\Temp\ccx4ZXSQ.s:32608  .debug_str:00000000000263b2 .LASF4078
C:\Users\CYMR90~1\AppData\Local\Temp\ccx4ZXSQ.s:34510  .debug_str:000000000002da0b .LASF4079
C:\Users\CYMR90~1\AppData\Local\Temp\ccx4ZXSQ.s:24537  .debug_str:00000000000063f0 .LASF4080
C:\Users\CYMR90~1\AppData\Local\Temp\ccx4ZXSQ.s:22931  .debug_str:000000000000003c .LASF4081
C:\Users\CYMR90~1\AppData\Local\Temp\ccx4ZXSQ.s:33436  .debug_str:000000000002983e .LASF4082
C:\Users\CYMR90~1\AppData\Local\Temp\ccx4ZXSQ.s:27853  .debug_str:00000000000137ad .LASF4083
C:\Users\CYMR90~1\AppData\Local\Temp\ccx4ZXSQ.s:34180  .debug_str:000000000002c4cd .LASF4084
C:\Users\CYMR90~1\AppData\Local\Temp\ccx4ZXSQ.s:28493  .debug_str:0000000000015f35 .LASF4085
C:\Users\CYMR90~1\AppData\Local\Temp\ccx4ZXSQ.s:25949  .debug_str:000000000000bf4d .LASF4086
C:\Users\CYMR90~1\AppData\Local\Temp\ccx4ZXSQ.s:28331  .debug_str:00000000000155c1 .LASF4087
C:\Users\CYMR90~1\AppData\Local\Temp\ccx4ZXSQ.s:25901  .debug_str:000000000000bc23 .LASF4088
C:\Users\CYMR90~1\AppData\Local\Temp\ccx4ZXSQ.s:28539  .debug_str:000000000001620d .LASF4089
C:\Users\CYMR90~1\AppData\Local\Temp\ccx4ZXSQ.s:27409  .debug_str:0000000000011a63 .LASF4090
C:\Users\CYMR90~1\AppData\Local\Temp\ccx4ZXSQ.s:32780  .debug_str:0000000000026e6b .LASF4091
C:\Users\CYMR90~1\AppData\Local\Temp\ccx4ZXSQ.s:29436  .debug_str:0000000000019c44 .LASF4092
C:\Users\CYMR90~1\AppData\Local\Temp\ccx4ZXSQ.s:28411  .debug_str:0000000000015aae .LASF4093
C:\Users\CYMR90~1\AppData\Local\Temp\ccx4ZXSQ.s:32840  .debug_str:000000000002723d .LASF4094
C:\Users\CYMR90~1\AppData\Local\Temp\ccx4ZXSQ.s:28275  .debug_str:0000000000015217 .LASF4095
C:\Users\CYMR90~1\AppData\Local\Temp\ccx4ZXSQ.s:24873  .debug_str:0000000000007976 .LASF4096
C:\Users\CYMR90~1\AppData\Local\Temp\ccx4ZXSQ.s:34116  .debug_str:000000000002c070 .LASF4097
C:\Users\CYMR90~1\AppData\Local\Temp\ccx4ZXSQ.s:34246  .debug_str:000000000002c938 .LASF4098
C:\Users\CYMR90~1\AppData\Local\Temp\ccx4ZXSQ.s:31898  .debug_str:00000000000235fc .LASF4099
C:\Users\CYMR90~1\AppData\Local\Temp\ccx4ZXSQ.s:24243  .debug_str:0000000000005244 .LASF4100
C:\Users\CYMR90~1\AppData\Local\Temp\ccx4ZXSQ.s:25943  .debug_str:000000000000bf0e .LASF4101
C:\Users\CYMR90~1\AppData\Local\Temp\ccx4ZXSQ.s:29210  .debug_str:0000000000018d62 .LASF4102
C:\Users\CYMR90~1\AppData\Local\Temp\ccx4ZXSQ.s:24151  .debug_str:0000000000004cb8 .LASF4103
C:\Users\CYMR90~1\AppData\Local\Temp\ccx4ZXSQ.s:23785  .debug_str:0000000000003508 .LASF4104
C:\Users\CYMR90~1\AppData\Local\Temp\ccx4ZXSQ.s:29686  .debug_str:000000000001ac8c .LASF4105
C:\Users\CYMR90~1\AppData\Local\Temp\ccx4ZXSQ.s:27253  .debug_str:000000000001108a .LASF4106
C:\Users\CYMR90~1\AppData\Local\Temp\ccx4ZXSQ.s:32828  .debug_str:000000000002718d .LASF4107
C:\Users\CYMR90~1\AppData\Local\Temp\ccx4ZXSQ.s:27847  .debug_str:000000000001374e .LASF4108
C:\Users\CYMR90~1\AppData\Local\Temp\ccx4ZXSQ.s:25781  .debug_str:000000000000b462 .LASF4109
C:\Users\CYMR90~1\AppData\Local\Temp\ccx4ZXSQ.s:29310  .debug_str:0000000000019413 .LASF4110
C:\Users\CYMR90~1\AppData\Local\Temp\ccx4ZXSQ.s:30248  .debug_str:000000000001cf17 .LASF4111
C:\Users\CYMR90~1\AppData\Local\Temp\ccx4ZXSQ.s:24503  .debug_str:0000000000006210 .LASF4112
C:\Users\CYMR90~1\AppData\Local\Temp\ccx4ZXSQ.s:29792  .debug_str:000000000001b367 .LASF4113
C:\Users\CYMR90~1\AppData\Local\Temp\ccx4ZXSQ.s:28425  .debug_str:0000000000015b63 .LASF4114
C:\Users\CYMR90~1\AppData\Local\Temp\ccx4ZXSQ.s:31156  .debug_str:00000000000208b2 .LASF4115
C:\Users\CYMR90~1\AppData\Local\Temp\ccx4ZXSQ.s:33354  .debug_str:0000000000029369 .LASF4116
C:\Users\CYMR90~1\AppData\Local\Temp\ccx4ZXSQ.s:28057  .debug_str:0000000000014483 .LASF4117
C:\Users\CYMR90~1\AppData\Local\Temp\ccx4ZXSQ.s:27989  .debug_str:0000000000014086 .LASF4118
C:\Users\CYMR90~1\AppData\Local\Temp\ccx4ZXSQ.s:23541  .debug_str:000000000000255b .LASF4119
C:\Users\CYMR90~1\AppData\Local\Temp\ccx4ZXSQ.s:33892  .debug_str:000000000002b2f1 .LASF4120
C:\Users\CYMR90~1\AppData\Local\Temp\ccx4ZXSQ.s:30190  .debug_str:000000000001cba2 .LASF4121
C:\Users\CYMR90~1\AppData\Local\Temp\ccx4ZXSQ.s:30940  .debug_str:000000000001fb89 .LASF4122
C:\Users\CYMR90~1\AppData\Local\Temp\ccx4ZXSQ.s:24651  .debug_str:0000000000006b0f .LASF4123
C:\Users\CYMR90~1\AppData\Local\Temp\ccx4ZXSQ.s:33440  .debug_str:0000000000029882 .LASF4124
C:\Users\CYMR90~1\AppData\Local\Temp\ccx4ZXSQ.s:25269  .debug_str:0000000000009387 .LASF4125
C:\Users\CYMR90~1\AppData\Local\Temp\ccx4ZXSQ.s:25437  .debug_str:0000000000009dba .LASF4126
C:\Users\CYMR90~1\AppData\Local\Temp\ccx4ZXSQ.s:27011  .debug_str:00000000000100ff .LASF4127
C:\Users\CYMR90~1\AppData\Local\Temp\ccx4ZXSQ.s:34268  .debug_str:000000000002ca75 .LASF4128
C:\Users\CYMR90~1\AppData\Local\Temp\ccx4ZXSQ.s:26135  .debug_str:000000000000caf0 .LASF4129
C:\Users\CYMR90~1\AppData\Local\Temp\ccx4ZXSQ.s:28705  .debug_str:0000000000016c8c .LASF4130
C:\Users\CYMR90~1\AppData\Local\Temp\ccx4ZXSQ.s:27779  .debug_str:00000000000132fa .LASF4131
C:\Users\CYMR90~1\AppData\Local\Temp\ccx4ZXSQ.s:25769  .debug_str:000000000000b39b .LASF4132
C:\Users\CYMR90~1\AppData\Local\Temp\ccx4ZXSQ.s:28345  .debug_str:00000000000156b1 .LASF4133
C:\Users\CYMR90~1\AppData\Local\Temp\ccx4ZXSQ.s:24791  .debug_str:000000000000744c .LASF4134
C:\Users\CYMR90~1\AppData\Local\Temp\ccx4ZXSQ.s:29134  .debug_str:00000000000188db .LASF4135
C:\Users\CYMR90~1\AppData\Local\Temp\ccx4ZXSQ.s:26963  .debug_str:000000000000fe42 .LASF4136
C:\Users\CYMR90~1\AppData\Local\Temp\ccx4ZXSQ.s:31752  .debug_str:0000000000022cf2 .LASF4137
C:\Users\CYMR90~1\AppData\Local\Temp\ccx4ZXSQ.s:24947  .debug_str:0000000000007e5a .LASF4138
C:\Users\CYMR90~1\AppData\Local\Temp\ccx4ZXSQ.s:29818  .debug_str:000000000001b4c6 .LASF4139
C:\Users\CYMR90~1\AppData\Local\Temp\ccx4ZXSQ.s:34530  .debug_str:000000000002db3c .LASF4140
C:\Users\CYMR90~1\AppData\Local\Temp\ccx4ZXSQ.s:23851  .debug_str:000000000000395a .LASF4141
C:\Users\CYMR90~1\AppData\Local\Temp\ccx4ZXSQ.s:34500  .debug_str:000000000002d976 .LASF4142
C:\Users\CYMR90~1\AppData\Local\Temp\ccx4ZXSQ.s:31812  .debug_str:0000000000023068 .LASF4143
C:\Users\CYMR90~1\AppData\Local\Temp\ccx4ZXSQ.s:24219  .debug_str:00000000000050db .LASF4144
C:\Users\CYMR90~1\AppData\Local\Temp\ccx4ZXSQ.s:33012  .debug_str:0000000000027c8f .LASF4145
C:\Users\CYMR90~1\AppData\Local\Temp\ccx4ZXSQ.s:27403  .debug_str:00000000000119f2 .LASF4146
C:\Users\CYMR90~1\AppData\Local\Temp\ccx4ZXSQ.s:26373  .debug_str:000000000000da72 .LASF4147
C:\Users\CYMR90~1\AppData\Local\Temp\ccx4ZXSQ.s:23485  .debug_str:00000000000021d9 .LASF4148
C:\Users\CYMR90~1\AppData\Local\Temp\ccx4ZXSQ.s:31176  .debug_str:00000000000209e5 .LASF4149
C:\Users\CYMR90~1\AppData\Local\Temp\ccx4ZXSQ.s:27945  .debug_str:0000000000013df1 .LASF4150
C:\Users\CYMR90~1\AppData\Local\Temp\ccx4ZXSQ.s:33010  .debug_str:0000000000027c6c .LASF4151
C:\Users\CYMR90~1\AppData\Local\Temp\ccx4ZXSQ.s:23365  .debug_str:0000000000001ae3 .LASF4152
C:\Users\CYMR90~1\AppData\Local\Temp\ccx4ZXSQ.s:26987  .debug_str:000000000000ff8a .LASF4153
C:\Users\CYMR90~1\AppData\Local\Temp\ccx4ZXSQ.s:25313  .debug_str:0000000000009603 .LASF4154
C:\Users\CYMR90~1\AppData\Local\Temp\ccx4ZXSQ.s:31470  .debug_str:0000000000021b55 .LASF4155
C:\Users\CYMR90~1\AppData\Local\Temp\ccx4ZXSQ.s:33946  .debug_str:000000000002b5f4 .LASF4156
C:\Users\CYMR90~1\AppData\Local\Temp\ccx4ZXSQ.s:28858  .debug_str:000000000001785a .LASF4157
C:\Users\CYMR90~1\AppData\Local\Temp\ccx4ZXSQ.s:28972  .debug_str:0000000000017f10 .LASF4158
C:\Users\CYMR90~1\AppData\Local\Temp\ccx4ZXSQ.s:30572  .debug_str:000000000001e50d .LASF4159
C:\Users\CYMR90~1\AppData\Local\Temp\ccx4ZXSQ.s:25565  .debug_str:000000000000a5a9 .LASF4160
C:\Users\CYMR90~1\AppData\Local\Temp\ccx4ZXSQ.s:31016  .debug_str:0000000000020019 .LASF4161
C:\Users\CYMR90~1\AppData\Local\Temp\ccx4ZXSQ.s:32766  .debug_str:0000000000026d8e .LASF4162
C:\Users\CYMR90~1\AppData\Local\Temp\ccx4ZXSQ.s:27771  .debug_str:000000000001328d .LASF4163
C:\Users\CYMR90~1\AppData\Local\Temp\ccx4ZXSQ.s:23855  .debug_str:0000000000003993 .LASF4164
C:\Users\CYMR90~1\AppData\Local\Temp\ccx4ZXSQ.s:24041  .debug_str:0000000000004503 .LASF4165
C:\Users\CYMR90~1\AppData\Local\Temp\ccx4ZXSQ.s:33170  .debug_str:000000000002869e .LASF4166
C:\Users\CYMR90~1\AppData\Local\Temp\ccx4ZXSQ.s:27427  .debug_str:0000000000011b81 .LASF4167
C:\Users\CYMR90~1\AppData\Local\Temp\ccx4ZXSQ.s:25957  .debug_str:000000000000bfb9 .LASF4168
C:\Users\CYMR90~1\AppData\Local\Temp\ccx4ZXSQ.s:32194  .debug_str:000000000002471f .LASF4169
C:\Users\CYMR90~1\AppData\Local\Temp\ccx4ZXSQ.s:27477  .debug_str:0000000000011eec .LASF4170
C:\Users\CYMR90~1\AppData\Local\Temp\ccx4ZXSQ.s:28495  .debug_str:0000000000015f4b .LASF4171
C:\Users\CYMR90~1\AppData\Local\Temp\ccx4ZXSQ.s:34216  .debug_str:000000000002c6eb .LASF4172
C:\Users\CYMR90~1\AppData\Local\Temp\ccx4ZXSQ.s:28842  .debug_str:000000000001777d .LASF4173
C:\Users\CYMR90~1\AppData\Local\Temp\ccx4ZXSQ.s:23817  .debug_str:000000000000372f .LASF4174
C:\Users\CYMR90~1\AppData\Local\Temp\ccx4ZXSQ.s:25969  .debug_str:000000000000c070 .LASF4175
C:\Users\CYMR90~1\AppData\Local\Temp\ccx4ZXSQ.s:24553  .debug_str:00000000000064d5 .LASF4176
C:\Users\CYMR90~1\AppData\Local\Temp\ccx4ZXSQ.s:32798  .debug_str:0000000000026fb0 .LASF4177
C:\Users\CYMR90~1\AppData\Local\Temp\ccx4ZXSQ.s:33402  .debug_str:000000000002964b .LASF4178
C:\Users\CYMR90~1\AppData\Local\Temp\ccx4ZXSQ.s:23055  .debug_str:000000000000075d .LASF4179
C:\Users\CYMR90~1\AppData\Local\Temp\ccx4ZXSQ.s:29732  .debug_str:000000000001afcf .LASF4180
C:\Users\CYMR90~1\AppData\Local\Temp\ccx4ZXSQ.s:34208  .debug_str:000000000002c675 .LASF4181
C:\Users\CYMR90~1\AppData\Local\Temp\ccx4ZXSQ.s:25755  .debug_str:000000000000b219 .LASF4182
C:\Users\CYMR90~1\AppData\Local\Temp\ccx4ZXSQ.s:24645  .debug_str:0000000000006ab8 .LASF4183
C:\Users\CYMR90~1\AppData\Local\Temp\ccx4ZXSQ.s:25667  .debug_str:000000000000ac8d .LASF4184
C:\Users\CYMR90~1\AppData\Local\Temp\ccx4ZXSQ.s:29758  .debug_str:000000000001b15a .LASF4185
C:\Users\CYMR90~1\AppData\Local\Temp\ccx4ZXSQ.s:30922  .debug_str:000000000001fa8c .LASF4186
C:\Users\CYMR90~1\AppData\Local\Temp\ccx4ZXSQ.s:30026  .debug_str:000000000001c19a .LASF4187
C:\Users\CYMR90~1\AppData\Local\Temp\ccx4ZXSQ.s:24343  .debug_str:0000000000005850 .LASF4188
C:\Users\CYMR90~1\AppData\Local\Temp\ccx4ZXSQ.s:31964  .debug_str:00000000000239aa .LASF4189
C:\Users\CYMR90~1\AppData\Local\Temp\ccx4ZXSQ.s:31986  .debug_str:0000000000023ac3 .LASF4190
C:\Users\CYMR90~1\AppData\Local\Temp\ccx4ZXSQ.s:32472  .debug_str:0000000000025955 .LASF4191
C:\Users\CYMR90~1\AppData\Local\Temp\ccx4ZXSQ.s:29584  .debug_str:000000000001a573 .LASF4192
C:\Users\CYMR90~1\AppData\Local\Temp\ccx4ZXSQ.s:32028  .debug_str:0000000000023d2c .LASF4193
C:\Users\CYMR90~1\AppData\Local\Temp\ccx4ZXSQ.s:33544  .debug_str:0000000000029edb .LASF4194
C:\Users\CYMR90~1\AppData\Local\Temp\ccx4ZXSQ.s:27851  .debug_str:000000000001378d .LASF4195
C:\Users\CYMR90~1\AppData\Local\Temp\ccx4ZXSQ.s:27677  .debug_str:0000000000012c51 .LASF4196
C:\Users\CYMR90~1\AppData\Local\Temp\ccx4ZXSQ.s:31548  .debug_str:0000000000022098 .LASF4197
C:\Users\CYMR90~1\AppData\Local\Temp\ccx4ZXSQ.s:30160  .debug_str:000000000001c9e9 .LASF4198
C:\Users\CYMR90~1\AppData\Local\Temp\ccx4ZXSQ.s:32438  .debug_str:0000000000025742 .LASF4199
C:\Users\CYMR90~1\AppData\Local\Temp\ccx4ZXSQ.s:29050  .debug_str:00000000000183f3 .LASF4200
C:\Users\CYMR90~1\AppData\Local\Temp\ccx4ZXSQ.s:29966  .debug_str:000000000001be2a .LASF4201
C:\Users\CYMR90~1\AppData\Local\Temp\ccx4ZXSQ.s:31532  .debug_str:0000000000021fa1 .LASF4202
C:\Users\CYMR90~1\AppData\Local\Temp\ccx4ZXSQ.s:28942  .debug_str:0000000000017d41 .LASF4203
C:\Users\CYMR90~1\AppData\Local\Temp\ccx4ZXSQ.s:23327  .debug_str:00000000000017d0 .LASF4204
C:\Users\CYMR90~1\AppData\Local\Temp\ccx4ZXSQ.s:30822  .debug_str:000000000001f46c .LASF4205
C:\Users\CYMR90~1\AppData\Local\Temp\ccx4ZXSQ.s:31774  .debug_str:0000000000022e0c .LASF4206
C:\Users\CYMR90~1\AppData\Local\Temp\ccx4ZXSQ.s:26491  .debug_str:000000000000e10e .LASF4207
C:\Users\CYMR90~1\AppData\Local\Temp\ccx4ZXSQ.s:32230  .debug_str:000000000002491c .LASF4208
C:\Users\CYMR90~1\AppData\Local\Temp\ccx4ZXSQ.s:30452  .debug_str:000000000001dd7c .LASF4209
C:\Users\CYMR90~1\AppData\Local\Temp\ccx4ZXSQ.s:30430  .debug_str:000000000001dc23 .LASF4210
C:\Users\CYMR90~1\AppData\Local\Temp\ccx4ZXSQ.s:23199  .debug_str:000000000000107b .LASF4211
C:\Users\CYMR90~1\AppData\Local\Temp\ccx4ZXSQ.s:27727  .debug_str:0000000000012f8e .LASF4212
C:\Users\CYMR90~1\AppData\Local\Temp\ccx4ZXSQ.s:29150  .debug_str:00000000000189c7 .LASF4213
C:\Users\CYMR90~1\AppData\Local\Temp\ccx4ZXSQ.s:28419  .debug_str:0000000000015b24 .LASF4214
C:\Users\CYMR90~1\AppData\Local\Temp\ccx4ZXSQ.s:29738  .debug_str:000000000001b01e .LASF4215
C:\Users\CYMR90~1\AppData\Local\Temp\ccx4ZXSQ.s:33662  .debug_str:000000000002a5b7 .LASF4216
C:\Users\CYMR90~1\AppData\Local\Temp\ccx4ZXSQ.s:26149  .debug_str:000000000000cbf5 .LASF4217
C:\Users\CYMR90~1\AppData\Local\Temp\ccx4ZXSQ.s:26609  .debug_str:000000000000e868 .LASF4218
C:\Users\CYMR90~1\AppData\Local\Temp\ccx4ZXSQ.s:26799  .debug_str:000000000000f40b .LASF4219
C:\Users\CYMR90~1\AppData\Local\Temp\ccx4ZXSQ.s:24687  .debug_str:0000000000006d6f .LASF4220
C:\Users\CYMR90~1\AppData\Local\Temp\ccx4ZXSQ.s:26255  .debug_str:000000000000d2bd .LASF4221
C:\Users\CYMR90~1\AppData\Local\Temp\ccx4ZXSQ.s:23075  .debug_str:000000000000087e .LASF4222
C:\Users\CYMR90~1\AppData\Local\Temp\ccx4ZXSQ.s:32016  .debug_str:0000000000023c64 .LASF4223
C:\Users\CYMR90~1\AppData\Local\Temp\ccx4ZXSQ.s:28765  .debug_str:00000000000170b2 .LASF4224
C:\Users\CYMR90~1\AppData\Local\Temp\ccx4ZXSQ.s:29972  .debug_str:000000000001be81 .LASF4225
C:\Users\CYMR90~1\AppData\Local\Temp\ccx4ZXSQ.s:26985  .debug_str:000000000000ff6a .LASF4226
C:\Users\CYMR90~1\AppData\Local\Temp\ccx4ZXSQ.s:33212  .debug_str:0000000000028974 .LASF4227
C:\Users\CYMR90~1\AppData\Local\Temp\ccx4ZXSQ.s:24903  .debug_str:0000000000007b8f .LASF4228
C:\Users\CYMR90~1\AppData\Local\Temp\ccx4ZXSQ.s:26393  .debug_str:000000000000dbe0 .LASF4229
C:\Users\CYMR90~1\AppData\Local\Temp\ccx4ZXSQ.s:34404  .debug_str:000000000002d34e .LASF4230
C:\Users\CYMR90~1\AppData\Local\Temp\ccx4ZXSQ.s:26003  .debug_str:000000000000c313 .LASF4231
C:\Users\CYMR90~1\AppData\Local\Temp\ccx4ZXSQ.s:25539  .debug_str:000000000000a3fc .LASF4232
C:\Users\CYMR90~1\AppData\Local\Temp\ccx4ZXSQ.s:33118  .debug_str:0000000000028329 .LASF4233
C:\Users\CYMR90~1\AppData\Local\Temp\ccx4ZXSQ.s:27471  .debug_str:0000000000011e70 .LASF4234
C:\Users\CYMR90~1\AppData\Local\Temp\ccx4ZXSQ.s:24133  .debug_str:0000000000004ba3 .LASF4235
C:\Users\CYMR90~1\AppData\Local\Temp\ccx4ZXSQ.s:25483  .debug_str:000000000000a048 .LASF4236
C:\Users\CYMR90~1\AppData\Local\Temp\ccx4ZXSQ.s:29380  .debug_str:00000000000198e4 .LASF4237
C:\Users\CYMR90~1\AppData\Local\Temp\ccx4ZXSQ.s:30382  .debug_str:000000000001d961 .LASF4238
C:\Users\CYMR90~1\AppData\Local\Temp\ccx4ZXSQ.s:30612  .debug_str:000000000001e820 .LASF4239
C:\Users\CYMR90~1\AppData\Local\Temp\ccx4ZXSQ.s:26227  .debug_str:000000000000d14c .LASF4240
C:\Users\CYMR90~1\AppData\Local\Temp\ccx4ZXSQ.s:34080  .debug_str:000000000002be3d .LASF4241
C:\Users\CYMR90~1\AppData\Local\Temp\ccx4ZXSQ.s:26637  .debug_str:000000000000e9f9 .LASF4242
C:\Users\CYMR90~1\AppData\Local\Temp\ccx4ZXSQ.s:29554  .debug_str:000000000001a3c0 .LASF4243
C:\Users\CYMR90~1\AppData\Local\Temp\ccx4ZXSQ.s:29294  .debug_str:0000000000019269 .LASF4244
C:\Users\CYMR90~1\AppData\Local\Temp\ccx4ZXSQ.s:23825  .debug_str:0000000000003794 .LASF4245
C:\Users\CYMR90~1\AppData\Local\Temp\ccx4ZXSQ.s:24093  .debug_str:0000000000004875 .LASF4246
C:\Users\CYMR90~1\AppData\Local\Temp\ccx4ZXSQ.s:25173  .debug_str:0000000000008d68 .LASF4247
C:\Users\CYMR90~1\AppData\Local\Temp\ccx4ZXSQ.s:27563  .debug_str:000000000001250d .LASF4248
C:\Users\CYMR90~1\AppData\Local\Temp\ccx4ZXSQ.s:28303  .debug_str:00000000000153a8 .LASF4249
C:\Users\CYMR90~1\AppData\Local\Temp\ccx4ZXSQ.s:34270  .debug_str:000000000002ca8d .LASF4250
C:\Users\CYMR90~1\AppData\Local\Temp\ccx4ZXSQ.s:25055  .debug_str:0000000000008677 .LASF4251
C:\Users\CYMR90~1\AppData\Local\Temp\ccx4ZXSQ.s:25629  .debug_str:000000000000a936 .LASF4252
C:\Users\CYMR90~1\AppData\Local\Temp\ccx4ZXSQ.s:29386  .debug_str:0000000000019946 .LASF4253
C:\Users\CYMR90~1\AppData\Local\Temp\ccx4ZXSQ.s:26577  .debug_str:000000000000e677 .LASF4254
C:\Users\CYMR90~1\AppData\Local\Temp\ccx4ZXSQ.s:34322  .debug_str:000000000002ce3f .LASF4255
C:\Users\CYMR90~1\AppData\Local\Temp\ccx4ZXSQ.s:23371  .debug_str:0000000000001b45 .LASF4256
C:\Users\CYMR90~1\AppData\Local\Temp\ccx4ZXSQ.s:33202  .debug_str:00000000000288c9 .LASF4257
C:\Users\CYMR90~1\AppData\Local\Temp\ccx4ZXSQ.s:30512  .debug_str:000000000001e19f .LASF4258
C:\Users\CYMR90~1\AppData\Local\Temp\ccx4ZXSQ.s:28818  .debug_str:0000000000017608 .LASF4259
C:\Users\CYMR90~1\AppData\Local\Temp\ccx4ZXSQ.s:25591  .debug_str:000000000000a748 .LASF4260
C:\Users\CYMR90~1\AppData\Local\Temp\ccx4ZXSQ.s:31594  .debug_str:000000000002236d .LASF4261
C:\Users\CYMR90~1\AppData\Local\Temp\ccx4ZXSQ.s:26747  .debug_str:000000000000f134 .LASF4262
C:\Users\CYMR90~1\AppData\Local\Temp\ccx4ZXSQ.s:29280  .debug_str:000000000001917d .LASF4263
C:\Users\CYMR90~1\AppData\Local\Temp\ccx4ZXSQ.s:27951  .debug_str:0000000000013e3b .LASF4264
C:\Users\CYMR90~1\AppData\Local\Temp\ccx4ZXSQ.s:26611  .debug_str:000000000000e88b .LASF4265
C:\Users\CYMR90~1\AppData\Local\Temp\ccx4ZXSQ.s:25097  .debug_str:0000000000008904 .LASF4266
C:\Users\CYMR90~1\AppData\Local\Temp\ccx4ZXSQ.s:23607  .debug_str:00000000000029ac .LASF4267
C:\Users\CYMR90~1\AppData\Local\Temp\ccx4ZXSQ.s:27533  .debug_str:000000000001236b .LASF4268
C:\Users\CYMR90~1\AppData\Local\Temp\ccx4ZXSQ.s:31154  .debug_str:0000000000020887 .LASF4269
C:\Users\CYMR90~1\AppData\Local\Temp\ccx4ZXSQ.s:23761  .debug_str:0000000000003365 .LASF4270
C:\Users\CYMR90~1\AppData\Local\Temp\ccx4ZXSQ.s:31082  .debug_str:00000000000203fe .LASF4271
C:\Users\CYMR90~1\AppData\Local\Temp\ccx4ZXSQ.s:27935  .debug_str:0000000000013d5b .LASF4272
C:\Users\CYMR90~1\AppData\Local\Temp\ccx4ZXSQ.s:32248  .debug_str:0000000000024adf .LASF4273
C:\Users\CYMR90~1\AppData\Local\Temp\ccx4ZXSQ.s:25571  .debug_str:000000000000a5f8 .LASF4274
C:\Users\CYMR90~1\AppData\Local\Temp\ccx4ZXSQ.s:29376  .debug_str:00000000000198a1 .LASF4275
C:\Users\CYMR90~1\AppData\Local\Temp\ccx4ZXSQ.s:33792  .debug_str:000000000002acd3 .LASF4276
C:\Users\CYMR90~1\AppData\Local\Temp\ccx4ZXSQ.s:24593  .debug_str:0000000000006768 .LASF4277
C:\Users\CYMR90~1\AppData\Local\Temp\ccx4ZXSQ.s:33784  .debug_str:000000000002ac5c .LASF4278
C:\Users\CYMR90~1\AppData\Local\Temp\ccx4ZXSQ.s:23693  .debug_str:0000000000002efd .LASF4279
C:\Users\CYMR90~1\AppData\Local\Temp\ccx4ZXSQ.s:28073  .debug_str:0000000000014574 .LASF4280
C:\Users\CYMR90~1\AppData\Local\Temp\ccx4ZXSQ.s:23305  .debug_str:000000000000165a .LASF4281
C:\Users\CYMR90~1\AppData\Local\Temp\ccx4ZXSQ.s:28113  .debug_str:00000000000147f7 .LASF4282
C:\Users\CYMR90~1\AppData\Local\Temp\ccx4ZXSQ.s:23379  .debug_str:0000000000001bbc .LASF4283
C:\Users\CYMR90~1\AppData\Local\Temp\ccx4ZXSQ.s:25285  .debug_str:000000000000945a .LASF4284
C:\Users\CYMR90~1\AppData\Local\Temp\ccx4ZXSQ.s:30356  .debug_str:000000000001d75c .LASF4285
C:\Users\CYMR90~1\AppData\Local\Temp\ccx4ZXSQ.s:33840  .debug_str:000000000002b010 .LASF4286
C:\Users\CYMR90~1\AppData\Local\Temp\ccx4ZXSQ.s:24087  .debug_str:00000000000047fd .LASF4287
C:\Users\CYMR90~1\AppData\Local\Temp\ccx4ZXSQ.s:27343  .debug_str:000000000001162a .LASF4288
C:\Users\CYMR90~1\AppData\Local\Temp\ccx4ZXSQ.s:31038  .debug_str:0000000000020142 .LASF4289
C:\Users\CYMR90~1\AppData\Local\Temp\ccx4ZXSQ.s:30168  .debug_str:000000000001ca4b .LASF4290
C:\Users\CYMR90~1\AppData\Local\Temp\ccx4ZXSQ.s:31180  .debug_str:0000000000020a17 .LASF4291
C:\Users\CYMR90~1\AppData\Local\Temp\ccx4ZXSQ.s:34482  .debug_str:000000000002d883 .LASF4292
C:\Users\CYMR90~1\AppData\Local\Temp\ccx4ZXSQ.s:23821  .debug_str:000000000000375e .LASF4293
C:\Users\CYMR90~1\AppData\Local\Temp\ccx4ZXSQ.s:30778  .debug_str:000000000001f1ec .LASF4294
C:\Users\CYMR90~1\AppData\Local\Temp\ccx4ZXSQ.s:31566  .debug_str:00000000000221f1 .LASF4295
C:\Users\CYMR90~1\AppData\Local\Temp\ccx4ZXSQ.s:23393  .debug_str:0000000000001ca4 .LASF4296
C:\Users\CYMR90~1\AppData\Local\Temp\ccx4ZXSQ.s:32824  .debug_str:000000000002714f .LASF4297
C:\Users\CYMR90~1\AppData\Local\Temp\ccx4ZXSQ.s:30064  .debug_str:000000000001c3ec .LASF4298
C:\Users\CYMR90~1\AppData\Local\Temp\ccx4ZXSQ.s:27261  .debug_str:0000000000011138 .LASF4299
C:\Users\CYMR90~1\AppData\Local\Temp\ccx4ZXSQ.s:34182  .debug_str:000000000002c4e5 .LASF4300
C:\Users\CYMR90~1\AppData\Local\Temp\ccx4ZXSQ.s:29780  .debug_str:000000000001b2bf .LASF4301
C:\Users\CYMR90~1\AppData\Local\Temp\ccx4ZXSQ.s:31188  .debug_str:0000000000020aaa .LASF4302
C:\Users\CYMR90~1\AppData\Local\Temp\ccx4ZXSQ.s:26675  .debug_str:000000000000ecc0 .LASF4303
C:\Users\CYMR90~1\AppData\Local\Temp\ccx4ZXSQ.s:28229  .debug_str:0000000000014f21 .LASF4304
C:\Users\CYMR90~1\AppData\Local\Temp\ccx4ZXSQ.s:29628  .debug_str:000000000001a7f2 .LASF4305
C:\Users\CYMR90~1\AppData\Local\Temp\ccx4ZXSQ.s:29930  .debug_str:000000000001bc14 .LASF4306
C:\Users\CYMR90~1\AppData\Local\Temp\ccx4ZXSQ.s:32288  .debug_str:0000000000024d7f .LASF4307
C:\Users\CYMR90~1\AppData\Local\Temp\ccx4ZXSQ.s:29742  .debug_str:000000000001b061 .LASF4308
C:\Users\CYMR90~1\AppData\Local\Temp\ccx4ZXSQ.s:26289  .debug_str:000000000000d4e0 .LASF4309
C:\Users\CYMR90~1\AppData\Local\Temp\ccx4ZXSQ.s:26287  .debug_str:000000000000d4c1 .LASF4310
C:\Users\CYMR90~1\AppData\Local\Temp\ccx4ZXSQ.s:26755  .debug_str:000000000000f1bc .LASF4311
C:\Users\CYMR90~1\AppData\Local\Temp\ccx4ZXSQ.s:24969  .debug_str:0000000000007fb6 .LASF4312
C:\Users\CYMR90~1\AppData\Local\Temp\ccx4ZXSQ.s:25033  .debug_str:0000000000008528 .LASF4313
C:\Users\CYMR90~1\AppData\Local\Temp\ccx4ZXSQ.s:24609  .debug_str:000000000000684e .LASF4314
C:\Users\CYMR90~1\AppData\Local\Temp\ccx4ZXSQ.s:27387  .debug_str:00000000000118e9 .LASF4315
C:\Users\CYMR90~1\AppData\Local\Temp\ccx4ZXSQ.s:33020  .debug_str:0000000000027d96 .LASF4316
C:\Users\CYMR90~1\AppData\Local\Temp\ccx4ZXSQ.s:29350  .debug_str:0000000000019635 .LASF4317
C:\Users\CYMR90~1\AppData\Local\Temp\ccx4ZXSQ.s:27705  .debug_str:0000000000012e26 .LASF4318
C:\Users\CYMR90~1\AppData\Local\Temp\ccx4ZXSQ.s:26177  .debug_str:000000000000ce18 .LASF4319
C:\Users\CYMR90~1\AppData\Local\Temp\ccx4ZXSQ.s:30756  .debug_str:000000000001f081 .LASF4320
C:\Users\CYMR90~1\AppData\Local\Temp\ccx4ZXSQ.s:25283  .debug_str:0000000000009429 .LASF4321
C:\Users\CYMR90~1\AppData\Local\Temp\ccx4ZXSQ.s:34006  .debug_str:000000000002b94f .LASF4322
C:\Users\CYMR90~1\AppData\Local\Temp\ccx4ZXSQ.s:25575  .debug_str:000000000000a637 .LASF4323
C:\Users\CYMR90~1\AppData\Local\Temp\ccx4ZXSQ.s:25133  .debug_str:0000000000008b0b .LASF4324
C:\Users\CYMR90~1\AppData\Local\Temp\ccx4ZXSQ.s:33112  .debug_str:00000000000282b9 .LASF4325
C:\Users\CYMR90~1\AppData\Local\Temp\ccx4ZXSQ.s:34522  .debug_str:000000000002daba .LASF4326
C:\Users\CYMR90~1\AppData\Local\Temp\ccx4ZXSQ.s:27787  .debug_str:0000000000013351 .LASF4327
C:\Users\CYMR90~1\AppData\Local\Temp\ccx4ZXSQ.s:27631  .debug_str:000000000001298f .LASF4328
C:\Users\CYMR90~1\AppData\Local\Temp\ccx4ZXSQ.s:23673  .debug_str:0000000000002dbf .LASF4329
C:\Users\CYMR90~1\AppData\Local\Temp\ccx4ZXSQ.s:29842  .debug_str:000000000001b654 .LASF4330
C:\Users\CYMR90~1\AppData\Local\Temp\ccx4ZXSQ.s:26937  .debug_str:000000000000fcd5 .LASF4331
C:\Users\CYMR90~1\AppData\Local\Temp\ccx4ZXSQ.s:28313  .debug_str:0000000000015486 .LASF4332
C:\Users\CYMR90~1\AppData\Local\Temp\ccx4ZXSQ.s:27041  .debug_str:00000000000102c3 .LASF4333
C:\Users\CYMR90~1\AppData\Local\Temp\ccx4ZXSQ.s:30786  .debug_str:000000000001f26f .LASF4334
C:\Users\CYMR90~1\AppData\Local\Temp\ccx4ZXSQ.s:30796  .debug_str:000000000001f2f3 .LASF4335
C:\Users\CYMR90~1\AppData\Local\Temp\ccx4ZXSQ.s:32796  .debug_str:0000000000026f8a .LASF4336
C:\Users\CYMR90~1\AppData\Local\Temp\ccx4ZXSQ.s:29854  .debug_str:000000000001b6f5 .LASF4337
C:\Users\CYMR90~1\AppData\Local\Temp\ccx4ZXSQ.s:26089  .debug_str:000000000000c866 .LASF4338
C:\Users\CYMR90~1\AppData\Local\Temp\ccx4ZXSQ.s:22995  .debug_str:0000000000000401 .LASF4339
C:\Users\CYMR90~1\AppData\Local\Temp\ccx4ZXSQ.s:26445  .debug_str:000000000000de94 .LASF4340
C:\Users\CYMR90~1\AppData\Local\Temp\ccx4ZXSQ.s:23589  .debug_str:000000000000287c .LASF4341
C:\Users\CYMR90~1\AppData\Local\Temp\ccx4ZXSQ.s:30812  .debug_str:000000000001f3ed .LASF4342
C:\Users\CYMR90~1\AppData\Local\Temp\ccx4ZXSQ.s:28335  .debug_str:0000000000015616 .LASF4343
C:\Users\CYMR90~1\AppData\Local\Temp\ccx4ZXSQ.s:34064  .debug_str:000000000002bd2a .LASF4344
C:\Users\CYMR90~1\AppData\Local\Temp\ccx4ZXSQ.s:26989  .debug_str:000000000000ffab .LASF4345
C:\Users\CYMR90~1\AppData\Local\Temp\ccx4ZXSQ.s:33540  .debug_str:0000000000029e8c .LASF4346
C:\Users\CYMR90~1\AppData\Local\Temp\ccx4ZXSQ.s:31018  .debug_str:0000000000020037 .LASF4347
C:\Users\CYMR90~1\AppData\Local\Temp\ccx4ZXSQ.s:30828  .debug_str:000000000001f49d .LASF4348
C:\Users\CYMR90~1\AppData\Local\Temp\ccx4ZXSQ.s:24309  .debug_str:0000000000005636 .LASF4349
C:\Users\CYMR90~1\AppData\Local\Temp\ccx4ZXSQ.s:24451  .debug_str:0000000000005ea3 .LASF4350
C:\Users\CYMR90~1\AppData\Local\Temp\ccx4ZXSQ.s:31126  .debug_str:00000000000206a4 .LASF4351
C:\Users\CYMR90~1\AppData\Local\Temp\ccx4ZXSQ.s:29744  .debug_str:000000000001b080 .LASF4352
C:\Users\CYMR90~1\AppData\Local\Temp\ccx4ZXSQ.s:34508  .debug_str:000000000002d9e4 .LASF4353
C:\Users\CYMR90~1\AppData\Local\Temp\ccx4ZXSQ.s:28918  .debug_str:0000000000017bca .LASF4354
C:\Users\CYMR90~1\AppData\Local\Temp\ccx4ZXSQ.s:24497  .debug_str:00000000000061aa .LASF4355
C:\Users\CYMR90~1\AppData\Local\Temp\ccx4ZXSQ.s:26859  .debug_str:000000000000f7b9 .LASF4356
C:\Users\CYMR90~1\AppData\Local\Temp\ccx4ZXSQ.s:31134  .debug_str:000000000002072e .LASF4357
C:\Users\CYMR90~1\AppData\Local\Temp\ccx4ZXSQ.s:29240  .debug_str:0000000000018f33 .LASF4358
C:\Users\CYMR90~1\AppData\Local\Temp\ccx4ZXSQ.s:24277  .debug_str:000000000000542c .LASF4359
C:\Users\CYMR90~1\AppData\Local\Temp\ccx4ZXSQ.s:32942  .debug_str:000000000002780c .LASF4360
C:\Users\CYMR90~1\AppData\Local\Temp\ccx4ZXSQ.s:33358  .debug_str:000000000002939e .LASF4361
C:\Users\CYMR90~1\AppData\Local\Temp\ccx4ZXSQ.s:23027  .debug_str:00000000000005ee .LASF4362
C:\Users\CYMR90~1\AppData\Local\Temp\ccx4ZXSQ.s:33636  .debug_str:000000000002a42d .LASF4363
C:\Users\CYMR90~1\AppData\Local\Temp\ccx4ZXSQ.s:28365  .debug_str:00000000000157ca .LASF4364
C:\Users\CYMR90~1\AppData\Local\Temp\ccx4ZXSQ.s:33824  .debug_str:000000000002af19 .LASF4365
C:\Users\CYMR90~1\AppData\Local\Temp\ccx4ZXSQ.s:26931  .debug_str:000000000000fc62 .LASF4366
C:\Users\CYMR90~1\AppData\Local\Temp\ccx4ZXSQ.s:26235  .debug_str:000000000000d1d3 .LASF4367
C:\Users\CYMR90~1\AppData\Local\Temp\ccx4ZXSQ.s:32772  .debug_str:0000000000026dec .LASF4368
C:\Users\CYMR90~1\AppData\Local\Temp\ccx4ZXSQ.s:27865  .debug_str:0000000000013878 .LASF4369
C:\Users\CYMR90~1\AppData\Local\Temp\ccx4ZXSQ.s:26039  .debug_str:000000000000c53e .LASF4370
C:\Users\CYMR90~1\AppData\Local\Temp\ccx4ZXSQ.s:23867  .debug_str:0000000000003a77 .LASF4371
C:\Users\CYMR90~1\AppData\Local\Temp\ccx4ZXSQ.s:24807  .debug_str:0000000000007582 .LASF4372
C:\Users\CYMR90~1\AppData\Local\Temp\ccx4ZXSQ.s:26935  .debug_str:000000000000fcb1 .LASF4373
C:\Users\CYMR90~1\AppData\Local\Temp\ccx4ZXSQ.s:24373  .debug_str:0000000000005a0b .LASF4374
C:\Users\CYMR90~1\AppData\Local\Temp\ccx4ZXSQ.s:33238  .debug_str:0000000000028b6a .LASF4375
C:\Users\CYMR90~1\AppData\Local\Temp\ccx4ZXSQ.s:27071  .debug_str:00000000000104d2 .LASF4376
C:\Users\CYMR90~1\AppData\Local\Temp\ccx4ZXSQ.s:23687  .debug_str:0000000000002ea1 .LASF4377
C:\Users\CYMR90~1\AppData\Local\Temp\ccx4ZXSQ.s:32634  .debug_str:000000000002655b .LASF4378
C:\Users\CYMR90~1\AppData\Local\Temp\ccx4ZXSQ.s:33034  .debug_str:0000000000027e7f .LASF4379
C:\Users\CYMR90~1\AppData\Local\Temp\ccx4ZXSQ.s:27413  .debug_str:0000000000011aa3 .LASF4380
C:\Users\CYMR90~1\AppData\Local\Temp\ccx4ZXSQ.s:28621  .debug_str:0000000000016783 .LASF4381
C:\Users\CYMR90~1\AppData\Local\Temp\ccx4ZXSQ.s:32020  .debug_str:0000000000023c9d .LASF4382
C:\Users\CYMR90~1\AppData\Local\Temp\ccx4ZXSQ.s:30740  .debug_str:000000000001ef82 .LASF4383
C:\Users\CYMR90~1\AppData\Local\Temp\ccx4ZXSQ.s:31662  .debug_str:00000000000227bc .LASF4384
C:\Users\CYMR90~1\AppData\Local\Temp\ccx4ZXSQ.s:34528  .debug_str:000000000002db16 .LASF4385
C:\Users\CYMR90~1\AppData\Local\Temp\ccx4ZXSQ.s:32178  .debug_str:000000000002462e .LASF4386
C:\Users\CYMR90~1\AppData\Local\Temp\ccx4ZXSQ.s:32448  .debug_str:00000000000257cf .LASF4387
C:\Users\CYMR90~1\AppData\Local\Temp\ccx4ZXSQ.s:24907  .debug_str:0000000000007bc2 .LASF4388
C:\Users\CYMR90~1\AppData\Local\Temp\ccx4ZXSQ.s:24239  .debug_str:00000000000051ff .LASF4389
C:\Users\CYMR90~1\AppData\Local\Temp\ccx4ZXSQ.s:31878  .debug_str:0000000000023441 .LASF4390
C:\Users\CYMR90~1\AppData\Local\Temp\ccx4ZXSQ.s:27715  .debug_str:0000000000012ec9 .LASF4391
C:\Users\CYMR90~1\AppData\Local\Temp\ccx4ZXSQ.s:32470  .debug_str:000000000002592d .LASF4392
C:\Users\CYMR90~1\AppData\Local\Temp\ccx4ZXSQ.s:33680  .debug_str:000000000002a6ac .LASF4393
C:\Users\CYMR90~1\AppData\Local\Temp\ccx4ZXSQ.s:23635  .debug_str:0000000000002b53 .LASF4394
C:\Users\CYMR90~1\AppData\Local\Temp\ccx4ZXSQ.s:32596  .debug_str:0000000000026309 .LASF4395
C:\Users\CYMR90~1\AppData\Local\Temp\ccx4ZXSQ.s:32652  .debug_str:00000000000266b6 .LASF4396
C:\Users\CYMR90~1\AppData\Local\Temp\ccx4ZXSQ.s:33088  .debug_str:0000000000028169 .LASF4397
C:\Users\CYMR90~1\AppData\Local\Temp\ccx4ZXSQ.s:33168  .debug_str:000000000002867b .LASF4398
C:\Users\CYMR90~1\AppData\Local\Temp\ccx4ZXSQ.s:27225  .debug_str:0000000000010eef .LASF4399
C:\Users\CYMR90~1\AppData\Local\Temp\ccx4ZXSQ.s:32468  .debug_str:0000000000025909 .LASF4400
C:\Users\CYMR90~1\AppData\Local\Temp\ccx4ZXSQ.s:33018  .debug_str:0000000000027d7f .LASF4401
C:\Users\CYMR90~1\AppData\Local\Temp\ccx4ZXSQ.s:27263  .debug_str:0000000000011157 .LASF4402
C:\Users\CYMR90~1\AppData\Local\Temp\ccx4ZXSQ.s:33954  .debug_str:000000000002b67b .LASF4403
C:\Users\CYMR90~1\AppData\Local\Temp\ccx4ZXSQ.s:25203  .debug_str:0000000000008f40 .LASF4404
C:\Users\CYMR90~1\AppData\Local\Temp\ccx4ZXSQ.s:25801  .debug_str:000000000000b5c2 .LASF4405
C:\Users\CYMR90~1\AppData\Local\Temp\ccx4ZXSQ.s:32660  .debug_str:0000000000026727 .LASF4406
C:\Users\CYMR90~1\AppData\Local\Temp\ccx4ZXSQ.s:23225  .debug_str:000000000000120b .LASF4407
C:\Users\CYMR90~1\AppData\Local\Temp\ccx4ZXSQ.s:28697  .debug_str:0000000000016c11 .LASF4408
C:\Users\CYMR90~1\AppData\Local\Temp\ccx4ZXSQ.s:30824  .debug_str:000000000001f484 .LASF4409
C:\Users\CYMR90~1\AppData\Local\Temp\ccx4ZXSQ.s:33162  .debug_str:0000000000028618 .LASF4410
C:\Users\CYMR90~1\AppData\Local\Temp\ccx4ZXSQ.s:26701  .debug_str:000000000000ee77 .LASF4411
C:\Users\CYMR90~1\AppData\Local\Temp\ccx4ZXSQ.s:33192  .debug_str:0000000000028832 .LASF4412
C:\Users\CYMR90~1\AppData\Local\Temp\ccx4ZXSQ.s:30760  .debug_str:000000000001f0d5 .LASF4413
C:\Users\CYMR90~1\AppData\Local\Temp\ccx4ZXSQ.s:27475  .debug_str:0000000000011ebb .LASF4414
C:\Users\CYMR90~1\AppData\Local\Temp\ccx4ZXSQ.s:31080  .debug_str:00000000000203cd .LASF4415
C:\Users\CYMR90~1\AppData\Local\Temp\ccx4ZXSQ.s:24221  .debug_str:00000000000050f9 .LASF4416
C:\Users\CYMR90~1\AppData\Local\Temp\ccx4ZXSQ.s:28005  .debug_str:00000000000141b1 .LASF4417
C:\Users\CYMR90~1\AppData\Local\Temp\ccx4ZXSQ.s:25605  .debug_str:000000000000a806 .LASF4418
C:\Users\CYMR90~1\AppData\Local\Temp\ccx4ZXSQ.s:26559  .debug_str:000000000000e56e .LASF4419
C:\Users\CYMR90~1\AppData\Local\Temp\ccx4ZXSQ.s:30316  .debug_str:000000000001d424 .LASF4420
C:\Users\CYMR90~1\AppData\Local\Temp\ccx4ZXSQ.s:26679  .debug_str:000000000000ed18 .LASF4421
C:\Users\CYMR90~1\AppData\Local\Temp\ccx4ZXSQ.s:33576  .debug_str:000000000002a0e9 .LASF4422
C:\Users\CYMR90~1\AppData\Local\Temp\ccx4ZXSQ.s:30862  .debug_str:000000000001f69d .LASF4423
C:\Users\CYMR90~1\AppData\Local\Temp\ccx4ZXSQ.s:26641  .debug_str:000000000000ea40 .LASF4424
C:\Users\CYMR90~1\AppData\Local\Temp\ccx4ZXSQ.s:23311  .debug_str:00000000000016d0 .LASF4425
C:\Users\CYMR90~1\AppData\Local\Temp\ccx4ZXSQ.s:33094  .debug_str:00000000000281b3 .LASF4426
C:\Users\CYMR90~1\AppData\Local\Temp\ccx4ZXSQ.s:32986  .debug_str:0000000000027ac6 .LASF4427
C:\Users\CYMR90~1\AppData\Local\Temp\ccx4ZXSQ.s:32710  .debug_str:0000000000026a52 .LASF4428
C:\Users\CYMR90~1\AppData\Local\Temp\ccx4ZXSQ.s:30820  .debug_str:000000000001f456 .LASF4429
C:\Users\CYMR90~1\AppData\Local\Temp\ccx4ZXSQ.s:32968  .debug_str:00000000000279c7 .LASF4430
C:\Users\CYMR90~1\AppData\Local\Temp\ccx4ZXSQ.s:31428  .debug_str:0000000000021915 .LASF4431
C:\Users\CYMR90~1\AppData\Local\Temp\ccx4ZXSQ.s:26181  .debug_str:000000000000ce8c .LASF4432
C:\Users\CYMR90~1\AppData\Local\Temp\ccx4ZXSQ.s:34480  .debug_str:000000000002d86b .LASF4433
C:\Users\CYMR90~1\AppData\Local\Temp\ccx4ZXSQ.s:26981  .debug_str:000000000000ff32 .LASF4434
C:\Users\CYMR90~1\AppData\Local\Temp\ccx4ZXSQ.s:29026  .debug_str:000000000001829b .LASF4435
C:\Users\CYMR90~1\AppData\Local\Temp\ccx4ZXSQ.s:33848  .debug_str:000000000002b093 .LASF4436
C:\Users\CYMR90~1\AppData\Local\Temp\ccx4ZXSQ.s:27931  .debug_str:0000000000013d1e .LASF4437
C:\Users\CYMR90~1\AppData\Local\Temp\ccx4ZXSQ.s:31006  .debug_str:000000000001ff84 .LASF4438
C:\Users\CYMR90~1\AppData\Local\Temp\ccx4ZXSQ.s:24877  .debug_str:00000000000079cf .LASF4439
C:\Users\CYMR90~1\AppData\Local\Temp\ccx4ZXSQ.s:32504  .debug_str:0000000000025c61 .LASF4440
C:\Users\CYMR90~1\AppData\Local\Temp\ccx4ZXSQ.s:24743  .debug_str:000000000000711a .LASF4441
C:\Users\CYMR90~1\AppData\Local\Temp\ccx4ZXSQ.s:33066  .debug_str:0000000000028063 .LASF4442
C:\Users\CYMR90~1\AppData\Local\Temp\ccx4ZXSQ.s:33552  .debug_str:0000000000029f47 .LASF4443
C:\Users\CYMR90~1\AppData\Local\Temp\ccx4ZXSQ.s:31762  .debug_str:0000000000022d83 .LASF4444
C:\Users\CYMR90~1\AppData\Local\Temp\ccx4ZXSQ.s:28471  .debug_str:0000000000015dee .LASF4445
C:\Users\CYMR90~1\AppData\Local\Temp\ccx4ZXSQ.s:25209  .debug_str:0000000000008f87 .LASF4446
C:\Users\CYMR90~1\AppData\Local\Temp\ccx4ZXSQ.s:23771  .debug_str:0000000000003415 .LASF4447
C:\Users\CYMR90~1\AppData\Local\Temp\ccx4ZXSQ.s:29208  .debug_str:0000000000018d4a .LASF4448
C:\Users\CYMR90~1\AppData\Local\Temp\ccx4ZXSQ.s:25397  .debug_str:0000000000009ae5 .LASF4449
C:\Users\CYMR90~1\AppData\Local\Temp\ccx4ZXSQ.s:27917  .debug_str:0000000000013c1d .LASF4450
C:\Users\CYMR90~1\AppData\Local\Temp\ccx4ZXSQ.s:32280  .debug_str:0000000000024d23 .LASF4451
C:\Users\CYMR90~1\AppData\Local\Temp\ccx4ZXSQ.s:26801  .debug_str:000000000000f42e .LASF4452
C:\Users\CYMR90~1\AppData\Local\Temp\ccx4ZXSQ.s:33442  .debug_str:000000000002989a .LASF4453
C:\Users\CYMR90~1\AppData\Local\Temp\ccx4ZXSQ.s:25333  .debug_str:0000000000009725 .LASF4454
C:\Users\CYMR90~1\AppData\Local\Temp\ccx4ZXSQ.s:34158  .debug_str:000000000002c35f .LASF4455
C:\Users\CYMR90~1\AppData\Local\Temp\ccx4ZXSQ.s:31578  .debug_str:00000000000222a1 .LASF4456
C:\Users\CYMR90~1\AppData\Local\Temp\ccx4ZXSQ.s:26939  .debug_str:000000000000fcf4 .LASF4457
C:\Users\CYMR90~1\AppData\Local\Temp\ccx4ZXSQ.s:24069  .debug_str:00000000000046dc .LASF4458
C:\Users\CYMR90~1\AppData\Local\Temp\ccx4ZXSQ.s:29746  .debug_str:000000000001b0a7 .LASF4459
C:\Users\CYMR90~1\AppData\Local\Temp\ccx4ZXSQ.s:23283  .debug_str:0000000000001540 .LASF4460
C:\Users\CYMR90~1\AppData\Local\Temp\ccx4ZXSQ.s:26883  .debug_str:000000000000f939 .LASF4461
C:\Users\CYMR90~1\AppData\Local\Temp\ccx4ZXSQ.s:23053  .debug_str:0000000000000745 .LASF4462
C:\Users\CYMR90~1\AppData\Local\Temp\ccx4ZXSQ.s:22997  .debug_str:000000000000042b .LASF4463
C:\Users\CYMR90~1\AppData\Local\Temp\ccx4ZXSQ.s:23361  .debug_str:0000000000001aaa .LASF4464
C:\Users\CYMR90~1\AppData\Local\Temp\ccx4ZXSQ.s:32104  .debug_str:0000000000024213 .LASF4465
C:\Users\CYMR90~1\AppData\Local\Temp\ccx4ZXSQ.s:32768  .debug_str:0000000000026dab .LASF4466
C:\Users\CYMR90~1\AppData\Local\Temp\ccx4ZXSQ.s:27819  .debug_str:0000000000013579 .LASF4467
C:\Users\CYMR90~1\AppData\Local\Temp\ccx4ZXSQ.s:29782  .debug_str:000000000001b2e3 .LASF4468
C:\Users\CYMR90~1\AppData\Local\Temp\ccx4ZXSQ.s:31152  .debug_str:0000000000020870 .LASF4469
C:\Users\CYMR90~1\AppData\Local\Temp\ccx4ZXSQ.s:28569  .debug_str:000000000001641d .LASF4470
C:\Users\CYMR90~1\AppData\Local\Temp\ccx4ZXSQ.s:31214  .debug_str:0000000000020bfd .LASF4471
C:\Users\CYMR90~1\AppData\Local\Temp\ccx4ZXSQ.s:30514  .debug_str:000000000001e1c9 .LASF4472
C:\Users\CYMR90~1\AppData\Local\Temp\ccx4ZXSQ.s:25121  .debug_str:0000000000008a59 .LASF4473
C:\Users\CYMR90~1\AppData\Local\Temp\ccx4ZXSQ.s:23519  .debug_str:00000000000023f3 .LASF4474
C:\Users\CYMR90~1\AppData\Local\Temp\ccx4ZXSQ.s:31194  .debug_str:0000000000020af6 .LASF4475
C:\Users\CYMR90~1\AppData\Local\Temp\ccx4ZXSQ.s:24125  .debug_str:0000000000004b33 .LASF4476
C:\Users\CYMR90~1\AppData\Local\Temp\ccx4ZXSQ.s:24787  .debug_str:0000000000007422 .LASF4477
C:\Users\CYMR90~1\AppData\Local\Temp\ccx4ZXSQ.s:31858  .debug_str:000000000002333d .LASF4478
C:\Users\CYMR90~1\AppData\Local\Temp\ccx4ZXSQ.s:33626  .debug_str:000000000002a3a5 .LASF4479
C:\Users\CYMR90~1\AppData\Local\Temp\ccx4ZXSQ.s:29366  .debug_str:0000000000019745 .LASF4480
C:\Users\CYMR90~1\AppData\Local\Temp\ccx4ZXSQ.s:30714  .debug_str:000000000001ee57 .LASF4481
C:\Users\CYMR90~1\AppData\Local\Temp\ccx4ZXSQ.s:30904  .debug_str:000000000001f95f .LASF4482
C:\Users\CYMR90~1\AppData\Local\Temp\ccx4ZXSQ.s:25005  .debug_str:00000000000082b7 .LASF4483
C:\Users\CYMR90~1\AppData\Local\Temp\ccx4ZXSQ.s:34198  .debug_str:000000000002c5c5 .LASF4484
C:\Users\CYMR90~1\AppData\Local\Temp\ccx4ZXSQ.s:28009  .debug_str:00000000000141fa .LASF4485
C:\Users\CYMR90~1\AppData\Local\Temp\ccx4ZXSQ.s:33578  .debug_str:000000000002a11b .LASF4486
C:\Users\CYMR90~1\AppData\Local\Temp\ccx4ZXSQ.s:29886  .debug_str:000000000001b972 .LASF4487
C:\Users\CYMR90~1\AppData\Local\Temp\ccx4ZXSQ.s:29428  .debug_str:0000000000019bbb .LASF4488
C:\Users\CYMR90~1\AppData\Local\Temp\ccx4ZXSQ.s:30914  .debug_str:000000000001fa18 .LASF4489
C:\Users\CYMR90~1\AppData\Local\Temp\ccx4ZXSQ.s:34184  .debug_str:000000000002c50b .LASF4490
C:\Users\CYMR90~1\AppData\Local\Temp\ccx4ZXSQ.s:32982  .debug_str:0000000000027a96 .LASF4491
C:\Users\CYMR90~1\AppData\Local\Temp\ccx4ZXSQ.s:32034  .debug_str:0000000000023d87 .LASF4492
C:\Users\CYMR90~1\AppData\Local\Temp\ccx4ZXSQ.s:25851  .debug_str:000000000000b847 .LASF4493
C:\Users\CYMR90~1\AppData\Local\Temp\ccx4ZXSQ.s:32158  .debug_str:0000000000024524 .LASF4494
C:\Users\CYMR90~1\AppData\Local\Temp\ccx4ZXSQ.s:23179  .debug_str:0000000000000eee .LASF4495
C:\Users\CYMR90~1\AppData\Local\Temp\ccx4ZXSQ.s:29110  .debug_str:0000000000018786 .LASF4496
C:\Users\CYMR90~1\AppData\Local\Temp\ccx4ZXSQ.s:29140  .debug_str:000000000001893a .LASF4497
C:\Users\CYMR90~1\AppData\Local\Temp\ccx4ZXSQ.s:31634  .debug_str:000000000002262b .LASF4498
C:\Users\CYMR90~1\AppData\Local\Temp\ccx4ZXSQ.s:26295  .debug_str:000000000000d531 .LASF4499
C:\Users\CYMR90~1\AppData\Local\Temp\ccx4ZXSQ.s:24961  .debug_str:0000000000007f40 .LASF4500
C:\Users\CYMR90~1\AppData\Local\Temp\ccx4ZXSQ.s:24383  .debug_str:0000000000005ad5 .LASF4501
C:\Users\CYMR90~1\AppData\Local\Temp\ccx4ZXSQ.s:28213  .debug_str:0000000000014e6a .LASF4502
C:\Users\CYMR90~1\AppData\Local\Temp\ccx4ZXSQ.s:26221  .debug_str:000000000000d0f6 .LASF4503
C:\Users\CYMR90~1\AppData\Local\Temp\ccx4ZXSQ.s:27625  .debug_str:000000000001292e .LASF4504
C:\Users\CYMR90~1\AppData\Local\Temp\ccx4ZXSQ.s:25959  .debug_str:000000000000bfda .LASF4505
C:\Users\CYMR90~1\AppData\Local\Temp\ccx4ZXSQ.s:33184  .debug_str:00000000000287cd .LASF4506
C:\Users\CYMR90~1\AppData\Local\Temp\ccx4ZXSQ.s:28641  .debug_str:00000000000168fd .LASF4507
C:\Users\CYMR90~1\AppData\Local\Temp\ccx4ZXSQ.s:32490  .debug_str:0000000000025ae3 .LASF4508
C:\Users\CYMR90~1\AppData\Local\Temp\ccx4ZXSQ.s:33246  .debug_str:0000000000028bf8 .LASF4509
C:\Users\CYMR90~1\AppData\Local\Temp\ccx4ZXSQ.s:30524  .debug_str:000000000001e23d .LASF4510
C:\Users\CYMR90~1\AppData\Local\Temp\ccx4ZXSQ.s:34338  .debug_str:000000000002cf19 .LASF4511
C:\Users\CYMR90~1\AppData\Local\Temp\ccx4ZXSQ.s:30560  .debug_str:000000000001e457 .LASF4512
C:\Users\CYMR90~1\AppData\Local\Temp\ccx4ZXSQ.s:34244  .debug_str:000000000002c922 .LASF4513
C:\Users\CYMR90~1\AppData\Local\Temp\ccx4ZXSQ.s:31476  .debug_str:0000000000021bb1 .LASF4514
C:\Users\CYMR90~1\AppData\Local\Temp\ccx4ZXSQ.s:26305  .debug_str:000000000000d5b0 .LASF4515
C:\Users\CYMR90~1\AppData\Local\Temp\ccx4ZXSQ.s:30504  .debug_str:000000000001e102 .LASF4516
C:\Users\CYMR90~1\AppData\Local\Temp\ccx4ZXSQ.s:29024  .debug_str:0000000000018284 .LASF4517
C:\Users\CYMR90~1\AppData\Local\Temp\ccx4ZXSQ.s:28165  .debug_str:0000000000014b03 .LASF4518
C:\Users\CYMR90~1\AppData\Local\Temp\ccx4ZXSQ.s:28195  .debug_str:0000000000014d36 .LASF4519
C:\Users\CYMR90~1\AppData\Local\Temp\ccx4ZXSQ.s:31208  .debug_str:0000000000020ba8 .LASF4520
C:\Users\CYMR90~1\AppData\Local\Temp\ccx4ZXSQ.s:26369  .debug_str:000000000000da4b .LASF4521
C:\Users\CYMR90~1\AppData\Local\Temp\ccx4ZXSQ.s:28037  .debug_str:00000000000143a0 .LASF4522
C:\Users\CYMR90~1\AppData\Local\Temp\ccx4ZXSQ.s:30378  .debug_str:000000000001d92a .LASF4523
C:\Users\CYMR90~1\AppData\Local\Temp\ccx4ZXSQ.s:29600  .debug_str:000000000001a665 .LASF4524
C:\Users\CYMR90~1\AppData\Local\Temp\ccx4ZXSQ.s:32484  .debug_str:0000000000025a92 .LASF4525
C:\Users\CYMR90~1\AppData\Local\Temp\ccx4ZXSQ.s:30414  .debug_str:000000000001db64 .LASF4526
C:\Users\CYMR90~1\AppData\Local\Temp\ccx4ZXSQ.s:33716  .debug_str:000000000002a8a5 .LASF4527
C:\Users\CYMR90~1\AppData\Local\Temp\ccx4ZXSQ.s:31288  .debug_str:00000000000210de .LASF4528
C:\Users\CYMR90~1\AppData\Local\Temp\ccx4ZXSQ.s:25553  .debug_str:000000000000a4e0 .LASF4529
C:\Users\CYMR90~1\AppData\Local\Temp\ccx4ZXSQ.s:26407  .debug_str:000000000000dc8c .LASF4530
C:\Users\CYMR90~1\AppData\Local\Temp\ccx4ZXSQ.s:31202  .debug_str:0000000000020b5a .LASF4531
C:\Users\CYMR90~1\AppData\Local\Temp\ccx4ZXSQ.s:32586  .debug_str:000000000002624c .LASF4532
C:\Users\CYMR90~1\AppData\Local\Temp\ccx4ZXSQ.s:25135  .debug_str:0000000000008b2c .LASF4533
C:\Users\CYMR90~1\AppData\Local\Temp\ccx4ZXSQ.s:33462  .debug_str:00000000000299b4 .LASF4534
C:\Users\CYMR90~1\AppData\Local\Temp\ccx4ZXSQ.s:27107  .debug_str:000000000001070a .LASF4535
C:\Users\CYMR90~1\AppData\Local\Temp\ccx4ZXSQ.s:27025  .debug_str:00000000000101b8 .LASF4536
C:\Users\CYMR90~1\AppData\Local\Temp\ccx4ZXSQ.s:29302  .debug_str:00000000000192e6 .LASF4537
C:\Users\CYMR90~1\AppData\Local\Temp\ccx4ZXSQ.s:26167  .debug_str:000000000000cd39 .LASF4538
C:\Users\CYMR90~1\AppData\Local\Temp\ccx4ZXSQ.s:26307  .debug_str:000000000000d5c8 .LASF4539
C:\Users\CYMR90~1\AppData\Local\Temp\ccx4ZXSQ.s:27417  .debug_str:0000000000011aee .LASF4540
C:\Users\CYMR90~1\AppData\Local\Temp\ccx4ZXSQ.s:34512  .debug_str:000000000002da36 .LASF4541
C:\Users\CYMR90~1\AppData\Local\Temp\ccx4ZXSQ.s:25299  .debug_str:000000000000953f .LASF4542
C:\Users\CYMR90~1\AppData\Local\Temp\ccx4ZXSQ.s:25367  .debug_str:0000000000009968 .LASF4543
C:\Users\CYMR90~1\AppData\Local\Temp\ccx4ZXSQ.s:30442  .debug_str:000000000001dd01 .LASF4544
C:\Users\CYMR90~1\AppData\Local\Temp\ccx4ZXSQ.s:28964  .debug_str:0000000000017e72 .LASF4545
C:\Users\CYMR90~1\AppData\Local\Temp\ccx4ZXSQ.s:24189  .debug_str:0000000000004f15 .LASF4546
C:\Users\CYMR90~1\AppData\Local\Temp\ccx4ZXSQ.s:22935  .debug_str:0000000000000078 .LASF4547
C:\Users\CYMR90~1\AppData\Local\Temp\ccx4ZXSQ.s:31166  .debug_str:000000000002094f .LASF4548
C:\Users\CYMR90~1\AppData\Local\Temp\ccx4ZXSQ.s:34484  .debug_str:000000000002d8ac .LASF4549
C:\Users\CYMR90~1\AppData\Local\Temp\ccx4ZXSQ.s:30584  .debug_str:000000000001e642 .LASF4550
C:\Users\CYMR90~1\AppData\Local\Temp\ccx4ZXSQ.s:33800  .debug_str:000000000002ad5e .LASF4551
C:\Users\CYMR90~1\AppData\Local\Temp\ccx4ZXSQ.s:34056  .debug_str:000000000002bca3 .LASF4552
C:\Users\CYMR90~1\AppData\Local\Temp\ccx4ZXSQ.s:31400  .debug_str:0000000000021780 .LASF4553
C:\Users\CYMR90~1\AppData\Local\Temp\ccx4ZXSQ.s:29618  .debug_str:000000000001a769 .LASF4554
C:\Users\CYMR90~1\AppData\Local\Temp\ccx4ZXSQ.s:30748  .debug_str:000000000001f002 .LASF4555
C:\Users\CYMR90~1\AppData\Local\Temp\ccx4ZXSQ.s:27651  .debug_str:0000000000012aa7 .LASF4556
C:\Users\CYMR90~1\AppData\Local\Temp\ccx4ZXSQ.s:33210  .debug_str:000000000002895b .LASF4557
C:\Users\CYMR90~1\AppData\Local\Temp\ccx4ZXSQ.s:27623  .debug_str:0000000000012915 .LASF4558
C:\Users\CYMR90~1\AppData\Local\Temp\ccx4ZXSQ.s:24557  .debug_str:0000000000006520 .LASF4559
C:\Users\CYMR90~1\AppData\Local\Temp\ccx4ZXSQ.s:30892  .debug_str:000000000001f88b .LASF4560
C:\Users\CYMR90~1\AppData\Local\Temp\ccx4ZXSQ.s:27137  .debug_str:0000000000010938 .LASF4561
C:\Users\CYMR90~1\AppData\Local\Temp\ccx4ZXSQ.s:23315  .debug_str:0000000000001716 .LASF4562
C:\Users\CYMR90~1\AppData\Local\Temp\ccx4ZXSQ.s:31112  .debug_str:00000000000205b9 .LASF4563
C:\Users\CYMR90~1\AppData\Local\Temp\ccx4ZXSQ.s:27647  .debug_str:0000000000012a62 .LASF4564
C:\Users\CYMR90~1\AppData\Local\Temp\ccx4ZXSQ.s:24113  .debug_str:00000000000049cb .LASF4565
C:\Users\CYMR90~1\AppData\Local\Temp\ccx4ZXSQ.s:23269  .debug_str:000000000000144a .LASF4566
C:\Users\CYMR90~1\AppData\Local\Temp\ccx4ZXSQ.s:32924  .debug_str:00000000000276c6 .LASF4567
C:\Users\CYMR90~1\AppData\Local\Temp\ccx4ZXSQ.s:28631  .debug_str:0000000000016839 .LASF4568
C:\Users\CYMR90~1\AppData\Local\Temp\ccx4ZXSQ.s:31414  .debug_str:0000000000021852 .LASF4569
C:\Users\CYMR90~1\AppData\Local\Temp\ccx4ZXSQ.s:25811  .debug_str:000000000000b64a .LASF4570
C:\Users\CYMR90~1\AppData\Local\Temp\ccx4ZXSQ.s:32200  .debug_str:0000000000024769 .LASF4571
C:\Users\CYMR90~1\AppData\Local\Temp\ccx4ZXSQ.s:24461  .debug_str:0000000000005f5c .LASF4572
C:\Users\CYMR90~1\AppData\Local\Temp\ccx4ZXSQ.s:33076  .debug_str:00000000000280db .LASF4573
C:\Users\CYMR90~1\AppData\Local\Temp\ccx4ZXSQ.s:25057  .debug_str:000000000000869f .LASF4574
C:\Users\CYMR90~1\AppData\Local\Temp\ccx4ZXSQ.s:34054  .debug_str:000000000002bc89 .LASF4575
C:\Users\CYMR90~1\AppData\Local\Temp\ccx4ZXSQ.s:32500  .debug_str:0000000000025c1c .LASF4576
C:\Users\CYMR90~1\AppData\Local\Temp\ccx4ZXSQ.s:25533  .debug_str:000000000000a37d .LASF4577
C:\Users\CYMR90~1\AppData\Local\Temp\ccx4ZXSQ.s:23189  .debug_str:0000000000001002 .LASF4578
C:\Users\CYMR90~1\AppData\Local\Temp\ccx4ZXSQ.s:31020  .debug_str:0000000000020060 .LASF4579
C:\Users\CYMR90~1\AppData\Local\Temp\ccx4ZXSQ.s:24409  .debug_str:0000000000005c44 .LASF4580
C:\Users\CYMR90~1\AppData\Local\Temp\ccx4ZXSQ.s:34022  .debug_str:000000000002ba45 .LASF4581
C:\Users\CYMR90~1\AppData\Local\Temp\ccx4ZXSQ.s:28695  .debug_str:0000000000016bf4 .LASF4582
C:\Users\CYMR90~1\AppData\Local\Temp\ccx4ZXSQ.s:28489  .debug_str:0000000000015f00 .LASF4583
C:\Users\CYMR90~1\AppData\Local\Temp\ccx4ZXSQ.s:30848  .debug_str:000000000001f5d1 .LASF4584
C:\Users\CYMR90~1\AppData\Local\Temp\ccx4ZXSQ.s:25883  .debug_str:000000000000bac9 .LASF4585
C:\Users\CYMR90~1\AppData\Local\Temp\ccx4ZXSQ.s:32362  .debug_str:0000000000025274 .LASF4586
C:\Users\CYMR90~1\AppData\Local\Temp\ccx4ZXSQ.s:25433  .debug_str:0000000000009d7b .LASF4587
C:\Users\CYMR90~1\AppData\Local\Temp\ccx4ZXSQ.s:23937  .debug_str:0000000000003e9a .LASF4588
C:\Users\CYMR90~1\AppData\Local\Temp\ccx4ZXSQ.s:27095  .debug_str:0000000000010669 .LASF4589
C:\Users\CYMR90~1\AppData\Local\Temp\ccx4ZXSQ.s:30056  .debug_str:000000000001c387 .LASF4590
C:\Users\CYMR90~1\AppData\Local\Temp\ccx4ZXSQ.s:27845  .debug_str:0000000000013717 .LASF4591
C:\Users\CYMR90~1\AppData\Local\Temp\ccx4ZXSQ.s:33744  .debug_str:000000000002aa56 .LASF4592
C:\Users\CYMR90~1\AppData\Local\Temp\ccx4ZXSQ.s:31604  .debug_str:0000000000022432 .LASF4593
C:\Users\CYMR90~1\AppData\Local\Temp\ccx4ZXSQ.s:23001  .debug_str:000000000000045f .LASF4594
C:\Users\CYMR90~1\AppData\Local\Temp\ccx4ZXSQ.s:34408  .debug_str:000000000002d39f .LASF4595
C:\Users\CYMR90~1\AppData\Local\Temp\ccx4ZXSQ.s:33450  .debug_str:00000000000298fb .LASF4596
C:\Users\CYMR90~1\AppData\Local\Temp\ccx4ZXSQ.s:23757  .debug_str:0000000000003315 .LASF4597
C:\Users\CYMR90~1\AppData\Local\Temp\ccx4ZXSQ.s:31558  .debug_str:000000000002217e .LASF4598
C:\Users\CYMR90~1\AppData\Local\Temp\ccx4ZXSQ.s:34368  .debug_str:000000000002d0cd .LASF4599
C:\Users\CYMR90~1\AppData\Local\Temp\ccx4ZXSQ.s:31316  .debug_str:000000000002128c .LASF4600
C:\Users\CYMR90~1\AppData\Local\Temp\ccx4ZXSQ.s:33700  .debug_str:000000000002a7ce .LASF4601
C:\Users\CYMR90~1\AppData\Local\Temp\ccx4ZXSQ.s:28567  .debug_str:00000000000163fd .LASF4602
C:\Users\CYMR90~1\AppData\Local\Temp\ccx4ZXSQ.s:28880  .debug_str:0000000000017958 .LASF4603
C:\Users\CYMR90~1\AppData\Local\Temp\ccx4ZXSQ.s:26911  .debug_str:000000000000fab6 .LASF4604
C:\Users\CYMR90~1\AppData\Local\Temp\ccx4ZXSQ.s:26901  .debug_str:000000000000fa29 .LASF4605
C:\Users\CYMR90~1\AppData\Local\Temp\ccx4ZXSQ.s:29910  .debug_str:000000000001bab7 .LASF4606
C:\Users\CYMR90~1\AppData\Local\Temp\ccx4ZXSQ.s:32808  .debug_str:0000000000027033 .LASF4607
C:\Users\CYMR90~1\AppData\Local\Temp\ccx4ZXSQ.s:30548  .debug_str:000000000001e3b4 .LASF4608
C:\Users\CYMR90~1\AppData\Local\Temp\ccx4ZXSQ.s:29470  .debug_str:0000000000019df5 .LASF4609
C:\Users\CYMR90~1\AppData\Local\Temp\ccx4ZXSQ.s:27667  .debug_str:0000000000012ba7 .LASF4610
C:\Users\CYMR90~1\AppData\Local\Temp\ccx4ZXSQ.s:28783  .debug_str:00000000000171ca .LASF4611
C:\Users\CYMR90~1\AppData\Local\Temp\ccx4ZXSQ.s:23453  .debug_str:000000000000203f .LASF4612
C:\Users\CYMR90~1\AppData\Local\Temp\ccx4ZXSQ.s:34492  .debug_str:000000000002d916 .LASF4613
C:\Users\CYMR90~1\AppData\Local\Temp\ccx4ZXSQ.s:24107  .debug_str:0000000000004968 .LASF4614
C:\Users\CYMR90~1\AppData\Local\Temp\ccx4ZXSQ.s:27419  .debug_str:0000000000011b10 .LASF4615
C:\Users\CYMR90~1\AppData\Local\Temp\ccx4ZXSQ.s:25741  .debug_str:000000000000b103 .LASF4616
C:\Users\CYMR90~1\AppData\Local\Temp\ccx4ZXSQ.s:29462  .debug_str:0000000000019d99 .LASF4617
C:\Users\CYMR90~1\AppData\Local\Temp\ccx4ZXSQ.s:34114  .debug_str:000000000002c049 .LASF4618
C:\Users\CYMR90~1\AppData\Local\Temp\ccx4ZXSQ.s:25561  .debug_str:000000000000a56c .LASF4619
C:\Users\CYMR90~1\AppData\Local\Temp\ccx4ZXSQ.s:31340  .debug_str:0000000000021402 .LASF4620
C:\Users\CYMR90~1\AppData\Local\Temp\ccx4ZXSQ.s:25303  .debug_str:000000000000957c .LASF4621
C:\Users\CYMR90~1\AppData\Local\Temp\ccx4ZXSQ.s:34150  .debug_str:000000000002c2cb .LASF4622
C:\Users\CYMR90~1\AppData\Local\Temp\ccx4ZXSQ.s:23247  .debug_str:000000000000131a .LASF4623
C:\Users\CYMR90~1\AppData\Local\Temp\ccx4ZXSQ.s:34028  .debug_str:000000000002ba97 .LASF4624
C:\Users\CYMR90~1\AppData\Local\Temp\ccx4ZXSQ.s:31672  .debug_str:0000000000022861 .LASF4625
C:\Users\CYMR90~1\AppData\Local\Temp\ccx4ZXSQ.s:31326  .debug_str:0000000000021353 .LASF4626
C:\Users\CYMR90~1\AppData\Local\Temp\ccx4ZXSQ.s:27089  .debug_str:00000000000105d8 .LASF4627
C:\Users\CYMR90~1\AppData\Local\Temp\ccx4ZXSQ.s:23425  .debug_str:0000000000001e88 .LASF4628
C:\Users\CYMR90~1\AppData\Local\Temp\ccx4ZXSQ.s:30216  .debug_str:000000000001cd0b .LASF4629
C:\Users\CYMR90~1\AppData\Local\Temp\ccx4ZXSQ.s:26535  .debug_str:000000000000e3f6 .LASF4630
C:\Users\CYMR90~1\AppData\Local\Temp\ccx4ZXSQ.s:28109  .debug_str:00000000000147a1 .LASF4631
C:\Users\CYMR90~1\AppData\Local\Temp\ccx4ZXSQ.s:33316  .debug_str:00000000000290ec .LASF4632
C:\Users\CYMR90~1\AppData\Local\Temp\ccx4ZXSQ.s:34266  .debug_str:000000000002ca3c .LASF4633
C:\Users\CYMR90~1\AppData\Local\Temp\ccx4ZXSQ.s:30722  .debug_str:000000000001eec4 .LASF4634
C:\Users\CYMR90~1\AppData\Local\Temp\ccx4ZXSQ.s:30614  .debug_str:000000000001e844 .LASF4635
C:\Users\CYMR90~1\AppData\Local\Temp\ccx4ZXSQ.s:25725  .debug_str:000000000000b010 .LASF4636
C:\Users\CYMR90~1\AppData\Local\Temp\ccx4ZXSQ.s:29954  .debug_str:000000000001bd66 .LASF4637
C:\Users\CYMR90~1\AppData\Local\Temp\ccx4ZXSQ.s:26533  .debug_str:000000000000e3d5 .LASF4638
C:\Users\CYMR90~1\AppData\Local\Temp\ccx4ZXSQ.s:31380  .debug_str:000000000002166a .LASF4639
C:\Users\CYMR90~1\AppData\Local\Temp\ccx4ZXSQ.s:32252  .debug_str:0000000000024b49 .LASF4640
C:\Users\CYMR90~1\AppData\Local\Temp\ccx4ZXSQ.s:33156  .debug_str:00000000000285a7 .LASF4641
C:\Users\CYMR90~1\AppData\Local\Temp\ccx4ZXSQ.s:31504  .debug_str:0000000000021df7 .LASF4642
C:\Users\CYMR90~1\AppData\Local\Temp\ccx4ZXSQ.s:32778  .debug_str:0000000000026e46 .LASF4643
C:\Users\CYMR90~1\AppData\Local\Temp\ccx4ZXSQ.s:34420  .debug_str:000000000002d47b .LASF4644
C:\Users\CYMR90~1\AppData\Local\Temp\ccx4ZXSQ.s:23839  .debug_str:000000000000387b .LASF4645
C:\Users\CYMR90~1\AppData\Local\Temp\ccx4ZXSQ.s:23537  .debug_str:00000000000024e3 .LASF4646
C:\Users\CYMR90~1\AppData\Local\Temp\ccx4ZXSQ.s:32342  .debug_str:00000000000250d9 .LASF4647
C:\Users\CYMR90~1\AppData\Local\Temp\ccx4ZXSQ.s:26091  .debug_str:000000000000c891 .LASF4648
C:\Users\CYMR90~1\AppData\Local\Temp\ccx4ZXSQ.s:30326  .debug_str:000000000001d4e0 .LASF4649
C:\Users\CYMR90~1\AppData\Local\Temp\ccx4ZXSQ.s:32988  .debug_str:0000000000027add .LASF4650
C:\Users\CYMR90~1\AppData\Local\Temp\ccx4ZXSQ.s:25715  .debug_str:000000000000af76 .LASF4651
C:\Users\CYMR90~1\AppData\Local\Temp\ccx4ZXSQ.s:29404  .debug_str:0000000000019a2e .LASF4652
C:\Users\CYMR90~1\AppData\Local\Temp\ccx4ZXSQ.s:24165  .debug_str:0000000000004da8 .LASF4653
C:\Users\CYMR90~1\AppData\Local\Temp\ccx4ZXSQ.s:23131  .debug_str:0000000000000c35 .LASF4654
C:\Users\CYMR90~1\AppData\Local\Temp\ccx4ZXSQ.s:31664  .debug_str:00000000000227e1 .LASF4655
C:\Users\CYMR90~1\AppData\Local\Temp\ccx4ZXSQ.s:25733  .debug_str:000000000000b086 .LASF4656
C:\Users\CYMR90~1\AppData\Local\Temp\ccx4ZXSQ.s:23853  .debug_str:0000000000003972 .LASF4657
C:\Users\CYMR90~1\AppData\Local\Temp\ccx4ZXSQ.s:24099  .debug_str:00000000000048e0 .LASF4658
C:\Users\CYMR90~1\AppData\Local\Temp\ccx4ZXSQ.s:29198  .debug_str:0000000000018cd4 .LASF4659
C:\Users\CYMR90~1\AppData\Local\Temp\ccx4ZXSQ.s:28677  .debug_str:0000000000016af7 .LASF4660
C:\Users\CYMR90~1\AppData\Local\Temp\ccx4ZXSQ.s:29804  .debug_str:000000000001b40c .LASF4661
C:\Users\CYMR90~1\AppData\Local\Temp\ccx4ZXSQ.s:31300  .debug_str:00000000000211a8 .LASF4662
C:\Users\CYMR90~1\AppData\Local\Temp\ccx4ZXSQ.s:33930  .debug_str:000000000002b50d .LASF4663
C:\Users\CYMR90~1\AppData\Local\Temp\ccx4ZXSQ.s:28745  .debug_str:0000000000016f6e .LASF4664
C:\Users\CYMR90~1\AppData\Local\Temp\ccx4ZXSQ.s:27765  .debug_str:000000000001322e .LASF4665
C:\Users\CYMR90~1\AppData\Local\Temp\ccx4ZXSQ.s:29852  .debug_str:000000000001b6dc .LASF4666
C:\Users\CYMR90~1\AppData\Local\Temp\ccx4ZXSQ.s:34386  .debug_str:000000000002d231 .LASF4667
C:\Users\CYMR90~1\AppData\Local\Temp\ccx4ZXSQ.s:25017  .debug_str:0000000000008408 .LASF4668
C:\Users\CYMR90~1\AppData\Local\Temp\ccx4ZXSQ.s:25115  .debug_str:00000000000089f5 .LASF4669
C:\Users\CYMR90~1\AppData\Local\Temp\ccx4ZXSQ.s:31588  .debug_str:0000000000022318 .LASF4670
C:\Users\CYMR90~1\AppData\Local\Temp\ccx4ZXSQ.s:29528  .debug_str:000000000001a23d .LASF4671
C:\Users\CYMR90~1\AppData\Local\Temp\ccx4ZXSQ.s:31218  .debug_str:0000000000020c22 .LASF4672
C:\Users\CYMR90~1\AppData\Local\Temp\ccx4ZXSQ.s:31760  .debug_str:0000000000022d6c .LASF4673
C:\Users\CYMR90~1\AppData\Local\Temp\ccx4ZXSQ.s:25261  .debug_str:0000000000009319 .LASF4674
C:\Users\CYMR90~1\AppData\Local\Temp\ccx4ZXSQ.s:24709  .debug_str:0000000000006eec .LASF4675
C:\Users\CYMR90~1\AppData\Local\Temp\ccx4ZXSQ.s:34092  .debug_str:000000000002bf31 .LASF4676
C:\Users\CYMR90~1\AppData\Local\Temp\ccx4ZXSQ.s:33918  .debug_str:000000000002b44d .LASF4677
C:\Users\CYMR90~1\AppData\Local\Temp\ccx4ZXSQ.s:23319  .debug_str:0000000000001767 .LASF4678
C:\Users\CYMR90~1\AppData\Local\Temp\ccx4ZXSQ.s:23111  .debug_str:0000000000000a84 .LASF4679
C:\Users\CYMR90~1\AppData\Local\Temp\ccx4ZXSQ.s:29788  .debug_str:000000000001b322 .LASF4680
C:\Users\CYMR90~1\AppData\Local\Temp\ccx4ZXSQ.s:27029  .debug_str:0000000000010213 .LASF4681
C:\Users\CYMR90~1\AppData\Local\Temp\ccx4ZXSQ.s:34400  .debug_str:000000000002d30b .LASF4682
C:\Users\CYMR90~1\AppData\Local\Temp\ccx4ZXSQ.s:29372  .debug_str:000000000001986e .LASF4683
C:\Users\CYMR90~1\AppData\Local\Temp\ccx4ZXSQ.s:33678  .debug_str:000000000002a692 .LASF4684
C:\Users\CYMR90~1\AppData\Local\Temp\ccx4ZXSQ.s:29414  .debug_str:0000000000019acb .LASF4685
C:\Users\CYMR90~1\AppData\Local\Temp\ccx4ZXSQ.s:31738  .debug_str:0000000000022c2c .LASF4686
C:\Users\CYMR90~1\AppData\Local\Temp\ccx4ZXSQ.s:28101  .debug_str:0000000000014724 .LASF4687
C:\Users\CYMR90~1\AppData\Local\Temp\ccx4ZXSQ.s:26193  .debug_str:000000000000cf5a .LASF4688
C:\Users\CYMR90~1\AppData\Local\Temp\ccx4ZXSQ.s:23729  .debug_str:0000000000003123 .LASF4689
C:\Users\CYMR90~1\AppData\Local\Temp\ccx4ZXSQ.s:26789  .debug_str:000000000000f382 .LASF4690
C:\Users\CYMR90~1\AppData\Local\Temp\ccx4ZXSQ.s:30994  .debug_str:000000000001febd .LASF4691
C:\Users\CYMR90~1\AppData\Local\Temp\ccx4ZXSQ.s:33712  .debug_str:000000000002a868 .LASF4692
C:\Users\CYMR90~1\AppData\Local\Temp\ccx4ZXSQ.s:32902  .debug_str:00000000000275cc .LASF4693
C:\Users\CYMR90~1\AppData\Local\Temp\ccx4ZXSQ.s:34238  .debug_str:000000000002c8dc .LASF4694
C:\Users\CYMR90~1\AppData\Local\Temp\ccx4ZXSQ.s:32002  .debug_str:0000000000023b93 .LASF4695
C:\Users\CYMR90~1\AppData\Local\Temp\ccx4ZXSQ.s:31708  .debug_str:0000000000022a72 .LASF4696
C:\Users\CYMR90~1\AppData\Local\Temp\ccx4ZXSQ.s:30646  .debug_str:000000000001e9e9 .LASF4697
C:\Users\CYMR90~1\AppData\Local\Temp\ccx4ZXSQ.s:29640  .debug_str:000000000001a89b .LASF4698
C:\Users\CYMR90~1\AppData\Local\Temp\ccx4ZXSQ.s:29236  .debug_str:0000000000018f11 .LASF4699
C:\Users\CYMR90~1\AppData\Local\Temp\ccx4ZXSQ.s:33966  .debug_str:000000000002b72c .LASF4700
C:\Users\CYMR90~1\AppData\Local\Temp\ccx4ZXSQ.s:32668  .debug_str:0000000000026781 .LASF4701
C:\Users\CYMR90~1\AppData\Local\Temp\ccx4ZXSQ.s:24275  .debug_str:0000000000005413 .LASF4702
C:\Users\CYMR90~1\AppData\Local\Temp\ccx4ZXSQ.s:28223  .debug_str:0000000000014ee4 .LASF4703
C:\Users\CYMR90~1\AppData\Local\Temp\ccx4ZXSQ.s:28527  .debug_str:0000000000016161 .LASF4704
C:\Users\CYMR90~1\AppData\Local\Temp\ccx4ZXSQ.s:26925  .debug_str:000000000000fb75 .LASF4705
C:\Users\CYMR90~1\AppData\Local\Temp\ccx4ZXSQ.s:25395  .debug_str:0000000000009aca .LASF4706
C:\Users\CYMR90~1\AppData\Local\Temp\ccx4ZXSQ.s:30662  .debug_str:000000000001eae8 .LASF4707
C:\Users\CYMR90~1\AppData\Local\Temp\ccx4ZXSQ.s:23441  .debug_str:0000000000001fa1 .LASF4708
C:\Users\CYMR90~1\AppData\Local\Temp\ccx4ZXSQ.s:30540  .debug_str:000000000001e334 .LASF4709
C:\Users\CYMR90~1\AppData\Local\Temp\ccx4ZXSQ.s:25369  .debug_str:000000000000998a .LASF4710
C:\Users\CYMR90~1\AppData\Local\Temp\ccx4ZXSQ.s:29112  .debug_str:000000000001879d .LASF4711
C:\Users\CYMR90~1\AppData\Local\Temp\ccx4ZXSQ.s:33672  .debug_str:000000000002a642 .LASF4712
C:\Users\CYMR90~1\AppData\Local\Temp\ccx4ZXSQ.s:26571  .debug_str:000000000000e622 .LASF4713
C:\Users\CYMR90~1\AppData\Local\Temp\ccx4ZXSQ.s:25635  .debug_str:000000000000a9a0 .LASF4714
C:\Users\CYMR90~1\AppData\Local\Temp\ccx4ZXSQ.s:34292  .debug_str:000000000002cbde .LASF4715
C:\Users\CYMR90~1\AppData\Local\Temp\ccx4ZXSQ.s:26879  .debug_str:000000000000f8fa .LASF4716
C:\Users\CYMR90~1\AppData\Local\Temp\ccx4ZXSQ.s:28834  .debug_str:000000000001770c .LASF4717
C:\Users\CYMR90~1\AppData\Local\Temp\ccx4ZXSQ.s:24149  .debug_str:0000000000004c9a .LASF4718
C:\Users\CYMR90~1\AppData\Local\Temp\ccx4ZXSQ.s:30912  .debug_str:000000000001f9fc .LASF4719
C:\Users\CYMR90~1\AppData\Local\Temp\ccx4ZXSQ.s:26581  .debug_str:000000000000e6c2 .LASF4720
C:\Users\CYMR90~1\AppData\Local\Temp\ccx4ZXSQ.s:34044  .debug_str:000000000002bbd4 .LASF4721
C:\Users\CYMR90~1\AppData\Local\Temp\ccx4ZXSQ.s:28535  .debug_str:00000000000161cf .LASF4722
C:\Users\CYMR90~1\AppData\Local\Temp\ccx4ZXSQ.s:28878  .debug_str:000000000001793c .LASF4723
C:\Users\CYMR90~1\AppData\Local\Temp\ccx4ZXSQ.s:30458  .debug_str:000000000001ddfe .LASF4724
C:\Users\CYMR90~1\AppData\Local\Temp\ccx4ZXSQ.s:28932  .debug_str:0000000000017c90 .LASF4725
C:\Users\CYMR90~1\AppData\Local\Temp\ccx4ZXSQ.s:25569  .debug_str:000000000000a5da .LASF4726
C:\Users\CYMR90~1\AppData\Local\Temp\ccx4ZXSQ.s:30610  .debug_str:000000000001e801 .LASF4727
C:\Users\CYMR90~1\AppData\Local\Temp\ccx4ZXSQ.s:31552  .debug_str:00000000000220f7 .LASF4728
C:\Users\CYMR90~1\AppData\Local\Temp\ccx4ZXSQ.s:27145  .debug_str:00000000000109a8 .LASF4729
C:\Users\CYMR90~1\AppData\Local\Temp\ccx4ZXSQ.s:27001  .debug_str:0000000000010049 .LASF4730
C:\Users\CYMR90~1\AppData\Local\Temp\ccx4ZXSQ.s:34424  .debug_str:000000000002d4c9 .LASF4731
C:\Users\CYMR90~1\AppData\Local\Temp\ccx4ZXSQ.s:31488  .debug_str:0000000000021d05 .LASF4732
C:\Users\CYMR90~1\AppData\Local\Temp\ccx4ZXSQ.s:29160  .debug_str:0000000000018a74 .LASF4733
C:\Users\CYMR90~1\AppData\Local\Temp\ccx4ZXSQ.s:26337  .debug_str:000000000000d7dc .LASF4734
C:\Users\CYMR90~1\AppData\Local\Temp\ccx4ZXSQ.s:32764  .debug_str:0000000000026d71 .LASF4735
C:\Users\CYMR90~1\AppData\Local\Temp\ccx4ZXSQ.s:33860  .debug_str:000000000002b138 .LASF4736
C:\Users\CYMR90~1\AppData\Local\Temp\ccx4ZXSQ.s:25975  .debug_str:000000000000c0a6 .LASF4737
C:\Users\CYMR90~1\AppData\Local\Temp\ccx4ZXSQ.s:33262  .debug_str:0000000000028d7a .LASF4738
C:\Users\CYMR90~1\AppData\Local\Temp\ccx4ZXSQ.s:30084  .debug_str:000000000001c57d .LASF4739
C:\Users\CYMR90~1\AppData\Local\Temp\ccx4ZXSQ.s:33724  .debug_str:000000000002a90b .LASF4740
C:\Users\CYMR90~1\AppData\Local\Temp\ccx4ZXSQ.s:31730  .debug_str:0000000000022b9b .LASF4741
C:\Users\CYMR90~1\AppData\Local\Temp\ccx4ZXSQ.s:26379  .debug_str:000000000000daec .LASF4742
C:\Users\CYMR90~1\AppData\Local\Temp\ccx4ZXSQ.s:29504  .debug_str:000000000001a0e1 .LASF4743
C:\Users\CYMR90~1\AppData\Local\Temp\ccx4ZXSQ.s:27489  .debug_str:0000000000012058 .LASF4744
C:\Users\CYMR90~1\AppData\Local\Temp\ccx4ZXSQ.s:29856  .debug_str:000000000001b71c .LASF4745
C:\Users\CYMR90~1\AppData\Local\Temp\ccx4ZXSQ.s:31782  .debug_str:0000000000022e6a .LASF4746
C:\Users\CYMR90~1\AppData\Local\Temp\ccx4ZXSQ.s:28407  .debug_str:0000000000015a82 .LASF4747
C:\Users\CYMR90~1\AppData\Local\Temp\ccx4ZXSQ.s:30776  .debug_str:000000000001f1d1 .LASF4748
C:\Users\CYMR90~1\AppData\Local\Temp\ccx4ZXSQ.s:32508  .debug_str:0000000000025ca3 .LASF4749
C:\Users\CYMR90~1\AppData\Local\Temp\ccx4ZXSQ.s:26667  .debug_str:000000000000ec5b .LASF4750
C:\Users\CYMR90~1\AppData\Local\Temp\ccx4ZXSQ.s:31336  .debug_str:00000000000213ca .LASF4751
C:\Users\CYMR90~1\AppData\Local\Temp\ccx4ZXSQ.s:34248  .debug_str:000000000002c950 .LASF4752
C:\Users\CYMR90~1\AppData\Local\Temp\ccx4ZXSQ.s:33984  .debug_str:000000000002b831 .LASF4753
C:\Users\CYMR90~1\AppData\Local\Temp\ccx4ZXSQ.s:23065  .debug_str:00000000000007f7 .LASF4754
C:\Users\CYMR90~1\AppData\Local\Temp\ccx4ZXSQ.s:26797  .debug_str:000000000000f3f1 .LASF4755
C:\Users\CYMR90~1\AppData\Local\Temp\ccx4ZXSQ.s:31364  .debug_str:0000000000021568 .LASF4756
C:\Users\CYMR90~1\AppData\Local\Temp\ccx4ZXSQ.s:24753  .debug_str:00000000000071db .LASF4757
C:\Users\CYMR90~1\AppData\Local\Temp\ccx4ZXSQ.s:25461  .debug_str:0000000000009f06 .LASF4758
C:\Users\CYMR90~1\AppData\Local\Temp\ccx4ZXSQ.s:28826  .debug_str:0000000000017685 .LASF4759
C:\Users\CYMR90~1\AppData\Local\Temp\ccx4ZXSQ.s:29274  .debug_str:0000000000019135 .LASF4760
C:\Users\CYMR90~1\AppData\Local\Temp\ccx4ZXSQ.s:33796  .debug_str:000000000002ad1e .LASF4761
C:\Users\CYMR90~1\AppData\Local\Temp\ccx4ZXSQ.s:26343  .debug_str:000000000000d836 .LASF4762
C:\Users\CYMR90~1\AppData\Local\Temp\ccx4ZXSQ.s:28876  .debug_str:000000000001791f .LASF4763
C:\Users\CYMR90~1\AppData\Local\Temp\ccx4ZXSQ.s:28177  .debug_str:0000000000014bca .LASF4764
C:\Users\CYMR90~1\AppData\Local\Temp\ccx4ZXSQ.s:33306  .debug_str:0000000000029030 .LASF4765
C:\Users\CYMR90~1\AppData\Local\Temp\ccx4ZXSQ.s:30690  .debug_str:000000000001ec95 .LASF4766
C:\Users\CYMR90~1\AppData\Local\Temp\ccx4ZXSQ.s:33588  .debug_str:000000000002a190 .LASF4767
C:\Users\CYMR90~1\AppData\Local\Temp\ccx4ZXSQ.s:23659  .debug_str:0000000000002d08 .LASF4768
C:\Users\CYMR90~1\AppData\Local\Temp\ccx4ZXSQ.s:30894  .debug_str:000000000001f8a4 .LASF4769
C:\Users\CYMR90~1\AppData\Local\Temp\ccx4ZXSQ.s:25529  .debug_str:000000000000a350 .LASF4770
C:\Users\CYMR90~1\AppData\Local\Temp\ccx4ZXSQ.s:26867  .debug_str:000000000000f823 .LASF4771
C:\Users\CYMR90~1\AppData\Local\Temp\ccx4ZXSQ.s:24411  .debug_str:0000000000005c80 .LASF4772
C:\Users\CYMR90~1\AppData\Local\Temp\ccx4ZXSQ.s:29332  .debug_str:000000000001957a .LASF4773
C:\Users\CYMR90~1\AppData\Local\Temp\ccx4ZXSQ.s:32428  .debug_str:0000000000025697 .LASF4774
C:\Users\CYMR90~1\AppData\Local\Temp\ccx4ZXSQ.s:29754  .debug_str:000000000001b11b .LASF4775
C:\Users\CYMR90~1\AppData\Local\Temp\ccx4ZXSQ.s:29612  .debug_str:000000000001a711 .LASF4776
C:\Users\CYMR90~1\AppData\Local\Temp\ccx4ZXSQ.s:24635  .debug_str:0000000000006a11 .LASF4777
C:\Users\CYMR90~1\AppData\Local\Temp\ccx4ZXSQ.s:27725  .debug_str:0000000000012f74 .LASF4778
C:\Users\CYMR90~1\AppData\Local\Temp\ccx4ZXSQ.s:26515  .debug_str:000000000000e287 .LASF4779
C:\Users\CYMR90~1\AppData\Local\Temp\ccx4ZXSQ.s:25089  .debug_str:000000000000889d .LASF4780
C:\Users\CYMR90~1\AppData\Local\Temp\ccx4ZXSQ.s:28685  .debug_str:0000000000016b78 .LASF4781
C:\Users\CYMR90~1\AppData\Local\Temp\ccx4ZXSQ.s:25893  .debug_str:000000000000bb7c .LASF4782
C:\Users\CYMR90~1\AppData\Local\Temp\ccx4ZXSQ.s:23811  .debug_str:00000000000036b7 .LASF4783
C:\Users\CYMR90~1\AppData\Local\Temp\ccx4ZXSQ.s:25207  .debug_str:0000000000008f6a .LASF4784
C:\Users\CYMR90~1\AppData\Local\Temp\ccx4ZXSQ.s:25321  .debug_str:000000000000966f .LASF4785
C:\Users\CYMR90~1\AppData\Local\Temp\ccx4ZXSQ.s:31482  .debug_str:0000000000021c01 .LASF4786
C:\Users\CYMR90~1\AppData\Local\Temp\ccx4ZXSQ.s:27117  .debug_str:00000000000107fe .LASF4787
C:\Users\CYMR90~1\AppData\Local\Temp\ccx4ZXSQ.s:30386  .debug_str:000000000001d9a0 .LASF4788
C:\Users\CYMR90~1\AppData\Local\Temp\ccx4ZXSQ.s:29460  .debug_str:0000000000019d7f .LASF4789
C:\Users\CYMR90~1\AppData\Local\Temp\ccx4ZXSQ.s:27657  .debug_str:0000000000012b1e .LASF4790
C:\Users\CYMR90~1\AppData\Local\Temp\ccx4ZXSQ.s:27513  .debug_str:000000000001223c .LASF4791
C:\Users\CYMR90~1\AppData\Local\Temp\ccx4ZXSQ.s:29870  .debug_str:000000000001b89f .LASF4792
C:\Users\CYMR90~1\AppData\Local\Temp\ccx4ZXSQ.s:32072  .debug_str:0000000000024015 .LASF4793
C:\Users\CYMR90~1\AppData\Local\Temp\ccx4ZXSQ.s:27835  .debug_str:0000000000013679 .LASF4794
C:\Users\CYMR90~1\AppData\Local\Temp\ccx4ZXSQ.s:29522  .debug_str:000000000001a1e6 .LASF4795
C:\Users\CYMR90~1\AppData\Local\Temp\ccx4ZXSQ.s:30878  .debug_str:000000000001f798 .LASF4796
C:\Users\CYMR90~1\AppData\Local\Temp\ccx4ZXSQ.s:29264  .debug_str:0000000000019093 .LASF4797
C:\Users\CYMR90~1\AppData\Local\Temp\ccx4ZXSQ.s:32856  .debug_str:0000000000027307 .LASF4798
C:\Users\CYMR90~1\AppData\Local\Temp\ccx4ZXSQ.s:32394  .debug_str:0000000000025438 .LASF4799
C:\Users\CYMR90~1\AppData\Local\Temp\ccx4ZXSQ.s:26745  .debug_str:000000000000f11c .LASF4800
C:\Users\CYMR90~1\AppData\Local\Temp\ccx4ZXSQ.s:33400  .debug_str:0000000000029632 .LASF4801
C:\Users\CYMR90~1\AppData\Local\Temp\ccx4ZXSQ.s:33000  .debug_str:0000000000027b7f .LASF4802
C:\Users\CYMR90~1\AppData\Local\Temp\ccx4ZXSQ.s:23641  .debug_str:0000000000002bab .LASF4803
C:\Users\CYMR90~1\AppData\Local\Temp\ccx4ZXSQ.s:28367  .debug_str:00000000000157fa .LASF4804
C:\Users\CYMR90~1\AppData\Local\Temp\ccx4ZXSQ.s:32566  .debug_str:0000000000026081 .LASF4805
C:\Users\CYMR90~1\AppData\Local\Temp\ccx4ZXSQ.s:26263  .debug_str:000000000000d338 .LASF4806
C:\Users\CYMR90~1\AppData\Local\Temp\ccx4ZXSQ.s:24529  .debug_str:0000000000006381 .LASF4807
C:\Users\CYMR90~1\AppData\Local\Temp\ccx4ZXSQ.s:31440  .debug_str:00000000000219b1 .LASF4808
C:\Users\CYMR90~1\AppData\Local\Temp\ccx4ZXSQ.s:31704  .debug_str:0000000000022a17 .LASF4809
C:\Users\CYMR90~1\AppData\Local\Temp\ccx4ZXSQ.s:25379  .debug_str:0000000000009a06 .LASF4810
C:\Users\CYMR90~1\AppData\Local\Temp\ccx4ZXSQ.s:32118  .debug_str:00000000000242d2 .LASF4811
C:\Users\CYMR90~1\AppData\Local\Temp\ccx4ZXSQ.s:24797  .debug_str:00000000000074e9 .LASF4812
C:\Users\CYMR90~1\AppData\Local\Temp\ccx4ZXSQ.s:23575  .debug_str:000000000000276a .LASF4813
C:\Users\CYMR90~1\AppData\Local\Temp\ccx4ZXSQ.s:28541  .debug_str:0000000000016224 .LASF4814
C:\Users\CYMR90~1\AppData\Local\Temp\ccx4ZXSQ.s:30818  .debug_str:000000000001f43d .LASF4815
C:\Users\CYMR90~1\AppData\Local\Temp\ccx4ZXSQ.s:23253  .debug_str:000000000000135d .LASF4816
C:\Users\CYMR90~1\AppData\Local\Temp\ccx4ZXSQ.s:23401  .debug_str:0000000000001d2c .LASF4817
C:\Users\CYMR90~1\AppData\Local\Temp\ccx4ZXSQ.s:29934  .debug_str:000000000001bc63 .LASF4818
C:\Users\CYMR90~1\AppData\Local\Temp\ccx4ZXSQ.s:31968  .debug_str:00000000000239ec .LASF4819
C:\Users\CYMR90~1\AppData\Local\Temp\ccx4ZXSQ.s:27547  .debug_str:0000000000012456 .LASF4820
C:\Users\CYMR90~1\AppData\Local\Temp\ccx4ZXSQ.s:28081  .debug_str:000000000001460b .LASF4821
C:\Users\CYMR90~1\AppData\Local\Temp\ccx4ZXSQ.s:25341  .debug_str:0000000000009782 .LASF4822
C:\Users\CYMR90~1\AppData\Local\Temp\ccx4ZXSQ.s:33832  .debug_str:000000000002af87 .LASF4823
C:\Users\CYMR90~1\AppData\Local\Temp\ccx4ZXSQ.s:29354  .debug_str:0000000000019674 .LASF4824
C:\Users\CYMR90~1\AppData\Local\Temp\ccx4ZXSQ.s:33384  .debug_str:0000000000029561 .LASF4825
C:\Users\CYMR90~1\AppData\Local\Temp\ccx4ZXSQ.s:31160  .debug_str:00000000000208e0 .LASF4826
C:\Users\CYMR90~1\AppData\Local\Temp\ccx4ZXSQ.s:33302  .debug_str:0000000000028fea .LASF4827
C:\Users\CYMR90~1\AppData\Local\Temp\ccx4ZXSQ.s:26579  .debug_str:000000000000e6a3 .LASF4828
C:\Users\CYMR90~1\AppData\Local\Temp\ccx4ZXSQ.s:24999  .debug_str:0000000000008242 .LASF4829
C:\Users\CYMR90~1\AppData\Local\Temp\ccx4ZXSQ.s:34300  .debug_str:000000000002cc90 .LASF4830
C:\Users\CYMR90~1\AppData\Local\Temp\ccx4ZXSQ.s:30698  .debug_str:000000000001ed2e .LASF4831
C:\Users\CYMR90~1\AppData\Local\Temp\ccx4ZXSQ.s:30166  .debug_str:000000000001ca2f .LASF4832
C:\Users\CYMR90~1\AppData\Local\Temp\ccx4ZXSQ.s:28377  .debug_str:000000000001589a .LASF4833
C:\Users\CYMR90~1\AppData\Local\Temp\ccx4ZXSQ.s:32250  .debug_str:0000000000024b0c .LASF4834
C:\Users\CYMR90~1\AppData\Local\Temp\ccx4ZXSQ.s:31490  .debug_str:0000000000021d1c .LASF4835
C:\Users\CYMR90~1\AppData\Local\Temp\ccx4ZXSQ.s:25921  .debug_str:000000000000bd6b .LASF4836
C:\Users\CYMR90~1\AppData\Local\Temp\ccx4ZXSQ.s:29632  .debug_str:000000000001a82b .LASF4837
C:\Users\CYMR90~1\AppData\Local\Temp\ccx4ZXSQ.s:22939  .debug_str:00000000000000ae .LASF4838
C:\Users\CYMR90~1\AppData\Local\Temp\ccx4ZXSQ.s:27505  .debug_str:0000000000012121 .LASF4839
C:\Users\CYMR90~1\AppData\Local\Temp\ccx4ZXSQ.s:31530  .debug_str:0000000000021f7d .LASF4840
C:\Users\CYMR90~1\AppData\Local\Temp\ccx4ZXSQ.s:31796  .debug_str:0000000000022f47 .LASF4841
C:\Users\CYMR90~1\AppData\Local\Temp\ccx4ZXSQ.s:28611  .debug_str:00000000000166c4 .LASF4842
C:\Users\CYMR90~1\AppData\Local\Temp\ccx4ZXSQ.s:33652  .debug_str:000000000002a509 .LASF4843
C:\Users\CYMR90~1\AppData\Local\Temp\ccx4ZXSQ.s:26165  .debug_str:000000000000ccf8 .LASF4844
C:\Users\CYMR90~1\AppData\Local\Temp\ccx4ZXSQ.s:27687  .debug_str:0000000000012d0a .LASF4845
C:\Users\CYMR90~1\AppData\Local\Temp\ccx4ZXSQ.s:32094  .debug_str:0000000000024156 .LASF4846
C:\Users\CYMR90~1\AppData\Local\Temp\ccx4ZXSQ.s:32524  .debug_str:0000000000025d94 .LASF4847
C:\Users\CYMR90~1\AppData\Local\Temp\ccx4ZXSQ.s:27549  .debug_str:000000000001246b .LASF4848
C:\Users\CYMR90~1\AppData\Local\Temp\ccx4ZXSQ.s:27905  .debug_str:0000000000013b5e .LASF4849
C:\Users\CYMR90~1\AppData\Local\Temp\ccx4ZXSQ.s:23419  .debug_str:0000000000001e1f .LASF4850
C:\Users\CYMR90~1\AppData\Local\Temp\ccx4ZXSQ.s:24765  .debug_str:0000000000007289 .LASF4851
C:\Users\CYMR90~1\AppData\Local\Temp\ccx4ZXSQ.s:34120  .debug_str:000000000002c0a7 .LASF4852
C:\Users\CYMR90~1\AppData\Local\Temp\ccx4ZXSQ.s:25693  .debug_str:000000000000ae08 .LASF4853
C:\Users\CYMR90~1\AppData\Local\Temp\ccx4ZXSQ.s:34276  .debug_str:000000000002cb1f .LASF4854
C:\Users\CYMR90~1\AppData\Local\Temp\ccx4ZXSQ.s:26051  .debug_str:000000000000c60d .LASF4855
C:\Users\CYMR90~1\AppData\Local\Temp\ccx4ZXSQ.s:27757  .debug_str:0000000000013187 .LASF4856
C:\Users\CYMR90~1\AppData\Local\Temp\ccx4ZXSQ.s:23191  .debug_str:000000000000101c .LASF4857
C:\Users\CYMR90~1\AppData\Local\Temp\ccx4ZXSQ.s:29718  .debug_str:000000000001ae8b .LASF4858
C:\Users\CYMR90~1\AppData\Local\Temp\ccx4ZXSQ.s:24025  .debug_str:0000000000004406 .LASF4859
C:\Users\CYMR90~1\AppData\Local\Temp\ccx4ZXSQ.s:28840  .debug_str:000000000001775b .LASF4860
C:\Users\CYMR90~1\AppData\Local\Temp\ccx4ZXSQ.s:24297  .debug_str:000000000000555b .LASF4861
C:\Users\CYMR90~1\AppData\Local\Temp\ccx4ZXSQ.s:25447  .debug_str:0000000000009e43 .LASF4862
C:\Users\CYMR90~1\AppData\Local\Temp\ccx4ZXSQ.s:24575  .debug_str:000000000000664a .LASF4863
C:\Users\CYMR90~1\AppData\Local\Temp\ccx4ZXSQ.s:30506  .debug_str:000000000001e118 .LASF4864
C:\Users\CYMR90~1\AppData\Local\Temp\ccx4ZXSQ.s:29572  .debug_str:000000000001a4db .LASF4865
C:\Users\CYMR90~1\AppData\Local\Temp\ccx4ZXSQ.s:31728  .debug_str:0000000000022b78 .LASF4866
C:\Users\CYMR90~1\AppData\Local\Temp\ccx4ZXSQ.s:24147  .debug_str:0000000000004c76 .LASF4867
C:\Users\CYMR90~1\AppData\Local\Temp\ccx4ZXSQ.s:33664  .debug_str:000000000002a5da .LASF4868
C:\Users\CYMR90~1\AppData\Local\Temp\ccx4ZXSQ.s:29416  .debug_str:0000000000019ae6 .LASF4869
C:\Users\CYMR90~1\AppData\Local\Temp\ccx4ZXSQ.s:26771  .debug_str:000000000000f291 .LASF4870
C:\Users\CYMR90~1\AppData\Local\Temp\ccx4ZXSQ.s:25729  .debug_str:000000000000b04b .LASF4871
C:\Users\CYMR90~1\AppData\Local\Temp\ccx4ZXSQ.s:23043  .debug_str:00000000000006bd .LASF4872
C:\Users\CYMR90~1\AppData\Local\Temp\ccx4ZXSQ.s:25167  .debug_str:0000000000008d04 .LASF4873
C:\Users\CYMR90~1\AppData\Local\Temp\ccx4ZXSQ.s:25931  .debug_str:000000000000bdf5 .LASF4874
C:\Users\CYMR90~1\AppData\Local\Temp\ccx4ZXSQ.s:26723  .debug_str:000000000000efb4 .LASF4875
C:\Users\CYMR90~1\AppData\Local\Temp\ccx4ZXSQ.s:24803  .debug_str:0000000000007548 .LASF4876
C:\Users\CYMR90~1\AppData\Local\Temp\ccx4ZXSQ.s:23085  .debug_str:00000000000008e5 .LASF4877
C:\Users\CYMR90~1\AppData\Local\Temp\ccx4ZXSQ.s:30428  .debug_str:000000000001dbff .LASF4878
C:\Users\CYMR90~1\AppData\Local\Temp\ccx4ZXSQ.s:24223  .debug_str:000000000000512a .LASF4879
C:\Users\CYMR90~1\AppData\Local\Temp\ccx4ZXSQ.s:29988  .debug_str:000000000001bf8e .LASF4880
C:\Users\CYMR90~1\AppData\Local\Temp\ccx4ZXSQ.s:28103  .debug_str:000000000001473f .LASF4881
C:\Users\CYMR90~1\AppData\Local\Temp\ccx4ZXSQ.s:34396  .debug_str:000000000002d2d0 .LASF4882
C:\Users\CYMR90~1\AppData\Local\Temp\ccx4ZXSQ.s:33330  .debug_str:0000000000029216 .LASF4883
C:\Users\CYMR90~1\AppData\Local\Temp\ccx4ZXSQ.s:23367  .debug_str:0000000000001b02 .LASF4884
C:\Users\CYMR90~1\AppData\Local\Temp\ccx4ZXSQ.s:23489  .debug_str:0000000000002219 .LASF4885
C:\Users\CYMR90~1\AppData\Local\Temp\ccx4ZXSQ.s:27141  .debug_str:000000000001096a .LASF4886
C:\Users\CYMR90~1\AppData\Local\Temp\ccx4ZXSQ.s:31010  .debug_str:000000000001ffb0 .LASF4887
C:\Users\CYMR90~1\AppData\Local\Temp\ccx4ZXSQ.s:27283  .debug_str:0000000000011292 .LASF4888
C:\Users\CYMR90~1\AppData\Local\Temp\ccx4ZXSQ.s:31706  .debug_str:0000000000022a2f .LASF4889
C:\Users\CYMR90~1\AppData\Local\Temp\ccx4ZXSQ.s:27965  .debug_str:0000000000013efb .LASF4890
C:\Users\CYMR90~1\AppData\Local\Temp\ccx4ZXSQ.s:24989  .debug_str:00000000000081ad .LASF4891
C:\Users\CYMR90~1\AppData\Local\Temp\ccx4ZXSQ.s:31944  .debug_str:0000000000023861 .LASF4892
C:\Users\CYMR90~1\AppData\Local\Temp\ccx4ZXSQ.s:34122  .debug_str:000000000002c0cb .LASF4893
C:\Users\CYMR90~1\AppData\Local\Temp\ccx4ZXSQ.s:29162  .debug_str:0000000000018a8d .LASF4894
C:\Users\CYMR90~1\AppData\Local\Temp\ccx4ZXSQ.s:30074  .debug_str:000000000001c4b5 .LASF4895
C:\Users\CYMR90~1\AppData\Local\Temp\ccx4ZXSQ.s:27439  .debug_str:0000000000011c62 .LASF4896
C:\Users\CYMR90~1\AppData\Local\Temp\ccx4ZXSQ.s:24347  .debug_str:0000000000005893 .LASF4897
C:\Users\CYMR90~1\AppData\Local\Temp\ccx4ZXSQ.s:24859  .debug_str:00000000000078b8 .LASF4898
C:\Users\CYMR90~1\AppData\Local\Temp\ccx4ZXSQ.s:23801  .debug_str:0000000000003616 .LASF4899
C:\Users\CYMR90~1\AppData\Local\Temp\ccx4ZXSQ.s:32332  .debug_str:0000000000025043 .LASF4900
C:\Users\CYMR90~1\AppData\Local\Temp\ccx4ZXSQ.s:27081  .debug_str:0000000000010555 .LASF4901
C:\Users\CYMR90~1\AppData\Local\Temp\ccx4ZXSQ.s:28902  .debug_str:0000000000017ac4 .LASF4902
C:\Users\CYMR90~1\AppData\Local\Temp\ccx4ZXSQ.s:25289  .debug_str:00000000000094ad .LASF4903
C:\Users\CYMR90~1\AppData\Local\Temp\ccx4ZXSQ.s:31598  .debug_str:00000000000223aa .LASF4904
C:\Users\CYMR90~1\AppData\Local\Temp\ccx4ZXSQ.s:33574  .debug_str:000000000002a0c3 .LASF4905
C:\Users\CYMR90~1\AppData\Local\Temp\ccx4ZXSQ.s:34466  .debug_str:000000000002d7a0 .LASF4906
C:\Users\CYMR90~1\AppData\Local\Temp\ccx4ZXSQ.s:33464  .debug_str:0000000000029a05 .LASF4907
C:\Users\CYMR90~1\AppData\Local\Temp\ccx4ZXSQ.s:31828  .debug_str:000000000002318f .LASF4908
C:\Users\CYMR90~1\AppData\Local\Temp\ccx4ZXSQ.s:31674  .debug_str:0000000000022877 .LASF4909
C:\Users\CYMR90~1\AppData\Local\Temp\ccx4ZXSQ.s:28828  .debug_str:000000000001769d .LASF4910
C:\Users\CYMR90~1\AppData\Local\Temp\ccx4ZXSQ.s:27837  .debug_str:0000000000013693 .LASF4911
C:\Users\CYMR90~1\AppData\Local\Temp\ccx4ZXSQ.s:26323  .debug_str:000000000000d6fa .LASF4912
C:\Users\CYMR90~1\AppData\Local\Temp\ccx4ZXSQ.s:24751  .debug_str:000000000000719a .LASF4913
C:\Users\CYMR90~1\AppData\Local\Temp\ccx4ZXSQ.s:31736  .debug_str:0000000000022c09 .LASF4914
C:\Users\CYMR90~1\AppData\Local\Temp\ccx4ZXSQ.s:26189  .debug_str:000000000000cf2a .LASF4915
C:\Users\CYMR90~1\AppData\Local\Temp\ccx4ZXSQ.s:31962  .debug_str:0000000000023987 .LASF4916
C:\Users\CYMR90~1\AppData\Local\Temp\ccx4ZXSQ.s:28003  .debug_str:000000000001416e .LASF4917
C:\Users\CYMR90~1\AppData\Local\Temp\ccx4ZXSQ.s:30308  .debug_str:000000000001d38c .LASF4918
C:\Users\CYMR90~1\AppData\Local\Temp\ccx4ZXSQ.s:28974  .debug_str:0000000000017f2e .LASF4919
C:\Users\CYMR90~1\AppData\Local\Temp\ccx4ZXSQ.s:28575  .debug_str:000000000001646a .LASF4920
C:\Users\CYMR90~1\AppData\Local\Temp\ccx4ZXSQ.s:24627  .debug_str:00000000000069a1 .LASF4921
C:\Users\CYMR90~1\AppData\Local\Temp\ccx4ZXSQ.s:25793  .debug_str:000000000000b514 .LASF4922
C:\Users\CYMR90~1\AppData\Local\Temp\ccx4ZXSQ.s:28125  .debug_str:00000000000148d1 .LASF4923
C:\Users\CYMR90~1\AppData\Local\Temp\ccx4ZXSQ.s:31930  .debug_str:00000000000237b1 .LASF4924
C:\Users\CYMR90~1\AppData\Local\Temp\ccx4ZXSQ.s:32912  .debug_str:0000000000027637 .LASF4925
C:\Users\CYMR90~1\AppData\Local\Temp\ccx4ZXSQ.s:30112  .debug_str:000000000001c730 .LASF4926
C:\Users\CYMR90~1\AppData\Local\Temp\ccx4ZXSQ.s:24265  .debug_str:0000000000005367 .LASF4927
C:\Users\CYMR90~1\AppData\Local\Temp\ccx4ZXSQ.s:29412  .debug_str:0000000000019aa9 .LASF4928
C:\Users\CYMR90~1\AppData\Local\Temp\ccx4ZXSQ.s:25843  .debug_str:000000000000b7d4 .LASF4929
C:\Users\CYMR90~1\AppData\Local\Temp\ccx4ZXSQ.s:27015  .debug_str:0000000000010131 .LASF4930
C:\Users\CYMR90~1\AppData\Local\Temp\ccx4ZXSQ.s:34222  .debug_str:000000000002c771 .LASF4931
C:\Users\CYMR90~1\AppData\Local\Temp\ccx4ZXSQ.s:32456  .debug_str:0000000000025854 .LASF4932
C:\Users\CYMR90~1\AppData\Local\Temp\ccx4ZXSQ.s:26465  .debug_str:000000000000dfcb .LASF4933
C:\Users\CYMR90~1\AppData\Local\Temp\ccx4ZXSQ.s:24355  .debug_str:0000000000005902 .LASF4934
C:\Users\CYMR90~1\AppData\Local\Temp\ccx4ZXSQ.s:33696  .debug_str:000000000002a787 .LASF4935
C:\Users\CYMR90~1\AppData\Local\Temp\ccx4ZXSQ.s:31402  .debug_str:0000000000021799 .LASF4936
C:\Users\CYMR90~1\AppData\Local\Temp\ccx4ZXSQ.s:24359  .debug_str:0000000000005962 .LASF4937
C:\Users\CYMR90~1\AppData\Local\Temp\ccx4ZXSQ.s:33902  .debug_str:000000000002b36b .LASF4938
C:\Users\CYMR90~1\AppData\Local\Temp\ccx4ZXSQ.s:24453  .debug_str:0000000000005ec9 .LASF4939
C:\Users\CYMR90~1\AppData\Local\Temp\ccx4ZXSQ.s:33798  .debug_str:000000000002ad3a .LASF4940
C:\Users\CYMR90~1\AppData\Local\Temp\ccx4ZXSQ.s:31590  .debug_str:0000000000022330 .LASF4941
C:\Users\CYMR90~1\AppData\Local\Temp\ccx4ZXSQ.s:32716  .debug_str:0000000000026aa1 .LASF4942
C:\Users\CYMR90~1\AppData\Local\Temp\ccx4ZXSQ.s:24183  .debug_str:0000000000004eb7 .LASF4943
C:\Users\CYMR90~1\AppData\Local\Temp\ccx4ZXSQ.s:31474  .debug_str:0000000000021b8d .LASF4944
C:\Users\CYMR90~1\AppData\Local\Temp\ccx4ZXSQ.s:31320  .debug_str:00000000000212f0 .LASF4945
C:\Users\CYMR90~1\AppData\Local\Temp\ccx4ZXSQ.s:33854  .debug_str:000000000002b0e1 .LASF4946
C:\Users\CYMR90~1\AppData\Local\Temp\ccx4ZXSQ.s:32862  .debug_str:0000000000027366 .LASF4947
C:\Users\CYMR90~1\AppData\Local\Temp\ccx4ZXSQ.s:24369  .debug_str:00000000000059c5 .LASF4948
C:\Users\CYMR90~1\AppData\Local\Temp\ccx4ZXSQ.s:27421  .debug_str:0000000000011b28 .LASF4949
C:\Users\CYMR90~1\AppData\Local\Temp\ccx4ZXSQ.s:25583  .debug_str:000000000000a6e2 .LASF4950
C:\Users\CYMR90~1\AppData\Local\Temp\ccx4ZXSQ.s:33408  .debug_str:0000000000029698 .LASF4951
C:\Users\CYMR90~1\AppData\Local\Temp\ccx4ZXSQ.s:30336  .debug_str:000000000001d58d .LASF4952
C:\Users\CYMR90~1\AppData\Local\Temp\ccx4ZXSQ.s:27023  .debug_str:0000000000010194 .LASF4953
C:\Users\CYMR90~1\AppData\Local\Temp\ccx4ZXSQ.s:28289  .debug_str:00000000000152ca .LASF4954
C:\Users\CYMR90~1\AppData\Local\Temp\ccx4ZXSQ.s:34392  .debug_str:000000000002d294 .LASF4955
C:\Users\CYMR90~1\AppData\Local\Temp\ccx4ZXSQ.s:23849  .debug_str:0000000000003935 .LASF4956
C:\Users\CYMR90~1\AppData\Local\Temp\ccx4ZXSQ.s:32506  .debug_str:0000000000025c79 .LASF4957
C:\Users\CYMR90~1\AppData\Local\Temp\ccx4ZXSQ.s:27207  .debug_str:0000000000010df4 .LASF4958
C:\Users\CYMR90~1\AppData\Local\Temp\ccx4ZXSQ.s:30510  .debug_str:000000000001e15f .LASF4959
C:\Users\CYMR90~1\AppData\Local\Temp\ccx4ZXSQ.s:27883  .debug_str:000000000001397a .LASF4960
C:\Users\CYMR90~1\AppData\Local\Temp\ccx4ZXSQ.s:30656  .debug_str:000000000001ea8c .LASF4961
C:\Users\CYMR90~1\AppData\Local\Temp\ccx4ZXSQ.s:23633  .debug_str:0000000000002b27 .LASF4962
C:\Users\CYMR90~1\AppData\Local\Temp\ccx4ZXSQ.s:32972  .debug_str:00000000000279f4 .LASF4963
C:\Users\CYMR90~1\AppData\Local\Temp\ccx4ZXSQ.s:27743  .debug_str:0000000000013090 .LASF4964
C:\Users\CYMR90~1\AppData\Local\Temp\ccx4ZXSQ.s:32314  .debug_str:0000000000024f2f .LASF4965
C:\Users\CYMR90~1\AppData\Local\Temp\ccx4ZXSQ.s:23725  .debug_str:00000000000030f2 .LASF4966
C:\Users\CYMR90~1\AppData\Local\Temp\ccx4ZXSQ.s:30534  .debug_str:000000000001e2d4 .LASF4967
C:\Users\CYMR90~1\AppData\Local\Temp\ccx4ZXSQ.s:30574  .debug_str:000000000001e52b .LASF4968
C:\Users\CYMR90~1\AppData\Local\Temp\ccx4ZXSQ.s:23271  .debug_str:0000000000001467 .LASF4969
C:\Users\CYMR90~1\AppData\Local\Temp\ccx4ZXSQ.s:24891  .debug_str:0000000000007ad3 .LASF4970
C:\Users\CYMR90~1\AppData\Local\Temp\ccx4ZXSQ.s:32416  .debug_str:00000000000255ae .LASF4971
C:\Users\CYMR90~1\AppData\Local\Temp\ccx4ZXSQ.s:30712  .debug_str:000000000001ee27 .LASF4972
C:\Users\CYMR90~1\AppData\Local\Temp\ccx4ZXSQ.s:29582  .debug_str:000000000001a543 .LASF4973
C:\Users\CYMR90~1\AppData\Local\Temp\ccx4ZXSQ.s:28311  .debug_str:0000000000015456 .LASF4974
C:\Users\CYMR90~1\AppData\Local\Temp\ccx4ZXSQ.s:23029  .debug_str:000000000000061b .LASF4975
C:\Users\CYMR90~1\AppData\Local\Temp\ccx4ZXSQ.s:34110  .debug_str:000000000002c008 .LASF4976
C:\Users\CYMR90~1\AppData\Local\Temp\ccx4ZXSQ.s:24737  .debug_str:00000000000070ba .LASF4977
C:\Users\CYMR90~1\AppData\Local\Temp\ccx4ZXSQ.s:23385  .debug_str:0000000000001c10 .LASF4978
C:\Users\CYMR90~1\AppData\Local\Temp\ccx4ZXSQ.s:33222  .debug_str:0000000000028a08 .LASF4979
C:\Users\CYMR90~1\AppData\Local\Temp\ccx4ZXSQ.s:33458  .debug_str:0000000000029968 .LASF4980
C:\Users\CYMR90~1\AppData\Local\Temp\ccx4ZXSQ.s:22949  .debug_str:0000000000000146 .LASF4981
C:\Users\CYMR90~1\AppData\Local\Temp\ccx4ZXSQ.s:34340  .debug_str:000000000002cf2f .LASF4982
C:\Users\CYMR90~1\AppData\Local\Temp\ccx4ZXSQ.s:25681  .debug_str:000000000000ad3d .LASF4983
C:\Users\CYMR90~1\AppData\Local\Temp\ccx4ZXSQ.s:32432  .debug_str:00000000000256d1 .LASF4984
C:\Users\CYMR90~1\AppData\Local\Temp\ccx4ZXSQ.s:31184  .debug_str:0000000000020a5f .LASF4985
C:\Users\CYMR90~1\AppData\Local\Temp\ccx4ZXSQ.s:33002  .debug_str:0000000000027bcf .LASF4986
C:\Users\CYMR90~1\AppData\Local\Temp\ccx4ZXSQ.s:27121  .debug_str:0000000000010838 .LASF4987
C:\Users\CYMR90~1\AppData\Local\Temp\ccx4ZXSQ.s:33182  .debug_str:000000000002879b .LASF4988
C:\Users\CYMR90~1\AppData\Local\Temp\ccx4ZXSQ.s:31484  .debug_str:0000000000021c1d .LASF4989
C:\Users\CYMR90~1\AppData\Local\Temp\ccx4ZXSQ.s:24407  .debug_str:0000000000005c12 .LASF4990
C:\Users\CYMR90~1\AppData\Local\Temp\ccx4ZXSQ.s:27111  .debug_str:000000000001077f .LASF4991
C:\Users\CYMR90~1\AppData\Local\Temp\ccx4ZXSQ.s:26873  .debug_str:000000000000f88c .LASF4992
C:\Users\CYMR90~1\AppData\Local\Temp\ccx4ZXSQ.s:26047  .debug_str:000000000000c5c0 .LASF4993
C:\Users\CYMR90~1\AppData\Local\Temp\ccx4ZXSQ.s:25853  .debug_str:000000000000b85e .LASF4994
C:\Users\CYMR90~1\AppData\Local\Temp\ccx4ZXSQ.s:30286  .debug_str:000000000001d23d .LASF4995
C:\Users\CYMR90~1\AppData\Local\Temp\ccx4ZXSQ.s:27545  .debug_str:0000000000012424 .LASF4996
C:\Users\CYMR90~1\AppData\Local\Temp\ccx4ZXSQ.s:33106  .debug_str:000000000002824e .LASF4997
C:\Users\CYMR90~1\AppData\Local\Temp\ccx4ZXSQ.s:24555  .debug_str:00000000000064ee .LASF4998
C:\Users\CYMR90~1\AppData\Local\Temp\ccx4ZXSQ.s:30280  .debug_str:000000000001d1ca .LASF4999
C:\Users\CYMR90~1\AppData\Local\Temp\ccx4ZXSQ.s:27093  .debug_str:0000000000010637 .LASF5000
C:\Users\CYMR90~1\AppData\Local\Temp\ccx4ZXSQ.s:31450  .debug_str:0000000000021a1e .LASF5001
C:\Users\CYMR90~1\AppData\Local\Temp\ccx4ZXSQ.s:24193  .debug_str:0000000000004f6f .LASF5002
C:\Users\CYMR90~1\AppData\Local\Temp\ccx4ZXSQ.s:23731  .debug_str:000000000000313e .LASF5003
C:\Users\CYMR90~1\AppData\Local\Temp\ccx4ZXSQ.s:32930  .debug_str:0000000000027726 .LASF5004
C:\Users\CYMR90~1\AppData\Local\Temp\ccx4ZXSQ.s:28417  .debug_str:0000000000015af2 .LASF5005
C:\Users\CYMR90~1\AppData\Local\Temp\ccx4ZXSQ.s:24051  .debug_str:00000000000045a2 .LASF5006
C:\Users\CYMR90~1\AppData\Local\Temp\ccx4ZXSQ.s:30602  .debug_str:000000000001e75d .LASF5007
C:\Users\CYMR90~1\AppData\Local\Temp\ccx4ZXSQ.s:25239  .debug_str:00000000000091d3 .LASF5008
C:\Users\CYMR90~1\AppData\Local\Temp\ccx4ZXSQ.s:31638  .debug_str:0000000000022655 .LASF5009
C:\Users\CYMR90~1\AppData\Local\Temp\ccx4ZXSQ.s:32030  .debug_str:0000000000023d4c .LASF5010
C:\Users\CYMR90~1\AppData\Local\Temp\ccx4ZXSQ.s:32790  .debug_str:0000000000026f1a .LASF5011
C:\Users\CYMR90~1\AppData\Local\Temp\ccx4ZXSQ.s:33226  .debug_str:0000000000028a91 .LASF5012
C:\Users\CYMR90~1\AppData\Local\Temp\ccx4ZXSQ.s:24581  .debug_str:00000000000066a5 .LASF5013
C:\Users\CYMR90~1\AppData\Local\Temp\ccx4ZXSQ.s:23891  .debug_str:0000000000003bf5 .LASF5014
C:\Users\CYMR90~1\AppData\Local\Temp\ccx4ZXSQ.s:24033  .debug_str:0000000000004468 .LASF5015
C:\Users\CYMR90~1\AppData\Local\Temp\ccx4ZXSQ.s:32206  .debug_str:00000000000247dc .LASF5016
C:\Users\CYMR90~1\AppData\Local\Temp\ccx4ZXSQ.s:25413  .debug_str:0000000000009c24 .LASF5017
C:\Users\CYMR90~1\AppData\Local\Temp\ccx4ZXSQ.s:29826  .debug_str:000000000001b531 .LASF5018
C:\Users\CYMR90~1\AppData\Local\Temp\ccx4ZXSQ.s:23995  .debug_str:000000000000425f .LASF5019
C:\Users\CYMR90~1\AppData\Local\Temp\ccx4ZXSQ.s:28563  .debug_str:000000000001636a .LASF5020
C:\Users\CYMR90~1\AppData\Local\Temp\ccx4ZXSQ.s:25041  .debug_str:00000000000085a1 .LASF5021
C:\Users\CYMR90~1\AppData\Local\Temp\ccx4ZXSQ.s:23971  .debug_str:0000000000004103 .LASF5022
C:\Users\CYMR90~1\AppData\Local\Temp\ccx4ZXSQ.s:33732  .debug_str:000000000002a987 .LASF5023
C:\Users\CYMR90~1\AppData\Local\Temp\ccx4ZXSQ.s:24857  .debug_str:0000000000007886 .LASF5024
C:\Users\CYMR90~1\AppData\Local\Temp\ccx4ZXSQ.s:31002  .debug_str:000000000001ff36 .LASF5025
C:\Users\CYMR90~1\AppData\Local\Temp\ccx4ZXSQ.s:23585  .debug_str:0000000000002822 .LASF5026
C:\Users\CYMR90~1\AppData\Local\Temp\ccx4ZXSQ.s:29142  .debug_str:000000000001894f .LASF5027
C:\Users\CYMR90~1\AppData\Local\Temp\ccx4ZXSQ.s:34464  .debug_str:000000000002d76e .LASF5028
C:\Users\CYMR90~1\AppData\Local\Temp\ccx4ZXSQ.s:25051  .debug_str:0000000000008631 .LASF5029
C:\Users\CYMR90~1\AppData\Local\Temp\ccx4ZXSQ.s:32672  .debug_str:00000000000267c0 .LASF5030
C:\Users\CYMR90~1\AppData\Local\Temp\ccx4ZXSQ.s:27685  .debug_str:0000000000012cd8 .LASF5031
C:\Users\CYMR90~1\AppData\Local\Temp\ccx4ZXSQ.s:31948  .debug_str:00000000000238a3 .LASF5032
C:\Users\CYMR90~1\AppData\Local\Temp\ccx4ZXSQ.s:23129  .debug_str:0000000000000c03 .LASF5033
C:\Users\CYMR90~1\AppData\Local\Temp\ccx4ZXSQ.s:27733  .debug_str:0000000000012fd0 .LASF5034
C:\Users\CYMR90~1\AppData\Local\Temp\ccx4ZXSQ.s:31136  .debug_str:0000000000020757 .LASF5035
C:\Users\CYMR90~1\AppData\Local\Temp\ccx4ZXSQ.s:33530  .debug_str:0000000000029deb .LASF5036
C:\Users\CYMR90~1\AppData\Local\Temp\ccx4ZXSQ.s:32708  .debug_str:0000000000026a2e .LASF5037
C:\Users\CYMR90~1\AppData\Local\Temp\ccx4ZXSQ.s:23879  .debug_str:0000000000003b1e .LASF5038
C:\Users\CYMR90~1\AppData\Local\Temp\ccx4ZXSQ.s:32650  .debug_str:0000000000026676 .LASF5039
C:\Users\CYMR90~1\AppData\Local\Temp\ccx4ZXSQ.s:28707  .debug_str:0000000000016ca4 .LASF5040
C:\Users\CYMR90~1\AppData\Local\Temp\ccx4ZXSQ.s:32256  .debug_str:0000000000024b83 .LASF5041
C:\Users\CYMR90~1\AppData\Local\Temp\ccx4ZXSQ.s:28551  .debug_str:00000000000162a9 .LASF5042
C:\Users\CYMR90~1\AppData\Local\Temp\ccx4ZXSQ.s:28986  .debug_str:0000000000017ff3 .LASF5043
C:\Users\CYMR90~1\AppData\Local\Temp\ccx4ZXSQ.s:25919  .debug_str:000000000000bd49 .LASF5044
C:\Users\CYMR90~1\AppData\Local\Temp\ccx4ZXSQ.s:28319  .debug_str:00000000000154da .LASF5045
C:\Users\CYMR90~1\AppData\Local\Temp\ccx4ZXSQ.s:31342  .debug_str:000000000002142a .LASF5046
C:\Users\CYMR90~1\AppData\Local\Temp\ccx4ZXSQ.s:28343  .debug_str:000000000001568f .LASF5047
C:\Users\CYMR90~1\AppData\Local\Temp\ccx4ZXSQ.s:32738  .debug_str:0000000000026c12 .LASF5048
C:\Users\CYMR90~1\AppData\Local\Temp\ccx4ZXSQ.s:27045  .debug_str:0000000000010305 .LASF5049
C:\Users\CYMR90~1\AppData\Local\Temp\ccx4ZXSQ.s:30240  .debug_str:000000000001cea6 .LASF5050
C:\Users\CYMR90~1\AppData\Local\Temp\ccx4ZXSQ.s:24965  .debug_str:0000000000007f78 .LASF5051
C:\Users\CYMR90~1\AppData\Local\Temp\ccx4ZXSQ.s:26671  .debug_str:000000000000ec94 .LASF5052
C:\Users\CYMR90~1\AppData\Local\Temp\ccx4ZXSQ.s:22941  .debug_str:00000000000000d1 .LASF5053
C:\Users\CYMR90~1\AppData\Local\Temp\ccx4ZXSQ.s:27959  .debug_str:0000000000013eba .LASF5054
C:\Users\CYMR90~1\AppData\Local\Temp\ccx4ZXSQ.s:24325  .debug_str:0000000000005721 .LASF5055
C:\Users\CYMR90~1\AppData\Local\Temp\ccx4ZXSQ.s:29242  .debug_str:0000000000018f5d .LASF5056
C:\Users\CYMR90~1\AppData\Local\Temp\ccx4ZXSQ.s:26553  .debug_str:000000000000e51c .LASF5057
C:\Users\CYMR90~1\AppData\Local\Temp\ccx4ZXSQ.s:27097  .debug_str:0000000000010685 .LASF5058
C:\Users\CYMR90~1\AppData\Local\Temp\ccx4ZXSQ.s:27047  .debug_str:0000000000010328 .LASF5059
C:\Users\CYMR90~1\AppData\Local\Temp\ccx4ZXSQ.s:28952  .debug_str:0000000000017dc6 .LASF5060
C:\Users\CYMR90~1\AppData\Local\Temp\ccx4ZXSQ.s:28389  .debug_str:0000000000015932 .LASF5061
C:\Users\CYMR90~1\AppData\Local\Temp\ccx4ZXSQ.s:27769  .debug_str:0000000000013269 .LASF5062
C:\Users\CYMR90~1\AppData\Local\Temp\ccx4ZXSQ.s:30220  .debug_str:000000000001cd4a .LASF5063
C:\Users\CYMR90~1\AppData\Local\Temp\ccx4ZXSQ.s:24755  .debug_str:00000000000071f6 .LASF5064
C:\Users\CYMR90~1\AppData\Local\Temp\ccx4ZXSQ.s:23307  .debug_str:0000000000001688 .LASF5065
C:\Users\CYMR90~1\AppData\Local\Temp\ccx4ZXSQ.s:28405  .debug_str:0000000000015a5e .LASF5066
C:\Users\CYMR90~1\AppData\Local\Temp\ccx4ZXSQ.s:27833  .debug_str:0000000000013655 .LASF5067
C:\Users\CYMR90~1\AppData\Local\Temp\ccx4ZXSQ.s:30522  .debug_str:000000000001e219 .LASF5068
C:\Users\CYMR90~1\AppData\Local\Temp\ccx4ZXSQ.s:23529  .debug_str:0000000000002487 .LASF5069
C:\Users\CYMR90~1\AppData\Local\Temp\ccx4ZXSQ.s:25679  .debug_str:000000000000ad19 .LASF5070
C:\Users\CYMR90~1\AppData\Local\Temp\ccx4ZXSQ.s:23267  .debug_str:0000000000001426 .LASF5071
C:\Users\CYMR90~1\AppData\Local\Temp\ccx4ZXSQ.s:27383  .debug_str:00000000000118a5 .LASF5072
C:\Users\CYMR90~1\AppData\Local\Temp\ccx4ZXSQ.s:29596  .debug_str:000000000001a61f .LASF5073
C:\Users\CYMR90~1\AppData\Local\Temp\ccx4ZXSQ.s:28107  .debug_str:000000000001477d .LASF5074
C:\Users\CYMR90~1\AppData\Local\Temp\ccx4ZXSQ.s:33452  .debug_str:0000000000029923 .LASF5075
C:\Users\CYMR90~1\AppData\Local\Temp\ccx4ZXSQ.s:29982  .debug_str:000000000001bf3d .LASF5076
C:\Users\CYMR90~1\AppData\Local\Temp\ccx4ZXSQ.s:27461  .debug_str:0000000000011ddc .LASF5077
C:\Users\CYMR90~1\AppData\Local\Temp\ccx4ZXSQ.s:33838  .debug_str:000000000002afec .LASF5078
C:\Users\CYMR90~1\AppData\Local\Temp\ccx4ZXSQ.s:34154  .debug_str:000000000002c2f8 .LASF5079
C:\Users\CYMR90~1\AppData\Local\Temp\ccx4ZXSQ.s:25709  .debug_str:000000000000af1a .LASF5080
C:\Users\CYMR90~1\AppData\Local\Temp\ccx4ZXSQ.s:24191  .debug_str:0000000000004f4b .LASF5081
C:\Users\CYMR90~1\AppData\Local\Temp\ccx4ZXSQ.s:34374  .debug_str:000000000002d151 .LASF5082
C:\Users\CYMR90~1\AppData\Local\Temp\ccx4ZXSQ.s:27529  .debug_str:0000000000012320 .LASF5083
C:\Users\CYMR90~1\AppData\Local\Temp\ccx4ZXSQ.s:23061  .debug_str:00000000000007c8 .LASF5084
C:\Users\CYMR90~1\AppData\Local\Temp\ccx4ZXSQ.s:32136  .debug_str:00000000000243f5 .LASF5085
C:\Users\CYMR90~1\AppData\Local\Temp\ccx4ZXSQ.s:28659  .debug_str:0000000000016a01 .LASF5086
C:\Users\CYMR90~1\AppData\Local\Temp\ccx4ZXSQ.s:27059  .debug_str:0000000000010417 .LASF5087
C:\Users\CYMR90~1\AppData\Local\Temp\ccx4ZXSQ.s:33312  .debug_str:000000000002909b .LASF5088
C:\Users\CYMR90~1\AppData\Local\Temp\ccx4ZXSQ.s:31282  .debug_str:000000000002108f .LASF5089
C:\Users\CYMR90~1\AppData\Local\Temp\ccx4ZXSQ.s:33024  .debug_str:0000000000027de0 .LASF5090
C:\Users\CYMR90~1\AppData\Local\Temp\ccx4ZXSQ.s:33152  .debug_str:000000000002856c .LASF5091
C:\Users\CYMR90~1\AppData\Local\Temp\ccx4ZXSQ.s:34130  .debug_str:000000000002c14d .LASF5092
C:\Users\CYMR90~1\AppData\Local\Temp\ccx4ZXSQ.s:26223  .debug_str:000000000000d10d .LASF5093
C:\Users\CYMR90~1\AppData\Local\Temp\ccx4ZXSQ.s:34320  .debug_str:000000000002ce1b .LASF5094
C:\Users\CYMR90~1\AppData\Local\Temp\ccx4ZXSQ.s:24089  .debug_str:000000000000482c .LASF5095
C:\Users\CYMR90~1\AppData\Local\Temp\ccx4ZXSQ.s:27389  .debug_str:000000000001191b .LASF5096
C:\Users\CYMR90~1\AppData\Local\Temp\ccx4ZXSQ.s:30352  .debug_str:000000000001d71c .LASF5097
C:\Users\CYMR90~1\AppData\Local\Temp\ccx4ZXSQ.s:28888  .debug_str:00000000000179f7 .LASF5098
C:\Users\CYMR90~1\AppData\Local\Temp\ccx4ZXSQ.s:33390  .debug_str:00000000000295bb .LASF5099
C:\Users\CYMR90~1\AppData\Local\Temp\ccx4ZXSQ.s:23677  .debug_str:0000000000002e1c .LASF5100
C:\Users\CYMR90~1\AppData\Local\Temp\ccx4ZXSQ.s:26073  .debug_str:000000000000c761 .LASF5101
C:\Users\CYMR90~1\AppData\Local\Temp\ccx4ZXSQ.s:30460  .debug_str:000000000001de18 .LASF5102
C:\Users\CYMR90~1\AppData\Local\Temp\ccx4ZXSQ.s:24851  .debug_str:0000000000007821 .LASF5103
C:\Users\CYMR90~1\AppData\Local\Temp\ccx4ZXSQ.s:24159  .debug_str:0000000000004d35 .LASF5104
C:\Users\CYMR90~1\AppData\Local\Temp\ccx4ZXSQ.s:24981  .debug_str:0000000000008117 .LASF5105
C:\Users\CYMR90~1\AppData\Local\Temp\ccx4ZXSQ.s:23491  .debug_str:000000000000223d .LASF5106
C:\Users\CYMR90~1\AppData\Local\Temp\ccx4ZXSQ.s:33654  .debug_str:000000000002a52e .LASF5107
C:\Users\CYMR90~1\AppData\Local\Temp\ccx4ZXSQ.s:23577  .debug_str:0000000000002783 .LASF5108
C:\Users\CYMR90~1\AppData\Local\Temp\ccx4ZXSQ.s:32160  .debug_str:000000000002453c .LASF5109
C:\Users\CYMR90~1\AppData\Local\Temp\ccx4ZXSQ.s:27469  .debug_str:0000000000011e4c .LASF5110
C:\Users\CYMR90~1\AppData\Local\Temp\ccx4ZXSQ.s:29926  .debug_str:000000000001bbcf .LASF5111
C:\Users\CYMR90~1\AppData\Local\Temp\ccx4ZXSQ.s:27085  .debug_str:000000000001059a .LASF5112
C:\Users\CYMR90~1\AppData\Local\Temp\ccx4ZXSQ.s:23389  .debug_str:0000000000001c5a .LASF5113
C:\Users\CYMR90~1\AppData\Local\Temp\ccx4ZXSQ.s:31688  .debug_str:0000000000022918 .LASF5114
C:\Users\CYMR90~1\AppData\Local\Temp\ccx4ZXSQ.s:28309  .debug_str:0000000000015432 .LASF5115
C:\Users\CYMR90~1\AppData\Local\Temp\ccx4ZXSQ.s:26877  .debug_str:000000000000f8d6 .LASF5116
C:\Users\CYMR90~1\AppData\Local\Temp\ccx4ZXSQ.s:29518  .debug_str:000000000001a1ac .LASF5117
C:\Users\CYMR90~1\AppData\Local\Temp\ccx4ZXSQ.s:29400  .debug_str:00000000000199f3 .LASF5118
C:\Users\CYMR90~1\AppData\Local\Temp\ccx4ZXSQ.s:30832  .debug_str:000000000001f4ec .LASF5119
C:\Users\CYMR90~1\AppData\Local\Temp\ccx4ZXSQ.s:32786  .debug_str:0000000000026edf .LASF5120
C:\Users\CYMR90~1\AppData\Local\Temp\ccx4ZXSQ.s:30900  .debug_str:000000000001f915 .LASF5121
C:\Users\CYMR90~1\AppData\Local\Temp\ccx4ZXSQ.s:25345  .debug_str:00000000000097c3 .LASF5122
C:\Users\CYMR90~1\AppData\Local\Temp\ccx4ZXSQ.s:33960  .debug_str:000000000002b6d9 .LASF5123
C:\Users\CYMR90~1\AppData\Local\Temp\ccx4ZXSQ.s:30394  .debug_str:000000000001da19 .LASF5124
C:\Users\CYMR90~1\AppData\Local\Temp\ccx4ZXSQ.s:27393  .debug_str:0000000000011976 .LASF5125
C:\Users\CYMR90~1\AppData\Local\Temp\ccx4ZXSQ.s:32050  .debug_str:0000000000023e72 .LASF5126
C:\Users\CYMR90~1\AppData\Local\Temp\ccx4ZXSQ.s:31544  .debug_str:000000000002204e .LASF5127
C:\Users\CYMR90~1\AppData\Local\Temp\ccx4ZXSQ.s:28065  .debug_str:0000000000014504 .LASF5128
C:\Users\CYMR90~1\AppData\Local\Temp\ccx4ZXSQ.s:30830  .debug_str:000000000001f4c8 .LASF5129
C:\Users\CYMR90~1\AppData\Local\Temp\ccx4ZXSQ.s:31970  .debug_str:0000000000023a04 .LASF5130
C:\Users\CYMR90~1\AppData\Local\Temp\ccx4ZXSQ.s:34402  .debug_str:000000000002d32a .LASF5131
C:\Users\CYMR90~1\AppData\Local\Temp\ccx4ZXSQ.s:32804  .debug_str:0000000000026ffd .LASF5132
C:\Users\CYMR90~1\AppData\Local\Temp\ccx4ZXSQ.s:32636  .debug_str:0000000000026580 .LASF5133
C:\Users\CYMR90~1\AppData\Local\Temp\ccx4ZXSQ.s:28287  .debug_str:00000000000152a6 .LASF5134
C:\Users\CYMR90~1\AppData\Local\Temp\ccx4ZXSQ.s:34434  .debug_str:000000000002d549 .LASF5135
C:\Users\CYMR90~1\AppData\Local\Temp\ccx4ZXSQ.s:23355  .debug_str:0000000000001a5d .LASF5136
C:\Users\CYMR90~1\AppData\Local\Temp\ccx4ZXSQ.s:31694  .debug_str:0000000000022985 .LASF5137
C:\Users\CYMR90~1\AppData\Local\Temp\ccx4ZXSQ.s:30544  .debug_str:000000000001e364 .LASF5138
C:\Users\CYMR90~1\AppData\Local\Temp\ccx4ZXSQ.s:29968  .debug_str:000000000001be44 .LASF5139
C:\Users\CYMR90~1\AppData\Local\Temp\ccx4ZXSQ.s:34220  .debug_str:000000000002c74b .LASF5140
C:\Users\CYMR90~1\AppData\Local\Temp\ccx4ZXSQ.s:29052  .debug_str:000000000001840e .LASF5141
C:\Users\CYMR90~1\AppData\Local\Temp\ccx4ZXSQ.s:30182  .debug_str:000000000001cb2e .LASF5142
C:\Users\CYMR90~1\AppData\Local\Temp\ccx4ZXSQ.s:25515  .debug_str:000000000000a244 .LASF5143
C:\Users\CYMR90~1\AppData\Local\Temp\ccx4ZXSQ.s:34254  .debug_str:000000000002c9a9 .LASF5144
C:\Users\CYMR90~1\AppData\Local\Temp\ccx4ZXSQ.s:25023  .debug_str:0000000000008478 .LASF5145
C:\Users\CYMR90~1\AppData\Local\Temp\ccx4ZXSQ.s:27459  .debug_str:0000000000011db6 .LASF5146
C:\Users\CYMR90~1\AppData\Local\Temp\ccx4ZXSQ.s:30036  .debug_str:000000000001c218 .LASF5147
C:\Users\CYMR90~1\AppData\Local\Temp\ccx4ZXSQ.s:34168  .debug_str:000000000002c416 .LASF5148
C:\Users\CYMR90~1\AppData\Local\Temp\ccx4ZXSQ.s:25241  .debug_str:0000000000009205 .LASF5149
C:\Users\CYMR90~1\AppData\Local\Temp\ccx4ZXSQ.s:34042  .debug_str:000000000002bbae .LASF5150
C:\Users\CYMR90~1\AppData\Local\Temp\ccx4ZXSQ.s:33158  .debug_str:00000000000285cc .LASF5151
C:\Users\CYMR90~1\AppData\Local\Temp\ccx4ZXSQ.s:27507  .debug_str:0000000000012145 .LASF5152
C:\Users\CYMR90~1\AppData\Local\Temp\ccx4ZXSQ.s:24885  .debug_str:0000000000007a4a .LASF5153
C:\Users\CYMR90~1\AppData\Local\Temp\ccx4ZXSQ.s:25631  .debug_str:000000000000a95e .LASF5154
C:\Users\CYMR90~1\AppData\Local\Temp\ccx4ZXSQ.s:28197  .debug_str:0000000000014d4d .LASF5155
C:\Users\CYMR90~1\AppData\Local\Temp\ccx4ZXSQ.s:33422  .debug_str:000000000002973b .LASF5156
C:\Users\CYMR90~1\AppData\Local\Temp\ccx4ZXSQ.s:30398  .debug_str:000000000001da5e .LASF5157
C:\Users\CYMR90~1\AppData\Local\Temp\ccx4ZXSQ.s:28507  .debug_str:000000000001600f .LASF5158
C:\Users\CYMR90~1\AppData\Local\Temp\ccx4ZXSQ.s:23477  .debug_str:0000000000002170 .LASF5159
C:\Users\CYMR90~1\AppData\Local\Temp\ccx4ZXSQ.s:25049  .debug_str:000000000000860b .LASF5160
C:\Users\CYMR90~1\AppData\Local\Temp\ccx4ZXSQ.s:26257  .debug_str:000000000000d2db .LASF5161
C:\Users\CYMR90~1\AppData\Local\Temp\ccx4ZXSQ.s:30294  .debug_str:000000000001d2b4 .LASF5162
C:\Users\CYMR90~1\AppData\Local\Temp\ccx4ZXSQ.s:27449  .debug_str:0000000000011cfd .LASF5163
C:\Users\CYMR90~1\AppData\Local\Temp\ccx4ZXSQ.s:26129  .debug_str:000000000000caa1 .LASF5164
C:\Users\CYMR90~1\AppData\Local\Temp\ccx4ZXSQ.s:29904  .debug_str:000000000001ba5b .LASF5165
C:\Users\CYMR90~1\AppData\Local\Temp\ccx4ZXSQ.s:28723  .debug_str:0000000000016e0d .LASF5166
C:\Users\CYMR90~1\AppData\Local\Temp\ccx4ZXSQ.s:26477  .debug_str:000000000000e067 .LASF5167
C:\Users\CYMR90~1\AppData\Local\Temp\ccx4ZXSQ.s:25441  .debug_str:0000000000009de6 .LASF5168
C:\Users\CYMR90~1\AppData\Local\Temp\ccx4ZXSQ.s:31410  .debug_str:000000000002181d .LASF5169
C:\Users\CYMR90~1\AppData\Local\Temp\ccx4ZXSQ.s:25309  .debug_str:00000000000095cd .LASF5170
C:\Users\CYMR90~1\AppData\Local\Temp\ccx4ZXSQ.s:29364  .debug_str:000000000001971f .LASF5171
C:\Users\CYMR90~1\AppData\Local\Temp\ccx4ZXSQ.s:26735  .debug_str:000000000000f057 .LASF5172
C:\Users\CYMR90~1\AppData\Local\Temp\ccx4ZXSQ.s:29116  .debug_str:00000000000187c7 .LASF5173
C:\Users\CYMR90~1\AppData\Local\Temp\ccx4ZXSQ.s:29860  .debug_str:000000000001b7ef .LASF5174
C:\Users\CYMR90~1\AppData\Local\Temp\ccx4ZXSQ.s:33958  .debug_str:000000000002b6b3 .LASF5175
C:\Users\CYMR90~1\AppData\Local\Temp\ccx4ZXSQ.s:26413  .debug_str:000000000000dcd3 .LASF5176
C:\Users\CYMR90~1\AppData\Local\Temp\ccx4ZXSQ.s:25501  .debug_str:000000000000a14d .LASF5177
C:\Users\CYMR90~1\AppData\Local\Temp\ccx4ZXSQ.s:24889  .debug_str:0000000000007aad .LASF5178
C:\Users\CYMR90~1\AppData\Local\Temp\ccx4ZXSQ.s:23807  .debug_str:0000000000003678 .LASF5179
C:\Users\CYMR90~1\AppData\Local\Temp\ccx4ZXSQ.s:33328  .debug_str:00000000000291f0 .LASF5180
C:\Users\CYMR90~1\AppData\Local\Temp\ccx4ZXSQ.s:31818  .debug_str:00000000000230dd .LASF5181
C:\Users\CYMR90~1\AppData\Local\Temp\ccx4ZXSQ.s:25743  .debug_str:000000000000b116 .LASF5182
C:\Users\CYMR90~1\AppData\Local\Temp\ccx4ZXSQ.s:32612  .debug_str:00000000000263f5 .LASF5183
C:\Users\CYMR90~1\AppData\Local\Temp\ccx4ZXSQ.s:33884  .debug_str:000000000002b291 .LASF5184
C:\Users\CYMR90~1\AppData\Local\Temp\ccx4ZXSQ.s:29108  .debug_str:0000000000018760 .LASF5185
C:\Users\CYMR90~1\AppData\Local\Temp\ccx4ZXSQ.s:27887  .debug_str:00000000000139ce .LASF5186
C:\Users\CYMR90~1\AppData\Local\Temp\ccx4ZXSQ.s:34376  .debug_str:000000000002d175 .LASF5187
C:\Users\CYMR90~1\AppData\Local\Temp\ccx4ZXSQ.s:27457  .debug_str:0000000000011d90 .LASF5188
C:\Users\CYMR90~1\AppData\Local\Temp\ccx4ZXSQ.s:23767  .debug_str:00000000000033c9 .LASF5189
C:\Users\CYMR90~1\AppData\Local\Temp\ccx4ZXSQ.s:33250  .debug_str:0000000000028c26 .LASF5190
C:\Users\CYMR90~1\AppData\Local\Temp\ccx4ZXSQ.s:24761  .debug_str:0000000000007253 .LASF5191
C:\Users\CYMR90~1\AppData\Local\Temp\ccx4ZXSQ.s:31144  .debug_str:00000000000207e1 .LASF5192
C:\Users\CYMR90~1\AppData\Local\Temp\ccx4ZXSQ.s:33812  .debug_str:000000000002ae2c .LASF5193
C:\Users\CYMR90~1\AppData\Local\Temp\ccx4ZXSQ.s:26279  .debug_str:000000000000d42b .LASF5194
C:\Users\CYMR90~1\AppData\Local\Temp\ccx4ZXSQ.s:23495  .debug_str:0000000000002287 .LASF5195
C:\Users\CYMR90~1\AppData\Local\Temp\ccx4ZXSQ.s:34314  .debug_str:000000000002cdb4 .LASF5196
C:\Users\CYMR90~1\AppData\Local\Temp\ccx4ZXSQ.s:25025  .debug_str:000000000000849e .LASF5197
C:\Users\CYMR90~1\AppData\Local\Temp\ccx4ZXSQ.s:28273  .debug_str:00000000000151f1 .LASF5198
C:\Users\CYMR90~1\AppData\Local\Temp\ccx4ZXSQ.s:27801  .debug_str:0000000000013451 .LASF5199
C:\Users\CYMR90~1\AppData\Local\Temp\ccx4ZXSQ.s:26083  .debug_str:000000000000c7e5 .LASF5200
C:\Users\CYMR90~1\AppData\Local\Temp\ccx4ZXSQ.s:29650  .debug_str:000000000001a90a .LASF5201
C:\Users\CYMR90~1\AppData\Local\Temp\ccx4ZXSQ.s:31966  .debug_str:00000000000239c6 .LASF5202
C:\Users\CYMR90~1\AppData\Local\Temp\ccx4ZXSQ.s:26215  .debug_str:000000000000d09c .LASF5203
C:\Users\CYMR90~1\AppData\Local\Temp\ccx4ZXSQ.s:30208  .debug_str:000000000001cc87 .LASF5204
C:\Users\CYMR90~1\AppData\Local\Temp\ccx4ZXSQ.s:31546  .debug_str:0000000000022072 .LASF5205
C:\Users\CYMR90~1\AppData\Local\Temp\ccx4ZXSQ.s:26695  .debug_str:000000000000ee15 .LASF5206
C:\Users\CYMR90~1\AppData\Local\Temp\ccx4ZXSQ.s:30682  .debug_str:000000000001ebf6 .LASF5207
C:\Users\CYMR90~1\AppData\Local\Temp\ccx4ZXSQ.s:23127  .debug_str:0000000000000bdd .LASF5208
C:\Users\CYMR90~1\AppData\Local\Temp\ccx4ZXSQ.s:30214  .debug_str:000000000001cce5 .LASF5209
C:\Users\CYMR90~1\AppData\Local\Temp\ccx4ZXSQ.s:31820  .debug_str:0000000000023103 .LASF5210
C:\Users\CYMR90~1\AppData\Local\Temp\ccx4ZXSQ.s:26435  .debug_str:000000000000de13 .LASF5211
C:\Users\CYMR90~1\AppData\Local\Temp\ccx4ZXSQ.s:25929  .debug_str:000000000000bdcf .LASF5212
C:\Users\CYMR90~1\AppData\Local\Temp\ccx4ZXSQ.s:24585  .debug_str:00000000000066f0 .LASF5213
C:\Users\CYMR90~1\AppData\Local\Temp\ccx4ZXSQ.s:34186  .debug_str:000000000002c523 .LASF5214
C:\Users\CYMR90~1\AppData\Local\Temp\ccx4ZXSQ.s:29778  .debug_str:000000000001b299 .LASF5215
C:\Users\CYMR90~1\AppData\Local\Temp\ccx4ZXSQ.s:30618  .debug_str:000000000001e86f .LASF5216
C:\Users\CYMR90~1\AppData\Local\Temp\ccx4ZXSQ.s:26309  .debug_str:000000000000d604 .LASF5217
C:\Users\CYMR90~1\AppData\Local\Temp\ccx4ZXSQ.s:34364  .debug_str:000000000002d084 .LASF5218
C:\Users\CYMR90~1\AppData\Local\Temp\ccx4ZXSQ.s:24053  .debug_str:00000000000045d4 .LASF5219
C:\Users\CYMR90~1\AppData\Local\Temp\ccx4ZXSQ.s:33612  .debug_str:000000000002a2c2 .LASF5220
C:\Users\CYMR90~1\AppData\Local\Temp\ccx4ZXSQ.s:24819  .debug_str:0000000000007645 .LASF5221
C:\Users\CYMR90~1\AppData\Local\Temp\ccx4ZXSQ.s:33730  .debug_str:000000000002a961 .LASF5222
C:\Users\CYMR90~1\AppData\Local\Temp\ccx4ZXSQ.s:23833  .debug_str:0000000000003815 .LASF5223
C:\Users\CYMR90~1\AppData\Local\Temp\ccx4ZXSQ.s:26575  .debug_str:000000000000e651 .LASF5224
C:\Users\CYMR90~1\AppData\Local\Temp\ccx4ZXSQ.s:24349  .debug_str:00000000000058b5 .LASF5225
C:\Users\CYMR90~1\AppData\Local\Temp\ccx4ZXSQ.s:22985  .debug_str:0000000000000361 .LASF5226
C:\Users\CYMR90~1\AppData\Local\Temp\ccx4ZXSQ.s:23605  .debug_str:0000000000002986 .LASF5227
C:\Users\CYMR90~1\AppData\Local\Temp\ccx4ZXSQ.s:28379  .debug_str:00000000000158b7 .LASF5228
C:\Users\CYMR90~1\AppData\Local\Temp\ccx4ZXSQ.s:28137  .debug_str:0000000000014967 .LASF5229
C:\Users\CYMR90~1\AppData\Local\Temp\ccx4ZXSQ.s:26001  .debug_str:000000000000c2ed .LASF5230
C:\Users\CYMR90~1\AppData\Local\Temp\ccx4ZXSQ.s:23285  .debug_str:0000000000001558 .LASF5231
C:\Users\CYMR90~1\AppData\Local\Temp\ccx4ZXSQ.s:34050  .debug_str:000000000002bc4d .LASF5232
C:\Users\CYMR90~1\AppData\Local\Temp\ccx4ZXSQ.s:30886  .debug_str:000000000001f829 .LASF5233
C:\Users\CYMR90~1\AppData\Local\Temp\ccx4ZXSQ.s:31074  .debug_str:000000000002037e .LASF5234
C:\Users\CYMR90~1\AppData\Local\Temp\ccx4ZXSQ.s:34532  .debug_str:000000000002db54 .LASF5235
C:\Users\CYMR90~1\AppData\Local\Temp\ccx4ZXSQ.s:23279  .debug_str:0000000000001508 .LASF5236
C:\Users\CYMR90~1\AppData\Local\Temp\ccx4ZXSQ.s:27599  .debug_str:000000000001272a .LASF5237
C:\Users\CYMR90~1\AppData\Local\Temp\ccx4ZXSQ.s:24767  .debug_str:00000000000072ad .LASF5238
C:\Users\CYMR90~1\AppData\Local\Temp\ccx4ZXSQ.s:32694  .debug_str:0000000000026905 .LASF5239
C:\Users\CYMR90~1\AppData\Local\Temp\ccx4ZXSQ.s:28321  .debug_str:00000000000154fc .LASF5240
C:\Users\CYMR90~1\AppData\Local\Temp\ccx4ZXSQ.s:31626  .debug_str:000000000002259b .LASF5241
C:\Users\CYMR90~1\AppData\Local\Temp\ccx4ZXSQ.s:27809  .debug_str:00000000000134ec .LASF5242
C:\Users\CYMR90~1\AppData\Local\Temp\ccx4ZXSQ.s:24455  .debug_str:0000000000005eed .LASF5243
C:\Users\CYMR90~1\AppData\Local\Temp\ccx4ZXSQ.s:29136  .debug_str:00000000000188f2 .LASF5244
C:\Users\CYMR90~1\AppData\Local\Temp\ccx4ZXSQ.s:33174  .debug_str:00000000000286d4 .LASF5245
C:\Users\CYMR90~1\AppData\Local\Temp\ccx4ZXSQ.s:33164  .debug_str:000000000002863a .LASF5246
C:\Users\CYMR90~1\AppData\Local\Temp\ccx4ZXSQ.s:34380  .debug_str:000000000002d1b8 .LASF5247
C:\Users\CYMR90~1\AppData\Local\Temp\ccx4ZXSQ.s:30012  .debug_str:000000000001c0d1 .LASF5248
C:\Users\CYMR90~1\AppData\Local\Temp\ccx4ZXSQ.s:31382  .debug_str:000000000002168f .LASF5249
C:\Users\CYMR90~1\AppData\Local\Temp\ccx4ZXSQ.s:23591  .debug_str:00000000000028a7 .LASF5250
C:\Users\CYMR90~1\AppData\Local\Temp\ccx4ZXSQ.s:31000  .debug_str:000000000001ff10 .LASF5251
C:\Users\CYMR90~1\AppData\Local\Temp\ccx4ZXSQ.s:25029  .debug_str:00000000000084da .LASF5252
C:\Users\CYMR90~1\AppData\Local\Temp\ccx4ZXSQ.s:29068  .debug_str:00000000000184ef .LASF5253
C:\Users\CYMR90~1\AppData\Local\Temp\ccx4ZXSQ.s:22987  .debug_str:0000000000000387 .LASF5254
C:\Users\CYMR90~1\AppData\Local\Temp\ccx4ZXSQ.s:23945  .debug_str:0000000000003f32 .LASF5255
C:\Users\CYMR90~1\AppData\Local\Temp\ccx4ZXSQ.s:29568  .debug_str:000000000001a4a2 .LASF5256
C:\Users\CYMR90~1\AppData\Local\Temp\ccx4ZXSQ.s:29266  .debug_str:00000000000190b2 .LASF5257
C:\Users\CYMR90~1\AppData\Local\Temp\ccx4ZXSQ.s:32070  .debug_str:0000000000023fef .LASF5258
C:\Users\CYMR90~1\AppData\Local\Temp\ccx4ZXSQ.s:31104  .debug_str:0000000000020551 .LASF5259
C:\Users\CYMR90~1\AppData\Local\Temp\ccx4ZXSQ.s:32412  .debug_str:0000000000025575 .LASF5260
C:\Users\CYMR90~1\AppData\Local\Temp\ccx4ZXSQ.s:29920  .debug_str:000000000001bb7a .LASF5261
C:\Users\CYMR90~1\AppData\Local\Temp\ccx4ZXSQ.s:29004  .debug_str:0000000000018158 .LASF5262
C:\Users\CYMR90~1\AppData\Local\Temp\ccx4ZXSQ.s:25187  .debug_str:0000000000008e43 .LASF5263
C:\Users\CYMR90~1\AppData\Local\Temp\ccx4ZXSQ.s:31826  .debug_str:0000000000023169 .LASF5264
C:\Users\CYMR90~1\AppData\Local\Temp\ccx4ZXSQ.s:29990  .debug_str:000000000001bfb2 .LASF5265
C:\Users\CYMR90~1\AppData\Local\Temp\ccx4ZXSQ.s:33602  .debug_str:000000000002a238 .LASF5266
C:\Users\CYMR90~1\AppData\Local\Temp\ccx4ZXSQ.s:26061  .debug_str:000000000000c6a1 .LASF5267
C:\Users\CYMR90~1\AppData\Local\Temp\ccx4ZXSQ.s:27251  .debug_str:0000000000011064 .LASF5268
C:\Users\CYMR90~1\AppData\Local\Temp\ccx4ZXSQ.s:26949  .debug_str:000000000000fd85 .LASF5269
C:\Users\CYMR90~1\AppData\Local\Temp\ccx4ZXSQ.s:24883  .debug_str:0000000000007a24 .LASF5270
C:\Users\CYMR90~1\AppData\Local\Temp\ccx4ZXSQ.s:23835  .debug_str:000000000000383b .LASF5271
C:\Users\CYMR90~1\AppData\Local\Temp\ccx4ZXSQ.s:34384  .debug_str:000000000002d20b .LASF5272
C:\Users\CYMR90~1\AppData\Local\Temp\ccx4ZXSQ.s:25377  .debug_str:00000000000099e0 .LASF5273
C:\Users\CYMR90~1\AppData\Local\Temp\ccx4ZXSQ.s:34440  .debug_str:000000000002d5a1 .LASF5274
C:\Users\CYMR90~1\AppData\Local\Temp\ccx4ZXSQ.s:33542  .debug_str:0000000000029eb5 .LASF5275
C:\Users\CYMR90~1\AppData\Local\Temp\ccx4ZXSQ.s:25995  .debug_str:000000000000c274 .LASF5276
C:\Users\CYMR90~1\AppData\Local\Temp\ccx4ZXSQ.s:30412  .debug_str:000000000001db3e .LASF5277
C:\Users\CYMR90~1\AppData\Local\Temp\ccx4ZXSQ.s:32434  .debug_str:0000000000025703 .LASF5278
C:\Users\CYMR90~1\AppData\Local\Temp\ccx4ZXSQ.s:28391  .debug_str:0000000000015956 .LASF5279
C:\Users\CYMR90~1\AppData\Local\Temp\ccx4ZXSQ.s:31130  .debug_str:00000000000206f1 .LASF5280
C:\Users\CYMR90~1\AppData\Local\Temp\ccx4ZXSQ.s:31880  .debug_str:0000000000023474 .LASF5281
C:\Users\CYMR90~1\AppData\Local\Temp\ccx4ZXSQ.s:32632  .debug_str:0000000000026535 .LASF5282
C:\Users\CYMR90~1\AppData\Local\Temp\ccx4ZXSQ.s:25581  .debug_str:000000000000a6bc .LASF5283
C:\Users\CYMR90~1\AppData\Local\Temp\ccx4ZXSQ.s:31280  .debug_str:0000000000021069 .LASF5284
C:\Users\CYMR90~1\AppData\Local\Temp\ccx4ZXSQ.s:31276  .debug_str:000000000002102c .LASF5285
C:\Users\CYMR90~1\AppData\Local\Temp\ccx4ZXSQ.s:33650  .debug_str:000000000002a4e3 .LASF5286
C:\Users\CYMR90~1\AppData\Local\Temp\ccx4ZXSQ.s:33972  .debug_str:000000000002b77e .LASF5287
C:\Users\CYMR90~1\AppData\Local\Temp\ccx4ZXSQ.s:26871  .debug_str:000000000000f866 .LASF5288
C:\Users\CYMR90~1\AppData\Local\Temp\ccx4ZXSQ.s:32532  .debug_str:0000000000025e3d .LASF5289
C:\Users\CYMR90~1\AppData\Local\Temp\ccx4ZXSQ.s:27593  .debug_str:00000000000126ca .LASF5290
C:\Users\CYMR90~1\AppData\Local\Temp\ccx4ZXSQ.s:26821  .debug_str:000000000000f548 .LASF5291
C:\Users\CYMR90~1\AppData\Local\Temp\ccx4ZXSQ.s:29308  .debug_str:00000000000193ed .LASF5292
C:\Users\CYMR90~1\AppData\Local\Temp\ccx4ZXSQ.s:32462  .debug_str:00000000000258b0 .LASF5293
C:\Users\CYMR90~1\AppData\Local\Temp\ccx4ZXSQ.s:29756  .debug_str:000000000001b134 .LASF5294
C:\Users\CYMR90~1\AppData\Local\Temp\ccx4ZXSQ.s:25669  .debug_str:000000000000aca7 .LASF5295
C:\Users\CYMR90~1\AppData\Local\Temp\ccx4ZXSQ.s:27971  .debug_str:0000000000013f70 .LASF5296
C:\Users\CYMR90~1\AppData\Local\Temp\ccx4ZXSQ.s:26363  .debug_str:000000000000d9bd .LASF5297
C:\Users\CYMR90~1\AppData\Local\Temp\ccx4ZXSQ.s:26229  .debug_str:000000000000d170 .LASF5298
C:\Users\CYMR90~1\AppData\Local\Temp\ccx4ZXSQ.s:28785  .debug_str:00000000000171e7 .LASF5299
C:\Users\CYMR90~1\AppData\Local\Temp\ccx4ZXSQ.s:30400  .debug_str:000000000001da84 .LASF5300
C:\Users\CYMR90~1\AppData\Local\Temp\ccx4ZXSQ.s:29228  .debug_str:0000000000018e76 .LASF5301
C:\Users\CYMR90~1\AppData\Local\Temp\ccx4ZXSQ.s:27247  .debug_str:0000000000011025 .LASF5302
C:\Users\CYMR90~1\AppData\Local\Temp\ccx4ZXSQ.s:25783  .debug_str:000000000000b47e .LASF5303
C:\Users\CYMR90~1\AppData\Local\Temp\ccx4ZXSQ.s:29268  .debug_str:00000000000190d8 .LASF5304
C:\Users\CYMR90~1\AppData\Local\Temp\ccx4ZXSQ.s:29484  .debug_str:0000000000019f35 .LASF5305
C:\Users\CYMR90~1\AppData\Local\Temp\ccx4ZXSQ.s:30230  .debug_str:000000000001ce10 .LASF5306
C:\Users\CYMR90~1\AppData\Local\Temp\ccx4ZXSQ.s:24799  .debug_str:0000000000007502 .LASF5307
C:\Users\CYMR90~1\AppData\Local\Temp\ccx4ZXSQ.s:34330  .debug_str:000000000002ce9d .LASF5308
C:\Users\CYMR90~1\AppData\Local\Temp\ccx4ZXSQ.s:26647  .debug_str:000000000000eaa5 .LASF5309
C:\Users\CYMR90~1\AppData\Local\Temp\ccx4ZXSQ.s:23219  .debug_str:0000000000001186 .LASF5310
C:\Users\CYMR90~1\AppData\Local\Temp\ccx4ZXSQ.s:30478  .debug_str:000000000001df1a .LASF5311
C:\Users\CYMR90~1\AppData\Local\Temp\ccx4ZXSQ.s:30472  .debug_str:000000000001deb3 .LASF5312
C:\Users\CYMR90~1\AppData\Local\Temp\ccx4ZXSQ.s:24339  .debug_str:00000000000057dd .LASF5313
C:\Users\CYMR90~1\AppData\Local\Temp\ccx4ZXSQ.s:25451  .debug_str:0000000000009e6c .LASF5314
C:\Users\CYMR90~1\AppData\Local\Temp\ccx4ZXSQ.s:26233  .debug_str:000000000000d1ad .LASF5315
C:\Users\CYMR90~1\AppData\Local\Temp\ccx4ZXSQ.s:30228  .debug_str:000000000001cdea .LASF5316
C:\Users\CYMR90~1\AppData\Local\Temp\ccx4ZXSQ.s:30804  .debug_str:000000000001f372 .LASF5317
C:\Users\CYMR90~1\AppData\Local\Temp\ccx4ZXSQ.s:26809  .debug_str:000000000000f4ab .LASF5318
C:\Users\CYMR90~1\AppData\Local\Temp\ccx4ZXSQ.s:31044  .debug_str:00000000000201be .LASF5319
C:\Users\CYMR90~1\AppData\Local\Temp\ccx4ZXSQ.s:30142  .debug_str:000000000001c8df .LASF5320
C:\Users\CYMR90~1\AppData\Local\Temp\ccx4ZXSQ.s:34086  .debug_str:000000000002beb2 .LASF5321
C:\Users\CYMR90~1\AppData\Local\Temp\ccx4ZXSQ.s:29698  .debug_str:000000000001ad38 .LASF5322
C:\Users\CYMR90~1\AppData\Local\Temp\ccx4ZXSQ.s:32390  .debug_str:00000000000253fc .LASF5323
C:\Users\CYMR90~1\AppData\Local\Temp\ccx4ZXSQ.s:29668  .debug_str:000000000001abb5 .LASF5324
C:\Users\CYMR90~1\AppData\Local\Temp\ccx4ZXSQ.s:30152  .debug_str:000000000001c96a .LASF5325
C:\Users\CYMR90~1\AppData\Local\Temp\ccx4ZXSQ.s:23769  .debug_str:00000000000033ef .LASF5326
C:\Users\CYMR90~1\AppData\Local\Temp\ccx4ZXSQ.s:26155  .debug_str:000000000000cc4a .LASF5327
C:\Users\CYMR90~1\AppData\Local\Temp\ccx4ZXSQ.s:29028  .debug_str:00000000000182b0 .LASF5328
C:\Users\CYMR90~1\AppData\Local\Temp\ccx4ZXSQ.s:32784  .debug_str:0000000000026eb9 .LASF5329
C:\Users\CYMR90~1\AppData\Local\Temp\ccx4ZXSQ.s:25577  .debug_str:000000000000a67e .LASF5330
C:\Users\CYMR90~1\AppData\Local\Temp\ccx4ZXSQ.s:29616  .debug_str:000000000001a743 .LASF5331
C:\Users\CYMR90~1\AppData\Local\Temp\ccx4ZXSQ.s:33624  .debug_str:000000000002a37f .LASF5332
C:\Users\CYMR90~1\AppData\Local\Temp\ccx4ZXSQ.s:26081  .debug_str:000000000000c7bf .LASF5333
C:\Users\CYMR90~1\AppData\Local\Temp\ccx4ZXSQ.s:30092  .debug_str:000000000001c601 .LASF5334
C:\Users\CYMR90~1\AppData\Local\Temp\ccx4ZXSQ.s:30346  .debug_str:000000000001d6cb .LASF5335
C:\Users\CYMR90~1\AppData\Local\Temp\ccx4ZXSQ.s:29762  .debug_str:000000000001b19c .LASF5336
C:\Users\CYMR90~1\AppData\Local\Temp\ccx4ZXSQ.s:30652  .debug_str:000000000001ea56 .LASF5337
C:\Users\CYMR90~1\AppData\Local\Temp\ccx4ZXSQ.s:34332  .debug_str:000000000002cec3 .LASF5338
C:\Users\CYMR90~1\AppData\Local\Temp\ccx4ZXSQ.s:32062  .debug_str:0000000000023f3c .LASF5339
C:\Users\CYMR90~1\AppData\Local\Temp\ccx4ZXSQ.s:24081  .debug_str:00000000000047a9 .LASF5340
C:\Users\CYMR90~1\AppData\Local\Temp\ccx4ZXSQ.s:28239  .debug_str:0000000000014fe5 .LASF5341
C:\Users\CYMR90~1\AppData\Local\Temp\ccx4ZXSQ.s:27005  .debug_str:00000000000100ab .LASF5342
C:\Users\CYMR90~1\AppData\Local\Temp\ccx4ZXSQ.s:24665  .debug_str:0000000000006bf4 .LASF5343
C:\Users\CYMR90~1\AppData\Local\Temp\ccx4ZXSQ.s:23175  .debug_str:0000000000000eb0 .LASF5344
C:\Users\CYMR90~1\AppData\Local\Temp\ccx4ZXSQ.s:34164  .debug_str:000000000002c3b5 .LASF5345
C:\Users\CYMR90~1\AppData\Local\Temp\ccx4ZXSQ.s:24649  .debug_str:0000000000006ae9 .LASF5346
C:\Users\CYMR90~1\AppData\Local\Temp\ccx4ZXSQ.s:29222  .debug_str:0000000000018e2a .LASF5347
C:\Users\CYMR90~1\AppData\Local\Temp\ccx4ZXSQ.s:33344  .debug_str:00000000000292f7 .LASF5348
C:\Users\CYMR90~1\AppData\Local\Temp\ccx4ZXSQ.s:32670  .debug_str:000000000002679a .LASF5349
C:\Users\CYMR90~1\AppData\Local\Temp\ccx4ZXSQ.s:28187  .debug_str:0000000000014c71 .LASF5350
C:\Users\CYMR90~1\AppData\Local\Temp\ccx4ZXSQ.s:29094  .debug_str:00000000000186a4 .LASF5351
C:\Users\CYMR90~1\AppData\Local\Temp\ccx4ZXSQ.s:23147  .debug_str:0000000000000d18 .LASF5352
C:\Users\CYMR90~1\AppData\Local\Temp\ccx4ZXSQ.s:30456  .debug_str:000000000001ddd8 .LASF5353
C:\Users\CYMR90~1\AppData\Local\Temp\ccx4ZXSQ.s:25233  .debug_str:000000000000917d .LASF5354
C:\Users\CYMR90~1\AppData\Local\Temp\ccx4ZXSQ.s:27227  .debug_str:0000000000010f13 .LASF5355
C:\Users\CYMR90~1\AppData\Local\Temp\ccx4ZXSQ.s:30902  .debug_str:000000000001f939 .LASF5356
C:\Users\CYMR90~1\AppData\Local\Temp\ccx4ZXSQ.s:26499  .debug_str:000000000000e18a .LASF5357
C:\Users\CYMR90~1\AppData\Local\Temp\ccx4ZXSQ.s:22965  .debug_str:0000000000000241 .LASF5358
C:\Users\CYMR90~1\AppData\Local\Temp\ccx4ZXSQ.s:32550  .debug_str:0000000000025f68 .LASF5359
C:\Users\CYMR90~1\AppData\Local\Temp\ccx4ZXSQ.s:34188  .debug_str:000000000002c549 .LASF5360
C:\Users\CYMR90~1\AppData\Local\Temp\ccx4ZXSQ.s:25365  .debug_str:0000000000009942 .LASF5361
C:\Users\CYMR90~1\AppData\Local\Temp\ccx4ZXSQ.s:28597  .debug_str:00000000000165cb .LASF5362
C:\Users\CYMR90~1\AppData\Local\Temp\ccx4ZXSQ.s:32616  .debug_str:0000000000026434 .LASF5363
C:\Users\CYMR90~1\AppData\Local\Temp\ccx4ZXSQ.s:27659  .debug_str:0000000000012b38 .LASF5364
C:\Users\CYMR90~1\AppData\Local\Temp\ccx4ZXSQ.s:33124  .debug_str:0000000000028386 .LASF5365
C:\Users\CYMR90~1\AppData\Local\Temp\ccx4ZXSQ.s:28433  .debug_str:0000000000015bca .LASF5366
C:\Users\CYMR90~1\AppData\Local\Temp\ccx4ZXSQ.s:31610  .debug_str:00000000000224ab .LASF5367
C:\Users\CYMR90~1\AppData\Local\Temp\ccx4ZXSQ.s:23433  .debug_str:0000000000001f1b .LASF5368
C:\Users\CYMR90~1\AppData\Local\Temp\ccx4ZXSQ.s:26691  .debug_str:000000000000eddf .LASF5369
C:\Users\CYMR90~1\AppData\Local\Temp\ccx4ZXSQ.s:25083  .debug_str:000000000000883f .LASF5370
C:\Users\CYMR90~1\AppData\Local\Temp\ccx4ZXSQ.s:30930  .debug_str:000000000001fafc .LASF5371
C:\Users\CYMR90~1\AppData\Local\Temp\ccx4ZXSQ.s:32546  .debug_str:0000000000025f1b .LASF5372
C:\Users\CYMR90~1\AppData\Local\Temp\ccx4ZXSQ.s:32324  .debug_str:0000000000024fc8 .LASF5373
C:\Users\CYMR90~1\AppData\Local\Temp\ccx4ZXSQ.s:24005  .debug_str:00000000000042ef .LASF5374
C:\Users\CYMR90~1\AppData\Local\Temp\ccx4ZXSQ.s:26561  .debug_str:000000000000e59e .LASF5375
C:\Users\CYMR90~1\AppData\Local\Temp\ccx4ZXSQ.s:27311  .debug_str:0000000000011489 .LASF5376
C:\Users\CYMR90~1\AppData\Local\Temp\ccx4ZXSQ.s:29608  .debug_str:000000000001a6cc .LASF5377
C:\Users\CYMR90~1\AppData\Local\Temp\ccx4ZXSQ.s:33618  .debug_str:000000000002a315 .LASF5378
C:\Users\CYMR90~1\AppData\Local\Temp\ccx4ZXSQ.s:23631  .debug_str:0000000000002b01 .LASF5379
C:\Users\CYMR90~1\AppData\Local\Temp\ccx4ZXSQ.s:30234  .debug_str:000000000001ce4b .LASF5380
C:\Users\CYMR90~1\AppData\Local\Temp\ccx4ZXSQ.s:34272  .debug_str:000000000002cacb .LASF5381
C:\Users\CYMR90~1\AppData\Local\Temp\ccx4ZXSQ.s:24559  .debug_str:0000000000006557 .LASF5382
C:\Users\CYMR90~1\AppData\Local\Temp\ccx4ZXSQ.s:32486  .debug_str:0000000000025aa7 .LASF5383
C:\Users\CYMR90~1\AppData\Local\Temp\ccx4ZXSQ.s:34526  .debug_str:000000000002daf0 .LASF5384
C:\Users\CYMR90~1\AppData\Local\Temp\ccx4ZXSQ.s:24177  .debug_str:0000000000004e5c .LASF5385
C:\Users\CYMR90~1\AppData\Local\Temp\ccx4ZXSQ.s:29544  .debug_str:000000000001a34b .LASF5386
C:\Users\CYMR90~1\AppData\Local\Temp\ccx4ZXSQ.s:24405  .debug_str:0000000000005bec .LASF5387
C:\Users\CYMR90~1\AppData\Local\Temp\ccx4ZXSQ.s:26009  .debug_str:000000000000c364 .LASF5388
C:\Users\CYMR90~1\AppData\Local\Temp\ccx4ZXSQ.s:27375  .debug_str:0000000000011821 .LASF5389
C:\Users\CYMR90~1\AppData\Local\Temp\ccx4ZXSQ.s:25475  .debug_str:0000000000009fd2 .LASF5390
C:\Users\CYMR90~1\AppData\Local\Temp\ccx4ZXSQ.s:32712  .debug_str:0000000000026a68 .LASF5391
C:\Users\CYMR90~1\AppData\Local\Temp\ccx4ZXSQ.s:28976  .debug_str:0000000000017f54 .LASF5392
C:\Users\CYMR90~1\AppData\Local\Temp\ccx4ZXSQ.s:29956  .debug_str:000000000001bd88 .LASF5393
C:\Users\CYMR90~1\AppData\Local\Temp\ccx4ZXSQ.s:32592  .debug_str:00000000000262bd .LASF5394
C:\Users\CYMR90~1\AppData\Local\Temp\ccx4ZXSQ.s:29480  .debug_str:0000000000019eea .LASF5395
C:\Users\CYMR90~1\AppData\Local\Temp\ccx4ZXSQ.s:33494  .debug_str:0000000000029be7 .LASF5396
C:\Users\CYMR90~1\AppData\Local\Temp\ccx4ZXSQ.s:33986  .debug_str:000000000002b84d .LASF5397
C:\Users\CYMR90~1\AppData\Local\Temp\ccx4ZXSQ.s:24881  .debug_str:00000000000079fe .LASF5398
C:\Users\CYMR90~1\AppData\Local\Temp\ccx4ZXSQ.s:34506  .debug_str:000000000002d9be .LASF5399
C:\Users\CYMR90~1\AppData\Local\Temp\ccx4ZXSQ.s:24747  .debug_str:000000000000714d .LASF5400
C:\Users\CYMR90~1\AppData\Local\Temp\ccx4ZXSQ.s:28920  .debug_str:0000000000017bf5 .LASF5401
C:\Users\CYMR90~1\AppData\Local\Temp\ccx4ZXSQ.s:32816  .debug_str:00000000000270ad .LASF5402
C:\Users\CYMR90~1\AppData\Local\Temp\ccx4ZXSQ.s:31422  .debug_str:00000000000218bb .LASF5403
C:\Users\CYMR90~1\AppData\Local\Temp\ccx4ZXSQ.s:33810  .debug_str:000000000002ae06 .LASF5404
C:\Users\CYMR90~1\AppData\Local\Temp\ccx4ZXSQ.s:24567  .debug_str:00000000000065d2 .LASF5405
C:\Users\CYMR90~1\AppData\Local\Temp\ccx4ZXSQ.s:23391  .debug_str:0000000000001c7e .LASF5406
C:\Users\CYMR90~1\AppData\Local\Temp\ccx4ZXSQ.s:29408  .debug_str:0000000000019a72 .LASF5407
C:\Users\CYMR90~1\AppData\Local\Temp\ccx4ZXSQ.s:27557  .debug_str:00000000000124b6 .LASF5408
C:\Users\CYMR90~1\AppData\Local\Temp\ccx4ZXSQ.s:24485  .debug_str:00000000000060e3 .LASF5409
C:\Users\CYMR90~1\AppData\Local\Temp\ccx4ZXSQ.s:28854  .debug_str:0000000000017806 .LASF5410
C:\Users\CYMR90~1\AppData\Local\Temp\ccx4ZXSQ.s:32868  .debug_str:00000000000273b8 .LASF5411
C:\Users\CYMR90~1\AppData\Local\Temp\ccx4ZXSQ.s:25295  .debug_str:00000000000094f6 .LASF5412
C:\Users\CYMR90~1\AppData\Local\Temp\ccx4ZXSQ.s:23341  .debug_str:000000000000193d .LASF5413
C:\Users\CYMR90~1\AppData\Local\Temp\ccx4ZXSQ.s:24305  .debug_str:00000000000055f4 .LASF5414
C:\Users\CYMR90~1\AppData\Local\Temp\ccx4ZXSQ.s:30594  .debug_str:000000000001e6e5 .LASF5415
C:\Users\CYMR90~1\AppData\Local\Temp\ccx4ZXSQ.s:29848  .debug_str:000000000001b69c .LASF5416
C:\Users\CYMR90~1\AppData\Local\Temp\ccx4ZXSQ.s:33844  .debug_str:000000000002b056 .LASF5417
C:\Users\CYMR90~1\AppData\Local\Temp\ccx4ZXSQ.s:26403  .debug_str:000000000000dc5d .LASF5418
C:\Users\CYMR90~1\AppData\Local\Temp\ccx4ZXSQ.s:23345  .debug_str:0000000000001989 .LASF5419
C:\Users\CYMR90~1\AppData\Local\Temp\ccx4ZXSQ.s:32802  .debug_str:0000000000026fd7 .LASF5420
C:\Users\CYMR90~1\AppData\Local\Temp\ccx4ZXSQ.s:27057  .debug_str:00000000000103f1 .LASF5421
C:\Users\CYMR90~1\AppData\Local\Temp\ccx4ZXSQ.s:29588  .debug_str:000000000001a5ac .LASF5422
C:\Users\CYMR90~1\AppData\Local\Temp\ccx4ZXSQ.s:30328  .debug_str:000000000001d506 .LASF5423
C:\Users\CYMR90~1\AppData\Local\Temp\ccx4ZXSQ.s:27973  .debug_str:0000000000013f96 .LASF5424
C:\Users\CYMR90~1\AppData\Local\Temp\ccx4ZXSQ.s:29790  .debug_str:000000000001b341 .LASF5425
C:\Users\CYMR90~1\AppData\Local\Temp\ccx4ZXSQ.s:33776  .debug_str:000000000002abfc .LASF5426
C:\Users\CYMR90~1\AppData\Local\Temp\ccx4ZXSQ.s:30668  .debug_str:000000000001eb2f .LASF5427
C:\Users\CYMR90~1\AppData\Local\Temp\ccx4ZXSQ.s:26997  .debug_str:000000000001000b .LASF5428
C:\Users\CYMR90~1\AppData\Local\Temp\ccx4ZXSQ.s:30692  .debug_str:000000000001ecae .LASF5429
C:\Users\CYMR90~1\AppData\Local\Temp\ccx4ZXSQ.s:25159  .debug_str:0000000000008c97 .LASF5430
C:\Users\CYMR90~1\AppData\Local\Temp\ccx4ZXSQ.s:32884  .debug_str:00000000000274c3 .LASF5431
C:\Users\CYMR90~1\AppData\Local\Temp\ccx4ZXSQ.s:23139  .debug_str:0000000000000ca5 .LASF5432
C:\Users\CYMR90~1\AppData\Local\Temp\ccx4ZXSQ.s:31128  .debug_str:00000000000206cb .LASF5433
C:\Users\CYMR90~1\AppData\Local\Temp\ccx4ZXSQ.s:29714  .debug_str:000000000001ae52 .LASF5434
C:\Users\CYMR90~1\AppData\Local\Temp\ccx4ZXSQ.s:28059  .debug_str:00000000000144a0 .LASF5435
C:\Users\CYMR90~1\AppData\Local\Temp\ccx4ZXSQ.s:29076  .debug_str:0000000000018573 .LASF5436
C:\Users\CYMR90~1\AppData\Local\Temp\ccx4ZXSQ.s:28757  .debug_str:000000000001700c .LASF5437
C:\Users\CYMR90~1\AppData\Local\Temp\ccx4ZXSQ.s:27499  .debug_str:00000000000120ca .LASF5438
C:\Users\CYMR90~1\AppData\Local\Temp\ccx4ZXSQ.s:25711  .debug_str:000000000000af3e .LASF5439
C:\Users\CYMR90~1\AppData\Local\Temp\ccx4ZXSQ.s:23773  .debug_str:000000000000342d .LASF5440
C:\Users\CYMR90~1\AppData\Local\Temp\ccx4ZXSQ.s:27859  .debug_str:0000000000013802 .LASF5441
C:\Users\CYMR90~1\AppData\Local\Temp\ccx4ZXSQ.s:31516  .debug_str:0000000000021ead .LASF5442
C:\Users\CYMR90~1\AppData\Local\Temp\ccx4ZXSQ.s:26031  .debug_str:000000000000c4ce .LASF5443
C:\Users\CYMR90~1\AppData\Local\Temp\ccx4ZXSQ.s:24677  .debug_str:0000000000006c9c .LASF5444
C:\Users\CYMR90~1\AppData\Local\Temp\ccx4ZXSQ.s:32334  .debug_str:0000000000025065 .LASF5445
C:\Users\CYMR90~1\AppData\Local\Temp\ccx4ZXSQ.s:24739  .debug_str:00000000000070ea .LASF5446
C:\Users\CYMR90~1\AppData\Local\Temp\ccx4ZXSQ.s:27163  .debug_str:0000000000010aac .LASF5447
C:\Users\CYMR90~1\AppData\Local\Temp\ccx4ZXSQ.s:32932  .debug_str:0000000000027758 .LASF5448
C:\Users\CYMR90~1\AppData\Local\Temp\ccx4ZXSQ.s:31122  .debug_str:000000000002063c .LASF5449
C:\Users\CYMR90~1\AppData\Local\Temp\ccx4ZXSQ.s:26127  .debug_str:000000000000ca7b .LASF5450
C:\Users\CYMR90~1\AppData\Local\Temp\ccx4ZXSQ.s:31804  .debug_str:0000000000022fcc .LASF5451
C:\Users\CYMR90~1\AppData\Local\Temp\ccx4ZXSQ.s:27649  .debug_str:0000000000012a81 .LASF5452
C:\Users\CYMR90~1\AppData\Local\Temp\ccx4ZXSQ.s:28529  .debug_str:000000000001617d .LASF5453
C:\Users\CYMR90~1\AppData\Local\Temp\ccx4ZXSQ.s:32792  .debug_str:0000000000026f4c .LASF5454
C:\Users\CYMR90~1\AppData\Local\Temp\ccx4ZXSQ.s:33096  .debug_str:00000000000281c9 .LASF5455
C:\Users\CYMR90~1\AppData\Local\Temp\ccx4ZXSQ.s:28751  .debug_str:0000000000016fb8 .LASF5456
C:\Users\CYMR90~1\AppData\Local\Temp\ccx4ZXSQ.s:27219  .debug_str:0000000000010e96 .LASF5457
C:\Users\CYMR90~1\AppData\Local\Temp\ccx4ZXSQ.s:30800  .debug_str:000000000001f332 .LASF5458
C:\Users\CYMR90~1\AppData\Local\Temp\ccx4ZXSQ.s:33898  .debug_str:000000000002b336 .LASF5459
C:\Users\CYMR90~1\AppData\Local\Temp\ccx4ZXSQ.s:31732  .debug_str:0000000000022bb4 .LASF5460
C:\Users\CYMR90~1\AppData\Local\Temp\ccx4ZXSQ.s:28635  .debug_str:0000000000016898 .LASF5461
C:\Users\CYMR90~1\AppData\Local\Temp\ccx4ZXSQ.s:31910  .debug_str:000000000002368b .LASF5462
C:\Users\CYMR90~1\AppData\Local\Temp\ccx4ZXSQ.s:26903  .debug_str:000000000000fa44 .LASF5463
C:\Users\CYMR90~1\AppData\Local\Temp\ccx4ZXSQ.s:26471  .debug_str:000000000000e017 .LASF5464
C:\Users\CYMR90~1\AppData\Local\Temp\ccx4ZXSQ.s:28679  .debug_str:0000000000016b11 .LASF5465
C:\Users\CYMR90~1\AppData\Local\Temp\ccx4ZXSQ.s:30764  .debug_str:000000000001f11d .LASF5466
C:\Users\CYMR90~1\AppData\Local\Temp\ccx4ZXSQ.s:29538  .debug_str:000000000001a2fa .LASF5467
C:\Users\CYMR90~1\AppData\Local\Temp\ccx4ZXSQ.s:23929  .debug_str:0000000000003e0d .LASF5468
C:\Users\CYMR90~1\AppData\Local\Temp\ccx4ZXSQ.s:30434  .debug_str:000000000001dc63 .LASF5469
C:\Users\CYMR90~1\AppData\Local\Temp\ccx4ZXSQ.s:33126  .debug_str:00000000000283ac .LASF5470
C:\Users\CYMR90~1\AppData\Local\Temp\ccx4ZXSQ.s:28119  .debug_str:0000000000014855 .LASF5471
C:\Users\CYMR90~1\AppData\Local\Temp\ccx4ZXSQ.s:26245  .debug_str:000000000000d243 .LASF5472
C:\Users\CYMR90~1\AppData\Local\Temp\ccx4ZXSQ.s:25323  .debug_str:000000000000968a .LASF5473
C:\Users\CYMR90~1\AppData\Local\Temp\ccx4ZXSQ.s:23649  .debug_str:0000000000002c74 .LASF5474
C:\Users\CYMR90~1\AppData\Local\Temp\ccx4ZXSQ.s:34390  .debug_str:000000000002d26e .LASF5475
C:\Users\CYMR90~1\AppData\Local\Temp\ccx4ZXSQ.s:25213  .debug_str:0000000000008fae .LASF5476
C:\Users\CYMR90~1\AppData\Local\Temp\ccx4ZXSQ.s:29188  .debug_str:0000000000018c27 .LASF5477
C:\Users\CYMR90~1\AppData\Local\Temp\ccx4ZXSQ.s:23413  .debug_str:0000000000001dcf .LASF5478
C:\Users\CYMR90~1\AppData\Local\Temp\ccx4ZXSQ.s:30224  .debug_str:000000000001cd8a .LASF5479
C:\Users\CYMR90~1\AppData\Local\Temp\ccx4ZXSQ.s:28055  .debug_str:000000000001445d .LASF5480
C:\Users\CYMR90~1\AppData\Local\Temp\ccx4ZXSQ.s:32088  .debug_str:000000000002410d .LASF5481
C:\Users\CYMR90~1\AppData\Local\Temp\ccx4ZXSQ.s:28479  .debug_str:0000000000015e7a .LASF5482
C:\Users\CYMR90~1\AppData\Local\Temp\ccx4ZXSQ.s:33276  .debug_str:0000000000028e2b .LASF5483
C:\Users\CYMR90~1\AppData\Local\Temp\ccx4ZXSQ.s:26417  .debug_str:000000000000dd18 .LASF5484
C:\Users\CYMR90~1\AppData\Local\Temp\ccx4ZXSQ.s:31916  .debug_str:00000000000236d6 .LASF5485
C:\Users\CYMR90~1\AppData\Local\Temp\ccx4ZXSQ.s:24303  .debug_str:00000000000055ce .LASF5486
C:\Users\CYMR90~1\AppData\Local\Temp\ccx4ZXSQ.s:33160  .debug_str:00000000000285f2 .LASF5487
C:\Users\CYMR90~1\AppData\Local\Temp\ccx4ZXSQ.s:24301  .debug_str:00000000000055a8 .LASF5488
C:\Users\CYMR90~1\AppData\Local\Temp\ccx4ZXSQ.s:27355  .debug_str:00000000000116ff .LASF5489
C:\Users\CYMR90~1\AppData\Local\Temp\ccx4ZXSQ.s:24853  .debug_str:0000000000007845 .LASF5490
C:\Users\CYMR90~1\AppData\Local\Temp\ccx4ZXSQ.s:23493  .debug_str:0000000000002261 .LASF5491
C:\Users\CYMR90~1\AppData\Local\Temp\ccx4ZXSQ.s:24633  .debug_str:00000000000069eb .LASF5492
C:\Users\CYMR90~1\AppData\Local\Temp\ccx4ZXSQ.s:27415  .debug_str:0000000000011ac8 .LASF5493
C:\Users\CYMR90~1\AppData\Local\Temp\ccx4ZXSQ.s:30088  .debug_str:000000000001c5c5 .LASF5494
C:\Users\CYMR90~1\AppData\Local\Temp\ccx4ZXSQ.s:28719  .debug_str:0000000000016dc9 .LASF5495
C:\Users\CYMR90~1\AppData\Local\Temp\ccx4ZXSQ.s:34360  .debug_str:000000000002d043 .LASF5496
C:\Users\CYMR90~1\AppData\Local\Temp\ccx4ZXSQ.s:28553  .debug_str:00000000000162cb .LASF5497
C:\Users\CYMR90~1\AppData\Local\Temp\ccx4ZXSQ.s:31148  .debug_str:0000000000020838 .LASF5498
C:\Users\CYMR90~1\AppData\Local\Temp\ccx4ZXSQ.s:24699  .debug_str:0000000000006e25 .LASF5499
C:\Users\CYMR90~1\AppData\Local\Temp\ccx4ZXSQ.s:24333  .debug_str:0000000000005791 .LASF5500
C:\Users\CYMR90~1\AppData\Local\Temp\ccx4ZXSQ.s:30388  .debug_str:000000000001d9b9 .LASF5501
C:\Users\CYMR90~1\AppData\Local\Temp\ccx4ZXSQ.s:23049  .debug_str:0000000000000706 .LASF5502
C:\Users\CYMR90~1\AppData\Local\Temp\ccx4ZXSQ.s:24329  .debug_str:0000000000005752 .LASF5503
C:\Users\CYMR90~1\AppData\Local\Temp\ccx4ZXSQ.s:29506  .debug_str:000000000001a0f9 .LASF5504
C:\Users\CYMR90~1\AppData\Local\Temp\ccx4ZXSQ.s:29192  .debug_str:0000000000018c75 .LASF5505
C:\Users\CYMR90~1\AppData\Local\Temp\ccx4ZXSQ.s:32164  .debug_str:0000000000024576 .LASF5506
C:\Users\CYMR90~1\AppData\Local\Temp\ccx4ZXSQ.s:25987  .debug_str:000000000000c1be .LASF5507
C:\Users\CYMR90~1\AppData\Local\Temp\ccx4ZXSQ.s:24697  .debug_str:0000000000006dff .LASF5508
C:\Users\CYMR90~1\AppData\Local\Temp\ccx4ZXSQ.s:34068  .debug_str:000000000002bd6f .LASF5509
C:\Users\CYMR90~1\AppData\Local\Temp\ccx4ZXSQ.s:24271  .debug_str:00000000000053d5 .LASF5510
C:\Users\CYMR90~1\AppData\Local\Temp\ccx4ZXSQ.s:25593  .debug_str:000000000000a76f .LASF5511
C:\Users\CYMR90~1\AppData\Local\Temp\ccx4ZXSQ.s:24863  .debug_str:0000000000007903 .LASF5512
C:\Users\CYMR90~1\AppData\Local\Temp\ccx4ZXSQ.s:23125  .debug_str:0000000000000bb7 .LASF5513
C:\Users\CYMR90~1\AppData\Local\Temp\ccx4ZXSQ.s:32756  .debug_str:0000000000026d09 .LASF5514
C:\Users\CYMR90~1\AppData\Local\Temp\ccx4ZXSQ.s:29704  .debug_str:000000000001adaa .LASF5515
C:\Users\CYMR90~1\AppData\Local\Temp\ccx4ZXSQ.s:25967  .debug_str:000000000000c04a .LASF5516
C:\Users\CYMR90~1\AppData\Local\Temp\ccx4ZXSQ.s:33528  .debug_str:0000000000029dc5 .LASF5517
C:\Users\CYMR90~1\AppData\Local\Temp\ccx4ZXSQ.s:24959  .debug_str:0000000000007f1a .LASF5518
C:\Users\CYMR90~1\AppData\Local\Temp\ccx4ZXSQ.s:27613  .debug_str:0000000000012838 .LASF5519
C:\Users\CYMR90~1\AppData\Local\Temp\ccx4ZXSQ.s:32380  .debug_str:0000000000025346 .LASF5520
C:\Users\CYMR90~1\AppData\Local\Temp\ccx4ZXSQ.s:31574  .debug_str:000000000002226a .LASF5521
C:\Users\CYMR90~1\AppData\Local\Temp\ccx4ZXSQ.s:32594  .debug_str:00000000000262e3 .LASF5522
C:\Users\CYMR90~1\AppData\Local\Temp\ccx4ZXSQ.s:28241  .debug_str:000000000001500b .LASF5523
C:\Users\CYMR90~1\AppData\Local\Temp\ccx4ZXSQ.s:29002  .debug_str:0000000000018132 .LASF5524
C:\Users\CYMR90~1\AppData\Local\Temp\ccx4ZXSQ.s:31200  .debug_str:0000000000020b34 .LASF5525
C:\Users\CYMR90~1\AppData\Local\Temp\ccx4ZXSQ.s:31608  .debug_str:0000000000022485 .LASF5526
C:\Users\CYMR90~1\AppData\Local\Temp\ccx4ZXSQ.s:32980  .debug_str:0000000000027a70 .LASF5527
C:\Users\CYMR90~1\AppData\Local\Temp\ccx4ZXSQ.s:29872  .debug_str:000000000001b8bc .LASF5528
C:\Users\CYMR90~1\AppData\Local\Temp\ccx4ZXSQ.s:32022  .debug_str:0000000000023cd5 .LASF5529
C:\Users\CYMR90~1\AppData\Local\Temp\ccx4ZXSQ.s:24715  .debug_str:0000000000006f52 .LASF5530
C:\Users\CYMR90~1\AppData\Local\Temp\ccx4ZXSQ.s:28797  .debug_str:000000000001731f .LASF5531
C:\Users\CYMR90~1\AppData\Local\Temp\ccx4ZXSQ.s:32814  .debug_str:0000000000027087 .LASF5532
C:\Users\CYMR90~1\AppData\Local\Temp\ccx4ZXSQ.s:24045  .debug_str:000000000000454c .LASF5533
C:\Users\CYMR90~1\AppData\Local\Temp\ccx4ZXSQ.s:25443  .debug_str:0000000000009e0c .LASF5534
C:\Users\CYMR90~1\AppData\Local\Temp\ccx4ZXSQ.s:27921  .debug_str:0000000000013c6d .LASF5535
C:\Users\CYMR90~1\AppData\Local\Temp\ccx4ZXSQ.s:30072  .debug_str:000000000001c48f .LASF5536
C:\Users\CYMR90~1\AppData\Local\Temp\ccx4ZXSQ.s:28954  .debug_str:0000000000017dea .LASF5537
C:\Users\CYMR90~1\AppData\Local\Temp\ccx4ZXSQ.s:28285  .debug_str:0000000000015280 .LASF5538
C:\Users\CYMR90~1\AppData\Local\Temp\ccx4ZXSQ.s:24491  .debug_str:0000000000006154 .LASF5539
C:\Users\CYMR90~1\AppData\Local\Temp\ccx4ZXSQ.s:25891  .debug_str:000000000000bb56 .LASF5540
C:\Users\CYMR90~1\AppData\Local\Temp\ccx4ZXSQ.s:27463  .debug_str:0000000000011e00 .LASF5541
C:\Users\CYMR90~1\AppData\Local\Temp\ccx4ZXSQ.s:31462  .debug_str:0000000000021ac2 .LASF5542
C:\Users\CYMR90~1\AppData\Local\Temp\ccx4ZXSQ.s:23859  .debug_str:00000000000039ec .LASF5543
C:\Users\CYMR90~1\AppData\Local\Temp\ccx4ZXSQ.s:27937  .debug_str:0000000000013d88 .LASF5544
C:\Users\CYMR90~1\AppData\Local\Temp\ccx4ZXSQ.s:31064  .debug_str:00000000000202cd .LASF5545
C:\Users\CYMR90~1\AppData\Local\Temp\ccx4ZXSQ.s:30194  .debug_str:000000000001cbd0 .LASF5546
C:\Users\CYMR90~1\AppData\Local\Temp\ccx4ZXSQ.s:29330  .debug_str:0000000000019554 .LASF5547
C:\Users\CYMR90~1\AppData\Local\Temp\ccx4ZXSQ.s:30942  .debug_str:000000000001fba7 .LASF5548
C:\Users\CYMR90~1\AppData\Local\Temp\ccx4ZXSQ.s:24043  .debug_str:0000000000004526 .LASF5549
C:\Users\CYMR90~1\AppData\Local\Temp\ccx4ZXSQ.s:23973  .debug_str:0000000000004135 .LASF5550
C:\Users\CYMR90~1\AppData\Local\Temp\ccx4ZXSQ.s:31392  .debug_str:000000000002171d .LASF5551
C:\Users\CYMR90~1\AppData\Local\Temp\ccx4ZXSQ.s:29292  .debug_str:000000000001922d .LASF5552
C:\Users\CYMR90~1\AppData\Local\Temp\ccx4ZXSQ.s:32010  .debug_str:0000000000023c1a .LASF5553
C:\Users\CYMR90~1\AppData\Local\Temp\ccx4ZXSQ.s:31906  .debug_str:000000000002364b .LASF5554
C:\Users\CYMR90~1\AppData\Local\Temp\ccx4ZXSQ.s:23655  .debug_str:0000000000002cc4 .LASF5555
                           .group:0000000000000000 wm4.0.10abbef32179bc1260444192115bdf5e
                           .group:0000000000000000 wm4.stddef.h.39.144cf5ddcd53cbfdac30259dc1a6c87f
                           .group:0000000000000000 wm4._newlib_version.h.4.bfdf54b0af045d4a71376ae00f63a22c
                           .group:0000000000000000 wm4.newlib.h.18.08a2ecba46890ca2aa56bbe21686e6c3
                           .group:0000000000000000 wm4.ieeefp.h.202.4f2759f5758fd82153cfbf98692f2ced
                           .group:0000000000000000 wm4.features.h.22.fad1cec3bc7ff06488171438dbdcfd02
                           .group:0000000000000000 wm4.config.h.83.13bbc8852bfac55b724c9822481355b5
                           .group:0000000000000000 wm4._ansi.h.31.de524f58584151836e90d8620a16f8e8
                           .group:0000000000000000 wm4.stdio.h.31.7c0e28c411445f3f9c5b11accf882760
                           .group:0000000000000000 wm4._default_types.h.6.959254cf5f09734ea7516c89e8bb21bd
                           .group:0000000000000000 wm4.stddef.h.155.ba788add86a0e365f264484f110c3c29
                           .group:0000000000000000 wm4.cdefs.h.49.39045112216f6a021dbdffe3bf5accce
                           .group:0000000000000000 wm4.stdarg.h.34.3a23a216c0c293b3d2ea2e89281481e6
                           .group:0000000000000000 wm4._types.h.20.dd0d04dca3800a0d2a6129b87f3adbb2
                           .group:0000000000000000 wm4.stddef.h.155.3588ebfdd1e8c7ede80509bb9c3b8009
                           .group:0000000000000000 wm4._types.h.127.34941de1b2539d59d5cac00e0dd27a45
                           .group:0000000000000000 wm4.reent.h.17.e292bf8b0bec6c96e131a54347145a30
                           .group:0000000000000000 wm4.lock.h.2.c0958401bd0ce484d507ee19aacab817
                           .group:0000000000000000 wm4.reent.h.77.dcd6129ff07fe81bd5636db29abe53b2
                           .group:0000000000000000 wm4.types.h.40.8b6acba56cefbb11746718204edc8f5e
                           .group:0000000000000000 wm4._stdint.h.10.c24fa3af3bc1706662bb5593a907e841
                           .group:0000000000000000 wm4._endian.h.18.1bf9649e8e5bbc91042012680270b9ed
                           .group:0000000000000000 wm4.endian.h.9.49f3a4695c1b61e8a0808de3c4a106cb
                           .group:0000000000000000 wm4._timeval.h.32.bec3221fa7a9bb0bdde696c9c57e47d2
                           .group:0000000000000000 wm4.timespec.h.41.d855182eb0e690443ab8651bcedca6e1
                           .group:0000000000000000 wm4.select.h.19.40cd3f2bfc456b193b790c2754690ebf
                           .group:0000000000000000 wm4.types.h.51.5571ec98f267d17d3c670b7a3ba33afa
                           .group:0000000000000000 wm4.sched.h.22.c60982713a5c428609783c78f9c78d95
                           .group:0000000000000000 wm4._pthreadtypes.h.36.fcee9961c35163dde6267ef772ad1972
                           .group:0000000000000000 wm4.stdio.h.2.4aa87247282eca6c8f36f9de33d8df1a
                           .group:0000000000000000 wm4.stdio.h.81.932d0c162786b883f622b8d05c120c78
                           .group:0000000000000000 wm4.gd32vw55x.h.47.379378190858578060a317909b2c8d8a
                           .group:0000000000000000 wm4._intsup.h.10.48bafbb683905c4daa4565a85aeeb264
                           .group:0000000000000000 wm4.stdint.h.23.d53047a68f4a85177f80b422d52785ed
                           .group:0000000000000000 wm4.nmsis_version.h.19.ffa173da8efb17b1050904994d6f500e
                           .group:0000000000000000 wm4.riscv_bits.h.19.ee94eb3d39937793d4cd0a62363e5d00
                           .group:0000000000000000 wm4.riscv_encoding.h.35.f5d37fad7abbab8278b4bb6f1e32fa65
                           .group:0000000000000000 wm4.nmsis_gcc.h.61.5d70d7598ffc79c3c991d847a574cf23
                           .group:0000000000000000 wm4.core_feature_base.h.20.e99d3e75c26a8f3341d35bf20d0e1d20
                           .group:0000000000000000 wm4.core_feature_fpu.h.19.695f2200274659b530cb97cda749ff4f
                           .group:0000000000000000 wm4.core_feature_dsp.h.19.e8f8d7aa42f197807aefedb6584486cd
                           .group:0000000000000000 wm4.core_compatiable.h.19.5b8282d61b1f6889a82895616b730084
                           .group:0000000000000000 wm4.core_feature_eclic.h.19.e0c091d0cbda79e8b3b031b979ebd5a1
                           .group:0000000000000000 wm4.core_feature_timer.h.19.21a5151282de34c37dfa6d84e262aa54
                           .group:0000000000000000 wm4.system_gd32vw55x.h.32.f1fcb1212d387c35ac955b0e96ada468
                           .group:0000000000000000 wm4.gd32vw55x.h.231.3529c650aff38c9372f7e03177fd2c8a
                           .group:0000000000000000 wm4.gd32vw55x_adc.h.42.ae73acec1704ef509ccecb41a875b50e
                           .group:0000000000000000 wm4.gd32vw55x_cau.h.36.c98428fe1eae7edb4721da5c8078c974
                           .group:0000000000000000 wm4.gd32vw55x_crc.h.37.c58f296814c2300a4b067c08bd88d54e
                           .group:0000000000000000 wm4.gd32vw55x_dbg.h.36.311650c8545549d482ceca8befc5a232
                           .group:0000000000000000 wm4.gd32vw55x_dma.h.36.f4adc751172b2a7b1533dda72e948737
                           .group:0000000000000000 wm4.gd32vw55x_eclic.h.36.0411499f2b2493c67246e32ccae096c1
                           .group:0000000000000000 wm4.gd32vw55x_efuse.h.36.091404cecbab70359dfd93faec5fdb62
                           .group:0000000000000000 wm4.gd32vw55x_exti.h.36.de7508334dd12f1a6a673521a1a835f5
                           .group:0000000000000000 wm4.gd32vw55x_fmc.h.36.a4b0b94c47ffe23a2fa09260c5ed4850
                           .group:0000000000000000 wm4.gd32vw55x_fwdgt.h.36.4846b6900fd24b5bfce4986c9a8ce677
                           .group:0000000000000000 wm4.gd32vw55x_gpio.h.36.adfee1371bb58d3d9043c47bdb25a90f
                           .group:0000000000000000 wm4.gd32vw55x_hau.h.36.f3cbcbd7b67c9e5bdc7a1100b1bf3458
                           .group:0000000000000000 wm4.gd32vw55x_i2c.h.36.3848990933925e084eb427083790c53f
                           .group:0000000000000000 wm4.gd32vw55x_pkcau.h.36.bb2235f4cf4967063a51bfa9aca5ef27
                           .group:0000000000000000 wm4.gd32vw55x_pmu.h.36.4c76091f1415551526d489ccf2c42052
                           .group:0000000000000000 wm4.gd32vw55x_qspi.h.36.2d2c181cfe19b935a9641008fc786613
                           .group:0000000000000000 wm4.gd32vw55x_rtc.h.36.3172855e8715659e080e0eab46fdf175
                           .group:0000000000000000 wm4.gd32vw55x_spi.h.36.9fa1be2b09fb73e4b5886e97f0e96d58
                           .group:0000000000000000 wm4.gd32vw55x_syscfg.h.36.010551f05591f5e34051d2e15df0352b
                           .group:0000000000000000 wm4.gd32vw55x_timer.h.38.2cbee78ea60d47145be361b2d2c55070
                           .group:0000000000000000 wm4.gd32vw55x_trng.h.36.c9e7807af1b1ab68d3bbb54f4ed5cd73
                           .group:0000000000000000 wm4.gd32vw55x_usart.h.36.f5c497cca17945a34f154b0e17017d02
                           .group:0000000000000000 wm4.gd32vw55x_wwdgt.h.36.f7a443b7302efc0e5c335888582ee197
                           .group:0000000000000000 wm4.gd32vw55x_rcu.h.41.11f1580dac7139850052e06c3fbdeb5e

NO UNDEFINED SYMBOLS
