   1              		.file	"gd32vw55x_dbg.c"
   2              		.option nopic
   3              		.attribute arch, "rv32i2p0_m2p0_a2p0_c2p0"
   4              		.attribute unaligned_access, 0
   5              		.attribute stack_align, 16
   6              		.text
   7              	.Ltext0:
   8              		.cfi_sections	.debug_frame
   9              		.section	.text.dbg_deinit,"ax",@progbits
  10              		.align	1
  11              		.globl	dbg_deinit
  13              	dbg_deinit:
  14              	.LFB347:
  15              		.file 1 "../Firmware/GD32VW55x_standard_peripheral/Source/gd32vw55x_dbg.c"
   1:../Firmware/GD32VW55x_standard_peripheral/Source/gd32vw55x_dbg.c **** /*!
   2:../Firmware/GD32VW55x_standard_peripheral/Source/gd32vw55x_dbg.c ****     \file    gd32vw55x_dbg.c
   3:../Firmware/GD32VW55x_standard_peripheral/Source/gd32vw55x_dbg.c ****     \brief   DBG driver
   4:../Firmware/GD32VW55x_standard_peripheral/Source/gd32vw55x_dbg.c **** 
   5:../Firmware/GD32VW55x_standard_peripheral/Source/gd32vw55x_dbg.c ****     \version 2025-01-16, V1.4.0, firmware for GD32VW55x
   6:../Firmware/GD32VW55x_standard_peripheral/Source/gd32vw55x_dbg.c **** */
   7:../Firmware/GD32VW55x_standard_peripheral/Source/gd32vw55x_dbg.c **** 
   8:../Firmware/GD32VW55x_standard_peripheral/Source/gd32vw55x_dbg.c **** /*
   9:../Firmware/GD32VW55x_standard_peripheral/Source/gd32vw55x_dbg.c ****     Copyright (c) 2025, GigaDevice Semiconductor Inc.
  10:../Firmware/GD32VW55x_standard_peripheral/Source/gd32vw55x_dbg.c **** 
  11:../Firmware/GD32VW55x_standard_peripheral/Source/gd32vw55x_dbg.c ****     Redistribution and use in source and binary forms, with or without modification,
  12:../Firmware/GD32VW55x_standard_peripheral/Source/gd32vw55x_dbg.c **** are permitted provided that the following conditions are met:
  13:../Firmware/GD32VW55x_standard_peripheral/Source/gd32vw55x_dbg.c **** 
  14:../Firmware/GD32VW55x_standard_peripheral/Source/gd32vw55x_dbg.c ****     1. Redistributions of source code must retain the above copyright notice, this
  15:../Firmware/GD32VW55x_standard_peripheral/Source/gd32vw55x_dbg.c ****        list of conditions and the following disclaimer.
  16:../Firmware/GD32VW55x_standard_peripheral/Source/gd32vw55x_dbg.c ****     2. Redistributions in binary form must reproduce the above copyright notice,
  17:../Firmware/GD32VW55x_standard_peripheral/Source/gd32vw55x_dbg.c ****        this list of conditions and the following disclaimer in the documentation
  18:../Firmware/GD32VW55x_standard_peripheral/Source/gd32vw55x_dbg.c ****        and/or other materials provided with the distribution.
  19:../Firmware/GD32VW55x_standard_peripheral/Source/gd32vw55x_dbg.c ****     3. Neither the name of the copyright holder nor the names of its contributors
  20:../Firmware/GD32VW55x_standard_peripheral/Source/gd32vw55x_dbg.c ****        may be used to endorse or promote products derived from this software without
  21:../Firmware/GD32VW55x_standard_peripheral/Source/gd32vw55x_dbg.c ****        specific prior written permission.
  22:../Firmware/GD32VW55x_standard_peripheral/Source/gd32vw55x_dbg.c **** 
  23:../Firmware/GD32VW55x_standard_peripheral/Source/gd32vw55x_dbg.c ****     THIS SOFTWARE IS PROVIDED BY THE COPYRIGHT HOLDERS AND CONTRIBUTORS "AS IS"
  24:../Firmware/GD32VW55x_standard_peripheral/Source/gd32vw55x_dbg.c **** AND ANY EXPRESS OR IMPLIED WARRANTIES, INCLUDING, BUT NOT LIMITED TO, THE IMPLIED
  25:../Firmware/GD32VW55x_standard_peripheral/Source/gd32vw55x_dbg.c **** WARRANTIES OF MERCHANTABILITY AND FITNESS FOR A PARTICULAR PURPOSE ARE DISCLAIMED.
  26:../Firmware/GD32VW55x_standard_peripheral/Source/gd32vw55x_dbg.c **** IN NO EVENT SHALL THE COPYRIGHT HOLDER OR CONTRIBUTORS BE LIABLE FOR ANY DIRECT,
  27:../Firmware/GD32VW55x_standard_peripheral/Source/gd32vw55x_dbg.c **** INDIRECT, INCIDENTAL, SPECIAL, EXEMPLARY, OR CONSEQUENTIAL DAMAGES (INCLUDING, BUT
  28:../Firmware/GD32VW55x_standard_peripheral/Source/gd32vw55x_dbg.c **** NOT LIMITED TO, PROCUREMENT OF SUBSTITUTE GOODS OR SERVICES; LOSS OF USE, DATA, OR
  29:../Firmware/GD32VW55x_standard_peripheral/Source/gd32vw55x_dbg.c **** PROFITS; OR BUSINESS INTERRUPTION) HOWEVER CAUSED AND ON ANY THEORY OF LIABILITY,
  30:../Firmware/GD32VW55x_standard_peripheral/Source/gd32vw55x_dbg.c **** WHETHER IN CONTRACT, STRICT LIABILITY, OR TORT (INCLUDING NEGLIGENCE OR OTHERWISE)
  31:../Firmware/GD32VW55x_standard_peripheral/Source/gd32vw55x_dbg.c **** ARISING IN ANY WAY OUT OF THE USE OF THIS SOFTWARE, EVEN IF ADVISED OF THE POSSIBILITY
  32:../Firmware/GD32VW55x_standard_peripheral/Source/gd32vw55x_dbg.c **** OF SUCH DAMAGE.
  33:../Firmware/GD32VW55x_standard_peripheral/Source/gd32vw55x_dbg.c **** */
  34:../Firmware/GD32VW55x_standard_peripheral/Source/gd32vw55x_dbg.c **** 
  35:../Firmware/GD32VW55x_standard_peripheral/Source/gd32vw55x_dbg.c **** #include "gd32vw55x_dbg.h"
  36:../Firmware/GD32VW55x_standard_peripheral/Source/gd32vw55x_dbg.c **** 
  37:../Firmware/GD32VW55x_standard_peripheral/Source/gd32vw55x_dbg.c **** #define DBG_RESET_VAL       ((uint32_t)0x00000000U)   /*!< DBG reset value */
  38:../Firmware/GD32VW55x_standard_peripheral/Source/gd32vw55x_dbg.c **** 
  39:../Firmware/GD32VW55x_standard_peripheral/Source/gd32vw55x_dbg.c **** /*!
  40:../Firmware/GD32VW55x_standard_peripheral/Source/gd32vw55x_dbg.c ****     \brief      deinitialize the DBG
  41:../Firmware/GD32VW55x_standard_peripheral/Source/gd32vw55x_dbg.c ****     \param[in]  none
  42:../Firmware/GD32VW55x_standard_peripheral/Source/gd32vw55x_dbg.c ****     \param[out] none
  43:../Firmware/GD32VW55x_standard_peripheral/Source/gd32vw55x_dbg.c ****     \retval     none
  44:../Firmware/GD32VW55x_standard_peripheral/Source/gd32vw55x_dbg.c **** */
  45:../Firmware/GD32VW55x_standard_peripheral/Source/gd32vw55x_dbg.c **** void dbg_deinit(void)
  46:../Firmware/GD32VW55x_standard_peripheral/Source/gd32vw55x_dbg.c **** {
  16              		.loc 1 46 1
  17              		.cfi_startproc
  18 0000 4111     		addi	sp,sp,-16
  19              		.cfi_def_cfa_offset 16
  20 0002 22C6     		sw	s0,12(sp)
  21              		.cfi_offset 8, -4
  22 0004 0008     		addi	s0,sp,16
  23              		.cfi_def_cfa 8, 0
  47:../Firmware/GD32VW55x_standard_peripheral/Source/gd32vw55x_dbg.c ****     DBG_CTL0 = DBG_RESET_VAL;
  24              		.loc 1 47 5
  25 0006 B74704E0 		li	a5,-536592384
  26 000a 9107     		addi	a5,a5,4
  27              		.loc 1 47 14
  28 000c 23A00700 		sw	zero,0(a5)
  48:../Firmware/GD32VW55x_standard_peripheral/Source/gd32vw55x_dbg.c ****     DBG_CTL1 = DBG_RESET_VAL;
  29              		.loc 1 48 5
  30 0010 B74704E0 		li	a5,-536592384
  31 0014 A107     		addi	a5,a5,8
  32              		.loc 1 48 14
  33 0016 23A00700 		sw	zero,0(a5)
  49:../Firmware/GD32VW55x_standard_peripheral/Source/gd32vw55x_dbg.c ****     DBG_CTL2 = DBG_RESET_VAL;
  34              		.loc 1 49 5
  35 001a B74704E0 		li	a5,-536592384
  36 001e B107     		addi	a5,a5,12
  37              		.loc 1 49 14
  38 0020 23A00700 		sw	zero,0(a5)
  50:../Firmware/GD32VW55x_standard_peripheral/Source/gd32vw55x_dbg.c **** }
  39              		.loc 1 50 1
  40 0024 0100     		nop
  41 0026 3244     		lw	s0,12(sp)
  42              		.cfi_restore 8
  43              		.cfi_def_cfa 2, 16
  44 0028 4101     		addi	sp,sp,16
  45              		.cfi_def_cfa_offset 0
  46 002a 8280     		jr	ra
  47              		.cfi_endproc
  48              	.LFE347:
  50              		.section	.text.dbg_id_get,"ax",@progbits
  51              		.align	1
  52              		.globl	dbg_id_get
  54              	dbg_id_get:
  55              	.LFB348:
  51:../Firmware/GD32VW55x_standard_peripheral/Source/gd32vw55x_dbg.c **** 
  52:../Firmware/GD32VW55x_standard_peripheral/Source/gd32vw55x_dbg.c **** /*!
  53:../Firmware/GD32VW55x_standard_peripheral/Source/gd32vw55x_dbg.c ****     \brief      read DBG_ID code register
  54:../Firmware/GD32VW55x_standard_peripheral/Source/gd32vw55x_dbg.c ****     \param[in]  none
  55:../Firmware/GD32VW55x_standard_peripheral/Source/gd32vw55x_dbg.c ****     \param[out] none
  56:../Firmware/GD32VW55x_standard_peripheral/Source/gd32vw55x_dbg.c ****     \retval     DBG_ID code
  57:../Firmware/GD32VW55x_standard_peripheral/Source/gd32vw55x_dbg.c **** */
  58:../Firmware/GD32VW55x_standard_peripheral/Source/gd32vw55x_dbg.c **** uint32_t dbg_id_get(void)
  59:../Firmware/GD32VW55x_standard_peripheral/Source/gd32vw55x_dbg.c **** {
  56              		.loc 1 59 1
  57              		.cfi_startproc
  58 0000 4111     		addi	sp,sp,-16
  59              		.cfi_def_cfa_offset 16
  60 0002 22C6     		sw	s0,12(sp)
  61              		.cfi_offset 8, -4
  62 0004 0008     		addi	s0,sp,16
  63              		.cfi_def_cfa 8, 0
  60:../Firmware/GD32VW55x_standard_peripheral/Source/gd32vw55x_dbg.c ****     return DBG_ID;
  64              		.loc 1 60 12
  65 0006 B74704E0 		li	a5,-536592384
  66 000a 9C43     		lw	a5,0(a5)
  61:../Firmware/GD32VW55x_standard_peripheral/Source/gd32vw55x_dbg.c **** }
  67              		.loc 1 61 1
  68 000c 3E85     		mv	a0,a5
  69 000e 3244     		lw	s0,12(sp)
  70              		.cfi_restore 8
  71              		.cfi_def_cfa 2, 16
  72 0010 4101     		addi	sp,sp,16
  73              		.cfi_def_cfa_offset 0
  74 0012 8280     		jr	ra
  75              		.cfi_endproc
  76              	.LFE348:
  78              		.section	.text.dbg_low_power_enable,"ax",@progbits
  79              		.align	1
  80              		.globl	dbg_low_power_enable
  82              	dbg_low_power_enable:
  83              	.LFB349:
  62:../Firmware/GD32VW55x_standard_peripheral/Source/gd32vw55x_dbg.c **** 
  63:../Firmware/GD32VW55x_standard_peripheral/Source/gd32vw55x_dbg.c **** /*!
  64:../Firmware/GD32VW55x_standard_peripheral/Source/gd32vw55x_dbg.c ****     \brief      enable low power behavior when the MCU is in debug mode
  65:../Firmware/GD32VW55x_standard_peripheral/Source/gd32vw55x_dbg.c ****     \param[in]  dbg_low_power:
  66:../Firmware/GD32VW55x_standard_peripheral/Source/gd32vw55x_dbg.c ****                 only one parameter can be selected which is shown as below:
  67:../Firmware/GD32VW55x_standard_peripheral/Source/gd32vw55x_dbg.c ****       \arg        DBG_LOW_POWER_SLEEP: keep debugger connection during sleep mode
  68:../Firmware/GD32VW55x_standard_peripheral/Source/gd32vw55x_dbg.c ****       \arg        DBG_LOW_POWER_DEEPSLEEP: keep debugger connection during deepsleep mode
  69:../Firmware/GD32VW55x_standard_peripheral/Source/gd32vw55x_dbg.c ****       \arg        DBG_LOW_POWER_STANDBY: keep debugger connection during standby mode
  70:../Firmware/GD32VW55x_standard_peripheral/Source/gd32vw55x_dbg.c ****     \param[out] none
  71:../Firmware/GD32VW55x_standard_peripheral/Source/gd32vw55x_dbg.c ****     \retval     none
  72:../Firmware/GD32VW55x_standard_peripheral/Source/gd32vw55x_dbg.c **** */
  73:../Firmware/GD32VW55x_standard_peripheral/Source/gd32vw55x_dbg.c **** void dbg_low_power_enable(uint32_t dbg_low_power)
  74:../Firmware/GD32VW55x_standard_peripheral/Source/gd32vw55x_dbg.c **** {
  84              		.loc 1 74 1
  85              		.cfi_startproc
  86 0000 0111     		addi	sp,sp,-32
  87              		.cfi_def_cfa_offset 32
  88 0002 22CE     		sw	s0,28(sp)
  89              		.cfi_offset 8, -4
  90 0004 0010     		addi	s0,sp,32
  91              		.cfi_def_cfa 8, 0
  92 0006 2326A4FE 		sw	a0,-20(s0)
  75:../Firmware/GD32VW55x_standard_peripheral/Source/gd32vw55x_dbg.c ****     DBG_CTL0 |= dbg_low_power;
  93              		.loc 1 75 14
  94 000a B74704E0 		li	a5,-536592384
  95 000e 9107     		addi	a5,a5,4
  96 0010 9443     		lw	a3,0(a5)
  97 0012 B74704E0 		li	a5,-536592384
  98 0016 9107     		addi	a5,a5,4
  99 0018 0327C4FE 		lw	a4,-20(s0)
 100 001c 558F     		or	a4,a3,a4
 101 001e 98C3     		sw	a4,0(a5)
  76:../Firmware/GD32VW55x_standard_peripheral/Source/gd32vw55x_dbg.c **** }
 102              		.loc 1 76 1
 103 0020 0100     		nop
 104 0022 7244     		lw	s0,28(sp)
 105              		.cfi_restore 8
 106              		.cfi_def_cfa 2, 32
 107 0024 0561     		addi	sp,sp,32
 108              		.cfi_def_cfa_offset 0
 109 0026 8280     		jr	ra
 110              		.cfi_endproc
 111              	.LFE349:
 113              		.section	.text.dbg_low_power_disable,"ax",@progbits
 114              		.align	1
 115              		.globl	dbg_low_power_disable
 117              	dbg_low_power_disable:
 118              	.LFB350:
  77:../Firmware/GD32VW55x_standard_peripheral/Source/gd32vw55x_dbg.c **** 
  78:../Firmware/GD32VW55x_standard_peripheral/Source/gd32vw55x_dbg.c **** /*!
  79:../Firmware/GD32VW55x_standard_peripheral/Source/gd32vw55x_dbg.c ****     \brief      disable low power behavior when the MCU is in debug mode
  80:../Firmware/GD32VW55x_standard_peripheral/Source/gd32vw55x_dbg.c ****     \param[in]  dbg_low_power:
  81:../Firmware/GD32VW55x_standard_peripheral/Source/gd32vw55x_dbg.c ****                 only one parameter can be selected which is shown as below:
  82:../Firmware/GD32VW55x_standard_peripheral/Source/gd32vw55x_dbg.c ****       \arg        DBG_LOW_POWER_SLEEP: do not keep debugger connection during sleep mode
  83:../Firmware/GD32VW55x_standard_peripheral/Source/gd32vw55x_dbg.c ****       \arg        DBG_LOW_POWER_DEEPSLEEP: do not keep debugger connection during deepsleep mode
  84:../Firmware/GD32VW55x_standard_peripheral/Source/gd32vw55x_dbg.c ****       \arg        DBG_LOW_POWER_STANDBY: do not keep debugger connection during standby mode
  85:../Firmware/GD32VW55x_standard_peripheral/Source/gd32vw55x_dbg.c ****     \param[out] none
  86:../Firmware/GD32VW55x_standard_peripheral/Source/gd32vw55x_dbg.c ****     \retval     none
  87:../Firmware/GD32VW55x_standard_peripheral/Source/gd32vw55x_dbg.c **** */
  88:../Firmware/GD32VW55x_standard_peripheral/Source/gd32vw55x_dbg.c **** void dbg_low_power_disable(uint32_t dbg_low_power)
  89:../Firmware/GD32VW55x_standard_peripheral/Source/gd32vw55x_dbg.c **** {
 119              		.loc 1 89 1
 120              		.cfi_startproc
 121 0000 0111     		addi	sp,sp,-32
 122              		.cfi_def_cfa_offset 32
 123 0002 22CE     		sw	s0,28(sp)
 124              		.cfi_offset 8, -4
 125 0004 0010     		addi	s0,sp,32
 126              		.cfi_def_cfa 8, 0
 127 0006 2326A4FE 		sw	a0,-20(s0)
  90:../Firmware/GD32VW55x_standard_peripheral/Source/gd32vw55x_dbg.c ****     DBG_CTL0 &= ~dbg_low_power;
 128              		.loc 1 90 14
 129 000a B74704E0 		li	a5,-536592384
 130 000e 9107     		addi	a5,a5,4
 131 0010 9443     		lw	a3,0(a5)
 132              		.loc 1 90 17
 133 0012 8327C4FE 		lw	a5,-20(s0)
 134 0016 13C7F7FF 		not	a4,a5
 135              		.loc 1 90 14
 136 001a B74704E0 		li	a5,-536592384
 137 001e 9107     		addi	a5,a5,4
 138 0020 758F     		and	a4,a3,a4
 139 0022 98C3     		sw	a4,0(a5)
  91:../Firmware/GD32VW55x_standard_peripheral/Source/gd32vw55x_dbg.c **** }
 140              		.loc 1 91 1
 141 0024 0100     		nop
 142 0026 7244     		lw	s0,28(sp)
 143              		.cfi_restore 8
 144              		.cfi_def_cfa 2, 32
 145 0028 0561     		addi	sp,sp,32
 146              		.cfi_def_cfa_offset 0
 147 002a 8280     		jr	ra
 148              		.cfi_endproc
 149              	.LFE350:
 151              		.section	.text.dbg_periph_enable,"ax",@progbits
 152              		.align	1
 153              		.globl	dbg_periph_enable
 155              	dbg_periph_enable:
 156              	.LFB351:
  92:../Firmware/GD32VW55x_standard_peripheral/Source/gd32vw55x_dbg.c **** 
  93:../Firmware/GD32VW55x_standard_peripheral/Source/gd32vw55x_dbg.c **** /*!
  94:../Firmware/GD32VW55x_standard_peripheral/Source/gd32vw55x_dbg.c ****     \brief      enable peripheral behavior when the MCU is in debug mode
  95:../Firmware/GD32VW55x_standard_peripheral/Source/gd32vw55x_dbg.c ****     \param[in]  dbg_periph: DBG peripheral
  96:../Firmware/GD32VW55x_standard_peripheral/Source/gd32vw55x_dbg.c ****                 only one parameter can be selected which is shown as below:
  97:../Firmware/GD32VW55x_standard_peripheral/Source/gd32vw55x_dbg.c ****       \arg        DBG_FWDGT_HOLD: hold FWDGT counter when core is halted
  98:../Firmware/GD32VW55x_standard_peripheral/Source/gd32vw55x_dbg.c ****       \arg        DBG_WWDGT_HOLD: hold WWDGT counter when core is halted
  99:../Firmware/GD32VW55x_standard_peripheral/Source/gd32vw55x_dbg.c ****       \arg        DBG_TIMER0_HOLD: hold TIMER0 counter when core is halted
 100:../Firmware/GD32VW55x_standard_peripheral/Source/gd32vw55x_dbg.c ****       \arg        DBG_TIMER1_HOLD: hold TIMER1 counter when core is halted
 101:../Firmware/GD32VW55x_standard_peripheral/Source/gd32vw55x_dbg.c ****       \arg        DBG_TIMER2_HOLD: hold TIMER2 counter when core is halted
 102:../Firmware/GD32VW55x_standard_peripheral/Source/gd32vw55x_dbg.c ****       \arg        DBG_TIMER5_HOLD: hold TIMER5 counter when core is halted
 103:../Firmware/GD32VW55x_standard_peripheral/Source/gd32vw55x_dbg.c ****       \arg        DBG_TIMER15_HOLD: hold TIMER15 counter when core is halted
 104:../Firmware/GD32VW55x_standard_peripheral/Source/gd32vw55x_dbg.c ****       \arg        DBG_TIMER16_HOLD: hold TIMER16 counter when core is halted
 105:../Firmware/GD32VW55x_standard_peripheral/Source/gd32vw55x_dbg.c ****       \arg        DBG_I2C0_HOLD: hold I2C0 SMBUS when core is halted
 106:../Firmware/GD32VW55x_standard_peripheral/Source/gd32vw55x_dbg.c ****       \arg        DBG_I2C1_HOLD: hold I2C1 SMBUS when core is halted
 107:../Firmware/GD32VW55x_standard_peripheral/Source/gd32vw55x_dbg.c ****       \arg        DBG_RTC_HOLD: hold RTC calendar and wakeup counter when core is halted
 108:../Firmware/GD32VW55x_standard_peripheral/Source/gd32vw55x_dbg.c ****     \param[out] none
 109:../Firmware/GD32VW55x_standard_peripheral/Source/gd32vw55x_dbg.c ****     \retval     none
 110:../Firmware/GD32VW55x_standard_peripheral/Source/gd32vw55x_dbg.c **** */
 111:../Firmware/GD32VW55x_standard_peripheral/Source/gd32vw55x_dbg.c **** void dbg_periph_enable(dbg_periph_enum dbg_periph)
 112:../Firmware/GD32VW55x_standard_peripheral/Source/gd32vw55x_dbg.c **** {
 157              		.loc 1 112 1
 158              		.cfi_startproc
 159 0000 0111     		addi	sp,sp,-32
 160              		.cfi_def_cfa_offset 32
 161 0002 22CE     		sw	s0,28(sp)
 162              		.cfi_offset 8, -4
 163 0004 0010     		addi	s0,sp,32
 164              		.cfi_def_cfa 8, 0
 165 0006 2326A4FE 		sw	a0,-20(s0)
 113:../Firmware/GD32VW55x_standard_peripheral/Source/gd32vw55x_dbg.c ****     if(RESET == ((uint32_t)dbg_periph & BIT(30))) {
 166              		.loc 1 113 39
 167 000a 0327C4FE 		lw	a4,-20(s0)
 168 000e B7070040 		li	a5,1073741824
 169 0012 F98F     		and	a5,a4,a5
 170              		.loc 1 113 7
 171 0014 89EF     		bne	a5,zero,.L7
 114:../Firmware/GD32VW55x_standard_peripheral/Source/gd32vw55x_dbg.c ****         DBG_CTL1 |= (uint32_t)dbg_periph;
 172              		.loc 1 114 18
 173 0016 B74704E0 		li	a5,-536592384
 174 001a A107     		addi	a5,a5,8
 175 001c 9443     		lw	a3,0(a5)
 176 001e B74704E0 		li	a5,-536592384
 177 0022 A107     		addi	a5,a5,8
 178 0024 0327C4FE 		lw	a4,-20(s0)
 179 0028 558F     		or	a4,a3,a4
 180 002a 98C3     		sw	a4,0(a5)
 115:../Firmware/GD32VW55x_standard_peripheral/Source/gd32vw55x_dbg.c ****     } else {
 116:../Firmware/GD32VW55x_standard_peripheral/Source/gd32vw55x_dbg.c ****         DBG_CTL2 |= ((uint32_t)dbg_periph & (~BIT(30)));
 117:../Firmware/GD32VW55x_standard_peripheral/Source/gd32vw55x_dbg.c ****     }
 118:../Firmware/GD32VW55x_standard_peripheral/Source/gd32vw55x_dbg.c **** }
 181              		.loc 1 118 1
 182 002c 05A0     		j	.L9
 183              	.L7:
 116:../Firmware/GD32VW55x_standard_peripheral/Source/gd32vw55x_dbg.c ****     }
 184              		.loc 1 116 18
 185 002e B74704E0 		li	a5,-536592384
 186 0032 B107     		addi	a5,a5,12
 187 0034 9443     		lw	a3,0(a5)
 116:../Firmware/GD32VW55x_standard_peripheral/Source/gd32vw55x_dbg.c ****     }
 188              		.loc 1 116 43
 189 0036 0327C4FE 		lw	a4,-20(s0)
 190 003a B70700C0 		li	a5,-1073741824
 191 003e FD17     		addi	a5,a5,-1
 192 0040 7D8F     		and	a4,a4,a5
 116:../Firmware/GD32VW55x_standard_peripheral/Source/gd32vw55x_dbg.c ****     }
 193              		.loc 1 116 18
 194 0042 B74704E0 		li	a5,-536592384
 195 0046 B107     		addi	a5,a5,12
 196 0048 558F     		or	a4,a3,a4
 197 004a 98C3     		sw	a4,0(a5)
 198              	.L9:
 199              		.loc 1 118 1
 200 004c 0100     		nop
 201 004e 7244     		lw	s0,28(sp)
 202              		.cfi_restore 8
 203              		.cfi_def_cfa 2, 32
 204 0050 0561     		addi	sp,sp,32
 205              		.cfi_def_cfa_offset 0
 206 0052 8280     		jr	ra
 207              		.cfi_endproc
 208              	.LFE351:
 210              		.section	.text.dbg_periph_disable,"ax",@progbits
 211              		.align	1
 212              		.globl	dbg_periph_disable
 214              	dbg_periph_disable:
 215              	.LFB352:
 119:../Firmware/GD32VW55x_standard_peripheral/Source/gd32vw55x_dbg.c **** 
 120:../Firmware/GD32VW55x_standard_peripheral/Source/gd32vw55x_dbg.c **** /*!
 121:../Firmware/GD32VW55x_standard_peripheral/Source/gd32vw55x_dbg.c ****     \brief      disable peripheral behavior when the MCU is in debug mode
 122:../Firmware/GD32VW55x_standard_peripheral/Source/gd32vw55x_dbg.c ****     \param[in]  dbg_periph: DBG peripheral
 123:../Firmware/GD32VW55x_standard_peripheral/Source/gd32vw55x_dbg.c ****                 only one parameter can be selected which is shown as below:
 124:../Firmware/GD32VW55x_standard_peripheral/Source/gd32vw55x_dbg.c ****       \arg        DBG_FWDGT_HOLD: hold FWDGT counter when core is halted
 125:../Firmware/GD32VW55x_standard_peripheral/Source/gd32vw55x_dbg.c ****       \arg        DBG_WWDGT_HOLD: hold WWDGT counter when core is halted
 126:../Firmware/GD32VW55x_standard_peripheral/Source/gd32vw55x_dbg.c ****       \arg        DBG_TIMER0_HOLD: hold TIMER0 counter when core is halted
 127:../Firmware/GD32VW55x_standard_peripheral/Source/gd32vw55x_dbg.c ****       \arg        DBG_TIMER1_HOLD: hold TIMER1 counter when core is halted
 128:../Firmware/GD32VW55x_standard_peripheral/Source/gd32vw55x_dbg.c ****       \arg        DBG_TIMER2_HOLD: hold TIMER2 counter when core is halted
 129:../Firmware/GD32VW55x_standard_peripheral/Source/gd32vw55x_dbg.c ****       \arg        DBG_TIMER5_HOLD: hold TIMER5 counter when core is halted
 130:../Firmware/GD32VW55x_standard_peripheral/Source/gd32vw55x_dbg.c ****       \arg        DBG_TIMER15_HOLD: hold TIMER15 counter when core is halted
 131:../Firmware/GD32VW55x_standard_peripheral/Source/gd32vw55x_dbg.c ****       \arg        DBG_TIMER16_HOLD: hold TIMER16 counter when core is halted
 132:../Firmware/GD32VW55x_standard_peripheral/Source/gd32vw55x_dbg.c ****       \arg        DBG_I2C0_HOLD: hold I2C0 SMBUS when core is halted
 133:../Firmware/GD32VW55x_standard_peripheral/Source/gd32vw55x_dbg.c ****       \arg        DBG_I2C1_HOLD: hold I2C1 SMBUS when core is halted
 134:../Firmware/GD32VW55x_standard_peripheral/Source/gd32vw55x_dbg.c ****       \arg        DBG_RTC_HOLD: hold RTC calendar and wakeup counter when core is halted
 135:../Firmware/GD32VW55x_standard_peripheral/Source/gd32vw55x_dbg.c ****     \param[out] none
 136:../Firmware/GD32VW55x_standard_peripheral/Source/gd32vw55x_dbg.c ****     \retval     none
 137:../Firmware/GD32VW55x_standard_peripheral/Source/gd32vw55x_dbg.c **** */
 138:../Firmware/GD32VW55x_standard_peripheral/Source/gd32vw55x_dbg.c **** void dbg_periph_disable(dbg_periph_enum dbg_periph)
 139:../Firmware/GD32VW55x_standard_peripheral/Source/gd32vw55x_dbg.c **** {
 216              		.loc 1 139 1
 217              		.cfi_startproc
 218 0000 0111     		addi	sp,sp,-32
 219              		.cfi_def_cfa_offset 32
 220 0002 22CE     		sw	s0,28(sp)
 221              		.cfi_offset 8, -4
 222 0004 0010     		addi	s0,sp,32
 223              		.cfi_def_cfa 8, 0
 224 0006 2326A4FE 		sw	a0,-20(s0)
 140:../Firmware/GD32VW55x_standard_peripheral/Source/gd32vw55x_dbg.c ****     if(RESET == ((uint32_t)dbg_periph & BIT(30))) {
 225              		.loc 1 140 39
 226 000a 0327C4FE 		lw	a4,-20(s0)
 227 000e B7070040 		li	a5,1073741824
 228 0012 F98F     		and	a5,a4,a5
 229              		.loc 1 140 7
 230 0014 99EF     		bne	a5,zero,.L11
 141:../Firmware/GD32VW55x_standard_peripheral/Source/gd32vw55x_dbg.c ****         DBG_CTL1 &= ~(uint32_t)dbg_periph;
 231              		.loc 1 141 18
 232 0016 B74704E0 		li	a5,-536592384
 233 001a A107     		addi	a5,a5,8
 234 001c 9443     		lw	a3,0(a5)
 235              		.loc 1 141 21
 236 001e 8327C4FE 		lw	a5,-20(s0)
 237 0022 13C7F7FF 		not	a4,a5
 238              		.loc 1 141 18
 239 0026 B74704E0 		li	a5,-536592384
 240 002a A107     		addi	a5,a5,8
 241 002c 758F     		and	a4,a3,a4
 242 002e 98C3     		sw	a4,0(a5)
 142:../Firmware/GD32VW55x_standard_peripheral/Source/gd32vw55x_dbg.c ****     } else {
 143:../Firmware/GD32VW55x_standard_peripheral/Source/gd32vw55x_dbg.c ****         DBG_CTL2 &= ~((uint32_t)dbg_periph & (~BIT(30)));
 144:../Firmware/GD32VW55x_standard_peripheral/Source/gd32vw55x_dbg.c ****     }
 145:../Firmware/GD32VW55x_standard_peripheral/Source/gd32vw55x_dbg.c **** }
 243              		.loc 1 145 1
 244 0030 15A0     		j	.L13
 245              	.L11:
 143:../Firmware/GD32VW55x_standard_peripheral/Source/gd32vw55x_dbg.c ****     }
 246              		.loc 1 143 18
 247 0032 B74704E0 		li	a5,-536592384
 248 0036 B107     		addi	a5,a5,12
 249 0038 9443     		lw	a3,0(a5)
 143:../Firmware/GD32VW55x_standard_peripheral/Source/gd32vw55x_dbg.c ****     }
 250              		.loc 1 143 44
 251 003a 0327C4FE 		lw	a4,-20(s0)
 252 003e B70700C0 		li	a5,-1073741824
 253 0042 FD17     		addi	a5,a5,-1
 254 0044 F98F     		and	a5,a4,a5
 143:../Firmware/GD32VW55x_standard_peripheral/Source/gd32vw55x_dbg.c ****     }
 255              		.loc 1 143 21
 256 0046 13C7F7FF 		not	a4,a5
 143:../Firmware/GD32VW55x_standard_peripheral/Source/gd32vw55x_dbg.c ****     }
 257              		.loc 1 143 18
 258 004a B74704E0 		li	a5,-536592384
 259 004e B107     		addi	a5,a5,12
 260 0050 758F     		and	a4,a3,a4
 261 0052 98C3     		sw	a4,0(a5)
 262              	.L13:
 263              		.loc 1 145 1
 264 0054 0100     		nop
 265 0056 7244     		lw	s0,28(sp)
 266              		.cfi_restore 8
 267              		.cfi_def_cfa 2, 32
 268 0058 0561     		addi	sp,sp,32
 269              		.cfi_def_cfa_offset 0
 270 005a 8280     		jr	ra
 271              		.cfi_endproc
 272              	.LFE352:
 274              		.text
 275              	.Letext0:
 276              		.file 2 "e:\\gd32\\gd32embeddedbuilder_v1.5.2.30854\\tools\\nuclei_riscv_newlibc_prebuilt_win32_20
 277              		.file 3 "e:\\gd32\\gd32embeddedbuilder_v1.5.2.30854\\tools\\nuclei_riscv_newlibc_prebuilt_win32_20
 278              		.file 4 "../Firmware/GD32VW55x_standard_peripheral/gd32vw55x.h"
 279              		.file 5 "../Firmware/GD32VW55x_standard_peripheral/Include/gd32vw55x_dbg.h"