   1              		.file	"gd32vw55x_efuse.c"
   2              		.option nopic
   3              		.attribute arch, "rv32i2p0_m2p0_a2p0_c2p0"
   4              		.attribute unaligned_access, 0
   5              		.attribute stack_align, 16
   6              		.text
   7              	.Ltext0:
   8              		.cfi_sections	.debug_frame
   9              		.section	.text.efuse_read,"ax",@progbits
  10              		.align	1
  11              		.globl	efuse_read
  13              	efuse_read:
  14              	.LFB347:
  15              		.file 1 "../Firmware/GD32VW55x_standard_peripheral/Source/gd32vw55x_efuse.c"
   1:../Firmware/GD32VW55x_standard_peripheral/Source/gd32vw55x_efuse.c **** /*!
   2:../Firmware/GD32VW55x_standard_peripheral/Source/gd32vw55x_efuse.c ****     \file    gd32vw55x_efuse.c
   3:../Firmware/GD32VW55x_standard_peripheral/Source/gd32vw55x_efuse.c ****     \brief   EFUSE driver
   4:../Firmware/GD32VW55x_standard_peripheral/Source/gd32vw55x_efuse.c **** 
   5:../Firmware/GD32VW55x_standard_peripheral/Source/gd32vw55x_efuse.c ****     \version 2025-01-16, V1.4.0, firmware for GD32VW55x
   6:../Firmware/GD32VW55x_standard_peripheral/Source/gd32vw55x_efuse.c **** */
   7:../Firmware/GD32VW55x_standard_peripheral/Source/gd32vw55x_efuse.c **** 
   8:../Firmware/GD32VW55x_standard_peripheral/Source/gd32vw55x_efuse.c **** /*
   9:../Firmware/GD32VW55x_standard_peripheral/Source/gd32vw55x_efuse.c ****     Copyright (c) 2025, GigaDevice Semiconductor Inc.
  10:../Firmware/GD32VW55x_standard_peripheral/Source/gd32vw55x_efuse.c **** 
  11:../Firmware/GD32VW55x_standard_peripheral/Source/gd32vw55x_efuse.c ****     Redistribution and use in source and binary forms, with or without modification,
  12:../Firmware/GD32VW55x_standard_peripheral/Source/gd32vw55x_efuse.c **** are permitted provided that the following conditions are met:
  13:../Firmware/GD32VW55x_standard_peripheral/Source/gd32vw55x_efuse.c **** 
  14:../Firmware/GD32VW55x_standard_peripheral/Source/gd32vw55x_efuse.c ****     1. Redistributions of source code must retain the above copyright notice, this
  15:../Firmware/GD32VW55x_standard_peripheral/Source/gd32vw55x_efuse.c ****        list of conditions and the following disclaimer.
  16:../Firmware/GD32VW55x_standard_peripheral/Source/gd32vw55x_efuse.c ****     2. Redistributions in binary form must reproduce the above copyright notice,
  17:../Firmware/GD32VW55x_standard_peripheral/Source/gd32vw55x_efuse.c ****        this list of conditions and the following disclaimer in the documentation
  18:../Firmware/GD32VW55x_standard_peripheral/Source/gd32vw55x_efuse.c ****        and/or other materials provided with the distribution.
  19:../Firmware/GD32VW55x_standard_peripheral/Source/gd32vw55x_efuse.c ****     3. Neither the name of the copyright holder nor the names of its contributors
  20:../Firmware/GD32VW55x_standard_peripheral/Source/gd32vw55x_efuse.c ****        may be used to endorse or promote products derived from this software without
  21:../Firmware/GD32VW55x_standard_peripheral/Source/gd32vw55x_efuse.c ****        specific prior written permission.
  22:../Firmware/GD32VW55x_standard_peripheral/Source/gd32vw55x_efuse.c **** 
  23:../Firmware/GD32VW55x_standard_peripheral/Source/gd32vw55x_efuse.c ****     THIS SOFTWARE IS PROVIDED BY THE COPYRIGHT HOLDERS AND CONTRIBUTORS "AS IS"
  24:../Firmware/GD32VW55x_standard_peripheral/Source/gd32vw55x_efuse.c **** AND ANY EXPRESS OR IMPLIED WARRANTIES, INCLUDING, BUT NOT LIMITED TO, THE IMPLIED
  25:../Firmware/GD32VW55x_standard_peripheral/Source/gd32vw55x_efuse.c **** WARRANTIES OF MERCHANTABILITY AND FITNESS FOR A PARTICULAR PURPOSE ARE DISCLAIMED.
  26:../Firmware/GD32VW55x_standard_peripheral/Source/gd32vw55x_efuse.c **** IN NO EVENT SHALL THE COPYRIGHT HOLDER OR CONTRIBUTORS BE LIABLE FOR ANY DIRECT,
  27:../Firmware/GD32VW55x_standard_peripheral/Source/gd32vw55x_efuse.c **** INDIRECT, INCIDENTAL, SPECIAL, EXEMPLARY, OR CONSEQUENTIAL DAMAGES (INCLUDING, BUT
  28:../Firmware/GD32VW55x_standard_peripheral/Source/gd32vw55x_efuse.c **** NOT LIMITED TO, PROCUREMENT OF SUBSTITUTE GOODS OR SERVICES; LOSS OF USE, DATA, OR
  29:../Firmware/GD32VW55x_standard_peripheral/Source/gd32vw55x_efuse.c **** PROFITS; OR BUSINESS INTERRUPTION) HOWEVER CAUSED AND ON ANY THEORY OF LIABILITY,
  30:../Firmware/GD32VW55x_standard_peripheral/Source/gd32vw55x_efuse.c **** WHETHER IN CONTRACT, STRICT LIABILITY, OR TORT (INCLUDING NEGLIGENCE OR OTHERWISE)
  31:../Firmware/GD32VW55x_standard_peripheral/Source/gd32vw55x_efuse.c **** ARISING IN ANY WAY OUT OF THE USE OF THIS SOFTWARE, EVEN IF ADVISED OF THE POSSIBILITY
  32:../Firmware/GD32VW55x_standard_peripheral/Source/gd32vw55x_efuse.c **** OF SUCH DAMAGE.
  33:../Firmware/GD32VW55x_standard_peripheral/Source/gd32vw55x_efuse.c **** */
  34:../Firmware/GD32VW55x_standard_peripheral/Source/gd32vw55x_efuse.c **** 
  35:../Firmware/GD32VW55x_standard_peripheral/Source/gd32vw55x_efuse.c **** #include "gd32vw55x_efuse.h"
  36:../Firmware/GD32VW55x_standard_peripheral/Source/gd32vw55x_efuse.c **** 
  37:../Firmware/GD32VW55x_standard_peripheral/Source/gd32vw55x_efuse.c **** /*!
  38:../Firmware/GD32VW55x_standard_peripheral/Source/gd32vw55x_efuse.c ****     \brief      read EFUSE value
  39:../Firmware/GD32VW55x_standard_peripheral/Source/gd32vw55x_efuse.c ****     \param[in]  ef_addr: EFUSE address, the starting address of each parameter segment, in bytes
  40:../Firmware/GD32VW55x_standard_peripheral/Source/gd32vw55x_efuse.c ****       \arg        0~0x60
  41:../Firmware/GD32VW55x_standard_peripheral/Source/gd32vw55x_efuse.c ****     \param[in]  size: size of EFUSE, in bytes
  42:../Firmware/GD32VW55x_standard_peripheral/Source/gd32vw55x_efuse.c ****       \arg        1~0x20
  43:../Firmware/GD32VW55x_standard_peripheral/Source/gd32vw55x_efuse.c ****     \param[out] buf: the buffer for storing read-out EFUSE register value
  44:../Firmware/GD32VW55x_standard_peripheral/Source/gd32vw55x_efuse.c ****     \retval     ErrStatus: ERROR or SUCCESS
  45:../Firmware/GD32VW55x_standard_peripheral/Source/gd32vw55x_efuse.c **** */
  46:../Firmware/GD32VW55x_standard_peripheral/Source/gd32vw55x_efuse.c **** ErrStatus efuse_read(uint32_t ef_addr, uint32_t size, uint32_t buf[])
  47:../Firmware/GD32VW55x_standard_peripheral/Source/gd32vw55x_efuse.c **** {
  16              		.loc 1 47 1
  17              		.cfi_startproc
  18 0000 7971     		addi	sp,sp,-48
  19              		.cfi_def_cfa_offset 48
  20 0002 06D6     		sw	ra,44(sp)
  21 0004 22D4     		sw	s0,40(sp)
  22              		.cfi_offset 1, -4
  23              		.cfi_offset 8, -8
  24 0006 0018     		addi	s0,sp,48
  25              		.cfi_def_cfa 8, 0
  26 0008 232EA4FC 		sw	a0,-36(s0)
  27 000c 232CB4FC 		sw	a1,-40(s0)
  28 0010 232AC4FC 		sw	a2,-44(s0)
  48:../Firmware/GD32VW55x_standard_peripheral/Source/gd32vw55x_efuse.c ****     uint32_t i = 0U;
  29              		.loc 1 48 14
  30 0014 232604FE 		sw	zero,-20(s0)
  49:../Firmware/GD32VW55x_standard_peripheral/Source/gd32vw55x_efuse.c ****     uint32_t timeout = 0xFFU;
  31              		.loc 1 49 14
  32 0018 9307F00F 		li	a5,255
  33 001c 2324F4FE 		sw	a5,-24(s0)
  50:../Firmware/GD32VW55x_standard_peripheral/Source/gd32vw55x_efuse.c ****     uint32_t reg_addr = 0U;
  34              		.loc 1 50 14
  35 0020 232204FE 		sw	zero,-28(s0)
  51:../Firmware/GD32VW55x_standard_peripheral/Source/gd32vw55x_efuse.c ****     uint32_t number = size / 4U;
  36              		.loc 1 51 14
  37 0024 832784FD 		lw	a5,-40(s0)
  38 0028 8983     		srli	a5,a5,2
  39 002a 2320F4FE 		sw	a5,-32(s0)
  52:../Firmware/GD32VW55x_standard_peripheral/Source/gd32vw55x_efuse.c **** 
  53:../Firmware/GD32VW55x_standard_peripheral/Source/gd32vw55x_efuse.c ****     if(0U == number) {
  40              		.loc 1 53 7
  41 002e 832704FE 		lw	a5,-32(s0)
  42 0032 81E7     		bne	a5,zero,.L2
  54:../Firmware/GD32VW55x_standard_peripheral/Source/gd32vw55x_efuse.c ****         number = 1U;
  43              		.loc 1 54 16
  44 0034 8547     		li	a5,1
  45 0036 2320F4FE 		sw	a5,-32(s0)
  46              	.L2:
  55:../Firmware/GD32VW55x_standard_peripheral/Source/gd32vw55x_efuse.c ****     }
  56:../Firmware/GD32VW55x_standard_peripheral/Source/gd32vw55x_efuse.c **** 
  57:../Firmware/GD32VW55x_standard_peripheral/Source/gd32vw55x_efuse.c ****     /* assert EFUSE address and size parameter */
  58:../Firmware/GD32VW55x_standard_peripheral/Source/gd32vw55x_efuse.c ****     if((END_ADDR < ef_addr) || (size > EFUSE_MAX_SIZE)) {
  47              		.loc 1 58 7
  48 003a 0327C4FD 		lw	a4,-36(s0)
  49 003e 93070008 		li	a5,128
  50 0042 63E8E700 		bgtu	a4,a5,.L3
  51              		.loc 1 58 29 discriminator 1
  52 0046 032784FD 		lw	a4,-40(s0)
  53 004a 93070002 		li	a5,32
  54 004e 63F4E700 		bleu	a4,a5,.L4
  55              	.L3:
  59:../Firmware/GD32VW55x_standard_peripheral/Source/gd32vw55x_efuse.c ****         return ERROR;
  56              		.loc 1 59 16
  57 0052 8147     		li	a5,0
  58 0054 29A2     		j	.L5
  59              	.L4:
  60:../Firmware/GD32VW55x_standard_peripheral/Source/gd32vw55x_efuse.c ****     }
  61:../Firmware/GD32VW55x_standard_peripheral/Source/gd32vw55x_efuse.c **** 
  62:../Firmware/GD32VW55x_standard_peripheral/Source/gd32vw55x_efuse.c ****     /* get the register address corresponding to EFUSE */
  63:../Firmware/GD32VW55x_standard_peripheral/Source/gd32vw55x_efuse.c ****     if(0x4U > ef_addr) {
  60              		.loc 1 63 7
  61 0056 0327C4FD 		lw	a4,-36(s0)
  62 005a 8D47     		li	a5,3
  63 005c 63EDE700 		bgtu	a4,a5,.L6
  64:../Firmware/GD32VW55x_standard_peripheral/Source/gd32vw55x_efuse.c ****         reg_addr = (uint32_t)(EFUSE + 0x08U + (ef_addr * 4U));
  64              		.loc 1 64 20
  65 0060 0327C4FD 		lw	a4,-36(s0)
  66 0064 B7970010 		li	a5,268472320
  67 0068 938727A0 		addi	a5,a5,-1534
  68 006c BA97     		add	a5,a4,a5
  69              		.loc 1 64 18
  70 006e 8A07     		slli	a5,a5,2
  71 0070 2322F4FE 		sw	a5,-28(s0)
  72 0074 0DA0     		j	.L7
  73              	.L6:
  65:../Firmware/GD32VW55x_standard_peripheral/Source/gd32vw55x_efuse.c ****     } else {
  66:../Firmware/GD32VW55x_standard_peripheral/Source/gd32vw55x_efuse.c ****         /* when EFUSE address is greater than 4, it must be an integral multiple of 4 */
  67:../Firmware/GD32VW55x_standard_peripheral/Source/gd32vw55x_efuse.c ****         if(0U == (ef_addr % 4U)) {
  74              		.loc 1 67 27
  75 0076 8327C4FD 		lw	a5,-36(s0)
  76 007a 8D8B     		andi	a5,a5,3
  77              		.loc 1 67 11
  78 007c 99EB     		bne	a5,zero,.L8
  68:../Firmware/GD32VW55x_standard_peripheral/Source/gd32vw55x_efuse.c ****             reg_addr = (uint32_t)(EFUSE + 0x14U + ef_addr);
  79              		.loc 1 68 22
  80 007e 0327C4FD 		lw	a4,-36(s0)
  81 0082 B7370240 		li	a5,1073885184
  82 0086 93874781 		addi	a5,a5,-2028
  83 008a BA97     		add	a5,a4,a5
  84 008c 2322F4FE 		sw	a5,-28(s0)
  85 0090 19A0     		j	.L7
  86              	.L8:
  69:../Firmware/GD32VW55x_standard_peripheral/Source/gd32vw55x_efuse.c ****         } else {
  70:../Firmware/GD32VW55x_standard_peripheral/Source/gd32vw55x_efuse.c ****             return ERROR;
  87              		.loc 1 70 20
  88 0092 8147     		li	a5,0
  89 0094 E9A0     		j	.L5
  90              	.L7:
  71:../Firmware/GD32VW55x_standard_peripheral/Source/gd32vw55x_efuse.c ****         }
  72:../Firmware/GD32VW55x_standard_peripheral/Source/gd32vw55x_efuse.c ****     }
  73:../Firmware/GD32VW55x_standard_peripheral/Source/gd32vw55x_efuse.c **** 
  74:../Firmware/GD32VW55x_standard_peripheral/Source/gd32vw55x_efuse.c ****     /* EFUSE read operation */
  75:../Firmware/GD32VW55x_standard_peripheral/Source/gd32vw55x_efuse.c ****     EFUSE_CS &= (~EFUSE_CS_EFRW);
  91              		.loc 1 75 14
  92 0096 B7370240 		li	a5,1073885184
  93 009a 93870780 		addi	a5,a5,-2048
  94 009e 9843     		lw	a4,0(a5)
  95 00a0 B7370240 		li	a5,1073885184
  96 00a4 93870780 		addi	a5,a5,-2048
  97 00a8 759B     		andi	a4,a4,-3
  98 00aa 98C3     		sw	a4,0(a5)
  76:../Firmware/GD32VW55x_standard_peripheral/Source/gd32vw55x_efuse.c ****     /* write EFUSE address and size */
  77:../Firmware/GD32VW55x_standard_peripheral/Source/gd32vw55x_efuse.c ****     EFUSE_ADDR = (uint32_t)((size << 8U) | ef_addr);
  99              		.loc 1 77 35
 100 00ac 832784FD 		lw	a5,-40(s0)
 101 00b0 93968700 		slli	a3,a5,8
 102              		.loc 1 77 5
 103 00b4 B7370240 		li	a5,1073885184
 104 00b8 93874780 		addi	a5,a5,-2044
 105              		.loc 1 77 42
 106 00bc 0327C4FD 		lw	a4,-36(s0)
 107 00c0 558F     		or	a4,a3,a4
 108              		.loc 1 77 16
 109 00c2 98C3     		sw	a4,0(a5)
  78:../Firmware/GD32VW55x_standard_peripheral/Source/gd32vw55x_efuse.c ****     /* start read EFUSE operation */
  79:../Firmware/GD32VW55x_standard_peripheral/Source/gd32vw55x_efuse.c ****     EFUSE_CS |= EFUSE_CS_EFSTR;
 110              		.loc 1 79 14
 111 00c4 B7370240 		li	a5,1073885184
 112 00c8 93870780 		addi	a5,a5,-2048
 113 00cc 9843     		lw	a4,0(a5)
 114 00ce B7370240 		li	a5,1073885184
 115 00d2 93870780 		addi	a5,a5,-2048
 116 00d6 13671700 		ori	a4,a4,1
 117 00da 98C3     		sw	a4,0(a5)
 118              	.L10:
  80:../Firmware/GD32VW55x_standard_peripheral/Source/gd32vw55x_efuse.c **** 
  81:../Firmware/GD32VW55x_standard_peripheral/Source/gd32vw55x_efuse.c ****     /* wait for the operation to complete */
  82:../Firmware/GD32VW55x_standard_peripheral/Source/gd32vw55x_efuse.c ****     do {
  83:../Firmware/GD32VW55x_standard_peripheral/Source/gd32vw55x_efuse.c ****         timeout--;
 119              		.loc 1 83 16 discriminator 2
 120 00dc 832784FE 		lw	a5,-24(s0)
 121 00e0 FD17     		addi	a5,a5,-1
 122 00e2 2324F4FE 		sw	a5,-24(s0)
  84:../Firmware/GD32VW55x_standard_peripheral/Source/gd32vw55x_efuse.c ****     } while((RESET == efuse_flag_get(EFUSE_RDIF)) && (0x00U != timeout));
 123              		.loc 1 84 23 discriminator 2
 124 00e6 37050200 		li	a0,131072
 125 00ea 97000000 		call	efuse_flag_get
 125      E7800000 
 126 00f2 AA87     		mv	a5,a0
 127              		.loc 1 84 5 discriminator 2
 128 00f4 81E7     		bne	a5,zero,.L9
 129              		.loc 1 84 51 discriminator 1
 130 00f6 832784FE 		lw	a5,-24(s0)
 131 00fa EDF3     		bne	a5,zero,.L10
 132              	.L9:
  85:../Firmware/GD32VW55x_standard_peripheral/Source/gd32vw55x_efuse.c ****     if(0x00U == timeout) {
 133              		.loc 1 85 7
 134 00fc 832784FE 		lw	a5,-24(s0)
 135 0100 99E3     		bne	a5,zero,.L11
  86:../Firmware/GD32VW55x_standard_peripheral/Source/gd32vw55x_efuse.c ****         return ERROR;
 136              		.loc 1 86 16
 137 0102 8147     		li	a5,0
 138 0104 A9A8     		j	.L5
 139              	.L11:
  87:../Firmware/GD32VW55x_standard_peripheral/Source/gd32vw55x_efuse.c ****     }
  88:../Firmware/GD32VW55x_standard_peripheral/Source/gd32vw55x_efuse.c **** 
  89:../Firmware/GD32VW55x_standard_peripheral/Source/gd32vw55x_efuse.c ****     /* read EFUSE */
  90:../Firmware/GD32VW55x_standard_peripheral/Source/gd32vw55x_efuse.c ****     for(i = 0U; i < number; i++) {
 140              		.loc 1 90 11
 141 0106 232604FE 		sw	zero,-20(s0)
 142              		.loc 1 90 5
 143 010a 35A0     		j	.L12
 144              	.L13:
  91:../Firmware/GD32VW55x_standard_peripheral/Source/gd32vw55x_efuse.c ****         buf[i] = REG32(reg_addr + (4U * i));
 145              		.loc 1 91 18 discriminator 3
 146 010c 8327C4FE 		lw	a5,-20(s0)
 147 0110 13972700 		slli	a4,a5,2
 148 0114 832744FE 		lw	a5,-28(s0)
 149 0118 BA97     		add	a5,a4,a5
 150 011a BE86     		mv	a3,a5
 151              		.loc 1 91 12 discriminator 3
 152 011c 8327C4FE 		lw	a5,-20(s0)
 153 0120 8A07     		slli	a5,a5,2
 154 0122 032744FD 		lw	a4,-44(s0)
 155 0126 BA97     		add	a5,a4,a5
 156              		.loc 1 91 18 discriminator 3
 157 0128 9842     		lw	a4,0(a3)
 158              		.loc 1 91 16 discriminator 3
 159 012a 98C3     		sw	a4,0(a5)
  90:../Firmware/GD32VW55x_standard_peripheral/Source/gd32vw55x_efuse.c ****         buf[i] = REG32(reg_addr + (4U * i));
 160              		.loc 1 90 30 discriminator 3
 161 012c 8327C4FE 		lw	a5,-20(s0)
 162 0130 8507     		addi	a5,a5,1
 163 0132 2326F4FE 		sw	a5,-20(s0)
 164              	.L12:
  90:../Firmware/GD32VW55x_standard_peripheral/Source/gd32vw55x_efuse.c ****         buf[i] = REG32(reg_addr + (4U * i));
 165              		.loc 1 90 5 discriminator 1
 166 0136 0327C4FE 		lw	a4,-20(s0)
 167 013a 832704FE 		lw	a5,-32(s0)
 168 013e E367F7FC 		bltu	a4,a5,.L13
  92:../Firmware/GD32VW55x_standard_peripheral/Source/gd32vw55x_efuse.c ****     }
  93:../Firmware/GD32VW55x_standard_peripheral/Source/gd32vw55x_efuse.c **** 
  94:../Firmware/GD32VW55x_standard_peripheral/Source/gd32vw55x_efuse.c ****     /* clear EFUSE read completed flag */
  95:../Firmware/GD32VW55x_standard_peripheral/Source/gd32vw55x_efuse.c ****     EFUSE_CS |= (uint32_t)EFUSE_CS_RDIC;
 169              		.loc 1 95 14
 170 0142 B7370240 		li	a5,1073885184
 171 0146 93870780 		addi	a5,a5,-2048
 172 014a 9443     		lw	a3,0(a5)
 173 014c B7370240 		li	a5,1073885184
 174 0150 93870780 		addi	a5,a5,-2048
 175 0154 37070002 		li	a4,33554432
 176 0158 558F     		or	a4,a3,a4
 177 015a 98C3     		sw	a4,0(a5)
  96:../Firmware/GD32VW55x_standard_peripheral/Source/gd32vw55x_efuse.c **** 
  97:../Firmware/GD32VW55x_standard_peripheral/Source/gd32vw55x_efuse.c ****     return SUCCESS;
 178              		.loc 1 97 12
 179 015c 8547     		li	a5,1
 180              	.L5:
  98:../Firmware/GD32VW55x_standard_peripheral/Source/gd32vw55x_efuse.c **** }
 181              		.loc 1 98 1
 182 015e 3E85     		mv	a0,a5
 183 0160 B250     		lw	ra,44(sp)
 184              		.cfi_restore 1
 185 0162 2254     		lw	s0,40(sp)
 186              		.cfi_restore 8
 187              		.cfi_def_cfa 2, 48
 188 0164 4561     		addi	sp,sp,48
 189              		.cfi_def_cfa_offset 0
 190 0166 8280     		jr	ra
 191              		.cfi_endproc
 192              	.LFE347:
 194              		.section	.text.efuse_write,"ax",@progbits
 195              		.align	1
 196              		.globl	efuse_write
 198              	efuse_write:
 199              	.LFB348:
  99:../Firmware/GD32VW55x_standard_peripheral/Source/gd32vw55x_efuse.c **** 
 100:../Firmware/GD32VW55x_standard_peripheral/Source/gd32vw55x_efuse.c **** /*!
 101:../Firmware/GD32VW55x_standard_peripheral/Source/gd32vw55x_efuse.c ****     \brief      write EFUSE
 102:../Firmware/GD32VW55x_standard_peripheral/Source/gd32vw55x_efuse.c ****     \param[in]  ef_addr: EFUSE address, the starting address of each parameter segment, in bytes.
 103:../Firmware/GD32VW55x_standard_peripheral/Source/gd32vw55x_efuse.c ****                          When ef_addr is greater than 4, the ef_addr must be an integral multiple o
 104:../Firmware/GD32VW55x_standard_peripheral/Source/gd32vw55x_efuse.c ****       \arg        0~0x60
 105:../Firmware/GD32VW55x_standard_peripheral/Source/gd32vw55x_efuse.c ****     \param[in]  size: size of EFUSE, in bytes
 106:../Firmware/GD32VW55x_standard_peripheral/Source/gd32vw55x_efuse.c ****       \arg        1~0x20
 107:../Firmware/GD32VW55x_standard_peripheral/Source/gd32vw55x_efuse.c ****     \param[in]  buf: the buffer of data written to EFUSE
 108:../Firmware/GD32VW55x_standard_peripheral/Source/gd32vw55x_efuse.c ****     \param[out] none
 109:../Firmware/GD32VW55x_standard_peripheral/Source/gd32vw55x_efuse.c ****     \retval     ErrStatus: ERROR or SUCCESS
 110:../Firmware/GD32VW55x_standard_peripheral/Source/gd32vw55x_efuse.c **** */
 111:../Firmware/GD32VW55x_standard_peripheral/Source/gd32vw55x_efuse.c **** ErrStatus efuse_write(uint32_t ef_addr, uint32_t size, uint32_t buf[])
 112:../Firmware/GD32VW55x_standard_peripheral/Source/gd32vw55x_efuse.c **** {
 200              		.loc 1 112 1
 201              		.cfi_startproc
 202 0000 7971     		addi	sp,sp,-48
 203              		.cfi_def_cfa_offset 48
 204 0002 06D6     		sw	ra,44(sp)
 205 0004 22D4     		sw	s0,40(sp)
 206              		.cfi_offset 1, -4
 207              		.cfi_offset 8, -8
 208 0006 0018     		addi	s0,sp,48
 209              		.cfi_def_cfa 8, 0
 210 0008 232EA4FC 		sw	a0,-36(s0)
 211 000c 232CB4FC 		sw	a1,-40(s0)
 212 0010 232AC4FC 		sw	a2,-44(s0)
 113:../Firmware/GD32VW55x_standard_peripheral/Source/gd32vw55x_efuse.c ****     uint32_t i = 0U;
 213              		.loc 1 113 14
 214 0014 232604FE 		sw	zero,-20(s0)
 114:../Firmware/GD32VW55x_standard_peripheral/Source/gd32vw55x_efuse.c ****     uint32_t timeout = 0xFFFFU;
 215              		.loc 1 114 14
 216 0018 C167     		li	a5,65536
 217 001a FD17     		addi	a5,a5,-1
 218 001c 2324F4FE 		sw	a5,-24(s0)
 115:../Firmware/GD32VW55x_standard_peripheral/Source/gd32vw55x_efuse.c ****     uint32_t reg_addr = 0U;
 219              		.loc 1 115 14
 220 0020 232204FE 		sw	zero,-28(s0)
 116:../Firmware/GD32VW55x_standard_peripheral/Source/gd32vw55x_efuse.c ****     uint32_t number = size / 4U;
 221              		.loc 1 116 14
 222 0024 832784FD 		lw	a5,-40(s0)
 223 0028 8983     		srli	a5,a5,2
 224 002a 2320F4FE 		sw	a5,-32(s0)
 117:../Firmware/GD32VW55x_standard_peripheral/Source/gd32vw55x_efuse.c **** 
 118:../Firmware/GD32VW55x_standard_peripheral/Source/gd32vw55x_efuse.c ****     if(0U == number) {
 225              		.loc 1 118 7
 226 002e 832704FE 		lw	a5,-32(s0)
 227 0032 81E7     		bne	a5,zero,.L15
 119:../Firmware/GD32VW55x_standard_peripheral/Source/gd32vw55x_efuse.c ****         number = 1U;
 228              		.loc 1 119 16
 229 0034 8547     		li	a5,1
 230 0036 2320F4FE 		sw	a5,-32(s0)
 231              	.L15:
 120:../Firmware/GD32VW55x_standard_peripheral/Source/gd32vw55x_efuse.c ****     }
 121:../Firmware/GD32VW55x_standard_peripheral/Source/gd32vw55x_efuse.c **** 
 122:../Firmware/GD32VW55x_standard_peripheral/Source/gd32vw55x_efuse.c ****     /* assert EFUSE address and size parameter */
 123:../Firmware/GD32VW55x_standard_peripheral/Source/gd32vw55x_efuse.c ****     if((END_ADDR < ef_addr) || (size > EFUSE_MAX_SIZE)) {
 232              		.loc 1 123 7
 233 003a 0327C4FD 		lw	a4,-36(s0)
 234 003e 93070008 		li	a5,128
 235 0042 63E8E700 		bgtu	a4,a5,.L16
 236              		.loc 1 123 29 discriminator 1
 237 0046 032784FD 		lw	a4,-40(s0)
 238 004a 93070002 		li	a5,32
 239 004e 63F4E700 		bleu	a4,a5,.L17
 240              	.L16:
 124:../Firmware/GD32VW55x_standard_peripheral/Source/gd32vw55x_efuse.c ****         return ERROR;
 241              		.loc 1 124 16
 242 0052 8147     		li	a5,0
 243 0054 BDA2     		j	.L18
 244              	.L17:
 125:../Firmware/GD32VW55x_standard_peripheral/Source/gd32vw55x_efuse.c ****     }
 126:../Firmware/GD32VW55x_standard_peripheral/Source/gd32vw55x_efuse.c **** 
 127:../Firmware/GD32VW55x_standard_peripheral/Source/gd32vw55x_efuse.c ****     /* PUID and HUK are not modifiable */
 128:../Firmware/GD32VW55x_standard_peripheral/Source/gd32vw55x_efuse.c ****     if((MCU_UID_ADDR <= ef_addr) && (ef_addr < USER_DATA_ADDR)) {
 245              		.loc 1 128 7
 246 0056 0327C4FD 		lw	a4,-36(s0)
 247 005a 9307F003 		li	a5,63
 248 005e 63FAE700 		bleu	a4,a5,.L19
 249              		.loc 1 128 34 discriminator 1
 250 0062 0327C4FD 		lw	a4,-36(s0)
 251 0066 9307F005 		li	a5,95
 252 006a 63E4E700 		bgtu	a4,a5,.L19
 129:../Firmware/GD32VW55x_standard_peripheral/Source/gd32vw55x_efuse.c ****         return ERROR;
 253              		.loc 1 129 16
 254 006e 8147     		li	a5,0
 255 0070 89AA     		j	.L18
 256              	.L19:
 130:../Firmware/GD32VW55x_standard_peripheral/Source/gd32vw55x_efuse.c ****     }
 131:../Firmware/GD32VW55x_standard_peripheral/Source/gd32vw55x_efuse.c **** 
 132:../Firmware/GD32VW55x_standard_peripheral/Source/gd32vw55x_efuse.c ****     /* get the register address corresponding to EFUSE */
 133:../Firmware/GD32VW55x_standard_peripheral/Source/gd32vw55x_efuse.c ****     if(0x4U > ef_addr) {
 257              		.loc 1 133 7
 258 0072 0327C4FD 		lw	a4,-36(s0)
 259 0076 8D47     		li	a5,3
 260 0078 63EDE700 		bgtu	a4,a5,.L20
 134:../Firmware/GD32VW55x_standard_peripheral/Source/gd32vw55x_efuse.c ****         reg_addr = (uint32_t)(EFUSE + 0x08U + (ef_addr * 4U));
 261              		.loc 1 134 20
 262 007c 0327C4FD 		lw	a4,-36(s0)
 263 0080 B7970010 		li	a5,268472320
 264 0084 938727A0 		addi	a5,a5,-1534
 265 0088 BA97     		add	a5,a4,a5
 266              		.loc 1 134 18
 267 008a 8A07     		slli	a5,a5,2
 268 008c 2322F4FE 		sw	a5,-28(s0)
 269 0090 05A0     		j	.L21
 270              	.L20:
 135:../Firmware/GD32VW55x_standard_peripheral/Source/gd32vw55x_efuse.c ****     } else {
 136:../Firmware/GD32VW55x_standard_peripheral/Source/gd32vw55x_efuse.c ****         /* when EFUSE address is greater than 4, it must be an integral multiple of 4 */
 137:../Firmware/GD32VW55x_standard_peripheral/Source/gd32vw55x_efuse.c ****         if(ef_addr % 4U) {
 271              		.loc 1 137 20
 272 0092 8327C4FD 		lw	a5,-36(s0)
 273 0096 8D8B     		andi	a5,a5,3
 274              		.loc 1 137 11
 275 0098 99C3     		beq	a5,zero,.L22
 138:../Firmware/GD32VW55x_standard_peripheral/Source/gd32vw55x_efuse.c ****             return ERROR;
 276              		.loc 1 138 20
 277 009a 8147     		li	a5,0
 278 009c 1DA2     		j	.L18
 279              	.L22:
 139:../Firmware/GD32VW55x_standard_peripheral/Source/gd32vw55x_efuse.c ****         } else {
 140:../Firmware/GD32VW55x_standard_peripheral/Source/gd32vw55x_efuse.c ****             reg_addr = (uint32_t)(EFUSE + 0x14U + ef_addr);
 280              		.loc 1 140 22
 281 009e 0327C4FD 		lw	a4,-36(s0)
 282 00a2 B7370240 		li	a5,1073885184
 283 00a6 93874781 		addi	a5,a5,-2028
 284 00aa BA97     		add	a5,a4,a5
 285 00ac 2322F4FE 		sw	a5,-28(s0)
 286              	.L21:
 141:../Firmware/GD32VW55x_standard_peripheral/Source/gd32vw55x_efuse.c ****         }
 142:../Firmware/GD32VW55x_standard_peripheral/Source/gd32vw55x_efuse.c ****     }
 143:../Firmware/GD32VW55x_standard_peripheral/Source/gd32vw55x_efuse.c **** 
 144:../Firmware/GD32VW55x_standard_peripheral/Source/gd32vw55x_efuse.c ****     /* EFUSE power on */
 145:../Firmware/GD32VW55x_standard_peripheral/Source/gd32vw55x_efuse.c ****     RCU_CFG1 |= RCU_CFG1_BGPU;
 287              		.loc 1 145 14
 288 00b0 B7470240 		li	a5,1073889280
 289 00b4 9387C788 		addi	a5,a5,-1908
 290 00b8 9443     		lw	a3,0(a5)
 291 00ba B7470240 		li	a5,1073889280
 292 00be 9387C788 		addi	a5,a5,-1908
 293 00c2 37070800 		li	a4,524288
 294 00c6 558F     		or	a4,a3,a4
 295 00c8 98C3     		sw	a4,0(a5)
 146:../Firmware/GD32VW55x_standard_peripheral/Source/gd32vw55x_efuse.c ****     /* EFUSE write operation */
 147:../Firmware/GD32VW55x_standard_peripheral/Source/gd32vw55x_efuse.c ****     EFUSE_CS |= EFUSE_CS_EFRW;
 296              		.loc 1 147 14
 297 00ca B7370240 		li	a5,1073885184
 298 00ce 93870780 		addi	a5,a5,-2048
 299 00d2 9843     		lw	a4,0(a5)
 300 00d4 B7370240 		li	a5,1073885184
 301 00d8 93870780 		addi	a5,a5,-2048
 302 00dc 13672700 		ori	a4,a4,2
 303 00e0 98C3     		sw	a4,0(a5)
 148:../Firmware/GD32VW55x_standard_peripheral/Source/gd32vw55x_efuse.c ****     /* write EFUSE address and size */
 149:../Firmware/GD32VW55x_standard_peripheral/Source/gd32vw55x_efuse.c ****     EFUSE_ADDR = (uint32_t)((size << 8U) | ef_addr);
 304              		.loc 1 149 35
 305 00e2 832784FD 		lw	a5,-40(s0)
 306 00e6 93968700 		slli	a3,a5,8
 307              		.loc 1 149 5
 308 00ea B7370240 		li	a5,1073885184
 309 00ee 93874780 		addi	a5,a5,-2044
 310              		.loc 1 149 42
 311 00f2 0327C4FD 		lw	a4,-36(s0)
 312 00f6 558F     		or	a4,a3,a4
 313              		.loc 1 149 16
 314 00f8 98C3     		sw	a4,0(a5)
 150:../Firmware/GD32VW55x_standard_peripheral/Source/gd32vw55x_efuse.c ****     /* write EFUSE */
 151:../Firmware/GD32VW55x_standard_peripheral/Source/gd32vw55x_efuse.c ****     for(i = 0U; i < number; i++) {
 315              		.loc 1 151 11
 316 00fa 232604FE 		sw	zero,-20(s0)
 317              		.loc 1 151 5
 318 00fe 2DA0     		j	.L23
 319              	.L24:
 152:../Firmware/GD32VW55x_standard_peripheral/Source/gd32vw55x_efuse.c ****         REG32(reg_addr + (4U * i)) = buf[i];
 320              		.loc 1 152 41 discriminator 3
 321 0100 8327C4FE 		lw	a5,-20(s0)
 322 0104 8A07     		slli	a5,a5,2
 323 0106 032744FD 		lw	a4,-44(s0)
 324 010a BA97     		add	a5,a4,a5
 325              		.loc 1 152 9 discriminator 3
 326 010c 0327C4FE 		lw	a4,-20(s0)
 327 0110 93162700 		slli	a3,a4,2
 328 0114 032744FE 		lw	a4,-28(s0)
 329 0118 3697     		add	a4,a3,a4
 330              		.loc 1 152 41 discriminator 3
 331 011a 9C43     		lw	a5,0(a5)
 332              		.loc 1 152 36 discriminator 3
 333 011c 1CC3     		sw	a5,0(a4)
 151:../Firmware/GD32VW55x_standard_peripheral/Source/gd32vw55x_efuse.c ****         REG32(reg_addr + (4U * i)) = buf[i];
 334              		.loc 1 151 30 discriminator 3
 335 011e 8327C4FE 		lw	a5,-20(s0)
 336 0122 8507     		addi	a5,a5,1
 337 0124 2326F4FE 		sw	a5,-20(s0)
 338              	.L23:
 151:../Firmware/GD32VW55x_standard_peripheral/Source/gd32vw55x_efuse.c ****         REG32(reg_addr + (4U * i)) = buf[i];
 339              		.loc 1 151 5 discriminator 1
 340 0128 0327C4FE 		lw	a4,-20(s0)
 341 012c 832704FE 		lw	a5,-32(s0)
 342 0130 E368F7FC 		bltu	a4,a5,.L24
 153:../Firmware/GD32VW55x_standard_peripheral/Source/gd32vw55x_efuse.c ****     }
 154:../Firmware/GD32VW55x_standard_peripheral/Source/gd32vw55x_efuse.c ****     /* start write EFUSE operation */
 155:../Firmware/GD32VW55x_standard_peripheral/Source/gd32vw55x_efuse.c ****     EFUSE_CS |= EFUSE_CS_EFSTR;
 343              		.loc 1 155 14
 344 0134 B7370240 		li	a5,1073885184
 345 0138 93870780 		addi	a5,a5,-2048
 346 013c 9843     		lw	a4,0(a5)
 347 013e B7370240 		li	a5,1073885184
 348 0142 93870780 		addi	a5,a5,-2048
 349 0146 13671700 		ori	a4,a4,1
 350 014a 98C3     		sw	a4,0(a5)
 351              	.L26:
 156:../Firmware/GD32VW55x_standard_peripheral/Source/gd32vw55x_efuse.c **** 
 157:../Firmware/GD32VW55x_standard_peripheral/Source/gd32vw55x_efuse.c ****     /* wait for the operation to complete */
 158:../Firmware/GD32VW55x_standard_peripheral/Source/gd32vw55x_efuse.c ****     do {
 159:../Firmware/GD32VW55x_standard_peripheral/Source/gd32vw55x_efuse.c ****         timeout--;
 352              		.loc 1 159 16 discriminator 2
 353 014c 832784FE 		lw	a5,-24(s0)
 354 0150 FD17     		addi	a5,a5,-1
 355 0152 2324F4FE 		sw	a5,-24(s0)
 160:../Firmware/GD32VW55x_standard_peripheral/Source/gd32vw55x_efuse.c ****     } while((RESET == efuse_flag_get(EFUSE_PGIF)) && (0x00U != timeout));
 356              		.loc 1 160 23 discriminator 2
 357 0156 4165     		li	a0,65536
 358 0158 97000000 		call	efuse_flag_get
 358      E7800000 
 359 0160 AA87     		mv	a5,a0
 360              		.loc 1 160 5 discriminator 2
 361 0162 81E7     		bne	a5,zero,.L25
 362              		.loc 1 160 51 discriminator 1
 363 0164 832784FE 		lw	a5,-24(s0)
 364 0168 F5F3     		bne	a5,zero,.L26
 365              	.L25:
 161:../Firmware/GD32VW55x_standard_peripheral/Source/gd32vw55x_efuse.c ****     if(0x00U == timeout) {
 366              		.loc 1 161 7
 367 016a 832784FE 		lw	a5,-24(s0)
 368 016e 99E3     		bne	a5,zero,.L27
 162:../Firmware/GD32VW55x_standard_peripheral/Source/gd32vw55x_efuse.c ****         return ERROR;
 369              		.loc 1 162 16
 370 0170 8147     		li	a5,0
 371 0172 81A8     		j	.L18
 372              	.L27:
 163:../Firmware/GD32VW55x_standard_peripheral/Source/gd32vw55x_efuse.c ****     }
 164:../Firmware/GD32VW55x_standard_peripheral/Source/gd32vw55x_efuse.c **** 
 165:../Firmware/GD32VW55x_standard_peripheral/Source/gd32vw55x_efuse.c ****     /* clear EFUSE write operation flag */
 166:../Firmware/GD32VW55x_standard_peripheral/Source/gd32vw55x_efuse.c ****     EFUSE_CS &= (~EFUSE_CS_EFRW);
 373              		.loc 1 166 14
 374 0174 B7370240 		li	a5,1073885184
 375 0178 93870780 		addi	a5,a5,-2048
 376 017c 9843     		lw	a4,0(a5)
 377 017e B7370240 		li	a5,1073885184
 378 0182 93870780 		addi	a5,a5,-2048
 379 0186 759B     		andi	a4,a4,-3
 380 0188 98C3     		sw	a4,0(a5)
 167:../Firmware/GD32VW55x_standard_peripheral/Source/gd32vw55x_efuse.c ****     /* clear EFUSE write completed flag*/
 168:../Firmware/GD32VW55x_standard_peripheral/Source/gd32vw55x_efuse.c ****     EFUSE_CS |= (uint32_t)EFUSE_CS_PGIC;
 381              		.loc 1 168 14
 382 018a B7370240 		li	a5,1073885184
 383 018e 93870780 		addi	a5,a5,-2048
 384 0192 9443     		lw	a3,0(a5)
 385 0194 B7370240 		li	a5,1073885184
 386 0198 93870780 		addi	a5,a5,-2048
 387 019c 37070001 		li	a4,16777216
 388 01a0 558F     		or	a4,a3,a4
 389 01a2 98C3     		sw	a4,0(a5)
 169:../Firmware/GD32VW55x_standard_peripheral/Source/gd32vw55x_efuse.c ****     /* EFUSE power off */
 170:../Firmware/GD32VW55x_standard_peripheral/Source/gd32vw55x_efuse.c ****     RCU_CFG1 &= (~RCU_CFG1_BGPU);
 390              		.loc 1 170 14
 391 01a4 B7470240 		li	a5,1073889280
 392 01a8 9387C788 		addi	a5,a5,-1908
 393 01ac 9443     		lw	a3,0(a5)
 394 01ae B7470240 		li	a5,1073889280
 395 01b2 9387C788 		addi	a5,a5,-1908
 396 01b6 3707F8FF 		li	a4,-524288
 397 01ba 7D17     		addi	a4,a4,-1
 398 01bc 758F     		and	a4,a3,a4
 399 01be 98C3     		sw	a4,0(a5)
 171:../Firmware/GD32VW55x_standard_peripheral/Source/gd32vw55x_efuse.c **** 
 172:../Firmware/GD32VW55x_standard_peripheral/Source/gd32vw55x_efuse.c ****     return SUCCESS;
 400              		.loc 1 172 12
 401 01c0 8547     		li	a5,1
 402              	.L18:
 173:../Firmware/GD32VW55x_standard_peripheral/Source/gd32vw55x_efuse.c **** }
 403              		.loc 1 173 1
 404 01c2 3E85     		mv	a0,a5
 405 01c4 B250     		lw	ra,44(sp)
 406              		.cfi_restore 1
 407 01c6 2254     		lw	s0,40(sp)
 408              		.cfi_restore 8
 409              		.cfi_def_cfa 2, 48
 410 01c8 4561     		addi	sp,sp,48
 411              		.cfi_def_cfa_offset 0
 412 01ca 8280     		jr	ra
 413              		.cfi_endproc
 414              	.LFE348:
 416              		.section	.text.efuse_boot_config,"ax",@progbits
 417              		.align	1
 418              		.globl	efuse_boot_config
 420              	efuse_boot_config:
 421              	.LFB349:
 174:../Firmware/GD32VW55x_standard_peripheral/Source/gd32vw55x_efuse.c **** 
 175:../Firmware/GD32VW55x_standard_peripheral/Source/gd32vw55x_efuse.c **** /*!
 176:../Firmware/GD32VW55x_standard_peripheral/Source/gd32vw55x_efuse.c ****     \brief      configure boot
 177:../Firmware/GD32VW55x_standard_peripheral/Source/gd32vw55x_efuse.c ****     \param[in]  size: size of data(byte)
 178:../Firmware/GD32VW55x_standard_peripheral/Source/gd32vw55x_efuse.c ****       \arg        the size must be 1
 179:../Firmware/GD32VW55x_standard_peripheral/Source/gd32vw55x_efuse.c ****     \param[in]  bt_value: the value of boot configuration
 180:../Firmware/GD32VW55x_standard_peripheral/Source/gd32vw55x_efuse.c ****     \param[out] none
 181:../Firmware/GD32VW55x_standard_peripheral/Source/gd32vw55x_efuse.c ****     \retval     ErrStatus: ERROR or SUCCESS
 182:../Firmware/GD32VW55x_standard_peripheral/Source/gd32vw55x_efuse.c **** */
 183:../Firmware/GD32VW55x_standard_peripheral/Source/gd32vw55x_efuse.c **** ErrStatus efuse_boot_config(uint32_t size, uint8_t bt_value[])
 184:../Firmware/GD32VW55x_standard_peripheral/Source/gd32vw55x_efuse.c **** {
 422              		.loc 1 184 1
 423              		.cfi_startproc
 424 0000 0111     		addi	sp,sp,-32
 425              		.cfi_def_cfa_offset 32
 426 0002 06CE     		sw	ra,28(sp)
 427 0004 22CC     		sw	s0,24(sp)
 428              		.cfi_offset 1, -4
 429              		.cfi_offset 8, -8
 430 0006 0010     		addi	s0,sp,32
 431              		.cfi_def_cfa 8, 0
 432 0008 2326A4FE 		sw	a0,-20(s0)
 433 000c 2324B4FE 		sw	a1,-24(s0)
 185:../Firmware/GD32VW55x_standard_peripheral/Source/gd32vw55x_efuse.c ****     if(size != 1U) {
 434              		.loc 1 185 7
 435 0010 0327C4FE 		lw	a4,-20(s0)
 436 0014 8547     		li	a5,1
 437 0016 6304F700 		beq	a4,a5,.L29
 186:../Firmware/GD32VW55x_standard_peripheral/Source/gd32vw55x_efuse.c ****         return ERROR;
 438              		.loc 1 186 16
 439 001a 8147     		li	a5,0
 440 001c 19A8     		j	.L30
 441              	.L29:
 187:../Firmware/GD32VW55x_standard_peripheral/Source/gd32vw55x_efuse.c ****     }
 188:../Firmware/GD32VW55x_standard_peripheral/Source/gd32vw55x_efuse.c ****     return efuse_write(EFUSE_CTL0_ADDR, size, (uint32_t *)bt_value);
 442              		.loc 1 188 12
 443 001e 032684FE 		lw	a2,-24(s0)
 444 0022 8325C4FE 		lw	a1,-20(s0)
 445 0026 0145     		li	a0,0
 446 0028 97000000 		call	efuse_write
 446      E7800000 
 447 0030 AA87     		mv	a5,a0
 448              	.L30:
 189:../Firmware/GD32VW55x_standard_peripheral/Source/gd32vw55x_efuse.c **** }
 449              		.loc 1 189 1
 450 0032 3E85     		mv	a0,a5
 451 0034 F240     		lw	ra,28(sp)
 452              		.cfi_restore 1
 453 0036 6244     		lw	s0,24(sp)
 454              		.cfi_restore 8
 455              		.cfi_def_cfa 2, 32
 456 0038 0561     		addi	sp,sp,32
 457              		.cfi_def_cfa_offset 0
 458 003a 8280     		jr	ra
 459              		.cfi_endproc
 460              	.LFE349:
 462              		.section	.text.efuse_control1_config,"ax",@progbits
 463              		.align	1
 464              		.globl	efuse_control1_config
 466              	efuse_control1_config:
 467              	.LFB350:
 190:../Firmware/GD32VW55x_standard_peripheral/Source/gd32vw55x_efuse.c **** 
 191:../Firmware/GD32VW55x_standard_peripheral/Source/gd32vw55x_efuse.c **** /*!
 192:../Firmware/GD32VW55x_standard_peripheral/Source/gd32vw55x_efuse.c ****     \brief      configure efuse control1
 193:../Firmware/GD32VW55x_standard_peripheral/Source/gd32vw55x_efuse.c ****     \param[in]  size: size of data(byte)
 194:../Firmware/GD32VW55x_standard_peripheral/Source/gd32vw55x_efuse.c ****       \arg      the size must be 1
 195:../Firmware/GD32VW55x_standard_peripheral/Source/gd32vw55x_efuse.c ****     \param[in]  ctl: control value
 196:../Firmware/GD32VW55x_standard_peripheral/Source/gd32vw55x_efuse.c ****     \param[out] none
 197:../Firmware/GD32VW55x_standard_peripheral/Source/gd32vw55x_efuse.c ****     \retval     ErrStatus: ERROR or SUCCESS
 198:../Firmware/GD32VW55x_standard_peripheral/Source/gd32vw55x_efuse.c **** */
 199:../Firmware/GD32VW55x_standard_peripheral/Source/gd32vw55x_efuse.c **** ErrStatus efuse_control1_config(uint32_t size, uint8_t ctl[])
 200:../Firmware/GD32VW55x_standard_peripheral/Source/gd32vw55x_efuse.c **** {
 468              		.loc 1 200 1
 469              		.cfi_startproc
 470 0000 0111     		addi	sp,sp,-32
 471              		.cfi_def_cfa_offset 32
 472 0002 06CE     		sw	ra,28(sp)
 473 0004 22CC     		sw	s0,24(sp)
 474              		.cfi_offset 1, -4
 475              		.cfi_offset 8, -8
 476 0006 0010     		addi	s0,sp,32
 477              		.cfi_def_cfa 8, 0
 478 0008 2326A4FE 		sw	a0,-20(s0)
 479 000c 2324B4FE 		sw	a1,-24(s0)
 201:../Firmware/GD32VW55x_standard_peripheral/Source/gd32vw55x_efuse.c ****     if(size != 1U) {
 480              		.loc 1 201 7
 481 0010 0327C4FE 		lw	a4,-20(s0)
 482 0014 8547     		li	a5,1
 483 0016 6304F700 		beq	a4,a5,.L32
 202:../Firmware/GD32VW55x_standard_peripheral/Source/gd32vw55x_efuse.c ****         return ERROR;
 484              		.loc 1 202 16
 485 001a 8147     		li	a5,0
 486 001c 19A8     		j	.L33
 487              	.L32:
 203:../Firmware/GD32VW55x_standard_peripheral/Source/gd32vw55x_efuse.c ****     }
 204:../Firmware/GD32VW55x_standard_peripheral/Source/gd32vw55x_efuse.c ****     return efuse_write(EFUSE_CTL1_ADDR, size, (uint32_t *)ctl);
 488              		.loc 1 204 12
 489 001e 032684FE 		lw	a2,-24(s0)
 490 0022 8325C4FE 		lw	a1,-20(s0)
 491 0026 0545     		li	a0,1
 492 0028 97000000 		call	efuse_write
 492      E7800000 
 493 0030 AA87     		mv	a5,a0
 494              	.L33:
 205:../Firmware/GD32VW55x_standard_peripheral/Source/gd32vw55x_efuse.c **** }
 495              		.loc 1 205 1
 496 0032 3E85     		mv	a0,a5
 497 0034 F240     		lw	ra,28(sp)
 498              		.cfi_restore 1
 499 0036 6244     		lw	s0,24(sp)
 500              		.cfi_restore 8
 501              		.cfi_def_cfa 2, 32
 502 0038 0561     		addi	sp,sp,32
 503              		.cfi_def_cfa_offset 0
 504 003a 8280     		jr	ra
 505              		.cfi_endproc
 506              	.LFE350:
 508              		.section	.text.efuse_fp_config,"ax",@progbits
 509              		.align	1
 510              		.globl	efuse_fp_config
 512              	efuse_fp_config:
 513              	.LFB351:
 206:../Firmware/GD32VW55x_standard_peripheral/Source/gd32vw55x_efuse.c **** 
 207:../Firmware/GD32VW55x_standard_peripheral/Source/gd32vw55x_efuse.c **** /*!
 208:../Firmware/GD32VW55x_standard_peripheral/Source/gd32vw55x_efuse.c ****     \brief      configure flash protection
 209:../Firmware/GD32VW55x_standard_peripheral/Source/gd32vw55x_efuse.c ****     \param[in]  size: size of data(byte)
 210:../Firmware/GD32VW55x_standard_peripheral/Source/gd32vw55x_efuse.c ****       \arg        the size must be 1
 211:../Firmware/GD32VW55x_standard_peripheral/Source/gd32vw55x_efuse.c ****     \param[in]  fp_value: flash protection value
 212:../Firmware/GD32VW55x_standard_peripheral/Source/gd32vw55x_efuse.c ****     \param[out] none
 213:../Firmware/GD32VW55x_standard_peripheral/Source/gd32vw55x_efuse.c ****     \retval     ErrStatus: ERROR or SUCCESS
 214:../Firmware/GD32VW55x_standard_peripheral/Source/gd32vw55x_efuse.c **** */
 215:../Firmware/GD32VW55x_standard_peripheral/Source/gd32vw55x_efuse.c **** ErrStatus efuse_fp_config(uint32_t size, uint8_t fp_value[])
 216:../Firmware/GD32VW55x_standard_peripheral/Source/gd32vw55x_efuse.c **** {
 514              		.loc 1 216 1
 515              		.cfi_startproc
 516 0000 0111     		addi	sp,sp,-32
 517              		.cfi_def_cfa_offset 32
 518 0002 06CE     		sw	ra,28(sp)
 519 0004 22CC     		sw	s0,24(sp)
 520              		.cfi_offset 1, -4
 521              		.cfi_offset 8, -8
 522 0006 0010     		addi	s0,sp,32
 523              		.cfi_def_cfa 8, 0
 524 0008 2326A4FE 		sw	a0,-20(s0)
 525 000c 2324B4FE 		sw	a1,-24(s0)
 217:../Firmware/GD32VW55x_standard_peripheral/Source/gd32vw55x_efuse.c ****     if(size != 1U) {
 526              		.loc 1 217 7
 527 0010 0327C4FE 		lw	a4,-20(s0)
 528 0014 8547     		li	a5,1
 529 0016 6304F700 		beq	a4,a5,.L35
 218:../Firmware/GD32VW55x_standard_peripheral/Source/gd32vw55x_efuse.c ****         return ERROR;
 530              		.loc 1 218 16
 531 001a 8147     		li	a5,0
 532 001c 19A8     		j	.L36
 533              	.L35:
 219:../Firmware/GD32VW55x_standard_peripheral/Source/gd32vw55x_efuse.c ****     }
 220:../Firmware/GD32VW55x_standard_peripheral/Source/gd32vw55x_efuse.c ****     return efuse_write(FP_ADDR, size, (uint32_t *)fp_value);
 534              		.loc 1 220 12
 535 001e 032684FE 		lw	a2,-24(s0)
 536 0022 8325C4FE 		lw	a1,-20(s0)
 537 0026 0945     		li	a0,2
 538 0028 97000000 		call	efuse_write
 538      E7800000 
 539 0030 AA87     		mv	a5,a0
 540              	.L36:
 221:../Firmware/GD32VW55x_standard_peripheral/Source/gd32vw55x_efuse.c **** }
 541              		.loc 1 221 1
 542 0032 3E85     		mv	a0,a5
 543 0034 F240     		lw	ra,28(sp)
 544              		.cfi_restore 1
 545 0036 6244     		lw	s0,24(sp)
 546              		.cfi_restore 8
 547              		.cfi_def_cfa 2, 32
 548 0038 0561     		addi	sp,sp,32
 549              		.cfi_def_cfa_offset 0
 550 003a 8280     		jr	ra
 551              		.cfi_endproc
 552              	.LFE351:
 554              		.section	.text.efuse_user_control_config,"ax",@progbits
 555              		.align	1
 556              		.globl	efuse_user_control_config
 558              	efuse_user_control_config:
 559              	.LFB352:
 222:../Firmware/GD32VW55x_standard_peripheral/Source/gd32vw55x_efuse.c **** 
 223:../Firmware/GD32VW55x_standard_peripheral/Source/gd32vw55x_efuse.c **** /*!
 224:../Firmware/GD32VW55x_standard_peripheral/Source/gd32vw55x_efuse.c ****     \brief      configure user control
 225:../Firmware/GD32VW55x_standard_peripheral/Source/gd32vw55x_efuse.c ****     \param[in]  size: size of data(byte)
 226:../Firmware/GD32VW55x_standard_peripheral/Source/gd32vw55x_efuse.c ****       \arg        the size must be 1
 227:../Firmware/GD32VW55x_standard_peripheral/Source/gd32vw55x_efuse.c ****     \param[in]  user_ctl: user control value
 228:../Firmware/GD32VW55x_standard_peripheral/Source/gd32vw55x_efuse.c ****     \param[out] none
 229:../Firmware/GD32VW55x_standard_peripheral/Source/gd32vw55x_efuse.c ****     \retval     ErrStatus: ERROR or SUCCESS
 230:../Firmware/GD32VW55x_standard_peripheral/Source/gd32vw55x_efuse.c **** */
 231:../Firmware/GD32VW55x_standard_peripheral/Source/gd32vw55x_efuse.c **** ErrStatus efuse_user_control_config(uint32_t size, uint8_t user_ctl[])
 232:../Firmware/GD32VW55x_standard_peripheral/Source/gd32vw55x_efuse.c **** {
 560              		.loc 1 232 1
 561              		.cfi_startproc
 562 0000 0111     		addi	sp,sp,-32
 563              		.cfi_def_cfa_offset 32
 564 0002 06CE     		sw	ra,28(sp)
 565 0004 22CC     		sw	s0,24(sp)
 566              		.cfi_offset 1, -4
 567              		.cfi_offset 8, -8
 568 0006 0010     		addi	s0,sp,32
 569              		.cfi_def_cfa 8, 0
 570 0008 2326A4FE 		sw	a0,-20(s0)
 571 000c 2324B4FE 		sw	a1,-24(s0)
 233:../Firmware/GD32VW55x_standard_peripheral/Source/gd32vw55x_efuse.c ****     if(size != 1U) {
 572              		.loc 1 233 7
 573 0010 0327C4FE 		lw	a4,-20(s0)
 574 0014 8547     		li	a5,1
 575 0016 6304F700 		beq	a4,a5,.L38
 234:../Firmware/GD32VW55x_standard_peripheral/Source/gd32vw55x_efuse.c ****         return ERROR;
 576              		.loc 1 234 16
 577 001a 8147     		li	a5,0
 578 001c 19A8     		j	.L39
 579              	.L38:
 235:../Firmware/GD32VW55x_standard_peripheral/Source/gd32vw55x_efuse.c ****     }
 236:../Firmware/GD32VW55x_standard_peripheral/Source/gd32vw55x_efuse.c ****     return efuse_write(USER_CTL_ADDR, size, (uint32_t *)user_ctl);
 580              		.loc 1 236 12
 581 001e 032684FE 		lw	a2,-24(s0)
 582 0022 8325C4FE 		lw	a1,-20(s0)
 583 0026 0D45     		li	a0,3
 584 0028 97000000 		call	efuse_write
 584      E7800000 
 585 0030 AA87     		mv	a5,a0
 586              	.L39:
 237:../Firmware/GD32VW55x_standard_peripheral/Source/gd32vw55x_efuse.c **** }
 587              		.loc 1 237 1
 588 0032 3E85     		mv	a0,a5
 589 0034 F240     		lw	ra,28(sp)
 590              		.cfi_restore 1
 591 0036 6244     		lw	s0,24(sp)
 592              		.cfi_restore 8
 593              		.cfi_def_cfa 2, 32
 594 0038 0561     		addi	sp,sp,32
 595              		.cfi_def_cfa_offset 0
 596 003a 8280     		jr	ra
 597              		.cfi_endproc
 598              	.LFE352:
 600              		.section	.text.efuse_res_write,"ax",@progbits
 601              		.align	1
 602              		.globl	efuse_res_write
 604              	efuse_res_write:
 605              	.LFB353:
 238:../Firmware/GD32VW55x_standard_peripheral/Source/gd32vw55x_efuse.c **** 
 239:../Firmware/GD32VW55x_standard_peripheral/Source/gd32vw55x_efuse.c **** /*!
 240:../Firmware/GD32VW55x_standard_peripheral/Source/gd32vw55x_efuse.c ****     \brief      write MCU reserved value
 241:../Firmware/GD32VW55x_standard_peripheral/Source/gd32vw55x_efuse.c ****     \param[in]  size: size of data(byte)
 242:../Firmware/GD32VW55x_standard_peripheral/Source/gd32vw55x_efuse.c ****       \arg        the size must be 12
 243:../Firmware/GD32VW55x_standard_peripheral/Source/gd32vw55x_efuse.c ****     \param[in]  buf: MCU reserved value
 244:../Firmware/GD32VW55x_standard_peripheral/Source/gd32vw55x_efuse.c ****     \param[out] none
 245:../Firmware/GD32VW55x_standard_peripheral/Source/gd32vw55x_efuse.c ****     \retval     ErrStatus: ERROR or SUCCESS
 246:../Firmware/GD32VW55x_standard_peripheral/Source/gd32vw55x_efuse.c **** */
 247:../Firmware/GD32VW55x_standard_peripheral/Source/gd32vw55x_efuse.c **** ErrStatus efuse_res_write(uint32_t size, uint8_t buf[])
 248:../Firmware/GD32VW55x_standard_peripheral/Source/gd32vw55x_efuse.c **** {
 606              		.loc 1 248 1
 607              		.cfi_startproc
 608 0000 0111     		addi	sp,sp,-32
 609              		.cfi_def_cfa_offset 32
 610 0002 06CE     		sw	ra,28(sp)
 611 0004 22CC     		sw	s0,24(sp)
 612              		.cfi_offset 1, -4
 613              		.cfi_offset 8, -8
 614 0006 0010     		addi	s0,sp,32
 615              		.cfi_def_cfa 8, 0
 616 0008 2326A4FE 		sw	a0,-20(s0)
 617 000c 2324B4FE 		sw	a1,-24(s0)
 249:../Firmware/GD32VW55x_standard_peripheral/Source/gd32vw55x_efuse.c ****     if(size != 12U) {
 618              		.loc 1 249 7
 619 0010 0327C4FE 		lw	a4,-20(s0)
 620 0014 B147     		li	a5,12
 621 0016 6304F700 		beq	a4,a5,.L41
 250:../Firmware/GD32VW55x_standard_peripheral/Source/gd32vw55x_efuse.c ****         return ERROR;
 622              		.loc 1 250 16
 623 001a 8147     		li	a5,0
 624 001c 19A8     		j	.L42
 625              	.L41:
 251:../Firmware/GD32VW55x_standard_peripheral/Source/gd32vw55x_efuse.c ****     }
 252:../Firmware/GD32VW55x_standard_peripheral/Source/gd32vw55x_efuse.c ****     return efuse_write(RESERVED_ADDR, size, (uint32_t *)buf);
 626              		.loc 1 252 12
 627 001e 032684FE 		lw	a2,-24(s0)
 628 0022 8325C4FE 		lw	a1,-20(s0)
 629 0026 1145     		li	a0,4
 630 0028 97000000 		call	efuse_write
 630      E7800000 
 631 0030 AA87     		mv	a5,a0
 632              	.L42:
 253:../Firmware/GD32VW55x_standard_peripheral/Source/gd32vw55x_efuse.c **** }
 633              		.loc 1 253 1
 634 0032 3E85     		mv	a0,a5
 635 0034 F240     		lw	ra,28(sp)
 636              		.cfi_restore 1
 637 0036 6244     		lw	s0,24(sp)
 638              		.cfi_restore 8
 639              		.cfi_def_cfa 2, 32
 640 0038 0561     		addi	sp,sp,32
 641              		.cfi_def_cfa_offset 0
 642 003a 8280     		jr	ra
 643              		.cfi_endproc
 644              	.LFE353:
 646              		.section	.text.efuse_aes_key_write,"ax",@progbits
 647              		.align	1
 648              		.globl	efuse_aes_key_write
 650              	efuse_aes_key_write:
 651              	.LFB354:
 254:../Firmware/GD32VW55x_standard_peripheral/Source/gd32vw55x_efuse.c **** 
 255:../Firmware/GD32VW55x_standard_peripheral/Source/gd32vw55x_efuse.c **** /*!
 256:../Firmware/GD32VW55x_standard_peripheral/Source/gd32vw55x_efuse.c ****     \brief      write AES key
 257:../Firmware/GD32VW55x_standard_peripheral/Source/gd32vw55x_efuse.c ****     \param[in]  size: size of data(byte)
 258:../Firmware/GD32VW55x_standard_peripheral/Source/gd32vw55x_efuse.c ****       \arg        the size must be 16
 259:../Firmware/GD32VW55x_standard_peripheral/Source/gd32vw55x_efuse.c ****     \param[in]  buf: the buffer of data written to efuse
 260:../Firmware/GD32VW55x_standard_peripheral/Source/gd32vw55x_efuse.c ****     \param[out] none
 261:../Firmware/GD32VW55x_standard_peripheral/Source/gd32vw55x_efuse.c ****     \retval     ErrStatus: ERROR or SUCCESS
 262:../Firmware/GD32VW55x_standard_peripheral/Source/gd32vw55x_efuse.c **** */
 263:../Firmware/GD32VW55x_standard_peripheral/Source/gd32vw55x_efuse.c **** ErrStatus efuse_aes_key_write(uint32_t size, uint8_t buf[])
 264:../Firmware/GD32VW55x_standard_peripheral/Source/gd32vw55x_efuse.c **** {
 652              		.loc 1 264 1
 653              		.cfi_startproc
 654 0000 0111     		addi	sp,sp,-32
 655              		.cfi_def_cfa_offset 32
 656 0002 06CE     		sw	ra,28(sp)
 657 0004 22CC     		sw	s0,24(sp)
 658              		.cfi_offset 1, -4
 659              		.cfi_offset 8, -8
 660 0006 0010     		addi	s0,sp,32
 661              		.cfi_def_cfa 8, 0
 662 0008 2326A4FE 		sw	a0,-20(s0)
 663 000c 2324B4FE 		sw	a1,-24(s0)
 265:../Firmware/GD32VW55x_standard_peripheral/Source/gd32vw55x_efuse.c ****     if(size != 16U) {
 664              		.loc 1 265 7
 665 0010 0327C4FE 		lw	a4,-20(s0)
 666 0014 C147     		li	a5,16
 667 0016 6304F700 		beq	a4,a5,.L44
 266:../Firmware/GD32VW55x_standard_peripheral/Source/gd32vw55x_efuse.c ****         return ERROR;
 668              		.loc 1 266 16
 669 001a 8147     		li	a5,0
 670 001c 19A8     		j	.L45
 671              	.L44:
 267:../Firmware/GD32VW55x_standard_peripheral/Source/gd32vw55x_efuse.c ****     }
 268:../Firmware/GD32VW55x_standard_peripheral/Source/gd32vw55x_efuse.c ****     return efuse_write(AES_KEY_ADDR, size, (uint32_t *)buf);
 672              		.loc 1 268 12
 673 001e 032684FE 		lw	a2,-24(s0)
 674 0022 8325C4FE 		lw	a1,-20(s0)
 675 0026 4145     		li	a0,16
 676 0028 97000000 		call	efuse_write
 676      E7800000 
 677 0030 AA87     		mv	a5,a0
 678              	.L45:
 269:../Firmware/GD32VW55x_standard_peripheral/Source/gd32vw55x_efuse.c **** }
 679              		.loc 1 269 1
 680 0032 3E85     		mv	a0,a5
 681 0034 F240     		lw	ra,28(sp)
 682              		.cfi_restore 1
 683 0036 6244     		lw	s0,24(sp)
 684              		.cfi_restore 8
 685              		.cfi_def_cfa 2, 32
 686 0038 0561     		addi	sp,sp,32
 687              		.cfi_def_cfa_offset 0
 688 003a 8280     		jr	ra
 689              		.cfi_endproc
 690              	.LFE354:
 692              		.section	.text.efuse_rotpk_key_write,"ax",@progbits
 693              		.align	1
 694              		.globl	efuse_rotpk_key_write
 696              	efuse_rotpk_key_write:
 697              	.LFB355:
 270:../Firmware/GD32VW55x_standard_peripheral/Source/gd32vw55x_efuse.c **** 
 271:../Firmware/GD32VW55x_standard_peripheral/Source/gd32vw55x_efuse.c **** /*!
 272:../Firmware/GD32VW55x_standard_peripheral/Source/gd32vw55x_efuse.c ****     \brief      write ROTPK key
 273:../Firmware/GD32VW55x_standard_peripheral/Source/gd32vw55x_efuse.c ****     \param[in]  size: size of data(byte)
 274:../Firmware/GD32VW55x_standard_peripheral/Source/gd32vw55x_efuse.c ****       \arg        the size must be 32
 275:../Firmware/GD32VW55x_standard_peripheral/Source/gd32vw55x_efuse.c ****     \param[in]  buf: the buffer of data written to efuse
 276:../Firmware/GD32VW55x_standard_peripheral/Source/gd32vw55x_efuse.c ****     \param[out] none
 277:../Firmware/GD32VW55x_standard_peripheral/Source/gd32vw55x_efuse.c ****     \retval     ErrStatus: ERROR or SUCCESS
 278:../Firmware/GD32VW55x_standard_peripheral/Source/gd32vw55x_efuse.c **** */
 279:../Firmware/GD32VW55x_standard_peripheral/Source/gd32vw55x_efuse.c **** ErrStatus efuse_rotpk_key_write(uint32_t size, uint8_t buf[])
 280:../Firmware/GD32VW55x_standard_peripheral/Source/gd32vw55x_efuse.c **** {
 698              		.loc 1 280 1
 699              		.cfi_startproc
 700 0000 0111     		addi	sp,sp,-32
 701              		.cfi_def_cfa_offset 32
 702 0002 06CE     		sw	ra,28(sp)
 703 0004 22CC     		sw	s0,24(sp)
 704              		.cfi_offset 1, -4
 705              		.cfi_offset 8, -8
 706 0006 0010     		addi	s0,sp,32
 707              		.cfi_def_cfa 8, 0
 708 0008 2326A4FE 		sw	a0,-20(s0)
 709 000c 2324B4FE 		sw	a1,-24(s0)
 281:../Firmware/GD32VW55x_standard_peripheral/Source/gd32vw55x_efuse.c ****     if(size != 32U) {
 710              		.loc 1 281 7
 711 0010 0327C4FE 		lw	a4,-20(s0)
 712 0014 93070002 		li	a5,32
 713 0018 6304F700 		beq	a4,a5,.L47
 282:../Firmware/GD32VW55x_standard_peripheral/Source/gd32vw55x_efuse.c ****         return ERROR;
 714              		.loc 1 282 16
 715 001c 8147     		li	a5,0
 716 001e 21A8     		j	.L48
 717              	.L47:
 283:../Firmware/GD32VW55x_standard_peripheral/Source/gd32vw55x_efuse.c ****     }
 284:../Firmware/GD32VW55x_standard_peripheral/Source/gd32vw55x_efuse.c ****     return efuse_write(ROTPK_ADDR, size, (uint32_t *)buf);
 718              		.loc 1 284 12
 719 0020 032684FE 		lw	a2,-24(s0)
 720 0024 8325C4FE 		lw	a1,-20(s0)
 721 0028 13050002 		li	a0,32
 722 002c 97000000 		call	efuse_write
 722      E7800000 
 723 0034 AA87     		mv	a5,a0
 724              	.L48:
 285:../Firmware/GD32VW55x_standard_peripheral/Source/gd32vw55x_efuse.c **** }
 725              		.loc 1 285 1
 726 0036 3E85     		mv	a0,a5
 727 0038 F240     		lw	ra,28(sp)
 728              		.cfi_restore 1
 729 003a 6244     		lw	s0,24(sp)
 730              		.cfi_restore 8
 731              		.cfi_def_cfa 2, 32
 732 003c 0561     		addi	sp,sp,32
 733              		.cfi_def_cfa_offset 0
 734 003e 8280     		jr	ra
 735              		.cfi_endproc
 736              	.LFE355:
 738              		.section	.text.efuse_user_data_write,"ax",@progbits
 739              		.align	1
 740              		.globl	efuse_user_data_write
 742              	efuse_user_data_write:
 743              	.LFB356:
 286:../Firmware/GD32VW55x_standard_peripheral/Source/gd32vw55x_efuse.c **** 
 287:../Firmware/GD32VW55x_standard_peripheral/Source/gd32vw55x_efuse.c **** /*!
 288:../Firmware/GD32VW55x_standard_peripheral/Source/gd32vw55x_efuse.c ****     \brief      write user data
 289:../Firmware/GD32VW55x_standard_peripheral/Source/gd32vw55x_efuse.c ****     \param[in]  size: size of data(byte)
 290:../Firmware/GD32VW55x_standard_peripheral/Source/gd32vw55x_efuse.c ****       \arg        the size must be 32
 291:../Firmware/GD32VW55x_standard_peripheral/Source/gd32vw55x_efuse.c ****     \param[in]  buf: the buffer of data written to efuse
 292:../Firmware/GD32VW55x_standard_peripheral/Source/gd32vw55x_efuse.c ****     \param[out] none
 293:../Firmware/GD32VW55x_standard_peripheral/Source/gd32vw55x_efuse.c ****     \retval     ErrStatus: ERROR or SUCCESS
 294:../Firmware/GD32VW55x_standard_peripheral/Source/gd32vw55x_efuse.c **** */
 295:../Firmware/GD32VW55x_standard_peripheral/Source/gd32vw55x_efuse.c **** ErrStatus efuse_user_data_write(uint32_t size, uint8_t buf[])
 296:../Firmware/GD32VW55x_standard_peripheral/Source/gd32vw55x_efuse.c **** {
 744              		.loc 1 296 1
 745              		.cfi_startproc
 746 0000 0111     		addi	sp,sp,-32
 747              		.cfi_def_cfa_offset 32
 748 0002 06CE     		sw	ra,28(sp)
 749 0004 22CC     		sw	s0,24(sp)
 750              		.cfi_offset 1, -4
 751              		.cfi_offset 8, -8
 752 0006 0010     		addi	s0,sp,32
 753              		.cfi_def_cfa 8, 0
 754 0008 2326A4FE 		sw	a0,-20(s0)
 755 000c 2324B4FE 		sw	a1,-24(s0)
 297:../Firmware/GD32VW55x_standard_peripheral/Source/gd32vw55x_efuse.c ****     if(size != 32U) {
 756              		.loc 1 297 7
 757 0010 0327C4FE 		lw	a4,-20(s0)
 758 0014 93070002 		li	a5,32
 759 0018 6304F700 		beq	a4,a5,.L50
 298:../Firmware/GD32VW55x_standard_peripheral/Source/gd32vw55x_efuse.c ****         return ERROR;
 760              		.loc 1 298 16
 761 001c 8147     		li	a5,0
 762 001e 21A8     		j	.L51
 763              	.L50:
 299:../Firmware/GD32VW55x_standard_peripheral/Source/gd32vw55x_efuse.c ****     }
 300:../Firmware/GD32VW55x_standard_peripheral/Source/gd32vw55x_efuse.c ****     return efuse_write(USER_DATA_ADDR, size, (uint32_t *)buf);
 764              		.loc 1 300 12
 765 0020 032684FE 		lw	a2,-24(s0)
 766 0024 8325C4FE 		lw	a1,-20(s0)
 767 0028 13050006 		li	a0,96
 768 002c 97000000 		call	efuse_write
 768      E7800000 
 769 0034 AA87     		mv	a5,a0
 770              	.L51:
 301:../Firmware/GD32VW55x_standard_peripheral/Source/gd32vw55x_efuse.c **** }
 771              		.loc 1 301 1
 772 0036 3E85     		mv	a0,a5
 773 0038 F240     		lw	ra,28(sp)
 774              		.cfi_restore 1
 775 003a 6244     		lw	s0,24(sp)
 776              		.cfi_restore 8
 777              		.cfi_def_cfa 2, 32
 778 003c 0561     		addi	sp,sp,32
 779              		.cfi_def_cfa_offset 0
 780 003e 8280     		jr	ra
 781              		.cfi_endproc
 782              	.LFE356:
 784              		.section	.text.efuse_res_read,"ax",@progbits
 785              		.align	1
 786              		.globl	efuse_res_read
 788              	efuse_res_read:
 789              	.LFB357:
 302:../Firmware/GD32VW55x_standard_peripheral/Source/gd32vw55x_efuse.c **** 
 303:../Firmware/GD32VW55x_standard_peripheral/Source/gd32vw55x_efuse.c **** /*!
 304:../Firmware/GD32VW55x_standard_peripheral/Source/gd32vw55x_efuse.c ****     \brief      read MCU reserved value
 305:../Firmware/GD32VW55x_standard_peripheral/Source/gd32vw55x_efuse.c ****     \param[in]  none
 306:../Firmware/GD32VW55x_standard_peripheral/Source/gd32vw55x_efuse.c ****     \param[out] buf: MCU reserved value after system reset
 307:../Firmware/GD32VW55x_standard_peripheral/Source/gd32vw55x_efuse.c ****     \retval     none
 308:../Firmware/GD32VW55x_standard_peripheral/Source/gd32vw55x_efuse.c **** */
 309:../Firmware/GD32VW55x_standard_peripheral/Source/gd32vw55x_efuse.c **** void efuse_res_read(uint32_t buf[])
 310:../Firmware/GD32VW55x_standard_peripheral/Source/gd32vw55x_efuse.c **** {
 790              		.loc 1 310 1
 791              		.cfi_startproc
 792 0000 7971     		addi	sp,sp,-48
 793              		.cfi_def_cfa_offset 48
 794 0002 22D6     		sw	s0,44(sp)
 795              		.cfi_offset 8, -4
 796 0004 0018     		addi	s0,sp,48
 797              		.cfi_def_cfa 8, 0
 798 0006 232EA4FC 		sw	a0,-36(s0)
 311:../Firmware/GD32VW55x_standard_peripheral/Source/gd32vw55x_efuse.c ****     uint8_t i = 0U;
 799              		.loc 1 311 13
 800 000a A30704FE 		sb	zero,-17(s0)
 312:../Firmware/GD32VW55x_standard_peripheral/Source/gd32vw55x_efuse.c ****     for(i = 0U; i < 3U; i++) {
 801              		.loc 1 312 11
 802 000e A30704FE 		sb	zero,-17(s0)
 803              		.loc 1 312 5
 804 0012 3DA0     		j	.L53
 805              	.L54:
 313:../Firmware/GD32VW55x_standard_peripheral/Source/gd32vw55x_efuse.c ****         buf[i] = REG32(EFUSE + 0x18U + 0x04U * i);
 806              		.loc 1 313 18 discriminator 3
 807 0014 0347F4FE 		lbu	a4,-17(s0)
 808 0018 B7970010 		li	a5,268472320
 809 001c 938767A0 		addi	a5,a5,-1530
 810 0020 BA97     		add	a5,a4,a5
 811 0022 8A07     		slli	a5,a5,2
 812 0024 BE86     		mv	a3,a5
 813              		.loc 1 313 12 discriminator 3
 814 0026 8347F4FE 		lbu	a5,-17(s0)
 815 002a 8A07     		slli	a5,a5,2
 816 002c 0327C4FD 		lw	a4,-36(s0)
 817 0030 BA97     		add	a5,a4,a5
 818              		.loc 1 313 18 discriminator 3
 819 0032 9842     		lw	a4,0(a3)
 820              		.loc 1 313 16 discriminator 3
 821 0034 98C3     		sw	a4,0(a5)
 312:../Firmware/GD32VW55x_standard_peripheral/Source/gd32vw55x_efuse.c ****     for(i = 0U; i < 3U; i++) {
 822              		.loc 1 312 26 discriminator 3
 823 0036 8347F4FE 		lbu	a5,-17(s0)
 824 003a 8507     		addi	a5,a5,1
 825 003c A307F4FE 		sb	a5,-17(s0)
 826              	.L53:
 312:../Firmware/GD32VW55x_standard_peripheral/Source/gd32vw55x_efuse.c ****     for(i = 0U; i < 3U; i++) {
 827              		.loc 1 312 5 discriminator 1
 828 0040 0347F4FE 		lbu	a4,-17(s0)
 829 0044 8947     		li	a5,2
 830 0046 E3F7E7FC 		bleu	a4,a5,.L54
 314:../Firmware/GD32VW55x_standard_peripheral/Source/gd32vw55x_efuse.c ****     }
 315:../Firmware/GD32VW55x_standard_peripheral/Source/gd32vw55x_efuse.c **** }
 831              		.loc 1 315 1
 832 004a 0100     		nop
 833 004c 0100     		nop
 834 004e 3254     		lw	s0,44(sp)
 835              		.cfi_restore 8
 836              		.cfi_def_cfa 2, 48
 837 0050 4561     		addi	sp,sp,48
 838              		.cfi_def_cfa_offset 0
 839 0052 8280     		jr	ra
 840              		.cfi_endproc
 841              	.LFE357:
 843              		.section	.text.efuse_aes_key_read,"ax",@progbits
 844              		.align	1
 845              		.globl	efuse_aes_key_read
 847              	efuse_aes_key_read:
 848              	.LFB358:
 316:../Firmware/GD32VW55x_standard_peripheral/Source/gd32vw55x_efuse.c **** 
 317:../Firmware/GD32VW55x_standard_peripheral/Source/gd32vw55x_efuse.c **** /*!
 318:../Firmware/GD32VW55x_standard_peripheral/Source/gd32vw55x_efuse.c ****     \brief      read AES key
 319:../Firmware/GD32VW55x_standard_peripheral/Source/gd32vw55x_efuse.c ****     \param[in]  none
 320:../Firmware/GD32VW55x_standard_peripheral/Source/gd32vw55x_efuse.c ****     \param[out] buf: AES_KEY data after system reset
 321:../Firmware/GD32VW55x_standard_peripheral/Source/gd32vw55x_efuse.c ****     \retval     none
 322:../Firmware/GD32VW55x_standard_peripheral/Source/gd32vw55x_efuse.c **** */
 323:../Firmware/GD32VW55x_standard_peripheral/Source/gd32vw55x_efuse.c **** void efuse_aes_key_read(uint32_t buf[])
 324:../Firmware/GD32VW55x_standard_peripheral/Source/gd32vw55x_efuse.c **** {
 849              		.loc 1 324 1
 850              		.cfi_startproc
 851 0000 7971     		addi	sp,sp,-48
 852              		.cfi_def_cfa_offset 48
 853 0002 22D6     		sw	s0,44(sp)
 854              		.cfi_offset 8, -4
 855 0004 0018     		addi	s0,sp,48
 856              		.cfi_def_cfa 8, 0
 857 0006 232EA4FC 		sw	a0,-36(s0)
 325:../Firmware/GD32VW55x_standard_peripheral/Source/gd32vw55x_efuse.c ****     uint8_t i = 0U;
 858              		.loc 1 325 13
 859 000a A30704FE 		sb	zero,-17(s0)
 326:../Firmware/GD32VW55x_standard_peripheral/Source/gd32vw55x_efuse.c ****     for(i = 0U; i < 4U; i++) {
 860              		.loc 1 326 11
 861 000e A30704FE 		sb	zero,-17(s0)
 862              		.loc 1 326 5
 863 0012 3DA0     		j	.L56
 864              	.L57:
 327:../Firmware/GD32VW55x_standard_peripheral/Source/gd32vw55x_efuse.c ****         buf[i] = REG32(EFUSE + 0x24U + 0x04U * i);
 865              		.loc 1 327 18 discriminator 3
 866 0014 0347F4FE 		lbu	a4,-17(s0)
 867 0018 B7970010 		li	a5,268472320
 868 001c 938797A0 		addi	a5,a5,-1527
 869 0020 BA97     		add	a5,a4,a5
 870 0022 8A07     		slli	a5,a5,2
 871 0024 BE86     		mv	a3,a5
 872              		.loc 1 327 12 discriminator 3
 873 0026 8347F4FE 		lbu	a5,-17(s0)
 874 002a 8A07     		slli	a5,a5,2
 875 002c 0327C4FD 		lw	a4,-36(s0)
 876 0030 BA97     		add	a5,a4,a5
 877              		.loc 1 327 18 discriminator 3
 878 0032 9842     		lw	a4,0(a3)
 879              		.loc 1 327 16 discriminator 3
 880 0034 98C3     		sw	a4,0(a5)
 326:../Firmware/GD32VW55x_standard_peripheral/Source/gd32vw55x_efuse.c ****     for(i = 0U; i < 4U; i++) {
 881              		.loc 1 326 26 discriminator 3
 882 0036 8347F4FE 		lbu	a5,-17(s0)
 883 003a 8507     		addi	a5,a5,1
 884 003c A307F4FE 		sb	a5,-17(s0)
 885              	.L56:
 326:../Firmware/GD32VW55x_standard_peripheral/Source/gd32vw55x_efuse.c ****     for(i = 0U; i < 4U; i++) {
 886              		.loc 1 326 5 discriminator 1
 887 0040 0347F4FE 		lbu	a4,-17(s0)
 888 0044 8D47     		li	a5,3
 889 0046 E3F7E7FC 		bleu	a4,a5,.L57
 328:../Firmware/GD32VW55x_standard_peripheral/Source/gd32vw55x_efuse.c ****     }
 329:../Firmware/GD32VW55x_standard_peripheral/Source/gd32vw55x_efuse.c **** }
 890              		.loc 1 329 1
 891 004a 0100     		nop
 892 004c 0100     		nop
 893 004e 3254     		lw	s0,44(sp)
 894              		.cfi_restore 8
 895              		.cfi_def_cfa 2, 48
 896 0050 4561     		addi	sp,sp,48
 897              		.cfi_def_cfa_offset 0
 898 0052 8280     		jr	ra
 899              		.cfi_endproc
 900              	.LFE358:
 902              		.section	.text.efuse_rotpk_key_read,"ax",@progbits
 903              		.align	1
 904              		.globl	efuse_rotpk_key_read
 906              	efuse_rotpk_key_read:
 907              	.LFB359:
 330:../Firmware/GD32VW55x_standard_peripheral/Source/gd32vw55x_efuse.c **** 
 331:../Firmware/GD32VW55x_standard_peripheral/Source/gd32vw55x_efuse.c **** /*!
 332:../Firmware/GD32VW55x_standard_peripheral/Source/gd32vw55x_efuse.c ****     \brief      read ROTPK key
 333:../Firmware/GD32VW55x_standard_peripheral/Source/gd32vw55x_efuse.c ****     \param[in]  none
 334:../Firmware/GD32VW55x_standard_peripheral/Source/gd32vw55x_efuse.c ****     \param[out] buf: rotpk_key data after system reset
 335:../Firmware/GD32VW55x_standard_peripheral/Source/gd32vw55x_efuse.c ****     \retval     none
 336:../Firmware/GD32VW55x_standard_peripheral/Source/gd32vw55x_efuse.c **** */
 337:../Firmware/GD32VW55x_standard_peripheral/Source/gd32vw55x_efuse.c **** void efuse_rotpk_key_read(uint32_t buf[])
 338:../Firmware/GD32VW55x_standard_peripheral/Source/gd32vw55x_efuse.c **** {
 908              		.loc 1 338 1
 909              		.cfi_startproc
 910 0000 7971     		addi	sp,sp,-48
 911              		.cfi_def_cfa_offset 48
 912 0002 22D6     		sw	s0,44(sp)
 913              		.cfi_offset 8, -4
 914 0004 0018     		addi	s0,sp,48
 915              		.cfi_def_cfa 8, 0
 916 0006 232EA4FC 		sw	a0,-36(s0)
 339:../Firmware/GD32VW55x_standard_peripheral/Source/gd32vw55x_efuse.c ****     uint8_t i = 0U;
 917              		.loc 1 339 13
 918 000a A30704FE 		sb	zero,-17(s0)
 340:../Firmware/GD32VW55x_standard_peripheral/Source/gd32vw55x_efuse.c ****     for(i = 0U; i < 8U; i++) {
 919              		.loc 1 340 11
 920 000e A30704FE 		sb	zero,-17(s0)
 921              		.loc 1 340 5
 922 0012 3DA0     		j	.L59
 923              	.L60:
 341:../Firmware/GD32VW55x_standard_peripheral/Source/gd32vw55x_efuse.c ****         buf[i] = REG32(EFUSE + 0x34U + 0x04U * i);
 924              		.loc 1 341 18 discriminator 3
 925 0014 0347F4FE 		lbu	a4,-17(s0)
 926 0018 B7970010 		li	a5,268472320
 927 001c 9387D7A0 		addi	a5,a5,-1523
 928 0020 BA97     		add	a5,a4,a5
 929 0022 8A07     		slli	a5,a5,2
 930 0024 BE86     		mv	a3,a5
 931              		.loc 1 341 12 discriminator 3
 932 0026 8347F4FE 		lbu	a5,-17(s0)
 933 002a 8A07     		slli	a5,a5,2
 934 002c 0327C4FD 		lw	a4,-36(s0)
 935 0030 BA97     		add	a5,a4,a5
 936              		.loc 1 341 18 discriminator 3
 937 0032 9842     		lw	a4,0(a3)
 938              		.loc 1 341 16 discriminator 3
 939 0034 98C3     		sw	a4,0(a5)
 340:../Firmware/GD32VW55x_standard_peripheral/Source/gd32vw55x_efuse.c ****     for(i = 0U; i < 8U; i++) {
 940              		.loc 1 340 26 discriminator 3
 941 0036 8347F4FE 		lbu	a5,-17(s0)
 942 003a 8507     		addi	a5,a5,1
 943 003c A307F4FE 		sb	a5,-17(s0)
 944              	.L59:
 340:../Firmware/GD32VW55x_standard_peripheral/Source/gd32vw55x_efuse.c ****     for(i = 0U; i < 8U; i++) {
 945              		.loc 1 340 5 discriminator 1
 946 0040 0347F4FE 		lbu	a4,-17(s0)
 947 0044 9D47     		li	a5,7
 948 0046 E3F7E7FC 		bleu	a4,a5,.L60
 342:../Firmware/GD32VW55x_standard_peripheral/Source/gd32vw55x_efuse.c ****     }
 343:../Firmware/GD32VW55x_standard_peripheral/Source/gd32vw55x_efuse.c **** }
 949              		.loc 1 343 1
 950 004a 0100     		nop
 951 004c 0100     		nop
 952 004e 3254     		lw	s0,44(sp)
 953              		.cfi_restore 8
 954              		.cfi_def_cfa 2, 48
 955 0050 4561     		addi	sp,sp,48
 956              		.cfi_def_cfa_offset 0
 957 0052 8280     		jr	ra
 958              		.cfi_endproc
 959              	.LFE359:
 961              		.section	.text.efuse_puid_read,"ax",@progbits
 962              		.align	1
 963              		.globl	efuse_puid_read
 965              	efuse_puid_read:
 966              	.LFB360:
 344:../Firmware/GD32VW55x_standard_peripheral/Source/gd32vw55x_efuse.c **** 
 345:../Firmware/GD32VW55x_standard_peripheral/Source/gd32vw55x_efuse.c **** /*!
 346:../Firmware/GD32VW55x_standard_peripheral/Source/gd32vw55x_efuse.c ****     \brief      read puid
 347:../Firmware/GD32VW55x_standard_peripheral/Source/gd32vw55x_efuse.c ****     \param[in]  none
 348:../Firmware/GD32VW55x_standard_peripheral/Source/gd32vw55x_efuse.c ****     \param[out] buf: puid data after system reset
 349:../Firmware/GD32VW55x_standard_peripheral/Source/gd32vw55x_efuse.c ****     \retval     none
 350:../Firmware/GD32VW55x_standard_peripheral/Source/gd32vw55x_efuse.c **** */
 351:../Firmware/GD32VW55x_standard_peripheral/Source/gd32vw55x_efuse.c **** void efuse_puid_read(uint32_t buf[])
 352:../Firmware/GD32VW55x_standard_peripheral/Source/gd32vw55x_efuse.c **** {
 967              		.loc 1 352 1
 968              		.cfi_startproc
 969 0000 7971     		addi	sp,sp,-48
 970              		.cfi_def_cfa_offset 48
 971 0002 22D6     		sw	s0,44(sp)
 972              		.cfi_offset 8, -4
 973 0004 0018     		addi	s0,sp,48
 974              		.cfi_def_cfa 8, 0
 975 0006 232EA4FC 		sw	a0,-36(s0)
 353:../Firmware/GD32VW55x_standard_peripheral/Source/gd32vw55x_efuse.c ****     uint8_t i = 0U;
 976              		.loc 1 353 13
 977 000a A30704FE 		sb	zero,-17(s0)
 354:../Firmware/GD32VW55x_standard_peripheral/Source/gd32vw55x_efuse.c ****     for(i = 0U; i < 4U; i++) {
 978              		.loc 1 354 11
 979 000e A30704FE 		sb	zero,-17(s0)
 980              		.loc 1 354 5
 981 0012 3DA0     		j	.L62
 982              	.L63:
 355:../Firmware/GD32VW55x_standard_peripheral/Source/gd32vw55x_efuse.c ****         buf[i] = REG32(EFUSE + 0x54U  + 0x04U * i);
 983              		.loc 1 355 18 discriminator 3
 984 0014 0347F4FE 		lbu	a4,-17(s0)
 985 0018 B7970010 		li	a5,268472320
 986 001c 938757A1 		addi	a5,a5,-1515
 987 0020 BA97     		add	a5,a4,a5
 988 0022 8A07     		slli	a5,a5,2
 989 0024 BE86     		mv	a3,a5
 990              		.loc 1 355 12 discriminator 3
 991 0026 8347F4FE 		lbu	a5,-17(s0)
 992 002a 8A07     		slli	a5,a5,2
 993 002c 0327C4FD 		lw	a4,-36(s0)
 994 0030 BA97     		add	a5,a4,a5
 995              		.loc 1 355 18 discriminator 3
 996 0032 9842     		lw	a4,0(a3)
 997              		.loc 1 355 16 discriminator 3
 998 0034 98C3     		sw	a4,0(a5)
 354:../Firmware/GD32VW55x_standard_peripheral/Source/gd32vw55x_efuse.c ****     for(i = 0U; i < 4U; i++) {
 999              		.loc 1 354 26 discriminator 3
 1000 0036 8347F4FE 		lbu	a5,-17(s0)
 1001 003a 8507     		addi	a5,a5,1
 1002 003c A307F4FE 		sb	a5,-17(s0)
 1003              	.L62:
 354:../Firmware/GD32VW55x_standard_peripheral/Source/gd32vw55x_efuse.c ****     for(i = 0U; i < 4U; i++) {
 1004              		.loc 1 354 5 discriminator 1
 1005 0040 0347F4FE 		lbu	a4,-17(s0)
 1006 0044 8D47     		li	a5,3
 1007 0046 E3F7E7FC 		bleu	a4,a5,.L63
 356:../Firmware/GD32VW55x_standard_peripheral/Source/gd32vw55x_efuse.c ****     }
 357:../Firmware/GD32VW55x_standard_peripheral/Source/gd32vw55x_efuse.c **** }
 1008              		.loc 1 357 1
 1009 004a 0100     		nop
 1010 004c 0100     		nop
 1011 004e 3254     		lw	s0,44(sp)
 1012              		.cfi_restore 8
 1013              		.cfi_def_cfa 2, 48
 1014 0050 4561     		addi	sp,sp,48
 1015              		.cfi_def_cfa_offset 0
 1016 0052 8280     		jr	ra
 1017              		.cfi_endproc
 1018              	.LFE360:
 1020              		.section	.text.efuse_huk_key_read,"ax",@progbits
 1021              		.align	1
 1022              		.globl	efuse_huk_key_read
 1024              	efuse_huk_key_read:
 1025              	.LFB361:
 358:../Firmware/GD32VW55x_standard_peripheral/Source/gd32vw55x_efuse.c **** 
 359:../Firmware/GD32VW55x_standard_peripheral/Source/gd32vw55x_efuse.c **** /*!
 360:../Firmware/GD32VW55x_standard_peripheral/Source/gd32vw55x_efuse.c ****     \brief      read huk key
 361:../Firmware/GD32VW55x_standard_peripheral/Source/gd32vw55x_efuse.c ****     \param[in]  none
 362:../Firmware/GD32VW55x_standard_peripheral/Source/gd32vw55x_efuse.c ****     \param[out] buf: huk key data after system reset
 363:../Firmware/GD32VW55x_standard_peripheral/Source/gd32vw55x_efuse.c ****     \retval     none
 364:../Firmware/GD32VW55x_standard_peripheral/Source/gd32vw55x_efuse.c **** */
 365:../Firmware/GD32VW55x_standard_peripheral/Source/gd32vw55x_efuse.c **** void efuse_huk_key_read(uint32_t buf[])
 366:../Firmware/GD32VW55x_standard_peripheral/Source/gd32vw55x_efuse.c **** {
 1026              		.loc 1 366 1
 1027              		.cfi_startproc
 1028 0000 7971     		addi	sp,sp,-48
 1029              		.cfi_def_cfa_offset 48
 1030 0002 22D6     		sw	s0,44(sp)
 1031              		.cfi_offset 8, -4
 1032 0004 0018     		addi	s0,sp,48
 1033              		.cfi_def_cfa 8, 0
 1034 0006 232EA4FC 		sw	a0,-36(s0)
 367:../Firmware/GD32VW55x_standard_peripheral/Source/gd32vw55x_efuse.c ****     uint8_t i = 0U;
 1035              		.loc 1 367 13
 1036 000a A30704FE 		sb	zero,-17(s0)
 368:../Firmware/GD32VW55x_standard_peripheral/Source/gd32vw55x_efuse.c ****     for(i = 0U; i < 4U; i++) {
 1037              		.loc 1 368 11
 1038 000e A30704FE 		sb	zero,-17(s0)
 1039              		.loc 1 368 5
 1040 0012 3DA0     		j	.L65
 1041              	.L66:
 369:../Firmware/GD32VW55x_standard_peripheral/Source/gd32vw55x_efuse.c ****         buf[i] = REG32(EFUSE + 0x64U + 0x04U * i);
 1042              		.loc 1 369 18 discriminator 3
 1043 0014 0347F4FE 		lbu	a4,-17(s0)
 1044 0018 B7970010 		li	a5,268472320
 1045 001c 938797A1 		addi	a5,a5,-1511
 1046 0020 BA97     		add	a5,a4,a5
 1047 0022 8A07     		slli	a5,a5,2
 1048 0024 BE86     		mv	a3,a5
 1049              		.loc 1 369 12 discriminator 3
 1050 0026 8347F4FE 		lbu	a5,-17(s0)
 1051 002a 8A07     		slli	a5,a5,2
 1052 002c 0327C4FD 		lw	a4,-36(s0)
 1053 0030 BA97     		add	a5,a4,a5
 1054              		.loc 1 369 18 discriminator 3
 1055 0032 9842     		lw	a4,0(a3)
 1056              		.loc 1 369 16 discriminator 3
 1057 0034 98C3     		sw	a4,0(a5)
 368:../Firmware/GD32VW55x_standard_peripheral/Source/gd32vw55x_efuse.c ****     for(i = 0U; i < 4U; i++) {
 1058              		.loc 1 368 26 discriminator 3
 1059 0036 8347F4FE 		lbu	a5,-17(s0)
 1060 003a 8507     		addi	a5,a5,1
 1061 003c A307F4FE 		sb	a5,-17(s0)
 1062              	.L65:
 368:../Firmware/GD32VW55x_standard_peripheral/Source/gd32vw55x_efuse.c ****     for(i = 0U; i < 4U; i++) {
 1063              		.loc 1 368 5 discriminator 1
 1064 0040 0347F4FE 		lbu	a4,-17(s0)
 1065 0044 8D47     		li	a5,3
 1066 0046 E3F7E7FC 		bleu	a4,a5,.L66
 370:../Firmware/GD32VW55x_standard_peripheral/Source/gd32vw55x_efuse.c ****     }
 371:../Firmware/GD32VW55x_standard_peripheral/Source/gd32vw55x_efuse.c **** }
 1067              		.loc 1 371 1
 1068 004a 0100     		nop
 1069 004c 0100     		nop
 1070 004e 3254     		lw	s0,44(sp)
 1071              		.cfi_restore 8
 1072              		.cfi_def_cfa 2, 48
 1073 0050 4561     		addi	sp,sp,48
 1074              		.cfi_def_cfa_offset 0
 1075 0052 8280     		jr	ra
 1076              		.cfi_endproc
 1077              	.LFE361:
 1079              		.section	.text.efuse_user_data_read,"ax",@progbits
 1080              		.align	1
 1081              		.globl	efuse_user_data_read
 1083              	efuse_user_data_read:
 1084              	.LFB362:
 372:../Firmware/GD32VW55x_standard_peripheral/Source/gd32vw55x_efuse.c **** 
 373:../Firmware/GD32VW55x_standard_peripheral/Source/gd32vw55x_efuse.c **** /*!
 374:../Firmware/GD32VW55x_standard_peripheral/Source/gd32vw55x_efuse.c ****     \brief      read user data
 375:../Firmware/GD32VW55x_standard_peripheral/Source/gd32vw55x_efuse.c ****     \param[in]  none
 376:../Firmware/GD32VW55x_standard_peripheral/Source/gd32vw55x_efuse.c ****     \param[out] buf: user data after system reset
 377:../Firmware/GD32VW55x_standard_peripheral/Source/gd32vw55x_efuse.c ****     \retval     none
 378:../Firmware/GD32VW55x_standard_peripheral/Source/gd32vw55x_efuse.c **** */
 379:../Firmware/GD32VW55x_standard_peripheral/Source/gd32vw55x_efuse.c **** void efuse_user_data_read(uint32_t buf[])
 380:../Firmware/GD32VW55x_standard_peripheral/Source/gd32vw55x_efuse.c **** {
 1085              		.loc 1 380 1
 1086              		.cfi_startproc
 1087 0000 7971     		addi	sp,sp,-48
 1088              		.cfi_def_cfa_offset 48
 1089 0002 22D6     		sw	s0,44(sp)
 1090              		.cfi_offset 8, -4
 1091 0004 0018     		addi	s0,sp,48
 1092              		.cfi_def_cfa 8, 0
 1093 0006 232EA4FC 		sw	a0,-36(s0)
 381:../Firmware/GD32VW55x_standard_peripheral/Source/gd32vw55x_efuse.c ****     uint8_t i = 0U;
 1094              		.loc 1 381 13
 1095 000a A30704FE 		sb	zero,-17(s0)
 382:../Firmware/GD32VW55x_standard_peripheral/Source/gd32vw55x_efuse.c ****     for(i = 0U; i < 8U; i++) {
 1096              		.loc 1 382 11
 1097 000e A30704FE 		sb	zero,-17(s0)
 1098              		.loc 1 382 5
 1099 0012 3DA0     		j	.L68
 1100              	.L69:
 383:../Firmware/GD32VW55x_standard_peripheral/Source/gd32vw55x_efuse.c ****         buf[i] = REG32(EFUSE + 0x74U + 0x04U * i);
 1101              		.loc 1 383 18 discriminator 3
 1102 0014 0347F4FE 		lbu	a4,-17(s0)
 1103 0018 B7970010 		li	a5,268472320
 1104 001c 9387D7A1 		addi	a5,a5,-1507
 1105 0020 BA97     		add	a5,a4,a5
 1106 0022 8A07     		slli	a5,a5,2
 1107 0024 BE86     		mv	a3,a5
 1108              		.loc 1 383 12 discriminator 3
 1109 0026 8347F4FE 		lbu	a5,-17(s0)
 1110 002a 8A07     		slli	a5,a5,2
 1111 002c 0327C4FD 		lw	a4,-36(s0)
 1112 0030 BA97     		add	a5,a4,a5
 1113              		.loc 1 383 18 discriminator 3
 1114 0032 9842     		lw	a4,0(a3)
 1115              		.loc 1 383 16 discriminator 3
 1116 0034 98C3     		sw	a4,0(a5)
 382:../Firmware/GD32VW55x_standard_peripheral/Source/gd32vw55x_efuse.c ****     for(i = 0U; i < 8U; i++) {
 1117              		.loc 1 382 26 discriminator 3
 1118 0036 8347F4FE 		lbu	a5,-17(s0)
 1119 003a 8507     		addi	a5,a5,1
 1120 003c A307F4FE 		sb	a5,-17(s0)
 1121              	.L68:
 382:../Firmware/GD32VW55x_standard_peripheral/Source/gd32vw55x_efuse.c ****     for(i = 0U; i < 8U; i++) {
 1122              		.loc 1 382 5 discriminator 1
 1123 0040 0347F4FE 		lbu	a4,-17(s0)
 1124 0044 9D47     		li	a5,7
 1125 0046 E3F7E7FC 		bleu	a4,a5,.L69
 384:../Firmware/GD32VW55x_standard_peripheral/Source/gd32vw55x_efuse.c ****     }
 385:../Firmware/GD32VW55x_standard_peripheral/Source/gd32vw55x_efuse.c **** }
 1126              		.loc 1 385 1
 1127 004a 0100     		nop
 1128 004c 0100     		nop
 1129 004e 3254     		lw	s0,44(sp)
 1130              		.cfi_restore 8
 1131              		.cfi_def_cfa 2, 48
 1132 0050 4561     		addi	sp,sp,48
 1133              		.cfi_def_cfa_offset 0
 1134 0052 8280     		jr	ra
 1135              		.cfi_endproc
 1136              	.LFE362:
 1138              		.section	.text.efuse_boot_address_get,"ax",@progbits
 1139              		.align	1
 1140              		.globl	efuse_boot_address_get
 1142              	efuse_boot_address_get:
 1143              	.LFB363:
 386:../Firmware/GD32VW55x_standard_peripheral/Source/gd32vw55x_efuse.c **** 
 387:../Firmware/GD32VW55x_standard_peripheral/Source/gd32vw55x_efuse.c **** /*!
 388:../Firmware/GD32VW55x_standard_peripheral/Source/gd32vw55x_efuse.c ****     \brief      get boot address information
 389:../Firmware/GD32VW55x_standard_peripheral/Source/gd32vw55x_efuse.c ****     \param[in]  none
 390:../Firmware/GD32VW55x_standard_peripheral/Source/gd32vw55x_efuse.c ****     \param[out] none
 391:../Firmware/GD32VW55x_standard_peripheral/Source/gd32vw55x_efuse.c ****     \retval     current boot address
 392:../Firmware/GD32VW55x_standard_peripheral/Source/gd32vw55x_efuse.c **** */
 393:../Firmware/GD32VW55x_standard_peripheral/Source/gd32vw55x_efuse.c **** uint32_t efuse_boot_address_get(void)
 394:../Firmware/GD32VW55x_standard_peripheral/Source/gd32vw55x_efuse.c **** {
 1144              		.loc 1 394 1
 1145              		.cfi_startproc
 1146 0000 4111     		addi	sp,sp,-16
 1147              		.cfi_def_cfa_offset 16
 1148 0002 22C6     		sw	s0,12(sp)
 1149              		.cfi_offset 8, -4
 1150 0004 0008     		addi	s0,sp,16
 1151              		.cfi_def_cfa 8, 0
 395:../Firmware/GD32VW55x_standard_peripheral/Source/gd32vw55x_efuse.c ****     return EFUSE_BOOTADDR;
 1152              		.loc 1 395 12
 1153 0006 B7370240 		li	a5,1073885184
 1154 000a 93874792 		addi	a5,a5,-1756
 1155 000e 9C43     		lw	a5,0(a5)
 396:../Firmware/GD32VW55x_standard_peripheral/Source/gd32vw55x_efuse.c **** }
 1156              		.loc 1 396 1
 1157 0010 3E85     		mv	a0,a5
 1158 0012 3244     		lw	s0,12(sp)
 1159              		.cfi_restore 8
 1160              		.cfi_def_cfa 2, 16
 1161 0014 4101     		addi	sp,sp,16
 1162              		.cfi_def_cfa_offset 0
 1163 0016 8280     		jr	ra
 1164              		.cfi_endproc
 1165              	.LFE363:
 1167              		.section	.text.efuse_lock_config,"ax",@progbits
 1168              		.align	1
 1169              		.globl	efuse_lock_config
 1171              	efuse_lock_config:
 1172              	.LFB364:
 397:../Firmware/GD32VW55x_standard_peripheral/Source/gd32vw55x_efuse.c **** 
 398:../Firmware/GD32VW55x_standard_peripheral/Source/gd32vw55x_efuse.c **** /*!
 399:../Firmware/GD32VW55x_standard_peripheral/Source/gd32vw55x_efuse.c ****     \brief      lock efuse filed
 400:../Firmware/GD32VW55x_standard_peripheral/Source/gd32vw55x_efuse.c ****     \param[in]  source: specifies filed to lock
 401:../Firmware/GD32VW55x_standard_peripheral/Source/gd32vw55x_efuse.c ****                 one parameter can be selected which is shown as below:
 402:../Firmware/GD32VW55x_standard_peripheral/Source/gd32vw55x_efuse.c ****       \arg        EFUSE_BOOT_LOCK: EFUSE boot bits lock bit
 403:../Firmware/GD32VW55x_standard_peripheral/Source/gd32vw55x_efuse.c ****       \arg        EFUSE_OPTION_BYTE_LOCK: option byte lock bit
 404:../Firmware/GD32VW55x_standard_peripheral/Source/gd32vw55x_efuse.c ****       \arg        EFUSE_ROTPKKEY_LOCK: EFUSE_ROTPK_KEY register lock bit
 405:../Firmware/GD32VW55x_standard_peripheral/Source/gd32vw55x_efuse.c ****       \arg        EFUSE_USER_DATA_LOCK: EFUSE_USER_DATA register lock bit
 406:../Firmware/GD32VW55x_standard_peripheral/Source/gd32vw55x_efuse.c ****       \arg        EFUSE_AESKEY_LOCK: lock EFUSE_AES_KEY register and enable AES decrypt function
 407:../Firmware/GD32VW55x_standard_peripheral/Source/gd32vw55x_efuse.c ****       \arg        EFUSE_FPCTL_USERCTL_LOCK: EFUSE_FPCTL and EFUSE_USER_CTL register lock bit
 408:../Firmware/GD32VW55x_standard_peripheral/Source/gd32vw55x_efuse.c ****     \param[out] none
 409:../Firmware/GD32VW55x_standard_peripheral/Source/gd32vw55x_efuse.c ****     \retval     none
 410:../Firmware/GD32VW55x_standard_peripheral/Source/gd32vw55x_efuse.c **** */
 411:../Firmware/GD32VW55x_standard_peripheral/Source/gd32vw55x_efuse.c **** void efuse_lock_config(efuse_reg_lock_enum source)
 412:../Firmware/GD32VW55x_standard_peripheral/Source/gd32vw55x_efuse.c **** {
 1173              		.loc 1 412 1
 1174              		.cfi_startproc
 1175 0000 7971     		addi	sp,sp,-48
 1176              		.cfi_def_cfa_offset 48
 1177 0002 06D6     		sw	ra,44(sp)
 1178 0004 22D4     		sw	s0,40(sp)
 1179              		.cfi_offset 1, -4
 1180              		.cfi_offset 8, -8
 1181 0006 0018     		addi	s0,sp,48
 1182              		.cfi_def_cfa 8, 0
 1183 0008 232EA4FC 		sw	a0,-36(s0)
 413:../Firmware/GD32VW55x_standard_peripheral/Source/gd32vw55x_efuse.c ****     uint32_t temp;
 414:../Firmware/GD32VW55x_standard_peripheral/Source/gd32vw55x_efuse.c ****     temp = source;
 1184              		.loc 1 414 10
 1185 000c 8327C4FD 		lw	a5,-36(s0)
 1186 0010 2326F4FE 		sw	a5,-20(s0)
 415:../Firmware/GD32VW55x_standard_peripheral/Source/gd32vw55x_efuse.c ****     if(source == EFUSE_BOOT_LOCK) {
 1187              		.loc 1 415 7
 1188 0014 0327C4FD 		lw	a4,-36(s0)
 1189 0018 8947     		li	a5,2
 1190 001a 631CF700 		bne	a4,a5,.L73
 416:../Firmware/GD32VW55x_standard_peripheral/Source/gd32vw55x_efuse.c ****         efuse_write(EFUSE_CTL0_ADDR, 1U, &temp);
 1191              		.loc 1 416 9
 1192 001e 9307C4FE 		addi	a5,s0,-20
 1193 0022 3E86     		mv	a2,a5
 1194 0024 8545     		li	a1,1
 1195 0026 0145     		li	a0,0
 1196 0028 97000000 		call	efuse_write
 1196      E7800000 
 417:../Firmware/GD32VW55x_standard_peripheral/Source/gd32vw55x_efuse.c ****     } else if(source == EFUSE_ROTPKKEY_LOCK) {
 418:../Firmware/GD32VW55x_standard_peripheral/Source/gd32vw55x_efuse.c ****         efuse_write(EFUSE_CTL1_ADDR, 1U, &temp);
 419:../Firmware/GD32VW55x_standard_peripheral/Source/gd32vw55x_efuse.c ****     } else if(source == EFUSE_USER_DATA_LOCK) {
 420:../Firmware/GD32VW55x_standard_peripheral/Source/gd32vw55x_efuse.c ****         efuse_write(USER_CTL_ADDR, 1U, &temp);
 421:../Firmware/GD32VW55x_standard_peripheral/Source/gd32vw55x_efuse.c ****     } else if(source == EFUSE_AESKEY_LOCK) {
 422:../Firmware/GD32VW55x_standard_peripheral/Source/gd32vw55x_efuse.c ****         efuse_write(USER_CTL_ADDR, 1U, &temp);
 423:../Firmware/GD32VW55x_standard_peripheral/Source/gd32vw55x_efuse.c ****     } else if(source == EFUSE_FPCTL_USERCTL_LOCK) {
 424:../Firmware/GD32VW55x_standard_peripheral/Source/gd32vw55x_efuse.c ****         efuse_write(USER_CTL_ADDR, 1U, &temp);
 425:../Firmware/GD32VW55x_standard_peripheral/Source/gd32vw55x_efuse.c ****     }
 426:../Firmware/GD32VW55x_standard_peripheral/Source/gd32vw55x_efuse.c **** }
 1197              		.loc 1 426 1
 1198 0030 B5A8     		j	.L78
 1199              	.L73:
 417:../Firmware/GD32VW55x_standard_peripheral/Source/gd32vw55x_efuse.c ****     } else if(source == EFUSE_ROTPKKEY_LOCK) {
 1200              		.loc 1 417 14
 1201 0032 0327C4FD 		lw	a4,-36(s0)
 1202 0036 9147     		li	a5,4
 1203 0038 631CF700 		bne	a4,a5,.L75
 418:../Firmware/GD32VW55x_standard_peripheral/Source/gd32vw55x_efuse.c ****     } else if(source == EFUSE_USER_DATA_LOCK) {
 1204              		.loc 1 418 9
 1205 003c 9307C4FE 		addi	a5,s0,-20
 1206 0040 3E86     		mv	a2,a5
 1207 0042 8545     		li	a1,1
 1208 0044 0545     		li	a0,1
 1209 0046 97000000 		call	efuse_write
 1209      E7800000 
 1210              		.loc 1 426 1
 1211 004e B9A8     		j	.L78
 1212              	.L75:
 419:../Firmware/GD32VW55x_standard_peripheral/Source/gd32vw55x_efuse.c ****         efuse_write(USER_CTL_ADDR, 1U, &temp);
 1213              		.loc 1 419 14
 1214 0050 0327C4FD 		lw	a4,-36(s0)
 1215 0054 93070004 		li	a5,64
 1216 0058 631CF700 		bne	a4,a5,.L76
 420:../Firmware/GD32VW55x_standard_peripheral/Source/gd32vw55x_efuse.c ****     } else if(source == EFUSE_AESKEY_LOCK) {
 1217              		.loc 1 420 9
 1218 005c 9307C4FE 		addi	a5,s0,-20
 1219 0060 3E86     		mv	a2,a5
 1220 0062 8545     		li	a1,1
 1221 0064 0D45     		li	a0,3
 1222 0066 97000000 		call	efuse_write
 1222      E7800000 
 1223              		.loc 1 426 1
 1224 006e 3DA8     		j	.L78
 1225              	.L76:
 421:../Firmware/GD32VW55x_standard_peripheral/Source/gd32vw55x_efuse.c ****         efuse_write(USER_CTL_ADDR, 1U, &temp);
 1226              		.loc 1 421 14
 1227 0070 0327C4FD 		lw	a4,-36(s0)
 1228 0074 93070002 		li	a5,32
 1229 0078 631CF700 		bne	a4,a5,.L77
 422:../Firmware/GD32VW55x_standard_peripheral/Source/gd32vw55x_efuse.c ****     } else if(source == EFUSE_FPCTL_USERCTL_LOCK) {
 1230              		.loc 1 422 9
 1231 007c 9307C4FE 		addi	a5,s0,-20
 1232 0080 3E86     		mv	a2,a5
 1233 0082 8545     		li	a1,1
 1234 0084 0D45     		li	a0,3
 1235 0086 97000000 		call	efuse_write
 1235      E7800000 
 1236              		.loc 1 426 1
 1237 008e 39A8     		j	.L78
 1238              	.L77:
 423:../Firmware/GD32VW55x_standard_peripheral/Source/gd32vw55x_efuse.c ****         efuse_write(USER_CTL_ADDR, 1U, &temp);
 1239              		.loc 1 423 14
 1240 0090 0327C4FD 		lw	a4,-36(s0)
 1241 0094 A147     		li	a5,8
 1242 0096 631BF700 		bne	a4,a5,.L78
 424:../Firmware/GD32VW55x_standard_peripheral/Source/gd32vw55x_efuse.c ****     }
 1243              		.loc 1 424 9
 1244 009a 9307C4FE 		addi	a5,s0,-20
 1245 009e 3E86     		mv	a2,a5
 1246 00a0 8545     		li	a1,1
 1247 00a2 0D45     		li	a0,3
 1248 00a4 97000000 		call	efuse_write
 1248      E7800000 
 1249              	.L78:
 1250              		.loc 1 426 1
 1251 00ac 0100     		nop
 1252 00ae B250     		lw	ra,44(sp)
 1253              		.cfi_restore 1
 1254 00b0 2254     		lw	s0,40(sp)
 1255              		.cfi_restore 8
 1256              		.cfi_def_cfa 2, 48
 1257 00b2 4561     		addi	sp,sp,48
 1258              		.cfi_def_cfa_offset 0
 1259 00b4 8280     		jr	ra
 1260              		.cfi_endproc
 1261              	.LFE364:
 1263              		.section	.text.efuse_flag_get,"ax",@progbits
 1264              		.align	1
 1265              		.globl	efuse_flag_get
 1267              	efuse_flag_get:
 1268              	.LFB365:
 427:../Firmware/GD32VW55x_standard_peripheral/Source/gd32vw55x_efuse.c **** 
 428:../Firmware/GD32VW55x_standard_peripheral/Source/gd32vw55x_efuse.c **** /*!
 429:../Firmware/GD32VW55x_standard_peripheral/Source/gd32vw55x_efuse.c ****     \brief      check EFUSE flag is set or not
 430:../Firmware/GD32VW55x_standard_peripheral/Source/gd32vw55x_efuse.c ****     \param[in]  flag: specifies to get a flag
 431:../Firmware/GD32VW55x_standard_peripheral/Source/gd32vw55x_efuse.c ****                 only one parameter can be selected which is shown as below:
 432:../Firmware/GD32VW55x_standard_peripheral/Source/gd32vw55x_efuse.c ****       \arg        EFUSE_PGIF: programming operation completion flag
 433:../Firmware/GD32VW55x_standard_peripheral/Source/gd32vw55x_efuse.c ****       \arg        EFUSE_RDIF: read operation completion flag
 434:../Firmware/GD32VW55x_standard_peripheral/Source/gd32vw55x_efuse.c ****       \arg        EFUSE_OVBERIF: overstep boundary error flag
 435:../Firmware/GD32VW55x_standard_peripheral/Source/gd32vw55x_efuse.c ****     \param[out] none
 436:../Firmware/GD32VW55x_standard_peripheral/Source/gd32vw55x_efuse.c ****     \retval     FlagStatus: SET or RESET
 437:../Firmware/GD32VW55x_standard_peripheral/Source/gd32vw55x_efuse.c **** */
 438:../Firmware/GD32VW55x_standard_peripheral/Source/gd32vw55x_efuse.c **** FlagStatus efuse_flag_get(efuse_flag_enum flag)
 439:../Firmware/GD32VW55x_standard_peripheral/Source/gd32vw55x_efuse.c **** {
 1269              		.loc 1 439 1
 1270              		.cfi_startproc
 1271 0000 0111     		addi	sp,sp,-32
 1272              		.cfi_def_cfa_offset 32
 1273 0002 22CE     		sw	s0,28(sp)
 1274              		.cfi_offset 8, -4
 1275 0004 0010     		addi	s0,sp,32
 1276              		.cfi_def_cfa 8, 0
 1277 0006 2326A4FE 		sw	a0,-20(s0)
 440:../Firmware/GD32VW55x_standard_peripheral/Source/gd32vw55x_efuse.c ****     if(EFUSE_CS & (uint32_t)flag) {
 1278              		.loc 1 440 8
 1279 000a B7370240 		li	a5,1073885184
 1280 000e 93870780 		addi	a5,a5,-2048
 1281 0012 9843     		lw	a4,0(a5)
 1282              		.loc 1 440 17
 1283 0014 8327C4FE 		lw	a5,-20(s0)
 1284 0018 F98F     		and	a5,a4,a5
 1285              		.loc 1 440 7
 1286 001a 99C3     		beq	a5,zero,.L80
 441:../Firmware/GD32VW55x_standard_peripheral/Source/gd32vw55x_efuse.c ****         return SET;
 1287              		.loc 1 441 16
 1288 001c 8547     		li	a5,1
 1289 001e 11A0     		j	.L81
 1290              	.L80:
 442:../Firmware/GD32VW55x_standard_peripheral/Source/gd32vw55x_efuse.c ****     } else {
 443:../Firmware/GD32VW55x_standard_peripheral/Source/gd32vw55x_efuse.c ****         return RESET;
 1291              		.loc 1 443 16
 1292 0020 8147     		li	a5,0
 1293              	.L81:
 444:../Firmware/GD32VW55x_standard_peripheral/Source/gd32vw55x_efuse.c ****     }
 445:../Firmware/GD32VW55x_standard_peripheral/Source/gd32vw55x_efuse.c **** }
 1294              		.loc 1 445 1
 1295 0022 3E85     		mv	a0,a5
 1296 0024 7244     		lw	s0,28(sp)
 1297              		.cfi_restore 8
 1298              		.cfi_def_cfa 2, 32
 1299 0026 0561     		addi	sp,sp,32
 1300              		.cfi_def_cfa_offset 0
 1301 0028 8280     		jr	ra
 1302              		.cfi_endproc
 1303              	.LFE365:
 1305              		.section	.text.efuse_flag_clear,"ax",@progbits
 1306              		.align	1
 1307              		.globl	efuse_flag_clear
 1309              	efuse_flag_clear:
 1310              	.LFB366:
 446:../Firmware/GD32VW55x_standard_peripheral/Source/gd32vw55x_efuse.c **** 
 447:../Firmware/GD32VW55x_standard_peripheral/Source/gd32vw55x_efuse.c **** /*!
 448:../Firmware/GD32VW55x_standard_peripheral/Source/gd32vw55x_efuse.c ****     \brief      clear EFUSE pending flag
 449:../Firmware/GD32VW55x_standard_peripheral/Source/gd32vw55x_efuse.c ****     \param[in]  flag: specifies to clear a flag
 450:../Firmware/GD32VW55x_standard_peripheral/Source/gd32vw55x_efuse.c ****                 only one parameter can be selected which is shown as below:
 451:../Firmware/GD32VW55x_standard_peripheral/Source/gd32vw55x_efuse.c ****       \arg        EFUSE_PGIC: clear programming operation completion flag
 452:../Firmware/GD32VW55x_standard_peripheral/Source/gd32vw55x_efuse.c ****       \arg        EFUSE_RDIC: clear read operation completion flag
 453:../Firmware/GD32VW55x_standard_peripheral/Source/gd32vw55x_efuse.c ****       \arg        EFUSE_OVBERIC: clear overstep boundary error flag
 454:../Firmware/GD32VW55x_standard_peripheral/Source/gd32vw55x_efuse.c ****     \param[out] none
 455:../Firmware/GD32VW55x_standard_peripheral/Source/gd32vw55x_efuse.c ****     \retval     none
 456:../Firmware/GD32VW55x_standard_peripheral/Source/gd32vw55x_efuse.c **** */
 457:../Firmware/GD32VW55x_standard_peripheral/Source/gd32vw55x_efuse.c **** void efuse_flag_clear(efuse_clear_flag_enum flag)
 458:../Firmware/GD32VW55x_standard_peripheral/Source/gd32vw55x_efuse.c **** {
 1311              		.loc 1 458 1
 1312              		.cfi_startproc
 1313 0000 0111     		addi	sp,sp,-32
 1314              		.cfi_def_cfa_offset 32
 1315 0002 22CE     		sw	s0,28(sp)
 1316              		.cfi_offset 8, -4
 1317 0004 0010     		addi	s0,sp,32
 1318              		.cfi_def_cfa 8, 0
 1319 0006 2326A4FE 		sw	a0,-20(s0)
 459:../Firmware/GD32VW55x_standard_peripheral/Source/gd32vw55x_efuse.c ****     EFUSE_CS |= (uint32_t)flag;
 1320              		.loc 1 459 14
 1321 000a B7370240 		li	a5,1073885184
 1322 000e 93870780 		addi	a5,a5,-2048
 1323 0012 9443     		lw	a3,0(a5)
 1324 0014 B7370240 		li	a5,1073885184
 1325 0018 93870780 		addi	a5,a5,-2048
 1326 001c 0327C4FE 		lw	a4,-20(s0)
 1327 0020 558F     		or	a4,a3,a4
 1328 0022 98C3     		sw	a4,0(a5)
 460:../Firmware/GD32VW55x_standard_peripheral/Source/gd32vw55x_efuse.c **** }
 1329              		.loc 1 460 1
 1330 0024 0100     		nop
 1331 0026 7244     		lw	s0,28(sp)
 1332              		.cfi_restore 8
 1333              		.cfi_def_cfa 2, 32
 1334 0028 0561     		addi	sp,sp,32
 1335              		.cfi_def_cfa_offset 0
 1336 002a 8280     		jr	ra
 1337              		.cfi_endproc
 1338              	.LFE366:
 1340              		.section	.text.efuse_interrupt_enable,"ax",@progbits
 1341              		.align	1
 1342              		.globl	efuse_interrupt_enable
 1344              	efuse_interrupt_enable:
 1345              	.LFB367:
 461:../Firmware/GD32VW55x_standard_peripheral/Source/gd32vw55x_efuse.c **** 
 462:../Firmware/GD32VW55x_standard_peripheral/Source/gd32vw55x_efuse.c **** /*!
 463:../Firmware/GD32VW55x_standard_peripheral/Source/gd32vw55x_efuse.c ****     \brief      enable EFUSE interrupt
 464:../Firmware/GD32VW55x_standard_peripheral/Source/gd32vw55x_efuse.c ****     \param[in]  source: specifies an interrupt to enbale
 465:../Firmware/GD32VW55x_standard_peripheral/Source/gd32vw55x_efuse.c ****                 one or more parameters can be selected which are shown as below:
 466:../Firmware/GD32VW55x_standard_peripheral/Source/gd32vw55x_efuse.c ****       \arg        EFUSE_INTEN_PG: programming operation completion interrupt
 467:../Firmware/GD32VW55x_standard_peripheral/Source/gd32vw55x_efuse.c ****       \arg        EFUSE_INTEN_RD: read operation completion interrupt
 468:../Firmware/GD32VW55x_standard_peripheral/Source/gd32vw55x_efuse.c ****       \arg        EFUSE_INTEN_OVBER: overstep boundary error interrupt
 469:../Firmware/GD32VW55x_standard_peripheral/Source/gd32vw55x_efuse.c ****     \param[out] none
 470:../Firmware/GD32VW55x_standard_peripheral/Source/gd32vw55x_efuse.c ****     \retval     none
 471:../Firmware/GD32VW55x_standard_peripheral/Source/gd32vw55x_efuse.c **** */
 472:../Firmware/GD32VW55x_standard_peripheral/Source/gd32vw55x_efuse.c **** void efuse_interrupt_enable(efuse_int_enum source)
 473:../Firmware/GD32VW55x_standard_peripheral/Source/gd32vw55x_efuse.c **** {
 1346              		.loc 1 473 1
 1347              		.cfi_startproc
 1348 0000 0111     		addi	sp,sp,-32
 1349              		.cfi_def_cfa_offset 32
 1350 0002 22CE     		sw	s0,28(sp)
 1351              		.cfi_offset 8, -4
 1352 0004 0010     		addi	s0,sp,32
 1353              		.cfi_def_cfa 8, 0
 1354 0006 2326A4FE 		sw	a0,-20(s0)
 474:../Firmware/GD32VW55x_standard_peripheral/Source/gd32vw55x_efuse.c ****     EFUSE_CS |= (uint32_t)source;
 1355              		.loc 1 474 14
 1356 000a B7370240 		li	a5,1073885184
 1357 000e 93870780 		addi	a5,a5,-2048
 1358 0012 9443     		lw	a3,0(a5)
 1359 0014 B7370240 		li	a5,1073885184
 1360 0018 93870780 		addi	a5,a5,-2048
 1361 001c 0327C4FE 		lw	a4,-20(s0)
 1362 0020 558F     		or	a4,a3,a4
 1363 0022 98C3     		sw	a4,0(a5)
 475:../Firmware/GD32VW55x_standard_peripheral/Source/gd32vw55x_efuse.c **** }
 1364              		.loc 1 475 1
 1365 0024 0100     		nop
 1366 0026 7244     		lw	s0,28(sp)
 1367              		.cfi_restore 8
 1368              		.cfi_def_cfa 2, 32
 1369 0028 0561     		addi	sp,sp,32
 1370              		.cfi_def_cfa_offset 0
 1371 002a 8280     		jr	ra
 1372              		.cfi_endproc
 1373              	.LFE367:
 1375              		.section	.text.efuse_interrupt_disable,"ax",@progbits
 1376              		.align	1
 1377              		.globl	efuse_interrupt_disable
 1379              	efuse_interrupt_disable:
 1380              	.LFB368:
 476:../Firmware/GD32VW55x_standard_peripheral/Source/gd32vw55x_efuse.c **** 
 477:../Firmware/GD32VW55x_standard_peripheral/Source/gd32vw55x_efuse.c **** /*!
 478:../Firmware/GD32VW55x_standard_peripheral/Source/gd32vw55x_efuse.c ****     \brief      disable EFUSE interrupt
 479:../Firmware/GD32VW55x_standard_peripheral/Source/gd32vw55x_efuse.c ****     \param[in]  source: specifies an interrupt to disbale
 480:../Firmware/GD32VW55x_standard_peripheral/Source/gd32vw55x_efuse.c ****                 one or more parameters can be selected which are shown as below:
 481:../Firmware/GD32VW55x_standard_peripheral/Source/gd32vw55x_efuse.c ****       \arg        EFUSE_INTEN_PG: programming operation completion interrupt
 482:../Firmware/GD32VW55x_standard_peripheral/Source/gd32vw55x_efuse.c ****       \arg        EFUSE_INTEN_RD: read operation completion interrupt
 483:../Firmware/GD32VW55x_standard_peripheral/Source/gd32vw55x_efuse.c ****       \arg        EFUSE_INTEN_OVBER: overstep boundary error interrupt
 484:../Firmware/GD32VW55x_standard_peripheral/Source/gd32vw55x_efuse.c ****     \param[out] none
 485:../Firmware/GD32VW55x_standard_peripheral/Source/gd32vw55x_efuse.c ****     \retval     none
 486:../Firmware/GD32VW55x_standard_peripheral/Source/gd32vw55x_efuse.c **** */
 487:../Firmware/GD32VW55x_standard_peripheral/Source/gd32vw55x_efuse.c **** void efuse_interrupt_disable(efuse_int_enum source)
 488:../Firmware/GD32VW55x_standard_peripheral/Source/gd32vw55x_efuse.c **** {
 1381              		.loc 1 488 1
 1382              		.cfi_startproc
 1383 0000 0111     		addi	sp,sp,-32
 1384              		.cfi_def_cfa_offset 32
 1385 0002 22CE     		sw	s0,28(sp)
 1386              		.cfi_offset 8, -4
 1387 0004 0010     		addi	s0,sp,32
 1388              		.cfi_def_cfa 8, 0
 1389 0006 2326A4FE 		sw	a0,-20(s0)
 489:../Firmware/GD32VW55x_standard_peripheral/Source/gd32vw55x_efuse.c ****     EFUSE_CS &= (~(uint32_t)source);
 1390              		.loc 1 489 14
 1391 000a B7370240 		li	a5,1073885184
 1392 000e 93870780 		addi	a5,a5,-2048
 1393 0012 9443     		lw	a3,0(a5)
 1394              		.loc 1 489 18
 1395 0014 8327C4FE 		lw	a5,-20(s0)
 1396 0018 13C7F7FF 		not	a4,a5
 1397              		.loc 1 489 14
 1398 001c B7370240 		li	a5,1073885184
 1399 0020 93870780 		addi	a5,a5,-2048
 1400 0024 758F     		and	a4,a3,a4
 1401 0026 98C3     		sw	a4,0(a5)
 490:../Firmware/GD32VW55x_standard_peripheral/Source/gd32vw55x_efuse.c **** }
 1402              		.loc 1 490 1
 1403 0028 0100     		nop
 1404 002a 7244     		lw	s0,28(sp)
 1405              		.cfi_restore 8
 1406              		.cfi_def_cfa 2, 32
 1407 002c 0561     		addi	sp,sp,32
 1408              		.cfi_def_cfa_offset 0
 1409 002e 8280     		jr	ra
 1410              		.cfi_endproc
 1411              	.LFE368:
 1413              		.section	.text.efuse_interrupt_flag_get,"ax",@progbits
 1414              		.align	1
 1415              		.globl	efuse_interrupt_flag_get
 1417              	efuse_interrupt_flag_get:
 1418              	.LFB369:
 491:../Firmware/GD32VW55x_standard_peripheral/Source/gd32vw55x_efuse.c **** 
 492:../Firmware/GD32VW55x_standard_peripheral/Source/gd32vw55x_efuse.c **** /*!
 493:../Firmware/GD32VW55x_standard_peripheral/Source/gd32vw55x_efuse.c ****     \brief      get EFUSE interrupt flag is set or not
 494:../Firmware/GD32VW55x_standard_peripheral/Source/gd32vw55x_efuse.c ****     \param[in]  int_flag: specifies to get a flag
 495:../Firmware/GD32VW55x_standard_peripheral/Source/gd32vw55x_efuse.c ****                 only one parameter can be selected which is shown as below:
 496:../Firmware/GD32VW55x_standard_peripheral/Source/gd32vw55x_efuse.c ****       \arg        EFUSE_INT_PGIF: programming operation completion interrupt flag
 497:../Firmware/GD32VW55x_standard_peripheral/Source/gd32vw55x_efuse.c ****       \arg        EFUSE_INT_RDIF: read operation completion interrupt flag
 498:../Firmware/GD32VW55x_standard_peripheral/Source/gd32vw55x_efuse.c ****       \arg        EFUSE_INT_OVBERIF: overstep boundary error interrupt flag
 499:../Firmware/GD32VW55x_standard_peripheral/Source/gd32vw55x_efuse.c ****     \param[out] none
 500:../Firmware/GD32VW55x_standard_peripheral/Source/gd32vw55x_efuse.c ****     \retval     FlagStatus: SET or RESET
 501:../Firmware/GD32VW55x_standard_peripheral/Source/gd32vw55x_efuse.c **** */
 502:../Firmware/GD32VW55x_standard_peripheral/Source/gd32vw55x_efuse.c **** FlagStatus efuse_interrupt_flag_get(efuse_int_flag_enum int_flag)
 503:../Firmware/GD32VW55x_standard_peripheral/Source/gd32vw55x_efuse.c **** {
 1419              		.loc 1 503 1
 1420              		.cfi_startproc
 1421 0000 0111     		addi	sp,sp,-32
 1422              		.cfi_def_cfa_offset 32
 1423 0002 22CE     		sw	s0,28(sp)
 1424              		.cfi_offset 8, -4
 1425 0004 0010     		addi	s0,sp,32
 1426              		.cfi_def_cfa 8, 0
 1427 0006 2326A4FE 		sw	a0,-20(s0)
 504:../Firmware/GD32VW55x_standard_peripheral/Source/gd32vw55x_efuse.c ****     if(EFUSE_CS & (uint32_t)int_flag) {
 1428              		.loc 1 504 8
 1429 000a B7370240 		li	a5,1073885184
 1430 000e 93870780 		addi	a5,a5,-2048
 1431 0012 9843     		lw	a4,0(a5)
 1432              		.loc 1 504 17
 1433 0014 8327C4FE 		lw	a5,-20(s0)
 1434 0018 F98F     		and	a5,a4,a5
 1435              		.loc 1 504 7
 1436 001a 99C3     		beq	a5,zero,.L86
 505:../Firmware/GD32VW55x_standard_peripheral/Source/gd32vw55x_efuse.c ****         return SET;
 1437              		.loc 1 505 16
 1438 001c 8547     		li	a5,1
 1439 001e 11A0     		j	.L87
 1440              	.L86:
 506:../Firmware/GD32VW55x_standard_peripheral/Source/gd32vw55x_efuse.c ****     } else {
 507:../Firmware/GD32VW55x_standard_peripheral/Source/gd32vw55x_efuse.c ****         return RESET;
 1441              		.loc 1 507 16
 1442 0020 8147     		li	a5,0
 1443              	.L87:
 508:../Firmware/GD32VW55x_standard_peripheral/Source/gd32vw55x_efuse.c ****     }
 509:../Firmware/GD32VW55x_standard_peripheral/Source/gd32vw55x_efuse.c **** }
 1444              		.loc 1 509 1
 1445 0022 3E85     		mv	a0,a5
 1446 0024 7244     		lw	s0,28(sp)
 1447              		.cfi_restore 8
 1448              		.cfi_def_cfa 2, 32
 1449 0026 0561     		addi	sp,sp,32
 1450              		.cfi_def_cfa_offset 0
 1451 0028 8280     		jr	ra
 1452              		.cfi_endproc
 1453              	.LFE369:
 1455              		.section	.text.efuse_interrupt_flag_clear,"ax",@progbits
 1456              		.align	1
 1457              		.globl	efuse_interrupt_flag_clear
 1459              	efuse_interrupt_flag_clear:
 1460              	.LFB370:
 510:../Firmware/GD32VW55x_standard_peripheral/Source/gd32vw55x_efuse.c **** 
 511:../Firmware/GD32VW55x_standard_peripheral/Source/gd32vw55x_efuse.c **** /*!
 512:../Firmware/GD32VW55x_standard_peripheral/Source/gd32vw55x_efuse.c ****     \brief      clear EFUSE pending interrupt flag
 513:../Firmware/GD32VW55x_standard_peripheral/Source/gd32vw55x_efuse.c ****     \param[in]  int_flag: specifies to clear a flag
 514:../Firmware/GD32VW55x_standard_peripheral/Source/gd32vw55x_efuse.c ****                 only one parameter can be selected which is shown as below:
 515:../Firmware/GD32VW55x_standard_peripheral/Source/gd32vw55x_efuse.c ****       \arg        EFUSE_INT_PGIC: clear programming operation completion interrupt flag
 516:../Firmware/GD32VW55x_standard_peripheral/Source/gd32vw55x_efuse.c ****       \arg        EFUSE_INT_RDIC: clear operation completion interrupt flag
 517:../Firmware/GD32VW55x_standard_peripheral/Source/gd32vw55x_efuse.c ****       \arg        EFUSE_INT_OVBERIC: clear overstep boundary error interrupt flag
 518:../Firmware/GD32VW55x_standard_peripheral/Source/gd32vw55x_efuse.c ****     \param[out] none
 519:../Firmware/GD32VW55x_standard_peripheral/Source/gd32vw55x_efuse.c ****     \retval     none
 520:../Firmware/GD32VW55x_standard_peripheral/Source/gd32vw55x_efuse.c **** */
 521:../Firmware/GD32VW55x_standard_peripheral/Source/gd32vw55x_efuse.c **** void efuse_interrupt_flag_clear(efuse_clear_int_flag_enum int_flag)
 522:../Firmware/GD32VW55x_standard_peripheral/Source/gd32vw55x_efuse.c **** {
 1461              		.loc 1 522 1
 1462              		.cfi_startproc
 1463 0000 0111     		addi	sp,sp,-32
 1464              		.cfi_def_cfa_offset 32
 1465 0002 22CE     		sw	s0,28(sp)
 1466              		.cfi_offset 8, -4
 1467 0004 0010     		addi	s0,sp,32
 1468              		.cfi_def_cfa 8, 0
 1469 0006 2326A4FE 		sw	a0,-20(s0)
 523:../Firmware/GD32VW55x_standard_peripheral/Source/gd32vw55x_efuse.c ****     EFUSE_CS |= ((uint32_t)int_flag);
 1470              		.loc 1 523 14
 1471 000a B7370240 		li	a5,1073885184
 1472 000e 93870780 		addi	a5,a5,-2048
 1473 0012 9443     		lw	a3,0(a5)
 1474 0014 B7370240 		li	a5,1073885184
 1475 0018 93870780 		addi	a5,a5,-2048
 1476 001c 0327C4FE 		lw	a4,-20(s0)
 1477 0020 558F     		or	a4,a3,a4
 1478 0022 98C3     		sw	a4,0(a5)
 524:../Firmware/GD32VW55x_standard_peripheral/Source/gd32vw55x_efuse.c **** }
 1479              		.loc 1 524 1
 1480 0024 0100     		nop
 1481 0026 7244     		lw	s0,28(sp)
 1482              		.cfi_restore 8
 1483              		.cfi_def_cfa 2, 32
 1484 0028 0561     		addi	sp,sp,32
 1485              		.cfi_def_cfa_offset 0
 1486 002a 8280     		jr	ra
 1487              		.cfi_endproc
 1488              	.LFE370:
 1490              		.text
 1491              	.Letext0:
 1492              		.file 2 "e:\\gd32\\gd32embeddedbuilder_v1.5.2.30854\\tools\\nuclei_riscv_newlibc_prebuilt_win32_20
 1493              		.file 3 "e:\\gd32\\gd32embeddedbuilder_v1.5.2.30854\\tools\\nuclei_riscv_newlibc_prebuilt_win32_20
 1494              		.file 4 "../Firmware/GD32VW55x_standard_peripheral/gd32vw55x.h"
 1495              		.file 5 "../Firmware/GD32VW55x_standard_peripheral/Include/gd32vw55x_efuse.h"
DEFINED SYMBOLS
                            *ABS*:0000000000000000 gd32vw55x_efuse.c
C:\Users\CYMR90~1\AppData\Local\Temp\cciNYDRP.s:13     .text.efuse_read:0000000000000000 efuse_read
C:\Users\CYMR90~1\AppData\Local\Temp\cciNYDRP.s:17     .text.efuse_read:0000000000000000 .L0 
C:\Users\CYMR90~1\AppData\Local\Temp\cciNYDRP.s:18     .text.efuse_read:0000000000000000 .L0 
C:\Users\CYMR90~1\AppData\Local\Temp\cciNYDRP.s:19     .text.efuse_read:0000000000000002 .L0 
C:\Users\CYMR90~1\AppData\Local\Temp\cciNYDRP.s:22     .text.efuse_read:0000000000000006 .L0 
C:\Users\CYMR90~1\AppData\Local\Temp\cciNYDRP.s:23     .text.efuse_read:0000000000000006 .L0 
C:\Users\CYMR90~1\AppData\Local\Temp\cciNYDRP.s:25     .text.efuse_read:0000000000000008 .L0 
C:\Users\CYMR90~1\AppData\Local\Temp\cciNYDRP.s:30     .text.efuse_read:0000000000000014 .L0 
C:\Users\CYMR90~1\AppData\Local\Temp\cciNYDRP.s:32     .text.efuse_read:0000000000000018 .L0 
C:\Users\CYMR90~1\AppData\Local\Temp\cciNYDRP.s:35     .text.efuse_read:0000000000000020 .L0 
C:\Users\CYMR90~1\AppData\Local\Temp\cciNYDRP.s:37     .text.efuse_read:0000000000000024 .L0 
C:\Users\CYMR90~1\AppData\Local\Temp\cciNYDRP.s:41     .text.efuse_read:000000000000002e .L0 
C:\Users\CYMR90~1\AppData\Local\Temp\cciNYDRP.s:44     .text.efuse_read:0000000000000034 .L0 
C:\Users\CYMR90~1\AppData\Local\Temp\cciNYDRP.s:48     .text.efuse_read:000000000000003a .L0 
C:\Users\CYMR90~1\AppData\Local\Temp\cciNYDRP.s:52     .text.efuse_read:0000000000000046 .L0 
C:\Users\CYMR90~1\AppData\Local\Temp\cciNYDRP.s:57     .text.efuse_read:0000000000000052 .L0 
C:\Users\CYMR90~1\AppData\Local\Temp\cciNYDRP.s:61     .text.efuse_read:0000000000000056 .L0 
C:\Users\CYMR90~1\AppData\Local\Temp\cciNYDRP.s:65     .text.efuse_read:0000000000000060 .L0 
C:\Users\CYMR90~1\AppData\Local\Temp\cciNYDRP.s:70     .text.efuse_read:000000000000006e .L0 
C:\Users\CYMR90~1\AppData\Local\Temp\cciNYDRP.s:75     .text.efuse_read:0000000000000076 .L0 
C:\Users\CYMR90~1\AppData\Local\Temp\cciNYDRP.s:78     .text.efuse_read:000000000000007c .L0 
C:\Users\CYMR90~1\AppData\Local\Temp\cciNYDRP.s:80     .text.efuse_read:000000000000007e .L0 
C:\Users\CYMR90~1\AppData\Local\Temp\cciNYDRP.s:88     .text.efuse_read:0000000000000092 .L0 
C:\Users\CYMR90~1\AppData\Local\Temp\cciNYDRP.s:92     .text.efuse_read:0000000000000096 .L0 
C:\Users\CYMR90~1\AppData\Local\Temp\cciNYDRP.s:100    .text.efuse_read:00000000000000ac .L0 
C:\Users\CYMR90~1\AppData\Local\Temp\cciNYDRP.s:103    .text.efuse_read:00000000000000b4 .L0 
C:\Users\CYMR90~1\AppData\Local\Temp\cciNYDRP.s:106    .text.efuse_read:00000000000000bc .L0 
C:\Users\CYMR90~1\AppData\Local\Temp\cciNYDRP.s:109    .text.efuse_read:00000000000000c2 .L0 
C:\Users\CYMR90~1\AppData\Local\Temp\cciNYDRP.s:111    .text.efuse_read:00000000000000c4 .L0 
C:\Users\CYMR90~1\AppData\Local\Temp\cciNYDRP.s:120    .text.efuse_read:00000000000000dc .L0 
C:\Users\CYMR90~1\AppData\Local\Temp\cciNYDRP.s:124    .text.efuse_read:00000000000000e6 .L0 
C:\Users\CYMR90~1\AppData\Local\Temp\cciNYDRP.s:1267   .text.efuse_flag_get:0000000000000000 efuse_flag_get
C:\Users\CYMR90~1\AppData\Local\Temp\cciNYDRP.s:128    .text.efuse_read:00000000000000f4 .L0 
C:\Users\CYMR90~1\AppData\Local\Temp\cciNYDRP.s:130    .text.efuse_read:00000000000000f6 .L0 
C:\Users\CYMR90~1\AppData\Local\Temp\cciNYDRP.s:134    .text.efuse_read:00000000000000fc .L0 
C:\Users\CYMR90~1\AppData\Local\Temp\cciNYDRP.s:137    .text.efuse_read:0000000000000102 .L0 
C:\Users\CYMR90~1\AppData\Local\Temp\cciNYDRP.s:141    .text.efuse_read:0000000000000106 .L0 
C:\Users\CYMR90~1\AppData\Local\Temp\cciNYDRP.s:143    .text.efuse_read:000000000000010a .L0 
C:\Users\CYMR90~1\AppData\Local\Temp\cciNYDRP.s:146    .text.efuse_read:000000000000010c .L0 
C:\Users\CYMR90~1\AppData\Local\Temp\cciNYDRP.s:152    .text.efuse_read:000000000000011c .L0 
C:\Users\CYMR90~1\AppData\Local\Temp\cciNYDRP.s:157    .text.efuse_read:0000000000000128 .L0 
C:\Users\CYMR90~1\AppData\Local\Temp\cciNYDRP.s:159    .text.efuse_read:000000000000012a .L0 
C:\Users\CYMR90~1\AppData\Local\Temp\cciNYDRP.s:161    .text.efuse_read:000000000000012c .L0 
C:\Users\CYMR90~1\AppData\Local\Temp\cciNYDRP.s:166    .text.efuse_read:0000000000000136 .L0 
C:\Users\CYMR90~1\AppData\Local\Temp\cciNYDRP.s:170    .text.efuse_read:0000000000000142 .L0 
C:\Users\CYMR90~1\AppData\Local\Temp\cciNYDRP.s:179    .text.efuse_read:000000000000015c .L0 
C:\Users\CYMR90~1\AppData\Local\Temp\cciNYDRP.s:182    .text.efuse_read:000000000000015e .L0 
C:\Users\CYMR90~1\AppData\Local\Temp\cciNYDRP.s:184    .text.efuse_read:0000000000000162 .L0 
C:\Users\CYMR90~1\AppData\Local\Temp\cciNYDRP.s:186    .text.efuse_read:0000000000000164 .L0 
C:\Users\CYMR90~1\AppData\Local\Temp\cciNYDRP.s:187    .text.efuse_read:0000000000000164 .L0 
C:\Users\CYMR90~1\AppData\Local\Temp\cciNYDRP.s:189    .text.efuse_read:0000000000000166 .L0 
C:\Users\CYMR90~1\AppData\Local\Temp\cciNYDRP.s:191    .text.efuse_read:0000000000000168 .L0 
C:\Users\CYMR90~1\AppData\Local\Temp\cciNYDRP.s:198    .text.efuse_write:0000000000000000 efuse_write
C:\Users\CYMR90~1\AppData\Local\Temp\cciNYDRP.s:201    .text.efuse_write:0000000000000000 .L0 
C:\Users\CYMR90~1\AppData\Local\Temp\cciNYDRP.s:202    .text.efuse_write:0000000000000000 .L0 
C:\Users\CYMR90~1\AppData\Local\Temp\cciNYDRP.s:203    .text.efuse_write:0000000000000002 .L0 
C:\Users\CYMR90~1\AppData\Local\Temp\cciNYDRP.s:206    .text.efuse_write:0000000000000006 .L0 
C:\Users\CYMR90~1\AppData\Local\Temp\cciNYDRP.s:207    .text.efuse_write:0000000000000006 .L0 
C:\Users\CYMR90~1\AppData\Local\Temp\cciNYDRP.s:209    .text.efuse_write:0000000000000008 .L0 
C:\Users\CYMR90~1\AppData\Local\Temp\cciNYDRP.s:214    .text.efuse_write:0000000000000014 .L0 
C:\Users\CYMR90~1\AppData\Local\Temp\cciNYDRP.s:216    .text.efuse_write:0000000000000018 .L0 
C:\Users\CYMR90~1\AppData\Local\Temp\cciNYDRP.s:220    .text.efuse_write:0000000000000020 .L0 
C:\Users\CYMR90~1\AppData\Local\Temp\cciNYDRP.s:222    .text.efuse_write:0000000000000024 .L0 
C:\Users\CYMR90~1\AppData\Local\Temp\cciNYDRP.s:226    .text.efuse_write:000000000000002e .L0 
C:\Users\CYMR90~1\AppData\Local\Temp\cciNYDRP.s:229    .text.efuse_write:0000000000000034 .L0 
C:\Users\CYMR90~1\AppData\Local\Temp\cciNYDRP.s:233    .text.efuse_write:000000000000003a .L0 
C:\Users\CYMR90~1\AppData\Local\Temp\cciNYDRP.s:237    .text.efuse_write:0000000000000046 .L0 
C:\Users\CYMR90~1\AppData\Local\Temp\cciNYDRP.s:242    .text.efuse_write:0000000000000052 .L0 
C:\Users\CYMR90~1\AppData\Local\Temp\cciNYDRP.s:246    .text.efuse_write:0000000000000056 .L0 
C:\Users\CYMR90~1\AppData\Local\Temp\cciNYDRP.s:250    .text.efuse_write:0000000000000062 .L0 
C:\Users\CYMR90~1\AppData\Local\Temp\cciNYDRP.s:254    .text.efuse_write:000000000000006e .L0 
C:\Users\CYMR90~1\AppData\Local\Temp\cciNYDRP.s:258    .text.efuse_write:0000000000000072 .L0 
C:\Users\CYMR90~1\AppData\Local\Temp\cciNYDRP.s:262    .text.efuse_write:000000000000007c .L0 
C:\Users\CYMR90~1\AppData\Local\Temp\cciNYDRP.s:267    .text.efuse_write:000000000000008a .L0 
C:\Users\CYMR90~1\AppData\Local\Temp\cciNYDRP.s:272    .text.efuse_write:0000000000000092 .L0 
C:\Users\CYMR90~1\AppData\Local\Temp\cciNYDRP.s:275    .text.efuse_write:0000000000000098 .L0 
C:\Users\CYMR90~1\AppData\Local\Temp\cciNYDRP.s:277    .text.efuse_write:000000000000009a .L0 
C:\Users\CYMR90~1\AppData\Local\Temp\cciNYDRP.s:281    .text.efuse_write:000000000000009e .L0 
C:\Users\CYMR90~1\AppData\Local\Temp\cciNYDRP.s:288    .text.efuse_write:00000000000000b0 .L0 
C:\Users\CYMR90~1\AppData\Local\Temp\cciNYDRP.s:297    .text.efuse_write:00000000000000ca .L0 
C:\Users\CYMR90~1\AppData\Local\Temp\cciNYDRP.s:305    .text.efuse_write:00000000000000e2 .L0 
C:\Users\CYMR90~1\AppData\Local\Temp\cciNYDRP.s:308    .text.efuse_write:00000000000000ea .L0 
C:\Users\CYMR90~1\AppData\Local\Temp\cciNYDRP.s:311    .text.efuse_write:00000000000000f2 .L0 
C:\Users\CYMR90~1\AppData\Local\Temp\cciNYDRP.s:314    .text.efuse_write:00000000000000f8 .L0 
C:\Users\CYMR90~1\AppData\Local\Temp\cciNYDRP.s:316    .text.efuse_write:00000000000000fa .L0 
C:\Users\CYMR90~1\AppData\Local\Temp\cciNYDRP.s:318    .text.efuse_write:00000000000000fe .L0 
C:\Users\CYMR90~1\AppData\Local\Temp\cciNYDRP.s:321    .text.efuse_write:0000000000000100 .L0 
C:\Users\CYMR90~1\AppData\Local\Temp\cciNYDRP.s:326    .text.efuse_write:000000000000010c .L0 
C:\Users\CYMR90~1\AppData\Local\Temp\cciNYDRP.s:331    .text.efuse_write:000000000000011a .L0 
C:\Users\CYMR90~1\AppData\Local\Temp\cciNYDRP.s:333    .text.efuse_write:000000000000011c .L0 
C:\Users\CYMR90~1\AppData\Local\Temp\cciNYDRP.s:335    .text.efuse_write:000000000000011e .L0 
C:\Users\CYMR90~1\AppData\Local\Temp\cciNYDRP.s:340    .text.efuse_write:0000000000000128 .L0 
C:\Users\CYMR90~1\AppData\Local\Temp\cciNYDRP.s:344    .text.efuse_write:0000000000000134 .L0 
C:\Users\CYMR90~1\AppData\Local\Temp\cciNYDRP.s:353    .text.efuse_write:000000000000014c .L0 
C:\Users\CYMR90~1\AppData\Local\Temp\cciNYDRP.s:357    .text.efuse_write:0000000000000156 .L0 
C:\Users\CYMR90~1\AppData\Local\Temp\cciNYDRP.s:361    .text.efuse_write:0000000000000162 .L0 
C:\Users\CYMR90~1\AppData\Local\Temp\cciNYDRP.s:363    .text.efuse_write:0000000000000164 .L0 
C:\Users\CYMR90~1\AppData\Local\Temp\cciNYDRP.s:367    .text.efuse_write:000000000000016a .L0 
C:\Users\CYMR90~1\AppData\Local\Temp\cciNYDRP.s:370    .text.efuse_write:0000000000000170 .L0 
C:\Users\CYMR90~1\AppData\Local\Temp\cciNYDRP.s:374    .text.efuse_write:0000000000000174 .L0 
C:\Users\CYMR90~1\AppData\Local\Temp\cciNYDRP.s:382    .text.efuse_write:000000000000018a .L0 
C:\Users\CYMR90~1\AppData\Local\Temp\cciNYDRP.s:391    .text.efuse_write:00000000000001a4 .L0 
C:\Users\CYMR90~1\AppData\Local\Temp\cciNYDRP.s:401    .text.efuse_write:00000000000001c0 .L0 
C:\Users\CYMR90~1\AppData\Local\Temp\cciNYDRP.s:404    .text.efuse_write:00000000000001c2 .L0 
C:\Users\CYMR90~1\AppData\Local\Temp\cciNYDRP.s:406    .text.efuse_write:00000000000001c6 .L0 
C:\Users\CYMR90~1\AppData\Local\Temp\cciNYDRP.s:408    .text.efuse_write:00000000000001c8 .L0 
C:\Users\CYMR90~1\AppData\Local\Temp\cciNYDRP.s:409    .text.efuse_write:00000000000001c8 .L0 
C:\Users\CYMR90~1\AppData\Local\Temp\cciNYDRP.s:411    .text.efuse_write:00000000000001ca .L0 
C:\Users\CYMR90~1\AppData\Local\Temp\cciNYDRP.s:413    .text.efuse_write:00000000000001cc .L0 
C:\Users\CYMR90~1\AppData\Local\Temp\cciNYDRP.s:420    .text.efuse_boot_config:0000000000000000 efuse_boot_config
C:\Users\CYMR90~1\AppData\Local\Temp\cciNYDRP.s:423    .text.efuse_boot_config:0000000000000000 .L0 
C:\Users\CYMR90~1\AppData\Local\Temp\cciNYDRP.s:424    .text.efuse_boot_config:0000000000000000 .L0 
C:\Users\CYMR90~1\AppData\Local\Temp\cciNYDRP.s:425    .text.efuse_boot_config:0000000000000002 .L0 
C:\Users\CYMR90~1\AppData\Local\Temp\cciNYDRP.s:428    .text.efuse_boot_config:0000000000000006 .L0 
C:\Users\CYMR90~1\AppData\Local\Temp\cciNYDRP.s:429    .text.efuse_boot_config:0000000000000006 .L0 
C:\Users\CYMR90~1\AppData\Local\Temp\cciNYDRP.s:431    .text.efuse_boot_config:0000000000000008 .L0 
C:\Users\CYMR90~1\AppData\Local\Temp\cciNYDRP.s:435    .text.efuse_boot_config:0000000000000010 .L0 
C:\Users\CYMR90~1\AppData\Local\Temp\cciNYDRP.s:439    .text.efuse_boot_config:000000000000001a .L0 
C:\Users\CYMR90~1\AppData\Local\Temp\cciNYDRP.s:443    .text.efuse_boot_config:000000000000001e .L0 
C:\Users\CYMR90~1\AppData\Local\Temp\cciNYDRP.s:450    .text.efuse_boot_config:0000000000000032 .L0 
C:\Users\CYMR90~1\AppData\Local\Temp\cciNYDRP.s:452    .text.efuse_boot_config:0000000000000036 .L0 
C:\Users\CYMR90~1\AppData\Local\Temp\cciNYDRP.s:454    .text.efuse_boot_config:0000000000000038 .L0 
C:\Users\CYMR90~1\AppData\Local\Temp\cciNYDRP.s:455    .text.efuse_boot_config:0000000000000038 .L0 
C:\Users\CYMR90~1\AppData\Local\Temp\cciNYDRP.s:457    .text.efuse_boot_config:000000000000003a .L0 
C:\Users\CYMR90~1\AppData\Local\Temp\cciNYDRP.s:459    .text.efuse_boot_config:000000000000003c .L0 
C:\Users\CYMR90~1\AppData\Local\Temp\cciNYDRP.s:466    .text.efuse_control1_config:0000000000000000 efuse_control1_config
C:\Users\CYMR90~1\AppData\Local\Temp\cciNYDRP.s:469    .text.efuse_control1_config:0000000000000000 .L0 
C:\Users\CYMR90~1\AppData\Local\Temp\cciNYDRP.s:470    .text.efuse_control1_config:0000000000000000 .L0 
C:\Users\CYMR90~1\AppData\Local\Temp\cciNYDRP.s:471    .text.efuse_control1_config:0000000000000002 .L0 
C:\Users\CYMR90~1\AppData\Local\Temp\cciNYDRP.s:474    .text.efuse_control1_config:0000000000000006 .L0 
C:\Users\CYMR90~1\AppData\Local\Temp\cciNYDRP.s:475    .text.efuse_control1_config:0000000000000006 .L0 
C:\Users\CYMR90~1\AppData\Local\Temp\cciNYDRP.s:477    .text.efuse_control1_config:0000000000000008 .L0 
C:\Users\CYMR90~1\AppData\Local\Temp\cciNYDRP.s:481    .text.efuse_control1_config:0000000000000010 .L0 
C:\Users\CYMR90~1\AppData\Local\Temp\cciNYDRP.s:485    .text.efuse_control1_config:000000000000001a .L0 
C:\Users\CYMR90~1\AppData\Local\Temp\cciNYDRP.s:489    .text.efuse_control1_config:000000000000001e .L0 
C:\Users\CYMR90~1\AppData\Local\Temp\cciNYDRP.s:496    .text.efuse_control1_config:0000000000000032 .L0 
C:\Users\CYMR90~1\AppData\Local\Temp\cciNYDRP.s:498    .text.efuse_control1_config:0000000000000036 .L0 
C:\Users\CYMR90~1\AppData\Local\Temp\cciNYDRP.s:500    .text.efuse_control1_config:0000000000000038 .L0 
C:\Users\CYMR90~1\AppData\Local\Temp\cciNYDRP.s:501    .text.efuse_control1_config:0000000000000038 .L0 
C:\Users\CYMR90~1\AppData\Local\Temp\cciNYDRP.s:503    .text.efuse_control1_config:000000000000003a .L0 
C:\Users\CYMR90~1\AppData\Local\Temp\cciNYDRP.s:505    .text.efuse_control1_config:000000000000003c .L0 
C:\Users\CYMR90~1\AppData\Local\Temp\cciNYDRP.s:512    .text.efuse_fp_config:0000000000000000 efuse_fp_config
C:\Users\CYMR90~1\AppData\Local\Temp\cciNYDRP.s:515    .text.efuse_fp_config:0000000000000000 .L0 
C:\Users\CYMR90~1\AppData\Local\Temp\cciNYDRP.s:516    .text.efuse_fp_config:0000000000000000 .L0 
C:\Users\CYMR90~1\AppData\Local\Temp\cciNYDRP.s:517    .text.efuse_fp_config:0000000000000002 .L0 
C:\Users\CYMR90~1\AppData\Local\Temp\cciNYDRP.s:520    .text.efuse_fp_config:0000000000000006 .L0 
C:\Users\CYMR90~1\AppData\Local\Temp\cciNYDRP.s:521    .text.efuse_fp_config:0000000000000006 .L0 
C:\Users\CYMR90~1\AppData\Local\Temp\cciNYDRP.s:523    .text.efuse_fp_config:0000000000000008 .L0 
C:\Users\CYMR90~1\AppData\Local\Temp\cciNYDRP.s:527    .text.efuse_fp_config:0000000000000010 .L0 
C:\Users\CYMR90~1\AppData\Local\Temp\cciNYDRP.s:531    .text.efuse_fp_config:000000000000001a .L0 
C:\Users\CYMR90~1\AppData\Local\Temp\cciNYDRP.s:535    .text.efuse_fp_config:000000000000001e .L0 
C:\Users\CYMR90~1\AppData\Local\Temp\cciNYDRP.s:542    .text.efuse_fp_config:0000000000000032 .L0 
C:\Users\CYMR90~1\AppData\Local\Temp\cciNYDRP.s:544    .text.efuse_fp_config:0000000000000036 .L0 
C:\Users\CYMR90~1\AppData\Local\Temp\cciNYDRP.s:546    .text.efuse_fp_config:0000000000000038 .L0 
C:\Users\CYMR90~1\AppData\Local\Temp\cciNYDRP.s:547    .text.efuse_fp_config:0000000000000038 .L0 
C:\Users\CYMR90~1\AppData\Local\Temp\cciNYDRP.s:549    .text.efuse_fp_config:000000000000003a .L0 
C:\Users\CYMR90~1\AppData\Local\Temp\cciNYDRP.s:551    .text.efuse_fp_config:000000000000003c .L0 
C:\Users\CYMR90~1\AppData\Local\Temp\cciNYDRP.s:558    .text.efuse_user_control_config:0000000000000000 efuse_user_control_config
C:\Users\CYMR90~1\AppData\Local\Temp\cciNYDRP.s:561    .text.efuse_user_control_config:0000000000000000 .L0 
C:\Users\CYMR90~1\AppData\Local\Temp\cciNYDRP.s:562    .text.efuse_user_control_config:0000000000000000 .L0 
C:\Users\CYMR90~1\AppData\Local\Temp\cciNYDRP.s:563    .text.efuse_user_control_config:0000000000000002 .L0 
C:\Users\CYMR90~1\AppData\Local\Temp\cciNYDRP.s:566    .text.efuse_user_control_config:0000000000000006 .L0 
C:\Users\CYMR90~1\AppData\Local\Temp\cciNYDRP.s:567    .text.efuse_user_control_config:0000000000000006 .L0 
C:\Users\CYMR90~1\AppData\Local\Temp\cciNYDRP.s:569    .text.efuse_user_control_config:0000000000000008 .L0 
C:\Users\CYMR90~1\AppData\Local\Temp\cciNYDRP.s:573    .text.efuse_user_control_config:0000000000000010 .L0 
C:\Users\CYMR90~1\AppData\Local\Temp\cciNYDRP.s:577    .text.efuse_user_control_config:000000000000001a .L0 
C:\Users\CYMR90~1\AppData\Local\Temp\cciNYDRP.s:581    .text.efuse_user_control_config:000000000000001e .L0 
C:\Users\CYMR90~1\AppData\Local\Temp\cciNYDRP.s:588    .text.efuse_user_control_config:0000000000000032 .L0 
C:\Users\CYMR90~1\AppData\Local\Temp\cciNYDRP.s:590    .text.efuse_user_control_config:0000000000000036 .L0 
C:\Users\CYMR90~1\AppData\Local\Temp\cciNYDRP.s:592    .text.efuse_user_control_config:0000000000000038 .L0 
C:\Users\CYMR90~1\AppData\Local\Temp\cciNYDRP.s:593    .text.efuse_user_control_config:0000000000000038 .L0 
C:\Users\CYMR90~1\AppData\Local\Temp\cciNYDRP.s:595    .text.efuse_user_control_config:000000000000003a .L0 
C:\Users\CYMR90~1\AppData\Local\Temp\cciNYDRP.s:597    .text.efuse_user_control_config:000000000000003c .L0 
C:\Users\CYMR90~1\AppData\Local\Temp\cciNYDRP.s:604    .text.efuse_res_write:0000000000000000 efuse_res_write
C:\Users\CYMR90~1\AppData\Local\Temp\cciNYDRP.s:607    .text.efuse_res_write:0000000000000000 .L0 
C:\Users\CYMR90~1\AppData\Local\Temp\cciNYDRP.s:608    .text.efuse_res_write:0000000000000000 .L0 
C:\Users\CYMR90~1\AppData\Local\Temp\cciNYDRP.s:609    .text.efuse_res_write:0000000000000002 .L0 
C:\Users\CYMR90~1\AppData\Local\Temp\cciNYDRP.s:612    .text.efuse_res_write:0000000000000006 .L0 
C:\Users\CYMR90~1\AppData\Local\Temp\cciNYDRP.s:613    .text.efuse_res_write:0000000000000006 .L0 
C:\Users\CYMR90~1\AppData\Local\Temp\cciNYDRP.s:615    .text.efuse_res_write:0000000000000008 .L0 
C:\Users\CYMR90~1\AppData\Local\Temp\cciNYDRP.s:619    .text.efuse_res_write:0000000000000010 .L0 
C:\Users\CYMR90~1\AppData\Local\Temp\cciNYDRP.s:623    .text.efuse_res_write:000000000000001a .L0 
C:\Users\CYMR90~1\AppData\Local\Temp\cciNYDRP.s:627    .text.efuse_res_write:000000000000001e .L0 
C:\Users\CYMR90~1\AppData\Local\Temp\cciNYDRP.s:634    .text.efuse_res_write:0000000000000032 .L0 
C:\Users\CYMR90~1\AppData\Local\Temp\cciNYDRP.s:636    .text.efuse_res_write:0000000000000036 .L0 
C:\Users\CYMR90~1\AppData\Local\Temp\cciNYDRP.s:638    .text.efuse_res_write:0000000000000038 .L0 
C:\Users\CYMR90~1\AppData\Local\Temp\cciNYDRP.s:639    .text.efuse_res_write:0000000000000038 .L0 
C:\Users\CYMR90~1\AppData\Local\Temp\cciNYDRP.s:641    .text.efuse_res_write:000000000000003a .L0 
C:\Users\CYMR90~1\AppData\Local\Temp\cciNYDRP.s:643    .text.efuse_res_write:000000000000003c .L0 
C:\Users\CYMR90~1\AppData\Local\Temp\cciNYDRP.s:650    .text.efuse_aes_key_write:0000000000000000 efuse_aes_key_write
C:\Users\CYMR90~1\AppData\Local\Temp\cciNYDRP.s:653    .text.efuse_aes_key_write:0000000000000000 .L0 
C:\Users\CYMR90~1\AppData\Local\Temp\cciNYDRP.s:654    .text.efuse_aes_key_write:0000000000000000 .L0 
C:\Users\CYMR90~1\AppData\Local\Temp\cciNYDRP.s:655    .text.efuse_aes_key_write:0000000000000002 .L0 
C:\Users\CYMR90~1\AppData\Local\Temp\cciNYDRP.s:658    .text.efuse_aes_key_write:0000000000000006 .L0 
C:\Users\CYMR90~1\AppData\Local\Temp\cciNYDRP.s:659    .text.efuse_aes_key_write:0000000000000006 .L0 
C:\Users\CYMR90~1\AppData\Local\Temp\cciNYDRP.s:661    .text.efuse_aes_key_write:0000000000000008 .L0 
C:\Users\CYMR90~1\AppData\Local\Temp\cciNYDRP.s:665    .text.efuse_aes_key_write:0000000000000010 .L0 
C:\Users\CYMR90~1\AppData\Local\Temp\cciNYDRP.s:669    .text.efuse_aes_key_write:000000000000001a .L0 
C:\Users\CYMR90~1\AppData\Local\Temp\cciNYDRP.s:673    .text.efuse_aes_key_write:000000000000001e .L0 
C:\Users\CYMR90~1\AppData\Local\Temp\cciNYDRP.s:680    .text.efuse_aes_key_write:0000000000000032 .L0 
C:\Users\CYMR90~1\AppData\Local\Temp\cciNYDRP.s:682    .text.efuse_aes_key_write:0000000000000036 .L0 
C:\Users\CYMR90~1\AppData\Local\Temp\cciNYDRP.s:684    .text.efuse_aes_key_write:0000000000000038 .L0 
C:\Users\CYMR90~1\AppData\Local\Temp\cciNYDRP.s:685    .text.efuse_aes_key_write:0000000000000038 .L0 
C:\Users\CYMR90~1\AppData\Local\Temp\cciNYDRP.s:687    .text.efuse_aes_key_write:000000000000003a .L0 
C:\Users\CYMR90~1\AppData\Local\Temp\cciNYDRP.s:689    .text.efuse_aes_key_write:000000000000003c .L0 
C:\Users\CYMR90~1\AppData\Local\Temp\cciNYDRP.s:696    .text.efuse_rotpk_key_write:0000000000000000 efuse_rotpk_key_write
C:\Users\CYMR90~1\AppData\Local\Temp\cciNYDRP.s:699    .text.efuse_rotpk_key_write:0000000000000000 .L0 
C:\Users\CYMR90~1\AppData\Local\Temp\cciNYDRP.s:700    .text.efuse_rotpk_key_write:0000000000000000 .L0 
C:\Users\CYMR90~1\AppData\Local\Temp\cciNYDRP.s:701    .text.efuse_rotpk_key_write:0000000000000002 .L0 
C:\Users\CYMR90~1\AppData\Local\Temp\cciNYDRP.s:704    .text.efuse_rotpk_key_write:0000000000000006 .L0 
C:\Users\CYMR90~1\AppData\Local\Temp\cciNYDRP.s:705    .text.efuse_rotpk_key_write:0000000000000006 .L0 
C:\Users\CYMR90~1\AppData\Local\Temp\cciNYDRP.s:707    .text.efuse_rotpk_key_write:0000000000000008 .L0 
C:\Users\CYMR90~1\AppData\Local\Temp\cciNYDRP.s:711    .text.efuse_rotpk_key_write:0000000000000010 .L0 
C:\Users\CYMR90~1\AppData\Local\Temp\cciNYDRP.s:715    .text.efuse_rotpk_key_write:000000000000001c .L0 
C:\Users\CYMR90~1\AppData\Local\Temp\cciNYDRP.s:719    .text.efuse_rotpk_key_write:0000000000000020 .L0 
C:\Users\CYMR90~1\AppData\Local\Temp\cciNYDRP.s:726    .text.efuse_rotpk_key_write:0000000000000036 .L0 
C:\Users\CYMR90~1\AppData\Local\Temp\cciNYDRP.s:728    .text.efuse_rotpk_key_write:000000000000003a .L0 
C:\Users\CYMR90~1\AppData\Local\Temp\cciNYDRP.s:730    .text.efuse_rotpk_key_write:000000000000003c .L0 
C:\Users\CYMR90~1\AppData\Local\Temp\cciNYDRP.s:731    .text.efuse_rotpk_key_write:000000000000003c .L0 
C:\Users\CYMR90~1\AppData\Local\Temp\cciNYDRP.s:733    .text.efuse_rotpk_key_write:000000000000003e .L0 
C:\Users\CYMR90~1\AppData\Local\Temp\cciNYDRP.s:735    .text.efuse_rotpk_key_write:0000000000000040 .L0 
C:\Users\CYMR90~1\AppData\Local\Temp\cciNYDRP.s:742    .text.efuse_user_data_write:0000000000000000 efuse_user_data_write
C:\Users\CYMR90~1\AppData\Local\Temp\cciNYDRP.s:745    .text.efuse_user_data_write:0000000000000000 .L0 
C:\Users\CYMR90~1\AppData\Local\Temp\cciNYDRP.s:746    .text.efuse_user_data_write:0000000000000000 .L0 
C:\Users\CYMR90~1\AppData\Local\Temp\cciNYDRP.s:747    .text.efuse_user_data_write:0000000000000002 .L0 
C:\Users\CYMR90~1\AppData\Local\Temp\cciNYDRP.s:750    .text.efuse_user_data_write:0000000000000006 .L0 
C:\Users\CYMR90~1\AppData\Local\Temp\cciNYDRP.s:751    .text.efuse_user_data_write:0000000000000006 .L0 
C:\Users\CYMR90~1\AppData\Local\Temp\cciNYDRP.s:753    .text.efuse_user_data_write:0000000000000008 .L0 
C:\Users\CYMR90~1\AppData\Local\Temp\cciNYDRP.s:757    .text.efuse_user_data_write:0000000000000010 .L0 
C:\Users\CYMR90~1\AppData\Local\Temp\cciNYDRP.s:761    .text.efuse_user_data_write:000000000000001c .L0 
C:\Users\CYMR90~1\AppData\Local\Temp\cciNYDRP.s:765    .text.efuse_user_data_write:0000000000000020 .L0 
C:\Users\CYMR90~1\AppData\Local\Temp\cciNYDRP.s:772    .text.efuse_user_data_write:0000000000000036 .L0 
C:\Users\CYMR90~1\AppData\Local\Temp\cciNYDRP.s:774    .text.efuse_user_data_write:000000000000003a .L0 
C:\Users\CYMR90~1\AppData\Local\Temp\cciNYDRP.s:776    .text.efuse_user_data_write:000000000000003c .L0 
C:\Users\CYMR90~1\AppData\Local\Temp\cciNYDRP.s:777    .text.efuse_user_data_write:000000000000003c .L0 
C:\Users\CYMR90~1\AppData\Local\Temp\cciNYDRP.s:779    .text.efuse_user_data_write:000000000000003e .L0 
C:\Users\CYMR90~1\AppData\Local\Temp\cciNYDRP.s:781    .text.efuse_user_data_write:0000000000000040 .L0 
C:\Users\CYMR90~1\AppData\Local\Temp\cciNYDRP.s:788    .text.efuse_res_read:0000000000000000 efuse_res_read
C:\Users\CYMR90~1\AppData\Local\Temp\cciNYDRP.s:791    .text.efuse_res_read:0000000000000000 .L0 
C:\Users\CYMR90~1\AppData\Local\Temp\cciNYDRP.s:792    .text.efuse_res_read:0000000000000000 .L0 
C:\Users\CYMR90~1\AppData\Local\Temp\cciNYDRP.s:793    .text.efuse_res_read:0000000000000002 .L0 
C:\Users\CYMR90~1\AppData\Local\Temp\cciNYDRP.s:795    .text.efuse_res_read:0000000000000004 .L0 
C:\Users\CYMR90~1\AppData\Local\Temp\cciNYDRP.s:797    .text.efuse_res_read:0000000000000006 .L0 
C:\Users\CYMR90~1\AppData\Local\Temp\cciNYDRP.s:800    .text.efuse_res_read:000000000000000a .L0 
C:\Users\CYMR90~1\AppData\Local\Temp\cciNYDRP.s:802    .text.efuse_res_read:000000000000000e .L0 
C:\Users\CYMR90~1\AppData\Local\Temp\cciNYDRP.s:804    .text.efuse_res_read:0000000000000012 .L0 
C:\Users\CYMR90~1\AppData\Local\Temp\cciNYDRP.s:807    .text.efuse_res_read:0000000000000014 .L0 
C:\Users\CYMR90~1\AppData\Local\Temp\cciNYDRP.s:814    .text.efuse_res_read:0000000000000026 .L0 
C:\Users\CYMR90~1\AppData\Local\Temp\cciNYDRP.s:819    .text.efuse_res_read:0000000000000032 .L0 
C:\Users\CYMR90~1\AppData\Local\Temp\cciNYDRP.s:821    .text.efuse_res_read:0000000000000034 .L0 
C:\Users\CYMR90~1\AppData\Local\Temp\cciNYDRP.s:823    .text.efuse_res_read:0000000000000036 .L0 
C:\Users\CYMR90~1\AppData\Local\Temp\cciNYDRP.s:828    .text.efuse_res_read:0000000000000040 .L0 
C:\Users\CYMR90~1\AppData\Local\Temp\cciNYDRP.s:832    .text.efuse_res_read:000000000000004a .L0 
C:\Users\CYMR90~1\AppData\Local\Temp\cciNYDRP.s:835    .text.efuse_res_read:0000000000000050 .L0 
C:\Users\CYMR90~1\AppData\Local\Temp\cciNYDRP.s:836    .text.efuse_res_read:0000000000000050 .L0 
C:\Users\CYMR90~1\AppData\Local\Temp\cciNYDRP.s:838    .text.efuse_res_read:0000000000000052 .L0 
C:\Users\CYMR90~1\AppData\Local\Temp\cciNYDRP.s:840    .text.efuse_res_read:0000000000000054 .L0 
C:\Users\CYMR90~1\AppData\Local\Temp\cciNYDRP.s:847    .text.efuse_aes_key_read:0000000000000000 efuse_aes_key_read
C:\Users\CYMR90~1\AppData\Local\Temp\cciNYDRP.s:850    .text.efuse_aes_key_read:0000000000000000 .L0 
C:\Users\CYMR90~1\AppData\Local\Temp\cciNYDRP.s:851    .text.efuse_aes_key_read:0000000000000000 .L0 
C:\Users\CYMR90~1\AppData\Local\Temp\cciNYDRP.s:852    .text.efuse_aes_key_read:0000000000000002 .L0 
C:\Users\CYMR90~1\AppData\Local\Temp\cciNYDRP.s:854    .text.efuse_aes_key_read:0000000000000004 .L0 
C:\Users\CYMR90~1\AppData\Local\Temp\cciNYDRP.s:856    .text.efuse_aes_key_read:0000000000000006 .L0 
C:\Users\CYMR90~1\AppData\Local\Temp\cciNYDRP.s:859    .text.efuse_aes_key_read:000000000000000a .L0 
C:\Users\CYMR90~1\AppData\Local\Temp\cciNYDRP.s:861    .text.efuse_aes_key_read:000000000000000e .L0 
C:\Users\CYMR90~1\AppData\Local\Temp\cciNYDRP.s:863    .text.efuse_aes_key_read:0000000000000012 .L0 
C:\Users\CYMR90~1\AppData\Local\Temp\cciNYDRP.s:866    .text.efuse_aes_key_read:0000000000000014 .L0 
C:\Users\CYMR90~1\AppData\Local\Temp\cciNYDRP.s:873    .text.efuse_aes_key_read:0000000000000026 .L0 
C:\Users\CYMR90~1\AppData\Local\Temp\cciNYDRP.s:878    .text.efuse_aes_key_read:0000000000000032 .L0 
C:\Users\CYMR90~1\AppData\Local\Temp\cciNYDRP.s:880    .text.efuse_aes_key_read:0000000000000034 .L0 
C:\Users\CYMR90~1\AppData\Local\Temp\cciNYDRP.s:882    .text.efuse_aes_key_read:0000000000000036 .L0 
C:\Users\CYMR90~1\AppData\Local\Temp\cciNYDRP.s:887    .text.efuse_aes_key_read:0000000000000040 .L0 
C:\Users\CYMR90~1\AppData\Local\Temp\cciNYDRP.s:891    .text.efuse_aes_key_read:000000000000004a .L0 
C:\Users\CYMR90~1\AppData\Local\Temp\cciNYDRP.s:894    .text.efuse_aes_key_read:0000000000000050 .L0 
C:\Users\CYMR90~1\AppData\Local\Temp\cciNYDRP.s:895    .text.efuse_aes_key_read:0000000000000050 .L0 
C:\Users\CYMR90~1\AppData\Local\Temp\cciNYDRP.s:897    .text.efuse_aes_key_read:0000000000000052 .L0 
C:\Users\CYMR90~1\AppData\Local\Temp\cciNYDRP.s:899    .text.efuse_aes_key_read:0000000000000054 .L0 
C:\Users\CYMR90~1\AppData\Local\Temp\cciNYDRP.s:906    .text.efuse_rotpk_key_read:0000000000000000 efuse_rotpk_key_read
C:\Users\CYMR90~1\AppData\Local\Temp\cciNYDRP.s:909    .text.efuse_rotpk_key_read:0000000000000000 .L0 
C:\Users\CYMR90~1\AppData\Local\Temp\cciNYDRP.s:910    .text.efuse_rotpk_key_read:0000000000000000 .L0 
C:\Users\CYMR90~1\AppData\Local\Temp\cciNYDRP.s:911    .text.efuse_rotpk_key_read:0000000000000002 .L0 
C:\Users\CYMR90~1\AppData\Local\Temp\cciNYDRP.s:913    .text.efuse_rotpk_key_read:0000000000000004 .L0 
C:\Users\CYMR90~1\AppData\Local\Temp\cciNYDRP.s:915    .text.efuse_rotpk_key_read:0000000000000006 .L0 
C:\Users\CYMR90~1\AppData\Local\Temp\cciNYDRP.s:918    .text.efuse_rotpk_key_read:000000000000000a .L0 
C:\Users\CYMR90~1\AppData\Local\Temp\cciNYDRP.s:920    .text.efuse_rotpk_key_read:000000000000000e .L0 
C:\Users\CYMR90~1\AppData\Local\Temp\cciNYDRP.s:922    .text.efuse_rotpk_key_read:0000000000000012 .L0 
C:\Users\CYMR90~1\AppData\Local\Temp\cciNYDRP.s:925    .text.efuse_rotpk_key_read:0000000000000014 .L0 
C:\Users\CYMR90~1\AppData\Local\Temp\cciNYDRP.s:932    .text.efuse_rotpk_key_read:0000000000000026 .L0 
C:\Users\CYMR90~1\AppData\Local\Temp\cciNYDRP.s:937    .text.efuse_rotpk_key_read:0000000000000032 .L0 
C:\Users\CYMR90~1\AppData\Local\Temp\cciNYDRP.s:939    .text.efuse_rotpk_key_read:0000000000000034 .L0 
C:\Users\CYMR90~1\AppData\Local\Temp\cciNYDRP.s:941    .text.efuse_rotpk_key_read:0000000000000036 .L0 
C:\Users\CYMR90~1\AppData\Local\Temp\cciNYDRP.s:946    .text.efuse_rotpk_key_read:0000000000000040 .L0 
C:\Users\CYMR90~1\AppData\Local\Temp\cciNYDRP.s:950    .text.efuse_rotpk_key_read:000000000000004a .L0 
C:\Users\CYMR90~1\AppData\Local\Temp\cciNYDRP.s:953    .text.efuse_rotpk_key_read:0000000000000050 .L0 
C:\Users\CYMR90~1\AppData\Local\Temp\cciNYDRP.s:954    .text.efuse_rotpk_key_read:0000000000000050 .L0 
C:\Users\CYMR90~1\AppData\Local\Temp\cciNYDRP.s:956    .text.efuse_rotpk_key_read:0000000000000052 .L0 
C:\Users\CYMR90~1\AppData\Local\Temp\cciNYDRP.s:958    .text.efuse_rotpk_key_read:0000000000000054 .L0 
C:\Users\CYMR90~1\AppData\Local\Temp\cciNYDRP.s:965    .text.efuse_puid_read:0000000000000000 efuse_puid_read
C:\Users\CYMR90~1\AppData\Local\Temp\cciNYDRP.s:968    .text.efuse_puid_read:0000000000000000 .L0 
C:\Users\CYMR90~1\AppData\Local\Temp\cciNYDRP.s:969    .text.efuse_puid_read:0000000000000000 .L0 
C:\Users\CYMR90~1\AppData\Local\Temp\cciNYDRP.s:970    .text.efuse_puid_read:0000000000000002 .L0 
C:\Users\CYMR90~1\AppData\Local\Temp\cciNYDRP.s:972    .text.efuse_puid_read:0000000000000004 .L0 
C:\Users\CYMR90~1\AppData\Local\Temp\cciNYDRP.s:974    .text.efuse_puid_read:0000000000000006 .L0 
C:\Users\CYMR90~1\AppData\Local\Temp\cciNYDRP.s:977    .text.efuse_puid_read:000000000000000a .L0 
C:\Users\CYMR90~1\AppData\Local\Temp\cciNYDRP.s:979    .text.efuse_puid_read:000000000000000e .L0 
C:\Users\CYMR90~1\AppData\Local\Temp\cciNYDRP.s:981    .text.efuse_puid_read:0000000000000012 .L0 
C:\Users\CYMR90~1\AppData\Local\Temp\cciNYDRP.s:984    .text.efuse_puid_read:0000000000000014 .L0 
C:\Users\CYMR90~1\AppData\Local\Temp\cciNYDRP.s:991    .text.efuse_puid_read:0000000000000026 .L0 
C:\Users\CYMR90~1\AppData\Local\Temp\cciNYDRP.s:996    .text.efuse_puid_read:0000000000000032 .L0 
C:\Users\CYMR90~1\AppData\Local\Temp\cciNYDRP.s:998    .text.efuse_puid_read:0000000000000034 .L0 
C:\Users\CYMR90~1\AppData\Local\Temp\cciNYDRP.s:1000   .text.efuse_puid_read:0000000000000036 .L0 
C:\Users\CYMR90~1\AppData\Local\Temp\cciNYDRP.s:1005   .text.efuse_puid_read:0000000000000040 .L0 
C:\Users\CYMR90~1\AppData\Local\Temp\cciNYDRP.s:1009   .text.efuse_puid_read:000000000000004a .L0 
C:\Users\CYMR90~1\AppData\Local\Temp\cciNYDRP.s:1012   .text.efuse_puid_read:0000000000000050 .L0 
C:\Users\CYMR90~1\AppData\Local\Temp\cciNYDRP.s:1013   .text.efuse_puid_read:0000000000000050 .L0 
C:\Users\CYMR90~1\AppData\Local\Temp\cciNYDRP.s:1015   .text.efuse_puid_read:0000000000000052 .L0 
C:\Users\CYMR90~1\AppData\Local\Temp\cciNYDRP.s:1017   .text.efuse_puid_read:0000000000000054 .L0 
C:\Users\CYMR90~1\AppData\Local\Temp\cciNYDRP.s:1024   .text.efuse_huk_key_read:0000000000000000 efuse_huk_key_read
C:\Users\CYMR90~1\AppData\Local\Temp\cciNYDRP.s:1027   .text.efuse_huk_key_read:0000000000000000 .L0 
C:\Users\CYMR90~1\AppData\Local\Temp\cciNYDRP.s:1028   .text.efuse_huk_key_read:0000000000000000 .L0 
C:\Users\CYMR90~1\AppData\Local\Temp\cciNYDRP.s:1029   .text.efuse_huk_key_read:0000000000000002 .L0 
C:\Users\CYMR90~1\AppData\Local\Temp\cciNYDRP.s:1031   .text.efuse_huk_key_read:0000000000000004 .L0 
C:\Users\CYMR90~1\AppData\Local\Temp\cciNYDRP.s:1033   .text.efuse_huk_key_read:0000000000000006 .L0 
C:\Users\CYMR90~1\AppData\Local\Temp\cciNYDRP.s:1036   .text.efuse_huk_key_read:000000000000000a .L0 
C:\Users\CYMR90~1\AppData\Local\Temp\cciNYDRP.s:1038   .text.efuse_huk_key_read:000000000000000e .L0 
C:\Users\CYMR90~1\AppData\Local\Temp\cciNYDRP.s:1040   .text.efuse_huk_key_read:0000000000000012 .L0 
C:\Users\CYMR90~1\AppData\Local\Temp\cciNYDRP.s:1043   .text.efuse_huk_key_read:0000000000000014 .L0 
C:\Users\CYMR90~1\AppData\Local\Temp\cciNYDRP.s:1050   .text.efuse_huk_key_read:0000000000000026 .L0 
C:\Users\CYMR90~1\AppData\Local\Temp\cciNYDRP.s:1055   .text.efuse_huk_key_read:0000000000000032 .L0 
C:\Users\CYMR90~1\AppData\Local\Temp\cciNYDRP.s:1057   .text.efuse_huk_key_read:0000000000000034 .L0 
C:\Users\CYMR90~1\AppData\Local\Temp\cciNYDRP.s:1059   .text.efuse_huk_key_read:0000000000000036 .L0 
C:\Users\CYMR90~1\AppData\Local\Temp\cciNYDRP.s:1064   .text.efuse_huk_key_read:0000000000000040 .L0 
C:\Users\CYMR90~1\AppData\Local\Temp\cciNYDRP.s:1068   .text.efuse_huk_key_read:000000000000004a .L0 
C:\Users\CYMR90~1\AppData\Local\Temp\cciNYDRP.s:1071   .text.efuse_huk_key_read:0000000000000050 .L0 
C:\Users\CYMR90~1\AppData\Local\Temp\cciNYDRP.s:1072   .text.efuse_huk_key_read:0000000000000050 .L0 
C:\Users\CYMR90~1\AppData\Local\Temp\cciNYDRP.s:1074   .text.efuse_huk_key_read:0000000000000052 .L0 
C:\Users\CYMR90~1\AppData\Local\Temp\cciNYDRP.s:1076   .text.efuse_huk_key_read:0000000000000054 .L0 
C:\Users\CYMR90~1\AppData\Local\Temp\cciNYDRP.s:1083   .text.efuse_user_data_read:0000000000000000 efuse_user_data_read
C:\Users\CYMR90~1\AppData\Local\Temp\cciNYDRP.s:1086   .text.efuse_user_data_read:0000000000000000 .L0 
C:\Users\CYMR90~1\AppData\Local\Temp\cciNYDRP.s:1087   .text.efuse_user_data_read:0000000000000000 .L0 
C:\Users\CYMR90~1\AppData\Local\Temp\cciNYDRP.s:1088   .text.efuse_user_data_read:0000000000000002 .L0 
C:\Users\CYMR90~1\AppData\Local\Temp\cciNYDRP.s:1090   .text.efuse_user_data_read:0000000000000004 .L0 
C:\Users\CYMR90~1\AppData\Local\Temp\cciNYDRP.s:1092   .text.efuse_user_data_read:0000000000000006 .L0 
C:\Users\CYMR90~1\AppData\Local\Temp\cciNYDRP.s:1095   .text.efuse_user_data_read:000000000000000a .L0 
C:\Users\CYMR90~1\AppData\Local\Temp\cciNYDRP.s:1097   .text.efuse_user_data_read:000000000000000e .L0 
C:\Users\CYMR90~1\AppData\Local\Temp\cciNYDRP.s:1099   .text.efuse_user_data_read:0000000000000012 .L0 
C:\Users\CYMR90~1\AppData\Local\Temp\cciNYDRP.s:1102   .text.efuse_user_data_read:0000000000000014 .L0 
C:\Users\CYMR90~1\AppData\Local\Temp\cciNYDRP.s:1109   .text.efuse_user_data_read:0000000000000026 .L0 
C:\Users\CYMR90~1\AppData\Local\Temp\cciNYDRP.s:1114   .text.efuse_user_data_read:0000000000000032 .L0 
C:\Users\CYMR90~1\AppData\Local\Temp\cciNYDRP.s:1116   .text.efuse_user_data_read:0000000000000034 .L0 
C:\Users\CYMR90~1\AppData\Local\Temp\cciNYDRP.s:1118   .text.efuse_user_data_read:0000000000000036 .L0 
C:\Users\CYMR90~1\AppData\Local\Temp\cciNYDRP.s:1123   .text.efuse_user_data_read:0000000000000040 .L0 
C:\Users\CYMR90~1\AppData\Local\Temp\cciNYDRP.s:1127   .text.efuse_user_data_read:000000000000004a .L0 
C:\Users\CYMR90~1\AppData\Local\Temp\cciNYDRP.s:1130   .text.efuse_user_data_read:0000000000000050 .L0 
C:\Users\CYMR90~1\AppData\Local\Temp\cciNYDRP.s:1131   .text.efuse_user_data_read:0000000000000050 .L0 
C:\Users\CYMR90~1\AppData\Local\Temp\cciNYDRP.s:1133   .text.efuse_user_data_read:0000000000000052 .L0 
C:\Users\CYMR90~1\AppData\Local\Temp\cciNYDRP.s:1135   .text.efuse_user_data_read:0000000000000054 .L0 
C:\Users\CYMR90~1\AppData\Local\Temp\cciNYDRP.s:1142   .text.efuse_boot_address_get:0000000000000000 efuse_boot_address_get
C:\Users\CYMR90~1\AppData\Local\Temp\cciNYDRP.s:1145   .text.efuse_boot_address_get:0000000000000000 .L0 
C:\Users\CYMR90~1\AppData\Local\Temp\cciNYDRP.s:1146   .text.efuse_boot_address_get:0000000000000000 .L0 
C:\Users\CYMR90~1\AppData\Local\Temp\cciNYDRP.s:1147   .text.efuse_boot_address_get:0000000000000002 .L0 
C:\Users\CYMR90~1\AppData\Local\Temp\cciNYDRP.s:1149   .text.efuse_boot_address_get:0000000000000004 .L0 
C:\Users\CYMR90~1\AppData\Local\Temp\cciNYDRP.s:1151   .text.efuse_boot_address_get:0000000000000006 .L0 
C:\Users\CYMR90~1\AppData\Local\Temp\cciNYDRP.s:1153   .text.efuse_boot_address_get:0000000000000006 .L0 
C:\Users\CYMR90~1\AppData\Local\Temp\cciNYDRP.s:1157   .text.efuse_boot_address_get:0000000000000010 .L0 
C:\Users\CYMR90~1\AppData\Local\Temp\cciNYDRP.s:1159   .text.efuse_boot_address_get:0000000000000014 .L0 
C:\Users\CYMR90~1\AppData\Local\Temp\cciNYDRP.s:1160   .text.efuse_boot_address_get:0000000000000014 .L0 
C:\Users\CYMR90~1\AppData\Local\Temp\cciNYDRP.s:1162   .text.efuse_boot_address_get:0000000000000016 .L0 
C:\Users\CYMR90~1\AppData\Local\Temp\cciNYDRP.s:1164   .text.efuse_boot_address_get:0000000000000018 .L0 
C:\Users\CYMR90~1\AppData\Local\Temp\cciNYDRP.s:1171   .text.efuse_lock_config:0000000000000000 efuse_lock_config
C:\Users\CYMR90~1\AppData\Local\Temp\cciNYDRP.s:1174   .text.efuse_lock_config:0000000000000000 .L0 
C:\Users\CYMR90~1\AppData\Local\Temp\cciNYDRP.s:1175   .text.efuse_lock_config:0000000000000000 .L0 
C:\Users\CYMR90~1\AppData\Local\Temp\cciNYDRP.s:1176   .text.efuse_lock_config:0000000000000002 .L0 
C:\Users\CYMR90~1\AppData\Local\Temp\cciNYDRP.s:1179   .text.efuse_lock_config:0000000000000006 .L0 
C:\Users\CYMR90~1\AppData\Local\Temp\cciNYDRP.s:1180   .text.efuse_lock_config:0000000000000006 .L0 
C:\Users\CYMR90~1\AppData\Local\Temp\cciNYDRP.s:1182   .text.efuse_lock_config:0000000000000008 .L0 
C:\Users\CYMR90~1\AppData\Local\Temp\cciNYDRP.s:1185   .text.efuse_lock_config:000000000000000c .L0 
C:\Users\CYMR90~1\AppData\Local\Temp\cciNYDRP.s:1188   .text.efuse_lock_config:0000000000000014 .L0 
C:\Users\CYMR90~1\AppData\Local\Temp\cciNYDRP.s:1192   .text.efuse_lock_config:000000000000001e .L0 
C:\Users\CYMR90~1\AppData\Local\Temp\cciNYDRP.s:1198   .text.efuse_lock_config:0000000000000030 .L0 
C:\Users\CYMR90~1\AppData\Local\Temp\cciNYDRP.s:1201   .text.efuse_lock_config:0000000000000032 .L0 
C:\Users\CYMR90~1\AppData\Local\Temp\cciNYDRP.s:1205   .text.efuse_lock_config:000000000000003c .L0 
C:\Users\CYMR90~1\AppData\Local\Temp\cciNYDRP.s:1211   .text.efuse_lock_config:000000000000004e .L0 
C:\Users\CYMR90~1\AppData\Local\Temp\cciNYDRP.s:1214   .text.efuse_lock_config:0000000000000050 .L0 
C:\Users\CYMR90~1\AppData\Local\Temp\cciNYDRP.s:1218   .text.efuse_lock_config:000000000000005c .L0 
C:\Users\CYMR90~1\AppData\Local\Temp\cciNYDRP.s:1224   .text.efuse_lock_config:000000000000006e .L0 
C:\Users\CYMR90~1\AppData\Local\Temp\cciNYDRP.s:1227   .text.efuse_lock_config:0000000000000070 .L0 
C:\Users\CYMR90~1\AppData\Local\Temp\cciNYDRP.s:1231   .text.efuse_lock_config:000000000000007c .L0 
C:\Users\CYMR90~1\AppData\Local\Temp\cciNYDRP.s:1237   .text.efuse_lock_config:000000000000008e .L0 
C:\Users\CYMR90~1\AppData\Local\Temp\cciNYDRP.s:1240   .text.efuse_lock_config:0000000000000090 .L0 
C:\Users\CYMR90~1\AppData\Local\Temp\cciNYDRP.s:1244   .text.efuse_lock_config:000000000000009a .L0 
C:\Users\CYMR90~1\AppData\Local\Temp\cciNYDRP.s:1251   .text.efuse_lock_config:00000000000000ac .L0 
C:\Users\CYMR90~1\AppData\Local\Temp\cciNYDRP.s:1253   .text.efuse_lock_config:00000000000000b0 .L0 
C:\Users\CYMR90~1\AppData\Local\Temp\cciNYDRP.s:1255   .text.efuse_lock_config:00000000000000b2 .L0 
C:\Users\CYMR90~1\AppData\Local\Temp\cciNYDRP.s:1256   .text.efuse_lock_config:00000000000000b2 .L0 
C:\Users\CYMR90~1\AppData\Local\Temp\cciNYDRP.s:1258   .text.efuse_lock_config:00000000000000b4 .L0 
C:\Users\CYMR90~1\AppData\Local\Temp\cciNYDRP.s:1260   .text.efuse_lock_config:00000000000000b6 .L0 
C:\Users\CYMR90~1\AppData\Local\Temp\cciNYDRP.s:1270   .text.efuse_flag_get:0000000000000000 .L0 
C:\Users\CYMR90~1\AppData\Local\Temp\cciNYDRP.s:1271   .text.efuse_flag_get:0000000000000000 .L0 
C:\Users\CYMR90~1\AppData\Local\Temp\cciNYDRP.s:1272   .text.efuse_flag_get:0000000000000002 .L0 
C:\Users\CYMR90~1\AppData\Local\Temp\cciNYDRP.s:1274   .text.efuse_flag_get:0000000000000004 .L0 
C:\Users\CYMR90~1\AppData\Local\Temp\cciNYDRP.s:1276   .text.efuse_flag_get:0000000000000006 .L0 
C:\Users\CYMR90~1\AppData\Local\Temp\cciNYDRP.s:1279   .text.efuse_flag_get:000000000000000a .L0 
C:\Users\CYMR90~1\AppData\Local\Temp\cciNYDRP.s:1283   .text.efuse_flag_get:0000000000000014 .L0 
C:\Users\CYMR90~1\AppData\Local\Temp\cciNYDRP.s:1286   .text.efuse_flag_get:000000000000001a .L0 
C:\Users\CYMR90~1\AppData\Local\Temp\cciNYDRP.s:1288   .text.efuse_flag_get:000000000000001c .L0 
C:\Users\CYMR90~1\AppData\Local\Temp\cciNYDRP.s:1292   .text.efuse_flag_get:0000000000000020 .L0 
C:\Users\CYMR90~1\AppData\Local\Temp\cciNYDRP.s:1295   .text.efuse_flag_get:0000000000000022 .L0 
C:\Users\CYMR90~1\AppData\Local\Temp\cciNYDRP.s:1297   .text.efuse_flag_get:0000000000000026 .L0 
C:\Users\CYMR90~1\AppData\Local\Temp\cciNYDRP.s:1298   .text.efuse_flag_get:0000000000000026 .L0 
C:\Users\CYMR90~1\AppData\Local\Temp\cciNYDRP.s:1300   .text.efuse_flag_get:0000000000000028 .L0 
C:\Users\CYMR90~1\AppData\Local\Temp\cciNYDRP.s:1302   .text.efuse_flag_get:000000000000002a .L0 
C:\Users\CYMR90~1\AppData\Local\Temp\cciNYDRP.s:1309   .text.efuse_flag_clear:0000000000000000 efuse_flag_clear
C:\Users\CYMR90~1\AppData\Local\Temp\cciNYDRP.s:1312   .text.efuse_flag_clear:0000000000000000 .L0 
C:\Users\CYMR90~1\AppData\Local\Temp\cciNYDRP.s:1313   .text.efuse_flag_clear:0000000000000000 .L0 
C:\Users\CYMR90~1\AppData\Local\Temp\cciNYDRP.s:1314   .text.efuse_flag_clear:0000000000000002 .L0 
C:\Users\CYMR90~1\AppData\Local\Temp\cciNYDRP.s:1316   .text.efuse_flag_clear:0000000000000004 .L0 
C:\Users\CYMR90~1\AppData\Local\Temp\cciNYDRP.s:1318   .text.efuse_flag_clear:0000000000000006 .L0 
C:\Users\CYMR90~1\AppData\Local\Temp\cciNYDRP.s:1321   .text.efuse_flag_clear:000000000000000a .L0 
C:\Users\CYMR90~1\AppData\Local\Temp\cciNYDRP.s:1330   .text.efuse_flag_clear:0000000000000024 .L0 
C:\Users\CYMR90~1\AppData\Local\Temp\cciNYDRP.s:1332   .text.efuse_flag_clear:0000000000000028 .L0 
C:\Users\CYMR90~1\AppData\Local\Temp\cciNYDRP.s:1333   .text.efuse_flag_clear:0000000000000028 .L0 
C:\Users\CYMR90~1\AppData\Local\Temp\cciNYDRP.s:1335   .text.efuse_flag_clear:000000000000002a .L0 
C:\Users\CYMR90~1\AppData\Local\Temp\cciNYDRP.s:1337   .text.efuse_flag_clear:000000000000002c .L0 
C:\Users\CYMR90~1\AppData\Local\Temp\cciNYDRP.s:1344   .text.efuse_interrupt_enable:0000000000000000 efuse_interrupt_enable
C:\Users\CYMR90~1\AppData\Local\Temp\cciNYDRP.s:1347   .text.efuse_interrupt_enable:0000000000000000 .L0 
C:\Users\CYMR90~1\AppData\Local\Temp\cciNYDRP.s:1348   .text.efuse_interrupt_enable:0000000000000000 .L0 
C:\Users\CYMR90~1\AppData\Local\Temp\cciNYDRP.s:1349   .text.efuse_interrupt_enable:0000000000000002 .L0 
C:\Users\CYMR90~1\AppData\Local\Temp\cciNYDRP.s:1351   .text.efuse_interrupt_enable:0000000000000004 .L0 
C:\Users\CYMR90~1\AppData\Local\Temp\cciNYDRP.s:1353   .text.efuse_interrupt_enable:0000000000000006 .L0 
C:\Users\CYMR90~1\AppData\Local\Temp\cciNYDRP.s:1356   .text.efuse_interrupt_enable:000000000000000a .L0 
C:\Users\CYMR90~1\AppData\Local\Temp\cciNYDRP.s:1365   .text.efuse_interrupt_enable:0000000000000024 .L0 
C:\Users\CYMR90~1\AppData\Local\Temp\cciNYDRP.s:1367   .text.efuse_interrupt_enable:0000000000000028 .L0 
C:\Users\CYMR90~1\AppData\Local\Temp\cciNYDRP.s:1368   .text.efuse_interrupt_enable:0000000000000028 .L0 
C:\Users\CYMR90~1\AppData\Local\Temp\cciNYDRP.s:1370   .text.efuse_interrupt_enable:000000000000002a .L0 
C:\Users\CYMR90~1\AppData\Local\Temp\cciNYDRP.s:1372   .text.efuse_interrupt_enable:000000000000002c .L0 
C:\Users\CYMR90~1\AppData\Local\Temp\cciNYDRP.s:1379   .text.efuse_interrupt_disable:0000000000000000 efuse_interrupt_disable
C:\Users\CYMR90~1\AppData\Local\Temp\cciNYDRP.s:1382   .text.efuse_interrupt_disable:0000000000000000 .L0 
C:\Users\CYMR90~1\AppData\Local\Temp\cciNYDRP.s:1383   .text.efuse_interrupt_disable:0000000000000000 .L0 
C:\Users\CYMR90~1\AppData\Local\Temp\cciNYDRP.s:1384   .text.efuse_interrupt_disable:0000000000000002 .L0 
C:\Users\CYMR90~1\AppData\Local\Temp\cciNYDRP.s:1386   .text.efuse_interrupt_disable:0000000000000004 .L0 
C:\Users\CYMR90~1\AppData\Local\Temp\cciNYDRP.s:1388   .text.efuse_interrupt_disable:0000000000000006 .L0 
C:\Users\CYMR90~1\AppData\Local\Temp\cciNYDRP.s:1391   .text.efuse_interrupt_disable:000000000000000a .L0 
C:\Users\CYMR90~1\AppData\Local\Temp\cciNYDRP.s:1395   .text.efuse_interrupt_disable:0000000000000014 .L0 
C:\Users\CYMR90~1\AppData\Local\Temp\cciNYDRP.s:1398   .text.efuse_interrupt_disable:000000000000001c .L0 
C:\Users\CYMR90~1\AppData\Local\Temp\cciNYDRP.s:1403   .text.efuse_interrupt_disable:0000000000000028 .L0 
C:\Users\CYMR90~1\AppData\Local\Temp\cciNYDRP.s:1405   .text.efuse_interrupt_disable:000000000000002c .L0 
C:\Users\CYMR90~1\AppData\Local\Temp\cciNYDRP.s:1406   .text.efuse_interrupt_disable:000000000000002c .L0 
C:\Users\CYMR90~1\AppData\Local\Temp\cciNYDRP.s:1408   .text.efuse_interrupt_disable:000000000000002e .L0 
C:\Users\CYMR90~1\AppData\Local\Temp\cciNYDRP.s:1410   .text.efuse_interrupt_disable:0000000000000030 .L0 
C:\Users\CYMR90~1\AppData\Local\Temp\cciNYDRP.s:1417   .text.efuse_interrupt_flag_get:0000000000000000 efuse_interrupt_flag_get
C:\Users\CYMR90~1\AppData\Local\Temp\cciNYDRP.s:1420   .text.efuse_interrupt_flag_get:0000000000000000 .L0 
C:\Users\CYMR90~1\AppData\Local\Temp\cciNYDRP.s:1421   .text.efuse_interrupt_flag_get:0000000000000000 .L0 
C:\Users\CYMR90~1\AppData\Local\Temp\cciNYDRP.s:1422   .text.efuse_interrupt_flag_get:0000000000000002 .L0 
C:\Users\CYMR90~1\AppData\Local\Temp\cciNYDRP.s:1424   .text.efuse_interrupt_flag_get:0000000000000004 .L0 
C:\Users\CYMR90~1\AppData\Local\Temp\cciNYDRP.s:1426   .text.efuse_interrupt_flag_get:0000000000000006 .L0 
C:\Users\CYMR90~1\AppData\Local\Temp\cciNYDRP.s:1429   .text.efuse_interrupt_flag_get:000000000000000a .L0 
C:\Users\CYMR90~1\AppData\Local\Temp\cciNYDRP.s:1433   .text.efuse_interrupt_flag_get:0000000000000014 .L0 
C:\Users\CYMR90~1\AppData\Local\Temp\cciNYDRP.s:1436   .text.efuse_interrupt_flag_get:000000000000001a .L0 
C:\Users\CYMR90~1\AppData\Local\Temp\cciNYDRP.s:1438   .text.efuse_interrupt_flag_get:000000000000001c .L0 
C:\Users\CYMR90~1\AppData\Local\Temp\cciNYDRP.s:1442   .text.efuse_interrupt_flag_get:0000000000000020 .L0 
C:\Users\CYMR90~1\AppData\Local\Temp\cciNYDRP.s:1445   .text.efuse_interrupt_flag_get:0000000000000022 .L0 
C:\Users\CYMR90~1\AppData\Local\Temp\cciNYDRP.s:1447   .text.efuse_interrupt_flag_get:0000000000000026 .L0 
C:\Users\CYMR90~1\AppData\Local\Temp\cciNYDRP.s:1448   .text.efuse_interrupt_flag_get:0000000000000026 .L0 
C:\Users\CYMR90~1\AppData\Local\Temp\cciNYDRP.s:1450   .text.efuse_interrupt_flag_get:0000000000000028 .L0 
C:\Users\CYMR90~1\AppData\Local\Temp\cciNYDRP.s:1452   .text.efuse_interrupt_flag_get:000000000000002a .L0 
C:\Users\CYMR90~1\AppData\Local\Temp\cciNYDRP.s:1459   .text.efuse_interrupt_flag_clear:0000000000000000 efuse_interrupt_flag_clear
C:\Users\CYMR90~1\AppData\Local\Temp\cciNYDRP.s:1462   .text.efuse_interrupt_flag_clear:0000000000000000 .L0 
C:\Users\CYMR90~1\AppData\Local\Temp\cciNYDRP.s:1463   .text.efuse_interrupt_flag_clear:0000000000000000 .L0 
C:\Users\CYMR90~1\AppData\Local\Temp\cciNYDRP.s:1464   .text.efuse_interrupt_flag_clear:0000000000000002 .L0 
C:\Users\CYMR90~1\AppData\Local\Temp\cciNYDRP.s:1466   .text.efuse_interrupt_flag_clear:0000000000000004 .L0 
C:\Users\CYMR90~1\AppData\Local\Temp\cciNYDRP.s:1468   .text.efuse_interrupt_flag_clear:0000000000000006 .L0 
C:\Users\CYMR90~1\AppData\Local\Temp\cciNYDRP.s:1471   .text.efuse_interrupt_flag_clear:000000000000000a .L0 
C:\Users\CYMR90~1\AppData\Local\Temp\cciNYDRP.s:1480   .text.efuse_interrupt_flag_clear:0000000000000024 .L0 
C:\Users\CYMR90~1\AppData\Local\Temp\cciNYDRP.s:1482   .text.efuse_interrupt_flag_clear:0000000000000028 .L0 
C:\Users\CYMR90~1\AppData\Local\Temp\cciNYDRP.s:1483   .text.efuse_interrupt_flag_clear:0000000000000028 .L0 
C:\Users\CYMR90~1\AppData\Local\Temp\cciNYDRP.s:1485   .text.efuse_interrupt_flag_clear:000000000000002a .L0 
C:\Users\CYMR90~1\AppData\Local\Temp\cciNYDRP.s:1487   .text.efuse_interrupt_flag_clear:000000000000002c .L0 
C:\Users\CYMR90~1\AppData\Local\Temp\cciNYDRP.s:194    .text.efuse_read:0000000000000168 .L0 
C:\Users\CYMR90~1\AppData\Local\Temp\cciNYDRP.s:416    .text.efuse_write:00000000000001cc .L0 
C:\Users\CYMR90~1\AppData\Local\Temp\cciNYDRP.s:462    .text.efuse_boot_config:000000000000003c .L0 
C:\Users\CYMR90~1\AppData\Local\Temp\cciNYDRP.s:508    .text.efuse_control1_config:000000000000003c .L0 
C:\Users\CYMR90~1\AppData\Local\Temp\cciNYDRP.s:554    .text.efuse_fp_config:000000000000003c .L0 
C:\Users\CYMR90~1\AppData\Local\Temp\cciNYDRP.s:600    .text.efuse_user_control_config:000000000000003c .L0 
C:\Users\CYMR90~1\AppData\Local\Temp\cciNYDRP.s:646    .text.efuse_res_write:000000000000003c .L0 
C:\Users\CYMR90~1\AppData\Local\Temp\cciNYDRP.s:692    .text.efuse_aes_key_write:000000000000003c .L0 
C:\Users\CYMR90~1\AppData\Local\Temp\cciNYDRP.s:738    .text.efuse_rotpk_key_write:0000000000000040 .L0 
C:\Users\CYMR90~1\AppData\Local\Temp\cciNYDRP.s:784    .text.efuse_user_data_write:0000000000000040 .L0 
C:\Users\CYMR90~1\AppData\Local\Temp\cciNYDRP.s:843    .text.efuse_res_read:0000000000000054 .L0 
C:\Users\CYMR90~1\AppData\Local\Temp\cciNYDRP.s:902    .text.efuse_aes_key_read:0000000000000054 .L0 
C:\Users\CYMR90~1\AppData\Local\Temp\cciNYDRP.s:961    .text.efuse_rotpk_key_read:0000000000000054 .L0 
C:\Users\CYMR90~1\AppData\Local\Temp\cciNYDRP.s:1020   .text.efuse_puid_read:0000000000000054 .L0 
C:\Users\CYMR90~1\AppData\Local\Temp\cciNYDRP.s:1079   .text.efuse_huk_key_read:0000000000000054 .L0 
C:\Users\CYMR90~1\AppData\Local\Temp\cciNYDRP.s:1138   .text.efuse_user_data_read:0000000000000054 .L0 
C:\Users\CYMR90~1\AppData\Local\Temp\cciNYDRP.s:1167   .text.efuse_boot_address_get:0000000000000018 .L0 
C:\Users\CYMR90~1\AppData\Local\Temp\cciNYDRP.s:1263   .text.efuse_lock_config:00000000000000b6 .L0 
C:\Users\CYMR90~1\AppData\Local\Temp\cciNYDRP.s:1305   .text.efuse_flag_get:000000000000002a .L0 
C:\Users\CYMR90~1\AppData\Local\Temp\cciNYDRP.s:1340   .text.efuse_flag_clear:000000000000002c .L0 
C:\Users\CYMR90~1\AppData\Local\Temp\cciNYDRP.s:1375   .text.efuse_interrupt_enable:000000000000002c .L0 
C:\Users\CYMR90~1\AppData\Local\Temp\cciNYDRP.s:1413   .text.efuse_interrupt_disable:0000000000000030 .L0 
C:\Users\CYMR90~1\AppData\Local\Temp\cciNYDRP.s:1455   .text.efuse_interrupt_flag_get:000000000000002a .L0 
C:\Users\CYMR90~1\AppData\Local\Temp\cciNYDRP.s:1490   .text.efuse_interrupt_flag_clear:000000000000002c .L0 
                     .debug_frame:0000000000000000 .L0 
C:\Users\CYMR90~1\AppData\Local\Temp\cciNYDRP.s:46     .text.efuse_read:000000000000003a .L2
C:\Users\CYMR90~1\AppData\Local\Temp\cciNYDRP.s:55     .text.efuse_read:0000000000000052 .L3
C:\Users\CYMR90~1\AppData\Local\Temp\cciNYDRP.s:59     .text.efuse_read:0000000000000056 .L4
C:\Users\CYMR90~1\AppData\Local\Temp\cciNYDRP.s:180    .text.efuse_read:000000000000015e .L5
C:\Users\CYMR90~1\AppData\Local\Temp\cciNYDRP.s:73     .text.efuse_read:0000000000000076 .L6
C:\Users\CYMR90~1\AppData\Local\Temp\cciNYDRP.s:90     .text.efuse_read:0000000000000096 .L7
C:\Users\CYMR90~1\AppData\Local\Temp\cciNYDRP.s:86     .text.efuse_read:0000000000000092 .L8
C:\Users\CYMR90~1\AppData\Local\Temp\cciNYDRP.s:132    .text.efuse_read:00000000000000fc .L9
C:\Users\CYMR90~1\AppData\Local\Temp\cciNYDRP.s:118    .text.efuse_read:00000000000000dc .L10
C:\Users\CYMR90~1\AppData\Local\Temp\cciNYDRP.s:139    .text.efuse_read:0000000000000106 .L11
C:\Users\CYMR90~1\AppData\Local\Temp\cciNYDRP.s:164    .text.efuse_read:0000000000000136 .L12
C:\Users\CYMR90~1\AppData\Local\Temp\cciNYDRP.s:144    .text.efuse_read:000000000000010c .L13
C:\Users\CYMR90~1\AppData\Local\Temp\cciNYDRP.s:231    .text.efuse_write:000000000000003a .L15
C:\Users\CYMR90~1\AppData\Local\Temp\cciNYDRP.s:240    .text.efuse_write:0000000000000052 .L16
C:\Users\CYMR90~1\AppData\Local\Temp\cciNYDRP.s:244    .text.efuse_write:0000000000000056 .L17
C:\Users\CYMR90~1\AppData\Local\Temp\cciNYDRP.s:402    .text.efuse_write:00000000000001c2 .L18
C:\Users\CYMR90~1\AppData\Local\Temp\cciNYDRP.s:256    .text.efuse_write:0000000000000072 .L19
C:\Users\CYMR90~1\AppData\Local\Temp\cciNYDRP.s:270    .text.efuse_write:0000000000000092 .L20
C:\Users\CYMR90~1\AppData\Local\Temp\cciNYDRP.s:286    .text.efuse_write:00000000000000b0 .L21
C:\Users\CYMR90~1\AppData\Local\Temp\cciNYDRP.s:279    .text.efuse_write:000000000000009e .L22
C:\Users\CYMR90~1\AppData\Local\Temp\cciNYDRP.s:338    .text.efuse_write:0000000000000128 .L23
C:\Users\CYMR90~1\AppData\Local\Temp\cciNYDRP.s:319    .text.efuse_write:0000000000000100 .L24
C:\Users\CYMR90~1\AppData\Local\Temp\cciNYDRP.s:365    .text.efuse_write:000000000000016a .L25
C:\Users\CYMR90~1\AppData\Local\Temp\cciNYDRP.s:351    .text.efuse_write:000000000000014c .L26
C:\Users\CYMR90~1\AppData\Local\Temp\cciNYDRP.s:372    .text.efuse_write:0000000000000174 .L27
C:\Users\CYMR90~1\AppData\Local\Temp\cciNYDRP.s:441    .text.efuse_boot_config:000000000000001e .L29
C:\Users\CYMR90~1\AppData\Local\Temp\cciNYDRP.s:448    .text.efuse_boot_config:0000000000000032 .L30
C:\Users\CYMR90~1\AppData\Local\Temp\cciNYDRP.s:487    .text.efuse_control1_config:000000000000001e .L32
C:\Users\CYMR90~1\AppData\Local\Temp\cciNYDRP.s:494    .text.efuse_control1_config:0000000000000032 .L33
C:\Users\CYMR90~1\AppData\Local\Temp\cciNYDRP.s:533    .text.efuse_fp_config:000000000000001e .L35
C:\Users\CYMR90~1\AppData\Local\Temp\cciNYDRP.s:540    .text.efuse_fp_config:0000000000000032 .L36
C:\Users\CYMR90~1\AppData\Local\Temp\cciNYDRP.s:579    .text.efuse_user_control_config:000000000000001e .L38
C:\Users\CYMR90~1\AppData\Local\Temp\cciNYDRP.s:586    .text.efuse_user_control_config:0000000000000032 .L39
C:\Users\CYMR90~1\AppData\Local\Temp\cciNYDRP.s:625    .text.efuse_res_write:000000000000001e .L41
C:\Users\CYMR90~1\AppData\Local\Temp\cciNYDRP.s:632    .text.efuse_res_write:0000000000000032 .L42
C:\Users\CYMR90~1\AppData\Local\Temp\cciNYDRP.s:671    .text.efuse_aes_key_write:000000000000001e .L44
C:\Users\CYMR90~1\AppData\Local\Temp\cciNYDRP.s:678    .text.efuse_aes_key_write:0000000000000032 .L45
C:\Users\CYMR90~1\AppData\Local\Temp\cciNYDRP.s:717    .text.efuse_rotpk_key_write:0000000000000020 .L47
C:\Users\CYMR90~1\AppData\Local\Temp\cciNYDRP.s:724    .text.efuse_rotpk_key_write:0000000000000036 .L48
C:\Users\CYMR90~1\AppData\Local\Temp\cciNYDRP.s:763    .text.efuse_user_data_write:0000000000000020 .L50
C:\Users\CYMR90~1\AppData\Local\Temp\cciNYDRP.s:770    .text.efuse_user_data_write:0000000000000036 .L51
C:\Users\CYMR90~1\AppData\Local\Temp\cciNYDRP.s:826    .text.efuse_res_read:0000000000000040 .L53
C:\Users\CYMR90~1\AppData\Local\Temp\cciNYDRP.s:805    .text.efuse_res_read:0000000000000014 .L54
C:\Users\CYMR90~1\AppData\Local\Temp\cciNYDRP.s:885    .text.efuse_aes_key_read:0000000000000040 .L56
C:\Users\CYMR90~1\AppData\Local\Temp\cciNYDRP.s:864    .text.efuse_aes_key_read:0000000000000014 .L57
C:\Users\CYMR90~1\AppData\Local\Temp\cciNYDRP.s:944    .text.efuse_rotpk_key_read:0000000000000040 .L59
C:\Users\CYMR90~1\AppData\Local\Temp\cciNYDRP.s:923    .text.efuse_rotpk_key_read:0000000000000014 .L60
C:\Users\CYMR90~1\AppData\Local\Temp\cciNYDRP.s:1003   .text.efuse_puid_read:0000000000000040 .L62
C:\Users\CYMR90~1\AppData\Local\Temp\cciNYDRP.s:982    .text.efuse_puid_read:0000000000000014 .L63
C:\Users\CYMR90~1\AppData\Local\Temp\cciNYDRP.s:1062   .text.efuse_huk_key_read:0000000000000040 .L65
C:\Users\CYMR90~1\AppData\Local\Temp\cciNYDRP.s:1041   .text.efuse_huk_key_read:0000000000000014 .L66
C:\Users\CYMR90~1\AppData\Local\Temp\cciNYDRP.s:1121   .text.efuse_user_data_read:0000000000000040 .L68
C:\Users\CYMR90~1\AppData\Local\Temp\cciNYDRP.s:1100   .text.efuse_user_data_read:0000000000000014 .L69
C:\Users\CYMR90~1\AppData\Local\Temp\cciNYDRP.s:1199   .text.efuse_lock_config:0000000000000032 .L73
C:\Users\CYMR90~1\AppData\Local\Temp\cciNYDRP.s:1249   .text.efuse_lock_config:00000000000000ac .L78
C:\Users\CYMR90~1\AppData\Local\Temp\cciNYDRP.s:1212   .text.efuse_lock_config:0000000000000050 .L75
C:\Users\CYMR90~1\AppData\Local\Temp\cciNYDRP.s:1225   .text.efuse_lock_config:0000000000000070 .L76
C:\Users\CYMR90~1\AppData\Local\Temp\cciNYDRP.s:1238   .text.efuse_lock_config:0000000000000090 .L77
C:\Users\CYMR90~1\AppData\Local\Temp\cciNYDRP.s:1290   .text.efuse_flag_get:0000000000000020 .L80
C:\Users\CYMR90~1\AppData\Local\Temp\cciNYDRP.s:1293   .text.efuse_flag_get:0000000000000022 .L81
C:\Users\CYMR90~1\AppData\Local\Temp\cciNYDRP.s:1440   .text.efuse_interrupt_flag_get:0000000000000020 .L86
C:\Users\CYMR90~1\AppData\Local\Temp\cciNYDRP.s:1443   .text.efuse_interrupt_flag_get:0000000000000022 .L87
C:\Users\CYMR90~1\AppData\Local\Temp\cciNYDRP.s:2507   .debug_abbrev:0000000000000000 .Ldebug_abbrev0
C:\Users\CYMR90~1\AppData\Local\Temp\cciNYDRP.s:23426  .debug_str:000000000000acc7 .LASF5636
C:\Users\CYMR90~1\AppData\Local\Temp\cciNYDRP.s:23076  .debug_str:0000000000009678 .LASF5637
C:\Users\CYMR90~1\AppData\Local\Temp\cciNYDRP.s:23734  .debug_str:000000000000c1ad .LASF5638
C:\Users\CYMR90~1\AppData\Local\Temp\cciNYDRP.s:3012   .debug_ranges:0000000000000000 .Ldebug_ranges0
C:\Users\CYMR90~1\AppData\Local\Temp\cciNYDRP.s:20700  .debug_line:0000000000000000 .Ldebug_line0
C:\Users\CYMR90~1\AppData\Local\Temp\cciNYDRP.s:3064   .debug_macro:0000000000000000 .Ldebug_macro0
C:\Users\CYMR90~1\AppData\Local\Temp\cciNYDRP.s:31939  .debug_str:000000000002cecb .LASF5556
C:\Users\CYMR90~1\AppData\Local\Temp\cciNYDRP.s:20720  .debug_str:0000000000000145 .LASF5557
C:\Users\CYMR90~1\AppData\Local\Temp\cciNYDRP.s:21624  .debug_str:0000000000003970 .LASF5558
C:\Users\CYMR90~1\AppData\Local\Temp\cciNYDRP.s:26809  .debug_str:00000000000186fe .LASF5559
C:\Users\CYMR90~1\AppData\Local\Temp\cciNYDRP.s:22910  .debug_str:0000000000008ccc .LASF5564
C:\Users\CYMR90~1\AppData\Local\Temp\cciNYDRP.s:26262  .debug_str:0000000000016368 .LASF5560
C:\Users\CYMR90~1\AppData\Local\Temp\cciNYDRP.s:28127  .debug_str:000000000001de66 .LASF5561
C:\Users\CYMR90~1\AppData\Local\Temp\cciNYDRP.s:25732  .debug_str:0000000000014290 .LASF5562
C:\Users\CYMR90~1\AppData\Local\Temp\cciNYDRP.s:28539  .debug_str:000000000001f6e7 .LASF5563
C:\Users\CYMR90~1\AppData\Local\Temp\cciNYDRP.s:27015  .debug_str:0000000000019515 .LASF5565
C:\Users\CYMR90~1\AppData\Local\Temp\cciNYDRP.s:20830  .debug_str:0000000000000776 .LASF5566
C:\Users\CYMR90~1\AppData\Local\Temp\cciNYDRP.s:30099  .debug_str:0000000000025995 .LASF5567
C:\Users\CYMR90~1\AppData\Local\Temp\cciNYDRP.s:28561  .debug_str:000000000001f851 .LASF855
C:\Users\CYMR90~1\AppData\Local\Temp\cciNYDRP.s:26026  .debug_str:00000000000154c2 .LASF5568
C:\Users\CYMR90~1\AppData\Local\Temp\cciNYDRP.s:30215  .debug_str:00000000000260a8 .LASF5569
C:\Users\CYMR90~1\AppData\Local\Temp\cciNYDRP.s:29789  .debug_str:000000000002439e .LASF5570
C:\Users\CYMR90~1\AppData\Local\Temp\cciNYDRP.s:23280  .debug_str:000000000000a3cf .LASF5571
C:\Users\CYMR90~1\AppData\Local\Temp\cciNYDRP.s:28337  .debug_str:000000000001eabb .LASF5572
C:\Users\CYMR90~1\AppData\Local\Temp\cciNYDRP.s:25580  .debug_str:0000000000013943 .LASF5573
C:\Users\CYMR90~1\AppData\Local\Temp\cciNYDRP.s:31915  .debug_str:000000000002cd3a .LASF5574
C:\Users\CYMR90~1\AppData\Local\Temp\cciNYDRP.s:20742  .debug_str:000000000000027c .LASF5575
C:\Users\CYMR90~1\AppData\Local\Temp\cciNYDRP.s:30895  .debug_str:0000000000028c5f .LASF5576
C:\Users\CYMR90~1\AppData\Local\Temp\cciNYDRP.s:29559  .debug_str:0000000000023493 .LASF5577
C:\Users\CYMR90~1\AppData\Local\Temp\cciNYDRP.s:21234  .debug_str:0000000000002003 .LASF5578
C:\Users\CYMR90~1\AppData\Local\Temp\cciNYDRP.s:21872  .debug_str:0000000000004a00 .LASF5579
C:\Users\CYMR90~1\AppData\Local\Temp\cciNYDRP.s:27533  .debug_str:000000000001b7f5 .LASF5580
C:\Users\CYMR90~1\AppData\Local\Temp\cciNYDRP.s:23290  .debug_str:000000000000a433 .LASF5581
C:\Users\CYMR90~1\AppData\Local\Temp\cciNYDRP.s:26455  .debug_str:00000000000171e1 .LASF5582
C:\Users\CYMR90~1\AppData\Local\Temp\cciNYDRP.s:27129  .debug_str:0000000000019cd4 .LASF5583
C:\Users\CYMR90~1\AppData\Local\Temp\cciNYDRP.s:27339  .debug_str:000000000001ab92 .LASF5584
C:\Users\CYMR90~1\AppData\Local\Temp\cciNYDRP.s:31731  .debug_str:000000000002c0cb .LASF5585
C:\Users\CYMR90~1\AppData\Local\Temp\cciNYDRP.s:29177  .debug_str:0000000000021e6f .LASF5586
C:\Users\CYMR90~1\AppData\Local\Temp\cciNYDRP.s:29717  .debug_str:0000000000023e0d .LASF5587
C:\Users\CYMR90~1\AppData\Local\Temp\cciNYDRP.s:27411  .debug_str:000000000001b034 .LASF5588
C:\Users\CYMR90~1\AppData\Local\Temp\cciNYDRP.s:23514  .debug_str:000000000000b297 .LASF5589
C:\Users\CYMR90~1\AppData\Local\Temp\cciNYDRP.s:27287  .debug_str:000000000001a83a .LASF5590
C:\Users\CYMR90~1\AppData\Local\Temp\cciNYDRP.s:27583  .debug_str:000000000001ba65 .LASF5591
C:\Users\CYMR90~1\AppData\Local\Temp\cciNYDRP.s:27409  .debug_str:000000000001b025 .LASF5592
C:\Users\CYMR90~1\AppData\Local\Temp\cciNYDRP.s:29783  .debug_str:000000000002434d .LASF5593
C:\Users\CYMR90~1\AppData\Local\Temp\cciNYDRP.s:26254  .debug_str:00000000000162fb .LASF5594
C:\Users\CYMR90~1\AppData\Local\Temp\cciNYDRP.s:30823  .debug_str:000000000002884c .LASF5595
C:\Users\CYMR90~1\AppData\Local\Temp\cciNYDRP.s:22434  .debug_str:0000000000006c73 .LASF5596
C:\Users\CYMR90~1\AppData\Local\Temp\cciNYDRP.s:31531  .debug_str:000000000002b333 .LASF5597
C:\Users\CYMR90~1\AppData\Local\Temp\cciNYDRP.s:25700  .debug_str:0000000000014087 .LASF5598
C:\Users\CYMR90~1\AppData\Local\Temp\cciNYDRP.s:22792  .debug_str:00000000000084d0 .LASF5599
C:\Users\CYMR90~1\AppData\Local\Temp\cciNYDRP.s:27729  .debug_str:000000000001c388 .LASF5600
C:\Users\CYMR90~1\AppData\Local\Temp\cciNYDRP.s:29413  .debug_str:0000000000022c34 .LASF5602
C:\Users\CYMR90~1\AppData\Local\Temp\cciNYDRP.s:1460   .text.efuse_interrupt_flag_clear:0000000000000000 .LFB370
C:\Users\CYMR90~1\AppData\Local\Temp\cciNYDRP.s:1488   .text.efuse_interrupt_flag_clear:000000000000002c .LFE370
C:\Users\CYMR90~1\AppData\Local\Temp\cciNYDRP.s:25768  .debug_str:0000000000014476 .LASF5601
C:\Users\CYMR90~1\AppData\Local\Temp\cciNYDRP.s:29119  .debug_str:0000000000021ade .LASF5608
C:\Users\CYMR90~1\AppData\Local\Temp\cciNYDRP.s:1418   .text.efuse_interrupt_flag_get:0000000000000000 .LFB369
C:\Users\CYMR90~1\AppData\Local\Temp\cciNYDRP.s:1453   .text.efuse_interrupt_flag_get:000000000000002a .LFE369
C:\Users\CYMR90~1\AppData\Local\Temp\cciNYDRP.s:24096  .debug_str:000000000000d9ee .LASF5603
C:\Users\CYMR90~1\AppData\Local\Temp\cciNYDRP.s:1380   .text.efuse_interrupt_disable:0000000000000000 .LFB368
C:\Users\CYMR90~1\AppData\Local\Temp\cciNYDRP.s:1411   .text.efuse_interrupt_disable:0000000000000030 .LFE368
C:\Users\CYMR90~1\AppData\Local\Temp\cciNYDRP.s:27757  .debug_str:000000000001c4f7 .LASF5604
C:\Users\CYMR90~1\AppData\Local\Temp\cciNYDRP.s:23342  .debug_str:000000000000a745 .LASF5605
C:\Users\CYMR90~1\AppData\Local\Temp\cciNYDRP.s:1345   .text.efuse_interrupt_enable:0000000000000000 .LFB367
C:\Users\CYMR90~1\AppData\Local\Temp\cciNYDRP.s:1373   .text.efuse_interrupt_enable:000000000000002c .LFE367
C:\Users\CYMR90~1\AppData\Local\Temp\cciNYDRP.s:27999  .debug_str:000000000001d635 .LASF5606
C:\Users\CYMR90~1\AppData\Local\Temp\cciNYDRP.s:1310   .text.efuse_flag_clear:0000000000000000 .LFB366
C:\Users\CYMR90~1\AppData\Local\Temp\cciNYDRP.s:1338   .text.efuse_flag_clear:000000000000002c .LFE366
C:\Users\CYMR90~1\AppData\Local\Temp\cciNYDRP.s:23268  .debug_str:000000000000a2ff .LASF5607
C:\Users\CYMR90~1\AppData\Local\Temp\cciNYDRP.s:29411  .debug_str:0000000000022c25 .LASF5609
C:\Users\CYMR90~1\AppData\Local\Temp\cciNYDRP.s:1268   .text.efuse_flag_get:0000000000000000 .LFB365
C:\Users\CYMR90~1\AppData\Local\Temp\cciNYDRP.s:1303   .text.efuse_flag_get:000000000000002a .LFE365
C:\Users\CYMR90~1\AppData\Local\Temp\cciNYDRP.s:27905  .debug_str:000000000001d02c .LASF5610
C:\Users\CYMR90~1\AppData\Local\Temp\cciNYDRP.s:1172   .text.efuse_lock_config:0000000000000000 .LFB364
C:\Users\CYMR90~1\AppData\Local\Temp\cciNYDRP.s:1261   .text.efuse_lock_config:00000000000000b6 .LFE364
C:\Users\CYMR90~1\AppData\Local\Temp\cciNYDRP.s:26859  .debug_str:0000000000018a3f .LASF5612
C:\Users\CYMR90~1\AppData\Local\Temp\cciNYDRP.s:21668  .debug_str:0000000000003c1f .LASF5639
C:\Users\CYMR90~1\AppData\Local\Temp\cciNYDRP.s:1143   .text.efuse_boot_address_get:0000000000000000 .LFB363
C:\Users\CYMR90~1\AppData\Local\Temp\cciNYDRP.s:1165   .text.efuse_boot_address_get:0000000000000018 .LFE363
C:\Users\CYMR90~1\AppData\Local\Temp\cciNYDRP.s:28697  .debug_str:0000000000020088 .LASF5611
C:\Users\CYMR90~1\AppData\Local\Temp\cciNYDRP.s:1084   .text.efuse_user_data_read:0000000000000000 .LFB362
C:\Users\CYMR90~1\AppData\Local\Temp\cciNYDRP.s:1136   .text.efuse_user_data_read:0000000000000054 .LFE362
C:\Users\CYMR90~1\AppData\Local\Temp\cciNYDRP.s:29485  .debug_str:000000000002300b .LASF5613
C:\Users\CYMR90~1\AppData\Local\Temp\cciNYDRP.s:1025   .text.efuse_huk_key_read:0000000000000000 .LFB361
C:\Users\CYMR90~1\AppData\Local\Temp\cciNYDRP.s:1077   .text.efuse_huk_key_read:0000000000000054 .LFE361
C:\Users\CYMR90~1\AppData\Local\Temp\cciNYDRP.s:23244  .debug_str:000000000000a16b .LASF5614
C:\Users\CYMR90~1\AppData\Local\Temp\cciNYDRP.s:966    .text.efuse_puid_read:0000000000000000 .LFB360
C:\Users\CYMR90~1\AppData\Local\Temp\cciNYDRP.s:1018   .text.efuse_puid_read:0000000000000054 .LFE360
C:\Users\CYMR90~1\AppData\Local\Temp\cciNYDRP.s:24794  .debug_str:000000000001051a .LASF5615
C:\Users\CYMR90~1\AppData\Local\Temp\cciNYDRP.s:907    .text.efuse_rotpk_key_read:0000000000000000 .LFB359
C:\Users\CYMR90~1\AppData\Local\Temp\cciNYDRP.s:959    .text.efuse_rotpk_key_read:0000000000000054 .LFE359
C:\Users\CYMR90~1\AppData\Local\Temp\cciNYDRP.s:30523  .debug_str:0000000000027430 .LASF5616
C:\Users\CYMR90~1\AppData\Local\Temp\cciNYDRP.s:848    .text.efuse_aes_key_read:0000000000000000 .LFB358
C:\Users\CYMR90~1\AppData\Local\Temp\cciNYDRP.s:900    .text.efuse_aes_key_read:0000000000000054 .LFE358
C:\Users\CYMR90~1\AppData\Local\Temp\cciNYDRP.s:27233  .debug_str:000000000001a478 .LASF5617
C:\Users\CYMR90~1\AppData\Local\Temp\cciNYDRP.s:789    .text.efuse_res_read:0000000000000000 .LFB357
C:\Users\CYMR90~1\AppData\Local\Temp\cciNYDRP.s:841    .text.efuse_res_read:0000000000000054 .LFE357
C:\Users\CYMR90~1\AppData\Local\Temp\cciNYDRP.s:29121  .debug_str:0000000000021af7 .LASF5618
C:\Users\CYMR90~1\AppData\Local\Temp\cciNYDRP.s:743    .text.efuse_user_data_write:0000000000000000 .LFB356
C:\Users\CYMR90~1\AppData\Local\Temp\cciNYDRP.s:782    .text.efuse_user_data_write:0000000000000040 .LFE356
C:\Users\CYMR90~1\AppData\Local\Temp\cciNYDRP.s:22046  .debug_str:0000000000005451 .LASF5619
C:\Users\CYMR90~1\AppData\Local\Temp\cciNYDRP.s:29319  .debug_str:0000000000022694 .LASF5620
C:\Users\CYMR90~1\AppData\Local\Temp\cciNYDRP.s:697    .text.efuse_rotpk_key_write:0000000000000000 .LFB355
C:\Users\CYMR90~1\AppData\Local\Temp\cciNYDRP.s:736    .text.efuse_rotpk_key_write:0000000000000040 .LFE355
C:\Users\CYMR90~1\AppData\Local\Temp\cciNYDRP.s:26469  .debug_str:000000000001729e .LASF5621
C:\Users\CYMR90~1\AppData\Local\Temp\cciNYDRP.s:651    .text.efuse_aes_key_write:0000000000000000 .LFB354
C:\Users\CYMR90~1\AppData\Local\Temp\cciNYDRP.s:690    .text.efuse_aes_key_write:000000000000003c .LFE354
C:\Users\CYMR90~1\AppData\Local\Temp\cciNYDRP.s:23694  .debug_str:000000000000bf4d .LASF5622
C:\Users\CYMR90~1\AppData\Local\Temp\cciNYDRP.s:605    .text.efuse_res_write:0000000000000000 .LFB353
C:\Users\CYMR90~1\AppData\Local\Temp\cciNYDRP.s:644    .text.efuse_res_write:000000000000003c .LFE353
C:\Users\CYMR90~1\AppData\Local\Temp\cciNYDRP.s:26655  .debug_str:0000000000017dfc .LASF5623
C:\Users\CYMR90~1\AppData\Local\Temp\cciNYDRP.s:559    .text.efuse_user_control_config:0000000000000000 .LFB352
C:\Users\CYMR90~1\AppData\Local\Temp\cciNYDRP.s:598    .text.efuse_user_control_config:000000000000003c .LFE352
C:\Users\CYMR90~1\AppData\Local\Temp\cciNYDRP.s:29211  .debug_str:0000000000022066 .LASF5624
C:\Users\CYMR90~1\AppData\Local\Temp\cciNYDRP.s:21968  .debug_str:0000000000004fc3 .LASF5625
C:\Users\CYMR90~1\AppData\Local\Temp\cciNYDRP.s:513    .text.efuse_fp_config:0000000000000000 .LFB351
C:\Users\CYMR90~1\AppData\Local\Temp\cciNYDRP.s:552    .text.efuse_fp_config:000000000000003c .LFE351
C:\Users\CYMR90~1\AppData\Local\Temp\cciNYDRP.s:20832  .debug_str:0000000000000788 .LASF5626
C:\Users\CYMR90~1\AppData\Local\Temp\cciNYDRP.s:24172  .debug_str:000000000000de7c .LASF5627
C:\Users\CYMR90~1\AppData\Local\Temp\cciNYDRP.s:467    .text.efuse_control1_config:0000000000000000 .LFB350
C:\Users\CYMR90~1\AppData\Local\Temp\cciNYDRP.s:506    .text.efuse_control1_config:000000000000003c .LFE350
C:\Users\CYMR90~1\AppData\Local\Temp\cciNYDRP.s:28797  .debug_str:0000000000020723 .LASF5628
C:\Users\CYMR90~1\AppData\Local\Temp\cciNYDRP.s:421    .text.efuse_boot_config:0000000000000000 .LFB349
C:\Users\CYMR90~1\AppData\Local\Temp\cciNYDRP.s:460    .text.efuse_boot_config:000000000000003c .LFE349
C:\Users\CYMR90~1\AppData\Local\Temp\cciNYDRP.s:27125  .debug_str:0000000000019ca5 .LASF5629
C:\Users\CYMR90~1\AppData\Local\Temp\cciNYDRP.s:20746  .debug_str:00000000000002af .LASF5630
C:\Users\CYMR90~1\AppData\Local\Temp\cciNYDRP.s:199    .text.efuse_write:0000000000000000 .LFB348
C:\Users\CYMR90~1\AppData\Local\Temp\cciNYDRP.s:414    .text.efuse_write:00000000000001cc .LFE348
C:\Users\CYMR90~1\AppData\Local\Temp\cciNYDRP.s:21740  .debug_str:000000000000411f .LASF5631
C:\Users\CYMR90~1\AppData\Local\Temp\cciNYDRP.s:31415  .debug_str:000000000002abb4 .LASF5632
C:\Users\CYMR90~1\AppData\Local\Temp\cciNYDRP.s:28297  .debug_str:000000000001e894 .LASF5633
C:\Users\CYMR90~1\AppData\Local\Temp\cciNYDRP.s:26142  .debug_str:0000000000015bcb .LASF5634
C:\Users\CYMR90~1\AppData\Local\Temp\cciNYDRP.s:26178  .debug_str:0000000000015e1f .LASF5635
C:\Users\CYMR90~1\AppData\Local\Temp\cciNYDRP.s:14     .text.efuse_read:0000000000000000 .LFB347
C:\Users\CYMR90~1\AppData\Local\Temp\cciNYDRP.s:192    .text.efuse_read:0000000000000168 .LFE347
C:\Users\CYMR90~1\AppData\Local\Temp\cciNYDRP.s:1497   .debug_info:0000000000000000 .Ldebug_info0
C:\Users\CYMR90~1\AppData\Local\Temp\cciNYDRP.s:3685   .debug_macro:0000000000000000 .Ldebug_macro2
C:\Users\CYMR90~1\AppData\Local\Temp\cciNYDRP.s:22026  .debug_str:0000000000005353 .LASF314
C:\Users\CYMR90~1\AppData\Local\Temp\cciNYDRP.s:26431  .debug_str:000000000001707b .LASF315
C:\Users\CYMR90~1\AppData\Local\Temp\cciNYDRP.s:4632   .debug_macro:0000000000000000 .Ldebug_macro3
C:\Users\CYMR90~1\AppData\Local\Temp\cciNYDRP.s:22858  .debug_str:0000000000008911 .LASF369
C:\Users\CYMR90~1\AppData\Local\Temp\cciNYDRP.s:22420  .debug_str:0000000000006b89 .LASF370
C:\Users\CYMR90~1\AppData\Local\Temp\cciNYDRP.s:26685  .debug_str:0000000000017faf .LASF371
C:\Users\CYMR90~1\AppData\Local\Temp\cciNYDRP.s:4796   .debug_macro:0000000000000000 .Ldebug_macro4
C:\Users\CYMR90~1\AppData\Local\Temp\cciNYDRP.s:4816   .debug_macro:0000000000000000 .Ldebug_macro5
C:\Users\CYMR90~1\AppData\Local\Temp\cciNYDRP.s:25328  .debug_str:000000000001287c .LASF390
C:\Users\CYMR90~1\AppData\Local\Temp\cciNYDRP.s:4860   .debug_macro:0000000000000000 .Ldebug_macro6
C:\Users\CYMR90~1\AppData\Local\Temp\cciNYDRP.s:4874   .debug_macro:0000000000000000 .Ldebug_macro7
C:\Users\CYMR90~1\AppData\Local\Temp\cciNYDRP.s:4942   .debug_macro:0000000000000000 .Ldebug_macro8
C:\Users\CYMR90~1\AppData\Local\Temp\cciNYDRP.s:4968   .debug_macro:0000000000000000 .Ldebug_macro9
C:\Users\CYMR90~1\AppData\Local\Temp\cciNYDRP.s:4997   .debug_macro:0000000000000000 .Ldebug_macro10
C:\Users\CYMR90~1\AppData\Local\Temp\cciNYDRP.s:26821  .debug_str:00000000000187df .LASF433
C:\Users\CYMR90~1\AppData\Local\Temp\cciNYDRP.s:5011   .debug_macro:0000000000000000 .Ldebug_macro11
C:\Users\CYMR90~1\AppData\Local\Temp\cciNYDRP.s:5055   .debug_macro:0000000000000000 .Ldebug_macro12
C:\Users\CYMR90~1\AppData\Local\Temp\cciNYDRP.s:5081   .debug_macro:0000000000000000 .Ldebug_macro13
C:\Users\CYMR90~1\AppData\Local\Temp\cciNYDRP.s:30375  .debug_str:0000000000026a87 .LASF569
C:\Users\CYMR90~1\AppData\Local\Temp\cciNYDRP.s:5452   .debug_macro:0000000000000000 .Ldebug_macro14
C:\Users\CYMR90~1\AppData\Local\Temp\cciNYDRP.s:24856  .debug_str:0000000000010939 .LASF572
C:\Users\CYMR90~1\AppData\Local\Temp\cciNYDRP.s:29713  .debug_str:0000000000023de6 .LASF573
C:\Users\CYMR90~1\AppData\Local\Temp\cciNYDRP.s:5463   .debug_macro:0000000000000000 .Ldebug_macro15
C:\Users\CYMR90~1\AppData\Local\Temp\cciNYDRP.s:5477   .debug_macro:0000000000000000 .Ldebug_macro16
C:\Users\CYMR90~1\AppData\Local\Temp\cciNYDRP.s:22588  .debug_str:000000000000768f .LASF578
C:\Users\CYMR90~1\AppData\Local\Temp\cciNYDRP.s:5509   .debug_macro:0000000000000000 .Ldebug_macro17
C:\Users\CYMR90~1\AppData\Local\Temp\cciNYDRP.s:5535   .debug_macro:0000000000000000 .Ldebug_macro18
C:\Users\CYMR90~1\AppData\Local\Temp\cciNYDRP.s:5546   .debug_macro:0000000000000000 .Ldebug_macro19
C:\Users\CYMR90~1\AppData\Local\Temp\cciNYDRP.s:5590   .debug_macro:0000000000000000 .Ldebug_macro20
C:\Users\CYMR90~1\AppData\Local\Temp\cciNYDRP.s:5760   .debug_macro:0000000000000000 .Ldebug_macro21
C:\Users\CYMR90~1\AppData\Local\Temp\cciNYDRP.s:5771   .debug_macro:0000000000000000 .Ldebug_macro22
C:\Users\CYMR90~1\AppData\Local\Temp\cciNYDRP.s:25334  .debug_str:00000000000128d5 .LASF675
C:\Users\CYMR90~1\AppData\Local\Temp\cciNYDRP.s:5827   .debug_macro:0000000000000000 .Ldebug_macro23
C:\Users\CYMR90~1\AppData\Local\Temp\cciNYDRP.s:5844   .debug_macro:0000000000000000 .Ldebug_macro24
C:\Users\CYMR90~1\AppData\Local\Temp\cciNYDRP.s:28531  .debug_str:000000000001f677 .LASF693
C:\Users\CYMR90~1\AppData\Local\Temp\cciNYDRP.s:26691  .debug_str:0000000000017fe0 .LASF694
C:\Users\CYMR90~1\AppData\Local\Temp\cciNYDRP.s:5888   .debug_macro:0000000000000000 .Ldebug_macro25
C:\Users\CYMR90~1\AppData\Local\Temp\cciNYDRP.s:21886  .debug_str:0000000000004ad8 .LASF700
C:\Users\CYMR90~1\AppData\Local\Temp\cciNYDRP.s:23002  .debug_str:0000000000009204 .LASF701
C:\Users\CYMR90~1\AppData\Local\Temp\cciNYDRP.s:5908   .debug_macro:0000000000000000 .Ldebug_macro26
C:\Users\CYMR90~1\AppData\Local\Temp\cciNYDRP.s:5919   .debug_macro:0000000000000000 .Ldebug_macro27
C:\Users\CYMR90~1\AppData\Local\Temp\cciNYDRP.s:5963   .debug_macro:0000000000000000 .Ldebug_macro28
C:\Users\CYMR90~1\AppData\Local\Temp\cciNYDRP.s:29137  .debug_str:0000000000021bf9 .LASF749
C:\Users\CYMR90~1\AppData\Local\Temp\cciNYDRP.s:6064   .debug_macro:0000000000000000 .Ldebug_macro29
C:\Users\CYMR90~1\AppData\Local\Temp\cciNYDRP.s:6081   .debug_macro:0000000000000000 .Ldebug_macro30
C:\Users\CYMR90~1\AppData\Local\Temp\cciNYDRP.s:20770  .debug_str:0000000000000410 .LASF763
C:\Users\CYMR90~1\AppData\Local\Temp\cciNYDRP.s:22060  .debug_str:0000000000005549 .LASF764
C:\Users\CYMR90~1\AppData\Local\Temp\cciNYDRP.s:6113   .debug_macro:0000000000000000 .Ldebug_macro31
C:\Users\CYMR90~1\AppData\Local\Temp\cciNYDRP.s:6127   .debug_macro:0000000000000000 .Ldebug_macro32
C:\Users\CYMR90~1\AppData\Local\Temp\cciNYDRP.s:6297   .debug_macro:0000000000000000 .Ldebug_macro33
C:\Users\CYMR90~1\AppData\Local\Temp\cciNYDRP.s:24518  .debug_str:000000000000f380 .LASF850
C:\Users\CYMR90~1\AppData\Local\Temp\cciNYDRP.s:26909  .debug_str:0000000000018dff .LASF851
C:\Users\CYMR90~1\AppData\Local\Temp\cciNYDRP.s:6383   .debug_macro:0000000000000000 .Ldebug_macro34
C:\Users\CYMR90~1\AppData\Local\Temp\cciNYDRP.s:6508   .debug_macro:0000000000000000 .Ldebug_macro35
C:\Users\CYMR90~1\AppData\Local\Temp\cciNYDRP.s:21042  .debug_str:0000000000001468 .LASF951
C:\Users\CYMR90~1\AppData\Local\Temp\cciNYDRP.s:6720   .debug_macro:0000000000000000 .Ldebug_macro36
C:\Users\CYMR90~1\AppData\Local\Temp\cciNYDRP.s:22744  .debug_str:000000000000821d .LASF957
C:\Users\CYMR90~1\AppData\Local\Temp\cciNYDRP.s:22298  .debug_str:00000000000063c1 .LASF958
C:\Users\CYMR90~1\AppData\Local\Temp\cciNYDRP.s:21200  .debug_str:0000000000001e70 .LASF959
C:\Users\CYMR90~1\AppData\Local\Temp\cciNYDRP.s:6740   .debug_macro:0000000000000000 .Ldebug_macro37
C:\Users\CYMR90~1\AppData\Local\Temp\cciNYDRP.s:6832   .debug_macro:0000000000000000 .Ldebug_macro38
C:\Users\CYMR90~1\AppData\Local\Temp\cciNYDRP.s:8478   .debug_macro:0000000000000000 .Ldebug_macro39
C:\Users\CYMR90~1\AppData\Local\Temp\cciNYDRP.s:8570   .debug_macro:0000000000000000 .Ldebug_macro40
C:\Users\CYMR90~1\AppData\Local\Temp\cciNYDRP.s:8626   .debug_macro:0000000000000000 .Ldebug_macro41
C:\Users\CYMR90~1\AppData\Local\Temp\cciNYDRP.s:8640   .debug_macro:0000000000000000 .Ldebug_macro42
C:\Users\CYMR90~1\AppData\Local\Temp\cciNYDRP.s:26224  .debug_str:000000000001613f .LASF1655
C:\Users\CYMR90~1\AppData\Local\Temp\cciNYDRP.s:23124  .debug_str:0000000000009a1b .LASF1656
C:\Users\CYMR90~1\AppData\Local\Temp\cciNYDRP.s:8864   .debug_macro:0000000000000000 .Ldebug_macro43
C:\Users\CYMR90~1\AppData\Local\Temp\cciNYDRP.s:8911   .debug_macro:0000000000000000 .Ldebug_macro44
C:\Users\CYMR90~1\AppData\Local\Temp\cciNYDRP.s:9066   .debug_macro:0000000000000000 .Ldebug_macro45
C:\Users\CYMR90~1\AppData\Local\Temp\cciNYDRP.s:9122   .debug_macro:0000000000000000 .Ldebug_macro46
C:\Users\CYMR90~1\AppData\Local\Temp\cciNYDRP.s:9133   .debug_macro:0000000000000000 .Ldebug_macro47
C:\Users\CYMR90~1\AppData\Local\Temp\cciNYDRP.s:31167  .debug_str:0000000000029d06 .LASF1782
C:\Users\CYMR90~1\AppData\Local\Temp\cciNYDRP.s:25984  .debug_str:0000000000015287 .LASF1783
C:\Users\CYMR90~1\AppData\Local\Temp\cciNYDRP.s:9264   .debug_macro:0000000000000000 .Ldebug_macro48
C:\Users\CYMR90~1\AppData\Local\Temp\cciNYDRP.s:9836   .debug_macro:0000000000000000 .Ldebug_macro49
C:\Users\CYMR90~1\AppData\Local\Temp\cciNYDRP.s:10123  .debug_macro:0000000000000000 .Ldebug_macro50
C:\Users\CYMR90~1\AppData\Local\Temp\cciNYDRP.s:10152  .debug_macro:0000000000000000 .Ldebug_macro51
C:\Users\CYMR90~1\AppData\Local\Temp\cciNYDRP.s:10229  .debug_macro:0000000000000000 .Ldebug_macro52
C:\Users\CYMR90~1\AppData\Local\Temp\cciNYDRP.s:10762  .debug_macro:0000000000000000 .Ldebug_macro53
C:\Users\CYMR90~1\AppData\Local\Temp\cciNYDRP.s:10785  .debug_macro:0000000000000000 .Ldebug_macro54
C:\Users\CYMR90~1\AppData\Local\Temp\cciNYDRP.s:11264  .debug_macro:0000000000000000 .Ldebug_macro55
C:\Users\CYMR90~1\AppData\Local\Temp\cciNYDRP.s:11593  .debug_macro:0000000000000000 .Ldebug_macro56
C:\Users\CYMR90~1\AppData\Local\Temp\cciNYDRP.s:11682  .debug_macro:0000000000000000 .Ldebug_macro57
C:\Users\CYMR90~1\AppData\Local\Temp\cciNYDRP.s:12497  .debug_macro:0000000000000000 .Ldebug_macro58
C:\Users\CYMR90~1\AppData\Local\Temp\cciNYDRP.s:12688  .debug_macro:0000000000000000 .Ldebug_macro59
C:\Users\CYMR90~1\AppData\Local\Temp\cciNYDRP.s:13191  .debug_macro:0000000000000000 .Ldebug_macro60
C:\Users\CYMR90~1\AppData\Local\Temp\cciNYDRP.s:13337  .debug_macro:0000000000000000 .Ldebug_macro61
C:\Users\CYMR90~1\AppData\Local\Temp\cciNYDRP.s:13867  .debug_macro:0000000000000000 .Ldebug_macro62
C:\Users\CYMR90~1\AppData\Local\Temp\cciNYDRP.s:14289  .debug_macro:0000000000000000 .Ldebug_macro63
C:\Users\CYMR90~1\AppData\Local\Temp\cciNYDRP.s:17063  .debug_macro:0000000000000000 .Ldebug_macro64
C:\Users\CYMR90~1\AppData\Local\Temp\cciNYDRP.s:18139  .debug_macro:0000000000000000 .Ldebug_macro65
C:\Users\CYMR90~1\AppData\Local\Temp\cciNYDRP.s:18408  .debug_macro:0000000000000000 .Ldebug_macro66
C:\Users\CYMR90~1\AppData\Local\Temp\cciNYDRP.s:18680  .debug_macro:0000000000000000 .Ldebug_macro67
C:\Users\CYMR90~1\AppData\Local\Temp\cciNYDRP.s:19708  .debug_macro:0000000000000000 .Ldebug_macro68
C:\Users\CYMR90~1\AppData\Local\Temp\cciNYDRP.s:19752  .debug_macro:0000000000000000 .Ldebug_macro69
C:\Users\CYMR90~1\AppData\Local\Temp\cciNYDRP.s:20378  .debug_macro:0000000000000000 .Ldebug_macro70
C:\Users\CYMR90~1\AppData\Local\Temp\cciNYDRP.s:20437  .debug_macro:0000000000000000 .Ldebug_macro71
C:\Users\CYMR90~1\AppData\Local\Temp\cciNYDRP.s:22044  .debug_str:0000000000005446 .LASF0
C:\Users\CYMR90~1\AppData\Local\Temp\cciNYDRP.s:26413  .debug_str:0000000000016f74 .LASF1
C:\Users\CYMR90~1\AppData\Local\Temp\cciNYDRP.s:24680  .debug_str:000000000000fe3e .LASF2
C:\Users\CYMR90~1\AppData\Local\Temp\cciNYDRP.s:24740  .debug_str:00000000000101cc .LASF3
C:\Users\CYMR90~1\AppData\Local\Temp\cciNYDRP.s:26030  .debug_str:00000000000154e0 .LASF4
C:\Users\CYMR90~1\AppData\Local\Temp\cciNYDRP.s:31561  .debug_str:000000000002b541 .LASF5
C:\Users\CYMR90~1\AppData\Local\Temp\cciNYDRP.s:22272  .debug_str:0000000000006257 .LASF6
C:\Users\CYMR90~1\AppData\Local\Temp\cciNYDRP.s:30883  .debug_str:0000000000028bc2 .LASF7
C:\Users\CYMR90~1\AppData\Local\Temp\cciNYDRP.s:29829  .debug_str:0000000000024622 .LASF8
C:\Users\CYMR90~1\AppData\Local\Temp\cciNYDRP.s:27747  .debug_str:000000000001c467 .LASF9
C:\Users\CYMR90~1\AppData\Local\Temp\cciNYDRP.s:27099  .debug_str:0000000000019b1a .LASF10
C:\Users\CYMR90~1\AppData\Local\Temp\cciNYDRP.s:26959  .debug_str:00000000000191c5 .LASF11
C:\Users\CYMR90~1\AppData\Local\Temp\cciNYDRP.s:31407  .debug_str:000000000002ab56 .LASF12
C:\Users\CYMR90~1\AppData\Local\Temp\cciNYDRP.s:26971  .debug_str:0000000000019279 .LASF13
C:\Users\CYMR90~1\AppData\Local\Temp\cciNYDRP.s:23284  .debug_str:000000000000a3f9 .LASF14
C:\Users\CYMR90~1\AppData\Local\Temp\cciNYDRP.s:28323  .debug_str:000000000001ea08 .LASF15
C:\Users\CYMR90~1\AppData\Local\Temp\cciNYDRP.s:29075  .debug_str:0000000000021830 .LASF16
C:\Users\CYMR90~1\AppData\Local\Temp\cciNYDRP.s:23330  .debug_str:000000000000a6ad .LASF17
C:\Users\CYMR90~1\AppData\Local\Temp\cciNYDRP.s:30113  .debug_str:0000000000025a72 .LASF18
C:\Users\CYMR90~1\AppData\Local\Temp\cciNYDRP.s:24294  .debug_str:000000000000e610 .LASF19
C:\Users\CYMR90~1\AppData\Local\Temp\cciNYDRP.s:29919  .debug_str:0000000000024c77 .LASF20
C:\Users\CYMR90~1\AppData\Local\Temp\cciNYDRP.s:26775  .debug_str:0000000000018526 .LASF21
C:\Users\CYMR90~1\AppData\Local\Temp\cciNYDRP.s:26773  .debug_str:000000000001850c .LASF22
C:\Users\CYMR90~1\AppData\Local\Temp\cciNYDRP.s:29379  .debug_str:0000000000022a60 .LASF23
C:\Users\CYMR90~1\AppData\Local\Temp\cciNYDRP.s:27701  .debug_str:000000000001c1fc .LASF24
C:\Users\CYMR90~1\AppData\Local\Temp\cciNYDRP.s:21598  .debug_str:00000000000037a8 .LASF25
C:\Users\CYMR90~1\AppData\Local\Temp\cciNYDRP.s:26158  .debug_str:0000000000015cc4 .LASF26
C:\Users\CYMR90~1\AppData\Local\Temp\cciNYDRP.s:29383  .debug_str:0000000000022a96 .LASF27
C:\Users\CYMR90~1\AppData\Local\Temp\cciNYDRP.s:29083  .debug_str:000000000002188d .LASF28
C:\Users\CYMR90~1\AppData\Local\Temp\cciNYDRP.s:21996  .debug_str:0000000000005170 .LASF29
C:\Users\CYMR90~1\AppData\Local\Temp\cciNYDRP.s:28103  .debug_str:000000000001dca5 .LASF30
C:\Users\CYMR90~1\AppData\Local\Temp\cciNYDRP.s:28619  .debug_str:000000000001fbca .LASF31
C:\Users\CYMR90~1\AppData\Local\Temp\cciNYDRP.s:28565  .debug_str:000000000001f870 .LASF32
C:\Users\CYMR90~1\AppData\Local\Temp\cciNYDRP.s:23166  .debug_str:0000000000009c86 .LASF33
C:\Users\CYMR90~1\AppData\Local\Temp\cciNYDRP.s:23018  .debug_str:00000000000092ef .LASF34
C:\Users\CYMR90~1\AppData\Local\Temp\cciNYDRP.s:24324  .debug_str:000000000000e7db .LASF35
C:\Users\CYMR90~1\AppData\Local\Temp\cciNYDRP.s:27215  .debug_str:000000000001a1b4 .LASF36
C:\Users\CYMR90~1\AppData\Local\Temp\cciNYDRP.s:22516  .debug_str:0000000000007212 .LASF37
C:\Users\CYMR90~1\AppData\Local\Temp\cciNYDRP.s:24678  .debug_str:000000000000fe1b .LASF38
C:\Users\CYMR90~1\AppData\Local\Temp\cciNYDRP.s:21560  .debug_str:00000000000034f5 .LASF39
C:\Users\CYMR90~1\AppData\Local\Temp\cciNYDRP.s:21358  .debug_str:00000000000027e9 .LASF40
C:\Users\CYMR90~1\AppData\Local\Temp\cciNYDRP.s:24846  .debug_str:00000000000108ad .LASF41
C:\Users\CYMR90~1\AppData\Local\Temp\cciNYDRP.s:25268  .debug_str:000000000001246c .LASF42
C:\Users\CYMR90~1\AppData\Local\Temp\cciNYDRP.s:25536  .debug_str:00000000000136aa .LASF43
C:\Users\CYMR90~1\AppData\Local\Temp\cciNYDRP.s:27205  .debug_str:000000000001a122 .LASF44
C:\Users\CYMR90~1\AppData\Local\Temp\cciNYDRP.s:25132  .debug_str:0000000000011bbc .LASF45
C:\Users\CYMR90~1\AppData\Local\Temp\cciNYDRP.s:21826  .debug_str:00000000000046a6 .LASF46
C:\Users\CYMR90~1\AppData\Local\Temp\cciNYDRP.s:28109  .debug_str:000000000001dd0a .LASF47
C:\Users\CYMR90~1\AppData\Local\Temp\cciNYDRP.s:29831  .debug_str:0000000000024637 .LASF48
C:\Users\CYMR90~1\AppData\Local\Temp\cciNYDRP.s:24066  .debug_str:000000000000d827 .LASF49
C:\Users\CYMR90~1\AppData\Local\Temp\cciNYDRP.s:21196  .debug_str:0000000000001e3d .LASF50
C:\Users\CYMR90~1\AppData\Local\Temp\cciNYDRP.s:20722  .debug_str:0000000000000153 .LASF51
C:\Users\CYMR90~1\AppData\Local\Temp\cciNYDRP.s:31179  .debug_str:0000000000029d94 .LASF52
C:\Users\CYMR90~1\AppData\Local\Temp\cciNYDRP.s:23880  .debug_str:000000000000cc01 .LASF53
C:\Users\CYMR90~1\AppData\Local\Temp\cciNYDRP.s:25612  .debug_str:0000000000013b42 .LASF54
C:\Users\CYMR90~1\AppData\Local\Temp\cciNYDRP.s:24642  .debug_str:000000000000fb8a .LASF55
C:\Users\CYMR90~1\AppData\Local\Temp\cciNYDRP.s:22600  .debug_str:000000000000774d .LASF56
C:\Users\CYMR90~1\AppData\Local\Temp\cciNYDRP.s:26008  .debug_str:00000000000153b5 .LASF57
C:\Users\CYMR90~1\AppData\Local\Temp\cciNYDRP.s:20948  .debug_str:0000000000000f20 .LASF58
C:\Users\CYMR90~1\AppData\Local\Temp\cciNYDRP.s:30117  .debug_str:0000000000025ab2 .LASF59
C:\Users\CYMR90~1\AppData\Local\Temp\cciNYDRP.s:25544  .debug_str:0000000000013705 .LASF60
C:\Users\CYMR90~1\AppData\Local\Temp\cciNYDRP.s:27561  .debug_str:000000000001b91a .LASF61
C:\Users\CYMR90~1\AppData\Local\Temp\cciNYDRP.s:21426  .debug_str:0000000000002c4b .LASF62
C:\Users\CYMR90~1\AppData\Local\Temp\cciNYDRP.s:24060  .debug_str:000000000000d7e3 .LASF63
C:\Users\CYMR90~1\AppData\Local\Temp\cciNYDRP.s:23796  .debug_str:000000000000c580 .LASF64
C:\Users\CYMR90~1\AppData\Local\Temp\cciNYDRP.s:27191  .debug_str:000000000001a059 .LASF65
C:\Users\CYMR90~1\AppData\Local\Temp\cciNYDRP.s:25844  .debug_str:0000000000014941 .LASF66
C:\Users\CYMR90~1\AppData\Local\Temp\cciNYDRP.s:30957  .debug_str:0000000000029043 .LASF67
C:\Users\CYMR90~1\AppData\Local\Temp\cciNYDRP.s:31409  .debug_str:000000000002ab69 .LASF68
C:\Users\CYMR90~1\AppData\Local\Temp\cciNYDRP.s:25084  .debug_str:0000000000011854 .LASF69
C:\Users\CYMR90~1\AppData\Local\Temp\cciNYDRP.s:24220  .debug_str:000000000000e14c .LASF70
C:\Users\CYMR90~1\AppData\Local\Temp\cciNYDRP.s:21838  .debug_str:00000000000047f9 .LASF71
C:\Users\CYMR90~1\AppData\Local\Temp\cciNYDRP.s:25120  .debug_str:0000000000011af9 .LASF72
C:\Users\CYMR90~1\AppData\Local\Temp\cciNYDRP.s:24748  .debug_str:000000000001023d .LASF73
C:\Users\CYMR90~1\AppData\Local\Temp\cciNYDRP.s:25346  .debug_str:00000000000129c6 .LASF74
C:\Users\CYMR90~1\AppData\Local\Temp\cciNYDRP.s:25192  .debug_str:0000000000011f98 .LASF75
C:\Users\CYMR90~1\AppData\Local\Temp\cciNYDRP.s:25288  .debug_str:00000000000125d7 .LASF76
C:\Users\CYMR90~1\AppData\Local\Temp\cciNYDRP.s:29747  .debug_str:00000000000240a6 .LASF77
C:\Users\CYMR90~1\AppData\Local\Temp\cciNYDRP.s:27677  .debug_str:000000000001c08d .LASF78
C:\Users\CYMR90~1\AppData\Local\Temp\cciNYDRP.s:28073  .debug_str:000000000001da5f .LASF79
C:\Users\CYMR90~1\AppData\Local\Temp\cciNYDRP.s:30937  .debug_str:0000000000028ef4 .LASF80
C:\Users\CYMR90~1\AppData\Local\Temp\cciNYDRP.s:23118  .debug_str:00000000000099a7 .LASF81
C:\Users\CYMR90~1\AppData\Local\Temp\cciNYDRP.s:23316  .debug_str:000000000000a581 .LASF82
C:\Users\CYMR90~1\AppData\Local\Temp\cciNYDRP.s:31071  .debug_str:0000000000029766 .LASF83
C:\Users\CYMR90~1\AppData\Local\Temp\cciNYDRP.s:23058  .debug_str:0000000000009588 .LASF84
C:\Users\CYMR90~1\AppData\Local\Temp\cciNYDRP.s:22334  .debug_str:000000000000661a .LASF85
C:\Users\CYMR90~1\AppData\Local\Temp\cciNYDRP.s:27389  .debug_str:000000000001aec9 .LASF86
C:\Users\CYMR90~1\AppData\Local\Temp\cciNYDRP.s:31101  .debug_str:00000000000298f0 .LASF87
C:\Users\CYMR90~1\AppData\Local\Temp\cciNYDRP.s:28507  .debug_str:000000000001f502 .LASF88
C:\Users\CYMR90~1\AppData\Local\Temp\cciNYDRP.s:27307  .debug_str:000000000001a962 .LASF89
C:\Users\CYMR90~1\AppData\Local\Temp\cciNYDRP.s:28535  .debug_str:000000000001f6aa .LASF90
C:\Users\CYMR90~1\AppData\Local\Temp\cciNYDRP.s:31313  .debug_str:000000000002a5b8 .LASF91
C:\Users\CYMR90~1\AppData\Local\Temp\cciNYDRP.s:30125  .debug_str:0000000000025b2a .LASF92
C:\Users\CYMR90~1\AppData\Local\Temp\cciNYDRP.s:23194  .debug_str:0000000000009e5f .LASF93
C:\Users\CYMR90~1\AppData\Local\Temp\cciNYDRP.s:27955  .debug_str:000000000001d338 .LASF94
C:\Users\CYMR90~1\AppData\Local\Temp\cciNYDRP.s:25572  .debug_str:00000000000138c3 .LASF95
C:\Users\CYMR90~1\AppData\Local\Temp\cciNYDRP.s:25556  .debug_str:00000000000137d3 .LASF96
C:\Users\CYMR90~1\AppData\Local\Temp\cciNYDRP.s:31609  .debug_str:000000000002b878 .LASF97
C:\Users\CYMR90~1\AppData\Local\Temp\cciNYDRP.s:25204  .debug_str:0000000000012075 .LASF98
C:\Users\CYMR90~1\AppData\Local\Temp\cciNYDRP.s:29099  .debug_str:0000000000021999 .LASF99
C:\Users\CYMR90~1\AppData\Local\Temp\cciNYDRP.s:22548  .debug_str:00000000000073ef .LASF100
C:\Users\CYMR90~1\AppData\Local\Temp\cciNYDRP.s:24694  .debug_str:000000000000fef9 .LASF101
C:\Users\CYMR90~1\AppData\Local\Temp\cciNYDRP.s:26070  .debug_str:0000000000015717 .LASF102
C:\Users\CYMR90~1\AppData\Local\Temp\cciNYDRP.s:24972  .debug_str:0000000000011086 .LASF103
C:\Users\CYMR90~1\AppData\Local\Temp\cciNYDRP.s:23976  .debug_str:000000000000d236 .LASF104
C:\Users\CYMR90~1\AppData\Local\Temp\cciNYDRP.s:25142  .debug_str:0000000000011c53 .LASF105
C:\Users\CYMR90~1\AppData\Local\Temp\cciNYDRP.s:27771  .debug_str:000000000001c5ea .LASF106
C:\Users\CYMR90~1\AppData\Local\Temp\cciNYDRP.s:24966  .debug_str:0000000000011021 .LASF107
C:\Users\CYMR90~1\AppData\Local\Temp\cciNYDRP.s:23972  .debug_str:000000000000d212 .LASF108
C:\Users\CYMR90~1\AppData\Local\Temp\cciNYDRP.s:25402  .debug_str:0000000000012d48 .LASF109
C:\Users\CYMR90~1\AppData\Local\Temp\cciNYDRP.s:24348  .debug_str:000000000000e975 .LASF110
C:\Users\CYMR90~1\AppData\Local\Temp\cciNYDRP.s:26827  .debug_str:000000000001883b .LASF111
C:\Users\CYMR90~1\AppData\Local\Temp\cciNYDRP.s:23452  .debug_str:000000000000aefa .LASF112
C:\Users\CYMR90~1\AppData\Local\Temp\cciNYDRP.s:23192  .debug_str:0000000000009e36 .LASF113
C:\Users\CYMR90~1\AppData\Local\Temp\cciNYDRP.s:26102  .debug_str:0000000000015917 .LASF114
C:\Users\CYMR90~1\AppData\Local\Temp\cciNYDRP.s:30997  .debug_str:000000000002929e .LASF115
C:\Users\CYMR90~1\AppData\Local\Temp\cciNYDRP.s:29631  .debug_str:000000000002391d .LASF116
C:\Users\CYMR90~1\AppData\Local\Temp\cciNYDRP.s:22950  .debug_str:0000000000008f08 .LASF117
C:\Users\CYMR90~1\AppData\Local\Temp\cciNYDRP.s:27541  .debug_str:000000000001b84b .LASF118
C:\Users\CYMR90~1\AppData\Local\Temp\cciNYDRP.s:31721  .debug_str:000000000002c043 .LASF119
C:\Users\CYMR90~1\AppData\Local\Temp\cciNYDRP.s:24268  .debug_str:000000000000e425 .LASF120
C:\Users\CYMR90~1\AppData\Local\Temp\cciNYDRP.s:29729  .debug_str:0000000000023eac .LASF121
C:\Users\CYMR90~1\AppData\Local\Temp\cciNYDRP.s:23758  .debug_str:000000000000c31f .LASF122
C:\Users\CYMR90~1\AppData\Local\Temp\cciNYDRP.s:23866  .debug_str:000000000000cb54 .LASF123
C:\Users\CYMR90~1\AppData\Local\Temp\cciNYDRP.s:21530  .debug_str:000000000000332c .LASF124
C:\Users\CYMR90~1\AppData\Local\Temp\cciNYDRP.s:21804  .debug_str:000000000000450e .LASF125
C:\Users\CYMR90~1\AppData\Local\Temp\cciNYDRP.s:30669  .debug_str:0000000000027d42 .LASF126
C:\Users\CYMR90~1\AppData\Local\Temp\cciNYDRP.s:25148  .debug_str:0000000000011cab .LASF127
C:\Users\CYMR90~1\AppData\Local\Temp\cciNYDRP.s:27931  .debug_str:000000000001d1d3 .LASF128
C:\Users\CYMR90~1\AppData\Local\Temp\cciNYDRP.s:23026  .debug_str:0000000000009367 .LASF129
C:\Users\CYMR90~1\AppData\Local\Temp\cciNYDRP.s:30239  .debug_str:00000000000261e7 .LASF130
C:\Users\CYMR90~1\AppData\Local\Temp\cciNYDRP.s:30547  .debug_str:0000000000027564 .LASF131
C:\Users\CYMR90~1\AppData\Local\Temp\cciNYDRP.s:30355  .debug_str:0000000000026930 .LASF132
C:\Users\CYMR90~1\AppData\Local\Temp\cciNYDRP.s:24244  .debug_str:000000000000e2a1 .LASF133
C:\Users\CYMR90~1\AppData\Local\Temp\cciNYDRP.s:29647  .debug_str:0000000000023a04 .LASF134
C:\Users\CYMR90~1\AppData\Local\Temp\cciNYDRP.s:21798  .debug_str:00000000000044a7 .LASF135
C:\Users\CYMR90~1\AppData\Local\Temp\cciNYDRP.s:22646  .debug_str:0000000000007a4c .LASF136
C:\Users\CYMR90~1\AppData\Local\Temp\cciNYDRP.s:31401  .debug_str:000000000002aaff .LASF137
C:\Users\CYMR90~1\AppData\Local\Temp\cciNYDRP.s:25398  .debug_str:0000000000012d18 .LASF138
C:\Users\CYMR90~1\AppData\Local\Temp\cciNYDRP.s:30879  .debug_str:0000000000028b9f .LASF139
C:\Users\CYMR90~1\AppData\Local\Temp\cciNYDRP.s:30007  .debug_str:00000000000252b4 .LASF140
C:\Users\CYMR90~1\AppData\Local\Temp\cciNYDRP.s:27635  .debug_str:000000000001bdea .LASF141
C:\Users\CYMR90~1\AppData\Local\Temp\cciNYDRP.s:23154  .debug_str:0000000000009bc7 .LASF142
C:\Users\CYMR90~1\AppData\Local\Temp\cciNYDRP.s:31469  .debug_str:000000000002af02 .LASF143
C:\Users\CYMR90~1\AppData\Local\Temp\cciNYDRP.s:26797  .debug_str:000000000001863a .LASF144
C:\Users\CYMR90~1\AppData\Local\Temp\cciNYDRP.s:25856  .debug_str:0000000000014a26 .LASF145
C:\Users\CYMR90~1\AppData\Local\Temp\cciNYDRP.s:23830  .debug_str:000000000000c85c .LASF146
C:\Users\CYMR90~1\AppData\Local\Temp\cciNYDRP.s:21836  .debug_str:00000000000047e2 .LASF147
C:\Users\CYMR90~1\AppData\Local\Temp\cciNYDRP.s:24390  .debug_str:000000000000ebeb .LASF148
C:\Users\CYMR90~1\AppData\Local\Temp\cciNYDRP.s:26777  .debug_str:000000000001853a .LASF149
C:\Users\CYMR90~1\AppData\Local\Temp\cciNYDRP.s:20792  .debug_str:000000000000052b .LASF150
C:\Users\CYMR90~1\AppData\Local\Temp\cciNYDRP.s:31947  .debug_str:000000000002cf26 .LASF151
C:\Users\CYMR90~1\AppData\Local\Temp\cciNYDRP.s:25392  .debug_str:0000000000012c96 .LASF152
C:\Users\CYMR90~1\AppData\Local\Temp\cciNYDRP.s:30013  .debug_str:0000000000025307 .LASF153
C:\Users\CYMR90~1\AppData\Local\Temp\cciNYDRP.s:27831  .debug_str:000000000001ca24 .LASF154
C:\Users\CYMR90~1\AppData\Local\Temp\cciNYDRP.s:24808  .debug_str:000000000001066b .LASF155
C:\Users\CYMR90~1\AppData\Local\Temp\cciNYDRP.s:27843  .debug_str:000000000001cb0a .LASF156
C:\Users\CYMR90~1\AppData\Local\Temp\cciNYDRP.s:27959  .debug_str:000000000001d37f .LASF157
C:\Users\CYMR90~1\AppData\Local\Temp\cciNYDRP.s:23688  .debug_str:000000000000bedb .LASF158
C:\Users\CYMR90~1\AppData\Local\Temp\cciNYDRP.s:22748  .debug_str:000000000000823f .LASF159
C:\Users\CYMR90~1\AppData\Local\Temp\cciNYDRP.s:27487  .debug_str:000000000001b4f0 .LASF160
C:\Users\CYMR90~1\AppData\Local\Temp\cciNYDRP.s:28911  .debug_str:0000000000020dfc .LASF161
C:\Users\CYMR90~1\AppData\Local\Temp\cciNYDRP.s:27091  .debug_str:0000000000019a88 .LASF162
C:\Users\CYMR90~1\AppData\Local\Temp\cciNYDRP.s:29639  .debug_str:000000000002398f .LASF163
C:\Users\CYMR90~1\AppData\Local\Temp\cciNYDRP.s:31299  .debug_str:000000000002a4ea .LASF164
C:\Users\CYMR90~1\AppData\Local\Temp\cciNYDRP.s:22506  .debug_str:000000000000718e .LASF165
C:\Users\CYMR90~1\AppData\Local\Temp\cciNYDRP.s:30985  .debug_str:000000000002920f .LASF166
C:\Users\CYMR90~1\AppData\Local\Temp\cciNYDRP.s:30801  .debug_str:00000000000286d1 .LASF167
C:\Users\CYMR90~1\AppData\Local\Temp\cciNYDRP.s:29561  .debug_str:00000000000234a1 .LASF168
C:\Users\CYMR90~1\AppData\Local\Temp\cciNYDRP.s:26559  .debug_str:0000000000017814 .LASF169
C:\Users\CYMR90~1\AppData\Local\Temp\cciNYDRP.s:30415  .debug_str:0000000000026ccd .LASF170
C:\Users\CYMR90~1\AppData\Local\Temp\cciNYDRP.s:26186  .debug_str:0000000000015e7b .LASF171
C:\Users\CYMR90~1\AppData\Local\Temp\cciNYDRP.s:27753  .debug_str:000000000001c4c6 .LASF172
C:\Users\CYMR90~1\AppData\Local\Temp\cciNYDRP.s:23146  .debug_str:0000000000009b53 .LASF173
C:\Users\CYMR90~1\AppData\Local\Temp\cciNYDRP.s:29449  .debug_str:0000000000022e52 .LASF174
C:\Users\CYMR90~1\AppData\Local\Temp\cciNYDRP.s:22170  .debug_str:0000000000005bff .LASF175
C:\Users\CYMR90~1\AppData\Local\Temp\cciNYDRP.s:22994  .debug_str:000000000000919b .LASF176
C:\Users\CYMR90~1\AppData\Local\Temp\cciNYDRP.s:21676  .debug_str:0000000000003c95 .LASF177
C:\Users\CYMR90~1\AppData\Local\Temp\cciNYDRP.s:26967  .debug_str:0000000000019237 .LASF178
C:\Users\CYMR90~1\AppData\Local\Temp\cciNYDRP.s:23918  .debug_str:000000000000ce92 .LASF179
C:\Users\CYMR90~1\AppData\Local\Temp\cciNYDRP.s:21190  .debug_str:0000000000001dd1 .LASF180
C:\Users\CYMR90~1\AppData\Local\Temp\cciNYDRP.s:31605  .debug_str:000000000002b84d .LASF181
C:\Users\CYMR90~1\AppData\Local\Temp\cciNYDRP.s:20980  .debug_str:0000000000001117 .LASF182
C:\Users\CYMR90~1\AppData\Local\Temp\cciNYDRP.s:25514  .debug_str:000000000001351f .LASF183
C:\Users\CYMR90~1\AppData\Local\Temp\cciNYDRP.s:25922  .debug_str:0000000000014e71 .LASF184
C:\Users\CYMR90~1\AppData\Local\Temp\cciNYDRP.s:30813  .debug_str:0000000000028799 .LASF185
C:\Users\CYMR90~1\AppData\Local\Temp\cciNYDRP.s:24014  .debug_str:000000000000d546 .LASF186
C:\Users\CYMR90~1\AppData\Local\Temp\cciNYDRP.s:22490  .debug_str:000000000000702d .LASF187
C:\Users\CYMR90~1\AppData\Local\Temp\cciNYDRP.s:28487  .debug_str:000000000001f404 .LASF188
C:\Users\CYMR90~1\AppData\Local\Temp\cciNYDRP.s:24288  .debug_str:000000000000e5b6 .LASF189
C:\Users\CYMR90~1\AppData\Local\Temp\cciNYDRP.s:25618  .debug_str:0000000000013ba1 .LASF190
C:\Users\CYMR90~1\AppData\Local\Temp\cciNYDRP.s:28969  .debug_str:000000000002112d .LASF191
C:\Users\CYMR90~1\AppData\Local\Temp\cciNYDRP.s:26342  .debug_str:00000000000168f9 .LASF192
C:\Users\CYMR90~1\AppData\Local\Temp\cciNYDRP.s:29201  .debug_str:0000000000021fbe .LASF193
C:\Users\CYMR90~1\AppData\Local\Temp\cciNYDRP.s:22124  .debug_str:0000000000005939 .LASF194
C:\Users\CYMR90~1\AppData\Local\Temp\cciNYDRP.s:21500  .debug_str:0000000000003137 .LASF195
C:\Users\CYMR90~1\AppData\Local\Temp\cciNYDRP.s:24112  .debug_str:000000000000daad .LASF196
C:\Users\CYMR90~1\AppData\Local\Temp\cciNYDRP.s:25030  .debug_str:0000000000011417 .LASF197
C:\Users\CYMR90~1\AppData\Local\Temp\cciNYDRP.s:21982  .debug_str:0000000000005090 .LASF198
C:\Users\CYMR90~1\AppData\Local\Temp\cciNYDRP.s:30701  .debug_str:0000000000027f89 .LASF199
C:\Users\CYMR90~1\AppData\Local\Temp\cciNYDRP.s:28849  .debug_str:0000000000020a3b .LASF200
C:\Users\CYMR90~1\AppData\Local\Temp\cciNYDRP.s:27967  .debug_str:000000000001d3dd .LASF201
C:\Users\CYMR90~1\AppData\Local\Temp\cciNYDRP.s:23122  .debug_str:00000000000099da .LASF202
C:\Users\CYMR90~1\AppData\Local\Temp\cciNYDRP.s:31159  .debug_str:0000000000029c75 .LASF203
C:\Users\CYMR90~1\AppData\Local\Temp\cciNYDRP.s:21512  .debug_str:0000000000003208 .LASF204
C:\Users\CYMR90~1\AppData\Local\Temp\cciNYDRP.s:24524  .debug_str:000000000000f3da .LASF205
C:\Users\CYMR90~1\AppData\Local\Temp\cciNYDRP.s:30891  .debug_str:0000000000028c23 .LASF206
C:\Users\CYMR90~1\AppData\Local\Temp\cciNYDRP.s:25740  .debug_str:0000000000014311 .LASF207
C:\Users\CYMR90~1\AppData\Local\Temp\cciNYDRP.s:28523  .debug_str:000000000001f608 .LASF208
C:\Users\CYMR90~1\AppData\Local\Temp\cciNYDRP.s:23754  .debug_str:000000000000c2f0 .LASF209
C:\Users\CYMR90~1\AppData\Local\Temp\cciNYDRP.s:31817  .debug_str:000000000002c66f .LASF210
C:\Users\CYMR90~1\AppData\Local\Temp\cciNYDRP.s:25710  .debug_str:0000000000014130 .LASF211
C:\Users\CYMR90~1\AppData\Local\Temp\cciNYDRP.s:28363  .debug_str:000000000001ec27 .LASF212
C:\Users\CYMR90~1\AppData\Local\Temp\cciNYDRP.s:26987  .debug_str:0000000000019365 .LASF213
C:\Users\CYMR90~1\AppData\Local\Temp\cciNYDRP.s:22210  .debug_str:0000000000005e4b .LASF214
C:\Users\CYMR90~1\AppData\Local\Temp\cciNYDRP.s:25718  .debug_str:00000000000141b6 .LASF215
C:\Users\CYMR90~1\AppData\Local\Temp\cciNYDRP.s:27673  .debug_str:000000000001c03d .LASF216
C:\Users\CYMR90~1\AppData\Local\Temp\cciNYDRP.s:28629  .debug_str:000000000001fc5e .LASF217
C:\Users\CYMR90~1\AppData\Local\Temp\cciNYDRP.s:24600  .debug_str:000000000000f8dc .LASF218
C:\Users\CYMR90~1\AppData\Local\Temp\cciNYDRP.s:30015  .debug_str:0000000000025343 .LASF219
C:\Users\CYMR90~1\AppData\Local\Temp\cciNYDRP.s:29823  .debug_str:00000000000245c9 .LASF220
C:\Users\CYMR90~1\AppData\Local\Temp\cciNYDRP.s:29343  .debug_str:00000000000227d4 .LASF221
C:\Users\CYMR90~1\AppData\Local\Temp\cciNYDRP.s:25992  .debug_str:00000000000152e5 .LASF222
C:\Users\CYMR90~1\AppData\Local\Temp\cciNYDRP.s:22180  .debug_str:0000000000005c81 .LASF223
C:\Users\CYMR90~1\AppData\Local\Temp\cciNYDRP.s:22850  .debug_str:0000000000008895 .LASF224
C:\Users\CYMR90~1\AppData\Local\Temp\cciNYDRP.s:31477  .debug_str:000000000002af6f .LASF225
C:\Users\CYMR90~1\AppData\Local\Temp\cciNYDRP.s:24182  .debug_str:000000000000df11 .LASF226
C:\Users\CYMR90~1\AppData\Local\Temp\cciNYDRP.s:27827  .debug_str:000000000001c9f6 .LASF227
C:\Users\CYMR90~1\AppData\Local\Temp\cciNYDRP.s:27683  .debug_str:000000000001c0e3 .LASF228
C:\Users\CYMR90~1\AppData\Local\Temp\cciNYDRP.s:24126  .debug_str:000000000000db74 .LASF229
C:\Users\CYMR90~1\AppData\Local\Temp\cciNYDRP.s:28407  .debug_str:000000000001eecc .LASF230
C:\Users\CYMR90~1\AppData\Local\Temp\cciNYDRP.s:22904  .debug_str:0000000000008c2b .LASF231
C:\Users\CYMR90~1\AppData\Local\Temp\cciNYDRP.s:22222  .debug_str:0000000000005f22 .LASF232
C:\Users\CYMR90~1\AppData\Local\Temp\cciNYDRP.s:22800  .debug_str:0000000000008542 .LASF233
C:\Users\CYMR90~1\AppData\Local\Temp\cciNYDRP.s:24800  .debug_str:0000000000010556 .LASF234
C:\Users\CYMR90~1\AppData\Local\Temp\cciNYDRP.s:24520  .debug_str:000000000000f392 .LASF235
C:\Users\CYMR90~1\AppData\Local\Temp\cciNYDRP.s:29569  .debug_str:000000000002354d .LASF236
C:\Users\CYMR90~1\AppData\Local\Temp\cciNYDRP.s:24542  .debug_str:000000000000f4e3 .LASF237
C:\Users\CYMR90~1\AppData\Local\Temp\cciNYDRP.s:30235  .debug_str:00000000000261ab .LASF238
C:\Users\CYMR90~1\AppData\Local\Temp\cciNYDRP.s:29551  .debug_str:000000000002340a .LASF239
C:\Users\CYMR90~1\AppData\Local\Temp\cciNYDRP.s:29787  .debug_str:0000000000024385 .LASF240
C:\Users\CYMR90~1\AppData\Local\Temp\cciNYDRP.s:22614  .debug_str:000000000000787b .LASF241
C:\Users\CYMR90~1\AppData\Local\Temp\cciNYDRP.s:24204  .debug_str:000000000000e049 .LASF242
C:\Users\CYMR90~1\AppData\Local\Temp\cciNYDRP.s:25186  .debug_str:0000000000011f05 .LASF243
C:\Users\CYMR90~1\AppData\Local\Temp\cciNYDRP.s:29579  .debug_str:00000000000235c5 .LASF244
C:\Users\CYMR90~1\AppData\Local\Temp\cciNYDRP.s:25376  .debug_str:0000000000012b76 .LASF245
C:\Users\CYMR90~1\AppData\Local\Temp\cciNYDRP.s:28419  .debug_str:000000000001efb1 .LASF246
C:\Users\CYMR90~1\AppData\Local\Temp\cciNYDRP.s:26761  .debug_str:0000000000018426 .LASF247
C:\Users\CYMR90~1\AppData\Local\Temp\cciNYDRP.s:26274  .debug_str:000000000001640f .LASF248
C:\Users\CYMR90~1\AppData\Local\Temp\cciNYDRP.s:27767  .debug_str:000000000001c5ba .LASF249
C:\Users\CYMR90~1\AppData\Local\Temp\cciNYDRP.s:27149  .debug_str:0000000000019dd3 .LASF250
C:\Users\CYMR90~1\AppData\Local\Temp\cciNYDRP.s:27703  .debug_str:000000000001c20b .LASF251
C:\Users\CYMR90~1\AppData\Local\Temp\cciNYDRP.s:29391  .debug_str:0000000000022b1b .LASF252
C:\Users\CYMR90~1\AppData\Local\Temp\cciNYDRP.s:30031  .debug_str:000000000002545b .LASF253
C:\Users\CYMR90~1\AppData\Local\Temp\cciNYDRP.s:30089  .debug_str:0000000000025902 .LASF254
C:\Users\CYMR90~1\AppData\Local\Temp\cciNYDRP.s:23956  .debug_str:000000000000d0ea .LASF255
C:\Users\CYMR90~1\AppData\Local\Temp\cciNYDRP.s:27055  .debug_str:0000000000019837 .LASF256
C:\Users\CYMR90~1\AppData\Local\Temp\cciNYDRP.s:24200  .debug_str:000000000000e017 .LASF257
C:\Users\CYMR90~1\AppData\Local\Temp\cciNYDRP.s:28351  .debug_str:000000000001eb58 .LASF258
C:\Users\CYMR90~1\AppData\Local\Temp\cciNYDRP.s:23414  .debug_str:000000000000abc8 .LASF259
C:\Users\CYMR90~1\AppData\Local\Temp\cciNYDRP.s:20868  .debug_str:00000000000009b7 .LASF260
C:\Users\CYMR90~1\AppData\Local\Temp\cciNYDRP.s:31221  .debug_str:000000000002a008 .LASF261
C:\Users\CYMR90~1\AppData\Local\Temp\cciNYDRP.s:30681  .debug_str:0000000000027de8 .LASF262
C:\Users\CYMR90~1\AppData\Local\Temp\cciNYDRP.s:25688  .debug_str:0000000000013fb2 .LASF263
C:\Users\CYMR90~1\AppData\Local\Temp\cciNYDRP.s:27657  .debug_str:000000000001bf50 .LASF264
C:\Users\CYMR90~1\AppData\Local\Temp\cciNYDRP.s:26449  .debug_str:000000000001717e .LASF265
C:\Users\CYMR90~1\AppData\Local\Temp\cciNYDRP.s:24128  .debug_str:000000000000dbb5 .LASF266
C:\Users\CYMR90~1\AppData\Local\Temp\cciNYDRP.s:23464  .debug_str:000000000000afbf .LASF267
C:\Users\CYMR90~1\AppData\Local\Temp\cciNYDRP.s:27755  .debug_str:000000000001c4db .LASF268
C:\Users\CYMR90~1\AppData\Local\Temp\cciNYDRP.s:23776  .debug_str:000000000000c45b .LASF269
C:\Users\CYMR90~1\AppData\Local\Temp\cciNYDRP.s:24714  .debug_str:0000000000010044 .LASF270
C:\Users\CYMR90~1\AppData\Local\Temp\cciNYDRP.s:25966  .debug_str:0000000000015132 .LASF271
C:\Users\CYMR90~1\AppData\Local\Temp\cciNYDRP.s:30339  .debug_str:000000000002684b .LASF272
C:\Users\CYMR90~1\AppData\Local\Temp\cciNYDRP.s:22378  .debug_str:00000000000068b4 .LASF273
C:\Users\CYMR90~1\AppData\Local\Temp\cciNYDRP.s:21308  .debug_str:0000000000002460 .LASF274
C:\Users\CYMR90~1\AppData\Local\Temp\cciNYDRP.s:22474  .debug_str:0000000000006f16 .LASF275
C:\Users\CYMR90~1\AppData\Local\Temp\cciNYDRP.s:21566  .debug_str:0000000000003545 .LASF276
C:\Users\CYMR90~1\AppData\Local\Temp\cciNYDRP.s:23666  .debug_str:000000000000bd70 .LASF277
C:\Users\CYMR90~1\AppData\Local\Temp\cciNYDRP.s:21004  .debug_str:0000000000001238 .LASF278
C:\Users\CYMR90~1\AppData\Local\Temp\cciNYDRP.s:22302  .debug_str:00000000000063eb .LASF279
C:\Users\CYMR90~1\AppData\Local\Temp\cciNYDRP.s:31009  .debug_str:0000000000029345 .LASF280
C:\Users\CYMR90~1\AppData\Local\Temp\cciNYDRP.s:23170  .debug_str:0000000000009cbe .LASF281
C:\Users\CYMR90~1\AppData\Local\Temp\cciNYDRP.s:22270  .debug_str:0000000000006240 .LASF282
C:\Users\CYMR90~1\AppData\Local\Temp\cciNYDRP.s:22174  .debug_str:0000000000005c2f .LASF283
C:\Users\CYMR90~1\AppData\Local\Temp\cciNYDRP.s:21938  .debug_str:0000000000004e0e .LASF284
C:\Users\CYMR90~1\AppData\Local\Temp\cciNYDRP.s:29889  .debug_str:0000000000024a61 .LASF285
C:\Users\CYMR90~1\AppData\Local\Temp\cciNYDRP.s:30713  .debug_str:000000000002807f .LASF286
C:\Users\CYMR90~1\AppData\Local\Temp\cciNYDRP.s:30993  .debug_str:000000000002926c .LASF287
C:\Users\CYMR90~1\AppData\Local\Temp\cciNYDRP.s:27713  .debug_str:000000000001c2b5 .LASF288
C:\Users\CYMR90~1\AppData\Local\Temp\cciNYDRP.s:31751  .debug_str:000000000002c212 .LASF289
C:\Users\CYMR90~1\AppData\Local\Temp\cciNYDRP.s:26705  .debug_str:00000000000180d9 .LASF290
C:\Users\CYMR90~1\AppData\Local\Temp\cciNYDRP.s:25744  .debug_str:0000000000014337 .LASF291
C:\Users\CYMR90~1\AppData\Local\Temp\cciNYDRP.s:29925  .debug_str:0000000000024ca6 .LASF292
C:\Users\CYMR90~1\AppData\Local\Temp\cciNYDRP.s:21592  .debug_str:0000000000003740 .LASF293
C:\Users\CYMR90~1\AppData\Local\Temp\cciNYDRP.s:28861  .debug_str:0000000000020b0a .LASF294
C:\Users\CYMR90~1\AppData\Local\Temp\cciNYDRP.s:21858  .debug_str:0000000000004923 .LASF295
C:\Users\CYMR90~1\AppData\Local\Temp\cciNYDRP.s:31343  .debug_str:000000000002a798 .LASF296
C:\Users\CYMR90~1\AppData\Local\Temp\cciNYDRP.s:25796  .debug_str:000000000001469b .LASF297
C:\Users\CYMR90~1\AppData\Local\Temp\cciNYDRP.s:26579  .debug_str:0000000000017998 .LASF298
C:\Users\CYMR90~1\AppData\Local\Temp\cciNYDRP.s:20852  .debug_str:00000000000008b1 .LASF299
C:\Users\CYMR90~1\AppData\Local\Temp\cciNYDRP.s:24620  .debug_str:000000000000fa31 .LASF300
C:\Users\CYMR90~1\AppData\Local\Temp\cciNYDRP.s:27331  .debug_str:000000000001ab01 .LASF301
C:\Users\CYMR90~1\AppData\Local\Temp\cciNYDRP.s:25850  .debug_str:0000000000014998 .LASF302
C:\Users\CYMR90~1\AppData\Local\Temp\cciNYDRP.s:25322  .debug_str:0000000000012818 .LASF303
C:\Users\CYMR90~1\AppData\Local\Temp\cciNYDRP.s:21230  .debug_str:0000000000001fd5 .LASF304
C:\Users\CYMR90~1\AppData\Local\Temp\cciNYDRP.s:23784  .debug_str:000000000000c4df .LASF305
C:\Users\CYMR90~1\AppData\Local\Temp\cciNYDRP.s:29067  .debug_str:00000000000217ca .LASF306
C:\Users\CYMR90~1\AppData\Local\Temp\cciNYDRP.s:24638  .debug_str:000000000000fb5f .LASF307
C:\Users\CYMR90~1\AppData\Local\Temp\cciNYDRP.s:29909  .debug_str:0000000000024b9f .LASF308
C:\Users\CYMR90~1\AppData\Local\Temp\cciNYDRP.s:29519  .debug_str:0000000000023213 .LASF309
C:\Users\CYMR90~1\AppData\Local\Temp\cciNYDRP.s:24184  .debug_str:000000000000df2a .LASF310
C:\Users\CYMR90~1\AppData\Local\Temp\cciNYDRP.s:30231  .debug_str:0000000000026180 .LASF311
C:\Users\CYMR90~1\AppData\Local\Temp\cciNYDRP.s:29741  .debug_str:000000000002403f .LASF312
C:\Users\CYMR90~1\AppData\Local\Temp\cciNYDRP.s:23900  .debug_str:000000000000cd1f .LASF313
C:\Users\CYMR90~1\AppData\Local\Temp\cciNYDRP.s:26847  .debug_str:0000000000018995 .LASF316
C:\Users\CYMR90~1\AppData\Local\Temp\cciNYDRP.s:27207  .debug_str:000000000001a13f .LASF317
C:\Users\CYMR90~1\AppData\Local\Temp\cciNYDRP.s:27547  .debug_str:000000000001b889 .LASF318
C:\Users\CYMR90~1\AppData\Local\Temp\cciNYDRP.s:24628  .debug_str:000000000000face .LASF319
C:\Users\CYMR90~1\AppData\Local\Temp\cciNYDRP.s:23534  .debug_str:000000000000b43a .LASF320
C:\Users\CYMR90~1\AppData\Local\Temp\cciNYDRP.s:30955  .debug_str:0000000000029037 .LASF321
C:\Users\CYMR90~1\AppData\Local\Temp\cciNYDRP.s:24094  .debug_str:000000000000d9e1 .LASF322
C:\Users\CYMR90~1\AppData\Local\Temp\cciNYDRP.s:30183  .debug_str:0000000000025e72 .LASF323
C:\Users\CYMR90~1\AppData\Local\Temp\cciNYDRP.s:20738  .debug_str:0000000000000252 .LASF324
C:\Users\CYMR90~1\AppData\Local\Temp\cciNYDRP.s:31365  .debug_str:000000000002a8cd .LASF325
C:\Users\CYMR90~1\AppData\Local\Temp\cciNYDRP.s:21646  .debug_str:0000000000003aa3 .LASF326
C:\Users\CYMR90~1\AppData\Local\Temp\cciNYDRP.s:25676  .debug_str:0000000000013ef5 .LASF327
C:\Users\CYMR90~1\AppData\Local\Temp\cciNYDRP.s:25324  .debug_str:000000000001282d .LASF328
C:\Users\CYMR90~1\AppData\Local\Temp\cciNYDRP.s:28195  .debug_str:000000000001e245 .LASF329
C:\Users\CYMR90~1\AppData\Local\Temp\cciNYDRP.s:28187  .debug_str:000000000001e1f4 .LASF330
C:\Users\CYMR90~1\AppData\Local\Temp\cciNYDRP.s:30377  .debug_str:0000000000026a99 .LASF331
C:\Users\CYMR90~1\AppData\Local\Temp\cciNYDRP.s:30935  .debug_str:0000000000028ee5 .LASF332
C:\Users\CYMR90~1\AppData\Local\Temp\cciNYDRP.s:31123  .debug_str:0000000000029a44 .LASF333
C:\Users\CYMR90~1\AppData\Local\Temp\cciNYDRP.s:27181  .debug_str:0000000000019fc4 .LASF334
C:\Users\CYMR90~1\AppData\Local\Temp\cciNYDRP.s:26625  .debug_str:0000000000017c4c .LASF335
C:\Users\CYMR90~1\AppData\Local\Temp\cciNYDRP.s:30975  .debug_str:0000000000029180 .LASF336
C:\Users\CYMR90~1\AppData\Local\Temp\cciNYDRP.s:25252  .debug_str:0000000000012372 .LASF337
C:\Users\CYMR90~1\AppData\Local\Temp\cciNYDRP.s:28919  .debug_str:0000000000020e68 .LASF338
C:\Users\CYMR90~1\AppData\Local\Temp\cciNYDRP.s:23288  .debug_str:000000000000a422 .LASF339
C:\Users\CYMR90~1\AppData\Local\Temp\cciNYDRP.s:25468  .debug_str:00000000000131ab .LASF340
C:\Users\CYMR90~1\AppData\Local\Temp\cciNYDRP.s:27381  .debug_str:000000000001ae17 .LASF341
C:\Users\CYMR90~1\AppData\Local\Temp\cciNYDRP.s:23600  .debug_str:000000000000b8a7 .LASF342
C:\Users\CYMR90~1\AppData\Local\Temp\cciNYDRP.s:20986  .debug_str:0000000000001162 .LASF343
C:\Users\CYMR90~1\AppData\Local\Temp\cciNYDRP.s:31091  .debug_str:000000000002985f .LASF344
C:\Users\CYMR90~1\AppData\Local\Temp\cciNYDRP.s:31691  .debug_str:000000000002bdee .LASF345
C:\Users\CYMR90~1\AppData\Local\Temp\cciNYDRP.s:24510  .debug_str:000000000000f30a .LASF346
C:\Users\CYMR90~1\AppData\Local\Temp\cciNYDRP.s:20840  .debug_str:00000000000007fa .LASF347
C:\Users\CYMR90~1\AppData\Local\Temp\cciNYDRP.s:28715  .debug_str:00000000000201a3 .LASF348
C:\Users\CYMR90~1\AppData\Local\Temp\cciNYDRP.s:30691  .debug_str:0000000000027eb7 .LASF349
C:\Users\CYMR90~1\AppData\Local\Temp\cciNYDRP.s:28189  .debug_str:000000000001e200 .LASF350
C:\Users\CYMR90~1\AppData\Local\Temp\cciNYDRP.s:20776  .debug_str:0000000000000464 .LASF351
C:\Users\CYMR90~1\AppData\Local\Temp\cciNYDRP.s:28491  .debug_str:000000000001f434 .LASF352
C:\Users\CYMR90~1\AppData\Local\Temp\cciNYDRP.s:30175  .debug_str:0000000000025e08 .LASF353
C:\Users\CYMR90~1\AppData\Local\Temp\cciNYDRP.s:27813  .debug_str:000000000001c944 .LASF354
C:\Users\CYMR90~1\AppData\Local\Temp\cciNYDRP.s:27981  .debug_str:000000000001d4d3 .LASF355
C:\Users\CYMR90~1\AppData\Local\Temp\cciNYDRP.s:23982  .debug_str:000000000000d32c .LASF356
C:\Users\CYMR90~1\AppData\Local\Temp\cciNYDRP.s:27133  .debug_str:0000000000019d01 .LASF357
C:\Users\CYMR90~1\AppData\Local\Temp\cciNYDRP.s:30601  .debug_str:0000000000027883 .LASF358
C:\Users\CYMR90~1\AppData\Local\Temp\cciNYDRP.s:25314  .debug_str:000000000001276d .LASF359
C:\Users\CYMR90~1\AppData\Local\Temp\cciNYDRP.s:23384  .debug_str:000000000000aa00 .LASF360
C:\Users\CYMR90~1\AppData\Local\Temp\cciNYDRP.s:28365  .debug_str:000000000001ec3f .LASF361
C:\Users\CYMR90~1\AppData\Local\Temp\cciNYDRP.s:25054  .debug_str:00000000000115a8 .LASF362
C:\Users\CYMR90~1\AppData\Local\Temp\cciNYDRP.s:30871  .debug_str:0000000000028b1f .LASF363
C:\Users\CYMR90~1\AppData\Local\Temp\cciNYDRP.s:22934  .debug_str:0000000000008e34 .LASF364
C:\Users\CYMR90~1\AppData\Local\Temp\cciNYDRP.s:30763  .debug_str:0000000000028427 .LASF365
C:\Users\CYMR90~1\AppData\Local\Temp\cciNYDRP.s:22338  .debug_str:000000000000667f .LASF366
C:\Users\CYMR90~1\AppData\Local\Temp\cciNYDRP.s:25458  .debug_str:00000000000130e7 .LASF367
C:\Users\CYMR90~1\AppData\Local\Temp\cciNYDRP.s:22622  .debug_str:00000000000078f9 .LASF368
C:\Users\CYMR90~1\AppData\Local\Temp\cciNYDRP.s:26673  .debug_str:0000000000017efc .LASF372
C:\Users\CYMR90~1\AppData\Local\Temp\cciNYDRP.s:30417  .debug_str:0000000000026d12 .LASF373
C:\Users\CYMR90~1\AppData\Local\Temp\cciNYDRP.s:23364  .debug_str:000000000000a8b5 .LASF374
C:\Users\CYMR90~1\AppData\Local\Temp\cciNYDRP.s:26457  .debug_str:00000000000171f7 .LASF375
C:\Users\CYMR90~1\AppData\Local\Temp\cciNYDRP.s:26659  .debug_str:0000000000017e34 .LASF376
C:\Users\CYMR90~1\AppData\Local\Temp\cciNYDRP.s:29163  .debug_str:0000000000021da7 .LASF377
C:\Users\CYMR90~1\AppData\Local\Temp\cciNYDRP.s:27829  .debug_str:000000000001ca0f .LASF378
C:\Users\CYMR90~1\AppData\Local\Temp\cciNYDRP.s:31517  .debug_str:000000000002b245 .LASF379
C:\Users\CYMR90~1\AppData\Local\Temp\cciNYDRP.s:21324  .debug_str:0000000000002597 .LASF380
C:\Users\CYMR90~1\AppData\Local\Temp\cciNYDRP.s:31461  .debug_str:000000000002ae9a .LASF381
C:\Users\CYMR90~1\AppData\Local\Temp\cciNYDRP.s:27555  .debug_str:000000000001b8da .LASF382
C:\Users\CYMR90~1\AppData\Local\Temp\cciNYDRP.s:22396  .debug_str:00000000000069d7 .LASF383
C:\Users\CYMR90~1\AppData\Local\Temp\cciNYDRP.s:23756  .debug_str:000000000000c30b .LASF384
C:\Users\CYMR90~1\AppData\Local\Temp\cciNYDRP.s:27073  .debug_str:000000000001996b .LASF385
C:\Users\CYMR90~1\AppData\Local\Temp\cciNYDRP.s:24744  .debug_str:000000000001020e .LASF386
C:\Users\CYMR90~1\AppData\Local\Temp\cciNYDRP.s:21256  .debug_str:0000000000002161 .LASF387
C:\Users\CYMR90~1\AppData\Local\Temp\cciNYDRP.s:24350  .debug_str:000000000000e995 .LASF388
C:\Users\CYMR90~1\AppData\Local\Temp\cciNYDRP.s:22902  .debug_str:0000000000008c17 .LASF389
C:\Users\CYMR90~1\AppData\Local\Temp\cciNYDRP.s:21734  .debug_str:00000000000040c0 .LASF391
C:\Users\CYMR90~1\AppData\Local\Temp\cciNYDRP.s:24752  .debug_str:000000000001027a .LASF392
C:\Users\CYMR90~1\AppData\Local\Temp\cciNYDRP.s:28811  .debug_str:00000000000207d5 .LASF393
C:\Users\CYMR90~1\AppData\Local\Temp\cciNYDRP.s:30561  .debug_str:0000000000027630 .LASF394
C:\Users\CYMR90~1\AppData\Local\Temp\cciNYDRP.s:21282  .debug_str:00000000000022c2 .LASF395
C:\Users\CYMR90~1\AppData\Local\Temp\cciNYDRP.s:23408  .debug_str:000000000000ab64 .LASF396
C:\Users\CYMR90~1\AppData\Local\Temp\cciNYDRP.s:27187  .debug_str:000000000001a024 .LASF397
C:\Users\CYMR90~1\AppData\Local\Temp\cciNYDRP.s:31341  .debug_str:000000000002a786 .LASF398
C:\Users\CYMR90~1\AppData\Local\Temp\cciNYDRP.s:26020  .debug_str:000000000001547e .LASF399
C:\Users\CYMR90~1\AppData\Local\Temp\cciNYDRP.s:28449  .debug_str:000000000001f17c .LASF400
C:\Users\CYMR90~1\AppData\Local\Temp\cciNYDRP.s:22890  .debug_str:0000000000008ae7 .LASF401
C:\Users\CYMR90~1\AppData\Local\Temp\cciNYDRP.s:26511  .debug_str:0000000000017510 .LASF402
C:\Users\CYMR90~1\AppData\Local\Temp\cciNYDRP.s:22238  .debug_str:000000000000602f .LASF403
C:\Users\CYMR90~1\AppData\Local\Temp\cciNYDRP.s:31033  .debug_str:00000000000294cd .LASF404
C:\Users\CYMR90~1\AppData\Local\Temp\cciNYDRP.s:24406  .debug_str:000000000000ecba .LASF405
C:\Users\CYMR90~1\AppData\Local\Temp\cciNYDRP.s:27739  .debug_str:000000000001c3fb .LASF406
C:\Users\CYMR90~1\AppData\Local\Temp\cciNYDRP.s:25946  .debug_str:000000000001501e .LASF407
C:\Users\CYMR90~1\AppData\Local\Temp\cciNYDRP.s:26923  .debug_str:0000000000018eaa .LASF408
C:\Users\CYMR90~1\AppData\Local\Temp\cciNYDRP.s:29107  .debug_str:0000000000021a36 .LASF409
C:\Users\CYMR90~1\AppData\Local\Temp\cciNYDRP.s:22192  .debug_str:0000000000005d3c .LASF410
C:\Users\CYMR90~1\AppData\Local\Temp\cciNYDRP.s:26128  .debug_str:0000000000015ab7 .LASF411
C:\Users\CYMR90~1\AppData\Local\Temp\cciNYDRP.s:29235  .debug_str:00000000000221bb .LASF412
C:\Users\CYMR90~1\AppData\Local\Temp\cciNYDRP.s:22370  .debug_str:0000000000006860 .LASF413
C:\Users\CYMR90~1\AppData\Local\Temp\cciNYDRP.s:30969  .debug_str:0000000000029119 .LASF414
C:\Users\CYMR90~1\AppData\Local\Temp\cciNYDRP.s:24512  .debug_str:000000000000f318 .LASF415
C:\Users\CYMR90~1\AppData\Local\Temp\cciNYDRP.s:30475  .debug_str:000000000002705f .LASF416
C:\Users\CYMR90~1\AppData\Local\Temp\cciNYDRP.s:31815  .debug_str:000000000002c664 .LASF417
C:\Users\CYMR90~1\AppData\Local\Temp\cciNYDRP.s:22820  .debug_str:0000000000008690 .LASF418
C:\Users\CYMR90~1\AppData\Local\Temp\cciNYDRP.s:31185  .debug_str:0000000000029deb .LASF419
C:\Users\CYMR90~1\AppData\Local\Temp\cciNYDRP.s:22440  .debug_str:0000000000006cd3 .LASF420
C:\Users\CYMR90~1\AppData\Local\Temp\cciNYDRP.s:31385  .debug_str:000000000002a9ea .LASF421
C:\Users\CYMR90~1\AppData\Local\Temp\cciNYDRP.s:23680  .debug_str:000000000000be64 .LASF422
C:\Users\CYMR90~1\AppData\Local\Temp\cciNYDRP.s:23878  .debug_str:000000000000cbf5 .LASF423
C:\Users\CYMR90~1\AppData\Local\Temp\cciNYDRP.s:28345  .debug_str:000000000001eb19 .LASF424
C:\Users\CYMR90~1\AppData\Local\Temp\cciNYDRP.s:26957  .debug_str:00000000000191ac .LASF425
C:\Users\CYMR90~1\AppData\Local\Temp\cciNYDRP.s:20750  .debug_str:00000000000002d6 .LASF426
C:\Users\CYMR90~1\AppData\Local\Temp\cciNYDRP.s:30877  .debug_str:0000000000028b7c .LASF427
C:\Users\CYMR90~1\AppData\Local\Temp\cciNYDRP.s:26216  .debug_str:00000000000160bb .LASF428
C:\Users\CYMR90~1\AppData\Local\Temp\cciNYDRP.s:28121  .debug_str:000000000001ddf7 .LASF429
C:\Users\CYMR90~1\AppData\Local\Temp\cciNYDRP.s:24692  .debug_str:000000000000fef0 .LASF430
C:\Users\CYMR90~1\AppData\Local\Temp\cciNYDRP.s:26407  .debug_str:0000000000016f11 .LASF431
C:\Users\CYMR90~1\AppData\Local\Temp\cciNYDRP.s:29187  .debug_str:0000000000021ee4 .LASF432
C:\Users\CYMR90~1\AppData\Local\Temp\cciNYDRP.s:23862  .debug_str:000000000000cb15 .LASF434
C:\Users\CYMR90~1\AppData\Local\Temp\cciNYDRP.s:21912  .debug_str:0000000000004c73 .LASF435
C:\Users\CYMR90~1\AppData\Local\Temp\cciNYDRP.s:26599  .debug_str:0000000000017ac7 .LASF436
C:\Users\CYMR90~1\AppData\Local\Temp\cciNYDRP.s:22462  .debug_str:0000000000006e3b .LASF437
C:\Users\CYMR90~1\AppData\Local\Temp\cciNYDRP.s:30897  .debug_str:0000000000028c6a .LASF438
C:\Users\CYMR90~1\AppData\Local\Temp\cciNYDRP.s:20714  .debug_str:00000000000000f0 .LASF439
C:\Users\CYMR90~1\AppData\Local\Temp\cciNYDRP.s:28383  .debug_str:000000000001ed67 .LASF440
C:\Users\CYMR90~1\AppData\Local\Temp\cciNYDRP.s:24102  .debug_str:000000000000da43 .LASF441
C:\Users\CYMR90~1\AppData\Local\Temp\cciNYDRP.s:29423  .debug_str:0000000000022cd3 .LASF442
C:\Users\CYMR90~1\AppData\Local\Temp\cciNYDRP.s:24986  .debug_str:000000000001115f .LASF443
C:\Users\CYMR90~1\AppData\Local\Temp\cciNYDRP.s:24828  .debug_str:0000000000010799 .LASF444
C:\Users\CYMR90~1\AppData\Local\Temp\cciNYDRP.s:31809  .debug_str:000000000002c618 .LASF445
C:\Users\CYMR90~1\AppData\Local\Temp\cciNYDRP.s:31749  .debug_str:000000000002c20c .LASF446
C:\Users\CYMR90~1\AppData\Local\Temp\cciNYDRP.s:25172  .debug_str:0000000000011e20 .LASF447
C:\Users\CYMR90~1\AppData\Local\Temp\cciNYDRP.s:29393  .debug_str:0000000000022b2d .LASF448
C:\Users\CYMR90~1\AppData\Local\Temp\cciNYDRP.s:21748  .debug_str:0000000000004172 .LASF449
C:\Users\CYMR90~1\AppData\Local\Temp\cciNYDRP.s:22482  .debug_str:0000000000006fa4 .LASF450
C:\Users\CYMR90~1\AppData\Local\Temp\cciNYDRP.s:21212  .debug_str:0000000000001ef9 .LASF451
C:\Users\CYMR90~1\AppData\Local\Temp\cciNYDRP.s:25858  .debug_str:0000000000014a3a .LASF452
C:\Users\CYMR90~1\AppData\Local\Temp\cciNYDRP.s:21202  .debug_str:0000000000001e86 .LASF453
C:\Users\CYMR90~1\AppData\Local\Temp\cciNYDRP.s:31755  .debug_str:000000000002c252 .LASF454
C:\Users\CYMR90~1\AppData\Local\Temp\cciNYDRP.s:24274  .debug_str:000000000000e48c .LASF455
C:\Users\CYMR90~1\AppData\Local\Temp\cciNYDRP.s:29013  .debug_str:0000000000021477 .LASF456
C:\Users\CYMR90~1\AppData\Local\Temp\cciNYDRP.s:23952  .debug_str:000000000000d0c8 .LASF457
C:\Users\CYMR90~1\AppData\Local\Temp\cciNYDRP.s:22250  .debug_str:00000000000060d8 .LASF458
C:\Users\CYMR90~1\AppData\Local\Temp\cciNYDRP.s:24894  .debug_str:0000000000010c62 .LASF459
C:\Users\CYMR90~1\AppData\Local\Temp\cciNYDRP.s:28767  .debug_str:0000000000020557 .LASF460
C:\Users\CYMR90~1\AppData\Local\Temp\cciNYDRP.s:29913  .debug_str:0000000000024bd5 .LASF461
C:\Users\CYMR90~1\AppData\Local\Temp\cciNYDRP.s:26374  .debug_str:0000000000016b4d .LASF462
C:\Users\CYMR90~1\AppData\Local\Temp\cciNYDRP.s:27237  .debug_str:000000000001a496 .LASF463
C:\Users\CYMR90~1\AppData\Local\Temp\cciNYDRP.s:24118  .debug_str:000000000000db0f .LASF464
C:\Users\CYMR90~1\AppData\Local\Temp\cciNYDRP.s:25264  .debug_str:0000000000012431 .LASF465
C:\Users\CYMR90~1\AppData\Local\Temp\cciNYDRP.s:22390  .debug_str:0000000000006991 .LASF466
C:\Users\CYMR90~1\AppData\Local\Temp\cciNYDRP.s:22952  .debug_str:0000000000008f17 .LASF467
C:\Users\CYMR90~1\AppData\Local\Temp\cciNYDRP.s:25028  .debug_str:0000000000011400 .LASF468
C:\Users\CYMR90~1\AppData\Local\Temp\cciNYDRP.s:21544  .debug_str:0000000000003419 .LASF469
C:\Users\CYMR90~1\AppData\Local\Temp\cciNYDRP.s:24790  .debug_str:00000000000104bc .LASF470
C:\Users\CYMR90~1\AppData\Local\Temp\cciNYDRP.s:24666  .debug_str:000000000000fd35 .LASF471
C:\Users\CYMR90~1\AppData\Local\Temp\cciNYDRP.s:24248  .debug_str:000000000000e2ed .LASF472
C:\Users\CYMR90~1\AppData\Local\Temp\cciNYDRP.s:20924  .debug_str:0000000000000d42 .LASF473
C:\Users\CYMR90~1\AppData\Local\Temp\cciNYDRP.s:22508  .debug_str:00000000000071a5 .LASF474
C:\Users\CYMR90~1\AppData\Local\Temp\cciNYDRP.s:20870  .debug_str:00000000000009f5 .LASF475
C:\Users\CYMR90~1\AppData\Local\Temp\cciNYDRP.s:21712  .debug_str:0000000000003ed6 .LASF476
C:\Users\CYMR90~1\AppData\Local\Temp\cciNYDRP.s:21084  .debug_str:00000000000017ba .LASF477
C:\Users\CYMR90~1\AppData\Local\Temp\cciNYDRP.s:26160  .debug_str:0000000000015ce1 .LASF478
C:\Users\CYMR90~1\AppData\Local\Temp\cciNYDRP.s:23554  .debug_str:000000000000b5c0 .LASF479
C:\Users\CYMR90~1\AppData\Local\Temp\cciNYDRP.s:31381  .debug_str:000000000002a9ba .LASF480
C:\Users\CYMR90~1\AppData\Local\Temp\cciNYDRP.s:26755  .debug_str:00000000000183cc .LASF481
C:\Users\CYMR90~1\AppData\Local\Temp\cciNYDRP.s:23474  .debug_str:000000000000b054 .LASF482
C:\Users\CYMR90~1\AppData\Local\Temp\cciNYDRP.s:22288  .debug_str:000000000000632b .LASF483
C:\Users\CYMR90~1\AppData\Local\Temp\cciNYDRP.s:20836  .debug_str:00000000000007b3 .LASF484
C:\Users\CYMR90~1\AppData\Local\Temp\cciNYDRP.s:26703  .debug_str:00000000000180b6 .LASF485
C:\Users\CYMR90~1\AppData\Local\Temp\cciNYDRP.s:21922  .debug_str:0000000000004d11 .LASF486
C:\Users\CYMR90~1\AppData\Local\Temp\cciNYDRP.s:25616  .debug_str:0000000000013b8b .LASF487
C:\Users\CYMR90~1\AppData\Local\Temp\cciNYDRP.s:24816  .debug_str:00000000000106f5 .LASF488
C:\Users\CYMR90~1\AppData\Local\Temp\cciNYDRP.s:25380  .debug_str:0000000000012bd8 .LASF489
C:\Users\CYMR90~1\AppData\Local\Temp\cciNYDRP.s:23838  .debug_str:000000000000c99f .LASF490
C:\Users\CYMR90~1\AppData\Local\Temp\cciNYDRP.s:22818  .debug_str:0000000000008682 .LASF491
C:\Users\CYMR90~1\AppData\Local\Temp\cciNYDRP.s:24470  .debug_str:000000000000f08d .LASF492
C:\Users\CYMR90~1\AppData\Local\Temp\cciNYDRP.s:24780  .debug_str:0000000000010444 .LASF493
C:\Users\CYMR90~1\AppData\Local\Temp\cciNYDRP.s:24672  .debug_str:000000000000fda9 .LASF494
C:\Users\CYMR90~1\AppData\Local\Temp\cciNYDRP.s:26947  .debug_str:0000000000019111 .LASF495
C:\Users\CYMR90~1\AppData\Local\Temp\cciNYDRP.s:31833  .debug_str:000000000002c771 .LASF496
C:\Users\CYMR90~1\AppData\Local\Temp\cciNYDRP.s:31771  .debug_str:000000000002c3ac .LASF497
C:\Users\CYMR90~1\AppData\Local\Temp\cciNYDRP.s:24516  .debug_str:000000000000f35f .LASF498
C:\Users\CYMR90~1\AppData\Local\Temp\cciNYDRP.s:30991  .debug_str:0000000000029247 .LASF499
C:\Users\CYMR90~1\AppData\Local\Temp\cciNYDRP.s:31095  .debug_str:0000000000029882 .LASF500
C:\Users\CYMR90~1\AppData\Local\Temp\cciNYDRP.s:27169  .debug_str:0000000000019f0d .LASF501
C:\Users\CYMR90~1\AppData\Local\Temp\cciNYDRP.s:31049  .debug_str:00000000000295cb .LASF502
C:\Users\CYMR90~1\AppData\Local\Temp\cciNYDRP.s:25772  .debug_str:00000000000144a5 .LASF503
C:\Users\CYMR90~1\AppData\Local\Temp\cciNYDRP.s:21412  .debug_str:0000000000002b62 .LASF504
C:\Users\CYMR90~1\AppData\Local\Temp\cciNYDRP.s:29677  .debug_str:0000000000023ba0 .LASF505
C:\Users\CYMR90~1\AppData\Local\Temp\cciNYDRP.s:30557  .debug_str:00000000000275f5 .LASF506
C:\Users\CYMR90~1\AppData\Local\Temp\cciNYDRP.s:30129  .debug_str:0000000000025b57 .LASF507
C:\Users\CYMR90~1\AppData\Local\Temp\cciNYDRP.s:26871  .debug_str:0000000000018af8 .LASF508
C:\Users\CYMR90~1\AppData\Local\Temp\cciNYDRP.s:29097  .debug_str:000000000002195b .LASF509
C:\Users\CYMR90~1\AppData\Local\Temp\cciNYDRP.s:30783  .debug_str:0000000000028574 .LASF510
C:\Users\CYMR90~1\AppData\Local\Temp\cciNYDRP.s:26643  .debug_str:0000000000017d3e .LASF511
C:\Users\CYMR90~1\AppData\Local\Temp\cciNYDRP.s:30405  .debug_str:0000000000026c1d .LASF512
C:\Users\CYMR90~1\AppData\Local\Temp\cciNYDRP.s:30529  .debug_str:000000000002746e .LASF513
C:\Users\CYMR90~1\AppData\Local\Temp\cciNYDRP.s:30973  .debug_str:0000000000029145 .LASF514
C:\Users\CYMR90~1\AppData\Local\Temp\cciNYDRP.s:25548  .debug_str:0000000000013751 .LASF515
C:\Users\CYMR90~1\AppData\Local\Temp\cciNYDRP.s:30845  .debug_str:0000000000028999 .LASF516
C:\Users\CYMR90~1\AppData\Local\Temp\cciNYDRP.s:27013  .debug_str:0000000000019501 .LASF517
C:\Users\CYMR90~1\AppData\Local\Temp\cciNYDRP.s:30791  .debug_str:0000000000028628 .LASF518
C:\Users\CYMR90~1\AppData\Local\Temp\cciNYDRP.s:27665  .debug_str:000000000001bfb8 .LASF519
C:\Users\CYMR90~1\AppData\Local\Temp\cciNYDRP.s:31743  .debug_str:000000000002c1aa .LASF520
C:\Users\CYMR90~1\AppData\Local\Temp\cciNYDRP.s:27927  .debug_str:000000000001d18a .LASF521
C:\Users\CYMR90~1\AppData\Local\Temp\cciNYDRP.s:30039  .debug_str:00000000000254c6 .LASF522
C:\Users\CYMR90~1\AppData\Local\Temp\cciNYDRP.s:25428  .debug_str:0000000000012ee2 .LASF523
C:\Users\CYMR90~1\AppData\Local\Temp\cciNYDRP.s:29591  .debug_str:00000000000236bb .LASF524
C:\Users\CYMR90~1\AppData\Local\Temp\cciNYDRP.s:23034  .debug_str:00000000000093d3 .LASF525
C:\Users\CYMR90~1\AppData\Local\Temp\cciNYDRP.s:31763  .debug_str:000000000002c2c0 .LASF526
C:\Users\CYMR90~1\AppData\Local\Temp\cciNYDRP.s:24282  .debug_str:000000000000e50a .LASF527
C:\Users\CYMR90~1\AppData\Local\Temp\cciNYDRP.s:25286  .debug_str:0000000000012599 .LASF528
C:\Users\CYMR90~1\AppData\Local\Temp\cciNYDRP.s:26136  .debug_str:0000000000015b32 .LASF529
C:\Users\CYMR90~1\AppData\Local\Temp\cciNYDRP.s:26172  .debug_str:0000000000015d8e .LASF530
C:\Users\CYMR90~1\AppData\Local\Temp\cciNYDRP.s:25212  .debug_str:00000000000120fa .LASF531
C:\Users\CYMR90~1\AppData\Local\Temp\cciNYDRP.s:21472  .debug_str:0000000000002efb .LASF532
C:\Users\CYMR90~1\AppData\Local\Temp\cciNYDRP.s:23958  .debug_str:000000000000d102 .LASF533
C:\Users\CYMR90~1\AppData\Local\Temp\cciNYDRP.s:31599  .debug_str:000000000002b790 .LASF534
C:\Users\CYMR90~1\AppData\Local\Temp\cciNYDRP.s:24468  .debug_str:000000000000f041 .LASF535
C:\Users\CYMR90~1\AppData\Local\Temp\cciNYDRP.s:29775  .debug_str:00000000000242b6 .LASF536
C:\Users\CYMR90~1\AppData\Local\Temp\cciNYDRP.s:31255  .debug_str:000000000002a1f0 .LASF537
C:\Users\CYMR90~1\AppData\Local\Temp\cciNYDRP.s:25044  .debug_str:00000000000114ef .LASF538
C:\Users\CYMR90~1\AppData\Local\Temp\cciNYDRP.s:25620  .debug_str:0000000000013bba .LASF539
C:\Users\CYMR90~1\AppData\Local\Temp\cciNYDRP.s:27723  .debug_str:000000000001c33a .LASF540
C:\Users\CYMR90~1\AppData\Local\Temp\cciNYDRP.s:24054  .debug_str:000000000000d79a .LASF541
C:\Users\CYMR90~1\AppData\Local\Temp\cciNYDRP.s:28013  .debug_str:000000000001d6d8 .LASF542
C:\Users\CYMR90~1\AppData\Local\Temp\cciNYDRP.s:21816  .debug_str:00000000000045e4 .LASF543
C:\Users\CYMR90~1\AppData\Local\Temp\cciNYDRP.s:24212  .debug_str:000000000000e0b1 .LASF544
C:\Users\CYMR90~1\AppData\Local\Temp\cciNYDRP.s:31035  .debug_str:00000000000294de .LASF545
C:\Users\CYMR90~1\AppData\Local\Temp\cciNYDRP.s:25558  .debug_str:00000000000137e5 .LASF546
C:\Users\CYMR90~1\AppData\Local\Temp\cciNYDRP.s:29285  .debug_str:0000000000022468 .LASF547
C:\Users\CYMR90~1\AppData\Local\Temp\cciNYDRP.s:31513  .debug_str:000000000002b204 .LASF548
C:\Users\CYMR90~1\AppData\Local\Temp\cciNYDRP.s:21518  .debug_str:0000000000003257 .LASF549
C:\Users\CYMR90~1\AppData\Local\Temp\cciNYDRP.s:22650  .debug_str:0000000000007a8c .LASF550
C:\Users\CYMR90~1\AppData\Local\Temp\cciNYDRP.s:30301  .debug_str:00000000000265bb .LASF551
C:\Users\CYMR90~1\AppData\Local\Temp\cciNYDRP.s:22218  .debug_str:0000000000005ed9 .LASF552
C:\Users\CYMR90~1\AppData\Local\Temp\cciNYDRP.s:31273  .debug_str:000000000002a2ec .LASF553
C:\Users\CYMR90~1\AppData\Local\Temp\cciNYDRP.s:23628  .debug_str:000000000000ba6f .LASF554
C:\Users\CYMR90~1\AppData\Local\Temp\cciNYDRP.s:23816  .debug_str:000000000000c73d .LASF555
C:\Users\CYMR90~1\AppData\Local\Temp\cciNYDRP.s:22336  .debug_str:000000000000662c .LASF556
C:\Users\CYMR90~1\AppData\Local\Temp\cciNYDRP.s:22050  .debug_str:000000000000547c .LASF557
C:\Users\CYMR90~1\AppData\Local\Temp\cciNYDRP.s:25158  .debug_str:0000000000011d45 .LASF558
C:\Users\CYMR90~1\AppData\Local\Temp\cciNYDRP.s:26897  .debug_str:0000000000018d19 .LASF559
C:\Users\CYMR90~1\AppData\Local\Temp\cciNYDRP.s:30835  .debug_str:00000000000288f1 .LASF560
C:\Users\CYMR90~1\AppData\Local\Temp\cciNYDRP.s:23624  .debug_str:000000000000ba0b .LASF561
C:\Users\CYMR90~1\AppData\Local\Temp\cciNYDRP.s:24626  .debug_str:000000000000fa83 .LASF562
C:\Users\CYMR90~1\AppData\Local\Temp\cciNYDRP.s:24002  .debug_str:000000000000d44e .LASF563
C:\Users\CYMR90~1\AppData\Local\Temp\cciNYDRP.s:23326  .debug_str:000000000000a630 .LASF564
C:\Users\CYMR90~1\AppData\Local\Temp\cciNYDRP.s:29039  .debug_str:00000000000215ed .LASF565
C:\Users\CYMR90~1\AppData\Local\Temp\cciNYDRP.s:28255  .debug_str:000000000001e5c7 .LASF566
C:\Users\CYMR90~1\AppData\Local\Temp\cciNYDRP.s:25586  .debug_str:0000000000013986 .LASF567
C:\Users\CYMR90~1\AppData\Local\Temp\cciNYDRP.s:22220  .debug_str:0000000000005eed .LASF568
C:\Users\CYMR90~1\AppData\Local\Temp\cciNYDRP.s:20896  .debug_str:0000000000000bbb .LASF570
C:\Users\CYMR90~1\AppData\Local\Temp\cciNYDRP.s:26527  .debug_str:0000000000017601 .LASF571
C:\Users\CYMR90~1\AppData\Local\Temp\cciNYDRP.s:27661  .debug_str:000000000001bf92 .LASF574
C:\Users\CYMR90~1\AppData\Local\Temp\cciNYDRP.s:21788  .debug_str:000000000000440c .LASF575
C:\Users\CYMR90~1\AppData\Local\Temp\cciNYDRP.s:25778  .debug_str:000000000001452f .LASF576
C:\Users\CYMR90~1\AppData\Local\Temp\cciNYDRP.s:22746  .debug_str:0000000000008231 .LASF577
C:\Users\CYMR90~1\AppData\Local\Temp\cciNYDRP.s:28941  .debug_str:0000000000020f99 .LASF579
C:\Users\CYMR90~1\AppData\Local\Temp\cciNYDRP.s:28133  .debug_str:000000000001deba .LASF580
C:\Users\CYMR90~1\AppData\Local\Temp\cciNYDRP.s:29675  .debug_str:0000000000023b97 .LASF581
C:\Users\CYMR90~1\AppData\Local\Temp\cciNYDRP.s:22176  .debug_str:0000000000005c46 .LASF582
C:\Users\CYMR90~1\AppData\Local\Temp\cciNYDRP.s:24772  .debug_str:00000000000103b4 .LASF583
C:\Users\CYMR90~1\AppData\Local\Temp\cciNYDRP.s:21364  .debug_str:0000000000002861 .LASF584
C:\Users\CYMR90~1\AppData\Local\Temp\cciNYDRP.s:31129  .debug_str:0000000000029aa3 .LASF585
C:\Users\CYMR90~1\AppData\Local\Temp\cciNYDRP.s:29331  .debug_str:0000000000022733 .LASF586
C:\Users\CYMR90~1\AppData\Local\Temp\cciNYDRP.s:27543  .debug_str:000000000001b867 .LASF587
C:\Users\CYMR90~1\AppData\Local\Temp\cciNYDRP.s:23324  .debug_str:000000000000a620 .LASF588
C:\Users\CYMR90~1\AppData\Local\Temp\cciNYDRP.s:26807  .debug_str:00000000000186d1 .LASF589
C:\Users\CYMR90~1\AppData\Local\Temp\cciNYDRP.s:27183  .debug_str:0000000000019fcd .LASF590
C:\Users\CYMR90~1\AppData\Local\Temp\cciNYDRP.s:28005  .debug_str:000000000001d674 .LASF591
C:\Users\CYMR90~1\AppData\Local\Temp\cciNYDRP.s:27795  .debug_str:000000000001c817 .LASF592
C:\Users\CYMR90~1\AppData\Local\Temp\cciNYDRP.s:29663  .debug_str:0000000000023af4 .LASF593
C:\Users\CYMR90~1\AppData\Local\Temp\cciNYDRP.s:24734  .debug_str:0000000000010174 .LASF594
C:\Users\CYMR90~1\AppData\Local\Temp\cciNYDRP.s:25614  .debug_str:0000000000013b6b .LASF595
C:\Users\CYMR90~1\AppData\Local\Temp\cciNYDRP.s:25338  .debug_str:0000000000012918 .LASF596
C:\Users\CYMR90~1\AppData\Local\Temp\cciNYDRP.s:22510  .debug_str:00000000000071c4 .LASF597
C:\Users\CYMR90~1\AppData\Local\Temp\cciNYDRP.s:30651  .debug_str:0000000000027c31 .LASF598
C:\Users\CYMR90~1\AppData\Local\Temp\cciNYDRP.s:25506  .debug_str:00000000000134a3 .LASF599
C:\Users\CYMR90~1\AppData\Local\Temp\cciNYDRP.s:28469  .debug_str:000000000001f2ad .LASF600
C:\Users\CYMR90~1\AppData\Local\Temp\cciNYDRP.s:27731  .debug_str:000000000001c39c .LASF601
C:\Users\CYMR90~1\AppData\Local\Temp\cciNYDRP.s:30135  .debug_str:0000000000025baa .LASF602
C:\Users\CYMR90~1\AppData\Local\Temp\cciNYDRP.s:30851  .debug_str:00000000000289fb .LASF603
C:\Users\CYMR90~1\AppData\Local\Temp\cciNYDRP.s:30739  .debug_str:00000000000282aa .LASF604
C:\Users\CYMR90~1\AppData\Local\Temp\cciNYDRP.s:25456  .debug_str:00000000000130cf .LASF605
C:\Users\CYMR90~1\AppData\Local\Temp\cciNYDRP.s:29477  .debug_str:0000000000022fb4 .LASF606
C:\Users\CYMR90~1\AppData\Local\Temp\cciNYDRP.s:23102  .debug_str:00000000000098a5 .LASF607
C:\Users\CYMR90~1\AppData\Local\Temp\cciNYDRP.s:22604  .debug_str:0000000000007796 .LASF608
C:\Users\CYMR90~1\AppData\Local\Temp\cciNYDRP.s:23386  .debug_str:000000000000aa0e .LASF609
C:\Users\CYMR90~1\AppData\Local\Temp\cciNYDRP.s:27581  .debug_str:000000000001ba4d .LASF610
C:\Users\CYMR90~1\AppData\Local\Temp\cciNYDRP.s:22144  .debug_str:0000000000005a64 .LASF611
C:\Users\CYMR90~1\AppData\Local\Temp\cciNYDRP.s:29259  .debug_str:0000000000022304 .LASF612
C:\Users\CYMR90~1\AppData\Local\Temp\cciNYDRP.s:26000  .debug_str:000000000001533e .LASF613
C:\Users\CYMR90~1\AppData\Local\Temp\cciNYDRP.s:22670  .debug_str:0000000000007c86 .LASF614
C:\Users\CYMR90~1\AppData\Local\Temp\cciNYDRP.s:20796  .debug_str:0000000000000558 .LASF615
C:\Users\CYMR90~1\AppData\Local\Temp\cciNYDRP.s:26244  .debug_str:0000000000016240 .LASF616
C:\Users\CYMR90~1\AppData\Local\Temp\cciNYDRP.s:27219  .debug_str:000000000001a1fb .LASF617
C:\Users\CYMR90~1\AppData\Local\Temp\cciNYDRP.s:26376  .debug_str:0000000000016b5c .LASF618
C:\Users\CYMR90~1\AppData\Local\Temp\cciNYDRP.s:29341  .debug_str:00000000000227ba .LASF619
C:\Users\CYMR90~1\AppData\Local\Temp\cciNYDRP.s:23644  .debug_str:000000000000bc09 .LASF620
C:\Users\CYMR90~1\AppData\Local\Temp\cciNYDRP.s:22418  .debug_str:0000000000006b73 .LASF621
C:\Users\CYMR90~1\AppData\Local\Temp\cciNYDRP.s:29539  .debug_str:0000000000023337 .LASF622
C:\Users\CYMR90~1\AppData\Local\Temp\cciNYDRP.s:28641  .debug_str:000000000001fd4f .LASF623
C:\Users\CYMR90~1\AppData\Local\Temp\cciNYDRP.s:30609  .debug_str:00000000000278f8 .LASF624
C:\Users\CYMR90~1\AppData\Local\Temp\cciNYDRP.s:31229  .debug_str:000000000002a08d .LASF625
C:\Users\CYMR90~1\AppData\Local\Temp\cciNYDRP.s:25684  .debug_str:0000000000013f51 .LASF626
C:\Users\CYMR90~1\AppData\Local\Temp\cciNYDRP.s:31479  .debug_str:000000000002af86 .LASF627
C:\Users\CYMR90~1\AppData\Local\Temp\cciNYDRP.s:26090  .debug_str:000000000001585c .LASF628
C:\Users\CYMR90~1\AppData\Local\Temp\cciNYDRP.s:29283  .debug_str:0000000000022430 .LASF629
C:\Users\CYMR90~1\AppData\Local\Temp\cciNYDRP.s:22826  .debug_str:0000000000008707 .LASF630
C:\Users\CYMR90~1\AppData\Local\Temp\cciNYDRP.s:24040  .debug_str:000000000000d6b3 .LASF631
C:\Users\CYMR90~1\AppData\Local\Temp\cciNYDRP.s:29249  .debug_str:0000000000022264 .LASF632
C:\Users\CYMR90~1\AppData\Local\Temp\cciNYDRP.s:23760  .debug_str:000000000000c34a .LASF633
C:\Users\CYMR90~1\AppData\Local\Temp\cciNYDRP.s:20886  .debug_str:0000000000000b28 .LASF634
C:\Users\CYMR90~1\AppData\Local\Temp\cciNYDRP.s:27121  .debug_str:0000000000019c58 .LASF635
C:\Users\CYMR90~1\AppData\Local\Temp\cciNYDRP.s:26298  .debug_str:00000000000165d8 .LASF636
C:\Users\CYMR90~1\AppData\Local\Temp\cciNYDRP.s:27893  .debug_str:000000000001cf74 .LASF637
C:\Users\CYMR90~1\AppData\Local\Temp\cciNYDRP.s:21584  .debug_str:0000000000003699 .LASF638
C:\Users\CYMR90~1\AppData\Local\Temp\cciNYDRP.s:25108  .debug_str:0000000000011a4b .LASF639
C:\Users\CYMR90~1\AppData\Local\Temp\cciNYDRP.s:22682  .debug_str:0000000000007d2e .LASF640
C:\Users\CYMR90~1\AppData\Local\Temp\cciNYDRP.s:25320  .debug_str:00000000000127dc .LASF641
C:\Users\CYMR90~1\AppData\Local\Temp\cciNYDRP.s:23542  .debug_str:000000000000b4b4 .LASF642
C:\Users\CYMR90~1\AppData\Local\Temp\cciNYDRP.s:30593  .debug_str:00000000000277e8 .LASF643
C:\Users\CYMR90~1\AppData\Local\Temp\cciNYDRP.s:23916  .debug_str:000000000000ce50 .LASF644
C:\Users\CYMR90~1\AppData\Local\Temp\cciNYDRP.s:21760  .debug_str:000000000000420a .LASF645
C:\Users\CYMR90~1\AppData\Local\Temp\cciNYDRP.s:22566  .debug_str:0000000000007508 .LASF646
C:\Users\CYMR90~1\AppData\Local\Temp\cciNYDRP.s:21510  .debug_str:00000000000031d4 .LASF647
C:\Users\CYMR90~1\AppData\Local\Temp\cciNYDRP.s:21868  .debug_str:00000000000049ad .LASF648
C:\Users\CYMR90~1\AppData\Local\Temp\cciNYDRP.s:31127  .debug_str:0000000000029a64 .LASF649
C:\Users\CYMR90~1\AppData\Local\Temp\cciNYDRP.s:25024  .debug_str:000000000001138d .LASF650
C:\Users\CYMR90~1\AppData\Local\Temp\cciNYDRP.s:31245  .debug_str:000000000002a167 .LASF651
C:\Users\CYMR90~1\AppData\Local\Temp\cciNYDRP.s:24636  .debug_str:000000000000fb45 .LASF652
C:\Users\CYMR90~1\AppData\Local\Temp\cciNYDRP.s:20780  .debug_str:0000000000000484 .LASF653
C:\Users\CYMR90~1\AppData\Local\Temp\cciNYDRP.s:31465  .debug_str:000000000002aec5 .LASF654
C:\Users\CYMR90~1\AppData\Local\Temp\cciNYDRP.s:22920  .debug_str:0000000000008d57 .LASF655
C:\Users\CYMR90~1\AppData\Local\Temp\cciNYDRP.s:30667  .debug_str:0000000000027d2a .LASF656
C:\Users\CYMR90~1\AppData\Local\Temp\cciNYDRP.s:20828  .debug_str:0000000000000768 .LASF657
C:\Users\CYMR90~1\AppData\Local\Temp\cciNYDRP.s:31295  .debug_str:000000000002a472 .LASF658
C:\Users\CYMR90~1\AppData\Local\Temp\cciNYDRP.s:25418  .debug_str:0000000000012e57 .LASF659
C:\Users\CYMR90~1\AppData\Local\Temp\cciNYDRP.s:27825  .debug_str:000000000001c9e3 .LASF660
C:\Users\CYMR90~1\AppData\Local\Temp\cciNYDRP.s:24316  .debug_str:000000000000e772 .LASF661
C:\Users\CYMR90~1\AppData\Local\Temp\cciNYDRP.s:28497  .debug_str:000000000001f47f .LASF662
C:\Users\CYMR90~1\AppData\Local\Temp\cciNYDRP.s:30447  .debug_str:0000000000026ee0 .LASF663
C:\Users\CYMR90~1\AppData\Local\Temp\cciNYDRP.s:25004  .debug_str:0000000000011265 .LASF664
C:\Users\CYMR90~1\AppData\Local\Temp\cciNYDRP.s:24996  .debug_str:0000000000011207 .LASF665
C:\Users\CYMR90~1\AppData\Local\Temp\cciNYDRP.s:26907  .debug_str:0000000000018deb .LASF666
C:\Users\CYMR90~1\AppData\Local\Temp\cciNYDRP.s:22156  .debug_str:0000000000005b25 .LASF667
C:\Users\CYMR90~1\AppData\Local\Temp\cciNYDRP.s:31963  .debug_str:000000000002d028 .LASF668
C:\Users\CYMR90~1\AppData\Local\Temp\cciNYDRP.s:22532  .debug_str:0000000000007312 .LASF669
C:\Users\CYMR90~1\AppData\Local\Temp\cciNYDRP.s:29133  .debug_str:0000000000021bb3 .LASF670
C:\Users\CYMR90~1\AppData\Local\Temp\cciNYDRP.s:25400  .debug_str:0000000000012d34 .LASF671
C:\Users\CYMR90~1\AppData\Local\Temp\cciNYDRP.s:28545  .debug_str:000000000001f729 .LASF672
C:\Users\CYMR90~1\AppData\Local\Temp\cciNYDRP.s:29263  .debug_str:0000000000022335 .LASF673
C:\Users\CYMR90~1\AppData\Local\Temp\cciNYDRP.s:21150  .debug_str:0000000000001b7b .LASF674
C:\Users\CYMR90~1\AppData\Local\Temp\cciNYDRP.s:26076  .debug_str:000000000001577d .LASF676
C:\Users\CYMR90~1\AppData\Local\Temp\cciNYDRP.s:29695  .debug_str:0000000000023cd3 .LASF677
C:\Users\CYMR90~1\AppData\Local\Temp\cciNYDRP.s:27135  .debug_str:0000000000019d0d .LASF678
C:\Users\CYMR90~1\AppData\Local\Temp\cciNYDRP.s:29795  .debug_str:0000000000024410 .LASF679
C:\Users\CYMR90~1\AppData\Local\Temp\cciNYDRP.s:28251  .debug_str:000000000001e59b .LASF680
C:\Users\CYMR90~1\AppData\Local\Temp\cciNYDRP.s:31143  .debug_str:0000000000029b80 .LASF681
C:\Users\CYMR90~1\AppData\Local\Temp\cciNYDRP.s:21762  .debug_str:0000000000004248 .LASF682
C:\Users\CYMR90~1\AppData\Local\Temp\cciNYDRP.s:21684  .debug_str:0000000000003cf5 .LASF683
C:\Users\CYMR90~1\AppData\Local\Temp\cciNYDRP.s:23060  .debug_str:000000000000959b .LASF684
C:\Users\CYMR90~1\AppData\Local\Temp\cciNYDRP.s:27587  .debug_str:000000000001ba89 .LASF685
C:\Users\CYMR90~1\AppData\Local\Temp\cciNYDRP.s:28997  .debug_str:000000000002136f .LASF686
C:\Users\CYMR90~1\AppData\Local\Temp\cciNYDRP.s:26354  .debug_str:000000000001698d .LASF687
C:\Users\CYMR90~1\AppData\Local\Temp\cciNYDRP.s:24930  .debug_str:0000000000010e33 .LASF688
C:\Users\CYMR90~1\AppData\Local\Temp\cciNYDRP.s:21564  .debug_str:000000000000352b .LASF689
C:\Users\CYMR90~1\AppData\Local\Temp\cciNYDRP.s:22424  .debug_str:0000000000006bf2 .LASF690
C:\Users\CYMR90~1\AppData\Local\Temp\cciNYDRP.s:25270  .debug_str:0000000000012485 .LASF691
C:\Users\CYMR90~1\AppData\Local\Temp\cciNYDRP.s:26116  .debug_str:00000000000159ef .LASF692
C:\Users\CYMR90~1\AppData\Local\Temp\cciNYDRP.s:22122  .debug_str:0000000000005927 .LASF695
C:\Users\CYMR90~1\AppData\Local\Temp\cciNYDRP.s:26525  .debug_str:00000000000175ea .LASF696
C:\Users\CYMR90~1\AppData\Local\Temp\cciNYDRP.s:23942  .debug_str:000000000000cffc .LASF697
C:\Users\CYMR90~1\AppData\Local\Temp\cciNYDRP.s:27553  .debug_str:000000000001b8c8 .LASF698
C:\Users\CYMR90~1\AppData\Local\Temp\cciNYDRP.s:29735  .debug_str:0000000000023efe .LASF699
C:\Users\CYMR90~1\AppData\Local\Temp\cciNYDRP.s:25854  .debug_str:00000000000149b7 .LASF702
C:\Users\CYMR90~1\AppData\Local\Temp\cciNYDRP.s:23080  .debug_str:00000000000096de .LASF703
C:\Users\CYMR90~1\AppData\Local\Temp\cciNYDRP.s:28439  .debug_str:000000000001f0ec .LASF704
C:\Users\CYMR90~1\AppData\Local\Temp\cciNYDRP.s:21946  .debug_str:0000000000004e6b .LASF705
C:\Users\CYMR90~1\AppData\Local\Temp\cciNYDRP.s:26184  .debug_str:0000000000015e6d .LASF706
C:\Users\CYMR90~1\AppData\Local\Temp\cciNYDRP.s:24514  .debug_str:000000000000f339 .LASF707
C:\Users\CYMR90~1\AppData\Local\Temp\cciNYDRP.s:30867  .debug_str:0000000000028af3 .LASF708
C:\Users\CYMR90~1\AppData\Local\Temp\cciNYDRP.s:30107  .debug_str:0000000000025a07 .LASF709
C:\Users\CYMR90~1\AppData\Local\Temp\cciNYDRP.s:24154  .debug_str:000000000000dd7a .LASF710
C:\Users\CYMR90~1\AppData\Local\Temp\cciNYDRP.s:24670  .debug_str:000000000000fd76 .LASF711
C:\Users\CYMR90~1\AppData\Local\Temp\cciNYDRP.s:26328  .debug_str:000000000001679f .LASF712
C:\Users\CYMR90~1\AppData\Local\Temp\cciNYDRP.s:23320  .debug_str:000000000000a5c6 .LASF713
C:\Users\CYMR90~1\AppData\Local\Temp\cciNYDRP.s:31685  .debug_str:000000000002bd6f .LASF714
C:\Users\CYMR90~1\AppData\Local\Temp\cciNYDRP.s:22666  .debug_str:0000000000007c21 .LASF715
C:\Users\CYMR90~1\AppData\Local\Temp\cciNYDRP.s:23584  .debug_str:000000000000b76d .LASF716
C:\Users\CYMR90~1\AppData\Local\Temp\cciNYDRP.s:28657  .debug_str:000000000001fe6d .LASF717
C:\Users\CYMR90~1\AppData\Local\Temp\cciNYDRP.s:30063  .debug_str:00000000000256c0 .LASF718
C:\Users\CYMR90~1\AppData\Local\Temp\cciNYDRP.s:29839  .debug_str:00000000000246bb .LASF719
C:\Users\CYMR90~1\AppData\Local\Temp\cciNYDRP.s:26841  .debug_str:0000000000018943 .LASF720
C:\Users\CYMR90~1\AppData\Local\Temp\cciNYDRP.s:21206  .debug_str:0000000000001ebb .LASF721
C:\Users\CYMR90~1\AppData\Local\Temp\cciNYDRP.s:28769  .debug_str:0000000000020575 .LASF722
C:\Users\CYMR90~1\AppData\Local\Temp\cciNYDRP.s:27741  .debug_str:000000000001c40b .LASF723
C:\Users\CYMR90~1\AppData\Local\Temp\cciNYDRP.s:28309  .debug_str:000000000001e944 .LASF724
C:\Users\CYMR90~1\AppData\Local\Temp\cciNYDRP.s:29241  .debug_str:0000000000022212 .LASF725
C:\Users\CYMR90~1\AppData\Local\Temp\cciNYDRP.s:25522  .debug_str:00000000000135af .LASF726
C:\Users\CYMR90~1\AppData\Local\Temp\cciNYDRP.s:23314  .debug_str:000000000000a56c .LASF727
C:\Users\CYMR90~1\AppData\Local\Temp\cciNYDRP.s:30201  .debug_str:0000000000025fbf .LASF728
C:\Users\CYMR90~1\AppData\Local\Temp\cciNYDRP.s:21116  .debug_str:0000000000001995 .LASF729
C:\Users\CYMR90~1\AppData\Local\Temp\cciNYDRP.s:27023  .debug_str:000000000001959c .LASF730
C:\Users\CYMR90~1\AppData\Local\Temp\cciNYDRP.s:25494  .debug_str:00000000000133db .LASF731
C:\Users\CYMR90~1\AppData\Local\Temp\cciNYDRP.s:30137  .debug_str:0000000000025be5 .LASF732
C:\Users\CYMR90~1\AppData\Local\Temp\cciNYDRP.s:31889  .debug_str:000000000002cb5f .LASF733
C:\Users\CYMR90~1\AppData\Local\Temp\cciNYDRP.s:24980  .debug_str:0000000000011101 .LASF734
C:\Users\CYMR90~1\AppData\Local\Temp\cciNYDRP.s:24906  .debug_str:0000000000010cf0 .LASF735
C:\Users\CYMR90~1\AppData\Local\Temp\cciNYDRP.s:31819  .debug_str:000000000002c685 .LASF736
C:\Users\CYMR90~1\AppData\Local\Temp\cciNYDRP.s:23886  .debug_str:000000000000cc54 .LASF737
C:\Users\CYMR90~1\AppData\Local\Temp\cciNYDRP.s:27891  .debug_str:000000000001cf63 .LASF738
C:\Users\CYMR90~1\AppData\Local\Temp\cciNYDRP.s:31567  .debug_str:000000000002b586 .LASF739
C:\Users\CYMR90~1\AppData\Local\Temp\cciNYDRP.s:21118  .debug_str:00000000000019a8 .LASF740
C:\Users\CYMR90~1\AppData\Local\Temp\cciNYDRP.s:23822  .debug_str:000000000000c7ad .LASF741
C:\Users\CYMR90~1\AppData\Local\Temp\cciNYDRP.s:21094  .debug_str:000000000000185b .LASF742
C:\Users\CYMR90~1\AppData\Local\Temp\cciNYDRP.s:24938  .debug_str:0000000000010e8c .LASF743
C:\Users\CYMR90~1\AppData\Local\Temp\cciNYDRP.s:21548  .debug_str:0000000000003456 .LASF744
C:\Users\CYMR90~1\AppData\Local\Temp\cciNYDRP.s:22932  .debug_str:0000000000008e1f .LASF745
C:\Users\CYMR90~1\AppData\Local\Temp\cciNYDRP.s:29253  .debug_str:00000000000222b3 .LASF746
C:\Users\CYMR90~1\AppData\Local\Temp\cciNYDRP.s:21000  .debug_str:0000000000001209 .LASF747
C:\Users\CYMR90~1\AppData\Local\Temp\cciNYDRP.s:20990  .debug_str:0000000000001185 .LASF748
C:\Users\CYMR90~1\AppData\Local\Temp\cciNYDRP.s:22102  .debug_str:00000000000057ae .LASF750
C:\Users\CYMR90~1\AppData\Local\Temp\cciNYDRP.s:24858  .debug_str:000000000001094b .LASF751
C:\Users\CYMR90~1\AppData\Local\Temp\cciNYDRP.s:31031  .debug_str:00000000000294c0 .LASF752
C:\Users\CYMR90~1\AppData\Local\Temp\cciNYDRP.s:24798  .debug_str:000000000001054b .LASF753
C:\Users\CYMR90~1\AppData\Local\Temp\cciNYDRP.s:21988  .debug_str:0000000000005102 .LASF754
C:\Users\CYMR90~1\AppData\Local\Temp\cciNYDRP.s:23566  .debug_str:000000000000b666 .LASF755
C:\Users\CYMR90~1\AppData\Local\Temp\cciNYDRP.s:27097  .debug_str:0000000000019b02 .LASF756
C:\Users\CYMR90~1\AppData\Local\Temp\cciNYDRP.s:23068  .debug_str:0000000000009613 .LASF757
C:\Users\CYMR90~1\AppData\Local\Temp\cciNYDRP.s:30091  .debug_str:000000000002591f .LASF758
C:\Users\CYMR90~1\AppData\Local\Temp\cciNYDRP.s:31925  .debug_str:000000000002cdf4 .LASF759
C:\Users\CYMR90~1\AppData\Local\Temp\cciNYDRP.s:27469  .debug_str:000000000001b3d1 .LASF760
C:\Users\CYMR90~1\AppData\Local\Temp\cciNYDRP.s:31667  .debug_str:000000000002bc29 .LASF761
C:\Users\CYMR90~1\AppData\Local\Temp\cciNYDRP.s:23492  .debug_str:000000000000b12b .LASF762
C:\Users\CYMR90~1\AppData\Local\Temp\cciNYDRP.s:27477  .debug_str:000000000001b465 .LASF765
C:\Users\CYMR90~1\AppData\Local\Temp\cciNYDRP.s:26154  .debug_str:0000000000015c42 .LASF766
C:\Users\CYMR90~1\AppData\Local\Temp\cciNYDRP.s:29143  .debug_str:0000000000021c49 .LASF767
C:\Users\CYMR90~1\AppData\Local\Temp\cciNYDRP.s:26144  .debug_str:0000000000015bd2 .LASF768
C:\Users\CYMR90~1\AppData\Local\Temp\cciNYDRP.s:21352  .debug_str:00000000000027a0 .LASF769
C:\Users\CYMR90~1\AppData\Local\Temp\cciNYDRP.s:27603  .debug_str:000000000001bbce .LASF770
C:\Users\CYMR90~1\AppData\Local\Temp\cciNYDRP.s:26240  .debug_str:000000000001621a .LASF771
C:\Users\CYMR90~1\AppData\Local\Temp\cciNYDRP.s:29805  .debug_str:0000000000024497 .LASF772
C:\Users\CYMR90~1\AppData\Local\Temp\cciNYDRP.s:29435  .debug_str:0000000000022d76 .LASF773
C:\Users\CYMR90~1\AppData\Local\Temp\cciNYDRP.s:24238  .debug_str:000000000000e26a .LASF774
C:\Users\CYMR90~1\AppData\Local\Temp\cciNYDRP.s:30139  .debug_str:0000000000025bfb .LASF775
C:\Users\CYMR90~1\AppData\Local\Temp\cciNYDRP.s:23210  .debug_str:0000000000009f64 .LASF776
C:\Users\CYMR90~1\AppData\Local\Temp\cciNYDRP.s:23226  .debug_str:000000000000a068 .LASF777
C:\Users\CYMR90~1\AppData\Local\Temp\cciNYDRP.s:28241  .debug_str:000000000001e4fa .LASF778
C:\Users\CYMR90~1\AppData\Local\Temp\cciNYDRP.s:24736  .debug_str:000000000001019c .LASF779
C:\Users\CYMR90~1\AppData\Local\Temp\cciNYDRP.s:28505  .debug_str:000000000001f4f4 .LASF780
C:\Users\CYMR90~1\AppData\Local\Temp\cciNYDRP.s:29139  .debug_str:0000000000021c10 .LASF781
C:\Users\CYMR90~1\AppData\Local\Temp\cciNYDRP.s:25222  .debug_str:00000000000121a1 .LASF782
C:\Users\CYMR90~1\AppData\Local\Temp\cciNYDRP.s:26362  .debug_str:0000000000016ab0 .LASF783
C:\Users\CYMR90~1\AppData\Local\Temp\cciNYDRP.s:25124  .debug_str:0000000000011b49 .LASF784
C:\Users\CYMR90~1\AppData\Local\Temp\cciNYDRP.s:24414  .debug_str:000000000000ed2b .LASF785
C:\Users\CYMR90~1\AppData\Local\Temp\cciNYDRP.s:21120  .debug_str:00000000000019b9 .LASF786
C:\Users\CYMR90~1\AppData\Local\Temp\cciNYDRP.s:25868  .debug_str:0000000000014adc .LASF787
C:\Users\CYMR90~1\AppData\Local\Temp\cciNYDRP.s:28175  .debug_str:000000000001e13b .LASF788
C:\Users\CYMR90~1\AppData\Local\Temp\cciNYDRP.s:24596  .debug_str:000000000000f8b5 .LASF789
C:\Users\CYMR90~1\AppData\Local\Temp\cciNYDRP.s:22036  .debug_str:00000000000053dd .LASF790
C:\Users\CYMR90~1\AppData\Local\Temp\cciNYDRP.s:30495  .debug_str:0000000000027276 .LASF791
C:\Users\CYMR90~1\AppData\Local\Temp\cciNYDRP.s:22790  .debug_str:00000000000084ba .LASF792
C:\Users\CYMR90~1\AppData\Local\Temp\cciNYDRP.s:31895  .debug_str:000000000002cbad .LASF793
C:\Users\CYMR90~1\AppData\Local\Temp\cciNYDRP.s:22576  .debug_str:00000000000075dc .LASF794
C:\Users\CYMR90~1\AppData\Local\Temp\cciNYDRP.s:30745  .debug_str:0000000000028309 .LASF795
C:\Users\CYMR90~1\AppData\Local\Temp\cciNYDRP.s:28745  .debug_str:0000000000020397 .LASF796
C:\Users\CYMR90~1\AppData\Local\Temp\cciNYDRP.s:31457  .debug_str:000000000002ae74 .LASF797
C:\Users\CYMR90~1\AppData\Local\Temp\cciNYDRP.s:22408  .debug_str:0000000000006ad0 .LASF798
C:\Users\CYMR90~1\AppData\Local\Temp\cciNYDRP.s:30809  .debug_str:0000000000028769 .LASF799
C:\Users\CYMR90~1\AppData\Local\Temp\cciNYDRP.s:22002  .debug_str:00000000000051ce .LASF800
C:\Users\CYMR90~1\AppData\Local\Temp\cciNYDRP.s:27239  .debug_str:000000000001a4a3 .LASF801
C:\Users\CYMR90~1\AppData\Local\Temp\cciNYDRP.s:27267  .debug_str:000000000001a667 .LASF802
C:\Users\CYMR90~1\AppData\Local\Temp\cciNYDRP.s:23132  .debug_str:0000000000009a8f .LASF803
C:\Users\CYMR90~1\AppData\Local\Temp\cciNYDRP.s:25622  .debug_str:0000000000013bda .LASF804
C:\Users\CYMR90~1\AppData\Local\Temp\cciNYDRP.s:22422  .debug_str:0000000000006b97 .LASF805
C:\Users\CYMR90~1\AppData\Local\Temp\cciNYDRP.s:25076  .debug_str:0000000000011790 .LASF806
C:\Users\CYMR90~1\AppData\Local\Temp\cciNYDRP.s:28197  .debug_str:000000000001e251 .LASF807
C:\Users\CYMR90~1\AppData\Local\Temp\cciNYDRP.s:27791  .debug_str:000000000001c7c7 .LASF808
C:\Users\CYMR90~1\AppData\Local\Temp\cciNYDRP.s:30211  .debug_str:0000000000026056 .LASF809
C:\Users\CYMR90~1\AppData\Local\Temp\cciNYDRP.s:31671  .debug_str:000000000002bc7e .LASF810
C:\Users\CYMR90~1\AppData\Local\Temp\cciNYDRP.s:22816  .debug_str:0000000000008649 .LASF811
C:\Users\CYMR90~1\AppData\Local\Temp\cciNYDRP.s:21744  .debug_str:0000000000004140 .LASF812
C:\Users\CYMR90~1\AppData\Local\Temp\cciNYDRP.s:31705  .debug_str:000000000002bf32 .LASF813
C:\Users\CYMR90~1\AppData\Local\Temp\cciNYDRP.s:22098  .debug_str:0000000000005787 .LASF814
C:\Users\CYMR90~1\AppData\Local\Temp\cciNYDRP.s:22318  .debug_str:00000000000064f3 .LASF815
C:\Users\CYMR90~1\AppData\Local\Temp\cciNYDRP.s:27567  .debug_str:000000000001b980 .LASF816
C:\Users\CYMR90~1\AppData\Local\Temp\cciNYDRP.s:22998  .debug_str:00000000000091cc .LASF817
C:\Users\CYMR90~1\AppData\Local\Temp\cciNYDRP.s:27711  .debug_str:000000000001c291 .LASF818
C:\Users\CYMR90~1\AppData\Local\Temp\cciNYDRP.s:27607  .debug_str:000000000001bbe6 .LASF819
C:\Users\CYMR90~1\AppData\Local\Temp\cciNYDRP.s:20872  .debug_str:0000000000000a2e .LASF820
C:\Users\CYMR90~1\AppData\Local\Temp\cciNYDRP.s:31297  .debug_str:000000000002a482 .LASF821
C:\Users\CYMR90~1\AppData\Local\Temp\cciNYDRP.s:29799  .debug_str:000000000002444e .LASF822
C:\Users\CYMR90~1\AppData\Local\Temp\cciNYDRP.s:22964  .debug_str:0000000000008fae .LASF823
C:\Users\CYMR90~1\AppData\Local\Temp\cciNYDRP.s:26286  .debug_str:0000000000016535 .LASF824
C:\Users\CYMR90~1\AppData\Local\Temp\cciNYDRP.s:27895  .debug_str:000000000001cf9e .LASF825
C:\Users\CYMR90~1\AppData\Local\Temp\cciNYDRP.s:26074  .debug_str:000000000001575c .LASF826
C:\Users\CYMR90~1\AppData\Local\Temp\cciNYDRP.s:21632  .debug_str:00000000000039d3 .LASF827
C:\Users\CYMR90~1\AppData\Local\Temp\cciNYDRP.s:24394  .debug_str:000000000000ec1e .LASF828
C:\Users\CYMR90~1\AppData\Local\Temp\cciNYDRP.s:29907  .debug_str:0000000000024b74 .LASF829
C:\Users\CYMR90~1\AppData\Local\Temp\cciNYDRP.s:30081  .debug_str:000000000002585f .LASF830
C:\Users\CYMR90~1\AppData\Local\Temp\cciNYDRP.s:23572  .debug_str:000000000000b6c1 .LASF831
C:\Users\CYMR90~1\AppData\Local\Temp\cciNYDRP.s:24340  .debug_str:000000000000e8fc .LASF832
C:\Users\CYMR90~1\AppData\Local\Temp\cciNYDRP.s:22184  .debug_str:0000000000005cb2 .LASF833
C:\Users\CYMR90~1\AppData\Local\Temp\cciNYDRP.s:24982  .debug_str:0000000000011112 .LASF834
C:\Users\CYMR90~1\AppData\Local\Temp\cciNYDRP.s:26765  .debug_str:0000000000018492 .LASF835
C:\Users\CYMR90~1\AppData\Local\Temp\cciNYDRP.s:24888  .debug_str:0000000000010b7d .LASF836
C:\Users\CYMR90~1\AppData\Local\Temp\cciNYDRP.s:28649  .debug_str:000000000001fdf1 .LASF837
C:\Users\CYMR90~1\AppData\Local\Temp\cciNYDRP.s:22862  .debug_str:000000000000895f .LASF838
C:\Users\CYMR90~1\AppData\Local\Temp\cciNYDRP.s:22024  .debug_str:000000000000533e .LASF839
C:\Users\CYMR90~1\AppData\Local\Temp\cciNYDRP.s:24786  .debug_str:0000000000010489 .LASF840
C:\Users\CYMR90~1\AppData\Local\Temp\cciNYDRP.s:23968  .debug_str:000000000000d1e6 .LASF841
C:\Users\CYMR90~1\AppData\Local\Temp\cciNYDRP.s:27807  .debug_str:000000000001c8dd .LASF842
C:\Users\CYMR90~1\AppData\Local\Temp\cciNYDRP.s:20944  .debug_str:0000000000000efb .LASF843
C:\Users\CYMR90~1\AppData\Local\Temp\cciNYDRP.s:21290  .debug_str:000000000000236c .LASF844
C:\Users\CYMR90~1\AppData\Local\Temp\cciNYDRP.s:29655  .debug_str:0000000000023a87 .LASF845
C:\Users\CYMR90~1\AppData\Local\Temp\cciNYDRP.s:20710  .debug_str:00000000000000bf .LASF846
C:\Users\CYMR90~1\AppData\Local\Temp\cciNYDRP.s:22656  .debug_str:0000000000007b94 .LASF847
C:\Users\CYMR90~1\AppData\Local\Temp\cciNYDRP.s:28509  .debug_str:000000000001f526 .LASF848
C:\Users\CYMR90~1\AppData\Local\Temp\cciNYDRP.s:22624  .debug_str:000000000000790b .LASF849
C:\Users\CYMR90~1\AppData\Local\Temp\cciNYDRP.s:23998  .debug_str:000000000000d420 .LASF852
C:\Users\CYMR90~1\AppData\Local\Temp\cciNYDRP.s:30861  .debug_str:0000000000028a9b .LASF853
C:\Users\CYMR90~1\AppData\Local\Temp\cciNYDRP.s:25928  .debug_str:0000000000014eff .LASF854
C:\Users\CYMR90~1\AppData\Local\Temp\cciNYDRP.s:29149  .debug_str:0000000000021cd5 .LASF856
C:\Users\CYMR90~1\AppData\Local\Temp\cciNYDRP.s:28033  .debug_str:000000000001d827 .LASF857
C:\Users\CYMR90~1\AppData\Local\Temp\cciNYDRP.s:30679  .debug_str:0000000000027dde .LASF858
C:\Users\CYMR90~1\AppData\Local\Temp\cciNYDRP.s:23986  .debug_str:000000000000d355 .LASF859
C:\Users\CYMR90~1\AppData\Local\Temp\cciNYDRP.s:24936  .debug_str:0000000000010e82 .LASF860
C:\Users\CYMR90~1\AppData\Local\Temp\cciNYDRP.s:29079  .debug_str:000000000002185e .LASF861
C:\Users\CYMR90~1\AppData\Local\Temp\cciNYDRP.s:28233  .debug_str:000000000001e4aa .LASF862
C:\Users\CYMR90~1\AppData\Local\Temp\cciNYDRP.s:21036  .debug_str:0000000000001427 .LASF863
C:\Users\CYMR90~1\AppData\Local\Temp\cciNYDRP.s:21688  .debug_str:0000000000003d23 .LASF864
C:\Users\CYMR90~1\AppData\Local\Temp\cciNYDRP.s:22068  .debug_str:00000000000055c9 .LASF865
C:\Users\CYMR90~1\AppData\Local\Temp\cciNYDRP.s:23262  .debug_str:000000000000a2aa .LASF866
C:\Users\CYMR90~1\AppData\Local\Temp\cciNYDRP.s:22726  .debug_str:00000000000080bd .LASF867
C:\Users\CYMR90~1\AppData\Local\Temp\cciNYDRP.s:27963  .debug_str:000000000001d3af .LASF868
C:\Users\CYMR90~1\AppData\Local\Temp\cciNYDRP.s:28591  .debug_str:000000000001fa3e .LASF869
C:\Users\CYMR90~1\AppData\Local\Temp\cciNYDRP.s:29669  .debug_str:0000000000023b50 .LASF870
C:\Users\CYMR90~1\AppData\Local\Temp\cciNYDRP.s:22900  .debug_str:0000000000008c0b .LASF871
C:\Users\CYMR90~1\AppData\Local\Temp\cciNYDRP.s:23338  .debug_str:000000000000a723 .LASF872
C:\Users\CYMR90~1\AppData\Local\Temp\cciNYDRP.s:27799  .debug_str:000000000001c86b .LASF873
C:\Users\CYMR90~1\AppData\Local\Temp\cciNYDRP.s:30379  .debug_str:0000000000026aa2 .LASF874
C:\Users\CYMR90~1\AppData\Local\Temp\cciNYDRP.s:28019  .debug_str:000000000001d746 .LASF875
C:\Users\CYMR90~1\AppData\Local\Temp\cciNYDRP.s:25832  .debug_str:00000000000148ba .LASF876
C:\Users\CYMR90~1\AppData\Local\Temp\cciNYDRP.s:23138  .debug_str:0000000000009ae4 .LASF877
C:\Users\CYMR90~1\AppData\Local\Temp\cciNYDRP.s:27507  .debug_str:000000000001b640 .LASF878
C:\Users\CYMR90~1\AppData\Local\Temp\cciNYDRP.s:29989  .debug_str:00000000000250f7 .LASF879
C:\Users\CYMR90~1\AppData\Local\Temp\cciNYDRP.s:26473  .debug_str:00000000000172d7 .LASF880
C:\Users\CYMR90~1\AppData\Local\Temp\cciNYDRP.s:22004  .debug_str:00000000000051e7 .LASF881
C:\Users\CYMR90~1\AppData\Local\Temp\cciNYDRP.s:25358  .debug_str:0000000000012a90 .LASF882
C:\Users\CYMR90~1\AppData\Local\Temp\cciNYDRP.s:28483  .debug_str:000000000001f3c6 .LASF883
C:\Users\CYMR90~1\AppData\Local\Temp\cciNYDRP.s:28661  .debug_str:000000000001fe9a .LASF884
C:\Users\CYMR90~1\AppData\Local\Temp\cciNYDRP.s:31949  .debug_str:000000000002cf3c .LASF885
C:\Users\CYMR90~1\AppData\Local\Temp\cciNYDRP.s:27513  .debug_str:000000000001b698 .LASF886
C:\Users\CYMR90~1\AppData\Local\Temp\cciNYDRP.s:23010  .debug_str:0000000000009273 .LASF887
C:\Users\CYMR90~1\AppData\Local\Temp\cciNYDRP.s:29621  .debug_str:000000000002389d .LASF888
C:\Users\CYMR90~1\AppData\Local\Temp\cciNYDRP.s:25296  .debug_str:000000000001265a .LASF889
C:\Users\CYMR90~1\AppData\Local\Temp\cciNYDRP.s:29555  .debug_str:000000000002344b .LASF890
C:\Users\CYMR90~1\AppData\Local\Temp\cciNYDRP.s:21832  .debug_str:0000000000004795 .LASF891
C:\Users\CYMR90~1\AppData\Local\Temp\cciNYDRP.s:24290  .debug_str:000000000000e5ce .LASF892
C:\Users\CYMR90~1\AppData\Local\Temp\cciNYDRP.s:30327  .debug_str:0000000000026797 .LASF893
C:\Users\CYMR90~1\AppData\Local\Temp\cciNYDRP.s:29715  .debug_str:0000000000023df5 .LASF894
C:\Users\CYMR90~1\AppData\Local\Temp\cciNYDRP.s:21012  .debug_str:00000000000012b3 .LASF895
C:\Users\CYMR90~1\AppData\Local\Temp\cciNYDRP.s:25686  .debug_str:0000000000013f89 .LASF896
C:\Users\CYMR90~1\AppData\Local\Temp\cciNYDRP.s:21916  .debug_str:0000000000004c9e .LASF897
C:\Users\CYMR90~1\AppData\Local\Temp\cciNYDRP.s:23128  .debug_str:0000000000009a50 .LASF898
C:\Users\CYMR90~1\AppData\Local\Temp\cciNYDRP.s:30621  .debug_str:0000000000027a08 .LASF899
C:\Users\CYMR90~1\AppData\Local\Temp\cciNYDRP.s:23450  .debug_str:000000000000aee0 .LASF900
C:\Users\CYMR90~1\AppData\Local\Temp\cciNYDRP.s:27559  .debug_str:000000000001b8fe .LASF901
C:\Users\CYMR90~1\AppData\Local\Temp\cciNYDRP.s:31165  .debug_str:0000000000029cdb .LASF902
C:\Users\CYMR90~1\AppData\Local\Temp\cciNYDRP.s:29905  .debug_str:0000000000024b4e .LASF903
C:\Users\CYMR90~1\AppData\Local\Temp\cciNYDRP.s:30767  .debug_str:0000000000028474 .LASF904
C:\Users\CYMR90~1\AppData\Local\Temp\cciNYDRP.s:25342  .debug_str:0000000000012982 .LASF905
C:\Users\CYMR90~1\AppData\Local\Temp\cciNYDRP.s:22778  .debug_str:0000000000008420 .LASF906
C:\Users\CYMR90~1\AppData\Local\Temp\cciNYDRP.s:31339  .debug_str:000000000002a76a .LASF907
C:\Users\CYMR90~1\AppData\Local\Temp\cciNYDRP.s:24286  .debug_str:000000000000e58b .LASF908
C:\Users\CYMR90~1\AppData\Local\Temp\cciNYDRP.s:30597  .debug_str:0000000000027848 .LASF909
C:\Users\CYMR90~1\AppData\Local\Temp\cciNYDRP.s:24908  .debug_str:0000000000010d01 .LASF910
C:\Users\CYMR90~1\AppData\Local\Temp\cciNYDRP.s:21386  .debug_str:00000000000029bc .LASF911
C:\Users\CYMR90~1\AppData\Local\Temp\cciNYDRP.s:20984  .debug_str:0000000000001148 .LASF912
C:\Users\CYMR90~1\AppData\Local\Temp\cciNYDRP.s:28999  .debug_str:0000000000021393 .LASF913
C:\Users\CYMR90~1\AppData\Local\Temp\cciNYDRP.s:29887  .debug_str:0000000000024a36 .LASF914
C:\Users\CYMR90~1\AppData\Local\Temp\cciNYDRP.s:23834  .debug_str:000000000000c87f .LASF915
C:\Users\CYMR90~1\AppData\Local\Temp\cciNYDRP.s:26443  .debug_str:0000000000017114 .LASF916
C:\Users\CYMR90~1\AppData\Local\Temp\cciNYDRP.s:24718  .debug_str:000000000001006e .LASF917
C:\Users\CYMR90~1\AppData\Local\Temp\cciNYDRP.s:31413  .debug_str:000000000002ab92 .LASF918
C:\Users\CYMR90~1\AppData\Local\Temp\cciNYDRP.s:20970  .debug_str:0000000000001054 .LASF919
C:\Users\CYMR90~1\AppData\Local\Temp\cciNYDRP.s:23436  .debug_str:000000000000adff .LASF920
C:\Users\CYMR90~1\AppData\Local\Temp\cciNYDRP.s:29841  .debug_str:00000000000246d0 .LASF921
C:\Users\CYMR90~1\AppData\Local\Temp\cciNYDRP.s:27261  .debug_str:000000000001a5f5 .LASF922
C:\Users\CYMR90~1\AppData\Local\Temp\cciNYDRP.s:30359  .debug_str:0000000000026977 .LASF923
C:\Users\CYMR90~1\AppData\Local\Temp\cciNYDRP.s:26401  .debug_str:0000000000016eb7 .LASF924
C:\Users\CYMR90~1\AppData\Local\Temp\cciNYDRP.s:21344  .debug_str:000000000000270d .LASF925
C:\Users\CYMR90~1\AppData\Local\Temp\cciNYDRP.s:27471  .debug_str:000000000001b40b .LASF926
C:\Users\CYMR90~1\AppData\Local\Temp\cciNYDRP.s:21074  .debug_str:000000000000170f .LASF927
C:\Users\CYMR90~1\AppData\Local\Temp\cciNYDRP.s:25860  .debug_str:0000000000014a56 .LASF928
C:\Users\CYMR90~1\AppData\Local\Temp\cciNYDRP.s:28541  .debug_str:000000000001f6f0 .LASF929
C:\Users\CYMR90~1\AppData\Local\Temp\cciNYDRP.s:31669  .debug_str:000000000002bc61 .LASF930
C:\Users\CYMR90~1\AppData\Local\Temp\cciNYDRP.s:31887  .debug_str:000000000002cb41 .LASF931
C:\Users\CYMR90~1\AppData\Local\Temp\cciNYDRP.s:28441  .debug_str:000000000001f100 .LASF932
C:\Users\CYMR90~1\AppData\Local\Temp\cciNYDRP.s:31145  .debug_str:0000000000029b90 .LASF933
C:\Users\CYMR90~1\AppData\Local\Temp\cciNYDRP.s:26204  .debug_str:0000000000015ff5 .LASF934
C:\Users\CYMR90~1\AppData\Local\Temp\cciNYDRP.s:27031  .debug_str:0000000000019616 .LASF935
C:\Users\CYMR90~1\AppData\Local\Temp\cciNYDRP.s:26078  .debug_str:0000000000015791 .LASF936
C:\Users\CYMR90~1\AppData\Local\Temp\cciNYDRP.s:29979  .debug_str:000000000002506e .LASF937
C:\Users\CYMR90~1\AppData\Local\Temp\cciNYDRP.s:20890  .debug_str:0000000000000b61 .LASF938
C:\Users\CYMR90~1\AppData\Local\Temp\cciNYDRP.s:28807  .debug_str:00000000000207a6 .LASF939
C:\Users\CYMR90~1\AppData\Local\Temp\cciNYDRP.s:30065  .debug_str:00000000000256cc .LASF940
C:\Users\CYMR90~1\AppData\Local\Temp\cciNYDRP.s:23574  .debug_str:000000000000b6df .LASF941
C:\Users\CYMR90~1\AppData\Local\Temp\cciNYDRP.s:27249  .debug_str:000000000001a53c .LASF942
C:\Users\CYMR90~1\AppData\Local\Temp\cciNYDRP.s:24328  .debug_str:000000000000e80a .LASF943
C:\Users\CYMR90~1\AppData\Local\Temp\cciNYDRP.s:30005  .debug_str:000000000002529a .LASF944
C:\Users\CYMR90~1\AppData\Local\Temp\cciNYDRP.s:27655  .debug_str:000000000001bf38 .LASF945
C:\Users\CYMR90~1\AppData\Local\Temp\cciNYDRP.s:24536  .debug_str:000000000000f487 .LASF946
C:\Users\CYMR90~1\AppData\Local\Temp\cciNYDRP.s:26551  .debug_str:0000000000017792 .LASF947
C:\Users\CYMR90~1\AppData\Local\Temp\cciNYDRP.s:21854  .debug_str:00000000000048e7 .LASF948
C:\Users\CYMR90~1\AppData\Local\Temp\cciNYDRP.s:24884  .debug_str:0000000000010b3f .LASF949
C:\Users\CYMR90~1\AppData\Local\Temp\cciNYDRP.s:23892  .debug_str:000000000000ccaa .LASF950
C:\Users\CYMR90~1\AppData\Local\Temp\cciNYDRP.s:22486  .debug_str:0000000000007001 .LASF952
C:\Users\CYMR90~1\AppData\Local\Temp\cciNYDRP.s:26002  .debug_str:0000000000015355 .LASF953
C:\Users\CYMR90~1\AppData\Local\Temp\cciNYDRP.s:23926  .debug_str:000000000000cf08 .LASF954
C:\Users\CYMR90~1\AppData\Local\Temp\cciNYDRP.s:31879  .debug_str:000000000002cacc .LASF955
C:\Users\CYMR90~1\AppData\Local\Temp\cciNYDRP.s:31045  .debug_str:000000000002954e .LASF956
C:\Users\CYMR90~1\AppData\Local\Temp\cciNYDRP.s:31133  .debug_str:0000000000029adb .LASF960
C:\Users\CYMR90~1\AppData\Local\Temp\cciNYDRP.s:23038  .debug_str:000000000000947c .LASF961
C:\Users\CYMR90~1\AppData\Local\Temp\cciNYDRP.s:30387  .debug_str:0000000000026b2d .LASF962
C:\Users\CYMR90~1\AppData\Local\Temp\cciNYDRP.s:25116  .debug_str:0000000000011acd .LASF963
C:\Users\CYMR90~1\AppData\Local\Temp\cciNYDRP.s:22512  .debug_str:00000000000071e8 .LASF964
C:\Users\CYMR90~1\AppData\Local\Temp\cciNYDRP.s:29181  .debug_str:0000000000021e9a .LASF965
C:\Users\CYMR90~1\AppData\Local\Temp\cciNYDRP.s:27465  .debug_str:000000000001b39f .LASF966
C:\Users\CYMR90~1\AppData\Local\Temp\cciNYDRP.s:30333  .debug_str:00000000000267f3 .LASF967
C:\Users\CYMR90~1\AppData\Local\Temp\cciNYDRP.s:31453  .debug_str:000000000002ae22 .LASF968
C:\Users\CYMR90~1\AppData\Local\Temp\cciNYDRP.s:22242  .debug_str:000000000000605e .LASF969
C:\Users\CYMR90~1\AppData\Local\Temp\cciNYDRP.s:25728  .debug_str:0000000000014251 .LASF970
C:\Users\CYMR90~1\AppData\Local\Temp\cciNYDRP.s:31539  .debug_str:000000000002b3b3 .LASF971
C:\Users\CYMR90~1\AppData\Local\Temp\cciNYDRP.s:24338  .debug_str:000000000000e8d6 .LASF972
C:\Users\CYMR90~1\AppData\Local\Temp\cciNYDRP.s:25790  .debug_str:0000000000014624 .LASF973
C:\Users\CYMR90~1\AppData\Local\Temp\cciNYDRP.s:23948  .debug_str:000000000000d055 .LASF974
C:\Users\CYMR90~1\AppData\Local\Temp\cciNYDRP.s:26334  .debug_str:0000000000016819 .LASF975
C:\Users\CYMR90~1\AppData\Local\Temp\cciNYDRP.s:31911  .debug_str:000000000002cc72 .LASF976
C:\Users\CYMR90~1\AppData\Local\Temp\cciNYDRP.s:23888  .debug_str:000000000000cc65 .LASF977
C:\Users\CYMR90~1\AppData\Local\Temp\cciNYDRP.s:31937  .debug_str:000000000002ceb9 .LASF978
C:\Users\CYMR90~1\AppData\Local\Temp\cciNYDRP.s:30171  .debug_str:0000000000025dcc .LASF979
C:\Users\CYMR90~1\AppData\Local\Temp\cciNYDRP.s:30229  .debug_str:000000000002616a .LASF980
C:\Users\CYMR90~1\AppData\Local\Temp\cciNYDRP.s:24392  .debug_str:000000000000ec04 .LASF981
C:\Users\CYMR90~1\AppData\Local\Temp\cciNYDRP.s:21956  .debug_str:0000000000004f15 .LASF982
C:\Users\CYMR90~1\AppData\Local\Temp\cciNYDRP.s:25140  .debug_str:0000000000011c44 .LASF983
C:\Users\CYMR90~1\AppData\Local\Temp\cciNYDRP.s:27871  .debug_str:000000000001cd85 .LASF984
C:\Users\CYMR90~1\AppData\Local\Temp\cciNYDRP.s:27885  .debug_str:000000000001ce7b .LASF985
C:\Users\CYMR90~1\AppData\Local\Temp\cciNYDRP.s:29467  .debug_str:0000000000022f4c .LASF986
C:\Users\CYMR90~1\AppData\Local\Temp\cciNYDRP.s:26150  .debug_str:0000000000015c1e .LASF987
C:\Users\CYMR90~1\AppData\Local\Temp\cciNYDRP.s:21404  .debug_str:0000000000002acf .LASF988
C:\Users\CYMR90~1\AppData\Local\Temp\cciNYDRP.s:29377  .debug_str:0000000000022a49 .LASF989
C:\Users\CYMR90~1\AppData\Local\Temp\cciNYDRP.s:26857  .debug_str:0000000000018a28 .LASF990
C:\Users\CYMR90~1\AppData\Local\Temp\cciNYDRP.s:23884  .debug_str:000000000000cc3d .LASF991
C:\Users\CYMR90~1\AppData\Local\Temp\cciNYDRP.s:30335  .debug_str:000000000002681b .LASF992
C:\Users\CYMR90~1\AppData\Local\Temp\cciNYDRP.s:22528  .debug_str:00000000000072d9 .LASF993
C:\Users\CYMR90~1\AppData\Local\Temp\cciNYDRP.s:30149  .debug_str:0000000000025c65 .LASF994
C:\Users\CYMR90~1\AppData\Local\Temp\cciNYDRP.s:26937  .debug_str:000000000001906a .LASF995
C:\Users\CYMR90~1\AppData\Local\Temp\cciNYDRP.s:30949  .debug_str:0000000000028fe2 .LASF996
C:\Users\CYMR90~1\AppData\Local\Temp\cciNYDRP.s:28075  .debug_str:000000000001da71 .LASF997
C:\Users\CYMR90~1\AppData\Local\Temp\cciNYDRP.s:28143  .debug_str:000000000001df3b .LASF998
C:\Users\CYMR90~1\AppData\Local\Temp\cciNYDRP.s:21302  .debug_str:0000000000002400 .LASF999
C:\Users\CYMR90~1\AppData\Local\Temp\cciNYDRP.s:21638  .debug_str:0000000000003a2d .LASF1000
C:\Users\CYMR90~1\AppData\Local\Temp\cciNYDRP.s:29817  .debug_str:0000000000024555 .LASF1001
C:\Users\CYMR90~1\AppData\Local\Temp\cciNYDRP.s:24726  .debug_str:00000000000100f6 .LASF1002
C:\Users\CYMR90~1\AppData\Local\Temp\cciNYDRP.s:21908  .debug_str:0000000000004c45 .LASF1003
C:\Users\CYMR90~1\AppData\Local\Temp\cciNYDRP.s:27695  .debug_str:000000000001c1aa .LASF1004
C:\Users\CYMR90~1\AppData\Local\Temp\cciNYDRP.s:25092  .debug_str:00000000000118bd .LASF1005
C:\Users\CYMR90~1\AppData\Local\Temp\cciNYDRP.s:23848  .debug_str:000000000000ca41 .LASF1006
C:\Users\CYMR90~1\AppData\Local\Temp\cciNYDRP.s:22216  .debug_str:0000000000005ebb .LASF1007
C:\Users\CYMR90~1\AppData\Local\Temp\cciNYDRP.s:29175  .debug_str:0000000000021e53 .LASF1008
C:\Users\CYMR90~1\AppData\Local\Temp\cciNYDRP.s:26629  .debug_str:0000000000017c6e .LASF1009
C:\Users\CYMR90~1\AppData\Local\Temp\cciNYDRP.s:26789  .debug_str:00000000000185da .LASF1010
C:\Users\CYMR90~1\AppData\Local\Temp\cciNYDRP.s:24160  .debug_str:000000000000ddc8 .LASF1011
C:\Users\CYMR90~1\AppData\Local\Temp\cciNYDRP.s:27935  .debug_str:000000000001d208 .LASF1012
C:\Users\CYMR90~1\AppData\Local\Temp\cciNYDRP.s:24354  .debug_str:000000000000e9c9 .LASF1013
C:\Users\CYMR90~1\AppData\Local\Temp\cciNYDRP.s:27047  .debug_str:0000000000019764 .LASF1014
C:\Users\CYMR90~1\AppData\Local\Temp\cciNYDRP.s:23772  .debug_str:000000000000c3fe .LASF1015
C:\Users\CYMR90~1\AppData\Local\Temp\cciNYDRP.s:22106  .debug_str:00000000000057e4 .LASF1016
C:\Users\CYMR90~1\AppData\Local\Temp\cciNYDRP.s:22058  .debug_str:0000000000005532 .LASF1017
C:\Users\CYMR90~1\AppData\Local\Temp\cciNYDRP.s:30485  .debug_str:0000000000027136 .LASF1018
C:\Users\CYMR90~1\AppData\Local\Temp\cciNYDRP.s:24402  .debug_str:000000000000ec86 .LASF1019
C:\Users\CYMR90~1\AppData\Local\Temp\cciNYDRP.s:21296  .debug_str:00000000000023b7 .LASF1020
C:\Users\CYMR90~1\AppData\Local\Temp\cciNYDRP.s:26671  .debug_str:0000000000017edf .LASF1021
C:\Users\CYMR90~1\AppData\Local\Temp\cciNYDRP.s:23708  .debug_str:000000000000c011 .LASF1022
C:\Users\CYMR90~1\AppData\Local\Temp\cciNYDRP.s:30407  .debug_str:0000000000026c48 .LASF1023
C:\Users\CYMR90~1\AppData\Local\Temp\cciNYDRP.s:22944  .debug_str:0000000000008ec2 .LASF1024
C:\Users\CYMR90~1\AppData\Local\Temp\cciNYDRP.s:25412  .debug_str:0000000000012df1 .LASF1025
C:\Users\CYMR90~1\AppData\Local\Temp\cciNYDRP.s:24912  .debug_str:0000000000010d42 .LASF1026
C:\Users\CYMR90~1\AppData\Local\Temp\cciNYDRP.s:25852  .debug_str:00000000000149a2 .LASF1027
C:\Users\CYMR90~1\AppData\Local\Temp\cciNYDRP.s:28011  .debug_str:000000000001d6c3 .LASF1028
C:\Users\CYMR90~1\AppData\Local\Temp\cciNYDRP.s:28397  .debug_str:000000000001ee47 .LASF1029
C:\Users\CYMR90~1\AppData\Local\Temp\cciNYDRP.s:29689  .debug_str:0000000000023c81 .LASF1030
C:\Users\CYMR90~1\AppData\Local\Temp\cciNYDRP.s:28765  .debug_str:0000000000020545 .LASF1031
C:\Users\CYMR90~1\AppData\Local\Temp\cciNYDRP.s:31047  .debug_str:00000000000295b6 .LASF1032
C:\Users\CYMR90~1\AppData\Local\Temp\cciNYDRP.s:23090  .debug_str:00000000000097cd .LASF1033
C:\Users\CYMR90~1\AppData\Local\Temp\cciNYDRP.s:21964  .debug_str:0000000000004f97 .LASF1034
C:\Users\CYMR90~1\AppData\Local\Temp\cciNYDRP.s:26979  .debug_str:00000000000192ef .LASF1035
C:\Users\CYMR90~1\AppData\Local\Temp\cciNYDRP.s:29507  .debug_str:0000000000023151 .LASF1036
C:\Users\CYMR90~1\AppData\Local\Temp\cciNYDRP.s:29483  .debug_str:0000000000022ff9 .LASF1037
C:\Users\CYMR90~1\AppData\Local\Temp\cciNYDRP.s:24578  .debug_str:000000000000f7d6 .LASF1038
C:\Users\CYMR90~1\AppData\Local\Temp\cciNYDRP.s:28117  .debug_str:000000000001dda7 .LASF1039
C:\Users\CYMR90~1\AppData\Local\Temp\cciNYDRP.s:26018  .debug_str:000000000001546c .LASF1040
C:\Users\CYMR90~1\AppData\Local\Temp\cciNYDRP.s:24484  .debug_str:000000000000f168 .LASF1041
C:\Users\CYMR90~1\AppData\Local\Temp\cciNYDRP.s:30221  .debug_str:00000000000260f3 .LASF1042
C:\Users\CYMR90~1\AppData\Local\Temp\cciNYDRP.s:24728  .debug_str:000000000001010d .LASF1043
C:\Users\CYMR90~1\AppData\Local\Temp\cciNYDRP.s:20728  .debug_str:00000000000001bc .LASF1044
C:\Users\CYMR90~1\AppData\Local\Temp\cciNYDRP.s:22956  .debug_str:0000000000008f49 .LASF1045
C:\Users\CYMR90~1\AppData\Local\Temp\cciNYDRP.s:27173  .debug_str:0000000000019f54 .LASF1046
C:\Users\CYMR90~1\AppData\Local\Temp\cciNYDRP.s:26270  .debug_str:00000000000163c9 .LASF1047
C:\Users\CYMR90~1\AppData\Local\Temp\cciNYDRP.s:29529  .debug_str:000000000002329a .LASF1048
C:\Users\CYMR90~1\AppData\Local\Temp\cciNYDRP.s:28361  .debug_str:000000000001ec0f .LASF1049
C:\Users\CYMR90~1\AppData\Local\Temp\cciNYDRP.s:21478  .debug_str:0000000000002fca .LASF1050
C:\Users\CYMR90~1\AppData\Local\Temp\cciNYDRP.s:28371  .debug_str:000000000001ec9a .LASF1051
C:\Users\CYMR90~1\AppData\Local\Temp\cciNYDRP.s:28573  .debug_str:000000000001f90a .LASF1052
C:\Users\CYMR90~1\AppData\Local\Temp\cciNYDRP.s:23448  .debug_str:000000000000aece .LASF1053
C:\Users\CYMR90~1\AppData\Local\Temp\cciNYDRP.s:29425  .debug_str:0000000000022ced .LASF1054
C:\Users\CYMR90~1\AppData\Local\Temp\cciNYDRP.s:25386  .debug_str:0000000000012c41 .LASF1055
C:\Users\CYMR90~1\AppData\Local\Temp\cciNYDRP.s:24334  .debug_str:000000000000e884 .LASF1056
C:\Users\CYMR90~1\AppData\Local\Temp\cciNYDRP.s:30657  .debug_str:0000000000027c91 .LASF1057
C:\Users\CYMR90~1\AppData\Local\Temp\cciNYDRP.s:31259  .debug_str:000000000002a215 .LASF1058
C:\Users\CYMR90~1\AppData\Local\Temp\cciNYDRP.s:29977  .debug_str:000000000002504c .LASF1059
C:\Users\CYMR90~1\AppData\Local\Temp\cciNYDRP.s:21156  .debug_str:0000000000001be6 .LASF1060
C:\Users\CYMR90~1\AppData\Local\Temp\cciNYDRP.s:22758  .debug_str:00000000000082dd .LASF1061
C:\Users\CYMR90~1\AppData\Local\Temp\cciNYDRP.s:20854  .debug_str:00000000000008c6 .LASF1062
C:\Users\CYMR90~1\AppData\Local\Temp\cciNYDRP.s:25766  .debug_str:0000000000014459 .LASF1063
C:\Users\CYMR90~1\AppData\Local\Temp\cciNYDRP.s:21686  .debug_str:0000000000003d0c .LASF1064
C:\Users\CYMR90~1\AppData\Local\Temp\cciNYDRP.s:20794  .debug_str:0000000000000541 .LASF1065
C:\Users\CYMR90~1\AppData\Local\Temp\cciNYDRP.s:31943  .debug_str:000000000002cf02 .LASF1066
C:\Users\CYMR90~1\AppData\Local\Temp\cciNYDRP.s:22958  .debug_str:0000000000008f61 .LASF1067
C:\Users\CYMR90~1\AppData\Local\Temp\cciNYDRP.s:26332  .debug_str:00000000000167ff .LASF1068
C:\Users\CYMR90~1\AppData\Local\Temp\cciNYDRP.s:27903  .debug_str:000000000001d011 .LASF1069
C:\Users\CYMR90~1\AppData\Local\Temp\cciNYDRP.s:20908  .debug_str:0000000000000c53 .LASF1070
C:\Users\CYMR90~1\AppData\Local\Temp\cciNYDRP.s:23216  .debug_str:0000000000009fb8 .LASF1071
C:\Users\CYMR90~1\AppData\Local\Temp\cciNYDRP.s:29327  .debug_str:0000000000022702 .LASF1072
C:\Users\CYMR90~1\AppData\Local\Temp\cciNYDRP.s:27867  .debug_str:000000000001cd43 .LASF1073
C:\Users\CYMR90~1\AppData\Local\Temp\cciNYDRP.s:30913  .debug_str:0000000000028d78 .LASF1074
C:\Users\CYMR90~1\AppData\Local\Temp\cciNYDRP.s:26481  .debug_str:0000000000017338 .LASF1075
C:\Users\CYMR90~1\AppData\Local\Temp\cciNYDRP.s:21338  .debug_str:00000000000026bd .LASF1076
C:\Users\CYMR90~1\AppData\Local\Temp\cciNYDRP.s:31345  .debug_str:000000000002a7b9 .LASF1077
C:\Users\CYMR90~1\AppData\Local\Temp\cciNYDRP.s:22276  .debug_str:0000000000006281 .LASF1078
C:\Users\CYMR90~1\AppData\Local\Temp\cciNYDRP.s:28805  .debug_str:0000000000020794 .LASF1079
C:\Users\CYMR90~1\AppData\Local\Temp\cciNYDRP.s:24174  .debug_str:000000000000de92 .LASF1080
C:\Users\CYMR90~1\AppData\Local\Temp\cciNYDRP.s:27675  .debug_str:000000000001c07b .LASF1081
C:\Users\CYMR90~1\AppData\Local\Temp\cciNYDRP.s:30515  .debug_str:00000000000273ae .LASF1082
C:\Users\CYMR90~1\AppData\Local\Temp\cciNYDRP.s:25960  .debug_str:00000000000150f2 .LASF1083
C:\Users\CYMR90~1\AppData\Local\Temp\cciNYDRP.s:29021  .debug_str:00000000000214f9 .LASF1084
C:\Users\CYMR90~1\AppData\Local\Temp\cciNYDRP.s:21984  .debug_str:00000000000050ca .LASF1085
C:\Users\CYMR90~1\AppData\Local\Temp\cciNYDRP.s:21106  .debug_str:000000000000190d .LASF1086
C:\Users\CYMR90~1\AppData\Local\Temp\cciNYDRP.s:24208  .debug_str:000000000000e086 .LASF1087
C:\Users\CYMR90~1\AppData\Local\Temp\cciNYDRP.s:30227  .debug_str:000000000002615b .LASF1088
C:\Users\CYMR90~1\AppData\Local\Temp\cciNYDRP.s:29321  .debug_str:00000000000226aa .LASF1089
C:\Users\CYMR90~1\AppData\Local\Temp\cciNYDRP.s:20962  .debug_str:0000000000000fde .LASF1090
C:\Users\CYMR90~1\AppData\Local\Temp\cciNYDRP.s:31875  .debug_str:000000000002ca74 .LASF1091
C:\Users\CYMR90~1\AppData\Local\Temp\cciNYDRP.s:30619  .debug_str:00000000000279f0 .LASF1092
C:\Users\CYMR90~1\AppData\Local\Temp\cciNYDRP.s:24556  .debug_str:000000000000f5a6 .LASF1093
C:\Users\CYMR90~1\AppData\Local\Temp\cciNYDRP.s:30273  .debug_str:00000000000263e3 .LASF1094
C:\Users\CYMR90~1\AppData\Local\Temp\cciNYDRP.s:26034  .debug_str:0000000000015517 .LASF1095
C:\Users\CYMR90~1\AppData\Local\Temp\cciNYDRP.s:27485  .debug_str:000000000001b4d0 .LASF1096
C:\Users\CYMR90~1\AppData\Local\Temp\cciNYDRP.s:28015  .debug_str:000000000001d715 .LASF1097
C:\Users\CYMR90~1\AppData\Local\Temp\cciNYDRP.s:22266  .debug_str:0000000000006202 .LASF1098
C:\Users\CYMR90~1\AppData\Local\Temp\cciNYDRP.s:25406  .debug_str:0000000000012d78 .LASF1099
C:\Users\CYMR90~1\AppData\Local\Temp\cciNYDRP.s:24722  .debug_str:00000000000100c5 .LASF1100
C:\Users\CYMR90~1\AppData\Local\Temp\cciNYDRP.s:29605  .debug_str:00000000000237a1 .LASF1101
C:\Users\CYMR90~1\AppData\Local\Temp\cciNYDRP.s:23898  .debug_str:000000000000cd04 .LASF1102
C:\Users\CYMR90~1\AppData\Local\Temp\cciNYDRP.s:29269  .debug_str:0000000000022376 .LASF1103
C:\Users\CYMR90~1\AppData\Local\Temp\cciNYDRP.s:30855  .debug_str:0000000000028a49 .LASF1104
C:\Users\CYMR90~1\AppData\Local\Temp\cciNYDRP.s:28695  .debug_str:0000000000020075 .LASF1105
C:\Users\CYMR90~1\AppData\Local\Temp\cciNYDRP.s:25588  .debug_str:00000000000139b5 .LASF1106
C:\Users\CYMR90~1\AppData\Local\Temp\cciNYDRP.s:29525  .debug_str:0000000000023264 .LASF1107
C:\Users\CYMR90~1\AppData\Local\Temp\cciNYDRP.s:27405  .debug_str:000000000001aff2 .LASF1108
C:\Users\CYMR90~1\AppData\Local\Temp\cciNYDRP.s:22280  .debug_str:00000000000062bd .LASF1109
C:\Users\CYMR90~1\AppData\Local\Temp\cciNYDRP.s:23246  .debug_str:000000000000a17b .LASF1110
C:\Users\CYMR90~1\AppData\Local\Temp\cciNYDRP.s:21168  .debug_str:0000000000001ca3 .LASF1111
C:\Users\CYMR90~1\AppData\Local\Temp\cciNYDRP.s:22364  .debug_str:0000000000006809 .LASF1112
C:\Users\CYMR90~1\AppData\Local\Temp\cciNYDRP.s:23472  .debug_str:000000000000b033 .LASF1113
C:\Users\CYMR90~1\AppData\Local\Temp\cciNYDRP.s:22028  .debug_str:0000000000005366 .LASF1114
C:\Users\CYMR90~1\AppData\Local\Temp\cciNYDRP.s:23042  .debug_str:00000000000094a3 .LASF1115
C:\Users\CYMR90~1\AppData\Local\Temp\cciNYDRP.s:30699  .debug_str:0000000000027f70 .LASF1116
C:\Users\CYMR90~1\AppData\Local\Temp\cciNYDRP.s:31209  .debug_str:0000000000029f35 .LASF1117
C:\Users\CYMR90~1\AppData\Local\Temp\cciNYDRP.s:22186  .debug_str:0000000000005cdc .LASF1118
C:\Users\CYMR90~1\AppData\Local\Temp\cciNYDRP.s:26645  .debug_str:0000000000017d6a .LASF1119
C:\Users\CYMR90~1\AppData\Local\Temp\cciNYDRP.s:22724  .debug_str:00000000000080a0 .LASF1120
C:\Users\CYMR90~1\AppData\Local\Temp\cciNYDRP.s:22938  .debug_str:0000000000008e61 .LASF1121
C:\Users\CYMR90~1\AppData\Local\Temp\cciNYDRP.s:25526  .debug_str:00000000000135de .LASF1122
C:\Users\CYMR90~1\AppData\Local\Temp\cciNYDRP.s:25164  .debug_str:0000000000011daf .LASF1123
C:\Users\CYMR90~1\AppData\Local\Temp\cciNYDRP.s:28781  .debug_str:000000000002063d .LASF1124
C:\Users\CYMR90~1\AppData\Local\Temp\cciNYDRP.s:25964  .debug_str:000000000001511c .LASF1125
C:\Users\CYMR90~1\AppData\Local\Temp\cciNYDRP.s:26054  .debug_str:0000000000015650 .LASF1126
C:\Users\CYMR90~1\AppData\Local\Temp\cciNYDRP.s:29415  .debug_str:0000000000022c4f .LASF1127
C:\Users\CYMR90~1\AppData\Local\Temp\cciNYDRP.s:30513  .debug_str:0000000000027399 .LASF1128
C:\Users\CYMR90~1\AppData\Local\Temp\cciNYDRP.s:22070  .debug_str:00000000000055d6 .LASF1129
C:\Users\CYMR90~1\AppData\Local\Temp\cciNYDRP.s:26052  .debug_str:000000000001563b .LASF1130
C:\Users\CYMR90~1\AppData\Local\Temp\cciNYDRP.s:31043  .debug_str:0000000000029539 .LASF1131
C:\Users\CYMR90~1\AppData\Local\Temp\cciNYDRP.s:31443  .debug_str:000000000002ad94 .LASF1132
C:\Users\CYMR90~1\AppData\Local\Temp\cciNYDRP.s:26759  .debug_str:000000000001840d .LASF1133
C:\Users\CYMR90~1\AppData\Local\Temp\cciNYDRP.s:29577  .debug_str:00000000000235af .LASF1134
C:\Users\CYMR90~1\AppData\Local\Temp\cciNYDRP.s:22612  .debug_str:0000000000007865 .LASF1135
C:\Users\CYMR90~1\AppData\Local\Temp\cciNYDRP.s:21852  .debug_str:00000000000048cf .LASF1136
C:\Users\CYMR90~1\AppData\Local\Temp\cciNYDRP.s:21690  .debug_str:0000000000003d2e .LASF1137
C:\Users\CYMR90~1\AppData\Local\Temp\cciNYDRP.s:31053  .debug_str:0000000000029615 .LASF1138
C:\Users\CYMR90~1\AppData\Local\Temp\cciNYDRP.s:28147  .debug_str:000000000001df74 .LASF1139
C:\Users\CYMR90~1\AppData\Local\Temp\cciNYDRP.s:28049  .debug_str:000000000001d90e .LASF1140
C:\Users\CYMR90~1\AppData\Local\Temp\cciNYDRP.s:20772  .debug_str:0000000000000420 .LASF1141
C:\Users\CYMR90~1\AppData\Local\Temp\cciNYDRP.s:24958  .debug_str:0000000000010fb6 .LASF1142
C:\Users\CYMR90~1\AppData\Local\Temp\cciNYDRP.s:24214  .debug_str:000000000000e0f9 .LASF1143
C:\Users\CYMR90~1\AppData\Local\Temp\cciNYDRP.s:30569  .debug_str:000000000002768e .LASF1144
C:\Users\CYMR90~1\AppData\Local\Temp\cciNYDRP.s:28743  .debug_str:000000000002037d .LASF1145
C:\Users\CYMR90~1\AppData\Local\Temp\cciNYDRP.s:23744  .debug_str:000000000000c25a .LASF1146
C:\Users\CYMR90~1\AppData\Local\Temp\cciNYDRP.s:31871  .debug_str:000000000002ca32 .LASF1147
C:\Users\CYMR90~1\AppData\Local\Temp\cciNYDRP.s:26505  .debug_str:0000000000017498 .LASF1148
C:\Users\CYMR90~1\AppData\Local\Temp\cciNYDRP.s:26767  .debug_str:00000000000184ba .LASF1149
C:\Users\CYMR90~1\AppData\Local\Temp\cciNYDRP.s:27505  .debug_str:000000000001b605 .LASF1150
C:\Users\CYMR90~1\AppData\Local\Temp\cciNYDRP.s:21170  .debug_str:0000000000001cc1 .LASF1151
C:\Users\CYMR90~1\AppData\Local\Temp\cciNYDRP.s:27925  .debug_str:000000000001d173 .LASF1152
C:\Users\CYMR90~1\AppData\Local\Temp\cciNYDRP.s:23064  .debug_str:00000000000095bc .LASF1153
C:\Users\CYMR90~1\AppData\Local\Temp\cciNYDRP.s:29035  .debug_str:00000000000215ab .LASF1154
C:\Users\CYMR90~1\AppData\Local\Temp\cciNYDRP.s:28273  .debug_str:000000000001e73c .LASF1155
C:\Users\CYMR90~1\AppData\Local\Temp\cciNYDRP.s:25880  .debug_str:0000000000014b8c .LASF1156
C:\Users\CYMR90~1\AppData\Local\Temp\cciNYDRP.s:28111  .debug_str:000000000001dd2c .LASF1157
C:\Users\CYMR90~1\AppData\Local\Temp\cciNYDRP.s:23490  .debug_str:000000000000b119 .LASF1158
C:\Users\CYMR90~1\AppData\Local\Temp\cciNYDRP.s:31227  .debug_str:000000000002a07b .LASF1159
C:\Users\CYMR90~1\AppData\Local\Temp\cciNYDRP.s:21060  .debug_str:000000000000158f .LASF1160
C:\Users\CYMR90~1\AppData\Local\Temp\cciNYDRP.s:31307  .debug_str:000000000002a561 .LASF1161
C:\Users\CYMR90~1\AppData\Local\Temp\cciNYDRP.s:30989  .debug_str:000000000002923f .LASF1162
C:\Users\CYMR90~1\AppData\Local\Temp\cciNYDRP.s:28001  .debug_str:000000000001d646 .LASF1163
C:\Users\CYMR90~1\AppData\Local\Temp\cciNYDRP.s:27137  .debug_str:0000000000019d1e .LASF1164
C:\Users\CYMR90~1\AppData\Local\Temp\cciNYDRP.s:24030  .debug_str:000000000000d63d .LASF1165
C:\Users\CYMR90~1\AppData\Local\Temp\cciNYDRP.s:28665  .debug_str:000000000001fed6 .LASF1166
C:\Users\CYMR90~1\AppData\Local\Temp\cciNYDRP.s:24920  .debug_str:0000000000010dab .LASF1167
C:\Users\CYMR90~1\AppData\Local\Temp\cciNYDRP.s:23062  .debug_str:00000000000095b2 .LASF1168
C:\Users\CYMR90~1\AppData\Local\Temp\cciNYDRP.s:25994  .debug_str:00000000000152f6 .LASF1169
C:\Users\CYMR90~1\AppData\Local\Temp\cciNYDRP.s:27349  .debug_str:000000000001ac18 .LASF1170
C:\Users\CYMR90~1\AppData\Local\Temp\cciNYDRP.s:27049  .debug_str:000000000001977b .LASF1171
C:\Users\CYMR90~1\AppData\Local\Temp\cciNYDRP.s:31253  .debug_str:000000000002a1e3 .LASF1172
C:\Users\CYMR90~1\AppData\Local\Temp\cciNYDRP.s:26280  .debug_str:0000000000016452 .LASF1173
C:\Users\CYMR90~1\AppData\Local\Temp\cciNYDRP.s:20888  .debug_str:0000000000000b53 .LASF1174
C:\Users\CYMR90~1\AppData\Local\Temp\cciNYDRP.s:21276  .debug_str:0000000000002278 .LASF1175
C:\Users\CYMR90~1\AppData\Local\Temp\cciNYDRP.s:25498  .debug_str:000000000001342e .LASF1176
C:\Users\CYMR90~1\AppData\Local\Temp\cciNYDRP.s:23844  .debug_str:000000000000ca11 .LASF1177
C:\Users\CYMR90~1\AppData\Local\Temp\cciNYDRP.s:28059  .debug_str:000000000001d9a7 .LASF1178
C:\Users\CYMR90~1\AppData\Local\Temp\cciNYDRP.s:24450  .debug_str:000000000000ef3d .LASF1179
C:\Users\CYMR90~1\AppData\Local\Temp\cciNYDRP.s:24016  .debug_str:000000000000d582 .LASF1180
C:\Users\CYMR90~1\AppData\Local\Temp\cciNYDRP.s:29779  .debug_str:000000000002431d .LASF1181
C:\Users\CYMR90~1\AppData\Local\Temp\cciNYDRP.s:30995  .debug_str:000000000002928a .LASF1182
C:\Users\CYMR90~1\AppData\Local\Temp\cciNYDRP.s:21444  .debug_str:0000000000002d5e .LASF1183
C:\Users\CYMR90~1\AppData\Local\Temp\cciNYDRP.s:28385  .debug_str:000000000001ed7c .LASF1184
C:\Users\CYMR90~1\AppData\Local\Temp\cciNYDRP.s:28835  .debug_str:0000000000020955 .LASF1185
C:\Users\CYMR90~1\AppData\Local\Temp\cciNYDRP.s:30017  .debug_str:000000000002535c .LASF1186
C:\Users\CYMR90~1\AppData\Local\Temp\cciNYDRP.s:21172  .debug_str:0000000000001cda .LASF1187
C:\Users\CYMR90~1\AppData\Local\Temp\cciNYDRP.s:22080  .debug_str:0000000000005666 .LASF1188
C:\Users\CYMR90~1\AppData\Local\Temp\cciNYDRP.s:29309  .debug_str:00000000000225f7 .LASF1189
C:\Users\CYMR90~1\AppData\Local\Temp\cciNYDRP.s:22616  .debug_str:0000000000007896 .LASF1190
C:\Users\CYMR90~1\AppData\Local\Temp\cciNYDRP.s:29357  .debug_str:00000000000228bb .LASF1191
C:\Users\CYMR90~1\AppData\Local\Temp\cciNYDRP.s:23820  .debug_str:000000000000c79b .LASF1192
C:\Users\CYMR90~1\AppData\Local\Temp\cciNYDRP.s:29023  .debug_str:000000000002150b .LASF1193
C:\Users\CYMR90~1\AppData\Local\Temp\cciNYDRP.s:24062  .debug_str:000000000000d805 .LASF1194
C:\Users\CYMR90~1\AppData\Local\Temp\cciNYDRP.s:27605  .debug_str:000000000001bbdb .LASF1195
C:\Users\CYMR90~1\AppData\Local\Temp\cciNYDRP.s:25640  .debug_str:0000000000013cee .LASF1196
C:\Users\CYMR90~1\AppData\Local\Temp\cciNYDRP.s:29057  .debug_str:0000000000021728 .LASF1197
C:\Users\CYMR90~1\AppData\Local\Temp\cciNYDRP.s:31251  .debug_str:000000000002a1d4 .LASF1198
C:\Users\CYMR90~1\AppData\Local\Temp\cciNYDRP.s:26302  .debug_str:0000000000016622 .LASF1199
C:\Users\CYMR90~1\AppData\Local\Temp\cciNYDRP.s:31257  .debug_str:000000000002a20a .LASF1200
C:\Users\CYMR90~1\AppData\Local\Temp\cciNYDRP.s:23312  .debug_str:000000000000a560 .LASF1201
C:\Users\CYMR90~1\AppData\Local\Temp\cciNYDRP.s:22974  .debug_str:000000000000906d .LASF1202
C:\Users\CYMR90~1\AppData\Local\Temp\cciNYDRP.s:26493  .debug_str:00000000000173f7 .LASF1203
C:\Users\CYMR90~1\AppData\Local\Temp\cciNYDRP.s:30347  .debug_str:00000000000268c4 .LASF1204
C:\Users\CYMR90~1\AppData\Local\Temp\cciNYDRP.s:25552  .debug_str:00000000000137a3 .LASF1205
C:\Users\CYMR90~1\AppData\Local\Temp\cciNYDRP.s:24618  .debug_str:000000000000fa25 .LASF1206
C:\Users\CYMR90~1\AppData\Local\Temp\cciNYDRP.s:31223  .debug_str:000000000002a049 .LASF1207
C:\Users\CYMR90~1\AppData\Local\Temp\cciNYDRP.s:29869  .debug_str:0000000000024921 .LASF1208
C:\Users\CYMR90~1\AppData\Local\Temp\cciNYDRP.s:24548  .debug_str:000000000000f549 .LASF1209
C:\Users\CYMR90~1\AppData\Local\Temp\cciNYDRP.s:21978  .debug_str:0000000000005063 .LASF1210
C:\Users\CYMR90~1\AppData\Local\Temp\cciNYDRP.s:22072  .debug_str:00000000000055ec .LASF1211
C:\Users\CYMR90~1\AppData\Local\Temp\cciNYDRP.s:22762  .debug_str:0000000000008321 .LASF1212
C:\Users\CYMR90~1\AppData\Local\Temp\cciNYDRP.s:22358  .debug_str:0000000000006789 .LASF1213
C:\Users\CYMR90~1\AppData\Local\Temp\cciNYDRP.s:21286  .debug_str:0000000000002334 .LASF1214
C:\Users\CYMR90~1\AppData\Local\Temp\cciNYDRP.s:23106  .debug_str:00000000000098e7 .LASF1215
C:\Users\CYMR90~1\AppData\Local\Temp\cciNYDRP.s:21228  .debug_str:0000000000001fbf .LASF1216
C:\Users\CYMR90~1\AppData\Local\Temp\cciNYDRP.s:29479  .debug_str:0000000000022fcc .LASF1217
C:\Users\CYMR90~1\AppData\Local\Temp\cciNYDRP.s:29495  .debug_str:0000000000023093 .LASF1218
C:\Users\CYMR90~1\AppData\Local\Temp\cciNYDRP.s:29923  .debug_str:0000000000024c96 .LASF1219
C:\Users\CYMR90~1\AppData\Local\Temp\cciNYDRP.s:27489  .debug_str:000000000001b504 .LASF1220
C:\Users\CYMR90~1\AppData\Local\Temp\cciNYDRP.s:24104  .debug_str:000000000000da58 .LASF1221
C:\Users\CYMR90~1\AppData\Local\Temp\cciNYDRP.s:25814  .debug_str:00000000000147a0 .LASF1222
C:\Users\CYMR90~1\AppData\Local\Temp\cciNYDRP.s:21464  .debug_str:0000000000002e90 .LASF1223
C:\Users\CYMR90~1\AppData\Local\Temp\cciNYDRP.s:27235  .debug_str:000000000001a487 .LASF1224
C:\Users\CYMR90~1\AppData\Local\Temp\cciNYDRP.s:30533  .debug_str:00000000000274b0 .LASF1225
C:\Users\CYMR90~1\AppData\Local\Temp\cciNYDRP.s:23580  .debug_str:000000000000b73a .LASF1226
C:\Users\CYMR90~1\AppData\Local\Temp\cciNYDRP.s:22502  .debug_str:000000000000713e .LASF1227
C:\Users\CYMR90~1\AppData\Local\Temp\cciNYDRP.s:21556  .debug_str:00000000000034c7 .LASF1228
C:\Users\CYMR90~1\AppData\Local\Temp\cciNYDRP.s:31927  .debug_str:000000000002ce0e .LASF1229
C:\Users\CYMR90~1\AppData\Local\Temp\cciNYDRP.s:30971  .debug_str:000000000002912f .LASF1230
C:\Users\CYMR90~1\AppData\Local\Temp\cciNYDRP.s:29985  .debug_str:00000000000250c3 .LASF1231
C:\Users\CYMR90~1\AppData\Local\Temp\cciNYDRP.s:29011  .debug_str:0000000000021461 .LASF1232
C:\Users\CYMR90~1\AppData\Local\Temp\cciNYDRP.s:28897  .debug_str:0000000000020d39 .LASF1233
C:\Users\CYMR90~1\AppData\Local\Temp\cciNYDRP.s:27943  .debug_str:000000000001d272 .LASF1234
C:\Users\CYMR90~1\AppData\Local\Temp\cciNYDRP.s:27007  .debug_str:00000000000194c0 .LASF1235
C:\Users\CYMR90~1\AppData\Local\Temp\cciNYDRP.s:25422  .debug_str:0000000000012e8d .LASF1236
C:\Users\CYMR90~1\AppData\Local\Temp\cciNYDRP.s:25082  .debug_str:000000000001183d .LASF1237
C:\Users\CYMR90~1\AppData\Local\Temp\cciNYDRP.s:26393  .debug_str:0000000000016e32 .LASF1238
C:\Users\CYMR90~1\AppData\Local\Temp\cciNYDRP.s:23178  .debug_str:0000000000009d32 .LASF1239
C:\Users\CYMR90~1\AppData\Local\Temp\cciNYDRP.s:22182  .debug_str:0000000000005c9b .LASF1240
C:\Users\CYMR90~1\AppData\Local\Temp\cciNYDRP.s:21244  .debug_str:0000000000002098 .LASF1241
C:\Users\CYMR90~1\AppData\Local\Temp\cciNYDRP.s:31641  .debug_str:000000000002baad .LASF1242
C:\Users\CYMR90~1\AppData\Local\Temp\cciNYDRP.s:20782  .debug_str:0000000000000497 .LASF1243
C:\Users\CYMR90~1\AppData\Local\Temp\cciNYDRP.s:31117  .debug_str:00000000000299f0 .LASF1244
C:\Users\CYMR90~1\AppData\Local\Temp\cciNYDRP.s:30131  .debug_str:0000000000025b81 .LASF1245
C:\Users\CYMR90~1\AppData\Local\Temp\cciNYDRP.s:29165  .debug_str:0000000000021dbe .LASF1246
C:\Users\CYMR90~1\AppData\Local\Temp\cciNYDRP.s:28181  .debug_str:000000000001e183 .LASF1247
C:\Users\CYMR90~1\AppData\Local\Temp\cciNYDRP.s:27293  .debug_str:000000000001a881 .LASF1248
C:\Users\CYMR90~1\AppData\Local\Temp\cciNYDRP.s:26346  .debug_str:0000000000016920 .LASF1249
C:\Users\CYMR90~1\AppData\Local\Temp\cciNYDRP.s:26509  .debug_str:00000000000174f9 .LASF1250
C:\Users\CYMR90~1\AppData\Local\Temp\cciNYDRP.s:24456  .debug_str:000000000000ef82 .LASF1251
C:\Users\CYMR90~1\AppData\Local\Temp\cciNYDRP.s:26609  .debug_str:0000000000017b69 .LASF1252
C:\Users\CYMR90~1\AppData\Local\Temp\cciNYDRP.s:23954  .debug_str:000000000000d0d3 .LASF1253
C:\Users\CYMR90~1\AppData\Local\Temp\cciNYDRP.s:22988  .debug_str:000000000000913c .LASF1254
C:\Users\CYMR90~1\AppData\Local\Temp\cciNYDRP.s:21024  .debug_str:000000000000137f .LASF1255
C:\Users\CYMR90~1\AppData\Local\Temp\cciNYDRP.s:23876  .debug_str:000000000000cbe7 .LASF1256
C:\Users\CYMR90~1\AppData\Local\Temp\cciNYDRP.s:22138  .debug_str:0000000000005a19 .LASF1257
C:\Users\CYMR90~1\AppData\Local\Temp\cciNYDRP.s:26885  .debug_str:0000000000018c8d .LASF1258
C:\Users\CYMR90~1\AppData\Local\Temp\cciNYDRP.s:26887  .debug_str:0000000000018ca0 .LASF1259
C:\Users\CYMR90~1\AppData\Local\Temp\cciNYDRP.s:29361  .debug_str:00000000000228eb .LASF1260
C:\Users\CYMR90~1\AppData\Local\Temp\cciNYDRP.s:27483  .debug_str:000000000001b4bd .LASF1261
C:\Users\CYMR90~1\AppData\Local\Temp\cciNYDRP.s:24890  .debug_str:0000000000010c43 .LASF1262
C:\Users\CYMR90~1\AppData\Local\Temp\cciNYDRP.s:22032  .debug_str:00000000000053a9 .LASF1263
C:\Users\CYMR90~1\AppData\Local\Temp\cciNYDRP.s:24190  .debug_str:000000000000df78 .LASF1264
C:\Users\CYMR90~1\AppData\Local\Temp\cciNYDRP.s:26370  .debug_str:0000000000016b29 .LASF1265
C:\Users\CYMR90~1\AppData\Local\Temp\cciNYDRP.s:24242  .debug_str:000000000000e28f .LASF1266
C:\Users\CYMR90~1\AppData\Local\Temp\cciNYDRP.s:29387  .debug_str:0000000000022ae2 .LASF1267
C:\Users\CYMR90~1\AppData\Local\Temp\cciNYDRP.s:29571  .debug_str:0000000000023565 .LASF1268
C:\Users\CYMR90~1\AppData\Local\Temp\cciNYDRP.s:25020  .debug_str:000000000001135c .LASF1269
C:\Users\CYMR90~1\AppData\Local\Temp\cciNYDRP.s:31693  .debug_str:000000000002bdf8 .LASF1270
C:\Users\CYMR90~1\AppData\Local\Temp\cciNYDRP.s:26611  .debug_str:0000000000017b80 .LASF1271
C:\Users\CYMR90~1\AppData\Local\Temp\cciNYDRP.s:31079  .debug_str:00000000000297be .LASF1272
C:\Users\CYMR90~1\AppData\Local\Temp\cciNYDRP.s:28061  .debug_str:000000000001d9b4 .LASF1273
C:\Users\CYMR90~1\AppData\Local\Temp\cciNYDRP.s:20844  .debug_str:0000000000000838 .LASF1274
C:\Users\CYMR90~1\AppData\Local\Temp\cciNYDRP.s:26893  .debug_str:0000000000018cee .LASF1275
C:\Users\CYMR90~1\AppData\Local\Temp\cciNYDRP.s:20952  .debug_str:0000000000000f5a .LASF1276
C:\Users\CYMR90~1\AppData\Local\Temp\cciNYDRP.s:23198  .debug_str:0000000000009e94 .LASF1277
C:\Users\CYMR90~1\AppData\Local\Temp\cciNYDRP.s:22200  .debug_str:0000000000005db6 .LASF1278
C:\Users\CYMR90~1\AppData\Local\Temp\cciNYDRP.s:21274  .debug_str:0000000000002266 .LASF1279
C:\Users\CYMR90~1\AppData\Local\Temp\cciNYDRP.s:31661  .debug_str:000000000002bbda .LASF1280
C:\Users\CYMR90~1\AppData\Local\Temp\cciNYDRP.s:22094  .debug_str:0000000000005748 .LASF1281
C:\Users\CYMR90~1\AppData\Local\Temp\cciNYDRP.s:21158  .debug_str:0000000000001c03 .LASF1282
C:\Users\CYMR90~1\AppData\Local\Temp\cciNYDRP.s:28223  .debug_str:000000000001e416 .LASF1283
C:\Users\CYMR90~1\AppData\Local\Temp\cciNYDRP.s:30565  .debug_str:0000000000027655 .LASF1284
C:\Users\CYMR90~1\AppData\Local\Temp\cciNYDRP.s:29595  .debug_str:000000000002371b .LASF1285
C:\Users\CYMR90~1\AppData\Local\Temp\cciNYDRP.s:28615  .debug_str:000000000001fb99 .LASF1286
C:\Users\CYMR90~1\AppData\Local\Temp\cciNYDRP.s:27669  .debug_str:000000000001bffc .LASF1287
C:\Users\CYMR90~1\AppData\Local\Temp\cciNYDRP.s:26721  .debug_str:00000000000181d3 .LASF1288
C:\Users\CYMR90~1\AppData\Local\Temp\cciNYDRP.s:25754  .debug_str:00000000000143cb .LASF1289
C:\Users\CYMR90~1\AppData\Local\Temp\cciNYDRP.s:24820  .debug_str:0000000000010726 .LASF1290
C:\Users\CYMR90~1\AppData\Local\Temp\cciNYDRP.s:29111  .debug_str:0000000000021a73 .LASF1291
C:\Users\CYMR90~1\AppData\Local\Temp\cciNYDRP.s:28135  .debug_str:000000000001deca .LASF1292
C:\Users\CYMR90~1\AppData\Local\Temp\cciNYDRP.s:21562  .debug_str:0000000000003517 .LASF1293
C:\Users\CYMR90~1\AppData\Local\Temp\cciNYDRP.s:26236  .debug_str:00000000000161ee .LASF1294
C:\Users\CYMR90~1\AppData\Local\Temp\cciNYDRP.s:25304  .debug_str:00000000000126de .LASF1295
C:\Users\CYMR90~1\AppData\Local\Temp\cciNYDRP.s:24346  .debug_str:000000000000e961 .LASF1296
C:\Users\CYMR90~1\AppData\Local\Temp\cciNYDRP.s:23722  .debug_str:000000000000c104 .LASF1297
C:\Users\CYMR90~1\AppData\Local\Temp\cciNYDRP.s:28583  .debug_str:000000000001f995 .LASF1298
C:\Users\CYMR90~1\AppData\Local\Temp\cciNYDRP.s:27643  .debug_str:000000000001be6f .LASF1299
C:\Users\CYMR90~1\AppData\Local\Temp\cciNYDRP.s:26689  .debug_str:0000000000017fcf .LASF1300
C:\Users\CYMR90~1\AppData\Local\Temp\cciNYDRP.s:27617  .debug_str:000000000001bca5 .LASF1301
C:\Users\CYMR90~1\AppData\Local\Temp\cciNYDRP.s:31569  .debug_str:000000000002b597 .LASF1302
C:\Users\CYMR90~1\AppData\Local\Temp\cciNYDRP.s:26278  .debug_str:000000000001643f .LASF1303
C:\Users\CYMR90~1\AppData\Local\Temp\cciNYDRP.s:27147  .debug_str:0000000000019dc2 .LASF1304
C:\Users\CYMR90~1\AppData\Local\Temp\cciNYDRP.s:27117  .debug_str:0000000000019c29 .LASF1305
C:\Users\CYMR90~1\AppData\Local\Temp\cciNYDRP.s:22876  .debug_str:0000000000008a31 .LASF1306
C:\Users\CYMR90~1\AppData\Local\Temp\cciNYDRP.s:21882  .debug_str:0000000000004aa6 .LASF1307
C:\Users\CYMR90~1\AppData\Local\Temp\cciNYDRP.s:20964  .debug_str:0000000000000ff0 .LASF1308
C:\Users\CYMR90~1\AppData\Local\Temp\cciNYDRP.s:31323  .debug_str:000000000002a660 .LASF1309
C:\Users\CYMR90~1\AppData\Local\Temp\cciNYDRP.s:30343  .debug_str:0000000000026889 .LASF1310
C:\Users\CYMR90~1\AppData\Local\Temp\cciNYDRP.s:29363  .debug_str:00000000000228fc .LASF1311
C:\Users\CYMR90~1\AppData\Local\Temp\cciNYDRP.s:22830  .debug_str:0000000000008764 .LASF1312
C:\Users\CYMR90~1\AppData\Local\Temp\cciNYDRP.s:24202  .debug_str:000000000000e031 .LASF1313
C:\Users\CYMR90~1\AppData\Local\Temp\cciNYDRP.s:25472  .debug_str:00000000000131da .LASF1314
C:\Users\CYMR90~1\AppData\Local\Temp\cciNYDRP.s:31537  .debug_str:000000000002b39b .LASF1315
C:\Users\CYMR90~1\AppData\Local\Temp\cciNYDRP.s:30059  .debug_str:0000000000025671 .LASF1316
C:\Users\CYMR90~1\AppData\Local\Temp\cciNYDRP.s:29587  .debug_str:000000000002367f .LASF1317
C:\Users\CYMR90~1\AppData\Local\Temp\cciNYDRP.s:28607  .debug_str:000000000001fb2c .LASF1318
C:\Users\CYMR90~1\AppData\Local\Temp\cciNYDRP.s:27679  .debug_str:000000000001c0a6 .LASF1319
C:\Users\CYMR90~1\AppData\Local\Temp\cciNYDRP.s:26731  .debug_str:0000000000018281 .LASF1320
C:\Users\CYMR90~1\AppData\Local\Temp\cciNYDRP.s:25764  .debug_str:0000000000014441 .LASF1321
C:\Users\CYMR90~1\AppData\Local\Temp\cciNYDRP.s:24826  .debug_str:0000000000010781 .LASF1322
C:\Users\CYMR90~1\AppData\Local\Temp\cciNYDRP.s:25280  .debug_str:0000000000012542 .LASF1323
C:\Users\CYMR90~1\AppData\Local\Temp\cciNYDRP.s:23726  .debug_str:000000000000c129 .LASF1324
C:\Users\CYMR90~1\AppData\Local\Temp\cciNYDRP.s:23360  .debug_str:000000000000a868 .LASF1325
C:\Users\CYMR90~1\AppData\Local\Temp\cciNYDRP.s:22366  .debug_str:0000000000006825 .LASF1326
C:\Users\CYMR90~1\AppData\Local\Temp\cciNYDRP.s:21422  .debug_str:0000000000002c0e .LASF1327
C:\Users\CYMR90~1\AppData\Local\Temp\cciNYDRP.s:31811  .debug_str:000000000002c633 .LASF1328
C:\Users\CYMR90~1\AppData\Local\Temp\cciNYDRP.s:30887  .debug_str:0000000000028bf1 .LASF1329
C:\Users\CYMR90~1\AppData\Local\Temp\cciNYDRP.s:29903  .debug_str:0000000000024b36 .LASF1330
C:\Users\CYMR90~1\AppData\Local\Temp\cciNYDRP.s:28935  .debug_str:0000000000020f43 .LASF1331
C:\Users\CYMR90~1\AppData\Local\Temp\cciNYDRP.s:27973  .debug_str:000000000001d45b .LASF1332
C:\Users\CYMR90~1\AppData\Local\Temp\cciNYDRP.s:28409  .debug_str:000000000001ef08 .LASF1333
C:\Users\CYMR90~1\AppData\Local\Temp\cciNYDRP.s:27497  .debug_str:000000000001b580 .LASF1334
C:\Users\CYMR90~1\AppData\Local\Temp\cciNYDRP.s:26198  .debug_str:0000000000015f8b .LASF1335
C:\Users\CYMR90~1\AppData\Local\Temp\cciNYDRP.s:23872  .debug_str:000000000000cbbc .LASF1336
C:\Users\CYMR90~1\AppData\Local\Temp\cciNYDRP.s:28623  .debug_str:000000000001fbf4 .LASF1337
C:\Users\CYMR90~1\AppData\Local\Temp\cciNYDRP.s:25162  .debug_str:0000000000011d9a .LASF1338
C:\Users\CYMR90~1\AppData\Local\Temp\cciNYDRP.s:24120  .debug_str:000000000000db20 .LASF1339
C:\Users\CYMR90~1\AppData\Local\Temp\cciNYDRP.s:23150  .debug_str:0000000000009b8e .LASF1340
C:\Users\CYMR90~1\AppData\Local\Temp\cciNYDRP.s:22154  .debug_str:0000000000005b10 .LASF1341
C:\Users\CYMR90~1\AppData\Local\Temp\cciNYDRP.s:21214  .debug_str:0000000000001f08 .LASF1342
C:\Users\CYMR90~1\AppData\Local\Temp\cciNYDRP.s:31615  .debug_str:000000000002b8ce .LASF1343
C:\Users\CYMR90~1\AppData\Local\Temp\cciNYDRP.s:31411  .debug_str:000000000002ab7c .LASF1344
C:\Users\CYMR90~1\AppData\Local\Temp\cciNYDRP.s:30423  .debug_str:0000000000026d76 .LASF1345
C:\Users\CYMR90~1\AppData\Local\Temp\cciNYDRP.s:29457  .debug_str:0000000000022ebf .LASF1346
C:\Users\CYMR90~1\AppData\Local\Temp\cciNYDRP.s:30839  .debug_str:0000000000028954 .LASF1347
C:\Users\CYMR90~1\AppData\Local\Temp\cciNYDRP.s:27545  .debug_str:000000000001b873 .LASF1348
C:\Users\CYMR90~1\AppData\Local\Temp\cciNYDRP.s:28051  .debug_str:000000000001d926 .LASF1349
C:\Users\CYMR90~1\AppData\Local\Temp\cciNYDRP.s:25632  .debug_str:0000000000013c80 .LASF1350
C:\Users\CYMR90~1\AppData\Local\Temp\cciNYDRP.s:24706  .debug_str:000000000000ffb3 .LASF1351
C:\Users\CYMR90~1\AppData\Local\Temp\cciNYDRP.s:23740  .debug_str:000000000000c22f .LASF1352
C:\Users\CYMR90~1\AppData\Local\Temp\cciNYDRP.s:22658  .debug_str:0000000000007ba6 .LASF1353
C:\Users\CYMR90~1\AppData\Local\Temp\cciNYDRP.s:23230  .debug_str:000000000000a09d .LASF1354
C:\Users\CYMR90~1\AppData\Local\Temp\cciNYDRP.s:22232  .debug_str:0000000000005fe2 .LASF1355
C:\Users\CYMR90~1\AppData\Local\Temp\cciNYDRP.s:21298  .debug_str:00000000000023d4 .LASF1356
C:\Users\CYMR90~1\AppData\Local\Temp\cciNYDRP.s:31689  .debug_str:000000000002bdd8 .LASF1357
C:\Users\CYMR90~1\AppData\Local\Temp\cciNYDRP.s:25724  .debug_str:0000000000014226 .LASF1358
C:\Users\CYMR90~1\AppData\Local\Temp\cciNYDRP.s:22360  .debug_str:00000000000067cd .LASF1359
C:\Users\CYMR90~1\AppData\Local\Temp\cciNYDRP.s:28813  .debug_str:00000000000207fd .LASF1360
C:\Users\CYMR90~1\AppData\Local\Temp\cciNYDRP.s:27769  .debug_str:000000000001c5d4 .LASF1361
C:\Users\CYMR90~1\AppData\Local\Temp\cciNYDRP.s:26825  .debug_str:0000000000018825 .LASF1362
C:\Users\CYMR90~1\AppData\Local\Temp\cciNYDRP.s:30849  .debug_str:00000000000289e5 .LASF1363
C:\Users\CYMR90~1\AppData\Local\Temp\cciNYDRP.s:26118  .debug_str:0000000000015a09 .LASF1364
C:\Users\CYMR90~1\AppData\Local\Temp\cciNYDRP.s:22780  .debug_str:000000000000843a .LASF1365
C:\Users\CYMR90~1\AppData\Local\Temp\cciNYDRP.s:30453  .debug_str:0000000000026f39 .LASF1366
C:\Users\CYMR90~1\AppData\Local\Temp\cciNYDRP.s:29697  .debug_str:0000000000023ce4 .LASF1367
C:\Users\CYMR90~1\AppData\Local\Temp\cciNYDRP.s:28709  .debug_str:000000000002014d .LASF1368
C:\Users\CYMR90~1\AppData\Local\Temp\cciNYDRP.s:26983  .debug_str:000000000001931b .LASF1369
C:\Users\CYMR90~1\AppData\Local\Temp\cciNYDRP.s:24870  .debug_str:0000000000010a51 .LASF1370
C:\Users\CYMR90~1\AppData\Local\Temp\cciNYDRP.s:27983  .debug_str:000000000001d4e6 .LASF1371
C:\Users\CYMR90~1\AppData\Local\Temp\cciNYDRP.s:21342  .debug_str:00000000000026fa .LASF1372
C:\Users\CYMR90~1\AppData\Local\Temp\cciNYDRP.s:23914  .debug_str:000000000000ce39 .LASF1373
C:\Users\CYMR90~1\AppData\Local\Temp\cciNYDRP.s:27027  .debug_str:00000000000195d5 .LASF1374
C:\Users\CYMR90~1\AppData\Local\Temp\cciNYDRP.s:30123  .debug_str:0000000000025b13 .LASF1375
C:\Users\CYMR90~1\AppData\Local\Temp\cciNYDRP.s:21910  .debug_str:0000000000004c5c .LASF1376
C:\Users\CYMR90~1\AppData\Local\Temp\cciNYDRP.s:25068  .debug_str:00000000000116a5 .LASF1377
C:\Users\CYMR90~1\AppData\Local\Temp\cciNYDRP.s:28141  .debug_str:000000000001df24 .LASF1378
C:\Users\CYMR90~1\AppData\Local\Temp\cciNYDRP.s:31319  .debug_str:000000000002a623 .LASF1379
C:\Users\CYMR90~1\AppData\Local\Temp\cciNYDRP.s:31287  .debug_str:000000000002a402 .LASF1380
C:\Users\CYMR90~1\AppData\Local\Temp\cciNYDRP.s:23000  .debug_str:00000000000091ec .LASF1381
C:\Users\CYMR90~1\AppData\Local\Temp\cciNYDRP.s:26088  .debug_str:0000000000015844 .LASF1382
C:\Users\CYMR90~1\AppData\Local\Temp\cciNYDRP.s:29215  .debug_str:0000000000022086 .LASF1383
C:\Users\CYMR90~1\AppData\Local\Temp\cciNYDRP.s:21038  .debug_str:0000000000001430 .LASF1384
C:\Users\CYMR90~1\AppData\Local\Temp\cciNYDRP.s:25538  .debug_str:00000000000136c2 .LASF1385
C:\Users\CYMR90~1\AppData\Local\Temp\cciNYDRP.s:27327  .debug_str:000000000001aacd .LASF1386
C:\Users\CYMR90~1\AppData\Local\Temp\cciNYDRP.s:30413  .debug_str:0000000000026cb5 .LASF1387
C:\Users\CYMR90~1\AppData\Local\Temp\cciNYDRP.s:22188  .debug_str:0000000000005cfe .LASF1388
C:\Users\CYMR90~1\AppData\Local\Temp\cciNYDRP.s:25266  .debug_str:0000000000012454 .LASF1389
C:\Users\CYMR90~1\AppData\Local\Temp\cciNYDRP.s:24624  .debug_str:000000000000fa6b .LASF1390
C:\Users\CYMR90~1\AppData\Local\Temp\cciNYDRP.s:27627  .debug_str:000000000001bd5b .LASF1391
C:\Users\CYMR90~1\AppData\Local\Temp\cciNYDRP.s:30753  .debug_str:0000000000028390 .LASF1392
C:\Users\CYMR90~1\AppData\Local\Temp\cciNYDRP.s:22536  .debug_str:000000000000733b .LASF1393
C:\Users\CYMR90~1\AppData\Local\Temp\cciNYDRP.s:25660  .debug_str:0000000000013e0e .LASF1394
C:\Users\CYMR90~1\AppData\Local\Temp\cciNYDRP.s:21636  .debug_str:0000000000003a15 .LASF1395
C:\Users\CYMR90~1\AppData\Local\Temp\cciNYDRP.s:31987  .debug_str:000000000002d1a2 .LASF1396
C:\Users\CYMR90~1\AppData\Local\Temp\cciNYDRP.s:23794  .debug_str:000000000000c568 .LASF1397
C:\Users\CYMR90~1\AppData\Local\Temp\cciNYDRP.s:28355  .debug_str:000000000001ebba .LASF1398
C:\Users\CYMR90~1\AppData\Local\Temp\cciNYDRP.s:24974  .debug_str:00000000000110ab .LASF1399
C:\Users\CYMR90~1\AppData\Local\Temp\cciNYDRP.s:26260  .debug_str:0000000000016350 .LASF1400
C:\Users\CYMR90~1\AppData\Local\Temp\cciNYDRP.s:20998  .debug_str:00000000000011f1 .LASF1401
C:\Users\CYMR90~1\AppData\Local\Temp\cciNYDRP.s:28687  .debug_str:000000000002001e .LASF1402
C:\Users\CYMR90~1\AppData\Local\Temp\cciNYDRP.s:23618  .debug_str:000000000000b9bd .LASF1403
C:\Users\CYMR90~1\AppData\Local\Temp\cciNYDRP.s:28459  .debug_str:000000000001f225 .LASF1404
C:\Users\CYMR90~1\AppData\Local\Temp\cciNYDRP.s:21704  .debug_str:0000000000003e81 .LASF1405
C:\Users\CYMR90~1\AppData\Local\Temp\cciNYDRP.s:31247  .debug_str:000000000002a184 .LASF1406
C:\Users\CYMR90~1\AppData\Local\Temp\cciNYDRP.s:29409  .debug_str:0000000000022c0d .LASF1407
C:\Users\CYMR90~1\AppData\Local\Temp\cciNYDRP.s:29575  .debug_str:0000000000023597 .LASF1408
C:\Users\CYMR90~1\AppData\Local\Temp\cciNYDRP.s:21374  .debug_str:0000000000002901 .LASF1409
C:\Users\CYMR90~1\AppData\Local\Temp\cciNYDRP.s:24530  .debug_str:000000000000f435 .LASF1410
C:\Users\CYMR90~1\AppData\Local\Temp\cciNYDRP.s:30987  .debug_str:0000000000029226 .LASF1411
C:\Users\CYMR90~1\AppData\Local\Temp\cciNYDRP.s:22768  .debug_str:0000000000008376 .LASF1412
C:\Users\CYMR90~1\AppData\Local\Temp\cciNYDRP.s:28329  .debug_str:000000000001ea4e .LASF1413
C:\Users\CYMR90~1\AppData\Local\Temp\cciNYDRP.s:28993  .debug_str:0000000000021338 .LASF1414
C:\Users\CYMR90~1\AppData\Local\Temp\cciNYDRP.s:20846  .debug_str:000000000000084b .LASF1415
C:\Users\CYMR90~1\AppData\Local\Temp\cciNYDRP.s:23882  .debug_str:000000000000cc24 .LASF1416
C:\Users\CYMR90~1\AppData\Local\Temp\cciNYDRP.s:27005  .debug_str:00000000000194a7 .LASF1417
C:\Users\CYMR90~1\AppData\Local\Temp\cciNYDRP.s:28519  .debug_str:000000000001f5c3 .LASF1418
C:\Users\CYMR90~1\AppData\Local\Temp\cciNYDRP.s:21890  .debug_str:0000000000004b10 .LASF1419
C:\Users\CYMR90~1\AppData\Local\Temp\cciNYDRP.s:24960  .debug_str:0000000000010fcc .LASF1420
C:\Users\CYMR90~1\AppData\Local\Temp\cciNYDRP.s:24304  .debug_str:000000000000e6b3 .LASF1421
C:\Users\CYMR90~1\AppData\Local\Temp\cciNYDRP.s:27437  .debug_str:000000000001b207 .LASF1422
C:\Users\CYMR90~1\AppData\Local\Temp\cciNYDRP.s:30531  .debug_str:0000000000027497 .LASF1423
C:\Users\CYMR90~1\AppData\Local\Temp\cciNYDRP.s:22314  .debug_str:00000000000064b6 .LASF1424
C:\Users\CYMR90~1\AppData\Local\Temp\cciNYDRP.s:25476  .debug_str:0000000000013208 .LASF1425
C:\Users\CYMR90~1\AppData\Local\Temp\cciNYDRP.s:28451  .debug_str:000000000001f18c .LASF1426
C:\Users\CYMR90~1\AppData\Local\Temp\cciNYDRP.s:31699  .debug_str:000000000002becb .LASF1427
C:\Users\CYMR90~1\AppData\Local\Temp\cciNYDRP.s:23488  .debug_str:000000000000b100 .LASF1428
C:\Users\CYMR90~1\AppData\Local\Temp\cciNYDRP.s:26587  .debug_str:0000000000017a24 .LASF1429
C:\Users\CYMR90~1\AppData\Local\Temp\cciNYDRP.s:29707  .debug_str:0000000000023d84 .LASF1430
C:\Users\CYMR90~1\AppData\Local\Temp\cciNYDRP.s:28461  .debug_str:000000000001f23d .LASF1431
C:\Users\CYMR90~1\AppData\Local\Temp\cciNYDRP.s:20806  .debug_str:00000000000005f9 .LASF1432
C:\Users\CYMR90~1\AppData\Local\Temp\cciNYDRP.s:25002  .debug_str:0000000000011252 .LASF1433
C:\Users\CYMR90~1\AppData\Local\Temp\cciNYDRP.s:28691  .debug_str:0000000000020048 .LASF1434
C:\Users\CYMR90~1\AppData\Local\Temp\cciNYDRP.s:27737  .debug_str:000000000001c3e8 .LASF1435
C:\Users\CYMR90~1\AppData\Local\Temp\cciNYDRP.s:26793  .debug_str:0000000000018601 .LASF1436
C:\Users\CYMR90~1\AppData\Local\Temp\cciNYDRP.s:26220  .debug_str:000000000001610d .LASF1437
C:\Users\CYMR90~1\AppData\Local\Temp\cciNYDRP.s:30563  .debug_str:0000000000027641 .LASF1438
C:\Users\CYMR90~1\AppData\Local\Temp\cciNYDRP.s:29593  .debug_str:0000000000023707 .LASF1439
C:\Users\CYMR90~1\AppData\Local\Temp\cciNYDRP.s:28613  .debug_str:000000000001fb85 .LASF1440
C:\Users\CYMR90~1\AppData\Local\Temp\cciNYDRP.s:27667  .debug_str:000000000001bfe8 .LASF1441
C:\Users\CYMR90~1\AppData\Local\Temp\cciNYDRP.s:26719  .debug_str:00000000000181bf .LASF1442
C:\Users\CYMR90~1\AppData\Local\Temp\cciNYDRP.s:25752  .debug_str:00000000000143b7 .LASF1443
C:\Users\CYMR90~1\AppData\Local\Temp\cciNYDRP.s:24818  .debug_str:0000000000010712 .LASF1444
C:\Users\CYMR90~1\AppData\Local\Temp\cciNYDRP.s:31657  .debug_str:000000000002bba2 .LASF1445
C:\Users\CYMR90~1\AppData\Local\Temp\cciNYDRP.s:22884  .debug_str:0000000000008a9f .LASF1446
C:\Users\CYMR90~1\AppData\Local\Temp\cciNYDRP.s:24438  .debug_str:000000000000ee7e .LASF1447
C:\Users\CYMR90~1\AppData\Local\Temp\cciNYDRP.s:29941  .debug_str:0000000000024db7 .LASF1448
C:\Users\CYMR90~1\AppData\Local\Temp\cciNYDRP.s:28971  .debug_str:0000000000021143 .LASF1449
C:\Users\CYMR90~1\AppData\Local\Temp\cciNYDRP.s:27993  .debug_str:000000000001d5e5 .LASF1450
C:\Users\CYMR90~1\AppData\Local\Temp\cciNYDRP.s:27071  .debug_str:0000000000019956 .LASF1451
C:\Users\CYMR90~1\AppData\Local\Temp\cciNYDRP.s:26086  .debug_str:000000000001582f .LASF1452
C:\Users\CYMR90~1\AppData\Local\Temp\cciNYDRP.s:23486  .debug_str:000000000000b0ed .LASF1453
C:\Users\CYMR90~1\AppData\Local\Temp\cciNYDRP.s:22100  .debug_str:000000000000579e .LASF1454
C:\Users\CYMR90~1\AppData\Local\Temp\cciNYDRP.s:23294  .debug_str:000000000000a45d .LASF1455
C:\Users\CYMR90~1\AppData\Local\Temp\cciNYDRP.s:28359  .debug_str:000000000001ebfc .LASF1456
C:\Users\CYMR90~1\AppData\Local\Temp\cciNYDRP.s:29993  .debug_str:0000000000025142 .LASF1457
C:\Users\CYMR90~1\AppData\Local\Temp\cciNYDRP.s:22066  .debug_str:00000000000055b9 .LASF1458
C:\Users\CYMR90~1\AppData\Local\Temp\cciNYDRP.s:28445  .debug_str:000000000001f13e .LASF1459
C:\Users\CYMR90~1\AppData\Local\Temp\cciNYDRP.s:25284  .debug_str:0000000000012583 .LASF1460
C:\Users\CYMR90~1\AppData\Local\Temp\cciNYDRP.s:23398  .debug_str:000000000000aacf .LASF1461
C:\Users\CYMR90~1\AppData\Local\Temp\cciNYDRP.s:24584  .debug_str:000000000000f81e .LASF1462
C:\Users\CYMR90~1\AppData\Local\Temp\cciNYDRP.s:25074  .debug_str:0000000000011780 .LASF1463
C:\Users\CYMR90~1\AppData\Local\Temp\cciNYDRP.s:26152  .debug_str:0000000000015c2a .LASF1464
C:\Users\CYMR90~1\AppData\Local\Temp\cciNYDRP.s:31433  .debug_str:000000000002acfe .LASF1465
C:\Users\CYMR90~1\AppData\Local\Temp\cciNYDRP.s:30881  .debug_str:0000000000028baf .LASF1466
C:\Users\CYMR90~1\AppData\Local\Temp\cciNYDRP.s:25756  .debug_str:00000000000143de .LASF1467
C:\Users\CYMR90~1\AppData\Local\Temp\cciNYDRP.s:30443  .debug_str:0000000000026eaa .LASF1468
C:\Users\CYMR90~1\AppData\Local\Temp\cciNYDRP.s:24756  .debug_str:00000000000102ae .LASF1469
C:\Users\CYMR90~1\AppData\Local\Temp\cciNYDRP.s:22842  .debug_str:0000000000008826 .LASF1470
C:\Users\CYMR90~1\AppData\Local\Temp\cciNYDRP.s:25048  .debug_str:0000000000011547 .LASF1471
C:\Users\CYMR90~1\AppData\Local\Temp\cciNYDRP.s:26613  .debug_str:0000000000017b93 .LASF1472
C:\Users\CYMR90~1\AppData\Local\Temp\cciNYDRP.s:29893  .debug_str:0000000000024aac .LASF1473
C:\Users\CYMR90~1\AppData\Local\Temp\cciNYDRP.s:30537  .debug_str:00000000000274db .LASF1474
C:\Users\CYMR90~1\AppData\Local\Temp\cciNYDRP.s:20898  .debug_str:0000000000000bcc .LASF1475
C:\Users\CYMR90~1\AppData\Local\Temp\cciNYDRP.s:22770  .debug_str:000000000000838f .LASF1476
C:\Users\CYMR90~1\AppData\Local\Temp\cciNYDRP.s:21400  .debug_str:0000000000002a9f .LASF1477
C:\Users\CYMR90~1\AppData\Local\Temp\cciNYDRP.s:30719  .debug_str:00000000000280d3 .LASF1478
C:\Users\CYMR90~1\AppData\Local\Temp\cciNYDRP.s:29743  .debug_str:0000000000024050 .LASF1479
C:\Users\CYMR90~1\AppData\Local\Temp\cciNYDRP.s:21522  .debug_str:000000000000329c .LASF1480
C:\Users\CYMR90~1\AppData\Local\Temp\cciNYDRP.s:23748  .debug_str:000000000000c28b .LASF1481
C:\Users\CYMR90~1\AppData\Local\Temp\cciNYDRP.s:29861  .debug_str:00000000000248b8 .LASF1482
C:\Users\CYMR90~1\AppData\Local\Temp\cciNYDRP.s:23082  .debug_str:000000000000974d .LASF1483
C:\Users\CYMR90~1\AppData\Local\Temp\cciNYDRP.s:21896  .debug_str:0000000000004b69 .LASF1484
C:\Users\CYMR90~1\AppData\Local\Temp\cciNYDRP.s:24312  .debug_str:000000000000e73c .LASF1485
C:\Users\CYMR90~1\AppData\Local\Temp\cciNYDRP.s:25722  .debug_str:0000000000014213 .LASF1486
C:\Users\CYMR90~1\AppData\Local\Temp\cciNYDRP.s:27323  .debug_str:000000000001aa77 .LASF1487
C:\Users\CYMR90~1\AppData\Local\Temp\cciNYDRP.s:20736  .debug_str:000000000000023f .LASF1488
C:\Users\CYMR90~1\AppData\Local\Temp\cciNYDRP.s:26104  .debug_str:000000000001592c .LASF1489
C:\Users\CYMR90~1\AppData\Local\Temp\cciNYDRP.s:24110  .debug_str:000000000000da96 .LASF1490
C:\Users\CYMR90~1\AppData\Local\Temp\cciNYDRP.s:30953  .debug_str:0000000000029020 .LASF1491
C:\Users\CYMR90~1\AppData\Local\Temp\cciNYDRP.s:21368  .debug_str:000000000000289a .LASF1492
C:\Users\CYMR90~1\AppData\Local\Temp\cciNYDRP.s:28925  .debug_str:0000000000020ec4 .LASF1493
C:\Users\CYMR90~1\AppData\Local\Temp\cciNYDRP.s:31173  .debug_str:0000000000029d4c .LASF1494
C:\Users\CYMR90~1\AppData\Local\Temp\cciNYDRP.s:22524  .debug_str:00000000000072ae .LASF1495
C:\Users\CYMR90~1\AppData\Local\Temp\cciNYDRP.s:30217  .debug_str:00000000000260b1 .LASF1496
C:\Users\CYMR90~1\AppData\Local\Temp\cciNYDRP.s:30925  .debug_str:0000000000028e53 .LASF1497
C:\Users\CYMR90~1\AppData\Local\Temp\cciNYDRP.s:22320  .debug_str:000000000000650e .LASF1498
C:\Users\CYMR90~1\AppData\Local\Temp\cciNYDRP.s:23174  .debug_str:0000000000009cf9 .LASF1499
C:\Users\CYMR90~1\AppData\Local\Temp\cciNYDRP.s:31861  .debug_str:000000000002c984 .LASF1500
C:\Users\CYMR90~1\AppData\Local\Temp\cciNYDRP.s:31089  .debug_str:000000000002984b .LASF1501
C:\Users\CYMR90~1\AppData\Local\Temp\cciNYDRP.s:28825  .debug_str:00000000000208d5 .LASF1502
C:\Users\CYMR90~1\AppData\Local\Temp\cciNYDRP.s:22300  .debug_str:00000000000063d2 .LASF1503
C:\Users\CYMR90~1\AppData\Local\Temp\cciNYDRP.s:23854  .debug_str:000000000000ca93 .LASF1504
C:\Users\CYMR90~1\AppData\Local\Temp\cciNYDRP.s:28193  .debug_str:000000000001e231 .LASF1505
C:\Users\CYMR90~1\AppData\Local\Temp\cciNYDRP.s:27521  .debug_str:000000000001b70e .LASF1506
C:\Users\CYMR90~1\AppData\Local\Temp\cciNYDRP.s:24432  .debug_str:000000000000ee2f .LASF1507
C:\Users\CYMR90~1\AppData\Local\Temp\cciNYDRP.s:29025  .debug_str:0000000000021516 .LASF1508
C:\Users\CYMR90~1\AppData\Local\Temp\cciNYDRP.s:25230  .debug_str:00000000000121f7 .LASF1509
C:\Users\CYMR90~1\AppData\Local\Temp\cciNYDRP.s:30825  .debug_str:000000000002885c .LASF1510
C:\Users\CYMR90~1\AppData\Local\Temp\cciNYDRP.s:29607  .debug_str:00000000000237c1 .LASF1511
C:\Users\CYMR90~1\AppData\Local\Temp\cciNYDRP.s:21568  .debug_str:0000000000003586 .LASF1512
C:\Users\CYMR90~1\AppData\Local\Temp\cciNYDRP.s:26174  .debug_str:0000000000015df1 .LASF1513
C:\Users\CYMR90~1\AppData\Local\Temp\cciNYDRP.s:30019  .debug_str:0000000000025370 .LASF1514
C:\Users\CYMR90~1\AppData\Local\Temp\cciNYDRP.s:28421  .debug_str:000000000001eff2 .LASF1515
C:\Users\CYMR90~1\AppData\Local\Temp\cciNYDRP.s:31595  .debug_str:000000000002b75c .LASF1516
C:\Users\CYMR90~1\AppData\Local\Temp\cciNYDRP.s:28243  .debug_str:000000000001e508 .LASF1517
C:\Users\CYMR90~1\AppData\Local\Temp\cciNYDRP.s:30251  .debug_str:0000000000026298 .LASF1518
C:\Users\CYMR90~1\AppData\Local\Temp\cciNYDRP.s:25220  .debug_str:0000000000012186 .LASF1519
C:\Users\CYMR90~1\AppData\Local\Temp\cciNYDRP.s:28639  .debug_str:000000000001fd34 .LASF1520
C:\Users\CYMR90~1\AppData\Local\Temp\cciNYDRP.s:27697  .debug_str:000000000001c1c0 .LASF1521
C:\Users\CYMR90~1\AppData\Local\Temp\cciNYDRP.s:28963  .debug_str:00000000000210d4 .LASF1522
C:\Users\CYMR90~1\AppData\Local\Temp\cciNYDRP.s:26981  .debug_str:00000000000192ff .LASF1523
C:\Users\CYMR90~1\AppData\Local\Temp\cciNYDRP.s:29609  .debug_str:00000000000237d7 .LASF1524
C:\Users\CYMR90~1\AppData\Local\Temp\cciNYDRP.s:21970  .debug_str:0000000000004fd3 .LASF1525
C:\Users\CYMR90~1\AppData\Local\Temp\cciNYDRP.s:27641  .debug_str:000000000001be54 .LASF1526
C:\Users\CYMR90~1\AppData\Local\Temp\cciNYDRP.s:23768  .debug_str:000000000000c3cb .LASF1527
C:\Users\CYMR90~1\AppData\Local\Temp\cciNYDRP.s:29359  .debug_str:00000000000228cf .LASF1528
C:\Users\CYMR90~1\AppData\Local\Temp\cciNYDRP.s:30615  .debug_str:0000000000027960 .LASF1529
C:\Users\CYMR90~1\AppData\Local\Temp\cciNYDRP.s:29853  .debug_str:0000000000024796 .LASF1530
C:\Users\CYMR90~1\AppData\Local\Temp\cciNYDRP.s:29917  .debug_str:0000000000024c18 .LASF1531
C:\Users\CYMR90~1\AppData\Local\Temp\cciNYDRP.s:21724  .debug_str:0000000000003f8d .LASF1532
C:\Users\CYMR90~1\AppData\Local\Temp\cciNYDRP.s:26933  .debug_str:0000000000018f56 .LASF1533
C:\Users\CYMR90~1\AppData\Local\Temp\cciNYDRP.s:29737  .debug_str:0000000000023f10 .LASF1534
C:\Users\CYMR90~1\AppData\Local\Temp\cciNYDRP.s:23836  .debug_str:000000000000c8a5 .LASF1535
C:\Users\CYMR90~1\AppData\Local\Temp\cciNYDRP.s:29921  .debug_str:0000000000024c8a .LASF1536
C:\Users\CYMR90~1\AppData\Local\Temp\cciNYDRP.s:29267  .debug_str:0000000000022366 .LASF1537
C:\Users\CYMR90~1\AppData\Local\Temp\cciNYDRP.s:30491  .debug_str:0000000000027198 .LASF1538
C:\Users\CYMR90~1\AppData\Local\Temp\cciNYDRP.s:30381  .debug_str:0000000000026aab .LASF1539
C:\Users\CYMR90~1\AppData\Local\Temp\cciNYDRP.s:25100  .debug_str:00000000000119b9 .LASF1540
C:\Users\CYMR90~1\AppData\Local\Temp\cciNYDRP.s:31115  .debug_str:00000000000299d3 .LASF1541
C:\Users\CYMR90~1\AppData\Local\Temp\cciNYDRP.s:24088  .debug_str:000000000000d985 .LASF1542
C:\Users\CYMR90~1\AppData\Local\Temp\cciNYDRP.s:21488  .debug_str:000000000000303c .LASF1543
C:\Users\CYMR90~1\AppData\Local\Temp\cciNYDRP.s:24664  .debug_str:000000000000fd08 .LASF1544
C:\Users\CYMR90~1\AppData\Local\Temp\cciNYDRP.s:22702  .debug_str:0000000000007f0a .LASF1545
C:\Users\CYMR90~1\AppData\Local\Temp\cciNYDRP.s:23182  .debug_str:0000000000009d6c .LASF1546
C:\Users\CYMR90~1\AppData\Local\Temp\cciNYDRP.s:23824  .debug_str:000000000000c7c0 .LASF1547
C:\Users\CYMR90~1\AppData\Local\Temp\cciNYDRP.s:30695  .debug_str:0000000000027ef2 .LASF1548
C:\Users\CYMR90~1\AppData\Local\Temp\cciNYDRP.s:30187  .debug_str:0000000000025ea3 .LASF1549
C:\Users\CYMR90~1\AppData\Local\Temp\cciNYDRP.s:27591  .debug_str:000000000001bac6 .LASF1550
C:\Users\CYMR90~1\AppData\Local\Temp\cciNYDRP.s:24970  .debug_str:000000000001105d .LASF1551
C:\Users\CYMR90~1\AppData\Local\Temp\cciNYDRP.s:27557  .debug_str:000000000001b8e8 .LASF1552
C:\Users\CYMR90~1\AppData\Local\Temp\cciNYDRP.s:20966  .debug_str:0000000000001007 .LASF1553
C:\Users\CYMR90~1\AppData\Local\Temp\cciNYDRP.s:21268  .debug_str:00000000000021fb .LASF1554
C:\Users\CYMR90~1\AppData\Local\Temp\cciNYDRP.s:28281  .debug_str:000000000001e7ac .LASF1555
C:\Users\CYMR90~1\AppData\Local\Temp\cciNYDRP.s:26889  .debug_str:0000000000018caf .LASF1556
C:\Users\CYMR90~1\AppData\Local\Temp\cciNYDRP.s:24498  .debug_str:000000000000f25f .LASF1557
C:\Users\CYMR90~1\AppData\Local\Temp\cciNYDRP.s:31203  .debug_str:0000000000029ee6 .LASF1558
C:\Users\CYMR90~1\AppData\Local\Temp\cciNYDRP.s:24814  .debug_str:00000000000106e6 .LASF1559
C:\Users\CYMR90~1\AppData\Local\Temp\cciNYDRP.s:29619  .debug_str:0000000000023850 .LASF1560
C:\Users\CYMR90~1\AppData\Local\Temp\cciNYDRP.s:30047  .debug_str:0000000000025573 .LASF1561
C:\Users\CYMR90~1\AppData\Local\Temp\cciNYDRP.s:24924  .debug_str:0000000000010dd9 .LASF1562
C:\Users\CYMR90~1\AppData\Local\Temp\cciNYDRP.s:24594  .debug_str:000000000000f89b .LASF1563
C:\Users\CYMR90~1\AppData\Local\Temp\cciNYDRP.s:31697  .debug_str:000000000002be25 .LASF1564
C:\Users\CYMR90~1\AppData\Local\Temp\cciNYDRP.s:22328  .debug_str:0000000000006575 .LASF1565
C:\Users\CYMR90~1\AppData\Local\Temp\cciNYDRP.s:27991  .debug_str:000000000001d557 .LASF1566
C:\Users\CYMR90~1\AppData\Local\Temp\cciNYDRP.s:27277  .debug_str:000000000001a72f .LASF1567
C:\Users\CYMR90~1\AppData\Local\Temp\cciNYDRP.s:28761  .debug_str:00000000000204a0 .LASF1568
C:\Users\CYMR90~1\AppData\Local\Temp\cciNYDRP.s:25098  .debug_str:0000000000011912 .LASF1569
C:\Users\CYMR90~1\AppData\Local\Temp\cciNYDRP.s:30075  .debug_str:000000000002578c .LASF1570
C:\Users\CYMR90~1\AppData\Local\Temp\cciNYDRP.s:25496  .debug_str:00000000000133ee .LASF1571
C:\Users\CYMR90~1\AppData\Local\Temp\cciNYDRP.s:22016  .debug_str:00000000000052b2 .LASF1572
C:\Users\CYMR90~1\AppData\Local\Temp\cciNYDRP.s:25914  .debug_str:0000000000014dfd .LASF1573
C:\Users\CYMR90~1\AppData\Local\Temp\cciNYDRP.s:30811  .debug_str:0000000000028782 .LASF1574
C:\Users\CYMR90~1\AppData\Local\Temp\cciNYDRP.s:26383  .debug_str:0000000000016d86 .LASF1575
C:\Users\CYMR90~1\AppData\Local\Temp\cciNYDRP.s:24472  .debug_str:000000000000f09d .LASF1576
C:\Users\CYMR90~1\AppData\Local\Temp\cciNYDRP.s:28285  .debug_str:000000000001e7ee .LASF1577
C:\Users\CYMR90~1\AppData\Local\Temp\cciNYDRP.s:31311  .debug_str:000000000002a587 .LASF1578
C:\Users\CYMR90~1\AppData\Local\Temp\cciNYDRP.s:21278  .debug_str:0000000000002286 .LASF1579
C:\Users\CYMR90~1\AppData\Local\Temp\cciNYDRP.s:27835  .debug_str:000000000001ca92 .LASF1580
C:\Users\CYMR90~1\AppData\Local\Temp\cciNYDRP.s:23300  .debug_str:000000000000a4bb .LASF1581
C:\Users\CYMR90~1\AppData\Local\Temp\cciNYDRP.s:24004  .debug_str:000000000000d494 .LASF1582
C:\Users\CYMR90~1\AppData\Local\Temp\cciNYDRP.s:22692  .debug_str:0000000000007dde .LASF1583
C:\Users\CYMR90~1\AppData\Local\Temp\cciNYDRP.s:30493  .debug_str:00000000000271b6 .LASF1584
C:\Users\CYMR90~1\AppData\Local\Temp\cciNYDRP.s:28093  .debug_str:000000000001db99 .LASF1585
C:\Users\CYMR90~1\AppData\Local\Temp\cciNYDRP.s:31913  .debug_str:000000000002cc84 .LASF1586
C:\Users\CYMR90~1\AppData\Local\Temp\cciNYDRP.s:23978  .debug_str:000000000000d24e .LASF1587
C:\Users\CYMR90~1\AppData\Local\Temp\cciNYDRP.s:22652  .debug_str:0000000000007abb .LASF1588
C:\Users\CYMR90~1\AppData\Local\Temp\cciNYDRP.s:26358  .debug_str:00000000000169d7 .LASF1589
C:\Users\CYMR90~1\AppData\Local\Temp\cciNYDRP.s:23516  .debug_str:000000000000b2a9 .LASF1590
C:\Users\CYMR90~1\AppData\Local\Temp\cciNYDRP.s:26284  .debug_str:0000000000016481 .LASF1591
C:\Users\CYMR90~1\AppData\Local\Temp\cciNYDRP.s:22896  .debug_str:0000000000008b2f .LASF1592
C:\Users\CYMR90~1\AppData\Local\Temp\cciNYDRP.s:25488  .debug_str:0000000000013309 .LASF1593
C:\Users\CYMR90~1\AppData\Local\Temp\cciNYDRP.s:24806  .debug_str:00000000000105b7 .LASF1594
C:\Users\CYMR90~1\AppData\Local\Temp\cciNYDRP.s:30727  .debug_str:0000000000028151 .LASF1595
C:\Users\CYMR90~1\AppData\Local\Temp\cciNYDRP.s:20932  .debug_str:0000000000000db3 .LASF1596
C:\Users\CYMR90~1\AppData\Local\Temp\cciNYDRP.s:27861  .debug_str:000000000001cc5a .LASF1597
C:\Users\CYMR90~1\AppData\Local\Temp\cciNYDRP.s:21830  .debug_str:00000000000046e1 .LASF1598
C:\Users\CYMR90~1\AppData\Local\Temp\cciNYDRP.s:29995  .debug_str:0000000000025151 .LASF1599
C:\Users\CYMR90~1\AppData\Local\Temp\cciNYDRP.s:21068  .debug_str:000000000000160b .LASF1600
C:\Users\CYMR90~1\AppData\Local\Temp\cciNYDRP.s:24558  .debug_str:000000000000f5be .LASF1601
C:\Users\CYMR90~1\AppData\Local\Temp\cciNYDRP.s:28987  .debug_str:000000000002123b .LASF1602
C:\Users\CYMR90~1\AppData\Local\Temp\cciNYDRP.s:27887  .debug_str:000000000001ce8a .LASF1603
C:\Users\CYMR90~1\AppData\Local\Temp\cciNYDRP.s:27781  .debug_str:000000000001c68b .LASF1604
C:\Users\CYMR90~1\AppData\Local\Temp\cciNYDRP.s:29975  .debug_str:0000000000024fa0 .LASF1605
C:\Users\CYMR90~1\AppData\Local\Temp\cciNYDRP.s:29895  .debug_str:0000000000024ac2 .LASF1606
C:\Users\CYMR90~1\AppData\Local\Temp\cciNYDRP.s:29847  .debug_str:0000000000024742 .LASF1607
C:\Users\CYMR90~1\AppData\Local\Temp\cciNYDRP.s:26831  .debug_str:0000000000018877 .LASF1608
C:\Users\CYMR90~1\AppData\Local\Temp\cciNYDRP.s:21810  .debug_str:0000000000004578 .LASF1609
C:\Users\CYMR90~1\AppData\Local\Temp\cciNYDRP.s:29197  .debug_str:0000000000021f82 .LASF1610
C:\Users\CYMR90~1\AppData\Local\Temp\cciNYDRP.s:31821  .debug_str:000000000002c696 .LASF1611
C:\Users\CYMR90~1\AppData\Local\Temp\cciNYDRP.s:27733  .debug_str:000000000001c3ac .LASF1612
C:\Users\CYMR90~1\AppData\Local\Temp\cciNYDRP.s:25800  .debug_str:00000000000146d0 .LASF1613
C:\Users\CYMR90~1\AppData\Local\Temp\cciNYDRP.s:23168  .debug_str:0000000000009c9b .LASF1614
C:\Users\CYMR90~1\AppData\Local\Temp\cciNYDRP.s:27423  .debug_str:000000000001b0ee .LASF1615
C:\Users\CYMR90~1\AppData\Local\Temp\cciNYDRP.s:29081  .debug_str:000000000002186a .LASF1616
C:\Users\CYMR90~1\AppData\Local\Temp\cciNYDRP.s:25886  .debug_str:0000000000014bea .LASF1617
C:\Users\CYMR90~1\AppData\Local\Temp\cciNYDRP.s:27793  .debug_str:000000000001c7f6 .LASF1618
C:\Users\CYMR90~1\AppData\Local\Temp\cciNYDRP.s:21850  .debug_str:00000000000048b1 .LASF1619
C:\Users\CYMR90~1\AppData\Local\Temp\cciNYDRP.s:23552  .debug_str:000000000000b57a .LASF1620
C:\Users\CYMR90~1\AppData\Local\Temp\cciNYDRP.s:24386  .debug_str:000000000000ebb4 .LASF1621
C:\Users\CYMR90~1\AppData\Local\Temp\cciNYDRP.s:21428  .debug_str:0000000000002c6d .LASF1622
C:\Users\CYMR90~1\AppData\Local\Temp\cciNYDRP.s:28789  .debug_str:0000000000020697 .LASF1623
C:\Users\CYMR90~1\AppData\Local\Temp\cciNYDRP.s:25490  .debug_str:00000000000133a4 .LASF1624
C:\Users\CYMR90~1\AppData\Local\Temp\cciNYDRP.s:23650  .debug_str:000000000000bc66 .LASF1625
C:\Users\CYMR90~1\AppData\Local\Temp\cciNYDRP.s:29489  .debug_str:000000000002303b .LASF1626
C:\Users\CYMR90~1\AppData\Local\Temp\cciNYDRP.s:22324  .debug_str:0000000000006547 .LASF1627
C:\Users\CYMR90~1\AppData\Local\Temp\cciNYDRP.s:28537  .debug_str:000000000001f6d0 .LASF1628
C:\Users\CYMR90~1\AppData\Local\Temp\cciNYDRP.s:23410  .debug_str:000000000000ab91 .LASF1629
C:\Users\CYMR90~1\AppData\Local\Temp\cciNYDRP.s:29275  .debug_str:00000000000223bd .LASF1630
C:\Users\CYMR90~1\AppData\Local\Temp\cciNYDRP.s:22878  .debug_str:0000000000008a48 .LASF1631
C:\Users\CYMR90~1\AppData\Local\Temp\cciNYDRP.s:21030  .debug_str:00000000000013db .LASF1632
C:\Users\CYMR90~1\AppData\Local\Temp\cciNYDRP.s:27535  .debug_str:000000000001b800 .LASF1633
C:\Users\CYMR90~1\AppData\Local\Temp\cciNYDRP.s:26521  .debug_str:00000000000175af .LASF1634
C:\Users\CYMR90~1\AppData\Local\Temp\cciNYDRP.s:23632  .debug_str:000000000000bae9 .LASF1635
C:\Users\CYMR90~1\AppData\Local\Temp\cciNYDRP.s:23742  .debug_str:000000000000c245 .LASF1636
C:\Users\CYMR90~1\AppData\Local\Temp\cciNYDRP.s:27395  .debug_str:000000000001af65 .LASF1637
C:\Users\CYMR90~1\AppData\Local\Temp\cciNYDRP.s:23808  .debug_str:000000000000c6ad .LASF1638
C:\Users\CYMR90~1\AppData\Local\Temp\cciNYDRP.s:23526  .debug_str:000000000000b3ce .LASF1639
C:\Users\CYMR90~1\AppData\Local\Temp\cciNYDRP.s:26735  .debug_str:00000000000182b2 .LASF1640
C:\Users\CYMR90~1\AppData\Local\Temp\cciNYDRP.s:24762  .debug_str:000000000001030a .LASF1641
C:\Users\CYMR90~1\AppData\Local\Temp\cciNYDRP.s:29837  .debug_str:00000000000246a6 .LASF1642
C:\Users\CYMR90~1\AppData\Local\Temp\cciNYDRP.s:25110  .debug_str:0000000000011a85 .LASF1643
C:\Users\CYMR90~1\AppData\Local\Temp\cciNYDRP.s:28675  .debug_str:000000000001ff70 .LASF1644
C:\Users\CYMR90~1\AppData\Local\Temp\cciNYDRP.s:31789  .debug_str:000000000002c50a .LASF1645
C:\Users\CYMR90~1\AppData\Local\Temp\cciNYDRP.s:21418  .debug_str:0000000000002bdd .LASF1646
C:\Users\CYMR90~1\AppData\Local\Temp\cciNYDRP.s:26320  .debug_str:0000000000016731 .LASF1647
C:\Users\CYMR90~1\AppData\Local\Temp\cciNYDRP.s:26425  .debug_str:000000000001703a .LASF1648
C:\Users\CYMR90~1\AppData\Local\Temp\cciNYDRP.s:21218  .debug_str:0000000000001f3c .LASF1649
C:\Users\CYMR90~1\AppData\Local\Temp\cciNYDRP.s:22718  .debug_str:0000000000008041 .LASF1650
C:\Users\CYMR90~1\AppData\Local\Temp\cciNYDRP.s:29505  .debug_str:000000000002313b .LASF1651
C:\Users\CYMR90~1\AppData\Local\Temp\cciNYDRP.s:24860  .debug_str:0000000000010959 .LASF1652
C:\Users\CYMR90~1\AppData\Local\Temp\cciNYDRP.s:22610  .debug_str:00000000000077f0 .LASF1653
C:\Users\CYMR90~1\AppData\Local\Temp\cciNYDRP.s:20972  .debug_str:0000000000001078 .LASF1654
C:\Users\CYMR90~1\AppData\Local\Temp\cciNYDRP.s:26627  .debug_str:0000000000017c56 .LASF1657
C:\Users\CYMR90~1\AppData\Local\Temp\cciNYDRP.s:31361  .debug_str:000000000002a8a7 .LASF1658
C:\Users\CYMR90~1\AppData\Local\Temp\cciNYDRP.s:24892  .debug_str:0000000000010c51 .LASF1659
C:\Users\CYMR90~1\AppData\Local\Temp\cciNYDRP.s:26955  .debug_str:000000000001919b .LASF1660
C:\Users\CYMR90~1\AppData\Local\Temp\cciNYDRP.s:31591  .debug_str:000000000002b71d .LASF1661
C:\Users\CYMR90~1\AppData\Local\Temp\cciNYDRP.s:31627  .debug_str:000000000002b9a2 .LASF1662
C:\Users\CYMR90~1\AppData\Local\Temp\cciNYDRP.s:28875  .debug_str:0000000000020c02 .LASF1663
C:\Users\CYMR90~1\AppData\Local\Temp\cciNYDRP.s:25848  .debug_str:0000000000014974 .LASF1664
C:\Users\CYMR90~1\AppData\Local\Temp\cciNYDRP.s:28039  .debug_str:000000000001d877 .LASF1665
C:\Users\CYMR90~1\AppData\Local\Temp\cciNYDRP.s:28965  .debug_str:00000000000210ef .LASF1666
C:\Users\CYMR90~1\AppData\Local\Temp\cciNYDRP.s:30071  .debug_str:0000000000025748 .LASF1667
C:\Users\CYMR90~1\AppData\Local\Temp\cciNYDRP.s:24298  .debug_str:000000000000e63d .LASF1668
C:\Users\CYMR90~1\AppData\Local\Temp\cciNYDRP.s:21652  .debug_str:0000000000003af0 .LASF1669
C:\Users\CYMR90~1\AppData\Local\Temp\cciNYDRP.s:22916  .debug_str:0000000000008d14 .LASF1670
C:\Users\CYMR90~1\AppData\Local\Temp\cciNYDRP.s:21864  .debug_str:000000000000497f .LASF1671
C:\Users\CYMR90~1\AppData\Local\Temp\cciNYDRP.s:25706  .debug_str:00000000000140e7 .LASF1672
C:\Users\CYMR90~1\AppData\Local\Temp\cciNYDRP.s:25776  .debug_str:00000000000144f6 .LASF1673
C:\Users\CYMR90~1\AppData\Local\Temp\cciNYDRP.s:25180  .debug_str:0000000000011e8f .LASF1674
C:\Users\CYMR90~1\AppData\Local\Temp\cciNYDRP.s:24336  .debug_str:000000000000e899 .LASF1675
C:\Users\CYMR90~1\AppData\Local\Temp\cciNYDRP.s:29859  .debug_str:000000000002489e .LASF1676
C:\Users\CYMR90~1\AppData\Local\Temp\cciNYDRP.s:25308  .debug_str:0000000000012707 .LASF1677
C:\Users\CYMR90~1\AppData\Local\Temp\cciNYDRP.s:31791  .debug_str:000000000002c51f .LASF1678
C:\Users\CYMR90~1\AppData\Local\Temp\cciNYDRP.s:21326  .debug_str:00000000000025ae .LASF1679
C:\Users\CYMR90~1\AppData\Local\Temp\cciNYDRP.s:24842  .debug_str:0000000000010881 .LASF1680
C:\Users\CYMR90~1\AppData\Local\Temp\cciNYDRP.s:26016  .debug_str:000000000001543d .LASF1681
C:\Users\CYMR90~1\AppData\Local\Temp\cciNYDRP.s:24686  .debug_str:000000000000fe9d .LASF1682
C:\Users\CYMR90~1\AppData\Local\Temp\cciNYDRP.s:27379  .debug_str:000000000001ade8 .LASF1683
C:\Users\CYMR90~1\AppData\Local\Temp\cciNYDRP.s:29451  .debug_str:0000000000022e6a .LASF1684
C:\Users\CYMR90~1\AppData\Local\Temp\cciNYDRP.s:30373  .debug_str:0000000000026a50 .LASF1685
C:\Users\CYMR90~1\AppData\Local\Temp\cciNYDRP.s:24840  .debug_str:0000000000010869 .LASF1686
C:\Users\CYMR90~1\AppData\Local\Temp\cciNYDRP.s:28771  .debug_str:0000000000020588 .LASF1687
C:\Users\CYMR90~1\AppData\Local\Temp\cciNYDRP.s:31105  .debug_str:0000000000029928 .LASF1688
C:\Users\CYMR90~1\AppData\Local\Temp\cciNYDRP.s:29635  .debug_str:000000000002395a .LASF1689
C:\Users\CYMR90~1\AppData\Local\Temp\cciNYDRP.s:27493  .debug_str:000000000001b532 .LASF1690
C:\Users\CYMR90~1\AppData\Local\Temp\cciNYDRP.s:25576  .debug_str:000000000001390a .LASF1691
C:\Users\CYMR90~1\AppData\Local\Temp\cciNYDRP.s:29179  .debug_str:0000000000021e7e .LASF1692
C:\Users\CYMR90~1\AppData\Local\Temp\cciNYDRP.s:26819  .debug_str:00000000000187be .LASF1693
C:\Users\CYMR90~1\AppData\Local\Temp\cciNYDRP.s:22712  .debug_str:0000000000007fcd .LASF1694
C:\Users\CYMR90~1\AppData\Local\Temp\cciNYDRP.s:24758  .debug_str:00000000000102be .LASF1695
C:\Users\CYMR90~1\AppData\Local\Temp\cciNYDRP.s:26597  .debug_str:0000000000017aa3 .LASF1696
C:\Users\CYMR90~1\AppData\Local\Temp\cciNYDRP.s:25894  .debug_str:0000000000014c7d .LASF1697
C:\Users\CYMR90~1\AppData\Local\Temp\cciNYDRP.s:28435  .debug_str:000000000001f0ab .LASF1698
C:\Users\CYMR90~1\AppData\Local\Temp\cciNYDRP.s:26991  .debug_str:00000000000193c6 .LASF1699
C:\Users\CYMR90~1\AppData\Local\Temp\cciNYDRP.s:28889  .debug_str:0000000000020ccb .LASF1700
C:\Users\CYMR90~1\AppData\Local\Temp\cciNYDRP.s:28431  .debug_str:000000000001f06e .LASF1701
C:\Users\CYMR90~1\AppData\Local\Temp\cciNYDRP.s:29679  .debug_str:0000000000023bdd .LASF1702
C:\Users\CYMR90~1\AppData\Local\Temp\cciNYDRP.s:23994  .debug_str:000000000000d3e5 .LASF1703
C:\Users\CYMR90~1\AppData\Local\Temp\cciNYDRP.s:29167  .debug_str:0000000000021dd5 .LASF1704
C:\Users\CYMR90~1\AppData\Local\Temp\cciNYDRP.s:27623  .debug_str:000000000001bd00 .LASF1705
C:\Users\CYMR90~1\AppData\Local\Temp\cciNYDRP.s:29027  .debug_str:000000000002152a .LASF1706
C:\Users\CYMR90~1\AppData\Local\Temp\cciNYDRP.s:26503  .debug_str:0000000000017474 .LASF1707
C:\Users\CYMR90~1\AppData\Local\Temp\cciNYDRP.s:25492  .debug_str:00000000000133b7 .LASF1708
C:\Users\CYMR90~1\AppData\Local\Temp\cciNYDRP.s:28173  .debug_str:000000000001e119 .LASF1709
C:\Users\CYMR90~1\AppData\Local\Temp\cciNYDRP.s:26737  .debug_str:00000000000182c7 .LASF1710
C:\Users\CYMR90~1\AppData\Local\Temp\cciNYDRP.s:30571  .debug_str:00000000000276a5 .LASF1711
C:\Users\CYMR90~1\AppData\Local\Temp\cciNYDRP.s:25130  .debug_str:0000000000011b98 .LASF1712
C:\Users\CYMR90~1\AppData\Local\Temp\cciNYDRP.s:22254  .debug_str:000000000000610c .LASF1713
C:\Users\CYMR90~1\AppData\Local\Temp\cciNYDRP.s:24602  .debug_str:000000000000f8f3 .LASF1714
C:\Users\CYMR90~1\AppData\Local\Temp\cciNYDRP.s:21542  .debug_str:00000000000033ed .LASF1715
C:\Users\CYMR90~1\AppData\Local\Temp\cciNYDRP.s:24838  .debug_str:000000000001083d .LASF1716
C:\Users\CYMR90~1\AppData\Local\Temp\cciNYDRP.s:28145  .debug_str:000000000001df52 .LASF1717
C:\Users\CYMR90~1\AppData\Local\Temp\cciNYDRP.s:26701  .debug_str:0000000000018094 .LASF1718
C:\Users\CYMR90~1\AppData\Local\Temp\cciNYDRP.s:25072  .debug_str:00000000000116d2 .LASF1719
C:\Users\CYMR90~1\AppData\Local\Temp\cciNYDRP.s:27051  .debug_str:0000000000019788 .LASF1720
C:\Users\CYMR90~1\AppData\Local\Temp\cciNYDRP.s:25568  .debug_str:0000000000013887 .LASF1721
C:\Users\CYMR90~1\AppData\Local\Temp\cciNYDRP.s:21254  .debug_str:000000000000213f .LASF1722
C:\Users\CYMR90~1\AppData\Local\Temp\cciNYDRP.s:27387  .debug_str:000000000001ae82 .LASF1723
C:\Users\CYMR90~1\AppData\Local\Temp\cciNYDRP.s:21318  .debug_str:0000000000002538 .LASF1724
C:\Users\CYMR90~1\AppData\Local\Temp\cciNYDRP.s:26082  .debug_str:00000000000157d2 .LASF1725
C:\Users\CYMR90~1\AppData\Local\Temp\cciNYDRP.s:30901  .debug_str:0000000000028ca4 .LASF1726
C:\Users\CYMR90~1\AppData\Local\Temp\cciNYDRP.s:22148  .debug_str:0000000000005a97 .LASF1727
C:\Users\CYMR90~1\AppData\Local\Temp\cciNYDRP.s:30539  .debug_str:00000000000274ef .LASF1728
C:\Users\CYMR90~1\AppData\Local\Temp\cciNYDRP.s:27833  .debug_str:000000000001ca5b .LASF1729
C:\Users\CYMR90~1\AppData\Local\Temp\cciNYDRP.s:31701  .debug_str:000000000002bee4 .LASF1730
C:\Users\CYMR90~1\AppData\Local\Temp\cciNYDRP.s:29819  .debug_str:000000000002456d .LASF1731
C:\Users\CYMR90~1\AppData\Local\Temp\cciNYDRP.s:25008  .debug_str:0000000000011294 .LASF1732
C:\Users\CYMR90~1\AppData\Local\Temp\cciNYDRP.s:23030  .debug_str:000000000000938e .LASF1733
C:\Users\CYMR90~1\AppData\Local\Temp\cciNYDRP.s:21032  .debug_str:00000000000013ee .LASF1734
C:\Users\CYMR90~1\AppData\Local\Temp\cciNYDRP.s:26459  .debug_str:000000000001720a .LASF1735
C:\Users\CYMR90~1\AppData\Local\Temp\cciNYDRP.s:28603  .debug_str:000000000001faf0 .LASF1736
C:\Users\CYMR90~1\AppData\Local\Temp\cciNYDRP.s:23022  .debug_str:0000000000009318 .LASF1737
C:\Users\CYMR90~1\AppData\Local\Temp\cciNYDRP.s:22734  .debug_str:0000000000008147 .LASF1738
C:\Users\CYMR90~1\AppData\Local\Temp\cciNYDRP.s:30369  .debug_str:0000000000026a21 .LASF1739
C:\Users\CYMR90~1\AppData\Local\Temp\cciNYDRP.s:24360  .debug_str:000000000000ea27 .LASF1740
C:\Users\CYMR90~1\AppData\Local\Temp\cciNYDRP.s:23362  .debug_str:000000000000a880 .LASF1741
C:\Users\CYMR90~1\AppData\Local\Temp\cciNYDRP.s:28457  .debug_str:000000000001f1f2 .LASF1742
C:\Users\CYMR90~1\AppData\Local\Temp\cciNYDRP.s:23856  .debug_str:000000000000caaa .LASF1743
C:\Users\CYMR90~1\AppData\Local\Temp\cciNYDRP.s:30649  .debug_str:0000000000027bd9 .LASF1744
C:\Users\CYMR90~1\AppData\Local\Temp\cciNYDRP.s:22740  .debug_str:00000000000081b9 .LASF1745
C:\Users\CYMR90~1\AppData\Local\Temp\cciNYDRP.s:24656  .debug_str:000000000000fc7f .LASF1746
C:\Users\CYMR90~1\AppData\Local\Temp\cciNYDRP.s:29685  .debug_str:0000000000023c3f .LASF1747
C:\Users\CYMR90~1\AppData\Local\Temp\cciNYDRP.s:29281  .debug_str:000000000002240d .LASF1748
C:\Users\CYMR90~1\AppData\Local\Temp\cciNYDRP.s:24836  .debug_str:000000000001081a .LASF1749
C:\Users\CYMR90~1\AppData\Local\Temp\cciNYDRP.s:23522  .debug_str:000000000000b385 .LASF1750
C:\Users\CYMR90~1\AppData\Local\Temp\cciNYDRP.s:26631  .debug_str:0000000000017c8a .LASF1751
C:\Users\CYMR90~1\AppData\Local\Temp\cciNYDRP.s:21898  .debug_str:0000000000004b7d .LASF1752
C:\Users\CYMR90~1\AppData\Local\Temp\cciNYDRP.s:27363  .debug_str:000000000001acea .LASF1753
C:\Users\CYMR90~1\AppData\Local\Temp\cciNYDRP.s:27259  .debug_str:000000000001a5cf .LASF1754
C:\Users\CYMR90~1\AppData\Local\Temp\cciNYDRP.s:23798  .debug_str:000000000000c5ac .LASF1755
C:\Users\CYMR90~1\AppData\Local\Temp\cciNYDRP.s:25378  .debug_str:0000000000012bb5 .LASF1756
C:\Users\CYMR90~1\AppData\Local\Temp\cciNYDRP.s:27453  .debug_str:000000000001b2ee .LASF1757
C:\Users\CYMR90~1\AppData\Local\Temp\cciNYDRP.s:24460  .debug_str:000000000000efb7 .LASF1758
C:\Users\CYMR90~1\AppData\Local\Temp\cciNYDRP.s:22554  .debug_str:0000000000007456 .LASF1759
C:\Users\CYMR90~1\AppData\Local\Temp\cciNYDRP.s:27203  .debug_str:000000000001a0f9 .LASF1760
C:\Users\CYMR90~1\AppData\Local\Temp\cciNYDRP.s:22844  .debug_str:0000000000008838 .LASF1761
C:\Users\CYMR90~1\AppData\Local\Temp\cciNYDRP.s:21088  .debug_str:0000000000001802 .LASF1762
C:\Users\CYMR90~1\AppData\Local\Temp\cciNYDRP.s:29875  .debug_str:000000000002496d .LASF1763
C:\Users\CYMR90~1\AppData\Local\Temp\cciNYDRP.s:22582  .debug_str:0000000000007631 .LASF1764
C:\Users\CYMR90~1\AppData\Local\Temp\cciNYDRP.s:22268  .debug_str:0000000000006219 .LASF1765
C:\Users\CYMR90~1\AppData\Local\Temp\cciNYDRP.s:21070  .debug_str:00000000000016c1 .LASF1766
C:\Users\CYMR90~1\AppData\Local\Temp\cciNYDRP.s:27563  .debug_str:000000000001b93b .LASF1767
C:\Users\CYMR90~1\AppData\Local\Temp\cciNYDRP.s:21128  .debug_str:0000000000001a33 .LASF1768
C:\Users\CYMR90~1\AppData\Local\Temp\cciNYDRP.s:30077  .debug_str:000000000002581a .LASF1769
C:\Users\CYMR90~1\AppData\Local\Temp\cciNYDRP.s:31775  .debug_str:000000000002c40b .LASF1770
C:\Users\CYMR90~1\AppData\Local\Temp\cciNYDRP.s:23690  .debug_str:000000000000bef2 .LASF1771
C:\Users\CYMR90~1\AppData\Local\Temp\cciNYDRP.s:23272  .debug_str:000000000000a31b .LASF1772
C:\Users\CYMR90~1\AppData\Local\Temp\cciNYDRP.s:20812  .debug_str:0000000000000644 .LASF1773
C:\Users\CYMR90~1\AppData\Local\Temp\cciNYDRP.s:20862  .debug_str:0000000000000935 .LASF1774
C:\Users\CYMR90~1\AppData\Local\Temp\cciNYDRP.s:30799  .debug_str:00000000000286aa .LASF1775
C:\Users\CYMR90~1\AppData\Local\Temp\cciNYDRP.s:25792  .debug_str:000000000001464c .LASF1776
C:\Users\CYMR90~1\AppData\Local\Temp\cciNYDRP.s:24540  .debug_str:000000000000f4bc .LASF1777
C:\Users\CYMR90~1\AppData\Local\Temp\cciNYDRP.s:26623  .debug_str:0000000000017c25 .LASF1778
C:\Users\CYMR90~1\AppData\Local\Temp\cciNYDRP.s:21992  .debug_str:0000000000005133 .LASF1779
C:\Users\CYMR90~1\AppData\Local\Temp\cciNYDRP.s:30115  .debug_str:0000000000025a89 .LASF1780
C:\Users\CYMR90~1\AppData\Local\Temp\cciNYDRP.s:29313  .debug_str:0000000000022631 .LASF1781
C:\Users\CYMR90~1\AppData\Local\Temp\cciNYDRP.s:27841  .debug_str:000000000001cafd .LASF1784
C:\Users\CYMR90~1\AppData\Local\Temp\cciNYDRP.s:27001  .debug_str:0000000000019461 .LASF1785
C:\Users\CYMR90~1\AppData\Local\Temp\cciNYDRP.s:26855  .debug_str:0000000000018a06 .LASF1786
C:\Users\CYMR90~1\AppData\Local\Temp\cciNYDRP.s:25834  .debug_str:00000000000148c4 .LASF1787
C:\Users\CYMR90~1\AppData\Local\Temp\cciNYDRP.s:31239  .debug_str:000000000002a105 .LASF1788
C:\Users\CYMR90~1\AppData\Local\Temp\cciNYDRP.s:31541  .debug_str:000000000002b3d9 .LASF1789
C:\Users\CYMR90~1\AppData\Local\Temp\cciNYDRP.s:21590  .debug_str:000000000000371d .LASF1790
C:\Users\CYMR90~1\AppData\Local\Temp\cciNYDRP.s:20732  .debug_str:0000000000000209 .LASF1791
C:\Users\CYMR90~1\AppData\Local\Temp\cciNYDRP.s:30455  .debug_str:0000000000026f4d .LASF1792
C:\Users\CYMR90~1\AppData\Local\Temp\cciNYDRP.s:29535  .debug_str:00000000000232f0 .LASF1793
C:\Users\CYMR90~1\AppData\Local\Temp\cciNYDRP.s:31425  .debug_str:000000000002ac55 .LASF1794
C:\Users\CYMR90~1\AppData\Local\Temp\cciNYDRP.s:30731  .debug_str:0000000000028222 .LASF1795
C:\Users\CYMR90~1\AppData\Local\Temp\cciNYDRP.s:25504  .debug_str:0000000000013481 .LASF1796
C:\Users\CYMR90~1\AppData\Local\Temp\cciNYDRP.s:25780  .debug_str:0000000000014538 .LASF1797
C:\Users\CYMR90~1\AppData\Local\Temp\cciNYDRP.s:24896  .debug_str:0000000000010c6e .LASF1798
C:\Users\CYMR90~1\AppData\Local\Temp\cciNYDRP.s:23716  .debug_str:000000000000c09d .LASF1799
C:\Users\CYMR90~1\AppData\Local\Temp\cciNYDRP.s:26537  .debug_str:00000000000176ae .LASF1800
C:\Users\CYMR90~1\AppData\Local\Temp\cciNYDRP.s:26845  .debug_str:0000000000018971 .LASF1801
C:\Users\CYMR90~1\AppData\Local\Temp\cciNYDRP.s:25918  .debug_str:0000000000014e37 .LASF1802
C:\Users\CYMR90~1\AppData\Local\Temp\cciNYDRP.s:24954  .debug_str:0000000000010f7b .LASF1803
C:\Users\CYMR90~1\AppData\Local\Temp\cciNYDRP.s:24434  .debug_str:000000000000ee46 .LASF1804
C:\Users\CYMR90~1\AppData\Local\Temp\cciNYDRP.s:29109  .debug_str:0000000000021a4c .LASF1805
C:\Users\CYMR90~1\AppData\Local\Temp\cciNYDRP.s:25802  .debug_str:00000000000146f4 .LASF1806
C:\Users\CYMR90~1\AppData\Local\Temp\cciNYDRP.s:28719  .debug_str:00000000000201ca .LASF1807
C:\Users\CYMR90~1\AppData\Local\Temp\cciNYDRP.s:25942  .debug_str:0000000000014fcd .LASF1808
C:\Users\CYMR90~1\AppData\Local\Temp\cciNYDRP.s:30723  .debug_str:0000000000028110 .LASF1809
C:\Users\CYMR90~1\AppData\Local\Temp\cciNYDRP.s:27939  .debug_str:000000000001d241 .LASF1810
C:\Users\CYMR90~1\AppData\Local\Temp\cciNYDRP.s:26637  .debug_str:0000000000017cff .LASF1811
C:\Users\CYMR90~1\AppData\Local\Temp\cciNYDRP.s:21052  .debug_str:000000000000150b .LASF1812
C:\Users\CYMR90~1\AppData\Local\Temp\cciNYDRP.s:23308  .debug_str:000000000000a52c .LASF1813
C:\Users\CYMR90~1\AppData\Local\Temp\cciNYDRP.s:25114  .debug_str:0000000000011ab7 .LASF1814
C:\Users\CYMR90~1\AppData\Local\Temp\cciNYDRP.s:27921  .debug_str:000000000001d142 .LASF1815
C:\Users\CYMR90~1\AppData\Local\Temp\cciNYDRP.s:26603  .debug_str:0000000000017b15 .LASF1816
C:\Users\CYMR90~1\AppData\Local\Temp\cciNYDRP.s:27929  .debug_str:000000000001d1c0 .LASF1817
C:\Users\CYMR90~1\AppData\Local\Temp\cciNYDRP.s:28375  .debug_str:000000000001ece8 .LASF1818
C:\Users\CYMR90~1\AppData\Local\Temp\cciNYDRP.s:24652  .debug_str:000000000000fc47 .LASF1819
C:\Users\CYMR90~1\AppData\Local\Temp\cciNYDRP.s:28855  .debug_str:0000000000020aad .LASF1820
C:\Users\CYMR90~1\AppData\Local\Temp\cciNYDRP.s:22292  .debug_str:0000000000006366 .LASF1821
C:\Users\CYMR90~1\AppData\Local\Temp\cciNYDRP.s:22672  .debug_str:0000000000007c9c .LASF1822
C:\Users\CYMR90~1\AppData\Local\Temp\cciNYDRP.s:28307  .debug_str:000000000001e92d .LASF1823
C:\Users\CYMR90~1\AppData\Local\Temp\cciNYDRP.s:31015  .debug_str:00000000000293ac .LASF1824
C:\Users\CYMR90~1\AppData\Local\Temp\cciNYDRP.s:23588  .debug_str:000000000000b815 .LASF1825
C:\Users\CYMR90~1\AppData\Local\Temp\cciNYDRP.s:28953  .debug_str:000000000002103d .LASF1826
C:\Users\CYMR90~1\AppData\Local\Temp\cciNYDRP.s:31367  .debug_str:000000000002a8e1 .LASF1827
C:\Users\CYMR90~1\AppData\Local\Temp\cciNYDRP.s:24404  .debug_str:000000000000eca6 .LASF1828
C:\Users\CYMR90~1\AppData\Local\Temp\cciNYDRP.s:24480  .debug_str:000000000000f12c .LASF1829
C:\Users\CYMR90~1\AppData\Local\Temp\cciNYDRP.s:25258  .debug_str:00000000000123c9 .LASF1830
C:\Users\CYMR90~1\AppData\Local\Temp\cciNYDRP.s:23050  .debug_str:000000000000951c .LASF1831
C:\Users\CYMR90~1\AppData\Local\Temp\cciNYDRP.s:30397  .debug_str:0000000000026b9f .LASF1832
C:\Users\CYMR90~1\AppData\Local\Temp\cciNYDRP.s:23852  .debug_str:000000000000ca78 .LASF1833
C:\Users\CYMR90~1\AppData\Local\Temp\cciNYDRP.s:22498  .debug_str:00000000000070ff .LASF1834
C:\Users\CYMR90~1\AppData\Local\Temp\cciNYDRP.s:26238  .debug_str:0000000000016202 .LASF1835
C:\Users\CYMR90~1\AppData\Local\Temp\cciNYDRP.s:30267  .debug_str:000000000002638c .LASF1836
C:\Users\CYMR90~1\AppData\Local\Temp\cciNYDRP.s:26208  .debug_str:0000000000016042 .LASF1837
C:\Users\CYMR90~1\AppData\Local\Temp\cciNYDRP.s:26931  .debug_str:0000000000018f3e .LASF1838
C:\Users\CYMR90~1\AppData\Local\Temp\cciNYDRP.s:24900  .debug_str:0000000000010ca6 .LASF1839
C:\Users\CYMR90~1\AppData\Local\Temp\cciNYDRP.s:27873  .debug_str:000000000001cd96 .LASF1840
C:\Users\CYMR90~1\AppData\Local\Temp\cciNYDRP.s:27163  .debug_str:0000000000019eb4 .LASF1841
C:\Users\CYMR90~1\AppData\Local\Temp\cciNYDRP.s:29955  .debug_str:0000000000024e97 .LASF1842
C:\Users\CYMR90~1\AppData\Local\Temp\cciNYDRP.s:30353  .debug_str:0000000000026918 .LASF1843
C:\Users\CYMR90~1\AppData\Local\Temp\cciNYDRP.s:31559  .debug_str:000000000002b529 .LASF1844
C:\Users\CYMR90~1\AppData\Local\Temp\cciNYDRP.s:31421  .debug_str:000000000002ac18 .LASF1845
C:\Users\CYMR90~1\AppData\Local\Temp\cciNYDRP.s:22776  .debug_str:0000000000008409 .LASF1846
C:\Users\CYMR90~1\AppData\Local\Temp\cciNYDRP.s:28077  .debug_str:000000000001da88 .LASF1847
C:\Users\CYMR90~1\AppData\Local\Temp\cciNYDRP.s:29221  .debug_str:00000000000220d1 .LASF1848
C:\Users\CYMR90~1\AppData\Local\Temp\cciNYDRP.s:29237  .debug_str:00000000000221cc .LASF1849
C:\Users\CYMR90~1\AppData\Local\Temp\cciNYDRP.s:28467  .debug_str:000000000001f290 .LASF1850
C:\Users\CYMR90~1\AppData\Local\Temp\cciNYDRP.s:22836  .debug_str:00000000000087b5 .LASF1851
C:\Users\CYMR90~1\AppData\Local\Temp\cciNYDRP.s:30309  .debug_str:0000000000026662 .LASF1852
C:\Users\CYMR90~1\AppData\Local\Temp\cciNYDRP.s:24090  .debug_str:000000000000d9a2 .LASF1853
C:\Users\CYMR90~1\AppData\Local\Temp\cciNYDRP.s:21494  .debug_str:00000000000030d0 .LASF1854
C:\Users\CYMR90~1\AppData\Local\Temp\cciNYDRP.s:27957  .debug_str:000000000001d365 .LASF1855
C:\Users\CYMR90~1\AppData\Local\Temp\cciNYDRP.s:30577  .debug_str:0000000000027713 .LASF1856
C:\Users\CYMR90~1\AppData\Local\Temp\cciNYDRP.s:22924  .debug_str:0000000000008d9f .LASF1857
C:\Users\CYMR90~1\AppData\Local\Temp\cciNYDRP.s:23780  .debug_str:000000000000c49f .LASF1858
C:\Users\CYMR90~1\AppData\Local\Temp\cciNYDRP.s:30671  .debug_str:0000000000027d60 .LASF1859
C:\Users\CYMR90~1\AppData\Local\Temp\cciNYDRP.s:25948  .debug_str:000000000001502e .LASF1860
C:\Users\CYMR90~1\AppData\Local\Temp\cciNYDRP.s:26877  .debug_str:0000000000018be0 .LASF1861
C:\Users\CYMR90~1\AppData\Local\Temp\cciNYDRP.s:24704  .debug_str:000000000000ff99 .LASF1862
C:\Users\CYMR90~1\AppData\Local\Temp\cciNYDRP.s:22450  .debug_str:0000000000006d62 .LASF1863
C:\Users\CYMR90~1\AppData\Local\Temp\cciNYDRP.s:26787  .debug_str:00000000000185b9 .LASF1864
C:\Users\CYMR90~1\AppData\Local\Temp\cciNYDRP.s:22096  .debug_str:000000000000575b .LASF1865
C:\Users\CYMR90~1\AppData\Local\Temp\cciNYDRP.s:29421  .debug_str:0000000000022cb3 .LASF1866
C:\Users\CYMR90~1\AppData\Local\Temp\cciNYDRP.s:28647  .debug_str:000000000001fdc0 .LASF1867
C:\Users\CYMR90~1\AppData\Local\Temp\cciNYDRP.s:23714  .debug_str:000000000000c06d .LASF1868
C:\Users\CYMR90~1\AppData\Local\Temp\cciNYDRP.s:20842  .debug_str:0000000000000807 .LASF1869
C:\Users\CYMR90~1\AppData\Local\Temp\cciNYDRP.s:21194  .debug_str:0000000000001e05 .LASF1870
C:\Users\CYMR90~1\AppData\Local\Temp\cciNYDRP.s:30961  .debug_str:0000000000029073 .LASF1871
C:\Users\CYMR90~1\AppData\Local\Temp\cciNYDRP.s:30053  .debug_str:00000000000255f5 .LASF1872
C:\Users\CYMR90~1\AppData\Local\Temp\cciNYDRP.s:26072  .debug_str:0000000000015733 .LASF1873
C:\Users\CYMR90~1\AppData\Local\Temp\cciNYDRP.s:22618  .debug_str:00000000000078aa .LASF1874
C:\Users\CYMR90~1\AppData\Local\Temp\cciNYDRP.s:23500  .debug_str:000000000000b1a5 .LASF1875
C:\Users\CYMR90~1\AppData\Local\Temp\cciNYDRP.s:31141  .debug_str:0000000000029b57 .LASF1876
C:\Users\CYMR90~1\AppData\Local\Temp\cciNYDRP.s:27397  .debug_str:000000000001af7a .LASF1877
C:\Users\CYMR90~1\AppData\Local\Temp\cciNYDRP.s:28137  .debug_str:000000000001dede .LASF1878
C:\Users\CYMR90~1\AppData\Local\Temp\cciNYDRP.s:24544  .debug_str:000000000000f4f5 .LASF1879
C:\Users\CYMR90~1\AppData\Local\Temp\cciNYDRP.s:22880  .debug_str:0000000000008a5f .LASF1880
C:\Users\CYMR90~1\AppData\Local\Temp\cciNYDRP.s:28447  .debug_str:000000000001f153 .LASF1881
C:\Users\CYMR90~1\AppData\Local\Temp\cciNYDRP.s:20954  .debug_str:0000000000000f68 .LASF1882
C:\Users\CYMR90~1\AppData\Local\Temp\cciNYDRP.s:28845  .debug_str:00000000000209eb .LASF1883
C:\Users\CYMR90~1\AppData\Local\Temp\cciNYDRP.s:31555  .debug_str:000000000002b4e1 .LASF1884
C:\Users\CYMR90~1\AppData\Local\Temp\cciNYDRP.s:28555  .debug_str:000000000001f7e1 .LASF1885
C:\Users\CYMR90~1\AppData\Local\Temp\cciNYDRP.s:30687  .debug_str:0000000000027e60 .LASF1886
C:\Users\CYMR90~1\AppData\Local\Temp\cciNYDRP.s:23104  .debug_str:00000000000098bd .LASF1887
C:\Users\CYMR90~1\AppData\Local\Temp\cciNYDRP.s:22912  .debug_str:0000000000008cd6 .LASF1888
C:\Users\CYMR90~1\AppData\Local\Temp\cciNYDRP.s:31587  .debug_str:000000000002b6db .LASF1889
C:\Users\CYMR90~1\AppData\Local\Temp\cciNYDRP.s:27017  .debug_str:0000000000019520 .LASF1890
C:\Users\CYMR90~1\AppData\Local\Temp\cciNYDRP.s:23096  .debug_str:0000000000009817 .LASF1891
C:\Users\CYMR90~1\AppData\Local\Temp\cciNYDRP.s:23188  .debug_str:0000000000009df0 .LASF1892
C:\Users\CYMR90~1\AppData\Local\Temp\cciNYDRP.s:27763  .debug_str:000000000001c55e .LASF1893
C:\Users\CYMR90~1\AppData\Local\Temp\cciNYDRP.s:22906  .debug_str:0000000000008c6a .LASF1894
C:\Users\CYMR90~1\AppData\Local\Temp\cciNYDRP.s:24156  .debug_str:000000000000dd8e .LASF1895
C:\Users\CYMR90~1\AppData\Local\Temp\cciNYDRP.s:26471  .debug_str:00000000000172b2 .LASF1896
C:\Users\CYMR90~1\AppData\Local\Temp\cciNYDRP.s:21146  .debug_str:0000000000001b2f .LASF1897
C:\Users\CYMR90~1\AppData\Local\Temp\cciNYDRP.s:30421  .debug_str:0000000000026d50 .LASF1898
C:\Users\CYMR90~1\AppData\Local\Temp\cciNYDRP.s:27265  .debug_str:000000000001a641 .LASF1899
C:\Users\CYMR90~1\AppData\Local\Temp\cciNYDRP.s:23980  .debug_str:000000000000d306 .LASF1900
C:\Users\CYMR90~1\AppData\Local\Temp\cciNYDRP.s:20768  .debug_str:00000000000003e9 .LASF1901
C:\Users\CYMR90~1\AppData\Local\Temp\cciNYDRP.s:21574  .debug_str:00000000000035f5 .LASF1902
C:\Users\CYMR90~1\AppData\Local\Temp\cciNYDRP.s:23612  .debug_str:000000000000b93e .LASF1903
C:\Users\CYMR90~1\AppData\Local\Temp\cciNYDRP.s:31837  .debug_str:000000000002c7b4 .LASF1904
C:\Users\CYMR90~1\AppData\Local\Temp\cciNYDRP.s:26338  .debug_str:000000000001689a .LASF1905
C:\Users\CYMR90~1\AppData\Local\Temp\cciNYDRP.s:23066  .debug_str:00000000000095d7 .LASF1906
C:\Users\CYMR90~1\AppData\Local\Temp\cciNYDRP.s:30765  .debug_str:0000000000028438 .LASF1907
C:\Users\CYMR90~1\AppData\Local\Temp\cciNYDRP.s:27801  .debug_str:000000000001c878 .LASF1908
C:\Users\CYMR90~1\AppData\Local\Temp\cciNYDRP.s:22084  .debug_str:0000000000005691 .LASF1909
C:\Users\CYMR90~1\AppData\Local\Temp\cciNYDRP.s:31131  .debug_str:0000000000029abb .LASF1910
C:\Users\CYMR90~1\AppData\Local\Temp\cciNYDRP.s:27441  .debug_str:000000000001b236 .LASF1911
C:\Users\CYMR90~1\AppData\Local\Temp\cciNYDRP.s:27115  .debug_str:0000000000019c0a .LASF1912
C:\Users\CYMR90~1\AppData\Local\Temp\cciNYDRP.s:23520  .debug_str:000000000000b366 .LASF1913
C:\Users\CYMR90~1\AppData\Local\Temp\cciNYDRP.s:23358  .debug_str:000000000000a828 .LASF1914
C:\Users\CYMR90~1\AppData\Local\Temp\cciNYDRP.s:28751  .debug_str:00000000000203e7 .LASF1915
C:\Users\CYMR90~1\AppData\Local\Temp\cciNYDRP.s:30029  .debug_str:000000000002542f .LASF1916
C:\Users\CYMR90~1\AppData\Local\Temp\cciNYDRP.s:26635  .debug_str:0000000000017cd3 .LASF1917
C:\Users\CYMR90~1\AppData\Local\Temp\cciNYDRP.s:23264  .debug_str:000000000000a2b1 .LASF1918
C:\Users\CYMR90~1\AppData\Local\Temp\cciNYDRP.s:31189  .debug_str:0000000000029e0f .LASF1919
C:\Users\CYMR90~1\AppData\Local\Temp\cciNYDRP.s:27773  .debug_str:000000000001c601 .LASF1920
C:\Users\CYMR90~1\AppData\Local\Temp\cciNYDRP.s:23560  .debug_str:000000000000b606 .LASF1921
C:\Users\CYMR90~1\AppData\Local\Temp\cciNYDRP.s:22472  .debug_str:0000000000006eea .LASF1922
C:\Users\CYMR90~1\AppData\Local\Temp\cciNYDRP.s:28819  .debug_str:0000000000020863 .LASF1923
C:\Users\CYMR90~1\AppData\Local\Temp\cciNYDRP.s:30915  .debug_str:0000000000028d94 .LASF1924
C:\Users\CYMR90~1\AppData\Local\Temp\cciNYDRP.s:23380  .debug_str:000000000000a9ac .LASF1925
C:\Users\CYMR90~1\AppData\Local\Temp\cciNYDRP.s:28643  .debug_str:000000000001fd6c .LASF1926
C:\Users\CYMR90~1\AppData\Local\Temp\cciNYDRP.s:27671  .debug_str:000000000001c00f .LASF1927
C:\Users\CYMR90~1\AppData\Local\Temp\cciNYDRP.s:21612  .debug_str:0000000000003867 .LASF1928
C:\Users\CYMR90~1\AppData\Local\Temp\cciNYDRP.s:22520  .debug_str:0000000000007252 .LASF1929
C:\Users\CYMR90~1\AppData\Local\Temp\cciNYDRP.s:28571  .debug_str:000000000001f8db .LASF1930
C:\Users\CYMR90~1\AppData\Local\Temp\cciNYDRP.s:31867  .debug_str:000000000002c9db .LASF1931
C:\Users\CYMR90~1\AppData\Local\Temp\cciNYDRP.s:31547  .debug_str:000000000002b447 .LASF1932
C:\Users\CYMR90~1\AppData\Local\Temp\cciNYDRP.s:22630  .debug_str:0000000000007954 .LASF1933
C:\Users\CYMR90~1\AppData\Local\Temp\cciNYDRP.s:24684  .debug_str:000000000000fe6d .LASF1934
C:\Users\CYMR90~1\AppData\Local\Temp\cciNYDRP.s:27745  .debug_str:000000000001c442 .LASF1935
C:\Users\CYMR90~1\AppData\Local\Temp\cciNYDRP.s:22126  .debug_str:0000000000005953 .LASF1936
C:\Users\CYMR90~1\AppData\Local\Temp\cciNYDRP.s:27609  .debug_str:000000000001bc0d .LASF1937
C:\Users\CYMR90~1\AppData\Local\Temp\cciNYDRP.s:26585  .debug_str:00000000000179f8 .LASF1938
C:\Users\CYMR90~1\AppData\Local\Temp\cciNYDRP.s:25896  .debug_str:0000000000014ca9 .LASF1939
C:\Users\CYMR90~1\AppData\Local\Temp\cciNYDRP.s:22822  .debug_str:00000000000086a6 .LASF1940
C:\Users\CYMR90~1\AppData\Local\Temp\cciNYDRP.s:30979  .debug_str:00000000000291b0 .LASF1941
C:\Users\CYMR90~1\AppData\Local\Temp\cciNYDRP.s:27853  .debug_str:000000000001cbc3 .LASF1942
C:\Users\CYMR90~1\AppData\Local\Temp\cciNYDRP.s:23752  .debug_str:000000000000c2d1 .LASF1943
C:\Users\CYMR90~1\AppData\Local\Temp\cciNYDRP.s:24882  .debug_str:0000000000010b20 .LASF1944
C:\Users\CYMR90~1\AppData\Local\Temp\cciNYDRP.s:28679  .debug_str:000000000001ffac .LASF1945
C:\Users\CYMR90~1\AppData\Local\Temp\cciNYDRP.s:25610  .debug_str:0000000000013b23 .LASF1946
C:\Users\CYMR90~1\AppData\Local\Temp\cciNYDRP.s:22414  .debug_str:0000000000006b2e .LASF1947
C:\Users\CYMR90~1\AppData\Local\Temp\cciNYDRP.s:21348  .debug_str:0000000000002757 .LASF1948
C:\Users\CYMR90~1\AppData\Local\Temp\cciNYDRP.s:27491  .debug_str:000000000001b513 .LASF1949
C:\Users\CYMR90~1\AppData\Local\Temp\cciNYDRP.s:24422  .debug_str:000000000000ed89 .LASF1950
C:\Users\CYMR90~1\AppData\Local\Temp\cciNYDRP.s:21216  .debug_str:0000000000001f1d .LASF1951
C:\Users\CYMR90~1\AppData\Local\Temp\cciNYDRP.s:29437  .debug_str:0000000000022d84 .LASF1952
C:\Users\CYMR90~1\AppData\Local\Temp\cciNYDRP.s:30161  .debug_str:0000000000025d2c .LASF1953
C:\Users\CYMR90~1\AppData\Local\Temp\cciNYDRP.s:25738  .debug_str:00000000000142f6 .LASF1954
C:\Users\CYMR90~1\AppData\Local\Temp\cciNYDRP.s:28967  .debug_str:0000000000021112 .LASF1955
C:\Users\CYMR90~1\AppData\Local\Temp\cciNYDRP.s:29637  .debug_str:0000000000023972 .LASF1956
C:\Users\CYMR90~1\AppData\Local\Temp\cciNYDRP.s:21270  .debug_str:0000000000002225 .LASF1957
C:\Users\CYMR90~1\AppData\Local\Temp\cciNYDRP.s:31393  .debug_str:000000000002aa6f .LASF1958
C:\Users\CYMR90~1\AppData\Local\Temp\cciNYDRP.s:22636  .debug_str:00000000000079c5 .LASF1959
C:\Users\CYMR90~1\AppData\Local\Temp\cciNYDRP.s:30963  .debug_str:00000000000290b2 .LASF1960
C:\Users\CYMR90~1\AppData\Local\Temp\cciNYDRP.s:27809  .debug_str:000000000001c8fe .LASF1961
C:\Users\CYMR90~1\AppData\Local\Temp\cciNYDRP.s:20804  .debug_str:00000000000005ba .LASF1962
C:\Users\CYMR90~1\AppData\Local\Temp\cciNYDRP.s:26120  .debug_str:0000000000015a1f .LASF1963
C:\Users\CYMR90~1\AppData\Local\Temp\cciNYDRP.s:30009  .debug_str:00000000000252cc .LASF1964
C:\Users\CYMR90~1\AppData\Local\Temp\cciNYDRP.s:22476  .debug_str:0000000000006f55 .LASF1965
C:\Users\CYMR90~1\AppData\Local\Temp\cciNYDRP.s:27949  .debug_str:000000000001d2ca .LASF1966
C:\Users\CYMR90~1\AppData\Local\Temp\cciNYDRP.s:31487  .debug_str:000000000002b019 .LASF1967
C:\Users\CYMR90~1\AppData\Local\Temp\cciNYDRP.s:27787  .debug_str:000000000001c787 .LASF1968
C:\Users\CYMR90~1\AppData\Local\Temp\cciNYDRP.s:29317  .debug_str:0000000000022671 .LASF1969
C:\Users\CYMR90~1\AppData\Local\Temp\cciNYDRP.s:22460  .debug_str:0000000000006e18 .LASF1970
C:\Users\CYMR90~1\AppData\Local\Temp\cciNYDRP.s:29323  .debug_str:00000000000226b8 .LASF1971
C:\Users\CYMR90~1\AppData\Local\Temp\cciNYDRP.s:30045  .debug_str:000000000002554b .LASF1972
C:\Users\CYMR90~1\AppData\Local\Temp\cciNYDRP.s:27103  .debug_str:0000000000019b53 .LASF1973
C:\Users\CYMR90~1\AppData\Local\Temp\cciNYDRP.s:26917  .debug_str:0000000000018e6f .LASF1974
C:\Users\CYMR90~1\AppData\Local\Temp\cciNYDRP.s:31439  .debug_str:000000000002ad4d .LASF1975
C:\Users\CYMR90~1\AppData\Local\Temp\cciNYDRP.s:22654  .debug_str:0000000000007b71 .LASF1976
C:\Users\CYMR90~1\AppData\Local\Temp\cciNYDRP.s:23016  .debug_str:00000000000092cf .LASF1977
C:\Users\CYMR90~1\AppData\Local\Temp\cciNYDRP.s:31211  .debug_str:0000000000029f52 .LASF1978
C:\Users\CYMR90~1\AppData\Local\Temp\cciNYDRP.s:21952  .debug_str:0000000000004ec9 .LASF1979
C:\Users\CYMR90~1\AppData\Local\Temp\cciNYDRP.s:29947  .debug_str:0000000000024e15 .LASF1980
C:\Users\CYMR90~1\AppData\Local\Temp\cciNYDRP.s:29801  .debug_str:000000000002445b .LASF1981
C:\Users\CYMR90~1\AppData\Local\Temp\cciNYDRP.s:29643  .debug_str:00000000000239d0 .LASF1982
C:\Users\CYMR90~1\AppData\Local\Temp\cciNYDRP.s:30471  .debug_str:0000000000027026 .LASF1983
C:\Users\CYMR90~1\AppData\Local\Temp\cciNYDRP.s:31397  .debug_str:000000000002aac5 .LASF1984
C:\Users\CYMR90~1\AppData\Local\Temp\cciNYDRP.s:22608  .debug_str:00000000000077cd .LASF1985
C:\Users\CYMR90~1\AppData\Local\Temp\cciNYDRP.s:27523  .debug_str:000000000001b727 .LASF1986
C:\Users\CYMR90~1\AppData\Local\Temp\cciNYDRP.s:25812  .debug_str:000000000001477d .LASF1987
C:\Users\CYMR90~1\AppData\Local\Temp\cciNYDRP.s:26815  .debug_str:000000000001874c .LASF1988
C:\Users\CYMR90~1\AppData\Local\Temp\cciNYDRP.s:23846  .debug_str:000000000000ca1e .LASF1989
C:\Users\CYMR90~1\AppData\Local\Temp\cciNYDRP.s:22872  .debug_str:00000000000089ee .LASF1990
C:\Users\CYMR90~1\AppData\Local\Temp\cciNYDRP.s:23906  .debug_str:000000000000cd86 .LASF1991
C:\Users\CYMR90~1\AppData\Local\Temp\cciNYDRP.s:27155  .debug_str:0000000000019e2b .LASF1992
C:\Users\CYMR90~1\AppData\Local\Temp\cciNYDRP.s:21856  .debug_str:0000000000004901 .LASF1993
C:\Users\CYMR90~1\AppData\Local\Temp\cciNYDRP.s:20950  .debug_str:0000000000000f38 .LASF1994
C:\Users\CYMR90~1\AppData\Local\Temp\cciNYDRP.s:30061  .debug_str:0000000000025689 .LASF1995
C:\Users\CYMR90~1\AppData\Local\Temp\cciNYDRP.s:21572  .debug_str:00000000000035c1 .LASF1996
C:\Users\CYMR90~1\AppData\Local\Temp\cciNYDRP.s:30527  .debug_str:0000000000027458 .LASF1997
C:\Users\CYMR90~1\AppData\Local\Temp\cciNYDRP.s:29553  .debug_str:0000000000023428 .LASF1998
C:\Users\CYMR90~1\AppData\Local\Temp\cciNYDRP.s:26743  .debug_str:0000000000018331 .LASF1999
C:\Users\CYMR90~1\AppData\Local\Temp\cciNYDRP.s:26226  .debug_str:0000000000016157 .LASF2000
C:\Users\CYMR90~1\AppData\Local\Temp\cciNYDRP.s:25040  .debug_str:00000000000114b2 .LASF2001
C:\Users\CYMR90~1\AppData\Local\Temp\cciNYDRP.s:29329  .debug_str:000000000002271d .LASF2002
C:\Users\CYMR90~1\AppData\Local\Temp\cciNYDRP.s:30743  .debug_str:00000000000282eb .LASF2003
C:\Users\CYMR90~1\AppData\Local\Temp\cciNYDRP.s:24598  .debug_str:000000000000f8c1 .LASF2004
C:\Users\CYMR90~1\AppData\Local\Temp\cciNYDRP.s:29223  .debug_str:00000000000220ec .LASF2005
C:\Users\CYMR90~1\AppData\Local\Temp\cciNYDRP.s:26427  .debug_str:000000000001704e .LASF2006
C:\Users\CYMR90~1\AppData\Local\Temp\cciNYDRP.s:31643  .debug_str:000000000002bac4 .LASF2007
C:\Users\CYMR90~1\AppData\Local\Temp\cciNYDRP.s:21994  .debug_str:000000000000515b .LASF2008
C:\Users\CYMR90~1\AppData\Local\Temp\cciNYDRP.s:25540  .debug_str:00000000000136da .LASF2009
C:\Users\CYMR90~1\AppData\Local\Temp\cciNYDRP.s:28225  .debug_str:000000000001e429 .LASF2010
C:\Users\CYMR90~1\AppData\Local\Temp\cciNYDRP.s:23874  .debug_str:000000000000cbd2 .LASF2011
C:\Users\CYMR90~1\AppData\Local\Temp\cciNYDRP.s:21130  .debug_str:0000000000001a5e .LASF2012
C:\Users\CYMR90~1\AppData\Local\Temp\cciNYDRP.s:29521  .debug_str:000000000002322c .LASF2013
C:\Users\CYMR90~1\AppData\Local\Temp\cciNYDRP.s:29273  .debug_str:00000000000223a5 .LASF2014
C:\Users\CYMR90~1\AppData\Local\Temp\cciNYDRP.s:27243  .debug_str:000000000001a4e4 .LASF2015
C:\Users\CYMR90~1\AppData\Local\Temp\cciNYDRP.s:31119  .debug_str:0000000000029a07 .LASF2016
C:\Users\CYMR90~1\AppData\Local\Temp\cciNYDRP.s:29429  .debug_str:0000000000022d2d .LASF2017
C:\Users\CYMR90~1\AppData\Local\Temp\cciNYDRP.s:31549  .debug_str:000000000002b477 .LASF2018
C:\Users\CYMR90~1\AppData\Local\Temp\cciNYDRP.s:27987  .debug_str:000000000001d521 .LASF2019
C:\Users\CYMR90~1\AppData\Local\Temp\cciNYDRP.s:22352  .debug_str:000000000000673d .LASF2020
C:\Users\CYMR90~1\AppData\Local\Temp\cciNYDRP.s:29471  .debug_str:0000000000022f6e .LASF2021
C:\Users\CYMR90~1\AppData\Local\Temp\cciNYDRP.s:30461  .debug_str:0000000000026fa8 .LASF2022
C:\Users\CYMR90~1\AppData\Local\Temp\cciNYDRP.s:26653  .debug_str:0000000000017de3 .LASF2023
C:\Users\CYMR90~1\AppData\Local\Temp\cciNYDRP.s:30399  .debug_str:0000000000026bb4 .LASF2024
C:\Users\CYMR90~1\AppData\Local\Temp\cciNYDRP.s:23586  .debug_str:000000000000b7fa .LASF2025
C:\Users\CYMR90~1\AppData\Local\Temp\cciNYDRP.s:31499  .debug_str:000000000002b0ce .LASF2026
C:\Users\CYMR90~1\AppData\Local\Temp\cciNYDRP.s:21534  .debug_str:000000000000336b .LASF2027
C:\Users\CYMR90~1\AppData\Local\Temp\cciNYDRP.s:29533  .debug_str:00000000000232d2 .LASF2028
C:\Users\CYMR90~1\AppData\Local\Temp\cciNYDRP.s:28543  .debug_str:000000000001f70c .LASF2029
C:\Users\CYMR90~1\AppData\Local\Temp\cciNYDRP.s:20718  .debug_str:0000000000000128 .LASF2030
C:\Users\CYMR90~1\AppData\Local\Temp\cciNYDRP.s:26639  .debug_str:0000000000017d14 .LASF2031
C:\Users\CYMR90~1\AppData\Local\Temp\cciNYDRP.s:23352  .debug_str:000000000000a7e3 .LASF2032
C:\Users\CYMR90~1\AppData\Local\Temp\cciNYDRP.s:24562  .debug_str:000000000000f6aa .LASF2033
C:\Users\CYMR90~1\AppData\Local\Temp\cciNYDRP.s:23564  .debug_str:000000000000b649 .LASF2034
C:\Users\CYMR90~1\AppData\Local\Temp\cciNYDRP.s:25112  .debug_str:0000000000011a9a .LASF2035
C:\Users\CYMR90~1\AppData\Local\Temp\cciNYDRP.s:29001  .debug_str:00000000000213af .LASF2036
C:\Users\CYMR90~1\AppData\Local\Temp\cciNYDRP.s:29403  .debug_str:0000000000022bbc .LASF2037
C:\Users\CYMR90~1\AppData\Local\Temp\cciNYDRP.s:24458  .debug_str:000000000000ef99 .LASF2038
C:\Users\CYMR90~1\AppData\Local\Temp\cciNYDRP.s:25206  .debug_str:000000000001208f .LASF2039
C:\Users\CYMR90~1\AppData\Local\Temp\cciNYDRP.s:27185  .debug_str:000000000001a004 .LASF2040
C:\Users\CYMR90~1\AppData\Local\Temp\cciNYDRP.s:23902  .debug_str:000000000000cd36 .LASF2041
C:\Users\CYMR90~1\AppData\Local\Temp\cciNYDRP.s:21356  .debug_str:00000000000027ca .LASF2042
C:\Users\CYMR90~1\AppData\Local\Temp\cciNYDRP.s:22086  .debug_str:00000000000056cf .LASF2043
C:\Users\CYMR90~1\AppData\Local\Temp\cciNYDRP.s:31917  .debug_str:000000000002cd44 .LASF2044
C:\Users\CYMR90~1\AppData\Local\Temp\cciNYDRP.s:25510  .debug_str:00000000000134da .LASF2045
C:\Users\CYMR90~1\AppData\Local\Temp\cciNYDRP.s:29287  .debug_str:000000000002247b .LASF2046
C:\Users\CYMR90~1\AppData\Local\Temp\cciNYDRP.s:30927  .debug_str:0000000000028e67 .LASF2047
C:\Users\CYMR90~1\AppData\Local\Temp\cciNYDRP.s:27653  .debug_str:000000000001bef6 .LASF2048
C:\Users\CYMR90~1\AppData\Local\Temp\cciNYDRP.s:28183  .debug_str:000000000001e19a .LASF2049
C:\Users\CYMR90~1\AppData\Local\Temp\cciNYDRP.s:22150  .debug_str:0000000000005ada .LASF2050
C:\Users\CYMR90~1\AppData\Local\Temp\cciNYDRP.s:21520  .debug_str:0000000000003271 .LASF2051
C:\Users\CYMR90~1\AppData\Local\Temp\cciNYDRP.s:23466  .debug_str:000000000000afd1 .LASF2052
C:\Users\CYMR90~1\AppData\Local\Temp\cciNYDRP.s:30027  .debug_str:00000000000253e8 .LASF2053
C:\Users\CYMR90~1\AppData\Local\Temp\cciNYDRP.s:31351  .debug_str:000000000002a807 .LASF2054
C:\Users\CYMR90~1\AppData\Local\Temp\cciNYDRP.s:21962  .debug_str:0000000000004f71 .LASF2055
C:\Users\CYMR90~1\AppData\Local\Temp\cciNYDRP.s:30357  .debug_str:000000000002694f .LASF2056
C:\Users\CYMR90~1\AppData\Local\Temp\cciNYDRP.s:28353  .debug_str:000000000001eb96 .LASF2057
C:\Users\CYMR90~1\AppData\Local\Temp\cciNYDRP.s:26489  .debug_str:00000000000173bc .LASF2058
C:\Users\CYMR90~1\AppData\Local\Temp\cciNYDRP.s:23344  .debug_str:000000000000a75c .LASF2059
C:\Users\CYMR90~1\AppData\Local\Temp\cciNYDRP.s:24148  .debug_str:000000000000dd0e .LASF2060
C:\Users\CYMR90~1\AppData\Local\Temp\cciNYDRP.s:28803  .debug_str:0000000000020774 .LASF2061
C:\Users\CYMR90~1\AppData\Local\Temp\cciNYDRP.s:25638  .debug_str:0000000000013ccd .LASF2062
C:\Users\CYMR90~1\AppData\Local\Temp\cciNYDRP.s:21328  .debug_str:00000000000025e7 .LASF2063
C:\Users\CYMR90~1\AppData\Local\Temp\cciNYDRP.s:24926  .debug_str:0000000000010df0 .LASF2064
C:\Users\CYMR90~1\AppData\Local\Temp\cciNYDRP.s:28317  .debug_str:000000000001e99d .LASF2065
C:\Users\CYMR90~1\AppData\Local\Temp\cciNYDRP.s:23032  .debug_str:00000000000093af .LASF2066
C:\Users\CYMR90~1\AppData\Local\Temp\cciNYDRP.s:23494  .debug_str:000000000000b147 .LASF2067
C:\Users\CYMR90~1\AppData\Local\Temp\cciNYDRP.s:26591  .debug_str:0000000000017a59 .LASF2068
C:\Users\CYMR90~1\AppData\Local\Temp\cciNYDRP.s:26200  .debug_str:0000000000015fa1 .LASF2069
C:\Users\CYMR90~1\AppData\Local\Temp\cciNYDRP.s:24036  .debug_str:000000000000d670 .LASF2070
C:\Users\CYMR90~1\AppData\Local\Temp\cciNYDRP.s:22120  .debug_str:000000000000590c .LASF2071
C:\Users\CYMR90~1\AppData\Local\Temp\cciNYDRP.s:25362  .debug_str:0000000000012ac4 .LASF2072
C:\Users\CYMR90~1\AppData\Local\Temp\cciNYDRP.s:24382  .debug_str:000000000000eb87 .LASF2073
C:\Users\CYMR90~1\AppData\Local\Temp\cciNYDRP.s:23626  .debug_str:000000000000ba5c .LASF2074
C:\Users\CYMR90~1\AppData\Local\Temp\cciNYDRP.s:31723  .debug_str:000000000002c053 .LASF2075
C:\Users\CYMR90~1\AppData\Local\Temp\cciNYDRP.s:23594  .debug_str:000000000000b860 .LASF2076
C:\Users\CYMR90~1\AppData\Local\Temp\cciNYDRP.s:31005  .debug_str:000000000002930b .LASF2077
C:\Users\CYMR90~1\AppData\Local\Temp\cciNYDRP.s:21976  .debug_str:0000000000005041 .LASF2078
C:\Users\CYMR90~1\AppData\Local\Temp\cciNYDRP.s:21098  .debug_str:0000000000001884 .LASF2079
C:\Users\CYMR90~1\AppData\Local\Temp\cciNYDRP.s:29563  .debug_str:00000000000234e8 .LASF2080
C:\Users\CYMR90~1\AppData\Local\Temp\cciNYDRP.s:30889  .debug_str:0000000000028c09 .LASF2081
C:\Users\CYMR90~1\AppData\Local\Temp\cciNYDRP.s:30981  .debug_str:00000000000291d8 .LASF2082
C:\Users\CYMR90~1\AppData\Local\Temp\cciNYDRP.s:25232  .debug_str:000000000001220b .LASF2083
C:\Users\CYMR90~1\AppData\Local\Temp\cciNYDRP.s:22676  .debug_str:0000000000007cdc .LASF2084
C:\Users\CYMR90~1\AppData\Local\Temp\cciNYDRP.s:29443  .debug_str:0000000000022de2 .LASF2085
C:\Users\CYMR90~1\AppData\Local\Temp\cciNYDRP.s:21002  .debug_str:000000000000121c .LASF2086
C:\Users\CYMR90~1\AppData\Local\Temp\cciNYDRP.s:20856  .debug_str:00000000000008e3 .LASF2087
C:\Users\CYMR90~1\AppData\Local\Temp\cciNYDRP.s:27445  .debug_str:000000000001b27c .LASF2088
C:\Users\CYMR90~1\AppData\Local\Temp\cciNYDRP.s:28513  .debug_str:000000000001f56b .LASF2089
C:\Users\CYMR90~1\AppData\Local\Temp\cciNYDRP.s:28831  .debug_str:0000000000020924 .LASF2090
C:\Users\CYMR90~1\AppData\Local\Temp\cciNYDRP.s:25166  .debug_str:0000000000011dc4 .LASF2091
C:\Users\CYMR90~1\AppData\Local\Temp\cciNYDRP.s:26517  .debug_str:0000000000017570 .LASF2092
C:\Users\CYMR90~1\AppData\Local\Temp\cciNYDRP.s:25668  .debug_str:0000000000013e80 .LASF2093
C:\Users\CYMR90~1\AppData\Local\Temp\cciNYDRP.s:21514  .debug_str:0000000000003221 .LASF2094
C:\Users\CYMR90~1\AppData\Local\Temp\cciNYDRP.s:21732  .debug_str:00000000000040a2 .LASF2095
C:\Users\CYMR90~1\AppData\Local\Temp\cciNYDRP.s:23142  .debug_str:0000000000009b07 .LASF2096
C:\Users\CYMR90~1\AppData\Local\Temp\cciNYDRP.s:21490  .debug_str:000000000000306d .LASF2097
C:\Users\CYMR90~1\AppData\Local\Temp\cciNYDRP.s:30173  .debug_str:0000000000025de0 .LASF2098
C:\Users\CYMR90~1\AppData\Local\Temp\cciNYDRP.s:24716  .debug_str:000000000001005d .LASF2099
C:\Users\CYMR90~1\AppData\Local\Temp\cciNYDRP.s:23502  .debug_str:000000000000b1ce .LASF2100
C:\Users\CYMR90~1\AppData\Local\Temp\cciNYDRP.s:22290  .debug_str:0000000000006343 .LASF2101
C:\Users\CYMR90~1\AppData\Local\Temp\cciNYDRP.s:21406  .debug_str:0000000000002ae5 .LASF2102
C:\Users\CYMR90~1\AppData\Local\Temp\cciNYDRP.s:23180  .debug_str:0000000000009d49 .LASF2103
C:\Users\CYMR90~1\AppData\Local\Temp\cciNYDRP.s:31673  .debug_str:000000000002bcb0 .LASF2104
C:\Users\CYMR90~1\AppData\Local\Temp\cciNYDRP.s:26515  .debug_str:000000000001754c .LASF2105
C:\Users\CYMR90~1\AppData\Local\Temp\cciNYDRP.s:21508  .debug_str:00000000000031b0 .LASF2106
C:\Users\CYMR90~1\AppData\Local\Temp\cciNYDRP.s:30951  .debug_str:0000000000028ffa .LASF2107
C:\Users\CYMR90~1\AppData\Local\Temp\cciNYDRP.s:25200  .debug_str:0000000000012015 .LASF2108
C:\Users\CYMR90~1\AppData\Local\Temp\cciNYDRP.s:21524  .debug_str:00000000000032af .LASF2109
C:\Users\CYMR90~1\AppData\Local\Temp\cciNYDRP.s:23944  .debug_str:000000000000d00e .LASF2110
C:\Users\CYMR90~1\AppData\Local\Temp\cciNYDRP.s:26463  .debug_str:0000000000017242 .LASF2111
C:\Users\CYMR90~1\AppData\Local\Temp\cciNYDRP.s:28533  .debug_str:000000000001f686 .LASF2112
C:\Users\CYMR90~1\AppData\Local\Temp\cciNYDRP.s:31113  .debug_str:00000000000299ad .LASF2113
C:\Users\CYMR90~1\AppData\Local\Temp\cciNYDRP.s:24440  .debug_str:000000000000ee93 .LASF2114
C:\Users\CYMR90~1\AppData\Local\Temp\cciNYDRP.s:25562  .debug_str:0000000000013817 .LASF2115
C:\Users\CYMR90~1\AppData\Local\Temp\cciNYDRP.s:27429  .debug_str:000000000001b172 .LASF2116
C:\Users\CYMR90~1\AppData\Local\Temp\cciNYDRP.s:25750  .debug_str:0000000000014393 .LASF2117
C:\Users\CYMR90~1\AppData\Local\Temp\cciNYDRP.s:29793  .debug_str:00000000000243ec .LASF2118
C:\Users\CYMR90~1\AppData\Local\Temp\cciNYDRP.s:28479  .debug_str:000000000001f360 .LASF2119
C:\Users\CYMR90~1\AppData\Local\Temp\cciNYDRP.s:21360  .debug_str:0000000000002801 .LASF2120
C:\Users\CYMR90~1\AppData\Local\Temp\cciNYDRP.s:28907  .debug_str:0000000000020dc6 .LASF2121
C:\Users\CYMR90~1\AppData\Local\Temp\cciNYDRP.s:22750  .debug_str:0000000000008257 .LASF2122
C:\Users\CYMR90~1\AppData\Local\Temp\cciNYDRP.s:25608  .debug_str:0000000000013aff .LASF2123
C:\Users\CYMR90~1\AppData\Local\Temp\cciNYDRP.s:28209  .debug_str:000000000001e32c .LASF2124
C:\Users\CYMR90~1\AppData\Local\Temp\cciNYDRP.s:25464  .debug_str:0000000000013161 .LASF2125
C:\Users\CYMR90~1\AppData\Local\Temp\cciNYDRP.s:26583  .debug_str:00000000000179d1 .LASF2126
C:\Users\CYMR90~1\AppData\Local\Temp\cciNYDRP.s:30487  .debug_str:000000000002714e .LASF2127
C:\Users\CYMR90~1\AppData\Local\Temp\cciNYDRP.s:29015  .debug_str:0000000000021485 .LASF2128
C:\Users\CYMR90~1\AppData\Local\Temp\cciNYDRP.s:24922  .debug_str:0000000000010db5 .LASF2129
C:\Users\CYMR90~1\AppData\Local\Temp\cciNYDRP.s:28923  .debug_str:0000000000020ea0 .LASF2130
C:\Users\CYMR90~1\AppData\Local\Temp\cciNYDRP.s:26805  .debug_str:00000000000186ab .LASF2131
C:\Users\CYMR90~1\AppData\Local\Temp\cciNYDRP.s:28747  .debug_str:00000000000203a2 .LASF2132
C:\Users\CYMR90~1\AppData\Local\Temp\cciNYDRP.s:25106  .debug_str:0000000000011a24 .LASF2133
C:\Users\CYMR90~1\AppData\Local\Temp\cciNYDRP.s:21498  .debug_str:0000000000003112 .LASF2134
C:\Users\CYMR90~1\AppData\Local\Temp\cciNYDRP.s:21240  .debug_str:0000000000002059 .LASF2135
C:\Users\CYMR90~1\AppData\Local\Temp\cciNYDRP.s:26961  .debug_str:00000000000191d8 .LASF2136
C:\Users\CYMR90~1\AppData\Local\Temp\cciNYDRP.s:31219  .debug_str:0000000000029fe2 .LASF2137
C:\Users\CYMR90~1\AppData\Local\Temp\cciNYDRP.s:22752  .debug_str:000000000000827c .LASF2138
C:\Users\CYMR90~1\AppData\Local\Temp\cciNYDRP.s:29105  .debug_str:0000000000021a0f .LASF2139
C:\Users\CYMR90~1\AppData\Local\Temp\cciNYDRP.s:25018  .debug_str:0000000000011337 .LASF2140
C:\Users\CYMR90~1\AppData\Local\Temp\cciNYDRP.s:24504  .debug_str:000000000000f2b2 .LASF2141
C:\Users\CYMR90~1\AppData\Local\Temp\cciNYDRP.s:28495  .debug_str:000000000001f45b .LASF2142
C:\Users\CYMR90~1\AppData\Local\Temp\cciNYDRP.s:29037  .debug_str:00000000000215c7 .LASF2143
C:\Users\CYMR90~1\AppData\Local\Temp\cciNYDRP.s:25294  .debug_str:0000000000012633 .LASF2144
C:\Users\CYMR90~1\AppData\Local\Temp\cciNYDRP.s:21526  .debug_str:00000000000032d6 .LASF2145
C:\Users\CYMR90~1\AppData\Local\Temp\cciNYDRP.s:20724  .debug_str:0000000000000171 .LASF2146
C:\Users\CYMR90~1\AppData\Local\Temp\cciNYDRP.s:21122  .debug_str:00000000000019c2 .LASF2147
C:\Users\CYMR90~1\AppData\Local\Temp\cciNYDRP.s:26523  .debug_str:00000000000175c6 .LASF2148
C:\Users\CYMR90~1\AppData\Local\Temp\cciNYDRP.s:30917  .debug_str:0000000000028dd4 .LASF2149
C:\Users\CYMR90~1\AppData\Local\Temp\cciNYDRP.s:30509  .debug_str:000000000002734d .LASF2150
C:\Users\CYMR90~1\AppData\Local\Temp\cciNYDRP.s:25564  .debug_str:000000000001383e .LASF2151
C:\Users\CYMR90~1\AppData\Local\Temp\cciNYDRP.s:24116  .debug_str:000000000000daea .LASF2152
C:\Users\CYMR90~1\AppData\Local\Temp\cciNYDRP.s:22132  .debug_str:00000000000059be .LASF2153
C:\Users\CYMR90~1\AppData\Local\Temp\cciNYDRP.s:26300  .debug_str:000000000001660c .LASF2154
C:\Users\CYMR90~1\AppData\Local\Temp\cciNYDRP.s:21056  .debug_str:000000000000155b .LASF2155
C:\Users\CYMR90~1\AppData\Local\Temp\cciNYDRP.s:21600  .debug_str:00000000000037c1 .LASF2156
C:\Users\CYMR90~1\AppData\Local\Temp\cciNYDRP.s:30473  .debug_str:0000000000027049 .LASF2157
C:\Users\CYMR90~1\AppData\Local\Temp\cciNYDRP.s:24956  .debug_str:0000000000010f9f .LASF2158
C:\Users\CYMR90~1\AppData\Local\Temp\cciNYDRP.s:26869  .debug_str:0000000000018ae1 .LASF2159
C:\Users\CYMR90~1\AppData\Local\Temp\cciNYDRP.s:30277  .debug_str:000000000002643e .LASF2160
C:\Users\CYMR90~1\AppData\Local\Temp\cciNYDRP.s:22928  .debug_str:0000000000008de1 .LASF2161
C:\Users\CYMR90~1\AppData\Local\Temp\cciNYDRP.s:31199  .debug_str:0000000000029eb5 .LASF2162
C:\Users\CYMR90~1\AppData\Local\Temp\cciNYDRP.s:31905  .debug_str:000000000002cc26 .LASF2163
C:\Users\CYMR90~1\AppData\Local\Temp\cciNYDRP.s:21634  .debug_str:00000000000039fd .LASF2164
C:\Users\CYMR90~1\AppData\Local\Temp\cciNYDRP.s:29543  .debug_str:000000000002336e .LASF2165
C:\Users\CYMR90~1\AppData\Local\Temp\cciNYDRP.s:26945  .debug_str:00000000000190f9 .LASF2166
C:\Users\CYMR90~1\AppData\Local\Temp\cciNYDRP.s:30507  .debug_str:0000000000027335 .LASF2167
C:\Users\CYMR90~1\AppData\Local\Temp\cciNYDRP.s:22784  .debug_str:0000000000008464 .LASF2168
C:\Users\CYMR90~1\AppData\Local\Temp\cciNYDRP.s:28041  .debug_str:000000000001d89b .LASF2169
C:\Users\CYMR90~1\AppData\Local\Temp\cciNYDRP.s:26248  .debug_str:00000000000162a4 .LASF2170
C:\Users\CYMR90~1\AppData\Local\Temp\cciNYDRP.s:24272  .debug_str:000000000000e474 .LASF2171
C:\Users\CYMR90~1\AppData\Local\Temp\cciNYDRP.s:24410  .debug_str:000000000000ece8 .LASF2172
C:\Users\CYMR90~1\AppData\Local\Temp\cciNYDRP.s:28499  .debug_str:000000000001f492 .LASF2173
C:\Users\CYMR90~1\AppData\Local\Temp\cciNYDRP.s:26188  .debug_str:0000000000015ec4 .LASF2174
C:\Users\CYMR90~1\AppData\Local\Temp\cciNYDRP.s:25160  .debug_str:0000000000011d82 .LASF2175
C:\Users\CYMR90~1\AppData\Local\Temp\cciNYDRP.s:28279  .debug_str:000000000001e790 .LASF2176
C:\Users\CYMR90~1\AppData\Local\Temp\cciNYDRP.s:23504  .debug_str:000000000000b1dd .LASF2177
C:\Users\CYMR90~1\AppData\Local\Temp\cciNYDRP.s:29185  .debug_str:0000000000021ecd .LASF2178
C:\Users\CYMR90~1\AppData\Local\Temp\cciNYDRP.s:24130  .debug_str:000000000000dbcd .LASF2179
C:\Users\CYMR90~1\AppData\Local\Temp\cciNYDRP.s:22626  .debug_str:000000000000791e .LASF2180
C:\Users\CYMR90~1\AppData\Local\Temp\cciNYDRP.s:30193  .debug_str:0000000000025f3e .LASF2181
C:\Users\CYMR90~1\AppData\Local\Temp\cciNYDRP.s:24302  .debug_str:000000000000e699 .LASF2182
C:\Users\CYMR90~1\AppData\Local\Temp\cciNYDRP.s:26222  .debug_str:0000000000016121 .LASF2183
C:\Users\CYMR90~1\AppData\Local\Temp\cciNYDRP.s:21754  .debug_str:00000000000041bc .LASF2184
C:\Users\CYMR90~1\AppData\Local\Temp\cciNYDRP.s:24588  .debug_str:000000000000f84b .LASF2185
C:\Users\CYMR90~1\AppData\Local\Temp\cciNYDRP.s:31459  .debug_str:000000000002ae7f .LASF2186
C:\Users\CYMR90~1\AppData\Local\Temp\cciNYDRP.s:28289  .debug_str:000000000001e830 .LASF2187
C:\Users\CYMR90~1\AppData\Local\Temp\cciNYDRP.s:23126  .debug_str:0000000000009a35 .LASF2188
C:\Users\CYMR90~1\AppData\Local\Temp\cciNYDRP.s:27281  .debug_str:000000000001a7e9 .LASF2189
C:\Users\CYMR90~1\AppData\Local\Temp\cciNYDRP.s:21692  .debug_str:0000000000003d45 .LASF2190
C:\Users\CYMR90~1\AppData\Local\Temp\cciNYDRP.s:23224  .debug_str:000000000000a02c .LASF2191
C:\Users\CYMR90~1\AppData\Local\Temp\cciNYDRP.s:28373  .debug_str:000000000001ecac .LASF2192
C:\Users\CYMR90~1\AppData\Local\Temp\cciNYDRP.s:21616  .debug_str:00000000000038b4 .LASF2193
C:\Users\CYMR90~1\AppData\Local\Temp\cciNYDRP.s:25046  .debug_str:0000000000011508 .LASF2194
C:\Users\CYMR90~1\AppData\Local\Temp\cciNYDRP.s:29745  .debug_str:0000000000024067 .LASF2195
C:\Users\CYMR90~1\AppData\Local\Temp\cciNYDRP.s:22574  .debug_str:000000000000759f .LASF2196
C:\Users\CYMR90~1\AppData\Local\Temp\cciNYDRP.s:25912  .debug_str:0000000000014dbc .LASF2197
C:\Users\CYMR90~1\AppData\Local\Temp\cciNYDRP.s:25144  .debug_str:0000000000011c61 .LASF2198
C:\Users\CYMR90~1\AppData\Local\Temp\cciNYDRP.s:28741  .debug_str:0000000000020359 .LASF2199
C:\Users\CYMR90~1\AppData\Local\Temp\cciNYDRP.s:23366  .debug_str:000000000000a8c2 .LASF2200
C:\Users\CYMR90~1\AppData\Local\Temp\cciNYDRP.s:29251  .debug_str:000000000002228f .LASF2201
C:\Users\CYMR90~1\AppData\Local\Temp\cciNYDRP.s:28575  .debug_str:000000000001f91c .LASF2202
C:\Users\CYMR90~1\AppData\Local\Temp\cciNYDRP.s:29759  .debug_str:000000000002418c .LASF2203
C:\Users\CYMR90~1\AppData\Local\Temp\cciNYDRP.s:30345  .debug_str:00000000000268a0 .LASF2204
C:\Users\CYMR90~1\AppData\Local\Temp\cciNYDRP.s:30177  .debug_str:0000000000025e13 .LASF2205
C:\Users\CYMR90~1\AppData\Local\Temp\cciNYDRP.s:29811  .debug_str:00000000000244db .LASF2206
C:\Users\CYMR90~1\AppData\Local\Temp\cciNYDRP.s:28871  .debug_str:0000000000020bc1 .LASF2207
C:\Users\CYMR90~1\AppData\Local\Temp\cciNYDRP.s:24764  .debug_str:000000000001031f .LASF2208
C:\Users\CYMR90~1\AppData\Local\Temp\cciNYDRP.s:26913  .debug_str:0000000000018e21 .LASF2209
C:\Users\CYMR90~1\AppData\Local\Temp\cciNYDRP.s:28721  .debug_str:00000000000201de .LASF2210
C:\Users\CYMR90~1\AppData\Local\Temp\cciNYDRP.s:23638  .debug_str:000000000000bb65 .LASF2211
C:\Users\CYMR90~1\AppData\Local\Temp\cciNYDRP.s:22350  .debug_str:0000000000006715 .LASF2212
C:\Users\CYMR90~1\AppData\Local\Temp\cciNYDRP.s:31647  .debug_str:000000000002baf2 .LASF2213
C:\Users\CYMR90~1\AppData\Local\Temp\cciNYDRP.s:31725  .debug_str:000000000002c064 .LASF2214
C:\Users\CYMR90~1\AppData\Local\Temp\cciNYDRP.s:25654  .debug_str:0000000000013da8 .LASF2215
C:\Users\CYMR90~1\AppData\Local\Temp\cciNYDRP.s:23328  .debug_str:000000000000a66e .LASF2216
C:\Users\CYMR90~1\AppData\Local\Temp\cciNYDRP.s:27519  .debug_str:000000000001b6ef .LASF2217
C:\Users\CYMR90~1\AppData\Local\Temp\cciNYDRP.s:26839  .debug_str:0000000000018921 .LASF2218
C:\Users\CYMR90~1\AppData\Local\Temp\cciNYDRP.s:31491  .debug_str:000000000002b056 .LASF2219
C:\Users\CYMR90~1\AppData\Local\Temp\cciNYDRP.s:28065  .debug_str:000000000001d9e7 .LASF2220
C:\Users\CYMR90~1\AppData\Local\Temp\cciNYDRP.s:26925  .debug_str:0000000000018ebf .LASF2221
C:\Users\CYMR90~1\AppData\Local\Temp\cciNYDRP.s:25330  .debug_str:000000000001288e .LASF2222
C:\Users\CYMR90~1\AppData\Local\Temp\cciNYDRP.s:29649  .debug_str:0000000000023a24 .LASF2223
C:\Users\CYMR90~1\AppData\Local\Temp\cciNYDRP.s:22284  .debug_str:00000000000062eb .LASF2224
C:\Users\CYMR90~1\AppData\Local\Temp\cciNYDRP.s:27325  .debug_str:000000000001aa8c .LASF2225
C:\Users\CYMR90~1\AppData\Local\Temp\cciNYDRP.s:21824  .debug_str:0000000000004680 .LASF2226
C:\Users\CYMR90~1\AppData\Local\Temp\cciNYDRP.s:27241  .debug_str:000000000001a4bd .LASF2227
C:\Users\CYMR90~1\AppData\Local\Temp\cciNYDRP.s:26389  .debug_str:0000000000016de7 .LASF2228
C:\Users\CYMR90~1\AppData\Local\Temp\cciNYDRP.s:28119  .debug_str:000000000001ddbd .LASF2229
C:\Users\CYMR90~1\AppData\Local\Temp\cciNYDRP.s:21796  .debug_str:0000000000004486 .LASF2230
C:\Users\CYMR90~1\AppData\Local\Temp\cciNYDRP.s:28347  .debug_str:000000000001eb23 .LASF2231
C:\Users\CYMR90~1\AppData\Local\Temp\cciNYDRP.s:21108  .debug_str:000000000000191f .LASF2232
C:\Users\CYMR90~1\AppData\Local\Temp\cciNYDRP.s:27093  .debug_str:0000000000019aa0 .LASF2233
C:\Users\CYMR90~1\AppData\Local\Temp\cciNYDRP.s:23812  .debug_str:000000000000c6f1 .LASF2234
C:\Users\CYMR90~1\AppData\Local\Temp\cciNYDRP.s:22022  .debug_str:000000000000531f .LASF2235
C:\Users\CYMR90~1\AppData\Local\Temp\cciNYDRP.s:31679  .debug_str:000000000002bd0d .LASF2236
C:\Users\CYMR90~1\AppData\Local\Temp\cciNYDRP.s:24276  .debug_str:000000000000e4af .LASF2237
C:\Users\CYMR90~1\AppData\Local\Temp\cciNYDRP.s:28991  .debug_str:0000000000021313 .LASF2238
C:\Users\CYMR90~1\AppData\Local\Temp\cciNYDRP.s:28021  .debug_str:000000000001d750 .LASF2239
C:\Users\CYMR90~1\AppData\Local\Temp\cciNYDRP.s:27953  .debug_str:000000000001d307 .LASF2240
C:\Users\CYMR90~1\AppData\Local\Temp\cciNYDRP.s:21166  .debug_str:0000000000001c71 .LASF2241
C:\Users\CYMR90~1\AppData\Local\Temp\cciNYDRP.s:29009  .debug_str:0000000000021431 .LASF2242
C:\Users\CYMR90~1\AppData\Local\Temp\cciNYDRP.s:30553  .debug_str:00000000000275a9 .LASF2243
C:\Users\CYMR90~1\AppData\Local\Temp\cciNYDRP.s:25182  .debug_str:0000000000011eac .LASF2244
C:\Users\CYMR90~1\AppData\Local\Temp\cciNYDRP.s:26399  .debug_str:0000000000016e83 .LASF2245
C:\Users\CYMR90~1\AppData\Local\Temp\cciNYDRP.s:23318  .debug_str:000000000000a593 .LASF2246
C:\Users\CYMR90~1\AppData\Local\Temp\cciNYDRP.s:25976  .debug_str:00000000000151db .LASF2247
C:\Users\CYMR90~1\AppData\Local\Temp\cciNYDRP.s:21528  .debug_str:00000000000032fd .LASF2248
C:\Users\CYMR90~1\AppData\Local\Temp\cciNYDRP.s:28367  .debug_str:000000000001ec52 .LASF2249
C:\Users\CYMR90~1\AppData\Local\Temp\cciNYDRP.s:27495  .debug_str:000000000001b551 .LASF2250
C:\Users\CYMR90~1\AppData\Local\Temp\cciNYDRP.s:26557  .debug_str:00000000000177e5 .LASF2251
C:\Users\CYMR90~1\AppData\Local\Temp\cciNYDRP.s:29767  .debug_str:0000000000024221 .LASF2252
C:\Users\CYMR90~1\AppData\Local\Temp\cciNYDRP.s:25336  .debug_str:00000000000128eb .LASF2253
C:\Users\CYMR90~1\AppData\Local\Temp\cciNYDRP.s:24080  .debug_str:000000000000d8fc .LASF2254
C:\Users\CYMR90~1\AppData\Local\Temp\cciNYDRP.s:22838  .debug_str:00000000000087d2 .LASF2255
C:\Users\CYMR90~1\AppData\Local\Temp\cciNYDRP.s:24742  .debug_str:00000000000101de .LASF2256
C:\Users\CYMR90~1\AppData\Local\Temp\cciNYDRP.s:27765  .debug_str:000000000001c58a .LASF2257
C:\Users\CYMR90~1\AppData\Local\Temp\cciNYDRP.s:25036  .debug_str:0000000000011466 .LASF2258
C:\Users\CYMR90~1\AppData\Local\Temp\cciNYDRP.s:25260  .debug_str:00000000000123dd .LASF2259
C:\Users\CYMR90~1\AppData\Local\Temp\cciNYDRP.s:24940  .debug_str:0000000000010e9f .LASF2260
C:\Users\CYMR90~1\AppData\Local\Temp\cciNYDRP.s:26024  .debug_str:00000000000154a6 .LASF2261
C:\Users\CYMR90~1\AppData\Local\Temp\cciNYDRP.s:21224  .debug_str:0000000000001f8e .LASF2262
C:\Users\CYMR90~1\AppData\Local\Temp\cciNYDRP.s:24322  .debug_str:000000000000e7bf .LASF2263
C:\Users\CYMR90~1\AppData\Local\Temp\cciNYDRP.s:28139  .debug_str:000000000001df08 .LASF2264
C:\Users\CYMR90~1\AppData\Local\Temp\cciNYDRP.s:27199  .debug_str:000000000001a0bd .LASF2265
C:\Users\CYMR90~1\AppData\Local\Temp\cciNYDRP.s:24164  .debug_str:000000000000ddfd .LASF2266
C:\Users\CYMR90~1\AppData\Local\Temp\cciNYDRP.s:23518  .debug_str:000000000000b346 .LASF2267
C:\Users\CYMR90~1\AppData\Local\Temp\cciNYDRP.s:26565  .debug_str:000000000001789f .LASF2268
C:\Users\CYMR90~1\AppData\Local\Temp\cciNYDRP.s:22922  .debug_str:0000000000008d7f .LASF2269
C:\Users\CYMR90~1\AppData\Local\Temp\cciNYDRP.s:21842  .debug_str:000000000000482b .LASF2270
C:\Users\CYMR90~1\AppData\Local\Temp\cciNYDRP.s:27649  .debug_str:000000000001beb6 .LASF2271
C:\Users\CYMR90~1\AppData\Local\Temp\cciNYDRP.s:28043  .debug_str:000000000001d8b3 .LASF2272
C:\Users\CYMR90~1\AppData\Local\Temp\cciNYDRP.s:25866  .debug_str:0000000000014abf .LASF2273
C:\Users\CYMR90~1\AppData\Local\Temp\cciNYDRP.s:30759  .debug_str:00000000000283e8 .LASF2274
C:\Users\CYMR90~1\AppData\Local\Temp\cciNYDRP.s:27401  .debug_str:000000000001afb9 .LASF2275
C:\Users\CYMR90~1\AppData\Local\Temp\cciNYDRP.s:24086  .debug_str:000000000000d967 .LASF2276
C:\Users\CYMR90~1\AppData\Local\Temp\cciNYDRP.s:21628  .debug_str:0000000000003997 .LASF2277
C:\Users\CYMR90~1\AppData\Local\Temp\cciNYDRP.s:20912  .debug_str:0000000000000c8e .LASF2278
C:\Users\CYMR90~1\AppData\Local\Temp\cciNYDRP.s:30613  .debug_str:0000000000027942 .LASF2279
C:\Users\CYMR90~1\AppData\Local\Temp\cciNYDRP.s:28995  .debug_str:0000000000021351 .LASF2280
C:\Users\CYMR90~1\AppData\Local\Temp\cciNYDRP.s:30549  .debug_str:000000000002757c .LASF2281
C:\Users\CYMR90~1\AppData\Local\Temp\cciNYDRP.s:23028  .debug_str:000000000000937f .LASF2282
C:\Users\CYMR90~1\AppData\Local\Temp\cciNYDRP.s:24352  .debug_str:000000000000e9a4 .LASF2283
C:\Users\CYMR90~1\AppData\Local\Temp\cciNYDRP.s:22386  .debug_str:0000000000006957 .LASF2284
C:\Users\CYMR90~1\AppData\Local\Temp\cciNYDRP.s:24760  .debug_str:00000000000102e6 .LASF2285
C:\Users\CYMR90~1\AppData\Local\Temp\cciNYDRP.s:31659  .debug_str:000000000002bbb6 .LASF2286
C:\Users\CYMR90~1\AppData\Local\Temp\cciNYDRP.s:30321  .debug_str:000000000002673c .LASF2287
C:\Users\CYMR90~1\AppData\Local\Temp\cciNYDRP.s:20850  .debug_str:000000000000088f .LASF2288
C:\Users\CYMR90~1\AppData\Local\Temp\cciNYDRP.s:25156  .debug_str:0000000000011d2c .LASF2289
C:\Users\CYMR90~1\AppData\Local\Temp\cciNYDRP.s:28313  .debug_str:000000000001e96c .LASF2290
C:\Users\CYMR90~1\AppData\Local\Temp\cciNYDRP.s:31601  .debug_str:000000000002b807 .LASF2291
C:\Users\CYMR90~1\AppData\Local\Temp\cciNYDRP.s:23478  .debug_str:000000000000b088 .LASF2292
C:\Users\CYMR90~1\AppData\Local\Temp\cciNYDRP.s:22430  .debug_str:0000000000006c41 .LASF2293
C:\Users\CYMR90~1\AppData\Local\Temp\cciNYDRP.s:29877  .debug_str:0000000000024994 .LASF2294
C:\Users\CYMR90~1\AppData\Local\Temp\cciNYDRP.s:29625  .debug_str:00000000000238d1 .LASF2295
C:\Users\CYMR90~1\AppData\Local\Temp\cciNYDRP.s:24932  .debug_str:0000000000010e57 .LASF2296
C:\Users\CYMR90~1\AppData\Local\Temp\cciNYDRP.s:28087  .debug_str:000000000001db49 .LASF2297
C:\Users\CYMR90~1\AppData\Local\Temp\cciNYDRP.s:31349  .debug_str:000000000002a7ee .LASF2298
C:\Users\CYMR90~1\AppData\Local\Temp\cciNYDRP.s:21140  .debug_str:0000000000001ae9 .LASF2299
C:\Users\CYMR90~1\AppData\Local\Temp\cciNYDRP.s:25836  .debug_str:00000000000148e6 .LASF2300
C:\Users\CYMR90~1\AppData\Local\Temp\cciNYDRP.s:30551  .debug_str:000000000002758e .LASF2301
C:\Users\CYMR90~1\AppData\Local\Temp\cciNYDRP.s:27459  .debug_str:000000000001b345 .LASF2302
C:\Users\CYMR90~1\AppData\Local\Temp\cciNYDRP.s:28611  .debug_str:000000000001fb6a .LASF2303
C:\Users\CYMR90~1\AppData\Local\Temp\cciNYDRP.s:21998  .debug_str:0000000000005197 .LASF2304
C:\Users\CYMR90~1\AppData\Local\Temp\cciNYDRP.s:26725  .debug_str:0000000000018207 .LASF2305
C:\Users\CYMR90~1\AppData\Local\Temp\cciNYDRP.s:31447  .debug_str:000000000002adc1 .LASF2306
C:\Users\CYMR90~1\AppData\Local\Temp\cciNYDRP.s:27571  .debug_str:000000000001b9c3 .LASF2307
C:\Users\CYMR90~1\AppData\Local\Temp\cciNYDRP.s:30607  .debug_str:00000000000278dd .LASF2308
C:\Users\CYMR90~1\AppData\Local\Temp\cciNYDRP.s:24006  .debug_str:000000000000d4aa .LASF2309
C:\Users\CYMR90~1\AppData\Local\Temp\cciNYDRP.s:28667  .debug_str:000000000001fee1 .LASF2310
C:\Users\CYMR90~1\AppData\Local\Temp\cciNYDRP.s:25154  .debug_str:0000000000011d11 .LASF2311
C:\Users\CYMR90~1\AppData\Local\Temp\cciNYDRP.s:26779  .debug_str:000000000001854e .LASF2312
C:\Users\CYMR90~1\AppData\Local\Temp\cciNYDRP.s:31501  .debug_str:000000000002b134 .LASF2313
C:\Users\CYMR90~1\AppData\Local\Temp\cciNYDRP.s:31383  .debug_str:000000000002a9d3 .LASF2314
C:\Users\CYMR90~1\AppData\Local\Temp\cciNYDRP.s:23270  .debug_str:000000000000a304 .LASF2315
C:\Users\CYMR90~1\AppData\Local\Temp\cciNYDRP.s:26467  .debug_str:0000000000017287 .LASF2316
C:\Users\CYMR90~1\AppData\Local\Temp\cciNYDRP.s:29671  .debug_str:0000000000023b5c .LASF2317
C:\Users\CYMR90~1\AppData\Local\Temp\cciNYDRP.s:21650  .debug_str:0000000000003ad9 .LASF2318
C:\Users\CYMR90~1\AppData\Local\Temp\cciNYDRP.s:24810  .debug_str:00000000000106a5 .LASF2319
C:\Users\CYMR90~1\AppData\Local\Temp\cciNYDRP.s:27979  .debug_str:000000000001d4bc .LASF2320
C:\Users\CYMR90~1\AppData\Local\Temp\cciNYDRP.s:31231  .debug_str:000000000002a0ab .LASF2321
C:\Users\CYMR90~1\AppData\Local\Temp\cciNYDRP.s:25594  .debug_str:0000000000013a13 .LASF2322
C:\Users\CYMR90~1\AppData\Local\Temp\cciNYDRP.s:23984  .debug_str:000000000000d33e .LASF2323
C:\Users\CYMR90~1\AppData\Local\Temp\cciNYDRP.s:27351  .debug_str:000000000001ac25 .LASF2324
C:\Users\CYMR90~1\AppData\Local\Temp\cciNYDRP.s:20740  .debug_str:0000000000000263 .LASF2325
C:\Users\CYMR90~1\AppData\Local\Temp\cciNYDRP.s:27377  .debug_str:000000000001adcf .LASF2326
C:\Users\CYMR90~1\AppData\Local\Temp\cciNYDRP.s:30093  .debug_str:0000000000025939 .LASF2327
C:\Users\CYMR90~1\AppData\Local\Temp\cciNYDRP.s:23512  .debug_str:000000000000b27e .LASF2328
C:\Users\CYMR90~1\AppData\Local\Temp\cciNYDRP.s:28155  .debug_str:000000000001dff9 .LASF2329
C:\Users\CYMR90~1\AppData\Local\Temp\cciNYDRP.s:23840  .debug_str:000000000000c9b8 .LASF2330
C:\Users\CYMR90~1\AppData\Local\Temp\cciNYDRP.s:26264  .debug_str:0000000000016376 .LASF2331
C:\Users\CYMR90~1\AppData\Local\Temp\cciNYDRP.s:28369  .debug_str:000000000001ec81 .LASF2332
C:\Users\CYMR90~1\AppData\Local\Temp\cciNYDRP.s:25470  .debug_str:00000000000131c1 .LASF2333
C:\Users\CYMR90~1\AppData\Local\Temp\cciNYDRP.s:30143  .debug_str:0000000000025c1f .LASF2334
C:\Users\CYMR90~1\AppData\Local\Temp\cciNYDRP.s:23556  .debug_str:000000000000b5d7 .LASF2335
C:\Users\CYMR90~1\AppData\Local\Temp\cciNYDRP.s:28201  .debug_str:000000000001e2c3 .LASF2336
C:\Users\CYMR90~1\AppData\Local\Temp\cciNYDRP.s:21618  .debug_str:00000000000038f2 .LASF2337
C:\Users\CYMR90~1\AppData\Local\Temp\cciNYDRP.s:26322  .debug_str:0000000000016746 .LASF2338
C:\Users\CYMR90~1\AppData\Local\Temp\cciNYDRP.s:23394  .debug_str:000000000000aa96 .LASF2339
C:\Users\CYMR90~1\AppData\Local\Temp\cciNYDRP.s:26495  .debug_str:0000000000017403 .LASF2340
C:\Users\CYMR90~1\AppData\Local\Temp\cciNYDRP.s:29711  .debug_str:0000000000023dcf .LASF2341
C:\Users\CYMR90~1\AppData\Local\Temp\cciNYDRP.s:21602  .debug_str:00000000000037d7 .LASF2342
C:\Users\CYMR90~1\AppData\Local\Temp\cciNYDRP.s:24844  .debug_str:0000000000010896 .LASF2343
C:\Users\CYMR90~1\AppData\Local\Temp\cciNYDRP.s:25086  .debug_str:0000000000011868 .LASF2344
C:\Users\CYMR90~1\AppData\Local\Temp\cciNYDRP.s:31271  .debug_str:000000000002a2d5 .LASF2345
C:\Users\CYMR90~1\AppData\Local\Temp\cciNYDRP.s:21802  .debug_str:00000000000044f7 .LASF2346
C:\Users\CYMR90~1\AppData\Local\Temp\cciNYDRP.s:30519  .debug_str:00000000000273f9 .LASF2347
C:\Users\CYMR90~1\AppData\Local\Temp\cciNYDRP.s:29469  .debug_str:0000000000022f57 .LASF2348
C:\Users\CYMR90~1\AppData\Local\Temp\cciNYDRP.s:30831  .debug_str:00000000000288a9 .LASF2349
C:\Users\CYMR90~1\AppData\Local\Temp\cciNYDRP.s:24226  .debug_str:000000000000e1af .LASF2350
C:\Users\CYMR90~1\AppData\Local\Temp\cciNYDRP.s:28893  .debug_str:0000000000020cfa .LASF2351
C:\Users\CYMR90~1\AppData\Local\Temp\cciNYDRP.s:22274  .debug_str:0000000000006268 .LASF2352
C:\Users\CYMR90~1\AppData\Local\Temp\cciNYDRP.s:27011  .debug_str:00000000000194e8 .LASF2353
C:\Users\CYMR90~1\AppData\Local\Temp\cciNYDRP.s:31727  .debug_str:000000000002c08c .LASF2354
C:\Users\CYMR90~1\AppData\Local\Temp\cciNYDRP.s:25094  .debug_str:00000000000118d5 .LASF2355
C:\Users\CYMR90~1\AppData\Local\Temp\cciNYDRP.s:29777  .debug_str:0000000000024304 .LASF2356
C:\Users\CYMR90~1\AppData\Local\Temp\cciNYDRP.s:23696  .debug_str:000000000000bf5d .LASF2357
C:\Users\CYMR90~1\AppData\Local\Temp\cciNYDRP.s:28945  .debug_str:0000000000020fb5 .LASF2358
C:\Users\CYMR90~1\AppData\Local\Temp\cciNYDRP.s:22326  .debug_str:000000000000655c .LASF2359
C:\Users\CYMR90~1\AppData\Local\Temp\cciNYDRP.s:27057  .debug_str:0000000000019851 .LASF2360
C:\Users\CYMR90~1\AppData\Local\Temp\cciNYDRP.s:31779  .debug_str:000000000002c458 .LASF2361
C:\Users\CYMR90~1\AppData\Local\Temp\cciNYDRP.s:25150  .debug_str:0000000000011cc3 .LASF2362
C:\Users\CYMR90~1\AppData\Local\Temp\cciNYDRP.s:29827  .debug_str:0000000000024609 .LASF2363
C:\Users\CYMR90~1\AppData\Local\Temp\cciNYDRP.s:28633  .debug_str:000000000001fcc7 .LASF2364
C:\Users\CYMR90~1\AppData\Local\Temp\cciNYDRP.s:29939  .debug_str:0000000000024da0 .LASF2365
C:\Users\CYMR90~1\AppData\Local\Temp\cciNYDRP.s:28277  .debug_str:000000000001e779 .LASF2366
C:\Users\CYMR90~1\AppData\Local\Temp\cciNYDRP.s:26911  .debug_str:0000000000018e0a .LASF2367
C:\Users\CYMR90~1\AppData\Local\Temp\cciNYDRP.s:30095  .debug_str:0000000000025952 .LASF2368
C:\Users\CYMR90~1\AppData\Local\Temp\cciNYDRP.s:23456  .debug_str:000000000000af55 .LASF2369
C:\Users\CYMR90~1\AppData\Local\Temp\cciNYDRP.s:25226  .debug_str:00000000000121c8 .LASF2370
C:\Users\CYMR90~1\AppData\Local\Temp\cciNYDRP.s:28377  .debug_str:000000000001ecfd .LASF2371
C:\Users\CYMR90~1\AppData\Local\Temp\cciNYDRP.s:29867  .debug_str:000000000002490a .LASF2372
C:\Users\CYMR90~1\AppData\Local\Temp\cciNYDRP.s:23460  .debug_str:000000000000af92 .LASF2373
C:\Users\CYMR90~1\AppData\Local\Temp\cciNYDRP.s:29509  .debug_str:0000000000023163 .LASF2374
C:\Users\CYMR90~1\AppData\Local\Temp\cciNYDRP.s:31597  .debug_str:000000000002b777 .LASF2375
C:\Users\CYMR90~1\AppData\Local\Temp\cciNYDRP.s:27863  .debug_str:000000000001cd14 .LASF2376
C:\Users\CYMR90~1\AppData\Local\Temp\cciNYDRP.s:21264  .debug_str:00000000000021c6 .LASF2377
C:\Users\CYMR90~1\AppData\Local\Temp\cciNYDRP.s:25956  .debug_str:000000000001509d .LASF2378
C:\Users\CYMR90~1\AppData\Local\Temp\cciNYDRP.s:30675  .debug_str:0000000000027da6 .LASF2379
C:\Users\CYMR90~1\AppData\Local\Temp\cciNYDRP.s:24068  .debug_str:000000000000d847 .LASF2380
C:\Users\CYMR90~1\AppData\Local\Temp\cciNYDRP.s:28737  .debug_str:0000000000020311 .LASF2381
C:\Users\CYMR90~1\AppData\Local\Temp\cciNYDRP.s:26853  .debug_str:00000000000189ed .LASF2382
C:\Users\CYMR90~1\AppData\Local\Temp\cciNYDRP.s:21680  .debug_str:0000000000003cc9 .LASF2383
C:\Users\CYMR90~1\AppData\Local\Temp\cciNYDRP.s:21320  .debug_str:000000000000255a .LASF2384
C:\Users\CYMR90~1\AppData\Local\Temp\cciNYDRP.s:25520  .debug_str:0000000000013596 .LASF2385
C:\Users\CYMR90~1\AppData\Local\Temp\cciNYDRP.s:30729  .debug_str:0000000000028209 .LASF2386
C:\Users\CYMR90~1\AppData\Local\Temp\cciNYDRP.s:24124  .debug_str:000000000000db5b .LASF2387
C:\Users\CYMR90~1\AppData\Local\Temp\cciNYDRP.s:28791  .debug_str:00000000000206ae .LASF2388
C:\Users\CYMR90~1\AppData\Local\Temp\cciNYDRP.s:30959  .debug_str:000000000002905a .LASF2389
C:\Users\CYMR90~1\AppData\Local\Temp\cciNYDRP.s:21462  .debug_str:0000000000002e77 .LASF2390
C:\Users\CYMR90~1\AppData\Local\Temp\cciNYDRP.s:26036  .debug_str:0000000000015531 .LASF2391
C:\Users\CYMR90~1\AppData\Local\Temp\cciNYDRP.s:30715  .debug_str:000000000002809d .LASF2392
C:\Users\CYMR90~1\AppData\Local\Temp\cciNYDRP.s:29059  .debug_str:0000000000021737 .LASF2393
C:\Users\CYMR90~1\AppData\Local\Temp\cciNYDRP.s:27463  .debug_str:000000000001b386 .LASF2394
C:\Users\CYMR90~1\AppData\Local\Temp\cciNYDRP.s:27577  .debug_str:000000000001ba0e .LASF2395
C:\Users\CYMR90~1\AppData\Local\Temp\cciNYDRP.s:30803  .debug_str:0000000000028713 .LASF2396
C:\Users\CYMR90~1\AppData\Local\Temp\cciNYDRP.s:22680  .debug_str:0000000000007d15 .LASF2397
C:\Users\CYMR90~1\AppData\Local\Temp\cciNYDRP.s:25808  .debug_str:000000000001474d .LASF2398
C:\Users\CYMR90~1\AppData\Local\Temp\cciNYDRP.s:25524  .debug_str:00000000000135c3 .LASF2399
C:\Users\CYMR90~1\AppData\Local\Temp\cciNYDRP.s:30205  .debug_str:0000000000025ff6 .LASF2400
C:\Users\CYMR90~1\AppData\Local\Temp\cciNYDRP.s:23608  .debug_str:000000000000b90c .LASF2401
C:\Users\CYMR90~1\AppData\Local\Temp\cciNYDRP.s:28253  .debug_str:000000000001e5ac .LASF2402
C:\Users\CYMR90~1\AppData\Local\Temp\cciNYDRP.s:21670  .debug_str:0000000000003c36 .LASF2403
C:\Users\CYMR90~1\AppData\Local\Temp\cciNYDRP.s:26385  .debug_str:0000000000016da2 .LASF2404
C:\Users\CYMR90~1\AppData\Local\Temp\cciNYDRP.s:31099  .debug_str:00000000000298d5 .LASF2405
C:\Users\CYMR90~1\AppData\Local\Temp\cciNYDRP.s:24488  .debug_str:000000000000f18f .LASF2406
C:\Users\CYMR90~1\AppData\Local\Temp\cciNYDRP.s:22540  .debug_str:0000000000007370 .LASF2407
C:\Users\CYMR90~1\AppData\Local\Temp\cciNYDRP.s:23660  .debug_str:000000000000bd0c .LASF2408
C:\Users\CYMR90~1\AppData\Local\Temp\cciNYDRP.s:28303  .debug_str:000000000001e8f7 .LASF2409
C:\Users\CYMR90~1\AppData\Local\Temp\cciNYDRP.s:21716  .debug_str:0000000000003f0f .LASF2410
C:\Users\CYMR90~1\AppData\Local\Temp\cciNYDRP.s:21110  .debug_str:0000000000001940 .LASF2411
C:\Users\CYMR90~1\AppData\Local\Temp\cciNYDRP.s:31153  .debug_str:0000000000029c19 .LASF2412
C:\Users\CYMR90~1\AppData\Local\Temp\cciNYDRP.s:24550  .debug_str:000000000000f555 .LASF2413
C:\Users\CYMR90~1\AppData\Local\Temp\cciNYDRP.s:24266  .debug_str:000000000000e412 .LASF2414
C:\Users\CYMR90~1\AppData\Local\Temp\cciNYDRP.s:27473  .debug_str:000000000001b434 .LASF2415
C:\Users\CYMR90~1\AppData\Local\Temp\cciNYDRP.s:30685  .debug_str:0000000000027e4d .LASF2416
C:\Users\CYMR90~1\AppData\Local\Temp\cciNYDRP.s:22558  .debug_str:00000000000074a5 .LASF2417
C:\Users\CYMR90~1\AppData\Local\Temp\cciNYDRP.s:25690  .debug_str:0000000000013fca .LASF2418
C:\Users\CYMR90~1\AppData\Local\Temp\cciNYDRP.s:28891  .debug_str:0000000000020ce7 .LASF2419
C:\Users\CYMR90~1\AppData\Local\Temp\cciNYDRP.s:31085  .debug_str:0000000000029812 .LASF2420
C:\Users\CYMR90~1\AppData\Local\Temp\cciNYDRP.s:24034  .debug_str:000000000000d65d .LASF2421
C:\Users\CYMR90~1\AppData\Local\Temp\cciNYDRP.s:27255  .debug_str:000000000001a596 .LASF2422
C:\Users\CYMR90~1\AppData\Local\Temp\cciNYDRP.s:30441  .debug_str:0000000000026e97 .LASF2423
C:\Users\CYMR90~1\AppData\Local\Temp\cciNYDRP.s:30771  .debug_str:00000000000284bb .LASF2424
C:\Users\CYMR90~1\AppData\Local\Temp\cciNYDRP.s:24166  .debug_str:000000000000de1d .LASF2425
C:\Users\CYMR90~1\AppData\Local\Temp\cciNYDRP.s:28833  .debug_str:0000000000020940 .LASF2426
C:\Users\CYMR90~1\AppData\Local\Temp\cciNYDRP.s:22204  .debug_str:0000000000005df4 .LASF2427
C:\Users\CYMR90~1\AppData\Local\Temp\cciNYDRP.s:26951  .debug_str:0000000000019160 .LASF2428
C:\Users\CYMR90~1\AppData\Local\Temp\cciNYDRP.s:27717  .debug_str:000000000001c2f6 .LASF2429
C:\Users\CYMR90~1\AppData\Local\Temp\cciNYDRP.s:25034  .debug_str:0000000000011451 .LASF2430
C:\Users\CYMR90~1\AppData\Local\Temp\cciNYDRP.s:29721  .debug_str:0000000000023e36 .LASF2431
C:\Users\CYMR90~1\AppData\Local\Temp\cciNYDRP.s:27803  .debug_str:000000000001c8b3 .LASF2432
C:\Users\CYMR90~1\AppData\Local\Temp\cciNYDRP.s:28979  .debug_str:00000000000211b8 .LASF2433
C:\Users\CYMR90~1\AppData\Local\Temp\cciNYDRP.s:22356  .debug_str:0000000000006774 .LASF2434
C:\Users\CYMR90~1\AppData\Local\Temp\cciNYDRP.s:27083  .debug_str:0000000000019a08 .LASF2435
C:\Users\CYMR90~1\AppData\Local\Temp\cciNYDRP.s:31807  .debug_str:000000000002c603 .LASF2436
C:\Users\CYMR90~1\AppData\Local\Temp\cciNYDRP.s:25174  .debug_str:0000000000011e31 .LASF2437
C:\Users\CYMR90~1\AppData\Local\Temp\cciNYDRP.s:29849  .debug_str:0000000000024764 .LASF2438
C:\Users\CYMR90~1\AppData\Local\Temp\cciNYDRP.s:25372  .debug_str:0000000000012b3f .LASF2439
C:\Users\CYMR90~1\AppData\Local\Temp\cciNYDRP.s:21552  .debug_str:0000000000003494 .LASF2440
C:\Users\CYMR90~1\AppData\Local\Temp\cciNYDRP.s:26749  .debug_str:0000000000018375 .LASF2441
C:\Users\CYMR90~1\AppData\Local\Temp\cciNYDRP.s:23100  .debug_str:0000000000009882 .LASF2442
C:\Users\CYMR90~1\AppData\Local\Temp\cciNYDRP.s:21878  .debug_str:0000000000004a58 .LASF2443
C:\Users\CYMR90~1\AppData\Local\Temp\cciNYDRP.s:30163  .debug_str:0000000000025d4c .LASF2444
C:\Users\CYMR90~1\AppData\Local\Temp\cciNYDRP.s:26164  .debug_str:0000000000015d14 .LASF2445
C:\Users\CYMR90~1\AppData\Local\Temp\cciNYDRP.s:25926  .debug_str:0000000000014edb .LASF2446
C:\Users\CYMR90~1\AppData\Local\Temp\cciNYDRP.s:26306  .debug_str:000000000001664f .LASF2447
C:\Users\CYMR90~1\AppData\Local\Temp\cciNYDRP.s:23164  .debug_str:0000000000009c62 .LASF2448
C:\Users\CYMR90~1\AppData\Local\Temp\cciNYDRP.s:22404  .debug_str:0000000000006a72 .LASF2449
C:\Users\CYMR90~1\AppData\Local\Temp\cciNYDRP.s:30909  .debug_str:0000000000028d25 .LASF2450
C:\Users\CYMR90~1\AppData\Local\Temp\cciNYDRP.s:20814  .debug_str:000000000000066b .LASF2451
C:\Users\CYMR90~1\AppData\Local\Temp\cciNYDRP.s:22578  .debug_str:00000000000075e7 .LASF2452
C:\Users\CYMR90~1\AppData\Local\Temp\cciNYDRP.s:21596  .debug_str:0000000000003784 .LASF2453
C:\Users\CYMR90~1\AppData\Local\Temp\cciNYDRP.s:30057  .debug_str:000000000002564d .LASF2454
C:\Users\CYMR90~1\AppData\Local\Temp\cciNYDRP.s:25176  .debug_str:0000000000011e46 .LASF2455
C:\Users\CYMR90~1\AppData\Local\Temp\cciNYDRP.s:23946  .debug_str:000000000000d033 .LASF2456
C:\Users\CYMR90~1\AppData\Local\Temp\cciNYDRP.s:28569  .debug_str:000000000001f8b9 .LASF2457
C:\Users\CYMR90~1\AppData\Local\Temp\cciNYDRP.s:27685  .debug_str:000000000001c11f .LASF2458
C:\Users\CYMR90~1\AppData\Local\Temp\cciNYDRP.s:21642  .debug_str:0000000000003a5a .LASF2459
C:\Users\CYMR90~1\AppData\Local\Temp\cciNYDRP.s:30213  .debug_str:0000000000026086 .LASF2460
C:\Users\CYMR90~1\AppData\Local\Temp\cciNYDRP.s:23922  .debug_str:000000000000cec0 .LASF2461
C:\Users\CYMR90~1\AppData\Local\Temp\cciNYDRP.s:23006  .debug_str:0000000000009237 .LASF2462
C:\Users\CYMR90~1\AppData\Local\Temp\cciNYDRP.s:21972  .debug_str:0000000000004fee .LASF2463
C:\Users\CYMR90~1\AppData\Local\Temp\cciNYDRP.s:30559  .debug_str:000000000002760e .LASF2464
C:\Users\CYMR90~1\AppData\Local\Temp\cciNYDRP.s:30859  .debug_str:0000000000028a79 .LASF2465
C:\Users\CYMR90~1\AppData\Local\Temp\cciNYDRP.s:25032  .debug_str:000000000001142f .LASF2466
C:\Users\CYMR90~1\AppData\Local\Temp\cciNYDRP.s:28929  .debug_str:0000000000020eed .LASF2467
C:\Users\CYMR90~1\AppData\Local\Temp\cciNYDRP.s:26080  .debug_str:00000000000157b0 .LASF2468
C:\Users\CYMR90~1\AppData\Local\Temp\cciNYDRP.s:26649  .debug_str:0000000000017daa .LASF2469
C:\Users\CYMR90~1\AppData\Local\Temp\cciNYDRP.s:25502  .debug_str:000000000001345f .LASF2470
C:\Users\CYMR90~1\AppData\Local\Temp\cciNYDRP.s:25982  .debug_str:0000000000015264 .LASF2471
C:\Users\CYMR90~1\AppData\Local\Temp\cciNYDRP.s:24700  .debug_str:000000000000ff52 .LASF2472
C:\Users\CYMR90~1\AppData\Local\Temp\cciNYDRP.s:24984  .debug_str:000000000001113c .LASF2473
C:\Users\CYMR90~1\AppData\Local\Temp\cciNYDRP.s:24074  .debug_str:000000000000d89a .LASF2474
C:\Users\CYMR90~1\AppData\Local\Temp\cciNYDRP.s:23078  .debug_str:00000000000096bb .LASF2475
C:\Users\CYMR90~1\AppData\Local\Temp\cciNYDRP.s:31563  .debug_str:000000000002b54d .LASF2476
C:\Users\CYMR90~1\AppData\Local\Temp\cciNYDRP.s:24724  .debug_str:00000000000100df .LASF2477
C:\Users\CYMR90~1\AppData\Local\Temp\cciNYDRP.s:30903  .debug_str:0000000000028cc4 .LASF2478
C:\Users\CYMR90~1\AppData\Local\Temp\cciNYDRP.s:29613  .debug_str:000000000002380a .LASF2479
C:\Users\CYMR90~1\AppData\Local\Temp\cciNYDRP.s:26477  .debug_str:000000000001730a .LASF2480
C:\Users\CYMR90~1\AppData\Local\Temp\cciNYDRP.s:26098  .debug_str:00000000000158e6 .LASF2481
C:\Users\CYMR90~1\AppData\Local\Temp\cciNYDRP.s:26234  .debug_str:00000000000161dc .LASF2482
C:\Users\CYMR90~1\AppData\Local\Temp\cciNYDRP.s:22248  .debug_str:00000000000060c5 .LASF2483
C:\Users\CYMR90~1\AppData\Local\Temp\cciNYDRP.s:23938  .debug_str:000000000000cfc4 .LASF2484
C:\Users\CYMR90~1\AppData\Local\Temp\cciNYDRP.s:28349  .debug_str:000000000001eb44 .LASF2485
C:\Users\CYMR90~1\AppData\Local\Temp\cciNYDRP.s:22480  .debug_str:0000000000006f8f .LASF2486
C:\Users\CYMR90~1\AppData\Local\Temp\cciNYDRP.s:20956  .debug_str:0000000000000f93 .LASF2487
C:\Users\CYMR90~1\AppData\Local\Temp\cciNYDRP.s:27341  .debug_str:000000000001aba1 .LASF2488
C:\Users\CYMR90~1\AppData\Local\Temp\cciNYDRP.s:23340  .debug_str:000000000000a72f .LASF2489
C:\Users\CYMR90~1\AppData\Local\Temp\cciNYDRP.s:26214  .debug_str:00000000000160a5 .LASF2490
C:\Users\CYMR90~1\AppData\Local\Temp\cciNYDRP.s:23658  .debug_str:000000000000bcf4 .LASF2491
C:\Users\CYMR90~1\AppData\Local\Temp\cciNYDRP.s:23790  .debug_str:000000000000c52c .LASF2492
C:\Users\CYMR90~1\AppData\Local\Temp\cciNYDRP.s:27727  .debug_str:000000000001c36f .LASF2493
C:\Users\CYMR90~1\AppData\Local\Temp\cciNYDRP.s:21914  .debug_str:0000000000004c88 .LASF2494
C:\Users\CYMR90~1\AppData\Local\Temp\cciNYDRP.s:27585  .debug_str:000000000001ba74 .LASF2495
C:\Users\CYMR90~1\AppData\Local\Temp\cciNYDRP.s:26084  .debug_str:0000000000015819 .LASF2496
C:\Users\CYMR90~1\AppData\Local\Temp\cciNYDRP.s:31051  .debug_str:00000000000295fe .LASF2497
C:\Users\CYMR90~1\AppData\Local\Temp\cciNYDRP.s:29217  .debug_str:000000000002209e .LASF2498
C:\Users\CYMR90~1\AppData\Local\Temp\cciNYDRP.s:21884  .debug_str:0000000000004abd .LASF2499
C:\Users\CYMR90~1\AppData\Local\Temp\cciNYDRP.s:20968  .debug_str:000000000000103a .LASF2500
C:\Users\CYMR90~1\AppData\Local\Temp\cciNYDRP.s:31329  .debug_str:000000000002a6b3 .LASF2501
C:\Users\CYMR90~1\AppData\Local\Temp\cciNYDRP.s:20910  .debug_str:0000000000000c6e .LASF2502
C:\Users\CYMR90~1\AppData\Local\Temp\cciNYDRP.s:22598  .debug_str:000000000000772b .LASF2503
C:\Users\CYMR90~1\AppData\Local\Temp\cciNYDRP.s:30281  .debug_str:000000000002646c .LASF2504
C:\Users\CYMR90~1\AppData\Local\Temp\cciNYDRP.s:25350  .debug_str:0000000000012a02 .LASF2505
C:\Users\CYMR90~1\AppData\Local\Temp\cciNYDRP.s:23134  .debug_str:0000000000009aab .LASF2506
C:\Users\CYMR90~1\AppData\Local\Temp\cciNYDRP.s:29227  .debug_str:0000000000022124 .LASF2507
C:\Users\CYMR90~1\AppData\Local\Temp\cciNYDRP.s:27595  .debug_str:000000000001bb44 .LASF2508
C:\Users\CYMR90~1\AppData\Local\Temp\cciNYDRP.s:26741  .debug_str:000000000001830d .LASF2509
C:\Users\CYMR90~1\AppData\Local\Temp\cciNYDRP.s:28301  .debug_str:000000000001e8d5 .LASF2510
C:\Users\CYMR90~1\AppData\Local\Temp\cciNYDRP.s:31897  .debug_str:000000000002cbbd .LASF2511
C:\Users\CYMR90~1\AppData\Local\Temp\cciNYDRP.s:21136  .debug_str:0000000000001aaf .LASF2512
C:\Users\CYMR90~1\AppData\Local\Temp\cciNYDRP.s:25606  .debug_str:0000000000013adb .LASF2513
C:\Users\CYMR90~1\AppData\Local\Temp\cciNYDRP.s:29191  .debug_str:0000000000021f15 .LASF2514
C:\Users\CYMR90~1\AppData\Local\Temp\cciNYDRP.s:31677  .debug_str:000000000002bcef .LASF2515
C:\Users\CYMR90~1\AppData\Local\Temp\cciNYDRP.s:25038  .debug_str:0000000000011495 .LASF2516
C:\Users\CYMR90~1\AppData\Local\Temp\cciNYDRP.s:24374  .debug_str:000000000000eb25 .LASF2517
C:\Users\CYMR90~1\AppData\Local\Temp\cciNYDRP.s:27847  .debug_str:000000000001cb6f .LASF2518
C:\Users\CYMR90~1\AppData\Local\Temp\cciNYDRP.s:27119  .debug_str:0000000000019c3c .LASF2519
C:\Users\CYMR90~1\AppData\Local\Temp\cciNYDRP.s:21932  .debug_str:0000000000004da3 .LASF2520
C:\Users\CYMR90~1\AppData\Local\Temp\cciNYDRP.s:21848  .debug_str:0000000000004896 .LASF2521
C:\Users\CYMR90~1\AppData\Local\Temp\cciNYDRP.s:31929  .debug_str:000000000002ce24 .LASF2522
C:\Users\CYMR90~1\AppData\Local\Temp\cciNYDRP.s:28477  .debug_str:000000000001f342 .LASF2523
C:\Users\CYMR90~1\AppData\Local\Temp\cciNYDRP.s:22754  .debug_str:00000000000082a3 .LASF2524
C:\Users\CYMR90~1\AppData\Local\Temp\cciNYDRP.s:22742  .debug_str:0000000000008202 .LASF2525
C:\Users\CYMR90~1\AppData\Local\Temp\cciNYDRP.s:30101  .debug_str:00000000000259ac .LASF2526
C:\Users\CYMR90~1\AppData\Local\Temp\cciNYDRP.s:24998  .debug_str:000000000001121a .LASF2527
C:\Users\CYMR90~1\AppData\Local\Temp\cciNYDRP.s:26232  .debug_str:00000000000161b8 .LASF2528
C:\Users\CYMR90~1\AppData\Local\Temp\cciNYDRP.s:27539  .debug_str:000000000001b831 .LASF2529
C:\Users\CYMR90~1\AppData\Local\Temp\cciNYDRP.s:30837  .debug_str:0000000000028938 .LASF2530
C:\Users\CYMR90~1\AppData\Local\Temp\cciNYDRP.s:29065  .debug_str:00000000000217a5 .LASF2531
C:\Users\CYMR90~1\AppData\Local\Temp\cciNYDRP.s:28091  .debug_str:000000000001db74 .LASF2532
C:\Users\CYMR90~1\AppData\Local\Temp\cciNYDRP.s:27095  .debug_str:0000000000019add .LASF2533
C:\Users\CYMR90~1\AppData\Local\Temp\cciNYDRP.s:26190  .debug_str:0000000000015ee2 .LASF2534
C:\Users\CYMR90~1\AppData\Local\Temp\cciNYDRP.s:25262  .debug_str:000000000001240c .LASF2535
C:\Users\CYMR90~1\AppData\Local\Temp\cciNYDRP.s:29455  .debug_str:0000000000022e9a .LASF2536
C:\Users\CYMR90~1\AppData\Local\Temp\cciNYDRP.s:26014  .debug_str:0000000000015418 .LASF2537
C:\Users\CYMR90~1\AppData\Local\Temp\cciNYDRP.s:21780  .debug_str:0000000000004374 .LASF2538
C:\Users\CYMR90~1\AppData\Local\Temp\cciNYDRP.s:21486  .debug_str:0000000000003022 .LASF2539
C:\Users\CYMR90~1\AppData\Local\Temp\cciNYDRP.s:23008  .debug_str:0000000000009259 .LASF2540
C:\Users\CYMR90~1\AppData\Local\Temp\cciNYDRP.s:20906  .debug_str:0000000000000c37 .LASF2541
C:\Users\CYMR90~1\AppData\Local\Temp\cciNYDRP.s:24162  .debug_str:000000000000dddf .LASF2542
C:\Users\CYMR90~1\AppData\Local\Temp\cciNYDRP.s:22814  .debug_str:000000000000862e .LASF2543
C:\Users\CYMR90~1\AppData\Local\Temp\cciNYDRP.s:21184  .debug_str:0000000000001d8c .LASF2544
C:\Users\CYMR90~1\AppData\Local\Temp\cciNYDRP.s:23622  .debug_str:000000000000b9ec .LASF2545
C:\Users\CYMR90~1\AppData\Local\Temp\cciNYDRP.s:21008  .debug_str:000000000000126e .LASF2546
C:\Users\CYMR90~1\AppData\Local\Temp\cciNYDRP.s:27227  .debug_str:000000000001a423 .LASF2547
C:\Users\CYMR90~1\AppData\Local\Temp\cciNYDRP.s:27009  .debug_str:00000000000194d7 .LASF2548
C:\Users\CYMR90~1\AppData\Local\Temp\cciNYDRP.s:25530  .debug_str:0000000000013630 .LASF2549
C:\Users\CYMR90~1\AppData\Local\Temp\cciNYDRP.s:30737  .debug_str:0000000000028283 .LASF2550
C:\Users\CYMR90~1\AppData\Local\Temp\cciNYDRP.s:23202  .debug_str:0000000000009ed8 .LASF2551
C:\Users\CYMR90~1\AppData\Local\Temp\cciNYDRP.s:27269  .debug_str:000000000001a683 .LASF2552
C:\Users\CYMR90~1\AppData\Local\Temp\cciNYDRP.s:27897  .debug_str:000000000001cfac .LASF2553
C:\Users\CYMR90~1\AppData\Local\Temp\cciNYDRP.s:26409  .debug_str:0000000000016f20 .LASF2554
C:\Users\CYMR90~1\AppData\Local\Temp\cciNYDRP.s:30331  .debug_str:00000000000267da .LASF2555
C:\Users\CYMR90~1\AppData\Local\Temp\cciNYDRP.s:25474  .debug_str:00000000000131f2 .LASF2556
C:\Users\CYMR90~1\AppData\Local\Temp\cciNYDRP.s:20778  .debug_str:000000000000046e .LASF2557
C:\Users\CYMR90~1\AppData\Local\Temp\cciNYDRP.s:21248  .debug_str:00000000000020c8 .LASF2558
C:\Users\CYMR90~1\AppData\Local\Temp\cciNYDRP.s:26044  .debug_str:00000000000155a1 .LASF2559
C:\Users\CYMR90~1\AppData\Local\Temp\cciNYDRP.s:20894  .debug_str:0000000000000b96 .LASF2560
C:\Users\CYMR90~1\AppData\Local\Temp\cciNYDRP.s:27995  .debug_str:000000000001d5fa .LASF2561
C:\Users\CYMR90~1\AppData\Local\Temp\cciNYDRP.s:23332  .debug_str:000000000000a6bf .LASF2562
C:\Users\CYMR90~1\AppData\Local\Temp\cciNYDRP.s:29897  .debug_str:0000000000024ae0 .LASF2563
C:\Users\CYMR90~1\AppData\Local\Temp\cciNYDRP.s:22030  .debug_str:0000000000005382 .LASF2564
C:\Users\CYMR90~1\AppData\Local\Temp\cciNYDRP.s:21644  .debug_str:0000000000003a7c .LASF2565
C:\Users\CYMR90~1\AppData\Local\Temp\cciNYDRP.s:25736  .debug_str:00000000000142c9 .LASF2566
C:\Users\CYMR90~1\AppData\Local\Temp\cciNYDRP.s:23700  .debug_str:000000000000bf91 .LASF2567
C:\Users\CYMR90~1\AppData\Local\Temp\cciNYDRP.s:28463  .debug_str:000000000001f256 .LASF2568
C:\Users\CYMR90~1\AppData\Local\Temp\cciNYDRP.s:24250  .debug_str:000000000000e309 .LASF2569
C:\Users\CYMR90~1\AppData\Local\Temp\cciNYDRP.s:28265  .debug_str:000000000001e68d .LASF2570
C:\Users\CYMR90~1\AppData\Local\Temp\cciNYDRP.s:31881  .debug_str:000000000002cae7 .LASF2571
C:\Users\CYMR90~1\AppData\Local\Temp\cciNYDRP.s:22146  .debug_str:0000000000005a79 .LASF2572
C:\Users\CYMR90~1\AppData\Local\Temp\cciNYDRP.s:27253  .debug_str:000000000001a578 .LASF2573
C:\Users\CYMR90~1\AppData\Local\Temp\cciNYDRP.s:23416  .debug_str:000000000000ac0b .LASF2574
C:\Users\CYMR90~1\AppData\Local\Temp\cciNYDRP.s:30037  .debug_str:00000000000254b4 .LASF2575
C:\Users\CYMR90~1\AppData\Local\Temp\cciNYDRP.s:21436  .debug_str:0000000000002cdc .LASF2576
C:\Users\CYMR90~1\AppData\Local\Temp\cciNYDRP.s:31765  .debug_str:000000000002c31f .LASF2577
C:\Users\CYMR90~1\AppData\Local\Temp\cciNYDRP.s:21040  .debug_str:0000000000001448 .LASF2578
C:\Users\CYMR90~1\AppData\Local\Temp\cciNYDRP.s:25712  .debug_str:0000000000014148 .LASF2579
C:\Users\CYMR90~1\AppData\Local\Temp\cciNYDRP.s:29229  .debug_str:0000000000022148 .LASF2580
C:\Users\CYMR90~1\AppData\Local\Temp\cciNYDRP.s:25626  .debug_str:0000000000013c24 .LASF2581
C:\Users\CYMR90~1\AppData\Local\Temp\cciNYDRP.s:25416  .debug_str:0000000000012e2a .LASF2582
C:\Users\CYMR90~1\AppData\Local\Temp\cciNYDRP.s:28259  .debug_str:000000000001e622 .LASF2583
C:\Users\CYMR90~1\AppData\Local\Temp\cciNYDRP.s:23544  .debug_str:000000000000b4f0 .LASF2584
C:\Users\CYMR90~1\AppData\Local\Temp\cciNYDRP.s:22412  .debug_str:0000000000006b01 .LASF2585
C:\Users\CYMR90~1\AppData\Local\Temp\cciNYDRP.s:28567  .debug_str:000000000001f88b .LASF2586
C:\Users\CYMR90~1\AppData\Local\Temp\cciNYDRP.s:31107  .debug_str:000000000002993c .LASF2587
C:\Users\CYMR90~1\AppData\Local\Temp\cciNYDRP.s:26563  .debug_str:000000000001786f .LASF2588
C:\Users\CYMR90~1\AppData\Local\Temp\cciNYDRP.s:27915  .debug_str:000000000001d0d1 .LASF2589
C:\Users\CYMR90~1\AppData\Local\Temp\cciNYDRP.s:28475  .debug_str:000000000001f316 .LASF2590
C:\Users\CYMR90~1\AppData\Local\Temp\cciNYDRP.s:24076  .debug_str:000000000000d8bd .LASF2591
C:\Users\CYMR90~1\AppData\Local\Temp\cciNYDRP.s:27431  .debug_str:000000000001b197 .LASF2592
C:\Users\CYMR90~1\AppData\Local\Temp\cciNYDRP.s:31481  .debug_str:000000000002afbc .LASF2593
C:\Users\CYMR90~1\AppData\Local\Temp\cciNYDRP.s:21944  .debug_str:0000000000004e53 .LASF2594
C:\Users\CYMR90~1\AppData\Local\Temp\cciNYDRP.s:22570  .debug_str:0000000000007561 .LASF2595
C:\Users\CYMR90~1\AppData\Local\Temp\cciNYDRP.s:30919  .debug_str:0000000000028dfa .LASF2596
C:\Users\CYMR90~1\AppData\Local\Temp\cciNYDRP.s:24848  .debug_str:00000000000108c7 .LASF2597
C:\Users\CYMR90~1\AppData\Local\Temp\cciNYDRP.s:29973  .debug_str:0000000000024f86 .LASF2598
C:\Users\CYMR90~1\AppData\Local\Temp\cciNYDRP.s:23930  .debug_str:000000000000cf36 .LASF2599
C:\Users\CYMR90~1\AppData\Local\Temp\cciNYDRP.s:29123  .debug_str:0000000000021b0d .LASF2600
C:\Users\CYMR90~1\AppData\Local\Temp\cciNYDRP.s:29371  .debug_str:0000000000022979 .LASF2601
C:\Users\CYMR90~1\AppData\Local\Temp\cciNYDRP.s:25026  .debug_str:00000000000113e5 .LASF2602
C:\Users\CYMR90~1\AppData\Local\Temp\cciNYDRP.s:21626  .debug_str:000000000000397c .LASF2603
C:\Users\CYMR90~1\AppData\Local\Temp\cciNYDRP.s:26895  .debug_str:0000000000018cfe .LASF2604
C:\Users\CYMR90~1\AppData\Local\Temp\cciNYDRP.s:20824  .debug_str:0000000000000714 .LASF2605
C:\Users\CYMR90~1\AppData\Local\Temp\cciNYDRP.s:28659  .debug_str:000000000001fe7f .LASF2606
C:\Users\CYMR90~1\AppData\Local\Temp\cciNYDRP.s:30827  .debug_str:0000000000028877 .LASF2607
C:\Users\CYMR90~1\AppData\Local\Temp\cciNYDRP.s:22708  .debug_str:0000000000007f91 .LASF2608
C:\Users\CYMR90~1\AppData\Local\Temp\cciNYDRP.s:23350  .debug_str:000000000000a7cd .LASF2609
C:\Users\CYMR90~1\AppData\Local\Temp\cciNYDRP.s:29115  .debug_str:0000000000021aa2 .LASF2610
C:\Users\CYMR90~1\AppData\Local\Temp\cciNYDRP.s:20958  .debug_str:0000000000000fa5 .LASF2611
C:\Users\CYMR90~1\AppData\Local\Temp\cciNYDRP.s:24176  .debug_str:000000000000dea4 .LASF2612
C:\Users\CYMR90~1\AppData\Local\Temp\cciNYDRP.s:27399  .debug_str:000000000001afa3 .LASF2613
C:\Users\CYMR90~1\AppData\Local\Temp\cciNYDRP.s:30583  .debug_str:0000000000027763 .LASF2614
C:\Users\CYMR90~1\AppData\Local\Temp\cciNYDRP.s:22458  .debug_str:0000000000006e02 .LASF2615
C:\Users\CYMR90~1\AppData\Local\Temp\cciNYDRP.s:25682  .debug_str:0000000000013f3b .LASF2616
C:\Users\CYMR90~1\AppData\Local\Temp\cciNYDRP.s:22140  .debug_str:0000000000005a29 .LASF2617
C:\Users\CYMR90~1\AppData\Local\Temp\cciNYDRP.s:26891  .debug_str:0000000000018cd6 .LASF2618
C:\Users\CYMR90~1\AppData\Local\Temp\cciNYDRP.s:31607  .debug_str:000000000002b860 .LASF2619
C:\Users\CYMR90~1\AppData\Local\Temp\cciNYDRP.s:24976  .debug_str:00000000000110c3 .LASF2620
C:\Users\CYMR90~1\AppData\Local\Temp\cciNYDRP.s:28471  .debug_str:000000000001f2d7 .LASF2621
C:\Users\CYMR90~1\AppData\Local\Temp\cciNYDRP.s:23056  .debug_str:0000000000009570 .LASF2622
C:\Users\CYMR90~1\AppData\Local\Temp\cciNYDRP.s:23428  .debug_str:000000000000ad94 .LASF2623
C:\Users\CYMR90~1\AppData\Local\Temp\cciNYDRP.s:24084  .debug_str:000000000000d94d .LASF2624
C:\Users\CYMR90~1\AppData\Local\Temp\cciNYDRP.s:29365  .debug_str:0000000000022913 .LASF2625
C:\Users\CYMR90~1\AppData\Local\Temp\cciNYDRP.s:26617  .debug_str:0000000000017bca .LASF2626
C:\Users\CYMR90~1\AppData\Local\Temp\cciNYDRP.s:21862  .debug_str:0000000000004965 .LASF2627
C:\Users\CYMR90~1\AppData\Local\Temp\cciNYDRP.s:23302  .debug_str:000000000000a4d2 .LASF2628
C:\Users\CYMR90~1\AppData\Local\Temp\cciNYDRP.s:28493  .debug_str:000000000001f43f .LASF2629
C:\Users\CYMR90~1\AppData\Local\Temp\cciNYDRP.s:22426  .debug_str:0000000000006c0c .LASF2630
C:\Users\CYMR90~1\AppData\Local\Temp\cciNYDRP.s:27599  .debug_str:000000000001bb93 .LASF2631
C:\Users\CYMR90~1\AppData\Local\Temp\cciNYDRP.s:23788  .debug_str:000000000000c510 .LASF2632
C:\Users\CYMR90~1\AppData\Local\Temp\cciNYDRP.s:23528  .debug_str:000000000000b3e1 .LASF2633
C:\Users\CYMR90~1\AppData\Local\Temp\cciNYDRP.s:28733  .debug_str:00000000000202d0 .LASF2634
C:\Users\CYMR90~1\AppData\Local\Temp\cciNYDRP.s:22662  .debug_str:0000000000007be0 .LASF2635
C:\Users\CYMR90~1\AppData\Local\Temp\cciNYDRP.s:27815  .debug_str:000000000001c953 .LASF2636
C:\Users\CYMR90~1\AppData\Local\Temp\cciNYDRP.s:21738  .debug_str:0000000000004102 .LASF2637
C:\Users\CYMR90~1\AppData\Local\Temp\cciNYDRP.s:29627  .debug_str:00000000000238ea .LASF2638
C:\Users\CYMR90~1\AppData\Local\Temp\cciNYDRP.s:26921  .debug_str:0000000000018e92 .LASF2639
C:\Users\CYMR90~1\AppData\Local\Temp\cciNYDRP.s:21210  .debug_str:0000000000001ee1 .LASF2640
C:\Users\CYMR90~1\AppData\Local\Temp\cciNYDRP.s:21558  .debug_str:00000000000034dd .LASF2641
C:\Users\CYMR90~1\AppData\Local\Temp\cciNYDRP.s:30105  .debug_str:00000000000259ef .LASF2642
C:\Users\CYMR90~1\AppData\Local\Temp\cciNYDRP.s:27457  .debug_str:000000000001b32d .LASF2643
C:\Users\CYMR90~1\AppData\Local\Temp\cciNYDRP.s:26605  .debug_str:0000000000017b2c .LASF2644
C:\Users\CYMR90~1\AppData\Local\Temp\cciNYDRP.s:31793  .debug_str:000000000002c538 .LASF2645
C:\Users\CYMR90~1\AppData\Local\Temp\cciNYDRP.s:25680  .debug_str:0000000000013f21 .LASF2646
C:\Users\CYMR90~1\AppData\Local\Temp\cciNYDRP.s:30943  .debug_str:0000000000028f61 .LASF2647
C:\Users\CYMR90~1\AppData\Local\Temp\cciNYDRP.s:24784  .debug_str:000000000001046f .LASF2648
C:\Users\CYMR90~1\AppData\Local\Temp\cciNYDRP.s:27357  .debug_str:000000000001ac90 .LASF2649
C:\Users\CYMR90~1\AppData\Local\Temp\cciNYDRP.s:21242  .debug_str:000000000000207d .LASF2650
C:\Users\CYMR90~1\AppData\Local\Temp\cciNYDRP.s:26403  .debug_str:0000000000016edb .LASF2651
C:\Users\CYMR90~1\AppData\Local\Temp\cciNYDRP.s:25716  .debug_str:000000000001419b .LASF2652
C:\Users\CYMR90~1\AppData\Local\Temp\cciNYDRP.s:25486  .debug_str:00000000000132ee .LASF2653
C:\Users\CYMR90~1\AppData\Local\Temp\cciNYDRP.s:24378  .debug_str:000000000000eb56 .LASF2654
C:\Users\CYMR90~1\AppData\Local\Temp\cciNYDRP.s:31483  .debug_str:000000000002afd4 .LASF2655
C:\Users\CYMR90~1\AppData\Local\Temp\cciNYDRP.s:23368  .debug_str:000000000000a8e6 .LASF2656
C:\Users\CYMR90~1\AppData\Local\Temp\cciNYDRP.s:26561  .debug_str:0000000000017856 .LASF2657
C:\Users\CYMR90~1\AppData\Local\Temp\cciNYDRP.s:29773  .debug_str:000000000002429d .LASF2658
C:\Users\CYMR90~1\AppData\Local\Temp\cciNYDRP.s:21666  .debug_str:0000000000003c06 .LASF2659
C:\Users\CYMR90~1\AppData\Local\Temp\cciNYDRP.s:24910  .debug_str:0000000000010d29 .LASF2660
C:\Users\CYMR90~1\AppData\Local\Temp\cciNYDRP.s:28067  .debug_str:000000000001da0d .LASF2661
C:\Users\CYMR90~1\AppData\Local\Temp\cciNYDRP.s:31241  .debug_str:000000000002a129 .LASF2662
C:\Users\CYMR90~1\AppData\Local\Temp\cciNYDRP.s:23130  .debug_str:0000000000009a76 .LASF2663
C:\Users\CYMR90~1\AppData\Local\Temp\cciNYDRP.s:26324  .debug_str:000000000001675f .LASF2664
C:\Users\CYMR90~1\AppData\Local\Temp\cciNYDRP.s:28305  .debug_str:000000000001e912 .LASF2665
C:\Users\CYMR90~1\AppData\Local\Temp\cciNYDRP.s:21718  .debug_str:0000000000003f2a .LASF2666
C:\Users\CYMR90~1\AppData\Local\Temp\cciNYDRP.s:26433  .debug_str:0000000000017088 .LASF2667
C:\Users\CYMR90~1\AppData\Local\Temp\cciNYDRP.s:31155  .debug_str:0000000000029c34 .LASF2668
C:\Users\CYMR90~1\AppData\Local\Temp\cciNYDRP.s:24552  .debug_str:000000000000f570 .LASF2669
C:\Users\CYMR90~1\AppData\Local\Temp\cciNYDRP.s:29209  .debug_str:000000000002204b .LASF2670
C:\Users\CYMR90~1\AppData\Local\Temp\cciNYDRP.s:22584  .debug_str:0000000000007658 .LASF2671
C:\Users\CYMR90~1\AppData\Local\Temp\cciNYDRP.s:25810  .debug_str:0000000000014766 .LASF2672
C:\Users\CYMR90~1\AppData\Local\Temp\cciNYDRP.s:28917  .debug_str:0000000000020e51 .LASF2673
C:\Users\CYMR90~1\AppData\Local\Temp\cciNYDRP.s:20858  .debug_str:00000000000008ff .LASF2674
C:\Users\CYMR90~1\AppData\Local\Temp\cciNYDRP.s:24064  .debug_str:000000000000d810 .LASF2675
C:\Users\CYMR90~1\AppData\Local\Temp\cciNYDRP.s:26134  .debug_str:0000000000015b1b .LASF2676
C:\Users\CYMR90~1\AppData\Local\Temp\cciNYDRP.s:30467  .debug_str:0000000000026ffb .LASF2677
C:\Users\CYMR90~1\AppData\Local\Temp\cciNYDRP.s:22344  .debug_str:00000000000066c1 .LASF2678
C:\Users\CYMR90~1\AppData\Local\Temp\cciNYDRP.s:25582  .debug_str:000000000001394b .LASF2679
C:\Users\CYMR90~1\AppData\Local\Temp\cciNYDRP.s:28777  .debug_str:0000000000020602 .LASF2680
C:\Users\CYMR90~1\AppData\Local\Temp\cciNYDRP.s:26114  .debug_str:00000000000159d6 .LASF2681
C:\Users\CYMR90~1\AppData\Local\Temp\cciNYDRP.s:30841  .debug_str:000000000002896a .LASF2682
C:\Users\CYMR90~1\AppData\Local\Temp\cciNYDRP.s:24234  .debug_str:000000000000e239 .LASF2683
C:\Users\CYMR90~1\AppData\Local\Temp\cciNYDRP.s:22282  .debug_str:00000000000062d2 .LASF2684
C:\Users\CYMR90~1\AppData\Local\Temp\cciNYDRP.s:27021  .debug_str:0000000000019583 .LASF2685
C:\Users\CYMR90~1\AppData\Local\Temp\cciNYDRP.s:25542  .debug_str:00000000000136f0 .LASF2686
C:\Users\CYMR90~1\AppData\Local\Temp\cciNYDRP.s:28723  .debug_str:0000000000020207 .LASF2687
C:\Users\CYMR90~1\AppData\Local\Temp\cciNYDRP.s:31971  .debug_str:000000000002d0a2 .LASF2688
C:\Users\CYMR90~1\AppData\Local\Temp\cciNYDRP.s:27687  .debug_str:000000000001c141 .LASF2689
C:\Users\CYMR90~1\AppData\Local\Temp\cciNYDRP.s:29755  .debug_str:0000000000024155 .LASF2690
C:\Users\CYMR90~1\AppData\Local\Temp\cciNYDRP.s:30179  .debug_str:0000000000025e37 .LASF2691
C:\Users\CYMR90~1\AppData\Local\Temp\cciNYDRP.s:24070  .debug_str:000000000000d860 .LASF2692
C:\Users\CYMR90~1\AppData\Local\Temp\cciNYDRP.s:25306  .debug_str:00000000000126f2 .LASF2693
C:\Users\CYMR90~1\AppData\Local\Temp\cciNYDRP.s:28465  .debug_str:000000000001f27b .LASF2694
C:\Users\CYMR90~1\AppData\Local\Temp\cciNYDRP.s:31745  .debug_str:000000000002c1d8 .LASF2695
C:\Users\CYMR90~1\AppData\Local\Temp\cciNYDRP.s:29213  .debug_str:000000000002206f .LASF2696
C:\Users\CYMR90~1\AppData\Local\Temp\cciNYDRP.s:28229  .debug_str:000000000001e476 .LASF2697
C:\Users\CYMR90~1\AppData\Local\Temp\cciNYDRP.s:21640  .debug_str:0000000000003a43 .LASF2698
C:\Users\CYMR90~1\AppData\Local\Temp\cciNYDRP.s:26348  .debug_str:0000000000016937 .LASF2699
C:\Users\CYMR90~1\AppData\Local\Temp\cciNYDRP.s:31073  .debug_str:000000000002977d .LASF2700
C:\Users\CYMR90~1\AppData\Local\Temp\cciNYDRP.s:24466  .debug_str:000000000000f02a .LASF2701
C:\Users\CYMR90~1\AppData\Local\Temp\cciNYDRP.s:26314  .debug_str:00000000000166da .LASF2702
C:\Users\CYMR90~1\AppData\Local\Temp\cciNYDRP.s:31041  .debug_str:0000000000029524 .LASF2703
C:\Users\CYMR90~1\AppData\Local\Temp\cciNYDRP.s:24436  .debug_str:000000000000ee69 .LASF2704
C:\Users\CYMR90~1\AppData\Local\Temp\cciNYDRP.s:29093  .debug_str:000000000002191f .LASF2705
C:\Users\CYMR90~1\AppData\Local\Temp\cciNYDRP.s:25592  .debug_str:00000000000139fe .LASF2706
C:\Users\CYMR90~1\AppData\Local\Temp\cciNYDRP.s:21152  .debug_str:0000000000001b90 .LASF2707
C:\Users\CYMR90~1\AppData\Local\Temp\cciNYDRP.s:25846  .debug_str:000000000001495f .LASF2708
C:\Users\CYMR90~1\AppData\Local\Temp\cciNYDRP.s:25644  .debug_str:0000000000013d15 .LASF2709
C:\Users\CYMR90~1\AppData\Local\Temp\cciNYDRP.s:23966  .debug_str:000000000000d1d1 .LASF2710
C:\Users\CYMR90~1\AppData\Local\Temp\cciNYDRP.s:28621  .debug_str:000000000001fbdf .LASF2711
C:\Users\CYMR90~1\AppData\Local\Temp\cciNYDRP.s:27439  .debug_str:000000000001b220 .LASF2712
C:\Users\CYMR90~1\AppData\Local\Temp\cciNYDRP.s:28245  .debug_str:000000000001e51e .LASF2713
C:\Users\CYMR90~1\AppData\Local\Temp\cciNYDRP.s:21656  .debug_str:0000000000003b3b .LASF2714
C:\Users\CYMR90~1\AppData\Local\Temp\cciNYDRP.s:26364  .debug_str:0000000000016abe .LASF2715
C:\Users\CYMR90~1\AppData\Local\Temp\cciNYDRP.s:22976  .debug_str:000000000000907a .LASF2716
C:\Users\CYMR90~1\AppData\Local\Temp\cciNYDRP.s:29727  .debug_str:0000000000023e96 .LASF2717
C:\Users\CYMR90~1\AppData\Local\Temp\cciNYDRP.s:21160  .debug_str:0000000000001c16 .LASF2718
C:\Users\CYMR90~1\AppData\Local\Temp\cciNYDRP.s:24400  .debug_str:000000000000ec71 .LASF2719
C:\Users\CYMR90~1\AppData\Local\Temp\cciNYDRP.s:30525  .debug_str:0000000000027443 .LASF2720
C:\Users\CYMR90~1\AppData\Local\Temp\cciNYDRP.s:30815  .debug_str:00000000000287d3 .LASF2721
C:\Users\CYMR90~1\AppData\Local\Temp\cciNYDRP.s:22592  .debug_str:00000000000076c4 .LASF2722
C:\Users\CYMR90~1\AppData\Local\Temp\cciNYDRP.s:25816  .debug_str:00000000000147ad .LASF2723
C:\Users\CYMR90~1\AppData\Local\Temp\cciNYDRP.s:23140  .debug_str:0000000000009af2 .LASF2724
C:\Users\CYMR90~1\AppData\Local\Temp\cciNYDRP.s:20946  .debug_str:0000000000000f0b .LASF2725
C:\Users\CYMR90~1\AppData\Local\Temp\cciNYDRP.s:24158  .debug_str:000000000000ddb3 .LASF2726
C:\Users\CYMR90~1\AppData\Local\Temp\cciNYDRP.s:22686  .debug_str:0000000000007d90 .LASF2727
C:\Users\CYMR90~1\AppData\Local\Temp\cciNYDRP.s:26667  .debug_str:0000000000017eb6 .LASF2728
C:\Users\CYMR90~1\AppData\Local\Temp\cciNYDRP.s:31399  .debug_str:000000000002aae8 .LASF2729
C:\Users\CYMR90~1\AppData\Local\Temp\cciNYDRP.s:24782  .debug_str:0000000000010458 .LASF2730
C:\Users\CYMR90~1\AppData\Local\Temp\cciNYDRP.s:29453  .debug_str:0000000000022e83 .LASF2731
C:\Users\CYMR90~1\AppData\Local\Temp\cciNYDRP.s:22852  .debug_str:00000000000088b1 .LASF2732
C:\Users\CYMR90~1\AppData\Local\Temp\cciNYDRP.s:27549  .debug_str:000000000001b899 .LASF2733
C:\Users\CYMR90~1\AppData\Local\Temp\cciNYDRP.s:24962  .debug_str:0000000000010fe5 .LASF2734
C:\Users\CYMR90~1\AppData\Local\Temp\cciNYDRP.s:31265  .debug_str:000000000002a269 .LASF2735
C:\Users\CYMR90~1\AppData\Local\Temp\cciNYDRP.s:27179  .debug_str:0000000000019fa9 .LASF2736
C:\Users\CYMR90~1\AppData\Local\Temp\cciNYDRP.s:22786  .debug_str:000000000000847b .LASF2737
C:\Users\CYMR90~1\AppData\Local\Temp\cciNYDRP.s:23764  .debug_str:000000000000c37f .LASF2738
C:\Users\CYMR90~1\AppData\Local\Temp\cciNYDRP.s:31281  .debug_str:000000000002a378 .LASF2739
C:\Users\CYMR90~1\AppData\Local\Temp\cciNYDRP.s:21570  .debug_str:00000000000035a4 .LASF2740
C:\Users\CYMR90~1\AppData\Local\Temp\cciNYDRP.s:26501  .debug_str:0000000000017457 .LASF2741
C:\Users\CYMR90~1\AppData\Local\Temp\cciNYDRP.s:21920  .debug_str:0000000000004cf4 .LASF2742
C:\Users\CYMR90~1\AppData\Local\Temp\cciNYDRP.s:25300  .debug_str:000000000001268f .LASF2743
C:\Users\CYMR90~1\AppData\Local\Temp\cciNYDRP.s:21966  .debug_str:0000000000004fa8 .LASF2744
C:\Users\CYMR90~1\AppData\Local\Temp\cciNYDRP.s:28787  .debug_str:000000000002067a .LASF2745
C:\Users\CYMR90~1\AppData\Local\Temp\cciNYDRP.s:25578  .debug_str:0000000000013925 .LASF2746
C:\Users\CYMR90~1\AppData\Local\Temp\cciNYDRP.s:24368  .debug_str:000000000000eaba .LASF2747
C:\Users\CYMR90~1\AppData\Local\Temp\cciNYDRP.s:23420  .debug_str:000000000000ac60 .LASF2748
C:\Users\CYMR90~1\AppData\Local\Temp\cciNYDRP.s:21006  .debug_str:0000000000001250 .LASF2749
C:\Users\CYMR90~1\AppData\Local\Temp\cciNYDRP.s:23800  .debug_str:000000000000c5d2 .LASF2750
C:\Users\CYMR90~1\AppData\Local\Temp\cciNYDRP.s:29899  .debug_str:0000000000024b06 .LASF2751
C:\Users\CYMR90~1\AppData\Local\Temp\cciNYDRP.s:28783  .debug_str:0000000000020652 .LASF2752
C:\Users\CYMR90~1\AppData\Local\Temp\cciNYDRP.s:20734  .debug_str:000000000000022c .LASF2753
C:\Users\CYMR90~1\AppData\Local\Temp\cciNYDRP.s:23928  .debug_str:000000000000cf23 .LASF2754
C:\Users\CYMR90~1\AppData\Local\Temp\cciNYDRP.s:27123  .debug_str:0000000000019c92 .LASF2755
C:\Users\CYMR90~1\AppData\Local\Temp\cciNYDRP.s:20922  .debug_str:0000000000000d2f .LASF2756
C:\Users\CYMR90~1\AppData\Local\Temp\cciNYDRP.s:30589  .debug_str:00000000000277bb .LASF2757
C:\Users\CYMR90~1\AppData\Local\Temp\cciNYDRP.s:28943  .debug_str:0000000000020fa2 .LASF2758
C:\Users\CYMR90~1\AppData\Local\Temp\cciNYDRP.s:27365  .debug_str:000000000001ad10 .LASF2759
C:\Users\CYMR90~1\AppData\Local\Temp\cciNYDRP.s:31801  .debug_str:000000000002c5bb .LASF2760
C:\Users\CYMR90~1\AppData\Local\Temp\cciNYDRP.s:21034  .debug_str:0000000000001412 .LASF2761
C:\Users\CYMR90~1\AppData\Local\Temp\cciNYDRP.s:25726  .debug_str:000000000001423c .LASF2762
C:\Users\CYMR90~1\AppData\Local\Temp\cciNYDRP.s:30433  .debug_str:0000000000026e17 .LASF2763
C:\Users\CYMR90~1\AppData\Local\Temp\cciNYDRP.s:31475  .debug_str:000000000002af5a .LASF2764
C:\Users\CYMR90~1\AppData\Local\Temp\cciNYDRP.s:27691  .debug_str:000000000001c16f .LASF2765
C:\Users\CYMR90~1\AppData\Local\Temp\cciNYDRP.s:23974  .debug_str:000000000000d221 .LASF2766
C:\Users\CYMR90~1\AppData\Local\Temp\cciNYDRP.s:29245  .debug_str:000000000002223a .LASF2767
C:\Users\CYMR90~1\AppData\Local\Temp\cciNYDRP.s:21144  .debug_str:0000000000001b1c .LASF2768
C:\Users\CYMR90~1\AppData\Local\Temp\cciNYDRP.s:24384  .debug_str:000000000000eba1 .LASF2769
C:\Users\CYMR90~1\AppData\Local\Temp\cciNYDRP.s:27573  .debug_str:000000000001b9de .LASF2770
C:\Users\CYMR90~1\AppData\Local\Temp\cciNYDRP.s:30707  .debug_str:0000000000028015 .LASF2771
C:\Users\CYMR90~1\AppData\Local\Temp\cciNYDRP.s:29085  .debug_str:00000000000218a7 .LASF2772
C:\Users\CYMR90~1\AppData\Local\Temp\cciNYDRP.s:25804  .debug_str:0000000000014716 .LASF2773
C:\Users\CYMR90~1\AppData\Local\Temp\cciNYDRP.s:25840  .debug_str:000000000001491a .LASF2774
C:\Users\CYMR90~1\AppData\Local\Temp\cciNYDRP.s:20936  .debug_str:0000000000000e86 .LASF2775
C:\Users\CYMR90~1\AppData\Local\Temp\cciNYDRP.s:24144  .debug_str:000000000000dcd7 .LASF2776
C:\Users\CYMR90~1\AppData\Local\Temp\cciNYDRP.s:26372  .debug_str:0000000000016b38 .LASF2777
C:\Users\CYMR90~1\AppData\Local\Temp\cciNYDRP.s:29243  .debug_str:0000000000022225 .LASF2778
C:\Users\CYMR90~1\AppData\Local\Temp\cciNYDRP.s:24486  .debug_str:000000000000f17a .LASF2779
C:\Users\CYMR90~1\AppData\Local\Temp\cciNYDRP.s:29145  .debug_str:0000000000021ca0 .LASF2780
C:\Users\CYMR90~1\AppData\Local\Temp\cciNYDRP.s:22534  .debug_str:0000000000007326 .LASF2781
C:\Users\CYMR90~1\AppData\Local\Temp\cciNYDRP.s:27279  .debug_str:000000000001a7d4 .LASF2782
C:\Users\CYMR90~1\AppData\Local\Temp\cciNYDRP.s:26531  .debug_str:0000000000017633 .LASF2783
C:\Users\CYMR90~1\AppData\Local\Temp\cciNYDRP.s:24254  .debug_str:000000000000e35b .LASF2784
C:\Users\CYMR90~1\AppData\Local\Temp\cciNYDRP.s:25430  .debug_str:0000000000012f0f .LASF2785
C:\Users\CYMR90~1\AppData\Local\Temp\cciNYDRP.s:25390  .debug_str:0000000000012c7d .LASF2786
C:\Users\CYMR90~1\AppData\Local\Temp\cciNYDRP.s:21480  .debug_str:0000000000002fdc .LASF2787
C:\Users\CYMR90~1\AppData\Local\Temp\cciNYDRP.s:21362  .debug_str:0000000000002828 .LASF2788
C:\Users\CYMR90~1\AppData\Local\Temp\cciNYDRP.s:28905  .debug_str:0000000000020dab .LASF2789
C:\Users\CYMR90~1\AppData\Local\Temp\cciNYDRP.s:29901  .debug_str:0000000000024b19 .LASF2790
C:\Users\CYMR90~1\AppData\Local\Temp\cciNYDRP.s:29581  .debug_str:0000000000023609 .LASF2791
C:\Users\CYMR90~1\AppData\Local\Temp\cciNYDRP.s:23480  .debug_str:000000000000b0a1 .LASF2792
C:\Users\CYMR90~1\AppData\Local\Temp\cciNYDRP.s:26669  .debug_str:0000000000017ecd .LASF2793
C:\Users\CYMR90~1\AppData\Local\Temp\cciNYDRP.s:29879  .debug_str:00000000000249ad .LASF2794
C:\Users\CYMR90~1\AppData\Local\Temp\cciNYDRP.s:21772  .debug_str:00000000000042f2 .LASF2795
C:\Users\CYMR90~1\AppData\Local\Temp\cciNYDRP.s:24934  .debug_str:0000000000010e70 .LASF2796
C:\Users\CYMR90~1\AppData\Local\Temp\cciNYDRP.s:28089  .debug_str:000000000001db62 .LASF2797
C:\Users\CYMR90~1\AppData\Local\Temp\cciNYDRP.s:31901  .debug_str:000000000002cc07 .LASF2798
C:\Users\CYMR90~1\AppData\Local\Temp\cciNYDRP.s:23240  .debug_str:000000000000a137 .LASF2799
C:\Users\CYMR90~1\AppData\Local\Temp\cciNYDRP.s:26439  .debug_str:00000000000170e5 .LASF2800
C:\Users\CYMR90~1\AppData\Local\Temp\cciNYDRP.s:29645  .debug_str:00000000000239f2 .LASF2801
C:\Users\CYMR90~1\AppData\Local\Temp\cciNYDRP.s:27819  .debug_str:000000000001c989 .LASF2802
C:\Users\CYMR90~1\AppData\Local\Temp\cciNYDRP.s:21208  .debug_str:0000000000001ecd .LASF2803
C:\Users\CYMR90~1\AppData\Local\Temp\cciNYDRP.s:25904  .debug_str:0000000000014d3a .LASF2804
C:\Users\CYMR90~1\AppData\Local\Temp\cciNYDRP.s:30623  .debug_str:0000000000027a27 .LASF2805
C:\Users\CYMR90~1\AppData\Local\Temp\cciNYDRP.s:24022  .debug_str:000000000000d5cd .LASF2806
C:\Users\CYMR90~1\AppData\Local\Temp\cciNYDRP.s:28685  .debug_str:000000000002000a .LASF2807
C:\Users\CYMR90~1\AppData\Local\Temp\cciNYDRP.s:31305  .debug_str:000000000002a549 .LASF2808
C:\Users\CYMR90~1\AppData\Local\Temp\cciNYDRP.s:31511  .debug_str:000000000002b1c1 .LASF2809
C:\Users\CYMR90~1\AppData\Local\Temp\cciNYDRP.s:27315  .debug_str:000000000001a9cb .LASF2810
C:\Users\CYMR90~1\AppData\Local\Temp\cciNYDRP.s:22492  .debug_str:000000000000706e .LASF2811
C:\Users\CYMR90~1\AppData\Local\Temp\cciNYDRP.s:22794  .debug_str:00000000000084e9 .LASF2812
C:\Users\CYMR90~1\AppData\Local\Temp\cciNYDRP.s:26729  .debug_str:000000000001823a .LASF2813
C:\Users\CYMR90~1\AppData\Local\Temp\cciNYDRP.s:31611  .debug_str:000000000002b88d .LASF2814
C:\Users\CYMR90~1\AppData\Local\Temp\cciNYDRP.s:25170  .debug_str:0000000000011dff .LASF2815
C:\Users\CYMR90~1\AppData\Local\Temp\cciNYDRP.s:25998  .debug_str:000000000001531d .LASF2816
C:\Users\CYMR90~1\AppData\Local\Temp\cciNYDRP.s:22194  .debug_str:0000000000005d4d .LASF2817
C:\Users\CYMR90~1\AppData\Local\Temp\cciNYDRP.s:28931  .debug_str:0000000000020f0f .LASF2818
C:\Users\CYMR90~1\AppData\Local\Temp\cciNYDRP.s:30319  .debug_str:000000000002671c .LASF2819
C:\Users\CYMR90~1\AppData\Local\Temp\cciNYDRP.s:31715  .debug_str:000000000002bfd0 .LASF2820
C:\Users\CYMR90~1\AppData\Local\Temp\cciNYDRP.s:21728  .debug_str:000000000000405c .LASF2821
C:\Users\CYMR90~1\AppData\Local\Temp\cciNYDRP.s:25438  .debug_str:0000000000012f9d .LASF2822
C:\Users\CYMR90~1\AppData\Local\Temp\cciNYDRP.s:30819  .debug_str:0000000000028801 .LASF2823
C:\Users\CYMR90~1\AppData\Local\Temp\cciNYDRP.s:28753  .debug_str:0000000000020415 .LASF2824
C:\Users\CYMR90~1\AppData\Local\Temp\cciNYDRP.s:27651  .debug_str:000000000001bed3 .LASF2825
C:\Users\CYMR90~1\AppData\Local\Temp\cciNYDRP.s:27225  .debug_str:000000000001a3e5 .LASF2826
C:\Users\CYMR90~1\AppData\Local\Temp\cciNYDRP.s:27143  .debug_str:0000000000019d76 .LASF2827
C:\Users\CYMR90~1\AppData\Local\Temp\cciNYDRP.s:29349  .debug_str:0000000000022830 .LASF2828
C:\Users\CYMR90~1\AppData\Local\Temp\cciNYDRP.s:27645  .debug_str:000000000001be80 .LASF2829
C:\Users\CYMR90~1\AppData\Local\Temp\cciNYDRP.s:26791  .debug_str:00000000000185f1 .LASF2830
C:\Users\CYMR90~1\AppData\Local\Temp\cciNYDRP.s:25820  .debug_str:00000000000147f2 .LASF2831
C:\Users\CYMR90~1\AppData\Local\Temp\cciNYDRP.s:25368  .debug_str:0000000000012b11 .LASF2832
C:\Users\CYMR90~1\AppData\Local\Temp\cciNYDRP.s:24108  .debug_str:000000000000da86 .LASF2833
C:\Users\CYMR90~1\AppData\Local\Temp\cciNYDRP.s:23234  .debug_str:000000000000a0d4 .LASF2834
C:\Users\CYMR90~1\AppData\Local\Temp\cciNYDRP.s:22330  .debug_str:00000000000065ef .LASF2835
C:\Users\CYMR90~1\AppData\Local\Temp\cciNYDRP.s:21484  .debug_str:0000000000003012 .LASF2836
C:\Users\CYMR90~1\AppData\Local\Temp\cciNYDRP.s:31945  .debug_str:000000000002cf16 .LASF2837
C:\Users\CYMR90~1\AppData\Local\Temp\cciNYDRP.s:31077  .debug_str:00000000000297ae .LASF2838
C:\Users\CYMR90~1\AppData\Local\Temp\cciNYDRP.s:29809  .debug_str:00000000000244c9 .LASF2839
C:\Users\CYMR90~1\AppData\Local\Temp\cciNYDRP.s:21694  .debug_str:0000000000003de2 .LASF2840
C:\Users\CYMR90~1\AppData\Local\Temp\cciNYDRP.s:24948  .debug_str:0000000000010f17 .LASF2841
C:\Users\CYMR90~1\AppData\Local\Temp\cciNYDRP.s:28107  .debug_str:000000000001dcf8 .LASF2842
C:\Users\CYMR90~1\AppData\Local\Temp\cciNYDRP.s:31369  .debug_str:000000000002a8f7 .LASF2843
C:\Users\CYMR90~1\AppData\Local\Temp\cciNYDRP.s:23256  .debug_str:000000000000a24b .LASF2844
C:\Users\CYMR90~1\AppData\Local\Temp\cciNYDRP.s:29433  .debug_str:0000000000022d65 .LASF2845
C:\Users\CYMR90~1\AppData\Local\Temp\cciNYDRP.s:31903  .debug_str:000000000002cc19 .LASF2846
C:\Users\CYMR90~1\AppData\Local\Temp\cciNYDRP.s:25198  .debug_str:0000000000011ff4 .LASF2847
C:\Users\CYMR90~1\AppData\Local\Temp\cciNYDRP.s:23710  .debug_str:000000000000c029 .LASF2848
C:\Users\CYMR90~1\AppData\Local\Temp\cciNYDRP.s:21292  .debug_str:000000000000237c .LASF2849
C:\Users\CYMR90~1\AppData\Local\Temp\cciNYDRP.s:27889  .debug_str:000000000001cf42 .LASF2850
C:\Users\CYMR90~1\AppData\Local\Temp\cciNYDRP.s:27283  .debug_str:000000000001a802 .LASF2851
C:\Users\CYMR90~1\AppData\Local\Temp\cciNYDRP.s:27321  .debug_str:000000000001aa56 .LASF2852
C:\Users\CYMR90~1\AppData\Local\Temp\cciNYDRP.s:26282  .debug_str:0000000000016460 .LASF2853
C:\Users\CYMR90~1\AppData\Local\Temp\cciNYDRP.s:23546  .debug_str:000000000000b51e .LASF2854
C:\Users\CYMR90~1\AppData\Local\Temp\cciNYDRP.s:25674  .debug_str:0000000000013ed4 .LASF2855
C:\Users\CYMR90~1\AppData\Local\Temp\cciNYDRP.s:30233  .debug_str:000000000002618a .LASF2856
C:\Users\CYMR90~1\AppData\Local\Temp\cciNYDRP.s:27479  .debug_str:000000000001b476 .LASF2857
C:\Users\CYMR90~1\AppData\Local\Temp\cciNYDRP.s:22178  .debug_str:0000000000005c5e .LASF2858
C:\Users\CYMR90~1\AppData\Local\Temp\cciNYDRP.s:24106  .debug_str:000000000000da64 .LASF2859
C:\Users\CYMR90~1\AppData\Local\Temp\cciNYDRP.s:25980  .debug_str:0000000000015227 .LASF2860
C:\Users\CYMR90~1\AppData\Local\Temp\cciNYDRP.s:30599  .debug_str:000000000002786e .LASF2861
C:\Users\CYMR90~1\AppData\Local\Temp\cciNYDRP.s:23678  .debug_str:000000000000be50 .LASF2862
C:\Users\CYMR90~1\AppData\Local\Temp\cciNYDRP.s:24236  .debug_str:000000000000e252 .LASF2863
C:\Users\CYMR90~1\AppData\Local\Temp\cciNYDRP.s:28207  .debug_str:000000000001e319 .LASF2864
C:\Users\CYMR90~1\AppData\Local\Temp\cciNYDRP.s:21942  .debug_str:0000000000004e3d .LASF2865
C:\Users\CYMR90~1\AppData\Local\Temp\cciNYDRP.s:31471  .debug_str:000000000002af18 .LASF2866
C:\Users\CYMR90~1\AppData\Local\Temp\cciNYDRP.s:29659  .debug_str:0000000000023ac3 .LASF2867
C:\Users\CYMR90~1\AppData\Local\Temp\cciNYDRP.s:30469  .debug_str:0000000000027012 .LASF2868
C:\Users\CYMR90~1\AppData\Local\Temp\cciNYDRP.s:22372  .debug_str:0000000000006870 .LASF2869
C:\Users\CYMR90~1\AppData\Local\Temp\cciNYDRP.s:31975  .debug_str:000000000002d0d6 .LASF2870
C:\Users\CYMR90~1\AppData\Local\Temp\cciNYDRP.s:21458  .debug_str:0000000000002e3c .LASF2871
C:\Users\CYMR90~1\AppData\Local\Temp\cciNYDRP.s:21186  .debug_str:0000000000001dae .LASF2872
C:\Users\CYMR90~1\AppData\Local\Temp\cciNYDRP.s:28235  .debug_str:000000000001e4b2 .LASF2873
C:\Users\CYMR90~1\AppData\Local\Temp\cciNYDRP.s:21434  .debug_str:0000000000002cc5 .LASF2874
C:\Users\CYMR90~1\AppData\Local\Temp\cciNYDRP.s:20754  .debug_str:0000000000000324 .LASF2875
C:\Users\CYMR90~1\AppData\Local\Temp\cciNYDRP.s:31761  .debug_str:000000000002c2aa .LASF2876
C:\Users\CYMR90~1\AppData\Local\Temp\cciNYDRP.s:30371  .debug_str:0000000000026a3c .LASF2877
C:\Users\CYMR90~1\AppData\Local\Temp\cciNYDRP.s:22164  .debug_str:0000000000005b99 .LASF2878
C:\Users\CYMR90~1\AppData\Local\Temp\cciNYDRP.s:31445  .debug_str:000000000002adac .LASF2879
C:\Users\CYMR90~1\AppData\Local\Temp\cciNYDRP.s:27805  .debug_str:000000000001c8c8 .LASF2880
C:\Users\CYMR90~1\AppData\Local\Temp\cciNYDRP.s:28801  .debug_str:000000000002074e .LASF2881
C:\Users\CYMR90~1\AppData\Local\Temp\cciNYDRP.s:24608  .debug_str:000000000000f961 .LASF2882
C:\Users\CYMR90~1\AppData\Local\Temp\cciNYDRP.s:23750  .debug_str:000000000000c29f .LASF2883
C:\Users\CYMR90~1\AppData\Local\Temp\cciNYDRP.s:27537  .debug_str:000000000001b815 .LASF2884
C:\Users\CYMR90~1\AppData\Local\Temp\cciNYDRP.s:30777  .debug_str:0000000000028511 .LASF2885
C:\Users\CYMR90~1\AppData\Local\Temp\cciNYDRP.s:29203  .debug_str:0000000000021fd6 .LASF2886
C:\Users\CYMR90~1\AppData\Local\Temp\cciNYDRP.s:27527  .debug_str:000000000001b76e .LASF2887
C:\Users\CYMR90~1\AppData\Local\Temp\cciNYDRP.s:21782  .debug_str:0000000000004390 .LASF2888
C:\Users\CYMR90~1\AppData\Local\Temp\cciNYDRP.s:27851  .debug_str:000000000001cba1 .LASF2889
C:\Users\CYMR90~1\AppData\Local\Temp\cciNYDRP.s:31039  .debug_str:0000000000029503 .LASF2890
C:\Users\CYMR90~1\AppData\Local\Temp\cciNYDRP.s:30167  .debug_str:0000000000025d8f .LASF2891
C:\Users\CYMR90~1\AppData\Local\Temp\cciNYDRP.s:27985  .debug_str:000000000001d4f6 .LASF2892
C:\Users\CYMR90~1\AppData\Local\Temp\cciNYDRP.s:24048  .debug_str:000000000000d738 .LASF2893
C:\Users\CYMR90~1\AppData\Local\Temp\cciNYDRP.s:31535  .debug_str:000000000002b36e .LASF2894
C:\Users\CYMR90~1\AppData\Local\Temp\cciNYDRP.s:26663  .debug_str:0000000000017e64 .LASF2895
C:\Users\CYMR90~1\AppData\Local\Temp\cciNYDRP.s:21654  .debug_str:0000000000003b18 .LASF2896
C:\Users\CYMR90~1\AppData\Local\Temp\cciNYDRP.s:31575  .debug_str:000000000002b5f1 .LASF2897
C:\Users\CYMR90~1\AppData\Local\Temp\cciNYDRP.s:24308  .debug_str:000000000000e6f4 .LASF2898
C:\Users\CYMR90~1\AppData\Local\Temp\cciNYDRP.s:24426  .debug_str:000000000000edc2 .LASF2899
C:\Users\CYMR90~1\AppData\Local\Temp\cciNYDRP.s:25884  .debug_str:0000000000014bc9 .LASF2900
C:\Users\CYMR90~1\AppData\Local\Temp\cciNYDRP.s:25788  .debug_str:00000000000145f9 .LASF2901
C:\Users\CYMR90~1\AppData\Local\Temp\cciNYDRP.s:24454  .debug_str:000000000000ef67 .LASF2902
C:\Users\CYMR90~1\AppData\Local\Temp\cciNYDRP.s:24132  .debug_str:000000000000dbeb .LASF2903
C:\Users\CYMR90~1\AppData\Local\Temp\cciNYDRP.s:29597  .debug_str:000000000002372e .LASF2904
C:\Users\CYMR90~1\AppData\Local\Temp\cciNYDRP.s:26475  .debug_str:00000000000172e5 .LASF2905
C:\Users\CYMR90~1\AppData\Local\Temp\cciNYDRP.s:25574  .debug_str:00000000000138db .LASF2906
C:\Users\CYMR90~1\AppData\Local\Temp\cciNYDRP.s:22864  .debug_str:000000000000897d .LASF2907
C:\Users\CYMR90~1\AppData\Local\Temp\cciNYDRP.s:31291  .debug_str:000000000002a43e .LASF2908
C:\Users\CYMR90~1\AppData\Local\Temp\cciNYDRP.s:31753  .debug_str:000000000002c234 .LASF2909
C:\Users\CYMR90~1\AppData\Local\Temp\cciNYDRP.s:25972  .debug_str:0000000000015197 .LASF2910
C:\Users\CYMR90~1\AppData\Local\Temp\cciNYDRP.s:22012  .debug_str:0000000000005259 .LASF2911
C:\Users\CYMR90~1\AppData\Local\Temp\cciNYDRP.s:26156  .debug_str:0000000000015c97 .LASF2912
C:\Users\CYMR90~1\AppData\Local\Temp\cciNYDRP.s:31717  .debug_str:000000000002bff0 .LASF2913
C:\Users\CYMR90~1\AppData\Local\Temp\cciNYDRP.s:24804  .debug_str:000000000001058a .LASF2914
C:\Users\CYMR90~1\AppData\Local\Temp\cciNYDRP.s:23278  .debug_str:000000000000a3a1 .LASF2915
C:\Users\CYMR90~1\AppData\Local\Temp\cciNYDRP.s:20848  .debug_str:0000000000000864 .LASF2916
C:\Users\CYMR90~1\AppData\Local\Temp\cciNYDRP.s:28795  .debug_str:00000000000206f7 .LASF2917
C:\Users\CYMR90~1\AppData\Local\Temp\cciNYDRP.s:31823  .debug_str:000000000002c6bb .LASF2918
C:\Users\CYMR90~1\AppData\Local\Temp\cciNYDRP.s:29723  .debug_str:0000000000023e4b .LASF2919
C:\Users\CYMR90~1\AppData\Local\Temp\cciNYDRP.s:29103  .debug_str:00000000000219e3 .LASF2920
C:\Users\CYMR90~1\AppData\Local\Temp\cciNYDRP.s:30363  .debug_str:00000000000269b9 .LASF2921
C:\Users\CYMR90~1\AppData\Local\Temp\cciNYDRP.s:31951  .debug_str:000000000002cf56 .LASF2922
C:\Users\CYMR90~1\AppData\Local\Temp\cciNYDRP.s:24326  .debug_str:000000000000e7f6 .LASF2923
C:\Users\CYMR90~1\AppData\Local\Temp\cciNYDRP.s:27663  .debug_str:000000000001bfa1 .LASF2924
C:\Users\CYMR90~1\AppData\Local\Temp\cciNYDRP.s:29355  .debug_str:00000000000228a4 .LASF2925
C:\Users\CYMR90~1\AppData\Local\Temp\cciNYDRP.s:24928  .debug_str:0000000000010e1c .LASF2926
C:\Users\CYMR90~1\AppData\Local\Temp\cciNYDRP.s:24046  .debug_str:000000000000d71f .LASF2927
C:\Users\CYMR90~1\AppData\Local\Temp\cciNYDRP.s:28785  .debug_str:0000000000020665 .LASF2928
C:\Users\CYMR90~1\AppData\Local\Temp\cciNYDRP.s:31151  .debug_str:0000000000029c03 .LASF2929
C:\Users\CYMR90~1\AppData\Local\Temp\cciNYDRP.s:23702  .debug_str:000000000000bfbf .LASF2930
C:\Users\CYMR90~1\AppData\Local\Temp\cciNYDRP.s:22478  .debug_str:0000000000006f78 .LASF2931
C:\Users\CYMR90~1\AppData\Local\Temp\cciNYDRP.s:28955  .debug_str:0000000000021055 .LASF2932
C:\Users\CYMR90~1\AppData\Local\Temp\cciNYDRP.s:31175  .debug_str:0000000000029d5a .LASF2933
C:\Users\CYMR90~1\AppData\Local\Temp\cciNYDRP.s:21442  .debug_str:0000000000002d47 .LASF2934
C:\Users\CYMR90~1\AppData\Local\Temp\cciNYDRP.s:23762  .debug_str:000000000000c36b .LASF2935
C:\Users\CYMR90~1\AppData\Local\Temp\cciNYDRP.s:24260  .debug_str:000000000000e3bd .LASF2936
C:\Users\CYMR90~1\AppData\Local\Temp\cciNYDRP.s:31565  .debug_str:000000000002b570 .LASF2937
C:\Users\CYMR90~1\AppData\Local\Temp\cciNYDRP.s:22446  .debug_str:0000000000006d23 .LASF2938
C:\Users\CYMR90~1\AppData\Local\Temp\cciNYDRP.s:28681  .debug_str:000000000001ffcb .LASF2939
C:\Users\CYMR90~1\AppData\Local\Temp\cciNYDRP.s:24640  .debug_str:000000000000fb70 .LASF2940
C:\Users\CYMR90~1\AppData\Local\Temp\cciNYDRP.s:26487  .debug_str:00000000000173a5 .LASF2941
C:\Users\CYMR90~1\AppData\Local\Temp\cciNYDRP.s:23092  .debug_str:00000000000097de .LASF2942
C:\Users\CYMR90~1\AppData\Local\Temp\cciNYDRP.s:23196  .debug_str:0000000000009e7d .LASF2943
C:\Users\CYMR90~1\AppData\Local\Temp\cciNYDRP.s:24210  .debug_str:000000000000e098 .LASF2944
C:\Users\CYMR90~1\AppData\Local\Temp\cciNYDRP.s:23310  .debug_str:000000000000a547 .LASF2945
C:\Users\CYMR90~1\AppData\Local\Temp\cciNYDRP.s:29949  .debug_str:0000000000024e38 .LASF2946
C:\Users\CYMR90~1\AppData\Local\Temp\cciNYDRP.s:24380  .debug_str:000000000000eb71 .LASF2947
C:\Users\CYMR90~1\AppData\Local\Temp\cciNYDRP.s:24944  .debug_str:0000000000010ee1 .LASF2948
C:\Users\CYMR90~1\AppData\Local\Temp\cciNYDRP.s:30703  .debug_str:0000000000027fc8 .LASF2949
C:\Users\CYMR90~1\AppData\Local\Temp\cciNYDRP.s:22832  .debug_str:000000000000877b .LASF2950
C:\Users\CYMR90~1\AppData\Local\Temp\cciNYDRP.s:31645  .debug_str:000000000002bad9 .LASF2951
C:\Users\CYMR90~1\AppData\Local\Temp\cciNYDRP.s:30797  .debug_str:0000000000028690 .LASF2952
C:\Users\CYMR90~1\AppData\Local\Temp\cciNYDRP.s:31069  .debug_str:000000000002974b .LASF2953
C:\Users\CYMR90~1\AppData\Local\Temp\cciNYDRP.s:21702  .debug_str:0000000000003e64 .LASF2954
C:\Users\CYMR90~1\AppData\Local\Temp\cciNYDRP.s:27715  .debug_str:000000000001c2d7 .LASF2955
C:\Users\CYMR90~1\AppData\Local\Temp\cciNYDRP.s:27517  .debug_str:000000000001b6d2 .LASF2956
C:\Users\CYMR90~1\AppData\Local\Temp\cciNYDRP.s:29963  .debug_str:0000000000024ef5 .LASF2957
C:\Users\CYMR90~1\AppData\Local\Temp\cciNYDRP.s:24052  .debug_str:000000000000d77c .LASF2958
C:\Users\CYMR90~1\AppData\Local\Temp\cciNYDRP.s:27131  .debug_str:0000000000019ce3 .LASF2959
C:\Users\CYMR90~1\AppData\Local\Temp\cciNYDRP.s:20978  .debug_str:00000000000010f9 .LASF2960
C:\Users\CYMR90~1\AppData\Local\Temp\cciNYDRP.s:24424  .debug_str:000000000000eda8 .LASF2961
C:\Users\CYMR90~1\AppData\Local\Temp\cciNYDRP.s:27719  .debug_str:000000000001c30b .LASF2962
C:\Users\CYMR90~1\AppData\Local\Temp\cciNYDRP.s:31083  .debug_str:00000000000297f3 .LASF2963
C:\Users\CYMR90~1\AppData\Local\Temp\cciNYDRP.s:21102  .debug_str:00000000000018c5 .LASF2964
C:\Users\CYMR90~1\AppData\Local\Temp\cciNYDRP.s:23162  .debug_str:0000000000009c47 .LASF2965
C:\Users\CYMR90~1\AppData\Local\Temp\cciNYDRP.s:30501  .debug_str:00000000000272da .LASF2966
C:\Users\CYMR90~1\AppData\Local\Temp\cciNYDRP.s:22716  .debug_str:0000000000008026 .LASF2967
C:\Users\CYMR90~1\AppData\Local\Temp\cciNYDRP.s:24218  .debug_str:000000000000e133 .LASF2968
C:\Users\CYMR90~1\AppData\Local\Temp\cciNYDRP.s:29725  .debug_str:0000000000023e77 .LASF2969
C:\Users\CYMR90~1\AppData\Local\Temp\cciNYDRP.s:27059  .debug_str:000000000001986a .LASF2970
C:\Users\CYMR90~1\AppData\Local\Temp\cciNYDRP.s:28551  .debug_str:000000000001f7a7 .LASF2971
C:\Users\CYMR90~1\AppData\Local\Temp\cciNYDRP.s:28403  .debug_str:000000000001ee9c .LASF2972
C:\Users\CYMR90~1\AppData\Local\Temp\cciNYDRP.s:22690  .debug_str:0000000000007dc9 .LASF2973
C:\Users\CYMR90~1\AppData\Local\Temp\cciNYDRP.s:30689  .debug_str:0000000000027e9f .LASF2974
C:\Users\CYMR90~1\AppData\Local\Temp\cciNYDRP.s:30189  .debug_str:0000000000025f05 .LASF2975
C:\Users\CYMR90~1\AppData\Local\Temp\cciNYDRP.s:29957  .debug_str:0000000000024eb0 .LASF2976
C:\Users\CYMR90~1\AppData\Local\Temp\cciNYDRP.s:21682  .debug_str:0000000000003ce2 .LASF2977
C:\Users\CYMR90~1\AppData\Local\Temp\cciNYDRP.s:28933  .debug_str:0000000000020f2f .LASF2978
C:\Users\CYMR90~1\AppData\Local\Temp\cciNYDRP.s:24914  .debug_str:0000000000010d57 .LASF2979
C:\Users\CYMR90~1\AppData\Local\Temp\cciNYDRP.s:30439  .debug_str:0000000000026e7f .LASF2980
C:\Users\CYMR90~1\AppData\Local\Temp\cciNYDRP.s:29601  .debug_str:000000000002376b .LASF2981
C:\Users\CYMR90~1\AppData\Local\Temp\cciNYDRP.s:26429  .debug_str:0000000000017063 .LASF2982
C:\Users\CYMR90~1\AppData\Local\Temp\cciNYDRP.s:26176  .debug_str:0000000000015e06 .LASF2983
C:\Users\CYMR90~1\AppData\Local\Temp\cciNYDRP.s:28429  .debug_str:000000000001f056 .LASF2984
C:\Users\CYMR90~1\AppData\Local\Temp\cciNYDRP.s:24874  .debug_str:0000000000010a9d .LASF2985
C:\Users\CYMR90~1\AppData\Local\Temp\cciNYDRP.s:25000  .debug_str:000000000001123e .LASF2986
C:\Users\CYMR90~1\AppData\Local\Temp\cciNYDRP.s:24396  .debug_str:000000000000ec40 .LASF2987
C:\Users\CYMR90~1\AppData\Local\Temp\cciNYDRP.s:24534  .debug_str:000000000000f46d .LASF2988
C:\Users\CYMR90~1\AppData\Local\Temp\cciNYDRP.s:28153  .debug_str:000000000001dfe2 .LASF2989
C:\Users\CYMR90~1\AppData\Local\Temp\cciNYDRP.s:30817  .debug_str:00000000000287e8 .LASF2990
C:\Users\CYMR90~1\AppData\Local\Temp\cciNYDRP.s:26294  .debug_str:000000000001659e .LASF2991
C:\Users\CYMR90~1\AppData\Local\Temp\cciNYDRP.s:29719  .debug_str:0000000000023e1c .LASF2992
C:\Users\CYMR90~1\AppData\Local\Temp\cciNYDRP.s:21246  .debug_str:00000000000020af .LASF2993
C:\Users\CYMR90~1\AppData\Local\Temp\cciNYDRP.s:22470  .debug_str:0000000000006ed0 .LASF2994
C:\Users\CYMR90~1\AppData\Local\Temp\cciNYDRP.s:30869  .debug_str:0000000000028b04 .LASF2995
C:\Users\CYMR90~1\AppData\Local\Temp\cciNYDRP.s:23212  .debug_str:0000000000009f72 .LASF2996
C:\Users\CYMR90~1\AppData\Local\Temp\cciNYDRP.s:25678  .debug_str:0000000000013f0a .LASF2997
C:\Users\CYMR90~1\AppData\Local\Temp\cciNYDRP.s:24356  .debug_str:000000000000e9e1 .LASF2998
C:\Users\CYMR90~1\AppData\Local\Temp\cciNYDRP.s:26022  .debug_str:000000000001548c .LASF2999
C:\Users\CYMR90~1\AppData\Local\Temp\cciNYDRP.s:28873  .debug_str:0000000000020be9 .LASF3000
C:\Users\CYMR90~1\AppData\Local\Temp\cciNYDRP.s:26817  .debug_str:000000000001876f .LASF3001
C:\Users\CYMR90~1\AppData\Local\Temp\cciNYDRP.s:28731  .debug_str:000000000002027b .LASF3002
C:\Users\CYMR90~1\AppData\Local\Temp\cciNYDRP.s:30965  .debug_str:00000000000290d2 .LASF3003
C:\Users\CYMR90~1\AppData\Local\Temp\cciNYDRP.s:29373  .debug_str:0000000000022994 .LASF3004
C:\Users\CYMR90~1\AppData\Local\Temp\cciNYDRP.s:23774  .debug_str:000000000000c414 .LASF3005
C:\Users\CYMR90~1\AppData\Local\Temp\cciNYDRP.s:31773  .debug_str:000000000002c3d1 .LASF3006
C:\Users\CYMR90~1\AppData\Local\Temp\cciNYDRP.s:28521  .debug_str:000000000001f5dc .LASF3007
C:\Users\CYMR90~1\AppData\Local\Temp\cciNYDRP.s:30483  .debug_str:000000000002710a .LASF3008
C:\Users\CYMR90~1\AppData\Local\Temp\cciNYDRP.s:30223  .debug_str:000000000002611c .LASF3009
C:\Users\CYMR90~1\AppData\Local\Temp\cciNYDRP.s:23676  .debug_str:000000000000be28 .LASF3010
C:\Users\CYMR90~1\AppData\Local\Temp\cciNYDRP.s:26068  .debug_str:00000000000156fc .LASF3011
C:\Users\CYMR90~1\AppData\Local\Temp\cciNYDRP.s:25974  .debug_str:00000000000151c2 .LASF3012
C:\Users\CYMR90~1\AppData\Local\Temp\cciNYDRP.s:26883  .debug_str:0000000000018c6c .LASF3013
C:\Users\CYMR90~1\AppData\Local\Temp\cciNYDRP.s:28557  .debug_str:000000000001f80c .LASF3014
C:\Users\CYMR90~1\AppData\Local\Temp\cciNYDRP.s:29071  .debug_str:00000000000217ed .LASF3015
C:\Users\CYMR90~1\AppData\Local\Temp\cciNYDRP.s:31907  .debug_str:000000000002cc3d .LASF3016
C:\Users\CYMR90~1\AppData\Local\Temp\cciNYDRP.s:24590  .debug_str:000000000000f86b .LASF3017
C:\Users\CYMR90~1\AppData\Local\Temp\cciNYDRP.s:21456  .debug_str:0000000000002e10 .LASF3018
C:\Users\CYMR90~1\AppData\Local\Temp\cciNYDRP.s:24444  .debug_str:000000000000eee0 .LASF3019
C:\Users\CYMR90~1\AppData\Local\Temp\cciNYDRP.s:28755  .debug_str:000000000002043a .LASF3020
C:\Users\CYMR90~1\AppData\Local\Temp\cciNYDRP.s:26046  .debug_str:00000000000155c6 .LASF3021
C:\Users\CYMR90~1\AppData\Local\Temp\cciNYDRP.s:25062  .debug_str:0000000000011627 .LASF3022
C:\Users\CYMR90~1\AppData\Local\Temp\cciNYDRP.s:27659  .debug_str:000000000001bf6a .LASF3023
C:\Users\CYMR90~1\AppData\Local\Temp\cciNYDRP.s:26697  .debug_str:000000000001803a .LASF3024
C:\Users\CYMR90~1\AppData\Local\Temp\cciNYDRP.s:28589  .debug_str:000000000001fa16 .LASF3025
C:\Users\CYMR90~1\AppData\Local\Temp\cciNYDRP.s:24876  .debug_str:0000000000010ab5 .LASF3026
C:\Users\CYMR90~1\AppData\Local\Temp\cciNYDRP.s:30747  .debug_str:0000000000028314 .LASF3027
C:\Users\CYMR90~1\AppData\Local\Temp\cciNYDRP.s:22936  .debug_str:0000000000008e39 .LASF3028
C:\Users\CYMR90~1\AppData\Local\Temp\cciNYDRP.s:22020  .debug_str:00000000000052f7 .LASF3029
C:\Users\CYMR90~1\AppData\Local\Temp\cciNYDRP.s:21086  .debug_str:00000000000017da .LASF3030
C:\Users\CYMR90~1\AppData\Local\Temp\cciNYDRP.s:31455  .debug_str:000000000002ae4c .LASF3031
C:\Users\CYMR90~1\AppData\Local\Temp\cciNYDRP.s:29019  .debug_str:00000000000214d0 .LASF3032
C:\Users\CYMR90~1\AppData\Local\Temp\cciNYDRP.s:28045  .debug_str:000000000001d8d0 .LASF3033
C:\Users\CYMR90~1\AppData\Local\Temp\cciNYDRP.s:27217  .debug_str:000000000001a1d2 .LASF3034
C:\Users\CYMR90~1\AppData\Local\Temp\cciNYDRP.s:26218  .debug_str:00000000000160e4 .LASF3035
C:\Users\CYMR90~1\AppData\Local\Temp\cciNYDRP.s:25282  .debug_str:000000000001255a .LASF3036
C:\Users\CYMR90~1\AppData\Local\Temp\cciNYDRP.s:24318  .debug_str:000000000000e785 .LASF3037
C:\Users\CYMR90~1\AppData\Local\Temp\cciNYDRP.s:24462  .debug_str:000000000000efde .LASF3038
C:\Users\CYMR90~1\AppData\Local\Temp\cciNYDRP.s:30431  .debug_str:0000000000026dea .LASF3039
C:\Users\CYMR90~1\AppData\Local\Temp\cciNYDRP.s:30219  .debug_str:00000000000260c6 .LASF3040
C:\Users\CYMR90~1\AppData\Local\Temp\cciNYDRP.s:24778  .debug_str:0000000000010417 .LASF3041
C:\Users\CYMR90~1\AppData\Local\Temp\cciNYDRP.s:23630  .debug_str:000000000000babc .LASF3042
C:\Users\CYMR90~1\AppData\Local\Temp\cciNYDRP.s:22522  .debug_str:0000000000007281 .LASF3043
C:\Users\CYMR90~1\AppData\Local\Temp\cciNYDRP.s:27881  .debug_str:000000000001ce29 .LASF3044
C:\Users\CYMR90~1\AppData\Local\Temp\cciNYDRP.s:29499  .debug_str:00000000000230cf .LASF3045
C:\Users\CYMR90~1\AppData\Local\Temp\cciNYDRP.s:23810  .debug_str:000000000000c6c0 .LASF3046
C:\Users\CYMR90~1\AppData\Local\Temp\cciNYDRP.s:22088  .debug_str:00000000000056ee .LASF3047
C:\Users\CYMR90~1\AppData\Local\Temp\cciNYDRP.s:21874  .debug_str:0000000000004a0b .LASF3048
C:\Users\CYMR90~1\AppData\Local\Temp\cciNYDRP.s:27797  .debug_str:000000000001c83e .LASF3049
C:\Users\CYMR90~1\AppData\Local\Temp\cciNYDRP.s:26310  .debug_str:0000000000016694 .LASF3050
C:\Users\CYMR90~1\AppData\Local\Temp\cciNYDRP.s:21388  .debug_str:00000000000029db .LASF3051
C:\Users\CYMR90~1\AppData\Local\Temp\cciNYDRP.s:31845  .debug_str:000000000002c861 .LASF3052
C:\Users\CYMR90~1\AppData\Local\Temp\cciNYDRP.s:30787  .debug_str:00000000000285c2 .LASF3053
C:\Users\CYMR90~1\AppData\Local\Temp\cciNYDRP.s:21844  .debug_str:0000000000004848 .LASF3054
C:\Users\CYMR90~1\AppData\Local\Temp\cciNYDRP.s:27639  .debug_str:000000000001be26 .LASF3055
C:\Users\CYMR90~1\AppData\Local\Temp\cciNYDRP.s:24880  .debug_str:0000000000010afa .LASF3056
C:\Users\CYMR90~1\AppData\Local\Temp\cciNYDRP.s:28605  .debug_str:000000000001fb12 .LASF3057
C:\Users\CYMR90~1\AppData\Local\Temp\cciNYDRP.s:20788  .debug_str:00000000000004fe .LASF3058
C:\Users\CYMR90~1\AppData\Local\Temp\cciNYDRP.s:25462  .debug_str:0000000000013145 .LASF3059
C:\Users\CYMR90~1\AppData\Local\Temp\cciNYDRP.s:30165  .debug_str:0000000000025d6d .LASF3060
C:\Users\CYMR90~1\AppData\Local\Temp\cciNYDRP.s:25364  .debug_str:0000000000012add .LASF3061
C:\Users\CYMR90~1\AppData\Local\Temp\cciNYDRP.s:22240  .debug_str:000000000000603e .LASF3062
C:\Users\CYMR90~1\AppData\Local\Temp\cciNYDRP.s:26661  .debug_str:0000000000017e4c .LASF3063
C:\Users\CYMR90~1\AppData\Local\Temp\cciNYDRP.s:25126  .debug_str:0000000000011b57 .LASF3064
C:\Users\CYMR90~1\AppData\Local\Temp\cciNYDRP.s:23672  .debug_str:000000000000bde6 .LASF3065
C:\Users\CYMR90~1\AppData\Local\Temp\cciNYDRP.s:27501  .debug_str:000000000001b5ba .LASF3066
C:\Users\CYMR90~1\AppData\Local\Temp\cciNYDRP.s:24020  .debug_str:000000000000d5af .LASF3067
C:\Users\CYMR90~1\AppData\Local\Temp\cciNYDRP.s:23004  .debug_str:0000000000009217 .LASF3068
C:\Users\CYMR90~1\AppData\Local\Temp\cciNYDRP.s:29865  .debug_str:00000000000248e8 .LASF3069
C:\Users\CYMR90~1\AppData\Local\Temp\cciNYDRP.s:25168  .debug_str:0000000000011ddf .LASF3070
C:\Users\CYMR90~1\AppData\Local\Temp\cciNYDRP.s:29465  .debug_str:0000000000022f2c .LASF3071
C:\Users\CYMR90~1\AppData\Local\Temp\cciNYDRP.s:23336  .debug_str:000000000000a70b .LASF3072
C:\Users\CYMR90~1\AppData\Local\Temp\cciNYDRP.s:27075  .debug_str:000000000001998e .LASF3073
C:\Users\CYMR90~1\AppData\Local\Temp\cciNYDRP.s:30393  .debug_str:0000000000026b6f .LASF3074
C:\Users\CYMR90~1\AppData\Local\Temp\cciNYDRP.s:24050  .debug_str:000000000000d757 .LASF3075
C:\Users\CYMR90~1\AppData\Local\Temp\cciNYDRP.s:22136  .debug_str:00000000000059f3 .LASF3076
C:\Users\CYMR90~1\AppData\Local\Temp\cciNYDRP.s:23654  .debug_str:000000000000bca3 .LASF3077
C:\Users\CYMR90~1\AppData\Local\Temp\cciNYDRP.s:22428  .debug_str:0000000000006c28 .LASF3078
C:\Users\CYMR90~1\AppData\Local\Temp\cciNYDRP.s:24344  .debug_str:000000000000e94a .LASF3079
C:\Users\CYMR90~1\AppData\Local\Temp\cciNYDRP.s:20934  .debug_str:0000000000000e69 .LASF3080
C:\Users\CYMR90~1\AppData\Local\Temp\cciNYDRP.s:31589  .debug_str:000000000002b705 .LASF3081
C:\Users\CYMR90~1\AppData\Local\Temp\cciNYDRP.s:31191  .debug_str:0000000000029e3b .LASF3082
C:\Users\CYMR90~1\AppData\Local\Temp\cciNYDRP.s:28601  .debug_str:000000000001fad4 .LASF3083
C:\Users\CYMR90~1\AppData\Local\Temp\cciNYDRP.s:21746  .debug_str:000000000000415a .LASF3084
C:\Users\CYMR90~1\AppData\Local\Temp\cciNYDRP.s:28167  .debug_str:000000000001e0cb .LASF3085
C:\Users\CYMR90~1\AppData\Local\Temp\cciNYDRP.s:28563  .debug_str:000000000001f856 .LASF3086
C:\Users\CYMR90~1\AppData\Local\Temp\cciNYDRP.s:30541  .debug_str:0000000000027509 .LASF3087
C:\Users\CYMR90~1\AppData\Local\Temp\cciNYDRP.s:25758  .debug_str:00000000000143f2 .LASF3088
C:\Users\CYMR90~1\AppData\Local\Temp\cciNYDRP.s:26316  .debug_str:00000000000166ef .LASF3089
C:\Users\CYMR90~1\AppData\Local\Temp\cciNYDRP.s:21178  .debug_str:0000000000001d31 .LASF3090
C:\Users\CYMR90~1\AppData\Local\Temp\cciNYDRP.s:28549  .debug_str:000000000001f76d .LASF3091
C:\Users\CYMR90~1\AppData\Local\Temp\cciNYDRP.s:28501  .debug_str:000000000001f4b0 .LASF3092
C:\Users\CYMR90~1\AppData\Local\Temp\cciNYDRP.s:27613  .debug_str:000000000001bc61 .LASF3093
C:\Users\CYMR90~1\AppData\Local\Temp\cciNYDRP.s:21346  .debug_str:0000000000002733 .LASF3094
C:\Users\CYMR90~1\AppData\Local\Temp\cciNYDRP.s:30035  .debug_str:0000000000025495 .LASF3095
C:\Users\CYMR90~1\AppData\Local\Temp\cciNYDRP.s:23940  .debug_str:000000000000cfd7 .LASF3096
C:\Users\CYMR90~1\AppData\Local\Temp\cciNYDRP.s:21700  .debug_str:0000000000003e3e .LASF3097
C:\Users\CYMR90~1\AppData\Local\Temp\cciNYDRP.s:21438  .debug_str:0000000000002cfc .LASF3098
C:\Users\CYMR90~1\AppData\Local\Temp\cciNYDRP.s:22828  .debug_str:000000000000873d .LASF3099
C:\Users\CYMR90~1\AppData\Local\Temp\cciNYDRP.s:28159  .debug_str:000000000001e02d .LASF3100
C:\Users\CYMR90~1\AppData\Local\Temp\cciNYDRP.s:29301  .debug_str:0000000000022572 .LASF3101
C:\Users\CYMR90~1\AppData\Local\Temp\cciNYDRP.s:23204  .debug_str:0000000000009eff .LASF3102
C:\Users\CYMR90~1\AppData\Local\Temp\cciNYDRP.s:24138  .debug_str:000000000000dc3c .LASF3103
C:\Users\CYMR90~1\AppData\Local\Temp\cciNYDRP.s:26108  .debug_str:0000000000015975 .LASF3104
C:\Users\CYMR90~1\AppData\Local\Temp\cciNYDRP.s:24180  .debug_str:000000000000deea .LASF3105
C:\Users\CYMR90~1\AppData\Local\Temp\cciNYDRP.s:27393  .debug_str:000000000001af39 .LASF3106
C:\Users\CYMR90~1\AppData\Local\Temp\cciNYDRP.s:27035  .debug_str:000000000001965a .LASF3107
C:\Users\CYMR90~1\AppData\Local\Temp\cciNYDRP.s:23662  .debug_str:000000000000bd27 .LASF3108
C:\Users\CYMR90~1\AppData\Local\Temp\cciNYDRP.s:28759  .debug_str:000000000002047c .LASF3109
C:\Users\CYMR90~1\AppData\Local\Temp\cciNYDRP.s:26593  .debug_str:0000000000017a66 .LASF3110
C:\Users\CYMR90~1\AppData\Local\Temp\cciNYDRP.s:30781  .debug_str:0000000000028550 .LASF3111
C:\Users\CYMR90~1\AppData\Local\Temp\cciNYDRP.s:28261  .debug_str:000000000001e651 .LASF3112
C:\Users\CYMR90~1\AppData\Local\Temp\cciNYDRP.s:27589  .debug_str:000000000001baa0 .LASF3113
C:\Users\CYMR90~1\AppData\Local\Temp\cciNYDRP.s:30659  .debug_str:0000000000027ca6 .LASF3114
C:\Users\CYMR90~1\AppData\Local\Temp\cciNYDRP.s:21204  .debug_str:0000000000001e9c .LASF3115
C:\Users\CYMR90~1\AppData\Local\Temp\cciNYDRP.s:24370  .debug_str:000000000000ead8 .LASF3116
C:\Users\CYMR90~1\AppData\Local\Temp\cciNYDRP.s:24412  .debug_str:000000000000ed01 .LASF3117
C:\Users\CYMR90~1\AppData\Local\Temp\cciNYDRP.s:30307  .debug_str:000000000002663a .LASF3118
C:\Users\CYMR90~1\AppData\Local\Temp\cciNYDRP.s:30665  .debug_str:0000000000027d06 .LASF3119
C:\Users\CYMR90~1\AppData\Local\Temp\cciNYDRP.s:26687  .debug_str:0000000000017fbe .LASF3120
C:\Users\CYMR90~1\AppData\Local\Temp\cciNYDRP.s:29407  .debug_str:0000000000022c00 .LASF3121
C:\Users\CYMR90~1\AppData\Local\Temp\cciNYDRP.s:21048  .debug_str:00000000000014b6 .LASF3122
C:\Users\CYMR90~1\AppData\Local\Temp\cciNYDRP.s:21340  .debug_str:00000000000026d7 .LASF3123
C:\Users\CYMR90~1\AppData\Local\Temp\cciNYDRP.s:31267  .debug_str:000000000002a284 .LASF3124
C:\Users\CYMR90~1\AppData\Local\Temp\cciNYDRP.s:22224  .debug_str:0000000000005f65 .LASF3125
C:\Users\CYMR90~1\AppData\Local\Temp\cciNYDRP.s:25466  .debug_str:0000000000013187 .LASF3126
C:\Users\CYMR90~1\AppData\Local\Temp\cciNYDRP.s:24010  .debug_str:000000000000d4f7 .LASF3127
C:\Users\CYMR90~1\AppData\Local\Temp\cciNYDRP.s:28981  .debug_str:00000000000211cd .LASF3128
C:\Users\CYMR90~1\AppData\Local\Temp\cciNYDRP.s:27043  .debug_str:0000000000019719 .LASF3129
C:\Users\CYMR90~1\AppData\Local\Temp\cciNYDRP.s:23184  .debug_str:0000000000009da5 .LASF3130
C:\Users\CYMR90~1\AppData\Local\Temp\cciNYDRP.s:22940  .debug_str:0000000000008e76 .LASF3131
C:\Users\CYMR90~1\AppData\Local\Temp\cciNYDRP.s:23530  .debug_str:000000000000b3fe .LASF3132
C:\Users\CYMR90~1\AppData\Local\Temp\cciNYDRP.s:21776  .debug_str:000000000000432a .LASF3133
C:\Users\CYMR90~1\AppData\Local\Temp\cciNYDRP.s:24898  .debug_str:0000000000010c90 .LASF3134
C:\Users\CYMR90~1\AppData\Local\Temp\cciNYDRP.s:20994  .debug_str:00000000000011c2 .LASF3135
C:\Users\CYMR90~1\AppData\Local\Temp\cciNYDRP.s:22802  .debug_str:0000000000008559 .LASF3136
C:\Users\CYMR90~1\AppData\Local\Temp\cciNYDRP.s:23610  .debug_str:000000000000b927 .LASF3137
C:\Users\CYMR90~1\AppData\Local\Temp\cciNYDRP.s:23558  .debug_str:000000000000b5f0 .LASF3138
C:\Users\CYMR90~1\AppData\Local\Temp\cciNYDRP.s:26479  .debug_str:0000000000017320 .LASF3139
C:\Users\CYMR90~1\AppData\Local\Temp\cciNYDRP.s:30389  .debug_str:0000000000026b36 .LASF3140
C:\Users\CYMR90~1\AppData\Local\Temp\cciNYDRP.s:23286  .debug_str:000000000000a40c .LASF3141
C:\Users\CYMR90~1\AppData\Local\Temp\cciNYDRP.s:21316  .debug_str:0000000000002522 .LASF3142
C:\Users\CYMR90~1\AppData\Local\Temp\cciNYDRP.s:28293  .debug_str:000000000001e861 .LASF3143
C:\Users\CYMR90~1\AppData\Local\Temp\cciNYDRP.s:21018  .debug_str:0000000000001337 .LASF3144
C:\Users\CYMR90~1\AppData\Local\Temp\cciNYDRP.s:26867  .debug_str:0000000000018acd .LASF3145
C:\Users\CYMR90~1\AppData\Local\Temp\cciNYDRP.s:21114  .debug_str:0000000000001981 .LASF3146
C:\Users\CYMR90~1\AppData\Local\Temp\cciNYDRP.s:31857  .debug_str:000000000002c94a .LASF3147
C:\Users\CYMR90~1\AppData\Local\Temp\cciNYDRP.s:26028  .debug_str:00000000000154ca .LASF3148
C:\Users\CYMR90~1\AppData\Local\Temp\cciNYDRP.s:29815  .debug_str:000000000002453e .LASF3149
C:\Users\CYMR90~1\AppData\Local\Temp\cciNYDRP.s:23218  .debug_str:0000000000009fd3 .LASF3150
C:\Users\CYMR90~1\AppData\Local\Temp\cciNYDRP.s:21138  .debug_str:0000000000001ad1 .LASF3151
C:\Users\CYMR90~1\AppData\Local\Temp\cciNYDRP.s:22246  .debug_str:00000000000060ac .LASF3152
C:\Users\CYMR90~1\AppData\Local\Temp\cciNYDRP.s:27467  .debug_str:000000000001b3bc .LASF3153
C:\Users\CYMR90~1\AppData\Local\Temp\cciNYDRP.s:21708  .debug_str:0000000000003ead .LASF3154
C:\Users\CYMR90~1\AppData\Local\Temp\cciNYDRP.s:22946  .debug_str:0000000000008ed9 .LASF3155
C:\Users\CYMR90~1\AppData\Local\Temp\cciNYDRP.s:22000  .debug_str:00000000000051b2 .LASF3156
C:\Users\CYMR90~1\AppData\Local\Temp\cciNYDRP.s:31357  .debug_str:000000000002a866 .LASF3157
C:\Users\CYMR90~1\AppData\Local\Temp\cciNYDRP.s:23686  .debug_str:000000000000bebf .LASF3158
C:\Users\CYMR90~1\AppData\Local\Temp\cciNYDRP.s:21354  .debug_str:00000000000027ae .LASF3159
C:\Users\CYMR90~1\AppData\Local\Temp\cciNYDRP.s:29265  .debug_str:0000000000022349 .LASF3160
C:\Users\CYMR90~1\AppData\Local\Temp\cciNYDRP.s:25938  .debug_str:0000000000014f8d .LASF3161
C:\Users\CYMR90~1\AppData\Local\Temp\cciNYDRP.s:22518  .debug_str:000000000000723a .LASF3162
C:\Users\CYMR90~1\AppData\Local\Temp\cciNYDRP.s:27447  .debug_str:000000000001b296 .LASF3163
C:\Users\CYMR90~1\AppData\Local\Temp\cciNYDRP.s:22134  .debug_str:00000000000059d4 .LASF3164
C:\Users\CYMR90~1\AppData\Local\Temp\cciNYDRP.s:23040  .debug_str:0000000000009486 .LASF3165
C:\Users\CYMR90~1\AppData\Local\Temp\cciNYDRP.s:25298  .debug_str:0000000000012673 .LASF3166
C:\Users\CYMR90~1\AppData\Local\Temp\cciNYDRP.s:29279  .debug_str:00000000000223ef .LASF3167
C:\Users\CYMR90~1\AppData\Local\Temp\cciNYDRP.s:30645  .debug_str:0000000000027b93 .LASF3168
C:\Users\CYMR90~1\AppData\Local\Temp\cciNYDRP.s:26677  .debug_str:0000000000017f32 .LASF3169
C:\Users\CYMR90~1\AppData\Local\Temp\cciNYDRP.s:24532  .debug_str:000000000000f44d .LASF3170
C:\Users\CYMR90~1\AppData\Local\Temp\cciNYDRP.s:29277  .debug_str:00000000000223d6 .LASF3171
C:\Users\CYMR90~1\AppData\Local\Temp\cciNYDRP.s:31093  .debug_str:0000000000029868 .LASF3172
C:\Users\CYMR90~1\AppData\Local\Temp\cciNYDRP.s:27309  .debug_str:000000000001a978 .LASF3173
C:\Users\CYMR90~1\AppData\Local\Temp\cciNYDRP.s:22384  .debug_str:000000000000693a .LASF3174
C:\Users\CYMR90~1\AppData\Local\Temp\cciNYDRP.s:22006  .debug_str:00000000000051f6 .LASF3175
C:\Users\CYMR90~1\AppData\Local\Temp\cciNYDRP.s:28205  .debug_str:000000000001e2fc .LASF3176
C:\Users\CYMR90~1\AppData\Local\Temp\cciNYDRP.s:24946  .debug_str:0000000000010ef9 .LASF3177
C:\Users\CYMR90~1\AppData\Local\Temp\cciNYDRP.s:29487  .debug_str:000000000002301e .LASF3178
C:\Users\CYMR90~1\AppData\Local\Temp\cciNYDRP.s:26533  .debug_str:000000000001766c .LASF3179
C:\Users\CYMR90~1\AppData\Local\Temp\cciNYDRP.s:29929  .debug_str:0000000000024cdf .LASF3180
C:\Users\CYMR90~1\AppData\Local\Temp\cciNYDRP.s:29315  .debug_str:0000000000022652 .LASF3181
C:\Users\CYMR90~1\AppData\Local\Temp\cciNYDRP.s:26589  .debug_str:0000000000017a3d .LASF3182
C:\Users\CYMR90~1\AppData\Local\Temp\cciNYDRP.s:31523  .debug_str:000000000002b29b .LASF3183
C:\Users\CYMR90~1\AppData\Local\Temp\cciNYDRP.s:31827  .debug_str:000000000002c717 .LASF3184
C:\Users\CYMR90~1\AppData\Local\Temp\cciNYDRP.s:30237  .debug_str:00000000000261c7 .LASF3185
C:\Users\CYMR90~1\AppData\Local\Temp\cciNYDRP.s:21660  .debug_str:0000000000003b8b .LASF3186
C:\Users\CYMR90~1\AppData\Local\Temp\cciNYDRP.s:24464  .debug_str:000000000000f00d .LASF3187
C:\Users\CYMR90~1\AppData\Local\Temp\cciNYDRP.s:21630  .debug_str:00000000000039b5 .LASF3188
C:\Users\CYMR90~1\AppData\Local\Temp\cciNYDRP.s:25012  .debug_str:00000000000112de .LASF3189
C:\Users\CYMR90~1\AppData\Local\Temp\cciNYDRP.s:24834  .debug_str:00000000000107fe .LASF3190
C:\Users\CYMR90~1\AppData\Local\Temp\cciNYDRP.s:22354  .debug_str:0000000000006758 .LASF3191
C:\Users\CYMR90~1\AppData\Local\Temp\cciNYDRP.s:25218  .debug_str:000000000001216a .LASF3192
C:\Users\CYMR90~1\AppData\Local\Temp\cciNYDRP.s:24878  .debug_str:0000000000010add .LASF3193
C:\Users\CYMR90~1\AppData\Local\Temp\cciNYDRP.s:22602  .debug_str:000000000000777a .LASF3194
C:\Users\CYMR90~1\AppData\Local\Temp\cciNYDRP.s:23292  .debug_str:000000000000a441 .LASF3195
C:\Users\CYMR90~1\AppData\Local\Temp\cciNYDRP.s:25698  .debug_str:000000000001406d .LASF3196
C:\Users\CYMR90~1\AppData\Local\Temp\cciNYDRP.s:28213  .debug_str:000000000001e36b .LASF3197
C:\Users\CYMR90~1\AppData\Local\Temp\cciNYDRP.s:21814  .debug_str:00000000000045ce .LASF3198
C:\Users\CYMR90~1\AppData\Local\Temp\cciNYDRP.s:28757  .debug_str:0000000000020466 .LASF3199
C:\Users\CYMR90~1\AppData\Local\Temp\cciNYDRP.s:29113  .debug_str:0000000000021a87 .LASF3200
C:\Users\CYMR90~1\AppData\Local\Temp\cciNYDRP.s:23094  .debug_str:00000000000097fa .LASF3201
C:\Users\CYMR90~1\AppData\Local\Temp\cciNYDRP.s:22432  .debug_str:0000000000006c5a .LASF3202
C:\Users\CYMR90~1\AppData\Local\Temp\cciNYDRP.s:22960  .debug_str:0000000000008f75 .LASF3203
C:\Users\CYMR90~1\AppData\Local\Temp\cciNYDRP.s:29147  .debug_str:0000000000021cb5 .LASF3204
C:\Users\CYMR90~1\AppData\Local\Temp\cciNYDRP.s:31681  .debug_str:000000000002bd2c .LASF3205
C:\Users\CYMR90~1\AppData\Local\Temp\cciNYDRP.s:22230  .debug_str:0000000000005fc4 .LASF3206
C:\Users\CYMR90~1\AppData\Local\Temp\cciNYDRP.s:20820  .debug_str:00000000000006cf .LASF3207
C:\Users\CYMR90~1\AppData\Local\Temp\cciNYDRP.s:21818  .debug_str:0000000000004627 .LASF3208
C:\Users\CYMR90~1\AppData\Local\Temp\cciNYDRP.s:25550  .debug_str:0000000000013784 .LASF3209
C:\Users\CYMR90~1\AppData\Local\Temp\cciNYDRP.s:25290  .debug_str:00000000000125e7 .LASF3210
C:\Users\CYMR90~1\AppData\Local\Temp\cciNYDRP.s:28839  .debug_str:0000000000020982 .LASF3211
C:\Users\CYMR90~1\AppData\Local\Temp\cciNYDRP.s:20764  .debug_str:00000000000003b6 .LASF3212
C:\Users\CYMR90~1\AppData\Local\Temp\cciNYDRP.s:28437  .debug_str:000000000001f0cf .LASF3213
C:\Users\CYMR90~1\AppData\Local\Temp\cciNYDRP.s:27297  .debug_str:000000000001a8bb .LASF3214
C:\Users\CYMR90~1\AppData\Local\Temp\cciNYDRP.s:28203  .debug_str:000000000001e2dc .LASF3215
C:\Users\CYMR90~1\AppData\Local\Temp\cciNYDRP.s:27789  .debug_str:000000000001c7a9 .LASF3216
C:\Users\CYMR90~1\AppData\Local\Temp\cciNYDRP.s:26657  .debug_str:0000000000017e16 .LASF3217
C:\Users\CYMR90~1\AppData\Local\Temp\cciNYDRP.s:25178  .debug_str:0000000000011e68 .LASF3218
C:\Users\CYMR90~1\AppData\Local\Temp\cciNYDRP.s:23176  .debug_str:0000000000009d12 .LASF3219
C:\Users\CYMR90~1\AppData\Local\Temp\cciNYDRP.s:28079  .debug_str:000000000001daa5 .LASF3220
C:\Users\CYMR90~1\AppData\Local\Temp\cciNYDRP.s:25666  .debug_str:0000000000013e68 .LASF3221
C:\Users\CYMR90~1\AppData\Local\Temp\cciNYDRP.s:27053  .debug_str:000000000001981f .LASF3222
C:\Users\CYMR90~1\AppData\Local\Temp\cciNYDRP.s:27367  .debug_str:000000000001ad23 .LASF3223
C:\Users\CYMR90~1\AppData\Local\Temp\cciNYDRP.s:29857  .debug_str:0000000000024886 .LASF3224
C:\Users\CYMR90~1\AppData\Local\Temp\cciNYDRP.s:31263  .debug_str:000000000002a251 .LASF3225
C:\Users\CYMR90~1\AppData\Local\Temp\cciNYDRP.s:25056  .debug_str:00000000000115b6 .LASF3226
C:\Users\CYMR90~1\AppData\Local\Temp\cciNYDRP.s:28029  .debug_str:000000000001d7f8 .LASF3227
C:\Users\CYMR90~1\AppData\Local\Temp\cciNYDRP.s:24136  .debug_str:000000000000dc24 .LASF3228
C:\Users\CYMR90~1\AppData\Local\Temp\cciNYDRP.s:25058  .debug_str:00000000000115ce .LASF3229
C:\Users\CYMR90~1\AppData\Local\Temp\cciNYDRP.s:22530  .debug_str:00000000000072f1 .LASF3230
C:\Users\CYMR90~1\AppData\Local\Temp\cciNYDRP.s:31309  .debug_str:000000000002a569 .LASF3231
C:\Users\CYMR90~1\AppData\Local\Temp\cciNYDRP.s:30083  .debug_str:000000000002587e .LASF3232
C:\Users\CYMR90~1\AppData\Local\Temp\cciNYDRP.s:21588  .debug_str:00000000000036f9 .LASF3233
C:\Users\CYMR90~1\AppData\Local\Temp\cciNYDRP.s:24770  .debug_str:0000000000010393 .LASF3234
C:\Users\CYMR90~1\AppData\Local\Temp\cciNYDRP.s:30751  .debug_str:0000000000028362 .LASF3235
C:\Users\CYMR90~1\AppData\Local\Temp\cciNYDRP.s:25242  .debug_str:00000000000122d6 .LASF3236
C:\Users\CYMR90~1\AppData\Local\Temp\cciNYDRP.s:23348  .debug_str:000000000000a7ae .LASF3237
C:\Users\CYMR90~1\AppData\Local\Temp\cciNYDRP.s:31581  .debug_str:000000000002b671 .LASF3238
C:\Users\CYMR90~1\AppData\Local\Temp\cciNYDRP.s:23434  .debug_str:000000000000ade0 .LASF3239
C:\Users\CYMR90~1\AppData\Local\Temp\cciNYDRP.s:27107  .debug_str:0000000000019b82 .LASF3240
C:\Users\CYMR90~1\AppData\Local\Temp\cciNYDRP.s:31337  .debug_str:000000000002a732 .LASF3241
C:\Users\CYMR90~1\AppData\Local\Temp\cciNYDRP.s:26861  .debug_str:0000000000018a44 .LASF3242
C:\Users\CYMR90~1\AppData\Local\Temp\cciNYDRP.s:31377  .debug_str:000000000002a975 .LASF3243
C:\Users\CYMR90~1\AppData\Local\Temp\cciNYDRP.s:28947  .debug_str:0000000000020fce .LASF3244
C:\Users\CYMR90~1\AppData\Local\Temp\cciNYDRP.s:30325  .debug_str:0000000000026779 .LASF3245
C:\Users\CYMR90~1\AppData\Local\Temp\cciNYDRP.s:23988  .debug_str:000000000000d35a .LASF3246
C:\Users\CYMR90~1\AppData\Local\Temp\cciNYDRP.s:29705  .debug_str:0000000000023d61 .LASF3247
C:\Users\CYMR90~1\AppData\Local\Temp\cciNYDRP.s:25822  .debug_str:0000000000014802 .LASF3248
C:\Users\CYMR90~1\AppData\Local\Temp\cciNYDRP.s:24660  .debug_str:000000000000fcc1 .LASF3249
C:\Users\CYMR90~1\AppData\Local\Temp\cciNYDRP.s:27777  .debug_str:000000000001c648 .LASF3250
C:\Users\CYMR90~1\AppData\Local\Temp\cciNYDRP.s:30585  .debug_str:0000000000027779 .LASF3251
C:\Users\CYMR90~1\AppData\Local\Temp\cciNYDRP.s:21610  .debug_str:0000000000003842 .LASF3252
C:\Users\CYMR90~1\AppData\Local\Temp\cciNYDRP.s:29307  .debug_str:00000000000225d4 .LASF3253
C:\Users\CYMR90~1\AppData\Local\Temp\cciNYDRP.s:30761  .debug_str:0000000000028406 .LASF3254
C:\Users\CYMR90~1\AppData\Local\Temp\cciNYDRP.s:22848  .debug_str:0000000000008876 .LASF3255
C:\Users\CYMR90~1\AppData\Local\Temp\cciNYDRP.s:29193  .debug_str:0000000000021f32 .LASF3256
C:\Users\CYMR90~1\AppData\Local\Temp\cciNYDRP.s:26006  .debug_str:000000000001538f .LASF3257
C:\Users\CYMR90~1\AppData\Local\Temp\cciNYDRP.s:22942  .debug_str:0000000000008e9a .LASF3258
C:\Users\CYMR90~1\AppData\Local\Temp\cciNYDRP.s:27919  .debug_str:000000000001d121 .LASF3259
C:\Users\CYMR90~1\AppData\Local\Temp\cciNYDRP.s:25384  .debug_str:0000000000012c20 .LASF3260
C:\Users\CYMR90~1\AppData\Local\Temp\cciNYDRP.s:23412  .debug_str:000000000000aba6 .LASF3261
C:\Users\CYMR90~1\AppData\Local\Temp\cciNYDRP.s:27845  .debug_str:000000000001cb48 .LASF3262
C:\Users\CYMR90~1\AppData\Local\Temp\cciNYDRP.s:29953  .debug_str:0000000000024e6d .LASF3263
C:\Users\CYMR90~1\AppData\Local\Temp\cciNYDRP.s:21892  .debug_str:0000000000004b29 .LASF3264
C:\Users\CYMR90~1\AppData\Local\Temp\cciNYDRP.s:31277  .debug_str:000000000002a33e .LASF3265
C:\Users\CYMR90~1\AppData\Local\Temp\cciNYDRP.s:30147  .debug_str:0000000000025c4b .LASF3266
C:\Users\CYMR90~1\AppData\Local\Temp\cciNYDRP.s:27151  .debug_str:0000000000019dee .LASF3267
C:\Users\CYMR90~1\AppData\Local\Temp\cciNYDRP.s:27161  .debug_str:0000000000019e99 .LASF3268
C:\Users\CYMR90~1\AppData\Local\Temp\cciNYDRP.s:30435  .debug_str:0000000000026e2c .LASF3269
C:\Users\CYMR90~1\AppData\Local\Temp\cciNYDRP.s:25272  .debug_str:000000000001249f .LASF3270
C:\Users\CYMR90~1\AppData\Local\Temp\cciNYDRP.s:31249  .debug_str:000000000002a19c .LASF3271
C:\Users\CYMR90~1\AppData\Local\Temp\cciNYDRP.s:26823  .debug_str:00000000000187ee .LASF3272
C:\Users\CYMR90~1\AppData\Local\Temp\cciNYDRP.s:30517  .debug_str:00000000000273c0 .LASF3273
C:\Users\CYMR90~1\AppData\Local\Temp\cciNYDRP.s:21794  .debug_str:000000000000444f .LASF3274
C:\Users\CYMR90~1\AppData\Local\Temp\cciNYDRP.s:24868  .debug_str:0000000000010a18 .LASF3275
C:\Users\CYMR90~1\AppData\Local\Temp\cciNYDRP.s:28185  .debug_str:000000000001e1bd .LASF3276
C:\Users\CYMR90~1\AppData\Local\Temp\cciNYDRP.s:25202  .debug_str:000000000001203c .LASF3277
C:\Users\CYMR90~1\AppData\Local\Temp\cciNYDRP.s:24616  .debug_str:000000000000f9ee .LASF3278
C:\Users\CYMR90~1\AppData\Local\Temp\cciNYDRP.s:25382  .debug_str:0000000000012be7 .LASF3279
C:\Users\CYMR90~1\AppData\Local\Temp\cciNYDRP.s:29419  .debug_str:0000000000022c80 .LASF3280
C:\Users\CYMR90~1\AppData\Local\Temp\cciNYDRP.s:26196  .debug_str:0000000000015f56 .LASF3281
C:\Users\CYMR90~1\AppData\Local\Temp\cciNYDRP.s:27759  .debug_str:000000000001c4fe .LASF3282
C:\Users\CYMR90~1\AppData\Local\Temp\cciNYDRP.s:23634  .debug_str:000000000000bafe .LASF3283
C:\Users\CYMR90~1\AppData\Local\Temp\cciNYDRP.s:22634  .debug_str:00000000000079a0 .LASF3284
C:\Users\CYMR90~1\AppData\Local\Temp\cciNYDRP.s:21948  .debug_str:0000000000004e7e .LASF3285
C:\Users\CYMR90~1\AppData\Local\Temp\cciNYDRP.s:25332  .debug_str:00000000000128b4 .LASF3286
C:\Users\CYMR90~1\AppData\Local\Temp\cciNYDRP.s:20976  .debug_str:00000000000010c9 .LASF3287
C:\Users\CYMR90~1\AppData\Local\Temp\cciNYDRP.s:21062  .debug_str:0000000000001597 .LASF3288
C:\Users\CYMR90~1\AppData\Local\Temp\cciNYDRP.s:30711  .debug_str:000000000002804d .LASF3289
C:\Users\CYMR90~1\AppData\Local\Temp\cciNYDRP.s:27433  .debug_str:000000000001b1af .LASF3290
C:\Users\CYMR90~1\AppData\Local\Temp\cciNYDRP.s:23908  .debug_str:000000000000cda8 .LASF3291
C:\Users\CYMR90~1\AppData\Local\Temp\cciNYDRP.s:25786  .debug_str:00000000000145c0 .LASF3292
C:\Users\CYMR90~1\AppData\Local\Temp\cciNYDRP.s:26769  .debug_str:00000000000184da .LASF3293
C:\Users\CYMR90~1\AppData\Local\Temp\cciNYDRP.s:30581  .debug_str:000000000002774a .LASF3294
C:\Users\CYMR90~1\AppData\Local\Temp\cciNYDRP.s:28239  .debug_str:000000000001e4e8 .LASF3295
C:\Users\CYMR90~1\AppData\Local\Temp\cciNYDRP.s:23724  .debug_str:000000000000c116 .LASF3296
C:\Users\CYMR90~1\AppData\Local\Temp\cciNYDRP.s:24712  .debug_str:0000000000010021 .LASF3297
C:\Users\CYMR90~1\AppData\Local\Temp\cciNYDRP.s:26256  .debug_str:0000000000016315 .LASF3298
C:\Users\CYMR90~1\AppData\Local\Temp\cciNYDRP.s:27213  .debug_str:000000000001a190 .LASF3299
C:\Users\CYMR90~1\AppData\Local\Temp\cciNYDRP.s:28503  .debug_str:000000000001f4cf .LASF3300
C:\Users\CYMR90~1\AppData\Local\Temp\cciNYDRP.s:24690  .debug_str:000000000000fecb .LASF3301
C:\Users\CYMR90~1\AppData\Local\Temp\cciNYDRP.s:31851  .debug_str:000000000002c8da .LASF3302
C:\Users\CYMR90~1\AppData\Local\Temp\cciNYDRP.s:26577  .debug_str:0000000000017974 .LASF3303
C:\Users\CYMR90~1\AppData\Local\Temp\cciNYDRP.s:30191  .debug_str:0000000000025f1a .LASF3304
C:\Users\CYMR90~1\AppData\Local\Temp\cciNYDRP.s:23598  .debug_str:000000000000b883 .LASF3305
C:\Users\CYMR90~1\AppData\Local\Temp\cciNYDRP.s:29501  .debug_str:00000000000230fc .LASF3306
C:\Users\CYMR90~1\AppData\Local\Temp\cciNYDRP.s:25662  .debug_str:0000000000013e26 .LASF3307
C:\Users\CYMR90~1\AppData\Local\Temp\cciNYDRP.s:28391  .debug_str:000000000001edcd .LASF3308
C:\Users\CYMR90~1\AppData\Local\Temp\cciNYDRP.s:24446  .debug_str:000000000000ef02 .LASF3309
C:\Users\CYMR90~1\AppData\Local\Temp\cciNYDRP.s:31243  .debug_str:000000000002a142 .LASF3310
C:\Users\CYMR90~1\AppData\Local\Temp\cciNYDRP.s:28009  .debug_str:000000000001d6ac .LASF3311
C:\Users\CYMR90~1\AppData\Local\Temp\cciNYDRP.s:30843  .debug_str:0000000000028983 .LASF3312
C:\Users\CYMR90~1\AppData\Local\Temp\cciNYDRP.s:25952  .debug_str:0000000000015070 .LASF3313
C:\Users\CYMR90~1\AppData\Local\Temp\cciNYDRP.s:25088  .debug_str:000000000001187f .LASF3314
C:\Users\CYMR90~1\AppData\Local\Temp\cciNYDRP.s:22984  .debug_str:00000000000090fb .LASF3315
C:\Users\CYMR90~1\AppData\Local\Temp\cciNYDRP.s:22560  .debug_str:00000000000074b8 .LASF3316
C:\Users\CYMR90~1\AppData\Local\Temp\cciNYDRP.s:31969  .debug_str:000000000002d08a .LASF3317
C:\Users\CYMR90~1\AppData\Local\Temp\cciNYDRP.s:21750  .debug_str:000000000000417b .LASF3318
C:\Users\CYMR90~1\AppData\Local\Temp\cciNYDRP.s:31497  .debug_str:000000000002b0b6 .LASF3319
C:\Users\CYMR90~1\AppData\Local\Temp\cciNYDRP.s:24058  .debug_str:000000000000d7cd .LASF3320
C:\Users\CYMR90~1\AppData\Local\Temp\cciNYDRP.s:26747  .debug_str:000000000001835f .LASF3321
C:\Users\CYMR90~1\AppData\Local\Temp\cciNYDRP.s:26194  .debug_str:0000000000015f3e .LASF3322
C:\Users\CYMR90~1\AppData\Local\Temp\cciNYDRP.s:29513  .debug_str:000000000002319c .LASF3323
C:\Users\CYMR90~1\AppData\Local\Temp\cciNYDRP.s:20988  .debug_str:000000000000116f .LASF3324
C:\Users\CYMR90~1\AppData\Local\Temp\cciNYDRP.s:21906  .debug_str:0000000000004c2f .LASF3325
C:\Users\CYMR90~1\AppData\Local\Temp\cciNYDRP.s:29367  .debug_str:000000000002292d .LASF3326
C:\Users\CYMR90~1\AppData\Local\Temp\cciNYDRP.s:22152  .debug_str:0000000000005af9 .LASF3327
C:\Users\CYMR90~1\AppData\Local\Temp\cciNYDRP.s:29691  .debug_str:0000000000023c96 .LASF3328
C:\Users\CYMR90~1\AppData\Local\Temp\cciNYDRP.s:30111  .debug_str:0000000000025a57 .LASF3329
C:\Users\CYMR90~1\AppData\Local\Temp\cciNYDRP.s:28829  .debug_str:000000000002090e .LASF3330
C:\Users\CYMR90~1\AppData\Local\Temp\cciNYDRP.s:26092  .debug_str:0000000000015894 .LASF3331
C:\Users\CYMR90~1\AppData\Local\Temp\cciNYDRP.s:25842  .debug_str:000000000001492d .LASF3332
C:\Users\CYMR90~1\AppData\Local\Temp\cciNYDRP.s:26567  .debug_str:00000000000178bf .LASF3333
C:\Users\CYMR90~1\AppData\Local\Temp\cciNYDRP.s:28725  .debug_str:000000000002021c .LASF3334
C:\Users\CYMR90~1\AppData\Local\Temp\cciNYDRP.s:22526  .debug_str:00000000000072c3 .LASF3335
C:\Users\CYMR90~1\AppData\Local\Temp\cciNYDRP.s:20758  .debug_str:000000000000035d .LASF3336
C:\Users\CYMR90~1\AppData\Local\Temp\cciNYDRP.s:30865  .debug_str:0000000000028adb .LASF3337
C:\Users\CYMR90~1\AppData\Local\Temp\cciNYDRP.s:20884  .debug_str:0000000000000b12 .LASF3338
C:\Users\CYMR90~1\AppData\Local\Temp\cciNYDRP.s:29199  .debug_str:0000000000021fa6 .LASF3339
C:\Users\CYMR90~1\AppData\Local\Temp\cciNYDRP.s:25988  .debug_str:00000000000152af .LASF3340
C:\Users\CYMR90~1\AppData\Local\Temp\cciNYDRP.s:25642  .debug_str:0000000000013cf9 .LASF3341
C:\Users\CYMR90~1\AppData\Local\Temp\cciNYDRP.s:23932  .debug_str:000000000000cf50 .LASF3342
C:\Users\CYMR90~1\AppData\Local\Temp\cciNYDRP.s:29503  .debug_str:0000000000023122 .LASF3343
C:\Users\CYMR90~1\AppData\Local\Temp\cciNYDRP.s:27475  .debug_str:000000000001b447 .LASF3344
C:\Users\CYMR90~1\AppData\Local\Temp\cciNYDRP.s:25452  .debug_str:000000000001308c .LASF3345
C:\Users\CYMR90~1\AppData\Local\Temp\cciNYDRP.s:29951  .debug_str:0000000000024e4f .LASF3346
C:\Users\CYMR90~1\AppData\Local\Temp\cciNYDRP.s:24582  .debug_str:000000000000f801 .LASF3347
C:\Users\CYMR90~1\AppData\Local\Temp\cciNYDRP.s:29417  .debug_str:0000000000022c64 .LASF3348
C:\Users\CYMR90~1\AppData\Local\Temp\cciNYDRP.s:25484  .debug_str:00000000000132d0 .LASF3349
C:\Users\CYMR90~1\AppData\Local\Temp\cciNYDRP.s:27961  .debug_str:000000000001d394 .LASF3350
C:\Users\CYMR90~1\AppData\Local\Temp\cciNYDRP.s:30627  .debug_str:0000000000027a5f .LASF3351
C:\Users\CYMR90~1\AppData\Local\Temp\cciNYDRP.s:31891  .debug_str:000000000002cb6f .LASF3352
C:\Users\CYMR90~1\AppData\Local\Temp\cciNYDRP.s:22546  .debug_str:00000000000073d5 .LASF3353
C:\Users\CYMR90~1\AppData\Local\Temp\cciNYDRP.s:21678  .debug_str:0000000000003caf .LASF3354
C:\Users\CYMR90~1\AppData\Local\Temp\cciNYDRP.s:31571  .debug_str:000000000002b5a5 .LASF3355
C:\Users\CYMR90~1\AppData\Local\Temp\cciNYDRP.s:23440  .debug_str:000000000000ae41 .LASF3356
C:\Users\CYMR90~1\AppData\Local\Temp\cciNYDRP.s:25636  .debug_str:0000000000013cab .LASF3357
C:\Users\CYMR90~1\AppData\Local\Temp\cciNYDRP.s:21940  .debug_str:0000000000004e1e .LASF3358
C:\Users\CYMR90~1\AppData\Local\Temp\cciNYDRP.s:30451  .debug_str:0000000000026f21 .LASF3359
C:\Users\CYMR90~1\AppData\Local\Temp\cciNYDRP.s:22130  .debug_str:0000000000005994 .LASF3360
C:\Users\CYMR90~1\AppData\Local\Temp\cciNYDRP.s:23538  .debug_str:000000000000b46c .LASF3361
C:\Users\CYMR90~1\AppData\Local\Temp\cciNYDRP.s:22064  .debug_str:000000000000557d .LASF3362
C:\Users\CYMR90~1\AppData\Local\Temp\cciNYDRP.s:25196  .debug_str:0000000000011fcb .LASF3363
C:\Users\CYMR90~1\AppData\Local\Temp\cciNYDRP.s:30617  .debug_str:00000000000279c2 .LASF3364
C:\Users\CYMR90~1\AppData\Local\Temp\cciNYDRP.s:26999  .debug_str:0000000000019434 .LASF3365
C:\Users\CYMR90~1\AppData\Local\Temp\cciNYDRP.s:25784  .debug_str:0000000000014585 .LASF3366
C:\Users\CYMR90~1\AppData\Local\Temp\cciNYDRP.s:31921  .debug_str:000000000002cdab .LASF3367
C:\Users\CYMR90~1\AppData\Local\Temp\cciNYDRP.s:28473  .debug_str:000000000001f2ef .LASF3368
C:\Users\CYMR90~1\AppData\Local\Temp\cciNYDRP.s:25128  .debug_str:0000000000011b71 .LASF3369
C:\Users\CYMR90~1\AppData\Local\Temp\cciNYDRP.s:22252  .debug_str:00000000000060e5 .LASF3370
C:\Users\CYMR90~1\AppData\Local\Temp\cciNYDRP.s:29557  .debug_str:000000000002346c .LASF3371
C:\Users\CYMR90~1\AppData\Local\Temp\cciNYDRP.s:26148  .debug_str:0000000000015bf7 .LASF3372
C:\Users\CYMR90~1\AppData\Local\Temp\cciNYDRP.s:22764  .debug_str:0000000000008332 .LASF3373
C:\Users\CYMR90~1\AppData\Local\Temp\cciNYDRP.s:26693  .debug_str:0000000000017ff1 .LASF3374
C:\Users\CYMR90~1\AppData\Local\Temp\cciNYDRP.s:31635  .debug_str:000000000002ba20 .LASF3375
C:\Users\CYMR90~1\AppData\Local\Temp\cciNYDRP.s:30185  .debug_str:0000000000025e7f .LASF3376
C:\Users\CYMR90~1\AppData\Local\Temp\cciNYDRP.s:21078  .debug_str:0000000000001754 .LASF3377
C:\Users\CYMR90~1\AppData\Local\Temp\cciNYDRP.s:22104  .debug_str:00000000000057bd .LASF3378
C:\Users\CYMR90~1\AppData\Local\Temp\cciNYDRP.s:28247  .debug_str:000000000001e534 .LASF3379
C:\Users\CYMR90~1\AppData\Local\Temp\cciNYDRP.s:28481  .debug_str:000000000001f386 .LASF3380
C:\Users\CYMR90~1\AppData\Local\Temp\cciNYDRP.s:29603  .debug_str:0000000000023782 .LASF3381
C:\Users\CYMR90~1\AppData\Local\Temp\cciNYDRP.s:21076  .debug_str:0000000000001733 .LASF3382
C:\Users\CYMR90~1\AppData\Local\Temp\cciNYDRP.s:26803  .debug_str:0000000000018689 .LASF3383
C:\Users\CYMR90~1\AppData\Local\Temp\cciNYDRP.s:31873  .debug_str:000000000002ca52 .LASF3384
C:\Users\CYMR90~1\AppData\Local\Temp\cciNYDRP.s:23510  .debug_str:000000000000b23f .LASF3385
C:\Users\CYMR90~1\AppData\Local\Temp\cciNYDRP.s:26675  .debug_str:0000000000017f12 .LASF3386
C:\Users\CYMR90~1\AppData\Local\Temp\cciNYDRP.s:21020  .debug_str:000000000000134a .LASF3387
C:\Users\CYMR90~1\AppData\Local\Temp\cciNYDRP.s:30773  .debug_str:00000000000284d0 .LASF3388
C:\Users\CYMR90~1\AppData\Local\Temp\cciNYDRP.s:23732  .debug_str:000000000000c18c .LASF3389
C:\Users\CYMR90~1\AppData\Local\Temp\cciNYDRP.s:23992  .debug_str:000000000000d3a5 .LASF3390
C:\Users\CYMR90~1\AppData\Local\Temp\cciNYDRP.s:31631  .debug_str:000000000002b9d5 .LASF3391
C:\Users\CYMR90~1\AppData\Local\Temp\cciNYDRP.s:28671  .debug_str:000000000001ff23 .LASF3392
C:\Users\CYMR90~1\AppData\Local\Temp\cciNYDRP.s:24478  .debug_str:000000000000f104 .LASF3393
C:\Users\CYMR90~1\AppData\Local\Temp\cciNYDRP.s:30109  .debug_str:0000000000025a2f .LASF3394
C:\Users\CYMR90~1\AppData\Local\Temp\cciNYDRP.s:29049  .debug_str:0000000000021693 .LASF3395
C:\Users\CYMR90~1\AppData\Local\Temp\cciNYDRP.s:24732  .debug_str:000000000001014e .LASF3396
C:\Users\CYMR90~1\AppData\Local\Temp\cciNYDRP.s:28669  .debug_str:000000000001fefc .LASF3397
C:\Users\CYMR90~1\AppData\Local\Temp\cciNYDRP.s:25794  .debug_str:0000000000014674 .LASF3398
C:\Users\CYMR90~1\AppData\Local\Temp\cciNYDRP.s:31507  .debug_str:000000000002b17f .LASF3399
C:\Users\CYMR90~1\AppData\Local\Temp\cciNYDRP.s:22774  .debug_str:00000000000083c9 .LASF3400
C:\Users\CYMR90~1\AppData\Local\Temp\cciNYDRP.s:28705  .debug_str:0000000000020108 .LASF3401
C:\Users\CYMR90~1\AppData\Local\Temp\cciNYDRP.s:30243  .debug_str:0000000000026226 .LASF3402
C:\Users\CYMR90~1\AppData\Local\Temp\cciNYDRP.s:31923  .debug_str:000000000002cdd2 .LASF3403
C:\Users\CYMR90~1\AppData\Local\Temp\cciNYDRP.s:23156  .debug_str:0000000000009be8 .LASF3404
C:\Users\CYMR90~1\AppData\Local\Temp\cciNYDRP.s:27037  .debug_str:000000000001967d .LASF3405
C:\Users\CYMR90~1\AppData\Local\Temp\cciNYDRP.s:24452  .debug_str:000000000000ef48 .LASF3406
C:\Users\CYMR90~1\AppData\Local\Temp\cciNYDRP.s:28389  .debug_str:000000000001edaf .LASF3407
C:\Users\CYMR90~1\AppData\Local\Temp\cciNYDRP.s:31805  .debug_str:000000000002c5e4 .LASF3408
C:\Users\CYMR90~1\AppData\Local\Temp\cciNYDRP.s:31437  .debug_str:000000000002ad2d .LASF3409
C:\Users\CYMR90~1\AppData\Local\Temp\cciNYDRP.s:27625  .debug_str:000000000001bd2a .LASF3410
C:\Users\CYMR90~1\AppData\Local\Temp\cciNYDRP.s:21664  .debug_str:0000000000003bd9 .LASF3411
C:\Users\CYMR90~1\AppData\Local\Temp\cciNYDRP.s:23424  .debug_str:000000000000ac9c .LASF3412
C:\Users\CYMR90~1\AppData\Local\Temp\cciNYDRP.s:24474  .debug_str:000000000000f0b6 .LASF3413
C:\Users\CYMR90~1\AppData\Local\Temp\cciNYDRP.s:29127  .debug_str:0000000000021b4b .LASF3414
C:\Users\CYMR90~1\AppData\Local\Temp\cciNYDRP.s:26360  .debug_str:0000000000016a8f .LASF3415
C:\Users\CYMR90~1\AppData\Local\Temp\cciNYDRP.s:28149  .debug_str:000000000001df8e .LASF3416
C:\Users\CYMR90~1\AppData\Local\Temp\cciNYDRP.s:27385  .debug_str:000000000001ae5b .LASF3417
C:\Users\CYMR90~1\AppData\Local\Temp\cciNYDRP.s:29151  .debug_str:0000000000021cdb .LASF3418
C:\Users\CYMR90~1\AppData\Local\Temp\cciNYDRP.s:23390  .debug_str:000000000000aa58 .LASF3419
C:\Users\CYMR90~1\AppData\Local\Temp\cciNYDRP.s:25760  .debug_str:000000000001440c .LASF3420
C:\Users\CYMR90~1\AppData\Local\Temp\cciNYDRP.s:22198  .debug_str:0000000000005d98 .LASF3421
C:\Users\CYMR90~1\AppData\Local\Temp\cciNYDRP.s:28887  .debug_str:0000000000020cab .LASF3422
C:\Users\CYMR90~1\AppData\Local\Temp\cciNYDRP.s:25370  .debug_str:0000000000012b21 .LASF3423
C:\Users\CYMR90~1\AppData\Local\Temp\cciNYDRP.s:27451  .debug_str:000000000001b2d0 .LASF3424
C:\Users\CYMR90~1\AppData\Local\Temp\cciNYDRP.s:27165  .debug_str:0000000000019ecd .LASF3425
C:\Users\CYMR90~1\AppData\Local\Temp\cciNYDRP.s:21960  .debug_str:0000000000004f57 .LASF3426
C:\Users\CYMR90~1\AppData\Local\Temp\cciNYDRP.s:28749  .debug_str:00000000000203c9 .LASF3427
C:\Users\CYMR90~1\AppData\Local\Temp\cciNYDRP.s:25448  .debug_str:000000000001304d .LASF3428
C:\Users\CYMR90~1\AppData\Local\Temp\cciNYDRP.s:23266  .debug_str:000000000000a2dd .LASF3429
C:\Users\CYMR90~1\AppData\Local\Temp\cciNYDRP.s:27779  .debug_str:000000000001c66d .LASF3430
C:\Users\CYMR90~1\AppData\Local\Temp\cciNYDRP.s:22466  .debug_str:0000000000006e6f .LASF3431
C:\Users\CYMR90~1\AppData\Local\Temp\cciNYDRP.s:30429  .debug_str:0000000000026dc8 .LASF3432
C:\Users\CYMR90~1\AppData\Local\Temp\cciNYDRP.s:28699  .debug_str:000000000002009d .LASF3433
C:\Users\CYMR90~1\AppData\Local\Temp\cciNYDRP.s:22196  .debug_str:0000000000005d87 .LASF3434
C:\Users\CYMR90~1\AppData\Local\Temp\cciNYDRP.s:21188  .debug_str:0000000000001dc4 .LASF3435
C:\Users\CYMR90~1\AppData\Local\Temp\cciNYDRP.s:26751  .debug_str:0000000000018396 .LASF3436
C:\Users\CYMR90~1\AppData\Local\Temp\cciNYDRP.s:26465  .debug_str:0000000000017266 .LASF3437
C:\Users\CYMR90~1\AppData\Local\Temp\cciNYDRP.s:27499  .debug_str:000000000001b598 .LASF3438
C:\Users\CYMR90~1\AppData\Local\Temp\cciNYDRP.s:24150  .debug_str:000000000000dd2f .LASF3439
C:\Users\CYMR90~1\AppData\Local\Temp\cciNYDRP.s:28879  .debug_str:0000000000020c40 .LASF3440
C:\Users\CYMR90~1\AppData\Local\Temp\cciNYDRP.s:29753  .debug_str:0000000000024130 .LASF3441
C:\Users\CYMR90~1\AppData\Local\Temp\cciNYDRP.s:30629  .debug_str:0000000000027a76 .LASF3442
C:\Users\CYMR90~1\AppData\Local\Temp\cciNYDRP.s:29003  .debug_str:00000000000213cc .LASF3443
C:\Users\CYMR90~1\AppData\Local\Temp\cciNYDRP.s:30269  .debug_str:00000000000263a7 .LASF3444
C:\Users\CYMR90~1\AppData\Local\Temp\cciNYDRP.s:22484  .debug_str:0000000000006fdd .LASF3445
C:\Users\CYMR90~1\AppData\Local\Temp\cciNYDRP.s:27509  .debug_str:000000000001b64e .LASF3446
C:\Users\CYMR90~1\AppData\Local\Temp\cciNYDRP.s:21280  .debug_str:000000000000229e .LASF3447
C:\Users\CYMR90~1\AppData\Local\Temp\cciNYDRP.s:30025  .debug_str:00000000000253c4 .LASF3448
C:\Users\CYMR90~1\AppData\Local\Temp\cciNYDRP.s:23738  .debug_str:000000000000c20b .LASF3449
C:\Users\CYMR90~1\AppData\Local\Temp\cciNYDRP.s:26228  .debug_str:000000000001616e .LASF3450
C:\Users\CYMR90~1\AppData\Local\Temp\cciNYDRP.s:30465  .debug_str:0000000000026fd8 .LASF3451
C:\Users\CYMR90~1\AppData\Local\Temp\cciNYDRP.s:23376  .debug_str:000000000000a96f .LASF3452
C:\Users\CYMR90~1\AppData\Local\Temp\cciNYDRP.s:24230  .debug_str:000000000000e1ef .LASF3453
C:\Users\CYMR90~1\AppData\Local\Temp\cciNYDRP.s:21876  .debug_str:0000000000004a36 .LASF3454
C:\Users\CYMR90~1\AppData\Local\Temp\cciNYDRP.s:20878  .debug_str:0000000000000a98 .LASF3455
C:\Users\CYMR90~1\AppData\Local\Temp\cciNYDRP.s:29161  .debug_str:0000000000021d7f .LASF3456
C:\Users\CYMR90~1\AppData\Local\Temp\cciNYDRP.s:23396  .debug_str:000000000000aaad .LASF3457
C:\Users\CYMR90~1\AppData\Local\Temp\cciNYDRP.s:21580  .debug_str:0000000000003659 .LASF3458
C:\Users\CYMR90~1\AppData\Local\Temp\cciNYDRP.s:21044  .debug_str:000000000000147c .LASF3459
C:\Users\CYMR90~1\AppData\Local\Temp\cciNYDRP.s:26771  .debug_str:00000000000184f3 .LASF3460
C:\Users\CYMR90~1\AppData\Local\Temp\cciNYDRP.s:26250  .debug_str:00000000000162bb .LASF3461
C:\Users\CYMR90~1\AppData\Local\Temp\cciNYDRP.s:25436  .debug_str:0000000000012f81 .LASF3462
C:\Users\CYMR90~1\AppData\Local\Temp\cciNYDRP.s:27113  .debug_str:0000000000019beb .LASF3463
C:\Users\CYMR90~1\AppData\Local\Temp\cciNYDRP.s:31403  .debug_str:000000000002ab13 .LASF3464
C:\Users\CYMR90~1\AppData\Local\Temp\cciNYDRP.s:26312  .debug_str:00000000000166c1 .LASF3465
C:\Users\CYMR90~1\AppData\Local\Temp\cciNYDRP.s:25348  .debug_str:00000000000129e9 .LASF3466
C:\Users\CYMR90~1\AppData\Local\Temp\cciNYDRP.s:27407  .debug_str:000000000001b00c .LASF3467
C:\Users\CYMR90~1\AppData\Local\Temp\cciNYDRP.s:30299  .debug_str:00000000000265a2 .LASF3468
C:\Users\CYMR90~1\AppData\Local\Temp\cciNYDRP.s:22698  .debug_str:0000000000007ed5 .LASF3469
C:\Users\CYMR90~1\AppData\Local\Temp\cciNYDRP.s:21402  .debug_str:0000000000002ab5 .LASF3470
C:\Users\CYMR90~1\AppData\Local\Temp\cciNYDRP.s:22212  .debug_str:0000000000005e8b .LASF3471
C:\Users\CYMR90~1\AppData\Local\Temp\cciNYDRP.s:28427  .debug_str:000000000001f03b .LASF3472
C:\Users\CYMR90~1\AppData\Local\Temp\cciNYDRP.s:28717  .debug_str:00000000000201b0 .LASF3473
C:\Users\CYMR90~1\AppData\Local\Temp\cciNYDRP.s:29247  .debug_str:000000000002224d .LASF3474
C:\Users\CYMR90~1\AppData\Local\Temp\cciNYDRP.s:24866  .debug_str:0000000000010a00 .LASF3475
C:\Users\CYMR90~1\AppData\Local\Temp\cciNYDRP.s:22410  .debug_str:0000000000006ae7 .LASF3476
C:\Users\CYMR90~1\AppData\Local\Temp\cciNYDRP.s:31557  .debug_str:000000000002b50c .LASF3477
C:\Users\CYMR90~1\AppData\Local\Temp\cciNYDRP.s:31391  .debug_str:000000000002aa52 .LASF3478
C:\Users\CYMR90~1\AppData\Local\Temp\cciNYDRP.s:28101  .debug_str:000000000001dc89 .LASF3479
C:\Users\CYMR90~1\AppData\Local\Temp\cciNYDRP.s:20860  .debug_str:0000000000000916 .LASF3480
C:\Users\CYMR90~1\AppData\Local\Temp\cciNYDRP.s:30395  .debug_str:0000000000026b80 .LASF3481
C:\Users\CYMR90~1\AppData\Local\Temp\cciNYDRP.s:24644  .debug_str:000000000000fbb2 .LASF3482
C:\Users\CYMR90~1\AppData\Local\Temp\cciNYDRP.s:31863  .debug_str:000000000002c99b .LASF3483
C:\Users\CYMR90~1\AppData\Local\Temp\cciNYDRP.s:26935  .debug_str:000000000001904f .LASF3484
C:\Users\CYMR90~1\AppData\Local\Temp\cciNYDRP.s:31495  .debug_str:000000000002b09c .LASF3485
C:\Users\CYMR90~1\AppData\Local\Temp\cciNYDRP.s:26975  .debug_str:00000000000192ae .LASF3486
C:\Users\CYMR90~1\AppData\Local\Temp\cciNYDRP.s:29231  .debug_str:0000000000022177 .LASF3487
C:\Users\CYMR90~1\AppData\Local\Temp\cciNYDRP.s:25692  .debug_str:0000000000013fdd .LASF3488
C:\Users\CYMR90~1\AppData\Local\Temp\cciNYDRP.s:23832  .debug_str:000000000000c86a .LASF3489
C:\Users\CYMR90~1\AppData\Local\Temp\cciNYDRP.s:21466  .debug_str:0000000000002ea0 .LASF3490
C:\Users\CYMR90~1\AppData\Local\Temp\cciNYDRP.s:27291  .debug_str:000000000001a867 .LASF3491
C:\Users\CYMR90~1\AppData\Local\Temp\cciNYDRP.s:21258  .debug_str:0000000000002177 .LASF3492
C:\Users\CYMR90~1\AppData\Local\Temp\cciNYDRP.s:31195  .debug_str:0000000000029e78 .LASF3493
C:\Users\CYMR90~1\AppData\Local\Temp\cciNYDRP.s:30383  .debug_str:0000000000026aed .LASF3494
C:\Users\CYMR90~1\AppData\Local\Temp\cciNYDRP.s:29291  .debug_str:00000000000224bf .LASF3495
C:\Users\CYMR90~1\AppData\Local\Temp\cciNYDRP.s:29967  .debug_str:0000000000024f36 .LASF3496
C:\Users\CYMR90~1\AppData\Local\Temp\cciNYDRP.s:28099  .debug_str:000000000001dc6d .LASF3497
C:\Users\CYMR90~1\AppData\Local\Temp\cciNYDRP.s:28157  .debug_str:000000000001e012 .LASF3498
C:\Users\CYMR90~1\AppData\Local\Temp\cciNYDRP.s:27201  .debug_str:000000000001a0dd .LASF3499
C:\Users\CYMR90~1\AppData\Local\Temp\cciNYDRP.s:20766  .debug_str:00000000000003d3 .LASF3500
C:\Users\CYMR90~1\AppData\Local\Temp\cciNYDRP.s:26555  .debug_str:00000000000177cc .LASF3501
C:\Users\CYMR90~1\AppData\Local\Temp\cciNYDRP.s:30153  .debug_str:0000000000025ca1 .LASF3502
C:\Users\CYMR90~1\AppData\Local\Temp\cciNYDRP.s:21990  .debug_str:000000000000511a .LASF3503
C:\Users\CYMR90~1\AppData\Local\Temp\cciNYDRP.s:21090  .debug_str:0000000000001829 .LASF3504
C:\Users\CYMR90~1\AppData\Local\Temp\cciNYDRP.s:26100  .debug_str:00000000000158fb .LASF3505
C:\Users\CYMR90~1\AppData\Local\Temp\cciNYDRP.s:24554  .debug_str:000000000000f58b .LASF3506
C:\Users\CYMR90~1\AppData\Local\Temp\cciNYDRP.s:23070  .debug_str:000000000000962c .LASF3507
C:\Users\CYMR90~1\AppData\Local\Temp\cciNYDRP.s:28171  .debug_str:000000000001e0fd .LASF3508
C:\Users\CYMR90~1\AppData\Local\Temp\cciNYDRP.s:21180  .debug_str:0000000000001d4e .LASF3509
C:\Users\CYMR90~1\AppData\Local\Temp\cciNYDRP.s:28489  .debug_str:000000000001f41a .LASF3510
C:\Users\CYMR90~1\AppData\Local\Temp\cciNYDRP.s:23048  .debug_str:0000000000009501 .LASF3511
C:\Users\CYMR90~1\AppData\Local\Temp\cciNYDRP.s:26683  .debug_str:0000000000017f94 .LASF3512
C:\Users\CYMR90~1\AppData\Local\Temp\cciNYDRP.s:30257  .debug_str:00000000000262ef .LASF3513
C:\Users\CYMR90~1\AppData\Local\Temp\cciNYDRP.s:24188  .debug_str:000000000000df5b .LASF3514
C:\Users\CYMR90~1\AppData\Local\Temp\cciNYDRP.s:28231  .debug_str:000000000001e48d .LASF3515
C:\Users\CYMR90~1\AppData\Local\Temp\cciNYDRP.s:31759  .debug_str:000000000002c28d .LASF3516
C:\Users\CYMR90~1\AppData\Local\Temp\cciNYDRP.s:24502  .debug_str:000000000000f297 .LASF3517
C:\Users\CYMR90~1\AppData\Local\Temp\cciNYDRP.s:28527  .debug_str:000000000001f63f .LASF3518
C:\Users\CYMR90~1\AppData\Local\Temp\cciNYDRP.s:21860  .debug_str:0000000000004947 .LASF3519
C:\Users\CYMR90~1\AppData\Local\Temp\cciNYDRP.s:28423  .debug_str:000000000001f007 .LASF3520
C:\Users\CYMR90~1\AppData\Local\Temp\cciNYDRP.s:24198  .debug_str:000000000000dffb .LASF3521
C:\Users\CYMR90~1\AppData\Local\Temp\cciNYDRP.s:31509  .debug_str:000000000002b1a6 .LASF3522
C:\Users\CYMR90~1\AppData\Local\Temp\cciNYDRP.s:29077  .debug_str:0000000000021841 .LASF3523
C:\Users\CYMR90~1\AppData\Local\Temp\cciNYDRP.s:26445  .debug_str:000000000001713c .LASF3524
C:\Users\CYMR90~1\AppData\Local\Temp\cciNYDRP.s:27971  .debug_str:000000000001d441 .LASF3525
C:\Users\CYMR90~1\AppData\Local\Temp\cciNYDRP.s:26497  .debug_str:000000000001741a .LASF3526
C:\Users\CYMR90~1\AppData\Local\Temp\cciNYDRP.s:29987  .debug_str:00000000000250d9 .LASF3527
C:\Users\CYMR90~1\AppData\Local\Temp\cciNYDRP.s:30769  .debug_str:000000000002849c .LASF3528
C:\Users\CYMR90~1\AppData\Local\Temp\cciNYDRP.s:29051  .debug_str:00000000000216d2 .LASF3529
C:\Users\CYMR90~1\AppData\Local\Temp\cciNYDRP.s:24754  .debug_str:0000000000010294 .LASF3530
C:\Users\CYMR90~1\AppData\Local\Temp\cciNYDRP.s:25890  .debug_str:0000000000014c30 .LASF3531
C:\Users\CYMR90~1\AppData\Local\Temp\cciNYDRP.s:31883  .debug_str:000000000002cb11 .LASF3532
C:\Users\CYMR90~1\AppData\Local\Temp\cciNYDRP.s:23920  .debug_str:000000000000cea9 .LASF3533
C:\Users\CYMR90~1\AppData\Local\Temp\cciNYDRP.s:26733  .debug_str:0000000000018299 .LASF3534
C:\Users\CYMR90~1\AppData\Local\Temp\cciNYDRP.s:23074  .debug_str:000000000000965e .LASF3535
C:\Users\CYMR90~1\AppData\Local\Temp\cciNYDRP.s:30255  .debug_str:00000000000262d2 .LASF3536
C:\Users\CYMR90~1\AppData\Local\Temp\cciNYDRP.s:31333  .debug_str:000000000002a6f2 .LASF3537
C:\Users\CYMR90~1\AppData\Local\Temp\cciNYDRP.s:23620  .debug_str:000000000000b9d1 .LASF3538
C:\Users\CYMR90~1\AppData\Local\Temp\cciNYDRP.s:30735  .debug_str:0000000000028268 .LASF3539
C:\Users\CYMR90~1\AppData\Local\Temp\cciNYDRP.s:27631  .debug_str:000000000001bda2 .LASF3540
C:\Users\CYMR90~1\AppData\Local\Temp\cciNYDRP.s:31207  .debug_str:0000000000029f1c .LASF3541
C:\Users\CYMR90~1\AppData\Local\Temp\cciNYDRP.s:21252  .debug_str:0000000000002126 .LASF3542
C:\Users\CYMR90~1\AppData\Local\Temp\cciNYDRP.s:30313  .debug_str:00000000000266b6 .LASF3543
C:\Users\CYMR90~1\AppData\Local\Temp\cciNYDRP.s:27065  .debug_str:00000000000198fb .LASF3544
C:\Users\CYMR90~1\AppData\Local\Temp\cciNYDRP.s:26993  .debug_str:00000000000193e2 .LASF3545
C:\Users\CYMR90~1\AppData\Local\Temp\cciNYDRP.s:27413  .debug_str:000000000001b043 .LASF3546
C:\Users\CYMR90~1\AppData\Local\Temp\cciNYDRP.s:21260  .debug_str:0000000000002193 .LASF3547
C:\Users\CYMR90~1\AppData\Local\Temp\cciNYDRP.s:30655  .debug_str:0000000000027c76 .LASF3548
C:\Users\CYMR90~1\AppData\Local\Temp\cciNYDRP.s:28057  .debug_str:000000000001d98c .LASF3549
C:\Users\CYMR90~1\AppData\Local\Temp\cciNYDRP.s:21870  .debug_str:00000000000049e5 .LASF3550
C:\Users\CYMR90~1\AppData\Local\Temp\cciNYDRP.s:28007  .debug_str:000000000001d691 .LASF3551
C:\Users\CYMR90~1\AppData\Local\Temp\cciNYDRP.s:28837  .debug_str:0000000000020969 .LASF3552
C:\Users\CYMR90~1\AppData\Local\Temp\cciNYDRP.s:31713  .debug_str:000000000002bfb5 .LASF3553
C:\Users\CYMR90~1\AppData\Local\Temp\cciNYDRP.s:29661  .debug_str:0000000000023ad8 .LASF3554
C:\Users\CYMR90~1\AppData\Local\Temp\cciNYDRP.s:20818  .debug_str:00000000000006b5 .LASF3555
C:\Users\CYMR90~1\AppData\Local\Temp\cciNYDRP.s:24416  .debug_str:000000000000ed34 .LASF3556
C:\Users\CYMR90~1\AppData\Local\Temp\cciNYDRP.s:25798  .debug_str:00000000000146b7 .LASF3557
C:\Users\CYMR90~1\AppData\Local\Temp\cciNYDRP.s:29615  .debug_str:000000000002381f .LASF3558
C:\Users\CYMR90~1\AppData\Local\Temp\cciNYDRP.s:27245  .debug_str:000000000001a4fc .LASF3559
C:\Users\CYMR90~1\AppData\Local\Temp\cciNYDRP.s:26395  .debug_str:0000000000016e49 .LASF3560
C:\Users\CYMR90~1\AppData\Local\Temp\cciNYDRP.s:26843  .debug_str:0000000000018958 .LASF3561
C:\Users\CYMR90~1\AppData\Local\Temp\cciNYDRP.s:31279  .debug_str:000000000002a35c .LASF3562
C:\Users\CYMR90~1\AppData\Local\Temp\cciNYDRP.s:22038  .debug_str:00000000000053ea .LASF3563
C:\Users\CYMR90~1\AppData\Local\Temp\cciNYDRP.s:26441  .debug_str:00000000000170f7 .LASF3564
C:\Users\CYMR90~1\AppData\Local\Temp\cciNYDRP.s:25774  .debug_str:00000000000144de .LASF3565
C:\Users\CYMR90~1\AppData\Local\Temp\cciNYDRP.s:25864  .debug_str:0000000000014aa2 .LASF3566
C:\Users\CYMR90~1\AppData\Local\Temp\cciNYDRP.s:28199  .debug_str:000000000001e2aa .LASF3567
C:\Users\CYMR90~1\AppData\Local\Temp\cciNYDRP.s:31075  .debug_str:0000000000029794 .LASF3568
C:\Users\CYMR90~1\AppData\Local\Temp\cciNYDRP.s:21396  .debug_str:0000000000002a6f .LASF3569
C:\Users\CYMR90~1\AppData\Local\Temp\cciNYDRP.s:28405  .debug_str:000000000001eeaf .LASF3570
C:\Users\CYMR90~1\AppData\Local\Temp\cciNYDRP.s:23476  .debug_str:000000000000b06d .LASF3571
C:\Users\CYMR90~1\AppData\Local\Temp\cciNYDRP.s:21516  .debug_str:000000000000323f .LASF3572
C:\Users\CYMR90~1\AppData\Local\Temp\cciNYDRP.s:23438  .debug_str:000000000000ae28 .LASF3573
C:\Users\CYMR90~1\AppData\Local\Temp\cciNYDRP.s:22374  .debug_str:0000000000006884 .LASF3574
C:\Users\CYMR90~1\AppData\Local\Temp\cciNYDRP.s:29927  .debug_str:0000000000024cc3 .LASF3575
C:\Users\CYMR90~1\AppData\Local\Temp\cciNYDRP.s:27311  .debug_str:000000000001a997 .LASF3576
C:\Users\CYMR90~1\AppData\Local\Temp\cciNYDRP.s:27171  .debug_str:0000000000019f3a .LASF3577
C:\Users\CYMR90~1\AppData\Local\Temp\cciNYDRP.s:22332  .debug_str:00000000000065ff .LASF3578
C:\Users\CYMR90~1\AppData\Local\Temp\cciNYDRP.s:24296  .debug_str:000000000000e623 .LASF3579
C:\Users\CYMR90~1\AppData\Local\Temp\cciNYDRP.s:24134  .debug_str:000000000000dc07 .LASF3580
C:\Users\CYMR90~1\AppData\Local\Temp\cciNYDRP.s:22766  .debug_str:0000000000008359 .LASF3581
C:\Users\CYMR90~1\AppData\Local\Temp\cciNYDRP.s:22962  .debug_str:0000000000008f94 .LASF3582
C:\Users\CYMR90~1\AppData\Local\Temp\cciNYDRP.s:23540  .debug_str:000000000000b48e .LASF3583
C:\Users\CYMR90~1\AppData\Local\Temp\cciNYDRP.s:21540  .debug_str:00000000000033c4 .LASF3584
C:\Users\CYMR90~1\AppData\Local\Temp\cciNYDRP.s:22886  .debug_str:0000000000008ab3 .LASF3585
C:\Users\CYMR90~1\AppData\Local\Temp\cciNYDRP.s:20748  .debug_str:00000000000002bb .LASF3586
C:\Users\CYMR90~1\AppData\Local\Temp\cciNYDRP.s:26437  .debug_str:00000000000170c9 .LASF3587
C:\Users\CYMR90~1\AppData\Local\Temp\cciNYDRP.s:23698  .debug_str:000000000000bf76 .LASF3588
C:\Users\CYMR90~1\AppData\Local\Temp\cciNYDRP.s:31169  .debug_str:0000000000029d1a .LASF3589
C:\Users\CYMR90~1\AppData\Local\Temp\cciNYDRP.s:31629  .debug_str:000000000002b9bb .LASF3590
C:\Users\CYMR90~1\AppData\Local\Temp\cciNYDRP.s:25248  .debug_str:0000000000012332 .LASF3591
C:\Users\CYMR90~1\AppData\Local\Temp\cciNYDRP.s:25102  .debug_str:00000000000119e3 .LASF3592
C:\Users\CYMR90~1\AppData\Local\Temp\cciNYDRP.s:27427  .debug_str:000000000001b155 .LASF3593
C:\Users\CYMR90~1\AppData\Local\Temp\cciNYDRP.s:29567  .debug_str:0000000000023530 .LASF3594
C:\Users\CYMR90~1\AppData\Local\Temp\cciNYDRP.s:31007  .debug_str:000000000002932b .LASF3595
C:\Users\CYMR90~1\AppData\Local\Temp\cciNYDRP.s:27081  .debug_str:00000000000199eb .LASF3596
C:\Users\CYMR90~1\AppData\Local\Temp\cciNYDRP.s:28387  .debug_str:000000000001ed90 .LASF3597
C:\Users\CYMR90~1\AppData\Local\Temp\cciNYDRP.s:29491  .debug_str:0000000000023050 .LASF3598
C:\Users\CYMR90~1\AppData\Local\Temp\cciNYDRP.s:30341  .debug_str:0000000000026865 .LASF3599
C:\Users\CYMR90~1\AppData\Local\Temp\cciNYDRP.s:20920  .debug_str:0000000000000d0b .LASF3600
C:\Users\CYMR90~1\AppData\Local\Temp\cciNYDRP.s:24362  .debug_str:000000000000ea5c .LASF3601
C:\Users\CYMR90~1\AppData\Local\Temp\cciNYDRP.s:31709  .debug_str:000000000002bf84 .LASF3602
C:\Users\CYMR90~1\AppData\Local\Temp\cciNYDRP.s:30481  .debug_str:00000000000270ba .LASF3603
C:\Users\CYMR90~1\AppData\Local\Temp\cciNYDRP.s:21382  .debug_str:0000000000002964 .LASF3604
C:\Users\CYMR90~1\AppData\Local\Temp\cciNYDRP.s:21064  .debug_str:00000000000015c7 .LASF3605
C:\Users\CYMR90~1\AppData\Local\Temp\cciNYDRP.s:22494  .debug_str:00000000000070b1 .LASF3606
C:\Users\CYMR90~1\AppData\Local\Temp\cciNYDRP.s:23894  .debug_str:000000000000ccc6 .LASF3607
C:\Users\CYMR90~1\AppData\Local\Temp\cciNYDRP.s:22236  .debug_str:0000000000006017 .LASF3608
C:\Users\CYMR90~1\AppData\Local\Temp\cciNYDRP.s:28939  .debug_str:0000000000020f81 .LASF3609
C:\Users\CYMR90~1\AppData\Local\Temp\cciNYDRP.s:29205  .debug_str:0000000000021ff0 .LASF3610
C:\Users\CYMR90~1\AppData\Local\Temp\cciNYDRP.s:23054  .debug_str:0000000000009558 .LASF3611
C:\Users\CYMR90~1\AppData\Local\Temp\cciNYDRP.s:29611  .debug_str:00000000000237f1 .LASF3612
C:\Users\CYMR90~1\AppData\Local\Temp\cciNYDRP.s:31831  .debug_str:000000000002c758 .LASF3613
C:\Users\CYMR90~1\AppData\Local\Temp\cciNYDRP.s:24688  .debug_str:000000000000feb2 .LASF3614
C:\Users\CYMR90~1\AppData\Local\Temp\cciNYDRP.s:24186  .debug_str:000000000000df42 .LASF3615
C:\Users\CYMR90~1\AppData\Local\Temp\cciNYDRP.s:28325  .debug_str:000000000001ea1f .LASF3616
C:\Users\CYMR90~1\AppData\Local\Temp\cciNYDRP.s:21828  .debug_str:00000000000046c9 .LASF3617
C:\Users\CYMR90~1\AppData\Local\Temp\cciNYDRP.s:21134  .debug_str:0000000000001a9a .LASF3618
C:\Users\CYMR90~1\AppData\Local\Temp\cciNYDRP.s:23136  .debug_str:0000000000009acd .LASF3619
C:\Users\CYMR90~1\AppData\Local\Temp\cciNYDRP.s:29463  .debug_str:0000000000022f14 .LASF3620
C:\Users\CYMR90~1\AppData\Local\Temp\cciNYDRP.s:25136  .debug_str:0000000000011c0b .LASF3621
C:\Users\CYMR90~1\AppData\Local\Temp\cciNYDRP.s:25672  .debug_str:0000000000013ebf .LASF3622
C:\Users\CYMR90~1\AppData\Local\Temp\cciNYDRP.s:23020  .debug_str:0000000000009302 .LASF3623
C:\Users\CYMR90~1\AppData\Local\Temp\cciNYDRP.s:27329  .debug_str:000000000001aae5 .LASF3624
C:\Users\CYMR90~1\AppData\Local\Temp\cciNYDRP.s:26919  .debug_str:0000000000018e7c .LASF3625
C:\Users\CYMR90~1\AppData\Local\Temp\cciNYDRP.s:30857  .debug_str:0000000000028a5d .LASF3626
C:\Users\CYMR90~1\AppData\Local\Temp\cciNYDRP.s:26601  .debug_str:0000000000017adb .LASF3627
C:\Users\CYMR90~1\AppData\Local\Temp\cciNYDRP.s:30775  .debug_str:00000000000284f1 .LASF3628
C:\Users\CYMR90~1\AppData\Local\Temp\cciNYDRP.s:24196  .debug_str:000000000000dfdc .LASF3629
C:\Users\CYMR90~1\AppData\Local\Temp\cciNYDRP.s:22678  .debug_str:0000000000007cf5 .LASF3630
C:\Users\CYMR90~1\AppData\Local\Temp\cciNYDRP.s:31767  .debug_str:000000000002c33f .LASF3631
C:\Users\CYMR90~1\AppData\Local\Temp\cciNYDRP.s:25990  .debug_str:00000000000152c8 .LASF3632
C:\Users\CYMR90~1\AppData\Local\Temp\cciNYDRP.s:27705  .debug_str:000000000001c222 .LASF3633
C:\Users\CYMR90~1\AppData\Local\Temp\cciNYDRP.s:27141  .debug_str:0000000000019d59 .LASF3634
C:\Users\CYMR90~1\AppData\Local\Temp\cciNYDRP.s:29751  .debug_str:00000000000240f3 .LASF3635
C:\Users\CYMR90~1\AppData\Local\Temp\cciNYDRP.s:28989  .debug_str:00000000000212f1 .LASF3636
C:\Users\CYMR90~1\AppData\Local\Temp\cciNYDRP.s:23570  .debug_str:000000000000b69f .LASF3637
C:\Users\CYMR90~1\AppData\Local\Temp\cciNYDRP.s:27193  .debug_str:000000000001a06d .LASF3638
C:\Users\CYMR90~1\AppData\Local\Temp\cciNYDRP.s:20716  .debug_str:0000000000000105 .LASF3639
C:\Users\CYMR90~1\AppData\Local\Temp\cciNYDRP.s:25096  .debug_str:00000000000118ee .LASF3640
C:\Users\CYMR90~1\AppData\Local\Temp\cciNYDRP.s:29029  .debug_str:0000000000021558 .LASF3641
C:\Users\CYMR90~1\AppData\Local\Temp\cciNYDRP.s:29289  .debug_str:000000000002249a .LASF3642
C:\Users\CYMR90~1\AppData\Local\Temp\cciNYDRP.s:26182  .debug_str:0000000000015e48 .LASF3643
C:\Users\CYMR90~1\AppData\Local\Temp\cciNYDRP.s:31139  .debug_str:0000000000029b32 .LASF3644
C:\Users\CYMR90~1\AppData\Local\Temp\cciNYDRP.s:23802  .debug_str:000000000000c5f0 .LASF3645
C:\Users\CYMR90~1\AppData\Local\Temp\cciNYDRP.s:25276  .debug_str:0000000000012505 .LASF3646
C:\Users\CYMR90~1\AppData\Local\Temp\cciNYDRP.s:29589  .debug_str:0000000000023697 .LASF3647
C:\Users\CYMR90~1\AppData\Local\Temp\cciNYDRP.s:30021  .debug_str:000000000002538a .LASF3648
C:\Users\CYMR90~1\AppData\Local\Temp\cciNYDRP.s:25138  .debug_str:0000000000011c20 .LASF3649
C:\Users\CYMR90~1\AppData\Local\Temp\cciNYDRP.s:25500  .debug_str:000000000001343a .LASF3650
C:\Users\CYMR90~1\AppData\Local\Temp\cciNYDRP.s:21154  .debug_str:0000000000001ba5 .LASF3651
C:\Users\CYMR90~1\AppData\Local\Temp\cciNYDRP.s:22464  .debug_str:0000000000006e4b .LASF3652
C:\Users\CYMR90~1\AppData\Local\Temp\cciNYDRP.s:31583  .debug_str:000000000002b690 .LASF3653
C:\Users\CYMR90~1\AppData\Local\Temp\cciNYDRP.s:26212  .debug_str:0000000000016081 .LASF3654
C:\Users\CYMR90~1\AppData\Local\Temp\cciNYDRP.s:27003  .debug_str:0000000000019483 .LASF3655
C:\Users\CYMR90~1\AppData\Local\Temp\cciNYDRP.s:24072  .debug_str:000000000000d875 .LASF3656
C:\Users\CYMR90~1\AppData\Local\Temp\cciNYDRP.s:25340  .debug_str:0000000000012942 .LASF3657
C:\Users\CYMR90~1\AppData\Local\Temp\cciNYDRP.s:20940  .debug_str:0000000000000eb3 .LASF3658
C:\Users\CYMR90~1\AppData\Local\Temp\cciNYDRP.s:27275  .debug_str:000000000001a70d .LASF3659
C:\Users\CYMR90~1\AppData\Local\Temp\cciNYDRP.s:21752  .debug_str:000000000000419a .LASF3660
C:\Users\CYMR90~1\AppData\Local\Temp\cciNYDRP.s:27515  .debug_str:000000000001b6b0 .LASF3661
C:\Users\CYMR90~1\AppData\Local\Temp\cciNYDRP.s:22010  .debug_str:0000000000005237 .LASF3662
C:\Users\CYMR90~1\AppData\Local\Temp\cciNYDRP.s:23120  .debug_str:00000000000099b8 .LASF3663
C:\Users\CYMR90~1\AppData\Local\Temp\cciNYDRP.s:22278  .debug_str:000000000000629b .LASF3664
C:\Users\CYMR90~1\AppData\Local\Temp\cciNYDRP.s:24216  .debug_str:000000000000e111 .LASF3665
C:\Users\CYMR90~1\AppData\Local\Temp\cciNYDRP.s:30505  .debug_str:0000000000027313 .LASF3666
C:\Users\CYMR90~1\AppData\Local\Temp\cciNYDRP.s:29225  .debug_str:0000000000022101 .LASF3667
C:\Users\CYMR90~1\AppData\Local\Temp\cciNYDRP.s:22316  .debug_str:00000000000064cf .LASF3668
C:\Users\CYMR90~1\AppData\Local\Temp\cciNYDRP.s:31149  .debug_str:0000000000029bdf .LASF3669
C:\Users\CYMR90~1\AppData\Local\Temp\cciNYDRP.s:28485  .debug_str:000000000001f3e0 .LASF3670
C:\Users\CYMR90~1\AppData\Local\Temp\cciNYDRP.s:24388  .debug_str:000000000000ebc7 .LASF3671
C:\Users\CYMR90~1\AppData\Local\Temp\cciNYDRP.s:23392  .debug_str:000000000000aa72 .LASF3672
C:\Users\CYMR90~1\AppData\Local\Temp\cciNYDRP.s:20802  .debug_str:0000000000000596 .LASF3673
C:\Users\CYMR90~1\AppData\Local\Temp\cciNYDRP.s:24634  .debug_str:000000000000fb21 .LASF3674
C:\Users\CYMR90~1\AppData\Local\Temp\cciNYDRP.s:23578  .debug_str:000000000000b716 .LASF3675
C:\Users\CYMR90~1\AppData\Local\Temp\cciNYDRP.s:24342  .debug_str:000000000000e926 .LASF3676
C:\Users\CYMR90~1\AppData\Local\Temp\cciNYDRP.s:22500  .debug_str:000000000000711a .LASF3677
C:\Users\CYMR90~1\AppData\Local\Temp\cciNYDRP.s:30573  .debug_str:00000000000276c9 .LASF3678
C:\Users\CYMR90~1\AppData\Local\Temp\cciNYDRP.s:27945  .debug_str:000000000001d289 .LASF3679
C:\Users\CYMR90~1\AppData\Local\Temp\cciNYDRP.s:25442  .debug_str:0000000000012fe1 .LASF3680
C:\Users\CYMR90~1\AppData\Local\Temp\cciNYDRP.s:27529  .debug_str:000000000001b7ab .LASF3681
C:\Users\CYMR90~1\AppData\Local\Temp\cciNYDRP.s:31545  .debug_str:000000000002b423 .LASF3682
C:\Users\CYMR90~1\AppData\Local\Temp\cciNYDRP.s:24776  .debug_str:00000000000103f3 .LASF3683
C:\Users\CYMR90~1\AppData\Local\Temp\cciNYDRP.s:30807  .debug_str:0000000000028745 .LASF3684
C:\Users\CYMR90~1\AppData\Local\Temp\cciNYDRP.s:23782  .debug_str:000000000000c4bb .LASF3685
C:\Users\CYMR90~1\AppData\Local\Temp\cciNYDRP.s:21236  .debug_str:0000000000002013 .LASF3686
C:\Users\CYMR90~1\AppData\Local\Temp\cciNYDRP.s:24750  .debug_str:0000000000010256 .LASF3687
C:\Users\CYMR90~1\AppData\Local\Temp\cciNYDRP.s:24668  .debug_str:000000000000fd52 .LASF3688
C:\Users\CYMR90~1\AppData\Local\Temp\cciNYDRP.s:24886  .debug_str:0000000000010b59 .LASF3689
C:\Users\CYMR90~1\AppData\Local\Temp\cciNYDRP.s:29207  .debug_str:0000000000022008 .LASF3690
C:\Users\CYMR90~1\AppData\Local\Temp\cciNYDRP.s:25560  .debug_str:00000000000137f0 .LASF3691
C:\Users\CYMR90~1\AppData\Local\Temp\cciNYDRP.s:22668  .debug_str:0000000000007c60 .LASF3692
C:\Users\CYMR90~1\AppData\Local\Temp\cciNYDRP.s:29439  .debug_str:0000000000022da3 .LASF3693
C:\Users\CYMR90~1\AppData\Local\Temp\cciNYDRP.s:31585  .debug_str:000000000002b6b4 .LASF3694
C:\Users\CYMR90~1\AppData\Local\Temp\cciNYDRP.s:31121  .debug_str:0000000000029a1d .LASF3695
C:\Users\CYMR90~1\AppData\Local\Temp\cciNYDRP.s:27621  .debug_str:000000000001bcda .LASF3696
C:\Users\CYMR90~1\AppData\Local\Temp\cciNYDRP.s:22468  .debug_str:0000000000006e8d .LASF3697
C:\Users\CYMR90~1\AppData\Local\Temp\cciNYDRP.s:27305  .debug_str:000000000001a940 .LASF3698
C:\Users\CYMR90~1\AppData\Local\Temp\cciNYDRP.s:22552  .debug_str:0000000000007434 .LASF3699
C:\Users\CYMR90~1\AppData\Local\Temp\cciNYDRP.s:21532  .debug_str:0000000000003349 .LASF3700
C:\Users\CYMR90~1\AppData\Local\Temp\cciNYDRP.s:29833  .debug_str:000000000002465e .LASF3701
C:\Users\CYMR90~1\AppData\Local\Temp\cciNYDRP.s:22322  .debug_str:0000000000006525 .LASF3702
C:\Users\CYMR90~1\AppData\Local\Temp\cciNYDRP.s:22860  .debug_str:000000000000891c .LASF3703
C:\Users\CYMR90~1\AppData\Local\Temp\cciNYDRP.s:22972  .debug_str:0000000000009047 .LASF3704
C:\Users\CYMR90~1\AppData\Local\Temp\cciNYDRP.s:29095  .debug_str:0000000000021934 .LASF3705
C:\Users\CYMR90~1\AppData\Local\Temp\cciNYDRP.s:31057  .debug_str:0000000000029656 .LASF3706
C:\Users\CYMR90~1\AppData\Local\Temp\cciNYDRP.s:29347  .debug_str:0000000000022809 .LASF3707
C:\Users\CYMR90~1\AppData\Local\Temp\cciNYDRP.s:30947  .debug_str:0000000000028f9f .LASF3708
C:\Users\CYMR90~1\AppData\Local\Temp\cciNYDRP.s:20834  .debug_str:0000000000000791 .LASF3709
C:\Users\CYMR90~1\AppData\Local\Temp\cciNYDRP.s:29381  .debug_str:0000000000022a74 .LASF3710
C:\Users\CYMR90~1\AppData\Local\Temp\cciNYDRP.s:26397  .debug_str:0000000000016e61 .LASF3711
C:\Users\CYMR90~1\AppData\Local\Temp\cciNYDRP.s:23400  .debug_str:000000000000aae6 .LASF3712
C:\Users\CYMR90~1\AppData\Local\Temp\cciNYDRP.s:30293  .debug_str:0000000000026548 .LASF3713
C:\Users\CYMR90~1\AppData\Local\Temp\cciNYDRP.s:22452  .debug_str:0000000000006d89 .LASF3714
C:\Users\CYMR90~1\AppData\Local\Temp\cciNYDRP.s:26010  .debug_str:00000000000153cc .LASF3715
C:\Users\CYMR90~1\AppData\Local\Temp\cciNYDRP.s:23828  .debug_str:000000000000c83a .LASF3716
C:\Users\CYMR90~1\AppData\Local\Temp\cciNYDRP.s:29459  .debug_str:0000000000022ed5 .LASF3717
C:\Users\CYMR90~1\AppData\Local\Temp\cciNYDRP.s:27425  .debug_str:000000000001b112 .LASF3718
C:\Users\CYMR90~1\AppData\Local\Temp\cciNYDRP.s:29389  .debug_str:0000000000022af4 .LASF3719
C:\Users\CYMR90~1\AppData\Local\Temp\cciNYDRP.s:26541  .debug_str:00000000000176f0 .LASF3720
C:\Users\CYMR90~1\AppData\Local\Temp\cciNYDRP.s:24262  .debug_str:000000000000e3d3 .LASF3721
C:\Users\CYMR90~1\AppData\Local\Temp\cciNYDRP.s:28453  .debug_str:000000000001f1a5 .LASF3722
C:\Users\CYMR90~1\AppData\Local\Temp\cciNYDRP.s:23454  .debug_str:000000000000af13 .LASF3723
C:\Users\CYMR90~1\AppData\Local\Temp\cciNYDRP.s:25720  .debug_str:00000000000141f1 .LASF3724
C:\Users\CYMR90~1\AppData\Local\Temp\cciNYDRP.s:26681  .debug_str:0000000000017f72 .LASF3725
C:\Users\CYMR90~1\AppData\Local\Temp\cciNYDRP.s:30391  .debug_str:0000000000026b4d .LASF3726
C:\Users\CYMR90~1\AppData\Local\Temp\cciNYDRP.s:23242  .debug_str:000000000000a149 .LASF3727
C:\Users\CYMR90~1\AppData\Local\Temp\cciNYDRP.s:24646  .debug_str:000000000000fbd1 .LASF3728
C:\Users\CYMR90~1\AppData\Local\Temp\cciNYDRP.s:26973  .debug_str:000000000001928c .LASF3729
C:\Users\CYMR90~1\AppData\Local\Temp\cciNYDRP.s:23498  .debug_str:000000000000b183 .LASF3730
C:\Users\CYMR90~1\AppData\Local\Temp\cciNYDRP.s:24232  .debug_str:000000000000e217 .LASF3731
C:\Users\CYMR90~1\AppData\Local\Temp\cciNYDRP.s:31687  .debug_str:000000000002bdb6 .LASF3732
C:\Users\CYMR90~1\AppData\Local\Temp\cciNYDRP.s:31529  .debug_str:000000000002b310 .LASF3733
C:\Users\CYMR90~1\AppData\Local\Temp\cciNYDRP.s:24092  .debug_str:000000000000d9bd .LASF3734
C:\Users\CYMR90~1\AppData\Local\Temp\cciNYDRP.s:22062  .debug_str:0000000000005559 .LASF3735
C:\Users\CYMR90~1\AppData\Local\Temp\cciNYDRP.s:31177  .debug_str:0000000000029d70 .LASF3736
C:\Users\CYMR90~1\AppData\Local\Temp\cciNYDRP.s:28901  .debug_str:0000000000020d69 .LASF3737
C:\Users\CYMR90~1\AppData\Local\Temp\cciNYDRP.s:28817  .debug_str:000000000002083f .LASF3738
C:\Users\CYMR90~1\AppData\Local\Temp\cciNYDRP.s:26126  .debug_str:0000000000015a93 .LASF3739
C:\Users\CYMR90~1\AppData\Local\Temp\cciNYDRP.s:22162  .debug_str:0000000000005b75 .LASF3740
C:\Users\CYMR90~1\AppData\Local\Temp\cciNYDRP.s:25604  .debug_str:0000000000013ab7 .LASF3741
C:\Users\CYMR90~1\AppData\Local\Temp\cciNYDRP.s:29087  .debug_str:00000000000218ba .LASF3742
C:\Users\CYMR90~1\AppData\Local\Temp\cciNYDRP.s:30203  .debug_str:0000000000025fd2 .LASF3743
C:\Users\CYMR90~1\AppData\Local\Temp\cciNYDRP.s:21894  .debug_str:0000000000004b45 .LASF3744
C:\Users\CYMR90~1\AppData\Local\Temp\cciNYDRP.s:29673  .debug_str:0000000000023b73 .LASF3745
C:\Users\CYMR90~1\AppData\Local\Temp\cciNYDRP.s:28821  .debug_str:000000000002088f .LASF3746
C:\Users\CYMR90~1\AppData\Local\Temp\cciNYDRP.s:31331  .debug_str:000000000002a6ce .LASF3747
C:\Users\CYMR90~1\AppData\Local\Temp\cciNYDRP.s:24364  .debug_str:000000000000ea74 .LASF3748
C:\Users\CYMR90~1\AppData\Local\Temp\cciNYDRP.s:22074  .debug_str:00000000000055fb .LASF3749
C:\Users\CYMR90~1\AppData\Local\Temp\cciNYDRP.s:23736  .debug_str:000000000000c1e7 .LASF3750
C:\Users\CYMR90~1\AppData\Local\Temp\cciNYDRP.s:28913  .debug_str:0000000000020e0b .LASF3751
C:\Users\CYMR90~1\AppData\Local\Temp\cciNYDRP.s:26783  .debug_str:0000000000018581 .LASF3752
C:\Users\CYMR90~1\AppData\Local\Temp\cciNYDRP.s:27857  .debug_str:000000000001cc0b .LASF3753
C:\Users\CYMR90~1\AppData\Local\Temp\cciNYDRP.s:30921  .debug_str:0000000000028e14 .LASF3754
C:\Users\CYMR90~1\AppData\Local\Temp\cciNYDRP.s:28735  .debug_str:00000000000202ed .LASF3755
C:\Users\CYMR90~1\AppData\Local\Temp\cciNYDRP.s:31855  .debug_str:000000000002c924 .LASF3756
C:\Users\CYMR90~1\AppData\Local\Temp\cciNYDRP.s:21576  .debug_str:000000000000361c .LASF3757
C:\Users\CYMR90~1\AppData\Local\Temp\cciNYDRP.s:30003  .debug_str:0000000000025270 .LASF3758
C:\Users\CYMR90~1\AppData\Local\Temp\cciNYDRP.s:20960  .debug_str:0000000000000fbb .LASF3759
C:\Users\CYMR90~1\AppData\Local\Temp\cciNYDRP.s:28023  .debug_str:000000000001d775 .LASF3760
C:\Users\CYMR90~1\AppData\Local\Temp\cciNYDRP.s:25478  .debug_str:0000000000013221 .LASF3761
C:\Users\CYMR90~1\AppData\Local\Temp\cciNYDRP.s:31941  .debug_str:000000000002ced8 .LASF3762
C:\Users\CYMR90~1\AppData\Local\Temp\cciNYDRP.s:21370  .debug_str:00000000000028af .LASF3763
C:\Users\CYMR90~1\AppData\Local\Temp\cciNYDRP.s:30449  .debug_str:0000000000026ef4 .LASF3764
C:\Users\CYMR90~1\AppData\Local\Temp\cciNYDRP.s:25326  .debug_str:000000000001283e .LASF3765
C:\Users\CYMR90~1\AppData\Local\Temp\cciNYDRP.s:28727  .debug_str:0000000000020233 .LASF3766
C:\Users\CYMR90~1\AppData\Local\Temp\cciNYDRP.s:28863  .debug_str:0000000000020b29 .LASF3767
C:\Users\CYMR90~1\AppData\Local\Temp\cciNYDRP.s:20918  .debug_str:0000000000000ce9 .LASF3768
C:\Users\CYMR90~1\AppData\Local\Temp\cciNYDRP.s:28085  .debug_str:000000000001db1d .LASF3769
C:\Users\CYMR90~1\AppData\Local\Temp\cciNYDRP.s:21016  .debug_str:00000000000012ea .LASF3770
C:\Users\CYMR90~1\AppData\Local\Temp\cciNYDRP.s:30705  .debug_str:0000000000027fe5 .LASF3771
C:\Users\CYMR90~1\AppData\Local\Temp\cciNYDRP.s:25234  .debug_str:0000000000012225 .LASF3772
C:\Users\CYMR90~1\AppData\Local\Temp\cciNYDRP.s:28219  .debug_str:000000000001e3c0 .LASF3773
C:\Users\CYMR90~1\AppData\Local\Temp\cciNYDRP.s:27139  .debug_str:0000000000019d29 .LASF3774
C:\Users\CYMR90~1\AppData\Local\Temp\cciNYDRP.s:25900  .debug_str:0000000000014ceb .LASF3775
C:\Users\CYMR90~1\AppData\Local\Temp\cciNYDRP.s:24720  .debug_str:0000000000010095 .LASF3776
C:\Users\CYMR90~1\AppData\Local\Temp\cciNYDRP.s:31573  .debug_str:000000000002b5c1 .LASF3777
C:\Users\CYMR90~1\AppData\Local\Temp\cciNYDRP.s:29915  .debug_str:0000000000024be8 .LASF3778
C:\Users\CYMR90~1\AppData\Local\Temp\cciNYDRP.s:28703  .debug_str:00000000000200d8 .LASF3779
C:\Users\CYMR90~1\AppData\Local\Temp\cciNYDRP.s:30693  .debug_str:0000000000027ec1 .LASF3780
C:\Users\CYMR90~1\AppData\Local\Temp\cciNYDRP.s:30939  .debug_str:0000000000028f06 .LASF3781
C:\Users\CYMR90~1\AppData\Local\Temp\cciNYDRP.s:23910  .debug_str:000000000000cde1 .LASF3782
C:\Users\CYMR90~1\AppData\Local\Temp\cciNYDRP.s:31283  .debug_str:000000000002a395 .LASF3783
C:\Users\CYMR90~1\AppData\Local\Temp\cciNYDRP.s:23346  .debug_str:000000000000a77c .LASF3784
C:\Users\CYMR90~1\AppData\Local\Temp\cciNYDRP.s:29931  .debug_str:0000000000024cfd .LASF3785
C:\Users\CYMR90~1\AppData\Local\Temp\cciNYDRP.s:23200  .debug_str:0000000000009ea6 .LASF3786
C:\Users\CYMR90~1\AppData\Local\Temp\cciNYDRP.s:28973  .debug_str:0000000000021158 .LASF3787
C:\Users\CYMR90~1\AppData\Local\Temp\cciNYDRP.s:21408  .debug_str:0000000000002b08 .LASF3788
C:\Users\CYMR90~1\AppData\Local\Temp\cciNYDRP.s:27159  .debug_str:0000000000019e67 .LASF3789
C:\Users\CYMR90~1\AppData\Local\Temp\cciNYDRP.s:24008  .debug_str:000000000000d4c5 .LASF3790
C:\Users\CYMR90~1\AppData\Local\Temp\cciNYDRP.s:22114  .debug_str:0000000000005878 .LASF3791
C:\Users\CYMR90~1\AppData\Local\Temp\cciNYDRP.s:30611  .debug_str:0000000000027910 .LASF3792
C:\Users\CYMR90~1\AppData\Local\Temp\cciNYDRP.s:24496  .debug_str:000000000000f22d .LASF3793
C:\Users\CYMR90~1\AppData\Local\Temp\cciNYDRP.s:23692  .debug_str:000000000000bf1b .LASF3794
C:\Users\CYMR90~1\AppData\Local\Temp\cciNYDRP.s:23508  .debug_str:000000000000b20d .LASF3795
C:\Users\CYMR90~1\AppData\Local\Temp\cciNYDRP.s:20864  .debug_str:0000000000000961 .LASF3796
C:\Users\CYMR90~1\AppData\Local\Temp\cciNYDRP.s:25134  .debug_str:0000000000011bd9 .LASF3797
C:\Users\CYMR90~1\AppData\Local\Temp\cciNYDRP.s:29385  .debug_str:0000000000022ab0 .LASF3798
C:\Users\CYMR90~1\AppData\Local\Temp\cciNYDRP.s:22262  .debug_str:0000000000006199 .LASF3799
C:\Users\CYMR90~1\AppData\Local\Temp\cciNYDRP.s:23616  .debug_str:000000000000b98b .LASF3800
C:\Users\CYMR90~1\AppData\Local\Temp\cciNYDRP.s:24708  .debug_str:000000000000ffc9 .LASF3801
C:\Users\CYMR90~1\AppData\Local\Temp\cciNYDRP.s:28949  .debug_str:0000000000020fee .LASF3802
C:\Users\CYMR90~1\AppData\Local\Temp\cciNYDRP.s:21904  .debug_str:0000000000004bfd .LASF3803
C:\Users\CYMR90~1\AppData\Local\Temp\cciNYDRP.s:26106  .debug_str:0000000000015943 .LASF3804
C:\Users\CYMR90~1\AppData\Local\Temp\cciNYDRP.s:30409  .debug_str:0000000000026c5d .LASF3805
C:\Users\CYMR90~1\AppData\Local\Temp\cciNYDRP.s:23388  .debug_str:000000000000aa26 .LASF3806
C:\Users\CYMR90~1\AppData\Local\Temp\cciNYDRP.s:25694  .debug_str:0000000000013ff8 .LASF3807
C:\Users\CYMR90~1\AppData\Local\Temp\cciNYDRP.s:28113  .debug_str:000000000001dd4a .LASF3808
C:\Users\CYMR90~1\AppData\Local\Temp\cciNYDRP.s:23890  .debug_str:000000000000cc78 .LASF3809
C:\Users\CYMR90~1\AppData\Local\Temp\cciNYDRP.s:29135  .debug_str:0000000000021bc7 .LASF3810
C:\Users\CYMR90~1\AppData\Local\Temp\cciNYDRP.s:22110  .debug_str:0000000000005820 .LASF3811
C:\Users\CYMR90~1\AppData\Local\Temp\cciNYDRP.s:31527  .debug_str:000000000002b2de .LASF3812
C:\Users\CYMR90~1\AppData\Local\Temp\cciNYDRP.s:24490  .debug_str:000000000000f1aa .LASF3813
C:\Users\CYMR90~1\AppData\Local\Temp\cciNYDRP.s:28635  .debug_str:000000000001fcde .LASF3814
C:\Users\CYMR90~1\AppData\Local\Temp\cciNYDRP.s:21620  .debug_str:000000000000390b .LASF3815
C:\Users\CYMR90~1\AppData\Local\Temp\cciNYDRP.s:24566  .debug_str:000000000000f6eb .LASF3816
C:\Users\CYMR90~1\AppData\Local\Temp\cciNYDRP.s:29709  .debug_str:0000000000023d9d .LASF3817
C:\Users\CYMR90~1\AppData\Local\Temp\cciNYDRP.s:23088  .debug_str:000000000000979b .LASF3818
C:\Users\CYMR90~1\AppData\Local\Temp\cciNYDRP.s:27383  .debug_str:000000000001ae29 .LASF3819
C:\Users\CYMR90~1\AppData\Local\Temp\cciNYDRP.s:21720  .debug_str:0000000000003f45 .LASF3820
C:\Users\CYMR90~1\AppData\Local\Temp\cciNYDRP.s:29749  .debug_str:00000000000240c1 .LASF3821
C:\Users\CYMR90~1\AppData\Local\Temp\cciNYDRP.s:22722  .debug_str:000000000000806e .LASF3822
C:\Users\CYMR90~1\AppData\Local\Temp\cciNYDRP.s:24332  .debug_str:000000000000e852 .LASF3823
C:\Users\CYMR90~1\AppData\Local\Temp\cciNYDRP.s:31213  .debug_str:0000000000029f72 .LASF3824
C:\Users\CYMR90~1\AppData\Local\Temp\cciNYDRP.s:22550  .debug_str:0000000000007402 .LASF3825
C:\Users\CYMR90~1\AppData\Local\Temp\cciNYDRP.s:28511  .debug_str:000000000001f539 .LASF3826
C:\Users\CYMR90~1\AppData\Local\Temp\cciNYDRP.s:21330  .debug_str:0000000000002612 .LASF3827
C:\Users\CYMR90~1\AppData\Local\Temp\cciNYDRP.s:26715  .debug_str:000000000001816e .LASF3828
C:\Users\CYMR90~1\AppData\Local\Temp\cciNYDRP.s:29883  .debug_str:00000000000249e5 .LASF3829
C:\Users\CYMR90~1\AppData\Local\Temp\cciNYDRP.s:22730  .debug_str:00000000000080eb .LASF3830
C:\Users\CYMR90~1\AppData\Local\Temp\cciNYDRP.s:30157  .debug_str:0000000000025ce0 .LASF3831
C:\Users\CYMR90~1\AppData\Local\Temp\cciNYDRP.s:25274  .debug_str:00000000000124d3 .LASF3832
C:\Users\CYMR90~1\AppData\Local\Temp\cciNYDRP.s:29445  .debug_str:0000000000022dfe .LASF3833
C:\Users\CYMR90~1\AppData\Local\Temp\cciNYDRP.s:22402  .debug_str:0000000000006a40 .LASF3834
C:\Users\CYMR90~1\AppData\Local\Temp\cciNYDRP.s:25316  .debug_str:000000000001277e .LASF3835
C:\Users\CYMR90~1\AppData\Local\Temp\cciNYDRP.s:28637  .debug_str:000000000001fd10 .LASF3836
C:\Users\CYMR90~1\AppData\Local\Temp\cciNYDRP.s:25240  .debug_str:00000000000122b2 .LASF3837
C:\Users\CYMR90~1\AppData\Local\Temp\cciNYDRP.s:30195  .debug_str:0000000000025f5c .LASF3838
C:\Users\CYMR90~1\AppData\Local\Temp\cciNYDRP.s:21608  .debug_str:000000000000381e .LASF3839
C:\Users\CYMR90~1\AppData\Local\Temp\cciNYDRP.s:23842  .debug_str:000000000000c9d1 .LASF3840
C:\Users\CYMR90~1\AppData\Local\Temp\cciNYDRP.s:24280  .debug_str:000000000000e4e8 .LASF3841
C:\Users\CYMR90~1\AppData\Local\Temp\cciNYDRP.s:29757  .debug_str:000000000002416a .LASF3842
C:\Users\CYMR90~1\AppData\Local\Temp\cciNYDRP.s:26122  .debug_str:0000000000015a42 .LASF3843
C:\Users\CYMR90~1\AppData\Local\Temp\cciNYDRP.s:26553  .debug_str:00000000000177aa .LASF3844
C:\Users\CYMR90~1\AppData\Local\Temp\cciNYDRP.s:23568  .debug_str:000000000000b67d .LASF3845
C:\Users\CYMR90~1\AppData\Local\Temp\cciNYDRP.s:25908  .debug_str:0000000000014d74 .LASF3846
C:\Users\CYMR90~1\AppData\Local\Temp\cciNYDRP.s:28843  .debug_str:00000000000209c9 .LASF3847
C:\Users\CYMR90~1\AppData\Local\Temp\cciNYDRP.s:25932  .debug_str:0000000000014f29 .LASF3848
C:\Users\CYMR90~1\AppData\Local\Temp\cciNYDRP.s:26575  .debug_str:0000000000017952 .LASF3849
C:\Users\CYMR90~1\AppData\Local\Temp\cciNYDRP.s:26997  .debug_str:0000000000019411 .LASF3850
C:\Users\CYMR90~1\AppData\Local\Temp\cciNYDRP.s:24988  .debug_str:000000000001117a .LASF3851
C:\Users\CYMR90~1\AppData\Local\Temp\cciNYDRP.s:22644  .debug_str:0000000000007a28 .LASF3852
C:\Users\CYMR90~1\AppData\Local\Temp\cciNYDRP.s:21026  .debug_str:0000000000001391 .LASF3853
C:\Users\CYMR90~1\AppData\Local\Temp\cciNYDRP.s:24630  .debug_str:000000000000fada .LASF3854
C:\Users\CYMR90~1\AppData\Local\Temp\cciNYDRP.s:25554  .debug_str:00000000000137af .LASF3855
C:\Users\CYMR90~1\AppData\Local\Temp\cciNYDRP.s:22034  .debug_str:00000000000053b9 .LASF3856
C:\Users\CYMR90~1\AppData\Local\Temp\cciNYDRP.s:26813  .debug_str:0000000000018728 .LASF3857
C:\Users\CYMR90~1\AppData\Local\Temp\cciNYDRP.s:24170  .debug_str:000000000000de58 .LASF3858
C:\Users\CYMR90~1\AppData\Local\Temp\cciNYDRP.s:23208  .debug_str:0000000000009f40 .LASF3859
C:\Users\CYMR90~1\AppData\Local\Temp\cciNYDRP.s:24662  .debug_str:000000000000fce4 .LASF3860
C:\Users\CYMR90~1\AppData\Local\Temp\cciNYDRP.s:26519  .debug_str:000000000001758b .LASF3861
C:\Users\CYMR90~1\AppData\Local\Temp\cciNYDRP.s:25968  .debug_str:000000000001514d .LASF3862
C:\Users\CYMR90~1\AppData\Local\Temp\cciNYDRP.s:25354  .debug_str:0000000000012a4d .LASF3863
C:\Users\CYMR90~1\AppData\Local\Temp\cciNYDRP.s:27699  .debug_str:000000000001c1d8 .LASF3864
C:\Users\CYMR90~1\AppData\Local\Temp\cciNYDRP.s:24284  .debug_str:000000000000e567 .LASF3865
C:\Users\CYMR90~1\AppData\Local\Temp\cciNYDRP.s:20902  .debug_str:0000000000000bfa .LASF3866
C:\Users\CYMR90~1\AppData\Local\Temp\cciNYDRP.s:30945  .debug_str:0000000000028f7b .LASF3867
C:\Users\CYMR90~1\AppData\Local\Temp\cciNYDRP.s:25420  .debug_str:0000000000012e69 .LASF3868
C:\Users\CYMR90~1\AppData\Local\Temp\cciNYDRP.s:28035  .debug_str:000000000001d82f .LASF3869
C:\Users\CYMR90~1\AppData\Local\Temp\cciNYDRP.s:21272  .debug_str:0000000000002242 .LASF3870
C:\Users\CYMR90~1\AppData\Local\Temp\cciNYDRP.s:21182  .debug_str:0000000000001d68 .LASF3871
C:\Users\CYMR90~1\AppData\Local\Temp\cciNYDRP.s:29997  .debug_str:0000000000025209 .LASF3872
C:\Users\CYMR90~1\AppData\Local\Temp\cciNYDRP.s:29771  .debug_str:0000000000024279 .LASF3873
C:\Users\CYMR90~1\AppData\Local\Temp\cciNYDRP.s:26391  .debug_str:0000000000016e0e .LASF3874
C:\Users\CYMR90~1\AppData\Local\Temp\cciNYDRP.s:25702  .debug_str:0000000000014099 .LASF3875
C:\Users\CYMR90~1\AppData\Local\Temp\cciNYDRP.s:30933  .debug_str:0000000000028ec1 .LASF3876
C:\Users\CYMR90~1\AppData\Local\Temp\cciNYDRP.s:27525  .debug_str:000000000001b74a .LASF3877
C:\Users\CYMR90~1\AppData\Local\Temp\cciNYDRP.s:24146  .debug_str:000000000000dcea .LASF3878
C:\Users\CYMR90~1\AppData\Local\Temp\cciNYDRP.s:31315  .debug_str:000000000002a5d0 .LASF3879
C:\Users\CYMR90~1\AppData\Local\Temp\cciNYDRP.s:31617  .debug_str:000000000002b8e3 .LASF3880
C:\Users\CYMR90~1\AppData\Local\Temp\cciNYDRP.s:23370  .debug_str:000000000000a8ff .LASF3881
C:\Users\CYMR90~1\AppData\Local\Temp\cciNYDRP.s:21902  .debug_str:0000000000004bd9 .LASF3882
C:\Users\CYMR90~1\AppData\Local\Temp\cciNYDRP.s:31839  .debug_str:000000000002c7f1 .LASF3883
C:\Users\CYMR90~1\AppData\Local\Temp\cciNYDRP.s:25118  .debug_str:0000000000011ad5 .LASF3884
C:\Users\CYMR90~1\AppData\Local\Temp\cciNYDRP.s:21696  .debug_str:0000000000003df4 .LASF3885
C:\Users\CYMR90~1\AppData\Local\Temp\cciNYDRP.s:29633  .debug_str:0000000000023936 .LASF3886
C:\Users\CYMR90~1\AppData\Local\Temp\cciNYDRP.s:26230  .debug_str:0000000000016194 .LASF3887
C:\Users\CYMR90~1\AppData\Local\Temp\cciNYDRP.s:24676  .debug_str:000000000000fdf7 .LASF3888
C:\Users\CYMR90~1\AppData\Local\Temp\cciNYDRP.s:30785  .debug_str:000000000002859e .LASF3889
C:\Users\CYMR90~1\AppData\Local\Temp\cciNYDRP.s:28779  .debug_str:0000000000020619 .LASF3890
C:\Users\CYMR90~1\AppData\Local\Temp\cciNYDRP.s:22688  .debug_str:0000000000007da5 .LASF3891
C:\Users\CYMR90~1\AppData\Local\Temp\cciNYDRP.s:30625  .debug_str:0000000000027a3b .LASF3892
C:\Users\CYMR90~1\AppData\Local\Temp\cciNYDRP.s:27251  .debug_str:000000000001a554 .LASF3893
C:\Users\CYMR90~1\AppData\Local\Temp\cciNYDRP.s:23860  .debug_str:000000000000caf1 .LASF3894
C:\Users\CYMR90~1\AppData\Local\Temp\cciNYDRP.s:31785  .debug_str:000000000002c4be .LASF3895
C:\Users\CYMR90~1\AppData\Local\Temp\cciNYDRP.s:21808  .debug_str:0000000000004554 .LASF3896
C:\Users\CYMR90~1\AppData\Local\Temp\cciNYDRP.s:24992  .debug_str:00000000000111b5 .LASF3897
C:\Users\CYMR90~1\AppData\Local\Temp\cciNYDRP.s:27875  .debug_str:000000000001cdb0 .LASF3898
C:\Users\CYMR90~1\AppData\Local\Temp\cciNYDRP.s:29493  .debug_str:000000000002306f .LASF3899
C:\Users\CYMR90~1\AppData\Local\Temp\cciNYDRP.s:30863  .debug_str:0000000000028ab7 .LASF3900
C:\Users\CYMR90~1\AppData\Local\Temp\cciNYDRP.s:21414  .debug_str:0000000000002b97 .LASF3901
C:\Users\CYMR90~1\AppData\Local\Temp\cciNYDRP.s:26513  .debug_str:0000000000017528 .LASF3902
C:\Users\CYMR90~1\AppData\Local\Temp\cciNYDRP.s:25940  .debug_str:0000000000014fa9 .LASF3903
C:\Users\CYMR90~1\AppData\Local\Temp\cciNYDRP.s:22542  .debug_str:000000000000738b .LASF3904
C:\Users\CYMR90~1\AppData\Local\Temp\cciNYDRP.s:22664  .debug_str:0000000000007bfd .LASF3905
C:\Users\CYMR90~1\AppData\Local\Temp\cciNYDRP.s:22660  .debug_str:0000000000007bbc .LASF3906
C:\Users\CYMR90~1\AppData\Local\Temp\cciNYDRP.s:23712  .debug_str:000000000000c049 .LASF3907
C:\Users\CYMR90~1\AppData\Local\Temp\cciNYDRP.s:31649  .debug_str:000000000002bb1a .LASF3908
C:\Users\CYMR90~1\AppData\Local\Temp\cciNYDRP.s:21322  .debug_str:0000000000002573 .LASF3909
C:\Users\CYMR90~1\AppData\Local\Temp\cciNYDRP.s:29653  .debug_str:0000000000023a63 .LASF3910
C:\Users\CYMR90~1\AppData\Local\Temp\cciNYDRP.s:31579  .debug_str:000000000002b64d .LASF3911
C:\Users\CYMR90~1\AppData\Local\Temp\cciNYDRP.s:28037  .debug_str:000000000001d853 .LASF3912
C:\Users\CYMR90~1\AppData\Local\Temp\cciNYDRP.s:24702  .debug_str:000000000000ff75 .LASF3913
C:\Users\CYMR90~1\AppData\Local\Temp\cciNYDRP.s:21124  .debug_str:00000000000019e6 .LASF3914
C:\Users\CYMR90~1\AppData\Local\Temp\cciNYDRP.s:29189  .debug_str:0000000000021ef1 .LASF3915
C:\Users\CYMR90~1\AppData\Local\Temp\cciNYDRP.s:25806  .debug_str:0000000000014729 .LASF3916
C:\Users\CYMR90~1\AppData\Local\Temp\cciNYDRP.s:24500  .debug_str:000000000000f273 .LASF3917
C:\Users\CYMR90~1\AppData\Local\Temp\cciNYDRP.s:27077  .debug_str:00000000000199a1 .LASF3918
C:\Users\CYMR90~1\AppData\Local\Temp\cciNYDRP.s:26963  .debug_str:00000000000191fc .LASF3919
C:\Users\CYMR90~1\AppData\Local\Temp\cciNYDRP.s:28341  .debug_str:000000000001ead9 .LASF3920
C:\Users\CYMR90~1\AppData\Local\Temp\cciNYDRP.s:30275  .debug_str:000000000002641a .LASF3921
C:\Users\CYMR90~1\AppData\Local\Temp\cciNYDRP.s:28411  .debug_str:000000000001ef20 .LASF3922
C:\Users\CYMR90~1\AppData\Local\Temp\cciNYDRP.s:23024  .debug_str:0000000000009343 .LASF3923
C:\Users\CYMR90~1\AppData\Local\Temp\cciNYDRP.s:31431  .debug_str:000000000002acda .LASF3924
C:\Users\CYMR90~1\AppData\Local\Temp\cciNYDRP.s:27917  .debug_str:000000000001d0fd .LASF3925
C:\Users\CYMR90~1\AppData\Local\Temp\cciNYDRP.s:29125  .debug_str:0000000000021b27 .LASF3926
C:\Users\CYMR90~1\AppData\Local\Temp\cciNYDRP.s:21132  .debug_str:0000000000001a76 .LASF3927
C:\Users\CYMR90~1\AppData\Local\Temp\cciNYDRP.s:29043  .debug_str:0000000000021629 .LASF3928
C:\Users\CYMR90~1\AppData\Local\Temp\cciNYDRP.s:25656  .debug_str:0000000000013dd1 .LASF3929
C:\Users\CYMR90~1\AppData\Local\Temp\cciNYDRP.s:31327  .debug_str:000000000002a68f .LASF3930
C:\Users\CYMR90~1\AppData\Local\Temp\cciNYDRP.s:28983  .debug_str:00000000000211f1 .LASF3931
C:\Users\CYMR90~1\AppData\Local\Temp\cciNYDRP.s:25600  .debug_str:0000000000013a7c .LASF3932
C:\Users\CYMR90~1\AppData\Local\Temp\cciNYDRP.s:30291  .debug_str:0000000000026524 .LASF3933
C:\Users\CYMR90~1\AppData\Local\Temp\cciNYDRP.s:30121  .debug_str:0000000000025aef .LASF3934
C:\Users\CYMR90~1\AppData\Local\Temp\cciNYDRP.s:26739  .debug_str:00000000000182e9 .LASF3935
C:\Users\CYMR90~1\AppData\Local\Temp\cciNYDRP.s:31893  .debug_str:000000000002cb89 .LASF3936
C:\Users\CYMR90~1\AppData\Local\Temp\cciNYDRP.s:31859  .debug_str:000000000002c960 .LASF3937
C:\Users\CYMR90~1\AppData\Local\Temp\cciNYDRP.s:29195  .debug_str:0000000000021f5e .LASF3938
C:\Users\CYMR90~1\AppData\Local\Temp\cciNYDRP.s:28053  .debug_str:000000000001d93c .LASF3939
C:\Users\CYMR90~1\AppData\Local\Temp\cciNYDRP.s:22456  .debug_str:0000000000006ddd .LASF3940
C:\Users\CYMR90~1\AppData\Local\Temp\cciNYDRP.s:22596  .debug_str:0000000000007705 .LASF3941
C:\Users\CYMR90~1\AppData\Local\Temp\cciNYDRP.s:26621  .debug_str:0000000000017bff .LASF3942
C:\Users\CYMR90~1\AppData\Local\Temp\cciNYDRP.s:30567  .debug_str:0000000000027668 .LASF3943
C:\Users\CYMR90~1\AppData\Local\Temp\cciNYDRP.s:23186  .debug_str:0000000000009dca .LASF3944
C:\Users\CYMR90~1\AppData\Local\Temp\cciNYDRP.s:31719  .debug_str:000000000002c01d .LASF3945
C:\Users\CYMR90~1\AppData\Local\Temp\cciNYDRP.s:22704  .debug_str:0000000000007f45 .LASF3946
C:\Users\CYMR90~1\AppData\Local\Temp\cciNYDRP.s:25050  .debug_str:000000000001155c .LASF3947
C:\Users\CYMR90~1\AppData\Local\Temp\cciNYDRP.s:27579  .debug_str:000000000001ba27 .LASF3948
C:\Users\CYMR90~1\AppData\Local\Temp\cciNYDRP.s:31637  .debug_str:000000000002ba5b .LASF3949
C:\Users\CYMR90~1\AppData\Local\Temp\cciNYDRP.s:25746  .debug_str:0000000000014356 .LASF3950
C:\Users\CYMR90~1\AppData\Local\Temp\cciNYDRP.s:28165  .debug_str:000000000001e0a5 .LASF3951
C:\Users\CYMR90~1\AppData\Local\Temp\cciNYDRP.s:30497  .debug_str:0000000000027288 .LASF3952
C:\Users\CYMR90~1\AppData\Local\Temp\cciNYDRP.s:21554  .debug_str:00000000000034a1 .LASF3953
C:\Users\CYMR90~1\AppData\Local\Temp\cciNYDRP.s:28877  .debug_str:0000000000020c1a .LASF3954
C:\Users\CYMR90~1\AppData\Local\Temp\cciNYDRP.s:21468  .debug_str:0000000000002ebb .LASF3955
C:\Users\CYMR90~1\AppData\Local\Temp\cciNYDRP.s:28517  .debug_str:000000000001f59d .LASF3956
C:\Users\CYMR90~1\AppData\Local\Temp\cciNYDRP.s:30899  .debug_str:0000000000028c7e .LASF3957
C:\Users\CYMR90~1\AppData\Local\Temp\cciNYDRP.s:25374  .debug_str:0000000000012b50 .LASF3958
C:\Users\CYMR90~1\AppData\Local\Temp\cciNYDRP.s:24168  .debug_str:000000000000de32 .LASF3959
C:\Users\CYMR90~1\AppData\Local\Temp\cciNYDRP.s:21220  .debug_str:0000000000001f4f .LASF3960
C:\Users\CYMR90~1\AppData\Local\Temp\cciNYDRP.s:22728  .debug_str:00000000000080c5 .LASF3961
C:\Users\CYMR90~1\AppData\Local\Temp\cciNYDRP.s:25078  .debug_str:00000000000117eb .LASF3962
C:\Users\CYMR90~1\AppData\Local\Temp\cciNYDRP.s:26989  .debug_str:00000000000193a0 .LASF3963
C:\Users\CYMR90~1\AppData\Local\Temp\cciNYDRP.s:25042  .debug_str:00000000000114c9 .LASF3964
C:\Users\CYMR90~1\AppData\Local\Temp\cciNYDRP.s:20786  .debug_str:00000000000004d8 .LASF3965
C:\Users\CYMR90~1\AppData\Local\Temp\cciNYDRP.s:27461  .debug_str:000000000001b360 .LASF3966
C:\Users\CYMR90~1\AppData\Local\Temp\cciNYDRP.s:31493  .debug_str:000000000002b076 .LASF3967
C:\Users\CYMR90~1\AppData\Local\Temp\cciNYDRP.s:24100  .debug_str:000000000000da1d .LASF3968
C:\Users\CYMR90~1\AppData\Local\Temp\cciNYDRP.s:23116  .debug_str:0000000000009981 .LASF3969
C:\Users\CYMR90~1\AppData\Local\Temp\cciNYDRP.s:27025  .debug_str:00000000000195af .LASF3970
C:\Users\CYMR90~1\AppData\Local\Temp\cciNYDRP.s:22992  .debug_str:0000000000009175 .LASF3971
C:\Users\CYMR90~1\AppData\Local\Temp\cciNYDRP.s:26927  .debug_str:0000000000018f00 .LASF3972
C:\Users\CYMR90~1\AppData\Local\Temp\cciNYDRP.s:30853  .debug_str:0000000000028a23 .LASF3973
C:\Users\CYMR90~1\AppData\Local\Temp\cciNYDRP.s:25872  .debug_str:0000000000014afd .LASF3974
C:\Users\CYMR90~1\AppData\Local\Temp\cciNYDRP.s:27417  .debug_str:000000000001b082 .LASF3975
C:\Users\CYMR90~1\AppData\Local\Temp\cciNYDRP.s:31429  .debug_str:000000000002acb4 .LASF3976
C:\Users\CYMR90~1\AppData\Local\Temp\cciNYDRP.s:24038  .debug_str:000000000000d68d .LASF3977
C:\Users\CYMR90~1\AppData\Local\Temp\cciNYDRP.s:23172  .debug_str:0000000000009cd3 .LASF3978
C:\Users\CYMR90~1\AppData\Local\Temp\cciNYDRP.s:25512  .debug_str:00000000000134f9 .LASF3979
C:\Users\CYMR90~1\AppData\Local\Temp\cciNYDRP.s:28937  .debug_str:0000000000020f5b .LASF3980
C:\Users\CYMR90~1\AppData\Local\Temp\cciNYDRP.s:30697  .debug_str:0000000000027f4a .LASF3981
C:\Users\CYMR90~1\AppData\Local\Temp\cciNYDRP.s:28003  .debug_str:000000000001d64e .LASF3982
C:\Users\CYMR90~1\AppData\Local\Temp\cciNYDRP.s:23406  .debug_str:000000000000ab3e .LASF3983
C:\Users\CYMR90~1\AppData\Local\Temp\cciNYDRP.s:27355  .debug_str:000000000001ac6a .LASF3984
C:\Users\CYMR90~1\AppData\Local\Temp\cciNYDRP.s:31359  .debug_str:000000000002a881 .LASF3985
C:\Users\CYMR90~1\AppData\Local\Temp\cciNYDRP.s:26679  .debug_str:0000000000017f4c .LASF3986
C:\Users\CYMR90~1\AppData\Local\Temp\cciNYDRP.s:25482  .debug_str:00000000000132aa .LASF3987
C:\Users\CYMR90~1\AppData\Local\Temp\cciNYDRP.s:31841  .debug_str:000000000002c815 .LASF3988
C:\Users\CYMR90~1\AppData\Local\Temp\cciNYDRP.s:26953  .debug_str:0000000000019175 .LASF3989
C:\Users\CYMR90~1\AppData\Local\Temp\cciNYDRP.s:21502  .debug_str:000000000000314c .LASF3990
C:\Users\CYMR90~1\AppData\Local\Temp\cciNYDRP.s:30721  .debug_str:00000000000280ea .LASF3991
C:\Users\CYMR90~1\AppData\Local\Temp\cciNYDRP.s:31303  .debug_str:000000000002a523 .LASF3992
C:\Users\CYMR90~1\AppData\Local\Temp\cciNYDRP.s:28645  .debug_str:000000000001fd9a .LASF3993
C:\Users\CYMR90~1\AppData\Local\Temp\cciNYDRP.s:31293  .debug_str:000000000002a44c .LASF3994
C:\Users\CYMR90~1\AppData\Local\Temp\cciNYDRP.s:23912  .debug_str:000000000000ce13 .LASF3995
C:\Users\CYMR90~1\AppData\Local\Temp\cciNYDRP.s:27811  .debug_str:000000000001c91e .LASF3996
C:\Users\CYMR90~1\AppData\Local\Temp\cciNYDRP.s:31781  .debug_str:000000000002c471 .LASF3997
C:\Users\CYMR90~1\AppData\Local\Temp\cciNYDRP.s:22706  .debug_str:0000000000007f6b .LASF3998
C:\Users\CYMR90~1\AppData\Local\Temp\cciNYDRP.s:25862  .debug_str:0000000000014a7c .LASF3999
C:\Users\CYMR90~1\AppData\Local\Temp\cciNYDRP.s:25388  .debug_str:0000000000012c57 .LASF4000
C:\Users\CYMR90~1\AppData\Local\Temp\cciNYDRP.s:23276  .debug_str:000000000000a37b .LASF4001
C:\Users\CYMR90~1\AppData\Local\Temp\cciNYDRP.s:27211  .debug_str:000000000001a16a .LASF4002
C:\Users\CYMR90~1\AppData\Local\Temp\cciNYDRP.s:24710  .debug_str:000000000000fffb .LASF4003
C:\Users\CYMR90~1\AppData\Local\Temp\cciNYDRP.s:27593  .debug_str:000000000001bb1e .LASF4004
C:\Users\CYMR90~1\AppData\Local\Temp\cciNYDRP.s:27743  .debug_str:000000000001c41c .LASF4005
C:\Users\CYMR90~1\AppData\Local\Temp\cciNYDRP.s:29045  .debug_str:000000000002164d .LASF4006
C:\Users\CYMR90~1\AppData\Local\Temp\cciNYDRP.s:24314  .debug_str:000000000000e74c .LASF4007
C:\Users\CYMR90~1\AppData\Local\Temp\cciNYDRP.s:28191  .debug_str:000000000001e20b .LASF4008
C:\Users\CYMR90~1\AppData\Local\Temp\cciNYDRP.s:20876  .debug_str:0000000000000a72 .LASF4009
C:\Users\CYMR90~1\AppData\Local\Temp\cciNYDRP.s:27749  .debug_str:000000000001c47a .LASF4010
C:\Users\CYMR90~1\AppData\Local\Temp\cciNYDRP.s:29311  .debug_str:000000000002260b .LASF4011
C:\Users\CYMR90~1\AppData\Local\Temp\cciNYDRP.s:31161  .debug_str:0000000000029c8c .LASF4012
C:\Users\CYMR90~1\AppData\Local\Temp\cciNYDRP.s:23778  .debug_str:000000000000c479 .LASF4013
C:\Users\CYMR90~1\AppData\Local\Temp\cciNYDRP.s:25882  .debug_str:0000000000014ba3 .LASF4014
C:\Users\CYMR90~1\AppData\Local\Temp\cciNYDRP.s:31653  .debug_str:000000000002bb56 .LASF4015
C:\Users\CYMR90~1\AppData\Local\Temp\cciNYDRP.s:28217  .debug_str:000000000001e39a .LASF4016
C:\Users\CYMR90~1\AppData\Local\Temp\cciNYDRP.s:28129  .debug_str:000000000001de70 .LASF4017
C:\Users\CYMR90~1\AppData\Local\Temp\cciNYDRP.s:20816  .debug_str:000000000000068f .LASF4018
C:\Users\CYMR90~1\AppData\Local\Temp\cciNYDRP.s:31829  .debug_str:000000000002c732 .LASF4019
C:\Users\CYMR90~1\AppData\Local\Temp\cciNYDRP.s:21774  .debug_str:0000000000004304 .LASF4020
C:\Users\CYMR90~1\AppData\Local\Temp\cciNYDRP.s:31097  .debug_str:00000000000298af .LASF4021
C:\Users\CYMR90~1\AppData\Local\Temp\cciNYDRP.s:27085  .debug_str:0000000000019a1d .LASF4022
C:\Users\CYMR90~1\AppData\Local\Temp\cciNYDRP.s:29397  .debug_str:0000000000022b52 .LASF4023
C:\Users\CYMR90~1\AppData\Local\Temp\cciNYDRP.s:31593  .debug_str:000000000002b736 .LASF4024
C:\Users\CYMR90~1\AppData\Local\Temp\cciNYDRP.s:24192  .debug_str:000000000000df8a .LASF4025
C:\Users\CYMR90~1\AppData\Local\Temp\cciNYDRP.s:22056  .debug_str:000000000000550c .LASF4026
C:\Users\CYMR90~1\AppData\Local\Temp\cciNYDRP.s:20752  .debug_str:00000000000002fe .LASF4027
C:\Users\CYMR90~1\AppData\Local\Temp\cciNYDRP.s:25256  .debug_str:00000000000123a3 .LASF4028
C:\Users\CYMR90~1\AppData\Local\Temp\cciNYDRP.s:21648  .debug_str:0000000000003ab3 .LASF4029
C:\Users\CYMR90~1\AppData\Local\Temp\cciNYDRP.s:25734  .debug_str:00000000000142a3 .LASF4030
C:\Users\CYMR90~1\AppData\Local\Temp\cciNYDRP.s:23646  .debug_str:000000000000bc1f .LASF4031
C:\Users\CYMR90~1\AppData\Local\Temp\cciNYDRP.s:21028  .debug_str:00000000000013b5 .LASF4032
C:\Users\CYMR90~1\AppData\Local\Temp\cciNYDRP.s:31515  .debug_str:000000000002b21f .LASF4033
C:\Users\CYMR90~1\AppData\Local\Temp\cciNYDRP.s:28395  .debug_str:000000000001ee21 .LASF4034
C:\Users\CYMR90~1\AppData\Local\Temp\cciNYDRP.s:28577  .debug_str:000000000001f940 .LASF4035
C:\Users\CYMR90~1\AppData\Local\Temp\cciNYDRP.s:31985  .debug_str:000000000002d17c .LASF4036
C:\Users\CYMR90~1\AppData\Local\Temp\cciNYDRP.s:24698  .debug_str:000000000000ff2c .LASF4037
C:\Users\CYMR90~1\AppData\Local\Temp\cciNYDRP.s:25184  .debug_str:0000000000011edf .LASF4038
C:\Users\CYMR90~1\AppData\Local\Temp\cciNYDRP.s:27511  .debug_str:000000000001b672 .LASF4039
C:\Users\CYMR90~1\AppData\Local\Temp\cciNYDRP.s:30181  .debug_str:0000000000025e4c .LASF4040
C:\Users\CYMR90~1\AppData\Local\Temp\cciNYDRP.s:25910  .debug_str:0000000000014d96 .LASF4041
C:\Users\CYMR90~1\AppData\Local\Temp\cciNYDRP.s:29117  .debug_str:0000000000021ab8 .LASF4042
C:\Users\CYMR90~1\AppData\Local\Temp\cciNYDRP.s:21460  .debug_str:0000000000002e51 .LASF4043
C:\Users\CYMR90~1\AppData\Local\Temp\cciNYDRP.s:22772  .debug_str:00000000000083a3 .LASF4044
C:\Users\CYMR90~1\AppData\Local\Temp\cciNYDRP.s:26709  .debug_str:0000000000018111 .LASF4045
C:\Users\CYMR90~1\AppData\Local\Temp\cciNYDRP.s:30643  .debug_str:0000000000027b6d .LASF4046
C:\Users\CYMR90~1\AppData\Local\Temp\cciNYDRP.s:30635  .debug_str:0000000000027ae3 .LASF4047
C:\Users\CYMR90~1\AppData\Local\Temp\cciNYDRP.s:31843  .debug_str:000000000002c83b .LASF4048
C:\Users\CYMR90~1\AppData\Local\Temp\cciNYDRP.s:31217  .debug_str:0000000000029fbc .LASF4049
C:\Users\CYMR90~1\AppData\Local\Temp\cciNYDRP.s:22898  .debug_str:0000000000008be5 .LASF4050
C:\Users\CYMR90~1\AppData\Local\Temp\cciNYDRP.s:21336  .debug_str:0000000000002697 .LASF4051
C:\Users\CYMR90~1\AppData\Local\Temp\cciNYDRP.s:30087  .debug_str:00000000000258dc .LASF4052
C:\Users\CYMR90~1\AppData\Local\Temp\cciNYDRP.s:22710  .debug_str:0000000000007fa7 .LASF4053
C:\Users\CYMR90~1\AppData\Local\Temp\cciNYDRP.s:26633  .debug_str:0000000000017cad .LASF4054
C:\Users\CYMR90~1\AppData\Local\Temp\cciNYDRP.s:31423  .debug_str:000000000002ac2f .LASF4055
C:\Users\CYMR90~1\AppData\Local\Temp\cciNYDRP.s:21672  .debug_str:0000000000003c51 .LASF4056
C:\Users\CYMR90~1\AppData\Local\Temp\cciNYDRP.s:27127  .debug_str:0000000000019cae .LASF4057
C:\Users\CYMR90~1\AppData\Local\Temp\cciNYDRP.s:31157  .debug_str:0000000000029c4f .LASF4058
C:\Users\CYMR90~1\AppData\Local\Temp\cciNYDRP.s:29565  .debug_str:000000000002350a .LASF4059
C:\Users\CYMR90~1\AppData\Local\Temp\cciNYDRP.s:28609  .debug_str:000000000001fb44 .LASF4060
C:\Users\CYMR90~1\AppData\Local\Temp\cciNYDRP.s:29911  .debug_str:0000000000024baf .LASF4061
C:\Users\CYMR90~1\AppData\Local\Temp\cciNYDRP.s:25066  .debug_str:000000000001167f .LASF4062
C:\Users\CYMR90~1\AppData\Local\Temp\cciNYDRP.s:26573  .debug_str:000000000001792c .LASF4063
C:\Users\CYMR90~1\AppData\Local\Temp\cciNYDRP.s:22866  .debug_str:000000000000898e .LASF4064
C:\Users\CYMR90~1\AppData\Local\Temp\cciNYDRP.s:27299  .debug_str:000000000001a8db .LASF4065
C:\Users\CYMR90~1\AppData\Local\Temp\cciNYDRP.s:27531  .debug_str:000000000001b7cf .LASF4066
C:\Users\CYMR90~1\AppData\Local\Temp\cciNYDRP.s:31087  .debug_str:0000000000029825 .LASF4067
C:\Users\CYMR90~1\AppData\Local\Temp\cciNYDRP.s:23706  .debug_str:000000000000bfeb .LASF4068
C:\Users\CYMR90~1\AppData\Local\Temp\cciNYDRP.s:24114  .debug_str:000000000000dac4 .LASF4069
C:\Users\CYMR90~1\AppData\Local\Temp\cciNYDRP.s:26915  .debug_str:0000000000018e49 .LASF4070
C:\Users\CYMR90~1\AppData\Local\Temp\cciNYDRP.s:22572  .debug_str:0000000000007579 .LASF4071
C:\Users\CYMR90~1\AppData\Local\Temp\cciNYDRP.s:26507  .debug_str:00000000000174d3 .LASF4072
C:\Users\CYMR90~1\AppData\Local\Temp\cciNYDRP.s:29545  .debug_str:0000000000023386 .LASF4073
C:\Users\CYMR90~1\AppData\Local\Temp\cciNYDRP.s:23052  .debug_str:0000000000009532 .LASF4074
C:\Users\CYMR90~1\AppData\Local\Temp\cciNYDRP.s:31899  .debug_str:000000000002cbe1 .LASF4075
C:\Users\CYMR90~1\AppData\Local\Temp\cciNYDRP.s:31027  .debug_str:000000000002947a .LASF4076
C:\Users\CYMR90~1\AppData\Local\Temp\cciNYDRP.s:23640  .debug_str:000000000000bba6 .LASF4077
C:\Users\CYMR90~1\AppData\Local\Temp\cciNYDRP.s:27611  .debug_str:000000000001bc3b .LASF4078
C:\Users\CYMR90~1\AppData\Local\Temp\cciNYDRP.s:29933  .debug_str:0000000000024d2f .LASF4079
C:\Users\CYMR90~1\AppData\Local\Temp\cciNYDRP.s:25970  .debug_str:0000000000015171 .LASF4080
C:\Users\CYMR90~1\AppData\Local\Temp\cciNYDRP.s:26447  .debug_str:0000000000017158 .LASF4081
C:\Users\CYMR90~1\AppData\Local\Temp\cciNYDRP.s:27899  .debug_str:000000000001cfc5 .LASF4082
C:\Users\CYMR90~1\AppData\Local\Temp\cciNYDRP.s:20928  .debug_str:0000000000000d77 .LASF4083
C:\Users\CYMR90~1\AppData\Local\Temp\cciNYDRP.s:26941  .debug_str:00000000000190af .LASF4084
C:\Users\CYMR90~1\AppData\Local\Temp\cciNYDRP.s:26453  .debug_str:00000000000171bb .LASF4085
C:\Users\CYMR90~1\AppData\Local\Temp\cciNYDRP.s:28775  .debug_str:00000000000205dc .LASF4086
C:\Users\CYMR90~1\AppData\Local\Temp\cciNYDRP.s:31137  .debug_str:0000000000029b0c .LASF4087
C:\Users\CYMR90~1\AppData\Local\Temp\cciNYDRP.s:31441  .debug_str:000000000002ad6e .LASF4088
C:\Users\CYMR90~1\AppData\Local\Temp\cciNYDRP.s:24494  .debug_str:000000000000f207 .LASF4089
C:\Users\CYMR90~1\AppData\Local\Temp\cciNYDRP.s:31849  .debug_str:000000000002c8b4 .LASF4090
C:\Users\CYMR90~1\AppData\Local\Temp\cciNYDRP.s:30315  .debug_str:00000000000266d0 .LASF4091
C:\Users\CYMR90~1\AppData\Local\Temp\cciNYDRP.s:28865  .debug_str:0000000000020b4a .LASF4092
C:\Users\CYMR90~1\AppData\Local\Temp\cciNYDRP.s:26879  .debug_str:0000000000018c20 .LASF4093
C:\Users\CYMR90~1\AppData\Local\Temp\cciNYDRP.s:30893  .debug_str:0000000000028c39 .LASF4094
C:\Users\CYMR90~1\AppData\Local\Temp\cciNYDRP.s:29785  .debug_str:000000000002435f .LASF4095
C:\Users\CYMR90~1\AppData\Local\Temp\cciNYDRP.s:27443  .debug_str:000000000001b256 .LASF4096
C:\Users\CYMR90~1\AppData\Local\Temp\cciNYDRP.s:31373  .debug_str:000000000002a92f .LASF4097
C:\Users\CYMR90~1\AppData\Local\Temp\cciNYDRP.s:23990  .debug_str:000000000000d37f .LASF4098
C:\Users\CYMR90~1\AppData\Local\Temp\cciNYDRP.s:30317  .debug_str:00000000000266f6 .LASF4099
C:\Users\CYMR90~1\AppData\Local\Temp\cciNYDRP.s:26352  .debug_str:0000000000016967 .LASF4100
C:\Users\CYMR90~1\AppData\Local\Temp\cciNYDRP.s:22870  .debug_str:00000000000089c8 .LASF4101
C:\Users\CYMR90~1\AppData\Local\Temp\cciNYDRP.s:26801  .debug_str:0000000000018663 .LASF4102
C:\Users\CYMR90~1\AppData\Local\Temp\cciNYDRP.s:24850  .debug_str:00000000000108e1 .LASF4103
C:\Users\CYMR90~1\AppData\Local\Temp\cciNYDRP.s:23444  .debug_str:000000000000ae7d .LASF4104
C:\Users\CYMR90~1\AppData\Local\Temp\cciNYDRP.s:26837  .debug_str:00000000000188fb .LASF4105
C:\Users\CYMR90~1\AppData\Local\Temp\cciNYDRP.s:27045  .debug_str:000000000001973e .LASF4106
C:\Users\CYMR90~1\AppData\Local\Temp\cciNYDRP.s:31521  .debug_str:000000000002b275 .LASF4107
C:\Users\CYMR90~1\AppData\Local\Temp\cciNYDRP.s:22496  .debug_str:00000000000070d9 .LASF4108
C:\Users\CYMR90~1\AppData\Local\Temp\cciNYDRP.s:31795  .debug_str:000000000002c552 .LASF4109
C:\Users\CYMR90~1\AppData\Local\Temp\cciNYDRP.s:28827  .debug_str:00000000000208e8 .LASF4110
C:\Users\CYMR90~1\AppData\Local\Temp\cciNYDRP.s:22436  .debug_str:0000000000006c87 .LASF4111
C:\Users\CYMR90~1\AppData\Local\Temp\cciNYDRP.s:30757  .debug_str:00000000000283c2 .LASF4112
C:\Users\CYMR90~1\AppData\Local\Temp\cciNYDRP.s:23374  .debug_str:000000000000a949 .LASF4113
C:\Users\CYMR90~1\AppData\Local\Temp\cciNYDRP.s:22048  .debug_str:0000000000005456 .LASF4114
C:\Users\CYMR90~1\AppData\Local\Temp\cciNYDRP.s:22812  .debug_str:0000000000008608 .LASF4115
C:\Users\CYMR90~1\AppData\Local\Temp\cciNYDRP.s:23868  .debug_str:000000000000cb6b .LASF4116
C:\Users\CYMR90~1\AppData\Local\Temp\cciNYDRP.s:27761  .debug_str:000000000001c538 .LASF4117
C:\Users\CYMR90~1\AppData\Local\Temp\cciNYDRP.s:31729  .debug_str:000000000002c0a5 .LASF4118
C:\Users\CYMR90~1\AppData\Local\Temp\cciNYDRP.s:24428  .debug_str:000000000000edee .LASF4119
C:\Users\CYMR90~1\AppData\Local\Temp\cciNYDRP.s:28553  .debug_str:000000000001f7bb .LASF4120
C:\Users\CYMR90~1\AppData\Local\Temp\cciNYDRP.s:29173  .debug_str:0000000000021e2d .LASF4121
C:\Users\CYMR90~1\AppData\Local\Temp\cciNYDRP.s:31551  .debug_str:000000000002b48d .LASF4122
C:\Users\CYMR90~1\AppData\Local\Temp\cciNYDRP.s:27257  .debug_str:000000000001a5a9 .LASF4123
C:\Users\CYMR90~1\AppData\Local\Temp\cciNYDRP.s:29891  .debug_str:0000000000024a86 .LASF4124
C:\Users\CYMR90~1\AppData\Local\Temp\cciNYDRP.s:27229  .debug_str:000000000001a436 .LASF4125
C:\Users\CYMR90~1\AppData\Local\Temp\cciNYDRP.s:27693  .debug_str:000000000001c184 .LASF4126
C:\Users\CYMR90~1\AppData\Local\Temp\cciNYDRP.s:20822  .debug_str:00000000000006ee .LASF4127
C:\Users\CYMR90~1\AppData\Local\Temp\cciNYDRP.s:23792  .debug_str:000000000000c542 .LASF4128
C:\Users\CYMR90~1\AppData\Local\Temp\cciNYDRP.s:23960  .debug_str:000000000000d15a .LASF4129
C:\Users\CYMR90~1\AppData\Local\Temp\cciNYDRP.s:22118  .debug_str:00000000000058e6 .LASF4130
C:\Users\CYMR90~1\AppData\Local\Temp\cciNYDRP.s:24224  .debug_str:000000000000e189 .LASF4131
C:\Users\CYMR90~1\AppData\Local\Temp\cciNYDRP.s:27175  .debug_str:0000000000019f6c .LASF4132
C:\Users\CYMR90~1\AppData\Local\Temp\cciNYDRP.s:31109  .debug_str:000000000002996c .LASF4133
C:\Users\CYMR90~1\AppData\Local\Temp\cciNYDRP.s:23730  .debug_str:000000000000c166 .LASF4134
C:\Users\CYMR90~1\AppData\Local\Temp\cciNYDRP.s:27637  .debug_str:000000000001be00 .LASF4135
C:\Users\CYMR90~1\AppData\Local\Temp\cciNYDRP.s:27869  .debug_str:000000000001cd5f .LASF4136
C:\Users\CYMR90~1\AppData\Local\Temp\cciNYDRP.s:27319  .debug_str:000000000001aa30 .LASF4137
C:\Users\CYMR90~1\AppData\Local\Temp\cciNYDRP.s:28163  .debug_str:000000000001e07f .LASF4138
C:\Users\CYMR90~1\AppData\Local\Temp\cciNYDRP.s:31797  .debug_str:000000000002c578 .LASF4139
C:\Users\CYMR90~1\AppData\Local\Temp\cciNYDRP.s:23334  .debug_str:000000000000a6e5 .LASF4140
C:\Users\CYMR90~1\AppData\Local\Temp\cciNYDRP.s:21800  .debug_str:00000000000044d1 .LASF4141
C:\Users\CYMR90~1\AppData\Local\Temp\cciNYDRP.s:25828  .debug_str:0000000000014869 .LASF4142
C:\Users\CYMR90~1\AppData\Local\Temp\cciNYDRP.s:29763  .debug_str:00000000000241dc .LASF4143
C:\Users\CYMR90~1\AppData\Local\Temp\cciNYDRP.s:22362  .debug_str:00000000000067e3 .LASF4144
C:\Users\CYMR90~1\AppData\Local\Temp\cciNYDRP.s:29255  .debug_str:00000000000222c6 .LASF4145
C:\Users\CYMR90~1\AppData\Local\Temp\cciNYDRP.s:31633  .debug_str:000000000002b9fa .LASF4146
C:\Users\CYMR90~1\AppData\Local\Temp\cciNYDRP.s:22346  .debug_str:00000000000066d8 .LASF4147
C:\Users\CYMR90~1\AppData\Local\Temp\cciNYDRP.s:26795  .debug_str:0000000000018614 .LASF4148
C:\Users\CYMR90~1\AppData\Local\Temp\cciNYDRP.s:30821  .debug_str:0000000000028826 .LASF4149
C:\Users\CYMR90~1\AppData\Local\Temp\cciNYDRP.s:30155  .debug_str:0000000000025cba .LASF4150
C:\Users\CYMR90~1\AppData\Local\Temp\cciNYDRP.s:25770  .debug_str:000000000001447f .LASF4151
C:\Users\CYMR90~1\AppData\Local\Temp\cciNYDRP.s:29845  .debug_str:000000000002471c .LASF4152
C:\Users\CYMR90~1\AppData\Local\Temp\cciNYDRP.s:30445  .debug_str:0000000000026eba .LASF4153
C:\Users\CYMR90~1\AppData\Local\Temp\cciNYDRP.s:27969  .debug_str:000000000001d41b .LASF4154
C:\Users\CYMR90~1\AppData\Local\Temp\cciNYDRP.s:28707  .debug_str:0000000000020127 .LASF4155
C:\Users\CYMR90~1\AppData\Local\Temp\cciNYDRP.s:24832  .debug_str:00000000000107d8 .LASF4156
C:\Users\CYMR90~1\AppData\Local\Temp\cciNYDRP.s:28413  .debug_str:000000000001ef44 .LASF4157
C:\Users\CYMR90~1\AppData\Local\Temp\cciNYDRP.s:24122  .debug_str:000000000000db35 .LASF4158
C:\Users\CYMR90~1\AppData\Local\Temp\cciNYDRP.s:22684  .debug_str:0000000000007d6a .LASF4159
C:\Users\CYMR90~1\AppData\Local\Temp\cciNYDRP.s:31777  .debug_str:000000000002c432 .LASF4160
C:\Users\CYMR90~1\AppData\Local\Temp\cciNYDRP.s:31655  .debug_str:000000000002bb7c .LASF4161
C:\Users\CYMR90~1\AppData\Local\Temp\cciNYDRP.s:22226  .debug_str:0000000000005f88 .LASF4162
C:\Users\CYMR90~1\AppData\Local\Temp\cciNYDRP.s:26168  .debug_str:0000000000015d4c .LASF4163
C:\Users\CYMR90~1\AppData\Local\Temp\cciNYDRP.s:30103  .debug_str:00000000000259c9 .LASF4164
C:\Users\CYMR90~1\AppData\Local\Temp\cciNYDRP.s:25250  .debug_str:000000000001234c .LASF4165
C:\Users\CYMR90~1\AppData\Local\Temp\cciNYDRP.s:31989  .debug_str:000000000002d1ba .LASF4166
C:\Users\CYMR90~1\AppData\Local\Temp\cciNYDRP.s:23896  .debug_str:000000000000ccde .LASF4167
C:\Users\CYMR90~1\AppData\Local\Temp\cciNYDRP.s:23306  .debug_str:000000000000a506 .LASF4168
C:\Users\CYMR90~1\AppData\Local\Temp\cciNYDRP.s:27247  .debug_str:000000000001a516 .LASF4169
C:\Users\CYMR90~1\AppData\Local\Temp\cciNYDRP.s:24310  .debug_str:000000000000e716 .LASF4170
C:\Users\CYMR90~1\AppData\Local\Temp\cciNYDRP.s:22160  .debug_str:0000000000005b4f .LASF4171
C:\Users\CYMR90~1\AppData\Local\Temp\cciNYDRP.s:28443  .debug_str:000000000001f118 .LASF4172
C:\Users\CYMR90~1\AppData\Local\Temp\cciNYDRP.s:30041  .debug_str:00000000000254f9 .LASF4173
C:\Users\CYMR90~1\AppData\Local\Temp\cciNYDRP.s:29825  .debug_str:00000000000245e3 .LASF4174
C:\Users\CYMR90~1\AppData\Local\Temp\cciNYDRP.s:21730  .debug_str:000000000000407c .LASF4175
C:\Users\CYMR90~1\AppData\Local\Temp\cciNYDRP.s:27415  .debug_str:000000000001b05c .LASF4176
C:\Users\CYMR90~1\AppData\Local\Temp\cciNYDRP.s:24916  .debug_str:0000000000010d6c .LASF4177
C:\Users\CYMR90~1\AppData\Local\Temp\cciNYDRP.s:27167  .debug_str:0000000000019ee7 .LASF4178
C:\Users\CYMR90~1\AppData\Local\Temp\cciNYDRP.s:31103  .debug_str:0000000000029902 .LASF4179
C:\Users\CYMR90~1\AppData\Local\Temp\cciNYDRP.s:30427  .debug_str:0000000000026da2 .LASF4180
C:\Users\CYMR90~1\AppData\Local\Temp\cciNYDRP.s:26040  .debug_str:0000000000015563 .LASF4181
C:\Users\CYMR90~1\AppData\Local\Temp\cciNYDRP.s:31741  .debug_str:000000000002c184 .LASF4182
C:\Users\CYMR90~1\AppData\Local\Temp\cciNYDRP.s:22580  .debug_str:000000000000760b .LASF4183
C:\Users\CYMR90~1\AppData\Local\Temp\cciNYDRP.s:29983  .debug_str:000000000002509d .LASF4184
C:\Users\CYMR90~1\AppData\Local\Temp\cciNYDRP.s:31977  .debug_str:000000000002d0ed .LASF4185
C:\Users\CYMR90~1\AppData\Local\Temp\cciNYDRP.s:21888  .debug_str:0000000000004aea .LASF4186
C:\Users\CYMR90~1\AppData\Local\Temp\cciNYDRP.s:27101  .debug_str:0000000000019b2d .LASF4187
C:\Users\CYMR90~1\AppData\Local\Temp\cciNYDRP.s:22112  .debug_str:0000000000005852 .LASF4188
C:\Users\CYMR90~1\AppData\Local\Temp\cciNYDRP.s:23652  .debug_str:000000000000bc7d .LASF4189
C:\Users\CYMR90~1\AppData\Local\Temp\cciNYDRP.s:24978  .debug_str:00000000000110db .LASF4190
C:\Users\CYMR90~1\AppData\Local\Temp\cciNYDRP.s:23144  .debug_str:0000000000009b2d .LASF4191
C:\Users\CYMR90~1\AppData\Local\Temp\cciNYDRP.s:30199  .debug_str:0000000000025f99 .LASF4192
C:\Users\CYMR90~1\AppData\Local\Temp\cciNYDRP.s:26545  .debug_str:000000000001772f .LASF4193
C:\Users\CYMR90~1\AppData\Local\Temp\cciNYDRP.s:23114  .debug_str:000000000000995b .LASF4194
C:\Users\CYMR90~1\AppData\Local\Temp\cciNYDRP.s:27751  .debug_str:000000000001c4a0 .LASF4195
C:\Users\CYMR90~1\AppData\Local\Temp\cciNYDRP.s:27041  .debug_str:00000000000196f3 .LASF4196
C:\Users\CYMR90~1\AppData\Local\Temp\cciNYDRP.s:30977  .debug_str:000000000002918a .LASF4197
C:\Users\CYMR90~1\AppData\Local\Temp\cciNYDRP.s:21112  .debug_str:000000000000195b .LASF4198
C:\Users\CYMR90~1\AppData\Local\Temp\cciNYDRP.s:23458  .debug_str:000000000000af6c .LASF4199
C:\Users\CYMR90~1\AppData\Local\Temp\cciNYDRP.s:24606  .debug_str:000000000000f93b .LASF4200
C:\Users\CYMR90~1\AppData\Local\Temp\cciNYDRP.s:22448  .debug_str:0000000000006d3c .LASF4201
C:\Users\CYMR90~1\AppData\Local\Temp\cciNYDRP.s:26485  .debug_str:000000000001737f .LASF4202
C:\Users\CYMR90~1\AppData\Local\Temp\cciNYDRP.s:30419  .debug_str:0000000000026d2a .LASF4203
C:\Users\CYMR90~1\AppData\Local\Temp\cciNYDRP.s:28921  .debug_str:0000000000020e7a .LASF4204
C:\Users\CYMR90~1\AppData\Local\Temp\cciNYDRP.s:26977  .debug_str:00000000000192c9 .LASF4205
C:\Users\CYMR90~1\AppData\Local\Temp\cciNYDRP.s:30907  .debug_str:0000000000028cff .LASF4206
C:\Users\CYMR90~1\AppData\Local\Temp\cciNYDRP.s:23524  .debug_str:000000000000b3a8 .LASF4207
C:\Users\CYMR90~1\AppData\Local\Temp\cciNYDRP.s:26969  .debug_str:0000000000019253 .LASF4208
C:\Users\CYMR90~1\AppData\Local\Temp\cciNYDRP.s:25146  .debug_str:0000000000011c85 .LASF4209
C:\Users\CYMR90~1\AppData\Local\Temp\cciNYDRP.s:22190  .debug_str:0000000000005d16 .LASF4210
C:\Users\CYMR90~1\AppData\Local\Temp\cciNYDRP.s:26419  .debug_str:0000000000016fc9 .LASF4211
C:\Users\CYMR90~1\AppData\Local\Temp\cciNYDRP.s:30351  .debug_str:00000000000268f2 .LASF4212
C:\Users\CYMR90~1\AppData\Local\Temp\cciNYDRP.s:22978  .debug_str:0000000000009090 .LASF4213
C:\Users\CYMR90~1\AppData\Local\Temp\cciNYDRP.s:31379  .debug_str:000000000002a994 .LASF4214
C:\Users\CYMR90~1\AppData\Local\Temp\cciNYDRP.s:27079  .debug_str:00000000000199c5 .LASF4215
C:\Users\CYMR90~1\AppData\Local\Temp\cciNYDRP.s:28105  .debug_str:000000000001dcd2 .LASF4216
C:\Users\CYMR90~1\AppData\Local\Temp\cciNYDRP.s:27403  .debug_str:000000000001afcc .LASF4217
C:\Users\CYMR90~1\AppData\Local\Temp\cciNYDRP.s:31321  .debug_str:000000000002a63a .LASF4218
C:\Users\CYMR90~1\AppData\Local\Temp\cciNYDRP.s:24028  .debug_str:000000000000d617 .LASF4219
C:\Users\CYMR90~1\AppData\Local\Temp\cciNYDRP.s:21082  .debug_str:0000000000001794 .LASF4220
C:\Users\CYMR90~1\AppData\Local\Temp\cciNYDRP.s:30289  .debug_str:00000000000264fe .LASF4221
C:\Users\CYMR90~1\AppData\Local\Temp\cciNYDRP.s:24674  .debug_str:000000000000fdd1 .LASF4222
C:\Users\CYMR90~1\AppData\Local\Temp\cciNYDRP.s:27145  .debug_str:0000000000019d9c .LASF4223
C:\Users\CYMR90~1\AppData\Local\Temp\cciNYDRP.s:29305  .debug_str:00000000000225ae .LASF4224
C:\Users\CYMR90~1\AppData\Local\Temp\cciNYDRP.s:31683  .debug_str:000000000002bd49 .LASF4225
C:\Users\CYMR90~1\AppData\Local\Temp\cciNYDRP.s:27345  .debug_str:000000000001abcc .LASF4226
C:\Users\CYMR90~1\AppData\Local\Temp\cciNYDRP.s:31261  .debug_str:000000000002a22b .LASF4227
C:\Users\CYMR90~1\AppData\Local\Temp\cciNYDRP.s:28177  .debug_str:000000000001e144 .LASF4228
C:\Users\CYMR90~1\AppData\Local\Temp\cciNYDRP.s:24622  .debug_str:000000000000fa45 .LASF4229
C:\Users\CYMR90~1\AppData\Local\Temp\cciNYDRP.s:24964  .debug_str:0000000000010ffb .LASF4230
C:\Users\CYMR90~1\AppData\Local\Temp\cciNYDRP.s:22840  .debug_str:0000000000008800 .LASF4231
C:\Users\CYMR90~1\AppData\Local\Temp\cciNYDRP.s:22918  .debug_str:0000000000008d31 .LASF4232
C:\Users\CYMR90~1\AppData\Local\Temp\cciNYDRP.s:27901  .debug_str:000000000001cfeb .LASF4233
C:\Users\CYMR90~1\AppData\Local\Temp\cciNYDRP.s:24942  .debug_str:0000000000010ebb .LASF4234
C:\Users\CYMR90~1\AppData\Local\Temp\cciNYDRP.s:27273  .debug_str:000000000001a6e7 .LASF4235
C:\Users\CYMR90~1\AppData\Local\Temp\cciNYDRP.s:25650  .debug_str:0000000000013d6d .LASF4236
C:\Users\CYMR90~1\AppData\Local\Temp\cciNYDRP.s:28221  .debug_str:000000000001e3f0 .LASF4237
C:\Users\CYMR90~1\AppData\Local\Temp\cciNYDRP.s:28985  .debug_str:0000000000021215 .LASF4238
C:\Users\CYMR90~1\AppData\Local\Temp\cciNYDRP.s:25090  .debug_str:0000000000011897 .LASF4239
C:\Users\CYMR90~1\AppData\Local\Temp\cciNYDRP.s:23372  .debug_str:000000000000a923 .LASF4240
C:\Users\CYMR90~1\AppData\Local\Temp\cciNYDRP.s:21506  .debug_str:000000000000318a .LASF4241
C:\Users\CYMR90~1\AppData\Local\Temp\cciNYDRP.s:25454  .debug_str:00000000000130a9 .LASF4242
C:\Users\CYMR90~1\AppData\Local\Temp\cciNYDRP.s:29017  .debug_str:00000000000214aa .LASF4243
C:\Users\CYMR90~1\AppData\Local\Temp\cciNYDRP.s:21958  .debug_str:0000000000004f31 .LASF4244
C:\Users\CYMR90~1\AppData\Local\Temp\cciNYDRP.s:25906  .debug_str:0000000000014d4e .LASF4245
C:\Users\CYMR90~1\AppData\Local\Temp\cciNYDRP.s:29835  .debug_str:0000000000024680 .LASF4246
C:\Users\CYMR90~1\AppData\Local\Temp\cciNYDRP.s:22438  .debug_str:0000000000006cad .LASF4247
C:\Users\CYMR90~1\AppData\Local\Temp\cciNYDRP.s:24774  .debug_str:00000000000103cd .LASF4248
C:\Users\CYMR90~1\AppData\Local\Temp\cciNYDRP.s:30411  .debug_str:0000000000026c8f .LASF4249
C:\Users\CYMR90~1\AppData\Local\Temp\cciNYDRP.s:28627  .debug_str:000000000001fc38 .LASF4250
C:\Users\CYMR90~1\AppData\Local\Temp\cciNYDRP.s:25396  .debug_str:0000000000012cf2 .LASF4251
C:\Users\CYMR90~1\AppData\Local\Temp\cciNYDRP.s:29297  .debug_str:0000000000022519 .LASF4252
C:\Users\CYMR90~1\AppData\Local\Temp\cciNYDRP.s:25236  .debug_str:0000000000012255 .LASF4253
C:\Users\CYMR90~1\AppData\Local\Temp\cciNYDRP.s:25950  .debug_str:000000000001504a .LASF4254
C:\Users\CYMR90~1\AppData\Local\Temp\cciNYDRP.s:31847  .debug_str:000000000002c88e .LASF4255
C:\Users\CYMR90~1\AppData\Local\Temp\cciNYDRP.s:30575  .debug_str:00000000000276ed .LASF4256
C:\Users\CYMR90~1\AppData\Local\Temp\cciNYDRP.s:26318  .debug_str:000000000001670b .LASF4257
C:\Users\CYMR90~1\AppData\Local\Temp\cciNYDRP.s:24824  .debug_str:000000000001075b .LASF4258
C:\Users\CYMR90~1\AppData\Local\Temp\cciNYDRP.s:22970  .debug_str:0000000000009021 .LASF4259
C:\Users\CYMR90~1\AppData\Local\Temp\cciNYDRP.s:31371  .debug_str:000000000002a909 .LASF4260
C:\Users\CYMR90~1\AppData\Local\Temp\cciNYDRP.s:24768  .debug_str:000000000001036d .LASF4261
C:\Users\CYMR90~1\AppData\Local\Temp\cciNYDRP.s:26206  .debug_str:000000000001601c .LASF4262
C:\Users\CYMR90~1\AppData\Local\Temp\cciNYDRP.s:29405  .debug_str:0000000000022bda .LASF4263
C:\Users\CYMR90~1\AppData\Local\Temp\cciNYDRP.s:24528  .debug_str:000000000000f40f .LASF4264
C:\Users\CYMR90~1\AppData\Local\Temp\cciNYDRP.s:22308  .debug_str:000000000000643e .LASF4265
C:\Users\CYMR90~1\AppData\Local\Temp\cciNYDRP.s:26252  .debug_str:00000000000162d5 .LASF4266
C:\Users\CYMR90~1\AppData\Local\Temp\cciNYDRP.s:28275  .debug_str:000000000001e753 .LASF4267
C:\Users\CYMR90~1\AppData\Local\Temp\cciNYDRP.s:22908  .debug_str:0000000000008ca6 .LASF4268
C:\Users\CYMR90~1\AppData\Local\Temp\cciNYDRP.s:26833  .debug_str:000000000001889b .LASF4269
C:\Users\CYMR90~1\AppData\Local\Temp\cciNYDRP.s:23924  .debug_str:000000000000cee2 .LASF4270
C:\Users\CYMR90~1\AppData\Local\Temp\cciNYDRP.s:21778  .debug_str:000000000000434e .LASF4271
C:\Users\CYMR90~1\AppData\Local\Temp\cciNYDRP.s:25714  .debug_str:0000000000014175 .LASF4272
C:\Users\CYMR90~1\AppData\Local\Temp\cciNYDRP.s:23674  .debug_str:000000000000be02 .LASF4273
C:\Users\CYMR90~1\AppData\Local\Temp\cciNYDRP.s:22244  .debug_str:0000000000006086 .LASF4274
C:\Users\CYMR90~1\AppData\Local\Temp\cciNYDRP.s:21390  .debug_str:0000000000002a08 .LASF4275
C:\Users\CYMR90~1\AppData\Local\Temp\cciNYDRP.s:31853  .debug_str:000000000002c8fe .LASF4276
C:\Users\CYMR90~1\AppData\Local\Temp\cciNYDRP.s:22854  .debug_str:00000000000088c8 .LASF4277
C:\Users\CYMR90~1\AppData\Local\Temp\cciNYDRP.s:26763  .debug_str:000000000001846c .LASF4278
C:\Users\CYMR90~1\AppData\Local\Temp\cciNYDRP.s:21148  .debug_str:0000000000001b55 .LASF4279
C:\Users\CYMR90~1\AppData\Local\Temp\cciNYDRP.s:20942  .debug_str:0000000000000ed5 .LASF4280
C:\Users\CYMR90~1\AppData\Local\Temp\cciNYDRP.s:25646  .debug_str:0000000000013d2a .LASF4281
C:\Users\CYMR90~1\AppData\Local\Temp\cciNYDRP.s:29583  .debug_str:0000000000023628 .LASF4282
C:\Users\CYMR90~1\AppData\Local\Temp\cciNYDRP.s:26050  .debug_str:0000000000015615 .LASF4283
C:\Users\CYMR90~1\AppData\Local\Temp\cciNYDRP.s:30749  .debug_str:000000000002833c .LASF4284
C:\Users\CYMR90~1\AppData\Local\Temp\cciNYDRP.s:24044  .debug_str:000000000000d6f9 .LASF4285
C:\Users\CYMR90~1\AppData\Local\Temp\cciNYDRP.s:22760  .debug_str:00000000000082fb .LASF4286
C:\Users\CYMR90~1\AppData\Local\Temp\cciNYDRP.s:28673  .debug_str:000000000001ff4a .LASF4287
C:\Users\CYMR90~1\AppData\Local\Temp\cciNYDRP.s:30631  .debug_str:0000000000027a9b .LASF4288
C:\Users\CYMR90~1\AppData\Local\Temp\cciNYDRP.s:23248  .debug_str:000000000000a193 .LASF4289
C:\Users\CYMR90~1\AppData\Local\Temp\cciNYDRP.s:31665  .debug_str:000000000002bc03 .LASF4290
C:\Users\CYMR90~1\AppData\Local\Temp\cciNYDRP.s:22544  .debug_str:00000000000073af .LASF4291
C:\Users\CYMR90~1\AppData\Local\Temp\cciNYDRP.s:22108  .debug_str:00000000000057fa .LASF4292
C:\Users\CYMR90~1\AppData\Local\Temp\cciNYDRP.s:25216  .debug_str:0000000000012144 .LASF4293
C:\Users\CYMR90~1\AppData\Local\Temp\cciNYDRP.s:26096  .debug_str:00000000000158c0 .LASF4294
C:\Users\CYMR90~1\AppData\Local\Temp\cciNYDRP.s:22696  .debug_str:0000000000007eaf .LASF4295
C:\Users\CYMR90~1\AppData\Local\Temp\cciNYDRP.s:26288  .debug_str:0000000000016542 .LASF4296
C:\Users\CYMR90~1\AppData\Local\Temp\cciNYDRP.s:23236  .debug_str:000000000000a0e4 .LASF4297
C:\Users\CYMR90~1\AppData\Local\Temp\cciNYDRP.s:21372  .debug_str:00000000000028db .LASF4298
C:\Users\CYMR90~1\AppData\Local\Temp\cciNYDRP.s:27877  .debug_str:000000000001cdd4 .LASF4299
C:\Users\CYMR90~1\AppData\Local\Temp\cciNYDRP.s:23950  .debug_str:000000000000d0a2 .LASF4300
C:\Users\CYMR90~1\AppData\Local\Temp\cciNYDRP.s:22042  .debug_str:0000000000005420 .LASF4301
C:\Users\CYMR90~1\AppData\Local\Temp\cciNYDRP.s:22648  .debug_str:0000000000007a66 .LASF4302
C:\Users\CYMR90~1\AppData\Local\Temp\cciNYDRP.s:31067  .debug_str:0000000000029725 .LASF4303
C:\Users\CYMR90~1\AppData\Local\Temp\cciNYDRP.s:22620  .debug_str:00000000000078d3 .LASF4304
C:\Users\CYMR90~1\AppData\Local\Temp\cciNYDRP.s:22206  .debug_str:0000000000005e09 .LASF4305
C:\Users\CYMR90~1\AppData\Local\Temp\cciNYDRP.s:22986  .debug_str:0000000000009116 .LASF4306
C:\Users\CYMR90~1\AppData\Local\Temp\cciNYDRP.s:29657  .debug_str:0000000000023a9d .LASF4307
C:\Users\CYMR90~1\AppData\Local\Temp\cciNYDRP.s:21822  .debug_str:000000000000465a .LASF4308
C:\Users\CYMR90~1\AppData\Local\Temp\cciNYDRP.s:22398  .debug_str:00000000000069ed .LASF4309
C:\Users\CYMR90~1\AppData\Local\Temp\cciNYDRP.s:31533  .debug_str:000000000002b348 .LASF4310
C:\Users\CYMR90~1\AppData\Local\Temp\cciNYDRP.s:21986  .debug_str:00000000000050dc .LASF4311
C:\Users\CYMR90~1\AppData\Local\Temp\cciNYDRP.s:23260  .debug_str:000000000000a284 .LASF4312
C:\Users\CYMR90~1\AppData\Local\Temp\cciNYDRP.s:22556  .debug_str:000000000000747f .LASF4313
C:\Users\CYMR90~1\AppData\Local\Temp\cciNYDRP.s:27909  .debug_str:000000000001d062 .LASF4314
C:\Users\CYMR90~1\AppData\Local\Temp\cciNYDRP.s:30245  .debug_str:0000000000026247 .LASF4315
C:\Users\CYMR90~1\AppData\Local\Temp\cciNYDRP.s:27263  .debug_str:000000000001a61b .LASF4316
C:\Users\CYMR90~1\AppData\Local\Temp\cciNYDRP.s:23614  .debug_str:000000000000b965 .LASF4317
C:\Users\CYMR90~1\AppData\Local\Temp\cciNYDRP.s:31011  .debug_str:0000000000029360 .LASF4318
C:\Users\CYMR90~1\AppData\Local\Temp\cciNYDRP.s:23382  .debug_str:000000000000a9da .LASF4319
C:\Users\CYMR90~1\AppData\Local\Temp\cciNYDRP.s:20726  .debug_str:0000000000000196 .LASF4320
C:\Users\CYMR90~1\AppData\Local\Temp\cciNYDRP.s:29881  .debug_str:00000000000249bf .LASF4321
C:\Users\CYMR90~1\AppData\Local\Temp\cciNYDRP.s:29073  .debug_str:000000000002180a .LASF4322
C:\Users\CYMR90~1\AppData\Local\Temp\cciNYDRP.s:26435  .debug_str:00000000000170a3 .LASF4323
C:\Users\CYMR90~1\AppData\Local\Temp\cciNYDRP.s:30365  .debug_str:00000000000269e4 .LASF4324
C:\Users\CYMR90~1\AppData\Local\Temp\cciNYDRP.s:26569  .debug_str:00000000000178d5 .LASF4325
C:\Users\CYMR90~1\AppData\Local\Temp\cciNYDRP.s:27347  .debug_str:000000000001abf2 .LASF4326
C:\Users\CYMR90~1\AppData\Local\Temp\cciNYDRP.s:30329  .debug_str:00000000000267b4 .LASF4327
C:\Users\CYMR90~1\AppData\Local\Temp\cciNYDRP.s:30459  .debug_str:0000000000026f82 .LASF4328
C:\Users\CYMR90~1\AppData\Local\Temp\cciNYDRP.s:27481  .debug_str:000000000001b497 .LASF4329
C:\Users\CYMR90~1\AppData\Local\Temp\cciNYDRP.s:29517  .debug_str:00000000000231ed .LASF4330
C:\Users\CYMR90~1\AppData\Local\Temp\cciNYDRP.s:22416  .debug_str:0000000000006b4d .LASF4331
C:\Users\CYMR90~1\AppData\Local\Temp\cciNYDRP.s:26366  .debug_str:0000000000016ad4 .LASF4332
C:\Users\CYMR90~1\AppData\Local\Temp\cciNYDRP.s:30303  .debug_str:00000000000265db .LASF4333
C:\Users\CYMR90~1\AppData\Local\Temp\cciNYDRP.s:21768  .debug_str:00000000000042ae .LASF4334
C:\Users\CYMR90~1\AppData\Local\Temp\cciNYDRP.s:26881  .debug_str:0000000000018c46 .LASF4335
C:\Users\CYMR90~1\AppData\Local\Temp\cciNYDRP.s:25516  .debug_str:0000000000013559 .LASF4336
C:\Users\CYMR90~1\AppData\Local\Temp\cciNYDRP.s:27619  .debug_str:000000000001bcb4 .LASF4337
C:\Users\CYMR90~1\AppData\Local\Temp\cciNYDRP.s:27435  .debug_str:000000000001b1e1 .LASF4338
C:\Users\CYMR90~1\AppData\Local\Temp\cciNYDRP.s:25876  .debug_str:0000000000014b37 .LASF4339
C:\Users\CYMR90~1\AppData\Local\Temp\cciNYDRP.s:20916  .debug_str:0000000000000cc3 .LASF4340
C:\Users\CYMR90~1\AppData\Local\Temp\cciNYDRP.s:29293  .debug_str:00000000000224db .LASF4341
C:\Users\CYMR90~1\AppData\Local\Temp\cciNYDRP.s:25052  .debug_str:0000000000011582 .LASF4342
C:\Users\CYMR90~1\AppData\Local\Temp\cciNYDRP.s:28961  .debug_str:00000000000210ae .LASF4343
C:\Users\CYMR90~1\AppData\Local\Temp\cciNYDRP.s:21586  .debug_str:00000000000036d3 .LASF4344
C:\Users\CYMR90~1\AppData\Local\Temp\cciNYDRP.s:25534  .debug_str:0000000000013684 .LASF4345
C:\Users\CYMR90~1\AppData\Local\Temp\cciNYDRP.s:28867  .debug_str:0000000000020b70 .LASF4346
C:\Users\CYMR90~1\AppData\Local\Temp\cciNYDRP.s:31525  .debug_str:000000000002b2b8 .LASF4347
C:\Users\CYMR90~1\AppData\Local\Temp\cciNYDRP.s:26899  .debug_str:0000000000018d66 .LASF4348
C:\Users\CYMR90~1\AppData\Local\Temp\cciNYDRP.s:28455  .debug_str:000000000001f1cc .LASF4349
C:\Users\CYMR90~1\AppData\Local\Temp\cciNYDRP.s:21766  .debug_str:0000000000004288 .LASF4350
C:\Users\CYMR90~1\AppData\Local\Temp\cciNYDRP.s:21698  .debug_str:0000000000003e18 .LASF4351
C:\Users\CYMR90~1\AppData\Local\Temp\cciNYDRP.s:28895  .debug_str:0000000000020d13 .LASF4352
C:\Users\CYMR90~1\AppData\Local\Temp\cciNYDRP.s:26863  .debug_str:0000000000018a60 .LASF4353
C:\Users\CYMR90~1\AppData\Local\Temp\cciNYDRP.s:25566  .debug_str:0000000000013865 .LASF4354
C:\Users\CYMR90~1\AppData\Local\Temp\cciNYDRP.s:29399  .debug_str:0000000000022b78 .LASF4355
C:\Users\CYMR90~1\AppData\Local\Temp\cciNYDRP.s:31955  .debug_str:000000000002cf8c .LASF4356
C:\Users\CYMR90~1\AppData\Local\Temp\cciNYDRP.s:23356  .debug_str:000000000000a817 .LASF4357
C:\Users\CYMR90~1\AppData\Local\Temp\cciNYDRP.s:24026  .debug_str:000000000000d60a .LASF4358
C:\Users\CYMR90~1\AppData\Local\Temp\cciNYDRP.s:29537  .debug_str:0000000000023313 .LASF4359
C:\Users\CYMR90~1\AppData\Local\Temp\cciNYDRP.s:28081  .debug_str:000000000001dadb .LASF4360
C:\Users\CYMR90~1\AppData\Local\Temp\cciNYDRP.s:25254  .debug_str:0000000000012380 .LASF4361
C:\Users\CYMR90~1\AppData\Local\Temp\cciNYDRP.s:31019  .debug_str:00000000000293e4 .LASF4362
C:\Users\CYMR90~1\AppData\Local\Temp\cciNYDRP.s:24206  .debug_str:000000000000e063 .LASF4363
C:\Users\CYMR90~1\AppData\Local\Temp\cciNYDRP.s:22368  .debug_str:000000000000683d .LASF4364
C:\Users\CYMR90~1\AppData\Local\Temp\cciNYDRP.s:25584  .debug_str:0000000000013962 .LASF4365
C:\Users\CYMR90~1\AppData\Local\Temp\cciNYDRP.s:25214  .debug_str:000000000001211d .LASF4366
C:\Users\CYMR90~1\AppData\Local\Temp\cciNYDRP.s:21450  .debug_str:0000000000002dae .LASF4367
C:\Users\CYMR90~1\AppData\Local\Temp\cciNYDRP.s:22008  .debug_str:0000000000005214 .LASF4368
C:\Users\CYMR90~1\AppData\Local\Temp\cciNYDRP.s:21536  .debug_str:0000000000003389 .LASF4369
C:\Users\CYMR90~1\AppData\Local\Temp\cciNYDRP.s:20744  .debug_str:0000000000000287 .LASF4370
C:\Users\CYMR90~1\AppData\Local\Temp\cciNYDRP.s:22980  .debug_str:00000000000090b6 .LASF4371
C:\Users\CYMR90~1\AppData\Local\Temp\cciNYDRP.s:26340  .debug_str:00000000000168d6 .LASF4372
C:\Users\CYMR90~1\AppData\Local\Temp\cciNYDRP.s:21440  .debug_str:0000000000002d23 .LASF4373
C:\Users\CYMR90~1\AppData\Local\Temp\cciNYDRP.s:30385  .debug_str:0000000000026b09 .LASF4374
C:\Users\CYMR90~1\AppData\Local\Temp\cciNYDRP.s:26210  .debug_str:000000000001605d .LASF4375
C:\Users\CYMR90~1\AppData\Local\Temp\cciNYDRP.s:26875  .debug_str:0000000000018bb9 .LASF4376
C:\Users\CYMR90~1\AppData\Local\Temp\cciNYDRP.s:29549  .debug_str:00000000000233e3 .LASF4377
C:\Users\CYMR90~1\AppData\Local\Temp\cciNYDRP.s:29325  .debug_str:00000000000226de .LASF4378
C:\Users\CYMR90~1\AppData\Local\Temp\cciNYDRP.s:25414  .debug_str:0000000000012e06 .LASF4379
C:\Users\CYMR90~1\AppData\Local\Temp\cciNYDRP.s:31061  .debug_str:00000000000296ae .LASF4380
C:\Users\CYMR90~1\AppData\Local\Temp\cciNYDRP.s:31289  .debug_str:000000000002a41a .LASF4381
C:\Users\CYMR90~1\AppData\Local\Temp\cciNYDRP.s:27977  .debug_str:000000000001d498 .LASF4382
C:\Users\CYMR90~1\AppData\Local\Temp\cciNYDRP.s:30151  .debug_str:0000000000025c7d .LASF4383
C:\Users\CYMR90~1\AppData\Local\Temp\cciNYDRP.s:24950  .debug_str:0000000000010f29 .LASF4384
C:\Users\CYMR90~1\AppData\Local\Temp\cciNYDRP.s:28131  .debug_str:000000000001de96 .LASF4385
C:\Users\CYMR90~1\AppData\Local\Temp\cciNYDRP.s:23148  .debug_str:0000000000009b6a .LASF4386
C:\Users\CYMR90~1\AppData\Local\Temp\cciNYDRP.s:26415  .debug_str:0000000000016f8d .LASF4387
C:\Users\CYMR90~1\AppData\Local\Temp\cciNYDRP.s:27975  .debug_str:000000000001d473 .LASF4388
C:\Users\CYMR90~1\AppData\Local\Temp\cciNYDRP.s:23536  .debug_str:000000000000b447 .LASF4389
C:\Users\CYMR90~1\AppData\Local\Temp\cciNYDRP.s:26549  .debug_str:000000000001776d .LASF4390
C:\Users\CYMR90~1\AppData\Local\Temp\cciNYDRP.s:27681  .debug_str:000000000001c0be .LASF4391
C:\Users\CYMR90~1\AppData\Local\Temp\cciNYDRP.s:25344  .debug_str:00000000000129a1 .LASF4392
C:\Users\CYMR90~1\AppData\Local\Temp\cciNYDRP.s:28847  .debug_str:0000000000020a16 .LASF4393
C:\Users\CYMR90~1\AppData\Local\Temp\cciNYDRP.s:23468  .debug_str:000000000000aff0 .LASF4394
C:\Users\CYMR90~1\AppData\Local\Temp\cciNYDRP.s:27369  .debug_str:000000000001ad3b .LASF4395
C:\Users\CYMR90~1\AppData\Local\Temp\cciNYDRP.s:26048  .debug_str:00000000000155f0 .LASF4396
C:\Users\CYMR90~1\AppData\Local\Temp\cciNYDRP.s:25394  .debug_str:0000000000012ccd .LASF4397
C:\Users\CYMR90~1\AppData\Local\Temp\cciNYDRP.s:31663  .debug_str:000000000002bbec .LASF4398
C:\Users\CYMR90~1\AppData\Local\Temp\cciNYDRP.s:26995  .debug_str:00000000000193fa .LASF4399
C:\Users\CYMR90~1\AppData\Local\Temp\cciNYDRP.s:26547  .debug_str:0000000000017755 .LASF4400
C:\Users\CYMR90~1\AppData\Local\Temp\cciNYDRP.s:30535  .debug_str:00000000000274c2 .LASF4401
C:\Users\CYMR90~1\AppData\Local\Temp\cciNYDRP.s:29665  .debug_str:0000000000023b12 .LASF4402
C:\Users\CYMR90~1\AppData\Local\Temp\cciNYDRP.s:22040  .debug_str:0000000000005407 .LASF4403
C:\Users\CYMR90~1\AppData\Local\Temp\cciNYDRP.s:21022  .debug_str:000000000000136b .LASF4404
C:\Users\CYMR90~1\AppData\Local\Temp\cciNYDRP.s:28315  .debug_str:000000000001e985 .LASF4405
C:\Users\CYMR90~1\AppData\Local\Temp\cciNYDRP.s:29033  .debug_str:0000000000021593 .LASF4406
C:\Users\CYMR90~1\AppData\Local\Temp\cciNYDRP.s:31235  .debug_str:000000000002a0d9 .LASF4407
C:\Users\CYMR90~1\AppData\Local\Temp\cciNYDRP.s:25070  .debug_str:00000000000116bc .LASF4408
C:\Users\CYMR90~1\AppData\Local\Temp\cciNYDRP.s:30885  .debug_str:0000000000028bd8 .LASF4409
C:\Users\CYMR90~1\AppData\Local\Temp\cciNYDRP.s:25838  .debug_str:0000000000014901 .LASF4410
C:\Users\CYMR90~1\AppData\Local\Temp\cciNYDRP.s:23430  .debug_str:000000000000adae .LASF4411
C:\Users\CYMR90~1\AppData\Local\Temp\cciNYDRP.s:28809  .debug_str:00000000000207be .LASF4412
C:\Users\CYMR90~1\AppData\Local\Temp\cciNYDRP.s:22868  .debug_str:00000000000089b4 .LASF4413
C:\Users\CYMR90~1\AppData\Local\Temp\cciNYDRP.s:26461  .debug_str:000000000001722d .LASF4414
C:\Users\CYMR90~1\AppData\Local\Temp\cciNYDRP.s:29629  .debug_str:0000000000023907 .LASF4415
C:\Users\CYMR90~1\AppData\Local\Temp\cciNYDRP.s:30457  .debug_str:0000000000026f70 .LASF4416
C:\Users\CYMR90~1\AppData\Local\Temp\cciNYDRP.s:25874  .debug_str:0000000000014b23 .LASF4417
C:\Users\CYMR90~1\AppData\Local\Temp\cciNYDRP.s:28215  .debug_str:000000000001e383 .LASF4418
C:\Users\CYMR90~1\AppData\Local\Temp\cciNYDRP.s:23850  .debug_str:000000000000ca61 .LASF4419
C:\Users\CYMR90~1\AppData\Local\Temp\cciNYDRP.s:25652  .debug_str:0000000000013d93 .LASF4420
C:\Users\CYMR90~1\AppData\Local\Temp\cciNYDRP.s:28047  .debug_str:000000000001d8f9 .LASF4421
C:\Users\CYMR90~1\AppData\Local\Temp\cciNYDRP.s:25424  .debug_str:0000000000012ea4 .LASF4422
C:\Users\CYMR90~1\AppData\Local\Temp\cciNYDRP.s:28881  .debug_str:0000000000020c65 .LASF4423
C:\Users\CYMR90~1\AppData\Local\Temp\cciNYDRP.s:24398  .debug_str:000000000000ec5c .LASF4424
C:\Users\CYMR90~1\AppData\Local\Temp\cciNYDRP.s:27997  .debug_str:000000000001d620 .LASF4425
C:\Users\CYMR90~1\AppData\Local\Temp\cciNYDRP.s:21820  .debug_str:0000000000004646 .LASF4426
C:\Users\CYMR90~1\AppData\Local\Temp\cciNYDRP.s:21198  .debug_str:0000000000001e5c .LASF4427
C:\Users\CYMR90~1\AppData\Local\Temp\cciNYDRP.s:27721  .debug_str:000000000001c326 .LASF4428
C:\Users\CYMR90~1\AppData\Local\Temp\cciNYDRP.s:22782  .debug_str:0000000000008450 .LASF4429
C:\Users\CYMR90~1\AppData\Local\Temp\cciNYDRP.s:31363  .debug_str:000000000002a8b8 .LASF4430
C:\Users\CYMR90~1\AppData\Local\Temp\cciNYDRP.s:22632  .debug_str:0000000000007989 .LASF4431
C:\Users\CYMR90~1\AppData\Local\Temp\cciNYDRP.s:20790  .debug_str:0000000000000516 .LASF4432
C:\Users\CYMR90~1\AppData\Local\Temp\cciNYDRP.s:29873  .debug_str:0000000000024956 .LASF4433
C:\Users\CYMR90~1\AppData\Local\Temp\cciNYDRP.s:26781  .debug_str:0000000000018569 .LASF4434
C:\Users\CYMR90~1\AppData\Local\Temp\cciNYDRP.s:24508  .debug_str:000000000000f2f2 .LASF4435
C:\Users\CYMR90~1\AppData\Local\Temp\cciNYDRP.s:29475  .debug_str:0000000000022f9f .LASF4436
C:\Users\CYMR90~1\AppData\Local\Temp\cciNYDRP.s:31183  .debug_str:0000000000029dd6 .LASF4437
C:\Users\CYMR90~1\AppData\Local\Temp\cciNYDRP.s:23704  .debug_str:000000000000bfd7 .LASF4438
C:\Users\CYMR90~1\AppData\Local\Temp\cciNYDRP.s:22228  .debug_str:0000000000005fae .LASF4439
C:\Users\CYMR90~1\AppData\Local\Temp\cciNYDRP.s:21866  .debug_str:0000000000004997 .LASF4440
C:\Users\CYMR90~1\AppData\Local\Temp\cciNYDRP.s:30225  .debug_str:0000000000026145 .LASF4441
C:\Users\CYMR90~1\AppData\Local\Temp\cciNYDRP.s:24098  .debug_str:000000000000da06 .LASF4442
C:\Users\CYMR90~1\AppData\Local\Temp\cciNYDRP.s:25508  .debug_str:00000000000134c3 .LASF4443
C:\Users\CYMR90~1\AppData\Local\Temp\cciNYDRP.s:22846  .debug_str:0000000000008861 .LASF4444
C:\Users\CYMR90~1\AppData\Local\Temp\cciNYDRP.s:26056  .debug_str:0000000000015666 .LASF4445
C:\Users\CYMR90~1\AppData\Local\Temp\cciNYDRP.s:30011  .debug_str:00000000000252ef .LASF4446
C:\Users\CYMR90~1\AppData\Local\Temp\cciNYDRP.s:21300  .debug_str:00000000000023ea .LASF4447
C:\Users\CYMR90~1\AppData\Local\Temp\cciNYDRP.s:24448  .debug_str:000000000000ef27 .LASF4448
C:\Users\CYMR90~1\AppData\Local\Temp\cciNYDRP.s:20930  .debug_str:0000000000000d9d .LASF4449
C:\Users\CYMR90~1\AppData\Local\Temp\cciNYDRP.s:24904  .debug_str:0000000000010cd4 .LASF4450
C:\Users\CYMR90~1\AppData\Local\Temp\cciNYDRP.s:23582  .debug_str:000000000000b750 .LASF4451
C:\Users\CYMR90~1\AppData\Local\Temp\cciNYDRP.s:28579  .debug_str:000000000001f966 .LASF4452
C:\Users\CYMR90~1\AppData\Local\Temp\cciNYDRP.s:27551  .debug_str:000000000001b8b0 .LASF4453
C:\Users\CYMR90~1\AppData\Local\Temp\cciNYDRP.s:25310  .debug_str:0000000000012740 .LASF4454
C:\Users\CYMR90~1\AppData\Local\Temp\cciNYDRP.s:21294  .debug_str:000000000000239d .LASF4455
C:\Users\CYMR90~1\AppData\Local\Temp\cciNYDRP.s:27951  .debug_str:000000000001d2ed .LASF4456
C:\Users\CYMR90~1\AppData\Local\Temp\cciNYDRP.s:23826  .debug_str:000000000000c822 .LASF4457
C:\Users\CYMR90~1\AppData\Local\Temp\cciNYDRP.s:31347  .debug_str:000000000002a7d3 .LASF4458
C:\Users\CYMR90~1\AppData\Local\Temp\cciNYDRP.s:27231  .debug_str:000000000001a45c .LASF4459
C:\Users\CYMR90~1\AppData\Local\Temp\cciNYDRP.s:29441  .debug_str:0000000000022dc9 .LASF4460
C:\Users\CYMR90~1\AppData\Local\Temp\cciNYDRP.s:31021  .debug_str:0000000000029408 .LASF4461
C:\Users\CYMR90~1\AppData\Local\Temp\cciNYDRP.s:26304  .debug_str:0000000000016633 .LASF4462
C:\Users\CYMR90~1\AppData\Local\Temp\cciNYDRP.s:26965  .debug_str:0000000000019220 .LASF4463
C:\Users\CYMR90~1\AppData\Local\Temp\cciNYDRP.s:26350  .debug_str:000000000001694e .LASF4464
C:\Users\CYMR90~1\AppData\Local\Temp\cciNYDRP.s:25730  .debug_str:0000000000014273 .LASF4465
C:\Users\CYMR90~1\AppData\Local\Temp\cciNYDRP.s:24682  .debug_str:000000000000fe50 .LASF4466
C:\Users\CYMR90~1\AppData\Local\Temp\cciNYDRP.s:27849  .debug_str:000000000001cb88 .LASF4467
C:\Users\CYMR90~1\AppData\Local\Temp\cciNYDRP.s:29153  .debug_str:0000000000021cf5 .LASF4468
C:\Users\CYMR90~1\AppData\Local\Temp\cciNYDRP.s:24056  .debug_str:000000000000d7b7 .LASF4469
C:\Users\CYMR90~1\AppData\Local\Temp\cciNYDRP.s:31503  .debug_str:000000000002b14f .LASF4470
C:\Users\CYMR90~1\AppData\Local\Temp\cciNYDRP.s:23602  .debug_str:000000000000b8b8 .LASF4471
C:\Users\CYMR90~1\AppData\Local\Temp\cciNYDRP.s:28763  .debug_str:000000000002052c .LASF4472
C:\Users\CYMR90~1\AppData\Local\Temp\cciNYDRP.s:26166  .debug_str:0000000000015d36 .LASF4473
C:\Users\CYMR90~1\AppData\Local\Temp\cciNYDRP.s:29617  .debug_str:000000000002383a .LASF4474
C:\Users\CYMR90~1\AppData\Local\Temp\cciNYDRP.s:24240  .debug_str:000000000000e278 .LASF4475
C:\Users\CYMR90~1\AppData\Local\Temp\cciNYDRP.s:28957  .debug_str:000000000002106b .LASF4476
C:\Users\CYMR90~1\AppData\Local\Temp\cciNYDRP.s:29295  .debug_str:0000000000022501 .LASF4477
C:\Users\CYMR90~1\AppData\Local\Temp\cciNYDRP.s:26292  .debug_str:0000000000016586 .LASF4478
C:\Users\CYMR90~1\AppData\Local\Temp\cciNYDRP.s:22454  .debug_str:0000000000006dca .LASF4479
C:\Users\CYMR90~1\AppData\Local\Temp\cciNYDRP.s:30049  .debug_str:00000000000255c0 .LASF4480
C:\Users\CYMR90~1\AppData\Local\Temp\cciNYDRP.s:27285  .debug_str:000000000001a823 .LASF4481
C:\Users\CYMR90~1\AppData\Local\Temp\cciNYDRP.s:20926  .debug_str:0000000000000d5f .LASF4482
C:\Users\CYMR90~1\AppData\Local\Temp\cciNYDRP.s:22376  .debug_str:000000000000689f .LASF4483
C:\Users\CYMR90~1\AppData\Local\Temp\cciNYDRP.s:31003  .debug_str:00000000000292f3 .LASF4484
C:\Users\CYMR90~1\AppData\Local\Temp\cciNYDRP.s:21380  .debug_str:000000000000294c .LASF4485
C:\Users\CYMR90~1\AppData\Local\Temp\cciNYDRP.s:24376  .debug_str:000000000000eb3e .LASF4486
C:\Users\CYMR90~1\AppData\Local\Temp\cciNYDRP.s:28291  .debug_str:000000000001e849 .LASF4487
C:\Users\CYMR90~1\AppData\Local\Temp\cciNYDRP.s:21604  .debug_str:00000000000037ee .LASF4488
C:\Users\CYMR90~1\AppData\Local\Temp\cciNYDRP.s:25628  .debug_str:0000000000013c52 .LASF4489
C:\Users\CYMR90~1\AppData\Local\Temp\cciNYDRP.s:29961  .debug_str:0000000000024edf .LASF4490
C:\Users\CYMR90~1\AppData\Local\Temp\cciNYDRP.s:30967  .debug_str:0000000000029103 .LASF4491
C:\Users\CYMR90~1\AppData\Local\Temp\cciNYDRP.s:25634  .debug_str:0000000000013c96 .LASF4492
C:\Users\CYMR90~1\AppData\Local\Temp\cciNYDRP.s:22158  .debug_str:0000000000005b39 .LASF4493
C:\Users\CYMR90~1\AppData\Local\Temp\cciNYDRP.s:21758  .debug_str:00000000000041f4 .LASF4494
C:\Users\CYMR90~1\AppData\Local\Temp\cciNYDRP.s:29069  .debug_str:00000000000217d8 .LASF4495
C:\Users\CYMR90~1\AppData\Local\Temp\cciNYDRP.s:28595  .debug_str:000000000001fa64 .LASF4496
C:\Users\CYMR90~1\AppData\Local\Temp\cciNYDRP.s:21840  .debug_str:0000000000004812 .LASF4497
C:\Users\CYMR90~1\AppData\Local\Temp\cciNYDRP.s:31505  .debug_str:000000000002b165 .LASF4498
C:\Users\CYMR90~1\AppData\Local\Temp\cciNYDRP.s:30279  .debug_str:0000000000026455 .LASF4499
C:\Users\CYMR90~1\AppData\Local\Temp\cciNYDRP.s:31463  .debug_str:000000000002aeb0 .LASF4500
C:\Users\CYMR90~1\AppData\Local\Temp\cciNYDRP.s:30197  .debug_str:0000000000025f80 .LASF4501
C:\Users\CYMR90~1\AppData\Local\Temp\cciNYDRP.s:21066  .debug_str:00000000000015f2 .LASF4502
C:\Users\CYMR90~1\AppData\Local\Temp\cciNYDRP.s:28179  .debug_str:000000000001e16a .LASF4503
C:\Users\CYMR90~1\AppData\Local\Temp\cciNYDRP.s:30503  .debug_str:00000000000272f8 .LASF4504
C:\Users\CYMR90~1\AppData\Local\Temp\cciNYDRP.s:23282  .debug_str:000000000000a3da .LASF4505
C:\Users\CYMR90~1\AppData\Local\Temp\cciNYDRP.s:31813  .debug_str:000000000002c64b .LASF4506
C:\Users\CYMR90~1\AppData\Local\Temp\cciNYDRP.s:31171  .debug_str:0000000000029d33 .LASF4507
C:\Users\CYMR90~1\AppData\Local\Temp\cciNYDRP.s:22638  .debug_str:00000000000079e3 .LASF4508
C:\Users\CYMR90~1\AppData\Local\Temp\cciNYDRP.s:21742  .debug_str:0000000000004127 .LASF4509
C:\Users\CYMR90~1\AppData\Local\Temp\cciNYDRP.s:30361  .debug_str:00000000000269a0 .LASF4510
C:\Users\CYMR90~1\AppData\Local\Temp\cciNYDRP.s:27735  .debug_str:000000000001c3cf .LASF4511
C:\Users\CYMR90~1\AppData\Local\Temp\cciNYDRP.s:30337  .debug_str:0000000000026832 .LASF4512
C:\Users\CYMR90~1\AppData\Local\Temp\cciNYDRP.s:25664  .debug_str:0000000000013e4f .LASF4513
C:\Users\CYMR90~1\AppData\Local\Temp\cciNYDRP.s:24580  .debug_str:000000000000f7e8 .LASF4514
C:\Users\CYMR90~1\AppData\Local\Temp\cciNYDRP.s:28283  .debug_str:000000000001e7d5 .LASF4515
C:\Users\CYMR90~1\AppData\Local\Temp\cciNYDRP.s:22092  .debug_str:000000000000572e .LASF4516
C:\Users\CYMR90~1\AppData\Local\Temp\cciNYDRP.s:29497  .debug_str:00000000000230b5 .LASF4517
C:\Users\CYMR90~1\AppData\Local\Temp\cciNYDRP.s:26903  .debug_str:0000000000018da5 .LASF4518
C:\Users\CYMR90~1\AppData\Local\Temp\cciNYDRP.s:21262  .debug_str:00000000000021ac .LASF4519
C:\Users\CYMR90~1\AppData\Local\Temp\cciNYDRP.s:21470  .debug_str:0000000000002ee1 .LASF4520
C:\Users\CYMR90~1\AppData\Local\Temp\cciNYDRP.s:30159  .debug_str:0000000000025d12 .LASF4521
C:\Users\CYMR90~1\AppData\Local\Temp\cciNYDRP.s:26062  .debug_str:00000000000156b2 .LASF4522
C:\Users\CYMR90~1\AppData\Local\Temp\cciNYDRP.s:31961  .debug_str:000000000002d00e .LASF4523
C:\Users\CYMR90~1\AppData\Local\Temp\cciNYDRP.s:22954  .debug_str:0000000000008f2f .LASF4524
C:\Users\CYMR90~1\AppData\Local\Temp\cciNYDRP.s:30755  .debug_str:00000000000283a8 .LASF4525
C:\Users\CYMR90~1\AppData\Local\Temp\cciNYDRP.s:31959  .debug_str:000000000002cfd5 .LASF4526
C:\Users\CYMR90~1\AppData\Local\Temp\cciNYDRP.s:28115  .debug_str:000000000001dd7c .LASF4527
C:\Users\CYMR90~1\AppData\Local\Temp\cciNYDRP.s:22406  .debug_str:0000000000006a96 .LASF4528
C:\Users\CYMR90~1\AppData\Local\Temp\cciNYDRP.s:21880  .debug_str:0000000000004a7a .LASF4529
C:\Users\CYMR90~1\AppData\Local\Temp\cciNYDRP.s:26411  .debug_str:0000000000016f38 .LASF4530
C:\Users\CYMR90~1\AppData\Local\Temp\cciNYDRP.s:31603  .debug_str:000000000002b820 .LASF4531
C:\Users\CYMR90~1\AppData\Local\Temp\cciNYDRP.s:25450  .debug_str:000000000001306d .LASF4532
C:\Users\CYMR90~1\AppData\Local\Temp\cciNYDRP.s:31237  .debug_str:000000000002a0f2 .LASF4533
C:\Users\CYMR90~1\AppData\Local\Temp\cciNYDRP.s:30311  .debug_str:000000000002667c .LASF4534
C:\Users\CYMR90~1\AppData\Local\Temp\cciNYDRP.s:24648  .debug_str:000000000000fbf3 .LASF4535
C:\Users\CYMR90~1\AppData\Local\Temp\cciNYDRP.s:31065  .debug_str:00000000000296ea .LASF4536
C:\Users\CYMR90~1\AppData\Local\Temp\cciNYDRP.s:30069  .debug_str:000000000002571b .LASF4537
C:\Users\CYMR90~1\AppData\Local\Temp\cciNYDRP.s:27109  .debug_str:0000000000019ba1 .LASF4538
C:\Users\CYMR90~1\AppData\Local\Temp\cciNYDRP.s:22694  .debug_str:0000000000007e96 .LASF4539
C:\Users\CYMR90~1\AppData\Local\Temp\cciNYDRP.s:27817  .debug_str:000000000001c970 .LASF4540
C:\Users\CYMR90~1\AppData\Local\Temp\cciNYDRP.s:27419  .debug_str:000000000001b0a8 .LASF4541
C:\Users\CYMR90~1\AppData\Local\Temp\cciNYDRP.s:29335  .debug_str:0000000000022759 .LASF4542
C:\Users\CYMR90~1\AppData\Local\Temp\cciNYDRP.s:30265  .debug_str:0000000000026373 .LASF4543
C:\Users\CYMR90~1\AppData\Local\Temp\cciNYDRP.s:21174  .debug_str:0000000000001cee .LASF4544
C:\Users\CYMR90~1\AppData\Local\Temp\cciNYDRP.s:26242  .debug_str:0000000000016227 .LASF4545
C:\Users\CYMR90~1\AppData\Local\Temp\cciNYDRP.s:21482  .debug_str:0000000000002ff9 .LASF4546
C:\Users\CYMR90~1\AppData\Local\Temp\cciNYDRP.s:23668  .debug_str:000000000000bdb6 .LASF4547
C:\Users\CYMR90~1\AppData\Local\Temp\cciNYDRP.s:28295  .debug_str:000000000001e87b .LASF4548
C:\Users\CYMR90~1\AppData\Local\Temp\cciNYDRP.s:20982  .debug_str:000000000000112f .LASF4549
C:\Users\CYMR90~1\AppData\Local\Temp\cciNYDRP.s:29991  .debug_str:0000000000025105 .LASF4550
C:\Users\CYMR90~1\AppData\Local\Temp\cciNYDRP.s:22806  .debug_str:0000000000008598 .LASF4551
C:\Users\CYMR90~1\AppData\Local\Temp\cciNYDRP.s:27923  .debug_str:000000000001d158 .LASF4552
C:\Users\CYMR90~1\AppData\Local\Temp\cciNYDRP.s:27941  .debug_str:000000000001d256 .LASF4553
C:\Users\CYMR90~1\AppData\Local\Temp\cciNYDRP.s:28903  .debug_str:0000000000020d8d .LASF4554
C:\Users\CYMR90~1\AppData\Local\Temp\cciNYDRP.s:27359  .debug_str:000000000001acab .LASF4555
C:\Users\CYMR90~1\AppData\Local\Temp\cciNYDRP.s:22128  .debug_str:0000000000005979 .LASF4556
C:\Users\CYMR90~1\AppData\Local\Temp\cciNYDRP.s:30717  .debug_str:00000000000280b6 .LASF4557
C:\Users\CYMR90~1\AppData\Local\Temp\cciNYDRP.s:29623  .debug_str:00000000000238b6 .LASF4558
C:\Users\CYMR90~1\AppData\Local\Temp\cciNYDRP.s:25958  .debug_str:00000000000150b6 .LASF4559
C:\Users\CYMR90~1\AppData\Local\Temp\cciNYDRP.s:31919  .debug_str:000000000002cd7e .LASF4560
C:\Users\CYMR90~1\AppData\Local\Temp\cciNYDRP.s:21446  .debug_str:0000000000002d72 .LASF4561
C:\Users\CYMR90~1\AppData\Local\Temp\cciNYDRP.s:20730  .debug_str:00000000000001ea .LASF4562
C:\Users\CYMR90~1\AppData\Local\Temp\cciNYDRP.s:27061  .debug_str:0000000000019885 .LASF4563
C:\Users\CYMR90~1\AppData\Local\Temp\cciNYDRP.s:24852  .debug_str:0000000000010907 .LASF4564
C:\Users\CYMR90~1\AppData\Local\Temp\cciNYDRP.s:21756  .debug_str:00000000000041dc .LASF4565
C:\Users\CYMR90~1\AppData\Local\Temp\cciNYDRP.s:23770  .debug_str:000000000000c3e6 .LASF4566
C:\Users\CYMR90~1\AppData\Local\Temp\cciNYDRP.s:30323  .debug_str:0000000000026761 .LASF4567
C:\Users\CYMR90~1\AppData\Local\Temp\cciNYDRP.s:20756  .debug_str:000000000000033a .LASF4568
C:\Users\CYMR90~1\AppData\Local\Temp\cciNYDRP.s:21974  .debug_str:0000000000005010 .LASF4569
C:\Users\CYMR90~1\AppData\Local\Temp\cciNYDRP.s:30983  .debug_str:00000000000291f1 .LASF4570
C:\Users\CYMR90~1\AppData\Local\Temp\cciNYDRP.s:21786  .debug_str:00000000000043de .LASF4571
C:\Users\CYMR90~1\AppData\Local\Temp\cciNYDRP.s:23422  .debug_str:000000000000ac7e .LASF4572
C:\Users\CYMR90~1\AppData\Local\Temp\cciNYDRP.s:20774  .debug_str:0000000000000436 .LASF4573
C:\Users\CYMR90~1\AppData\Local\Temp\cciNYDRP.s:28269  .debug_str:000000000001e6ed .LASF4574
C:\Users\CYMR90~1\AppData\Local\Temp\cciNYDRP.s:26421  .debug_str:0000000000016fef .LASF4575
C:\Users\CYMR90~1\AppData\Local\Temp\cciNYDRP.s:21312  .debug_str:00000000000024c6 .LASF4576
C:\Users\CYMR90~1\AppData\Local\Temp\cciNYDRP.s:30425  .debug_str:0000000000026d8c .LASF4577
C:\Users\CYMR90~1\AppData\Local\Temp\cciNYDRP.s:31769  .debug_str:000000000002c37a .LASF4578
C:\Users\CYMR90~1\AppData\Local\Temp\cciNYDRP.s:28729  .debug_str:0000000000020253 .LASF4579
C:\Users\CYMR90~1\AppData\Local\Temp\cciNYDRP.s:23766  .debug_str:000000000000c39c .LASF4580
C:\Users\CYMR90~1\AppData\Local\Temp\cciNYDRP.s:29345  .debug_str:00000000000227ea .LASF4581
C:\Users\CYMR90~1\AppData\Local\Temp\cciNYDRP.s:23664  .debug_str:000000000000bd52 .LASF4582
C:\Users\CYMR90~1\AppData\Local\Temp\cciNYDRP.s:29333  .debug_str:000000000002273b .LASF4583
C:\Users\CYMR90~1\AppData\Local\Temp\cciNYDRP.s:30873  .debug_str:0000000000028b2e .LASF4584
C:\Users\CYMR90~1\AppData\Local\Temp\cciNYDRP.s:22172  .debug_str:0000000000005c15 .LASF4585
C:\Users\CYMR90~1\AppData\Local\Temp\cciNYDRP.s:24968  .debug_str:000000000001103c .LASF4586
C:\Users\CYMR90~1\AppData\Local\Temp\cciNYDRP.s:24142  .debug_str:000000000000dc98 .LASF4587
C:\Users\CYMR90~1\AppData\Local\Temp\cciNYDRP.s:21834  .debug_str:00000000000047b1 .LASF4588
C:\Users\CYMR90~1\AppData\Local\Temp\cciNYDRP.s:23098  .debug_str:0000000000009841 .LASF4589
C:\Users\CYMR90~1\AppData\Local\Temp\cciNYDRP.s:25624  .debug_str:0000000000013bf2 .LASF4590
C:\Users\CYMR90~1\AppData\Local\Temp\cciNYDRP.s:21658  .debug_str:0000000000003b51 .LASF4591
C:\Users\CYMR90~1\AppData\Local\Temp\cciNYDRP.s:22400  .debug_str:0000000000006a13 .LASF4592
C:\Users\CYMR90~1\AppData\Local\Temp\cciNYDRP.s:20704  .debug_str:000000000000002e .LASF4593
C:\Users\CYMR90~1\AppData\Local\Temp\cciNYDRP.s:24952  .debug_str:0000000000010f4d .LASF4594
C:\Users\CYMR90~1\AppData\Local\Temp\cciNYDRP.s:27317  .debug_str:000000000001a9f2 .LASF4595
C:\Users\CYMR90~1\AppData\Local\Temp\cciNYDRP.s:26368  .debug_str:0000000000016afa .LASF4596
C:\Users\CYMR90~1\AppData\Local\Temp\cciNYDRP.s:31707  .debug_str:000000000002bf45 .LASF4597
C:\Users\CYMR90~1\AppData\Local\Temp\cciNYDRP.s:29855  .debug_str:0000000000024856 .LASF4598
C:\Users\CYMR90~1\AppData\Local\Temp\cciNYDRP.s:24246  .debug_str:000000000000e2c1 .LASF4599
C:\Users\CYMR90~1\AppData\Local\Temp\cciNYDRP.s:28399  .debug_str:000000000001ee5e .LASF4600
C:\Users\CYMR90~1\AppData\Local\Temp\cciNYDRP.s:25888  .debug_str:0000000000014c0b .LASF4601
C:\Users\CYMR90~1\AppData\Local\Temp\cciNYDRP.s:31055  .debug_str:000000000002962f .LASF4602
C:\Users\CYMR90~1\AppData\Local\Temp\cciNYDRP.s:29641  .debug_str:00000000000239a9 .LASF4603
C:\Users\CYMR90~1\AppData\Local\Temp\cciNYDRP.s:25480  .debug_str:0000000000013251 .LASF4604
C:\Users\CYMR90~1\AppData\Local\Temp\cciNYDRP.s:21306  .debug_str:0000000000002430 .LASF4605
C:\Users\CYMR90~1\AppData\Local\Temp\cciNYDRP.s:28379  .debug_str:000000000001ed14 .LASF4606
C:\Users\CYMR90~1\AppData\Local\Temp\cciNYDRP.s:23274  .debug_str:000000000000a342 .LASF4607
C:\Users\CYMR90~1\AppData\Local\Temp\cciNYDRP.s:20826  .debug_str:000000000000072f .LASF4608
C:\Users\CYMR90~1\AppData\Local\Temp\cciNYDRP.s:27333  .debug_str:000000000001ab18 .LASF4609
C:\Users\CYMR90~1\AppData\Local\Temp\cciNYDRP.s:30637  .debug_str:0000000000027b09 .LASF4610
C:\Users\CYMR90~1\AppData\Local\Temp\cciNYDRP.s:26032  .debug_str:00000000000154f2 .LASF4611
C:\Users\CYMR90~1\AppData\Local\Temp\cciNYDRP.s:26985  .debug_str:000000000001932d .LASF4612
C:\Users\CYMR90~1\AppData\Local\Temp\cciNYDRP.s:23656  .debug_str:000000000000bcca .LASF4613
C:\Users\CYMR90~1\AppData\Local\Temp\cciNYDRP.s:27039  .debug_str:00000000000196ba .LASF4614
C:\Users\CYMR90~1\AppData\Local\Temp\cciNYDRP.s:28959  .debug_str:0000000000021083 .LASF4615
C:\Users\CYMR90~1\AppData\Local\Temp\cciNYDRP.s:27063  .debug_str:00000000000198c0 .LASF4616
C:\Users\CYMR90~1\AppData\Local\Temp\cciNYDRP.s:21736  .debug_str:00000000000040d6 .LASF4617
C:\Users\CYMR90~1\AppData\Local\Temp\cciNYDRP.s:23322  .debug_str:000000000000a5e7 .LASF4618
C:\Users\CYMR90~1\AppData\Local\Temp\cciNYDRP.s:24012  .debug_str:000000000000d51b .LASF4619
C:\Users\CYMR90~1\AppData\Local\Temp\cciNYDRP.s:24576  .debug_str:000000000000f79c .LASF4620
C:\Users\CYMR90~1\AppData\Local\Temp\cciNYDRP.s:28393  .debug_str:000000000001edf5 .LASF4621
C:\Users\CYMR90~1\AppData\Local\Temp\cciNYDRP.s:24140  .debug_str:000000000000dc5c .LASF4622
C:\Users\CYMR90~1\AppData\Local\Temp\cciNYDRP.s:27597  .debug_str:000000000001bb66 .LASF4623
C:\Users\CYMR90~1\AppData\Local\Temp\cciNYDRP.s:31285  .debug_str:000000000002a3c7 .LASF4624
C:\Users\CYMR90~1\AppData\Local\Temp\cciNYDRP.s:24872  .debug_str:0000000000010a62 .LASF4625
C:\Users\CYMR90~1\AppData\Local\Temp\cciNYDRP.s:25590  .debug_str:00000000000139cb .LASF4626
C:\Users\CYMR90~1\AppData\Local\Temp\cciNYDRP.s:29239  .debug_str:00000000000221e7 .LASF4627
C:\Users\CYMR90~1\AppData\Local\Temp\cciNYDRP.s:31389  .debug_str:000000000002aa29 .LASF4628
C:\Users\CYMR90~1\AppData\Local\Temp\cciNYDRP.s:24650  .debug_str:000000000000fc1f .LASF4629
C:\Users\CYMR90~1\AppData\Local\Temp\cciNYDRP.s:29299  .debug_str:000000000002253f .LASF4630
C:\Users\CYMR90~1\AppData\Local\Temp\cciNYDRP.s:31623  .debug_str:000000000002b947 .LASF4631
C:\Users\CYMR90~1\AppData\Local\Temp\cciNYDRP.s:29807  .debug_str:00000000000244a4 .LASF4632
C:\Users\CYMR90~1\AppData\Local\Temp\cciNYDRP.s:26308  .debug_str:0000000000016670 .LASF4633
C:\Users\CYMR90~1\AppData\Local\Temp\cciNYDRP.s:27783  .debug_str:000000000001c743 .LASF4634
C:\Users\CYMR90~1\AppData\Local\Temp\cciNYDRP.s:27089  .debug_str:0000000000019a60 .LASF4635
C:\Users\CYMR90~1\AppData\Local\Temp\cciNYDRP.s:24792  .debug_str:00000000000104dc .LASF4636
C:\Users\CYMR90~1\AppData\Local\Temp\cciNYDRP.s:25224  .debug_str:00000000000121af .LASF4637
C:\Users\CYMR90~1\AppData\Local\Temp\cciNYDRP.s:21538  .debug_str:00000000000033ab .LASF4638
C:\Users\CYMR90~1\AppData\Local\Temp\cciNYDRP.s:22392  .debug_str:00000000000069a7 .LASF4639
C:\Users\CYMR90~1\AppData\Local\Temp\cciNYDRP.s:25278  .debug_str:0000000000012529 .LASF4640
C:\Users\CYMR90~1\AppData\Local\Temp\cciNYDRP.s:31427  .debug_str:000000000002ac77 .LASF4641
C:\Users\CYMR90~1\AppData\Local\Temp\cciNYDRP.s:24264  .debug_str:000000000000e3f9 .LASF4642
C:\Users\CYMR90~1\AppData\Local\Temp\cciNYDRP.s:27195  .debug_str:000000000001a08f .LASF4643
C:\Users\CYMR90~1\AppData\Local\Temp\cciNYDRP.s:20914  .debug_str:0000000000000cac .LASF4644
C:\Users\CYMR90~1\AppData\Local\Temp\cciNYDRP.s:30641  .debug_str:0000000000027b56 .LASF4645
C:\Users\CYMR90~1\AppData\Local\Temp\cciNYDRP.s:31877  .debug_str:000000000002ca90 .LASF4646
C:\Users\CYMR90~1\AppData\Local\Temp\cciNYDRP.s:24042  .debug_str:000000000000d6da .LASF4647
C:\Users\CYMR90~1\AppData\Local\Temp\cciNYDRP.s:26717  .debug_str:00000000000181a0 .LASF4648
C:\Users\CYMR90~1\AppData\Local\Temp\cciNYDRP.s:21058  .debug_str:0000000000001571 .LASF4649
C:\Users\CYMR90~1\AppData\Local\Temp\cciNYDRP.s:21770  .debug_str:00000000000042d4 .LASF4650
C:\Users\CYMR90~1\AppData\Local\Temp\cciNYDRP.s:26180  .debug_str:0000000000015e2a .LASF4651
C:\Users\CYMR90~1\AppData\Local\Temp\cciNYDRP.s:31353  .debug_str:000000000002a82b .LASF4652
C:\Users\CYMR90~1\AppData\Local\Temp\cciNYDRP.s:30295  .debug_str:000000000002656a .LASF4653
C:\Users\CYMR90~1\AppData\Local\Temp\cciNYDRP.s:31355  .debug_str:000000000002a849 .LASF4654
C:\Users\CYMR90~1\AppData\Local\Temp\cciNYDRP.s:27725  .debug_str:000000000001c354 .LASF4655
C:\Users\CYMR90~1\AppData\Local\Temp\cciNYDRP.s:21010  .debug_str:0000000000001298 .LASF4656
C:\Users\CYMR90~1\AppData\Local\Temp\cciNYDRP.s:30067  .debug_str:00000000000256e4 .LASF4657
C:\Users\CYMR90~1\AppData\Local\Temp\cciNYDRP.s:27629  .debug_str:000000000001bd73 .LASF4658
C:\Users\CYMR90~1\AppData\Local\Temp\cciNYDRP.s:22166  .debug_str:0000000000005bad .LASF4659
C:\Users\CYMR90~1\AppData\Local\Temp\cciNYDRP.s:24270  .debug_str:000000000000e447 .LASF4660
C:\Users\CYMR90~1\AppData\Local\Temp\cciNYDRP.s:28739  .debug_str:000000000002032a .LASF4661
C:\Users\CYMR90~1\AppData\Local\Temp\cciNYDRP.s:25410  .debug_str:0000000000012dc5 .LASF4662
C:\Users\CYMR90~1\AppData\Local\Temp\cciNYDRP.s:30437  .debug_str:0000000000026e5e .LASF4663
C:\Users\CYMR90~1\AppData\Local\Temp\cciNYDRP.s:25944  .debug_str:0000000000014fe1 .LASF4664
C:\Users\CYMR90~1\AppData\Local\Temp\cciNYDRP.s:25696  .debug_str:000000000001402a .LASF4665
C:\Users\CYMR90~1\AppData\Local\Temp\cciNYDRP.s:28823  .debug_str:00000000000208b3 .LASF4666
C:\Users\CYMR90~1\AppData\Local\Temp\cciNYDRP.s:27615  .debug_str:000000000001bc83 .LASF4667
C:\Users\CYMR90~1\AppData\Local\Temp\cciNYDRP.s:24366  .debug_str:000000000000ea98 .LASF4668
C:\Users\CYMR90~1\AppData\Local\Temp\cciNYDRP.s:22076  .debug_str:000000000000561f .LASF4669
C:\Users\CYMR90~1\AppData\Local\Temp\cciNYDRP.s:31193  .debug_str:0000000000029e56 .LASF4670
C:\Users\CYMR90~1\AppData\Local\Temp\cciNYDRP.s:28915  .debug_str:0000000000020e2f .LASF4671
C:\Users\CYMR90~1\AppData\Local\Temp\cciNYDRP.s:31703  .debug_str:000000000002bf10 .LASF4672
C:\Users\CYMR90~1\AppData\Local\Temp\cciNYDRP.s:24572  .debug_str:000000000000f75f .LASF4673
C:\Users\CYMR90~1\AppData\Local\Temp\cciNYDRP.s:22990  .debug_str:0000000000009153 .LASF4674
C:\Users\CYMR90~1\AppData\Local\Temp\cciNYDRP.s:31387  .debug_str:000000000002aa07 .LASF4675
C:\Users\CYMR90~1\AppData\Local\Temp\cciNYDRP.s:29005  .debug_str:00000000000213f1 .LASF4676
C:\Users\CYMR90~1\AppData\Local\Temp\cciNYDRP.s:30847  .debug_str:00000000000289c1 .LASF4677
C:\Users\CYMR90~1\AppData\Local\Temp\cciNYDRP.s:22380  .debug_str:00000000000068f3 .LASF4678
C:\Users\CYMR90~1\AppData\Local\Temp\cciNYDRP.s:29155  .debug_str:0000000000021d0e .LASF4679
C:\Users\CYMR90~1\AppData\Local\Temp\cciNYDRP.s:31017  .debug_str:00000000000293c3 .LASF4680
C:\Users\CYMR90~1\AppData\Local\Temp\cciNYDRP.s:30741  .debug_str:00000000000282c8 .LASF4681
C:\Users\CYMR90~1\AppData\Local\Temp\cciNYDRP.s:30033  .debug_str:0000000000025476 .LASF4682
C:\Users\CYMR90~1\AppData\Local\Temp\cciNYDRP.s:26004  .debug_str:0000000000015370 .LASF4683
C:\Users\CYMR90~1\AppData\Local\Temp\cciNYDRP.s:23158  .debug_str:0000000000009c0a .LASF4684
C:\Users\CYMR90~1\AppData\Local\Temp\cciNYDRP.s:24574  .debug_str:000000000000f781 .LASF4685
C:\Users\CYMR90~1\AppData\Local\Temp\cciNYDRP.s:21266  .debug_str:00000000000021df .LASF4686
C:\Users\CYMR90~1\AppData\Local\Temp\cciNYDRP.s:23296  .debug_str:000000000000a472 .LASF4687
C:\Users\CYMR90~1\AppData\Local\Temp\cciNYDRP.s:28237  .debug_str:000000000001e4c7 .LASF4688
C:\Users\CYMR90~1\AppData\Local\Temp\cciNYDRP.s:26491  .debug_str:00000000000173d9 .LASF4689
C:\Users\CYMR90~1\AppData\Local\Temp\cciNYDRP.s:23962  .debug_str:000000000000d180 .LASF4690
C:\Users\CYMR90~1\AppData\Local\Temp\cciNYDRP.s:31757  .debug_str:000000000002c266 .LASF4691
C:\Users\CYMR90~1\AppData\Local\Temp\cciNYDRP.s:26326  .debug_str:0000000000016778 .LASF4692
C:\Users\CYMR90~1\AppData\Local\Temp\cciNYDRP.s:24766  .debug_str:0000000000010347 .LASF4693
C:\Users\CYMR90~1\AppData\Local\Temp\cciNYDRP.s:21474  .debug_str:0000000000002f5e .LASF4694
C:\Users\CYMR90~1\AppData\Local\Temp\cciNYDRP.s:29781  .debug_str:0000000000024331 .LASF4695
C:\Users\CYMR90~1\AppData\Local\Temp\cciNYDRP.s:26336  .debug_str:000000000001687e .LASF4696
C:\Users\CYMR90~1\AppData\Local\Temp\cciNYDRP.s:22874  .debug_str:0000000000008a11 .LASF4697
C:\Users\CYMR90~1\AppData\Local\Temp\cciNYDRP.s:30521  .debug_str:0000000000027410 .LASF4698
C:\Users\CYMR90~1\AppData\Local\Temp\cciNYDRP.s:29447  .debug_str:0000000000022e30 .LASF4699
C:\Users\CYMR90~1\AppData\Local\Temp\cciNYDRP.s:21238  .debug_str:0000000000002037 .LASF4700
C:\Users\CYMR90~1\AppData\Local\Temp\cciNYDRP.s:22340  .debug_str:000000000000668b .LASF4701
C:\Users\CYMR90~1\AppData\Local\Temp\cciNYDRP.s:30661  .debug_str:0000000000027cca .LASF4702
C:\Users\CYMR90~1\AppData\Local\Temp\cciNYDRP.s:28169  .debug_str:000000000001e0e3 .LASF4703
C:\Users\CYMR90~1\AppData\Local\Temp\cciNYDRP.s:22700  .debug_str:0000000000007eed .LASF4704
C:\Users\CYMR90~1\AppData\Local\Temp\cciNYDRP.s:30579  .debug_str:000000000002772d .LASF4705
C:\Users\CYMR90~1\AppData\Local\Temp\cciNYDRP.s:24430  .debug_str:000000000000ee14 .LASF4706
C:\Users\CYMR90~1\AppData\Local\Temp\cciNYDRP.s:27855  .debug_str:000000000001cbeb .LASF4707
C:\Users\CYMR90~1\AppData\Local\Temp\cciNYDRP.s:27989  .debug_str:000000000001d537 .LASF4708
C:\Users\CYMR90~1\AppData\Local\Temp\cciNYDRP.s:21222  .debug_str:0000000000001f75 .LASF4709
C:\Users\CYMR90~1\AppData\Local\Temp\cciNYDRP.s:26799  .debug_str:000000000001864a .LASF4710
C:\Users\CYMR90~1\AppData\Local\Temp\cciNYDRP.s:21366  .debug_str:000000000000287b .LASF4711
C:\Users\CYMR90~1\AppData\Local\Temp\cciNYDRP.s:24408  .debug_str:000000000000eccd .LASF4712
C:\Users\CYMR90~1\AppData\Local\Temp\cciNYDRP.s:27775  .debug_str:000000000001c62d .LASF4713
C:\Users\CYMR90~1\AppData\Local\Temp\cciNYDRP.s:23484  .debug_str:000000000000b0dc .LASF4714
C:\Users\CYMR90~1\AppData\Local\Temp\cciNYDRP.s:26641  .debug_str:0000000000017d31 .LASF4715
C:\Users\CYMR90~1\AppData\Local\Temp\cciNYDRP.s:24822  .debug_str:0000000000010739 .LASF4716
C:\Users\CYMR90~1\AppData\Local\Temp\cciNYDRP.s:21310  .debug_str:00000000000024a4 .LASF4717
C:\Users\CYMR90~1\AppData\Local\Temp\cciNYDRP.s:29431  .debug_str:0000000000022d43 .LASF4718
C:\Users\CYMR90~1\AppData\Local\Temp\cciNYDRP.s:21046  .debug_str:0000000000001494 .LASF4719
C:\Users\CYMR90~1\AppData\Local\Temp\cciNYDRP.s:20882  .debug_str:0000000000000aed .LASF4720
C:\Users\CYMR90~1\AppData\Local\Temp\cciNYDRP.s:21930  .debug_str:0000000000004d81 .LASF4721
C:\Users\CYMR90~1\AppData\Local\Temp\cciNYDRP.s:22562  .debug_str:00000000000074cf .LASF4722
C:\Users\CYMR90~1\AppData\Local\Temp\cciNYDRP.s:30247  .debug_str:000000000002626d .LASF4723
C:\Users\CYMR90~1\AppData\Local\Temp\cciNYDRP.s:21226  .debug_str:0000000000001faa .LASF4724
C:\Users\CYMR90~1\AppData\Local\Temp\cciNYDRP.s:28975  .debug_str:000000000002118a .LASF4725
C:\Users\CYMR90~1\AppData\Local\Temp\cciNYDRP.s:23562  .debug_str:000000000000b632 .LASF4726
C:\Users\CYMR90~1\AppData\Local\Temp\cciNYDRP.s:29681  .debug_str:0000000000023c05 .LASF4727
C:\Users\CYMR90~1\AppData\Local\Temp\cciNYDRP.s:22914  .debug_str:0000000000008d01 .LASF4728
C:\Users\CYMR90~1\AppData\Local\Temp\cciNYDRP.s:28593  .debug_str:000000000001fa4e .LASF4729
C:\Users\CYMR90~1\AppData\Local\Temp\cciNYDRP.s:29219  .debug_str:00000000000220b9 .LASF4730
C:\Users\CYMR90~1\AppData\Local\Temp\cciNYDRP.s:26785  .debug_str:00000000000185a5 .LASF4731
C:\Users\CYMR90~1\AppData\Local\Temp\cciNYDRP.s:29303  .debug_str:0000000000022598 .LASF4732
C:\Users\CYMR90~1\AppData\Local\Temp\cciNYDRP.s:26258  .debug_str:0000000000016339 .LASF4733
C:\Users\CYMR90~1\AppData\Local\Temp\cciNYDRP.s:26162  .debug_str:0000000000015cfd .LASF4734
C:\Users\CYMR90~1\AppData\Local\Temp\cciNYDRP.s:25748  .debug_str:000000000001437c .LASF4735
C:\Users\CYMR90~1\AppData\Local\Temp\cciNYDRP.s:28311  .debug_str:000000000001e956 .LASF4736
C:\Users\CYMR90~1\AppData\Local\Temp\cciNYDRP.s:24990  .debug_str:000000000001119e .LASF4737
C:\Users\CYMR90~1\AppData\Local\Temp\cciNYDRP.s:28031  .debug_str:000000000001d810 .LASF4738
C:\Users\CYMR90~1\AppData\Local\Temp\cciNYDRP.s:31935  .debug_str:000000000002cea2 .LASF4739
C:\Users\CYMR90~1\AppData\Local\Temp\cciNYDRP.s:24256  .debug_str:000000000000e377 .LASF4740
C:\Users\CYMR90~1\AppData\Local\Temp\cciNYDRP.s:26745  .debug_str:0000000000018349 .LASF4741
C:\Users\CYMR90~1\AppData\Local\Temp\cciNYDRP.s:21092  .debug_str:0000000000001844 .LASF4742
C:\Users\CYMR90~1\AppData\Local\Temp\cciNYDRP.s:21722  .debug_str:0000000000003f77 .LASF4743
C:\Users\CYMR90~1\AppData\Local\Temp\cciNYDRP.s:21726  .debug_str:0000000000004047 .LASF4744
C:\Users\CYMR90~1\AppData\Local\Temp\cciNYDRP.s:24902  .debug_str:0000000000010cc0 .LASF4745
C:\Users\CYMR90~1\AppData\Local\Temp\cciNYDRP.s:29703  .debug_str:0000000000023d4a .LASF4746
C:\Users\CYMR90~1\AppData\Local\Temp\cciNYDRP.s:23590  .debug_str:000000000000b82f .LASF4747
C:\Users\CYMR90~1\AppData\Local\Temp\cciNYDRP.s:23304  .debug_str:000000000000a4ee .LASF4748
C:\Users\CYMR90~1\AppData\Local\Temp\cciNYDRP.s:28851  .debug_str:0000000000020a75 .LASF4749
C:\Users\CYMR90~1\AppData\Local\Temp\cciNYDRP.s:22642  .debug_str:0000000000007a13 .LASF4750
C:\Users\CYMR90~1\AppData\Local\Temp\cciNYDRP.s:30127  .debug_str:0000000000025b3e .LASF4751
C:\Users\CYMR90~1\AppData\Local\Temp\cciNYDRP.s:29765  .debug_str:0000000000024202 .LASF4752
C:\Users\CYMR90~1\AppData\Local\Temp\cciNYDRP.s:24730  .debug_str:0000000000010135 .LASF4753
C:\Users\CYMR90~1\AppData\Local\Temp\cciNYDRP.s:26038  .debug_str:000000000001554a .LASF4754
C:\Users\CYMR90~1\AppData\Local\Temp\cciNYDRP.s:31553  .debug_str:000000000002b4b3 .LASF4755
C:\Users\CYMR90~1\AppData\Local\Temp\cciNYDRP.s:29813  .debug_str:000000000002451c .LASF4756
C:\Users\CYMR90~1\AppData\Local\Temp\cciNYDRP.s:27029  .debug_str:00000000000195ec .LASF4757
C:\Users\CYMR90~1\AppData\Local\Temp\cciNYDRP.s:28055  .debug_str:000000000001d960 .LASF4758
C:\Users\CYMR90~1\AppData\Local\Temp\cciNYDRP.s:26246  .debug_str:0000000000016273 .LASF4759
C:\Users\CYMR90~1\AppData\Local\Temp\cciNYDRP.s:22926  .debug_str:0000000000008dbb .LASF4760
C:\Users\CYMR90~1\AppData\Local\Temp\cciNYDRP.s:27033  .debug_str:0000000000019634 .LASF4761
C:\Users\CYMR90~1\AppData\Local\Temp\cciNYDRP.s:26835  .debug_str:00000000000188c1 .LASF4762
C:\Users\CYMR90~1\AppData\Local\Temp\cciNYDRP.s:26499  .debug_str:0000000000017435 .LASF4763
C:\Users\CYMR90~1\AppData\Local\Temp\cciNYDRP.s:26272  .debug_str:00000000000163e4 .LASF4764
C:\Users\CYMR90~1\AppData\Local\Temp\cciNYDRP.s:21674  .debug_str:0000000000003c77 .LASF4765
C:\Users\CYMR90~1\AppData\Local\Temp\cciNYDRP.s:30543  .debug_str:0000000000027524 .LASF4766
C:\Users\CYMR90~1\AppData\Local\Temp\cciNYDRP.s:24228  .debug_str:000000000000e1c8 .LASF4767
C:\Users\CYMR90~1\AppData\Local\Temp\cciNYDRP.s:21714  .debug_str:0000000000003ef4 .LASF4768
C:\Users\CYMR90~1\AppData\Local\Temp\cciNYDRP.s:25878  .debug_str:0000000000014b5d .LASF4769
C:\Users\CYMR90~1\AppData\Local\Temp\cciNYDRP.s:24222  .debug_str:000000000000e163 .LASF4770
C:\Users\CYMR90~1\AppData\Local\Temp\cciNYDRP.s:21250  .debug_str:0000000000002101 .LASF4771
C:\Users\CYMR90~1\AppData\Local\Temp\cciNYDRP.s:31395  .debug_str:000000000002aa8d .LASF4772
C:\Users\CYMR90~1\AppData\Local\Temp\cciNYDRP.s:22824  .debug_str:00000000000086ce .LASF4773
C:\Users\CYMR90~1\AppData\Local\Temp\cciNYDRP.s:21432  .debug_str:0000000000002caf .LASF4774
C:\Users\CYMR90~1\AppData\Local\Temp\cciNYDRP.s:25408  .debug_str:0000000000012daf .LASF4775
C:\Users\CYMR90~1\AppData\Local\Temp\cciNYDRP.s:31125  .debug_str:0000000000029a4e .LASF4776
C:\Users\CYMR90~1\AppData\Local\Temp\cciNYDRP.s:23670  .debug_str:000000000000bdcf .LASF4777
C:\Users\CYMR90~1\AppData\Local\Temp\cciNYDRP.s:27197  .debug_str:000000000001a0a6 .LASF4778
C:\Users\CYMR90~1\AppData\Local\Temp\cciNYDRP.s:30073  .debug_str:0000000000025775 .LASF4779
C:\Users\CYMR90~1\AppData\Local\Temp\cciNYDRP.s:25978  .debug_str:000000000001520f .LASF4780
C:\Users\CYMR90~1\AppData\Local\Temp\cciNYDRP.s:31909  .debug_str:000000000002cc5a .LASF4781
C:\Users\CYMR90~1\AppData\Local\Temp\cciNYDRP.s:30793  .debug_str:0000000000028657 .LASF4782
C:\Users\CYMR90~1\AppData\Local\Temp\cciNYDRP.s:29531  .debug_str:00000000000232b1 .LASF4783
C:\Users\CYMR90~1\AppData\Local\Temp\cciNYDRP.s:28343  .debug_str:000000000001eafd .LASF4784
C:\Users\CYMR90~1\AppData\Local\Temp\cciNYDRP.s:24796  .debug_str:000000000001052f .LASF4785
C:\Users\CYMR90~1\AppData\Local\Temp\cciNYDRP.s:31799  .debug_str:000000000002c59e .LASF4786
C:\Users\CYMR90~1\AppData\Local\Temp\cciNYDRP.s:29943  .debug_str:0000000000024dcc .LASF4787
C:\Users\CYMR90~1\AppData\Local\Temp\cciNYDRP.s:29851  .debug_str:0000000000024779 .LASF4788
C:\Users\CYMR90~1\AppData\Local\Temp\cciNYDRP.s:23548  .debug_str:000000000000b53f .LASF4789
C:\Users\CYMR90~1\AppData\Local\Temp\cciNYDRP.s:26296  .debug_str:00000000000165b5 .LASF4790
C:\Users\CYMR90~1\AppData\Local\Temp\cciNYDRP.s:30605  .debug_str:00000000000278b7 .LASF4791
C:\Users\CYMR90~1\AppData\Local\Temp\cciNYDRP.s:27837  .debug_str:000000000001caa6 .LASF4792
C:\Users\CYMR90~1\AppData\Local\Temp\cciNYDRP.s:30401  .debug_str:0000000000026bd8 .LASF4793
C:\Users\CYMR90~1\AppData\Local\Temp\cciNYDRP.s:26607  .debug_str:0000000000017b46 .LASF4794
C:\Users\CYMR90~1\AppData\Local\Temp\cciNYDRP.s:21420  .debug_str:0000000000002bf2 .LASF4795
C:\Users\CYMR90~1\AppData\Local\Temp\cciNYDRP.s:22720  .debug_str:0000000000008054 .LASF4796
C:\Users\CYMR90~1\AppData\Local\Temp\cciNYDRP.s:27823  .debug_str:000000000001c9c3 .LASF4797
C:\Users\CYMR90~1\AppData\Local\Temp\cciNYDRP.s:21416  .debug_str:0000000000002bbb .LASF4798
C:\Users\CYMR90~1\AppData\Local\Temp\cciNYDRP.s:22310  .debug_str:0000000000006464 .LASF4799
C:\Users\CYMR90~1\AppData\Local\Temp\cciNYDRP.s:26290  .debug_str:0000000000016568 .LASF4800
C:\Users\CYMR90~1\AppData\Local\Temp\cciNYDRP.s:27449  .debug_str:000000000001b2b4 .LASF4801
C:\Users\CYMR90~1\AppData\Local\Temp\cciNYDRP.s:21706  .debug_str:0000000000003e99 .LASF4802
C:\Users\CYMR90~1\AppData\Local\Temp\cciNYDRP.s:30145  .debug_str:0000000000025c38 .LASF4803
C:\Users\CYMR90~1\AppData\Local\Temp\cciNYDRP.s:24306  .debug_str:000000000000e6cc .LASF4804
C:\Users\CYMR90~1\AppData\Local\Temp\cciNYDRP.s:27913  .debug_str:000000000001d0a6 .LASF4805
C:\Users\CYMR90~1\AppData\Local\Temp\cciNYDRP.s:25782  .debug_str:000000000001455a .LASF4806
C:\Users\CYMR90~1\AppData\Local\Temp\cciNYDRP.s:23446  .debug_str:000000000000aea3 .LASF4807
C:\Users\CYMR90~1\AppData\Local\Temp\cciNYDRP.s:28869  .debug_str:0000000000020b96 .LASF4808
C:\Users\CYMR90~1\AppData\Local\Temp\cciNYDRP.s:30261  .debug_str:0000000000026323 .LASF4809
C:\Users\CYMR90~1\AppData\Local\Temp\cciNYDRP.s:28559  .debug_str:000000000001f829 .LASF4810
C:\Users\CYMR90~1\AppData\Local\Temp\cciNYDRP.s:29157  .debug_str:0000000000021d32 .LASF4811
C:\Users\CYMR90~1\AppData\Local\Temp\cciNYDRP.s:27421  .debug_str:000000000001b0c1 .LASF4812
C:\Users\CYMR90~1\AppData\Local\Temp\cciNYDRP.s:28711  .debug_str:000000000002015e .LASF4813
C:\Users\CYMR90~1\AppData\Local\Temp\cciNYDRP.s:30209  .debug_str:0000000000026029 .LASF4814
C:\Users\CYMR90~1\AppData\Local\Temp\cciNYDRP.s:29687  .debug_str:0000000000023c61 .LASF4815
C:\Users\CYMR90~1\AppData\Local\Temp\cciNYDRP.s:22894  .debug_str:0000000000008b0d .LASF4816
C:\Users\CYMR90~1\AppData\Local\Temp\cciNYDRP.s:31965  .debug_str:000000000002d03b .LASF4817
C:\Users\CYMR90~1\AppData\Local\Temp\cciNYDRP.s:22304  .debug_str:0000000000006405 .LASF4818
C:\Users\CYMR90~1\AppData\Local\Temp\cciNYDRP.s:21950  .debug_str:0000000000004ea5 .LASF4819
C:\Users\CYMR90~1\AppData\Local\Temp\cciNYDRP.s:29401  .debug_str:0000000000022b9a .LASF4820
C:\Users\CYMR90~1\AppData\Local\Temp\cciNYDRP.s:29353  .debug_str:0000000000022882 .LASF4821
C:\Users\CYMR90~1\AppData\Local\Temp\cciNYDRP.s:28651  .debug_str:000000000001fe03 .LASF4822
C:\Users\CYMR90~1\AppData\Local\Temp\cciNYDRP.s:20866  .debug_str:0000000000000993 .LASF4823
C:\Users\CYMR90~1\AppData\Local\Temp\cciNYDRP.s:25570  .debug_str:00000000000138a1 .LASF4824
C:\Users\CYMR90~1\AppData\Local\Temp\cciNYDRP.s:26695  .debug_str:0000000000018018 .LASF4825
C:\Users\CYMR90~1\AppData\Local\Temp\cciNYDRP.s:24292  .debug_str:000000000000e5ec .LASF4826
C:\Users\CYMR90~1\AppData\Local\Temp\cciNYDRP.s:27883  .debug_str:000000000001ce56 .LASF4827
C:\Users\CYMR90~1\AppData\Local\Temp\cciNYDRP.s:25916  .debug_str:0000000000014e14 .LASF4828
C:\Users\CYMR90~1\AppData\Local\Temp\cciNYDRP.s:24632  .debug_str:000000000000fafe .LASF4829
C:\Users\CYMR90~1\AppData\Local\Temp\cciNYDRP.s:22674  .debug_str:0000000000007cb8 .LASF4830
C:\Users\CYMR90~1\AppData\Local\Temp\cciNYDRP.s:23728  .debug_str:000000000000c141 .LASF4831
C:\Users\CYMR90~1\AppData\Local\Temp\cciNYDRP.s:26058  .debug_str:000000000001567b .LASF4832
C:\Users\CYMR90~1\AppData\Local\Temp\cciNYDRP.s:27575  .debug_str:000000000001b9f1 .LASF4833
C:\Users\CYMR90~1\AppData\Local\Temp\cciNYDRP.s:21792  .debug_str:0000000000004433 .LASF4834
C:\Users\CYMR90~1\AppData\Local\Temp\cciNYDRP.s:22798  .debug_str:0000000000008527 .LASF4835
C:\Users\CYMR90~1\AppData\Local\Temp\cciNYDRP.s:27361  .debug_str:000000000001acc8 .LASF4836
C:\Users\CYMR90~1\AppData\Local\Temp\cciNYDRP.s:28151  .debug_str:000000000001dfc0 .LASF4837
C:\Users\CYMR90~1\AppData\Local\Temp\cciNYDRP.s:25598  .debug_str:0000000000013a59 .LASF4838
C:\Users\CYMR90~1\AppData\Local\Temp\cciNYDRP.s:31301  .debug_str:000000000002a4ff .LASF4839
C:\Users\CYMR90~1\AppData\Local\Temp\cciNYDRP.s:28859  .debug_str:0000000000020ae6 .LASF4840
C:\Users\CYMR90~1\AppData\Local\Temp\cciNYDRP.s:29183  .debug_str:0000000000021ea9 .LASF4841
C:\Users\CYMR90~1\AppData\Local\Temp\cciNYDRP.s:30733  .debug_str:0000000000028244 .LASF4842
C:\Users\CYMR90~1\AppData\Local\Temp\cciNYDRP.s:29573  .debug_str:0000000000023573 .LASF4843
C:\Users\CYMR90~1\AppData\Local\Temp\cciNYDRP.s:25936  .debug_str:0000000000014f64 .LASF4844
C:\Users\CYMR90~1\AppData\Local\Temp\cciNYDRP.s:21924  .debug_str:0000000000004d24 .LASF4845
C:\Users\CYMR90~1\AppData\Local\Temp\cciNYDRP.s:23482  .debug_str:000000000000b0b3 .LASF4846
C:\Users\CYMR90~1\AppData\Local\Temp\cciNYDRP.s:30999  .debug_str:00000000000292b7 .LASF4847
C:\Users\CYMR90~1\AppData\Local\Temp\cciNYDRP.s:26012  .debug_str:00000000000153ef .LASF4848
C:\Users\CYMR90~1\AppData\Local\Temp\cciNYDRP.s:29061  .debug_str:0000000000021750 .LASF4849
C:\Users\CYMR90~1\AppData\Local\Temp\cciNYDRP.s:31405  .debug_str:000000000002ab2b .LASF4850
C:\Users\CYMR90~1\AppData\Local\Temp\cciNYDRP.s:20838  .debug_str:00000000000007cf .LASF4851
C:\Users\CYMR90~1\AppData\Local\Temp\cciNYDRP.s:20784  .debug_str:00000000000004ae .LASF4852
C:\Users\CYMR90~1\AppData\Local\Temp\cciNYDRP.s:28357  .debug_str:000000000001ebd2 .LASF4853
C:\Users\CYMR90~1\AppData\Local\Temp\cciNYDRP.s:23222  .debug_str:000000000000a002 .LASF4854
C:\Users\CYMR90~1\AppData\Local\Temp\cciNYDRP.s:22054  .debug_str:00000000000054e2 .LASF4855
C:\Users\CYMR90~1\AppData\Local\Temp\cciNYDRP.s:24570  .debug_str:000000000000f735 .LASF4856
C:\Users\CYMR90~1\AppData\Local\Temp\cciNYDRP.s:26829  .debug_str:000000000001884f .LASF4857
C:\Users\CYMR90~1\AppData\Local\Temp\cciNYDRP.s:21332  .debug_str:0000000000002644 .LASF4858
C:\Users\CYMR90~1\AppData\Local\Temp\cciNYDRP.s:27067  .debug_str:0000000000019913 .LASF4859
C:\Users\CYMR90~1\AppData\Local\Temp\cciNYDRP.s:28417  .debug_str:000000000001ef87 .LASF4860
C:\Users\CYMR90~1\AppData\Local\Temp\cciNYDRP.s:20874  .debug_str:0000000000000a59 .LASF4861
C:\Users\CYMR90~1\AppData\Local\Temp\cciNYDRP.s:22286  .debug_str:0000000000006312 .LASF4862
C:\Users\CYMR90~1\AppData\Local\Temp\cciNYDRP.s:25318  .debug_str:00000000000127c3 .LASF4863
C:\Users\CYMR90~1\AppData\Local\Temp\cciNYDRP.s:27689  .debug_str:000000000001c156 .LASF4864
C:\Users\CYMR90~1\AppData\Local\Temp\cciNYDRP.s:27069  .debug_str:000000000001993f .LASF4865
C:\Users\CYMR90~1\AppData\Local\Temp\cciNYDRP.s:31451  .debug_str:000000000002ae01 .LASF4866
C:\Users\CYMR90~1\AppData\Local\Temp\cciNYDRP.s:23642  .debug_str:000000000000bbcc .LASF4867
C:\Users\CYMR90~1\AppData\Local\Temp\cciNYDRP.s:26665  .debug_str:0000000000017e93 .LASF4868
C:\Users\CYMR90~1\AppData\Local\Temp\cciNYDRP.s:25670  .debug_str:0000000000013e9c .LASF4869
C:\Users\CYMR90~1\AppData\Local\Temp\cciNYDRP.s:26647  .debug_str:0000000000017d87 .LASF4870
C:\Users\CYMR90~1\AppData\Local\Temp\cciNYDRP.s:28853  .debug_str:0000000000020a8b .LASF4871
C:\Users\CYMR90~1\AppData\Local\Temp\cciNYDRP.s:28857  .debug_str:0000000000020ac4 .LASF4872
C:\Users\CYMR90~1\AppData\Local\Temp\cciNYDRP.s:21454  .debug_str:0000000000002dee .LASF4873
C:\Users\CYMR90~1\AppData\Local\Temp\cciNYDRP.s:24738  .debug_str:00000000000101aa .LASF4874
C:\Users\CYMR90~1\AppData\Local\Temp\cciNYDRP.s:31197  .debug_str:0000000000029e93 .LASF4875
C:\Users\CYMR90~1\AppData\Local\Temp\cciNYDRP.s:22834  .debug_str:0000000000008793 .LASF4876
C:\Users\CYMR90~1\AppData\Local\Temp\cciNYDRP.s:24604  .debug_str:000000000000f919 .LASF4877
C:\Users\CYMR90~1\AppData\Local\Temp\cciNYDRP.s:21394  .debug_str:0000000000002a4d .LASF4878
C:\Users\CYMR90~1\AppData\Local\Temp\cciNYDRP.s:28095  .debug_str:000000000001dc34 .LASF4879
C:\Users\CYMR90~1\AppData\Local\Temp\cciNYDRP.s:26451  .debug_str:0000000000017199 .LASF4880
C:\Users\CYMR90~1\AppData\Local\Temp\cciNYDRP.s:24082  .debug_str:000000000000d92a .LASF4881
C:\Users\CYMR90~1\AppData\Local\Temp\cciNYDRP.s:26535  .debug_str:000000000001768b .LASF4882
C:\Users\CYMR90~1\AppData\Local\Temp\cciNYDRP.s:23110  .debug_str:0000000000009920 .LASF4883
C:\Users\CYMR90~1\AppData\Local\Temp\cciNYDRP.s:25930  .debug_str:0000000000014f06 .LASF4884
C:\Users\CYMR90~1\AppData\Local\Temp\cciNYDRP.s:22856  .debug_str:00000000000088ee .LASF4885
C:\Users\CYMR90~1\AppData\Local\Temp\cciNYDRP.s:22788  .debug_str:0000000000008497 .LASF4886
C:\Users\CYMR90~1\AppData\Local\Temp\cciNYDRP.s:31449  .debug_str:000000000002addc .LASF4887
C:\Users\CYMR90~1\AppData\Local\Temp\cciNYDRP.s:29739  .debug_str:0000000000024008 .LASF4888
C:\Users\CYMR90~1\AppData\Local\Temp\cciNYDRP.s:31435  .debug_str:000000000002ad11 .LASF4889
C:\Users\CYMR90~1\AppData\Local\Temp\cciNYDRP.s:26727  .debug_str:0000000000018222 .LASF4890
C:\Users\CYMR90~1\AppData\Local\Temp\cciNYDRP.s:30929  .debug_str:0000000000028e86 .LASF4891
C:\Users\CYMR90~1\AppData\Local\Temp\cciNYDRP.s:30603  .debug_str:0000000000027895 .LASF4892
C:\Users\CYMR90~1\AppData\Local\Temp\cciNYDRP.s:23086  .debug_str:0000000000009779 .LASF4893
C:\Users\CYMR90~1\AppData\Local\Temp\cciNYDRP.s:30349  .debug_str:00000000000268d0 .LASF4894
C:\Users\CYMR90~1\AppData\Local\Temp\cciNYDRP.s:26711  .debug_str:0000000000018137 .LASF4895
C:\Users\CYMR90~1\AppData\Local\Temp\cciNYDRP.s:26615  .debug_str:0000000000017ba7 .LASF4896
C:\Users\CYMR90~1\AppData\Local\Temp\cciNYDRP.s:30479  .debug_str:0000000000027097 .LASF4897
C:\Users\CYMR90~1\AppData\Local\Temp\cciNYDRP.s:24492  .debug_str:000000000000f1dc .LASF4898
C:\Users\CYMR90~1\AppData\Local\Temp\cciNYDRP.s:27859  .debug_str:000000000001cc2f .LASF4899
C:\Users\CYMR90~1\AppData\Local\Temp\cciNYDRP.s:26905  .debug_str:0000000000018dbf .LASF4900
C:\Users\CYMR90~1\AppData\Local\Temp\cciNYDRP.s:23806  .debug_str:000000000000c67e .LASF4901
C:\Users\CYMR90~1\AppData\Local\Temp\cciNYDRP.s:29999  .debug_str:000000000002522d .LASF4902
C:\Users\CYMR90~1\AppData\Local\Temp\cciNYDRP.s:23214  .debug_str:0000000000009f8c .LASF4903
C:\Users\CYMR90~1\AppData\Local\Temp\cciNYDRP.s:29821  .debug_str:000000000002459c .LASF4904
C:\Users\CYMR90~1\AppData\Local\Temp\cciNYDRP.s:27633  .debug_str:000000000001bdbd .LASF4905
C:\Users\CYMR90~1\AppData\Local\Temp\cciNYDRP.s:24252  .debug_str:000000000000e32e .LASF4906
C:\Users\CYMR90~1\AppData\Local\Temp\cciNYDRP.s:24812  .debug_str:00000000000106bc .LASF4907
C:\Users\CYMR90~1\AppData\Local\Temp\cciNYDRP.s:21176  .debug_str:0000000000001d07 .LASF4908
C:\Users\CYMR90~1\AppData\Local\Temp\cciNYDRP.s:28161  .debug_str:000000000001e055 .LASF4909
C:\Users\CYMR90~1\AppData\Local\Temp\cciNYDRP.s:27709  .debug_str:000000000001c266 .LASF4910
C:\Users\CYMR90~1\AppData\Local\Temp\cciNYDRP.s:25824  .debug_str:0000000000014827 .LASF4911
C:\Users\CYMR90~1\AppData\Local\Temp\cciNYDRP.s:21784  .debug_str:00000000000043b2 .LASF4912
C:\Users\CYMR90~1\AppData\Local\Temp\cciNYDRP.s:27353  .debug_str:000000000001ac3e .LASF4913
C:\Users\CYMR90~1\AppData\Local\Temp\cciNYDRP.s:30097  .debug_str:0000000000025969 .LASF4914
C:\Users\CYMR90~1\AppData\Local\Temp\cciNYDRP.s:24546  .debug_str:000000000000f51e .LASF4915
C:\Users\CYMR90~1\AppData\Local\Temp\cciNYDRP.s:23636  .debug_str:000000000000bb38 .LASF4916
C:\Users\CYMR90~1\AppData\Local\Temp\cciNYDRP.s:20706  .debug_str:000000000000006a .LASF4917
C:\Users\CYMR90~1\AppData\Local\Temp\cciNYDRP.s:23718  .debug_str:000000000000c0be .LASF4918
C:\Users\CYMR90~1\AppData\Local\Temp\cciNYDRP.s:22306  .debug_str:0000000000006428 .LASF4919
C:\Users\CYMR90~1\AppData\Local\Temp\cciNYDRP.s:24788  .debug_str:00000000000104a4 .LASF4920
C:\Users\CYMR90~1\AppData\Local\Temp\cciNYDRP.s:26064  .debug_str:00000000000156cc .LASF4921
C:\Users\CYMR90~1\AppData\Local\Temp\cciNYDRP.s:23596  .debug_str:000000000000b86d .LASF4922
C:\Users\CYMR90~1\AppData\Local\Temp\cciNYDRP.s:25920  .debug_str:0000000000014e5b .LASF4923
C:\Users\CYMR90~1\AppData\Local\Temp\cciNYDRP.s:23550  .debug_str:000000000000b561 .LASF4924
C:\Users\CYMR90~1\AppData\Local\Temp\cciNYDRP.s:26110  .debug_str:0000000000015996 .LASF4925
C:\Users\CYMR90~1\AppData\Local\Temp\cciNYDRP.s:25006  .debug_str:0000000000011279 .LASF4926
C:\Users\CYMR90~1\AppData\Local\Temp\cciNYDRP.s:30271  .debug_str:00000000000263cc .LASF4927
C:\Users\CYMR90~1\AppData\Local\Temp\cciNYDRP.s:25246  .debug_str:000000000001231b .LASF4928
C:\Users\CYMR90~1\AppData\Local\Temp\cciNYDRP.s:25986  .debug_str:0000000000015298 .LASF4929
C:\Users\CYMR90~1\AppData\Local\Temp\cciNYDRP.s:24918  .debug_str:0000000000010d92 .LASF4930
C:\Users\CYMR90~1\AppData\Local\Temp\cciNYDRP.s:30795  .debug_str:0000000000028679 .LASF4931
C:\Users\CYMR90~1\AppData\Local\Temp\cciNYDRP.s:22564  .debug_str:00000000000074f1 .LASF4932
C:\Users\CYMR90~1\AppData\Local\Temp\cciNYDRP.s:31695  .debug_str:000000000002be0d .LASF4933
C:\Users\CYMR90~1\AppData\Local\Temp\cciNYDRP.s:31711  .debug_str:000000000002bf9d .LASF4934
C:\Users\CYMR90~1\AppData\Local\Temp\cciNYDRP.s:28883  .debug_str:0000000000020c7d .LASF4935
C:\Users\CYMR90~1\AppData\Local\Temp\cciNYDRP.s:20900  .debug_str:0000000000000be2 .LASF4936
C:\Users\CYMR90~1\AppData\Local\Temp\cciNYDRP.s:23592  .debug_str:000000000000b847 .LASF4937
C:\Users\CYMR90~1\AppData\Local\Temp\cciNYDRP.s:28339  .debug_str:000000000001eac1 .LASF4938
C:\Users\CYMR90~1\AppData\Local\Temp\cciNYDRP.s:22294  .debug_str:000000000000637d .LASF4939
C:\Users\CYMR90~1\AppData\Local\Temp\cciNYDRP.s:22756  .debug_str:00000000000082c1 .LASF4940
C:\Users\CYMR90~1\AppData\Local\Temp\cciNYDRP.s:25434  .debug_str:0000000000012f63 .LASF4941
C:\Users\CYMR90~1\AppData\Local\Temp\cciNYDRP.s:24854  .debug_str:0000000000010920 .LASF4942
C:\Users\CYMR90~1\AppData\Local\Temp\cciNYDRP.s:29169  .debug_str:0000000000021dff .LASF4943
C:\Users\CYMR90~1\AppData\Local\Temp\cciNYDRP.s:28211  .debug_str:000000000001e350 .LASF4944
C:\Users\CYMR90~1\AppData\Local\Temp\cciNYDRP.s:23442  .debug_str:000000000000ae61 .LASF4945
C:\Users\CYMR90~1\AppData\Local\Temp\cciNYDRP.s:29007  .debug_str:0000000000021415 .LASF4946
C:\Users\CYMR90~1\AppData\Local\Temp\cciNYDRP.s:26170  .debug_str:0000000000015d72 .LASF4947
C:\Users\CYMR90~1\AppData\Local\Temp\cciNYDRP.s:22208  .debug_str:0000000000005e2f .LASF4948
C:\Users\CYMR90~1\AppData\Local\Temp\cciNYDRP.s:27153  .debug_str:0000000000019e0f .LASF4949
C:\Users\CYMR90~1\AppData\Local\Temp\cciNYDRP.s:25996  .debug_str:0000000000015301 .LASF4950
C:\Users\CYMR90~1\AppData\Local\Temp\cciNYDRP.s:28655  .debug_str:000000000001fe51 .LASF4951
C:\Users\CYMR90~1\AppData\Local\Temp\cciNYDRP.s:30829  .debug_str:000000000002888d .LASF4952
C:\Users\CYMR90~1\AppData\Local\Temp\cciNYDRP.s:25648  .debug_str:0000000000013d50 .LASF4953
C:\Users\CYMR90~1\AppData\Local\Temp\cciNYDRP.s:26811  .debug_str:000000000001870a .LASF4954
C:\Users\CYMR90~1\AppData\Local\Temp\cciNYDRP.s:21284  .debug_str:0000000000002316 .LASF4955
C:\Users\CYMR90~1\AppData\Local\Temp\cciNYDRP.s:28263  .debug_str:000000000001e66f .LASF4956
C:\Users\CYMR90~1\AppData\Local\Temp\cciNYDRP.s:27911  .debug_str:000000000001d088 .LASF4957
C:\Users\CYMR90~1\AppData\Local\Temp\cciNYDRP.s:30051  .debug_str:00000000000255d7 .LASF4958
C:\Users\CYMR90~1\AppData\Local\Temp\cciNYDRP.s:22348  .debug_str:00000000000066fe .LASF4959
C:\Users\CYMR90~1\AppData\Local\Temp\cciNYDRP.s:21142  .debug_str:0000000000001b04 .LASF4960
C:\Users\CYMR90~1\AppData\Local\Temp\cciNYDRP.s:22948  .debug_str:0000000000008ef0 .LASF4961
C:\Users\CYMR90~1\AppData\Local\Temp\cciNYDRP.s:23112  .debug_str:0000000000009943 .LASF4962
C:\Users\CYMR90~1\AppData\Local\Temp\cciNYDRP.s:31215  .debug_str:0000000000029fa4 .LASF4963
C:\Users\CYMR90~1\AppData\Local\Temp\cciNYDRP.s:31737  .debug_str:000000000002c12e .LASF4964
C:\Users\CYMR90~1\AppData\Local\Temp\cciNYDRP.s:25870  .debug_str:0000000000014ae5 .LASF4965
C:\Users\CYMR90~1\AppData\Local\Temp\cciNYDRP.s:26276  .debug_str:0000000000016427 .LASF4966
C:\Users\CYMR90~1\AppData\Local\Temp\cciNYDRP.s:25366  .debug_str:0000000000012af9 .LASF4967
C:\Users\CYMR90~1\AppData\Local\Temp\cciNYDRP.s:23432  .debug_str:000000000000adc7 .LASF4968
C:\Users\CYMR90~1\AppData\Local\Temp\cciNYDRP.s:25934  .debug_str:0000000000014f4b .LASF4969
C:\Users\CYMR90~1\AppData\Local\Temp\cciNYDRP.s:22488  .debug_str:0000000000007014 .LASF4970
C:\Users\CYMR90~1\AppData\Local\Temp\cciNYDRP.s:26707  .debug_str:00000000000180fa .LASF4971
C:\Users\CYMR90~1\AppData\Local\Temp\cciNYDRP.s:24592  .debug_str:000000000000f883 .LASF4972
C:\Users\CYMR90~1\AppData\Local\Temp\cciNYDRP.s:26094  .debug_str:00000000000158a8 .LASF4973
C:\Users\CYMR90~1\AppData\Local\Temp\cciNYDRP.s:22628  .debug_str:000000000000793c .LASF4974
C:\Users\CYMR90~1\AppData\Local\Temp\cciNYDRP.s:27373  .debug_str:000000000001ad8a .LASF4975
C:\Users\CYMR90~1\AppData\Local\Temp\cciNYDRP.s:31981  .debug_str:000000000002d139 .LASF4976
C:\Users\CYMR90~1\AppData\Local\Temp\cciNYDRP.s:21578  .debug_str:0000000000003641 .LASF4977
C:\Users\CYMR90~1\AppData\Local\Temp\cciNYDRP.s:25228  .debug_str:00000000000121df .LASF4978
C:\Users\CYMR90~1\AppData\Local\Temp\cciNYDRP.s:22538  .debug_str:0000000000007353 .LASF4979
C:\Users\CYMR90~1\AppData\Local\Temp\cciNYDRP.s:21934  .debug_str:0000000000004dbf .LASF4980
C:\Users\CYMR90~1\AppData\Local\Temp\cciNYDRP.s:23160  .debug_str:0000000000009c29 .LASF4981
C:\Users\CYMR90~1\AppData\Local\Temp\cciNYDRP.s:23108  .debug_str:00000000000098ff .LASF4982
C:\Users\CYMR90~1\AppData\Local\Temp\cciNYDRP.s:24000  .debug_str:000000000000d430 .LASF4983
C:\Users\CYMR90~1\AppData\Local\Temp\cciNYDRP.s:21232  .debug_str:0000000000001fe6 .LASF4984
C:\Users\CYMR90~1\AppData\Local\Temp\cciNYDRP.s:31135  .debug_str:0000000000029aed .LASF4985
C:\Users\CYMR90~1\AppData\Local\Temp\cciNYDRP.s:28773  .debug_str:00000000000205bd .LASF4986
C:\Users\CYMR90~1\AppData\Local\Temp\cciNYDRP.s:30489  .debug_str:0000000000027175 .LASF4987
C:\Users\CYMR90~1\AppData\Local\Temp\cciNYDRP.s:21100  .debug_str:00000000000018a6 .LASF4988
C:\Users\CYMR90~1\AppData\Local\Temp\cciNYDRP.s:24612  .debug_str:000000000000f9a0 .LASF4989
C:\Users\CYMR90~1\AppData\Local\Temp\cciNYDRP.s:22996  .debug_str:00000000000091ab .LASF4990
C:\Users\CYMR90~1\AppData\Local\Temp\cciNYDRP.s:29937  .debug_str:0000000000024d7d .LASF4991
C:\Users\CYMR90~1\AppData\Local\Temp\cciNYDRP.s:31419  .debug_str:000000000002abf5 .LASF4992
C:\Users\CYMR90~1\AppData\Local\Temp\cciNYDRP.s:26423  .debug_str:000000000001701d .LASF4993
C:\Users\CYMR90~1\AppData\Local\Temp\cciNYDRP.s:26539  .debug_str:00000000000176d2 .LASF4994
C:\Users\CYMR90~1\AppData\Local\Temp\cciNYDRP.s:28083  .debug_str:000000000001daff .LASF4995
C:\Users\CYMR90~1\AppData\Local\Temp\cciNYDRP.s:23232  .debug_str:000000000000a0b3 .LASF4996
C:\Users\CYMR90~1\AppData\Local\Temp\cciNYDRP.s:28525  .debug_str:000000000001f621 .LASF4997
C:\Users\CYMR90~1\AppData\Local\Temp\cciNYDRP.s:29701  .debug_str:0000000000023d2d .LASF4998
C:\Users\CYMR90~1\AppData\Local\Temp\cciNYDRP.s:25356  .debug_str:0000000000012a71 .LASF4999
C:\Users\CYMR90~1\AppData\Local\Temp\cciNYDRP.s:21582  .debug_str:000000000000367a .LASF5000
C:\Users\CYMR90~1\AppData\Local\Temp\cciNYDRP.s:21764  .debug_str:0000000000004265 .LASF5001
C:\Users\CYMR90~1\AppData\Local\Temp\cciNYDRP.s:30639  .debug_str:0000000000027b37 .LASF5002
C:\Users\CYMR90~1\AppData\Local\Temp\cciNYDRP.s:25022  .debug_str:000000000001136c .LASF5003
C:\Users\CYMR90~1\AppData\Local\Temp\cciNYDRP.s:23604  .debug_str:000000000000b8d4 .LASF5004
C:\Users\CYMR90~1\AppData\Local\Temp\cciNYDRP.s:29693  .debug_str:0000000000023cb0 .LASF5005
C:\Users\CYMR90~1\AppData\Local\Temp\cciNYDRP.s:29797  .debug_str:000000000002442b .LASF5006
C:\Users\CYMR90~1\AppData\Local\Temp\cciNYDRP.s:26066  .debug_str:00000000000156e2 .LASF5007
C:\Users\CYMR90~1\AppData\Local\Temp\cciNYDRP.s:21606  .debug_str:0000000000003805 .LASF5008
C:\Users\CYMR90~1\AppData\Local\Temp\cciNYDRP.s:26405  .debug_str:0000000000016ef6 .LASF5009
C:\Users\CYMR90~1\AppData\Local\Temp\cciNYDRP.s:21546  .debug_str:000000000000343c .LASF5010
C:\Users\CYMR90~1\AppData\Local\Temp\cciNYDRP.s:21384  .debug_str:00000000000029a2 .LASF5011
C:\Users\CYMR90~1\AppData\Local\Temp\cciNYDRP.s:22260  .debug_str:0000000000006180 .LASF5012
C:\Users\CYMR90~1\AppData\Local\Temp\cciNYDRP.s:30283  .debug_str:000000000002648c .LASF5013
C:\Users\CYMR90~1\AppData\Local\Temp\cciNYDRP.s:31201  .debug_str:0000000000029ecc .LASF5014
C:\Users\CYMR90~1\AppData\Local\Temp\cciNYDRP.s:20810  .debug_str:000000000000062a .LASF5015
C:\Users\CYMR90~1\AppData\Local\Temp\cciNYDRP.s:27289  .debug_str:000000000001a84e .LASF5016
C:\Users\CYMR90~1\AppData\Local\Temp\cciNYDRP.s:31675  .debug_str:000000000002bcd3 .LASF5017
C:\Users\CYMR90~1\AppData\Local\Temp\cciNYDRP.s:23418  .debug_str:000000000000ac45 .LASF5018
C:\Users\CYMR90~1\AppData\Local\Temp\cciNYDRP.s:22342  .debug_str:00000000000066a6 .LASF5019
C:\Users\CYMR90~1\AppData\Local\Temp\cciNYDRP.s:30591  .debug_str:00000000000277ce .LASF5020
C:\Users\CYMR90~1\AppData\Local\Temp\cciNYDRP.s:27313  .debug_str:000000000001a9b0 .LASF5021
C:\Users\CYMR90~1\AppData\Local\Temp\cciNYDRP.s:28433  .debug_str:000000000001f090 .LASF5022
C:\Users\CYMR90~1\AppData\Local\Temp\cciNYDRP.s:27565  .debug_str:000000000001b965 .LASF5023
C:\Users\CYMR90~1\AppData\Local\Temp\cciNYDRP.s:22052  .debug_str:00000000000054c9 .LASF5024
C:\Users\CYMR90~1\AppData\Local\Temp\cciNYDRP.s:29461  .debug_str:0000000000022ef8 .LASF5025
C:\Users\CYMR90~1\AppData\Local\Temp\cciNYDRP.s:29481  .debug_str:0000000000022fdd .LASF5026
C:\Users\CYMR90~1\AppData\Local\Temp\cciNYDRP.s:29969  .debug_str:0000000000024f51 .LASF5027
C:\Users\CYMR90~1\AppData\Local\Temp\cciNYDRP.s:30905  .debug_str:0000000000028cdf .LASF5028
C:\Users\CYMR90~1\AppData\Local\Temp\cciNYDRP.s:29523  .debug_str:0000000000023244 .LASF5029
C:\Users\CYMR90~1\AppData\Local\Temp\cciNYDRP.s:31029  .debug_str:00000000000294a0 .LASF5030
C:\Users\CYMR90~1\AppData\Local\Temp\cciNYDRP.s:25440  .debug_str:0000000000012fc1 .LASF5031
C:\Users\CYMR90~1\AppData\Local\Temp\cciNYDRP.s:27785  .debug_str:000000000001c767 .LASF5032
C:\Users\CYMR90~1\AppData\Local\Temp\cciNYDRP.s:29047  .debug_str:0000000000021673 .LASF5033
C:\Users\CYMR90~1\AppData\Local\Temp\cciNYDRP.s:31953  .debug_str:000000000002cf6c .LASF5034
C:\Users\CYMR90~1\AppData\Local\Temp\cciNYDRP.s:25444  .debug_str:0000000000013005 .LASF5035
C:\Users\CYMR90~1\AppData\Local\Temp\cciNYDRP.s:26619  .debug_str:0000000000017be4 .LASF5036
C:\Users\CYMR90~1\AppData\Local\Temp\cciNYDRP.s:21926  .debug_str:0000000000004d4d .LASF5037
C:\Users\CYMR90~1\AppData\Local\Temp\cciNYDRP.s:29031  .debug_str:000000000002157c .LASF5038
C:\Users\CYMR90~1\AppData\Local\Temp\cciNYDRP.s:26344  .debug_str:0000000000016909 .LASF5039
C:\Users\CYMR90~1\AppData\Local\Temp\cciNYDRP.s:21452  .debug_str:0000000000002dd5 .LASF5040
C:\Users\CYMR90~1\AppData\Local\Temp\cciNYDRP.s:28331  .debug_str:000000000001ea67 .LASF5041
C:\Users\CYMR90~1\AppData\Local\Temp\cciNYDRP.s:29271  .debug_str:000000000002238d .LASF5042
C:\Users\CYMR90~1\AppData\Local\Temp\cciNYDRP.s:22214  .debug_str:0000000000005ea3 .LASF5043
C:\Users\CYMR90~1\AppData\Local\Temp\cciNYDRP.s:29733  .debug_str:0000000000023ee1 .LASF5044
C:\Users\CYMR90~1\AppData\Local\Temp\cciNYDRP.s:27965  .debug_str:000000000001d3bf .LASF5045
C:\Users\CYMR90~1\AppData\Local\Temp\cciNYDRP.s:27947  .debug_str:000000000001d2ad .LASF5046
C:\Users\CYMR90~1\AppData\Local\Temp\cciNYDRP.s:29053  .debug_str:00000000000216f1 .LASF5047
C:\Users\CYMR90~1\AppData\Local\Temp\cciNYDRP.s:25312  .debug_str:0000000000012755 .LASF5048
C:\Users\CYMR90~1\AppData\Local\Temp\cciNYDRP.s:26723  .debug_str:00000000000181e6 .LASF5049
C:\Users\CYMR90~1\AppData\Local\Temp\cciNYDRP.s:22514  .debug_str:00000000000071ef .LASF5050
C:\Users\CYMR90~1\AppData\Local\Temp\cciNYDRP.s:27295  .debug_str:000000000001a898 .LASF5051
C:\Users\CYMR90~1\AppData\Local\Temp\cciNYDRP.s:31147  .debug_str:0000000000029bbc .LASF5052
C:\Users\CYMR90~1\AppData\Local\Temp\cciNYDRP.s:23786  .debug_str:000000000000c4ed .LASF5053
C:\Users\CYMR90~1\AppData\Local\Temp\cciNYDRP.s:23402  .debug_str:000000000000ab08 .LASF5054
C:\Users\CYMR90~1\AppData\Local\Temp\cciNYDRP.s:24418  .debug_str:000000000000ed4e .LASF5055
C:\Users\CYMR90~1\AppData\Local\Temp\cciNYDRP.s:22382  .debug_str:0000000000006917 .LASF5056
C:\Users\CYMR90~1\AppData\Local\Temp\cciNYDRP.s:27105  .debug_str:0000000000019b64 .LASF5057
C:\Users\CYMR90~1\AppData\Local\Temp\cciNYDRP.s:21288  .debug_str:000000000000234c .LASF5058
C:\Users\CYMR90~1\AppData\Local\Temp\cciNYDRP.s:29511  .debug_str:000000000002317c .LASF5059
C:\Users\CYMR90~1\AppData\Local\Temp\cciNYDRP.s:26330  .debug_str:00000000000167df .LASF5060
C:\Users\CYMR90~1\AppData\Local\Temp\cciNYDRP.s:31375  .debug_str:000000000002a955 .LASF5061
C:\Users\CYMR90~1\AppData\Local\Temp\cciNYDRP.s:24610  .debug_str:000000000000f980 .LASF5062
C:\Users\CYMR90~1\AppData\Local\Temp\cciNYDRP.s:30683  .debug_str:0000000000027e2d .LASF5063
C:\Users\CYMR90~1\AppData\Local\Temp\cciNYDRP.s:22586  .debug_str:000000000000766f .LASF5064
C:\Users\CYMR90~1\AppData\Local\Temp\cciNYDRP.s:24018  .debug_str:000000000000d58e .LASF5065
C:\Users\CYMR90~1\AppData\Local\Temp\cciNYDRP.s:31865  .debug_str:000000000002c9ba .LASF5066
C:\Users\CYMR90~1\AppData\Local\Temp\cciNYDRP.s:23648  .debug_str:000000000000bc45 .LASF5067
C:\Users\CYMR90~1\AppData\Local\Temp\cciNYDRP.s:23206  .debug_str:0000000000009f1f .LASF5068
C:\Users\CYMR90~1\AppData\Local\Temp\cciNYDRP.s:30595  .debug_str:0000000000027826 .LASF5069
C:\Users\CYMR90~1\AppData\Local\Temp\cciNYDRP.s:25060  .debug_str:0000000000011603 .LASF5070
C:\Users\CYMR90~1\AppData\Local\Temp\cciNYDRP.s:21846  .debug_str:0000000000004872 .LASF5071
C:\Users\CYMR90~1\AppData\Local\Temp\cciNYDRP.s:23152  .debug_str:0000000000009ba3 .LASF5072
C:\Users\CYMR90~1\AppData\Local\Temp\cciNYDRP.s:26943  .debug_str:00000000000190d5 .LASF5073
C:\Users\CYMR90~1\AppData\Local\Temp\cciNYDRP.s:27907  .debug_str:000000000001d03e .LASF5074
C:\Users\CYMR90~1\AppData\Local\Temp\cciNYDRP.s:28125  .debug_str:000000000001de42 .LASF5075
C:\Users\CYMR90~1\AppData\Local\Temp\cciNYDRP.s:23864  .debug_str:000000000000cb30 .LASF5076
C:\Users\CYMR90~1\AppData\Local\Temp\cciNYDRP.s:26124  .debug_str:0000000000015a64 .LASF5077
C:\Users\CYMR90~1\AppData\Local\Temp\cciNYDRP.s:24258  .debug_str:000000000000e38c .LASF5078
C:\Users\CYMR90~1\AppData\Local\Temp\cciNYDRP.s:27111  .debug_str:0000000000019bba .LASF5079
C:\Users\CYMR90~1\AppData\Local\Temp\cciNYDRP.s:26865  .debug_str:0000000000018a9c .LASF5080
C:\Users\CYMR90~1\AppData\Local\Temp\cciNYDRP.s:29585  .debug_str:000000000002364e .LASF5081
C:\Users\CYMR90~1\AppData\Local\Temp\cciNYDRP.s:21812  .debug_str:000000000000459d .LASF5082
C:\Users\CYMR90~1\AppData\Local\Temp\cciNYDRP.s:20880  .debug_str:0000000000000abc .LASF5083
C:\Users\CYMR90~1\AppData\Local\Temp\cciNYDRP.s:25152  .debug_str:0000000000011cdc .LASF5084
C:\Users\CYMR90~1\AppData\Local\Temp\cciNYDRP.s:25892  .debug_str:0000000000014c47 .LASF5085
C:\Users\CYMR90~1\AppData\Local\Temp\cciNYDRP.s:31739  .debug_str:000000000002c146 .LASF5086
C:\Users\CYMR90~1\AppData\Local\Temp\cciNYDRP.s:22736  .debug_str:000000000000815b .LASF5087
C:\Users\CYMR90~1\AppData\Local\Temp\cciNYDRP.s:23298  .debug_str:000000000000a493 .LASF5088
C:\Users\CYMR90~1\AppData\Local\Temp\cciNYDRP.s:26949  .debug_str:0000000000019137 .LASF5089
C:\Users\CYMR90~1\AppData\Local\Temp\cciNYDRP.s:24194  .debug_str:000000000000dfb0 .LASF5090
C:\Users\CYMR90~1\AppData\Local\Temp\cciNYDRP.s:31787  .debug_str:000000000002c4e2 .LASF5091
C:\Users\CYMR90~1\AppData\Local\Temp\cciNYDRP.s:21104  .debug_str:00000000000018e4 .LASF5092
C:\Users\CYMR90~1\AppData\Local\Temp\cciNYDRP.s:30673  .debug_str:0000000000027d7c .LASF5093
C:\Users\CYMR90~1\AppData\Local\Temp\cciNYDRP.s:28025  .debug_str:000000000001d7b5 .LASF5094
C:\Users\CYMR90~1\AppData\Local\Temp\cciNYDRP.s:26387  .debug_str:0000000000016dbd .LASF5095
C:\Users\CYMR90~1\AppData\Local\Temp\cciNYDRP.s:23258  .debug_str:000000000000a25d .LASF5096
C:\Users\CYMR90~1\AppData\Local\Temp\cciNYDRP.s:29091  .debug_str:00000000000218f7 .LASF5097
C:\Users\CYMR90~1\AppData\Local\Temp\cciNYDRP.s:25446  .debug_str:0000000000013025 .LASF5098
C:\Users\CYMR90~1\AppData\Local\Temp\cciNYDRP.s:26849  .debug_str:00000000000189a0 .LASF5099
C:\Users\CYMR90~1\AppData\Local\Temp\cciNYDRP.s:25546  .debug_str:0000000000013727 .LASF5100
C:\Users\CYMR90~1\AppData\Local\Temp\cciNYDRP.s:29769  .debug_str:000000000002424f .LASF5101
C:\Users\CYMR90~1\AppData\Local\Temp\cciNYDRP.s:30285  .debug_str:00000000000264a7 .LASF5102
C:\Users\CYMR90~1\AppData\Local\Temp\cciNYDRP.s:21350  .debug_str:0000000000002776 .LASF5103
C:\Users\CYMR90~1\AppData\Local\Temp\cciNYDRP.s:25122  .debug_str:0000000000011b20 .LASF5104
C:\Users\CYMR90~1\AppData\Local\Temp\cciNYDRP.s:28653  .debug_str:000000000001fe26 .LASF5105
C:\Users\CYMR90~1\AppData\Local\Temp\cciNYDRP.s:21496  .debug_str:00000000000030e8 .LASF5106
C:\Users\CYMR90~1\AppData\Local\Temp\cciNYDRP.s:28587  .debug_str:000000000001f9d7 .LASF5107
C:\Users\CYMR90~1\AppData\Local\Temp\cciNYDRP.s:25532  .debug_str:0000000000013657 .LASF5108
C:\Users\CYMR90~1\AppData\Local\Temp\cciNYDRP.s:31023  .debug_str:0000000000029424 .LASF5109
C:\Users\CYMR90~1\AppData\Local\Temp\cciNYDRP.s:23238  .debug_str:000000000000a10a .LASF5110
C:\Users\CYMR90~1\AppData\Local\Temp\cciNYDRP.s:26939  .debug_str:0000000000019082 .LASF5111
C:\Users\CYMR90~1\AppData\Local\Temp\cciNYDRP.s:31275  .debug_str:000000000002a311 .LASF5112
C:\Users\CYMR90~1\AppData\Local\Temp\cciNYDRP.s:22296  .debug_str:0000000000006394 .LASF5113
C:\Users\CYMR90~1\AppData\Local\Temp\cciNYDRP.s:31269  .debug_str:000000000002a2a8 .LASF5114
C:\Users\CYMR90~1\AppData\Local\Temp\cciNYDRP.s:21430  .debug_str:0000000000002c82 .LASF5115
C:\Users\CYMR90~1\AppData\Local\Temp\cciNYDRP.s:27375  .debug_str:000000000001ada2 .LASF5116
C:\Users\CYMR90~1\AppData\Local\Temp\cciNYDRP.s:24522  .debug_str:000000000000f3ac .LASF5117
C:\Users\CYMR90~1\AppData\Local\Temp\cciNYDRP.s:25708  .debug_str:0000000000014101 .LASF5118
C:\Users\CYMR90~1\AppData\Local\Temp\cciNYDRP.s:30911  .debug_str:0000000000028d49 .LASF5119
C:\Users\CYMR90~1\AppData\Local\Temp\cciNYDRP.s:22968  .debug_str:0000000000008ff2 .LASF5120
C:\Users\CYMR90~1\AppData\Local\Temp\cciNYDRP.s:27879  .debug_str:000000000001cdfa .LASF5121
C:\Users\CYMR90~1\AppData\Local\Temp\cciNYDRP.s:31317  .debug_str:000000000002a5f4 .LASF5122
C:\Users\CYMR90~1\AppData\Local\Temp\cciNYDRP.s:21806  .debug_str:0000000000004525 .LASF5123
C:\Users\CYMR90~1\AppData\Local\Temp\cciNYDRP.s:30055  .debug_str:000000000002561e .LASF5124
C:\Users\CYMR90~1\AppData\Local\Temp\cciNYDRP.s:28547  .debug_str:000000000001f73e .LASF5125
C:\Users\CYMR90~1\AppData\Local\Temp\cciNYDRP.s:27707  .debug_str:000000000001c23e .LASF5126
C:\Users\CYMR90~1\AppData\Local\Temp\cciNYDRP.s:28677  .debug_str:000000000001ff83 .LASF5127
C:\Users\CYMR90~1\AppData\Local\Temp\cciNYDRP.s:31931  .debug_str:000000000002ce43 .LASF5128
C:\Users\CYMR90~1\AppData\Local\Temp\cciNYDRP.s:21550  .debug_str:000000000000346b .LASF5129
C:\Users\CYMR90~1\AppData\Local\Temp\cciNYDRP.s:28287  .debug_str:000000000001e807 .LASF5130
C:\Users\CYMR90~1\AppData\Local\Temp\cciNYDRP.s:29063  .debug_str:000000000002177c .LASF5131
C:\Users\CYMR90~1\AppData\Local\Temp\cciNYDRP.s:21126  .debug_str:0000000000001a0a .LASF5132
C:\Users\CYMR90~1\AppData\Local\Temp\cciNYDRP.s:25352  .debug_str:0000000000012a24 .LASF5133
C:\Users\CYMR90~1\AppData\Local\Temp\cciNYDRP.s:21476  .debug_str:0000000000002f84 .LASF5134
C:\Users\CYMR90~1\AppData\Local\Temp\cciNYDRP.s:24862  .debug_str:00000000000109ce .LASF5135
C:\Users\CYMR90~1\AppData\Local\Temp\cciNYDRP.s:26757  .debug_str:00000000000183e7 .LASF5136
C:\Users\CYMR90~1\AppData\Local\Temp\cciNYDRP.s:27335  .debug_str:000000000001ab57 .LASF5137
C:\Users\CYMR90~1\AppData\Local\Temp\cciNYDRP.s:28683  .debug_str:000000000001ffe4 .LASF5138
C:\Users\CYMR90~1\AppData\Local\Temp\cciNYDRP.s:31967  .debug_str:000000000002d05d .LASF5139
C:\Users\CYMR90~1\AppData\Local\Temp\cciNYDRP.s:25818  .debug_str:00000000000147c2 .LASF5140
C:\Users\CYMR90~1\AppData\Local\Temp\cciNYDRP.s:27189  .debug_str:000000000001a034 .LASF5141
C:\Users\CYMR90~1\AppData\Local\Temp\cciNYDRP.s:22014  .debug_str:0000000000005284 .LASF5142
C:\Users\CYMR90~1\AppData\Local\Temp\cciNYDRP.s:29791  .debug_str:00000000000243a4 .LASF5143
C:\Users\CYMR90~1\AppData\Local\Temp\cciNYDRP.s:30677  .debug_str:0000000000027dbf .LASF5144
C:\Users\CYMR90~1\AppData\Local\Temp\cciNYDRP.s:22606  .debug_str:00000000000077ae .LASF5145
C:\Users\CYMR90~1\AppData\Local\Temp\cciNYDRP.s:31747  .debug_str:000000000002c1ed .LASF5146
C:\Users\CYMR90~1\AppData\Local\Temp\cciNYDRP.s:24372  .debug_str:000000000000eaf8 .LASF5147
C:\Users\CYMR90~1\AppData\Local\Temp\cciNYDRP.s:26571  .debug_str:00000000000178fb .LASF5148
C:\Users\CYMR90~1\AppData\Local\Temp\cciNYDRP.s:22714  .debug_str:0000000000007ff5 .LASF5149
C:\Users\CYMR90~1\AppData\Local\Temp\cciNYDRP.s:22312  .debug_str:0000000000006486 .LASF5150
C:\Users\CYMR90~1\AppData\Local\Temp\cciNYDRP.s:21918  .debug_str:0000000000004cc2 .LASF5151
C:\Users\CYMR90~1\AppData\Local\Temp\cciNYDRP.s:30499  .debug_str:00000000000272ae .LASF5152
C:\Users\CYMR90~1\AppData\Local\Temp\cciNYDRP.s:26699  .debug_str:0000000000018062 .LASF5153
C:\Users\CYMR90~1\AppData\Local\Temp\cciNYDRP.s:25292  .debug_str:0000000000012607 .LASF5154
C:\Users\CYMR90~1\AppData\Local\Temp\cciNYDRP.s:23814  .debug_str:000000000000c710 .LASF5155
C:\Users\CYMR90~1\AppData\Local\Temp\cciNYDRP.s:28267  .debug_str:000000000001e6b7 .LASF5156
C:\Users\CYMR90~1\AppData\Local\Temp\cciNYDRP.s:22966  .debug_str:0000000000008fc1 .LASF5157
C:\Users\CYMR90~1\AppData\Local\Temp\cciNYDRP.s:31473  .debug_str:000000000002af30 .LASF5158
C:\Users\CYMR90~1\AppData\Local\Temp\cciNYDRP.s:28257  .debug_str:000000000001e5db .LASF5159
C:\Users\CYMR90~1\AppData\Local\Temp\cciNYDRP.s:22810  .debug_str:00000000000085e7 .LASF5160
C:\Users\CYMR90~1\AppData\Local\Temp\cciNYDRP.s:30587  .debug_str:000000000002779c .LASF5161
C:\Users\CYMR90~1\AppData\Local\Temp\cciNYDRP.s:31973  .debug_str:000000000002d0b7 .LASF5162
C:\Users\CYMR90~1\AppData\Local\Temp\cciNYDRP.s:28597  .debug_str:000000000001fa7d .LASF5163
C:\Users\CYMR90~1\AppData\Local\Temp\cciNYDRP.s:30875  .debug_str:0000000000028b4c .LASF5164
C:\Users\CYMR90~1\AppData\Local\Temp\cciNYDRP.s:21410  .debug_str:0000000000002b3a .LASF5165
C:\Users\CYMR90~1\AppData\Local\Temp\cciNYDRP.s:22234  .debug_str:0000000000005ff8 .LASF5166
C:\Users\CYMR90~1\AppData\Local\Temp\cciNYDRP.s:27209  .debug_str:000000000001a14b .LASF5167
C:\Users\CYMR90~1\AppData\Local\Temp\cciNYDRP.s:25902  .debug_str:0000000000014d1b .LASF5168
C:\Users\CYMR90~1\AppData\Local\Temp\cciNYDRP.s:24658  .debug_str:000000000000fca2 .LASF5169
C:\Users\CYMR90~1\AppData\Local\Temp\cciNYDRP.s:31335  .debug_str:000000000002a70d .LASF5170
C:\Users\CYMR90~1\AppData\Local\Temp\cciNYDRP.s:27647  .debug_str:000000000001be90 .LASF5171
C:\Users\CYMR90~1\AppData\Local\Temp\cciNYDRP.s:29129  .debug_str:0000000000021b77 .LASF5172
C:\Users\CYMR90~1\AppData\Local\Temp\cciNYDRP.s:28381  .debug_str:000000000001ed40 .LASF5173
C:\Users\CYMR90~1\AppData\Local\Temp\cciNYDRP.s:23014  .debug_str:00000000000092a4 .LASF5174
C:\Users\CYMR90~1\AppData\Local\Temp\cciNYDRP.s:20760  .debug_str:0000000000000375 .LASF5175
C:\Users\CYMR90~1\AppData\Local\Temp\cciNYDRP.s:25080  .debug_str:0000000000011811 .LASF5176
C:\Users\CYMR90~1\AppData\Local\Temp\cciNYDRP.s:21334  .debug_str:000000000000266c .LASF5177
C:\Users\CYMR90~1\AppData\Local\Temp\cciNYDRP.s:28319  .debug_str:000000000001e9c0 .LASF5178
C:\Users\CYMR90~1\AppData\Local\Temp\cciNYDRP.s:25924  .debug_str:0000000000014eb0 .LASF5179
C:\Users\CYMR90~1\AppData\Local\Temp\cciNYDRP.s:20702  .debug_str:0000000000000000 .LASF5180
C:\Users\CYMR90~1\AppData\Local\Temp\cciNYDRP.s:24614  .debug_str:000000000000f9c1 .LASF5181
C:\Users\CYMR90~1\AppData\Local\Temp\cciNYDRP.s:31025  .debug_str:0000000000029451 .LASF5182
C:\Users\CYMR90~1\AppData\Local\Temp\cciNYDRP.s:29871  .debug_str:000000000002492d .LASF5183
C:\Users\CYMR90~1\AppData\Local\Temp\cciNYDRP.s:30647  .debug_str:0000000000027bae .LASF5184
C:\Users\CYMR90~1\AppData\Local\Temp\cciNYDRP.s:22018  .debug_str:00000000000052ce .LASF5185
C:\Users\CYMR90~1\AppData\Local\Temp\cciNYDRP.s:26356  .debug_str:00000000000169b1 .LASF5186
C:\Users\CYMR90~1\AppData\Local\Temp\cciNYDRP.s:28631  .debug_str:000000000001fca0 .LASF5187
C:\Users\CYMR90~1\AppData\Local\Temp\cciNYDRP.s:27301  .debug_str:000000000001a901 .LASF5188
C:\Users\CYMR90~1\AppData\Local\Temp\cciNYDRP.s:31957  .debug_str:000000000002cfae .LASF5189
C:\Users\CYMR90~1\AppData\Local\Temp\cciNYDRP.s:26483  .debug_str:0000000000017354 .LASF5190
C:\Users\CYMR90~1\AppData\Local\Temp\cciNYDRP.s:22202  .debug_str:0000000000005dc8 .LASF5191
C:\Users\CYMR90~1\AppData\Local\Temp\cciNYDRP.s:24482  .debug_str:000000000000f140 .LASF5192
C:\Users\CYMR90~1\AppData\Local\Temp\cciNYDRP.s:25188  .debug_str:0000000000011f44 .LASF5193
C:\Users\CYMR90~1\AppData\Local\Temp\cciNYDRP.s:29233  .debug_str:0000000000022191 .LASF5194
C:\Users\CYMR90~1\AppData\Local\Temp\cciNYDRP.s:29141  .debug_str:0000000000021c1e .LASF5195
C:\Users\CYMR90~1\AppData\Local\Temp\cciNYDRP.s:30043  .debug_str:000000000002551f .LASF5196
C:\Users\CYMR90~1\AppData\Local\Temp\cciNYDRP.s:30833  .debug_str:00000000000288c2 .LASF5197
C:\Users\CYMR90~1\AppData\Local\Temp\cciNYDRP.s:30287  .debug_str:00000000000264d1 .LASF5198
C:\Users\CYMR90~1\AppData\Local\Temp\cciNYDRP.s:24994  .debug_str:00000000000111d9 .LASF5199
C:\Users\CYMR90~1\AppData\Local\Temp\cciNYDRP.s:23904  .debug_str:000000000000cd56 .LASF5200
C:\Users\CYMR90~1\AppData\Local\Temp\cciNYDRP.s:28793  .debug_str:00000000000206c7 .LASF5201
C:\Users\CYMR90~1\AppData\Local\Temp\cciNYDRP.s:24560  .debug_str:000000000000f678 .LASF5202
C:\Users\CYMR90~1\AppData\Local\Temp\cciNYDRP.s:23870  .debug_str:000000000000cb91 .LASF5203
C:\Users\CYMR90~1\AppData\Local\Temp\cciNYDRP.s:30263  .debug_str:000000000002634d .LASF5204
C:\Users\CYMR90~1\AppData\Local\Temp\cciNYDRP.s:25460  .debug_str:000000000001311f .LASF5205
C:\Users\CYMR90~1\AppData\Local\Temp\cciNYDRP.s:23682  .debug_str:000000000000be72 .LASF5206
C:\Users\CYMR90~1\AppData\Local\Temp\cciNYDRP.s:21594  .debug_str:000000000000375e .LASF5207
C:\Users\CYMR90~1\AppData\Local\Temp\cciNYDRP.s:22504  .debug_str:0000000000007154 .LASF5208
C:\Users\CYMR90~1\AppData\Local\Temp\cciNYDRP.s:24564  .debug_str:000000000000f6c7 .LASF5209
C:\Users\CYMR90~1\AppData\Local\Temp\cciNYDRP.s:22078  .debug_str:0000000000005641 .LASF5210
C:\Users\CYMR90~1\AppData\Local\Temp\cciNYDRP.s:30709  .debug_str:0000000000028028 .LASF5211
C:\Users\CYMR90~1\AppData\Local\Temp\cciNYDRP.s:25244  .debug_str:00000000000122f9 .LASF5212
C:\Users\CYMR90~1\AppData\Local\Temp\cciNYDRP.s:21424  .debug_str:0000000000002c26 .LASF5213
C:\Users\CYMR90~1\AppData\Local\Temp\cciNYDRP.s:30119  .debug_str:0000000000025aca .LASF5214
C:\Users\CYMR90~1\AppData\Local\Temp\cciNYDRP.s:30511  .debug_str:0000000000027374 .LASF5215
C:\Users\CYMR90~1\AppData\Local\Temp\cciNYDRP.s:25010  .debug_str:00000000000112b9 .LASF5216
C:\Users\CYMR90~1\AppData\Local\Temp\cciNYDRP.s:26192  .debug_str:0000000000015f07 .LASF5217
C:\Users\CYMR90~1\AppData\Local\Temp\cciNYDRP.s:29515  .debug_str:00000000000231b5 .LASF5218
C:\Users\CYMR90~1\AppData\Local\Temp\cciNYDRP.s:28249  .debug_str:000000000001e55b .LASF5219
C:\Users\CYMR90~1\AppData\Local\Temp\cciNYDRP.s:29159  .debug_str:0000000000021d5a .LASF5220
C:\Users\CYMR90~1\AppData\Local\Temp\cciNYDRP.s:31979  .debug_str:000000000002d113 .LASF5221
C:\Users\CYMR90~1\AppData\Local\Temp\cciNYDRP.s:29339  .debug_str:0000000000022794 .LASF5222
C:\Users\CYMR90~1\AppData\Local\Temp\cciNYDRP.s:21072  .debug_str:00000000000016e9 .LASF5223
C:\Users\CYMR90~1\AppData\Local\Temp\cciNYDRP.s:22590  .debug_str:00000000000076a2 .LASF5224
C:\Users\CYMR90~1\AppData\Local\Temp\cciNYDRP.s:21954  .debug_str:0000000000004eec .LASF5225
C:\Users\CYMR90~1\AppData\Local\Temp\cciNYDRP.s:29369  .debug_str:0000000000022946 .LASF5226
C:\Users\CYMR90~1\AppData\Local\Temp\cciNYDRP.s:25302  .debug_str:00000000000126aa .LASF5227
C:\Users\CYMR90~1\AppData\Local\Temp\cciNYDRP.s:29843  .debug_str:00000000000246f4 .LASF5228
C:\Users\CYMR90~1\AppData\Local\Temp\cciNYDRP.s:31163  .debug_str:0000000000029cb2 .LASF5229
C:\Users\CYMR90~1\AppData\Local\Temp\cciNYDRP.s:29427  .debug_str:0000000000022d05 .LASF5230
C:\Users\CYMR90~1\AppData\Local\Temp\cciNYDRP.s:30085  .debug_str:00000000000258b3 .LASF5231
C:\Users\CYMR90~1\AppData\Local\Temp\cciNYDRP.s:30133  .debug_str:0000000000025b98 .LASF5232
C:\Users\CYMR90~1\AppData\Local\Temp\cciNYDRP.s:28909  .debug_str:0000000000020ded .LASF5233
C:\Users\CYMR90~1\AppData\Local\Temp\cciNYDRP.s:24654  .debug_str:000000000000fc5c .LASF5234
C:\Users\CYMR90~1\AppData\Local\Temp\cciNYDRP.s:24830  .debug_str:00000000000107b4 .LASF5235
C:\Users\CYMR90~1\AppData\Local\Temp\cciNYDRP.s:29965  .debug_str:0000000000024f12 .LASF5236
C:\Users\CYMR90~1\AppData\Local\Temp\cciNYDRP.s:23354  .debug_str:000000000000a800 .LASF5237
C:\Users\CYMR90~1\AppData\Local\Temp\cciNYDRP.s:24864  .debug_str:00000000000109ed .LASF5238
C:\Users\CYMR90~1\AppData\Local\Temp\cciNYDRP.s:30249  .debug_str:0000000000026282 .LASF5239
C:\Users\CYMR90~1\AppData\Local\Temp\cciNYDRP.s:22882  .debug_str:0000000000008a89 .LASF5240
C:\Users\CYMR90~1\AppData\Local\Temp\cciNYDRP.s:23462  .debug_str:000000000000afa9 .LASF5241
C:\Users\CYMR90~1\AppData\Local\Temp\cciNYDRP.s:30141  .debug_str:0000000000025c09 .LASF5242
C:\Users\CYMR90~1\AppData\Local\Temp\cciNYDRP.s:20974  .debug_str:00000000000010b3 .LASF5243
C:\Users\CYMR90~1\AppData\Local\Temp\cciNYDRP.s:26268  .debug_str:00000000000163ac .LASF5244
C:\Users\CYMR90~1\AppData\Local\Temp\cciNYDRP.s:28335  .debug_str:000000000001eaa8 .LASF5245
C:\Users\CYMR90~1\AppData\Local\Temp\cciNYDRP.s:30633  .debug_str:0000000000027ac1 .LASF5246
C:\Users\CYMR90~1\AppData\Local\Temp\cciNYDRP.s:24320  .debug_str:000000000000e7ae .LASF5247
C:\Users\CYMR90~1\AppData\Local\Temp\cciNYDRP.s:30663  .debug_str:0000000000027ce5 .LASF5248
C:\Users\CYMR90~1\AppData\Local\Temp\cciNYDRP.s:28271  .debug_str:000000000001e70b .LASF5249
C:\Users\CYMR90~1\AppData\Local\Temp\cciNYDRP.s:25064  .debug_str:000000000001164e .LASF5250
C:\Users\CYMR90~1\AppData\Local\Temp\cciNYDRP.s:28585  .debug_str:000000000001f9a6 .LASF5251
C:\Users\CYMR90~1\AppData\Local\Temp\cciNYDRP.s:21936  .debug_str:0000000000004ddd .LASF5252
C:\Users\CYMR90~1\AppData\Local\Temp\cciNYDRP.s:25596  .debug_str:0000000000013a2a .LASF5253
C:\Users\CYMR90~1\AppData\Local\Temp\cciNYDRP.s:28625  .debug_str:000000000001fc09 .LASF5254
C:\Users\CYMR90~1\AppData\Local\Temp\cciNYDRP.s:24178  .debug_str:000000000000deba .LASF5255
C:\Users\CYMR90~1\AppData\Local\Temp\cciNYDRP.s:27839  .debug_str:000000000001cacc .LASF5256
C:\Users\CYMR90~1\AppData\Local\Temp\cciNYDRP.s:24300  .debug_str:000000000000e668 .LASF5257
C:\Users\CYMR90~1\AppData\Local\Temp\cciNYDRP.s:31059  .debug_str:000000000002967c .LASF5258
C:\Users\CYMR90~1\AppData\Local\Temp\cciNYDRP.s:31825  .debug_str:000000000002c6e5 .LASF5259
C:\Users\CYMR90~1\AppData\Local\Temp\cciNYDRP.s:24330  .debug_str:000000000000e822 .LASF5260
C:\Users\CYMR90~1\AppData\Local\Temp\cciNYDRP.s:21050  .debug_str:00000000000014da .LASF5261
C:\Users\CYMR90~1\AppData\Local\Temp\cciNYDRP.s:27455  .debug_str:000000000001b317 .LASF5262
C:\Users\CYMR90~1\AppData\Local\Temp\cciNYDRP.s:30463  .debug_str:0000000000026fc1 .LASF5263
C:\Users\CYMR90~1\AppData\Local\Temp\cciNYDRP.s:27343  .debug_str:000000000001abb6 .LASF5264
C:\Users\CYMR90~1\AppData\Local\Temp\cciNYDRP.s:28327  .debug_str:000000000001ea38 .LASF5265
C:\Users\CYMR90~1\AppData\Local\Temp\cciNYDRP.s:20904  .debug_str:0000000000000c1e .LASF5266
C:\Users\CYMR90~1\AppData\Local\Temp\cciNYDRP.s:28927  .debug_str:0000000000020ed4 .LASF5267
C:\Users\CYMR90~1\AppData\Local\Temp\cciNYDRP.s:23818  .debug_str:000000000000c784 .LASF5268
C:\Users\CYMR90~1\AppData\Local\Temp\cciNYDRP.s:26130  .debug_str:0000000000015ace .LASF5269
C:\Users\CYMR90~1\AppData\Local\Temp\cciNYDRP.s:24586  .debug_str:000000000000f832 .LASF5270
C:\Users\CYMR90~1\AppData\Local\Temp\cciNYDRP.s:26753  .debug_str:00000000000183b7 .LASF5271
C:\Users\CYMR90~1\AppData\Local\Temp\cciNYDRP.s:31325  .debug_str:000000000002a677 .LASF5272
C:\Users\CYMR90~1\AppData\Local\Temp\cciNYDRP.s:25528  .debug_str:000000000001361a .LASF5273
C:\Users\CYMR90~1\AppData\Local\Temp\cciNYDRP.s:28515  .debug_str:000000000001f587 .LASF5274
C:\Users\CYMR90~1\AppData\Local\Temp\cciNYDRP.s:22568  .debug_str:000000000000754a .LASF5275
C:\Users\CYMR90~1\AppData\Local\Temp\cciNYDRP.s:30001  .debug_str:0000000000025258 .LASF5276
C:\Users\CYMR90~1\AppData\Local\Temp\cciNYDRP.s:22444  .debug_str:0000000000006d09 .LASF5277
C:\Users\CYMR90~1\AppData\Local\Temp\cciNYDRP.s:30545  .debug_str:0000000000027549 .LASF5278
C:\Users\CYMR90~1\AppData\Local\Temp\cciNYDRP.s:31037  .debug_str:00000000000294e8 .LASF5279
C:\Users\CYMR90~1\AppData\Local\Temp\cciNYDRP.s:29257  .debug_str:00000000000222ec .LASF5280
C:\Users\CYMR90~1\AppData\Local\Temp\cciNYDRP.s:26042  .debug_str:0000000000015589 .LASF5281
C:\Users\CYMR90~1\AppData\Local\Temp\cciNYDRP.s:22888  .debug_str:0000000000008ad0 .LASF5282
C:\Users\CYMR90~1\AppData\Local\Temp\cciNYDRP.s:21504  .debug_str:0000000000003172 .LASF5283
C:\Users\CYMR90~1\AppData\Local\Temp\cciNYDRP.s:31735  .debug_str:000000000002c116 .LASF5284
C:\Users\CYMR90~1\AppData\Local\Temp\cciNYDRP.s:23072  .debug_str:0000000000009647 .LASF5285
C:\Users\CYMR90~1\AppData\Local\Temp\cciNYDRP.s:22892  .debug_str:0000000000008af7 .LASF5286
C:\Users\CYMR90~1\AppData\Local\Temp\cciNYDRP.s:31233  .debug_str:000000000002a0c2 .LASF5287
C:\Users\CYMR90~1\AppData\Local\Temp\cciNYDRP.s:24420  .debug_str:000000000000ed71 .LASF5288
C:\Users\CYMR90~1\AppData\Local\Temp\cciNYDRP.s:30923  .debug_str:0000000000028e38 .LASF5289
C:\Users\CYMR90~1\AppData\Local\Temp\cciNYDRP.s:23012  .debug_str:000000000000928c .LASF5290
C:\Users\CYMR90~1\AppData\Local\Temp\cciNYDRP.s:31625  .debug_str:000000000002b98a .LASF5291
C:\Users\CYMR90~1\AppData\Local\Temp\cciNYDRP.s:30207  .debug_str:0000000000026011 .LASF5292
C:\Users\CYMR90~1\AppData\Local\Temp\cciNYDRP.s:24568  .debug_str:000000000000f71d .LASF5293
C:\Users\CYMR90~1\AppData\Local\Temp\cciNYDRP.s:21790  .debug_str:000000000000441b .LASF5294
C:\Users\CYMR90~1\AppData\Local\Temp\cciNYDRP.s:27303  .debug_str:000000000001a928 .LASF5295
C:\Users\CYMR90~1\AppData\Local\Temp\cciNYDRP.s:29959  .debug_str:0000000000024ec7 .LASF5296
C:\Users\CYMR90~1\AppData\Local\Temp\cciNYDRP.s:24506  .debug_str:000000000000f2d6 .LASF5297
C:\Users\CYMR90~1\AppData\Local\Temp\cciNYDRP.s:20808  .debug_str:0000000000000612 .LASF5298
C:\Users\CYMR90~1\AppData\Local\Temp\cciNYDRP.s:20762  .debug_str:000000000000039f .LASF5299
C:\Users\CYMR90~1\AppData\Local\Temp\cciNYDRP.s:21096  .debug_str:000000000000186d .LASF5300
C:\Users\CYMR90~1\AppData\Local\Temp\cciNYDRP.s:29599  .debug_str:0000000000023754 .LASF5301
C:\Users\CYMR90~1\AppData\Local\Temp\cciNYDRP.s:30259  .debug_str:000000000002630c .LASF5302
C:\Users\CYMR90~1\AppData\Local\Temp\cciNYDRP.s:25404  .debug_str:0000000000012d61 .LASF5303
C:\Users\CYMR90~1\AppData\Local\Temp\cciNYDRP.s:27337  .debug_str:000000000001ab7b .LASF5304
C:\Users\CYMR90~1\AppData\Local\Temp\cciNYDRP.s:21378  .debug_str:0000000000002935 .LASF5305
C:\Users\CYMR90~1\AppData\Local\Temp\cciNYDRP.s:26140  .debug_str:0000000000015bb3 .LASF5306
C:\Users\CYMR90~1\AppData\Local\Temp\cciNYDRP.s:28713  .debug_str:000000000002018b .LASF5307
C:\Users\CYMR90~1\AppData\Local\Temp\cciNYDRP.s:28027  .debug_str:000000000001d7df .LASF5308
C:\Users\CYMR90~1\AppData\Local\Temp\cciNYDRP.s:22796  .debug_str:0000000000008510 .LASF5309
C:\Users\CYMR90~1\AppData\Local\Temp\cciNYDRP.s:29395  .debug_str:0000000000022b3a .LASF5310
C:\Users\CYMR90~1\AppData\Local\Temp\cciNYDRP.s:28689  .debug_str:0000000000020030 .LASF5311
C:\Users\CYMR90~1\AppData\Local\Temp\cciNYDRP.s:22808  .debug_str:00000000000085d0 .LASF5312
C:\Users\CYMR90~1\AppData\Local\Temp\cciNYDRP.s:22258  .debug_str:0000000000006169 .LASF5313
C:\Users\CYMR90~1\AppData\Local\Temp\cciNYDRP.s:29351  .debug_str:0000000000022863 .LASF5314
C:\Users\CYMR90~1\AppData\Local\Temp\cciNYDRP.s:31111  .debug_str:0000000000029992 .LASF5315
C:\Users\CYMR90~1\AppData\Local\Temp\cciNYDRP.s:26929  .debug_str:0000000000018f26 .LASF5316
C:\Users\CYMR90~1\AppData\Local\Temp\cciNYDRP.s:23720  .debug_str:000000000000c0e8 .LASF5317
C:\Users\CYMR90~1\AppData\Local\Temp\cciNYDRP.s:28415  .debug_str:000000000001ef6a .LASF5318
C:\Users\CYMR90~1\AppData\Local\Temp\cciNYDRP.s:23532  .debug_str:000000000000b423 .LASF5319
C:\Users\CYMR90~1\AppData\Local\Temp\cciNYDRP.s:28799  .debug_str:0000000000020735 .LASF5320
C:\Users\CYMR90~1\AppData\Local\Temp\cciNYDRP.s:25602  .debug_str:0000000000013aa0 .LASF5321
C:\Users\CYMR90~1\AppData\Local\Temp\cciNYDRP.s:31063  .debug_str:00000000000296d2 .LASF5322
C:\Users\CYMR90~1\AppData\Local\Temp\cciNYDRP.s:24746  .debug_str:0000000000010225 .LASF5323
C:\Users\CYMR90~1\AppData\Local\Temp\cciNYDRP.s:23970  .debug_str:000000000000d1fb .LASF5324
C:\Users\CYMR90~1\AppData\Local\Temp\cciNYDRP.s:28425  .debug_str:000000000001f023 .LASF5325
C:\Users\CYMR90~1\AppData\Local\Temp\cciNYDRP.s:31651  .debug_str:000000000002bb3e .LASF5326
C:\Users\CYMR90~1\AppData\Local\Temp\cciNYDRP.s:29375  .debug_str:0000000000022a32 .LASF5327
C:\Users\CYMR90~1\AppData\Local\Temp\cciNYDRP.s:29527  .debug_str:0000000000023283 .LASF5328
C:\Users\CYMR90~1\AppData\Local\Temp\cciNYDRP.s:23506  .debug_str:000000000000b1f6 .LASF5329
C:\Users\CYMR90~1\AppData\Local\Temp\cciNYDRP.s:29651  .debug_str:0000000000023a4b .LASF5330
C:\Users\CYMR90~1\AppData\Local\Temp\cciNYDRP.s:29261  .debug_str:000000000002231d .LASF5331
C:\Users\CYMR90~1\AppData\Local\Temp\cciNYDRP.s:27177  .debug_str:0000000000019f92 .LASF5332
C:\Users\CYMR90~1\AppData\Local\Temp\cciNYDRP.s:26713  .debug_str:0000000000018159 .LASF5333
C:\Users\CYMR90~1\AppData\Local\Temp\cciNYDRP.s:29131  .debug_str:0000000000021b9d .LASF5334
C:\Users\CYMR90~1\AppData\Local\Temp\cciNYDRP.s:31621  .debug_str:000000000002b930 .LASF5335
C:\Users\CYMR90~1\AppData\Local\Temp\cciNYDRP.s:22640  .debug_str:00000000000079fc .LASF5336
C:\Users\CYMR90~1\AppData\Local\Temp\cciNYDRP.s:22090  .debug_str:0000000000005717 .LASF5337
C:\Users\CYMR90~1\AppData\Local\Temp\cciNYDRP.s:22394  .debug_str:00000000000069c0 .LASF5338
C:\Users\CYMR90~1\AppData\Local\Temp\cciNYDRP.s:23858  .debug_str:000000000000cada .LASF5339
C:\Users\CYMR90~1\AppData\Local\Temp\cciNYDRP.s:25210  .debug_str:00000000000120e3 .LASF5340
C:\Users\CYMR90~1\AppData\Local\Temp\cciNYDRP.s:23606  .debug_str:000000000000b8f5 .LASF5341
C:\Users\CYMR90~1\AppData\Local\Temp\cciNYDRP.s:30653  .debug_str:0000000000027c5f .LASF5342
C:\Users\CYMR90~1\AppData\Local\Temp\cciNYDRP.s:30241  .debug_str:000000000002620f .LASF5343
C:\Users\CYMR90~1\AppData\Local\Temp\cciNYDRP.s:25954  .debug_str:0000000000015086 .LASF5344
C:\Users\CYMR90~1\AppData\Local\Temp\cciNYDRP.s:28581  .debug_str:000000000001f97e .LASF5345
C:\Users\CYMR90~1\AppData\Local\Temp\cciNYDRP.s:25518  .debug_str:000000000001357f .LASF5346
C:\Users\CYMR90~1\AppData\Local\Temp\cciNYDRP.s:31803  .debug_str:000000000002c5ce .LASF5347
C:\Users\CYMR90~1\AppData\Local\Temp\cciNYDRP.s:28071  .debug_str:000000000001da49 .LASF5348
C:\Users\CYMR90~1\AppData\Local\Temp\cciNYDRP.s:27865  .debug_str:000000000001cd2d .LASF5349
C:\Users\CYMR90~1\AppData\Local\Temp\cciNYDRP.s:28977  .debug_str:00000000000211a1 .LASF5350
C:\Users\CYMR90~1\AppData\Local\Temp\cciNYDRP.s:23934  .debug_str:000000000000cf70 .LASF5351
C:\Users\CYMR90~1\AppData\Local\Temp\cciNYDRP.s:28017  .debug_str:000000000001d730 .LASF5352
C:\Users\CYMR90~1\AppData\Local\Temp\cciNYDRP.s:26595  .debug_str:0000000000017a8c .LASF5353
C:\Users\CYMR90~1\AppData\Local\Temp\cciNYDRP.s:25762  .debug_str:000000000001442a .LASF5354
C:\Users\CYMR90~1\AppData\Local\Temp\cciNYDRP.s:21448  .debug_str:0000000000002d97 .LASF5355
C:\Users\CYMR90~1\AppData\Local\Temp\cciNYDRP.s:26651  .debug_str:0000000000017dcc .LASF5356
C:\Users\CYMR90~1\AppData\Local\Temp\cciNYDRP.s:23996  .debug_str:000000000000d409 .LASF5357
C:\Users\CYMR90~1\AppData\Local\Temp\cciNYDRP.s:25630  .debug_str:0000000000013c69 .LASF5358
C:\Users\CYMR90~1\AppData\Local\Temp\cciNYDRP.s:21376  .debug_str:0000000000002919 .LASF5359
C:\Users\CYMR90~1\AppData\Local\Temp\cciNYDRP.s:23190  .debug_str:0000000000009e1a .LASF5360
C:\Users\CYMR90~1\AppData\Local\Temp\cciNYDRP.s:29981  .debug_str:0000000000025088 .LASF5361
C:\Users\CYMR90~1\AppData\Local\Temp\cciNYDRP.s:27933  .debug_str:000000000001d1f1 .LASF5362
C:\Users\CYMR90~1\AppData\Local\Temp\cciNYDRP.s:31885  .debug_str:000000000002cb28 .LASF5363
C:\Users\CYMR90~1\AppData\Local\Temp\cciNYDRP.s:26146  .debug_str:0000000000015be0 .LASF5364
C:\Users\CYMR90~1\AppData\Local\Temp\cciNYDRP.s:23220  .debug_str:0000000000009fea .LASF5365
C:\Users\CYMR90~1\AppData\Local\Temp\cciNYDRP.s:24032  .debug_str:000000000000d646 .LASF5366
C:\Users\CYMR90~1\AppData\Local\Temp\cciNYDRP.s:28701  .debug_str:00000000000200c1 .LASF5367
C:\Users\CYMR90~1\AppData\Local\Temp\cciNYDRP.s:30079  .debug_str:0000000000025842 .LASF5368
C:\Users\CYMR90~1\AppData\Local\Temp\cciNYDRP.s:20798  .debug_str:0000000000000564 .LASF5369
C:\Users\CYMR90~1\AppData\Local\Temp\cciNYDRP.s:23250  .debug_str:000000000000a1b9 .LASF5370
C:\Users\CYMR90~1\AppData\Local\Temp\cciNYDRP.s:27391  .debug_str:000000000001aede .LASF5371
C:\Users\CYMR90~1\AppData\Local\Temp\cciNYDRP.s:21622  .debug_str:000000000000393d .LASF5372
C:\Users\CYMR90~1\AppData\Local\Temp\cciNYDRP.s:26873  .debug_str:0000000000018b19 .LASF5373
C:\Users\CYMR90~1\AppData\Local\Temp\cciNYDRP.s:23804  .debug_str:000000000000c631 .LASF5374
C:\Users\CYMR90~1\AppData\Local\Temp\cciNYDRP.s:23936  .debug_str:000000000000cf88 .LASF5375
C:\Users\CYMR90~1\AppData\Local\Temp\cciNYDRP.s:25014  .debug_str:00000000000112fd .LASF5376
C:\Users\CYMR90~1\AppData\Local\Temp\cciNYDRP.s:28063  .debug_str:000000000001d9c5 .LASF5377
C:\Users\CYMR90~1\AppData\Local\Temp\cciNYDRP.s:22982  .debug_str:00000000000090d9 .LASF5378
C:\Users\CYMR90~1\AppData\Local\Temp\cciNYDRP.s:23046  .debug_str:00000000000094df .LASF5379
C:\Users\CYMR90~1\AppData\Local\Temp\cciNYDRP.s:27937  .debug_str:000000000001d220 .LASF5380
C:\Users\CYMR90~1\AppData\Local\Temp\cciNYDRP.s:26529  .debug_str:0000000000017611 .LASF5381
C:\Users\CYMR90~1\AppData\Local\Temp\cciNYDRP.s:21900  .debug_str:0000000000004ba3 .LASF5382
C:\Users\CYMR90~1\AppData\Local\Temp\cciNYDRP.s:20712  .debug_str:00000000000000cf .LASF5383
C:\Users\CYMR90~1\AppData\Local\Temp\cciNYDRP.s:28663  .debug_str:000000000001feb4 .LASF5384
C:\Users\CYMR90~1\AppData\Local\Temp\cciNYDRP.s:31933  .debug_str:000000000002ce6c .LASF5385
C:\Users\CYMR90~1\AppData\Local\Temp\cciNYDRP.s:29337  .debug_str:0000000000022772 .LASF5386
C:\Users\CYMR90~1\AppData\Local\Temp\cciNYDRP.s:22142  .debug_str:0000000000005a41 .LASF5387
C:\Users\CYMR90~1\AppData\Local\Temp\cciNYDRP.s:21314  .debug_str:00000000000024e9 .LASF5388
C:\Users\CYMR90~1\AppData\Local\Temp\cciNYDRP.s:28899  .debug_str:0000000000020d50 .LASF5389
C:\Users\CYMR90~1\AppData\Local\Temp\cciNYDRP.s:30779  .debug_str:0000000000028537 .LASF5390
C:\Users\CYMR90~1\AppData\Local\Temp\cciNYDRP.s:20800  .debug_str:000000000000057e .LASF5391
C:\Users\CYMR90~1\AppData\Local\Temp\cciNYDRP.s:25238  .debug_str:000000000001227b .LASF5392
C:\Users\CYMR90~1\AppData\Local\Temp\cciNYDRP.s:25658  .debug_str:0000000000013df5 .LASF5393
C:\Users\CYMR90~1\AppData\Local\Temp\cciNYDRP.s:25208  .debug_str:00000000000120ca .LASF5394
C:\Users\CYMR90~1\AppData\Local\Temp\cciNYDRP.s:22264  .debug_str:00000000000061cb .LASF5395
C:\Users\CYMR90~1\AppData\Local\Temp\cciNYDRP.s:28401  .debug_str:000000000001ee83 .LASF5396
C:\Users\CYMR90~1\AppData\Local\Temp\cciNYDRP.s:26543  .debug_str:0000000000017716 .LASF5397
C:\Users\CYMR90~1\AppData\Local\Temp\cciNYDRP.s:21054  .debug_str:0000000000001520 .LASF5398
C:\Users\CYMR90~1\AppData\Local\Temp\cciNYDRP.s:28617  .debug_str:000000000001fbac .LASF5399
C:\Users\CYMR90~1\AppData\Local\Temp\cciNYDRP.s:21392  .debug_str:0000000000002a2e .LASF5400
C:\Users\CYMR90~1\AppData\Local\Temp\cciNYDRP.s:29547  .debug_str:00000000000233ac .LASF5401
C:\Users\CYMR90~1\AppData\Local\Temp\cciNYDRP.s:21014  .debug_str:00000000000012cd .LASF5402
C:\Users\CYMR90~1\AppData\Local\Temp\cciNYDRP.s:30403  .debug_str:0000000000026bfd .LASF5403
C:\Users\CYMR90~1\AppData\Local\Temp\cciNYDRP.s:26202  .debug_str:0000000000015fbd .LASF5404
C:\Users\CYMR90~1\AppData\Local\Temp\cciNYDRP.s:21614  .debug_str:0000000000003896 .LASF5405
C:\Users\CYMR90~1\AppData\Local\Temp\cciNYDRP.s:23470  .debug_str:000000000000b015 .LASF5406
C:\Users\CYMR90~1\AppData\Local\Temp\cciNYDRP.s:29699  .debug_str:0000000000023cf6 .LASF5407
C:\Users\CYMR90~1\AppData\Local\Temp\cciNYDRP.s:22168  .debug_str:0000000000005be2 .LASF5408
C:\Users\CYMR90~1\AppData\Local\Temp\cciNYDRP.s:30555  .debug_str:00000000000275da .LASF5409
C:\Users\CYMR90~1\AppData\Local\Temp\cciNYDRP.s:22738  .debug_str:0000000000008183 .LASF5410
C:\Users\CYMR90~1\AppData\Local\Temp\cciNYDRP.s:31519  .debug_str:000000000002b25b .LASF5411
C:\Users\CYMR90~1\AppData\Local\Temp\cciNYDRP.s:28693  .debug_str:000000000002005b .LASF5412
C:\Users\CYMR90~1\AppData\Local\Temp\cciNYDRP.s:27019  .debug_str:000000000001954b .LASF5413
C:\Users\CYMR90~1\AppData\Local\Temp\cciNYDRP.s:20938  .debug_str:0000000000000e99 .LASF5414
C:\Users\CYMR90~1\AppData\Local\Temp\cciNYDRP.s:28529  .debug_str:000000000001f65c .LASF5415
C:\Users\CYMR90~1\AppData\Local\Temp\cciNYDRP.s:22116  .debug_str:00000000000058aa .LASF5416
C:\Users\CYMR90~1\AppData\Local\Temp\cciNYDRP.s:31489  .debug_str:000000000002b03b .LASF5417
C:\Users\CYMR90~1\AppData\Local\Temp\cciNYDRP.s:26266  .debug_str:000000000001638f .LASF5418
C:\Users\CYMR90~1\AppData\Local\Temp\cciNYDRP.s:26060  .debug_str:0000000000015697 .LASF5419
C:\Users\CYMR90~1\AppData\Local\Temp\cciNYDRP.s:27087  .debug_str:0000000000019a43 .LASF5420
C:\Users\CYMR90~1\AppData\Local\Temp\cciNYDRP.s:30305  .debug_str:0000000000026601 .LASF5421
C:\Users\CYMR90~1\AppData\Local\Temp\cciNYDRP.s:29863  .debug_str:00000000000248cc .LASF5422
C:\Users\CYMR90~1\AppData\Local\Temp\cciNYDRP.s:31467  .debug_str:000000000002aee6 .LASF5423
C:\Users\CYMR90~1\AppData\Local\Temp\cciNYDRP.s:21662  .debug_str:0000000000003ba2 .LASF5424
C:\Users\CYMR90~1\AppData\Local\Temp\cciNYDRP.s:28321  .debug_str:000000000001e9ec .LASF5425
C:\Users\CYMR90~1\AppData\Local\Temp\cciNYDRP.s:27601  .debug_str:000000000001bbaf .LASF5426
C:\Users\CYMR90~1\AppData\Local\Temp\cciNYDRP.s:25432  .debug_str:0000000000012f2c .LASF5427
C:\Users\CYMR90~1\AppData\Local\Temp\cciNYDRP.s:31225  .debug_str:000000000002a055 .LASF5428
C:\Users\CYMR90~1\AppData\Local\Temp\cciNYDRP.s:29101  .debug_str:00000000000219bc .LASF5429
C:\Users\CYMR90~1\AppData\Local\Temp\cciNYDRP.s:22256  .debug_str:0000000000006132 .LASF5430
C:\Users\CYMR90~1\AppData\Local\Temp\cciNYDRP.s:31869  .debug_str:000000000002ca0b .LASF5431
C:\Users\CYMR90~1\AppData\Local\Temp\cciNYDRP.s:30931  .debug_str:0000000000028e99 .LASF5432
C:\Users\CYMR90~1\AppData\Local\Temp\cciNYDRP.s:21492  .debug_str:0000000000003098 .LASF5433
C:\Users\CYMR90~1\AppData\Local\Temp\cciNYDRP.s:29055  .debug_str:0000000000021709 .LASF5434
C:\Users\CYMR90~1\AppData\Local\Temp\cciNYDRP.s:31835  .debug_str:000000000002c794 .LASF5435
C:\Users\CYMR90~1\AppData\Local\Temp\cciNYDRP.s:28299  .debug_str:000000000001e89d .LASF5436
C:\Users\CYMR90~1\AppData\Local\Temp\cciNYDRP.s:31181  .debug_str:0000000000029db7 .LASF5437
C:\Users\CYMR90~1\AppData\Local\Temp\cciNYDRP.s:26138  .debug_str:0000000000015b93 .LASF5438
C:\Users\CYMR90~1\AppData\Local\Temp\cciNYDRP.s:28227  .debug_str:000000000001e43e .LASF5439
C:\Users\CYMR90~1\AppData\Local\Temp\cciNYDRP.s:24538  .debug_str:000000000000f4a1 .LASF5440
C:\Users\CYMR90~1\AppData\Local\Temp\cciNYDRP.s:24526  .debug_str:000000000000f3f4 .LASF5441
C:\Users\CYMR90~1\AppData\Local\Temp\cciNYDRP.s:28599  .debug_str:000000000001fa9c .LASF5442
C:\Users\CYMR90~1\AppData\Local\Temp\cciNYDRP.s:30297  .debug_str:0000000000026587 .LASF5443
C:\Users\CYMR90~1\AppData\Local\Temp\cciNYDRP.s:21080  .debug_str:000000000000177a .LASF5444
C:\Users\CYMR90~1\AppData\Local\Temp\cciNYDRP.s:27271  .debug_str:000000000001a6ab .LASF5445
C:\Users\CYMR90~1\AppData\Local\Temp\cciNYDRP.s:20892  .debug_str:0000000000000b7b .LASF5446
C:\Users\CYMR90~1\AppData\Local\Temp\cciNYDRP.s:26581  .debug_str:00000000000179b4 .LASF5447
C:\Users\CYMR90~1\AppData\Local\Temp\cciNYDRP.s:21192  .debug_str:0000000000001dea .LASF5448
C:\Users\CYMR90~1\AppData\Local\Temp\cciNYDRP.s:26132  .debug_str:0000000000015ae6 .LASF5449
C:\Users\CYMR90~1\AppData\Local\Temp\cciNYDRP.s:24278  .debug_str:000000000000e4ce .LASF5450
C:\Users\CYMR90~1\AppData\Local\Temp\cciNYDRP.s:25016  .debug_str:000000000001131f .LASF5451
C:\Users\CYMR90~1\AppData\Local\Temp\cciNYDRP.s:23404  .debug_str:000000000000ab2b .LASF5452
C:\Users\CYMR90~1\AppData\Local\Temp\cciNYDRP.s:21710  .debug_str:0000000000003ec5 .LASF5453
C:\Users\CYMR90~1\AppData\Local\Temp\cciNYDRP.s:31577  .debug_str:000000000002b626 .LASF5454
C:\Users\CYMR90~1\AppData\Local\Temp\cciNYDRP.s:23228  .debug_str:000000000000a076 .LASF5455
C:\Users\CYMR90~1\AppData\Local\Temp\cciNYDRP.s:28841  .debug_str:00000000000209a1 .LASF5456
C:\Users\CYMR90~1\AppData\Local\Temp\cciNYDRP.s:29541  .debug_str:0000000000023356 .LASF5457
C:\Users\CYMR90~1\AppData\Local\Temp\cciNYDRP.s:31613  .debug_str:000000000002b8b6 .LASF5458
C:\Users\CYMR90~1\AppData\Local\Temp\cciNYDRP.s:20996  .debug_str:00000000000011d9 .LASF5459
C:\Users\CYMR90~1\AppData\Local\Temp\cciNYDRP.s:26417  .debug_str:0000000000016fb1 .LASF5460
C:\Users\CYMR90~1\AppData\Local\Temp\cciNYDRP.s:29171  .debug_str:0000000000021e17 .LASF5461
C:\Users\CYMR90~1\AppData\Local\Temp\cciNYDRP.s:28097  .debug_str:000000000001dc56 .LASF5462
C:\Users\CYMR90~1\AppData\Local\Temp\cciNYDRP.s:31417  .debug_str:000000000002abbc .LASF5463
C:\Users\CYMR90~1\AppData\Local\Temp\cciNYDRP.s:21162  .debug_str:0000000000001c2b .LASF5464
C:\Users\CYMR90~1\AppData\Local\Temp\cciNYDRP.s:27371  .debug_str:000000000001ad60 .LASF5465
C:\Users\CYMR90~1\AppData\Local\Temp\cciNYDRP.s:24152  .debug_str:000000000000dd50 .LASF5466
C:\Users\CYMR90~1\AppData\Local\Temp\cciNYDRP.s:25704  .debug_str:00000000000140bd .LASF5467
C:\Users\CYMR90~1\AppData\Local\Temp\cciNYDRP.s:30789  .debug_str:00000000000285ef .LASF5468
C:\Users\CYMR90~1\AppData\Local\Temp\cciNYDRP.s:31733  .debug_str:000000000002c0dd .LASF5469
C:\Users\CYMR90~1\AppData\Local\Temp\cciNYDRP.s:31001  .debug_str:00000000000292e0 .LASF5470
C:\Users\CYMR90~1\AppData\Local\Temp\cciNYDRP.s:26851  .debug_str:00000000000189c9 .LASF5471
C:\Users\CYMR90~1\AppData\Local\Temp\cciNYDRP.s:27821  .debug_str:000000000001c99d .LASF5472
C:\Users\CYMR90~1\AppData\Local\Temp\cciNYDRP.s:31013  .debug_str:0000000000029386 .LASF5473
C:\Users\CYMR90~1\AppData\Local\Temp\cciNYDRP.s:30477  .debug_str:0000000000027071 .LASF5474
C:\Users\CYMR90~1\AppData\Local\Temp\cciNYDRP.s:22930  .debug_str:0000000000008df8 .LASF5475
C:\Users\CYMR90~1\AppData\Local\Temp\cciNYDRP.s:28123  .debug_str:000000000001de19 .LASF5476
C:\Users\CYMR90~1\AppData\Local\Temp\cciNYDRP.s:31081  .debug_str:00000000000297cd .LASF5477
C:\Users\CYMR90~1\AppData\Local\Temp\cciNYDRP.s:25426  .debug_str:0000000000012ebc .LASF5478
C:\Users\CYMR90~1\AppData\Local\Temp\cciNYDRP.s:31543  .debug_str:000000000002b3fd .LASF5479
C:\Users\CYMR90~1\AppData\Local\Temp\cciNYDRP.s:26112  .debug_str:00000000000159ad .LASF5480
C:\Users\CYMR90~1\AppData\Local\Temp\cciNYDRP.s:31619  .debug_str:000000000002b907 .LASF5481
C:\Users\CYMR90~1\AppData\Local\Temp\cciNYDRP.s:30941  .debug_str:0000000000028f38 .LASF5482
C:\Users\CYMR90~1\AppData\Local\Temp\cciNYDRP.s:27503  .debug_str:000000000001b5dc .LASF5483
C:\Users\CYMR90~1\AppData\Local\Temp\cciNYDRP.s:25190  .debug_str:0000000000011f6d .LASF5484
C:\Users\CYMR90~1\AppData\Local\Temp\cciNYDRP.s:31983  .debug_str:000000000002d151 .LASF5485
C:\Users\CYMR90~1\AppData\Local\Temp\cciNYDRP.s:23496  .debug_str:000000000000b158 .LASF5486
C:\Users\CYMR90~1\AppData\Local\Temp\cciNYDRP.s:25104  .debug_str:00000000000119f9 .LASF5487
C:\Users\CYMR90~1\AppData\Local\Temp\cciNYDRP.s:23254  .debug_str:000000000000a220 .LASF5488
C:\Users\CYMR90~1\AppData\Local\Temp\cciNYDRP.s:24476  .debug_str:000000000000f0d9 .LASF5489
C:\Users\CYMR90~1\AppData\Local\Temp\cciNYDRP.s:29945  .debug_str:0000000000024dea .LASF5490
C:\Users\CYMR90~1\AppData\Local\Temp\cciNYDRP.s:25830  .debug_str:000000000001488f .LASF5491
C:\Users\CYMR90~1\AppData\Local\Temp\cciNYDRP.s:24078  .debug_str:000000000000d8d5 .LASF5492
C:\Users\CYMR90~1\AppData\Local\Temp\cciNYDRP.s:29041  .debug_str:0000000000021602 .LASF5493
C:\Users\CYMR90~1\AppData\Local\Temp\cciNYDRP.s:20992  .debug_str:000000000000119b .LASF5494
C:\Users\CYMR90~1\AppData\Local\Temp\cciNYDRP.s:23684  .debug_str:000000000000be98 .LASF5495
C:\Users\CYMR90~1\AppData\Local\Temp\cciNYDRP.s:22804  .debug_str:000000000000856f .LASF5496
C:\Users\CYMR90~1\AppData\Local\Temp\cciNYDRP.s:20708  .debug_str:0000000000000096 .LASF5497
C:\Users\CYMR90~1\AppData\Local\Temp\cciNYDRP.s:24024  .debug_str:000000000000d5e1 .LASF5498
C:\Users\CYMR90~1\AppData\Local\Temp\cciNYDRP.s:28333  .debug_str:000000000001ea7f .LASF5499
C:\Users\CYMR90~1\AppData\Local\Temp\cciNYDRP.s:28815  .debug_str:0000000000020813 .LASF5500
C:\Users\CYMR90~1\AppData\Local\Temp\cciNYDRP.s:30725  .debug_str:0000000000028125 .LASF5501
C:\Users\CYMR90~1\AppData\Local\Temp\cciNYDRP.s:29761  .debug_str:00000000000241b0 .LASF5502
C:\Users\CYMR90~1\AppData\Local\Temp\cciNYDRP.s:31639  .debug_str:000000000002ba81 .LASF5503
C:\Users\CYMR90~1\AppData\Local\Temp\cciNYDRP.s:22594  .debug_str:00000000000076d9 .LASF5504
C:\Users\CYMR90~1\AppData\Local\Temp\cciNYDRP.s:22442  .debug_str:0000000000006cdd .LASF5505
C:\Users\CYMR90~1\AppData\Local\Temp\cciNYDRP.s:31485  .debug_str:000000000002afed .LASF5506
C:\Users\CYMR90~1\AppData\Local\Temp\cciNYDRP.s:24358  .debug_str:000000000000e9fb .LASF5507
C:\Users\CYMR90~1\AppData\Local\Temp\cciNYDRP.s:22732  .debug_str:000000000000811d .LASF5508
C:\Users\CYMR90~1\AppData\Local\Temp\cciNYDRP.s:21398  .debug_str:0000000000002a89 .LASF5509
C:\Users\CYMR90~1\AppData\Local\Temp\cciNYDRP.s:28885  .debug_str:0000000000020c96 .LASF5510
C:\Users\CYMR90~1\AppData\Local\Temp\cciNYDRP.s:23252  .debug_str:000000000000a20a .LASF5511
C:\Users\CYMR90~1\AppData\Local\Temp\cciNYDRP.s:25826  .debug_str:0000000000014853 .LASF5512
C:\Users\CYMR90~1\AppData\Local\Temp\cciNYDRP.s:26901  .debug_str:0000000000018d8c .LASF5513
C:\Users\CYMR90~1\AppData\Local\Temp\cciNYDRP.s:30023  .debug_str:00000000000253ae .LASF5514
C:\Users\CYMR90~1\AppData\Local\Temp\cciNYDRP.s:22388  .debug_str:000000000000697b .LASF5515
C:\Users\CYMR90~1\AppData\Local\Temp\cciNYDRP.s:30805  .debug_str:000000000002872c .LASF5516
C:\Users\CYMR90~1\AppData\Local\Temp\cciNYDRP.s:25742  .debug_str:0000000000014321 .LASF5517
C:\Users\CYMR90~1\AppData\Local\Temp\cciNYDRP.s:29473  .debug_str:0000000000022f89 .LASF5518
C:\Users\CYMR90~1\AppData\Local\Temp\cciNYDRP.s:23746  .debug_str:000000000000c272 .LASF5519
C:\Users\CYMR90~1\AppData\Local\Temp\cciNYDRP.s:21164  .debug_str:0000000000001c55 .LASF5520
C:\Users\CYMR90~1\AppData\Local\Temp\cciNYDRP.s:28951  .debug_str:0000000000021020 .LASF5521
C:\Users\CYMR90~1\AppData\Local\Temp\cciNYDRP.s:30367  .debug_str:0000000000026a0a .LASF5522
C:\Users\CYMR90~1\AppData\Local\Temp\cciNYDRP.s:24802  .debug_str:000000000001056f .LASF5523
C:\Users\CYMR90~1\AppData\Local\Temp\cciNYDRP.s:25194  .debug_str:0000000000011fb1 .LASF5524
C:\Users\CYMR90~1\AppData\Local\Temp\cciNYDRP.s:31187  .debug_str:0000000000029df5 .LASF5525
C:\Users\CYMR90~1\AppData\Local\Temp\cciNYDRP.s:27157  .debug_str:0000000000019e4d .LASF5526
C:\Users\CYMR90~1\AppData\Local\Temp\cciNYDRP.s:21304  .debug_str:0000000000002416 .LASF5527
C:\Users\CYMR90~1\AppData\Local\Temp\cciNYDRP.s:22082  .debug_str:000000000000567a .LASF5528
C:\Users\CYMR90~1\AppData\Local\Temp\cciNYDRP.s:25962  .debug_str:0000000000015104 .LASF5529
C:\Users\CYMR90~1\AppData\Local\Temp\cciNYDRP.s:23084  .debug_str:0000000000009761 .LASF5530
C:\Users\CYMR90~1\AppData\Local\Temp\cciNYDRP.s:23378  .debug_str:000000000000a993 .LASF5531
C:\Users\CYMR90~1\AppData\Local\Temp\cciNYDRP.s:29803  .debug_str:000000000002447e .LASF5532
C:\Users\CYMR90~1\AppData\Local\Temp\cciNYDRP.s:25360  .debug_str:0000000000012aa9 .LASF5533
C:\Users\CYMR90~1\AppData\Local\Temp\cciNYDRP.s:23036  .debug_str:000000000000945f .LASF5534
C:\Users\CYMR90~1\AppData\Local\Temp\cciNYDRP.s:30169  .debug_str:0000000000025db0 .LASF5535
C:\Users\CYMR90~1\AppData\Local\Temp\cciNYDRP.s:29971  .debug_str:0000000000024f6b .LASF5536
C:\Users\CYMR90~1\AppData\Local\Temp\cciNYDRP.s:25898  .debug_str:0000000000014cd1 .LASF5537
C:\Users\CYMR90~1\AppData\Local\Temp\cciNYDRP.s:29089  .debug_str:00000000000218de .LASF5538
C:\Users\CYMR90~1\AppData\Local\Temp\cciNYDRP.s:29731  .debug_str:0000000000023ec2 .LASF5539
C:\Users\CYMR90~1\AppData\Local\Temp\cciNYDRP.s:29885  .debug_str:0000000000024a17 .LASF5540
C:\Users\CYMR90~1\AppData\Local\Temp\cciNYDRP.s:21928  .debug_str:0000000000004d67 .LASF5541
C:\Users\CYMR90~1\AppData\Local\Temp\cciNYDRP.s:24696  .debug_str:000000000000ff0f .LASF5542
C:\Users\CYMR90~1\AppData\Local\Temp\cciNYDRP.s:29683  .debug_str:0000000000023c1b .LASF5543
C:\Users\CYMR90~1\AppData\Local\Temp\cciNYDRP.s:31783  .debug_str:000000000002c497 .LASF5544
C:\Users\CYMR90~1\AppData\Local\Temp\cciNYDRP.s:31205  .debug_str:0000000000029ef4 .LASF5545
C:\Users\CYMR90~1\AppData\Local\Temp\cciNYDRP.s:29935  .debug_str:0000000000024d55 .LASF5546
C:\Users\CYMR90~1\AppData\Local\Temp\cciNYDRP.s:23044  .debug_str:00000000000094bf .LASF5547
C:\Users\CYMR90~1\AppData\Local\Temp\cciNYDRP.s:23964  .debug_str:000000000000d1ab .LASF5548
C:\Users\CYMR90~1\AppData\Local\Temp\cciNYDRP.s:24442  .debug_str:000000000000eeba .LASF5549
C:\Users\CYMR90~1\AppData\Local\Temp\cciNYDRP.s:30253  .debug_str:00000000000262ad .LASF5550
C:\Users\CYMR90~1\AppData\Local\Temp\cciNYDRP.s:28069  .debug_str:000000000001da26 .LASF5551
C:\Users\CYMR90~1\AppData\Local\Temp\cciNYDRP.s:29667  .debug_str:0000000000023b2b .LASF5552
C:\Users\CYMR90~1\AppData\Local\Temp\cciNYDRP.s:21980  .debug_str:000000000000506f .LASF5553
C:\Users\CYMR90~1\AppData\Local\Temp\cciNYDRP.s:27569  .debug_str:000000000001b99c .LASF5554
C:\Users\CYMR90~1\AppData\Local\Temp\cciNYDRP.s:23576  .debug_str:000000000000b6f5 .LASF5555
                           .group:0000000000000000 wm4.0.10abbef32179bc1260444192115bdf5e
                           .group:0000000000000000 wm4.stddef.h.39.144cf5ddcd53cbfdac30259dc1a6c87f
                           .group:0000000000000000 wm4._newlib_version.h.4.bfdf54b0af045d4a71376ae00f63a22c
                           .group:0000000000000000 wm4.newlib.h.18.08a2ecba46890ca2aa56bbe21686e6c3
                           .group:0000000000000000 wm4.ieeefp.h.202.4f2759f5758fd82153cfbf98692f2ced
                           .group:0000000000000000 wm4.features.h.22.fad1cec3bc7ff06488171438dbdcfd02
                           .group:0000000000000000 wm4.config.h.83.13bbc8852bfac55b724c9822481355b5
                           .group:0000000000000000 wm4._ansi.h.31.de524f58584151836e90d8620a16f8e8
                           .group:0000000000000000 wm4.stdio.h.31.7c0e28c411445f3f9c5b11accf882760
                           .group:0000000000000000 wm4._default_types.h.6.959254cf5f09734ea7516c89e8bb21bd
                           .group:0000000000000000 wm4.stddef.h.155.ba788add86a0e365f264484f110c3c29
                           .group:0000000000000000 wm4.cdefs.h.49.39045112216f6a021dbdffe3bf5accce
                           .group:0000000000000000 wm4.stdarg.h.34.3a23a216c0c293b3d2ea2e89281481e6
                           .group:0000000000000000 wm4._types.h.20.dd0d04dca3800a0d2a6129b87f3adbb2
                           .group:0000000000000000 wm4.stddef.h.155.3588ebfdd1e8c7ede80509bb9c3b8009
                           .group:0000000000000000 wm4._types.h.127.34941de1b2539d59d5cac00e0dd27a45
                           .group:0000000000000000 wm4.reent.h.17.e292bf8b0bec6c96e131a54347145a30
                           .group:0000000000000000 wm4.lock.h.2.c0958401bd0ce484d507ee19aacab817
                           .group:0000000000000000 wm4.reent.h.77.dcd6129ff07fe81bd5636db29abe53b2
                           .group:0000000000000000 wm4.types.h.40.8b6acba56cefbb11746718204edc8f5e
                           .group:0000000000000000 wm4._stdint.h.10.c24fa3af3bc1706662bb5593a907e841
                           .group:0000000000000000 wm4._endian.h.18.1bf9649e8e5bbc91042012680270b9ed
                           .group:0000000000000000 wm4.endian.h.9.49f3a4695c1b61e8a0808de3c4a106cb
                           .group:0000000000000000 wm4._timeval.h.32.bec3221fa7a9bb0bdde696c9c57e47d2
                           .group:0000000000000000 wm4.timespec.h.41.d855182eb0e690443ab8651bcedca6e1
                           .group:0000000000000000 wm4.select.h.19.40cd3f2bfc456b193b790c2754690ebf
                           .group:0000000000000000 wm4.types.h.51.5571ec98f267d17d3c670b7a3ba33afa
                           .group:0000000000000000 wm4.sched.h.22.c60982713a5c428609783c78f9c78d95
                           .group:0000000000000000 wm4._pthreadtypes.h.36.fcee9961c35163dde6267ef772ad1972
                           .group:0000000000000000 wm4.stdio.h.2.4aa87247282eca6c8f36f9de33d8df1a
                           .group:0000000000000000 wm4.stdio.h.81.932d0c162786b883f622b8d05c120c78
                           .group:0000000000000000 wm4.gd32vw55x.h.47.379378190858578060a317909b2c8d8a
                           .group:0000000000000000 wm4._intsup.h.10.48bafbb683905c4daa4565a85aeeb264
                           .group:0000000000000000 wm4.stdint.h.23.d53047a68f4a85177f80b422d52785ed
                           .group:0000000000000000 wm4.nmsis_version.h.19.ffa173da8efb17b1050904994d6f500e
                           .group:0000000000000000 wm4.riscv_bits.h.19.ee94eb3d39937793d4cd0a62363e5d00
                           .group:0000000000000000 wm4.riscv_encoding.h.35.f5d37fad7abbab8278b4bb6f1e32fa65
                           .group:0000000000000000 wm4.nmsis_gcc.h.61.5d70d7598ffc79c3c991d847a574cf23
                           .group:0000000000000000 wm4.core_feature_base.h.20.e99d3e75c26a8f3341d35bf20d0e1d20
                           .group:0000000000000000 wm4.core_feature_fpu.h.19.695f2200274659b530cb97cda749ff4f
                           .group:0000000000000000 wm4.core_feature_dsp.h.19.e8f8d7aa42f197807aefedb6584486cd
                           .group:0000000000000000 wm4.core_compatiable.h.19.5b8282d61b1f6889a82895616b730084
                           .group:0000000000000000 wm4.core_feature_eclic.h.19.e0c091d0cbda79e8b3b031b979ebd5a1
                           .group:0000000000000000 wm4.core_feature_timer.h.19.21a5151282de34c37dfa6d84e262aa54
                           .group:0000000000000000 wm4.system_gd32vw55x.h.32.f1fcb1212d387c35ac955b0e96ada468
                           .group:0000000000000000 wm4.gd32vw55x.h.231.3529c650aff38c9372f7e03177fd2c8a
                           .group:0000000000000000 wm4.gd32vw55x_adc.h.42.ae73acec1704ef509ccecb41a875b50e
                           .group:0000000000000000 wm4.gd32vw55x_cau.h.36.c98428fe1eae7edb4721da5c8078c974
                           .group:0000000000000000 wm4.gd32vw55x_crc.h.37.c58f296814c2300a4b067c08bd88d54e
                           .group:0000000000000000 wm4.gd32vw55x_dbg.h.36.311650c8545549d482ceca8befc5a232
                           .group:0000000000000000 wm4.gd32vw55x_dma.h.36.f4adc751172b2a7b1533dda72e948737
                           .group:0000000000000000 wm4.gd32vw55x_eclic.h.36.0411499f2b2493c67246e32ccae096c1
                           .group:0000000000000000 wm4.gd32vw55x_exti.h.36.de7508334dd12f1a6a673521a1a835f5
                           .group:0000000000000000 wm4.gd32vw55x_fmc.h.36.a4b0b94c47ffe23a2fa09260c5ed4850
                           .group:0000000000000000 wm4.gd32vw55x_fwdgt.h.36.4846b6900fd24b5bfce4986c9a8ce677
                           .group:0000000000000000 wm4.gd32vw55x_gpio.h.36.adfee1371bb58d3d9043c47bdb25a90f
                           .group:0000000000000000 wm4.gd32vw55x_hau.h.36.f3cbcbd7b67c9e5bdc7a1100b1bf3458
                           .group:0000000000000000 wm4.gd32vw55x_i2c.h.36.3848990933925e084eb427083790c53f
                           .group:0000000000000000 wm4.gd32vw55x_pkcau.h.36.bb2235f4cf4967063a51bfa9aca5ef27
                           .group:0000000000000000 wm4.gd32vw55x_pmu.h.36.4c76091f1415551526d489ccf2c42052
                           .group:0000000000000000 wm4.gd32vw55x_qspi.h.36.2d2c181cfe19b935a9641008fc786613
                           .group:0000000000000000 wm4.gd32vw55x_rcu.h.36.780a8a45c00d563711cceb445027ef47
                           .group:0000000000000000 wm4.gd32vw55x_rtc.h.36.3172855e8715659e080e0eab46fdf175
                           .group:0000000000000000 wm4.gd32vw55x_spi.h.36.9fa1be2b09fb73e4b5886e97f0e96d58
                           .group:0000000000000000 wm4.gd32vw55x_syscfg.h.36.010551f05591f5e34051d2e15df0352b
                           .group:0000000000000000 wm4.gd32vw55x_timer.h.38.2cbee78ea60d47145be361b2d2c55070
                           .group:0000000000000000 wm4.gd32vw55x_trng.h.36.c9e7807af1b1ab68d3bbb54f4ed5cd73
                           .group:0000000000000000 wm4.gd32vw55x_usart.h.36.f5c497cca17945a34f154b0e17017d02
                           .group:0000000000000000 wm4.gd32vw55x_wwdgt.h.36.f7a443b7302efc0e5c335888582ee197
                           .group:0000000000000000 wm4.gd32vw55x_efuse.h.41.4dfdfc685d2a35572715c141be145773

NO UNDEFINED SYMBOLS
