   1              		.file	"gd32vw55x_cau_aes.c"
   2              		.option nopic
   3              		.attribute arch, "rv32i2p0_m2p0_a2p0_c2p0"
   4              		.attribute unaligned_access, 0
   5              		.attribute stack_align, 16
   6              		.text
   7              	.Ltext0:
   8              		.cfi_sections	.debug_frame
   9              		.section	.text.cau_aes_ecb,"ax",@progbits
  10              		.align	1
  11              		.globl	cau_aes_ecb
  13              	cau_aes_ecb:
  14              	.LFB348:
  15              		.file 1 "../Firmware/GD32VW55x_standard_peripheral/Source/gd32vw55x_cau_aes.c"
   1:../Firmware/GD32VW55x_standard_peripheral/Source/gd32vw55x_cau_aes.c **** /*!
   2:../Firmware/GD32VW55x_standard_peripheral/Source/gd32vw55x_cau_aes.c ****     \file    gd32vw55x_cau_aes.c
   3:../Firmware/GD32VW55x_standard_peripheral/Source/gd32vw55x_cau_aes.c ****     \brief   CAU AES driver
   4:../Firmware/GD32VW55x_standard_peripheral/Source/gd32vw55x_cau_aes.c **** 
   5:../Firmware/GD32VW55x_standard_peripheral/Source/gd32vw55x_cau_aes.c ****     \version 2025-01-16, V1.4.0, firmware for GD32VW55x
   6:../Firmware/GD32VW55x_standard_peripheral/Source/gd32vw55x_cau_aes.c **** */
   7:../Firmware/GD32VW55x_standard_peripheral/Source/gd32vw55x_cau_aes.c **** 
   8:../Firmware/GD32VW55x_standard_peripheral/Source/gd32vw55x_cau_aes.c **** /*
   9:../Firmware/GD32VW55x_standard_peripheral/Source/gd32vw55x_cau_aes.c ****     Copyright (c) 2025, GigaDevice Semiconductor Inc.
  10:../Firmware/GD32VW55x_standard_peripheral/Source/gd32vw55x_cau_aes.c **** 
  11:../Firmware/GD32VW55x_standard_peripheral/Source/gd32vw55x_cau_aes.c ****     Redistribution and use in source and binary forms, with or without modification,
  12:../Firmware/GD32VW55x_standard_peripheral/Source/gd32vw55x_cau_aes.c **** are permitted provided that the following conditions are met:
  13:../Firmware/GD32VW55x_standard_peripheral/Source/gd32vw55x_cau_aes.c **** 
  14:../Firmware/GD32VW55x_standard_peripheral/Source/gd32vw55x_cau_aes.c ****     1. Redistributions of source code must retain the above copyright notice, this
  15:../Firmware/GD32VW55x_standard_peripheral/Source/gd32vw55x_cau_aes.c ****        list of conditions and the following disclaimer.
  16:../Firmware/GD32VW55x_standard_peripheral/Source/gd32vw55x_cau_aes.c ****     2. Redistributions in binary form must reproduce the above copyright notice,
  17:../Firmware/GD32VW55x_standard_peripheral/Source/gd32vw55x_cau_aes.c ****        this list of conditions and the following disclaimer in the documentation
  18:../Firmware/GD32VW55x_standard_peripheral/Source/gd32vw55x_cau_aes.c ****        and/or other materials provided with the distribution.
  19:../Firmware/GD32VW55x_standard_peripheral/Source/gd32vw55x_cau_aes.c ****     3. Neither the name of the copyright holder nor the names of its contributors
  20:../Firmware/GD32VW55x_standard_peripheral/Source/gd32vw55x_cau_aes.c ****        may be used to endorse or promote products derived from this software without
  21:../Firmware/GD32VW55x_standard_peripheral/Source/gd32vw55x_cau_aes.c ****        specific prior written permission.
  22:../Firmware/GD32VW55x_standard_peripheral/Source/gd32vw55x_cau_aes.c **** 
  23:../Firmware/GD32VW55x_standard_peripheral/Source/gd32vw55x_cau_aes.c ****     THIS SOFTWARE IS PROVIDED BY THE COPYRIGHT HOLDERS AND CONTRIBUTORS "AS IS"
  24:../Firmware/GD32VW55x_standard_peripheral/Source/gd32vw55x_cau_aes.c **** AND ANY EXPRESS OR IMPLIED WARRANTIES, INCLUDING, BUT NOT LIMITED TO, THE IMPLIED
  25:../Firmware/GD32VW55x_standard_peripheral/Source/gd32vw55x_cau_aes.c **** WARRANTIES OF MERCHANTABILITY AND FITNESS FOR A PARTICULAR PURPOSE ARE DISCLAIMED.
  26:../Firmware/GD32VW55x_standard_peripheral/Source/gd32vw55x_cau_aes.c **** IN NO EVENT SHALL THE COPYRIGHT HOLDER OR CONTRIBUTORS BE LIABLE FOR ANY DIRECT,
  27:../Firmware/GD32VW55x_standard_peripheral/Source/gd32vw55x_cau_aes.c **** INDIRECT, INCIDENTAL, SPECIAL, EXEMPLARY, OR CONSEQUENTIAL DAMAGES (INCLUDING, BUT
  28:../Firmware/GD32VW55x_standard_peripheral/Source/gd32vw55x_cau_aes.c **** NOT LIMITED TO, PROCUREMENT OF SUBSTITUTE GOODS OR SERVICES; LOSS OF USE, DATA, OR
  29:../Firmware/GD32VW55x_standard_peripheral/Source/gd32vw55x_cau_aes.c **** PROFITS; OR BUSINESS INTERRUPTION) HOWEVER CAUSED AND ON ANY THEORY OF LIABILITY,
  30:../Firmware/GD32VW55x_standard_peripheral/Source/gd32vw55x_cau_aes.c **** WHETHER IN CONTRACT, STRICT LIABILITY, OR TORT (INCLUDING NEGLIGENCE OR OTHERWISE)
  31:../Firmware/GD32VW55x_standard_peripheral/Source/gd32vw55x_cau_aes.c **** ARISING IN ANY WAY OUT OF THE USE OF THIS SOFTWARE, EVEN IF ADVISED OF THE POSSIBILITY
  32:../Firmware/GD32VW55x_standard_peripheral/Source/gd32vw55x_cau_aes.c **** OF SUCH DAMAGE.
  33:../Firmware/GD32VW55x_standard_peripheral/Source/gd32vw55x_cau_aes.c **** */
  34:../Firmware/GD32VW55x_standard_peripheral/Source/gd32vw55x_cau_aes.c **** 
  35:../Firmware/GD32VW55x_standard_peripheral/Source/gd32vw55x_cau_aes.c **** #include "gd32vw55x_cau.h"
  36:../Firmware/GD32VW55x_standard_peripheral/Source/gd32vw55x_cau_aes.c **** #include <string.h>
  37:../Firmware/GD32VW55x_standard_peripheral/Source/gd32vw55x_cau_aes.c **** 
  38:../Firmware/GD32VW55x_standard_peripheral/Source/gd32vw55x_cau_aes.c **** #define AESBSY_TIMEOUT    ((uint32_t)0x00010000U)
  39:../Firmware/GD32VW55x_standard_peripheral/Source/gd32vw55x_cau_aes.c **** #define BLOCK_B0_MASK     ((uint8_t)0x07U)
  40:../Firmware/GD32VW55x_standard_peripheral/Source/gd32vw55x_cau_aes.c **** #define BLOCK_DATA_SIZE   ((uint32_t)0x00000010U)
  41:../Firmware/GD32VW55x_standard_peripheral/Source/gd32vw55x_cau_aes.c **** #define MIN_CCM_IV_SIZE   ((uint32_t)0x00000007U)
  42:../Firmware/GD32VW55x_standard_peripheral/Source/gd32vw55x_cau_aes.c **** #define MAX_CCM_IV_SIZE   ((uint32_t)0x0000000DU)
  43:../Firmware/GD32VW55x_standard_peripheral/Source/gd32vw55x_cau_aes.c **** 
  44:../Firmware/GD32VW55x_standard_peripheral/Source/gd32vw55x_cau_aes.c **** /* configure AES key structure parameter */
  45:../Firmware/GD32VW55x_standard_peripheral/Source/gd32vw55x_cau_aes.c **** static void cau_aes_key_config(uint8_t *key, uint32_t keysize, cau_key_parameter_struct *cau_key_in
  46:../Firmware/GD32VW55x_standard_peripheral/Source/gd32vw55x_cau_aes.c **** /* fill data into data input register */
  47:../Firmware/GD32VW55x_standard_peripheral/Source/gd32vw55x_cau_aes.c **** static ErrStatus cau_fill_data(uint8_t *input, uint32_t in_length);
  48:../Firmware/GD32VW55x_standard_peripheral/Source/gd32vw55x_cau_aes.c **** /* AES calculate process */
  49:../Firmware/GD32VW55x_standard_peripheral/Source/gd32vw55x_cau_aes.c **** static ErrStatus cau_aes_calculate(uint8_t *input, uint32_t in_length, uint8_t *output);
  50:../Firmware/GD32VW55x_standard_peripheral/Source/gd32vw55x_cau_aes.c **** 
  51:../Firmware/GD32VW55x_standard_peripheral/Source/gd32vw55x_cau_aes.c **** /*!
  52:../Firmware/GD32VW55x_standard_peripheral/Source/gd32vw55x_cau_aes.c ****     \brief      encrypt and decrypt using AES in ECB mode
  53:../Firmware/GD32VW55x_standard_peripheral/Source/gd32vw55x_cau_aes.c ****     \param[in]  cau_parameter: pointer to the input structure
  54:../Firmware/GD32VW55x_standard_peripheral/Source/gd32vw55x_cau_aes.c ****                   alg_dir: algorithm direction
  55:../Firmware/GD32VW55x_standard_peripheral/Source/gd32vw55x_cau_aes.c ****                     CAU_ENCRYPT, CAU_DECRYPT
  56:../Firmware/GD32VW55x_standard_peripheral/Source/gd32vw55x_cau_aes.c ****                   key: key (in bytes)
  57:../Firmware/GD32VW55x_standard_peripheral/Source/gd32vw55x_cau_aes.c ****                   key_size: key size in bits, must be either 128, 192 or 256
  58:../Firmware/GD32VW55x_standard_peripheral/Source/gd32vw55x_cau_aes.c ****                   input: input data (in bytes)
  59:../Firmware/GD32VW55x_standard_peripheral/Source/gd32vw55x_cau_aes.c ****                   in_length: input data length in bytes, must be a multiple of 16 bytes
  60:../Firmware/GD32VW55x_standard_peripheral/Source/gd32vw55x_cau_aes.c ****     \param[out] output: pointer to the returned buffer
  61:../Firmware/GD32VW55x_standard_peripheral/Source/gd32vw55x_cau_aes.c ****     \retval     ErrStatus: SUCCESS or ERROR
  62:../Firmware/GD32VW55x_standard_peripheral/Source/gd32vw55x_cau_aes.c **** */
  63:../Firmware/GD32VW55x_standard_peripheral/Source/gd32vw55x_cau_aes.c **** ErrStatus cau_aes_ecb(cau_parameter_struct *cau_parameter, uint8_t *output)
  64:../Firmware/GD32VW55x_standard_peripheral/Source/gd32vw55x_cau_aes.c **** {
  16              		.loc 1 64 1
  17              		.cfi_startproc
  18 0000 5D71     		addi	sp,sp,-80
  19              		.cfi_def_cfa_offset 80
  20 0002 86C6     		sw	ra,76(sp)
  21 0004 A2C4     		sw	s0,72(sp)
  22              		.cfi_offset 1, -4
  23              		.cfi_offset 8, -8
  24 0006 8008     		addi	s0,sp,80
  25              		.cfi_def_cfa 8, 0
  26 0008 232EA4FA 		sw	a0,-68(s0)
  27 000c 232CB4FA 		sw	a1,-72(s0)
  65:../Firmware/GD32VW55x_standard_peripheral/Source/gd32vw55x_cau_aes.c ****     ErrStatus ret = ERROR;
  28              		.loc 1 65 15
  29 0010 232604FE 		sw	zero,-20(s0)
  66:../Firmware/GD32VW55x_standard_peripheral/Source/gd32vw55x_cau_aes.c ****     cau_key_parameter_struct key_initpara;
  67:../Firmware/GD32VW55x_standard_peripheral/Source/gd32vw55x_cau_aes.c ****     __IO uint32_t counter = 0U;
  30              		.loc 1 67 19
  31 0014 232204FC 		sw	zero,-60(s0)
  68:../Firmware/GD32VW55x_standard_peripheral/Source/gd32vw55x_cau_aes.c ****     uint32_t busystatus = 0U;
  32              		.loc 1 68 14
  33 0018 232404FE 		sw	zero,-24(s0)
  69:../Firmware/GD32VW55x_standard_peripheral/Source/gd32vw55x_cau_aes.c **** 
  70:../Firmware/GD32VW55x_standard_peripheral/Source/gd32vw55x_cau_aes.c ****     /* key structure initialization */
  71:../Firmware/GD32VW55x_standard_peripheral/Source/gd32vw55x_cau_aes.c ****     cau_key_struct_para_init(&key_initpara);
  34              		.loc 1 71 5
  35 001c 930784FC 		addi	a5,s0,-56
  36 0020 3E85     		mv	a0,a5
  37 0022 97000000 		call	cau_key_struct_para_init
  37      E7800000 
  72:../Firmware/GD32VW55x_standard_peripheral/Source/gd32vw55x_cau_aes.c ****     /* AES key structure parameter config */
  73:../Firmware/GD32VW55x_standard_peripheral/Source/gd32vw55x_cau_aes.c ****     cau_aes_key_config(cau_parameter->key, cau_parameter->key_size, &key_initpara);
  38              		.loc 1 73 5
  39 002a 8327C4FB 		lw	a5,-68(s0)
  40 002e D843     		lw	a4,4(a5)
  41 0030 8327C4FB 		lw	a5,-68(s0)
  42 0034 9C47     		lw	a5,8(a5)
  43 0036 930684FC 		addi	a3,s0,-56
  44 003a 3686     		mv	a2,a3
  45 003c BE85     		mv	a1,a5
  46 003e 3A85     		mv	a0,a4
  47 0040 97000000 		call	cau_aes_key_config
  47      E7800000 
  74:../Firmware/GD32VW55x_standard_peripheral/Source/gd32vw55x_cau_aes.c ****     /* key initialization */
  75:../Firmware/GD32VW55x_standard_peripheral/Source/gd32vw55x_cau_aes.c ****     cau_key_init(&key_initpara);
  48              		.loc 1 75 5
  49 0048 930784FC 		addi	a5,s0,-56
  50 004c 3E85     		mv	a0,a5
  51 004e 97000000 		call	cau_key_init
  51      E7800000 
  76:../Firmware/GD32VW55x_standard_peripheral/Source/gd32vw55x_cau_aes.c **** 
  77:../Firmware/GD32VW55x_standard_peripheral/Source/gd32vw55x_cau_aes.c ****     /* AES decryption */
  78:../Firmware/GD32VW55x_standard_peripheral/Source/gd32vw55x_cau_aes.c ****     if(CAU_DECRYPT == cau_parameter->alg_dir) {
  52              		.loc 1 78 36
  53 0056 8327C4FB 		lw	a5,-68(s0)
  54 005a 9843     		lw	a4,0(a5)
  55              		.loc 1 78 7
  56 005c 9147     		li	a5,4
  57 005e 631BF704 		bne	a4,a5,.L2
  79:../Firmware/GD32VW55x_standard_peripheral/Source/gd32vw55x_cau_aes.c ****         /* flush the IN and OUT FIFOs */
  80:../Firmware/GD32VW55x_standard_peripheral/Source/gd32vw55x_cau_aes.c ****         cau_fifo_flush();
  58              		.loc 1 80 9
  59 0062 97000000 		call	cau_fifo_flush
  59      E7800000 
  81:../Firmware/GD32VW55x_standard_peripheral/Source/gd32vw55x_cau_aes.c ****         /* initialize the CAU peripheral */
  82:../Firmware/GD32VW55x_standard_peripheral/Source/gd32vw55x_cau_aes.c ****         cau_init(CAU_DECRYPT, CAU_MODE_AES_KEY, CAU_SWAPPING_32BIT);
  60              		.loc 1 82 9
  61 006a 0146     		li	a2,0
  62 006c 93058003 		li	a1,56
  63 0070 1145     		li	a0,4
  64 0072 97000000 		call	cau_init
  64      E7800000 
  83:../Firmware/GD32VW55x_standard_peripheral/Source/gd32vw55x_cau_aes.c **** 
  84:../Firmware/GD32VW55x_standard_peripheral/Source/gd32vw55x_cau_aes.c ****         /* enable the CAU peripheral */
  85:../Firmware/GD32VW55x_standard_peripheral/Source/gd32vw55x_cau_aes.c ****         cau_enable();
  65              		.loc 1 85 9
  66 007a 97000000 		call	cau_enable
  66      E7800000 
  67              	.L4:
  86:../Firmware/GD32VW55x_standard_peripheral/Source/gd32vw55x_cau_aes.c **** 
  87:../Firmware/GD32VW55x_standard_peripheral/Source/gd32vw55x_cau_aes.c ****         /* wait until the busy flag is RESET */
  88:../Firmware/GD32VW55x_standard_peripheral/Source/gd32vw55x_cau_aes.c ****         do {
  89:../Firmware/GD32VW55x_standard_peripheral/Source/gd32vw55x_cau_aes.c ****             busystatus = cau_flag_get(CAU_FLAG_BUSY);
  68              		.loc 1 89 26 discriminator 2
  69 0082 4145     		li	a0,16
  70 0084 97000000 		call	cau_flag_get
  70      E7800000 
  71 008c 2324A4FE 		sw	a0,-24(s0)
  90:../Firmware/GD32VW55x_standard_peripheral/Source/gd32vw55x_cau_aes.c ****             counter++;
  72              		.loc 1 90 20 discriminator 2
  73 0090 832744FC 		lw	a5,-60(s0)
  74 0094 8507     		addi	a5,a5,1
  75 0096 2322F4FC 		sw	a5,-60(s0)
  91:../Firmware/GD32VW55x_standard_peripheral/Source/gd32vw55x_cau_aes.c ****         } while((AESBSY_TIMEOUT != counter) && (RESET != busystatus));
  76              		.loc 1 91 33 discriminator 2
  77 009a 032744FC 		lw	a4,-60(s0)
  78              		.loc 1 91 9 discriminator 2
  79 009e C167     		li	a5,65536
  80 00a0 6305F700 		beq	a4,a5,.L3
  81              		.loc 1 91 45 discriminator 1
  82 00a4 832784FE 		lw	a5,-24(s0)
  83 00a8 E9FF     		bne	a5,zero,.L4
  84              	.L3:
  92:../Firmware/GD32VW55x_standard_peripheral/Source/gd32vw55x_cau_aes.c **** 
  93:../Firmware/GD32VW55x_standard_peripheral/Source/gd32vw55x_cau_aes.c ****         if(RESET != busystatus) {
  85              		.loc 1 93 11
  86 00aa 832784FE 		lw	a5,-24(s0)
  87 00ae 99C3     		beq	a5,zero,.L2
  94:../Firmware/GD32VW55x_standard_peripheral/Source/gd32vw55x_cau_aes.c ****             return ERROR;
  88              		.loc 1 94 20
  89 00b0 8147     		li	a5,0
  90 00b2 99A8     		j	.L6
  91              	.L2:
  95:../Firmware/GD32VW55x_standard_peripheral/Source/gd32vw55x_cau_aes.c ****         }
  96:../Firmware/GD32VW55x_standard_peripheral/Source/gd32vw55x_cau_aes.c ****     }
  97:../Firmware/GD32VW55x_standard_peripheral/Source/gd32vw55x_cau_aes.c **** 
  98:../Firmware/GD32VW55x_standard_peripheral/Source/gd32vw55x_cau_aes.c ****     /* initialize the CAU peripheral */
  99:../Firmware/GD32VW55x_standard_peripheral/Source/gd32vw55x_cau_aes.c ****     cau_init(cau_parameter->alg_dir, CAU_MODE_AES_ECB, CAU_SWAPPING_8BIT);
  92              		.loc 1 99 5
  93 00b4 8327C4FB 		lw	a5,-68(s0)
  94 00b8 9C43     		lw	a5,0(a5)
  95 00ba 13060008 		li	a2,128
  96 00be 93050002 		li	a1,32
  97 00c2 3E85     		mv	a0,a5
  98 00c4 97000000 		call	cau_init
  98      E7800000 
 100:../Firmware/GD32VW55x_standard_peripheral/Source/gd32vw55x_cau_aes.c **** 
 101:../Firmware/GD32VW55x_standard_peripheral/Source/gd32vw55x_cau_aes.c ****     /* flush the IN and OUT FIFOs */
 102:../Firmware/GD32VW55x_standard_peripheral/Source/gd32vw55x_cau_aes.c ****     cau_fifo_flush();
  99              		.loc 1 102 5
 100 00cc 97000000 		call	cau_fifo_flush
 100      E7800000 
 103:../Firmware/GD32VW55x_standard_peripheral/Source/gd32vw55x_cau_aes.c **** 
 104:../Firmware/GD32VW55x_standard_peripheral/Source/gd32vw55x_cau_aes.c ****     /* enable the CAU peripheral */
 105:../Firmware/GD32VW55x_standard_peripheral/Source/gd32vw55x_cau_aes.c ****     cau_enable();
 101              		.loc 1 105 5
 102 00d4 97000000 		call	cau_enable
 102      E7800000 
 106:../Firmware/GD32VW55x_standard_peripheral/Source/gd32vw55x_cau_aes.c ****     /* AES calculate process */
 107:../Firmware/GD32VW55x_standard_peripheral/Source/gd32vw55x_cau_aes.c ****     ret = cau_aes_calculate(cau_parameter->input, cau_parameter->in_length, output);
 103              		.loc 1 107 11
 104 00dc 8327C4FB 		lw	a5,-68(s0)
 105 00e0 D84B     		lw	a4,20(a5)
 106 00e2 8327C4FB 		lw	a5,-68(s0)
 107 00e6 9C4F     		lw	a5,24(a5)
 108 00e8 032684FB 		lw	a2,-72(s0)
 109 00ec BE85     		mv	a1,a5
 110 00ee 3A85     		mv	a0,a4
 111 00f0 97000000 		call	cau_aes_calculate
 111      E7800000 
 112 00f8 2326A4FE 		sw	a0,-20(s0)
 108:../Firmware/GD32VW55x_standard_peripheral/Source/gd32vw55x_cau_aes.c ****     /* disable the CAU peripheral */
 109:../Firmware/GD32VW55x_standard_peripheral/Source/gd32vw55x_cau_aes.c ****     cau_disable();
 113              		.loc 1 109 5
 114 00fc 97000000 		call	cau_disable
 114      E7800000 
 110:../Firmware/GD32VW55x_standard_peripheral/Source/gd32vw55x_cau_aes.c **** 
 111:../Firmware/GD32VW55x_standard_peripheral/Source/gd32vw55x_cau_aes.c ****     return ret;
 115              		.loc 1 111 12
 116 0104 8327C4FE 		lw	a5,-20(s0)
 117              	.L6:
 112:../Firmware/GD32VW55x_standard_peripheral/Source/gd32vw55x_cau_aes.c **** }
 118              		.loc 1 112 1 discriminator 1
 119 0108 3E85     		mv	a0,a5
 120 010a B640     		lw	ra,76(sp)
 121              		.cfi_restore 1
 122 010c 2644     		lw	s0,72(sp)
 123              		.cfi_restore 8
 124              		.cfi_def_cfa 2, 80
 125 010e 6161     		addi	sp,sp,80
 126              		.cfi_def_cfa_offset 0
 127 0110 8280     		jr	ra
 128              		.cfi_endproc
 129              	.LFE348:
 131              		.section	.text.cau_aes_cbc,"ax",@progbits
 132              		.align	1
 133              		.globl	cau_aes_cbc
 135              	cau_aes_cbc:
 136              	.LFB349:
 113:../Firmware/GD32VW55x_standard_peripheral/Source/gd32vw55x_cau_aes.c **** 
 114:../Firmware/GD32VW55x_standard_peripheral/Source/gd32vw55x_cau_aes.c **** /*!
 115:../Firmware/GD32VW55x_standard_peripheral/Source/gd32vw55x_cau_aes.c ****     \brief      encrypt and decrypt using AES in CBC mode
 116:../Firmware/GD32VW55x_standard_peripheral/Source/gd32vw55x_cau_aes.c ****     \param[in]  cau_parameter: pointer to the input structure
 117:../Firmware/GD32VW55x_standard_peripheral/Source/gd32vw55x_cau_aes.c ****                   alg_dir: algorithm direction
 118:../Firmware/GD32VW55x_standard_peripheral/Source/gd32vw55x_cau_aes.c ****                     CAU_ENCRYPT, CAU_DECRYPT
 119:../Firmware/GD32VW55x_standard_peripheral/Source/gd32vw55x_cau_aes.c ****                   key: key (in bytes)
 120:../Firmware/GD32VW55x_standard_peripheral/Source/gd32vw55x_cau_aes.c ****                   key_size: key size in bits, must be either 128, 192 or 256
 121:../Firmware/GD32VW55x_standard_peripheral/Source/gd32vw55x_cau_aes.c ****                   iv: initialization vector, 16 bytes (in bytes)
 122:../Firmware/GD32VW55x_standard_peripheral/Source/gd32vw55x_cau_aes.c ****                   input: input data (in bytes)
 123:../Firmware/GD32VW55x_standard_peripheral/Source/gd32vw55x_cau_aes.c ****                   in_length: input data length in bytes, must be a multiple of 16 bytes
 124:../Firmware/GD32VW55x_standard_peripheral/Source/gd32vw55x_cau_aes.c ****     \param[out] output: pointer to the returned buffer
 125:../Firmware/GD32VW55x_standard_peripheral/Source/gd32vw55x_cau_aes.c ****     \retval     ErrStatus: SUCCESS or ERROR
 126:../Firmware/GD32VW55x_standard_peripheral/Source/gd32vw55x_cau_aes.c **** */
 127:../Firmware/GD32VW55x_standard_peripheral/Source/gd32vw55x_cau_aes.c **** ErrStatus cau_aes_cbc(cau_parameter_struct *cau_parameter, uint8_t *output)
 128:../Firmware/GD32VW55x_standard_peripheral/Source/gd32vw55x_cau_aes.c **** {
 137              		.loc 1 128 1
 138              		.cfi_startproc
 139 0000 1971     		addi	sp,sp,-128
 140              		.cfi_def_cfa_offset 128
 141 0002 86DE     		sw	ra,124(sp)
 142 0004 A2DC     		sw	s0,120(sp)
 143              		.cfi_offset 1, -4
 144              		.cfi_offset 8, -8
 145 0006 0001     		addi	s0,sp,128
 146              		.cfi_def_cfa 8, 0
 147 0008 2326A4F8 		sw	a0,-116(s0)
 148 000c 2324B4F8 		sw	a1,-120(s0)
 129:../Firmware/GD32VW55x_standard_peripheral/Source/gd32vw55x_cau_aes.c ****     ErrStatus ret = ERROR;
 149              		.loc 1 129 15
 150 0010 232604FE 		sw	zero,-20(s0)
 130:../Firmware/GD32VW55x_standard_peripheral/Source/gd32vw55x_cau_aes.c ****     cau_key_parameter_struct key_initpara;
 131:../Firmware/GD32VW55x_standard_peripheral/Source/gd32vw55x_cau_aes.c ****     cau_iv_parameter_struct iv_initpara;
 132:../Firmware/GD32VW55x_standard_peripheral/Source/gd32vw55x_cau_aes.c ****     __IO uint32_t counter = 0U;
 151              		.loc 1 132 19
 152 0014 232804F8 		sw	zero,-112(s0)
 133:../Firmware/GD32VW55x_standard_peripheral/Source/gd32vw55x_cau_aes.c ****     uint32_t busystatus = 0U;
 153              		.loc 1 133 14
 154 0018 232404FE 		sw	zero,-24(s0)
 134:../Firmware/GD32VW55x_standard_peripheral/Source/gd32vw55x_cau_aes.c **** 
 135:../Firmware/GD32VW55x_standard_peripheral/Source/gd32vw55x_cau_aes.c ****     uint32_t ivaddr = (uint32_t)cau_parameter->iv;
 155              		.loc 1 135 46
 156 001c 8327C4F8 		lw	a5,-116(s0)
 157 0020 DC47     		lw	a5,12(a5)
 158              		.loc 1 135 14
 159 0022 2322F4FE 		sw	a5,-28(s0)
 136:../Firmware/GD32VW55x_standard_peripheral/Source/gd32vw55x_cau_aes.c **** 
 137:../Firmware/GD32VW55x_standard_peripheral/Source/gd32vw55x_cau_aes.c ****     /* key structure initialization */
 138:../Firmware/GD32VW55x_standard_peripheral/Source/gd32vw55x_cau_aes.c ****     cau_key_struct_para_init(&key_initpara);
 160              		.loc 1 138 5
 161 0026 930744FA 		addi	a5,s0,-92
 162 002a 3E85     		mv	a0,a5
 163 002c 97000000 		call	cau_key_struct_para_init
 163      E7800000 
 139:../Firmware/GD32VW55x_standard_peripheral/Source/gd32vw55x_cau_aes.c ****     /* AES key structure parameter config */
 140:../Firmware/GD32VW55x_standard_peripheral/Source/gd32vw55x_cau_aes.c ****     cau_aes_key_config(cau_parameter->key, cau_parameter->key_size, &key_initpara);
 164              		.loc 1 140 5
 165 0034 8327C4F8 		lw	a5,-116(s0)
 166 0038 D843     		lw	a4,4(a5)
 167 003a 8327C4F8 		lw	a5,-116(s0)
 168 003e 9C47     		lw	a5,8(a5)
 169 0040 930644FA 		addi	a3,s0,-92
 170 0044 3686     		mv	a2,a3
 171 0046 BE85     		mv	a1,a5
 172 0048 3A85     		mv	a0,a4
 173 004a 97000000 		call	cau_aes_key_config
 173      E7800000 
 141:../Firmware/GD32VW55x_standard_peripheral/Source/gd32vw55x_cau_aes.c ****     /* key initialization */
 142:../Firmware/GD32VW55x_standard_peripheral/Source/gd32vw55x_cau_aes.c ****     cau_key_init(&key_initpara);
 174              		.loc 1 142 5
 175 0052 930744FA 		addi	a5,s0,-92
 176 0056 3E85     		mv	a0,a5
 177 0058 97000000 		call	cau_key_init
 177      E7800000 
 143:../Firmware/GD32VW55x_standard_peripheral/Source/gd32vw55x_cau_aes.c **** 
 144:../Firmware/GD32VW55x_standard_peripheral/Source/gd32vw55x_cau_aes.c ****     /* AES decryption */
 145:../Firmware/GD32VW55x_standard_peripheral/Source/gd32vw55x_cau_aes.c ****     if(CAU_DECRYPT == cau_parameter->alg_dir) {
 178              		.loc 1 145 36
 179 0060 8327C4F8 		lw	a5,-116(s0)
 180 0064 9843     		lw	a4,0(a5)
 181              		.loc 1 145 7
 182 0066 9147     		li	a5,4
 183 0068 631BF704 		bne	a4,a5,.L8
 146:../Firmware/GD32VW55x_standard_peripheral/Source/gd32vw55x_cau_aes.c ****         /* flush the IN and OUT FIFOs */
 147:../Firmware/GD32VW55x_standard_peripheral/Source/gd32vw55x_cau_aes.c ****         cau_fifo_flush();
 184              		.loc 1 147 9
 185 006c 97000000 		call	cau_fifo_flush
 185      E7800000 
 148:../Firmware/GD32VW55x_standard_peripheral/Source/gd32vw55x_cau_aes.c ****         /* initialize the CAU peripheral */
 149:../Firmware/GD32VW55x_standard_peripheral/Source/gd32vw55x_cau_aes.c ****         cau_init(CAU_DECRYPT, CAU_MODE_AES_KEY, CAU_SWAPPING_32BIT);
 186              		.loc 1 149 9
 187 0074 0146     		li	a2,0
 188 0076 93058003 		li	a1,56
 189 007a 1145     		li	a0,4
 190 007c 97000000 		call	cau_init
 190      E7800000 
 150:../Firmware/GD32VW55x_standard_peripheral/Source/gd32vw55x_cau_aes.c **** 
 151:../Firmware/GD32VW55x_standard_peripheral/Source/gd32vw55x_cau_aes.c ****         /* enable the CAU peripheral */
 152:../Firmware/GD32VW55x_standard_peripheral/Source/gd32vw55x_cau_aes.c ****         cau_enable();
 191              		.loc 1 152 9
 192 0084 97000000 		call	cau_enable
 192      E7800000 
 193              	.L10:
 153:../Firmware/GD32VW55x_standard_peripheral/Source/gd32vw55x_cau_aes.c **** 
 154:../Firmware/GD32VW55x_standard_peripheral/Source/gd32vw55x_cau_aes.c ****         /* wait until the busy flag is RESET */
 155:../Firmware/GD32VW55x_standard_peripheral/Source/gd32vw55x_cau_aes.c ****         do {
 156:../Firmware/GD32VW55x_standard_peripheral/Source/gd32vw55x_cau_aes.c ****             busystatus = cau_flag_get(CAU_FLAG_BUSY);
 194              		.loc 1 156 26 discriminator 2
 195 008c 4145     		li	a0,16
 196 008e 97000000 		call	cau_flag_get
 196      E7800000 
 197 0096 2324A4FE 		sw	a0,-24(s0)
 157:../Firmware/GD32VW55x_standard_peripheral/Source/gd32vw55x_cau_aes.c ****             counter++;
 198              		.loc 1 157 20 discriminator 2
 199 009a 832704F9 		lw	a5,-112(s0)
 200 009e 8507     		addi	a5,a5,1
 201 00a0 2328F4F8 		sw	a5,-112(s0)
 158:../Firmware/GD32VW55x_standard_peripheral/Source/gd32vw55x_cau_aes.c ****         } while((AESBSY_TIMEOUT != counter) && (RESET != busystatus));
 202              		.loc 1 158 33 discriminator 2
 203 00a4 032704F9 		lw	a4,-112(s0)
 204              		.loc 1 158 9 discriminator 2
 205 00a8 C167     		li	a5,65536
 206 00aa 6305F700 		beq	a4,a5,.L9
 207              		.loc 1 158 45 discriminator 1
 208 00ae 832784FE 		lw	a5,-24(s0)
 209 00b2 E9FF     		bne	a5,zero,.L10
 210              	.L9:
 159:../Firmware/GD32VW55x_standard_peripheral/Source/gd32vw55x_cau_aes.c **** 
 160:../Firmware/GD32VW55x_standard_peripheral/Source/gd32vw55x_cau_aes.c ****         if(RESET != busystatus) {
 211              		.loc 1 160 11
 212 00b4 832784FE 		lw	a5,-24(s0)
 213 00b8 99C3     		beq	a5,zero,.L8
 161:../Firmware/GD32VW55x_standard_peripheral/Source/gd32vw55x_cau_aes.c ****             return ERROR;
 214              		.loc 1 161 20
 215 00ba 8147     		li	a5,0
 216 00bc 4DA2     		j	.L16
 217              	.L8:
 162:../Firmware/GD32VW55x_standard_peripheral/Source/gd32vw55x_cau_aes.c ****         }
 163:../Firmware/GD32VW55x_standard_peripheral/Source/gd32vw55x_cau_aes.c ****     }
 164:../Firmware/GD32VW55x_standard_peripheral/Source/gd32vw55x_cau_aes.c **** 
 165:../Firmware/GD32VW55x_standard_peripheral/Source/gd32vw55x_cau_aes.c ****     /* initialize the CAU peripheral */
 166:../Firmware/GD32VW55x_standard_peripheral/Source/gd32vw55x_cau_aes.c ****     cau_init(cau_parameter->alg_dir, CAU_MODE_AES_CBC, CAU_SWAPPING_8BIT);
 218              		.loc 1 166 5
 219 00be 8327C4F8 		lw	a5,-116(s0)
 220 00c2 9C43     		lw	a5,0(a5)
 221 00c4 13060008 		li	a2,128
 222 00c8 93058002 		li	a1,40
 223 00cc 3E85     		mv	a0,a5
 224 00ce 97000000 		call	cau_init
 224      E7800000 
 167:../Firmware/GD32VW55x_standard_peripheral/Source/gd32vw55x_cau_aes.c **** 
 168:../Firmware/GD32VW55x_standard_peripheral/Source/gd32vw55x_cau_aes.c ****     /* vectors initialization */
 169:../Firmware/GD32VW55x_standard_peripheral/Source/gd32vw55x_cau_aes.c ****     iv_initpara.iv_0_high = __REV(*(uint32_t *)(ivaddr));
 225              		.loc 1 169 36
 226 00d6 832744FE 		lw	a5,-28(s0)
 227              		.loc 1 169 29
 228 00da 9C43     		lw	a5,0(a5)
 229 00dc 2324F4FC 		sw	a5,-56(s0)
 230              	.LBB94:
 231              	.LBB95:
 232              		.file 2 "../Firmware/RISCV/drivers/core_compatiable.h"
   1:../Firmware/RISCV/drivers/core_compatiable.h **** /*
   2:../Firmware/RISCV/drivers/core_compatiable.h ****  * Copyright (c) 2019 Nuclei Limited. All rights reserved.
   3:../Firmware/RISCV/drivers/core_compatiable.h ****  *
   4:../Firmware/RISCV/drivers/core_compatiable.h ****  * SPDX-License-Identifier: Apache-2.0
   5:../Firmware/RISCV/drivers/core_compatiable.h ****  *
   6:../Firmware/RISCV/drivers/core_compatiable.h ****  * Licensed under the Apache License, Version 2.0 (the License); you may
   7:../Firmware/RISCV/drivers/core_compatiable.h ****  * not use this file except in compliance with the License.
   8:../Firmware/RISCV/drivers/core_compatiable.h ****  * You may obtain a copy of the License at
   9:../Firmware/RISCV/drivers/core_compatiable.h ****  *
  10:../Firmware/RISCV/drivers/core_compatiable.h ****  * www.apache.org/licenses/LICENSE-2.0
  11:../Firmware/RISCV/drivers/core_compatiable.h ****  *
  12:../Firmware/RISCV/drivers/core_compatiable.h ****  * Unless required by applicable law or agreed to in writing, software
  13:../Firmware/RISCV/drivers/core_compatiable.h ****  * distributed under the License is distributed on an AS IS BASIS, WITHOUT
  14:../Firmware/RISCV/drivers/core_compatiable.h ****  * WARRANTIES OR CONDITIONS OF ANY KIND, either express or implied.
  15:../Firmware/RISCV/drivers/core_compatiable.h ****  * See the License for the specific language governing permissions and
  16:../Firmware/RISCV/drivers/core_compatiable.h ****  * limitations under the License.
  17:../Firmware/RISCV/drivers/core_compatiable.h ****  */
  18:../Firmware/RISCV/drivers/core_compatiable.h **** #ifndef __CORE_COMPATIABLE_H__
  19:../Firmware/RISCV/drivers/core_compatiable.h **** #define __CORE_COMPATIABLE_H__
  20:../Firmware/RISCV/drivers/core_compatiable.h **** /*!
  21:../Firmware/RISCV/drivers/core_compatiable.h ****  * @file     core_compatiable.h
  22:../Firmware/RISCV/drivers/core_compatiable.h ****  * @brief    ARM compatiable function definitions header file
  23:../Firmware/RISCV/drivers/core_compatiable.h ****  */
  24:../Firmware/RISCV/drivers/core_compatiable.h **** #ifdef __cplusplus
  25:../Firmware/RISCV/drivers/core_compatiable.h ****  extern "C" {
  26:../Firmware/RISCV/drivers/core_compatiable.h **** #endif
  27:../Firmware/RISCV/drivers/core_compatiable.h **** 
  28:../Firmware/RISCV/drivers/core_compatiable.h **** /* ===== ARM Compatiable Functions ===== */
  29:../Firmware/RISCV/drivers/core_compatiable.h **** /**
  30:../Firmware/RISCV/drivers/core_compatiable.h ****  * \defgroup NMSIS_Core_ARMCompatiable_Functions   ARM Compatiable Functions
  31:../Firmware/RISCV/drivers/core_compatiable.h ****  * \ingroup  NMSIS_Core
  32:../Firmware/RISCV/drivers/core_compatiable.h ****  * \brief    A few functions that compatiable with ARM CMSIS-Core.
  33:../Firmware/RISCV/drivers/core_compatiable.h ****  * \details
  34:../Firmware/RISCV/drivers/core_compatiable.h ****  *
  35:../Firmware/RISCV/drivers/core_compatiable.h ****  * Here we provided a few functions that compatiable with ARM CMSIS-Core,
  36:../Firmware/RISCV/drivers/core_compatiable.h ****  * mostly used in the DSP and NN library.
  37:../Firmware/RISCV/drivers/core_compatiable.h ****  * @{
  38:../Firmware/RISCV/drivers/core_compatiable.h ****  */
  39:../Firmware/RISCV/drivers/core_compatiable.h **** /** \brief Instruction Synchronization Barrier, compatiable with ARM */
  40:../Firmware/RISCV/drivers/core_compatiable.h **** #define __ISB()                             __RWMB()
  41:../Firmware/RISCV/drivers/core_compatiable.h **** 
  42:../Firmware/RISCV/drivers/core_compatiable.h **** /** \brief Data Synchronization Barrier, compatiable with ARM */
  43:../Firmware/RISCV/drivers/core_compatiable.h **** #define __DSB()                             __RWMB()
  44:../Firmware/RISCV/drivers/core_compatiable.h **** 
  45:../Firmware/RISCV/drivers/core_compatiable.h **** /** \brief Data Memory Barrier, compatiable with ARM */
  46:../Firmware/RISCV/drivers/core_compatiable.h **** #define __DMB()                             __RWMB()
  47:../Firmware/RISCV/drivers/core_compatiable.h **** 
  48:../Firmware/RISCV/drivers/core_compatiable.h **** /** \brief LDRT Unprivileged (8 bit), ARM Compatiable */
  49:../Firmware/RISCV/drivers/core_compatiable.h **** #define __LDRBT(ptr)                        __LB((ptr))
  50:../Firmware/RISCV/drivers/core_compatiable.h **** /** \brief LDRT Unprivileged (16 bit), ARM Compatiable */
  51:../Firmware/RISCV/drivers/core_compatiable.h **** #define __LDRHT(ptr)                        __LH((ptr))
  52:../Firmware/RISCV/drivers/core_compatiable.h **** /** \brief LDRT Unprivileged (32 bit), ARM Compatiable */
  53:../Firmware/RISCV/drivers/core_compatiable.h **** #define __LDRT(ptr)                         __LW((ptr))
  54:../Firmware/RISCV/drivers/core_compatiable.h **** 
  55:../Firmware/RISCV/drivers/core_compatiable.h **** /** \brief STRT Unprivileged (8 bit), ARM Compatiable */
  56:../Firmware/RISCV/drivers/core_compatiable.h **** #define __STRBT(val, ptr)                   __SB((ptr), (val))
  57:../Firmware/RISCV/drivers/core_compatiable.h **** /** \brief STRT Unprivileged (16 bit), ARM Compatiable */
  58:../Firmware/RISCV/drivers/core_compatiable.h **** #define __STRHT(val, ptr)                   __SH((ptr), (val))
  59:../Firmware/RISCV/drivers/core_compatiable.h **** /** \brief STRT Unprivileged (32 bit), ARM Compatiable */
  60:../Firmware/RISCV/drivers/core_compatiable.h **** #define __STRT(val, ptr)                    __SW((ptr), (val))
  61:../Firmware/RISCV/drivers/core_compatiable.h **** 
  62:../Firmware/RISCV/drivers/core_compatiable.h **** /* ===== Saturation Operations ===== */
  63:../Firmware/RISCV/drivers/core_compatiable.h **** /**
  64:../Firmware/RISCV/drivers/core_compatiable.h ****  * \brief   Signed Saturate
  65:../Firmware/RISCV/drivers/core_compatiable.h ****  * \details Saturates a signed value.
  66:../Firmware/RISCV/drivers/core_compatiable.h ****  * \param [in]  value  Value to be saturated
  67:../Firmware/RISCV/drivers/core_compatiable.h ****  * \param [in]    sat  Bit position to saturate to (1..32)
  68:../Firmware/RISCV/drivers/core_compatiable.h ****  * \return             Saturated value
  69:../Firmware/RISCV/drivers/core_compatiable.h ****  */
  70:../Firmware/RISCV/drivers/core_compatiable.h **** #if defined(__DSP_PRESENT) && (__DSP_PRESENT == 1)
  71:../Firmware/RISCV/drivers/core_compatiable.h **** #define __SSAT(val, sat)          __RV_SCLIP32((val), (sat-1))
  72:../Firmware/RISCV/drivers/core_compatiable.h **** #else
  73:../Firmware/RISCV/drivers/core_compatiable.h **** __STATIC_FORCEINLINE int32_t __SSAT(int32_t val, uint32_t sat)
  74:../Firmware/RISCV/drivers/core_compatiable.h **** {
  75:../Firmware/RISCV/drivers/core_compatiable.h ****     if ((sat >= 1U) && (sat <= 32U)) {
  76:../Firmware/RISCV/drivers/core_compatiable.h ****         const int32_t max = (int32_t)((1U << (sat - 1U)) - 1U);
  77:../Firmware/RISCV/drivers/core_compatiable.h ****         const int32_t min = -1 - max ;
  78:../Firmware/RISCV/drivers/core_compatiable.h ****         if (val > max) {
  79:../Firmware/RISCV/drivers/core_compatiable.h ****             return max;
  80:../Firmware/RISCV/drivers/core_compatiable.h ****         } else if (val < min) {
  81:../Firmware/RISCV/drivers/core_compatiable.h ****             return min;
  82:../Firmware/RISCV/drivers/core_compatiable.h ****         }
  83:../Firmware/RISCV/drivers/core_compatiable.h ****     }
  84:../Firmware/RISCV/drivers/core_compatiable.h ****     return val;
  85:../Firmware/RISCV/drivers/core_compatiable.h **** }
  86:../Firmware/RISCV/drivers/core_compatiable.h **** #endif
  87:../Firmware/RISCV/drivers/core_compatiable.h **** 
  88:../Firmware/RISCV/drivers/core_compatiable.h **** /**
  89:../Firmware/RISCV/drivers/core_compatiable.h ****  * \brief   Unsigned Saturate
  90:../Firmware/RISCV/drivers/core_compatiable.h ****  * \details Saturates an unsigned value.
  91:../Firmware/RISCV/drivers/core_compatiable.h ****  * \param [in]  value  Value to be saturated
  92:../Firmware/RISCV/drivers/core_compatiable.h ****  * \param [in]    sat  Bit position to saturate to (0..31)
  93:../Firmware/RISCV/drivers/core_compatiable.h ****  * \return             Saturated value
  94:../Firmware/RISCV/drivers/core_compatiable.h ****  */
  95:../Firmware/RISCV/drivers/core_compatiable.h **** #if defined(__DSP_PRESENT) && (__DSP_PRESENT == 1)
  96:../Firmware/RISCV/drivers/core_compatiable.h **** #define __USAT(val, sat)        __RV_UCLIP32((val), (sat))
  97:../Firmware/RISCV/drivers/core_compatiable.h **** #else
  98:../Firmware/RISCV/drivers/core_compatiable.h **** __STATIC_FORCEINLINE uint32_t __USAT(int32_t val, uint32_t sat)
  99:../Firmware/RISCV/drivers/core_compatiable.h **** {
 100:../Firmware/RISCV/drivers/core_compatiable.h ****     if (sat <= 31U) {
 101:../Firmware/RISCV/drivers/core_compatiable.h ****         const uint32_t max = ((1U << sat) - 1U);
 102:../Firmware/RISCV/drivers/core_compatiable.h ****         if (val > (int32_t)max) {
 103:../Firmware/RISCV/drivers/core_compatiable.h ****             return max;
 104:../Firmware/RISCV/drivers/core_compatiable.h ****         } else if (val < 0) {
 105:../Firmware/RISCV/drivers/core_compatiable.h ****             return 0U;
 106:../Firmware/RISCV/drivers/core_compatiable.h ****         }
 107:../Firmware/RISCV/drivers/core_compatiable.h ****     }
 108:../Firmware/RISCV/drivers/core_compatiable.h ****     return (uint32_t)val;
 109:../Firmware/RISCV/drivers/core_compatiable.h **** }
 110:../Firmware/RISCV/drivers/core_compatiable.h **** #endif
 111:../Firmware/RISCV/drivers/core_compatiable.h **** 
 112:../Firmware/RISCV/drivers/core_compatiable.h **** /* ===== Data Processing Operations ===== */
 113:../Firmware/RISCV/drivers/core_compatiable.h **** /**
 114:../Firmware/RISCV/drivers/core_compatiable.h ****  * \brief   Reverse byte order (32 bit)
 115:../Firmware/RISCV/drivers/core_compatiable.h ****  * \details Reverses the byte order in unsigned integer value.
 116:../Firmware/RISCV/drivers/core_compatiable.h ****  * For example, 0x12345678 becomes 0x78563412.
 117:../Firmware/RISCV/drivers/core_compatiable.h ****  * \param [in]    value  Value to reverse
 118:../Firmware/RISCV/drivers/core_compatiable.h ****  * \return               Reversed value
 119:../Firmware/RISCV/drivers/core_compatiable.h ****  */
 120:../Firmware/RISCV/drivers/core_compatiable.h **** __STATIC_FORCEINLINE uint32_t __REV(uint32_t value)
 121:../Firmware/RISCV/drivers/core_compatiable.h **** {
 122:../Firmware/RISCV/drivers/core_compatiable.h ****     uint32_t result;
 123:../Firmware/RISCV/drivers/core_compatiable.h **** 
 124:../Firmware/RISCV/drivers/core_compatiable.h ****     result =  ((value & 0xff000000) >> 24)
 233              		.loc 2 124 37
 234 00e0 832784FC 		lw	a5,-56(s0)
 235 00e4 13D78701 		srli	a4,a5,24
 125:../Firmware/RISCV/drivers/core_compatiable.h ****         | ((value & 0x00ff0000) >> 8 )
 236              		.loc 2 125 33
 237 00e8 832784FC 		lw	a5,-56(s0)
 238 00ec 93D68700 		srli	a3,a5,8
 239 00f0 C167     		li	a5,65536
 240 00f2 938707F0 		addi	a5,a5,-256
 241 00f6 F58F     		and	a5,a3,a5
 242              		.loc 2 125 9
 243 00f8 5D8F     		or	a4,a4,a5
 126:../Firmware/RISCV/drivers/core_compatiable.h ****         | ((value & 0x0000ff00) << 8 )
 244              		.loc 2 126 33
 245 00fa 832784FC 		lw	a5,-56(s0)
 246 00fe 93968700 		slli	a3,a5,8
 247 0102 B707FF00 		li	a5,16711680
 248 0106 F58F     		and	a5,a3,a5
 249              		.loc 2 126 9
 250 0108 5D8F     		or	a4,a4,a5
 127:../Firmware/RISCV/drivers/core_compatiable.h ****         | ((value & 0x000000ff) << 24);
 251              		.loc 2 127 33
 252 010a 832784FC 		lw	a5,-56(s0)
 253 010e E207     		slli	a5,a5,24
 124:../Firmware/RISCV/drivers/core_compatiable.h ****         | ((value & 0x00ff0000) >> 8 )
 254              		.loc 2 124 12
 255 0110 D98F     		or	a5,a4,a5
 256 0112 2322F4FC 		sw	a5,-60(s0)
 128:../Firmware/RISCV/drivers/core_compatiable.h ****     return result;
 257              		.loc 2 128 12
 258 0116 832744FC 		lw	a5,-60(s0)
 259              	.LBE95:
 260              	.LBE94:
 261              		.loc 1 169 27
 262 011a 232AF4F8 		sw	a5,-108(s0)
 170:../Firmware/GD32VW55x_standard_peripheral/Source/gd32vw55x_cau_aes.c ****     ivaddr += 4U;
 263              		.loc 1 170 12
 264 011e 832744FE 		lw	a5,-28(s0)
 265 0122 9107     		addi	a5,a5,4
 266 0124 2322F4FE 		sw	a5,-28(s0)
 171:../Firmware/GD32VW55x_standard_peripheral/Source/gd32vw55x_cau_aes.c ****     iv_initpara.iv_0_low = __REV(*(uint32_t *)(ivaddr));
 267              		.loc 1 171 35
 268 0128 832744FE 		lw	a5,-28(s0)
 269              		.loc 1 171 28
 270 012c 9C43     		lw	a5,0(a5)
 271 012e 2328F4FC 		sw	a5,-48(s0)
 272              	.LBB96:
 273              	.LBB97:
 124:../Firmware/RISCV/drivers/core_compatiable.h ****         | ((value & 0x00ff0000) >> 8 )
 274              		.loc 2 124 37
 275 0132 832704FD 		lw	a5,-48(s0)
 276 0136 13D78701 		srli	a4,a5,24
 125:../Firmware/RISCV/drivers/core_compatiable.h ****         | ((value & 0x0000ff00) << 8 )
 277              		.loc 2 125 33
 278 013a 832704FD 		lw	a5,-48(s0)
 279 013e 93D68700 		srli	a3,a5,8
 280 0142 C167     		li	a5,65536
 281 0144 938707F0 		addi	a5,a5,-256
 282 0148 F58F     		and	a5,a3,a5
 125:../Firmware/RISCV/drivers/core_compatiable.h ****         | ((value & 0x0000ff00) << 8 )
 283              		.loc 2 125 9
 284 014a 5D8F     		or	a4,a4,a5
 126:../Firmware/RISCV/drivers/core_compatiable.h ****         | ((value & 0x000000ff) << 24);
 285              		.loc 2 126 33
 286 014c 832704FD 		lw	a5,-48(s0)
 287 0150 93968700 		slli	a3,a5,8
 288 0154 B707FF00 		li	a5,16711680
 289 0158 F58F     		and	a5,a3,a5
 126:../Firmware/RISCV/drivers/core_compatiable.h ****         | ((value & 0x000000ff) << 24);
 290              		.loc 2 126 9
 291 015a 5D8F     		or	a4,a4,a5
 127:../Firmware/RISCV/drivers/core_compatiable.h ****     return result;
 292              		.loc 2 127 33
 293 015c 832704FD 		lw	a5,-48(s0)
 294 0160 E207     		slli	a5,a5,24
 124:../Firmware/RISCV/drivers/core_compatiable.h ****         | ((value & 0x00ff0000) >> 8 )
 295              		.loc 2 124 12
 296 0162 D98F     		or	a5,a4,a5
 297 0164 2326F4FC 		sw	a5,-52(s0)
 298              		.loc 2 128 12
 299 0168 8327C4FC 		lw	a5,-52(s0)
 300              	.LBE97:
 301              	.LBE96:
 302              		.loc 1 171 26
 303 016c 232CF4F8 		sw	a5,-104(s0)
 172:../Firmware/GD32VW55x_standard_peripheral/Source/gd32vw55x_cau_aes.c ****     ivaddr += 4U;
 304              		.loc 1 172 12
 305 0170 832744FE 		lw	a5,-28(s0)
 306 0174 9107     		addi	a5,a5,4
 307 0176 2322F4FE 		sw	a5,-28(s0)
 173:../Firmware/GD32VW55x_standard_peripheral/Source/gd32vw55x_cau_aes.c ****     iv_initpara.iv_1_high = __REV(*(uint32_t *)(ivaddr));
 308              		.loc 1 173 36
 309 017a 832744FE 		lw	a5,-28(s0)
 310              		.loc 1 173 29
 311 017e 9C43     		lw	a5,0(a5)
 312 0180 232CF4FC 		sw	a5,-40(s0)
 313              	.LBB98:
 314              	.LBB99:
 124:../Firmware/RISCV/drivers/core_compatiable.h ****         | ((value & 0x00ff0000) >> 8 )
 315              		.loc 2 124 37
 316 0184 832784FD 		lw	a5,-40(s0)
 317 0188 13D78701 		srli	a4,a5,24
 125:../Firmware/RISCV/drivers/core_compatiable.h ****         | ((value & 0x0000ff00) << 8 )
 318              		.loc 2 125 33
 319 018c 832784FD 		lw	a5,-40(s0)
 320 0190 93D68700 		srli	a3,a5,8
 321 0194 C167     		li	a5,65536
 322 0196 938707F0 		addi	a5,a5,-256
 323 019a F58F     		and	a5,a3,a5
 125:../Firmware/RISCV/drivers/core_compatiable.h ****         | ((value & 0x0000ff00) << 8 )
 324              		.loc 2 125 9
 325 019c 5D8F     		or	a4,a4,a5
 126:../Firmware/RISCV/drivers/core_compatiable.h ****         | ((value & 0x000000ff) << 24);
 326              		.loc 2 126 33
 327 019e 832784FD 		lw	a5,-40(s0)
 328 01a2 93968700 		slli	a3,a5,8
 329 01a6 B707FF00 		li	a5,16711680
 330 01aa F58F     		and	a5,a3,a5
 126:../Firmware/RISCV/drivers/core_compatiable.h ****         | ((value & 0x000000ff) << 24);
 331              		.loc 2 126 9
 332 01ac 5D8F     		or	a4,a4,a5
 127:../Firmware/RISCV/drivers/core_compatiable.h ****     return result;
 333              		.loc 2 127 33
 334 01ae 832784FD 		lw	a5,-40(s0)
 335 01b2 E207     		slli	a5,a5,24
 124:../Firmware/RISCV/drivers/core_compatiable.h ****         | ((value & 0x00ff0000) >> 8 )
 336              		.loc 2 124 12
 337 01b4 D98F     		or	a5,a4,a5
 338 01b6 232AF4FC 		sw	a5,-44(s0)
 339              		.loc 2 128 12
 340 01ba 832744FD 		lw	a5,-44(s0)
 341              	.LBE99:
 342              	.LBE98:
 343              		.loc 1 173 27
 344 01be 232EF4F8 		sw	a5,-100(s0)
 174:../Firmware/GD32VW55x_standard_peripheral/Source/gd32vw55x_cau_aes.c ****     ivaddr += 4U;
 345              		.loc 1 174 12
 346 01c2 832744FE 		lw	a5,-28(s0)
 347 01c6 9107     		addi	a5,a5,4
 348 01c8 2322F4FE 		sw	a5,-28(s0)
 175:../Firmware/GD32VW55x_standard_peripheral/Source/gd32vw55x_cau_aes.c ****     iv_initpara.iv_1_low = __REV(*(uint32_t *)(ivaddr));
 349              		.loc 1 175 35
 350 01cc 832744FE 		lw	a5,-28(s0)
 351              		.loc 1 175 28
 352 01d0 9C43     		lw	a5,0(a5)
 353 01d2 2320F4FE 		sw	a5,-32(s0)
 354              	.LBB100:
 355              	.LBB101:
 124:../Firmware/RISCV/drivers/core_compatiable.h ****         | ((value & 0x00ff0000) >> 8 )
 356              		.loc 2 124 37
 357 01d6 832704FE 		lw	a5,-32(s0)
 358 01da 13D78701 		srli	a4,a5,24
 125:../Firmware/RISCV/drivers/core_compatiable.h ****         | ((value & 0x0000ff00) << 8 )
 359              		.loc 2 125 33
 360 01de 832704FE 		lw	a5,-32(s0)
 361 01e2 93D68700 		srli	a3,a5,8
 362 01e6 C167     		li	a5,65536
 363 01e8 938707F0 		addi	a5,a5,-256
 364 01ec F58F     		and	a5,a3,a5
 125:../Firmware/RISCV/drivers/core_compatiable.h ****         | ((value & 0x0000ff00) << 8 )
 365              		.loc 2 125 9
 366 01ee 5D8F     		or	a4,a4,a5
 126:../Firmware/RISCV/drivers/core_compatiable.h ****         | ((value & 0x000000ff) << 24);
 367              		.loc 2 126 33
 368 01f0 832704FE 		lw	a5,-32(s0)
 369 01f4 93968700 		slli	a3,a5,8
 370 01f8 B707FF00 		li	a5,16711680
 371 01fc F58F     		and	a5,a3,a5
 126:../Firmware/RISCV/drivers/core_compatiable.h ****         | ((value & 0x000000ff) << 24);
 372              		.loc 2 126 9
 373 01fe 5D8F     		or	a4,a4,a5
 127:../Firmware/RISCV/drivers/core_compatiable.h ****     return result;
 374              		.loc 2 127 33
 375 0200 832704FE 		lw	a5,-32(s0)
 376 0204 E207     		slli	a5,a5,24
 124:../Firmware/RISCV/drivers/core_compatiable.h ****         | ((value & 0x00ff0000) >> 8 )
 377              		.loc 2 124 12
 378 0206 D98F     		or	a5,a4,a5
 379 0208 232EF4FC 		sw	a5,-36(s0)
 380              		.loc 2 128 12
 381 020c 8327C4FD 		lw	a5,-36(s0)
 382              	.LBE101:
 383              	.LBE100:
 384              		.loc 1 175 26
 385 0210 2320F4FA 		sw	a5,-96(s0)
 176:../Firmware/GD32VW55x_standard_peripheral/Source/gd32vw55x_cau_aes.c ****     cau_iv_init(&iv_initpara);
 386              		.loc 1 176 5
 387 0214 930744F9 		addi	a5,s0,-108
 388 0218 3E85     		mv	a0,a5
 389 021a 97000000 		call	cau_iv_init
 389      E7800000 
 177:../Firmware/GD32VW55x_standard_peripheral/Source/gd32vw55x_cau_aes.c **** 
 178:../Firmware/GD32VW55x_standard_peripheral/Source/gd32vw55x_cau_aes.c ****     /* flush the IN and OUT FIFOs */
 179:../Firmware/GD32VW55x_standard_peripheral/Source/gd32vw55x_cau_aes.c ****     cau_fifo_flush();
 390              		.loc 1 179 5
 391 0222 97000000 		call	cau_fifo_flush
 391      E7800000 
 180:../Firmware/GD32VW55x_standard_peripheral/Source/gd32vw55x_cau_aes.c **** 
 181:../Firmware/GD32VW55x_standard_peripheral/Source/gd32vw55x_cau_aes.c ****     /* enable the CAU peripheral */
 182:../Firmware/GD32VW55x_standard_peripheral/Source/gd32vw55x_cau_aes.c ****     cau_enable();
 392              		.loc 1 182 5
 393 022a 97000000 		call	cau_enable
 393      E7800000 
 183:../Firmware/GD32VW55x_standard_peripheral/Source/gd32vw55x_cau_aes.c ****     /* AES calculate process */
 184:../Firmware/GD32VW55x_standard_peripheral/Source/gd32vw55x_cau_aes.c ****     ret = cau_aes_calculate(cau_parameter->input, cau_parameter->in_length, output);
 394              		.loc 1 184 11
 395 0232 8327C4F8 		lw	a5,-116(s0)
 396 0236 D84B     		lw	a4,20(a5)
 397 0238 8327C4F8 		lw	a5,-116(s0)
 398 023c 9C4F     		lw	a5,24(a5)
 399 023e 032684F8 		lw	a2,-120(s0)
 400 0242 BE85     		mv	a1,a5
 401 0244 3A85     		mv	a0,a4
 402 0246 97000000 		call	cau_aes_calculate
 402      E7800000 
 403 024e 2326A4FE 		sw	a0,-20(s0)
 185:../Firmware/GD32VW55x_standard_peripheral/Source/gd32vw55x_cau_aes.c ****     /* disable the CAU peripheral */
 186:../Firmware/GD32VW55x_standard_peripheral/Source/gd32vw55x_cau_aes.c ****     cau_disable();
 404              		.loc 1 186 5
 405 0252 97000000 		call	cau_disable
 405      E7800000 
 187:../Firmware/GD32VW55x_standard_peripheral/Source/gd32vw55x_cau_aes.c **** 
 188:../Firmware/GD32VW55x_standard_peripheral/Source/gd32vw55x_cau_aes.c ****     return ret;
 406              		.loc 1 188 12
 407 025a 8327C4FE 		lw	a5,-20(s0)
 408              	.L16:
 189:../Firmware/GD32VW55x_standard_peripheral/Source/gd32vw55x_cau_aes.c **** }
 409              		.loc 1 189 1 discriminator 1
 410 025e 3E85     		mv	a0,a5
 411 0260 F650     		lw	ra,124(sp)
 412              		.cfi_restore 1
 413 0262 6654     		lw	s0,120(sp)
 414              		.cfi_restore 8
 415              		.cfi_def_cfa 2, 128
 416 0264 0961     		addi	sp,sp,128
 417              		.cfi_def_cfa_offset 0
 418 0266 8280     		jr	ra
 419              		.cfi_endproc
 420              	.LFE349:
 422              		.section	.text.cau_aes_ctr,"ax",@progbits
 423              		.align	1
 424              		.globl	cau_aes_ctr
 426              	cau_aes_ctr:
 427              	.LFB350:
 190:../Firmware/GD32VW55x_standard_peripheral/Source/gd32vw55x_cau_aes.c **** 
 191:../Firmware/GD32VW55x_standard_peripheral/Source/gd32vw55x_cau_aes.c **** /*!
 192:../Firmware/GD32VW55x_standard_peripheral/Source/gd32vw55x_cau_aes.c ****     \brief      encrypt and decrypt using AES in CTR mode
 193:../Firmware/GD32VW55x_standard_peripheral/Source/gd32vw55x_cau_aes.c ****     \param[in]  cau_parameter: pointer to the input structure
 194:../Firmware/GD32VW55x_standard_peripheral/Source/gd32vw55x_cau_aes.c ****                   alg_dir: algorithm direction
 195:../Firmware/GD32VW55x_standard_peripheral/Source/gd32vw55x_cau_aes.c ****                     CAU_ENCRYPT, CAU_DECRYPT
 196:../Firmware/GD32VW55x_standard_peripheral/Source/gd32vw55x_cau_aes.c ****                   key: key (in bytes)
 197:../Firmware/GD32VW55x_standard_peripheral/Source/gd32vw55x_cau_aes.c ****                   key_size: key size in bits, must be either 128, 192 or 256
 198:../Firmware/GD32VW55x_standard_peripheral/Source/gd32vw55x_cau_aes.c ****                   iv: initialization vector, 16 bytes (in bytes)
 199:../Firmware/GD32VW55x_standard_peripheral/Source/gd32vw55x_cau_aes.c ****                   input: input data (in bytes)
 200:../Firmware/GD32VW55x_standard_peripheral/Source/gd32vw55x_cau_aes.c ****                   in_length: input data length in bytes, must be a multiple of 16 bytes
 201:../Firmware/GD32VW55x_standard_peripheral/Source/gd32vw55x_cau_aes.c ****     \param[out] output: pointer to the returned buffer
 202:../Firmware/GD32VW55x_standard_peripheral/Source/gd32vw55x_cau_aes.c ****     \retval     ErrStatus: SUCCESS or ERROR
 203:../Firmware/GD32VW55x_standard_peripheral/Source/gd32vw55x_cau_aes.c **** */
 204:../Firmware/GD32VW55x_standard_peripheral/Source/gd32vw55x_cau_aes.c **** ErrStatus cau_aes_ctr(cau_parameter_struct *cau_parameter, uint8_t *output)
 205:../Firmware/GD32VW55x_standard_peripheral/Source/gd32vw55x_cau_aes.c **** {
 428              		.loc 1 205 1
 429              		.cfi_startproc
 430 0000 1971     		addi	sp,sp,-128
 431              		.cfi_def_cfa_offset 128
 432 0002 86DE     		sw	ra,124(sp)
 433 0004 A2DC     		sw	s0,120(sp)
 434              		.cfi_offset 1, -4
 435              		.cfi_offset 8, -8
 436 0006 0001     		addi	s0,sp,128
 437              		.cfi_def_cfa 8, 0
 438 0008 2326A4F8 		sw	a0,-116(s0)
 439 000c 2324B4F8 		sw	a1,-120(s0)
 206:../Firmware/GD32VW55x_standard_peripheral/Source/gd32vw55x_cau_aes.c ****     ErrStatus ret = ERROR;
 440              		.loc 1 206 15
 441 0010 232604FE 		sw	zero,-20(s0)
 207:../Firmware/GD32VW55x_standard_peripheral/Source/gd32vw55x_cau_aes.c ****     cau_key_parameter_struct key_initpara;
 208:../Firmware/GD32VW55x_standard_peripheral/Source/gd32vw55x_cau_aes.c ****     cau_iv_parameter_struct iv_initpara;
 209:../Firmware/GD32VW55x_standard_peripheral/Source/gd32vw55x_cau_aes.c ****     uint32_t ivaddr = (uint32_t)cau_parameter->iv;
 442              		.loc 1 209 46
 443 0014 8327C4F8 		lw	a5,-116(s0)
 444 0018 DC47     		lw	a5,12(a5)
 445              		.loc 1 209 14
 446 001a 2324F4FE 		sw	a5,-24(s0)
 210:../Firmware/GD32VW55x_standard_peripheral/Source/gd32vw55x_cau_aes.c **** 
 211:../Firmware/GD32VW55x_standard_peripheral/Source/gd32vw55x_cau_aes.c ****     /* key structure initialization */
 212:../Firmware/GD32VW55x_standard_peripheral/Source/gd32vw55x_cau_aes.c ****     cau_key_struct_para_init(&key_initpara);
 447              		.loc 1 212 5
 448 001e 930784FA 		addi	a5,s0,-88
 449 0022 3E85     		mv	a0,a5
 450 0024 97000000 		call	cau_key_struct_para_init
 450      E7800000 
 213:../Firmware/GD32VW55x_standard_peripheral/Source/gd32vw55x_cau_aes.c ****     /* initialize the CAU peripheral */
 214:../Firmware/GD32VW55x_standard_peripheral/Source/gd32vw55x_cau_aes.c ****     cau_init(cau_parameter->alg_dir, CAU_MODE_AES_CTR, CAU_SWAPPING_8BIT);
 451              		.loc 1 214 5
 452 002c 8327C4F8 		lw	a5,-116(s0)
 453 0030 9C43     		lw	a5,0(a5)
 454 0032 13060008 		li	a2,128
 455 0036 93050003 		li	a1,48
 456 003a 3E85     		mv	a0,a5
 457 003c 97000000 		call	cau_init
 457      E7800000 
 215:../Firmware/GD32VW55x_standard_peripheral/Source/gd32vw55x_cau_aes.c **** 
 216:../Firmware/GD32VW55x_standard_peripheral/Source/gd32vw55x_cau_aes.c ****     /* AES key structure parameter config */
 217:../Firmware/GD32VW55x_standard_peripheral/Source/gd32vw55x_cau_aes.c ****     cau_aes_key_config(cau_parameter->key, cau_parameter->key_size, &key_initpara);
 458              		.loc 1 217 5
 459 0044 8327C4F8 		lw	a5,-116(s0)
 460 0048 D843     		lw	a4,4(a5)
 461 004a 8327C4F8 		lw	a5,-116(s0)
 462 004e 9C47     		lw	a5,8(a5)
 463 0050 930684FA 		addi	a3,s0,-88
 464 0054 3686     		mv	a2,a3
 465 0056 BE85     		mv	a1,a5
 466 0058 3A85     		mv	a0,a4
 467 005a 97000000 		call	cau_aes_key_config
 467      E7800000 
 218:../Firmware/GD32VW55x_standard_peripheral/Source/gd32vw55x_cau_aes.c ****     /* key initialization */
 219:../Firmware/GD32VW55x_standard_peripheral/Source/gd32vw55x_cau_aes.c ****     cau_key_init(&key_initpara);
 468              		.loc 1 219 5
 469 0062 930784FA 		addi	a5,s0,-88
 470 0066 3E85     		mv	a0,a5
 471 0068 97000000 		call	cau_key_init
 471      E7800000 
 220:../Firmware/GD32VW55x_standard_peripheral/Source/gd32vw55x_cau_aes.c **** 
 221:../Firmware/GD32VW55x_standard_peripheral/Source/gd32vw55x_cau_aes.c ****     /* vectors initialization */
 222:../Firmware/GD32VW55x_standard_peripheral/Source/gd32vw55x_cau_aes.c ****     iv_initpara.iv_0_high = __REV(*(uint32_t *)(ivaddr));
 472              		.loc 1 222 36
 473 0070 832784FE 		lw	a5,-24(s0)
 474              		.loc 1 222 29
 475 0074 9C43     		lw	a5,0(a5)
 476 0076 2326F4FC 		sw	a5,-52(s0)
 477              	.LBB102:
 478              	.LBB103:
 124:../Firmware/RISCV/drivers/core_compatiable.h ****         | ((value & 0x00ff0000) >> 8 )
 479              		.loc 2 124 37
 480 007a 8327C4FC 		lw	a5,-52(s0)
 481 007e 13D78701 		srli	a4,a5,24
 125:../Firmware/RISCV/drivers/core_compatiable.h ****         | ((value & 0x0000ff00) << 8 )
 482              		.loc 2 125 33
 483 0082 8327C4FC 		lw	a5,-52(s0)
 484 0086 93D68700 		srli	a3,a5,8
 485 008a C167     		li	a5,65536
 486 008c 938707F0 		addi	a5,a5,-256
 487 0090 F58F     		and	a5,a3,a5
 125:../Firmware/RISCV/drivers/core_compatiable.h ****         | ((value & 0x0000ff00) << 8 )
 488              		.loc 2 125 9
 489 0092 5D8F     		or	a4,a4,a5
 126:../Firmware/RISCV/drivers/core_compatiable.h ****         | ((value & 0x000000ff) << 24);
 490              		.loc 2 126 33
 491 0094 8327C4FC 		lw	a5,-52(s0)
 492 0098 93968700 		slli	a3,a5,8
 493 009c B707FF00 		li	a5,16711680
 494 00a0 F58F     		and	a5,a3,a5
 126:../Firmware/RISCV/drivers/core_compatiable.h ****         | ((value & 0x000000ff) << 24);
 495              		.loc 2 126 9
 496 00a2 5D8F     		or	a4,a4,a5
 127:../Firmware/RISCV/drivers/core_compatiable.h ****     return result;
 497              		.loc 2 127 33
 498 00a4 8327C4FC 		lw	a5,-52(s0)
 499 00a8 E207     		slli	a5,a5,24
 124:../Firmware/RISCV/drivers/core_compatiable.h ****         | ((value & 0x00ff0000) >> 8 )
 500              		.loc 2 124 12
 501 00aa D98F     		or	a5,a4,a5
 502 00ac 2324F4FC 		sw	a5,-56(s0)
 503              		.loc 2 128 12
 504 00b0 832784FC 		lw	a5,-56(s0)
 505              	.LBE103:
 506              	.LBE102:
 507              		.loc 1 222 27
 508 00b4 232CF4F8 		sw	a5,-104(s0)
 223:../Firmware/GD32VW55x_standard_peripheral/Source/gd32vw55x_cau_aes.c ****     ivaddr += 4U;
 509              		.loc 1 223 12
 510 00b8 832784FE 		lw	a5,-24(s0)
 511 00bc 9107     		addi	a5,a5,4
 512 00be 2324F4FE 		sw	a5,-24(s0)
 224:../Firmware/GD32VW55x_standard_peripheral/Source/gd32vw55x_cau_aes.c ****     iv_initpara.iv_0_low = __REV(*(uint32_t *)(ivaddr));
 513              		.loc 1 224 35
 514 00c2 832784FE 		lw	a5,-24(s0)
 515              		.loc 1 224 28
 516 00c6 9C43     		lw	a5,0(a5)
 517 00c8 232AF4FC 		sw	a5,-44(s0)
 518              	.LBB104:
 519              	.LBB105:
 124:../Firmware/RISCV/drivers/core_compatiable.h ****         | ((value & 0x00ff0000) >> 8 )
 520              		.loc 2 124 37
 521 00cc 832744FD 		lw	a5,-44(s0)
 522 00d0 13D78701 		srli	a4,a5,24
 125:../Firmware/RISCV/drivers/core_compatiable.h ****         | ((value & 0x0000ff00) << 8 )
 523              		.loc 2 125 33
 524 00d4 832744FD 		lw	a5,-44(s0)
 525 00d8 93D68700 		srli	a3,a5,8
 526 00dc C167     		li	a5,65536
 527 00de 938707F0 		addi	a5,a5,-256
 528 00e2 F58F     		and	a5,a3,a5
 125:../Firmware/RISCV/drivers/core_compatiable.h ****         | ((value & 0x0000ff00) << 8 )
 529              		.loc 2 125 9
 530 00e4 5D8F     		or	a4,a4,a5
 126:../Firmware/RISCV/drivers/core_compatiable.h ****         | ((value & 0x000000ff) << 24);
 531              		.loc 2 126 33
 532 00e6 832744FD 		lw	a5,-44(s0)
 533 00ea 93968700 		slli	a3,a5,8
 534 00ee B707FF00 		li	a5,16711680
 535 00f2 F58F     		and	a5,a3,a5
 126:../Firmware/RISCV/drivers/core_compatiable.h ****         | ((value & 0x000000ff) << 24);
 536              		.loc 2 126 9
 537 00f4 5D8F     		or	a4,a4,a5
 127:../Firmware/RISCV/drivers/core_compatiable.h ****     return result;
 538              		.loc 2 127 33
 539 00f6 832744FD 		lw	a5,-44(s0)
 540 00fa E207     		slli	a5,a5,24
 124:../Firmware/RISCV/drivers/core_compatiable.h ****         | ((value & 0x00ff0000) >> 8 )
 541              		.loc 2 124 12
 542 00fc D98F     		or	a5,a4,a5
 543 00fe 2328F4FC 		sw	a5,-48(s0)
 544              		.loc 2 128 12
 545 0102 832704FD 		lw	a5,-48(s0)
 546              	.LBE105:
 547              	.LBE104:
 548              		.loc 1 224 26
 549 0106 232EF4F8 		sw	a5,-100(s0)
 225:../Firmware/GD32VW55x_standard_peripheral/Source/gd32vw55x_cau_aes.c ****     ivaddr += 4U;
 550              		.loc 1 225 12
 551 010a 832784FE 		lw	a5,-24(s0)
 552 010e 9107     		addi	a5,a5,4
 553 0110 2324F4FE 		sw	a5,-24(s0)
 226:../Firmware/GD32VW55x_standard_peripheral/Source/gd32vw55x_cau_aes.c ****     iv_initpara.iv_1_high = __REV(*(uint32_t *)(ivaddr));
 554              		.loc 1 226 36
 555 0114 832784FE 		lw	a5,-24(s0)
 556              		.loc 1 226 29
 557 0118 9C43     		lw	a5,0(a5)
 558 011a 232EF4FC 		sw	a5,-36(s0)
 559              	.LBB106:
 560              	.LBB107:
 124:../Firmware/RISCV/drivers/core_compatiable.h ****         | ((value & 0x00ff0000) >> 8 )
 561              		.loc 2 124 37
 562 011e 8327C4FD 		lw	a5,-36(s0)
 563 0122 13D78701 		srli	a4,a5,24
 125:../Firmware/RISCV/drivers/core_compatiable.h ****         | ((value & 0x0000ff00) << 8 )
 564              		.loc 2 125 33
 565 0126 8327C4FD 		lw	a5,-36(s0)
 566 012a 93D68700 		srli	a3,a5,8
 567 012e C167     		li	a5,65536
 568 0130 938707F0 		addi	a5,a5,-256
 569 0134 F58F     		and	a5,a3,a5
 125:../Firmware/RISCV/drivers/core_compatiable.h ****         | ((value & 0x0000ff00) << 8 )
 570              		.loc 2 125 9
 571 0136 5D8F     		or	a4,a4,a5
 126:../Firmware/RISCV/drivers/core_compatiable.h ****         | ((value & 0x000000ff) << 24);
 572              		.loc 2 126 33
 573 0138 8327C4FD 		lw	a5,-36(s0)
 574 013c 93968700 		slli	a3,a5,8
 575 0140 B707FF00 		li	a5,16711680
 576 0144 F58F     		and	a5,a3,a5
 126:../Firmware/RISCV/drivers/core_compatiable.h ****         | ((value & 0x000000ff) << 24);
 577              		.loc 2 126 9
 578 0146 5D8F     		or	a4,a4,a5
 127:../Firmware/RISCV/drivers/core_compatiable.h ****     return result;
 579              		.loc 2 127 33
 580 0148 8327C4FD 		lw	a5,-36(s0)
 581 014c E207     		slli	a5,a5,24
 124:../Firmware/RISCV/drivers/core_compatiable.h ****         | ((value & 0x00ff0000) >> 8 )
 582              		.loc 2 124 12
 583 014e D98F     		or	a5,a4,a5
 584 0150 232CF4FC 		sw	a5,-40(s0)
 585              		.loc 2 128 12
 586 0154 832784FD 		lw	a5,-40(s0)
 587              	.LBE107:
 588              	.LBE106:
 589              		.loc 1 226 27
 590 0158 2320F4FA 		sw	a5,-96(s0)
 227:../Firmware/GD32VW55x_standard_peripheral/Source/gd32vw55x_cau_aes.c ****     ivaddr += 4U;
 591              		.loc 1 227 12
 592 015c 832784FE 		lw	a5,-24(s0)
 593 0160 9107     		addi	a5,a5,4
 594 0162 2324F4FE 		sw	a5,-24(s0)
 228:../Firmware/GD32VW55x_standard_peripheral/Source/gd32vw55x_cau_aes.c ****     iv_initpara.iv_1_low = __REV(*(uint32_t *)(ivaddr));
 595              		.loc 1 228 35
 596 0166 832784FE 		lw	a5,-24(s0)
 597              		.loc 1 228 28
 598 016a 9C43     		lw	a5,0(a5)
 599 016c 2322F4FE 		sw	a5,-28(s0)
 600              	.LBB108:
 601              	.LBB109:
 124:../Firmware/RISCV/drivers/core_compatiable.h ****         | ((value & 0x00ff0000) >> 8 )
 602              		.loc 2 124 37
 603 0170 832744FE 		lw	a5,-28(s0)
 604 0174 13D78701 		srli	a4,a5,24
 125:../Firmware/RISCV/drivers/core_compatiable.h ****         | ((value & 0x0000ff00) << 8 )
 605              		.loc 2 125 33
 606 0178 832744FE 		lw	a5,-28(s0)
 607 017c 93D68700 		srli	a3,a5,8
 608 0180 C167     		li	a5,65536
 609 0182 938707F0 		addi	a5,a5,-256
 610 0186 F58F     		and	a5,a3,a5
 125:../Firmware/RISCV/drivers/core_compatiable.h ****         | ((value & 0x0000ff00) << 8 )
 611              		.loc 2 125 9
 612 0188 5D8F     		or	a4,a4,a5
 126:../Firmware/RISCV/drivers/core_compatiable.h ****         | ((value & 0x000000ff) << 24);
 613              		.loc 2 126 33
 614 018a 832744FE 		lw	a5,-28(s0)
 615 018e 93968700 		slli	a3,a5,8
 616 0192 B707FF00 		li	a5,16711680
 617 0196 F58F     		and	a5,a3,a5
 126:../Firmware/RISCV/drivers/core_compatiable.h ****         | ((value & 0x000000ff) << 24);
 618              		.loc 2 126 9
 619 0198 5D8F     		or	a4,a4,a5
 127:../Firmware/RISCV/drivers/core_compatiable.h ****     return result;
 620              		.loc 2 127 33
 621 019a 832744FE 		lw	a5,-28(s0)
 622 019e E207     		slli	a5,a5,24
 124:../Firmware/RISCV/drivers/core_compatiable.h ****         | ((value & 0x00ff0000) >> 8 )
 623              		.loc 2 124 12
 624 01a0 D98F     		or	a5,a4,a5
 625 01a2 2320F4FE 		sw	a5,-32(s0)
 626              		.loc 2 128 12
 627 01a6 832704FE 		lw	a5,-32(s0)
 628              	.LBE109:
 629              	.LBE108:
 630              		.loc 1 228 26
 631 01aa 2322F4FA 		sw	a5,-92(s0)
 229:../Firmware/GD32VW55x_standard_peripheral/Source/gd32vw55x_cau_aes.c ****     cau_iv_init(&iv_initpara);
 632              		.loc 1 229 5
 633 01ae 930784F9 		addi	a5,s0,-104
 634 01b2 3E85     		mv	a0,a5
 635 01b4 97000000 		call	cau_iv_init
 635      E7800000 
 230:../Firmware/GD32VW55x_standard_peripheral/Source/gd32vw55x_cau_aes.c **** 
 231:../Firmware/GD32VW55x_standard_peripheral/Source/gd32vw55x_cau_aes.c ****     /* flush the IN and OUT FIFOs */
 232:../Firmware/GD32VW55x_standard_peripheral/Source/gd32vw55x_cau_aes.c ****     cau_fifo_flush();
 636              		.loc 1 232 5
 637 01bc 97000000 		call	cau_fifo_flush
 637      E7800000 
 233:../Firmware/GD32VW55x_standard_peripheral/Source/gd32vw55x_cau_aes.c **** 
 234:../Firmware/GD32VW55x_standard_peripheral/Source/gd32vw55x_cau_aes.c ****     /* enable the CAU peripheral */
 235:../Firmware/GD32VW55x_standard_peripheral/Source/gd32vw55x_cau_aes.c ****     cau_enable();
 638              		.loc 1 235 5
 639 01c4 97000000 		call	cau_enable
 639      E7800000 
 236:../Firmware/GD32VW55x_standard_peripheral/Source/gd32vw55x_cau_aes.c ****     /* AES calculate process */
 237:../Firmware/GD32VW55x_standard_peripheral/Source/gd32vw55x_cau_aes.c ****     ret = cau_aes_calculate(cau_parameter->input, cau_parameter->in_length, output);
 640              		.loc 1 237 11
 641 01cc 8327C4F8 		lw	a5,-116(s0)
 642 01d0 D84B     		lw	a4,20(a5)
 643 01d2 8327C4F8 		lw	a5,-116(s0)
 644 01d6 9C4F     		lw	a5,24(a5)
 645 01d8 032684F8 		lw	a2,-120(s0)
 646 01dc BE85     		mv	a1,a5
 647 01de 3A85     		mv	a0,a4
 648 01e0 97000000 		call	cau_aes_calculate
 648      E7800000 
 649 01e8 2326A4FE 		sw	a0,-20(s0)
 238:../Firmware/GD32VW55x_standard_peripheral/Source/gd32vw55x_cau_aes.c ****     /* disable the CAU peripheral */
 239:../Firmware/GD32VW55x_standard_peripheral/Source/gd32vw55x_cau_aes.c ****     cau_disable();
 650              		.loc 1 239 5
 651 01ec 97000000 		call	cau_disable
 651      E7800000 
 240:../Firmware/GD32VW55x_standard_peripheral/Source/gd32vw55x_cau_aes.c **** 
 241:../Firmware/GD32VW55x_standard_peripheral/Source/gd32vw55x_cau_aes.c ****     return ret;
 652              		.loc 1 241 12
 653 01f4 8327C4FE 		lw	a5,-20(s0)
 242:../Firmware/GD32VW55x_standard_peripheral/Source/gd32vw55x_cau_aes.c **** }
 654              		.loc 1 242 1
 655 01f8 3E85     		mv	a0,a5
 656 01fa F650     		lw	ra,124(sp)
 657              		.cfi_restore 1
 658 01fc 6654     		lw	s0,120(sp)
 659              		.cfi_restore 8
 660              		.cfi_def_cfa 2, 128
 661 01fe 0961     		addi	sp,sp,128
 662              		.cfi_def_cfa_offset 0
 663 0200 8280     		jr	ra
 664              		.cfi_endproc
 665              	.LFE350:
 667              		.section	.text.cau_aes_cfb,"ax",@progbits
 668              		.align	1
 669              		.globl	cau_aes_cfb
 671              	cau_aes_cfb:
 672              	.LFB351:
 243:../Firmware/GD32VW55x_standard_peripheral/Source/gd32vw55x_cau_aes.c **** 
 244:../Firmware/GD32VW55x_standard_peripheral/Source/gd32vw55x_cau_aes.c **** /*!
 245:../Firmware/GD32VW55x_standard_peripheral/Source/gd32vw55x_cau_aes.c ****     \brief      encrypt and decrypt using AES in CFB mode
 246:../Firmware/GD32VW55x_standard_peripheral/Source/gd32vw55x_cau_aes.c ****     \param[in]  cau_parameter: pointer to the input structure
 247:../Firmware/GD32VW55x_standard_peripheral/Source/gd32vw55x_cau_aes.c ****                   alg_dir: algorithm direction
 248:../Firmware/GD32VW55x_standard_peripheral/Source/gd32vw55x_cau_aes.c ****                     CAU_ENCRYPT, CAU_DECRYPT
 249:../Firmware/GD32VW55x_standard_peripheral/Source/gd32vw55x_cau_aes.c ****                   key: key (in bytes)
 250:../Firmware/GD32VW55x_standard_peripheral/Source/gd32vw55x_cau_aes.c ****                   key_size: key size in bits, must be either 128, 192 or 256
 251:../Firmware/GD32VW55x_standard_peripheral/Source/gd32vw55x_cau_aes.c ****                   iv: initialization vector, 16 bytes (in bytes)
 252:../Firmware/GD32VW55x_standard_peripheral/Source/gd32vw55x_cau_aes.c ****                   input: input data (in bytes)
 253:../Firmware/GD32VW55x_standard_peripheral/Source/gd32vw55x_cau_aes.c ****                   in_length: input data length in bytes, must be a multiple of 16 bytes
 254:../Firmware/GD32VW55x_standard_peripheral/Source/gd32vw55x_cau_aes.c ****     \param[out] output: pointer to the returned buffer
 255:../Firmware/GD32VW55x_standard_peripheral/Source/gd32vw55x_cau_aes.c ****     \retval     ErrStatus: SUCCESS or ERROR
 256:../Firmware/GD32VW55x_standard_peripheral/Source/gd32vw55x_cau_aes.c **** */
 257:../Firmware/GD32VW55x_standard_peripheral/Source/gd32vw55x_cau_aes.c **** ErrStatus cau_aes_cfb(cau_parameter_struct *cau_parameter, uint8_t *output)
 258:../Firmware/GD32VW55x_standard_peripheral/Source/gd32vw55x_cau_aes.c **** {
 673              		.loc 1 258 1
 674              		.cfi_startproc
 675 0000 1971     		addi	sp,sp,-128
 676              		.cfi_def_cfa_offset 128
 677 0002 86DE     		sw	ra,124(sp)
 678 0004 A2DC     		sw	s0,120(sp)
 679              		.cfi_offset 1, -4
 680              		.cfi_offset 8, -8
 681 0006 0001     		addi	s0,sp,128
 682              		.cfi_def_cfa 8, 0
 683 0008 2326A4F8 		sw	a0,-116(s0)
 684 000c 2324B4F8 		sw	a1,-120(s0)
 259:../Firmware/GD32VW55x_standard_peripheral/Source/gd32vw55x_cau_aes.c ****     ErrStatus ret = ERROR;
 685              		.loc 1 259 15
 686 0010 232604FE 		sw	zero,-20(s0)
 260:../Firmware/GD32VW55x_standard_peripheral/Source/gd32vw55x_cau_aes.c ****     cau_key_parameter_struct key_initpara;
 261:../Firmware/GD32VW55x_standard_peripheral/Source/gd32vw55x_cau_aes.c ****     cau_iv_parameter_struct iv_initpara;
 262:../Firmware/GD32VW55x_standard_peripheral/Source/gd32vw55x_cau_aes.c ****     uint32_t ivaddr = (uint32_t)cau_parameter->iv;
 687              		.loc 1 262 46
 688 0014 8327C4F8 		lw	a5,-116(s0)
 689 0018 DC47     		lw	a5,12(a5)
 690              		.loc 1 262 14
 691 001a 2324F4FE 		sw	a5,-24(s0)
 263:../Firmware/GD32VW55x_standard_peripheral/Source/gd32vw55x_cau_aes.c **** 
 264:../Firmware/GD32VW55x_standard_peripheral/Source/gd32vw55x_cau_aes.c ****     /* key structure initialization */
 265:../Firmware/GD32VW55x_standard_peripheral/Source/gd32vw55x_cau_aes.c ****     cau_key_struct_para_init(&key_initpara);
 692              		.loc 1 265 5
 693 001e 930784FA 		addi	a5,s0,-88
 694 0022 3E85     		mv	a0,a5
 695 0024 97000000 		call	cau_key_struct_para_init
 695      E7800000 
 266:../Firmware/GD32VW55x_standard_peripheral/Source/gd32vw55x_cau_aes.c ****     /* initialize the CAU peripheral */
 267:../Firmware/GD32VW55x_standard_peripheral/Source/gd32vw55x_cau_aes.c ****     cau_init(cau_parameter->alg_dir, CAU_MODE_AES_CFB, CAU_SWAPPING_8BIT);
 696              		.loc 1 267 5
 697 002c 8327C4F8 		lw	a5,-116(s0)
 698 0030 9843     		lw	a4,0(a5)
 699 0032 13060008 		li	a2,128
 700 0036 B7070800 		li	a5,524288
 701 003a 93850701 		addi	a1,a5,16
 702 003e 3A85     		mv	a0,a4
 703 0040 97000000 		call	cau_init
 703      E7800000 
 268:../Firmware/GD32VW55x_standard_peripheral/Source/gd32vw55x_cau_aes.c **** 
 269:../Firmware/GD32VW55x_standard_peripheral/Source/gd32vw55x_cau_aes.c ****     /* AES key structure parameter config */
 270:../Firmware/GD32VW55x_standard_peripheral/Source/gd32vw55x_cau_aes.c ****     cau_aes_key_config(cau_parameter->key, cau_parameter->key_size, &key_initpara);
 704              		.loc 1 270 5
 705 0048 8327C4F8 		lw	a5,-116(s0)
 706 004c D843     		lw	a4,4(a5)
 707 004e 8327C4F8 		lw	a5,-116(s0)
 708 0052 9C47     		lw	a5,8(a5)
 709 0054 930684FA 		addi	a3,s0,-88
 710 0058 3686     		mv	a2,a3
 711 005a BE85     		mv	a1,a5
 712 005c 3A85     		mv	a0,a4
 713 005e 97000000 		call	cau_aes_key_config
 713      E7800000 
 271:../Firmware/GD32VW55x_standard_peripheral/Source/gd32vw55x_cau_aes.c ****     /* key initialization */
 272:../Firmware/GD32VW55x_standard_peripheral/Source/gd32vw55x_cau_aes.c ****     cau_key_init(&key_initpara);
 714              		.loc 1 272 5
 715 0066 930784FA 		addi	a5,s0,-88
 716 006a 3E85     		mv	a0,a5
 717 006c 97000000 		call	cau_key_init
 717      E7800000 
 273:../Firmware/GD32VW55x_standard_peripheral/Source/gd32vw55x_cau_aes.c **** 
 274:../Firmware/GD32VW55x_standard_peripheral/Source/gd32vw55x_cau_aes.c ****     /* vectors initialization */
 275:../Firmware/GD32VW55x_standard_peripheral/Source/gd32vw55x_cau_aes.c ****     iv_initpara.iv_0_high = __REV(*(uint32_t *)(ivaddr));
 718              		.loc 1 275 36
 719 0074 832784FE 		lw	a5,-24(s0)
 720              		.loc 1 275 29
 721 0078 9C43     		lw	a5,0(a5)
 722 007a 2326F4FC 		sw	a5,-52(s0)
 723              	.LBB110:
 724              	.LBB111:
 124:../Firmware/RISCV/drivers/core_compatiable.h ****         | ((value & 0x00ff0000) >> 8 )
 725              		.loc 2 124 37
 726 007e 8327C4FC 		lw	a5,-52(s0)
 727 0082 13D78701 		srli	a4,a5,24
 125:../Firmware/RISCV/drivers/core_compatiable.h ****         | ((value & 0x0000ff00) << 8 )
 728              		.loc 2 125 33
 729 0086 8327C4FC 		lw	a5,-52(s0)
 730 008a 93D68700 		srli	a3,a5,8
 731 008e C167     		li	a5,65536
 732 0090 938707F0 		addi	a5,a5,-256
 733 0094 F58F     		and	a5,a3,a5
 125:../Firmware/RISCV/drivers/core_compatiable.h ****         | ((value & 0x0000ff00) << 8 )
 734              		.loc 2 125 9
 735 0096 5D8F     		or	a4,a4,a5
 126:../Firmware/RISCV/drivers/core_compatiable.h ****         | ((value & 0x000000ff) << 24);
 736              		.loc 2 126 33
 737 0098 8327C4FC 		lw	a5,-52(s0)
 738 009c 93968700 		slli	a3,a5,8
 739 00a0 B707FF00 		li	a5,16711680
 740 00a4 F58F     		and	a5,a3,a5
 126:../Firmware/RISCV/drivers/core_compatiable.h ****         | ((value & 0x000000ff) << 24);
 741              		.loc 2 126 9
 742 00a6 5D8F     		or	a4,a4,a5
 127:../Firmware/RISCV/drivers/core_compatiable.h ****     return result;
 743              		.loc 2 127 33
 744 00a8 8327C4FC 		lw	a5,-52(s0)
 745 00ac E207     		slli	a5,a5,24
 124:../Firmware/RISCV/drivers/core_compatiable.h ****         | ((value & 0x00ff0000) >> 8 )
 746              		.loc 2 124 12
 747 00ae D98F     		or	a5,a4,a5
 748 00b0 2324F4FC 		sw	a5,-56(s0)
 749              		.loc 2 128 12
 750 00b4 832784FC 		lw	a5,-56(s0)
 751              	.LBE111:
 752              	.LBE110:
 753              		.loc 1 275 27
 754 00b8 232CF4F8 		sw	a5,-104(s0)
 276:../Firmware/GD32VW55x_standard_peripheral/Source/gd32vw55x_cau_aes.c ****     ivaddr += 4U;
 755              		.loc 1 276 12
 756 00bc 832784FE 		lw	a5,-24(s0)
 757 00c0 9107     		addi	a5,a5,4
 758 00c2 2324F4FE 		sw	a5,-24(s0)
 277:../Firmware/GD32VW55x_standard_peripheral/Source/gd32vw55x_cau_aes.c ****     iv_initpara.iv_0_low = __REV(*(uint32_t *)(ivaddr));
 759              		.loc 1 277 35
 760 00c6 832784FE 		lw	a5,-24(s0)
 761              		.loc 1 277 28
 762 00ca 9C43     		lw	a5,0(a5)
 763 00cc 232AF4FC 		sw	a5,-44(s0)
 764              	.LBB112:
 765              	.LBB113:
 124:../Firmware/RISCV/drivers/core_compatiable.h ****         | ((value & 0x00ff0000) >> 8 )
 766              		.loc 2 124 37
 767 00d0 832744FD 		lw	a5,-44(s0)
 768 00d4 13D78701 		srli	a4,a5,24
 125:../Firmware/RISCV/drivers/core_compatiable.h ****         | ((value & 0x0000ff00) << 8 )
 769              		.loc 2 125 33
 770 00d8 832744FD 		lw	a5,-44(s0)
 771 00dc 93D68700 		srli	a3,a5,8
 772 00e0 C167     		li	a5,65536
 773 00e2 938707F0 		addi	a5,a5,-256
 774 00e6 F58F     		and	a5,a3,a5
 125:../Firmware/RISCV/drivers/core_compatiable.h ****         | ((value & 0x0000ff00) << 8 )
 775              		.loc 2 125 9
 776 00e8 5D8F     		or	a4,a4,a5
 126:../Firmware/RISCV/drivers/core_compatiable.h ****         | ((value & 0x000000ff) << 24);
 777              		.loc 2 126 33
 778 00ea 832744FD 		lw	a5,-44(s0)
 779 00ee 93968700 		slli	a3,a5,8
 780 00f2 B707FF00 		li	a5,16711680
 781 00f6 F58F     		and	a5,a3,a5
 126:../Firmware/RISCV/drivers/core_compatiable.h ****         | ((value & 0x000000ff) << 24);
 782              		.loc 2 126 9
 783 00f8 5D8F     		or	a4,a4,a5
 127:../Firmware/RISCV/drivers/core_compatiable.h ****     return result;
 784              		.loc 2 127 33
 785 00fa 832744FD 		lw	a5,-44(s0)
 786 00fe E207     		slli	a5,a5,24
 124:../Firmware/RISCV/drivers/core_compatiable.h ****         | ((value & 0x00ff0000) >> 8 )
 787              		.loc 2 124 12
 788 0100 D98F     		or	a5,a4,a5
 789 0102 2328F4FC 		sw	a5,-48(s0)
 790              		.loc 2 128 12
 791 0106 832704FD 		lw	a5,-48(s0)
 792              	.LBE113:
 793              	.LBE112:
 794              		.loc 1 277 26
 795 010a 232EF4F8 		sw	a5,-100(s0)
 278:../Firmware/GD32VW55x_standard_peripheral/Source/gd32vw55x_cau_aes.c ****     ivaddr += 4U;
 796              		.loc 1 278 12
 797 010e 832784FE 		lw	a5,-24(s0)
 798 0112 9107     		addi	a5,a5,4
 799 0114 2324F4FE 		sw	a5,-24(s0)
 279:../Firmware/GD32VW55x_standard_peripheral/Source/gd32vw55x_cau_aes.c ****     iv_initpara.iv_1_high = __REV(*(uint32_t *)(ivaddr));
 800              		.loc 1 279 36
 801 0118 832784FE 		lw	a5,-24(s0)
 802              		.loc 1 279 29
 803 011c 9C43     		lw	a5,0(a5)
 804 011e 232EF4FC 		sw	a5,-36(s0)
 805              	.LBB114:
 806              	.LBB115:
 124:../Firmware/RISCV/drivers/core_compatiable.h ****         | ((value & 0x00ff0000) >> 8 )
 807              		.loc 2 124 37
 808 0122 8327C4FD 		lw	a5,-36(s0)
 809 0126 13D78701 		srli	a4,a5,24
 125:../Firmware/RISCV/drivers/core_compatiable.h ****         | ((value & 0x0000ff00) << 8 )
 810              		.loc 2 125 33
 811 012a 8327C4FD 		lw	a5,-36(s0)
 812 012e 93D68700 		srli	a3,a5,8
 813 0132 C167     		li	a5,65536
 814 0134 938707F0 		addi	a5,a5,-256
 815 0138 F58F     		and	a5,a3,a5
 125:../Firmware/RISCV/drivers/core_compatiable.h ****         | ((value & 0x0000ff00) << 8 )
 816              		.loc 2 125 9
 817 013a 5D8F     		or	a4,a4,a5
 126:../Firmware/RISCV/drivers/core_compatiable.h ****         | ((value & 0x000000ff) << 24);
 818              		.loc 2 126 33
 819 013c 8327C4FD 		lw	a5,-36(s0)
 820 0140 93968700 		slli	a3,a5,8
 821 0144 B707FF00 		li	a5,16711680
 822 0148 F58F     		and	a5,a3,a5
 126:../Firmware/RISCV/drivers/core_compatiable.h ****         | ((value & 0x000000ff) << 24);
 823              		.loc 2 126 9
 824 014a 5D8F     		or	a4,a4,a5
 127:../Firmware/RISCV/drivers/core_compatiable.h ****     return result;
 825              		.loc 2 127 33
 826 014c 8327C4FD 		lw	a5,-36(s0)
 827 0150 E207     		slli	a5,a5,24
 124:../Firmware/RISCV/drivers/core_compatiable.h ****         | ((value & 0x00ff0000) >> 8 )
 828              		.loc 2 124 12
 829 0152 D98F     		or	a5,a4,a5
 830 0154 232CF4FC 		sw	a5,-40(s0)
 831              		.loc 2 128 12
 832 0158 832784FD 		lw	a5,-40(s0)
 833              	.LBE115:
 834              	.LBE114:
 835              		.loc 1 279 27
 836 015c 2320F4FA 		sw	a5,-96(s0)
 280:../Firmware/GD32VW55x_standard_peripheral/Source/gd32vw55x_cau_aes.c ****     ivaddr += 4U;
 837              		.loc 1 280 12
 838 0160 832784FE 		lw	a5,-24(s0)
 839 0164 9107     		addi	a5,a5,4
 840 0166 2324F4FE 		sw	a5,-24(s0)
 281:../Firmware/GD32VW55x_standard_peripheral/Source/gd32vw55x_cau_aes.c ****     iv_initpara.iv_1_low = __REV(*(uint32_t *)(ivaddr));
 841              		.loc 1 281 35
 842 016a 832784FE 		lw	a5,-24(s0)
 843              		.loc 1 281 28
 844 016e 9C43     		lw	a5,0(a5)
 845 0170 2322F4FE 		sw	a5,-28(s0)
 846              	.LBB116:
 847              	.LBB117:
 124:../Firmware/RISCV/drivers/core_compatiable.h ****         | ((value & 0x00ff0000) >> 8 )
 848              		.loc 2 124 37
 849 0174 832744FE 		lw	a5,-28(s0)
 850 0178 13D78701 		srli	a4,a5,24
 125:../Firmware/RISCV/drivers/core_compatiable.h ****         | ((value & 0x0000ff00) << 8 )
 851              		.loc 2 125 33
 852 017c 832744FE 		lw	a5,-28(s0)
 853 0180 93D68700 		srli	a3,a5,8
 854 0184 C167     		li	a5,65536
 855 0186 938707F0 		addi	a5,a5,-256
 856 018a F58F     		and	a5,a3,a5
 125:../Firmware/RISCV/drivers/core_compatiable.h ****         | ((value & 0x0000ff00) << 8 )
 857              		.loc 2 125 9
 858 018c 5D8F     		or	a4,a4,a5
 126:../Firmware/RISCV/drivers/core_compatiable.h ****         | ((value & 0x000000ff) << 24);
 859              		.loc 2 126 33
 860 018e 832744FE 		lw	a5,-28(s0)
 861 0192 93968700 		slli	a3,a5,8
 862 0196 B707FF00 		li	a5,16711680
 863 019a F58F     		and	a5,a3,a5
 126:../Firmware/RISCV/drivers/core_compatiable.h ****         | ((value & 0x000000ff) << 24);
 864              		.loc 2 126 9
 865 019c 5D8F     		or	a4,a4,a5
 127:../Firmware/RISCV/drivers/core_compatiable.h ****     return result;
 866              		.loc 2 127 33
 867 019e 832744FE 		lw	a5,-28(s0)
 868 01a2 E207     		slli	a5,a5,24
 124:../Firmware/RISCV/drivers/core_compatiable.h ****         | ((value & 0x00ff0000) >> 8 )
 869              		.loc 2 124 12
 870 01a4 D98F     		or	a5,a4,a5
 871 01a6 2320F4FE 		sw	a5,-32(s0)
 872              		.loc 2 128 12
 873 01aa 832704FE 		lw	a5,-32(s0)
 874              	.LBE117:
 875              	.LBE116:
 876              		.loc 1 281 26
 877 01ae 2322F4FA 		sw	a5,-92(s0)
 282:../Firmware/GD32VW55x_standard_peripheral/Source/gd32vw55x_cau_aes.c ****     cau_iv_init(&iv_initpara);
 878              		.loc 1 282 5
 879 01b2 930784F9 		addi	a5,s0,-104
 880 01b6 3E85     		mv	a0,a5
 881 01b8 97000000 		call	cau_iv_init
 881      E7800000 
 283:../Firmware/GD32VW55x_standard_peripheral/Source/gd32vw55x_cau_aes.c **** 
 284:../Firmware/GD32VW55x_standard_peripheral/Source/gd32vw55x_cau_aes.c ****     /* flush the IN and OUT FIFOs */
 285:../Firmware/GD32VW55x_standard_peripheral/Source/gd32vw55x_cau_aes.c ****     cau_fifo_flush();
 882              		.loc 1 285 5
 883 01c0 97000000 		call	cau_fifo_flush
 883      E7800000 
 286:../Firmware/GD32VW55x_standard_peripheral/Source/gd32vw55x_cau_aes.c ****     /* enable the CAU peripheral */
 287:../Firmware/GD32VW55x_standard_peripheral/Source/gd32vw55x_cau_aes.c ****     cau_enable();
 884              		.loc 1 287 5
 885 01c8 97000000 		call	cau_enable
 885      E7800000 
 288:../Firmware/GD32VW55x_standard_peripheral/Source/gd32vw55x_cau_aes.c ****     /* AES calculate process */
 289:../Firmware/GD32VW55x_standard_peripheral/Source/gd32vw55x_cau_aes.c ****     ret = cau_aes_calculate(cau_parameter->input, cau_parameter->in_length, output);
 886              		.loc 1 289 11
 887 01d0 8327C4F8 		lw	a5,-116(s0)
 888 01d4 D84B     		lw	a4,20(a5)
 889 01d6 8327C4F8 		lw	a5,-116(s0)
 890 01da 9C4F     		lw	a5,24(a5)
 891 01dc 032684F8 		lw	a2,-120(s0)
 892 01e0 BE85     		mv	a1,a5
 893 01e2 3A85     		mv	a0,a4
 894 01e4 97000000 		call	cau_aes_calculate
 894      E7800000 
 895 01ec 2326A4FE 		sw	a0,-20(s0)
 290:../Firmware/GD32VW55x_standard_peripheral/Source/gd32vw55x_cau_aes.c ****     /* disable the CAU peripheral */
 291:../Firmware/GD32VW55x_standard_peripheral/Source/gd32vw55x_cau_aes.c ****     cau_disable();
 896              		.loc 1 291 5
 897 01f0 97000000 		call	cau_disable
 897      E7800000 
 292:../Firmware/GD32VW55x_standard_peripheral/Source/gd32vw55x_cau_aes.c **** 
 293:../Firmware/GD32VW55x_standard_peripheral/Source/gd32vw55x_cau_aes.c ****     return ret;
 898              		.loc 1 293 12
 899 01f8 8327C4FE 		lw	a5,-20(s0)
 294:../Firmware/GD32VW55x_standard_peripheral/Source/gd32vw55x_cau_aes.c **** }
 900              		.loc 1 294 1
 901 01fc 3E85     		mv	a0,a5
 902 01fe F650     		lw	ra,124(sp)
 903              		.cfi_restore 1
 904 0200 6654     		lw	s0,120(sp)
 905              		.cfi_restore 8
 906              		.cfi_def_cfa 2, 128
 907 0202 0961     		addi	sp,sp,128
 908              		.cfi_def_cfa_offset 0
 909 0204 8280     		jr	ra
 910              		.cfi_endproc
 911              	.LFE351:
 913              		.section	.text.cau_aes_ofb,"ax",@progbits
 914              		.align	1
 915              		.globl	cau_aes_ofb
 917              	cau_aes_ofb:
 918              	.LFB352:
 295:../Firmware/GD32VW55x_standard_peripheral/Source/gd32vw55x_cau_aes.c **** 
 296:../Firmware/GD32VW55x_standard_peripheral/Source/gd32vw55x_cau_aes.c **** /*!
 297:../Firmware/GD32VW55x_standard_peripheral/Source/gd32vw55x_cau_aes.c ****     \brief      encrypt and decrypt using AES in OFB mode
 298:../Firmware/GD32VW55x_standard_peripheral/Source/gd32vw55x_cau_aes.c ****     \param[in]  cau_parameter: pointer to the input structure
 299:../Firmware/GD32VW55x_standard_peripheral/Source/gd32vw55x_cau_aes.c ****                   alg_dir: algorithm direction
 300:../Firmware/GD32VW55x_standard_peripheral/Source/gd32vw55x_cau_aes.c ****                     CAU_ENCRYPT, CAU_DECRYPT
 301:../Firmware/GD32VW55x_standard_peripheral/Source/gd32vw55x_cau_aes.c ****                   key: key (in bytes)
 302:../Firmware/GD32VW55x_standard_peripheral/Source/gd32vw55x_cau_aes.c ****                   key_size: key size in bits, must be either 128, 192 or 256
 303:../Firmware/GD32VW55x_standard_peripheral/Source/gd32vw55x_cau_aes.c ****                   iv: initialization vector, 16 bytes (in bytes)
 304:../Firmware/GD32VW55x_standard_peripheral/Source/gd32vw55x_cau_aes.c ****                   input: input data (in bytes)
 305:../Firmware/GD32VW55x_standard_peripheral/Source/gd32vw55x_cau_aes.c ****                   in_length: input data length in bytes, must be a multiple of 16 bytes
 306:../Firmware/GD32VW55x_standard_peripheral/Source/gd32vw55x_cau_aes.c ****     \param[out] output: pointer to the returned buffer
 307:../Firmware/GD32VW55x_standard_peripheral/Source/gd32vw55x_cau_aes.c ****     \retval     ErrStatus: SUCCESS or ERROR
 308:../Firmware/GD32VW55x_standard_peripheral/Source/gd32vw55x_cau_aes.c **** */
 309:../Firmware/GD32VW55x_standard_peripheral/Source/gd32vw55x_cau_aes.c **** ErrStatus cau_aes_ofb(cau_parameter_struct *cau_parameter, uint8_t *output)
 310:../Firmware/GD32VW55x_standard_peripheral/Source/gd32vw55x_cau_aes.c **** {
 919              		.loc 1 310 1
 920              		.cfi_startproc
 921 0000 1971     		addi	sp,sp,-128
 922              		.cfi_def_cfa_offset 128
 923 0002 86DE     		sw	ra,124(sp)
 924 0004 A2DC     		sw	s0,120(sp)
 925              		.cfi_offset 1, -4
 926              		.cfi_offset 8, -8
 927 0006 0001     		addi	s0,sp,128
 928              		.cfi_def_cfa 8, 0
 929 0008 2326A4F8 		sw	a0,-116(s0)
 930 000c 2324B4F8 		sw	a1,-120(s0)
 311:../Firmware/GD32VW55x_standard_peripheral/Source/gd32vw55x_cau_aes.c ****     ErrStatus ret = ERROR;
 931              		.loc 1 311 15
 932 0010 232604FE 		sw	zero,-20(s0)
 312:../Firmware/GD32VW55x_standard_peripheral/Source/gd32vw55x_cau_aes.c ****     cau_key_parameter_struct key_initpara;
 313:../Firmware/GD32VW55x_standard_peripheral/Source/gd32vw55x_cau_aes.c ****     cau_iv_parameter_struct iv_initpara;
 314:../Firmware/GD32VW55x_standard_peripheral/Source/gd32vw55x_cau_aes.c ****     uint32_t ivaddr = (uint32_t)cau_parameter->iv;
 933              		.loc 1 314 46
 934 0014 8327C4F8 		lw	a5,-116(s0)
 935 0018 DC47     		lw	a5,12(a5)
 936              		.loc 1 314 14
 937 001a 2324F4FE 		sw	a5,-24(s0)
 315:../Firmware/GD32VW55x_standard_peripheral/Source/gd32vw55x_cau_aes.c **** 
 316:../Firmware/GD32VW55x_standard_peripheral/Source/gd32vw55x_cau_aes.c ****     /* key structure initialization */
 317:../Firmware/GD32VW55x_standard_peripheral/Source/gd32vw55x_cau_aes.c ****     cau_key_struct_para_init(&key_initpara);
 938              		.loc 1 317 5
 939 001e 930784FA 		addi	a5,s0,-88
 940 0022 3E85     		mv	a0,a5
 941 0024 97000000 		call	cau_key_struct_para_init
 941      E7800000 
 318:../Firmware/GD32VW55x_standard_peripheral/Source/gd32vw55x_cau_aes.c ****     /* initialize the CAU peripheral */
 319:../Firmware/GD32VW55x_standard_peripheral/Source/gd32vw55x_cau_aes.c ****     cau_init(cau_parameter->alg_dir, CAU_MODE_AES_OFB, CAU_SWAPPING_8BIT);
 942              		.loc 1 319 5
 943 002c 8327C4F8 		lw	a5,-116(s0)
 944 0030 9843     		lw	a4,0(a5)
 945 0032 13060008 		li	a2,128
 946 0036 B7070800 		li	a5,524288
 947 003a 93858701 		addi	a1,a5,24
 948 003e 3A85     		mv	a0,a4
 949 0040 97000000 		call	cau_init
 949      E7800000 
 320:../Firmware/GD32VW55x_standard_peripheral/Source/gd32vw55x_cau_aes.c **** 
 321:../Firmware/GD32VW55x_standard_peripheral/Source/gd32vw55x_cau_aes.c ****     /* AES key structure parameter config */
 322:../Firmware/GD32VW55x_standard_peripheral/Source/gd32vw55x_cau_aes.c ****     cau_aes_key_config(cau_parameter->key, cau_parameter->key_size, &key_initpara);
 950              		.loc 1 322 5
 951 0048 8327C4F8 		lw	a5,-116(s0)
 952 004c D843     		lw	a4,4(a5)
 953 004e 8327C4F8 		lw	a5,-116(s0)
 954 0052 9C47     		lw	a5,8(a5)
 955 0054 930684FA 		addi	a3,s0,-88
 956 0058 3686     		mv	a2,a3
 957 005a BE85     		mv	a1,a5
 958 005c 3A85     		mv	a0,a4
 959 005e 97000000 		call	cau_aes_key_config
 959      E7800000 
 323:../Firmware/GD32VW55x_standard_peripheral/Source/gd32vw55x_cau_aes.c ****     /* key initialization */
 324:../Firmware/GD32VW55x_standard_peripheral/Source/gd32vw55x_cau_aes.c ****     cau_key_init(&key_initpara);
 960              		.loc 1 324 5
 961 0066 930784FA 		addi	a5,s0,-88
 962 006a 3E85     		mv	a0,a5
 963 006c 97000000 		call	cau_key_init
 963      E7800000 
 325:../Firmware/GD32VW55x_standard_peripheral/Source/gd32vw55x_cau_aes.c **** 
 326:../Firmware/GD32VW55x_standard_peripheral/Source/gd32vw55x_cau_aes.c ****     /* vectors initialization */
 327:../Firmware/GD32VW55x_standard_peripheral/Source/gd32vw55x_cau_aes.c ****     iv_initpara.iv_0_high = __REV(*(uint32_t *)(ivaddr));
 964              		.loc 1 327 36
 965 0074 832784FE 		lw	a5,-24(s0)
 966              		.loc 1 327 29
 967 0078 9C43     		lw	a5,0(a5)
 968 007a 2326F4FC 		sw	a5,-52(s0)
 969              	.LBB118:
 970              	.LBB119:
 124:../Firmware/RISCV/drivers/core_compatiable.h ****         | ((value & 0x00ff0000) >> 8 )
 971              		.loc 2 124 37
 972 007e 8327C4FC 		lw	a5,-52(s0)
 973 0082 13D78701 		srli	a4,a5,24
 125:../Firmware/RISCV/drivers/core_compatiable.h ****         | ((value & 0x0000ff00) << 8 )
 974              		.loc 2 125 33
 975 0086 8327C4FC 		lw	a5,-52(s0)
 976 008a 93D68700 		srli	a3,a5,8
 977 008e C167     		li	a5,65536
 978 0090 938707F0 		addi	a5,a5,-256
 979 0094 F58F     		and	a5,a3,a5
 125:../Firmware/RISCV/drivers/core_compatiable.h ****         | ((value & 0x0000ff00) << 8 )
 980              		.loc 2 125 9
 981 0096 5D8F     		or	a4,a4,a5
 126:../Firmware/RISCV/drivers/core_compatiable.h ****         | ((value & 0x000000ff) << 24);
 982              		.loc 2 126 33
 983 0098 8327C4FC 		lw	a5,-52(s0)
 984 009c 93968700 		slli	a3,a5,8
 985 00a0 B707FF00 		li	a5,16711680
 986 00a4 F58F     		and	a5,a3,a5
 126:../Firmware/RISCV/drivers/core_compatiable.h ****         | ((value & 0x000000ff) << 24);
 987              		.loc 2 126 9
 988 00a6 5D8F     		or	a4,a4,a5
 127:../Firmware/RISCV/drivers/core_compatiable.h ****     return result;
 989              		.loc 2 127 33
 990 00a8 8327C4FC 		lw	a5,-52(s0)
 991 00ac E207     		slli	a5,a5,24
 124:../Firmware/RISCV/drivers/core_compatiable.h ****         | ((value & 0x00ff0000) >> 8 )
 992              		.loc 2 124 12
 993 00ae D98F     		or	a5,a4,a5
 994 00b0 2324F4FC 		sw	a5,-56(s0)
 995              		.loc 2 128 12
 996 00b4 832784FC 		lw	a5,-56(s0)
 997              	.LBE119:
 998              	.LBE118:
 999              		.loc 1 327 27
 1000 00b8 232CF4F8 		sw	a5,-104(s0)
 328:../Firmware/GD32VW55x_standard_peripheral/Source/gd32vw55x_cau_aes.c ****     ivaddr += 4U;
 1001              		.loc 1 328 12
 1002 00bc 832784FE 		lw	a5,-24(s0)
 1003 00c0 9107     		addi	a5,a5,4
 1004 00c2 2324F4FE 		sw	a5,-24(s0)
 329:../Firmware/GD32VW55x_standard_peripheral/Source/gd32vw55x_cau_aes.c ****     iv_initpara.iv_0_low = __REV(*(uint32_t *)(ivaddr));
 1005              		.loc 1 329 35
 1006 00c6 832784FE 		lw	a5,-24(s0)
 1007              		.loc 1 329 28
 1008 00ca 9C43     		lw	a5,0(a5)
 1009 00cc 232AF4FC 		sw	a5,-44(s0)
 1010              	.LBB120:
 1011              	.LBB121:
 124:../Firmware/RISCV/drivers/core_compatiable.h ****         | ((value & 0x00ff0000) >> 8 )
 1012              		.loc 2 124 37
 1013 00d0 832744FD 		lw	a5,-44(s0)
 1014 00d4 13D78701 		srli	a4,a5,24
 125:../Firmware/RISCV/drivers/core_compatiable.h ****         | ((value & 0x0000ff00) << 8 )
 1015              		.loc 2 125 33
 1016 00d8 832744FD 		lw	a5,-44(s0)
 1017 00dc 93D68700 		srli	a3,a5,8
 1018 00e0 C167     		li	a5,65536
 1019 00e2 938707F0 		addi	a5,a5,-256
 1020 00e6 F58F     		and	a5,a3,a5
 125:../Firmware/RISCV/drivers/core_compatiable.h ****         | ((value & 0x0000ff00) << 8 )
 1021              		.loc 2 125 9
 1022 00e8 5D8F     		or	a4,a4,a5
 126:../Firmware/RISCV/drivers/core_compatiable.h ****         | ((value & 0x000000ff) << 24);
 1023              		.loc 2 126 33
 1024 00ea 832744FD 		lw	a5,-44(s0)
 1025 00ee 93968700 		slli	a3,a5,8
 1026 00f2 B707FF00 		li	a5,16711680
 1027 00f6 F58F     		and	a5,a3,a5
 126:../Firmware/RISCV/drivers/core_compatiable.h ****         | ((value & 0x000000ff) << 24);
 1028              		.loc 2 126 9
 1029 00f8 5D8F     		or	a4,a4,a5
 127:../Firmware/RISCV/drivers/core_compatiable.h ****     return result;
 1030              		.loc 2 127 33
 1031 00fa 832744FD 		lw	a5,-44(s0)
 1032 00fe E207     		slli	a5,a5,24
 124:../Firmware/RISCV/drivers/core_compatiable.h ****         | ((value & 0x00ff0000) >> 8 )
 1033              		.loc 2 124 12
 1034 0100 D98F     		or	a5,a4,a5
 1035 0102 2328F4FC 		sw	a5,-48(s0)
 1036              		.loc 2 128 12
 1037 0106 832704FD 		lw	a5,-48(s0)
 1038              	.LBE121:
 1039              	.LBE120:
 1040              		.loc 1 329 26
 1041 010a 232EF4F8 		sw	a5,-100(s0)
 330:../Firmware/GD32VW55x_standard_peripheral/Source/gd32vw55x_cau_aes.c ****     ivaddr += 4U;
 1042              		.loc 1 330 12
 1043 010e 832784FE 		lw	a5,-24(s0)
 1044 0112 9107     		addi	a5,a5,4
 1045 0114 2324F4FE 		sw	a5,-24(s0)
 331:../Firmware/GD32VW55x_standard_peripheral/Source/gd32vw55x_cau_aes.c ****     iv_initpara.iv_1_high = __REV(*(uint32_t *)(ivaddr));
 1046              		.loc 1 331 36
 1047 0118 832784FE 		lw	a5,-24(s0)
 1048              		.loc 1 331 29
 1049 011c 9C43     		lw	a5,0(a5)
 1050 011e 232EF4FC 		sw	a5,-36(s0)
 1051              	.LBB122:
 1052              	.LBB123:
 124:../Firmware/RISCV/drivers/core_compatiable.h ****         | ((value & 0x00ff0000) >> 8 )
 1053              		.loc 2 124 37
 1054 0122 8327C4FD 		lw	a5,-36(s0)
 1055 0126 13D78701 		srli	a4,a5,24
 125:../Firmware/RISCV/drivers/core_compatiable.h ****         | ((value & 0x0000ff00) << 8 )
 1056              		.loc 2 125 33
 1057 012a 8327C4FD 		lw	a5,-36(s0)
 1058 012e 93D68700 		srli	a3,a5,8
 1059 0132 C167     		li	a5,65536
 1060 0134 938707F0 		addi	a5,a5,-256
 1061 0138 F58F     		and	a5,a3,a5
 125:../Firmware/RISCV/drivers/core_compatiable.h ****         | ((value & 0x0000ff00) << 8 )
 1062              		.loc 2 125 9
 1063 013a 5D8F     		or	a4,a4,a5
 126:../Firmware/RISCV/drivers/core_compatiable.h ****         | ((value & 0x000000ff) << 24);
 1064              		.loc 2 126 33
 1065 013c 8327C4FD 		lw	a5,-36(s0)
 1066 0140 93968700 		slli	a3,a5,8
 1067 0144 B707FF00 		li	a5,16711680
 1068 0148 F58F     		and	a5,a3,a5
 126:../Firmware/RISCV/drivers/core_compatiable.h ****         | ((value & 0x000000ff) << 24);
 1069              		.loc 2 126 9
 1070 014a 5D8F     		or	a4,a4,a5
 127:../Firmware/RISCV/drivers/core_compatiable.h ****     return result;
 1071              		.loc 2 127 33
 1072 014c 8327C4FD 		lw	a5,-36(s0)
 1073 0150 E207     		slli	a5,a5,24
 124:../Firmware/RISCV/drivers/core_compatiable.h ****         | ((value & 0x00ff0000) >> 8 )
 1074              		.loc 2 124 12
 1075 0152 D98F     		or	a5,a4,a5
 1076 0154 232CF4FC 		sw	a5,-40(s0)
 1077              		.loc 2 128 12
 1078 0158 832784FD 		lw	a5,-40(s0)
 1079              	.LBE123:
 1080              	.LBE122:
 1081              		.loc 1 331 27
 1082 015c 2320F4FA 		sw	a5,-96(s0)
 332:../Firmware/GD32VW55x_standard_peripheral/Source/gd32vw55x_cau_aes.c ****     ivaddr += 4U;
 1083              		.loc 1 332 12
 1084 0160 832784FE 		lw	a5,-24(s0)
 1085 0164 9107     		addi	a5,a5,4
 1086 0166 2324F4FE 		sw	a5,-24(s0)
 333:../Firmware/GD32VW55x_standard_peripheral/Source/gd32vw55x_cau_aes.c ****     iv_initpara.iv_1_low = __REV(*(uint32_t *)(ivaddr));
 1087              		.loc 1 333 35
 1088 016a 832784FE 		lw	a5,-24(s0)
 1089              		.loc 1 333 28
 1090 016e 9C43     		lw	a5,0(a5)
 1091 0170 2322F4FE 		sw	a5,-28(s0)
 1092              	.LBB124:
 1093              	.LBB125:
 124:../Firmware/RISCV/drivers/core_compatiable.h ****         | ((value & 0x00ff0000) >> 8 )
 1094              		.loc 2 124 37
 1095 0174 832744FE 		lw	a5,-28(s0)
 1096 0178 13D78701 		srli	a4,a5,24
 125:../Firmware/RISCV/drivers/core_compatiable.h ****         | ((value & 0x0000ff00) << 8 )
 1097              		.loc 2 125 33
 1098 017c 832744FE 		lw	a5,-28(s0)
 1099 0180 93D68700 		srli	a3,a5,8
 1100 0184 C167     		li	a5,65536
 1101 0186 938707F0 		addi	a5,a5,-256
 1102 018a F58F     		and	a5,a3,a5
 125:../Firmware/RISCV/drivers/core_compatiable.h ****         | ((value & 0x0000ff00) << 8 )
 1103              		.loc 2 125 9
 1104 018c 5D8F     		or	a4,a4,a5
 126:../Firmware/RISCV/drivers/core_compatiable.h ****         | ((value & 0x000000ff) << 24);
 1105              		.loc 2 126 33
 1106 018e 832744FE 		lw	a5,-28(s0)
 1107 0192 93968700 		slli	a3,a5,8
 1108 0196 B707FF00 		li	a5,16711680
 1109 019a F58F     		and	a5,a3,a5
 126:../Firmware/RISCV/drivers/core_compatiable.h ****         | ((value & 0x000000ff) << 24);
 1110              		.loc 2 126 9
 1111 019c 5D8F     		or	a4,a4,a5
 127:../Firmware/RISCV/drivers/core_compatiable.h ****     return result;
 1112              		.loc 2 127 33
 1113 019e 832744FE 		lw	a5,-28(s0)
 1114 01a2 E207     		slli	a5,a5,24
 124:../Firmware/RISCV/drivers/core_compatiable.h ****         | ((value & 0x00ff0000) >> 8 )
 1115              		.loc 2 124 12
 1116 01a4 D98F     		or	a5,a4,a5
 1117 01a6 2320F4FE 		sw	a5,-32(s0)
 1118              		.loc 2 128 12
 1119 01aa 832704FE 		lw	a5,-32(s0)
 1120              	.LBE125:
 1121              	.LBE124:
 1122              		.loc 1 333 26
 1123 01ae 2322F4FA 		sw	a5,-92(s0)
 334:../Firmware/GD32VW55x_standard_peripheral/Source/gd32vw55x_cau_aes.c ****     cau_iv_init(&iv_initpara);
 1124              		.loc 1 334 5
 1125 01b2 930784F9 		addi	a5,s0,-104
 1126 01b6 3E85     		mv	a0,a5
 1127 01b8 97000000 		call	cau_iv_init
 1127      E7800000 
 335:../Firmware/GD32VW55x_standard_peripheral/Source/gd32vw55x_cau_aes.c **** 
 336:../Firmware/GD32VW55x_standard_peripheral/Source/gd32vw55x_cau_aes.c ****     /* flush the IN and OUT FIFOs */
 337:../Firmware/GD32VW55x_standard_peripheral/Source/gd32vw55x_cau_aes.c ****     cau_fifo_flush();
 1128              		.loc 1 337 5
 1129 01c0 97000000 		call	cau_fifo_flush
 1129      E7800000 
 338:../Firmware/GD32VW55x_standard_peripheral/Source/gd32vw55x_cau_aes.c ****     /* enable the CAU peripheral */
 339:../Firmware/GD32VW55x_standard_peripheral/Source/gd32vw55x_cau_aes.c ****     cau_enable();
 1130              		.loc 1 339 5
 1131 01c8 97000000 		call	cau_enable
 1131      E7800000 
 340:../Firmware/GD32VW55x_standard_peripheral/Source/gd32vw55x_cau_aes.c ****     /* AES calculate process */
 341:../Firmware/GD32VW55x_standard_peripheral/Source/gd32vw55x_cau_aes.c ****     ret = cau_aes_calculate(cau_parameter->input, cau_parameter->in_length, output);
 1132              		.loc 1 341 11
 1133 01d0 8327C4F8 		lw	a5,-116(s0)
 1134 01d4 D84B     		lw	a4,20(a5)
 1135 01d6 8327C4F8 		lw	a5,-116(s0)
 1136 01da 9C4F     		lw	a5,24(a5)
 1137 01dc 032684F8 		lw	a2,-120(s0)
 1138 01e0 BE85     		mv	a1,a5
 1139 01e2 3A85     		mv	a0,a4
 1140 01e4 97000000 		call	cau_aes_calculate
 1140      E7800000 
 1141 01ec 2326A4FE 		sw	a0,-20(s0)
 342:../Firmware/GD32VW55x_standard_peripheral/Source/gd32vw55x_cau_aes.c ****     /* disable the CAU peripheral */
 343:../Firmware/GD32VW55x_standard_peripheral/Source/gd32vw55x_cau_aes.c ****     cau_disable();
 1142              		.loc 1 343 5
 1143 01f0 97000000 		call	cau_disable
 1143      E7800000 
 344:../Firmware/GD32VW55x_standard_peripheral/Source/gd32vw55x_cau_aes.c **** 
 345:../Firmware/GD32VW55x_standard_peripheral/Source/gd32vw55x_cau_aes.c ****     return ret;
 1144              		.loc 1 345 12
 1145 01f8 8327C4FE 		lw	a5,-20(s0)
 346:../Firmware/GD32VW55x_standard_peripheral/Source/gd32vw55x_cau_aes.c **** }
 1146              		.loc 1 346 1
 1147 01fc 3E85     		mv	a0,a5
 1148 01fe F650     		lw	ra,124(sp)
 1149              		.cfi_restore 1
 1150 0200 6654     		lw	s0,120(sp)
 1151              		.cfi_restore 8
 1152              		.cfi_def_cfa 2, 128
 1153 0202 0961     		addi	sp,sp,128
 1154              		.cfi_def_cfa_offset 0
 1155 0204 8280     		jr	ra
 1156              		.cfi_endproc
 1157              	.LFE352:
 1159              		.section	.text.cau_aes_gcm,"ax",@progbits
 1160              		.align	1
 1161              		.globl	cau_aes_gcm
 1163              	cau_aes_gcm:
 1164              	.LFB353:
 347:../Firmware/GD32VW55x_standard_peripheral/Source/gd32vw55x_cau_aes.c **** 
 348:../Firmware/GD32VW55x_standard_peripheral/Source/gd32vw55x_cau_aes.c **** /*!
 349:../Firmware/GD32VW55x_standard_peripheral/Source/gd32vw55x_cau_aes.c ****     \brief      encrypt and decrypt using AES in GCM mode
 350:../Firmware/GD32VW55x_standard_peripheral/Source/gd32vw55x_cau_aes.c ****     \param[in]  cau_parameter: pointer to the input structure
 351:../Firmware/GD32VW55x_standard_peripheral/Source/gd32vw55x_cau_aes.c ****                   alg_dir: algorithm direction
 352:../Firmware/GD32VW55x_standard_peripheral/Source/gd32vw55x_cau_aes.c ****                     CAU_ENCRYPT, CAU_DECRYPT
 353:../Firmware/GD32VW55x_standard_peripheral/Source/gd32vw55x_cau_aes.c ****                   key: key (in bytes)
 354:../Firmware/GD32VW55x_standard_peripheral/Source/gd32vw55x_cau_aes.c ****                   key_size: key size in bits, must be either 128, 192 or 256
 355:../Firmware/GD32VW55x_standard_peripheral/Source/gd32vw55x_cau_aes.c ****                   iv: initialization vector, 16 bytes
 356:../Firmware/GD32VW55x_standard_peripheral/Source/gd32vw55x_cau_aes.c ****                   input: input data
 357:../Firmware/GD32VW55x_standard_peripheral/Source/gd32vw55x_cau_aes.c ****                   in_length: input data length in bytes, must be a multiple of 16 bytes
 358:../Firmware/GD32VW55x_standard_peripheral/Source/gd32vw55x_cau_aes.c ****                   aad: additional authentication data
 359:../Firmware/GD32VW55x_standard_peripheral/Source/gd32vw55x_cau_aes.c ****                   aad_size: aad size in bytes, must be a multiple of 16 bytes
 360:../Firmware/GD32VW55x_standard_peripheral/Source/gd32vw55x_cau_aes.c ****     \param[out] output: pointer to the returned output data buffer
 361:../Firmware/GD32VW55x_standard_peripheral/Source/gd32vw55x_cau_aes.c ****     \param[out] tag: pointer to the returned tag buffer
 362:../Firmware/GD32VW55x_standard_peripheral/Source/gd32vw55x_cau_aes.c ****     \retval     ErrStatus: SUCCESS or ERROR
 363:../Firmware/GD32VW55x_standard_peripheral/Source/gd32vw55x_cau_aes.c **** */
 364:../Firmware/GD32VW55x_standard_peripheral/Source/gd32vw55x_cau_aes.c **** ErrStatus cau_aes_gcm(cau_parameter_struct *cau_parameter, uint8_t *output, uint8_t *tag)
 365:../Firmware/GD32VW55x_standard_peripheral/Source/gd32vw55x_cau_aes.c **** {
 1165              		.loc 1 365 1
 1166              		.cfi_startproc
 1167 0000 3171     		addi	sp,sp,-192
 1168              		.cfi_def_cfa_offset 192
 1169 0002 06DF     		sw	ra,188(sp)
 1170 0004 22DD     		sw	s0,184(sp)
 1171 0006 26DB     		sw	s1,180(sp)
 1172 0008 4AD9     		sw	s2,176(sp)
 1173 000a 4ED7     		sw	s3,172(sp)
 1174 000c 52D5     		sw	s4,168(sp)
 1175 000e 56D3     		sw	s5,164(sp)
 1176              		.cfi_offset 1, -4
 1177              		.cfi_offset 8, -8
 1178              		.cfi_offset 9, -12
 1179              		.cfi_offset 18, -16
 1180              		.cfi_offset 19, -20
 1181              		.cfi_offset 20, -24
 1182              		.cfi_offset 21, -28
 1183 0010 8001     		addi	s0,sp,192
 1184              		.cfi_def_cfa 8, 0
 1185 0012 2326A4F4 		sw	a0,-180(s0)
 1186 0016 2324B4F4 		sw	a1,-184(s0)
 1187 001a 2322C4F4 		sw	a2,-188(s0)
 366:../Firmware/GD32VW55x_standard_peripheral/Source/gd32vw55x_cau_aes.c ****     ErrStatus ret = SUCCESS;
 1188              		.loc 1 366 15
 1189 001e 8546     		li	a3,1
 1190 0020 232ED4FC 		sw	a3,-36(s0)
 367:../Firmware/GD32VW55x_standard_peripheral/Source/gd32vw55x_cau_aes.c ****     cau_key_parameter_struct key_initpara;
 368:../Firmware/GD32VW55x_standard_peripheral/Source/gd32vw55x_cau_aes.c ****     cau_iv_parameter_struct iv_initpara;
 369:../Firmware/GD32VW55x_standard_peripheral/Source/gd32vw55x_cau_aes.c ****     uint64_t aadlength = (uint64_t)cau_parameter->aad_size * 8U;
 1191              		.loc 1 369 49
 1192 0024 8326C4F4 		lw	a3,-180(s0)
 1193 0028 9452     		lw	a3,32(a3)
 1194              		.loc 1 369 26
 1195 002a 3688     		mv	a6,a3
 1196 002c 8148     		li	a7,0
 1197              		.loc 1 369 14
 1198 002e 9356D801 		srli	a3,a6,29
 1199 0032 13963800 		slli	a2,a7,3
 1200 0036 D18E     		or	a3,a2,a3
 1201 0038 232AD4FC 		sw	a3,-44(s0)
 1202 003c 93163800 		slli	a3,a6,3
 1203 0040 2328D4FC 		sw	a3,-48(s0)
 370:../Firmware/GD32VW55x_standard_peripheral/Source/gd32vw55x_cau_aes.c ****     uint64_t inputlength = (uint64_t)cau_parameter->in_length * 8U;
 1204              		.loc 1 370 51
 1205 0044 8326C4F4 		lw	a3,-180(s0)
 1206 0048 944E     		lw	a3,24(a3)
 1207              		.loc 1 370 28
 1208 004a 3687     		mv	a4,a3
 1209 004c 8147     		li	a5,0
 1210              		.loc 1 370 14
 1211 004e 9356D701 		srli	a3,a4,29
 1212 0052 13963700 		slli	a2,a5,3
 1213 0056 D18E     		or	a3,a2,a3
 1214 0058 2326D4FC 		sw	a3,-52(s0)
 1215 005c 93173700 		slli	a5,a4,3
 1216 0060 2324F4FC 		sw	a5,-56(s0)
 371:../Firmware/GD32VW55x_standard_peripheral/Source/gd32vw55x_cau_aes.c ****     uint32_t ivaddr = (uint32_t)cau_parameter->iv;
 1217              		.loc 1 371 46
 1218 0064 8327C4F4 		lw	a5,-180(s0)
 1219 0068 DC47     		lw	a5,12(a5)
 1220              		.loc 1 371 14
 1221 006a 2322F4FC 		sw	a5,-60(s0)
 372:../Firmware/GD32VW55x_standard_peripheral/Source/gd32vw55x_cau_aes.c ****     uint32_t tagaddr = (uint32_t)tag;
 1222              		.loc 1 372 14
 1223 006e 832744F4 		lw	a5,-188(s0)
 1224 0072 2320F4FC 		sw	a5,-64(s0)
 373:../Firmware/GD32VW55x_standard_peripheral/Source/gd32vw55x_cau_aes.c **** 
 374:../Firmware/GD32VW55x_standard_peripheral/Source/gd32vw55x_cau_aes.c ****     /* key structure initialization */
 375:../Firmware/GD32VW55x_standard_peripheral/Source/gd32vw55x_cau_aes.c ****     cau_key_struct_para_init(&key_initpara);
 1225              		.loc 1 375 5
 1226 0076 930704F6 		addi	a5,s0,-160
 1227 007a 3E85     		mv	a0,a5
 1228 007c 97000000 		call	cau_key_struct_para_init
 1228      E7800000 
 376:../Firmware/GD32VW55x_standard_peripheral/Source/gd32vw55x_cau_aes.c ****     /* initialize the CAU peripheral */
 377:../Firmware/GD32VW55x_standard_peripheral/Source/gd32vw55x_cau_aes.c ****     cau_init(cau_parameter->alg_dir, CAU_MODE_AES_GCM, CAU_SWAPPING_8BIT);
 1229              		.loc 1 377 5
 1230 0084 8327C4F4 		lw	a5,-180(s0)
 1231 0088 9C43     		lw	a5,0(a5)
 1232 008a 13060008 		li	a2,128
 1233 008e B7050800 		li	a1,524288
 1234 0092 3E85     		mv	a0,a5
 1235 0094 97000000 		call	cau_init
 1235      E7800000 
 378:../Firmware/GD32VW55x_standard_peripheral/Source/gd32vw55x_cau_aes.c **** 
 379:../Firmware/GD32VW55x_standard_peripheral/Source/gd32vw55x_cau_aes.c ****     /* AES key structure parameter config */
 380:../Firmware/GD32VW55x_standard_peripheral/Source/gd32vw55x_cau_aes.c ****     cau_aes_key_config(cau_parameter->key, cau_parameter->key_size, &key_initpara);
 1236              		.loc 1 380 5
 1237 009c 8327C4F4 		lw	a5,-180(s0)
 1238 00a0 D843     		lw	a4,4(a5)
 1239 00a2 8327C4F4 		lw	a5,-180(s0)
 1240 00a6 9C47     		lw	a5,8(a5)
 1241 00a8 930604F6 		addi	a3,s0,-160
 1242 00ac 3686     		mv	a2,a3
 1243 00ae BE85     		mv	a1,a5
 1244 00b0 3A85     		mv	a0,a4
 1245 00b2 97000000 		call	cau_aes_key_config
 1245      E7800000 
 381:../Firmware/GD32VW55x_standard_peripheral/Source/gd32vw55x_cau_aes.c ****     /* key initialization */
 382:../Firmware/GD32VW55x_standard_peripheral/Source/gd32vw55x_cau_aes.c ****     cau_key_init(&key_initpara);
 1246              		.loc 1 382 5
 1247 00ba 930704F6 		addi	a5,s0,-160
 1248 00be 3E85     		mv	a0,a5
 1249 00c0 97000000 		call	cau_key_init
 1249      E7800000 
 383:../Firmware/GD32VW55x_standard_peripheral/Source/gd32vw55x_cau_aes.c **** 
 384:../Firmware/GD32VW55x_standard_peripheral/Source/gd32vw55x_cau_aes.c ****     /* vectors initialization */
 385:../Firmware/GD32VW55x_standard_peripheral/Source/gd32vw55x_cau_aes.c ****     iv_initpara.iv_0_high = __REV(*(uint32_t *)(ivaddr));
 1250              		.loc 1 385 36
 1251 00c8 832744FC 		lw	a5,-60(s0)
 1252              		.loc 1 385 29
 1253 00cc 9C43     		lw	a5,0(a5)
 1254 00ce 2322F4FA 		sw	a5,-92(s0)
 1255              	.LBB126:
 1256              	.LBB127:
 124:../Firmware/RISCV/drivers/core_compatiable.h ****         | ((value & 0x00ff0000) >> 8 )
 1257              		.loc 2 124 37
 1258 00d2 832744FA 		lw	a5,-92(s0)
 1259 00d6 13D78701 		srli	a4,a5,24
 125:../Firmware/RISCV/drivers/core_compatiable.h ****         | ((value & 0x0000ff00) << 8 )
 1260              		.loc 2 125 33
 1261 00da 832744FA 		lw	a5,-92(s0)
 1262 00de 93D68700 		srli	a3,a5,8
 1263 00e2 C167     		li	a5,65536
 1264 00e4 938707F0 		addi	a5,a5,-256
 1265 00e8 F58F     		and	a5,a3,a5
 125:../Firmware/RISCV/drivers/core_compatiable.h ****         | ((value & 0x0000ff00) << 8 )
 1266              		.loc 2 125 9
 1267 00ea 5D8F     		or	a4,a4,a5
 126:../Firmware/RISCV/drivers/core_compatiable.h ****         | ((value & 0x000000ff) << 24);
 1268              		.loc 2 126 33
 1269 00ec 832744FA 		lw	a5,-92(s0)
 1270 00f0 93968700 		slli	a3,a5,8
 1271 00f4 B707FF00 		li	a5,16711680
 1272 00f8 F58F     		and	a5,a3,a5
 126:../Firmware/RISCV/drivers/core_compatiable.h ****         | ((value & 0x000000ff) << 24);
 1273              		.loc 2 126 9
 1274 00fa 5D8F     		or	a4,a4,a5
 127:../Firmware/RISCV/drivers/core_compatiable.h ****     return result;
 1275              		.loc 2 127 33
 1276 00fc 832744FA 		lw	a5,-92(s0)
 1277 0100 E207     		slli	a5,a5,24
 124:../Firmware/RISCV/drivers/core_compatiable.h ****         | ((value & 0x00ff0000) >> 8 )
 1278              		.loc 2 124 12
 1279 0102 D98F     		or	a5,a4,a5
 1280 0104 2320F4FA 		sw	a5,-96(s0)
 1281              		.loc 2 128 12
 1282 0108 832704FA 		lw	a5,-96(s0)
 1283              	.LBE127:
 1284              	.LBE126:
 1285              		.loc 1 385 27
 1286 010c 2328F4F4 		sw	a5,-176(s0)
 386:../Firmware/GD32VW55x_standard_peripheral/Source/gd32vw55x_cau_aes.c ****     ivaddr += 4U;
 1287              		.loc 1 386 12
 1288 0110 832744FC 		lw	a5,-60(s0)
 1289 0114 9107     		addi	a5,a5,4
 1290 0116 2322F4FC 		sw	a5,-60(s0)
 387:../Firmware/GD32VW55x_standard_peripheral/Source/gd32vw55x_cau_aes.c ****     iv_initpara.iv_0_low = __REV(*(uint32_t *)(ivaddr));
 1291              		.loc 1 387 35
 1292 011a 832744FC 		lw	a5,-60(s0)
 1293              		.loc 1 387 28
 1294 011e 9C43     		lw	a5,0(a5)
 1295 0120 2326F4FA 		sw	a5,-84(s0)
 1296              	.LBB128:
 1297              	.LBB129:
 124:../Firmware/RISCV/drivers/core_compatiable.h ****         | ((value & 0x00ff0000) >> 8 )
 1298              		.loc 2 124 37
 1299 0124 8327C4FA 		lw	a5,-84(s0)
 1300 0128 13D78701 		srli	a4,a5,24
 125:../Firmware/RISCV/drivers/core_compatiable.h ****         | ((value & 0x0000ff00) << 8 )
 1301              		.loc 2 125 33
 1302 012c 8327C4FA 		lw	a5,-84(s0)
 1303 0130 93D68700 		srli	a3,a5,8
 1304 0134 C167     		li	a5,65536
 1305 0136 938707F0 		addi	a5,a5,-256
 1306 013a F58F     		and	a5,a3,a5
 125:../Firmware/RISCV/drivers/core_compatiable.h ****         | ((value & 0x0000ff00) << 8 )
 1307              		.loc 2 125 9
 1308 013c 5D8F     		or	a4,a4,a5
 126:../Firmware/RISCV/drivers/core_compatiable.h ****         | ((value & 0x000000ff) << 24);
 1309              		.loc 2 126 33
 1310 013e 8327C4FA 		lw	a5,-84(s0)
 1311 0142 93968700 		slli	a3,a5,8
 1312 0146 B707FF00 		li	a5,16711680
 1313 014a F58F     		and	a5,a3,a5
 126:../Firmware/RISCV/drivers/core_compatiable.h ****         | ((value & 0x000000ff) << 24);
 1314              		.loc 2 126 9
 1315 014c 5D8F     		or	a4,a4,a5
 127:../Firmware/RISCV/drivers/core_compatiable.h ****     return result;
 1316              		.loc 2 127 33
 1317 014e 8327C4FA 		lw	a5,-84(s0)
 1318 0152 E207     		slli	a5,a5,24
 124:../Firmware/RISCV/drivers/core_compatiable.h ****         | ((value & 0x00ff0000) >> 8 )
 1319              		.loc 2 124 12
 1320 0154 D98F     		or	a5,a4,a5
 1321 0156 2324F4FA 		sw	a5,-88(s0)
 1322              		.loc 2 128 12
 1323 015a 832784FA 		lw	a5,-88(s0)
 1324              	.LBE129:
 1325              	.LBE128:
 1326              		.loc 1 387 26
 1327 015e 232AF4F4 		sw	a5,-172(s0)
 388:../Firmware/GD32VW55x_standard_peripheral/Source/gd32vw55x_cau_aes.c ****     ivaddr += 4U;
 1328              		.loc 1 388 12
 1329 0162 832744FC 		lw	a5,-60(s0)
 1330 0166 9107     		addi	a5,a5,4
 1331 0168 2322F4FC 		sw	a5,-60(s0)
 389:../Firmware/GD32VW55x_standard_peripheral/Source/gd32vw55x_cau_aes.c ****     iv_initpara.iv_1_high = __REV(*(uint32_t *)(ivaddr));
 1332              		.loc 1 389 36
 1333 016c 832744FC 		lw	a5,-60(s0)
 1334              		.loc 1 389 29
 1335 0170 9C43     		lw	a5,0(a5)
 1336 0172 232AF4FA 		sw	a5,-76(s0)
 1337              	.LBB130:
 1338              	.LBB131:
 124:../Firmware/RISCV/drivers/core_compatiable.h ****         | ((value & 0x00ff0000) >> 8 )
 1339              		.loc 2 124 37
 1340 0176 832744FB 		lw	a5,-76(s0)
 1341 017a 13D78701 		srli	a4,a5,24
 125:../Firmware/RISCV/drivers/core_compatiable.h ****         | ((value & 0x0000ff00) << 8 )
 1342              		.loc 2 125 33
 1343 017e 832744FB 		lw	a5,-76(s0)
 1344 0182 93D68700 		srli	a3,a5,8
 1345 0186 C167     		li	a5,65536
 1346 0188 938707F0 		addi	a5,a5,-256
 1347 018c F58F     		and	a5,a3,a5
 125:../Firmware/RISCV/drivers/core_compatiable.h ****         | ((value & 0x0000ff00) << 8 )
 1348              		.loc 2 125 9
 1349 018e 5D8F     		or	a4,a4,a5
 126:../Firmware/RISCV/drivers/core_compatiable.h ****         | ((value & 0x000000ff) << 24);
 1350              		.loc 2 126 33
 1351 0190 832744FB 		lw	a5,-76(s0)
 1352 0194 93968700 		slli	a3,a5,8
 1353 0198 B707FF00 		li	a5,16711680
 1354 019c F58F     		and	a5,a3,a5
 126:../Firmware/RISCV/drivers/core_compatiable.h ****         | ((value & 0x000000ff) << 24);
 1355              		.loc 2 126 9
 1356 019e 5D8F     		or	a4,a4,a5
 127:../Firmware/RISCV/drivers/core_compatiable.h ****     return result;
 1357              		.loc 2 127 33
 1358 01a0 832744FB 		lw	a5,-76(s0)
 1359 01a4 E207     		slli	a5,a5,24
 124:../Firmware/RISCV/drivers/core_compatiable.h ****         | ((value & 0x00ff0000) >> 8 )
 1360              		.loc 2 124 12
 1361 01a6 D98F     		or	a5,a4,a5
 1362 01a8 2328F4FA 		sw	a5,-80(s0)
 1363              		.loc 2 128 12
 1364 01ac 832704FB 		lw	a5,-80(s0)
 1365              	.LBE131:
 1366              	.LBE130:
 1367              		.loc 1 389 27
 1368 01b0 232CF4F4 		sw	a5,-168(s0)
 390:../Firmware/GD32VW55x_standard_peripheral/Source/gd32vw55x_cau_aes.c ****     ivaddr += 4U;
 1369              		.loc 1 390 12
 1370 01b4 832744FC 		lw	a5,-60(s0)
 1371 01b8 9107     		addi	a5,a5,4
 1372 01ba 2322F4FC 		sw	a5,-60(s0)
 391:../Firmware/GD32VW55x_standard_peripheral/Source/gd32vw55x_cau_aes.c ****     iv_initpara.iv_1_low = __REV(*(uint32_t *)(ivaddr));
 1373              		.loc 1 391 35
 1374 01be 832744FC 		lw	a5,-60(s0)
 1375              		.loc 1 391 28
 1376 01c2 9C43     		lw	a5,0(a5)
 1377 01c4 232EF4FA 		sw	a5,-68(s0)
 1378              	.LBB132:
 1379              	.LBB133:
 124:../Firmware/RISCV/drivers/core_compatiable.h ****         | ((value & 0x00ff0000) >> 8 )
 1380              		.loc 2 124 37
 1381 01c8 8327C4FB 		lw	a5,-68(s0)
 1382 01cc 13D78701 		srli	a4,a5,24
 125:../Firmware/RISCV/drivers/core_compatiable.h ****         | ((value & 0x0000ff00) << 8 )
 1383              		.loc 2 125 33
 1384 01d0 8327C4FB 		lw	a5,-68(s0)
 1385 01d4 93D68700 		srli	a3,a5,8
 1386 01d8 C167     		li	a5,65536
 1387 01da 938707F0 		addi	a5,a5,-256
 1388 01de F58F     		and	a5,a3,a5
 125:../Firmware/RISCV/drivers/core_compatiable.h ****         | ((value & 0x0000ff00) << 8 )
 1389              		.loc 2 125 9
 1390 01e0 5D8F     		or	a4,a4,a5
 126:../Firmware/RISCV/drivers/core_compatiable.h ****         | ((value & 0x000000ff) << 24);
 1391              		.loc 2 126 33
 1392 01e2 8327C4FB 		lw	a5,-68(s0)
 1393 01e6 93968700 		slli	a3,a5,8
 1394 01ea B707FF00 		li	a5,16711680
 1395 01ee F58F     		and	a5,a3,a5
 126:../Firmware/RISCV/drivers/core_compatiable.h ****         | ((value & 0x000000ff) << 24);
 1396              		.loc 2 126 9
 1397 01f0 5D8F     		or	a4,a4,a5
 127:../Firmware/RISCV/drivers/core_compatiable.h ****     return result;
 1398              		.loc 2 127 33
 1399 01f2 8327C4FB 		lw	a5,-68(s0)
 1400 01f6 E207     		slli	a5,a5,24
 124:../Firmware/RISCV/drivers/core_compatiable.h ****         | ((value & 0x00ff0000) >> 8 )
 1401              		.loc 2 124 12
 1402 01f8 D98F     		or	a5,a4,a5
 1403 01fa 232CF4FA 		sw	a5,-72(s0)
 1404              		.loc 2 128 12
 1405 01fe 832784FB 		lw	a5,-72(s0)
 1406              	.LBE133:
 1407              	.LBE132:
 1408              		.loc 1 391 26
 1409 0202 232EF4F4 		sw	a5,-164(s0)
 392:../Firmware/GD32VW55x_standard_peripheral/Source/gd32vw55x_cau_aes.c ****     cau_iv_init(&iv_initpara);
 1410              		.loc 1 392 5
 1411 0206 930704F5 		addi	a5,s0,-176
 1412 020a 3E85     		mv	a0,a5
 1413 020c 97000000 		call	cau_iv_init
 1413      E7800000 
 393:../Firmware/GD32VW55x_standard_peripheral/Source/gd32vw55x_cau_aes.c **** 
 394:../Firmware/GD32VW55x_standard_peripheral/Source/gd32vw55x_cau_aes.c ****     /* prepare phase */
 395:../Firmware/GD32VW55x_standard_peripheral/Source/gd32vw55x_cau_aes.c ****     /* select prepare phase */
 396:../Firmware/GD32VW55x_standard_peripheral/Source/gd32vw55x_cau_aes.c ****     cau_phase_config(CAU_PREPARE_PHASE);
 1414              		.loc 1 396 5
 1415 0214 0145     		li	a0,0
 1416 0216 97000000 		call	cau_phase_config
 1416      E7800000 
 397:../Firmware/GD32VW55x_standard_peripheral/Source/gd32vw55x_cau_aes.c ****     /* enable the CAU peripheral */
 398:../Firmware/GD32VW55x_standard_peripheral/Source/gd32vw55x_cau_aes.c ****     cau_enable();
 1417              		.loc 1 398 5
 1418 021e 97000000 		call	cau_enable
 1418      E7800000 
 399:../Firmware/GD32VW55x_standard_peripheral/Source/gd32vw55x_cau_aes.c ****     /* wait for CAUEN bit to be 0 */
 400:../Firmware/GD32VW55x_standard_peripheral/Source/gd32vw55x_cau_aes.c ****     while(ENABLE == cau_enable_state_get()) {
 1419              		.loc 1 400 10
 1420 0226 0100     		nop
 1421              	.L40:
 1422              		.loc 1 400 21 discriminator 1
 1423 0228 97000000 		call	cau_enable_state_get
 1423      E7800000 
 1424 0230 2A87     		mv	a4,a0
 1425              		.loc 1 400 10 discriminator 1
 1426 0232 8547     		li	a5,1
 1427 0234 E30AF7FE 		beq	a4,a5,.L40
 401:../Firmware/GD32VW55x_standard_peripheral/Source/gd32vw55x_cau_aes.c ****     }
 402:../Firmware/GD32VW55x_standard_peripheral/Source/gd32vw55x_cau_aes.c **** 
 403:../Firmware/GD32VW55x_standard_peripheral/Source/gd32vw55x_cau_aes.c ****     /* aad phase */
 404:../Firmware/GD32VW55x_standard_peripheral/Source/gd32vw55x_cau_aes.c ****     if((uint32_t)0U != cau_parameter->aad_size) {
 1428              		.loc 1 404 37
 1429 0238 8327C4F4 		lw	a5,-180(s0)
 1430 023c 9C53     		lw	a5,32(a5)
 1431              		.loc 1 404 7
 1432 023e B1C3     		beq	a5,zero,.L41
 405:../Firmware/GD32VW55x_standard_peripheral/Source/gd32vw55x_cau_aes.c ****         /* select aad phase */
 406:../Firmware/GD32VW55x_standard_peripheral/Source/gd32vw55x_cau_aes.c ****         cau_phase_config(CAU_AAD_PHASE);
 1433              		.loc 1 406 9
 1434 0240 4165     		li	a0,65536
 1435 0242 97000000 		call	cau_phase_config
 1435      E7800000 
 407:../Firmware/GD32VW55x_standard_peripheral/Source/gd32vw55x_cau_aes.c ****         /* flush the IN and OUT FIFOs */
 408:../Firmware/GD32VW55x_standard_peripheral/Source/gd32vw55x_cau_aes.c ****         cau_fifo_flush();
 1436              		.loc 1 408 9
 1437 024a 97000000 		call	cau_fifo_flush
 1437      E7800000 
 409:../Firmware/GD32VW55x_standard_peripheral/Source/gd32vw55x_cau_aes.c ****         /* enable the CAU peripheral */
 410:../Firmware/GD32VW55x_standard_peripheral/Source/gd32vw55x_cau_aes.c ****         cau_enable();
 1438              		.loc 1 410 9
 1439 0252 97000000 		call	cau_enable
 1439      E7800000 
 411:../Firmware/GD32VW55x_standard_peripheral/Source/gd32vw55x_cau_aes.c **** 
 412:../Firmware/GD32VW55x_standard_peripheral/Source/gd32vw55x_cau_aes.c ****         ret = cau_fill_data(cau_parameter->aad, cau_parameter->aad_size);
 1440              		.loc 1 412 15
 1441 025a 8327C4F4 		lw	a5,-180(s0)
 1442 025e D84F     		lw	a4,28(a5)
 1443 0260 8327C4F4 		lw	a5,-180(s0)
 1444 0264 9C53     		lw	a5,32(a5)
 1445 0266 BE85     		mv	a1,a5
 1446 0268 3A85     		mv	a0,a4
 1447 026a 97000000 		call	cau_fill_data
 1447      E7800000 
 1448 0272 232EA4FC 		sw	a0,-36(s0)
 413:../Firmware/GD32VW55x_standard_peripheral/Source/gd32vw55x_cau_aes.c **** 
 414:../Firmware/GD32VW55x_standard_peripheral/Source/gd32vw55x_cau_aes.c ****         if(ERROR == ret) {
 1449              		.loc 1 414 11
 1450 0276 8327C4FD 		lw	a5,-36(s0)
 1451 027a 81E7     		bne	a5,zero,.L41
 415:../Firmware/GD32VW55x_standard_peripheral/Source/gd32vw55x_cau_aes.c ****             return ret;
 1452              		.loc 1 415 20
 1453 027c 8327C4FD 		lw	a5,-36(s0)
 1454 0280 25AC     		j	.L50
 1455              	.L41:
 416:../Firmware/GD32VW55x_standard_peripheral/Source/gd32vw55x_cau_aes.c ****         }
 417:../Firmware/GD32VW55x_standard_peripheral/Source/gd32vw55x_cau_aes.c ****     }
 418:../Firmware/GD32VW55x_standard_peripheral/Source/gd32vw55x_cau_aes.c **** 
 419:../Firmware/GD32VW55x_standard_peripheral/Source/gd32vw55x_cau_aes.c ****     /* encrypt or dcrypt phase */
 420:../Firmware/GD32VW55x_standard_peripheral/Source/gd32vw55x_cau_aes.c ****     if((uint32_t)0U != cau_parameter->in_length) {
 1456              		.loc 1 420 37
 1457 0282 8327C4F4 		lw	a5,-180(s0)
 1458 0286 9C4F     		lw	a5,24(a5)
 1459              		.loc 1 420 7
 1460 0288 A9C7     		beq	a5,zero,.L43
 421:../Firmware/GD32VW55x_standard_peripheral/Source/gd32vw55x_cau_aes.c ****         /* select encrypt or dcrypt phase */
 422:../Firmware/GD32VW55x_standard_peripheral/Source/gd32vw55x_cau_aes.c ****         cau_phase_config(CAU_ENCRYPT_DECRYPT_PHASE);
 1461              		.loc 1 422 9
 1462 028a 37050200 		li	a0,131072
 1463 028e 97000000 		call	cau_phase_config
 1463      E7800000 
 423:../Firmware/GD32VW55x_standard_peripheral/Source/gd32vw55x_cau_aes.c ****         /* flush the IN and OUT FIFOs */
 424:../Firmware/GD32VW55x_standard_peripheral/Source/gd32vw55x_cau_aes.c ****         cau_fifo_flush();
 1464              		.loc 1 424 9
 1465 0296 97000000 		call	cau_fifo_flush
 1465      E7800000 
 425:../Firmware/GD32VW55x_standard_peripheral/Source/gd32vw55x_cau_aes.c ****         /* enable the CAU peripheral */
 426:../Firmware/GD32VW55x_standard_peripheral/Source/gd32vw55x_cau_aes.c ****         cau_enable();
 1466              		.loc 1 426 9
 1467 029e 97000000 		call	cau_enable
 1467      E7800000 
 427:../Firmware/GD32VW55x_standard_peripheral/Source/gd32vw55x_cau_aes.c **** 
 428:../Firmware/GD32VW55x_standard_peripheral/Source/gd32vw55x_cau_aes.c ****         /* AES calculate process */
 429:../Firmware/GD32VW55x_standard_peripheral/Source/gd32vw55x_cau_aes.c ****         ret = cau_aes_calculate(cau_parameter->input, cau_parameter->in_length, output);
 1468              		.loc 1 429 15
 1469 02a6 8327C4F4 		lw	a5,-180(s0)
 1470 02aa D84B     		lw	a4,20(a5)
 1471 02ac 8327C4F4 		lw	a5,-180(s0)
 1472 02b0 9C4F     		lw	a5,24(a5)
 1473 02b2 032684F4 		lw	a2,-184(s0)
 1474 02b6 BE85     		mv	a1,a5
 1475 02b8 3A85     		mv	a0,a4
 1476 02ba 97000000 		call	cau_aes_calculate
 1476      E7800000 
 1477 02c2 232EA4FC 		sw	a0,-36(s0)
 430:../Firmware/GD32VW55x_standard_peripheral/Source/gd32vw55x_cau_aes.c **** 
 431:../Firmware/GD32VW55x_standard_peripheral/Source/gd32vw55x_cau_aes.c ****         if(ERROR == ret) {
 1478              		.loc 1 431 11
 1479 02c6 8327C4FD 		lw	a5,-36(s0)
 1480 02ca 81E7     		bne	a5,zero,.L43
 432:../Firmware/GD32VW55x_standard_peripheral/Source/gd32vw55x_cau_aes.c ****             return ret;
 1481              		.loc 1 432 20
 1482 02cc 8327C4FD 		lw	a5,-36(s0)
 1483 02d0 E5A2     		j	.L50
 1484              	.L43:
 433:../Firmware/GD32VW55x_standard_peripheral/Source/gd32vw55x_cau_aes.c ****         }
 434:../Firmware/GD32VW55x_standard_peripheral/Source/gd32vw55x_cau_aes.c ****     }
 435:../Firmware/GD32VW55x_standard_peripheral/Source/gd32vw55x_cau_aes.c **** 
 436:../Firmware/GD32VW55x_standard_peripheral/Source/gd32vw55x_cau_aes.c ****     /* tag phase */
 437:../Firmware/GD32VW55x_standard_peripheral/Source/gd32vw55x_cau_aes.c ****     /* select tag phase */
 438:../Firmware/GD32VW55x_standard_peripheral/Source/gd32vw55x_cau_aes.c ****     cau_phase_config(CAU_TAG_PHASE);
 1485              		.loc 1 438 5
 1486 02d2 37050300 		li	a0,196608
 1487 02d6 97000000 		call	cau_phase_config
 1487      E7800000 
 439:../Firmware/GD32VW55x_standard_peripheral/Source/gd32vw55x_cau_aes.c ****     /* flush the IN and OUT FIFOs */
 440:../Firmware/GD32VW55x_standard_peripheral/Source/gd32vw55x_cau_aes.c ****     cau_fifo_flush();
 1488              		.loc 1 440 5
 1489 02de 97000000 		call	cau_fifo_flush
 1489      E7800000 
 441:../Firmware/GD32VW55x_standard_peripheral/Source/gd32vw55x_cau_aes.c ****     /* enable the CAU peripheral */
 442:../Firmware/GD32VW55x_standard_peripheral/Source/gd32vw55x_cau_aes.c ****     cau_enable();
 1490              		.loc 1 442 5
 1491 02e6 97000000 		call	cau_enable
 1491      E7800000 
 443:../Firmware/GD32VW55x_standard_peripheral/Source/gd32vw55x_cau_aes.c **** 
 444:../Firmware/GD32VW55x_standard_peripheral/Source/gd32vw55x_cau_aes.c ****     if(DISABLE == cau_enable_state_get()) {
 1492              		.loc 1 444 19
 1493 02ee 97000000 		call	cau_enable_state_get
 1493      E7800000 
 1494 02f6 AA87     		mv	a5,a0
 1495              		.loc 1 444 7
 1496 02f8 99E3     		bne	a5,zero,.L44
 445:../Firmware/GD32VW55x_standard_peripheral/Source/gd32vw55x_cau_aes.c ****         return ERROR;
 1497              		.loc 1 445 16
 1498 02fa 8147     		li	a5,0
 1499 02fc 75AA     		j	.L50
 1500              	.L44:
 446:../Firmware/GD32VW55x_standard_peripheral/Source/gd32vw55x_cau_aes.c ****     }
 447:../Firmware/GD32VW55x_standard_peripheral/Source/gd32vw55x_cau_aes.c **** 
 448:../Firmware/GD32VW55x_standard_peripheral/Source/gd32vw55x_cau_aes.c ****     cau_data_write(__REV((uint32_t)(aadlength >> 32U)));
 1501              		.loc 1 448 47
 1502 02fe 832744FD 		lw	a5,-44(s0)
 1503 0302 13DA0700 		srli	s4,a5,0
 1504 0306 814A     		li	s5,0
 1505              		.loc 1 448 5
 1506 0308 D287     		mv	a5,s4
 1507 030a 2322F4F8 		sw	a5,-124(s0)
 1508              	.LBB134:
 1509              	.LBB135:
 124:../Firmware/RISCV/drivers/core_compatiable.h ****         | ((value & 0x00ff0000) >> 8 )
 1510              		.loc 2 124 37
 1511 030e 832744F8 		lw	a5,-124(s0)
 1512 0312 13D78701 		srli	a4,a5,24
 125:../Firmware/RISCV/drivers/core_compatiable.h ****         | ((value & 0x0000ff00) << 8 )
 1513              		.loc 2 125 33
 1514 0316 832744F8 		lw	a5,-124(s0)
 1515 031a 93D68700 		srli	a3,a5,8
 1516 031e C167     		li	a5,65536
 1517 0320 938707F0 		addi	a5,a5,-256
 1518 0324 F58F     		and	a5,a3,a5
 125:../Firmware/RISCV/drivers/core_compatiable.h ****         | ((value & 0x0000ff00) << 8 )
 1519              		.loc 2 125 9
 1520 0326 5D8F     		or	a4,a4,a5
 126:../Firmware/RISCV/drivers/core_compatiable.h ****         | ((value & 0x000000ff) << 24);
 1521              		.loc 2 126 33
 1522 0328 832744F8 		lw	a5,-124(s0)
 1523 032c 93968700 		slli	a3,a5,8
 1524 0330 B707FF00 		li	a5,16711680
 1525 0334 F58F     		and	a5,a3,a5
 126:../Firmware/RISCV/drivers/core_compatiable.h ****         | ((value & 0x000000ff) << 24);
 1526              		.loc 2 126 9
 1527 0336 5D8F     		or	a4,a4,a5
 127:../Firmware/RISCV/drivers/core_compatiable.h ****     return result;
 1528              		.loc 2 127 33
 1529 0338 832744F8 		lw	a5,-124(s0)
 1530 033c E207     		slli	a5,a5,24
 124:../Firmware/RISCV/drivers/core_compatiable.h ****         | ((value & 0x00ff0000) >> 8 )
 1531              		.loc 2 124 12
 1532 033e D98F     		or	a5,a4,a5
 1533 0340 2320F4F8 		sw	a5,-128(s0)
 1534              		.loc 2 128 12
 1535 0344 832704F8 		lw	a5,-128(s0)
 1536              	.LBE135:
 1537              	.LBE134:
 1538              		.loc 1 448 5
 1539 0348 3E85     		mv	a0,a5
 1540 034a 97000000 		call	cau_data_write
 1540      E7800000 
 449:../Firmware/GD32VW55x_standard_peripheral/Source/gd32vw55x_cau_aes.c ****     cau_data_write(__REV((uint32_t)aadlength));
 1541              		.loc 1 449 5
 1542 0352 832704FD 		lw	a5,-48(s0)
 1543 0356 2326F4F8 		sw	a5,-116(s0)
 1544              	.LBB136:
 1545              	.LBB137:
 124:../Firmware/RISCV/drivers/core_compatiable.h ****         | ((value & 0x00ff0000) >> 8 )
 1546              		.loc 2 124 37
 1547 035a 8327C4F8 		lw	a5,-116(s0)
 1548 035e 13D78701 		srli	a4,a5,24
 125:../Firmware/RISCV/drivers/core_compatiable.h ****         | ((value & 0x0000ff00) << 8 )
 1549              		.loc 2 125 33
 1550 0362 8327C4F8 		lw	a5,-116(s0)
 1551 0366 93D68700 		srli	a3,a5,8
 1552 036a C167     		li	a5,65536
 1553 036c 938707F0 		addi	a5,a5,-256
 1554 0370 F58F     		and	a5,a3,a5
 125:../Firmware/RISCV/drivers/core_compatiable.h ****         | ((value & 0x0000ff00) << 8 )
 1555              		.loc 2 125 9
 1556 0372 5D8F     		or	a4,a4,a5
 126:../Firmware/RISCV/drivers/core_compatiable.h ****         | ((value & 0x000000ff) << 24);
 1557              		.loc 2 126 33
 1558 0374 8327C4F8 		lw	a5,-116(s0)
 1559 0378 93968700 		slli	a3,a5,8
 1560 037c B707FF00 		li	a5,16711680
 1561 0380 F58F     		and	a5,a3,a5
 126:../Firmware/RISCV/drivers/core_compatiable.h ****         | ((value & 0x000000ff) << 24);
 1562              		.loc 2 126 9
 1563 0382 5D8F     		or	a4,a4,a5
 127:../Firmware/RISCV/drivers/core_compatiable.h ****     return result;
 1564              		.loc 2 127 33
 1565 0384 8327C4F8 		lw	a5,-116(s0)
 1566 0388 E207     		slli	a5,a5,24
 124:../Firmware/RISCV/drivers/core_compatiable.h ****         | ((value & 0x00ff0000) >> 8 )
 1567              		.loc 2 124 12
 1568 038a D98F     		or	a5,a4,a5
 1569 038c 2324F4F8 		sw	a5,-120(s0)
 1570              		.loc 2 128 12
 1571 0390 832784F8 		lw	a5,-120(s0)
 1572              	.LBE137:
 1573              	.LBE136:
 1574              		.loc 1 449 5
 1575 0394 3E85     		mv	a0,a5
 1576 0396 97000000 		call	cau_data_write
 1576      E7800000 
 450:../Firmware/GD32VW55x_standard_peripheral/Source/gd32vw55x_cau_aes.c ****     cau_data_write(__REV((uint32_t)(inputlength >> 32U)));
 1577              		.loc 1 450 49
 1578 039e 8327C4FC 		lw	a5,-52(s0)
 1579 03a2 13D90700 		srli	s2,a5,0
 1580 03a6 8149     		li	s3,0
 1581              		.loc 1 450 5
 1582 03a8 CA87     		mv	a5,s2
 1583 03aa 232AF4F8 		sw	a5,-108(s0)
 1584              	.LBB138:
 1585              	.LBB139:
 124:../Firmware/RISCV/drivers/core_compatiable.h ****         | ((value & 0x00ff0000) >> 8 )
 1586              		.loc 2 124 37
 1587 03ae 832744F9 		lw	a5,-108(s0)
 1588 03b2 13D78701 		srli	a4,a5,24
 125:../Firmware/RISCV/drivers/core_compatiable.h ****         | ((value & 0x0000ff00) << 8 )
 1589              		.loc 2 125 33
 1590 03b6 832744F9 		lw	a5,-108(s0)
 1591 03ba 93D68700 		srli	a3,a5,8
 1592 03be C167     		li	a5,65536
 1593 03c0 938707F0 		addi	a5,a5,-256
 1594 03c4 F58F     		and	a5,a3,a5
 125:../Firmware/RISCV/drivers/core_compatiable.h ****         | ((value & 0x0000ff00) << 8 )
 1595              		.loc 2 125 9
 1596 03c6 5D8F     		or	a4,a4,a5
 126:../Firmware/RISCV/drivers/core_compatiable.h ****         | ((value & 0x000000ff) << 24);
 1597              		.loc 2 126 33
 1598 03c8 832744F9 		lw	a5,-108(s0)
 1599 03cc 93968700 		slli	a3,a5,8
 1600 03d0 B707FF00 		li	a5,16711680
 1601 03d4 F58F     		and	a5,a3,a5
 126:../Firmware/RISCV/drivers/core_compatiable.h ****         | ((value & 0x000000ff) << 24);
 1602              		.loc 2 126 9
 1603 03d6 5D8F     		or	a4,a4,a5
 127:../Firmware/RISCV/drivers/core_compatiable.h ****     return result;
 1604              		.loc 2 127 33
 1605 03d8 832744F9 		lw	a5,-108(s0)
 1606 03dc E207     		slli	a5,a5,24
 124:../Firmware/RISCV/drivers/core_compatiable.h ****         | ((value & 0x00ff0000) >> 8 )
 1607              		.loc 2 124 12
 1608 03de D98F     		or	a5,a4,a5
 1609 03e0 2328F4F8 		sw	a5,-112(s0)
 1610              		.loc 2 128 12
 1611 03e4 832704F9 		lw	a5,-112(s0)
 1612              	.LBE139:
 1613              	.LBE138:
 1614              		.loc 1 450 5
 1615 03e8 3E85     		mv	a0,a5
 1616 03ea 97000000 		call	cau_data_write
 1616      E7800000 
 451:../Firmware/GD32VW55x_standard_peripheral/Source/gd32vw55x_cau_aes.c ****     cau_data_write(__REV((uint32_t)inputlength));
 1617              		.loc 1 451 5
 1618 03f2 832784FC 		lw	a5,-56(s0)
 1619 03f6 232EF4F8 		sw	a5,-100(s0)
 1620              	.LBB140:
 1621              	.LBB141:
 124:../Firmware/RISCV/drivers/core_compatiable.h ****         | ((value & 0x00ff0000) >> 8 )
 1622              		.loc 2 124 37
 1623 03fa 8327C4F9 		lw	a5,-100(s0)
 1624 03fe 13D78701 		srli	a4,a5,24
 125:../Firmware/RISCV/drivers/core_compatiable.h ****         | ((value & 0x0000ff00) << 8 )
 1625              		.loc 2 125 33
 1626 0402 8327C4F9 		lw	a5,-100(s0)
 1627 0406 93D68700 		srli	a3,a5,8
 1628 040a C167     		li	a5,65536
 1629 040c 938707F0 		addi	a5,a5,-256
 1630 0410 F58F     		and	a5,a3,a5
 125:../Firmware/RISCV/drivers/core_compatiable.h ****         | ((value & 0x0000ff00) << 8 )
 1631              		.loc 2 125 9
 1632 0412 5D8F     		or	a4,a4,a5
 126:../Firmware/RISCV/drivers/core_compatiable.h ****         | ((value & 0x000000ff) << 24);
 1633              		.loc 2 126 33
 1634 0414 8327C4F9 		lw	a5,-100(s0)
 1635 0418 93968700 		slli	a3,a5,8
 1636 041c B707FF00 		li	a5,16711680
 1637 0420 F58F     		and	a5,a3,a5
 126:../Firmware/RISCV/drivers/core_compatiable.h ****         | ((value & 0x000000ff) << 24);
 1638              		.loc 2 126 9
 1639 0422 5D8F     		or	a4,a4,a5
 127:../Firmware/RISCV/drivers/core_compatiable.h ****     return result;
 1640              		.loc 2 127 33
 1641 0424 8327C4F9 		lw	a5,-100(s0)
 1642 0428 E207     		slli	a5,a5,24
 124:../Firmware/RISCV/drivers/core_compatiable.h ****         | ((value & 0x00ff0000) >> 8 )
 1643              		.loc 2 124 12
 1644 042a D98F     		or	a5,a4,a5
 1645 042c 232CF4F8 		sw	a5,-104(s0)
 1646              		.loc 2 128 12
 1647 0430 832784F9 		lw	a5,-104(s0)
 1648              	.LBE141:
 1649              	.LBE140:
 1650              		.loc 1 451 5
 1651 0434 3E85     		mv	a0,a5
 1652 0436 97000000 		call	cau_data_write
 1652      E7800000 
 452:../Firmware/GD32VW55x_standard_peripheral/Source/gd32vw55x_cau_aes.c **** 
 453:../Firmware/GD32VW55x_standard_peripheral/Source/gd32vw55x_cau_aes.c ****     /* wait until the ONE flag is set */
 454:../Firmware/GD32VW55x_standard_peripheral/Source/gd32vw55x_cau_aes.c ****     while(RESET == cau_flag_get(CAU_FLAG_OUTFIFO_NO_EMPTY)) {
 1653              		.loc 1 454 10
 1654 043e 0100     		nop
 1655              	.L49:
 1656              		.loc 1 454 20 discriminator 1
 1657 0440 1145     		li	a0,4
 1658 0442 97000000 		call	cau_flag_get
 1658      E7800000 
 1659 044a AA87     		mv	a5,a0
 1660              		.loc 1 454 10 discriminator 1
 1661 044c F5DB     		beq	a5,zero,.L49
 455:../Firmware/GD32VW55x_standard_peripheral/Source/gd32vw55x_cau_aes.c ****     }
 456:../Firmware/GD32VW55x_standard_peripheral/Source/gd32vw55x_cau_aes.c **** 
 457:../Firmware/GD32VW55x_standard_peripheral/Source/gd32vw55x_cau_aes.c ****     /* read the tag in the OUT FIFO */
 458:../Firmware/GD32VW55x_standard_peripheral/Source/gd32vw55x_cau_aes.c ****     *(uint32_t *)(tagaddr) = cau_data_read();
 1662              		.loc 1 458 6
 1663 044e 832404FC 		lw	s1,-64(s0)
 1664              		.loc 1 458 30
 1665 0452 97000000 		call	cau_data_read
 1665      E7800000 
 1666 045a AA87     		mv	a5,a0
 1667              		.loc 1 458 28
 1668 045c 9CC0     		sw	a5,0(s1)
 459:../Firmware/GD32VW55x_standard_peripheral/Source/gd32vw55x_cau_aes.c ****     tagaddr += 4U;
 1669              		.loc 1 459 13
 1670 045e 832704FC 		lw	a5,-64(s0)
 1671 0462 9107     		addi	a5,a5,4
 1672 0464 2320F4FC 		sw	a5,-64(s0)
 460:../Firmware/GD32VW55x_standard_peripheral/Source/gd32vw55x_cau_aes.c ****     *(uint32_t *)(tagaddr) = cau_data_read();
 1673              		.loc 1 460 6
 1674 0468 832404FC 		lw	s1,-64(s0)
 1675              		.loc 1 460 30
 1676 046c 97000000 		call	cau_data_read
 1676      E7800000 
 1677 0474 AA87     		mv	a5,a0
 1678              		.loc 1 460 28
 1679 0476 9CC0     		sw	a5,0(s1)
 461:../Firmware/GD32VW55x_standard_peripheral/Source/gd32vw55x_cau_aes.c ****     tagaddr += 4U;
 1680              		.loc 1 461 13
 1681 0478 832704FC 		lw	a5,-64(s0)
 1682 047c 9107     		addi	a5,a5,4
 1683 047e 2320F4FC 		sw	a5,-64(s0)
 462:../Firmware/GD32VW55x_standard_peripheral/Source/gd32vw55x_cau_aes.c ****     *(uint32_t *)(tagaddr) = cau_data_read();
 1684              		.loc 1 462 6
 1685 0482 832404FC 		lw	s1,-64(s0)
 1686              		.loc 1 462 30
 1687 0486 97000000 		call	cau_data_read
 1687      E7800000 
 1688 048e AA87     		mv	a5,a0
 1689              		.loc 1 462 28
 1690 0490 9CC0     		sw	a5,0(s1)
 463:../Firmware/GD32VW55x_standard_peripheral/Source/gd32vw55x_cau_aes.c ****     tagaddr += 4U;
 1691              		.loc 1 463 13
 1692 0492 832704FC 		lw	a5,-64(s0)
 1693 0496 9107     		addi	a5,a5,4
 1694 0498 2320F4FC 		sw	a5,-64(s0)
 464:../Firmware/GD32VW55x_standard_peripheral/Source/gd32vw55x_cau_aes.c ****     *(uint32_t *)(tagaddr) = cau_data_read();
 1695              		.loc 1 464 6
 1696 049c 832404FC 		lw	s1,-64(s0)
 1697              		.loc 1 464 30
 1698 04a0 97000000 		call	cau_data_read
 1698      E7800000 
 1699 04a8 AA87     		mv	a5,a0
 1700              		.loc 1 464 28
 1701 04aa 9CC0     		sw	a5,0(s1)
 465:../Firmware/GD32VW55x_standard_peripheral/Source/gd32vw55x_cau_aes.c **** 
 466:../Firmware/GD32VW55x_standard_peripheral/Source/gd32vw55x_cau_aes.c ****     /* disable the CAU peripheral */
 467:../Firmware/GD32VW55x_standard_peripheral/Source/gd32vw55x_cau_aes.c ****     cau_disable();
 1702              		.loc 1 467 5
 1703 04ac 97000000 		call	cau_disable
 1703      E7800000 
 468:../Firmware/GD32VW55x_standard_peripheral/Source/gd32vw55x_cau_aes.c **** 
 469:../Firmware/GD32VW55x_standard_peripheral/Source/gd32vw55x_cau_aes.c ****     return ret;
 1704              		.loc 1 469 12
 1705 04b4 8327C4FD 		lw	a5,-36(s0)
 1706              	.L50:
 470:../Firmware/GD32VW55x_standard_peripheral/Source/gd32vw55x_cau_aes.c **** }
 1707              		.loc 1 470 1 discriminator 1
 1708 04b8 3E85     		mv	a0,a5
 1709 04ba FA50     		lw	ra,188(sp)
 1710              		.cfi_restore 1
 1711 04bc 6A54     		lw	s0,184(sp)
 1712              		.cfi_restore 8
 1713              		.cfi_def_cfa 2, 192
 1714 04be DA54     		lw	s1,180(sp)
 1715              		.cfi_restore 9
 1716 04c0 4A59     		lw	s2,176(sp)
 1717              		.cfi_restore 18
 1718 04c2 BA59     		lw	s3,172(sp)
 1719              		.cfi_restore 19
 1720 04c4 2A5A     		lw	s4,168(sp)
 1721              		.cfi_restore 20
 1722 04c6 9A5A     		lw	s5,164(sp)
 1723              		.cfi_restore 21
 1724 04c8 2961     		addi	sp,sp,192
 1725              		.cfi_def_cfa_offset 0
 1726 04ca 8280     		jr	ra
 1727              		.cfi_endproc
 1728              	.LFE353:
 1730              		.section	.text.cau_aes_ccm,"ax",@progbits
 1731              		.align	1
 1732              		.globl	cau_aes_ccm
 1734              	cau_aes_ccm:
 1735              	.LFB354:
 471:../Firmware/GD32VW55x_standard_peripheral/Source/gd32vw55x_cau_aes.c **** 
 472:../Firmware/GD32VW55x_standard_peripheral/Source/gd32vw55x_cau_aes.c **** /*!
 473:../Firmware/GD32VW55x_standard_peripheral/Source/gd32vw55x_cau_aes.c ****     \brief      encrypt and decrypt using AES in CCM mode
 474:../Firmware/GD32VW55x_standard_peripheral/Source/gd32vw55x_cau_aes.c ****     \param[in]  cau_parameter: pointer to the input structure
 475:../Firmware/GD32VW55x_standard_peripheral/Source/gd32vw55x_cau_aes.c ****                   alg_dir: algorithm direction
 476:../Firmware/GD32VW55x_standard_peripheral/Source/gd32vw55x_cau_aes.c ****                     CAU_ENCRYPT, CAU_DECRYPT
 477:../Firmware/GD32VW55x_standard_peripheral/Source/gd32vw55x_cau_aes.c ****                   key: key
 478:../Firmware/GD32VW55x_standard_peripheral/Source/gd32vw55x_cau_aes.c ****                   key_size: key size in bytes
 479:../Firmware/GD32VW55x_standard_peripheral/Source/gd32vw55x_cau_aes.c ****                   iv: initialization vector
 480:../Firmware/GD32VW55x_standard_peripheral/Source/gd32vw55x_cau_aes.c ****                   iv_size: iv size in bytes
 481:../Firmware/GD32VW55x_standard_peripheral/Source/gd32vw55x_cau_aes.c ****                   input: input data
 482:../Firmware/GD32VW55x_standard_peripheral/Source/gd32vw55x_cau_aes.c ****                   in_length: input data length in bytes
 483:../Firmware/GD32VW55x_standard_peripheral/Source/gd32vw55x_cau_aes.c ****                   aad: additional authentication data
 484:../Firmware/GD32VW55x_standard_peripheral/Source/gd32vw55x_cau_aes.c ****                   aad_size: aad size
 485:../Firmware/GD32VW55x_standard_peripheral/Source/gd32vw55x_cau_aes.c ****     \param[in]  mac_size: mac size (in bytes)
 486:../Firmware/GD32VW55x_standard_peripheral/Source/gd32vw55x_cau_aes.c ****     \param[out] output: pointer to the returned output data buffer
 487:../Firmware/GD32VW55x_standard_peripheral/Source/gd32vw55x_cau_aes.c ****     \param[out] tag: pointer to the returned tag buffer
 488:../Firmware/GD32VW55x_standard_peripheral/Source/gd32vw55x_cau_aes.c ****     \param[out] aad_buf: pointer to the user buffer used when formatting aad block
 489:../Firmware/GD32VW55x_standard_peripheral/Source/gd32vw55x_cau_aes.c ****     \retval     ErrStatus: SUCCESS or ERROR
 490:../Firmware/GD32VW55x_standard_peripheral/Source/gd32vw55x_cau_aes.c **** */
 491:../Firmware/GD32VW55x_standard_peripheral/Source/gd32vw55x_cau_aes.c **** ErrStatus cau_aes_ccm(cau_parameter_struct *cau_parameter, uint8_t *output, uint8_t tag[], uint32_t
 492:../Firmware/GD32VW55x_standard_peripheral/Source/gd32vw55x_cau_aes.c **** {
 1736              		.loc 1 492 1
 1737              		.cfi_startproc
 1738 0000 5171     		addi	sp,sp,-240
 1739              		.cfi_def_cfa_offset 240
 1740 0002 86D7     		sw	ra,236(sp)
 1741 0004 A2D5     		sw	s0,232(sp)
 1742              		.cfi_offset 1, -4
 1743              		.cfi_offset 8, -8
 1744 0006 8019     		addi	s0,sp,240
 1745              		.cfi_def_cfa 8, 0
 1746 0008 2326A4F2 		sw	a0,-212(s0)
 1747 000c 2324B4F2 		sw	a1,-216(s0)
 1748 0010 2322C4F2 		sw	a2,-220(s0)
 1749 0014 2320D4F2 		sw	a3,-224(s0)
 1750 0018 232EE4F0 		sw	a4,-228(s0)
 493:../Firmware/GD32VW55x_standard_peripheral/Source/gd32vw55x_cau_aes.c ****     cau_key_parameter_struct key_initpara;
 494:../Firmware/GD32VW55x_standard_peripheral/Source/gd32vw55x_cau_aes.c ****     cau_iv_parameter_struct iv_initpara;
 495:../Firmware/GD32VW55x_standard_peripheral/Source/gd32vw55x_cau_aes.c ****     ErrStatus ret = ERROR;
 1751              		.loc 1 495 15
 1752 001c 232604FE 		sw	zero,-20(s0)
 496:../Firmware/GD32VW55x_standard_peripheral/Source/gd32vw55x_cau_aes.c ****     uint32_t inputaddr  = (uint32_t)cau_parameter->input;
 1753              		.loc 1 496 50
 1754 0020 8327C4F2 		lw	a5,-212(s0)
 1755 0024 DC4B     		lw	a5,20(a5)
 1756              		.loc 1 496 14
 1757 0026 232AF4FC 		sw	a5,-44(s0)
 497:../Firmware/GD32VW55x_standard_peripheral/Source/gd32vw55x_cau_aes.c ****     uint32_t inputsize = cau_parameter->in_length;
 1758              		.loc 1 497 14
 1759 002a 8327C4F2 		lw	a5,-212(s0)
 1760 002e 9C4F     		lw	a5,24(a5)
 1761 0030 2328F4FC 		sw	a5,-48(s0)
 498:../Firmware/GD32VW55x_standard_peripheral/Source/gd32vw55x_cau_aes.c ****     uint32_t aadaddr = (uint32_t)cau_parameter->aad;
 1762              		.loc 1 498 47
 1763 0034 8327C4F2 		lw	a5,-212(s0)
 1764 0038 DC4F     		lw	a5,28(a5)
 1765              		.loc 1 498 14
 1766 003a 2324F4FE 		sw	a5,-24(s0)
 499:../Firmware/GD32VW55x_standard_peripheral/Source/gd32vw55x_cau_aes.c ****     uint32_t aadsize = cau_parameter->aad_size;
 1767              		.loc 1 499 14
 1768 003e 8327C4F2 		lw	a5,-212(s0)
 1769 0042 9C53     		lw	a5,32(a5)
 1770 0044 2326F4FC 		sw	a5,-52(s0)
 500:../Firmware/GD32VW55x_standard_peripheral/Source/gd32vw55x_cau_aes.c ****     uint32_t aad_block_size = 0U;
 1771              		.loc 1 500 14
 1772 0048 232204FE 		sw	zero,-28(s0)
 501:../Firmware/GD32VW55x_standard_peripheral/Source/gd32vw55x_cau_aes.c ****     uint32_t ivaddr = (uint32_t)cau_parameter->iv;
 1773              		.loc 1 501 46
 1774 004c 8327C4F2 		lw	a5,-212(s0)
 1775 0050 DC47     		lw	a5,12(a5)
 1776              		.loc 1 501 14
 1777 0052 2324F4FC 		sw	a5,-56(s0)
 502:../Firmware/GD32VW55x_standard_peripheral/Source/gd32vw55x_cau_aes.c ****     uint32_t ivsize = cau_parameter->iv_size;
 1778              		.loc 1 502 14
 1779 0056 8327C4F2 		lw	a5,-212(s0)
 1780 005a 9C4B     		lw	a5,16(a5)
 1781 005c 2322F4FC 		sw	a5,-60(s0)
 503:../Firmware/GD32VW55x_standard_peripheral/Source/gd32vw55x_cau_aes.c ****     uint32_t outputaddr = (uint32_t)output;
 1782              		.loc 1 503 14
 1783 0060 832784F2 		lw	a5,-216(s0)
 1784 0064 2320F4FC 		sw	a5,-64(s0)
 504:../Firmware/GD32VW55x_standard_peripheral/Source/gd32vw55x_cau_aes.c ****     uint32_t i = 0U, plen = 0U;
 1785              		.loc 1 504 14
 1786 0068 232004FE 		sw	zero,-32(s0)
 1787              		.loc 1 504 22
 1788 006c 232E04FC 		sw	zero,-36(s0)
 505:../Firmware/GD32VW55x_standard_peripheral/Source/gd32vw55x_cau_aes.c ****     uint32_t head_index = 0U;
 1789              		.loc 1 505 14
 1790 0070 232C04FC 		sw	zero,-40(s0)
 506:../Firmware/GD32VW55x_standard_peripheral/Source/gd32vw55x_cau_aes.c ****     uint8_t blockb0[16U] = {0U};
 1791              		.loc 1 506 13
 1792 0074 232C04F4 		sw	zero,-168(s0)
 1793 0078 232E04F4 		sw	zero,-164(s0)
 1794 007c 232004F6 		sw	zero,-160(s0)
 1795 0080 232204F6 		sw	zero,-156(s0)
 507:../Firmware/GD32VW55x_standard_peripheral/Source/gd32vw55x_cau_aes.c ****     uint8_t counter[16U] = {0U};
 1796              		.loc 1 507 13
 1797 0084 232404F4 		sw	zero,-184(s0)
 1798 0088 232604F4 		sw	zero,-180(s0)
 1799 008c 232804F4 		sw	zero,-176(s0)
 1800 0090 232A04F4 		sw	zero,-172(s0)
 508:../Firmware/GD32VW55x_standard_peripheral/Source/gd32vw55x_cau_aes.c ****     uint32_t ctraddr = (uint32_t)counter;
 1801              		.loc 1 508 14
 1802 0094 930784F4 		addi	a5,s0,-184
 1803 0098 232EF4FA 		sw	a5,-68(s0)
 509:../Firmware/GD32VW55x_standard_peripheral/Source/gd32vw55x_cau_aes.c ****     uint32_t b0addr = (uint32_t)blockb0;
 1804              		.loc 1 509 14
 1805 009c 930784F5 		addi	a5,s0,-168
 1806 00a0 232CF4FA 		sw	a5,-72(s0)
 510:../Firmware/GD32VW55x_standard_peripheral/Source/gd32vw55x_cau_aes.c ****     uint32_t temp_tag[4U];
 511:../Firmware/GD32VW55x_standard_peripheral/Source/gd32vw55x_cau_aes.c **** 
 512:../Firmware/GD32VW55x_standard_peripheral/Source/gd32vw55x_cau_aes.c ****     /* formatting the aad block */
 513:../Firmware/GD32VW55x_standard_peripheral/Source/gd32vw55x_cau_aes.c ****     if((uint32_t)0U != aadsize) {
 1807              		.loc 1 513 7
 1808 00a4 8327C4FC 		lw	a5,-52(s0)
 1809 00a8 6388071A 		beq	a5,zero,.L52
 514:../Firmware/GD32VW55x_standard_peripheral/Source/gd32vw55x_cau_aes.c ****         /* check that the aad length is lower than 2^16 - 2^8 = 65536 - 256 = 65280 */
 515:../Firmware/GD32VW55x_standard_peripheral/Source/gd32vw55x_cau_aes.c ****         if(aadsize < 65280U) {
 1810              		.loc 1 515 11
 1811 00ac 0327C4FC 		lw	a4,-52(s0)
 1812 00b0 C167     		li	a5,65536
 1813 00b2 9387F7EF 		addi	a5,a5,-257
 1814 00b6 63E8E704 		bgtu	a4,a5,.L53
 516:../Firmware/GD32VW55x_standard_peripheral/Source/gd32vw55x_cau_aes.c ****             aad_buf[head_index++] = (uint8_t)((aadsize >> 8U) & 0xFFU);
 1815              		.loc 1 516 56
 1816 00ba 8327C4FC 		lw	a5,-52(s0)
 1817 00be 93D68700 		srli	a3,a5,8
 1818              		.loc 1 516 31
 1819 00c2 832784FD 		lw	a5,-40(s0)
 1820 00c6 13871700 		addi	a4,a5,1
 1821 00ca 232CE4FC 		sw	a4,-40(s0)
 1822              		.loc 1 516 20
 1823 00ce 0327C4F1 		lw	a4,-228(s0)
 1824 00d2 BA97     		add	a5,a4,a5
 1825              		.loc 1 516 37
 1826 00d4 13F7F60F 		andi	a4,a3,0xff
 1827              		.loc 1 516 35
 1828 00d8 2380E700 		sb	a4,0(a5)
 517:../Firmware/GD32VW55x_standard_peripheral/Source/gd32vw55x_cau_aes.c ****             aad_buf[head_index++] = (uint8_t)((aadsize) & 0xFFU);
 1829              		.loc 1 517 31
 1830 00dc 832784FD 		lw	a5,-40(s0)
 1831 00e0 13871700 		addi	a4,a5,1
 1832 00e4 232CE4FC 		sw	a4,-40(s0)
 1833              		.loc 1 517 20
 1834 00e8 0327C4F1 		lw	a4,-228(s0)
 1835 00ec BA97     		add	a5,a4,a5
 1836              		.loc 1 517 37
 1837 00ee 0327C4FC 		lw	a4,-52(s0)
 1838 00f2 1377F70F 		andi	a4,a4,0xff
 1839              		.loc 1 517 35
 1840 00f6 2380E700 		sb	a4,0(a5)
 518:../Firmware/GD32VW55x_standard_peripheral/Source/gd32vw55x_cau_aes.c ****             aad_block_size = aadsize + 2U;
 1841              		.loc 1 518 28
 1842 00fa 8327C4FC 		lw	a5,-52(s0)
 1843 00fe 8907     		addi	a5,a5,2
 1844 0100 2322F4FE 		sw	a5,-28(s0)
 1845 0104 C1A0     		j	.L54
 1846              	.L53:
 519:../Firmware/GD32VW55x_standard_peripheral/Source/gd32vw55x_cau_aes.c ****         } else {
 520:../Firmware/GD32VW55x_standard_peripheral/Source/gd32vw55x_cau_aes.c ****             /* aad is encoded as 0xFF || 0xFE || [aadsize]32, i.e., six octets */
 521:../Firmware/GD32VW55x_standard_peripheral/Source/gd32vw55x_cau_aes.c ****             aad_buf[head_index++] = 0xFFU;
 1847              		.loc 1 521 31
 1848 0106 832784FD 		lw	a5,-40(s0)
 1849 010a 13871700 		addi	a4,a5,1
 1850 010e 232CE4FC 		sw	a4,-40(s0)
 1851              		.loc 1 521 20
 1852 0112 0327C4F1 		lw	a4,-228(s0)
 1853 0116 BA97     		add	a5,a4,a5
 1854              		.loc 1 521 35
 1855 0118 7D57     		li	a4,-1
 1856 011a 2380E700 		sb	a4,0(a5)
 522:../Firmware/GD32VW55x_standard_peripheral/Source/gd32vw55x_cau_aes.c ****             aad_buf[head_index++] = 0xFEU;
 1857              		.loc 1 522 31
 1858 011e 832784FD 		lw	a5,-40(s0)
 1859 0122 13871700 		addi	a4,a5,1
 1860 0126 232CE4FC 		sw	a4,-40(s0)
 1861              		.loc 1 522 20
 1862 012a 0327C4F1 		lw	a4,-228(s0)
 1863 012e BA97     		add	a5,a4,a5
 1864              		.loc 1 522 35
 1865 0130 7957     		li	a4,-2
 1866 0132 2380E700 		sb	a4,0(a5)
 523:../Firmware/GD32VW55x_standard_peripheral/Source/gd32vw55x_cau_aes.c ****             aad_buf[head_index++] = (uint8_t)((aadsize & 0xFF000000U) >> 24U);
 1867              		.loc 1 523 71
 1868 0136 8327C4FC 		lw	a5,-52(s0)
 1869 013a 93D68701 		srli	a3,a5,24
 1870              		.loc 1 523 31
 1871 013e 832784FD 		lw	a5,-40(s0)
 1872 0142 13871700 		addi	a4,a5,1
 1873 0146 232CE4FC 		sw	a4,-40(s0)
 1874              		.loc 1 523 20
 1875 014a 0327C4F1 		lw	a4,-228(s0)
 1876 014e BA97     		add	a5,a4,a5
 1877              		.loc 1 523 37
 1878 0150 13F7F60F 		andi	a4,a3,0xff
 1879              		.loc 1 523 35
 1880 0154 2380E700 		sb	a4,0(a5)
 524:../Firmware/GD32VW55x_standard_peripheral/Source/gd32vw55x_cau_aes.c ****             aad_buf[head_index++] = (uint8_t)((aadsize & 0x00FF0000U) >> 16U);
 1881              		.loc 1 524 71
 1882 0158 8327C4FC 		lw	a5,-52(s0)
 1883 015c 93D60701 		srli	a3,a5,16
 1884              		.loc 1 524 31
 1885 0160 832784FD 		lw	a5,-40(s0)
 1886 0164 13871700 		addi	a4,a5,1
 1887 0168 232CE4FC 		sw	a4,-40(s0)
 1888              		.loc 1 524 20
 1889 016c 0327C4F1 		lw	a4,-228(s0)
 1890 0170 BA97     		add	a5,a4,a5
 1891              		.loc 1 524 37
 1892 0172 13F7F60F 		andi	a4,a3,0xff
 1893              		.loc 1 524 35
 1894 0176 2380E700 		sb	a4,0(a5)
 525:../Firmware/GD32VW55x_standard_peripheral/Source/gd32vw55x_cau_aes.c ****             aad_buf[head_index++] = (uint8_t)((aadsize & 0x0000FF00U) >> 8U);
 1895              		.loc 1 525 71
 1896 017a 8327C4FC 		lw	a5,-52(s0)
 1897 017e 93D68700 		srli	a3,a5,8
 1898              		.loc 1 525 31
 1899 0182 832784FD 		lw	a5,-40(s0)
 1900 0186 13871700 		addi	a4,a5,1
 1901 018a 232CE4FC 		sw	a4,-40(s0)
 1902              		.loc 1 525 20
 1903 018e 0327C4F1 		lw	a4,-228(s0)
 1904 0192 BA97     		add	a5,a4,a5
 1905              		.loc 1 525 37
 1906 0194 13F7F60F 		andi	a4,a3,0xff
 1907              		.loc 1 525 35
 1908 0198 2380E700 		sb	a4,0(a5)
 526:../Firmware/GD32VW55x_standard_peripheral/Source/gd32vw55x_cau_aes.c ****             aad_buf[head_index++] = (uint8_t)(aadsize & 0x000000FFU);
 1909              		.loc 1 526 31
 1910 019c 832784FD 		lw	a5,-40(s0)
 1911 01a0 13871700 		addi	a4,a5,1
 1912 01a4 232CE4FC 		sw	a4,-40(s0)
 1913              		.loc 1 526 20
 1914 01a8 0327C4F1 		lw	a4,-228(s0)
 1915 01ac BA97     		add	a5,a4,a5
 1916              		.loc 1 526 37
 1917 01ae 0327C4FC 		lw	a4,-52(s0)
 1918 01b2 1377F70F 		andi	a4,a4,0xff
 1919              		.loc 1 526 35
 1920 01b6 2380E700 		sb	a4,0(a5)
 527:../Firmware/GD32VW55x_standard_peripheral/Source/gd32vw55x_cau_aes.c ****             aad_block_size = aadsize + 6U;
 1921              		.loc 1 527 28
 1922 01ba 8327C4FC 		lw	a5,-52(s0)
 1923 01be 9907     		addi	a5,a5,6
 1924 01c0 2322F4FE 		sw	a5,-28(s0)
 1925              	.L54:
 528:../Firmware/GD32VW55x_standard_peripheral/Source/gd32vw55x_cau_aes.c ****         }
 529:../Firmware/GD32VW55x_standard_peripheral/Source/gd32vw55x_cau_aes.c ****         /* copy the aad buffer in internal buffer "HBuffer" */
 530:../Firmware/GD32VW55x_standard_peripheral/Source/gd32vw55x_cau_aes.c ****         for(i = 0U; i < aadsize; i++) {
 1926              		.loc 1 530 15
 1927 01c4 232004FE 		sw	zero,-32(s0)
 1928              		.loc 1 530 9
 1929 01c8 0DA8     		j	.L55
 1930              	.L56:
 531:../Firmware/GD32VW55x_standard_peripheral/Source/gd32vw55x_cau_aes.c ****             aad_buf[head_index++] = *(uint8_t *)((uint32_t)(aadaddr + i));
 1931              		.loc 1 531 69 discriminator 3
 1932 01ca 032784FE 		lw	a4,-24(s0)
 1933 01ce 832704FE 		lw	a5,-32(s0)
 1934 01d2 BA97     		add	a5,a4,a5
 1935              		.loc 1 531 38 discriminator 3
 1936 01d4 BE86     		mv	a3,a5
 1937              		.loc 1 531 31 discriminator 3
 1938 01d6 832784FD 		lw	a5,-40(s0)
 1939 01da 13871700 		addi	a4,a5,1
 1940 01de 232CE4FC 		sw	a4,-40(s0)
 1941              		.loc 1 531 20 discriminator 3
 1942 01e2 0327C4F1 		lw	a4,-228(s0)
 1943 01e6 BA97     		add	a5,a4,a5
 1944              		.loc 1 531 37 discriminator 3
 1945 01e8 03C70600 		lbu	a4,0(a3)
 1946              		.loc 1 531 35 discriminator 3
 1947 01ec 2380E700 		sb	a4,0(a5)
 530:../Firmware/GD32VW55x_standard_peripheral/Source/gd32vw55x_cau_aes.c ****             aad_buf[head_index++] = *(uint8_t *)((uint32_t)(aadaddr + i));
 1948              		.loc 1 530 35 discriminator 3
 1949 01f0 832704FE 		lw	a5,-32(s0)
 1950 01f4 8507     		addi	a5,a5,1
 1951 01f6 2320F4FE 		sw	a5,-32(s0)
 1952              	.L55:
 530:../Firmware/GD32VW55x_standard_peripheral/Source/gd32vw55x_cau_aes.c ****             aad_buf[head_index++] = *(uint8_t *)((uint32_t)(aadaddr + i));
 1953              		.loc 1 530 9 discriminator 1
 1954 01fa 032704FE 		lw	a4,-32(s0)
 1955 01fe 8327C4FC 		lw	a5,-52(s0)
 1956 0202 E364F7FC 		bltu	a4,a5,.L56
 532:../Firmware/GD32VW55x_standard_peripheral/Source/gd32vw55x_cau_aes.c ****         }
 533:../Firmware/GD32VW55x_standard_peripheral/Source/gd32vw55x_cau_aes.c ****         /* check if the aad block size is modulo 16 */
 534:../Firmware/GD32VW55x_standard_peripheral/Source/gd32vw55x_cau_aes.c ****         if(0U != (aad_block_size % 16U)) {
 1957              		.loc 1 534 34
 1958 0206 832744FE 		lw	a5,-28(s0)
 1959 020a BD8B     		andi	a5,a5,15
 1960              		.loc 1 534 11
 1961 020c B1C3     		beq	a5,zero,.L57
 535:../Firmware/GD32VW55x_standard_peripheral/Source/gd32vw55x_cau_aes.c ****             /* Pad the aad buffer with 0s till the HBuffer length is modulo 16 */
 536:../Firmware/GD32VW55x_standard_peripheral/Source/gd32vw55x_cau_aes.c ****             for(i = aad_block_size; i <= ((aad_block_size / 16U) + 1U) * 16U; i++) {
 1962              		.loc 1 536 19
 1963 020e 832744FE 		lw	a5,-28(s0)
 1964 0212 2320F4FE 		sw	a5,-32(s0)
 1965              		.loc 1 536 13
 1966 0216 29A8     		j	.L58
 1967              	.L59:
 537:../Firmware/GD32VW55x_standard_peripheral/Source/gd32vw55x_cau_aes.c ****                 aad_buf[i] = 0U;
 1968              		.loc 1 537 24 discriminator 3
 1969 0218 0327C4F1 		lw	a4,-228(s0)
 1970 021c 832704FE 		lw	a5,-32(s0)
 1971 0220 BA97     		add	a5,a4,a5
 1972              		.loc 1 537 28 discriminator 3
 1973 0222 23800700 		sb	zero,0(a5)
 536:../Firmware/GD32VW55x_standard_peripheral/Source/gd32vw55x_cau_aes.c ****                 aad_buf[i] = 0U;
 1974              		.loc 1 536 80 discriminator 3
 1975 0226 832704FE 		lw	a5,-32(s0)
 1976 022a 8507     		addi	a5,a5,1
 1977 022c 2320F4FE 		sw	a5,-32(s0)
 1978              	.L58:
 536:../Firmware/GD32VW55x_standard_peripheral/Source/gd32vw55x_cau_aes.c ****                 aad_buf[i] = 0U;
 1979              		.loc 1 536 59 discriminator 1
 1980 0230 832744FE 		lw	a5,-28(s0)
 1981 0234 9183     		srli	a5,a5,4
 536:../Firmware/GD32VW55x_standard_peripheral/Source/gd32vw55x_cau_aes.c ****                 aad_buf[i] = 0U;
 1982              		.loc 1 536 66 discriminator 1
 1983 0236 8507     		addi	a5,a5,1
 536:../Firmware/GD32VW55x_standard_peripheral/Source/gd32vw55x_cau_aes.c ****                 aad_buf[i] = 0U;
 1984              		.loc 1 536 72 discriminator 1
 1985 0238 9207     		slli	a5,a5,4
 536:../Firmware/GD32VW55x_standard_peripheral/Source/gd32vw55x_cau_aes.c ****                 aad_buf[i] = 0U;
 1986              		.loc 1 536 13 discriminator 1
 1987 023a 032704FE 		lw	a4,-32(s0)
 1988 023e E3FDE7FC 		bleu	a4,a5,.L59
 538:../Firmware/GD32VW55x_standard_peripheral/Source/gd32vw55x_cau_aes.c ****             }
 539:../Firmware/GD32VW55x_standard_peripheral/Source/gd32vw55x_cau_aes.c ****             /* set the aad size to modulo 16 */
 540:../Firmware/GD32VW55x_standard_peripheral/Source/gd32vw55x_cau_aes.c ****             aad_block_size = ((aad_block_size / 16U) + 1U) * 16U;
 1989              		.loc 1 540 47
 1990 0242 832744FE 		lw	a5,-28(s0)
 1991 0246 9183     		srli	a5,a5,4
 1992              		.loc 1 540 54
 1993 0248 8507     		addi	a5,a5,1
 1994              		.loc 1 540 28
 1995 024a 9207     		slli	a5,a5,4
 1996 024c 2322F4FE 		sw	a5,-28(s0)
 1997              	.L57:
 541:../Firmware/GD32VW55x_standard_peripheral/Source/gd32vw55x_cau_aes.c ****         }
 542:../Firmware/GD32VW55x_standard_peripheral/Source/gd32vw55x_cau_aes.c ****         /* set the pointer aadaddr to HBuffer */
 543:../Firmware/GD32VW55x_standard_peripheral/Source/gd32vw55x_cau_aes.c ****         aadaddr = (uint32_t)aad_buf;
 1998              		.loc 1 543 17
 1999 0250 8327C4F1 		lw	a5,-228(s0)
 2000 0254 2324F4FE 		sw	a5,-24(s0)
 2001              	.L52:
 544:../Firmware/GD32VW55x_standard_peripheral/Source/gd32vw55x_cau_aes.c ****     }
 545:../Firmware/GD32VW55x_standard_peripheral/Source/gd32vw55x_cau_aes.c **** 
 546:../Firmware/GD32VW55x_standard_peripheral/Source/gd32vw55x_cau_aes.c ****     /* formatting the block B0 */
 547:../Firmware/GD32VW55x_standard_peripheral/Source/gd32vw55x_cau_aes.c ****     if(0U != aadsize) {
 2002              		.loc 1 547 7
 2003 0258 8327C4FC 		lw	a5,-52(s0)
 2004 025c 89C7     		beq	a5,zero,.L60
 548:../Firmware/GD32VW55x_standard_peripheral/Source/gd32vw55x_cau_aes.c ****         blockb0[0] = 0x40U;
 2005              		.loc 1 548 20
 2006 025e 93070004 		li	a5,64
 2007 0262 230CF4F4 		sb	a5,-168(s0)
 2008              	.L60:
 549:../Firmware/GD32VW55x_standard_peripheral/Source/gd32vw55x_cau_aes.c ****     }
 550:../Firmware/GD32VW55x_standard_peripheral/Source/gd32vw55x_cau_aes.c ****     /* flags byte */
 551:../Firmware/GD32VW55x_standard_peripheral/Source/gd32vw55x_cau_aes.c ****     blockb0[0] |= (0U | (((((uint8_t) tag_size - 2U) / 2U) & 0x07U) << 3U) | (((uint8_t)(15U - ivsi
 2009              		.loc 1 551 16
 2010 0266 034784F5 		lbu	a4,-168(s0)
 2011              		.loc 1 551 29
 2012 026a 832704F2 		lw	a5,-224(s0)
 2013 026e 93F7F70F 		andi	a5,a5,0xff
 2014              		.loc 1 551 48
 2015 0272 F917     		addi	a5,a5,-2
 2016              		.loc 1 551 54
 2017 0274 8583     		srli	a5,a5,1
 2018              		.loc 1 551 69
 2019 0276 93F7F70F 		andi	a5,a5,0xff
 2020 027a 8E07     		slli	a5,a5,3
 2021 027c 93F7F70F 		andi	a5,a5,0xff
 2022              		.loc 1 551 23
 2023 0280 93F78703 		andi	a5,a5,56
 2024 0284 93F6F70F 		andi	a3,a5,0xff
 2025              		.loc 1 551 104
 2026 0288 832744FC 		lw	a5,-60(s0)
 2027 028c 93F7F70F 		andi	a5,a5,0xff
 2028 0290 3946     		li	a2,14
 2029 0292 B307F640 		sub	a5,a2,a5
 2030 0296 93F7F70F 		andi	a5,a5,0xff
 2031              		.loc 1 551 110
 2032 029a 9D8B     		andi	a5,a5,7
 2033 029c 93F7F70F 		andi	a5,a5,0xff
 2034              		.loc 1 551 76
 2035 02a0 D58F     		or	a5,a3,a5
 2036 02a2 93F7F70F 		andi	a5,a5,0xff
 2037              		.loc 1 551 16
 2038 02a6 D98F     		or	a5,a4,a5
 2039 02a8 93F7F70F 		andi	a5,a5,0xff
 2040 02ac 230CF4F4 		sb	a5,-168(s0)
 552:../Firmware/GD32VW55x_standard_peripheral/Source/gd32vw55x_cau_aes.c **** 
 553:../Firmware/GD32VW55x_standard_peripheral/Source/gd32vw55x_cau_aes.c ****     if((MIN_CCM_IV_SIZE > ivsize) || (MAX_CCM_IV_SIZE < ivsize)) {
 2041              		.loc 1 553 7
 2042 02b0 032744FC 		lw	a4,-60(s0)
 2043 02b4 9947     		li	a5,6
 2044 02b6 63F7E700 		bleu	a4,a5,.L61
 2045              		.loc 1 553 35 discriminator 1
 2046 02ba 032744FC 		lw	a4,-60(s0)
 2047 02be B547     		li	a5,13
 2048 02c0 63F4E700 		bleu	a4,a5,.L62
 2049              	.L61:
 554:../Firmware/GD32VW55x_standard_peripheral/Source/gd32vw55x_cau_aes.c ****         return ERROR;
 2050              		.loc 1 554 16
 2051 02c4 8147     		li	a5,0
 2052 02c6 99A3     		j	.L85
 2053              	.L62:
 555:../Firmware/GD32VW55x_standard_peripheral/Source/gd32vw55x_cau_aes.c ****     }
 556:../Firmware/GD32VW55x_standard_peripheral/Source/gd32vw55x_cau_aes.c **** 
 557:../Firmware/GD32VW55x_standard_peripheral/Source/gd32vw55x_cau_aes.c ****     for(i = 0U; i < ivsize; i++) {
 2054              		.loc 1 557 11
 2055 02c8 232004FE 		sw	zero,-32(s0)
 2056              		.loc 1 557 5
 2057 02cc 35A0     		j	.L64
 2058              	.L65:
 558:../Firmware/GD32VW55x_standard_peripheral/Source/gd32vw55x_cau_aes.c ****         blockb0[i + 1U] = *(uint8_t *)((uint32_t)(ivaddr + i));
 2059              		.loc 1 558 58 discriminator 3
 2060 02ce 032784FC 		lw	a4,-56(s0)
 2061 02d2 832704FE 		lw	a5,-32(s0)
 2062 02d6 BA97     		add	a5,a4,a5
 2063              		.loc 1 558 28 discriminator 3
 2064 02d8 3E87     		mv	a4,a5
 2065              		.loc 1 558 19 discriminator 3
 2066 02da 832704FE 		lw	a5,-32(s0)
 2067 02de 8507     		addi	a5,a5,1
 2068              		.loc 1 558 27 discriminator 3
 2069 02e0 03470700 		lbu	a4,0(a4)
 2070              		.loc 1 558 25 discriminator 3
 2071 02e4 930604FF 		addi	a3,s0,-16
 2072 02e8 B697     		add	a5,a3,a5
 2073 02ea 2384E7F6 		sb	a4,-152(a5)
 557:../Firmware/GD32VW55x_standard_peripheral/Source/gd32vw55x_cau_aes.c ****         blockb0[i + 1U] = *(uint8_t *)((uint32_t)(ivaddr + i));
 2074              		.loc 1 557 30 discriminator 3
 2075 02ee 832704FE 		lw	a5,-32(s0)
 2076 02f2 8507     		addi	a5,a5,1
 2077 02f4 2320F4FE 		sw	a5,-32(s0)
 2078              	.L64:
 557:../Firmware/GD32VW55x_standard_peripheral/Source/gd32vw55x_cau_aes.c ****         blockb0[i + 1U] = *(uint8_t *)((uint32_t)(ivaddr + i));
 2079              		.loc 1 557 5 discriminator 1
 2080 02f8 032704FE 		lw	a4,-32(s0)
 2081 02fc 832744FC 		lw	a5,-60(s0)
 2082 0300 E367F7FC 		bltu	a4,a5,.L65
 559:../Firmware/GD32VW55x_standard_peripheral/Source/gd32vw55x_cau_aes.c ****     }
 560:../Firmware/GD32VW55x_standard_peripheral/Source/gd32vw55x_cau_aes.c **** 
 561:../Firmware/GD32VW55x_standard_peripheral/Source/gd32vw55x_cau_aes.c ****     /* the byte length for payload length expressing, which plus the ivsize must equal to 15 bytes 
 562:../Firmware/GD32VW55x_standard_peripheral/Source/gd32vw55x_cau_aes.c ****     plen = 15U - ivsize;
 2083              		.loc 1 562 10
 2084 0304 3D47     		li	a4,15
 2085 0306 832744FC 		lw	a5,-60(s0)
 2086 030a B307F740 		sub	a5,a4,a5
 2087 030e 232EF4FC 		sw	a5,-36(s0)
 563:../Firmware/GD32VW55x_standard_peripheral/Source/gd32vw55x_cau_aes.c ****     /* if the byte length for payload length expressing is more than 4 bytes */
 564:../Firmware/GD32VW55x_standard_peripheral/Source/gd32vw55x_cau_aes.c ****     if(plen > 4U) {
 2088              		.loc 1 564 7
 2089 0312 0327C4FD 		lw	a4,-36(s0)
 2090 0316 9147     		li	a5,4
 2091 0318 63F2E70A 		bleu	a4,a5,.L70
 565:../Firmware/GD32VW55x_standard_peripheral/Source/gd32vw55x_cau_aes.c ****         /* pad the blockb0 after vectors, and before the last 4 bytes */
 566:../Firmware/GD32VW55x_standard_peripheral/Source/gd32vw55x_cau_aes.c ****         for(; i < 11U; i++) {
 2092              		.loc 1 566 9
 2093 031c 31A8     		j	.L67
 2094              	.L68:
 567:../Firmware/GD32VW55x_standard_peripheral/Source/gd32vw55x_cau_aes.c ****             blockb0[i + 1U] = 0U;
 2095              		.loc 1 567 23 discriminator 2
 2096 031e 832704FE 		lw	a5,-32(s0)
 2097 0322 8507     		addi	a5,a5,1
 2098              		.loc 1 567 29 discriminator 2
 2099 0324 130704FF 		addi	a4,s0,-16
 2100 0328 BA97     		add	a5,a4,a5
 2101 032a 238407F6 		sb	zero,-152(a5)
 566:../Firmware/GD32VW55x_standard_peripheral/Source/gd32vw55x_cau_aes.c ****             blockb0[i + 1U] = 0U;
 2102              		.loc 1 566 25 discriminator 2
 2103 032e 832704FE 		lw	a5,-32(s0)
 2104 0332 8507     		addi	a5,a5,1
 2105 0334 2320F4FE 		sw	a5,-32(s0)
 2106              	.L67:
 566:../Firmware/GD32VW55x_standard_peripheral/Source/gd32vw55x_cau_aes.c ****             blockb0[i + 1U] = 0U;
 2107              		.loc 1 566 9 discriminator 1
 2108 0338 032704FE 		lw	a4,-32(s0)
 2109 033c A947     		li	a5,10
 2110 033e E3F0E7FE 		bleu	a4,a5,.L68
 568:../Firmware/GD32VW55x_standard_peripheral/Source/gd32vw55x_cau_aes.c ****         }
 569:../Firmware/GD32VW55x_standard_peripheral/Source/gd32vw55x_cau_aes.c ****         blockb0[12U] = (uint8_t)((inputsize >> 24U) & 0xFFU);
 2111              		.loc 1 569 45
 2112 0342 832704FD 		lw	a5,-48(s0)
 2113 0346 E183     		srli	a5,a5,24
 2114              		.loc 1 569 24
 2115 0348 93F7F70F 		andi	a5,a5,0xff
 2116              		.loc 1 569 22
 2117 034c 2302F4F6 		sb	a5,-156(s0)
 570:../Firmware/GD32VW55x_standard_peripheral/Source/gd32vw55x_cau_aes.c ****         blockb0[13U] = (uint8_t)((inputsize >> 16U) & 0xFFU);
 2118              		.loc 1 570 45
 2119 0350 832704FD 		lw	a5,-48(s0)
 2120 0354 C183     		srli	a5,a5,16
 2121              		.loc 1 570 24
 2122 0356 93F7F70F 		andi	a5,a5,0xff
 2123              		.loc 1 570 22
 2124 035a A302F4F6 		sb	a5,-155(s0)
 571:../Firmware/GD32VW55x_standard_peripheral/Source/gd32vw55x_cau_aes.c ****         blockb0[14U] = (uint8_t)((inputsize >> 8U) & 0xFFU);
 2125              		.loc 1 571 45
 2126 035e 832704FD 		lw	a5,-48(s0)
 2127 0362 A183     		srli	a5,a5,8
 2128              		.loc 1 571 24
 2129 0364 93F7F70F 		andi	a5,a5,0xff
 2130              		.loc 1 571 22
 2131 0368 2303F4F6 		sb	a5,-154(s0)
 572:../Firmware/GD32VW55x_standard_peripheral/Source/gd32vw55x_cau_aes.c ****         blockb0[15U] = (uint8_t)(inputsize & 0xFFU);
 2132              		.loc 1 572 24
 2133 036c 832704FD 		lw	a5,-48(s0)
 2134 0370 93F7F70F 		andi	a5,a5,0xff
 2135              		.loc 1 572 22
 2136 0374 A303F4F6 		sb	a5,-153(s0)
 2137 0378 B9A0     		j	.L69
 2138              	.L71:
 573:../Firmware/GD32VW55x_standard_peripheral/Source/gd32vw55x_cau_aes.c ****     } else {
 574:../Firmware/GD32VW55x_standard_peripheral/Source/gd32vw55x_cau_aes.c ****         /* the payload length is expressed in plen bytes */
 575:../Firmware/GD32VW55x_standard_peripheral/Source/gd32vw55x_cau_aes.c ****         for(; i < 15U; i++) {
 576:../Firmware/GD32VW55x_standard_peripheral/Source/gd32vw55x_cau_aes.c ****             blockb0[i + 1U] = (uint8_t)((inputsize >> ((uint8_t)((plen - 1U) * 8U))) & 0xFFU);
 2139              		.loc 1 576 72 discriminator 2
 2140 037a 8327C4FD 		lw	a5,-36(s0)
 2141 037e FD17     		addi	a5,a5,-1
 2142              		.loc 1 576 56 discriminator 2
 2143 0380 93F7F70F 		andi	a5,a5,0xff
 2144 0384 8E07     		slli	a5,a5,3
 2145 0386 93F7F70F 		andi	a5,a5,0xff
 2146 038a 3E87     		mv	a4,a5
 2147              		.loc 1 576 52 discriminator 2
 2148 038c 832704FD 		lw	a5,-48(s0)
 2149 0390 33D7E700 		srl	a4,a5,a4
 2150              		.loc 1 576 23 discriminator 2
 2151 0394 832704FE 		lw	a5,-32(s0)
 2152 0398 8507     		addi	a5,a5,1
 2153              		.loc 1 576 31 discriminator 2
 2154 039a 1377F70F 		andi	a4,a4,0xff
 2155              		.loc 1 576 29 discriminator 2
 2156 039e 930604FF 		addi	a3,s0,-16
 2157 03a2 B697     		add	a5,a3,a5
 2158 03a4 2384E7F6 		sb	a4,-152(a5)
 577:../Firmware/GD32VW55x_standard_peripheral/Source/gd32vw55x_cau_aes.c ****             plen--;
 2159              		.loc 1 577 17 discriminator 2
 2160 03a8 8327C4FD 		lw	a5,-36(s0)
 2161 03ac FD17     		addi	a5,a5,-1
 2162 03ae 232EF4FC 		sw	a5,-36(s0)
 575:../Firmware/GD32VW55x_standard_peripheral/Source/gd32vw55x_cau_aes.c ****             blockb0[i + 1U] = (uint8_t)((inputsize >> ((uint8_t)((plen - 1U) * 8U))) & 0xFFU);
 2163              		.loc 1 575 25 discriminator 2
 2164 03b2 832704FE 		lw	a5,-32(s0)
 2165 03b6 8507     		addi	a5,a5,1
 2166 03b8 2320F4FE 		sw	a5,-32(s0)
 2167              	.L70:
 575:../Firmware/GD32VW55x_standard_peripheral/Source/gd32vw55x_cau_aes.c ****             blockb0[i + 1U] = (uint8_t)((inputsize >> ((uint8_t)((plen - 1U) * 8U))) & 0xFFU);
 2168              		.loc 1 575 9 discriminator 1
 2169 03bc 032704FE 		lw	a4,-32(s0)
 2170 03c0 B947     		li	a5,14
 2171 03c2 E3FCE7FA 		bleu	a4,a5,.L71
 2172              	.L69:
 578:../Firmware/GD32VW55x_standard_peripheral/Source/gd32vw55x_cau_aes.c ****         }
 579:../Firmware/GD32VW55x_standard_peripheral/Source/gd32vw55x_cau_aes.c ****     }
 580:../Firmware/GD32VW55x_standard_peripheral/Source/gd32vw55x_cau_aes.c **** 
 581:../Firmware/GD32VW55x_standard_peripheral/Source/gd32vw55x_cau_aes.c ****     /* formatting the initial counter */
 582:../Firmware/GD32VW55x_standard_peripheral/Source/gd32vw55x_cau_aes.c ****     /* byte 0: bits 0-2 contain the same encoding of q as in B0 */
 583:../Firmware/GD32VW55x_standard_peripheral/Source/gd32vw55x_cau_aes.c ****     counter[0] = blockb0[0] & BLOCK_B0_MASK;
 2173              		.loc 1 583 25
 2174 03c6 834784F5 		lbu	a5,-168(s0)
 2175              		.loc 1 583 29
 2176 03ca 9D8B     		andi	a5,a5,7
 2177 03cc 93F7F70F 		andi	a5,a5,0xff
 2178              		.loc 1 583 16
 2179 03d0 2304F4F4 		sb	a5,-184(s0)
 584:../Firmware/GD32VW55x_standard_peripheral/Source/gd32vw55x_cau_aes.c ****     for(i = 1U; i < ivsize + 1U; i++) {
 2180              		.loc 1 584 11
 2181 03d4 8547     		li	a5,1
 2182 03d6 2320F4FE 		sw	a5,-32(s0)
 2183              		.loc 1 584 5
 2184 03da 25A0     		j	.L72
 2185              	.L73:
 585:../Firmware/GD32VW55x_standard_peripheral/Source/gd32vw55x_cau_aes.c ****         counter[i] = blockb0[i];
 2186              		.loc 1 585 29 discriminator 3
 2187 03dc 832704FE 		lw	a5,-32(s0)
 2188 03e0 130704FF 		addi	a4,s0,-16
 2189 03e4 BA97     		add	a5,a4,a5
 2190 03e6 03C787F6 		lbu	a4,-152(a5)
 2191              		.loc 1 585 20 discriminator 3
 2192 03ea 832704FE 		lw	a5,-32(s0)
 2193 03ee 930604FF 		addi	a3,s0,-16
 2194 03f2 B697     		add	a5,a3,a5
 2195 03f4 238CE7F4 		sb	a4,-168(a5)
 584:../Firmware/GD32VW55x_standard_peripheral/Source/gd32vw55x_cau_aes.c ****     for(i = 1U; i < ivsize + 1U; i++) {
 2196              		.loc 1 584 35 discriminator 3
 2197 03f8 832704FE 		lw	a5,-32(s0)
 2198 03fc 8507     		addi	a5,a5,1
 2199 03fe 2320F4FE 		sw	a5,-32(s0)
 2200              	.L72:
 584:../Firmware/GD32VW55x_standard_peripheral/Source/gd32vw55x_cau_aes.c ****     for(i = 1U; i < ivsize + 1U; i++) {
 2201              		.loc 1 584 28 discriminator 1
 2202 0402 832744FC 		lw	a5,-60(s0)
 2203 0406 8507     		addi	a5,a5,1
 584:../Firmware/GD32VW55x_standard_peripheral/Source/gd32vw55x_cau_aes.c ****     for(i = 1U; i < ivsize + 1U; i++) {
 2204              		.loc 1 584 5 discriminator 1
 2205 0408 032704FE 		lw	a4,-32(s0)
 2206 040c E368F7FC 		bltu	a4,a5,.L73
 586:../Firmware/GD32VW55x_standard_peripheral/Source/gd32vw55x_cau_aes.c ****     }
 587:../Firmware/GD32VW55x_standard_peripheral/Source/gd32vw55x_cau_aes.c ****     /* set the LSB to 1 */
 588:../Firmware/GD32VW55x_standard_peripheral/Source/gd32vw55x_cau_aes.c ****     counter[15] |= 0x01U;
 2207              		.loc 1 588 17
 2208 0410 834774F5 		lbu	a5,-169(s0)
 2209 0414 93E71700 		ori	a5,a5,1
 2210 0418 93F7F70F 		andi	a5,a5,0xff
 2211 041c A30BF4F4 		sb	a5,-169(s0)
 589:../Firmware/GD32VW55x_standard_peripheral/Source/gd32vw55x_cau_aes.c **** 
 590:../Firmware/GD32VW55x_standard_peripheral/Source/gd32vw55x_cau_aes.c ****     /* prepare phase */
 591:../Firmware/GD32VW55x_standard_peripheral/Source/gd32vw55x_cau_aes.c ****     /* flush the IN and OUT FIFOs */
 592:../Firmware/GD32VW55x_standard_peripheral/Source/gd32vw55x_cau_aes.c ****     cau_fifo_flush();
 2212              		.loc 1 592 5
 2213 0420 97000000 		call	cau_fifo_flush
 2213      E7800000 
 593:../Firmware/GD32VW55x_standard_peripheral/Source/gd32vw55x_cau_aes.c ****     /* clear CAUEN bit to ensure CAU is disable */
 594:../Firmware/GD32VW55x_standard_peripheral/Source/gd32vw55x_cau_aes.c ****     cau_disable();
 2214              		.loc 1 594 5
 2215 0428 97000000 		call	cau_disable
 2215      E7800000 
 595:../Firmware/GD32VW55x_standard_peripheral/Source/gd32vw55x_cau_aes.c **** 
 596:../Firmware/GD32VW55x_standard_peripheral/Source/gd32vw55x_cau_aes.c ****     /* key structure initialization */
 597:../Firmware/GD32VW55x_standard_peripheral/Source/gd32vw55x_cau_aes.c ****     cau_key_struct_para_init(&key_initpara);
 2216              		.loc 1 597 5
 2217 0430 930784F7 		addi	a5,s0,-136
 2218 0434 3E85     		mv	a0,a5
 2219 0436 97000000 		call	cau_key_struct_para_init
 2219      E7800000 
 598:../Firmware/GD32VW55x_standard_peripheral/Source/gd32vw55x_cau_aes.c ****     /* initialize the CAU peripheral */
 599:../Firmware/GD32VW55x_standard_peripheral/Source/gd32vw55x_cau_aes.c ****     cau_init(cau_parameter->alg_dir, CAU_MODE_AES_CCM, CAU_SWAPPING_8BIT);
 2220              		.loc 1 599 5
 2221 043e 8327C4F2 		lw	a5,-212(s0)
 2222 0442 9843     		lw	a4,0(a5)
 2223 0444 13060008 		li	a2,128
 2224 0448 B7070800 		li	a5,524288
 2225 044c 93858700 		addi	a1,a5,8
 2226 0450 3A85     		mv	a0,a4
 2227 0452 97000000 		call	cau_init
 2227      E7800000 
 600:../Firmware/GD32VW55x_standard_peripheral/Source/gd32vw55x_cau_aes.c ****     /* select init phase */
 601:../Firmware/GD32VW55x_standard_peripheral/Source/gd32vw55x_cau_aes.c ****     cau_phase_config(CAU_PREPARE_PHASE);
 2228              		.loc 1 601 5
 2229 045a 0145     		li	a0,0
 2230 045c 97000000 		call	cau_phase_config
 2230      E7800000 
 602:../Firmware/GD32VW55x_standard_peripheral/Source/gd32vw55x_cau_aes.c **** 
 603:../Firmware/GD32VW55x_standard_peripheral/Source/gd32vw55x_cau_aes.c ****     /* AES key structure parameter config */
 604:../Firmware/GD32VW55x_standard_peripheral/Source/gd32vw55x_cau_aes.c ****     cau_aes_key_config(cau_parameter->key, cau_parameter->key_size, &key_initpara);
 2231              		.loc 1 604 5
 2232 0464 8327C4F2 		lw	a5,-212(s0)
 2233 0468 D843     		lw	a4,4(a5)
 2234 046a 8327C4F2 		lw	a5,-212(s0)
 2235 046e 9C47     		lw	a5,8(a5)
 2236 0470 930684F7 		addi	a3,s0,-136
 2237 0474 3686     		mv	a2,a3
 2238 0476 BE85     		mv	a1,a5
 2239 0478 3A85     		mv	a0,a4
 2240 047a 97000000 		call	cau_aes_key_config
 2240      E7800000 
 605:../Firmware/GD32VW55x_standard_peripheral/Source/gd32vw55x_cau_aes.c ****     /* key initialization */
 606:../Firmware/GD32VW55x_standard_peripheral/Source/gd32vw55x_cau_aes.c ****     cau_key_init(&key_initpara);
 2241              		.loc 1 606 5
 2242 0482 930784F7 		addi	a5,s0,-136
 2243 0486 3E85     		mv	a0,a5
 2244 0488 97000000 		call	cau_key_init
 2244      E7800000 
 607:../Firmware/GD32VW55x_standard_peripheral/Source/gd32vw55x_cau_aes.c **** 
 608:../Firmware/GD32VW55x_standard_peripheral/Source/gd32vw55x_cau_aes.c ****     /* vectors initialization */
 609:../Firmware/GD32VW55x_standard_peripheral/Source/gd32vw55x_cau_aes.c ****     iv_initpara.iv_0_high = __REV(*(uint32_t *)(ctraddr));
 2245              		.loc 1 609 36
 2246 0490 8327C4FB 		lw	a5,-68(s0)
 2247              		.loc 1 609 29
 2248 0494 9C43     		lw	a5,0(a5)
 2249 0496 232EF4F8 		sw	a5,-100(s0)
 2250              	.LBB142:
 2251              	.LBB143:
 124:../Firmware/RISCV/drivers/core_compatiable.h ****         | ((value & 0x00ff0000) >> 8 )
 2252              		.loc 2 124 37
 2253 049a 8327C4F9 		lw	a5,-100(s0)
 2254 049e 13D78701 		srli	a4,a5,24
 125:../Firmware/RISCV/drivers/core_compatiable.h ****         | ((value & 0x0000ff00) << 8 )
 2255              		.loc 2 125 33
 2256 04a2 8327C4F9 		lw	a5,-100(s0)
 2257 04a6 93D68700 		srli	a3,a5,8
 2258 04aa C167     		li	a5,65536
 2259 04ac 938707F0 		addi	a5,a5,-256
 2260 04b0 F58F     		and	a5,a3,a5
 125:../Firmware/RISCV/drivers/core_compatiable.h ****         | ((value & 0x0000ff00) << 8 )
 2261              		.loc 2 125 9
 2262 04b2 5D8F     		or	a4,a4,a5
 126:../Firmware/RISCV/drivers/core_compatiable.h ****         | ((value & 0x000000ff) << 24);
 2263              		.loc 2 126 33
 2264 04b4 8327C4F9 		lw	a5,-100(s0)
 2265 04b8 93968700 		slli	a3,a5,8
 2266 04bc B707FF00 		li	a5,16711680
 2267 04c0 F58F     		and	a5,a3,a5
 126:../Firmware/RISCV/drivers/core_compatiable.h ****         | ((value & 0x000000ff) << 24);
 2268              		.loc 2 126 9
 2269 04c2 5D8F     		or	a4,a4,a5
 127:../Firmware/RISCV/drivers/core_compatiable.h ****     return result;
 2270              		.loc 2 127 33
 2271 04c4 8327C4F9 		lw	a5,-100(s0)
 2272 04c8 E207     		slli	a5,a5,24
 124:../Firmware/RISCV/drivers/core_compatiable.h ****         | ((value & 0x00ff0000) >> 8 )
 2273              		.loc 2 124 12
 2274 04ca D98F     		or	a5,a4,a5
 2275 04cc 232CF4F8 		sw	a5,-104(s0)
 2276              		.loc 2 128 12
 2277 04d0 832784F9 		lw	a5,-104(s0)
 2278              	.LBE143:
 2279              	.LBE142:
 2280              		.loc 1 609 27
 2281 04d4 2324F4F6 		sw	a5,-152(s0)
 610:../Firmware/GD32VW55x_standard_peripheral/Source/gd32vw55x_cau_aes.c ****     ctraddr += 4U;
 2282              		.loc 1 610 13
 2283 04d8 8327C4FB 		lw	a5,-68(s0)
 2284 04dc 9107     		addi	a5,a5,4
 2285 04de 232EF4FA 		sw	a5,-68(s0)
 611:../Firmware/GD32VW55x_standard_peripheral/Source/gd32vw55x_cau_aes.c ****     iv_initpara.iv_0_low = __REV(*(uint32_t *)(ctraddr));
 2286              		.loc 1 611 35
 2287 04e2 8327C4FB 		lw	a5,-68(s0)
 2288              		.loc 1 611 28
 2289 04e6 9C43     		lw	a5,0(a5)
 2290 04e8 2322F4FA 		sw	a5,-92(s0)
 2291              	.LBB144:
 2292              	.LBB145:
 124:../Firmware/RISCV/drivers/core_compatiable.h ****         | ((value & 0x00ff0000) >> 8 )
 2293              		.loc 2 124 37
 2294 04ec 832744FA 		lw	a5,-92(s0)
 2295 04f0 13D78701 		srli	a4,a5,24
 125:../Firmware/RISCV/drivers/core_compatiable.h ****         | ((value & 0x0000ff00) << 8 )
 2296              		.loc 2 125 33
 2297 04f4 832744FA 		lw	a5,-92(s0)
 2298 04f8 93D68700 		srli	a3,a5,8
 2299 04fc C167     		li	a5,65536
 2300 04fe 938707F0 		addi	a5,a5,-256
 2301 0502 F58F     		and	a5,a3,a5
 125:../Firmware/RISCV/drivers/core_compatiable.h ****         | ((value & 0x0000ff00) << 8 )
 2302              		.loc 2 125 9
 2303 0504 5D8F     		or	a4,a4,a5
 126:../Firmware/RISCV/drivers/core_compatiable.h ****         | ((value & 0x000000ff) << 24);
 2304              		.loc 2 126 33
 2305 0506 832744FA 		lw	a5,-92(s0)
 2306 050a 93968700 		slli	a3,a5,8
 2307 050e B707FF00 		li	a5,16711680
 2308 0512 F58F     		and	a5,a3,a5
 126:../Firmware/RISCV/drivers/core_compatiable.h ****         | ((value & 0x000000ff) << 24);
 2309              		.loc 2 126 9
 2310 0514 5D8F     		or	a4,a4,a5
 127:../Firmware/RISCV/drivers/core_compatiable.h ****     return result;
 2311              		.loc 2 127 33
 2312 0516 832744FA 		lw	a5,-92(s0)
 2313 051a E207     		slli	a5,a5,24
 124:../Firmware/RISCV/drivers/core_compatiable.h ****         | ((value & 0x00ff0000) >> 8 )
 2314              		.loc 2 124 12
 2315 051c D98F     		or	a5,a4,a5
 2316 051e 2320F4FA 		sw	a5,-96(s0)
 2317              		.loc 2 128 12
 2318 0522 832704FA 		lw	a5,-96(s0)
 2319              	.LBE145:
 2320              	.LBE144:
 2321              		.loc 1 611 26
 2322 0526 2326F4F6 		sw	a5,-148(s0)
 612:../Firmware/GD32VW55x_standard_peripheral/Source/gd32vw55x_cau_aes.c ****     ctraddr += 4U;
 2323              		.loc 1 612 13
 2324 052a 8327C4FB 		lw	a5,-68(s0)
 2325 052e 9107     		addi	a5,a5,4
 2326 0530 232EF4FA 		sw	a5,-68(s0)
 613:../Firmware/GD32VW55x_standard_peripheral/Source/gd32vw55x_cau_aes.c ****     iv_initpara.iv_1_high = __REV(*(uint32_t *)(ctraddr));
 2327              		.loc 1 613 36
 2328 0534 8327C4FB 		lw	a5,-68(s0)
 2329              		.loc 1 613 29
 2330 0538 9C43     		lw	a5,0(a5)
 2331 053a 2326F4FA 		sw	a5,-84(s0)
 2332              	.LBB146:
 2333              	.LBB147:
 124:../Firmware/RISCV/drivers/core_compatiable.h ****         | ((value & 0x00ff0000) >> 8 )
 2334              		.loc 2 124 37
 2335 053e 8327C4FA 		lw	a5,-84(s0)
 2336 0542 13D78701 		srli	a4,a5,24
 125:../Firmware/RISCV/drivers/core_compatiable.h ****         | ((value & 0x0000ff00) << 8 )
 2337              		.loc 2 125 33
 2338 0546 8327C4FA 		lw	a5,-84(s0)
 2339 054a 93D68700 		srli	a3,a5,8
 2340 054e C167     		li	a5,65536
 2341 0550 938707F0 		addi	a5,a5,-256
 2342 0554 F58F     		and	a5,a3,a5
 125:../Firmware/RISCV/drivers/core_compatiable.h ****         | ((value & 0x0000ff00) << 8 )
 2343              		.loc 2 125 9
 2344 0556 5D8F     		or	a4,a4,a5
 126:../Firmware/RISCV/drivers/core_compatiable.h ****         | ((value & 0x000000ff) << 24);
 2345              		.loc 2 126 33
 2346 0558 8327C4FA 		lw	a5,-84(s0)
 2347 055c 93968700 		slli	a3,a5,8
 2348 0560 B707FF00 		li	a5,16711680
 2349 0564 F58F     		and	a5,a3,a5
 126:../Firmware/RISCV/drivers/core_compatiable.h ****         | ((value & 0x000000ff) << 24);
 2350              		.loc 2 126 9
 2351 0566 5D8F     		or	a4,a4,a5
 127:../Firmware/RISCV/drivers/core_compatiable.h ****     return result;
 2352              		.loc 2 127 33
 2353 0568 8327C4FA 		lw	a5,-84(s0)
 2354 056c E207     		slli	a5,a5,24
 124:../Firmware/RISCV/drivers/core_compatiable.h ****         | ((value & 0x00ff0000) >> 8 )
 2355              		.loc 2 124 12
 2356 056e D98F     		or	a5,a4,a5
 2357 0570 2324F4FA 		sw	a5,-88(s0)
 2358              		.loc 2 128 12
 2359 0574 832784FA 		lw	a5,-88(s0)
 2360              	.LBE147:
 2361              	.LBE146:
 2362              		.loc 1 613 27
 2363 0578 2328F4F6 		sw	a5,-144(s0)
 614:../Firmware/GD32VW55x_standard_peripheral/Source/gd32vw55x_cau_aes.c ****     ctraddr += 4U;
 2364              		.loc 1 614 13
 2365 057c 8327C4FB 		lw	a5,-68(s0)
 2366 0580 9107     		addi	a5,a5,4
 2367 0582 232EF4FA 		sw	a5,-68(s0)
 615:../Firmware/GD32VW55x_standard_peripheral/Source/gd32vw55x_cau_aes.c ****     iv_initpara.iv_1_low = __REV(*(uint32_t *)(ctraddr));
 2368              		.loc 1 615 35
 2369 0586 8327C4FB 		lw	a5,-68(s0)
 2370              		.loc 1 615 28
 2371 058a 9C43     		lw	a5,0(a5)
 2372 058c 232AF4FA 		sw	a5,-76(s0)
 2373              	.LBB148:
 2374              	.LBB149:
 124:../Firmware/RISCV/drivers/core_compatiable.h ****         | ((value & 0x00ff0000) >> 8 )
 2375              		.loc 2 124 37
 2376 0590 832744FB 		lw	a5,-76(s0)
 2377 0594 13D78701 		srli	a4,a5,24
 125:../Firmware/RISCV/drivers/core_compatiable.h ****         | ((value & 0x0000ff00) << 8 )
 2378              		.loc 2 125 33
 2379 0598 832744FB 		lw	a5,-76(s0)
 2380 059c 93D68700 		srli	a3,a5,8
 2381 05a0 C167     		li	a5,65536
 2382 05a2 938707F0 		addi	a5,a5,-256
 2383 05a6 F58F     		and	a5,a3,a5
 125:../Firmware/RISCV/drivers/core_compatiable.h ****         | ((value & 0x0000ff00) << 8 )
 2384              		.loc 2 125 9
 2385 05a8 5D8F     		or	a4,a4,a5
 126:../Firmware/RISCV/drivers/core_compatiable.h ****         | ((value & 0x000000ff) << 24);
 2386              		.loc 2 126 33
 2387 05aa 832744FB 		lw	a5,-76(s0)
 2388 05ae 93968700 		slli	a3,a5,8
 2389 05b2 B707FF00 		li	a5,16711680
 2390 05b6 F58F     		and	a5,a3,a5
 126:../Firmware/RISCV/drivers/core_compatiable.h ****         | ((value & 0x000000ff) << 24);
 2391              		.loc 2 126 9
 2392 05b8 5D8F     		or	a4,a4,a5
 127:../Firmware/RISCV/drivers/core_compatiable.h ****     return result;
 2393              		.loc 2 127 33
 2394 05ba 832744FB 		lw	a5,-76(s0)
 2395 05be E207     		slli	a5,a5,24
 124:../Firmware/RISCV/drivers/core_compatiable.h ****         | ((value & 0x00ff0000) >> 8 )
 2396              		.loc 2 124 12
 2397 05c0 D98F     		or	a5,a4,a5
 2398 05c2 2328F4FA 		sw	a5,-80(s0)
 2399              		.loc 2 128 12
 2400 05c6 832704FB 		lw	a5,-80(s0)
 2401              	.LBE149:
 2402              	.LBE148:
 2403              		.loc 1 615 26
 2404 05ca 232AF4F6 		sw	a5,-140(s0)
 616:../Firmware/GD32VW55x_standard_peripheral/Source/gd32vw55x_cau_aes.c ****     cau_iv_init(&iv_initpara);
 2405              		.loc 1 616 5
 2406 05ce 930784F6 		addi	a5,s0,-152
 2407 05d2 3E85     		mv	a0,a5
 2408 05d4 97000000 		call	cau_iv_init
 2408      E7800000 
 617:../Firmware/GD32VW55x_standard_peripheral/Source/gd32vw55x_cau_aes.c **** 
 618:../Firmware/GD32VW55x_standard_peripheral/Source/gd32vw55x_cau_aes.c ****     /* enable the CAU peripheral */
 619:../Firmware/GD32VW55x_standard_peripheral/Source/gd32vw55x_cau_aes.c ****     cau_enable();
 2409              		.loc 1 619 5
 2410 05dc 97000000 		call	cau_enable
 2410      E7800000 
 620:../Firmware/GD32VW55x_standard_peripheral/Source/gd32vw55x_cau_aes.c **** 
 621:../Firmware/GD32VW55x_standard_peripheral/Source/gd32vw55x_cau_aes.c ****     /* write block B0 in the In FIFO */
 622:../Firmware/GD32VW55x_standard_peripheral/Source/gd32vw55x_cau_aes.c ****     cau_data_write(*(uint32_t *)(b0addr));
 2411              		.loc 1 622 21
 2412 05e4 832784FB 		lw	a5,-72(s0)
 2413              		.loc 1 622 5
 2414 05e8 9C43     		lw	a5,0(a5)
 2415 05ea 3E85     		mv	a0,a5
 2416 05ec 97000000 		call	cau_data_write
 2416      E7800000 
 623:../Firmware/GD32VW55x_standard_peripheral/Source/gd32vw55x_cau_aes.c ****     b0addr += 4U;
 2417              		.loc 1 623 12
 2418 05f4 832784FB 		lw	a5,-72(s0)
 2419 05f8 9107     		addi	a5,a5,4
 2420 05fa 232CF4FA 		sw	a5,-72(s0)
 624:../Firmware/GD32VW55x_standard_peripheral/Source/gd32vw55x_cau_aes.c ****     cau_data_write(*(uint32_t *)(b0addr));
 2421              		.loc 1 624 21
 2422 05fe 832784FB 		lw	a5,-72(s0)
 2423              		.loc 1 624 5
 2424 0602 9C43     		lw	a5,0(a5)
 2425 0604 3E85     		mv	a0,a5
 2426 0606 97000000 		call	cau_data_write
 2426      E7800000 
 625:../Firmware/GD32VW55x_standard_peripheral/Source/gd32vw55x_cau_aes.c ****     b0addr += 4U;
 2427              		.loc 1 625 12
 2428 060e 832784FB 		lw	a5,-72(s0)
 2429 0612 9107     		addi	a5,a5,4
 2430 0614 232CF4FA 		sw	a5,-72(s0)
 626:../Firmware/GD32VW55x_standard_peripheral/Source/gd32vw55x_cau_aes.c ****     cau_data_write(*(uint32_t *)(b0addr));
 2431              		.loc 1 626 21
 2432 0618 832784FB 		lw	a5,-72(s0)
 2433              		.loc 1 626 5
 2434 061c 9C43     		lw	a5,0(a5)
 2435 061e 3E85     		mv	a0,a5
 2436 0620 97000000 		call	cau_data_write
 2436      E7800000 
 627:../Firmware/GD32VW55x_standard_peripheral/Source/gd32vw55x_cau_aes.c ****     b0addr += 4U;
 2437              		.loc 1 627 12
 2438 0628 832784FB 		lw	a5,-72(s0)
 2439 062c 9107     		addi	a5,a5,4
 2440 062e 232CF4FA 		sw	a5,-72(s0)
 628:../Firmware/GD32VW55x_standard_peripheral/Source/gd32vw55x_cau_aes.c ****     cau_data_write(*(uint32_t *)(b0addr));
 2441              		.loc 1 628 21
 2442 0632 832784FB 		lw	a5,-72(s0)
 2443              		.loc 1 628 5
 2444 0636 9C43     		lw	a5,0(a5)
 2445 0638 3E85     		mv	a0,a5
 2446 063a 97000000 		call	cau_data_write
 2446      E7800000 
 629:../Firmware/GD32VW55x_standard_peripheral/Source/gd32vw55x_cau_aes.c **** 
 630:../Firmware/GD32VW55x_standard_peripheral/Source/gd32vw55x_cau_aes.c ****     /* wait for CAUEN bit to be 0 */
 631:../Firmware/GD32VW55x_standard_peripheral/Source/gd32vw55x_cau_aes.c ****     while(ENABLE == cau_enable_state_get()) {
 2447              		.loc 1 631 10
 2448 0642 0100     		nop
 2449              	.L78:
 2450              		.loc 1 631 21 discriminator 1
 2451 0644 97000000 		call	cau_enable_state_get
 2451      E7800000 
 2452 064c 2A87     		mv	a4,a0
 2453              		.loc 1 631 10 discriminator 1
 2454 064e 8547     		li	a5,1
 2455 0650 E30AF7FE 		beq	a4,a5,.L78
 632:../Firmware/GD32VW55x_standard_peripheral/Source/gd32vw55x_cau_aes.c ****     }
 633:../Firmware/GD32VW55x_standard_peripheral/Source/gd32vw55x_cau_aes.c **** 
 634:../Firmware/GD32VW55x_standard_peripheral/Source/gd32vw55x_cau_aes.c ****     /* aad phase */
 635:../Firmware/GD32VW55x_standard_peripheral/Source/gd32vw55x_cau_aes.c ****     if((uint32_t)0U != aadsize) {
 2456              		.loc 1 635 7
 2457 0654 8327C4FC 		lw	a5,-52(s0)
 2458 0658 9DCB     		beq	a5,zero,.L79
 636:../Firmware/GD32VW55x_standard_peripheral/Source/gd32vw55x_cau_aes.c ****         /* select aad phase */
 637:../Firmware/GD32VW55x_standard_peripheral/Source/gd32vw55x_cau_aes.c ****         cau_phase_config(CAU_AAD_PHASE);
 2459              		.loc 1 637 9
 2460 065a 4165     		li	a0,65536
 2461 065c 97000000 		call	cau_phase_config
 2461      E7800000 
 638:../Firmware/GD32VW55x_standard_peripheral/Source/gd32vw55x_cau_aes.c ****         /* enable the CAU peripheral */
 639:../Firmware/GD32VW55x_standard_peripheral/Source/gd32vw55x_cau_aes.c ****         cau_enable();
 2462              		.loc 1 639 9
 2463 0664 97000000 		call	cau_enable
 2463      E7800000 
 640:../Firmware/GD32VW55x_standard_peripheral/Source/gd32vw55x_cau_aes.c **** 
 641:../Firmware/GD32VW55x_standard_peripheral/Source/gd32vw55x_cau_aes.c ****         ret = cau_fill_data((uint8_t *)aadaddr, aad_block_size);
 2464              		.loc 1 641 15
 2465 066c 832784FE 		lw	a5,-24(s0)
 2466 0670 832544FE 		lw	a1,-28(s0)
 2467 0674 3E85     		mv	a0,a5
 2468 0676 97000000 		call	cau_fill_data
 2468      E7800000 
 2469 067e 2326A4FE 		sw	a0,-20(s0)
 642:../Firmware/GD32VW55x_standard_peripheral/Source/gd32vw55x_cau_aes.c **** 
 643:../Firmware/GD32VW55x_standard_peripheral/Source/gd32vw55x_cau_aes.c ****         if(ERROR == ret) {
 2470              		.loc 1 643 11
 2471 0682 8327C4FE 		lw	a5,-20(s0)
 2472 0686 81E7     		bne	a5,zero,.L79
 644:../Firmware/GD32VW55x_standard_peripheral/Source/gd32vw55x_cau_aes.c ****             return ret;
 2473              		.loc 1 644 20
 2474 0688 8327C4FE 		lw	a5,-20(s0)
 2475 068c 41A2     		j	.L85
 2476              	.L79:
 645:../Firmware/GD32VW55x_standard_peripheral/Source/gd32vw55x_cau_aes.c ****         }
 646:../Firmware/GD32VW55x_standard_peripheral/Source/gd32vw55x_cau_aes.c ****     }
 647:../Firmware/GD32VW55x_standard_peripheral/Source/gd32vw55x_cau_aes.c **** 
 648:../Firmware/GD32VW55x_standard_peripheral/Source/gd32vw55x_cau_aes.c ****     /* encrypt or decrypt phase */
 649:../Firmware/GD32VW55x_standard_peripheral/Source/gd32vw55x_cau_aes.c ****     inputsize = cau_parameter->in_length;
 2477              		.loc 1 649 15
 2478 068e 8327C4F2 		lw	a5,-212(s0)
 2479 0692 9C4F     		lw	a5,24(a5)
 2480 0694 2328F4FC 		sw	a5,-48(s0)
 650:../Firmware/GD32VW55x_standard_peripheral/Source/gd32vw55x_cau_aes.c **** 
 651:../Firmware/GD32VW55x_standard_peripheral/Source/gd32vw55x_cau_aes.c ****     if((uint32_t)0U != inputsize) {
 2481              		.loc 1 651 7
 2482 0698 832704FD 		lw	a5,-48(s0)
 2483 069c 9DCF     		beq	a5,zero,.L80
 652:../Firmware/GD32VW55x_standard_peripheral/Source/gd32vw55x_cau_aes.c ****         /* select encrypt or decrypt phase */
 653:../Firmware/GD32VW55x_standard_peripheral/Source/gd32vw55x_cau_aes.c ****         cau_phase_config(CAU_ENCRYPT_DECRYPT_PHASE);
 2484              		.loc 1 653 9
 2485 069e 37050200 		li	a0,131072
 2486 06a2 97000000 		call	cau_phase_config
 2486      E7800000 
 654:../Firmware/GD32VW55x_standard_peripheral/Source/gd32vw55x_cau_aes.c ****         /* enable the CAU peripheral */
 655:../Firmware/GD32VW55x_standard_peripheral/Source/gd32vw55x_cau_aes.c ****         cau_enable();
 2487              		.loc 1 655 9
 2488 06aa 97000000 		call	cau_enable
 2488      E7800000 
 656:../Firmware/GD32VW55x_standard_peripheral/Source/gd32vw55x_cau_aes.c **** 
 657:../Firmware/GD32VW55x_standard_peripheral/Source/gd32vw55x_cau_aes.c ****         /* AES calculate process */
 658:../Firmware/GD32VW55x_standard_peripheral/Source/gd32vw55x_cau_aes.c ****         ret = cau_aes_calculate((uint8_t *)inputaddr, inputsize, (uint8_t *)outputaddr);
 2489              		.loc 1 658 15
 2490 06b2 832744FD 		lw	a5,-44(s0)
 2491 06b6 032704FC 		lw	a4,-64(s0)
 2492 06ba 3A86     		mv	a2,a4
 2493 06bc 832504FD 		lw	a1,-48(s0)
 2494 06c0 3E85     		mv	a0,a5
 2495 06c2 97000000 		call	cau_aes_calculate
 2495      E7800000 
 2496 06ca 2326A4FE 		sw	a0,-20(s0)
 659:../Firmware/GD32VW55x_standard_peripheral/Source/gd32vw55x_cau_aes.c **** 
 660:../Firmware/GD32VW55x_standard_peripheral/Source/gd32vw55x_cau_aes.c ****         if(ERROR == ret) {
 2497              		.loc 1 660 11
 2498 06ce 8327C4FE 		lw	a5,-20(s0)
 2499 06d2 81E7     		bne	a5,zero,.L80
 661:../Firmware/GD32VW55x_standard_peripheral/Source/gd32vw55x_cau_aes.c ****             return ret;
 2500              		.loc 1 661 20
 2501 06d4 8327C4FE 		lw	a5,-20(s0)
 2502 06d8 15AA     		j	.L85
 2503              	.L80:
 662:../Firmware/GD32VW55x_standard_peripheral/Source/gd32vw55x_cau_aes.c ****         }
 663:../Firmware/GD32VW55x_standard_peripheral/Source/gd32vw55x_cau_aes.c ****     }
 664:../Firmware/GD32VW55x_standard_peripheral/Source/gd32vw55x_cau_aes.c **** 
 665:../Firmware/GD32VW55x_standard_peripheral/Source/gd32vw55x_cau_aes.c ****     /* tag phase */
 666:../Firmware/GD32VW55x_standard_peripheral/Source/gd32vw55x_cau_aes.c ****     /* select final phase */
 667:../Firmware/GD32VW55x_standard_peripheral/Source/gd32vw55x_cau_aes.c ****     cau_phase_config(CAU_TAG_PHASE);
 2504              		.loc 1 667 5
 2505 06da 37050300 		li	a0,196608
 2506 06de 97000000 		call	cau_phase_config
 2506      E7800000 
 668:../Firmware/GD32VW55x_standard_peripheral/Source/gd32vw55x_cau_aes.c ****     /* enable the CAU peripheral */
 669:../Firmware/GD32VW55x_standard_peripheral/Source/gd32vw55x_cau_aes.c ****     cau_enable();
 2507              		.loc 1 669 5
 2508 06e6 97000000 		call	cau_enable
 2508      E7800000 
 670:../Firmware/GD32VW55x_standard_peripheral/Source/gd32vw55x_cau_aes.c **** 
 671:../Firmware/GD32VW55x_standard_peripheral/Source/gd32vw55x_cau_aes.c ****     if(DISABLE == cau_enable_state_get()) {
 2509              		.loc 1 671 19
 2510 06ee 97000000 		call	cau_enable_state_get
 2510      E7800000 
 2511 06f6 AA87     		mv	a5,a0
 2512              		.loc 1 671 7
 2513 06f8 99E3     		bne	a5,zero,.L81
 672:../Firmware/GD32VW55x_standard_peripheral/Source/gd32vw55x_cau_aes.c ****         return ERROR;
 2514              		.loc 1 672 16
 2515 06fa 8147     		li	a5,0
 2516 06fc 01AA     		j	.L85
 2517              	.L81:
 673:../Firmware/GD32VW55x_standard_peripheral/Source/gd32vw55x_cau_aes.c ****     }
 674:../Firmware/GD32VW55x_standard_peripheral/Source/gd32vw55x_cau_aes.c **** 
 675:../Firmware/GD32VW55x_standard_peripheral/Source/gd32vw55x_cau_aes.c ****     ctraddr = (uint32_t)counter;
 2518              		.loc 1 675 13
 2519 06fe 930784F4 		addi	a5,s0,-184
 2520 0702 232EF4FA 		sw	a5,-68(s0)
 676:../Firmware/GD32VW55x_standard_peripheral/Source/gd32vw55x_cau_aes.c **** 
 677:../Firmware/GD32VW55x_standard_peripheral/Source/gd32vw55x_cau_aes.c ****     cau_data_write(*(uint32_t *)(ctraddr));
 2521              		.loc 1 677 21
 2522 0706 8327C4FB 		lw	a5,-68(s0)
 2523              		.loc 1 677 5
 2524 070a 9C43     		lw	a5,0(a5)
 2525 070c 3E85     		mv	a0,a5
 2526 070e 97000000 		call	cau_data_write
 2526      E7800000 
 678:../Firmware/GD32VW55x_standard_peripheral/Source/gd32vw55x_cau_aes.c ****     ctraddr += 4U;
 2527              		.loc 1 678 13
 2528 0716 8327C4FB 		lw	a5,-68(s0)
 2529 071a 9107     		addi	a5,a5,4
 2530 071c 232EF4FA 		sw	a5,-68(s0)
 679:../Firmware/GD32VW55x_standard_peripheral/Source/gd32vw55x_cau_aes.c ****     cau_data_write(*(uint32_t *)(ctraddr));
 2531              		.loc 1 679 21
 2532 0720 8327C4FB 		lw	a5,-68(s0)
 2533              		.loc 1 679 5
 2534 0724 9C43     		lw	a5,0(a5)
 2535 0726 3E85     		mv	a0,a5
 2536 0728 97000000 		call	cau_data_write
 2536      E7800000 
 680:../Firmware/GD32VW55x_standard_peripheral/Source/gd32vw55x_cau_aes.c ****     ctraddr += 4U;
 2537              		.loc 1 680 13
 2538 0730 8327C4FB 		lw	a5,-68(s0)
 2539 0734 9107     		addi	a5,a5,4
 2540 0736 232EF4FA 		sw	a5,-68(s0)
 681:../Firmware/GD32VW55x_standard_peripheral/Source/gd32vw55x_cau_aes.c ****     cau_data_write(*(uint32_t *)(ctraddr));
 2541              		.loc 1 681 21
 2542 073a 8327C4FB 		lw	a5,-68(s0)
 2543              		.loc 1 681 5
 2544 073e 9C43     		lw	a5,0(a5)
 2545 0740 3E85     		mv	a0,a5
 2546 0742 97000000 		call	cau_data_write
 2546      E7800000 
 682:../Firmware/GD32VW55x_standard_peripheral/Source/gd32vw55x_cau_aes.c ****     ctraddr += 4U;
 2547              		.loc 1 682 13
 2548 074a 8327C4FB 		lw	a5,-68(s0)
 2549 074e 9107     		addi	a5,a5,4
 2550 0750 232EF4FA 		sw	a5,-68(s0)
 683:../Firmware/GD32VW55x_standard_peripheral/Source/gd32vw55x_cau_aes.c ****     /* reset bit 0 (after 8-bit swap) is equivalent to reset bit 24 (before 8-bit swap) */
 684:../Firmware/GD32VW55x_standard_peripheral/Source/gd32vw55x_cau_aes.c ****     cau_data_write(*(uint32_t *)(ctraddr) & 0xFEFFFFFFU);
 2551              		.loc 1 684 21
 2552 0754 8327C4FB 		lw	a5,-68(s0)
 2553              		.loc 1 684 20
 2554 0758 9843     		lw	a4,0(a5)
 2555              		.loc 1 684 5
 2556 075a B70700FF 		li	a5,-16777216
 2557 075e FD17     		addi	a5,a5,-1
 2558 0760 F98F     		and	a5,a4,a5
 2559 0762 3E85     		mv	a0,a5
 2560 0764 97000000 		call	cau_data_write
 2560      E7800000 
 685:../Firmware/GD32VW55x_standard_peripheral/Source/gd32vw55x_cau_aes.c **** 
 686:../Firmware/GD32VW55x_standard_peripheral/Source/gd32vw55x_cau_aes.c ****     /* wait until the ONE flag is set */
 687:../Firmware/GD32VW55x_standard_peripheral/Source/gd32vw55x_cau_aes.c ****     while(RESET == cau_flag_get(CAU_FLAG_OUTFIFO_NO_EMPTY)) {
 2561              		.loc 1 687 10
 2562 076c 0100     		nop
 2563              	.L82:
 2564              		.loc 1 687 20 discriminator 1
 2565 076e 1145     		li	a0,4
 2566 0770 97000000 		call	cau_flag_get
 2566      E7800000 
 2567 0778 AA87     		mv	a5,a0
 2568              		.loc 1 687 10 discriminator 1
 2569 077a F5DB     		beq	a5,zero,.L82
 688:../Firmware/GD32VW55x_standard_peripheral/Source/gd32vw55x_cau_aes.c ****     }
 689:../Firmware/GD32VW55x_standard_peripheral/Source/gd32vw55x_cau_aes.c **** 
 690:../Firmware/GD32VW55x_standard_peripheral/Source/gd32vw55x_cau_aes.c ****     /* read the tag in the OUT FIFO */
 691:../Firmware/GD32VW55x_standard_peripheral/Source/gd32vw55x_cau_aes.c ****     temp_tag[0] = cau_data_read();
 2570              		.loc 1 691 19
 2571 077c 97000000 		call	cau_data_read
 2571      E7800000 
 2572 0784 AA87     		mv	a5,a0
 2573              		.loc 1 691 17
 2574 0786 232CF4F2 		sw	a5,-200(s0)
 692:../Firmware/GD32VW55x_standard_peripheral/Source/gd32vw55x_cau_aes.c ****     temp_tag[1] = cau_data_read();
 2575              		.loc 1 692 19
 2576 078a 97000000 		call	cau_data_read
 2576      E7800000 
 2577 0792 AA87     		mv	a5,a0
 2578              		.loc 1 692 17
 2579 0794 232EF4F2 		sw	a5,-196(s0)
 693:../Firmware/GD32VW55x_standard_peripheral/Source/gd32vw55x_cau_aes.c ****     temp_tag[2] = cau_data_read();
 2580              		.loc 1 693 19
 2581 0798 97000000 		call	cau_data_read
 2581      E7800000 
 2582 07a0 AA87     		mv	a5,a0
 2583              		.loc 1 693 17
 2584 07a2 2320F4F4 		sw	a5,-192(s0)
 694:../Firmware/GD32VW55x_standard_peripheral/Source/gd32vw55x_cau_aes.c ****     temp_tag[3] = cau_data_read();
 2585              		.loc 1 694 19
 2586 07a6 97000000 		call	cau_data_read
 2586      E7800000 
 2587 07ae AA87     		mv	a5,a0
 2588              		.loc 1 694 17
 2589 07b0 2322F4F4 		sw	a5,-188(s0)
 695:../Firmware/GD32VW55x_standard_peripheral/Source/gd32vw55x_cau_aes.c **** 
 696:../Firmware/GD32VW55x_standard_peripheral/Source/gd32vw55x_cau_aes.c ****     /* disable the CAU peripheral */
 697:../Firmware/GD32VW55x_standard_peripheral/Source/gd32vw55x_cau_aes.c ****     cau_disable();
 2590              		.loc 1 697 5
 2591 07b4 97000000 		call	cau_disable
 2591      E7800000 
 698:../Firmware/GD32VW55x_standard_peripheral/Source/gd32vw55x_cau_aes.c **** 
 699:../Firmware/GD32VW55x_standard_peripheral/Source/gd32vw55x_cau_aes.c ****     /* Copy temporary authentication TAG in user TAG buffer */
 700:../Firmware/GD32VW55x_standard_peripheral/Source/gd32vw55x_cau_aes.c ****     for(i = 0U; i < tag_size; i++) {
 2592              		.loc 1 700 11
 2593 07bc 232004FE 		sw	zero,-32(s0)
 2594              		.loc 1 700 5
 2595 07c0 35A8     		j	.L83
 2596              	.L84:
 701:../Firmware/GD32VW55x_standard_peripheral/Source/gd32vw55x_cau_aes.c ****         tag[i] = (uint8_t)(temp_tag[i / 4U] >> (8U * (i % 4U)));
 2597              		.loc 1 701 39 discriminator 3
 2598 07c2 832704FE 		lw	a5,-32(s0)
 2599 07c6 8983     		srli	a5,a5,2
 2600              		.loc 1 701 36 discriminator 3
 2601 07c8 8A07     		slli	a5,a5,2
 2602 07ca 130704FF 		addi	a4,s0,-16
 2603 07ce BA97     		add	a5,a4,a5
 2604 07d0 03A787F4 		lw	a4,-184(a5)
 2605              		.loc 1 701 57 discriminator 3
 2606 07d4 832704FE 		lw	a5,-32(s0)
 2607 07d8 8D8B     		andi	a5,a5,3
 2608              		.loc 1 701 52 discriminator 3
 2609 07da 8E07     		slli	a5,a5,3
 2610              		.loc 1 701 45 discriminator 3
 2611 07dc B356F700 		srl	a3,a4,a5
 2612              		.loc 1 701 12 discriminator 3
 2613 07e0 032744F2 		lw	a4,-220(s0)
 2614 07e4 832704FE 		lw	a5,-32(s0)
 2615 07e8 BA97     		add	a5,a4,a5
 2616              		.loc 1 701 18 discriminator 3
 2617 07ea 13F7F60F 		andi	a4,a3,0xff
 2618              		.loc 1 701 16 discriminator 3
 2619 07ee 2380E700 		sb	a4,0(a5)
 700:../Firmware/GD32VW55x_standard_peripheral/Source/gd32vw55x_cau_aes.c ****         tag[i] = (uint8_t)(temp_tag[i / 4U] >> (8U * (i % 4U)));
 2620              		.loc 1 700 32 discriminator 3
 2621 07f2 832704FE 		lw	a5,-32(s0)
 2622 07f6 8507     		addi	a5,a5,1
 2623 07f8 2320F4FE 		sw	a5,-32(s0)
 2624              	.L83:
 700:../Firmware/GD32VW55x_standard_peripheral/Source/gd32vw55x_cau_aes.c ****         tag[i] = (uint8_t)(temp_tag[i / 4U] >> (8U * (i % 4U)));
 2625              		.loc 1 700 5 discriminator 1
 2626 07fc 032704FE 		lw	a4,-32(s0)
 2627 0800 832704F2 		lw	a5,-224(s0)
 2628 0804 E36FF7FA 		bltu	a4,a5,.L84
 702:../Firmware/GD32VW55x_standard_peripheral/Source/gd32vw55x_cau_aes.c ****     }
 703:../Firmware/GD32VW55x_standard_peripheral/Source/gd32vw55x_cau_aes.c **** 
 704:../Firmware/GD32VW55x_standard_peripheral/Source/gd32vw55x_cau_aes.c ****     return ret;
 2629              		.loc 1 704 12
 2630 0808 8327C4FE 		lw	a5,-20(s0)
 2631              	.L85:
 705:../Firmware/GD32VW55x_standard_peripheral/Source/gd32vw55x_cau_aes.c **** }
 2632              		.loc 1 705 1 discriminator 1
 2633 080c 3E85     		mv	a0,a5
 2634 080e BE50     		lw	ra,236(sp)
 2635              		.cfi_restore 1
 2636 0810 2E54     		lw	s0,232(sp)
 2637              		.cfi_restore 8
 2638              		.cfi_def_cfa 2, 240
 2639 0812 6D61     		addi	sp,sp,240
 2640              		.cfi_def_cfa_offset 0
 2641 0814 8280     		jr	ra
 2642              		.cfi_endproc
 2643              	.LFE354:
 2645              		.section	.text.cau_aes_key_config,"ax",@progbits
 2646              		.align	1
 2648              	cau_aes_key_config:
 2649              	.LFB355:
 706:../Firmware/GD32VW55x_standard_peripheral/Source/gd32vw55x_cau_aes.c **** /*!
 707:../Firmware/GD32VW55x_standard_peripheral/Source/gd32vw55x_cau_aes.c ****     \brief      AES key structure parameter config
 708:../Firmware/GD32VW55x_standard_peripheral/Source/gd32vw55x_cau_aes.c ****     \param[in]  key: key used for AES algorithm
 709:../Firmware/GD32VW55x_standard_peripheral/Source/gd32vw55x_cau_aes.c ****     \param[in]  keysize: length of the key in bits, must be either 128, 192 or 256
 710:../Firmware/GD32VW55x_standard_peripheral/Source/gd32vw55x_cau_aes.c ****     \param[out] cau_key_initpara: key init parameter struct
 711:../Firmware/GD32VW55x_standard_peripheral/Source/gd32vw55x_cau_aes.c ****                   key_0_high: key 0 high
 712:../Firmware/GD32VW55x_standard_peripheral/Source/gd32vw55x_cau_aes.c ****                   key_0_low:  key 0 low
 713:../Firmware/GD32VW55x_standard_peripheral/Source/gd32vw55x_cau_aes.c ****                   key_1_high: key 1 high
 714:../Firmware/GD32VW55x_standard_peripheral/Source/gd32vw55x_cau_aes.c ****                   key_1_low:  key 1 low
 715:../Firmware/GD32VW55x_standard_peripheral/Source/gd32vw55x_cau_aes.c ****                   key_2_high: key 2 high
 716:../Firmware/GD32VW55x_standard_peripheral/Source/gd32vw55x_cau_aes.c ****                   key_2_low:  key 2 low
 717:../Firmware/GD32VW55x_standard_peripheral/Source/gd32vw55x_cau_aes.c ****                   key_3_high: key 3 high
 718:../Firmware/GD32VW55x_standard_peripheral/Source/gd32vw55x_cau_aes.c ****                   key_3_low:  key 3 low
 719:../Firmware/GD32VW55x_standard_peripheral/Source/gd32vw55x_cau_aes.c ****     \retval     none
 720:../Firmware/GD32VW55x_standard_peripheral/Source/gd32vw55x_cau_aes.c **** */
 721:../Firmware/GD32VW55x_standard_peripheral/Source/gd32vw55x_cau_aes.c **** static void cau_aes_key_config(uint8_t *key, uint32_t keysize, cau_key_parameter_struct *cau_key_in
 722:../Firmware/GD32VW55x_standard_peripheral/Source/gd32vw55x_cau_aes.c **** {
 2650              		.loc 1 722 1
 2651              		.cfi_startproc
 2652 0000 3171     		addi	sp,sp,-192
 2653              		.cfi_def_cfa_offset 192
 2654 0002 06DF     		sw	ra,188(sp)
 2655 0004 22DD     		sw	s0,184(sp)
 2656              		.cfi_offset 1, -4
 2657              		.cfi_offset 8, -8
 2658 0006 8001     		addi	s0,sp,192
 2659              		.cfi_def_cfa 8, 0
 2660 0008 2326A4F4 		sw	a0,-180(s0)
 2661 000c 2324B4F4 		sw	a1,-184(s0)
 2662 0010 2322C4F4 		sw	a2,-188(s0)
 723:../Firmware/GD32VW55x_standard_peripheral/Source/gd32vw55x_cau_aes.c ****     uint32_t keyaddr = (uint32_t)key;
 2663              		.loc 1 723 14
 2664 0014 8327C4F4 		lw	a5,-180(s0)
 2665 0018 2326F4FE 		sw	a5,-20(s0)
 724:../Firmware/GD32VW55x_standard_peripheral/Source/gd32vw55x_cau_aes.c **** 
 725:../Firmware/GD32VW55x_standard_peripheral/Source/gd32vw55x_cau_aes.c ****     switch(keysize) {
 2666              		.loc 1 725 5
 2667 001c 032784F4 		lw	a4,-184(s0)
 2668 0020 93070010 		li	a5,256
 2669 0024 630CF736 		beq	a4,a5,.L87
 2670 0028 032784F4 		lw	a4,-184(s0)
 2671 002c 93070010 		li	a5,256
 2672 0030 63E8E760 		bgtu	a4,a5,.L110
 2673 0034 032784F4 		lw	a4,-184(s0)
 2674 0038 93070008 		li	a5,128
 2675 003c 6309F700 		beq	a4,a5,.L89
 2676 0040 032784F4 		lw	a4,-184(s0)
 2677 0044 9307000C 		li	a5,192
 2678 0048 630CF714 		beq	a4,a5,.L90
 726:../Firmware/GD32VW55x_standard_peripheral/Source/gd32vw55x_cau_aes.c ****     /* 128-bit key initialization */
 727:../Firmware/GD32VW55x_standard_peripheral/Source/gd32vw55x_cau_aes.c ****     case 128:
 728:../Firmware/GD32VW55x_standard_peripheral/Source/gd32vw55x_cau_aes.c ****         cau_aes_keysize_config(CAU_KEYSIZE_128BIT);
 729:../Firmware/GD32VW55x_standard_peripheral/Source/gd32vw55x_cau_aes.c ****         cau_key_initpara->key_2_high = __REV(*(uint32_t *)(keyaddr));
 730:../Firmware/GD32VW55x_standard_peripheral/Source/gd32vw55x_cau_aes.c ****         keyaddr += 4U;
 731:../Firmware/GD32VW55x_standard_peripheral/Source/gd32vw55x_cau_aes.c ****         cau_key_initpara->key_2_low  = __REV(*(uint32_t *)(keyaddr));
 732:../Firmware/GD32VW55x_standard_peripheral/Source/gd32vw55x_cau_aes.c ****         keyaddr += 4U;
 733:../Firmware/GD32VW55x_standard_peripheral/Source/gd32vw55x_cau_aes.c ****         cau_key_initpara->key_3_high = __REV(*(uint32_t *)(keyaddr));
 734:../Firmware/GD32VW55x_standard_peripheral/Source/gd32vw55x_cau_aes.c ****         keyaddr += 4U;
 735:../Firmware/GD32VW55x_standard_peripheral/Source/gd32vw55x_cau_aes.c ****         cau_key_initpara->key_3_low  = __REV(*(uint32_t *)(keyaddr));
 736:../Firmware/GD32VW55x_standard_peripheral/Source/gd32vw55x_cau_aes.c ****         break;
 737:../Firmware/GD32VW55x_standard_peripheral/Source/gd32vw55x_cau_aes.c ****     /* 192-bit key initialization */
 738:../Firmware/GD32VW55x_standard_peripheral/Source/gd32vw55x_cau_aes.c ****     case 192:
 739:../Firmware/GD32VW55x_standard_peripheral/Source/gd32vw55x_cau_aes.c ****         cau_aes_keysize_config(CAU_KEYSIZE_192BIT);
 740:../Firmware/GD32VW55x_standard_peripheral/Source/gd32vw55x_cau_aes.c ****         cau_key_initpara->key_1_high = __REV(*(uint32_t *)(keyaddr));
 741:../Firmware/GD32VW55x_standard_peripheral/Source/gd32vw55x_cau_aes.c ****         keyaddr += 4U;
 742:../Firmware/GD32VW55x_standard_peripheral/Source/gd32vw55x_cau_aes.c ****         cau_key_initpara->key_1_low  = __REV(*(uint32_t *)(keyaddr));
 743:../Firmware/GD32VW55x_standard_peripheral/Source/gd32vw55x_cau_aes.c ****         keyaddr += 4U;
 744:../Firmware/GD32VW55x_standard_peripheral/Source/gd32vw55x_cau_aes.c ****         cau_key_initpara->key_2_high = __REV(*(uint32_t *)(keyaddr));
 745:../Firmware/GD32VW55x_standard_peripheral/Source/gd32vw55x_cau_aes.c ****         keyaddr += 4U;
 746:../Firmware/GD32VW55x_standard_peripheral/Source/gd32vw55x_cau_aes.c ****         cau_key_initpara->key_2_low  = __REV(*(uint32_t *)(keyaddr));
 747:../Firmware/GD32VW55x_standard_peripheral/Source/gd32vw55x_cau_aes.c ****         keyaddr += 4U;
 748:../Firmware/GD32VW55x_standard_peripheral/Source/gd32vw55x_cau_aes.c ****         cau_key_initpara->key_3_high = __REV(*(uint32_t *)(keyaddr));
 749:../Firmware/GD32VW55x_standard_peripheral/Source/gd32vw55x_cau_aes.c ****         keyaddr += 4U;
 750:../Firmware/GD32VW55x_standard_peripheral/Source/gd32vw55x_cau_aes.c ****         cau_key_initpara->key_3_low  = __REV(*(uint32_t *)(keyaddr));
 751:../Firmware/GD32VW55x_standard_peripheral/Source/gd32vw55x_cau_aes.c ****         break;
 752:../Firmware/GD32VW55x_standard_peripheral/Source/gd32vw55x_cau_aes.c ****     /* 256-bit key initialization */
 753:../Firmware/GD32VW55x_standard_peripheral/Source/gd32vw55x_cau_aes.c ****     case 256:
 754:../Firmware/GD32VW55x_standard_peripheral/Source/gd32vw55x_cau_aes.c ****         cau_aes_keysize_config(CAU_KEYSIZE_256BIT);
 755:../Firmware/GD32VW55x_standard_peripheral/Source/gd32vw55x_cau_aes.c ****         cau_key_initpara->key_0_high = __REV(*(uint32_t *)(keyaddr));
 756:../Firmware/GD32VW55x_standard_peripheral/Source/gd32vw55x_cau_aes.c ****         keyaddr += 4U;
 757:../Firmware/GD32VW55x_standard_peripheral/Source/gd32vw55x_cau_aes.c ****         cau_key_initpara->key_0_low  = __REV(*(uint32_t *)(keyaddr));
 758:../Firmware/GD32VW55x_standard_peripheral/Source/gd32vw55x_cau_aes.c ****         keyaddr += 4U;
 759:../Firmware/GD32VW55x_standard_peripheral/Source/gd32vw55x_cau_aes.c ****         cau_key_initpara->key_1_high = __REV(*(uint32_t *)(keyaddr));
 760:../Firmware/GD32VW55x_standard_peripheral/Source/gd32vw55x_cau_aes.c ****         keyaddr += 4U;
 761:../Firmware/GD32VW55x_standard_peripheral/Source/gd32vw55x_cau_aes.c ****         cau_key_initpara->key_1_low  = __REV(*(uint32_t *)(keyaddr));
 762:../Firmware/GD32VW55x_standard_peripheral/Source/gd32vw55x_cau_aes.c ****         keyaddr += 4U;
 763:../Firmware/GD32VW55x_standard_peripheral/Source/gd32vw55x_cau_aes.c ****         cau_key_initpara->key_2_high = __REV(*(uint32_t *)(keyaddr));
 764:../Firmware/GD32VW55x_standard_peripheral/Source/gd32vw55x_cau_aes.c ****         keyaddr += 4U;
 765:../Firmware/GD32VW55x_standard_peripheral/Source/gd32vw55x_cau_aes.c ****         cau_key_initpara->key_2_low  = __REV(*(uint32_t *)(keyaddr));
 766:../Firmware/GD32VW55x_standard_peripheral/Source/gd32vw55x_cau_aes.c ****         keyaddr += 4U;
 767:../Firmware/GD32VW55x_standard_peripheral/Source/gd32vw55x_cau_aes.c ****         cau_key_initpara->key_3_high = __REV(*(uint32_t *)(keyaddr));
 768:../Firmware/GD32VW55x_standard_peripheral/Source/gd32vw55x_cau_aes.c ****         keyaddr += 4U;
 769:../Firmware/GD32VW55x_standard_peripheral/Source/gd32vw55x_cau_aes.c ****         cau_key_initpara->key_3_low  = __REV(*(uint32_t *)(keyaddr));
 770:../Firmware/GD32VW55x_standard_peripheral/Source/gd32vw55x_cau_aes.c ****         break;
 771:../Firmware/GD32VW55x_standard_peripheral/Source/gd32vw55x_cau_aes.c ****     default:
 772:../Firmware/GD32VW55x_standard_peripheral/Source/gd32vw55x_cau_aes.c ****         break;
 2679              		.loc 1 772 9
 2680 004c D5AB     		j	.L110
 2681              	.L89:
 728:../Firmware/GD32VW55x_standard_peripheral/Source/gd32vw55x_cau_aes.c ****         cau_key_initpara->key_2_high = __REV(*(uint32_t *)(keyaddr));
 2682              		.loc 1 728 9
 2683 004e 0145     		li	a0,0
 2684 0050 97000000 		call	cau_aes_keysize_config
 2684      E7800000 
 729:../Firmware/GD32VW55x_standard_peripheral/Source/gd32vw55x_cau_aes.c ****         keyaddr += 4U;
 2685              		.loc 1 729 47
 2686 0058 8327C4FE 		lw	a5,-20(s0)
 729:../Firmware/GD32VW55x_standard_peripheral/Source/gd32vw55x_cau_aes.c ****         keyaddr += 4U;
 2687              		.loc 1 729 40
 2688 005c 9C43     		lw	a5,0(a5)
 2689 005e 2328F4FC 		sw	a5,-48(s0)
 2690              	.LBB150:
 2691              	.LBB151:
 124:../Firmware/RISCV/drivers/core_compatiable.h ****         | ((value & 0x00ff0000) >> 8 )
 2692              		.loc 2 124 37
 2693 0062 832704FD 		lw	a5,-48(s0)
 2694 0066 13D78701 		srli	a4,a5,24
 125:../Firmware/RISCV/drivers/core_compatiable.h ****         | ((value & 0x0000ff00) << 8 )
 2695              		.loc 2 125 33
 2696 006a 832704FD 		lw	a5,-48(s0)
 2697 006e 93D68700 		srli	a3,a5,8
 2698 0072 C167     		li	a5,65536
 2699 0074 938707F0 		addi	a5,a5,-256
 2700 0078 F58F     		and	a5,a3,a5
 125:../Firmware/RISCV/drivers/core_compatiable.h ****         | ((value & 0x0000ff00) << 8 )
 2701              		.loc 2 125 9
 2702 007a 5D8F     		or	a4,a4,a5
 126:../Firmware/RISCV/drivers/core_compatiable.h ****         | ((value & 0x000000ff) << 24);
 2703              		.loc 2 126 33
 2704 007c 832704FD 		lw	a5,-48(s0)
 2705 0080 93968700 		slli	a3,a5,8
 2706 0084 B707FF00 		li	a5,16711680
 2707 0088 F58F     		and	a5,a3,a5
 126:../Firmware/RISCV/drivers/core_compatiable.h ****         | ((value & 0x000000ff) << 24);
 2708              		.loc 2 126 9
 2709 008a 5D8F     		or	a4,a4,a5
 127:../Firmware/RISCV/drivers/core_compatiable.h ****     return result;
 2710              		.loc 2 127 33
 2711 008c 832704FD 		lw	a5,-48(s0)
 2712 0090 E207     		slli	a5,a5,24
 124:../Firmware/RISCV/drivers/core_compatiable.h ****         | ((value & 0x00ff0000) >> 8 )
 2713              		.loc 2 124 12
 2714 0092 D98F     		or	a5,a4,a5
 2715 0094 2326F4FC 		sw	a5,-52(s0)
 2716              		.loc 2 128 12
 2717 0098 0327C4FC 		lw	a4,-52(s0)
 2718              	.LBE151:
 2719              	.LBE150:
 729:../Firmware/GD32VW55x_standard_peripheral/Source/gd32vw55x_cau_aes.c ****         keyaddr += 4U;
 2720              		.loc 1 729 38
 2721 009c 832744F4 		lw	a5,-188(s0)
 2722 00a0 98CB     		sw	a4,16(a5)
 730:../Firmware/GD32VW55x_standard_peripheral/Source/gd32vw55x_cau_aes.c ****         cau_key_initpara->key_2_low  = __REV(*(uint32_t *)(keyaddr));
 2723              		.loc 1 730 17
 2724 00a2 8327C4FE 		lw	a5,-20(s0)
 2725 00a6 9107     		addi	a5,a5,4
 2726 00a8 2326F4FE 		sw	a5,-20(s0)
 731:../Firmware/GD32VW55x_standard_peripheral/Source/gd32vw55x_cau_aes.c ****         keyaddr += 4U;
 2727              		.loc 1 731 47
 2728 00ac 8327C4FE 		lw	a5,-20(s0)
 731:../Firmware/GD32VW55x_standard_peripheral/Source/gd32vw55x_cau_aes.c ****         keyaddr += 4U;
 2729              		.loc 1 731 40
 2730 00b0 9C43     		lw	a5,0(a5)
 2731 00b2 232CF4FC 		sw	a5,-40(s0)
 2732              	.LBB152:
 2733              	.LBB153:
 124:../Firmware/RISCV/drivers/core_compatiable.h ****         | ((value & 0x00ff0000) >> 8 )
 2734              		.loc 2 124 37
 2735 00b6 832784FD 		lw	a5,-40(s0)
 2736 00ba 13D78701 		srli	a4,a5,24
 125:../Firmware/RISCV/drivers/core_compatiable.h ****         | ((value & 0x0000ff00) << 8 )
 2737              		.loc 2 125 33
 2738 00be 832784FD 		lw	a5,-40(s0)
 2739 00c2 93D68700 		srli	a3,a5,8
 2740 00c6 C167     		li	a5,65536
 2741 00c8 938707F0 		addi	a5,a5,-256
 2742 00cc F58F     		and	a5,a3,a5
 125:../Firmware/RISCV/drivers/core_compatiable.h ****         | ((value & 0x0000ff00) << 8 )
 2743              		.loc 2 125 9
 2744 00ce 5D8F     		or	a4,a4,a5
 126:../Firmware/RISCV/drivers/core_compatiable.h ****         | ((value & 0x000000ff) << 24);
 2745              		.loc 2 126 33
 2746 00d0 832784FD 		lw	a5,-40(s0)
 2747 00d4 93968700 		slli	a3,a5,8
 2748 00d8 B707FF00 		li	a5,16711680
 2749 00dc F58F     		and	a5,a3,a5
 126:../Firmware/RISCV/drivers/core_compatiable.h ****         | ((value & 0x000000ff) << 24);
 2750              		.loc 2 126 9
 2751 00de 5D8F     		or	a4,a4,a5
 127:../Firmware/RISCV/drivers/core_compatiable.h ****     return result;
 2752              		.loc 2 127 33
 2753 00e0 832784FD 		lw	a5,-40(s0)
 2754 00e4 E207     		slli	a5,a5,24
 124:../Firmware/RISCV/drivers/core_compatiable.h ****         | ((value & 0x00ff0000) >> 8 )
 2755              		.loc 2 124 12
 2756 00e6 D98F     		or	a5,a4,a5
 2757 00e8 232AF4FC 		sw	a5,-44(s0)
 2758              		.loc 2 128 12
 2759 00ec 032744FD 		lw	a4,-44(s0)
 2760              	.LBE153:
 2761              	.LBE152:
 731:../Firmware/GD32VW55x_standard_peripheral/Source/gd32vw55x_cau_aes.c ****         keyaddr += 4U;
 2762              		.loc 1 731 38
 2763 00f0 832744F4 		lw	a5,-188(s0)
 2764 00f4 D8CB     		sw	a4,20(a5)
 732:../Firmware/GD32VW55x_standard_peripheral/Source/gd32vw55x_cau_aes.c ****         cau_key_initpara->key_3_high = __REV(*(uint32_t *)(keyaddr));
 2765              		.loc 1 732 17
 2766 00f6 8327C4FE 		lw	a5,-20(s0)
 2767 00fa 9107     		addi	a5,a5,4
 2768 00fc 2326F4FE 		sw	a5,-20(s0)
 733:../Firmware/GD32VW55x_standard_peripheral/Source/gd32vw55x_cau_aes.c ****         keyaddr += 4U;
 2769              		.loc 1 733 47
 2770 0100 8327C4FE 		lw	a5,-20(s0)
 733:../Firmware/GD32VW55x_standard_peripheral/Source/gd32vw55x_cau_aes.c ****         keyaddr += 4U;
 2771              		.loc 1 733 40
 2772 0104 9C43     		lw	a5,0(a5)
 2773 0106 2320F4FE 		sw	a5,-32(s0)
 2774              	.LBB154:
 2775              	.LBB155:
 124:../Firmware/RISCV/drivers/core_compatiable.h ****         | ((value & 0x00ff0000) >> 8 )
 2776              		.loc 2 124 37
 2777 010a 832704FE 		lw	a5,-32(s0)
 2778 010e 13D78701 		srli	a4,a5,24
 125:../Firmware/RISCV/drivers/core_compatiable.h ****         | ((value & 0x0000ff00) << 8 )
 2779              		.loc 2 125 33
 2780 0112 832704FE 		lw	a5,-32(s0)
 2781 0116 93D68700 		srli	a3,a5,8
 2782 011a C167     		li	a5,65536
 2783 011c 938707F0 		addi	a5,a5,-256
 2784 0120 F58F     		and	a5,a3,a5
 125:../Firmware/RISCV/drivers/core_compatiable.h ****         | ((value & 0x0000ff00) << 8 )
 2785              		.loc 2 125 9
 2786 0122 5D8F     		or	a4,a4,a5
 126:../Firmware/RISCV/drivers/core_compatiable.h ****         | ((value & 0x000000ff) << 24);
 2787              		.loc 2 126 33
 2788 0124 832704FE 		lw	a5,-32(s0)
 2789 0128 93968700 		slli	a3,a5,8
 2790 012c B707FF00 		li	a5,16711680
 2791 0130 F58F     		and	a5,a3,a5
 126:../Firmware/RISCV/drivers/core_compatiable.h ****         | ((value & 0x000000ff) << 24);
 2792              		.loc 2 126 9
 2793 0132 5D8F     		or	a4,a4,a5
 127:../Firmware/RISCV/drivers/core_compatiable.h ****     return result;
 2794              		.loc 2 127 33
 2795 0134 832704FE 		lw	a5,-32(s0)
 2796 0138 E207     		slli	a5,a5,24
 124:../Firmware/RISCV/drivers/core_compatiable.h ****         | ((value & 0x00ff0000) >> 8 )
 2797              		.loc 2 124 12
 2798 013a D98F     		or	a5,a4,a5
 2799 013c 232EF4FC 		sw	a5,-36(s0)
 2800              		.loc 2 128 12
 2801 0140 0327C4FD 		lw	a4,-36(s0)
 2802              	.LBE155:
 2803              	.LBE154:
 733:../Firmware/GD32VW55x_standard_peripheral/Source/gd32vw55x_cau_aes.c ****         keyaddr += 4U;
 2804              		.loc 1 733 38
 2805 0144 832744F4 		lw	a5,-188(s0)
 2806 0148 98CF     		sw	a4,24(a5)
 734:../Firmware/GD32VW55x_standard_peripheral/Source/gd32vw55x_cau_aes.c ****         cau_key_initpara->key_3_low  = __REV(*(uint32_t *)(keyaddr));
 2807              		.loc 1 734 17
 2808 014a 8327C4FE 		lw	a5,-20(s0)
 2809 014e 9107     		addi	a5,a5,4
 2810 0150 2326F4FE 		sw	a5,-20(s0)
 735:../Firmware/GD32VW55x_standard_peripheral/Source/gd32vw55x_cau_aes.c ****         break;
 2811              		.loc 1 735 47
 2812 0154 8327C4FE 		lw	a5,-20(s0)
 735:../Firmware/GD32VW55x_standard_peripheral/Source/gd32vw55x_cau_aes.c ****         break;
 2813              		.loc 1 735 40
 2814 0158 9C43     		lw	a5,0(a5)
 2815 015a 2324F4FE 		sw	a5,-24(s0)
 2816              	.LBB156:
 2817              	.LBB157:
 124:../Firmware/RISCV/drivers/core_compatiable.h ****         | ((value & 0x00ff0000) >> 8 )
 2818              		.loc 2 124 37
 2819 015e 832784FE 		lw	a5,-24(s0)
 2820 0162 13D78701 		srli	a4,a5,24
 125:../Firmware/RISCV/drivers/core_compatiable.h ****         | ((value & 0x0000ff00) << 8 )
 2821              		.loc 2 125 33
 2822 0166 832784FE 		lw	a5,-24(s0)
 2823 016a 93D68700 		srli	a3,a5,8
 2824 016e C167     		li	a5,65536
 2825 0170 938707F0 		addi	a5,a5,-256
 2826 0174 F58F     		and	a5,a3,a5
 125:../Firmware/RISCV/drivers/core_compatiable.h ****         | ((value & 0x0000ff00) << 8 )
 2827              		.loc 2 125 9
 2828 0176 5D8F     		or	a4,a4,a5
 126:../Firmware/RISCV/drivers/core_compatiable.h ****         | ((value & 0x000000ff) << 24);
 2829              		.loc 2 126 33
 2830 0178 832784FE 		lw	a5,-24(s0)
 2831 017c 93968700 		slli	a3,a5,8
 2832 0180 B707FF00 		li	a5,16711680
 2833 0184 F58F     		and	a5,a3,a5
 126:../Firmware/RISCV/drivers/core_compatiable.h ****         | ((value & 0x000000ff) << 24);
 2834              		.loc 2 126 9
 2835 0186 5D8F     		or	a4,a4,a5
 127:../Firmware/RISCV/drivers/core_compatiable.h ****     return result;
 2836              		.loc 2 127 33
 2837 0188 832784FE 		lw	a5,-24(s0)
 2838 018c E207     		slli	a5,a5,24
 124:../Firmware/RISCV/drivers/core_compatiable.h ****         | ((value & 0x00ff0000) >> 8 )
 2839              		.loc 2 124 12
 2840 018e D98F     		or	a5,a4,a5
 2841 0190 2322F4FE 		sw	a5,-28(s0)
 2842              		.loc 2 128 12
 2843 0194 032744FE 		lw	a4,-28(s0)
 2844              	.LBE157:
 2845              	.LBE156:
 735:../Firmware/GD32VW55x_standard_peripheral/Source/gd32vw55x_cau_aes.c ****         break;
 2846              		.loc 1 735 38
 2847 0198 832744F4 		lw	a5,-188(s0)
 2848 019c D8CF     		sw	a4,28(a5)
 736:../Firmware/GD32VW55x_standard_peripheral/Source/gd32vw55x_cau_aes.c ****     /* 192-bit key initialization */
 2849              		.loc 1 736 9
 2850 019e 55A1     		j	.L95
 2851              	.L90:
 739:../Firmware/GD32VW55x_standard_peripheral/Source/gd32vw55x_cau_aes.c ****         cau_key_initpara->key_1_high = __REV(*(uint32_t *)(keyaddr));
 2852              		.loc 1 739 9
 2853 01a0 13050010 		li	a0,256
 2854 01a4 97000000 		call	cau_aes_keysize_config
 2854      E7800000 
 740:../Firmware/GD32VW55x_standard_peripheral/Source/gd32vw55x_cau_aes.c ****         keyaddr += 4U;
 2855              		.loc 1 740 47
 2856 01ac 8327C4FE 		lw	a5,-20(s0)
 740:../Firmware/GD32VW55x_standard_peripheral/Source/gd32vw55x_cau_aes.c ****         keyaddr += 4U;
 2857              		.loc 1 740 40
 2858 01b0 9C43     		lw	a5,0(a5)
 2859 01b2 2320F4FA 		sw	a5,-96(s0)
 2860              	.LBB158:
 2861              	.LBB159:
 124:../Firmware/RISCV/drivers/core_compatiable.h ****         | ((value & 0x00ff0000) >> 8 )
 2862              		.loc 2 124 37
 2863 01b6 832704FA 		lw	a5,-96(s0)
 2864 01ba 13D78701 		srli	a4,a5,24
 125:../Firmware/RISCV/drivers/core_compatiable.h ****         | ((value & 0x0000ff00) << 8 )
 2865              		.loc 2 125 33
 2866 01be 832704FA 		lw	a5,-96(s0)
 2867 01c2 93D68700 		srli	a3,a5,8
 2868 01c6 C167     		li	a5,65536
 2869 01c8 938707F0 		addi	a5,a5,-256
 2870 01cc F58F     		and	a5,a3,a5
 125:../Firmware/RISCV/drivers/core_compatiable.h ****         | ((value & 0x0000ff00) << 8 )
 2871              		.loc 2 125 9
 2872 01ce 5D8F     		or	a4,a4,a5
 126:../Firmware/RISCV/drivers/core_compatiable.h ****         | ((value & 0x000000ff) << 24);
 2873              		.loc 2 126 33
 2874 01d0 832704FA 		lw	a5,-96(s0)
 2875 01d4 93968700 		slli	a3,a5,8
 2876 01d8 B707FF00 		li	a5,16711680
 2877 01dc F58F     		and	a5,a3,a5
 126:../Firmware/RISCV/drivers/core_compatiable.h ****         | ((value & 0x000000ff) << 24);
 2878              		.loc 2 126 9
 2879 01de 5D8F     		or	a4,a4,a5
 127:../Firmware/RISCV/drivers/core_compatiable.h ****     return result;
 2880              		.loc 2 127 33
 2881 01e0 832704FA 		lw	a5,-96(s0)
 2882 01e4 E207     		slli	a5,a5,24
 124:../Firmware/RISCV/drivers/core_compatiable.h ****         | ((value & 0x00ff0000) >> 8 )
 2883              		.loc 2 124 12
 2884 01e6 D98F     		or	a5,a4,a5
 2885 01e8 232EF4F8 		sw	a5,-100(s0)
 2886              		.loc 2 128 12
 2887 01ec 0327C4F9 		lw	a4,-100(s0)
 2888              	.LBE159:
 2889              	.LBE158:
 740:../Firmware/GD32VW55x_standard_peripheral/Source/gd32vw55x_cau_aes.c ****         keyaddr += 4U;
 2890              		.loc 1 740 38
 2891 01f0 832744F4 		lw	a5,-188(s0)
 2892 01f4 98C7     		sw	a4,8(a5)
 741:../Firmware/GD32VW55x_standard_peripheral/Source/gd32vw55x_cau_aes.c ****         cau_key_initpara->key_1_low  = __REV(*(uint32_t *)(keyaddr));
 2893              		.loc 1 741 17
 2894 01f6 8327C4FE 		lw	a5,-20(s0)
 2895 01fa 9107     		addi	a5,a5,4
 2896 01fc 2326F4FE 		sw	a5,-20(s0)
 742:../Firmware/GD32VW55x_standard_peripheral/Source/gd32vw55x_cau_aes.c ****         keyaddr += 4U;
 2897              		.loc 1 742 47
 2898 0200 8327C4FE 		lw	a5,-20(s0)
 742:../Firmware/GD32VW55x_standard_peripheral/Source/gd32vw55x_cau_aes.c ****         keyaddr += 4U;
 2899              		.loc 1 742 40
 2900 0204 9C43     		lw	a5,0(a5)
 2901 0206 2324F4FA 		sw	a5,-88(s0)
 2902              	.LBB160:
 2903              	.LBB161:
 124:../Firmware/RISCV/drivers/core_compatiable.h ****         | ((value & 0x00ff0000) >> 8 )
 2904              		.loc 2 124 37
 2905 020a 832784FA 		lw	a5,-88(s0)
 2906 020e 13D78701 		srli	a4,a5,24
 125:../Firmware/RISCV/drivers/core_compatiable.h ****         | ((value & 0x0000ff00) << 8 )
 2907              		.loc 2 125 33
 2908 0212 832784FA 		lw	a5,-88(s0)
 2909 0216 93D68700 		srli	a3,a5,8
 2910 021a C167     		li	a5,65536
 2911 021c 938707F0 		addi	a5,a5,-256
 2912 0220 F58F     		and	a5,a3,a5
 125:../Firmware/RISCV/drivers/core_compatiable.h ****         | ((value & 0x0000ff00) << 8 )
 2913              		.loc 2 125 9
 2914 0222 5D8F     		or	a4,a4,a5
 126:../Firmware/RISCV/drivers/core_compatiable.h ****         | ((value & 0x000000ff) << 24);
 2915              		.loc 2 126 33
 2916 0224 832784FA 		lw	a5,-88(s0)
 2917 0228 93968700 		slli	a3,a5,8
 2918 022c B707FF00 		li	a5,16711680
 2919 0230 F58F     		and	a5,a3,a5
 126:../Firmware/RISCV/drivers/core_compatiable.h ****         | ((value & 0x000000ff) << 24);
 2920              		.loc 2 126 9
 2921 0232 5D8F     		or	a4,a4,a5
 127:../Firmware/RISCV/drivers/core_compatiable.h ****     return result;
 2922              		.loc 2 127 33
 2923 0234 832784FA 		lw	a5,-88(s0)
 2924 0238 E207     		slli	a5,a5,24
 124:../Firmware/RISCV/drivers/core_compatiable.h ****         | ((value & 0x00ff0000) >> 8 )
 2925              		.loc 2 124 12
 2926 023a D98F     		or	a5,a4,a5
 2927 023c 2322F4FA 		sw	a5,-92(s0)
 2928              		.loc 2 128 12
 2929 0240 032744FA 		lw	a4,-92(s0)
 2930              	.LBE161:
 2931              	.LBE160:
 742:../Firmware/GD32VW55x_standard_peripheral/Source/gd32vw55x_cau_aes.c ****         keyaddr += 4U;
 2932              		.loc 1 742 38
 2933 0244 832744F4 		lw	a5,-188(s0)
 2934 0248 D8C7     		sw	a4,12(a5)
 743:../Firmware/GD32VW55x_standard_peripheral/Source/gd32vw55x_cau_aes.c ****         cau_key_initpara->key_2_high = __REV(*(uint32_t *)(keyaddr));
 2935              		.loc 1 743 17
 2936 024a 8327C4FE 		lw	a5,-20(s0)
 2937 024e 9107     		addi	a5,a5,4
 2938 0250 2326F4FE 		sw	a5,-20(s0)
 744:../Firmware/GD32VW55x_standard_peripheral/Source/gd32vw55x_cau_aes.c ****         keyaddr += 4U;
 2939              		.loc 1 744 47
 2940 0254 8327C4FE 		lw	a5,-20(s0)
 744:../Firmware/GD32VW55x_standard_peripheral/Source/gd32vw55x_cau_aes.c ****         keyaddr += 4U;
 2941              		.loc 1 744 40
 2942 0258 9C43     		lw	a5,0(a5)
 2943 025a 2328F4FA 		sw	a5,-80(s0)
 2944              	.LBB162:
 2945              	.LBB163:
 124:../Firmware/RISCV/drivers/core_compatiable.h ****         | ((value & 0x00ff0000) >> 8 )
 2946              		.loc 2 124 37
 2947 025e 832704FB 		lw	a5,-80(s0)
 2948 0262 13D78701 		srli	a4,a5,24
 125:../Firmware/RISCV/drivers/core_compatiable.h ****         | ((value & 0x0000ff00) << 8 )
 2949              		.loc 2 125 33
 2950 0266 832704FB 		lw	a5,-80(s0)
 2951 026a 93D68700 		srli	a3,a5,8
 2952 026e C167     		li	a5,65536
 2953 0270 938707F0 		addi	a5,a5,-256
 2954 0274 F58F     		and	a5,a3,a5
 125:../Firmware/RISCV/drivers/core_compatiable.h ****         | ((value & 0x0000ff00) << 8 )
 2955              		.loc 2 125 9
 2956 0276 5D8F     		or	a4,a4,a5
 126:../Firmware/RISCV/drivers/core_compatiable.h ****         | ((value & 0x000000ff) << 24);
 2957              		.loc 2 126 33
 2958 0278 832704FB 		lw	a5,-80(s0)
 2959 027c 93968700 		slli	a3,a5,8
 2960 0280 B707FF00 		li	a5,16711680
 2961 0284 F58F     		and	a5,a3,a5
 126:../Firmware/RISCV/drivers/core_compatiable.h ****         | ((value & 0x000000ff) << 24);
 2962              		.loc 2 126 9
 2963 0286 5D8F     		or	a4,a4,a5
 127:../Firmware/RISCV/drivers/core_compatiable.h ****     return result;
 2964              		.loc 2 127 33
 2965 0288 832704FB 		lw	a5,-80(s0)
 2966 028c E207     		slli	a5,a5,24
 124:../Firmware/RISCV/drivers/core_compatiable.h ****         | ((value & 0x00ff0000) >> 8 )
 2967              		.loc 2 124 12
 2968 028e D98F     		or	a5,a4,a5
 2969 0290 2326F4FA 		sw	a5,-84(s0)
 2970              		.loc 2 128 12
 2971 0294 0327C4FA 		lw	a4,-84(s0)
 2972              	.LBE163:
 2973              	.LBE162:
 744:../Firmware/GD32VW55x_standard_peripheral/Source/gd32vw55x_cau_aes.c ****         keyaddr += 4U;
 2974              		.loc 1 744 38
 2975 0298 832744F4 		lw	a5,-188(s0)
 2976 029c 98CB     		sw	a4,16(a5)
 745:../Firmware/GD32VW55x_standard_peripheral/Source/gd32vw55x_cau_aes.c ****         cau_key_initpara->key_2_low  = __REV(*(uint32_t *)(keyaddr));
 2977              		.loc 1 745 17
 2978 029e 8327C4FE 		lw	a5,-20(s0)
 2979 02a2 9107     		addi	a5,a5,4
 2980 02a4 2326F4FE 		sw	a5,-20(s0)
 746:../Firmware/GD32VW55x_standard_peripheral/Source/gd32vw55x_cau_aes.c ****         keyaddr += 4U;
 2981              		.loc 1 746 47
 2982 02a8 8327C4FE 		lw	a5,-20(s0)
 746:../Firmware/GD32VW55x_standard_peripheral/Source/gd32vw55x_cau_aes.c ****         keyaddr += 4U;
 2983              		.loc 1 746 40
 2984 02ac 9C43     		lw	a5,0(a5)
 2985 02ae 232CF4FA 		sw	a5,-72(s0)
 2986              	.LBB164:
 2987              	.LBB165:
 124:../Firmware/RISCV/drivers/core_compatiable.h ****         | ((value & 0x00ff0000) >> 8 )
 2988              		.loc 2 124 37
 2989 02b2 832784FB 		lw	a5,-72(s0)
 2990 02b6 13D78701 		srli	a4,a5,24
 125:../Firmware/RISCV/drivers/core_compatiable.h ****         | ((value & 0x0000ff00) << 8 )
 2991              		.loc 2 125 33
 2992 02ba 832784FB 		lw	a5,-72(s0)
 2993 02be 93D68700 		srli	a3,a5,8
 2994 02c2 C167     		li	a5,65536
 2995 02c4 938707F0 		addi	a5,a5,-256
 2996 02c8 F58F     		and	a5,a3,a5
 125:../Firmware/RISCV/drivers/core_compatiable.h ****         | ((value & 0x0000ff00) << 8 )
 2997              		.loc 2 125 9
 2998 02ca 5D8F     		or	a4,a4,a5
 126:../Firmware/RISCV/drivers/core_compatiable.h ****         | ((value & 0x000000ff) << 24);
 2999              		.loc 2 126 33
 3000 02cc 832784FB 		lw	a5,-72(s0)
 3001 02d0 93968700 		slli	a3,a5,8
 3002 02d4 B707FF00 		li	a5,16711680
 3003 02d8 F58F     		and	a5,a3,a5
 126:../Firmware/RISCV/drivers/core_compatiable.h ****         | ((value & 0x000000ff) << 24);
 3004              		.loc 2 126 9
 3005 02da 5D8F     		or	a4,a4,a5
 127:../Firmware/RISCV/drivers/core_compatiable.h ****     return result;
 3006              		.loc 2 127 33
 3007 02dc 832784FB 		lw	a5,-72(s0)
 3008 02e0 E207     		slli	a5,a5,24
 124:../Firmware/RISCV/drivers/core_compatiable.h ****         | ((value & 0x00ff0000) >> 8 )
 3009              		.loc 2 124 12
 3010 02e2 D98F     		or	a5,a4,a5
 3011 02e4 232AF4FA 		sw	a5,-76(s0)
 3012              		.loc 2 128 12
 3013 02e8 032744FB 		lw	a4,-76(s0)
 3014              	.LBE165:
 3015              	.LBE164:
 746:../Firmware/GD32VW55x_standard_peripheral/Source/gd32vw55x_cau_aes.c ****         keyaddr += 4U;
 3016              		.loc 1 746 38
 3017 02ec 832744F4 		lw	a5,-188(s0)
 3018 02f0 D8CB     		sw	a4,20(a5)
 747:../Firmware/GD32VW55x_standard_peripheral/Source/gd32vw55x_cau_aes.c ****         cau_key_initpara->key_3_high = __REV(*(uint32_t *)(keyaddr));
 3019              		.loc 1 747 17
 3020 02f2 8327C4FE 		lw	a5,-20(s0)
 3021 02f6 9107     		addi	a5,a5,4
 3022 02f8 2326F4FE 		sw	a5,-20(s0)
 748:../Firmware/GD32VW55x_standard_peripheral/Source/gd32vw55x_cau_aes.c ****         keyaddr += 4U;
 3023              		.loc 1 748 47
 3024 02fc 8327C4FE 		lw	a5,-20(s0)
 748:../Firmware/GD32VW55x_standard_peripheral/Source/gd32vw55x_cau_aes.c ****         keyaddr += 4U;
 3025              		.loc 1 748 40
 3026 0300 9C43     		lw	a5,0(a5)
 3027 0302 2320F4FC 		sw	a5,-64(s0)
 3028              	.LBB166:
 3029              	.LBB167:
 124:../Firmware/RISCV/drivers/core_compatiable.h ****         | ((value & 0x00ff0000) >> 8 )
 3030              		.loc 2 124 37
 3031 0306 832704FC 		lw	a5,-64(s0)
 3032 030a 13D78701 		srli	a4,a5,24
 125:../Firmware/RISCV/drivers/core_compatiable.h ****         | ((value & 0x0000ff00) << 8 )
 3033              		.loc 2 125 33
 3034 030e 832704FC 		lw	a5,-64(s0)
 3035 0312 93D68700 		srli	a3,a5,8
 3036 0316 C167     		li	a5,65536
 3037 0318 938707F0 		addi	a5,a5,-256
 3038 031c F58F     		and	a5,a3,a5
 125:../Firmware/RISCV/drivers/core_compatiable.h ****         | ((value & 0x0000ff00) << 8 )
 3039              		.loc 2 125 9
 3040 031e 5D8F     		or	a4,a4,a5
 126:../Firmware/RISCV/drivers/core_compatiable.h ****         | ((value & 0x000000ff) << 24);
 3041              		.loc 2 126 33
 3042 0320 832704FC 		lw	a5,-64(s0)
 3043 0324 93968700 		slli	a3,a5,8
 3044 0328 B707FF00 		li	a5,16711680
 3045 032c F58F     		and	a5,a3,a5
 126:../Firmware/RISCV/drivers/core_compatiable.h ****         | ((value & 0x000000ff) << 24);
 3046              		.loc 2 126 9
 3047 032e 5D8F     		or	a4,a4,a5
 127:../Firmware/RISCV/drivers/core_compatiable.h ****     return result;
 3048              		.loc 2 127 33
 3049 0330 832704FC 		lw	a5,-64(s0)
 3050 0334 E207     		slli	a5,a5,24
 124:../Firmware/RISCV/drivers/core_compatiable.h ****         | ((value & 0x00ff0000) >> 8 )
 3051              		.loc 2 124 12
 3052 0336 D98F     		or	a5,a4,a5
 3053 0338 232EF4FA 		sw	a5,-68(s0)
 3054              		.loc 2 128 12
 3055 033c 0327C4FB 		lw	a4,-68(s0)
 3056              	.LBE167:
 3057              	.LBE166:
 748:../Firmware/GD32VW55x_standard_peripheral/Source/gd32vw55x_cau_aes.c ****         keyaddr += 4U;
 3058              		.loc 1 748 38
 3059 0340 832744F4 		lw	a5,-188(s0)
 3060 0344 98CF     		sw	a4,24(a5)
 749:../Firmware/GD32VW55x_standard_peripheral/Source/gd32vw55x_cau_aes.c ****         cau_key_initpara->key_3_low  = __REV(*(uint32_t *)(keyaddr));
 3061              		.loc 1 749 17
 3062 0346 8327C4FE 		lw	a5,-20(s0)
 3063 034a 9107     		addi	a5,a5,4
 3064 034c 2326F4FE 		sw	a5,-20(s0)
 750:../Firmware/GD32VW55x_standard_peripheral/Source/gd32vw55x_cau_aes.c ****         break;
 3065              		.loc 1 750 47
 3066 0350 8327C4FE 		lw	a5,-20(s0)
 750:../Firmware/GD32VW55x_standard_peripheral/Source/gd32vw55x_cau_aes.c ****         break;
 3067              		.loc 1 750 40
 3068 0354 9C43     		lw	a5,0(a5)
 3069 0356 2324F4FC 		sw	a5,-56(s0)
 3070              	.LBB168:
 3071              	.LBB169:
 124:../Firmware/RISCV/drivers/core_compatiable.h ****         | ((value & 0x00ff0000) >> 8 )
 3072              		.loc 2 124 37
 3073 035a 832784FC 		lw	a5,-56(s0)
 3074 035e 13D78701 		srli	a4,a5,24
 125:../Firmware/RISCV/drivers/core_compatiable.h ****         | ((value & 0x0000ff00) << 8 )
 3075              		.loc 2 125 33
 3076 0362 832784FC 		lw	a5,-56(s0)
 3077 0366 93D68700 		srli	a3,a5,8
 3078 036a C167     		li	a5,65536
 3079 036c 938707F0 		addi	a5,a5,-256
 3080 0370 F58F     		and	a5,a3,a5
 125:../Firmware/RISCV/drivers/core_compatiable.h ****         | ((value & 0x0000ff00) << 8 )
 3081              		.loc 2 125 9
 3082 0372 5D8F     		or	a4,a4,a5
 126:../Firmware/RISCV/drivers/core_compatiable.h ****         | ((value & 0x000000ff) << 24);
 3083              		.loc 2 126 33
 3084 0374 832784FC 		lw	a5,-56(s0)
 3085 0378 93968700 		slli	a3,a5,8
 3086 037c B707FF00 		li	a5,16711680
 3087 0380 F58F     		and	a5,a3,a5
 126:../Firmware/RISCV/drivers/core_compatiable.h ****         | ((value & 0x000000ff) << 24);
 3088              		.loc 2 126 9
 3089 0382 5D8F     		or	a4,a4,a5
 127:../Firmware/RISCV/drivers/core_compatiable.h ****     return result;
 3090              		.loc 2 127 33
 3091 0384 832784FC 		lw	a5,-56(s0)
 3092 0388 E207     		slli	a5,a5,24
 124:../Firmware/RISCV/drivers/core_compatiable.h ****         | ((value & 0x00ff0000) >> 8 )
 3093              		.loc 2 124 12
 3094 038a D98F     		or	a5,a4,a5
 3095 038c 2322F4FC 		sw	a5,-60(s0)
 3096              		.loc 2 128 12
 3097 0390 032744FC 		lw	a4,-60(s0)
 3098              	.LBE169:
 3099              	.LBE168:
 750:../Firmware/GD32VW55x_standard_peripheral/Source/gd32vw55x_cau_aes.c ****         break;
 3100              		.loc 1 750 38
 3101 0394 832744F4 		lw	a5,-188(s0)
 3102 0398 D8CF     		sw	a4,28(a5)
 751:../Firmware/GD32VW55x_standard_peripheral/Source/gd32vw55x_cau_aes.c ****     /* 256-bit key initialization */
 3103              		.loc 1 751 9
 3104 039a 65A4     		j	.L95
 3105              	.L87:
 754:../Firmware/GD32VW55x_standard_peripheral/Source/gd32vw55x_cau_aes.c ****         cau_key_initpara->key_0_high = __REV(*(uint32_t *)(keyaddr));
 3106              		.loc 1 754 9
 3107 039c 13050020 		li	a0,512
 3108 03a0 97000000 		call	cau_aes_keysize_config
 3108      E7800000 
 755:../Firmware/GD32VW55x_standard_peripheral/Source/gd32vw55x_cau_aes.c ****         keyaddr += 4U;
 3109              		.loc 1 755 47
 3110 03a8 8327C4FE 		lw	a5,-20(s0)
 755:../Firmware/GD32VW55x_standard_peripheral/Source/gd32vw55x_cau_aes.c ****         keyaddr += 4U;
 3111              		.loc 1 755 40
 3112 03ac 9C43     		lw	a5,0(a5)
 3113 03ae 2320F4F6 		sw	a5,-160(s0)
 3114              	.LBB170:
 3115              	.LBB171:
 124:../Firmware/RISCV/drivers/core_compatiable.h ****         | ((value & 0x00ff0000) >> 8 )
 3116              		.loc 2 124 37
 3117 03b2 832704F6 		lw	a5,-160(s0)
 3118 03b6 13D78701 		srli	a4,a5,24
 125:../Firmware/RISCV/drivers/core_compatiable.h ****         | ((value & 0x0000ff00) << 8 )
 3119              		.loc 2 125 33
 3120 03ba 832704F6 		lw	a5,-160(s0)
 3121 03be 93D68700 		srli	a3,a5,8
 3122 03c2 C167     		li	a5,65536
 3123 03c4 938707F0 		addi	a5,a5,-256
 3124 03c8 F58F     		and	a5,a3,a5
 125:../Firmware/RISCV/drivers/core_compatiable.h ****         | ((value & 0x0000ff00) << 8 )
 3125              		.loc 2 125 9
 3126 03ca 5D8F     		or	a4,a4,a5
 126:../Firmware/RISCV/drivers/core_compatiable.h ****         | ((value & 0x000000ff) << 24);
 3127              		.loc 2 126 33
 3128 03cc 832704F6 		lw	a5,-160(s0)
 3129 03d0 93968700 		slli	a3,a5,8
 3130 03d4 B707FF00 		li	a5,16711680
 3131 03d8 F58F     		and	a5,a3,a5
 126:../Firmware/RISCV/drivers/core_compatiable.h ****         | ((value & 0x000000ff) << 24);
 3132              		.loc 2 126 9
 3133 03da 5D8F     		or	a4,a4,a5
 127:../Firmware/RISCV/drivers/core_compatiable.h ****     return result;
 3134              		.loc 2 127 33
 3135 03dc 832704F6 		lw	a5,-160(s0)
 3136 03e0 E207     		slli	a5,a5,24
 124:../Firmware/RISCV/drivers/core_compatiable.h ****         | ((value & 0x00ff0000) >> 8 )
 3137              		.loc 2 124 12
 3138 03e2 D98F     		or	a5,a4,a5
 3139 03e4 232EF4F4 		sw	a5,-164(s0)
 3140              		.loc 2 128 12
 3141 03e8 0327C4F5 		lw	a4,-164(s0)
 3142              	.LBE171:
 3143              	.LBE170:
 755:../Firmware/GD32VW55x_standard_peripheral/Source/gd32vw55x_cau_aes.c ****         keyaddr += 4U;
 3144              		.loc 1 755 38
 3145 03ec 832744F4 		lw	a5,-188(s0)
 3146 03f0 98C3     		sw	a4,0(a5)
 756:../Firmware/GD32VW55x_standard_peripheral/Source/gd32vw55x_cau_aes.c ****         cau_key_initpara->key_0_low  = __REV(*(uint32_t *)(keyaddr));
 3147              		.loc 1 756 17
 3148 03f2 8327C4FE 		lw	a5,-20(s0)
 3149 03f6 9107     		addi	a5,a5,4
 3150 03f8 2326F4FE 		sw	a5,-20(s0)
 757:../Firmware/GD32VW55x_standard_peripheral/Source/gd32vw55x_cau_aes.c ****         keyaddr += 4U;
 3151              		.loc 1 757 47
 3152 03fc 8327C4FE 		lw	a5,-20(s0)
 757:../Firmware/GD32VW55x_standard_peripheral/Source/gd32vw55x_cau_aes.c ****         keyaddr += 4U;
 3153              		.loc 1 757 40
 3154 0400 9C43     		lw	a5,0(a5)
 3155 0402 2324F4F6 		sw	a5,-152(s0)
 3156              	.LBB172:
 3157              	.LBB173:
 124:../Firmware/RISCV/drivers/core_compatiable.h ****         | ((value & 0x00ff0000) >> 8 )
 3158              		.loc 2 124 37
 3159 0406 832784F6 		lw	a5,-152(s0)
 3160 040a 13D78701 		srli	a4,a5,24
